
target/thumbv6m-none-eabi/opt-1/examples/complex_dynamic_type:     file format elf32-littlearm

Sections:
Idx Name          Size      VMA       LMA       File off  Algn
  0 .ARM.exidx    00000010  000100d4  000100d4  000000d4  2**2
                  CONTENTS, ALLOC, LOAD, READONLY, DATA
  1 .rodata       00000b60  000100e4  000100e4  000000e4  2**0
                  CONTENTS, ALLOC, LOAD, READONLY, DATA
  2 .text         0000aa10  00020c44  00020c44  00000c44  2**2
                  CONTENTS, ALLOC, LOAD, READONLY, CODE
  3 .comment      0000008b  00000000  00000000  0000b654  2**0
                  CONTENTS, READONLY
  4 .ARM.attributes 00000032  00000000  00000000  0000b6df  2**0
                  CONTENTS, READONLY

Disassembly of section .text:

00020c44 <_ZN20complex_dynamic_type3app17h07c9640483ea8cd5E>:
   20c44:	b5f0      	push	{r4, r5, r6, r7, lr}
   20c46:	af03      	add	r7, sp, #12
   20c48:	b0a7      	sub	sp, #156	@ 0x9c
   20c4a:	9005      	str	r0, [sp, #20]
   20c4c:	a806      	add	r0, sp, #24
   20c4e:	2502      	movs	r5, #2
   20c50:	7005      	strb	r5, [r0, #0]
   20c52:	1c40      	adds	r0, r0, #1
   20c54:	9003      	str	r0, [sp, #12]
   20c56:	245d      	movs	r4, #93	@ 0x5d
   20c58:	4622      	mov	r2, r4
   20c5a:	f00a fcf6 	bl	2b64a <__aeabi_memcpy>
   20c5e:	ae1e      	add	r6, sp, #120	@ 0x78
   20c60:	1c70      	adds	r0, r6, #1
   20c62:	2112      	movs	r1, #18
   20c64:	9004      	str	r0, [sp, #16]
   20c66:	9102      	str	r1, [sp, #8]
   20c68:	f00a fb2f 	bl	2b2ca <__aeabi_memclr>
   20c6c:	7035      	strb	r5, [r6, #0]
   20c6e:	2504      	movs	r5, #4
   20c70:	9400      	str	r4, [sp, #0]
   20c72:	9501      	str	r5, [sp, #4]
   20c74:	a823      	add	r0, sp, #140	@ 0x8c
   20c76:	493c      	ldr	r1, [pc, #240]	@ (20d68 <_ZN20complex_dynamic_type3app17h07c9640483ea8cd5E+0x124>)
   20c78:	2400      	movs	r4, #0
   20c7a:	4622      	mov	r2, r4
   20c7c:	9b03      	ldr	r3, [sp, #12]
   20c7e:	f00a fb0c 	bl	2b29a <_ZN9allow_pin13dynamic_allow17h33d41317a2da4f1cE>
   20c82:	9823      	ldr	r0, [sp, #140]	@ 0x8c
   20c84:	2802      	cmp	r0, #2
   20c86:	d101      	bne.n	20c8c <_ZN20complex_dynamic_type3app17h07c9640483ea8cd5E+0x48>
   20c88:	9924      	ldr	r1, [sp, #144]	@ 0x90
   20c8a:	e001      	b.n	20c90 <_ZN20complex_dynamic_type3app17h07c9640483ea8cd5E+0x4c>
   20c8c:	a906      	add	r1, sp, #24
   20c8e:	700d      	strb	r5, [r1, #0]
   20c90:	2601      	movs	r6, #1
   20c92:	2802      	cmp	r0, #2
   20c94:	d024      	beq.n	20ce0 <_ZN20complex_dynamic_type3app17h07c9640483ea8cd5E+0x9c>
   20c96:	a81e      	add	r0, sp, #120	@ 0x78
   20c98:	7800      	ldrb	r0, [r0, #0]
   20c9a:	2802      	cmp	r0, #2
   20c9c:	d10e      	bne.n	20cbc <_ZN20complex_dynamic_type3app17h07c9640483ea8cd5E+0x78>
   20c9e:	2503      	movs	r5, #3
   20ca0:	9802      	ldr	r0, [sp, #8]
   20ca2:	9000      	str	r0, [sp, #0]
   20ca4:	9501      	str	r5, [sp, #4]
   20ca6:	a823      	add	r0, sp, #140	@ 0x8c
   20ca8:	2202      	movs	r2, #2
   20caa:	492f      	ldr	r1, [pc, #188]	@ (20d68 <_ZN20complex_dynamic_type3app17h07c9640483ea8cd5E+0x124>)
   20cac:	9b04      	ldr	r3, [sp, #16]
   20cae:	f00a faf4 	bl	2b29a <_ZN9allow_pin13dynamic_allow17h33d41317a2da4f1cE>
   20cb2:	9823      	ldr	r0, [sp, #140]	@ 0x8c
   20cb4:	2802      	cmp	r0, #2
   20cb6:	d106      	bne.n	20cc6 <_ZN20complex_dynamic_type3app17h07c9640483ea8cd5E+0x82>
   20cb8:	9924      	ldr	r1, [sp, #144]	@ 0x90
   20cba:	e000      	b.n	20cbe <_ZN20complex_dynamic_type3app17h07c9640483ea8cd5E+0x7a>
   20cbc:	2103      	movs	r1, #3
   20cbe:	4634      	mov	r4, r6
   20cc0:	2c00      	cmp	r4, #0
   20cc2:	d004      	beq.n	20cce <_ZN20complex_dynamic_type3app17h07c9640483ea8cd5E+0x8a>
   20cc4:	e00c      	b.n	20ce0 <_ZN20complex_dynamic_type3app17h07c9640483ea8cd5E+0x9c>
   20cc6:	a81e      	add	r0, sp, #120	@ 0x78
   20cc8:	7005      	strb	r5, [r0, #0]
   20cca:	2c00      	cmp	r4, #0
   20ccc:	d108      	bne.n	20ce0 <_ZN20complex_dynamic_type3app17h07c9640483ea8cd5E+0x9c>
   20cce:	4826      	ldr	r0, [pc, #152]	@ (20d68 <_ZN20complex_dynamic_type3app17h07c9640483ea8cd5E+0x124>)
   20cd0:	2502      	movs	r5, #2
   20cd2:	2400      	movs	r4, #0
   20cd4:	4621      	mov	r1, r4
   20cd6:	462a      	mov	r2, r5
   20cd8:	4623      	mov	r3, r4
   20cda:	df02      	svc	2
   20cdc:	287f      	cmp	r0, #127	@ 0x7f
   20cde:	d80d      	bhi.n	20cfc <_ZN20complex_dynamic_type3app17h07c9640483ea8cd5E+0xb8>
   20ce0:	4634      	mov	r4, r6
   20ce2:	2c00      	cmp	r4, #0
   20ce4:	d020      	beq.n	20d28 <_ZN20complex_dynamic_type3app17h07c9640483ea8cd5E+0xe4>
   20ce6:	2001      	movs	r0, #1
   20ce8:	9a05      	ldr	r2, [sp, #20]
   20cea:	7010      	strb	r0, [r2, #0]
   20cec:	6051      	str	r1, [r2, #4]
   20cee:	a81e      	add	r0, sp, #120	@ 0x78
   20cf0:	7802      	ldrb	r2, [r0, #0]
   20cf2:	2a02      	cmp	r2, #2
   20cf4:	d02d      	beq.n	20d52 <_ZN20complex_dynamic_type3app17h07c9640483ea8cd5E+0x10e>
   20cf6:	2102      	movs	r1, #2
   20cf8:	481b      	ldr	r0, [pc, #108]	@ (20d68 <_ZN20complex_dynamic_type3app17h07c9640483ea8cd5E+0x124>)
   20cfa:	e028      	b.n	20d4e <_ZN20complex_dynamic_type3app17h07c9640483ea8cd5E+0x10a>
   20cfc:	a806      	add	r0, sp, #24
   20cfe:	7802      	ldrb	r2, [r0, #0]
   20d00:	2a02      	cmp	r2, #2
   20d02:	d003      	beq.n	20d0c <_ZN20complex_dynamic_type3app17h07c9640483ea8cd5E+0xc8>
   20d04:	2100      	movs	r1, #0
   20d06:	4818      	ldr	r0, [pc, #96]	@ (20d68 <_ZN20complex_dynamic_type3app17h07c9640483ea8cd5E+0x124>)
   20d08:	f00a faba 	bl	2b280 <_ZN9allow_pin12dynamic_type7unshare17hefa7cd45f9379b26E>
   20d0c:	a806      	add	r0, sp, #24
   20d0e:	7005      	strb	r5, [r0, #0]
   20d10:	a81e      	add	r0, sp, #120	@ 0x78
   20d12:	7802      	ldrb	r2, [r0, #0]
   20d14:	2a02      	cmp	r2, #2
   20d16:	d003      	beq.n	20d20 <_ZN20complex_dynamic_type3app17h07c9640483ea8cd5E+0xdc>
   20d18:	2102      	movs	r1, #2
   20d1a:	4813      	ldr	r0, [pc, #76]	@ (20d68 <_ZN20complex_dynamic_type3app17h07c9640483ea8cd5E+0x124>)
   20d1c:	f00a fab0 	bl	2b280 <_ZN9allow_pin12dynamic_type7unshare17hefa7cd45f9379b26E>
   20d20:	a81e      	add	r0, sp, #120	@ 0x78
   20d22:	7005      	strb	r5, [r0, #0]
   20d24:	2c00      	cmp	r4, #0
   20d26:	d1de      	bne.n	20ce6 <_ZN20complex_dynamic_type3app17h07c9640483ea8cd5E+0xa2>
   20d28:	a81e      	add	r0, sp, #120	@ 0x78
   20d2a:	7804      	ldrb	r4, [r0, #0]
   20d2c:	2c02      	cmp	r4, #2
   20d2e:	d001      	beq.n	20d34 <_ZN20complex_dynamic_type3app17h07c9640483ea8cd5E+0xf0>
   20d30:	480e      	ldr	r0, [pc, #56]	@ (20d6c <_ZN20complex_dynamic_type3app17h07c9640483ea8cd5E+0x128>)
   20d32:	9004      	str	r0, [sp, #16]
   20d34:	9d05      	ldr	r5, [sp, #20]
   20d36:	1c68      	adds	r0, r5, #1
   20d38:	2212      	movs	r2, #18
   20d3a:	9904      	ldr	r1, [sp, #16]
   20d3c:	f00a fc85 	bl	2b64a <__aeabi_memcpy>
   20d40:	2000      	movs	r0, #0
   20d42:	2c02      	cmp	r4, #2
   20d44:	7028      	strb	r0, [r5, #0]
   20d46:	d004      	beq.n	20d52 <_ZN20complex_dynamic_type3app17h07c9640483ea8cd5E+0x10e>
   20d48:	2102      	movs	r1, #2
   20d4a:	4807      	ldr	r0, [pc, #28]	@ (20d68 <_ZN20complex_dynamic_type3app17h07c9640483ea8cd5E+0x124>)
   20d4c:	4622      	mov	r2, r4
   20d4e:	f00a fa97 	bl	2b280 <_ZN9allow_pin12dynamic_type7unshare17hefa7cd45f9379b26E>
   20d52:	a806      	add	r0, sp, #24
   20d54:	7802      	ldrb	r2, [r0, #0]
   20d56:	2a02      	cmp	r2, #2
   20d58:	d003      	beq.n	20d62 <_ZN20complex_dynamic_type3app17h07c9640483ea8cd5E+0x11e>
   20d5a:	2100      	movs	r1, #0
   20d5c:	4802      	ldr	r0, [pc, #8]	@ (20d68 <_ZN20complex_dynamic_type3app17h07c9640483ea8cd5E+0x124>)
   20d5e:	f00a fa8f 	bl	2b280 <_ZN9allow_pin12dynamic_type7unshare17hefa7cd45f9379b26E>
   20d62:	b027      	add	sp, #156	@ 0x9c
   20d64:	bdf0      	pop	{r4, r5, r6, r7, pc}
   20d66:	46c0      	nop			@ (mov r8, r8)
   20d68:	000015f1 	.word	0x000015f1
   20d6c:	00010bcf 	.word	0x00010bcf

00020d70 <_ZN20complex_dynamic_type3app17h0947454a05c19f10E>:
   20d70:	b5f0      	push	{r4, r5, r6, r7, lr}
   20d72:	af03      	add	r7, sp, #12
   20d74:	b0af      	sub	sp, #188	@ 0xbc
   20d76:	9007      	str	r0, [sp, #28]
   20d78:	a808      	add	r0, sp, #32
   20d7a:	2502      	movs	r5, #2
   20d7c:	7005      	strb	r5, [r0, #0]
   20d7e:	1c40      	adds	r0, r0, #1
   20d80:	9005      	str	r0, [sp, #20]
   20d82:	2655      	movs	r6, #85	@ 0x55
   20d84:	4632      	mov	r2, r6
   20d86:	f00a fc60 	bl	2b64a <__aeabi_memcpy>
   20d8a:	ac1e      	add	r4, sp, #120	@ 0x78
   20d8c:	1c60      	adds	r0, r4, #1
   20d8e:	2132      	movs	r1, #50	@ 0x32
   20d90:	9006      	str	r0, [sp, #24]
   20d92:	9104      	str	r1, [sp, #16]
   20d94:	f00a fa99 	bl	2b2ca <__aeabi_memclr>
   20d98:	9503      	str	r5, [sp, #12]
   20d9a:	7025      	strb	r5, [r4, #0]
   20d9c:	2404      	movs	r4, #4
   20d9e:	9600      	str	r6, [sp, #0]
   20da0:	9401      	str	r4, [sp, #4]
   20da2:	a82b      	add	r0, sp, #172	@ 0xac
   20da4:	4e3c      	ldr	r6, [pc, #240]	@ (20e98 <_ZN20complex_dynamic_type3app17h0947454a05c19f10E+0x128>)
   20da6:	2208      	movs	r2, #8
   20da8:	4631      	mov	r1, r6
   20daa:	9b05      	ldr	r3, [sp, #20]
   20dac:	f00a fa75 	bl	2b29a <_ZN9allow_pin13dynamic_allow17h33d41317a2da4f1cE>
   20db0:	982b      	ldr	r0, [sp, #172]	@ 0xac
   20db2:	2802      	cmp	r0, #2
   20db4:	d101      	bne.n	20dba <_ZN20complex_dynamic_type3app17h0947454a05c19f10E+0x4a>
   20db6:	992c      	ldr	r1, [sp, #176]	@ 0xb0
   20db8:	e001      	b.n	20dbe <_ZN20complex_dynamic_type3app17h0947454a05c19f10E+0x4e>
   20dba:	a908      	add	r1, sp, #32
   20dbc:	700c      	strb	r4, [r1, #0]
   20dbe:	2501      	movs	r5, #1
   20dc0:	2802      	cmp	r0, #2
   20dc2:	d024      	beq.n	20e0e <_ZN20complex_dynamic_type3app17h0947454a05c19f10E+0x9e>
   20dc4:	a81e      	add	r0, sp, #120	@ 0x78
   20dc6:	7800      	ldrb	r0, [r0, #0]
   20dc8:	2802      	cmp	r0, #2
   20dca:	d10e      	bne.n	20dea <_ZN20complex_dynamic_type3app17h0947454a05c19f10E+0x7a>
   20dcc:	2403      	movs	r4, #3
   20dce:	9804      	ldr	r0, [sp, #16]
   20dd0:	9000      	str	r0, [sp, #0]
   20dd2:	9401      	str	r4, [sp, #4]
   20dd4:	a82b      	add	r0, sp, #172	@ 0xac
   20dd6:	2208      	movs	r2, #8
   20dd8:	4631      	mov	r1, r6
   20dda:	9b06      	ldr	r3, [sp, #24]
   20ddc:	f00a fa5d 	bl	2b29a <_ZN9allow_pin13dynamic_allow17h33d41317a2da4f1cE>
   20de0:	982b      	ldr	r0, [sp, #172]	@ 0xac
   20de2:	2802      	cmp	r0, #2
   20de4:	d106      	bne.n	20df4 <_ZN20complex_dynamic_type3app17h0947454a05c19f10E+0x84>
   20de6:	992c      	ldr	r1, [sp, #176]	@ 0xb0
   20de8:	e000      	b.n	20dec <_ZN20complex_dynamic_type3app17h0947454a05c19f10E+0x7c>
   20dea:	2103      	movs	r1, #3
   20dec:	4628      	mov	r0, r5
   20dee:	2800      	cmp	r0, #0
   20df0:	d005      	beq.n	20dfe <_ZN20complex_dynamic_type3app17h0947454a05c19f10E+0x8e>
   20df2:	e00c      	b.n	20e0e <_ZN20complex_dynamic_type3app17h0947454a05c19f10E+0x9e>
   20df4:	a81e      	add	r0, sp, #120	@ 0x78
   20df6:	7004      	strb	r4, [r0, #0]
   20df8:	2000      	movs	r0, #0
   20dfa:	2800      	cmp	r0, #0
   20dfc:	d107      	bne.n	20e0e <_ZN20complex_dynamic_type3app17h0947454a05c19f10E+0x9e>
   20dfe:	4826      	ldr	r0, [pc, #152]	@ (20e98 <_ZN20complex_dynamic_type3app17h0947454a05c19f10E+0x128>)
   20e00:	2108      	movs	r1, #8
   20e02:	2400      	movs	r4, #0
   20e04:	460a      	mov	r2, r1
   20e06:	4623      	mov	r3, r4
   20e08:	df02      	svc	2
   20e0a:	287f      	cmp	r0, #127	@ 0x7f
   20e0c:	d80d      	bhi.n	20e2a <_ZN20complex_dynamic_type3app17h0947454a05c19f10E+0xba>
   20e0e:	462c      	mov	r4, r5
   20e10:	2c00      	cmp	r4, #0
   20e12:	d021      	beq.n	20e58 <_ZN20complex_dynamic_type3app17h0947454a05c19f10E+0xe8>
   20e14:	2001      	movs	r0, #1
   20e16:	9a07      	ldr	r2, [sp, #28]
   20e18:	7010      	strb	r0, [r2, #0]
   20e1a:	6051      	str	r1, [r2, #4]
   20e1c:	a81e      	add	r0, sp, #120	@ 0x78
   20e1e:	7802      	ldrb	r2, [r0, #0]
   20e20:	2a02      	cmp	r2, #2
   20e22:	d02e      	beq.n	20e82 <_ZN20complex_dynamic_type3app17h0947454a05c19f10E+0x112>
   20e24:	2108      	movs	r1, #8
   20e26:	4630      	mov	r0, r6
   20e28:	e029      	b.n	20e7e <_ZN20complex_dynamic_type3app17h0947454a05c19f10E+0x10e>
   20e2a:	a808      	add	r0, sp, #32
   20e2c:	7802      	ldrb	r2, [r0, #0]
   20e2e:	2a02      	cmp	r2, #2
   20e30:	d003      	beq.n	20e3a <_ZN20complex_dynamic_type3app17h0947454a05c19f10E+0xca>
   20e32:	2108      	movs	r1, #8
   20e34:	4630      	mov	r0, r6
   20e36:	f00a fa23 	bl	2b280 <_ZN9allow_pin12dynamic_type7unshare17hefa7cd45f9379b26E>
   20e3a:	a808      	add	r0, sp, #32
   20e3c:	9d03      	ldr	r5, [sp, #12]
   20e3e:	7005      	strb	r5, [r0, #0]
   20e40:	a81e      	add	r0, sp, #120	@ 0x78
   20e42:	7802      	ldrb	r2, [r0, #0]
   20e44:	2a02      	cmp	r2, #2
   20e46:	d003      	beq.n	20e50 <_ZN20complex_dynamic_type3app17h0947454a05c19f10E+0xe0>
   20e48:	2108      	movs	r1, #8
   20e4a:	4630      	mov	r0, r6
   20e4c:	f00a fa18 	bl	2b280 <_ZN9allow_pin12dynamic_type7unshare17hefa7cd45f9379b26E>
   20e50:	a81e      	add	r0, sp, #120	@ 0x78
   20e52:	7005      	strb	r5, [r0, #0]
   20e54:	2c00      	cmp	r4, #0
   20e56:	d1dd      	bne.n	20e14 <_ZN20complex_dynamic_type3app17h0947454a05c19f10E+0xa4>
   20e58:	a81e      	add	r0, sp, #120	@ 0x78
   20e5a:	7804      	ldrb	r4, [r0, #0]
   20e5c:	2c02      	cmp	r4, #2
   20e5e:	d001      	beq.n	20e64 <_ZN20complex_dynamic_type3app17h0947454a05c19f10E+0xf4>
   20e60:	480e      	ldr	r0, [pc, #56]	@ (20e9c <_ZN20complex_dynamic_type3app17h0947454a05c19f10E+0x12c>)
   20e62:	9006      	str	r0, [sp, #24]
   20e64:	9d07      	ldr	r5, [sp, #28]
   20e66:	1c68      	adds	r0, r5, #1
   20e68:	2232      	movs	r2, #50	@ 0x32
   20e6a:	9906      	ldr	r1, [sp, #24]
   20e6c:	f00a fbed 	bl	2b64a <__aeabi_memcpy>
   20e70:	2000      	movs	r0, #0
   20e72:	2c02      	cmp	r4, #2
   20e74:	7028      	strb	r0, [r5, #0]
   20e76:	d004      	beq.n	20e82 <_ZN20complex_dynamic_type3app17h0947454a05c19f10E+0x112>
   20e78:	2108      	movs	r1, #8
   20e7a:	4630      	mov	r0, r6
   20e7c:	4622      	mov	r2, r4
   20e7e:	f00a f9ff 	bl	2b280 <_ZN9allow_pin12dynamic_type7unshare17hefa7cd45f9379b26E>
   20e82:	a808      	add	r0, sp, #32
   20e84:	7802      	ldrb	r2, [r0, #0]
   20e86:	2a02      	cmp	r2, #2
   20e88:	d003      	beq.n	20e92 <_ZN20complex_dynamic_type3app17h0947454a05c19f10E+0x122>
   20e8a:	2108      	movs	r1, #8
   20e8c:	4630      	mov	r0, r6
   20e8e:	f00a f9f7 	bl	2b280 <_ZN9allow_pin12dynamic_type7unshare17hefa7cd45f9379b26E>
   20e92:	b02f      	add	sp, #188	@ 0xbc
   20e94:	bdf0      	pop	{r4, r5, r6, r7, pc}
   20e96:	46c0      	nop			@ (mov r8, r8)
   20e98:	00002095 	.word	0x00002095
   20e9c:	00010174 	.word	0x00010174

00020ea0 <_ZN20complex_dynamic_type3app17h129481258f2ec272E>:
   20ea0:	b5f0      	push	{r4, r5, r6, r7, lr}
   20ea2:	af03      	add	r7, sp, #12
   20ea4:	b0a7      	sub	sp, #156	@ 0x9c
   20ea6:	9007      	str	r0, [sp, #28]
   20ea8:	a808      	add	r0, sp, #32
   20eaa:	2502      	movs	r5, #2
   20eac:	7005      	strb	r5, [r0, #0]
   20eae:	1c40      	adds	r0, r0, #1
   20eb0:	9005      	str	r0, [sp, #20]
   20eb2:	262e      	movs	r6, #46	@ 0x2e
   20eb4:	4632      	mov	r2, r6
   20eb6:	f00a fbc8 	bl	2b64a <__aeabi_memcpy>
   20eba:	ac14      	add	r4, sp, #80	@ 0x50
   20ebc:	1c60      	adds	r0, r4, #1
   20ebe:	2138      	movs	r1, #56	@ 0x38
   20ec0:	9006      	str	r0, [sp, #24]
   20ec2:	9104      	str	r1, [sp, #16]
   20ec4:	f00a fa01 	bl	2b2ca <__aeabi_memclr>
   20ec8:	9503      	str	r5, [sp, #12]
   20eca:	7025      	strb	r5, [r4, #0]
   20ecc:	2404      	movs	r4, #4
   20ece:	9600      	str	r6, [sp, #0]
   20ed0:	9401      	str	r4, [sp, #4]
   20ed2:	a823      	add	r0, sp, #140	@ 0x8c
   20ed4:	4e3c      	ldr	r6, [pc, #240]	@ (20fc8 <_ZN20complex_dynamic_type3app17h129481258f2ec272E+0x128>)
   20ed6:	2209      	movs	r2, #9
   20ed8:	4631      	mov	r1, r6
   20eda:	9b05      	ldr	r3, [sp, #20]
   20edc:	f00a f9dd 	bl	2b29a <_ZN9allow_pin13dynamic_allow17h33d41317a2da4f1cE>
   20ee0:	9823      	ldr	r0, [sp, #140]	@ 0x8c
   20ee2:	2802      	cmp	r0, #2
   20ee4:	d101      	bne.n	20eea <_ZN20complex_dynamic_type3app17h129481258f2ec272E+0x4a>
   20ee6:	9924      	ldr	r1, [sp, #144]	@ 0x90
   20ee8:	e001      	b.n	20eee <_ZN20complex_dynamic_type3app17h129481258f2ec272E+0x4e>
   20eea:	a908      	add	r1, sp, #32
   20eec:	700c      	strb	r4, [r1, #0]
   20eee:	2501      	movs	r5, #1
   20ef0:	2802      	cmp	r0, #2
   20ef2:	d024      	beq.n	20f3e <_ZN20complex_dynamic_type3app17h129481258f2ec272E+0x9e>
   20ef4:	a814      	add	r0, sp, #80	@ 0x50
   20ef6:	7800      	ldrb	r0, [r0, #0]
   20ef8:	2802      	cmp	r0, #2
   20efa:	d10e      	bne.n	20f1a <_ZN20complex_dynamic_type3app17h129481258f2ec272E+0x7a>
   20efc:	2403      	movs	r4, #3
   20efe:	9804      	ldr	r0, [sp, #16]
   20f00:	9000      	str	r0, [sp, #0]
   20f02:	9401      	str	r4, [sp, #4]
   20f04:	a823      	add	r0, sp, #140	@ 0x8c
   20f06:	2209      	movs	r2, #9
   20f08:	4631      	mov	r1, r6
   20f0a:	9b06      	ldr	r3, [sp, #24]
   20f0c:	f00a f9c5 	bl	2b29a <_ZN9allow_pin13dynamic_allow17h33d41317a2da4f1cE>
   20f10:	9823      	ldr	r0, [sp, #140]	@ 0x8c
   20f12:	2802      	cmp	r0, #2
   20f14:	d106      	bne.n	20f24 <_ZN20complex_dynamic_type3app17h129481258f2ec272E+0x84>
   20f16:	9924      	ldr	r1, [sp, #144]	@ 0x90
   20f18:	e000      	b.n	20f1c <_ZN20complex_dynamic_type3app17h129481258f2ec272E+0x7c>
   20f1a:	2103      	movs	r1, #3
   20f1c:	4628      	mov	r0, r5
   20f1e:	2800      	cmp	r0, #0
   20f20:	d005      	beq.n	20f2e <_ZN20complex_dynamic_type3app17h129481258f2ec272E+0x8e>
   20f22:	e00c      	b.n	20f3e <_ZN20complex_dynamic_type3app17h129481258f2ec272E+0x9e>
   20f24:	a814      	add	r0, sp, #80	@ 0x50
   20f26:	7004      	strb	r4, [r0, #0]
   20f28:	2000      	movs	r0, #0
   20f2a:	2800      	cmp	r0, #0
   20f2c:	d107      	bne.n	20f3e <_ZN20complex_dynamic_type3app17h129481258f2ec272E+0x9e>
   20f2e:	4826      	ldr	r0, [pc, #152]	@ (20fc8 <_ZN20complex_dynamic_type3app17h129481258f2ec272E+0x128>)
   20f30:	2109      	movs	r1, #9
   20f32:	2400      	movs	r4, #0
   20f34:	460a      	mov	r2, r1
   20f36:	4623      	mov	r3, r4
   20f38:	df02      	svc	2
   20f3a:	287f      	cmp	r0, #127	@ 0x7f
   20f3c:	d80d      	bhi.n	20f5a <_ZN20complex_dynamic_type3app17h129481258f2ec272E+0xba>
   20f3e:	462c      	mov	r4, r5
   20f40:	2c00      	cmp	r4, #0
   20f42:	d021      	beq.n	20f88 <_ZN20complex_dynamic_type3app17h129481258f2ec272E+0xe8>
   20f44:	2001      	movs	r0, #1
   20f46:	9a07      	ldr	r2, [sp, #28]
   20f48:	7010      	strb	r0, [r2, #0]
   20f4a:	6051      	str	r1, [r2, #4]
   20f4c:	a814      	add	r0, sp, #80	@ 0x50
   20f4e:	7802      	ldrb	r2, [r0, #0]
   20f50:	2a02      	cmp	r2, #2
   20f52:	d02e      	beq.n	20fb2 <_ZN20complex_dynamic_type3app17h129481258f2ec272E+0x112>
   20f54:	2109      	movs	r1, #9
   20f56:	4630      	mov	r0, r6
   20f58:	e029      	b.n	20fae <_ZN20complex_dynamic_type3app17h129481258f2ec272E+0x10e>
   20f5a:	a808      	add	r0, sp, #32
   20f5c:	7802      	ldrb	r2, [r0, #0]
   20f5e:	2a02      	cmp	r2, #2
   20f60:	d003      	beq.n	20f6a <_ZN20complex_dynamic_type3app17h129481258f2ec272E+0xca>
   20f62:	2109      	movs	r1, #9
   20f64:	4630      	mov	r0, r6
   20f66:	f00a f98b 	bl	2b280 <_ZN9allow_pin12dynamic_type7unshare17hefa7cd45f9379b26E>
   20f6a:	a808      	add	r0, sp, #32
   20f6c:	9d03      	ldr	r5, [sp, #12]
   20f6e:	7005      	strb	r5, [r0, #0]
   20f70:	a814      	add	r0, sp, #80	@ 0x50
   20f72:	7802      	ldrb	r2, [r0, #0]
   20f74:	2a02      	cmp	r2, #2
   20f76:	d003      	beq.n	20f80 <_ZN20complex_dynamic_type3app17h129481258f2ec272E+0xe0>
   20f78:	2109      	movs	r1, #9
   20f7a:	4630      	mov	r0, r6
   20f7c:	f00a f980 	bl	2b280 <_ZN9allow_pin12dynamic_type7unshare17hefa7cd45f9379b26E>
   20f80:	a814      	add	r0, sp, #80	@ 0x50
   20f82:	7005      	strb	r5, [r0, #0]
   20f84:	2c00      	cmp	r4, #0
   20f86:	d1dd      	bne.n	20f44 <_ZN20complex_dynamic_type3app17h129481258f2ec272E+0xa4>
   20f88:	a814      	add	r0, sp, #80	@ 0x50
   20f8a:	7804      	ldrb	r4, [r0, #0]
   20f8c:	2c02      	cmp	r4, #2
   20f8e:	d001      	beq.n	20f94 <_ZN20complex_dynamic_type3app17h129481258f2ec272E+0xf4>
   20f90:	480e      	ldr	r0, [pc, #56]	@ (20fcc <_ZN20complex_dynamic_type3app17h129481258f2ec272E+0x12c>)
   20f92:	9006      	str	r0, [sp, #24]
   20f94:	9d07      	ldr	r5, [sp, #28]
   20f96:	1c68      	adds	r0, r5, #1
   20f98:	2238      	movs	r2, #56	@ 0x38
   20f9a:	9906      	ldr	r1, [sp, #24]
   20f9c:	f00a fb55 	bl	2b64a <__aeabi_memcpy>
   20fa0:	2000      	movs	r0, #0
   20fa2:	2c02      	cmp	r4, #2
   20fa4:	7028      	strb	r0, [r5, #0]
   20fa6:	d004      	beq.n	20fb2 <_ZN20complex_dynamic_type3app17h129481258f2ec272E+0x112>
   20fa8:	2109      	movs	r1, #9
   20faa:	4630      	mov	r0, r6
   20fac:	4622      	mov	r2, r4
   20fae:	f00a f967 	bl	2b280 <_ZN9allow_pin12dynamic_type7unshare17hefa7cd45f9379b26E>
   20fb2:	a808      	add	r0, sp, #32
   20fb4:	7802      	ldrb	r2, [r0, #0]
   20fb6:	2a02      	cmp	r2, #2
   20fb8:	d003      	beq.n	20fc2 <_ZN20complex_dynamic_type3app17h129481258f2ec272E+0x122>
   20fba:	2109      	movs	r1, #9
   20fbc:	4630      	mov	r0, r6
   20fbe:	f00a f95f 	bl	2b280 <_ZN9allow_pin12dynamic_type7unshare17hefa7cd45f9379b26E>
   20fc2:	b027      	add	sp, #156	@ 0x9c
   20fc4:	bdf0      	pop	{r4, r5, r6, r7, pc}
   20fc6:	46c0      	nop			@ (mov r8, r8)
   20fc8:	00000a9d 	.word	0x00000a9d
   20fcc:	0001048b 	.word	0x0001048b

00020fd0 <_ZN20complex_dynamic_type3app17h13a8735daa1cf287E>:
   20fd0:	b5f0      	push	{r4, r5, r6, r7, lr}
   20fd2:	af03      	add	r7, sp, #12
   20fd4:	b0b3      	sub	sp, #204	@ 0xcc
   20fd6:	9007      	str	r0, [sp, #28]
   20fd8:	a808      	add	r0, sp, #32
   20fda:	2602      	movs	r6, #2
   20fdc:	7006      	strb	r6, [r0, #0]
   20fde:	1c40      	adds	r0, r0, #1
   20fe0:	9005      	str	r0, [sp, #20]
   20fe2:	243a      	movs	r4, #58	@ 0x3a
   20fe4:	4622      	mov	r2, r4
   20fe6:	f00a fb30 	bl	2b64a <__aeabi_memcpy>
   20fea:	ad17      	add	r5, sp, #92	@ 0x5c
   20fec:	1c68      	adds	r0, r5, #1
   20fee:	215d      	movs	r1, #93	@ 0x5d
   20ff0:	9006      	str	r0, [sp, #24]
   20ff2:	9104      	str	r1, [sp, #16]
   20ff4:	f00a f969 	bl	2b2ca <__aeabi_memclr>
   20ff8:	9603      	str	r6, [sp, #12]
   20ffa:	702e      	strb	r6, [r5, #0]
   20ffc:	2504      	movs	r5, #4
   20ffe:	9400      	str	r4, [sp, #0]
   21000:	9501      	str	r5, [sp, #4]
   21002:	a82f      	add	r0, sp, #188	@ 0xbc
   21004:	493b      	ldr	r1, [pc, #236]	@ (210f4 <_ZN20complex_dynamic_type3app17h13a8735daa1cf287E+0x124>)
   21006:	2400      	movs	r4, #0
   21008:	4622      	mov	r2, r4
   2100a:	9b05      	ldr	r3, [sp, #20]
   2100c:	f00a f945 	bl	2b29a <_ZN9allow_pin13dynamic_allow17h33d41317a2da4f1cE>
   21010:	982f      	ldr	r0, [sp, #188]	@ 0xbc
   21012:	2802      	cmp	r0, #2
   21014:	d101      	bne.n	2101a <_ZN20complex_dynamic_type3app17h13a8735daa1cf287E+0x4a>
   21016:	9930      	ldr	r1, [sp, #192]	@ 0xc0
   21018:	e001      	b.n	2101e <_ZN20complex_dynamic_type3app17h13a8735daa1cf287E+0x4e>
   2101a:	a908      	add	r1, sp, #32
   2101c:	700d      	strb	r5, [r1, #0]
   2101e:	2601      	movs	r6, #1
   21020:	2802      	cmp	r0, #2
   21022:	d023      	beq.n	2106c <_ZN20complex_dynamic_type3app17h13a8735daa1cf287E+0x9c>
   21024:	a817      	add	r0, sp, #92	@ 0x5c
   21026:	7800      	ldrb	r0, [r0, #0]
   21028:	2802      	cmp	r0, #2
   2102a:	d10e      	bne.n	2104a <_ZN20complex_dynamic_type3app17h13a8735daa1cf287E+0x7a>
   2102c:	2503      	movs	r5, #3
   2102e:	9804      	ldr	r0, [sp, #16]
   21030:	9000      	str	r0, [sp, #0]
   21032:	9501      	str	r5, [sp, #4]
   21034:	a82f      	add	r0, sp, #188	@ 0xbc
   21036:	2205      	movs	r2, #5
   21038:	492e      	ldr	r1, [pc, #184]	@ (210f4 <_ZN20complex_dynamic_type3app17h13a8735daa1cf287E+0x124>)
   2103a:	9b06      	ldr	r3, [sp, #24]
   2103c:	f00a f92d 	bl	2b29a <_ZN9allow_pin13dynamic_allow17h33d41317a2da4f1cE>
   21040:	982f      	ldr	r0, [sp, #188]	@ 0xbc
   21042:	2802      	cmp	r0, #2
   21044:	d106      	bne.n	21054 <_ZN20complex_dynamic_type3app17h13a8735daa1cf287E+0x84>
   21046:	9930      	ldr	r1, [sp, #192]	@ 0xc0
   21048:	e000      	b.n	2104c <_ZN20complex_dynamic_type3app17h13a8735daa1cf287E+0x7c>
   2104a:	2103      	movs	r1, #3
   2104c:	4634      	mov	r4, r6
   2104e:	2c00      	cmp	r4, #0
   21050:	d004      	beq.n	2105c <_ZN20complex_dynamic_type3app17h13a8735daa1cf287E+0x8c>
   21052:	e00b      	b.n	2106c <_ZN20complex_dynamic_type3app17h13a8735daa1cf287E+0x9c>
   21054:	a817      	add	r0, sp, #92	@ 0x5c
   21056:	7005      	strb	r5, [r0, #0]
   21058:	2c00      	cmp	r4, #0
   2105a:	d107      	bne.n	2106c <_ZN20complex_dynamic_type3app17h13a8735daa1cf287E+0x9c>
   2105c:	4825      	ldr	r0, [pc, #148]	@ (210f4 <_ZN20complex_dynamic_type3app17h13a8735daa1cf287E+0x124>)
   2105e:	2205      	movs	r2, #5
   21060:	2400      	movs	r4, #0
   21062:	4621      	mov	r1, r4
   21064:	4623      	mov	r3, r4
   21066:	df02      	svc	2
   21068:	287f      	cmp	r0, #127	@ 0x7f
   2106a:	d80d      	bhi.n	21088 <_ZN20complex_dynamic_type3app17h13a8735daa1cf287E+0xb8>
   2106c:	4634      	mov	r4, r6
   2106e:	2c00      	cmp	r4, #0
   21070:	d021      	beq.n	210b6 <_ZN20complex_dynamic_type3app17h13a8735daa1cf287E+0xe6>
   21072:	2001      	movs	r0, #1
   21074:	9a07      	ldr	r2, [sp, #28]
   21076:	7010      	strb	r0, [r2, #0]
   21078:	6051      	str	r1, [r2, #4]
   2107a:	a817      	add	r0, sp, #92	@ 0x5c
   2107c:	7802      	ldrb	r2, [r0, #0]
   2107e:	2a02      	cmp	r2, #2
   21080:	d02e      	beq.n	210e0 <_ZN20complex_dynamic_type3app17h13a8735daa1cf287E+0x110>
   21082:	2105      	movs	r1, #5
   21084:	481b      	ldr	r0, [pc, #108]	@ (210f4 <_ZN20complex_dynamic_type3app17h13a8735daa1cf287E+0x124>)
   21086:	e029      	b.n	210dc <_ZN20complex_dynamic_type3app17h13a8735daa1cf287E+0x10c>
   21088:	a808      	add	r0, sp, #32
   2108a:	7802      	ldrb	r2, [r0, #0]
   2108c:	2a02      	cmp	r2, #2
   2108e:	d003      	beq.n	21098 <_ZN20complex_dynamic_type3app17h13a8735daa1cf287E+0xc8>
   21090:	2100      	movs	r1, #0
   21092:	4818      	ldr	r0, [pc, #96]	@ (210f4 <_ZN20complex_dynamic_type3app17h13a8735daa1cf287E+0x124>)
   21094:	f00a f8f4 	bl	2b280 <_ZN9allow_pin12dynamic_type7unshare17hefa7cd45f9379b26E>
   21098:	a808      	add	r0, sp, #32
   2109a:	9d03      	ldr	r5, [sp, #12]
   2109c:	7005      	strb	r5, [r0, #0]
   2109e:	a817      	add	r0, sp, #92	@ 0x5c
   210a0:	7802      	ldrb	r2, [r0, #0]
   210a2:	2a02      	cmp	r2, #2
   210a4:	d003      	beq.n	210ae <_ZN20complex_dynamic_type3app17h13a8735daa1cf287E+0xde>
   210a6:	2105      	movs	r1, #5
   210a8:	4812      	ldr	r0, [pc, #72]	@ (210f4 <_ZN20complex_dynamic_type3app17h13a8735daa1cf287E+0x124>)
   210aa:	f00a f8e9 	bl	2b280 <_ZN9allow_pin12dynamic_type7unshare17hefa7cd45f9379b26E>
   210ae:	a817      	add	r0, sp, #92	@ 0x5c
   210b0:	7005      	strb	r5, [r0, #0]
   210b2:	2c00      	cmp	r4, #0
   210b4:	d1dd      	bne.n	21072 <_ZN20complex_dynamic_type3app17h13a8735daa1cf287E+0xa2>
   210b6:	a817      	add	r0, sp, #92	@ 0x5c
   210b8:	7804      	ldrb	r4, [r0, #0]
   210ba:	2c02      	cmp	r4, #2
   210bc:	d001      	beq.n	210c2 <_ZN20complex_dynamic_type3app17h13a8735daa1cf287E+0xf2>
   210be:	480e      	ldr	r0, [pc, #56]	@ (210f8 <_ZN20complex_dynamic_type3app17h13a8735daa1cf287E+0x128>)
   210c0:	9006      	str	r0, [sp, #24]
   210c2:	9d07      	ldr	r5, [sp, #28]
   210c4:	1c68      	adds	r0, r5, #1
   210c6:	225d      	movs	r2, #93	@ 0x5d
   210c8:	9906      	ldr	r1, [sp, #24]
   210ca:	f00a fabe 	bl	2b64a <__aeabi_memcpy>
   210ce:	2000      	movs	r0, #0
   210d0:	2c02      	cmp	r4, #2
   210d2:	7028      	strb	r0, [r5, #0]
   210d4:	d004      	beq.n	210e0 <_ZN20complex_dynamic_type3app17h13a8735daa1cf287E+0x110>
   210d6:	2105      	movs	r1, #5
   210d8:	4806      	ldr	r0, [pc, #24]	@ (210f4 <_ZN20complex_dynamic_type3app17h13a8735daa1cf287E+0x124>)
   210da:	4622      	mov	r2, r4
   210dc:	f00a f8d0 	bl	2b280 <_ZN9allow_pin12dynamic_type7unshare17hefa7cd45f9379b26E>
   210e0:	a808      	add	r0, sp, #32
   210e2:	7802      	ldrb	r2, [r0, #0]
   210e4:	2a02      	cmp	r2, #2
   210e6:	d003      	beq.n	210f0 <_ZN20complex_dynamic_type3app17h13a8735daa1cf287E+0x120>
   210e8:	2100      	movs	r1, #0
   210ea:	4802      	ldr	r0, [pc, #8]	@ (210f4 <_ZN20complex_dynamic_type3app17h13a8735daa1cf287E+0x124>)
   210ec:	f00a f8c8 	bl	2b280 <_ZN9allow_pin12dynamic_type7unshare17hefa7cd45f9379b26E>
   210f0:	b033      	add	sp, #204	@ 0xcc
   210f2:	bdf0      	pop	{r4, r5, r6, r7, pc}
   210f4:	000014a4 	.word	0x000014a4
   210f8:	0001063a 	.word	0x0001063a

000210fc <_ZN20complex_dynamic_type3app17h153232da6f57f5c5E>:
   210fc:	b5f0      	push	{r4, r5, r6, r7, lr}
   210fe:	af03      	add	r7, sp, #12
   21100:	b0a3      	sub	sp, #140	@ 0x8c
   21102:	9006      	str	r0, [sp, #24]
   21104:	a807      	add	r0, sp, #28
   21106:	2602      	movs	r6, #2
   21108:	7006      	strb	r6, [r0, #0]
   2110a:	1c40      	adds	r0, r0, #1
   2110c:	9004      	str	r0, [sp, #16]
   2110e:	2541      	movs	r5, #65	@ 0x41
   21110:	462a      	mov	r2, r5
   21112:	f00a fa9a 	bl	2b64a <__aeabi_memcpy>
   21116:	ac18      	add	r4, sp, #96	@ 0x60
   21118:	1c60      	adds	r0, r4, #1
   2111a:	2118      	movs	r1, #24
   2111c:	9005      	str	r0, [sp, #20]
   2111e:	9103      	str	r1, [sp, #12]
   21120:	f00a f8d3 	bl	2b2ca <__aeabi_memclr>
   21124:	9602      	str	r6, [sp, #8]
   21126:	7026      	strb	r6, [r4, #0]
   21128:	2404      	movs	r4, #4
   2112a:	9500      	str	r5, [sp, #0]
   2112c:	9401      	str	r4, [sp, #4]
   2112e:	a81f      	add	r0, sp, #124	@ 0x7c
   21130:	493c      	ldr	r1, [pc, #240]	@ (21224 <_ZN20complex_dynamic_type3app17h153232da6f57f5c5E+0x128>)
   21132:	2501      	movs	r5, #1
   21134:	462a      	mov	r2, r5
   21136:	9b04      	ldr	r3, [sp, #16]
   21138:	f00a f8af 	bl	2b29a <_ZN9allow_pin13dynamic_allow17h33d41317a2da4f1cE>
   2113c:	981f      	ldr	r0, [sp, #124]	@ 0x7c
   2113e:	2802      	cmp	r0, #2
   21140:	d101      	bne.n	21146 <_ZN20complex_dynamic_type3app17h153232da6f57f5c5E+0x4a>
   21142:	9920      	ldr	r1, [sp, #128]	@ 0x80
   21144:	e001      	b.n	2114a <_ZN20complex_dynamic_type3app17h153232da6f57f5c5E+0x4e>
   21146:	a907      	add	r1, sp, #28
   21148:	700c      	strb	r4, [r1, #0]
   2114a:	2802      	cmp	r0, #2
   2114c:	4e35      	ldr	r6, [pc, #212]	@ (21224 <_ZN20complex_dynamic_type3app17h153232da6f57f5c5E+0x128>)
   2114e:	d024      	beq.n	2119a <_ZN20complex_dynamic_type3app17h153232da6f57f5c5E+0x9e>
   21150:	a818      	add	r0, sp, #96	@ 0x60
   21152:	7800      	ldrb	r0, [r0, #0]
   21154:	2802      	cmp	r0, #2
   21156:	d10e      	bne.n	21176 <_ZN20complex_dynamic_type3app17h153232da6f57f5c5E+0x7a>
   21158:	2403      	movs	r4, #3
   2115a:	9803      	ldr	r0, [sp, #12]
   2115c:	9000      	str	r0, [sp, #0]
   2115e:	9401      	str	r4, [sp, #4]
   21160:	a81f      	add	r0, sp, #124	@ 0x7c
   21162:	2209      	movs	r2, #9
   21164:	4631      	mov	r1, r6
   21166:	9b05      	ldr	r3, [sp, #20]
   21168:	f00a f897 	bl	2b29a <_ZN9allow_pin13dynamic_allow17h33d41317a2da4f1cE>
   2116c:	981f      	ldr	r0, [sp, #124]	@ 0x7c
   2116e:	2802      	cmp	r0, #2
   21170:	d106      	bne.n	21180 <_ZN20complex_dynamic_type3app17h153232da6f57f5c5E+0x84>
   21172:	9920      	ldr	r1, [sp, #128]	@ 0x80
   21174:	e000      	b.n	21178 <_ZN20complex_dynamic_type3app17h153232da6f57f5c5E+0x7c>
   21176:	2103      	movs	r1, #3
   21178:	4628      	mov	r0, r5
   2117a:	2800      	cmp	r0, #0
   2117c:	d005      	beq.n	2118a <_ZN20complex_dynamic_type3app17h153232da6f57f5c5E+0x8e>
   2117e:	e00c      	b.n	2119a <_ZN20complex_dynamic_type3app17h153232da6f57f5c5E+0x9e>
   21180:	a818      	add	r0, sp, #96	@ 0x60
   21182:	7004      	strb	r4, [r0, #0]
   21184:	2000      	movs	r0, #0
   21186:	2800      	cmp	r0, #0
   21188:	d107      	bne.n	2119a <_ZN20complex_dynamic_type3app17h153232da6f57f5c5E+0x9e>
   2118a:	4826      	ldr	r0, [pc, #152]	@ (21224 <_ZN20complex_dynamic_type3app17h153232da6f57f5c5E+0x128>)
   2118c:	2101      	movs	r1, #1
   2118e:	2209      	movs	r2, #9
   21190:	2400      	movs	r4, #0
   21192:	4623      	mov	r3, r4
   21194:	df02      	svc	2
   21196:	287f      	cmp	r0, #127	@ 0x7f
   21198:	d80d      	bhi.n	211b6 <_ZN20complex_dynamic_type3app17h153232da6f57f5c5E+0xba>
   2119a:	462c      	mov	r4, r5
   2119c:	2c00      	cmp	r4, #0
   2119e:	d021      	beq.n	211e4 <_ZN20complex_dynamic_type3app17h153232da6f57f5c5E+0xe8>
   211a0:	2001      	movs	r0, #1
   211a2:	9a06      	ldr	r2, [sp, #24]
   211a4:	7010      	strb	r0, [r2, #0]
   211a6:	6051      	str	r1, [r2, #4]
   211a8:	a818      	add	r0, sp, #96	@ 0x60
   211aa:	7802      	ldrb	r2, [r0, #0]
   211ac:	2a02      	cmp	r2, #2
   211ae:	d02e      	beq.n	2120e <_ZN20complex_dynamic_type3app17h153232da6f57f5c5E+0x112>
   211b0:	2109      	movs	r1, #9
   211b2:	4630      	mov	r0, r6
   211b4:	e029      	b.n	2120a <_ZN20complex_dynamic_type3app17h153232da6f57f5c5E+0x10e>
   211b6:	a807      	add	r0, sp, #28
   211b8:	7802      	ldrb	r2, [r0, #0]
   211ba:	2a02      	cmp	r2, #2
   211bc:	d003      	beq.n	211c6 <_ZN20complex_dynamic_type3app17h153232da6f57f5c5E+0xca>
   211be:	2101      	movs	r1, #1
   211c0:	4630      	mov	r0, r6
   211c2:	f00a f85d 	bl	2b280 <_ZN9allow_pin12dynamic_type7unshare17hefa7cd45f9379b26E>
   211c6:	a807      	add	r0, sp, #28
   211c8:	9d02      	ldr	r5, [sp, #8]
   211ca:	7005      	strb	r5, [r0, #0]
   211cc:	a818      	add	r0, sp, #96	@ 0x60
   211ce:	7802      	ldrb	r2, [r0, #0]
   211d0:	2a02      	cmp	r2, #2
   211d2:	d003      	beq.n	211dc <_ZN20complex_dynamic_type3app17h153232da6f57f5c5E+0xe0>
   211d4:	2109      	movs	r1, #9
   211d6:	4630      	mov	r0, r6
   211d8:	f00a f852 	bl	2b280 <_ZN9allow_pin12dynamic_type7unshare17hefa7cd45f9379b26E>
   211dc:	a818      	add	r0, sp, #96	@ 0x60
   211de:	7005      	strb	r5, [r0, #0]
   211e0:	2c00      	cmp	r4, #0
   211e2:	d1dd      	bne.n	211a0 <_ZN20complex_dynamic_type3app17h153232da6f57f5c5E+0xa4>
   211e4:	a818      	add	r0, sp, #96	@ 0x60
   211e6:	7804      	ldrb	r4, [r0, #0]
   211e8:	2c02      	cmp	r4, #2
   211ea:	d001      	beq.n	211f0 <_ZN20complex_dynamic_type3app17h153232da6f57f5c5E+0xf4>
   211ec:	480e      	ldr	r0, [pc, #56]	@ (21228 <_ZN20complex_dynamic_type3app17h153232da6f57f5c5E+0x12c>)
   211ee:	9005      	str	r0, [sp, #20]
   211f0:	9d06      	ldr	r5, [sp, #24]
   211f2:	1c68      	adds	r0, r5, #1
   211f4:	2218      	movs	r2, #24
   211f6:	9905      	ldr	r1, [sp, #20]
   211f8:	f00a fa27 	bl	2b64a <__aeabi_memcpy>
   211fc:	2000      	movs	r0, #0
   211fe:	2c02      	cmp	r4, #2
   21200:	7028      	strb	r0, [r5, #0]
   21202:	d004      	beq.n	2120e <_ZN20complex_dynamic_type3app17h153232da6f57f5c5E+0x112>
   21204:	2109      	movs	r1, #9
   21206:	4630      	mov	r0, r6
   21208:	4622      	mov	r2, r4
   2120a:	f00a f839 	bl	2b280 <_ZN9allow_pin12dynamic_type7unshare17hefa7cd45f9379b26E>
   2120e:	a807      	add	r0, sp, #28
   21210:	7802      	ldrb	r2, [r0, #0]
   21212:	2a02      	cmp	r2, #2
   21214:	d003      	beq.n	2121e <_ZN20complex_dynamic_type3app17h153232da6f57f5c5E+0x122>
   21216:	2101      	movs	r1, #1
   21218:	4630      	mov	r0, r6
   2121a:	f00a f831 	bl	2b280 <_ZN9allow_pin12dynamic_type7unshare17hefa7cd45f9379b26E>
   2121e:	b023      	add	sp, #140	@ 0x8c
   21220:	bdf0      	pop	{r4, r5, r6, r7, pc}
   21222:	46c0      	nop			@ (mov r8, r8)
   21224:	00002156 	.word	0x00002156
   21228:	00010462 	.word	0x00010462

0002122c <_ZN20complex_dynamic_type3app17h19801b49c67b5757E>:
   2122c:	b5f0      	push	{r4, r5, r6, r7, lr}
   2122e:	af03      	add	r7, sp, #12
   21230:	b09d      	sub	sp, #116	@ 0x74
   21232:	9007      	str	r0, [sp, #28]
   21234:	a808      	add	r0, sp, #32
   21236:	2402      	movs	r4, #2
   21238:	7004      	strb	r4, [r0, #0]
   2123a:	1c40      	adds	r0, r0, #1
   2123c:	9005      	str	r0, [sp, #20]
   2123e:	2625      	movs	r6, #37	@ 0x25
   21240:	4632      	mov	r2, r6
   21242:	f00a fa02 	bl	2b64a <__aeabi_memcpy>
   21246:	ad12      	add	r5, sp, #72	@ 0x48
   21248:	1c68      	adds	r0, r5, #1
   2124a:	2118      	movs	r1, #24
   2124c:	9006      	str	r0, [sp, #24]
   2124e:	9104      	str	r1, [sp, #16]
   21250:	f00a f83b 	bl	2b2ca <__aeabi_memclr>
   21254:	9403      	str	r4, [sp, #12]
   21256:	702c      	strb	r4, [r5, #0]
   21258:	2504      	movs	r5, #4
   2125a:	9600      	str	r6, [sp, #0]
   2125c:	9501      	str	r5, [sp, #4]
   2125e:	20a7      	movs	r0, #167	@ 0xa7
   21260:	0106      	lsls	r6, r0, #4
   21262:	a819      	add	r0, sp, #100	@ 0x64
   21264:	2209      	movs	r2, #9
   21266:	4631      	mov	r1, r6
   21268:	9b05      	ldr	r3, [sp, #20]
   2126a:	f00a f816 	bl	2b29a <_ZN9allow_pin13dynamic_allow17h33d41317a2da4f1cE>
   2126e:	9819      	ldr	r0, [sp, #100]	@ 0x64
   21270:	2802      	cmp	r0, #2
   21272:	d101      	bne.n	21278 <_ZN20complex_dynamic_type3app17h19801b49c67b5757E+0x4c>
   21274:	991a      	ldr	r1, [sp, #104]	@ 0x68
   21276:	e001      	b.n	2127c <_ZN20complex_dynamic_type3app17h19801b49c67b5757E+0x50>
   21278:	a908      	add	r1, sp, #32
   2127a:	700d      	strb	r5, [r1, #0]
   2127c:	2401      	movs	r4, #1
   2127e:	2802      	cmp	r0, #2
   21280:	d024      	beq.n	212cc <_ZN20complex_dynamic_type3app17h19801b49c67b5757E+0xa0>
   21282:	a812      	add	r0, sp, #72	@ 0x48
   21284:	7800      	ldrb	r0, [r0, #0]
   21286:	2802      	cmp	r0, #2
   21288:	d10e      	bne.n	212a8 <_ZN20complex_dynamic_type3app17h19801b49c67b5757E+0x7c>
   2128a:	2503      	movs	r5, #3
   2128c:	9804      	ldr	r0, [sp, #16]
   2128e:	9000      	str	r0, [sp, #0]
   21290:	9501      	str	r5, [sp, #4]
   21292:	a819      	add	r0, sp, #100	@ 0x64
   21294:	2208      	movs	r2, #8
   21296:	4631      	mov	r1, r6
   21298:	9b06      	ldr	r3, [sp, #24]
   2129a:	f009 fffe 	bl	2b29a <_ZN9allow_pin13dynamic_allow17h33d41317a2da4f1cE>
   2129e:	9819      	ldr	r0, [sp, #100]	@ 0x64
   212a0:	2802      	cmp	r0, #2
   212a2:	d106      	bne.n	212b2 <_ZN20complex_dynamic_type3app17h19801b49c67b5757E+0x86>
   212a4:	991a      	ldr	r1, [sp, #104]	@ 0x68
   212a6:	e000      	b.n	212aa <_ZN20complex_dynamic_type3app17h19801b49c67b5757E+0x7e>
   212a8:	2103      	movs	r1, #3
   212aa:	4620      	mov	r0, r4
   212ac:	2800      	cmp	r0, #0
   212ae:	d005      	beq.n	212bc <_ZN20complex_dynamic_type3app17h19801b49c67b5757E+0x90>
   212b0:	e00c      	b.n	212cc <_ZN20complex_dynamic_type3app17h19801b49c67b5757E+0xa0>
   212b2:	a812      	add	r0, sp, #72	@ 0x48
   212b4:	7005      	strb	r5, [r0, #0]
   212b6:	2000      	movs	r0, #0
   212b8:	2800      	cmp	r0, #0
   212ba:	d107      	bne.n	212cc <_ZN20complex_dynamic_type3app17h19801b49c67b5757E+0xa0>
   212bc:	2109      	movs	r1, #9
   212be:	2208      	movs	r2, #8
   212c0:	2500      	movs	r5, #0
   212c2:	4630      	mov	r0, r6
   212c4:	462b      	mov	r3, r5
   212c6:	df02      	svc	2
   212c8:	287f      	cmp	r0, #127	@ 0x7f
   212ca:	d80d      	bhi.n	212e8 <_ZN20complex_dynamic_type3app17h19801b49c67b5757E+0xbc>
   212cc:	4625      	mov	r5, r4
   212ce:	2d00      	cmp	r5, #0
   212d0:	d021      	beq.n	21316 <_ZN20complex_dynamic_type3app17h19801b49c67b5757E+0xea>
   212d2:	2001      	movs	r0, #1
   212d4:	9a07      	ldr	r2, [sp, #28]
   212d6:	7010      	strb	r0, [r2, #0]
   212d8:	6051      	str	r1, [r2, #4]
   212da:	a812      	add	r0, sp, #72	@ 0x48
   212dc:	7802      	ldrb	r2, [r0, #0]
   212de:	2a02      	cmp	r2, #2
   212e0:	d02e      	beq.n	21340 <_ZN20complex_dynamic_type3app17h19801b49c67b5757E+0x114>
   212e2:	2108      	movs	r1, #8
   212e4:	4630      	mov	r0, r6
   212e6:	e029      	b.n	2133c <_ZN20complex_dynamic_type3app17h19801b49c67b5757E+0x110>
   212e8:	a808      	add	r0, sp, #32
   212ea:	7802      	ldrb	r2, [r0, #0]
   212ec:	2a02      	cmp	r2, #2
   212ee:	d003      	beq.n	212f8 <_ZN20complex_dynamic_type3app17h19801b49c67b5757E+0xcc>
   212f0:	2109      	movs	r1, #9
   212f2:	4630      	mov	r0, r6
   212f4:	f009 ffc4 	bl	2b280 <_ZN9allow_pin12dynamic_type7unshare17hefa7cd45f9379b26E>
   212f8:	a808      	add	r0, sp, #32
   212fa:	9c03      	ldr	r4, [sp, #12]
   212fc:	7004      	strb	r4, [r0, #0]
   212fe:	a812      	add	r0, sp, #72	@ 0x48
   21300:	7802      	ldrb	r2, [r0, #0]
   21302:	2a02      	cmp	r2, #2
   21304:	d003      	beq.n	2130e <_ZN20complex_dynamic_type3app17h19801b49c67b5757E+0xe2>
   21306:	2108      	movs	r1, #8
   21308:	4630      	mov	r0, r6
   2130a:	f009 ffb9 	bl	2b280 <_ZN9allow_pin12dynamic_type7unshare17hefa7cd45f9379b26E>
   2130e:	a812      	add	r0, sp, #72	@ 0x48
   21310:	7004      	strb	r4, [r0, #0]
   21312:	2d00      	cmp	r5, #0
   21314:	d1dd      	bne.n	212d2 <_ZN20complex_dynamic_type3app17h19801b49c67b5757E+0xa6>
   21316:	a812      	add	r0, sp, #72	@ 0x48
   21318:	7805      	ldrb	r5, [r0, #0]
   2131a:	2d02      	cmp	r5, #2
   2131c:	d001      	beq.n	21322 <_ZN20complex_dynamic_type3app17h19801b49c67b5757E+0xf6>
   2131e:	480d      	ldr	r0, [pc, #52]	@ (21354 <_ZN20complex_dynamic_type3app17h19801b49c67b5757E+0x128>)
   21320:	9006      	str	r0, [sp, #24]
   21322:	9c07      	ldr	r4, [sp, #28]
   21324:	1c60      	adds	r0, r4, #1
   21326:	2218      	movs	r2, #24
   21328:	9906      	ldr	r1, [sp, #24]
   2132a:	f00a f98e 	bl	2b64a <__aeabi_memcpy>
   2132e:	2000      	movs	r0, #0
   21330:	2d02      	cmp	r5, #2
   21332:	7020      	strb	r0, [r4, #0]
   21334:	d004      	beq.n	21340 <_ZN20complex_dynamic_type3app17h19801b49c67b5757E+0x114>
   21336:	2108      	movs	r1, #8
   21338:	4630      	mov	r0, r6
   2133a:	462a      	mov	r2, r5
   2133c:	f009 ffa0 	bl	2b280 <_ZN9allow_pin12dynamic_type7unshare17hefa7cd45f9379b26E>
   21340:	a808      	add	r0, sp, #32
   21342:	7802      	ldrb	r2, [r0, #0]
   21344:	2a02      	cmp	r2, #2
   21346:	d003      	beq.n	21350 <_ZN20complex_dynamic_type3app17h19801b49c67b5757E+0x124>
   21348:	2109      	movs	r1, #9
   2134a:	4630      	mov	r0, r6
   2134c:	f009 ff98 	bl	2b280 <_ZN9allow_pin12dynamic_type7unshare17hefa7cd45f9379b26E>
   21350:	b01d      	add	sp, #116	@ 0x74
   21352:	bdf0      	pop	{r4, r5, r6, r7, pc}
   21354:	00010462 	.word	0x00010462

00021358 <_ZN20complex_dynamic_type3app17h1ee91b64dd2a14a9E>:
   21358:	b5f0      	push	{r4, r5, r6, r7, lr}
   2135a:	af03      	add	r7, sp, #12
   2135c:	b0af      	sub	sp, #188	@ 0xbc
   2135e:	9006      	str	r0, [sp, #24]
   21360:	a807      	add	r0, sp, #28
   21362:	2502      	movs	r5, #2
   21364:	7005      	strb	r5, [r0, #0]
   21366:	1c40      	adds	r0, r0, #1
   21368:	9004      	str	r0, [sp, #16]
   2136a:	264d      	movs	r6, #77	@ 0x4d
   2136c:	4632      	mov	r2, r6
   2136e:	f00a f96c 	bl	2b64a <__aeabi_memcpy>
   21372:	ac1b      	add	r4, sp, #108	@ 0x6c
   21374:	1c60      	adds	r0, r4, #1
   21376:	213c      	movs	r1, #60	@ 0x3c
   21378:	9005      	str	r0, [sp, #20]
   2137a:	9103      	str	r1, [sp, #12]
   2137c:	f009 ffa5 	bl	2b2ca <__aeabi_memclr>
   21380:	9502      	str	r5, [sp, #8]
   21382:	7025      	strb	r5, [r4, #0]
   21384:	2404      	movs	r4, #4
   21386:	9600      	str	r6, [sp, #0]
   21388:	9401      	str	r4, [sp, #4]
   2138a:	a82b      	add	r0, sp, #172	@ 0xac
   2138c:	4e3c      	ldr	r6, [pc, #240]	@ (21480 <_ZN20complex_dynamic_type3app17h1ee91b64dd2a14a9E+0x128>)
   2138e:	4631      	mov	r1, r6
   21390:	4622      	mov	r2, r4
   21392:	9b04      	ldr	r3, [sp, #16]
   21394:	f009 ff81 	bl	2b29a <_ZN9allow_pin13dynamic_allow17h33d41317a2da4f1cE>
   21398:	982b      	ldr	r0, [sp, #172]	@ 0xac
   2139a:	2802      	cmp	r0, #2
   2139c:	d101      	bne.n	213a2 <_ZN20complex_dynamic_type3app17h1ee91b64dd2a14a9E+0x4a>
   2139e:	992c      	ldr	r1, [sp, #176]	@ 0xb0
   213a0:	e001      	b.n	213a6 <_ZN20complex_dynamic_type3app17h1ee91b64dd2a14a9E+0x4e>
   213a2:	a907      	add	r1, sp, #28
   213a4:	700c      	strb	r4, [r1, #0]
   213a6:	2501      	movs	r5, #1
   213a8:	2802      	cmp	r0, #2
   213aa:	d024      	beq.n	213f6 <_ZN20complex_dynamic_type3app17h1ee91b64dd2a14a9E+0x9e>
   213ac:	a81b      	add	r0, sp, #108	@ 0x6c
   213ae:	7800      	ldrb	r0, [r0, #0]
   213b0:	2802      	cmp	r0, #2
   213b2:	d10e      	bne.n	213d2 <_ZN20complex_dynamic_type3app17h1ee91b64dd2a14a9E+0x7a>
   213b4:	2403      	movs	r4, #3
   213b6:	9803      	ldr	r0, [sp, #12]
   213b8:	9000      	str	r0, [sp, #0]
   213ba:	9401      	str	r4, [sp, #4]
   213bc:	a82b      	add	r0, sp, #172	@ 0xac
   213be:	2209      	movs	r2, #9
   213c0:	4631      	mov	r1, r6
   213c2:	9b05      	ldr	r3, [sp, #20]
   213c4:	f009 ff69 	bl	2b29a <_ZN9allow_pin13dynamic_allow17h33d41317a2da4f1cE>
   213c8:	982b      	ldr	r0, [sp, #172]	@ 0xac
   213ca:	2802      	cmp	r0, #2
   213cc:	d106      	bne.n	213dc <_ZN20complex_dynamic_type3app17h1ee91b64dd2a14a9E+0x84>
   213ce:	992c      	ldr	r1, [sp, #176]	@ 0xb0
   213d0:	e000      	b.n	213d4 <_ZN20complex_dynamic_type3app17h1ee91b64dd2a14a9E+0x7c>
   213d2:	2103      	movs	r1, #3
   213d4:	4628      	mov	r0, r5
   213d6:	2800      	cmp	r0, #0
   213d8:	d005      	beq.n	213e6 <_ZN20complex_dynamic_type3app17h1ee91b64dd2a14a9E+0x8e>
   213da:	e00c      	b.n	213f6 <_ZN20complex_dynamic_type3app17h1ee91b64dd2a14a9E+0x9e>
   213dc:	a81b      	add	r0, sp, #108	@ 0x6c
   213de:	7004      	strb	r4, [r0, #0]
   213e0:	2000      	movs	r0, #0
   213e2:	2800      	cmp	r0, #0
   213e4:	d107      	bne.n	213f6 <_ZN20complex_dynamic_type3app17h1ee91b64dd2a14a9E+0x9e>
   213e6:	4826      	ldr	r0, [pc, #152]	@ (21480 <_ZN20complex_dynamic_type3app17h1ee91b64dd2a14a9E+0x128>)
   213e8:	2104      	movs	r1, #4
   213ea:	2209      	movs	r2, #9
   213ec:	2400      	movs	r4, #0
   213ee:	4623      	mov	r3, r4
   213f0:	df02      	svc	2
   213f2:	287f      	cmp	r0, #127	@ 0x7f
   213f4:	d80d      	bhi.n	21412 <_ZN20complex_dynamic_type3app17h1ee91b64dd2a14a9E+0xba>
   213f6:	462c      	mov	r4, r5
   213f8:	2c00      	cmp	r4, #0
   213fa:	d021      	beq.n	21440 <_ZN20complex_dynamic_type3app17h1ee91b64dd2a14a9E+0xe8>
   213fc:	2001      	movs	r0, #1
   213fe:	9a06      	ldr	r2, [sp, #24]
   21400:	7010      	strb	r0, [r2, #0]
   21402:	6051      	str	r1, [r2, #4]
   21404:	a81b      	add	r0, sp, #108	@ 0x6c
   21406:	7802      	ldrb	r2, [r0, #0]
   21408:	2a02      	cmp	r2, #2
   2140a:	d02e      	beq.n	2146a <_ZN20complex_dynamic_type3app17h1ee91b64dd2a14a9E+0x112>
   2140c:	2109      	movs	r1, #9
   2140e:	4630      	mov	r0, r6
   21410:	e029      	b.n	21466 <_ZN20complex_dynamic_type3app17h1ee91b64dd2a14a9E+0x10e>
   21412:	a807      	add	r0, sp, #28
   21414:	7802      	ldrb	r2, [r0, #0]
   21416:	2a02      	cmp	r2, #2
   21418:	d003      	beq.n	21422 <_ZN20complex_dynamic_type3app17h1ee91b64dd2a14a9E+0xca>
   2141a:	2104      	movs	r1, #4
   2141c:	4630      	mov	r0, r6
   2141e:	f009 ff2f 	bl	2b280 <_ZN9allow_pin12dynamic_type7unshare17hefa7cd45f9379b26E>
   21422:	a807      	add	r0, sp, #28
   21424:	9d02      	ldr	r5, [sp, #8]
   21426:	7005      	strb	r5, [r0, #0]
   21428:	a81b      	add	r0, sp, #108	@ 0x6c
   2142a:	7802      	ldrb	r2, [r0, #0]
   2142c:	2a02      	cmp	r2, #2
   2142e:	d003      	beq.n	21438 <_ZN20complex_dynamic_type3app17h1ee91b64dd2a14a9E+0xe0>
   21430:	2109      	movs	r1, #9
   21432:	4630      	mov	r0, r6
   21434:	f009 ff24 	bl	2b280 <_ZN9allow_pin12dynamic_type7unshare17hefa7cd45f9379b26E>
   21438:	a81b      	add	r0, sp, #108	@ 0x6c
   2143a:	7005      	strb	r5, [r0, #0]
   2143c:	2c00      	cmp	r4, #0
   2143e:	d1dd      	bne.n	213fc <_ZN20complex_dynamic_type3app17h1ee91b64dd2a14a9E+0xa4>
   21440:	a81b      	add	r0, sp, #108	@ 0x6c
   21442:	7804      	ldrb	r4, [r0, #0]
   21444:	2c02      	cmp	r4, #2
   21446:	d001      	beq.n	2144c <_ZN20complex_dynamic_type3app17h1ee91b64dd2a14a9E+0xf4>
   21448:	480e      	ldr	r0, [pc, #56]	@ (21484 <_ZN20complex_dynamic_type3app17h1ee91b64dd2a14a9E+0x12c>)
   2144a:	9005      	str	r0, [sp, #20]
   2144c:	9d06      	ldr	r5, [sp, #24]
   2144e:	1c68      	adds	r0, r5, #1
   21450:	223c      	movs	r2, #60	@ 0x3c
   21452:	9905      	ldr	r1, [sp, #20]
   21454:	f00a f8f9 	bl	2b64a <__aeabi_memcpy>
   21458:	2000      	movs	r0, #0
   2145a:	2c02      	cmp	r4, #2
   2145c:	7028      	strb	r0, [r5, #0]
   2145e:	d004      	beq.n	2146a <_ZN20complex_dynamic_type3app17h1ee91b64dd2a14a9E+0x112>
   21460:	2109      	movs	r1, #9
   21462:	4630      	mov	r0, r6
   21464:	4622      	mov	r2, r4
   21466:	f009 ff0b 	bl	2b280 <_ZN9allow_pin12dynamic_type7unshare17hefa7cd45f9379b26E>
   2146a:	a807      	add	r0, sp, #28
   2146c:	7802      	ldrb	r2, [r0, #0]
   2146e:	2a02      	cmp	r2, #2
   21470:	d003      	beq.n	2147a <_ZN20complex_dynamic_type3app17h1ee91b64dd2a14a9E+0x122>
   21472:	2104      	movs	r1, #4
   21474:	4630      	mov	r0, r6
   21476:	f009 ff03 	bl	2b280 <_ZN9allow_pin12dynamic_type7unshare17hefa7cd45f9379b26E>
   2147a:	b02f      	add	sp, #188	@ 0xbc
   2147c:	bdf0      	pop	{r4, r5, r6, r7, pc}
   2147e:	46c0      	nop			@ (mov r8, r8)
   21480:	000021ab 	.word	0x000021ab
   21484:	000101a6 	.word	0x000101a6

00021488 <_ZN20complex_dynamic_type3app17h2505028468bca723E>:
   21488:	b5f0      	push	{r4, r5, r6, r7, lr}
   2148a:	af03      	add	r7, sp, #12
   2148c:	b0a7      	sub	sp, #156	@ 0x9c
   2148e:	9007      	str	r0, [sp, #28]
   21490:	a808      	add	r0, sp, #32
   21492:	2502      	movs	r5, #2
   21494:	7005      	strb	r5, [r0, #0]
   21496:	1c40      	adds	r0, r0, #1
   21498:	9005      	str	r0, [sp, #20]
   2149a:	2644      	movs	r6, #68	@ 0x44
   2149c:	4632      	mov	r2, r6
   2149e:	f00a f8d4 	bl	2b64a <__aeabi_memcpy>
   214a2:	ac1a      	add	r4, sp, #104	@ 0x68
   214a4:	1c60      	adds	r0, r4, #1
   214a6:	2123      	movs	r1, #35	@ 0x23
   214a8:	9006      	str	r0, [sp, #24]
   214aa:	9104      	str	r1, [sp, #16]
   214ac:	f009 ff0d 	bl	2b2ca <__aeabi_memclr>
   214b0:	9503      	str	r5, [sp, #12]
   214b2:	7025      	strb	r5, [r4, #0]
   214b4:	2404      	movs	r4, #4
   214b6:	9600      	str	r6, [sp, #0]
   214b8:	9401      	str	r4, [sp, #4]
   214ba:	a823      	add	r0, sp, #140	@ 0x8c
   214bc:	493b      	ldr	r1, [pc, #236]	@ (215ac <_ZN20complex_dynamic_type3app17h2505028468bca723E+0x124>)
   214be:	2206      	movs	r2, #6
   214c0:	9b05      	ldr	r3, [sp, #20]
   214c2:	f009 feea 	bl	2b29a <_ZN9allow_pin13dynamic_allow17h33d41317a2da4f1cE>
   214c6:	9823      	ldr	r0, [sp, #140]	@ 0x8c
   214c8:	2802      	cmp	r0, #2
   214ca:	d101      	bne.n	214d0 <_ZN20complex_dynamic_type3app17h2505028468bca723E+0x48>
   214cc:	9924      	ldr	r1, [sp, #144]	@ 0x90
   214ce:	e001      	b.n	214d4 <_ZN20complex_dynamic_type3app17h2505028468bca723E+0x4c>
   214d0:	a908      	add	r1, sp, #32
   214d2:	700c      	strb	r4, [r1, #0]
   214d4:	2601      	movs	r6, #1
   214d6:	2802      	cmp	r0, #2
   214d8:	d024      	beq.n	21524 <_ZN20complex_dynamic_type3app17h2505028468bca723E+0x9c>
   214da:	a81a      	add	r0, sp, #104	@ 0x68
   214dc:	7800      	ldrb	r0, [r0, #0]
   214de:	2802      	cmp	r0, #2
   214e0:	d10e      	bne.n	21500 <_ZN20complex_dynamic_type3app17h2505028468bca723E+0x78>
   214e2:	2503      	movs	r5, #3
   214e4:	9804      	ldr	r0, [sp, #16]
   214e6:	9000      	str	r0, [sp, #0]
   214e8:	9501      	str	r5, [sp, #4]
   214ea:	a823      	add	r0, sp, #140	@ 0x8c
   214ec:	492f      	ldr	r1, [pc, #188]	@ (215ac <_ZN20complex_dynamic_type3app17h2505028468bca723E+0x124>)
   214ee:	462a      	mov	r2, r5
   214f0:	9b06      	ldr	r3, [sp, #24]
   214f2:	f009 fed2 	bl	2b29a <_ZN9allow_pin13dynamic_allow17h33d41317a2da4f1cE>
   214f6:	9823      	ldr	r0, [sp, #140]	@ 0x8c
   214f8:	2802      	cmp	r0, #2
   214fa:	d106      	bne.n	2150a <_ZN20complex_dynamic_type3app17h2505028468bca723E+0x82>
   214fc:	9924      	ldr	r1, [sp, #144]	@ 0x90
   214fe:	e000      	b.n	21502 <_ZN20complex_dynamic_type3app17h2505028468bca723E+0x7a>
   21500:	2103      	movs	r1, #3
   21502:	4630      	mov	r0, r6
   21504:	2800      	cmp	r0, #0
   21506:	d005      	beq.n	21514 <_ZN20complex_dynamic_type3app17h2505028468bca723E+0x8c>
   21508:	e00c      	b.n	21524 <_ZN20complex_dynamic_type3app17h2505028468bca723E+0x9c>
   2150a:	a81a      	add	r0, sp, #104	@ 0x68
   2150c:	7005      	strb	r5, [r0, #0]
   2150e:	2000      	movs	r0, #0
   21510:	2800      	cmp	r0, #0
   21512:	d107      	bne.n	21524 <_ZN20complex_dynamic_type3app17h2505028468bca723E+0x9c>
   21514:	4825      	ldr	r0, [pc, #148]	@ (215ac <_ZN20complex_dynamic_type3app17h2505028468bca723E+0x124>)
   21516:	2106      	movs	r1, #6
   21518:	2203      	movs	r2, #3
   2151a:	2400      	movs	r4, #0
   2151c:	4623      	mov	r3, r4
   2151e:	df02      	svc	2
   21520:	287f      	cmp	r0, #127	@ 0x7f
   21522:	d80d      	bhi.n	21540 <_ZN20complex_dynamic_type3app17h2505028468bca723E+0xb8>
   21524:	4634      	mov	r4, r6
   21526:	2c00      	cmp	r4, #0
   21528:	d021      	beq.n	2156e <_ZN20complex_dynamic_type3app17h2505028468bca723E+0xe6>
   2152a:	2001      	movs	r0, #1
   2152c:	9a07      	ldr	r2, [sp, #28]
   2152e:	7010      	strb	r0, [r2, #0]
   21530:	6051      	str	r1, [r2, #4]
   21532:	a81a      	add	r0, sp, #104	@ 0x68
   21534:	7802      	ldrb	r2, [r0, #0]
   21536:	2a02      	cmp	r2, #2
   21538:	d02e      	beq.n	21598 <_ZN20complex_dynamic_type3app17h2505028468bca723E+0x110>
   2153a:	2103      	movs	r1, #3
   2153c:	481b      	ldr	r0, [pc, #108]	@ (215ac <_ZN20complex_dynamic_type3app17h2505028468bca723E+0x124>)
   2153e:	e029      	b.n	21594 <_ZN20complex_dynamic_type3app17h2505028468bca723E+0x10c>
   21540:	a808      	add	r0, sp, #32
   21542:	7802      	ldrb	r2, [r0, #0]
   21544:	2a02      	cmp	r2, #2
   21546:	d003      	beq.n	21550 <_ZN20complex_dynamic_type3app17h2505028468bca723E+0xc8>
   21548:	2106      	movs	r1, #6
   2154a:	4818      	ldr	r0, [pc, #96]	@ (215ac <_ZN20complex_dynamic_type3app17h2505028468bca723E+0x124>)
   2154c:	f009 fe98 	bl	2b280 <_ZN9allow_pin12dynamic_type7unshare17hefa7cd45f9379b26E>
   21550:	a808      	add	r0, sp, #32
   21552:	9d03      	ldr	r5, [sp, #12]
   21554:	7005      	strb	r5, [r0, #0]
   21556:	a81a      	add	r0, sp, #104	@ 0x68
   21558:	7802      	ldrb	r2, [r0, #0]
   2155a:	2a02      	cmp	r2, #2
   2155c:	d003      	beq.n	21566 <_ZN20complex_dynamic_type3app17h2505028468bca723E+0xde>
   2155e:	2103      	movs	r1, #3
   21560:	4812      	ldr	r0, [pc, #72]	@ (215ac <_ZN20complex_dynamic_type3app17h2505028468bca723E+0x124>)
   21562:	f009 fe8d 	bl	2b280 <_ZN9allow_pin12dynamic_type7unshare17hefa7cd45f9379b26E>
   21566:	a81a      	add	r0, sp, #104	@ 0x68
   21568:	7005      	strb	r5, [r0, #0]
   2156a:	2c00      	cmp	r4, #0
   2156c:	d1dd      	bne.n	2152a <_ZN20complex_dynamic_type3app17h2505028468bca723E+0xa2>
   2156e:	a81a      	add	r0, sp, #104	@ 0x68
   21570:	7804      	ldrb	r4, [r0, #0]
   21572:	2c02      	cmp	r4, #2
   21574:	d001      	beq.n	2157a <_ZN20complex_dynamic_type3app17h2505028468bca723E+0xf2>
   21576:	480e      	ldr	r0, [pc, #56]	@ (215b0 <_ZN20complex_dynamic_type3app17h2505028468bca723E+0x128>)
   21578:	9006      	str	r0, [sp, #24]
   2157a:	9d07      	ldr	r5, [sp, #28]
   2157c:	1c68      	adds	r0, r5, #1
   2157e:	2223      	movs	r2, #35	@ 0x23
   21580:	9906      	ldr	r1, [sp, #24]
   21582:	f00a f862 	bl	2b64a <__aeabi_memcpy>
   21586:	2000      	movs	r0, #0
   21588:	2c02      	cmp	r4, #2
   2158a:	7028      	strb	r0, [r5, #0]
   2158c:	d004      	beq.n	21598 <_ZN20complex_dynamic_type3app17h2505028468bca723E+0x110>
   2158e:	2103      	movs	r1, #3
   21590:	4806      	ldr	r0, [pc, #24]	@ (215ac <_ZN20complex_dynamic_type3app17h2505028468bca723E+0x124>)
   21592:	4622      	mov	r2, r4
   21594:	f009 fe74 	bl	2b280 <_ZN9allow_pin12dynamic_type7unshare17hefa7cd45f9379b26E>
   21598:	a808      	add	r0, sp, #32
   2159a:	7802      	ldrb	r2, [r0, #0]
   2159c:	2a02      	cmp	r2, #2
   2159e:	d003      	beq.n	215a8 <_ZN20complex_dynamic_type3app17h2505028468bca723E+0x120>
   215a0:	2106      	movs	r1, #6
   215a2:	4802      	ldr	r0, [pc, #8]	@ (215ac <_ZN20complex_dynamic_type3app17h2505028468bca723E+0x124>)
   215a4:	f009 fe6c 	bl	2b280 <_ZN9allow_pin12dynamic_type7unshare17hefa7cd45f9379b26E>
   215a8:	b027      	add	sp, #156	@ 0x9c
   215aa:	bdf0      	pop	{r4, r5, r6, r7, pc}
   215ac:	000009bf 	.word	0x000009bf
   215b0:	00010360 	.word	0x00010360

000215b4 <_ZN20complex_dynamic_type3app17h26b8012454c98a23E>:
   215b4:	b5f0      	push	{r4, r5, r6, r7, lr}
   215b6:	af03      	add	r7, sp, #12
   215b8:	b0a3      	sub	sp, #140	@ 0x8c
   215ba:	9006      	str	r0, [sp, #24]
   215bc:	a807      	add	r0, sp, #28
   215be:	2502      	movs	r5, #2
   215c0:	7005      	strb	r5, [r0, #0]
   215c2:	1c40      	adds	r0, r0, #1
   215c4:	9004      	str	r0, [sp, #16]
   215c6:	263f      	movs	r6, #63	@ 0x3f
   215c8:	4632      	mov	r2, r6
   215ca:	f00a f83e 	bl	2b64a <__aeabi_memcpy>
   215ce:	ac17      	add	r4, sp, #92	@ 0x5c
   215d0:	1c60      	adds	r0, r4, #1
   215d2:	211c      	movs	r1, #28
   215d4:	9005      	str	r0, [sp, #20]
   215d6:	9103      	str	r1, [sp, #12]
   215d8:	f009 fe77 	bl	2b2ca <__aeabi_memclr>
   215dc:	9502      	str	r5, [sp, #8]
   215de:	7025      	strb	r5, [r4, #0]
   215e0:	2404      	movs	r4, #4
   215e2:	9600      	str	r6, [sp, #0]
   215e4:	9401      	str	r4, [sp, #4]
   215e6:	a81f      	add	r0, sp, #124	@ 0x7c
   215e8:	4e3c      	ldr	r6, [pc, #240]	@ (216dc <_ZN20complex_dynamic_type3app17h26b8012454c98a23E+0x128>)
   215ea:	2205      	movs	r2, #5
   215ec:	4631      	mov	r1, r6
   215ee:	9b04      	ldr	r3, [sp, #16]
   215f0:	f009 fe53 	bl	2b29a <_ZN9allow_pin13dynamic_allow17h33d41317a2da4f1cE>
   215f4:	981f      	ldr	r0, [sp, #124]	@ 0x7c
   215f6:	2802      	cmp	r0, #2
   215f8:	d101      	bne.n	215fe <_ZN20complex_dynamic_type3app17h26b8012454c98a23E+0x4a>
   215fa:	9920      	ldr	r1, [sp, #128]	@ 0x80
   215fc:	e001      	b.n	21602 <_ZN20complex_dynamic_type3app17h26b8012454c98a23E+0x4e>
   215fe:	a907      	add	r1, sp, #28
   21600:	700c      	strb	r4, [r1, #0]
   21602:	2501      	movs	r5, #1
   21604:	2802      	cmp	r0, #2
   21606:	d024      	beq.n	21652 <_ZN20complex_dynamic_type3app17h26b8012454c98a23E+0x9e>
   21608:	a817      	add	r0, sp, #92	@ 0x5c
   2160a:	7800      	ldrb	r0, [r0, #0]
   2160c:	2802      	cmp	r0, #2
   2160e:	d10e      	bne.n	2162e <_ZN20complex_dynamic_type3app17h26b8012454c98a23E+0x7a>
   21610:	2403      	movs	r4, #3
   21612:	9803      	ldr	r0, [sp, #12]
   21614:	9000      	str	r0, [sp, #0]
   21616:	9401      	str	r4, [sp, #4]
   21618:	a81f      	add	r0, sp, #124	@ 0x7c
   2161a:	2209      	movs	r2, #9
   2161c:	4631      	mov	r1, r6
   2161e:	9b05      	ldr	r3, [sp, #20]
   21620:	f009 fe3b 	bl	2b29a <_ZN9allow_pin13dynamic_allow17h33d41317a2da4f1cE>
   21624:	981f      	ldr	r0, [sp, #124]	@ 0x7c
   21626:	2802      	cmp	r0, #2
   21628:	d106      	bne.n	21638 <_ZN20complex_dynamic_type3app17h26b8012454c98a23E+0x84>
   2162a:	9920      	ldr	r1, [sp, #128]	@ 0x80
   2162c:	e000      	b.n	21630 <_ZN20complex_dynamic_type3app17h26b8012454c98a23E+0x7c>
   2162e:	2103      	movs	r1, #3
   21630:	4628      	mov	r0, r5
   21632:	2800      	cmp	r0, #0
   21634:	d005      	beq.n	21642 <_ZN20complex_dynamic_type3app17h26b8012454c98a23E+0x8e>
   21636:	e00c      	b.n	21652 <_ZN20complex_dynamic_type3app17h26b8012454c98a23E+0x9e>
   21638:	a817      	add	r0, sp, #92	@ 0x5c
   2163a:	7004      	strb	r4, [r0, #0]
   2163c:	2000      	movs	r0, #0
   2163e:	2800      	cmp	r0, #0
   21640:	d107      	bne.n	21652 <_ZN20complex_dynamic_type3app17h26b8012454c98a23E+0x9e>
   21642:	4826      	ldr	r0, [pc, #152]	@ (216dc <_ZN20complex_dynamic_type3app17h26b8012454c98a23E+0x128>)
   21644:	2105      	movs	r1, #5
   21646:	2209      	movs	r2, #9
   21648:	2400      	movs	r4, #0
   2164a:	4623      	mov	r3, r4
   2164c:	df02      	svc	2
   2164e:	287f      	cmp	r0, #127	@ 0x7f
   21650:	d80d      	bhi.n	2166e <_ZN20complex_dynamic_type3app17h26b8012454c98a23E+0xba>
   21652:	462c      	mov	r4, r5
   21654:	2c00      	cmp	r4, #0
   21656:	d021      	beq.n	2169c <_ZN20complex_dynamic_type3app17h26b8012454c98a23E+0xe8>
   21658:	2001      	movs	r0, #1
   2165a:	9a06      	ldr	r2, [sp, #24]
   2165c:	7010      	strb	r0, [r2, #0]
   2165e:	6051      	str	r1, [r2, #4]
   21660:	a817      	add	r0, sp, #92	@ 0x5c
   21662:	7802      	ldrb	r2, [r0, #0]
   21664:	2a02      	cmp	r2, #2
   21666:	d02e      	beq.n	216c6 <_ZN20complex_dynamic_type3app17h26b8012454c98a23E+0x112>
   21668:	2109      	movs	r1, #9
   2166a:	4630      	mov	r0, r6
   2166c:	e029      	b.n	216c2 <_ZN20complex_dynamic_type3app17h26b8012454c98a23E+0x10e>
   2166e:	a807      	add	r0, sp, #28
   21670:	7802      	ldrb	r2, [r0, #0]
   21672:	2a02      	cmp	r2, #2
   21674:	d003      	beq.n	2167e <_ZN20complex_dynamic_type3app17h26b8012454c98a23E+0xca>
   21676:	2105      	movs	r1, #5
   21678:	4630      	mov	r0, r6
   2167a:	f009 fe01 	bl	2b280 <_ZN9allow_pin12dynamic_type7unshare17hefa7cd45f9379b26E>
   2167e:	a807      	add	r0, sp, #28
   21680:	9d02      	ldr	r5, [sp, #8]
   21682:	7005      	strb	r5, [r0, #0]
   21684:	a817      	add	r0, sp, #92	@ 0x5c
   21686:	7802      	ldrb	r2, [r0, #0]
   21688:	2a02      	cmp	r2, #2
   2168a:	d003      	beq.n	21694 <_ZN20complex_dynamic_type3app17h26b8012454c98a23E+0xe0>
   2168c:	2109      	movs	r1, #9
   2168e:	4630      	mov	r0, r6
   21690:	f009 fdf6 	bl	2b280 <_ZN9allow_pin12dynamic_type7unshare17hefa7cd45f9379b26E>
   21694:	a817      	add	r0, sp, #92	@ 0x5c
   21696:	7005      	strb	r5, [r0, #0]
   21698:	2c00      	cmp	r4, #0
   2169a:	d1dd      	bne.n	21658 <_ZN20complex_dynamic_type3app17h26b8012454c98a23E+0xa4>
   2169c:	a817      	add	r0, sp, #92	@ 0x5c
   2169e:	7804      	ldrb	r4, [r0, #0]
   216a0:	2c02      	cmp	r4, #2
   216a2:	d001      	beq.n	216a8 <_ZN20complex_dynamic_type3app17h26b8012454c98a23E+0xf4>
   216a4:	480e      	ldr	r0, [pc, #56]	@ (216e0 <_ZN20complex_dynamic_type3app17h26b8012454c98a23E+0x12c>)
   216a6:	9005      	str	r0, [sp, #20]
   216a8:	9d06      	ldr	r5, [sp, #24]
   216aa:	1c68      	adds	r0, r5, #1
   216ac:	221c      	movs	r2, #28
   216ae:	9905      	ldr	r1, [sp, #20]
   216b0:	f009 ffcb 	bl	2b64a <__aeabi_memcpy>
   216b4:	2000      	movs	r0, #0
   216b6:	2c02      	cmp	r4, #2
   216b8:	7028      	strb	r0, [r5, #0]
   216ba:	d004      	beq.n	216c6 <_ZN20complex_dynamic_type3app17h26b8012454c98a23E+0x112>
   216bc:	2109      	movs	r1, #9
   216be:	4630      	mov	r0, r6
   216c0:	4622      	mov	r2, r4
   216c2:	f009 fddd 	bl	2b280 <_ZN9allow_pin12dynamic_type7unshare17hefa7cd45f9379b26E>
   216c6:	a807      	add	r0, sp, #28
   216c8:	7802      	ldrb	r2, [r0, #0]
   216ca:	2a02      	cmp	r2, #2
   216cc:	d003      	beq.n	216d6 <_ZN20complex_dynamic_type3app17h26b8012454c98a23E+0x122>
   216ce:	2105      	movs	r1, #5
   216d0:	4630      	mov	r0, r6
   216d2:	f009 fdd5 	bl	2b280 <_ZN9allow_pin12dynamic_type7unshare17hefa7cd45f9379b26E>
   216d6:	b023      	add	sp, #140	@ 0x8c
   216d8:	bdf0      	pop	{r4, r5, r6, r7, pc}
   216da:	46c0      	nop			@ (mov r8, r8)
   216dc:	00001694 	.word	0x00001694
   216e0:	00010516 	.word	0x00010516

000216e4 <_ZN20complex_dynamic_type3app17h2ba88a0bb1ba9a23E>:
   216e4:	b5f0      	push	{r4, r5, r6, r7, lr}
   216e6:	af03      	add	r7, sp, #12
   216e8:	b0b5      	sub	sp, #212	@ 0xd4
   216ea:	9007      	str	r0, [sp, #28]
   216ec:	a808      	add	r0, sp, #32
   216ee:	2502      	movs	r5, #2
   216f0:	7005      	strb	r5, [r0, #0]
   216f2:	1c40      	adds	r0, r0, #1
   216f4:	9005      	str	r0, [sp, #20]
   216f6:	2653      	movs	r6, #83	@ 0x53
   216f8:	4632      	mov	r2, r6
   216fa:	f009 ffa6 	bl	2b64a <__aeabi_memcpy>
   216fe:	ac1d      	add	r4, sp, #116	@ 0x74
   21700:	1c60      	adds	r0, r4, #1
   21702:	214d      	movs	r1, #77	@ 0x4d
   21704:	9006      	str	r0, [sp, #24]
   21706:	9104      	str	r1, [sp, #16]
   21708:	f009 fddf 	bl	2b2ca <__aeabi_memclr>
   2170c:	9503      	str	r5, [sp, #12]
   2170e:	7025      	strb	r5, [r4, #0]
   21710:	2404      	movs	r4, #4
   21712:	9600      	str	r6, [sp, #0]
   21714:	9401      	str	r4, [sp, #4]
   21716:	a831      	add	r0, sp, #196	@ 0xc4
   21718:	4e3c      	ldr	r6, [pc, #240]	@ (2180c <_ZN20complex_dynamic_type3app17h2ba88a0bb1ba9a23E+0x128>)
   2171a:	2209      	movs	r2, #9
   2171c:	4631      	mov	r1, r6
   2171e:	9b05      	ldr	r3, [sp, #20]
   21720:	f009 fdbb 	bl	2b29a <_ZN9allow_pin13dynamic_allow17h33d41317a2da4f1cE>
   21724:	9831      	ldr	r0, [sp, #196]	@ 0xc4
   21726:	2802      	cmp	r0, #2
   21728:	d101      	bne.n	2172e <_ZN20complex_dynamic_type3app17h2ba88a0bb1ba9a23E+0x4a>
   2172a:	9932      	ldr	r1, [sp, #200]	@ 0xc8
   2172c:	e001      	b.n	21732 <_ZN20complex_dynamic_type3app17h2ba88a0bb1ba9a23E+0x4e>
   2172e:	a908      	add	r1, sp, #32
   21730:	700c      	strb	r4, [r1, #0]
   21732:	2501      	movs	r5, #1
   21734:	2802      	cmp	r0, #2
   21736:	d024      	beq.n	21782 <_ZN20complex_dynamic_type3app17h2ba88a0bb1ba9a23E+0x9e>
   21738:	a81d      	add	r0, sp, #116	@ 0x74
   2173a:	7800      	ldrb	r0, [r0, #0]
   2173c:	2802      	cmp	r0, #2
   2173e:	d10e      	bne.n	2175e <_ZN20complex_dynamic_type3app17h2ba88a0bb1ba9a23E+0x7a>
   21740:	2403      	movs	r4, #3
   21742:	9804      	ldr	r0, [sp, #16]
   21744:	9000      	str	r0, [sp, #0]
   21746:	9401      	str	r4, [sp, #4]
   21748:	a831      	add	r0, sp, #196	@ 0xc4
   2174a:	2204      	movs	r2, #4
   2174c:	4631      	mov	r1, r6
   2174e:	9b06      	ldr	r3, [sp, #24]
   21750:	f009 fda3 	bl	2b29a <_ZN9allow_pin13dynamic_allow17h33d41317a2da4f1cE>
   21754:	9831      	ldr	r0, [sp, #196]	@ 0xc4
   21756:	2802      	cmp	r0, #2
   21758:	d106      	bne.n	21768 <_ZN20complex_dynamic_type3app17h2ba88a0bb1ba9a23E+0x84>
   2175a:	9932      	ldr	r1, [sp, #200]	@ 0xc8
   2175c:	e000      	b.n	21760 <_ZN20complex_dynamic_type3app17h2ba88a0bb1ba9a23E+0x7c>
   2175e:	2103      	movs	r1, #3
   21760:	4628      	mov	r0, r5
   21762:	2800      	cmp	r0, #0
   21764:	d005      	beq.n	21772 <_ZN20complex_dynamic_type3app17h2ba88a0bb1ba9a23E+0x8e>
   21766:	e00c      	b.n	21782 <_ZN20complex_dynamic_type3app17h2ba88a0bb1ba9a23E+0x9e>
   21768:	a81d      	add	r0, sp, #116	@ 0x74
   2176a:	7004      	strb	r4, [r0, #0]
   2176c:	2000      	movs	r0, #0
   2176e:	2800      	cmp	r0, #0
   21770:	d107      	bne.n	21782 <_ZN20complex_dynamic_type3app17h2ba88a0bb1ba9a23E+0x9e>
   21772:	4826      	ldr	r0, [pc, #152]	@ (2180c <_ZN20complex_dynamic_type3app17h2ba88a0bb1ba9a23E+0x128>)
   21774:	2109      	movs	r1, #9
   21776:	2204      	movs	r2, #4
   21778:	2400      	movs	r4, #0
   2177a:	4623      	mov	r3, r4
   2177c:	df02      	svc	2
   2177e:	287f      	cmp	r0, #127	@ 0x7f
   21780:	d80d      	bhi.n	2179e <_ZN20complex_dynamic_type3app17h2ba88a0bb1ba9a23E+0xba>
   21782:	462c      	mov	r4, r5
   21784:	2c00      	cmp	r4, #0
   21786:	d021      	beq.n	217cc <_ZN20complex_dynamic_type3app17h2ba88a0bb1ba9a23E+0xe8>
   21788:	2001      	movs	r0, #1
   2178a:	9a07      	ldr	r2, [sp, #28]
   2178c:	7010      	strb	r0, [r2, #0]
   2178e:	6051      	str	r1, [r2, #4]
   21790:	a81d      	add	r0, sp, #116	@ 0x74
   21792:	7802      	ldrb	r2, [r0, #0]
   21794:	2a02      	cmp	r2, #2
   21796:	d02e      	beq.n	217f6 <_ZN20complex_dynamic_type3app17h2ba88a0bb1ba9a23E+0x112>
   21798:	2104      	movs	r1, #4
   2179a:	4630      	mov	r0, r6
   2179c:	e029      	b.n	217f2 <_ZN20complex_dynamic_type3app17h2ba88a0bb1ba9a23E+0x10e>
   2179e:	a808      	add	r0, sp, #32
   217a0:	7802      	ldrb	r2, [r0, #0]
   217a2:	2a02      	cmp	r2, #2
   217a4:	d003      	beq.n	217ae <_ZN20complex_dynamic_type3app17h2ba88a0bb1ba9a23E+0xca>
   217a6:	2109      	movs	r1, #9
   217a8:	4630      	mov	r0, r6
   217aa:	f009 fd69 	bl	2b280 <_ZN9allow_pin12dynamic_type7unshare17hefa7cd45f9379b26E>
   217ae:	a808      	add	r0, sp, #32
   217b0:	9d03      	ldr	r5, [sp, #12]
   217b2:	7005      	strb	r5, [r0, #0]
   217b4:	a81d      	add	r0, sp, #116	@ 0x74
   217b6:	7802      	ldrb	r2, [r0, #0]
   217b8:	2a02      	cmp	r2, #2
   217ba:	d003      	beq.n	217c4 <_ZN20complex_dynamic_type3app17h2ba88a0bb1ba9a23E+0xe0>
   217bc:	2104      	movs	r1, #4
   217be:	4630      	mov	r0, r6
   217c0:	f009 fd5e 	bl	2b280 <_ZN9allow_pin12dynamic_type7unshare17hefa7cd45f9379b26E>
   217c4:	a81d      	add	r0, sp, #116	@ 0x74
   217c6:	7005      	strb	r5, [r0, #0]
   217c8:	2c00      	cmp	r4, #0
   217ca:	d1dd      	bne.n	21788 <_ZN20complex_dynamic_type3app17h2ba88a0bb1ba9a23E+0xa4>
   217cc:	a81d      	add	r0, sp, #116	@ 0x74
   217ce:	7804      	ldrb	r4, [r0, #0]
   217d0:	2c02      	cmp	r4, #2
   217d2:	d001      	beq.n	217d8 <_ZN20complex_dynamic_type3app17h2ba88a0bb1ba9a23E+0xf4>
   217d4:	480e      	ldr	r0, [pc, #56]	@ (21810 <_ZN20complex_dynamic_type3app17h2ba88a0bb1ba9a23E+0x12c>)
   217d6:	9006      	str	r0, [sp, #24]
   217d8:	9d07      	ldr	r5, [sp, #28]
   217da:	1c68      	adds	r0, r5, #1
   217dc:	224d      	movs	r2, #77	@ 0x4d
   217de:	9906      	ldr	r1, [sp, #24]
   217e0:	f009 ff33 	bl	2b64a <__aeabi_memcpy>
   217e4:	2000      	movs	r0, #0
   217e6:	2c02      	cmp	r4, #2
   217e8:	7028      	strb	r0, [r5, #0]
   217ea:	d004      	beq.n	217f6 <_ZN20complex_dynamic_type3app17h2ba88a0bb1ba9a23E+0x112>
   217ec:	2104      	movs	r1, #4
   217ee:	4630      	mov	r0, r6
   217f0:	4622      	mov	r2, r4
   217f2:	f009 fd45 	bl	2b280 <_ZN9allow_pin12dynamic_type7unshare17hefa7cd45f9379b26E>
   217f6:	a808      	add	r0, sp, #32
   217f8:	7802      	ldrb	r2, [r0, #0]
   217fa:	2a02      	cmp	r2, #2
   217fc:	d003      	beq.n	21806 <_ZN20complex_dynamic_type3app17h2ba88a0bb1ba9a23E+0x122>
   217fe:	2109      	movs	r1, #9
   21800:	4630      	mov	r0, r6
   21802:	f009 fd3d 	bl	2b280 <_ZN9allow_pin12dynamic_type7unshare17hefa7cd45f9379b26E>
   21806:	b035      	add	sp, #212	@ 0xd4
   21808:	bdf0      	pop	{r4, r5, r6, r7, pc}
   2180a:	46c0      	nop			@ (mov r8, r8)
   2180c:	000016ba 	.word	0x000016ba
   21810:	0001082e 	.word	0x0001082e

00021814 <_ZN20complex_dynamic_type3app17h2e4ab66447ca546eE>:
   21814:	b5f0      	push	{r4, r5, r6, r7, lr}
   21816:	af03      	add	r7, sp, #12
   21818:	b0ab      	sub	sp, #172	@ 0xac
   2181a:	9007      	str	r0, [sp, #28]
   2181c:	a808      	add	r0, sp, #32
   2181e:	2602      	movs	r6, #2
   21820:	7006      	strb	r6, [r0, #0]
   21822:	1c40      	adds	r0, r0, #1
   21824:	9005      	str	r0, [sp, #20]
   21826:	253c      	movs	r5, #60	@ 0x3c
   21828:	462a      	mov	r2, r5
   2182a:	f009 ff0e 	bl	2b64a <__aeabi_memcpy>
   2182e:	ac18      	add	r4, sp, #96	@ 0x60
   21830:	1c60      	adds	r0, r4, #1
   21832:	2138      	movs	r1, #56	@ 0x38
   21834:	9006      	str	r0, [sp, #24]
   21836:	9104      	str	r1, [sp, #16]
   21838:	f009 fd47 	bl	2b2ca <__aeabi_memclr>
   2183c:	9603      	str	r6, [sp, #12]
   2183e:	7026      	strb	r6, [r4, #0]
   21840:	2404      	movs	r4, #4
   21842:	9500      	str	r5, [sp, #0]
   21844:	9401      	str	r4, [sp, #4]
   21846:	a827      	add	r0, sp, #156	@ 0x9c
   21848:	493c      	ldr	r1, [pc, #240]	@ (2193c <_ZN20complex_dynamic_type3app17h2e4ab66447ca546eE+0x128>)
   2184a:	2503      	movs	r5, #3
   2184c:	462a      	mov	r2, r5
   2184e:	9b05      	ldr	r3, [sp, #20]
   21850:	f009 fd23 	bl	2b29a <_ZN9allow_pin13dynamic_allow17h33d41317a2da4f1cE>
   21854:	9827      	ldr	r0, [sp, #156]	@ 0x9c
   21856:	2802      	cmp	r0, #2
   21858:	d101      	bne.n	2185e <_ZN20complex_dynamic_type3app17h2e4ab66447ca546eE+0x4a>
   2185a:	9928      	ldr	r1, [sp, #160]	@ 0xa0
   2185c:	e001      	b.n	21862 <_ZN20complex_dynamic_type3app17h2e4ab66447ca546eE+0x4e>
   2185e:	a908      	add	r1, sp, #32
   21860:	700c      	strb	r4, [r1, #0]
   21862:	2601      	movs	r6, #1
   21864:	2802      	cmp	r0, #2
   21866:	d024      	beq.n	218b2 <_ZN20complex_dynamic_type3app17h2e4ab66447ca546eE+0x9e>
   21868:	a818      	add	r0, sp, #96	@ 0x60
   2186a:	7800      	ldrb	r0, [r0, #0]
   2186c:	2802      	cmp	r0, #2
   2186e:	4630      	mov	r0, r6
   21870:	d10e      	bne.n	21890 <_ZN20complex_dynamic_type3app17h2e4ab66447ca546eE+0x7c>
   21872:	2503      	movs	r5, #3
   21874:	9804      	ldr	r0, [sp, #16]
   21876:	9000      	str	r0, [sp, #0]
   21878:	9501      	str	r5, [sp, #4]
   2187a:	a827      	add	r0, sp, #156	@ 0x9c
   2187c:	492f      	ldr	r1, [pc, #188]	@ (2193c <_ZN20complex_dynamic_type3app17h2e4ab66447ca546eE+0x128>)
   2187e:	462a      	mov	r2, r5
   21880:	9b06      	ldr	r3, [sp, #24]
   21882:	f009 fd0a 	bl	2b29a <_ZN9allow_pin13dynamic_allow17h33d41317a2da4f1cE>
   21886:	9827      	ldr	r0, [sp, #156]	@ 0x9c
   21888:	2802      	cmp	r0, #2
   2188a:	d105      	bne.n	21898 <_ZN20complex_dynamic_type3app17h2e4ab66447ca546eE+0x84>
   2188c:	9d28      	ldr	r5, [sp, #160]	@ 0xa0
   2188e:	4630      	mov	r0, r6
   21890:	2800      	cmp	r0, #0
   21892:	d006      	beq.n	218a2 <_ZN20complex_dynamic_type3app17h2e4ab66447ca546eE+0x8e>
   21894:	4629      	mov	r1, r5
   21896:	e00c      	b.n	218b2 <_ZN20complex_dynamic_type3app17h2e4ab66447ca546eE+0x9e>
   21898:	a818      	add	r0, sp, #96	@ 0x60
   2189a:	7005      	strb	r5, [r0, #0]
   2189c:	2000      	movs	r0, #0
   2189e:	2800      	cmp	r0, #0
   218a0:	d1f8      	bne.n	21894 <_ZN20complex_dynamic_type3app17h2e4ab66447ca546eE+0x80>
   218a2:	4826      	ldr	r0, [pc, #152]	@ (2193c <_ZN20complex_dynamic_type3app17h2e4ab66447ca546eE+0x128>)
   218a4:	2103      	movs	r1, #3
   218a6:	2400      	movs	r4, #0
   218a8:	460a      	mov	r2, r1
   218aa:	4623      	mov	r3, r4
   218ac:	df02      	svc	2
   218ae:	287f      	cmp	r0, #127	@ 0x7f
   218b0:	d80d      	bhi.n	218ce <_ZN20complex_dynamic_type3app17h2e4ab66447ca546eE+0xba>
   218b2:	4634      	mov	r4, r6
   218b4:	2c00      	cmp	r4, #0
   218b6:	d021      	beq.n	218fc <_ZN20complex_dynamic_type3app17h2e4ab66447ca546eE+0xe8>
   218b8:	2001      	movs	r0, #1
   218ba:	9a07      	ldr	r2, [sp, #28]
   218bc:	7010      	strb	r0, [r2, #0]
   218be:	6051      	str	r1, [r2, #4]
   218c0:	a818      	add	r0, sp, #96	@ 0x60
   218c2:	7802      	ldrb	r2, [r0, #0]
   218c4:	2a02      	cmp	r2, #2
   218c6:	d02e      	beq.n	21926 <_ZN20complex_dynamic_type3app17h2e4ab66447ca546eE+0x112>
   218c8:	2103      	movs	r1, #3
   218ca:	481c      	ldr	r0, [pc, #112]	@ (2193c <_ZN20complex_dynamic_type3app17h2e4ab66447ca546eE+0x128>)
   218cc:	e029      	b.n	21922 <_ZN20complex_dynamic_type3app17h2e4ab66447ca546eE+0x10e>
   218ce:	a808      	add	r0, sp, #32
   218d0:	7802      	ldrb	r2, [r0, #0]
   218d2:	2a02      	cmp	r2, #2
   218d4:	d003      	beq.n	218de <_ZN20complex_dynamic_type3app17h2e4ab66447ca546eE+0xca>
   218d6:	2103      	movs	r1, #3
   218d8:	4818      	ldr	r0, [pc, #96]	@ (2193c <_ZN20complex_dynamic_type3app17h2e4ab66447ca546eE+0x128>)
   218da:	f009 fcd1 	bl	2b280 <_ZN9allow_pin12dynamic_type7unshare17hefa7cd45f9379b26E>
   218de:	a808      	add	r0, sp, #32
   218e0:	9d03      	ldr	r5, [sp, #12]
   218e2:	7005      	strb	r5, [r0, #0]
   218e4:	a818      	add	r0, sp, #96	@ 0x60
   218e6:	7802      	ldrb	r2, [r0, #0]
   218e8:	2a02      	cmp	r2, #2
   218ea:	d003      	beq.n	218f4 <_ZN20complex_dynamic_type3app17h2e4ab66447ca546eE+0xe0>
   218ec:	2103      	movs	r1, #3
   218ee:	4813      	ldr	r0, [pc, #76]	@ (2193c <_ZN20complex_dynamic_type3app17h2e4ab66447ca546eE+0x128>)
   218f0:	f009 fcc6 	bl	2b280 <_ZN9allow_pin12dynamic_type7unshare17hefa7cd45f9379b26E>
   218f4:	a818      	add	r0, sp, #96	@ 0x60
   218f6:	7005      	strb	r5, [r0, #0]
   218f8:	2c00      	cmp	r4, #0
   218fa:	d1dd      	bne.n	218b8 <_ZN20complex_dynamic_type3app17h2e4ab66447ca546eE+0xa4>
   218fc:	a818      	add	r0, sp, #96	@ 0x60
   218fe:	7804      	ldrb	r4, [r0, #0]
   21900:	2c02      	cmp	r4, #2
   21902:	d001      	beq.n	21908 <_ZN20complex_dynamic_type3app17h2e4ab66447ca546eE+0xf4>
   21904:	480e      	ldr	r0, [pc, #56]	@ (21940 <_ZN20complex_dynamic_type3app17h2e4ab66447ca546eE+0x12c>)
   21906:	9006      	str	r0, [sp, #24]
   21908:	9d07      	ldr	r5, [sp, #28]
   2190a:	1c68      	adds	r0, r5, #1
   2190c:	2238      	movs	r2, #56	@ 0x38
   2190e:	9906      	ldr	r1, [sp, #24]
   21910:	f009 fe9b 	bl	2b64a <__aeabi_memcpy>
   21914:	2000      	movs	r0, #0
   21916:	2c02      	cmp	r4, #2
   21918:	7028      	strb	r0, [r5, #0]
   2191a:	d004      	beq.n	21926 <_ZN20complex_dynamic_type3app17h2e4ab66447ca546eE+0x112>
   2191c:	2103      	movs	r1, #3
   2191e:	4807      	ldr	r0, [pc, #28]	@ (2193c <_ZN20complex_dynamic_type3app17h2e4ab66447ca546eE+0x128>)
   21920:	4622      	mov	r2, r4
   21922:	f009 fcad 	bl	2b280 <_ZN9allow_pin12dynamic_type7unshare17hefa7cd45f9379b26E>
   21926:	a808      	add	r0, sp, #32
   21928:	7802      	ldrb	r2, [r0, #0]
   2192a:	2a02      	cmp	r2, #2
   2192c:	d003      	beq.n	21936 <_ZN20complex_dynamic_type3app17h2e4ab66447ca546eE+0x122>
   2192e:	2103      	movs	r1, #3
   21930:	4802      	ldr	r0, [pc, #8]	@ (2193c <_ZN20complex_dynamic_type3app17h2e4ab66447ca546eE+0x128>)
   21932:	f009 fca5 	bl	2b280 <_ZN9allow_pin12dynamic_type7unshare17hefa7cd45f9379b26E>
   21936:	b02b      	add	sp, #172	@ 0xac
   21938:	bdf0      	pop	{r4, r5, r6, r7, pc}
   2193a:	46c0      	nop			@ (mov r8, r8)
   2193c:	00001d19 	.word	0x00001d19
   21940:	0001048b 	.word	0x0001048b

00021944 <_ZN20complex_dynamic_type3app17h3038c89f84927fc0E>:
   21944:	b5f0      	push	{r4, r5, r6, r7, lr}
   21946:	af03      	add	r7, sp, #12
   21948:	b0a5      	sub	sp, #148	@ 0x94
   2194a:	9005      	str	r0, [sp, #20]
   2194c:	a806      	add	r0, sp, #24
   2194e:	2502      	movs	r5, #2
   21950:	7005      	strb	r5, [r0, #0]
   21952:	1c40      	adds	r0, r0, #1
   21954:	9003      	str	r0, [sp, #12]
   21956:	2455      	movs	r4, #85	@ 0x55
   21958:	4622      	mov	r2, r4
   2195a:	f009 fe76 	bl	2b64a <__aeabi_memcpy>
   2195e:	ae1c      	add	r6, sp, #112	@ 0x70
   21960:	1c70      	adds	r0, r6, #1
   21962:	2111      	movs	r1, #17
   21964:	9004      	str	r0, [sp, #16]
   21966:	9102      	str	r1, [sp, #8]
   21968:	f009 fcaf 	bl	2b2ca <__aeabi_memclr>
   2196c:	7035      	strb	r5, [r6, #0]
   2196e:	2604      	movs	r6, #4
   21970:	9400      	str	r4, [sp, #0]
   21972:	9601      	str	r6, [sp, #4]
   21974:	a821      	add	r0, sp, #132	@ 0x84
   21976:	493c      	ldr	r1, [pc, #240]	@ (21a68 <_ZN20complex_dynamic_type3app17h3038c89f84927fc0E+0x124>)
   21978:	462a      	mov	r2, r5
   2197a:	9b03      	ldr	r3, [sp, #12]
   2197c:	f009 fc8d 	bl	2b29a <_ZN9allow_pin13dynamic_allow17h33d41317a2da4f1cE>
   21980:	9821      	ldr	r0, [sp, #132]	@ 0x84
   21982:	2802      	cmp	r0, #2
   21984:	d101      	bne.n	2198a <_ZN20complex_dynamic_type3app17h3038c89f84927fc0E+0x46>
   21986:	9922      	ldr	r1, [sp, #136]	@ 0x88
   21988:	e001      	b.n	2198e <_ZN20complex_dynamic_type3app17h3038c89f84927fc0E+0x4a>
   2198a:	a906      	add	r1, sp, #24
   2198c:	700e      	strb	r6, [r1, #0]
   2198e:	2601      	movs	r6, #1
   21990:	2802      	cmp	r0, #2
   21992:	d025      	beq.n	219e0 <_ZN20complex_dynamic_type3app17h3038c89f84927fc0E+0x9c>
   21994:	a81c      	add	r0, sp, #112	@ 0x70
   21996:	7800      	ldrb	r0, [r0, #0]
   21998:	2802      	cmp	r0, #2
   2199a:	d10e      	bne.n	219ba <_ZN20complex_dynamic_type3app17h3038c89f84927fc0E+0x76>
   2199c:	2403      	movs	r4, #3
   2199e:	9802      	ldr	r0, [sp, #8]
   219a0:	9000      	str	r0, [sp, #0]
   219a2:	9401      	str	r4, [sp, #4]
   219a4:	a821      	add	r0, sp, #132	@ 0x84
   219a6:	2202      	movs	r2, #2
   219a8:	492f      	ldr	r1, [pc, #188]	@ (21a68 <_ZN20complex_dynamic_type3app17h3038c89f84927fc0E+0x124>)
   219aa:	9b04      	ldr	r3, [sp, #16]
   219ac:	f009 fc75 	bl	2b29a <_ZN9allow_pin13dynamic_allow17h33d41317a2da4f1cE>
   219b0:	9821      	ldr	r0, [sp, #132]	@ 0x84
   219b2:	2802      	cmp	r0, #2
   219b4:	d106      	bne.n	219c4 <_ZN20complex_dynamic_type3app17h3038c89f84927fc0E+0x80>
   219b6:	9922      	ldr	r1, [sp, #136]	@ 0x88
   219b8:	e000      	b.n	219bc <_ZN20complex_dynamic_type3app17h3038c89f84927fc0E+0x78>
   219ba:	2103      	movs	r1, #3
   219bc:	4630      	mov	r0, r6
   219be:	2800      	cmp	r0, #0
   219c0:	d005      	beq.n	219ce <_ZN20complex_dynamic_type3app17h3038c89f84927fc0E+0x8a>
   219c2:	e00d      	b.n	219e0 <_ZN20complex_dynamic_type3app17h3038c89f84927fc0E+0x9c>
   219c4:	a81c      	add	r0, sp, #112	@ 0x70
   219c6:	7004      	strb	r4, [r0, #0]
   219c8:	2000      	movs	r0, #0
   219ca:	2800      	cmp	r0, #0
   219cc:	d108      	bne.n	219e0 <_ZN20complex_dynamic_type3app17h3038c89f84927fc0E+0x9c>
   219ce:	4826      	ldr	r0, [pc, #152]	@ (21a68 <_ZN20complex_dynamic_type3app17h3038c89f84927fc0E+0x124>)
   219d0:	2502      	movs	r5, #2
   219d2:	2400      	movs	r4, #0
   219d4:	4629      	mov	r1, r5
   219d6:	462a      	mov	r2, r5
   219d8:	4623      	mov	r3, r4
   219da:	df02      	svc	2
   219dc:	287f      	cmp	r0, #127	@ 0x7f
   219de:	d80d      	bhi.n	219fc <_ZN20complex_dynamic_type3app17h3038c89f84927fc0E+0xb8>
   219e0:	4634      	mov	r4, r6
   219e2:	2c00      	cmp	r4, #0
   219e4:	d020      	beq.n	21a28 <_ZN20complex_dynamic_type3app17h3038c89f84927fc0E+0xe4>
   219e6:	2001      	movs	r0, #1
   219e8:	9a05      	ldr	r2, [sp, #20]
   219ea:	7010      	strb	r0, [r2, #0]
   219ec:	6051      	str	r1, [r2, #4]
   219ee:	a81c      	add	r0, sp, #112	@ 0x70
   219f0:	7802      	ldrb	r2, [r0, #0]
   219f2:	2a02      	cmp	r2, #2
   219f4:	d02d      	beq.n	21a52 <_ZN20complex_dynamic_type3app17h3038c89f84927fc0E+0x10e>
   219f6:	2102      	movs	r1, #2
   219f8:	481b      	ldr	r0, [pc, #108]	@ (21a68 <_ZN20complex_dynamic_type3app17h3038c89f84927fc0E+0x124>)
   219fa:	e028      	b.n	21a4e <_ZN20complex_dynamic_type3app17h3038c89f84927fc0E+0x10a>
   219fc:	a806      	add	r0, sp, #24
   219fe:	7802      	ldrb	r2, [r0, #0]
   21a00:	2a02      	cmp	r2, #2
   21a02:	d003      	beq.n	21a0c <_ZN20complex_dynamic_type3app17h3038c89f84927fc0E+0xc8>
   21a04:	2102      	movs	r1, #2
   21a06:	4818      	ldr	r0, [pc, #96]	@ (21a68 <_ZN20complex_dynamic_type3app17h3038c89f84927fc0E+0x124>)
   21a08:	f009 fc3a 	bl	2b280 <_ZN9allow_pin12dynamic_type7unshare17hefa7cd45f9379b26E>
   21a0c:	a806      	add	r0, sp, #24
   21a0e:	7005      	strb	r5, [r0, #0]
   21a10:	a81c      	add	r0, sp, #112	@ 0x70
   21a12:	7802      	ldrb	r2, [r0, #0]
   21a14:	2a02      	cmp	r2, #2
   21a16:	d003      	beq.n	21a20 <_ZN20complex_dynamic_type3app17h3038c89f84927fc0E+0xdc>
   21a18:	2102      	movs	r1, #2
   21a1a:	4813      	ldr	r0, [pc, #76]	@ (21a68 <_ZN20complex_dynamic_type3app17h3038c89f84927fc0E+0x124>)
   21a1c:	f009 fc30 	bl	2b280 <_ZN9allow_pin12dynamic_type7unshare17hefa7cd45f9379b26E>
   21a20:	a81c      	add	r0, sp, #112	@ 0x70
   21a22:	7005      	strb	r5, [r0, #0]
   21a24:	2c00      	cmp	r4, #0
   21a26:	d1de      	bne.n	219e6 <_ZN20complex_dynamic_type3app17h3038c89f84927fc0E+0xa2>
   21a28:	a81c      	add	r0, sp, #112	@ 0x70
   21a2a:	7804      	ldrb	r4, [r0, #0]
   21a2c:	2c02      	cmp	r4, #2
   21a2e:	d001      	beq.n	21a34 <_ZN20complex_dynamic_type3app17h3038c89f84927fc0E+0xf0>
   21a30:	480e      	ldr	r0, [pc, #56]	@ (21a6c <_ZN20complex_dynamic_type3app17h3038c89f84927fc0E+0x128>)
   21a32:	9004      	str	r0, [sp, #16]
   21a34:	9d05      	ldr	r5, [sp, #20]
   21a36:	1c68      	adds	r0, r5, #1
   21a38:	2211      	movs	r2, #17
   21a3a:	9904      	ldr	r1, [sp, #16]
   21a3c:	f009 fe05 	bl	2b64a <__aeabi_memcpy>
   21a40:	2000      	movs	r0, #0
   21a42:	2c02      	cmp	r4, #2
   21a44:	7028      	strb	r0, [r5, #0]
   21a46:	d004      	beq.n	21a52 <_ZN20complex_dynamic_type3app17h3038c89f84927fc0E+0x10e>
   21a48:	2102      	movs	r1, #2
   21a4a:	4807      	ldr	r0, [pc, #28]	@ (21a68 <_ZN20complex_dynamic_type3app17h3038c89f84927fc0E+0x124>)
   21a4c:	4622      	mov	r2, r4
   21a4e:	f009 fc17 	bl	2b280 <_ZN9allow_pin12dynamic_type7unshare17hefa7cd45f9379b26E>
   21a52:	a806      	add	r0, sp, #24
   21a54:	7802      	ldrb	r2, [r0, #0]
   21a56:	2a02      	cmp	r2, #2
   21a58:	d003      	beq.n	21a62 <_ZN20complex_dynamic_type3app17h3038c89f84927fc0E+0x11e>
   21a5a:	2102      	movs	r1, #2
   21a5c:	4802      	ldr	r0, [pc, #8]	@ (21a68 <_ZN20complex_dynamic_type3app17h3038c89f84927fc0E+0x124>)
   21a5e:	f009 fc0f 	bl	2b280 <_ZN9allow_pin12dynamic_type7unshare17hefa7cd45f9379b26E>
   21a62:	b025      	add	sp, #148	@ 0x94
   21a64:	bdf0      	pop	{r4, r5, r6, r7, pc}
   21a66:	46c0      	nop			@ (mov r8, r8)
   21a68:	00000c89 	.word	0x00000c89
   21a6c:	0001047a 	.word	0x0001047a

00021a70 <_ZN20complex_dynamic_type3app17h30dbece71511da4bE>:
   21a70:	b5f0      	push	{r4, r5, r6, r7, lr}
   21a72:	af03      	add	r7, sp, #12
   21a74:	b0a7      	sub	sp, #156	@ 0x9c
   21a76:	9006      	str	r0, [sp, #24]
   21a78:	a807      	add	r0, sp, #28
   21a7a:	2502      	movs	r5, #2
   21a7c:	7005      	strb	r5, [r0, #0]
   21a7e:	1c40      	adds	r0, r0, #1
   21a80:	9004      	str	r0, [sp, #16]
   21a82:	2649      	movs	r6, #73	@ 0x49
   21a84:	4632      	mov	r2, r6
   21a86:	f009 fde0 	bl	2b64a <__aeabi_memcpy>
   21a8a:	ac1a      	add	r4, sp, #104	@ 0x68
   21a8c:	1c60      	adds	r0, r4, #1
   21a8e:	2123      	movs	r1, #35	@ 0x23
   21a90:	9005      	str	r0, [sp, #20]
   21a92:	9103      	str	r1, [sp, #12]
   21a94:	f009 fc19 	bl	2b2ca <__aeabi_memclr>
   21a98:	9502      	str	r5, [sp, #8]
   21a9a:	7025      	strb	r5, [r4, #0]
   21a9c:	2404      	movs	r4, #4
   21a9e:	9600      	str	r6, [sp, #0]
   21aa0:	9401      	str	r4, [sp, #4]
   21aa2:	a823      	add	r0, sp, #140	@ 0x8c
   21aa4:	4e3c      	ldr	r6, [pc, #240]	@ (21b98 <_ZN20complex_dynamic_type3app17h30dbece71511da4bE+0x128>)
   21aa6:	2207      	movs	r2, #7
   21aa8:	4631      	mov	r1, r6
   21aaa:	9b04      	ldr	r3, [sp, #16]
   21aac:	f009 fbf5 	bl	2b29a <_ZN9allow_pin13dynamic_allow17h33d41317a2da4f1cE>
   21ab0:	9823      	ldr	r0, [sp, #140]	@ 0x8c
   21ab2:	2802      	cmp	r0, #2
   21ab4:	d101      	bne.n	21aba <_ZN20complex_dynamic_type3app17h30dbece71511da4bE+0x4a>
   21ab6:	9924      	ldr	r1, [sp, #144]	@ 0x90
   21ab8:	e001      	b.n	21abe <_ZN20complex_dynamic_type3app17h30dbece71511da4bE+0x4e>
   21aba:	a907      	add	r1, sp, #28
   21abc:	700c      	strb	r4, [r1, #0]
   21abe:	2501      	movs	r5, #1
   21ac0:	2802      	cmp	r0, #2
   21ac2:	d024      	beq.n	21b0e <_ZN20complex_dynamic_type3app17h30dbece71511da4bE+0x9e>
   21ac4:	a81a      	add	r0, sp, #104	@ 0x68
   21ac6:	7800      	ldrb	r0, [r0, #0]
   21ac8:	2802      	cmp	r0, #2
   21aca:	d10e      	bne.n	21aea <_ZN20complex_dynamic_type3app17h30dbece71511da4bE+0x7a>
   21acc:	2403      	movs	r4, #3
   21ace:	9803      	ldr	r0, [sp, #12]
   21ad0:	9000      	str	r0, [sp, #0]
   21ad2:	9401      	str	r4, [sp, #4]
   21ad4:	a823      	add	r0, sp, #140	@ 0x8c
   21ad6:	2201      	movs	r2, #1
   21ad8:	4631      	mov	r1, r6
   21ada:	9b05      	ldr	r3, [sp, #20]
   21adc:	f009 fbdd 	bl	2b29a <_ZN9allow_pin13dynamic_allow17h33d41317a2da4f1cE>
   21ae0:	9823      	ldr	r0, [sp, #140]	@ 0x8c
   21ae2:	2802      	cmp	r0, #2
   21ae4:	d106      	bne.n	21af4 <_ZN20complex_dynamic_type3app17h30dbece71511da4bE+0x84>
   21ae6:	9924      	ldr	r1, [sp, #144]	@ 0x90
   21ae8:	e000      	b.n	21aec <_ZN20complex_dynamic_type3app17h30dbece71511da4bE+0x7c>
   21aea:	2103      	movs	r1, #3
   21aec:	4628      	mov	r0, r5
   21aee:	2800      	cmp	r0, #0
   21af0:	d005      	beq.n	21afe <_ZN20complex_dynamic_type3app17h30dbece71511da4bE+0x8e>
   21af2:	e00c      	b.n	21b0e <_ZN20complex_dynamic_type3app17h30dbece71511da4bE+0x9e>
   21af4:	a81a      	add	r0, sp, #104	@ 0x68
   21af6:	7004      	strb	r4, [r0, #0]
   21af8:	2000      	movs	r0, #0
   21afa:	2800      	cmp	r0, #0
   21afc:	d107      	bne.n	21b0e <_ZN20complex_dynamic_type3app17h30dbece71511da4bE+0x9e>
   21afe:	4826      	ldr	r0, [pc, #152]	@ (21b98 <_ZN20complex_dynamic_type3app17h30dbece71511da4bE+0x128>)
   21b00:	2107      	movs	r1, #7
   21b02:	2201      	movs	r2, #1
   21b04:	2400      	movs	r4, #0
   21b06:	4623      	mov	r3, r4
   21b08:	df02      	svc	2
   21b0a:	287f      	cmp	r0, #127	@ 0x7f
   21b0c:	d80d      	bhi.n	21b2a <_ZN20complex_dynamic_type3app17h30dbece71511da4bE+0xba>
   21b0e:	462c      	mov	r4, r5
   21b10:	2c00      	cmp	r4, #0
   21b12:	d021      	beq.n	21b58 <_ZN20complex_dynamic_type3app17h30dbece71511da4bE+0xe8>
   21b14:	2001      	movs	r0, #1
   21b16:	9a06      	ldr	r2, [sp, #24]
   21b18:	7010      	strb	r0, [r2, #0]
   21b1a:	6051      	str	r1, [r2, #4]
   21b1c:	a81a      	add	r0, sp, #104	@ 0x68
   21b1e:	7802      	ldrb	r2, [r0, #0]
   21b20:	2a02      	cmp	r2, #2
   21b22:	d02e      	beq.n	21b82 <_ZN20complex_dynamic_type3app17h30dbece71511da4bE+0x112>
   21b24:	2101      	movs	r1, #1
   21b26:	4630      	mov	r0, r6
   21b28:	e029      	b.n	21b7e <_ZN20complex_dynamic_type3app17h30dbece71511da4bE+0x10e>
   21b2a:	a807      	add	r0, sp, #28
   21b2c:	7802      	ldrb	r2, [r0, #0]
   21b2e:	2a02      	cmp	r2, #2
   21b30:	d003      	beq.n	21b3a <_ZN20complex_dynamic_type3app17h30dbece71511da4bE+0xca>
   21b32:	2107      	movs	r1, #7
   21b34:	4630      	mov	r0, r6
   21b36:	f009 fba3 	bl	2b280 <_ZN9allow_pin12dynamic_type7unshare17hefa7cd45f9379b26E>
   21b3a:	a807      	add	r0, sp, #28
   21b3c:	9d02      	ldr	r5, [sp, #8]
   21b3e:	7005      	strb	r5, [r0, #0]
   21b40:	a81a      	add	r0, sp, #104	@ 0x68
   21b42:	7802      	ldrb	r2, [r0, #0]
   21b44:	2a02      	cmp	r2, #2
   21b46:	d003      	beq.n	21b50 <_ZN20complex_dynamic_type3app17h30dbece71511da4bE+0xe0>
   21b48:	2101      	movs	r1, #1
   21b4a:	4630      	mov	r0, r6
   21b4c:	f009 fb98 	bl	2b280 <_ZN9allow_pin12dynamic_type7unshare17hefa7cd45f9379b26E>
   21b50:	a81a      	add	r0, sp, #104	@ 0x68
   21b52:	7005      	strb	r5, [r0, #0]
   21b54:	2c00      	cmp	r4, #0
   21b56:	d1dd      	bne.n	21b14 <_ZN20complex_dynamic_type3app17h30dbece71511da4bE+0xa4>
   21b58:	a81a      	add	r0, sp, #104	@ 0x68
   21b5a:	7804      	ldrb	r4, [r0, #0]
   21b5c:	2c02      	cmp	r4, #2
   21b5e:	d001      	beq.n	21b64 <_ZN20complex_dynamic_type3app17h30dbece71511da4bE+0xf4>
   21b60:	480e      	ldr	r0, [pc, #56]	@ (21b9c <_ZN20complex_dynamic_type3app17h30dbece71511da4bE+0x12c>)
   21b62:	9005      	str	r0, [sp, #20]
   21b64:	9d06      	ldr	r5, [sp, #24]
   21b66:	1c68      	adds	r0, r5, #1
   21b68:	2223      	movs	r2, #35	@ 0x23
   21b6a:	9905      	ldr	r1, [sp, #20]
   21b6c:	f009 fd6d 	bl	2b64a <__aeabi_memcpy>
   21b70:	2000      	movs	r0, #0
   21b72:	2c02      	cmp	r4, #2
   21b74:	7028      	strb	r0, [r5, #0]
   21b76:	d004      	beq.n	21b82 <_ZN20complex_dynamic_type3app17h30dbece71511da4bE+0x112>
   21b78:	2101      	movs	r1, #1
   21b7a:	4630      	mov	r0, r6
   21b7c:	4622      	mov	r2, r4
   21b7e:	f009 fb7f 	bl	2b280 <_ZN9allow_pin12dynamic_type7unshare17hefa7cd45f9379b26E>
   21b82:	a807      	add	r0, sp, #28
   21b84:	7802      	ldrb	r2, [r0, #0]
   21b86:	2a02      	cmp	r2, #2
   21b88:	d003      	beq.n	21b92 <_ZN20complex_dynamic_type3app17h30dbece71511da4bE+0x122>
   21b8a:	2107      	movs	r1, #7
   21b8c:	4630      	mov	r0, r6
   21b8e:	f009 fb77 	bl	2b280 <_ZN9allow_pin12dynamic_type7unshare17hefa7cd45f9379b26E>
   21b92:	b027      	add	sp, #156	@ 0x9c
   21b94:	bdf0      	pop	{r4, r5, r6, r7, pc}
   21b96:	46c0      	nop			@ (mov r8, r8)
   21b98:	00001551 	.word	0x00001551
   21b9c:	00010360 	.word	0x00010360

00021ba0 <_ZN20complex_dynamic_type3app17h321db58372f4d021E>:
   21ba0:	b5f0      	push	{r4, r5, r6, r7, lr}
   21ba2:	af03      	add	r7, sp, #12
   21ba4:	b0a1      	sub	sp, #132	@ 0x84
   21ba6:	9007      	str	r0, [sp, #28]
   21ba8:	a808      	add	r0, sp, #32
   21baa:	2602      	movs	r6, #2
   21bac:	7006      	strb	r6, [r0, #0]
   21bae:	1c40      	adds	r0, r0, #1
   21bb0:	9005      	str	r0, [sp, #20]
   21bb2:	2425      	movs	r4, #37	@ 0x25
   21bb4:	4622      	mov	r2, r4
   21bb6:	f009 fd48 	bl	2b64a <__aeabi_memcpy>
   21bba:	ad12      	add	r5, sp, #72	@ 0x48
   21bbc:	1c68      	adds	r0, r5, #1
   21bbe:	212a      	movs	r1, #42	@ 0x2a
   21bc0:	9006      	str	r0, [sp, #24]
   21bc2:	9104      	str	r1, [sp, #16]
   21bc4:	f009 fb81 	bl	2b2ca <__aeabi_memclr>
   21bc8:	9603      	str	r6, [sp, #12]
   21bca:	702e      	strb	r6, [r5, #0]
   21bcc:	2504      	movs	r5, #4
   21bce:	9400      	str	r4, [sp, #0]
   21bd0:	9501      	str	r5, [sp, #4]
   21bd2:	a81d      	add	r0, sp, #116	@ 0x74
   21bd4:	493d      	ldr	r1, [pc, #244]	@ (21ccc <_ZN20complex_dynamic_type3app17h321db58372f4d021E+0x12c>)
   21bd6:	2400      	movs	r4, #0
   21bd8:	4622      	mov	r2, r4
   21bda:	9b05      	ldr	r3, [sp, #20]
   21bdc:	f009 fb5d 	bl	2b29a <_ZN9allow_pin13dynamic_allow17h33d41317a2da4f1cE>
   21be0:	981d      	ldr	r0, [sp, #116]	@ 0x74
   21be2:	2802      	cmp	r0, #2
   21be4:	d101      	bne.n	21bea <_ZN20complex_dynamic_type3app17h321db58372f4d021E+0x4a>
   21be6:	991e      	ldr	r1, [sp, #120]	@ 0x78
   21be8:	e001      	b.n	21bee <_ZN20complex_dynamic_type3app17h321db58372f4d021E+0x4e>
   21bea:	a908      	add	r1, sp, #32
   21bec:	700d      	strb	r5, [r1, #0]
   21bee:	2601      	movs	r6, #1
   21bf0:	2802      	cmp	r0, #2
   21bf2:	4d36      	ldr	r5, [pc, #216]	@ (21ccc <_ZN20complex_dynamic_type3app17h321db58372f4d021E+0x12c>)
   21bf4:	d10d      	bne.n	21c12 <_ZN20complex_dynamic_type3app17h321db58372f4d021E+0x72>
   21bf6:	4634      	mov	r4, r6
   21bf8:	2c00      	cmp	r4, #0
   21bfa:	d047      	beq.n	21c8c <_ZN20complex_dynamic_type3app17h321db58372f4d021E+0xec>
   21bfc:	2001      	movs	r0, #1
   21bfe:	9a07      	ldr	r2, [sp, #28]
   21c00:	7010      	strb	r0, [r2, #0]
   21c02:	6051      	str	r1, [r2, #4]
   21c04:	a812      	add	r0, sp, #72	@ 0x48
   21c06:	7802      	ldrb	r2, [r0, #0]
   21c08:	2a02      	cmp	r2, #2
   21c0a:	d054      	beq.n	21cb6 <_ZN20complex_dynamic_type3app17h321db58372f4d021E+0x116>
   21c0c:	2103      	movs	r1, #3
   21c0e:	4628      	mov	r0, r5
   21c10:	e04f      	b.n	21cb2 <_ZN20complex_dynamic_type3app17h321db58372f4d021E+0x112>
   21c12:	a812      	add	r0, sp, #72	@ 0x48
   21c14:	7800      	ldrb	r0, [r0, #0]
   21c16:	2802      	cmp	r0, #2
   21c18:	d10f      	bne.n	21c3a <_ZN20complex_dynamic_type3app17h321db58372f4d021E+0x9a>
   21c1a:	2203      	movs	r2, #3
   21c1c:	9804      	ldr	r0, [sp, #16]
   21c1e:	9000      	str	r0, [sp, #0]
   21c20:	9201      	str	r2, [sp, #4]
   21c22:	a81d      	add	r0, sp, #116	@ 0x74
   21c24:	4629      	mov	r1, r5
   21c26:	4615      	mov	r5, r2
   21c28:	9b06      	ldr	r3, [sp, #24]
   21c2a:	f009 fb36 	bl	2b29a <_ZN9allow_pin13dynamic_allow17h33d41317a2da4f1cE>
   21c2e:	981d      	ldr	r0, [sp, #116]	@ 0x74
   21c30:	2802      	cmp	r0, #2
   21c32:	d107      	bne.n	21c44 <_ZN20complex_dynamic_type3app17h321db58372f4d021E+0xa4>
   21c34:	991e      	ldr	r1, [sp, #120]	@ 0x78
   21c36:	4634      	mov	r4, r6
   21c38:	e006      	b.n	21c48 <_ZN20complex_dynamic_type3app17h321db58372f4d021E+0xa8>
   21c3a:	2103      	movs	r1, #3
   21c3c:	4634      	mov	r4, r6
   21c3e:	2c00      	cmp	r4, #0
   21c40:	d1d9      	bne.n	21bf6 <_ZN20complex_dynamic_type3app17h321db58372f4d021E+0x56>
   21c42:	e004      	b.n	21c4e <_ZN20complex_dynamic_type3app17h321db58372f4d021E+0xae>
   21c44:	a812      	add	r0, sp, #72	@ 0x48
   21c46:	7005      	strb	r5, [r0, #0]
   21c48:	4d20      	ldr	r5, [pc, #128]	@ (21ccc <_ZN20complex_dynamic_type3app17h321db58372f4d021E+0x12c>)
   21c4a:	2c00      	cmp	r4, #0
   21c4c:	d1d3      	bne.n	21bf6 <_ZN20complex_dynamic_type3app17h321db58372f4d021E+0x56>
   21c4e:	481f      	ldr	r0, [pc, #124]	@ (21ccc <_ZN20complex_dynamic_type3app17h321db58372f4d021E+0x12c>)
   21c50:	2203      	movs	r2, #3
   21c52:	2400      	movs	r4, #0
   21c54:	4621      	mov	r1, r4
   21c56:	4623      	mov	r3, r4
   21c58:	df02      	svc	2
   21c5a:	287f      	cmp	r0, #127	@ 0x7f
   21c5c:	d9cb      	bls.n	21bf6 <_ZN20complex_dynamic_type3app17h321db58372f4d021E+0x56>
   21c5e:	a808      	add	r0, sp, #32
   21c60:	7802      	ldrb	r2, [r0, #0]
   21c62:	2a02      	cmp	r2, #2
   21c64:	d003      	beq.n	21c6e <_ZN20complex_dynamic_type3app17h321db58372f4d021E+0xce>
   21c66:	2100      	movs	r1, #0
   21c68:	4628      	mov	r0, r5
   21c6a:	f009 fb09 	bl	2b280 <_ZN9allow_pin12dynamic_type7unshare17hefa7cd45f9379b26E>
   21c6e:	a808      	add	r0, sp, #32
   21c70:	9e03      	ldr	r6, [sp, #12]
   21c72:	7006      	strb	r6, [r0, #0]
   21c74:	a812      	add	r0, sp, #72	@ 0x48
   21c76:	7802      	ldrb	r2, [r0, #0]
   21c78:	2a02      	cmp	r2, #2
   21c7a:	d003      	beq.n	21c84 <_ZN20complex_dynamic_type3app17h321db58372f4d021E+0xe4>
   21c7c:	2103      	movs	r1, #3
   21c7e:	4628      	mov	r0, r5
   21c80:	f009 fafe 	bl	2b280 <_ZN9allow_pin12dynamic_type7unshare17hefa7cd45f9379b26E>
   21c84:	a812      	add	r0, sp, #72	@ 0x48
   21c86:	7006      	strb	r6, [r0, #0]
   21c88:	2c00      	cmp	r4, #0
   21c8a:	d1b7      	bne.n	21bfc <_ZN20complex_dynamic_type3app17h321db58372f4d021E+0x5c>
   21c8c:	a812      	add	r0, sp, #72	@ 0x48
   21c8e:	7804      	ldrb	r4, [r0, #0]
   21c90:	2c02      	cmp	r4, #2
   21c92:	d001      	beq.n	21c98 <_ZN20complex_dynamic_type3app17h321db58372f4d021E+0xf8>
   21c94:	480e      	ldr	r0, [pc, #56]	@ (21cd0 <_ZN20complex_dynamic_type3app17h321db58372f4d021E+0x130>)
   21c96:	9006      	str	r0, [sp, #24]
   21c98:	9e07      	ldr	r6, [sp, #28]
   21c9a:	1c70      	adds	r0, r6, #1
   21c9c:	222a      	movs	r2, #42	@ 0x2a
   21c9e:	9906      	ldr	r1, [sp, #24]
   21ca0:	f009 fcd3 	bl	2b64a <__aeabi_memcpy>
   21ca4:	2000      	movs	r0, #0
   21ca6:	2c02      	cmp	r4, #2
   21ca8:	7030      	strb	r0, [r6, #0]
   21caa:	d004      	beq.n	21cb6 <_ZN20complex_dynamic_type3app17h321db58372f4d021E+0x116>
   21cac:	2103      	movs	r1, #3
   21cae:	4628      	mov	r0, r5
   21cb0:	4622      	mov	r2, r4
   21cb2:	f009 fae5 	bl	2b280 <_ZN9allow_pin12dynamic_type7unshare17hefa7cd45f9379b26E>
   21cb6:	a808      	add	r0, sp, #32
   21cb8:	7802      	ldrb	r2, [r0, #0]
   21cba:	2a02      	cmp	r2, #2
   21cbc:	d003      	beq.n	21cc6 <_ZN20complex_dynamic_type3app17h321db58372f4d021E+0x126>
   21cbe:	2100      	movs	r1, #0
   21cc0:	4628      	mov	r0, r5
   21cc2:	f009 fadd 	bl	2b280 <_ZN9allow_pin12dynamic_type7unshare17hefa7cd45f9379b26E>
   21cc6:	b021      	add	sp, #132	@ 0x84
   21cc8:	bdf0      	pop	{r4, r5, r6, r7, pc}
   21cca:	46c0      	nop			@ (mov r8, r8)
   21ccc:	0000093c 	.word	0x0000093c
   21cd0:	000100e4 	.word	0x000100e4

00021cd4 <_ZN20complex_dynamic_type3app17h331250f970233509E>:
   21cd4:	b5f0      	push	{r4, r5, r6, r7, lr}
   21cd6:	af03      	add	r7, sp, #12
   21cd8:	b099      	sub	sp, #100	@ 0x64
   21cda:	9007      	str	r0, [sp, #28]
   21cdc:	a808      	add	r0, sp, #32
   21cde:	2502      	movs	r5, #2
   21ce0:	7005      	strb	r5, [r0, #0]
   21ce2:	1c40      	adds	r0, r0, #1
   21ce4:	9005      	str	r0, [sp, #20]
   21ce6:	260d      	movs	r6, #13
   21ce8:	4632      	mov	r2, r6
   21cea:	f009 fcae 	bl	2b64a <__aeabi_memcpy>
   21cee:	ac0c      	add	r4, sp, #48	@ 0x30
   21cf0:	1c60      	adds	r0, r4, #1
   21cf2:	2121      	movs	r1, #33	@ 0x21
   21cf4:	9006      	str	r0, [sp, #24]
   21cf6:	9103      	str	r1, [sp, #12]
   21cf8:	f009 fae7 	bl	2b2ca <__aeabi_memclr>
   21cfc:	9502      	str	r5, [sp, #8]
   21cfe:	7025      	strb	r5, [r4, #0]
   21d00:	2404      	movs	r4, #4
   21d02:	9600      	str	r6, [sp, #0]
   21d04:	9401      	str	r4, [sp, #4]
   21d06:	a815      	add	r0, sp, #84	@ 0x54
   21d08:	4e3d      	ldr	r6, [pc, #244]	@ (21e00 <_ZN20complex_dynamic_type3app17h331250f970233509E+0x12c>)
   21d0a:	2200      	movs	r2, #0
   21d0c:	4631      	mov	r1, r6
   21d0e:	9204      	str	r2, [sp, #16]
   21d10:	9b05      	ldr	r3, [sp, #20]
   21d12:	f009 fac2 	bl	2b29a <_ZN9allow_pin13dynamic_allow17h33d41317a2da4f1cE>
   21d16:	9815      	ldr	r0, [sp, #84]	@ 0x54
   21d18:	2802      	cmp	r0, #2
   21d1a:	d101      	bne.n	21d20 <_ZN20complex_dynamic_type3app17h331250f970233509E+0x4c>
   21d1c:	9916      	ldr	r1, [sp, #88]	@ 0x58
   21d1e:	e001      	b.n	21d24 <_ZN20complex_dynamic_type3app17h331250f970233509E+0x50>
   21d20:	a908      	add	r1, sp, #32
   21d22:	700c      	strb	r4, [r1, #0]
   21d24:	2501      	movs	r5, #1
   21d26:	2802      	cmp	r0, #2
   21d28:	d10d      	bne.n	21d46 <_ZN20complex_dynamic_type3app17h331250f970233509E+0x72>
   21d2a:	462c      	mov	r4, r5
   21d2c:	2c00      	cmp	r4, #0
   21d2e:	d048      	beq.n	21dc2 <_ZN20complex_dynamic_type3app17h331250f970233509E+0xee>
   21d30:	2001      	movs	r0, #1
   21d32:	9a07      	ldr	r2, [sp, #28]
   21d34:	7010      	strb	r0, [r2, #0]
   21d36:	6051      	str	r1, [r2, #4]
   21d38:	a80c      	add	r0, sp, #48	@ 0x30
   21d3a:	7802      	ldrb	r2, [r0, #0]
   21d3c:	2a02      	cmp	r2, #2
   21d3e:	d055      	beq.n	21dec <_ZN20complex_dynamic_type3app17h331250f970233509E+0x118>
   21d40:	2100      	movs	r1, #0
   21d42:	4630      	mov	r0, r6
   21d44:	e050      	b.n	21de8 <_ZN20complex_dynamic_type3app17h331250f970233509E+0x114>
   21d46:	a80c      	add	r0, sp, #48	@ 0x30
   21d48:	7800      	ldrb	r0, [r0, #0]
   21d4a:	2802      	cmp	r0, #2
   21d4c:	d110      	bne.n	21d70 <_ZN20complex_dynamic_type3app17h331250f970233509E+0x9c>
   21d4e:	4631      	mov	r1, r6
   21d50:	2603      	movs	r6, #3
   21d52:	9803      	ldr	r0, [sp, #12]
   21d54:	9000      	str	r0, [sp, #0]
   21d56:	9601      	str	r6, [sp, #4]
   21d58:	a815      	add	r0, sp, #84	@ 0x54
   21d5a:	2400      	movs	r4, #0
   21d5c:	4622      	mov	r2, r4
   21d5e:	9b06      	ldr	r3, [sp, #24]
   21d60:	f009 fa9b 	bl	2b29a <_ZN9allow_pin13dynamic_allow17h33d41317a2da4f1cE>
   21d64:	9815      	ldr	r0, [sp, #84]	@ 0x54
   21d66:	2802      	cmp	r0, #2
   21d68:	d107      	bne.n	21d7a <_ZN20complex_dynamic_type3app17h331250f970233509E+0xa6>
   21d6a:	9916      	ldr	r1, [sp, #88]	@ 0x58
   21d6c:	462c      	mov	r4, r5
   21d6e:	e006      	b.n	21d7e <_ZN20complex_dynamic_type3app17h331250f970233509E+0xaa>
   21d70:	2103      	movs	r1, #3
   21d72:	462c      	mov	r4, r5
   21d74:	2c00      	cmp	r4, #0
   21d76:	d1d8      	bne.n	21d2a <_ZN20complex_dynamic_type3app17h331250f970233509E+0x56>
   21d78:	e004      	b.n	21d84 <_ZN20complex_dynamic_type3app17h331250f970233509E+0xb0>
   21d7a:	a80c      	add	r0, sp, #48	@ 0x30
   21d7c:	7006      	strb	r6, [r0, #0]
   21d7e:	4e20      	ldr	r6, [pc, #128]	@ (21e00 <_ZN20complex_dynamic_type3app17h331250f970233509E+0x12c>)
   21d80:	2c00      	cmp	r4, #0
   21d82:	d1d2      	bne.n	21d2a <_ZN20complex_dynamic_type3app17h331250f970233509E+0x56>
   21d84:	481e      	ldr	r0, [pc, #120]	@ (21e00 <_ZN20complex_dynamic_type3app17h331250f970233509E+0x12c>)
   21d86:	2400      	movs	r4, #0
   21d88:	4621      	mov	r1, r4
   21d8a:	4622      	mov	r2, r4
   21d8c:	4623      	mov	r3, r4
   21d8e:	df02      	svc	2
   21d90:	287f      	cmp	r0, #127	@ 0x7f
   21d92:	d9ca      	bls.n	21d2a <_ZN20complex_dynamic_type3app17h331250f970233509E+0x56>
   21d94:	a808      	add	r0, sp, #32
   21d96:	7802      	ldrb	r2, [r0, #0]
   21d98:	2a02      	cmp	r2, #2
   21d9a:	d003      	beq.n	21da4 <_ZN20complex_dynamic_type3app17h331250f970233509E+0xd0>
   21d9c:	2100      	movs	r1, #0
   21d9e:	4630      	mov	r0, r6
   21da0:	f009 fa6e 	bl	2b280 <_ZN9allow_pin12dynamic_type7unshare17hefa7cd45f9379b26E>
   21da4:	a808      	add	r0, sp, #32
   21da6:	9d02      	ldr	r5, [sp, #8]
   21da8:	7005      	strb	r5, [r0, #0]
   21daa:	a80c      	add	r0, sp, #48	@ 0x30
   21dac:	7802      	ldrb	r2, [r0, #0]
   21dae:	2a02      	cmp	r2, #2
   21db0:	d003      	beq.n	21dba <_ZN20complex_dynamic_type3app17h331250f970233509E+0xe6>
   21db2:	2100      	movs	r1, #0
   21db4:	4630      	mov	r0, r6
   21db6:	f009 fa63 	bl	2b280 <_ZN9allow_pin12dynamic_type7unshare17hefa7cd45f9379b26E>
   21dba:	a80c      	add	r0, sp, #48	@ 0x30
   21dbc:	7005      	strb	r5, [r0, #0]
   21dbe:	2c00      	cmp	r4, #0
   21dc0:	d1b6      	bne.n	21d30 <_ZN20complex_dynamic_type3app17h331250f970233509E+0x5c>
   21dc2:	a80c      	add	r0, sp, #48	@ 0x30
   21dc4:	7804      	ldrb	r4, [r0, #0]
   21dc6:	2c02      	cmp	r4, #2
   21dc8:	d001      	beq.n	21dce <_ZN20complex_dynamic_type3app17h331250f970233509E+0xfa>
   21dca:	480e      	ldr	r0, [pc, #56]	@ (21e04 <_ZN20complex_dynamic_type3app17h331250f970233509E+0x130>)
   21dcc:	9006      	str	r0, [sp, #24]
   21dce:	9d07      	ldr	r5, [sp, #28]
   21dd0:	1c68      	adds	r0, r5, #1
   21dd2:	2221      	movs	r2, #33	@ 0x21
   21dd4:	9906      	ldr	r1, [sp, #24]
   21dd6:	f009 fc38 	bl	2b64a <__aeabi_memcpy>
   21dda:	2c02      	cmp	r4, #2
   21ddc:	9804      	ldr	r0, [sp, #16]
   21dde:	7028      	strb	r0, [r5, #0]
   21de0:	d004      	beq.n	21dec <_ZN20complex_dynamic_type3app17h331250f970233509E+0x118>
   21de2:	2100      	movs	r1, #0
   21de4:	4630      	mov	r0, r6
   21de6:	4622      	mov	r2, r4
   21de8:	f009 fa4a 	bl	2b280 <_ZN9allow_pin12dynamic_type7unshare17hefa7cd45f9379b26E>
   21dec:	a808      	add	r0, sp, #32
   21dee:	7802      	ldrb	r2, [r0, #0]
   21df0:	2a02      	cmp	r2, #2
   21df2:	d003      	beq.n	21dfc <_ZN20complex_dynamic_type3app17h331250f970233509E+0x128>
   21df4:	2100      	movs	r1, #0
   21df6:	4630      	mov	r0, r6
   21df8:	f009 fa42 	bl	2b280 <_ZN9allow_pin12dynamic_type7unshare17hefa7cd45f9379b26E>
   21dfc:	b019      	add	sp, #100	@ 0x64
   21dfe:	bdf0      	pop	{r4, r5, r6, r7, pc}
   21e00:	000016b0 	.word	0x000016b0
   21e04:	000101e2 	.word	0x000101e2

00021e08 <_ZN20complex_dynamic_type3app17h358c1fb25c3eb884E>:
   21e08:	b5f0      	push	{r4, r5, r6, r7, lr}
   21e0a:	af03      	add	r7, sp, #12
   21e0c:	b0a3      	sub	sp, #140	@ 0x8c
   21e0e:	9006      	str	r0, [sp, #24]
   21e10:	a807      	add	r0, sp, #28
   21e12:	2402      	movs	r4, #2
   21e14:	7004      	strb	r4, [r0, #0]
   21e16:	1c40      	adds	r0, r0, #1
   21e18:	9004      	str	r0, [sp, #16]
   21e1a:	261b      	movs	r6, #27
   21e1c:	4632      	mov	r2, r6
   21e1e:	f009 fc14 	bl	2b64a <__aeabi_memcpy>
   21e22:	ad0e      	add	r5, sp, #56	@ 0x38
   21e24:	1c68      	adds	r0, r5, #1
   21e26:	2141      	movs	r1, #65	@ 0x41
   21e28:	9005      	str	r0, [sp, #20]
   21e2a:	9103      	str	r1, [sp, #12]
   21e2c:	f009 fa4d 	bl	2b2ca <__aeabi_memclr>
   21e30:	9402      	str	r4, [sp, #8]
   21e32:	702c      	strb	r4, [r5, #0]
   21e34:	2504      	movs	r5, #4
   21e36:	9600      	str	r6, [sp, #0]
   21e38:	9501      	str	r5, [sp, #4]
   21e3a:	2005      	movs	r0, #5
   21e3c:	0186      	lsls	r6, r0, #6
   21e3e:	a81f      	add	r0, sp, #124	@ 0x7c
   21e40:	2208      	movs	r2, #8
   21e42:	4631      	mov	r1, r6
   21e44:	9b04      	ldr	r3, [sp, #16]
   21e46:	f009 fa28 	bl	2b29a <_ZN9allow_pin13dynamic_allow17h33d41317a2da4f1cE>
   21e4a:	981f      	ldr	r0, [sp, #124]	@ 0x7c
   21e4c:	2802      	cmp	r0, #2
   21e4e:	d101      	bne.n	21e54 <_ZN20complex_dynamic_type3app17h358c1fb25c3eb884E+0x4c>
   21e50:	9920      	ldr	r1, [sp, #128]	@ 0x80
   21e52:	e001      	b.n	21e58 <_ZN20complex_dynamic_type3app17h358c1fb25c3eb884E+0x50>
   21e54:	a907      	add	r1, sp, #28
   21e56:	700d      	strb	r5, [r1, #0]
   21e58:	2401      	movs	r4, #1
   21e5a:	2802      	cmp	r0, #2
   21e5c:	d024      	beq.n	21ea8 <_ZN20complex_dynamic_type3app17h358c1fb25c3eb884E+0xa0>
   21e5e:	a80e      	add	r0, sp, #56	@ 0x38
   21e60:	7800      	ldrb	r0, [r0, #0]
   21e62:	2802      	cmp	r0, #2
   21e64:	d10e      	bne.n	21e84 <_ZN20complex_dynamic_type3app17h358c1fb25c3eb884E+0x7c>
   21e66:	2503      	movs	r5, #3
   21e68:	9803      	ldr	r0, [sp, #12]
   21e6a:	9000      	str	r0, [sp, #0]
   21e6c:	9501      	str	r5, [sp, #4]
   21e6e:	a81f      	add	r0, sp, #124	@ 0x7c
   21e70:	2209      	movs	r2, #9
   21e72:	4631      	mov	r1, r6
   21e74:	9b05      	ldr	r3, [sp, #20]
   21e76:	f009 fa10 	bl	2b29a <_ZN9allow_pin13dynamic_allow17h33d41317a2da4f1cE>
   21e7a:	981f      	ldr	r0, [sp, #124]	@ 0x7c
   21e7c:	2802      	cmp	r0, #2
   21e7e:	d106      	bne.n	21e8e <_ZN20complex_dynamic_type3app17h358c1fb25c3eb884E+0x86>
   21e80:	9920      	ldr	r1, [sp, #128]	@ 0x80
   21e82:	e000      	b.n	21e86 <_ZN20complex_dynamic_type3app17h358c1fb25c3eb884E+0x7e>
   21e84:	2103      	movs	r1, #3
   21e86:	4620      	mov	r0, r4
   21e88:	2800      	cmp	r0, #0
   21e8a:	d005      	beq.n	21e98 <_ZN20complex_dynamic_type3app17h358c1fb25c3eb884E+0x90>
   21e8c:	e00c      	b.n	21ea8 <_ZN20complex_dynamic_type3app17h358c1fb25c3eb884E+0xa0>
   21e8e:	a80e      	add	r0, sp, #56	@ 0x38
   21e90:	7005      	strb	r5, [r0, #0]
   21e92:	2000      	movs	r0, #0
   21e94:	2800      	cmp	r0, #0
   21e96:	d107      	bne.n	21ea8 <_ZN20complex_dynamic_type3app17h358c1fb25c3eb884E+0xa0>
   21e98:	2108      	movs	r1, #8
   21e9a:	2209      	movs	r2, #9
   21e9c:	2500      	movs	r5, #0
   21e9e:	4630      	mov	r0, r6
   21ea0:	462b      	mov	r3, r5
   21ea2:	df02      	svc	2
   21ea4:	287f      	cmp	r0, #127	@ 0x7f
   21ea6:	d80d      	bhi.n	21ec4 <_ZN20complex_dynamic_type3app17h358c1fb25c3eb884E+0xbc>
   21ea8:	4625      	mov	r5, r4
   21eaa:	2d00      	cmp	r5, #0
   21eac:	d021      	beq.n	21ef2 <_ZN20complex_dynamic_type3app17h358c1fb25c3eb884E+0xea>
   21eae:	2001      	movs	r0, #1
   21eb0:	9a06      	ldr	r2, [sp, #24]
   21eb2:	7010      	strb	r0, [r2, #0]
   21eb4:	6051      	str	r1, [r2, #4]
   21eb6:	a80e      	add	r0, sp, #56	@ 0x38
   21eb8:	7802      	ldrb	r2, [r0, #0]
   21eba:	2a02      	cmp	r2, #2
   21ebc:	d02e      	beq.n	21f1c <_ZN20complex_dynamic_type3app17h358c1fb25c3eb884E+0x114>
   21ebe:	2109      	movs	r1, #9
   21ec0:	4630      	mov	r0, r6
   21ec2:	e029      	b.n	21f18 <_ZN20complex_dynamic_type3app17h358c1fb25c3eb884E+0x110>
   21ec4:	a807      	add	r0, sp, #28
   21ec6:	7802      	ldrb	r2, [r0, #0]
   21ec8:	2a02      	cmp	r2, #2
   21eca:	d003      	beq.n	21ed4 <_ZN20complex_dynamic_type3app17h358c1fb25c3eb884E+0xcc>
   21ecc:	2108      	movs	r1, #8
   21ece:	4630      	mov	r0, r6
   21ed0:	f009 f9d6 	bl	2b280 <_ZN9allow_pin12dynamic_type7unshare17hefa7cd45f9379b26E>
   21ed4:	a807      	add	r0, sp, #28
   21ed6:	9c02      	ldr	r4, [sp, #8]
   21ed8:	7004      	strb	r4, [r0, #0]
   21eda:	a80e      	add	r0, sp, #56	@ 0x38
   21edc:	7802      	ldrb	r2, [r0, #0]
   21ede:	2a02      	cmp	r2, #2
   21ee0:	d003      	beq.n	21eea <_ZN20complex_dynamic_type3app17h358c1fb25c3eb884E+0xe2>
   21ee2:	2109      	movs	r1, #9
   21ee4:	4630      	mov	r0, r6
   21ee6:	f009 f9cb 	bl	2b280 <_ZN9allow_pin12dynamic_type7unshare17hefa7cd45f9379b26E>
   21eea:	a80e      	add	r0, sp, #56	@ 0x38
   21eec:	7004      	strb	r4, [r0, #0]
   21eee:	2d00      	cmp	r5, #0
   21ef0:	d1dd      	bne.n	21eae <_ZN20complex_dynamic_type3app17h358c1fb25c3eb884E+0xa6>
   21ef2:	a80e      	add	r0, sp, #56	@ 0x38
   21ef4:	7805      	ldrb	r5, [r0, #0]
   21ef6:	2d02      	cmp	r5, #2
   21ef8:	d001      	beq.n	21efe <_ZN20complex_dynamic_type3app17h358c1fb25c3eb884E+0xf6>
   21efa:	480d      	ldr	r0, [pc, #52]	@ (21f30 <_ZN20complex_dynamic_type3app17h358c1fb25c3eb884E+0x128>)
   21efc:	9005      	str	r0, [sp, #20]
   21efe:	9c06      	ldr	r4, [sp, #24]
   21f00:	1c60      	adds	r0, r4, #1
   21f02:	2241      	movs	r2, #65	@ 0x41
   21f04:	9905      	ldr	r1, [sp, #20]
   21f06:	f009 fba0 	bl	2b64a <__aeabi_memcpy>
   21f0a:	2000      	movs	r0, #0
   21f0c:	2d02      	cmp	r5, #2
   21f0e:	7020      	strb	r0, [r4, #0]
   21f10:	d004      	beq.n	21f1c <_ZN20complex_dynamic_type3app17h358c1fb25c3eb884E+0x114>
   21f12:	2109      	movs	r1, #9
   21f14:	4630      	mov	r0, r6
   21f16:	462a      	mov	r2, r5
   21f18:	f009 f9b2 	bl	2b280 <_ZN9allow_pin12dynamic_type7unshare17hefa7cd45f9379b26E>
   21f1c:	a807      	add	r0, sp, #28
   21f1e:	7802      	ldrb	r2, [r0, #0]
   21f20:	2a02      	cmp	r2, #2
   21f22:	d003      	beq.n	21f2c <_ZN20complex_dynamic_type3app17h358c1fb25c3eb884E+0x124>
   21f24:	2108      	movs	r1, #8
   21f26:	4630      	mov	r0, r6
   21f28:	f009 f9aa 	bl	2b280 <_ZN9allow_pin12dynamic_type7unshare17hefa7cd45f9379b26E>
   21f2c:	b023      	add	sp, #140	@ 0x8c
   21f2e:	bdf0      	pop	{r4, r5, r6, r7, pc}
   21f30:	000103d8 	.word	0x000103d8

00021f34 <_ZN20complex_dynamic_type3app17h3a77554497741b9bE>:
   21f34:	b5f0      	push	{r4, r5, r6, r7, lr}
   21f36:	af03      	add	r7, sp, #12
   21f38:	b0a5      	sub	sp, #148	@ 0x94
   21f3a:	9006      	str	r0, [sp, #24]
   21f3c:	a807      	add	r0, sp, #28
   21f3e:	2602      	movs	r6, #2
   21f40:	7006      	strb	r6, [r0, #0]
   21f42:	1c40      	adds	r0, r0, #1
   21f44:	9004      	str	r0, [sp, #16]
   21f46:	2541      	movs	r5, #65	@ 0x41
   21f48:	462a      	mov	r2, r5
   21f4a:	f009 fb7e 	bl	2b64a <__aeabi_memcpy>
   21f4e:	ac18      	add	r4, sp, #96	@ 0x60
   21f50:	1c60      	adds	r0, r4, #1
   21f52:	2122      	movs	r1, #34	@ 0x22
   21f54:	9005      	str	r0, [sp, #20]
   21f56:	9103      	str	r1, [sp, #12]
   21f58:	f009 f9b7 	bl	2b2ca <__aeabi_memclr>
   21f5c:	9602      	str	r6, [sp, #8]
   21f5e:	7026      	strb	r6, [r4, #0]
   21f60:	2404      	movs	r4, #4
   21f62:	9500      	str	r5, [sp, #0]
   21f64:	9401      	str	r4, [sp, #4]
   21f66:	a821      	add	r0, sp, #132	@ 0x84
   21f68:	493c      	ldr	r1, [pc, #240]	@ (2205c <_ZN20complex_dynamic_type3app17h3a77554497741b9bE+0x128>)
   21f6a:	2501      	movs	r5, #1
   21f6c:	462a      	mov	r2, r5
   21f6e:	9b04      	ldr	r3, [sp, #16]
   21f70:	f009 f993 	bl	2b29a <_ZN9allow_pin13dynamic_allow17h33d41317a2da4f1cE>
   21f74:	9821      	ldr	r0, [sp, #132]	@ 0x84
   21f76:	2802      	cmp	r0, #2
   21f78:	d103      	bne.n	21f82 <_ZN20complex_dynamic_type3app17h3a77554497741b9bE+0x4e>
   21f7a:	9922      	ldr	r1, [sp, #136]	@ 0x88
   21f7c:	2802      	cmp	r0, #2
   21f7e:	d029      	beq.n	21fd4 <_ZN20complex_dynamic_type3app17h3a77554497741b9bE+0xa0>
   21f80:	e003      	b.n	21f8a <_ZN20complex_dynamic_type3app17h3a77554497741b9bE+0x56>
   21f82:	a907      	add	r1, sp, #28
   21f84:	700c      	strb	r4, [r1, #0]
   21f86:	2802      	cmp	r0, #2
   21f88:	d024      	beq.n	21fd4 <_ZN20complex_dynamic_type3app17h3a77554497741b9bE+0xa0>
   21f8a:	a818      	add	r0, sp, #96	@ 0x60
   21f8c:	7800      	ldrb	r0, [r0, #0]
   21f8e:	2802      	cmp	r0, #2
   21f90:	d10f      	bne.n	21fb2 <_ZN20complex_dynamic_type3app17h3a77554497741b9bE+0x7e>
   21f92:	2603      	movs	r6, #3
   21f94:	9803      	ldr	r0, [sp, #12]
   21f96:	9000      	str	r0, [sp, #0]
   21f98:	9601      	str	r6, [sp, #4]
   21f9a:	a821      	add	r0, sp, #132	@ 0x84
   21f9c:	2400      	movs	r4, #0
   21f9e:	492f      	ldr	r1, [pc, #188]	@ (2205c <_ZN20complex_dynamic_type3app17h3a77554497741b9bE+0x128>)
   21fa0:	4622      	mov	r2, r4
   21fa2:	9b05      	ldr	r3, [sp, #20]
   21fa4:	f009 f979 	bl	2b29a <_ZN9allow_pin13dynamic_allow17h33d41317a2da4f1cE>
   21fa8:	9821      	ldr	r0, [sp, #132]	@ 0x84
   21faa:	2802      	cmp	r0, #2
   21fac:	d106      	bne.n	21fbc <_ZN20complex_dynamic_type3app17h3a77554497741b9bE+0x88>
   21fae:	9922      	ldr	r1, [sp, #136]	@ 0x88
   21fb0:	e000      	b.n	21fb4 <_ZN20complex_dynamic_type3app17h3a77554497741b9bE+0x80>
   21fb2:	2103      	movs	r1, #3
   21fb4:	462c      	mov	r4, r5
   21fb6:	2c00      	cmp	r4, #0
   21fb8:	d004      	beq.n	21fc4 <_ZN20complex_dynamic_type3app17h3a77554497741b9bE+0x90>
   21fba:	e00b      	b.n	21fd4 <_ZN20complex_dynamic_type3app17h3a77554497741b9bE+0xa0>
   21fbc:	a818      	add	r0, sp, #96	@ 0x60
   21fbe:	7006      	strb	r6, [r0, #0]
   21fc0:	2c00      	cmp	r4, #0
   21fc2:	d107      	bne.n	21fd4 <_ZN20complex_dynamic_type3app17h3a77554497741b9bE+0xa0>
   21fc4:	4825      	ldr	r0, [pc, #148]	@ (2205c <_ZN20complex_dynamic_type3app17h3a77554497741b9bE+0x128>)
   21fc6:	2101      	movs	r1, #1
   21fc8:	2400      	movs	r4, #0
   21fca:	4622      	mov	r2, r4
   21fcc:	4623      	mov	r3, r4
   21fce:	df02      	svc	2
   21fd0:	287f      	cmp	r0, #127	@ 0x7f
   21fd2:	d80d      	bhi.n	21ff0 <_ZN20complex_dynamic_type3app17h3a77554497741b9bE+0xbc>
   21fd4:	462c      	mov	r4, r5
   21fd6:	2c00      	cmp	r4, #0
   21fd8:	d021      	beq.n	2201e <_ZN20complex_dynamic_type3app17h3a77554497741b9bE+0xea>
   21fda:	2001      	movs	r0, #1
   21fdc:	9a06      	ldr	r2, [sp, #24]
   21fde:	7010      	strb	r0, [r2, #0]
   21fe0:	6051      	str	r1, [r2, #4]
   21fe2:	a818      	add	r0, sp, #96	@ 0x60
   21fe4:	7802      	ldrb	r2, [r0, #0]
   21fe6:	2a02      	cmp	r2, #2
   21fe8:	d02e      	beq.n	22048 <_ZN20complex_dynamic_type3app17h3a77554497741b9bE+0x114>
   21fea:	2100      	movs	r1, #0
   21fec:	481b      	ldr	r0, [pc, #108]	@ (2205c <_ZN20complex_dynamic_type3app17h3a77554497741b9bE+0x128>)
   21fee:	e029      	b.n	22044 <_ZN20complex_dynamic_type3app17h3a77554497741b9bE+0x110>
   21ff0:	a807      	add	r0, sp, #28
   21ff2:	7802      	ldrb	r2, [r0, #0]
   21ff4:	2a02      	cmp	r2, #2
   21ff6:	d003      	beq.n	22000 <_ZN20complex_dynamic_type3app17h3a77554497741b9bE+0xcc>
   21ff8:	2101      	movs	r1, #1
   21ffa:	4818      	ldr	r0, [pc, #96]	@ (2205c <_ZN20complex_dynamic_type3app17h3a77554497741b9bE+0x128>)
   21ffc:	f009 f940 	bl	2b280 <_ZN9allow_pin12dynamic_type7unshare17hefa7cd45f9379b26E>
   22000:	a807      	add	r0, sp, #28
   22002:	9d02      	ldr	r5, [sp, #8]
   22004:	7005      	strb	r5, [r0, #0]
   22006:	a818      	add	r0, sp, #96	@ 0x60
   22008:	7802      	ldrb	r2, [r0, #0]
   2200a:	2a02      	cmp	r2, #2
   2200c:	d003      	beq.n	22016 <_ZN20complex_dynamic_type3app17h3a77554497741b9bE+0xe2>
   2200e:	2100      	movs	r1, #0
   22010:	4812      	ldr	r0, [pc, #72]	@ (2205c <_ZN20complex_dynamic_type3app17h3a77554497741b9bE+0x128>)
   22012:	f009 f935 	bl	2b280 <_ZN9allow_pin12dynamic_type7unshare17hefa7cd45f9379b26E>
   22016:	a818      	add	r0, sp, #96	@ 0x60
   22018:	7005      	strb	r5, [r0, #0]
   2201a:	2c00      	cmp	r4, #0
   2201c:	d1dd      	bne.n	21fda <_ZN20complex_dynamic_type3app17h3a77554497741b9bE+0xa6>
   2201e:	a818      	add	r0, sp, #96	@ 0x60
   22020:	7804      	ldrb	r4, [r0, #0]
   22022:	2c02      	cmp	r4, #2
   22024:	d001      	beq.n	2202a <_ZN20complex_dynamic_type3app17h3a77554497741b9bE+0xf6>
   22026:	480e      	ldr	r0, [pc, #56]	@ (22060 <_ZN20complex_dynamic_type3app17h3a77554497741b9bE+0x12c>)
   22028:	9005      	str	r0, [sp, #20]
   2202a:	9d06      	ldr	r5, [sp, #24]
   2202c:	1c68      	adds	r0, r5, #1
   2202e:	2222      	movs	r2, #34	@ 0x22
   22030:	9905      	ldr	r1, [sp, #20]
   22032:	f009 fb0a 	bl	2b64a <__aeabi_memcpy>
   22036:	2000      	movs	r0, #0
   22038:	2c02      	cmp	r4, #2
   2203a:	7028      	strb	r0, [r5, #0]
   2203c:	d004      	beq.n	22048 <_ZN20complex_dynamic_type3app17h3a77554497741b9bE+0x114>
   2203e:	2100      	movs	r1, #0
   22040:	4806      	ldr	r0, [pc, #24]	@ (2205c <_ZN20complex_dynamic_type3app17h3a77554497741b9bE+0x128>)
   22042:	4622      	mov	r2, r4
   22044:	f009 f91c 	bl	2b280 <_ZN9allow_pin12dynamic_type7unshare17hefa7cd45f9379b26E>
   22048:	a807      	add	r0, sp, #28
   2204a:	7802      	ldrb	r2, [r0, #0]
   2204c:	2a02      	cmp	r2, #2
   2204e:	d003      	beq.n	22058 <_ZN20complex_dynamic_type3app17h3a77554497741b9bE+0x124>
   22050:	2101      	movs	r1, #1
   22052:	4802      	ldr	r0, [pc, #8]	@ (2205c <_ZN20complex_dynamic_type3app17h3a77554497741b9bE+0x128>)
   22054:	f009 f914 	bl	2b280 <_ZN9allow_pin12dynamic_type7unshare17hefa7cd45f9379b26E>
   22058:	b025      	add	sp, #148	@ 0x94
   2205a:	bdf0      	pop	{r4, r5, r6, r7, pc}
   2205c:	0000247c 	.word	0x0000247c
   22060:	000106f8 	.word	0x000106f8

00022064 <_ZN20complex_dynamic_type3app17h3ad0b530d87c77ecE>:
   22064:	b5f0      	push	{r4, r5, r6, r7, lr}
   22066:	af03      	add	r7, sp, #12
   22068:	b0b3      	sub	sp, #204	@ 0xcc
   2206a:	9005      	str	r0, [sp, #20]
   2206c:	a806      	add	r0, sp, #24
   2206e:	2502      	movs	r5, #2
   22070:	7005      	strb	r5, [r0, #0]
   22072:	1c40      	adds	r0, r0, #1
   22074:	9003      	str	r0, [sp, #12]
   22076:	2451      	movs	r4, #81	@ 0x51
   22078:	4622      	mov	r2, r4
   2207a:	f009 fae6 	bl	2b64a <__aeabi_memcpy>
   2207e:	ae1b      	add	r6, sp, #108	@ 0x6c
   22080:	1c70      	adds	r0, r6, #1
   22082:	214f      	movs	r1, #79	@ 0x4f
   22084:	9004      	str	r0, [sp, #16]
   22086:	9102      	str	r1, [sp, #8]
   22088:	f009 f91f 	bl	2b2ca <__aeabi_memclr>
   2208c:	7035      	strb	r5, [r6, #0]
   2208e:	2004      	movs	r0, #4
   22090:	9400      	str	r4, [sp, #0]
   22092:	4604      	mov	r4, r0
   22094:	9001      	str	r0, [sp, #4]
   22096:	a82f      	add	r0, sp, #188	@ 0xbc
   22098:	4e3d      	ldr	r6, [pc, #244]	@ (22190 <_ZN20complex_dynamic_type3app17h3ad0b530d87c77ecE+0x12c>)
   2209a:	4631      	mov	r1, r6
   2209c:	462a      	mov	r2, r5
   2209e:	9b03      	ldr	r3, [sp, #12]
   220a0:	f009 f8fb 	bl	2b29a <_ZN9allow_pin13dynamic_allow17h33d41317a2da4f1cE>
   220a4:	982f      	ldr	r0, [sp, #188]	@ 0xbc
   220a6:	2802      	cmp	r0, #2
   220a8:	d101      	bne.n	220ae <_ZN20complex_dynamic_type3app17h3ad0b530d87c77ecE+0x4a>
   220aa:	9930      	ldr	r1, [sp, #192]	@ 0xc0
   220ac:	e001      	b.n	220b2 <_ZN20complex_dynamic_type3app17h3ad0b530d87c77ecE+0x4e>
   220ae:	a906      	add	r1, sp, #24
   220b0:	700c      	strb	r4, [r1, #0]
   220b2:	2501      	movs	r5, #1
   220b4:	2802      	cmp	r0, #2
   220b6:	d016      	beq.n	220e6 <_ZN20complex_dynamic_type3app17h3ad0b530d87c77ecE+0x82>
   220b8:	a81b      	add	r0, sp, #108	@ 0x6c
   220ba:	7800      	ldrb	r0, [r0, #0]
   220bc:	2802      	cmp	r0, #2
   220be:	d10e      	bne.n	220de <_ZN20complex_dynamic_type3app17h3ad0b530d87c77ecE+0x7a>
   220c0:	2403      	movs	r4, #3
   220c2:	9802      	ldr	r0, [sp, #8]
   220c4:	9000      	str	r0, [sp, #0]
   220c6:	9401      	str	r4, [sp, #4]
   220c8:	a82f      	add	r0, sp, #188	@ 0xbc
   220ca:	2204      	movs	r2, #4
   220cc:	4631      	mov	r1, r6
   220ce:	9b04      	ldr	r3, [sp, #16]
   220d0:	f009 f8e3 	bl	2b29a <_ZN9allow_pin13dynamic_allow17h33d41317a2da4f1cE>
   220d4:	982f      	ldr	r0, [sp, #188]	@ 0xbc
   220d6:	2802      	cmp	r0, #2
   220d8:	d113      	bne.n	22102 <_ZN20complex_dynamic_type3app17h3ad0b530d87c77ecE+0x9e>
   220da:	9930      	ldr	r1, [sp, #192]	@ 0xc0
   220dc:	e000      	b.n	220e0 <_ZN20complex_dynamic_type3app17h3ad0b530d87c77ecE+0x7c>
   220de:	2103      	movs	r1, #3
   220e0:	4628      	mov	r0, r5
   220e2:	2800      	cmp	r0, #0
   220e4:	d012      	beq.n	2210c <_ZN20complex_dynamic_type3app17h3ad0b530d87c77ecE+0xa8>
   220e6:	462c      	mov	r4, r5
   220e8:	2c00      	cmp	r4, #0
   220ea:	d031      	beq.n	22150 <_ZN20complex_dynamic_type3app17h3ad0b530d87c77ecE+0xec>
   220ec:	2001      	movs	r0, #1
   220ee:	9a05      	ldr	r2, [sp, #20]
   220f0:	7010      	strb	r0, [r2, #0]
   220f2:	6051      	str	r1, [r2, #4]
   220f4:	a81b      	add	r0, sp, #108	@ 0x6c
   220f6:	7802      	ldrb	r2, [r0, #0]
   220f8:	2a02      	cmp	r2, #2
   220fa:	d03e      	beq.n	2217a <_ZN20complex_dynamic_type3app17h3ad0b530d87c77ecE+0x116>
   220fc:	2104      	movs	r1, #4
   220fe:	4630      	mov	r0, r6
   22100:	e039      	b.n	22176 <_ZN20complex_dynamic_type3app17h3ad0b530d87c77ecE+0x112>
   22102:	a81b      	add	r0, sp, #108	@ 0x6c
   22104:	7004      	strb	r4, [r0, #0]
   22106:	2000      	movs	r0, #0
   22108:	2800      	cmp	r0, #0
   2210a:	d1ec      	bne.n	220e6 <_ZN20complex_dynamic_type3app17h3ad0b530d87c77ecE+0x82>
   2210c:	4820      	ldr	r0, [pc, #128]	@ (22190 <_ZN20complex_dynamic_type3app17h3ad0b530d87c77ecE+0x12c>)
   2210e:	2102      	movs	r1, #2
   22110:	2204      	movs	r2, #4
   22112:	2400      	movs	r4, #0
   22114:	460e      	mov	r6, r1
   22116:	4623      	mov	r3, r4
   22118:	df02      	svc	2
   2211a:	287f      	cmp	r0, #127	@ 0x7f
   2211c:	d801      	bhi.n	22122 <_ZN20complex_dynamic_type3app17h3ad0b530d87c77ecE+0xbe>
   2211e:	462c      	mov	r4, r5
   22120:	e013      	b.n	2214a <_ZN20complex_dynamic_type3app17h3ad0b530d87c77ecE+0xe6>
   22122:	a806      	add	r0, sp, #24
   22124:	7802      	ldrb	r2, [r0, #0]
   22126:	2a02      	cmp	r2, #2
   22128:	d003      	beq.n	22132 <_ZN20complex_dynamic_type3app17h3ad0b530d87c77ecE+0xce>
   2212a:	2102      	movs	r1, #2
   2212c:	4818      	ldr	r0, [pc, #96]	@ (22190 <_ZN20complex_dynamic_type3app17h3ad0b530d87c77ecE+0x12c>)
   2212e:	f009 f8a7 	bl	2b280 <_ZN9allow_pin12dynamic_type7unshare17hefa7cd45f9379b26E>
   22132:	a806      	add	r0, sp, #24
   22134:	7006      	strb	r6, [r0, #0]
   22136:	a81b      	add	r0, sp, #108	@ 0x6c
   22138:	7802      	ldrb	r2, [r0, #0]
   2213a:	2a02      	cmp	r2, #2
   2213c:	d003      	beq.n	22146 <_ZN20complex_dynamic_type3app17h3ad0b530d87c77ecE+0xe2>
   2213e:	2104      	movs	r1, #4
   22140:	4813      	ldr	r0, [pc, #76]	@ (22190 <_ZN20complex_dynamic_type3app17h3ad0b530d87c77ecE+0x12c>)
   22142:	f009 f89d 	bl	2b280 <_ZN9allow_pin12dynamic_type7unshare17hefa7cd45f9379b26E>
   22146:	a81b      	add	r0, sp, #108	@ 0x6c
   22148:	7006      	strb	r6, [r0, #0]
   2214a:	4e11      	ldr	r6, [pc, #68]	@ (22190 <_ZN20complex_dynamic_type3app17h3ad0b530d87c77ecE+0x12c>)
   2214c:	2c00      	cmp	r4, #0
   2214e:	d1cd      	bne.n	220ec <_ZN20complex_dynamic_type3app17h3ad0b530d87c77ecE+0x88>
   22150:	a81b      	add	r0, sp, #108	@ 0x6c
   22152:	7804      	ldrb	r4, [r0, #0]
   22154:	2c02      	cmp	r4, #2
   22156:	d001      	beq.n	2215c <_ZN20complex_dynamic_type3app17h3ad0b530d87c77ecE+0xf8>
   22158:	480e      	ldr	r0, [pc, #56]	@ (22194 <_ZN20complex_dynamic_type3app17h3ad0b530d87c77ecE+0x130>)
   2215a:	9004      	str	r0, [sp, #16]
   2215c:	9d05      	ldr	r5, [sp, #20]
   2215e:	1c68      	adds	r0, r5, #1
   22160:	224f      	movs	r2, #79	@ 0x4f
   22162:	9904      	ldr	r1, [sp, #16]
   22164:	f009 fa71 	bl	2b64a <__aeabi_memcpy>
   22168:	2000      	movs	r0, #0
   2216a:	2c02      	cmp	r4, #2
   2216c:	7028      	strb	r0, [r5, #0]
   2216e:	d004      	beq.n	2217a <_ZN20complex_dynamic_type3app17h3ad0b530d87c77ecE+0x116>
   22170:	2104      	movs	r1, #4
   22172:	4630      	mov	r0, r6
   22174:	4622      	mov	r2, r4
   22176:	f009 f883 	bl	2b280 <_ZN9allow_pin12dynamic_type7unshare17hefa7cd45f9379b26E>
   2217a:	a806      	add	r0, sp, #24
   2217c:	7802      	ldrb	r2, [r0, #0]
   2217e:	2a02      	cmp	r2, #2
   22180:	d003      	beq.n	2218a <_ZN20complex_dynamic_type3app17h3ad0b530d87c77ecE+0x126>
   22182:	2102      	movs	r1, #2
   22184:	4630      	mov	r0, r6
   22186:	f009 f87b 	bl	2b280 <_ZN9allow_pin12dynamic_type7unshare17hefa7cd45f9379b26E>
   2218a:	b033      	add	sp, #204	@ 0xcc
   2218c:	bdf0      	pop	{r4, r5, r6, r7, pc}
   2218e:	46c0      	nop			@ (mov r8, r8)
   22190:	00000e16 	.word	0x00000e16
   22194:	0001027c 	.word	0x0001027c

00022198 <_ZN20complex_dynamic_type3app17h4299e4563ff4c191E>:
   22198:	b5f0      	push	{r4, r5, r6, r7, lr}
   2219a:	af03      	add	r7, sp, #12
   2219c:	b0b5      	sub	sp, #212	@ 0xd4
   2219e:	9006      	str	r0, [sp, #24]
   221a0:	a807      	add	r0, sp, #28
   221a2:	2602      	movs	r6, #2
   221a4:	7006      	strb	r6, [r0, #0]
   221a6:	1c40      	adds	r0, r0, #1
   221a8:	9004      	str	r0, [sp, #16]
   221aa:	2459      	movs	r4, #89	@ 0x59
   221ac:	4622      	mov	r2, r4
   221ae:	f009 fa4c 	bl	2b64a <__aeabi_memcpy>
   221b2:	ad1e      	add	r5, sp, #120	@ 0x78
   221b4:	1c68      	adds	r0, r5, #1
   221b6:	214a      	movs	r1, #74	@ 0x4a
   221b8:	9005      	str	r0, [sp, #20]
   221ba:	9103      	str	r1, [sp, #12]
   221bc:	f009 f885 	bl	2b2ca <__aeabi_memclr>
   221c0:	9602      	str	r6, [sp, #8]
   221c2:	702e      	strb	r6, [r5, #0]
   221c4:	2504      	movs	r5, #4
   221c6:	9400      	str	r4, [sp, #0]
   221c8:	9501      	str	r5, [sp, #4]
   221ca:	a831      	add	r0, sp, #196	@ 0xc4
   221cc:	493b      	ldr	r1, [pc, #236]	@ (222bc <_ZN20complex_dynamic_type3app17h4299e4563ff4c191E+0x124>)
   221ce:	2400      	movs	r4, #0
   221d0:	4622      	mov	r2, r4
   221d2:	9b04      	ldr	r3, [sp, #16]
   221d4:	f009 f861 	bl	2b29a <_ZN9allow_pin13dynamic_allow17h33d41317a2da4f1cE>
   221d8:	9831      	ldr	r0, [sp, #196]	@ 0xc4
   221da:	2802      	cmp	r0, #2
   221dc:	d101      	bne.n	221e2 <_ZN20complex_dynamic_type3app17h4299e4563ff4c191E+0x4a>
   221de:	9932      	ldr	r1, [sp, #200]	@ 0xc8
   221e0:	e001      	b.n	221e6 <_ZN20complex_dynamic_type3app17h4299e4563ff4c191E+0x4e>
   221e2:	a907      	add	r1, sp, #28
   221e4:	700d      	strb	r5, [r1, #0]
   221e6:	2601      	movs	r6, #1
   221e8:	2802      	cmp	r0, #2
   221ea:	d023      	beq.n	22234 <_ZN20complex_dynamic_type3app17h4299e4563ff4c191E+0x9c>
   221ec:	a81e      	add	r0, sp, #120	@ 0x78
   221ee:	7800      	ldrb	r0, [r0, #0]
   221f0:	2802      	cmp	r0, #2
   221f2:	d10e      	bne.n	22212 <_ZN20complex_dynamic_type3app17h4299e4563ff4c191E+0x7a>
   221f4:	2503      	movs	r5, #3
   221f6:	9803      	ldr	r0, [sp, #12]
   221f8:	9000      	str	r0, [sp, #0]
   221fa:	9501      	str	r5, [sp, #4]
   221fc:	a831      	add	r0, sp, #196	@ 0xc4
   221fe:	2204      	movs	r2, #4
   22200:	492e      	ldr	r1, [pc, #184]	@ (222bc <_ZN20complex_dynamic_type3app17h4299e4563ff4c191E+0x124>)
   22202:	9b05      	ldr	r3, [sp, #20]
   22204:	f009 f849 	bl	2b29a <_ZN9allow_pin13dynamic_allow17h33d41317a2da4f1cE>
   22208:	9831      	ldr	r0, [sp, #196]	@ 0xc4
   2220a:	2802      	cmp	r0, #2
   2220c:	d106      	bne.n	2221c <_ZN20complex_dynamic_type3app17h4299e4563ff4c191E+0x84>
   2220e:	9932      	ldr	r1, [sp, #200]	@ 0xc8
   22210:	e000      	b.n	22214 <_ZN20complex_dynamic_type3app17h4299e4563ff4c191E+0x7c>
   22212:	2103      	movs	r1, #3
   22214:	4634      	mov	r4, r6
   22216:	2c00      	cmp	r4, #0
   22218:	d004      	beq.n	22224 <_ZN20complex_dynamic_type3app17h4299e4563ff4c191E+0x8c>
   2221a:	e00b      	b.n	22234 <_ZN20complex_dynamic_type3app17h4299e4563ff4c191E+0x9c>
   2221c:	a81e      	add	r0, sp, #120	@ 0x78
   2221e:	7005      	strb	r5, [r0, #0]
   22220:	2c00      	cmp	r4, #0
   22222:	d107      	bne.n	22234 <_ZN20complex_dynamic_type3app17h4299e4563ff4c191E+0x9c>
   22224:	4825      	ldr	r0, [pc, #148]	@ (222bc <_ZN20complex_dynamic_type3app17h4299e4563ff4c191E+0x124>)
   22226:	2204      	movs	r2, #4
   22228:	2400      	movs	r4, #0
   2222a:	4621      	mov	r1, r4
   2222c:	4623      	mov	r3, r4
   2222e:	df02      	svc	2
   22230:	287f      	cmp	r0, #127	@ 0x7f
   22232:	d80d      	bhi.n	22250 <_ZN20complex_dynamic_type3app17h4299e4563ff4c191E+0xb8>
   22234:	4634      	mov	r4, r6
   22236:	2c00      	cmp	r4, #0
   22238:	d021      	beq.n	2227e <_ZN20complex_dynamic_type3app17h4299e4563ff4c191E+0xe6>
   2223a:	2001      	movs	r0, #1
   2223c:	9a06      	ldr	r2, [sp, #24]
   2223e:	7010      	strb	r0, [r2, #0]
   22240:	6051      	str	r1, [r2, #4]
   22242:	a81e      	add	r0, sp, #120	@ 0x78
   22244:	7802      	ldrb	r2, [r0, #0]
   22246:	2a02      	cmp	r2, #2
   22248:	d02e      	beq.n	222a8 <_ZN20complex_dynamic_type3app17h4299e4563ff4c191E+0x110>
   2224a:	2104      	movs	r1, #4
   2224c:	481b      	ldr	r0, [pc, #108]	@ (222bc <_ZN20complex_dynamic_type3app17h4299e4563ff4c191E+0x124>)
   2224e:	e029      	b.n	222a4 <_ZN20complex_dynamic_type3app17h4299e4563ff4c191E+0x10c>
   22250:	a807      	add	r0, sp, #28
   22252:	7802      	ldrb	r2, [r0, #0]
   22254:	2a02      	cmp	r2, #2
   22256:	d003      	beq.n	22260 <_ZN20complex_dynamic_type3app17h4299e4563ff4c191E+0xc8>
   22258:	2100      	movs	r1, #0
   2225a:	4818      	ldr	r0, [pc, #96]	@ (222bc <_ZN20complex_dynamic_type3app17h4299e4563ff4c191E+0x124>)
   2225c:	f009 f810 	bl	2b280 <_ZN9allow_pin12dynamic_type7unshare17hefa7cd45f9379b26E>
   22260:	a807      	add	r0, sp, #28
   22262:	9d02      	ldr	r5, [sp, #8]
   22264:	7005      	strb	r5, [r0, #0]
   22266:	a81e      	add	r0, sp, #120	@ 0x78
   22268:	7802      	ldrb	r2, [r0, #0]
   2226a:	2a02      	cmp	r2, #2
   2226c:	d003      	beq.n	22276 <_ZN20complex_dynamic_type3app17h4299e4563ff4c191E+0xde>
   2226e:	2104      	movs	r1, #4
   22270:	4812      	ldr	r0, [pc, #72]	@ (222bc <_ZN20complex_dynamic_type3app17h4299e4563ff4c191E+0x124>)
   22272:	f009 f805 	bl	2b280 <_ZN9allow_pin12dynamic_type7unshare17hefa7cd45f9379b26E>
   22276:	a81e      	add	r0, sp, #120	@ 0x78
   22278:	7005      	strb	r5, [r0, #0]
   2227a:	2c00      	cmp	r4, #0
   2227c:	d1dd      	bne.n	2223a <_ZN20complex_dynamic_type3app17h4299e4563ff4c191E+0xa2>
   2227e:	a81e      	add	r0, sp, #120	@ 0x78
   22280:	7804      	ldrb	r4, [r0, #0]
   22282:	2c02      	cmp	r4, #2
   22284:	d001      	beq.n	2228a <_ZN20complex_dynamic_type3app17h4299e4563ff4c191E+0xf2>
   22286:	480e      	ldr	r0, [pc, #56]	@ (222c0 <_ZN20complex_dynamic_type3app17h4299e4563ff4c191E+0x128>)
   22288:	9005      	str	r0, [sp, #20]
   2228a:	9d06      	ldr	r5, [sp, #24]
   2228c:	1c68      	adds	r0, r5, #1
   2228e:	224a      	movs	r2, #74	@ 0x4a
   22290:	9905      	ldr	r1, [sp, #20]
   22292:	f009 f9da 	bl	2b64a <__aeabi_memcpy>
   22296:	2000      	movs	r0, #0
   22298:	2c02      	cmp	r4, #2
   2229a:	7028      	strb	r0, [r5, #0]
   2229c:	d004      	beq.n	222a8 <_ZN20complex_dynamic_type3app17h4299e4563ff4c191E+0x110>
   2229e:	2104      	movs	r1, #4
   222a0:	4806      	ldr	r0, [pc, #24]	@ (222bc <_ZN20complex_dynamic_type3app17h4299e4563ff4c191E+0x124>)
   222a2:	4622      	mov	r2, r4
   222a4:	f008 ffec 	bl	2b280 <_ZN9allow_pin12dynamic_type7unshare17hefa7cd45f9379b26E>
   222a8:	a807      	add	r0, sp, #28
   222aa:	7802      	ldrb	r2, [r0, #0]
   222ac:	2a02      	cmp	r2, #2
   222ae:	d003      	beq.n	222b8 <_ZN20complex_dynamic_type3app17h4299e4563ff4c191E+0x120>
   222b0:	2100      	movs	r1, #0
   222b2:	4802      	ldr	r0, [pc, #8]	@ (222bc <_ZN20complex_dynamic_type3app17h4299e4563ff4c191E+0x124>)
   222b4:	f008 ffe4 	bl	2b280 <_ZN9allow_pin12dynamic_type7unshare17hefa7cd45f9379b26E>
   222b8:	b035      	add	sp, #212	@ 0xd4
   222ba:	bdf0      	pop	{r4, r5, r6, r7, pc}
   222bc:	00001484 	.word	0x00001484
   222c0:	00010a4b 	.word	0x00010a4b

000222c4 <_ZN20complex_dynamic_type3app17h471953ab1a63afd8E>:
   222c4:	b5f0      	push	{r4, r5, r6, r7, lr}
   222c6:	af03      	add	r7, sp, #12
   222c8:	b0a9      	sub	sp, #164	@ 0xa4
   222ca:	9006      	str	r0, [sp, #24]
   222cc:	a808      	add	r0, sp, #32
   222ce:	2402      	movs	r4, #2
   222d0:	7004      	strb	r4, [r0, #0]
   222d2:	1c40      	adds	r0, r0, #1
   222d4:	9004      	str	r0, [sp, #16]
   222d6:	2638      	movs	r6, #56	@ 0x38
   222d8:	4632      	mov	r2, r6
   222da:	f009 f9b6 	bl	2b64a <__aeabi_memcpy>
   222de:	ad17      	add	r5, sp, #92	@ 0x5c
   222e0:	1c68      	adds	r0, r5, #1
   222e2:	2134      	movs	r1, #52	@ 0x34
   222e4:	9005      	str	r0, [sp, #20]
   222e6:	9103      	str	r1, [sp, #12]
   222e8:	f008 ffef 	bl	2b2ca <__aeabi_memclr>
   222ec:	9402      	str	r4, [sp, #8]
   222ee:	702c      	strb	r4, [r5, #0]
   222f0:	2504      	movs	r5, #4
   222f2:	9600      	str	r6, [sp, #0]
   222f4:	9501      	str	r5, [sp, #4]
   222f6:	2097      	movs	r0, #151	@ 0x97
   222f8:	0041      	lsls	r1, r0, #1
   222fa:	a825      	add	r0, sp, #148	@ 0x94
   222fc:	2208      	movs	r2, #8
   222fe:	9107      	str	r1, [sp, #28]
   22300:	9b04      	ldr	r3, [sp, #16]
   22302:	f008 ffca 	bl	2b29a <_ZN9allow_pin13dynamic_allow17h33d41317a2da4f1cE>
   22306:	9825      	ldr	r0, [sp, #148]	@ 0x94
   22308:	2802      	cmp	r0, #2
   2230a:	d101      	bne.n	22310 <_ZN20complex_dynamic_type3app17h471953ab1a63afd8E+0x4c>
   2230c:	9926      	ldr	r1, [sp, #152]	@ 0x98
   2230e:	e001      	b.n	22314 <_ZN20complex_dynamic_type3app17h471953ab1a63afd8E+0x50>
   22310:	a908      	add	r1, sp, #32
   22312:	700d      	strb	r5, [r1, #0]
   22314:	2601      	movs	r6, #1
   22316:	2802      	cmp	r0, #2
   22318:	d024      	beq.n	22364 <_ZN20complex_dynamic_type3app17h471953ab1a63afd8E+0xa0>
   2231a:	a817      	add	r0, sp, #92	@ 0x5c
   2231c:	7800      	ldrb	r0, [r0, #0]
   2231e:	2802      	cmp	r0, #2
   22320:	d10e      	bne.n	22340 <_ZN20complex_dynamic_type3app17h471953ab1a63afd8E+0x7c>
   22322:	2403      	movs	r4, #3
   22324:	9803      	ldr	r0, [sp, #12]
   22326:	9000      	str	r0, [sp, #0]
   22328:	9401      	str	r4, [sp, #4]
   2232a:	a825      	add	r0, sp, #148	@ 0x94
   2232c:	9907      	ldr	r1, [sp, #28]
   2232e:	4622      	mov	r2, r4
   22330:	9b05      	ldr	r3, [sp, #20]
   22332:	f008 ffb2 	bl	2b29a <_ZN9allow_pin13dynamic_allow17h33d41317a2da4f1cE>
   22336:	9825      	ldr	r0, [sp, #148]	@ 0x94
   22338:	2802      	cmp	r0, #2
   2233a:	d106      	bne.n	2234a <_ZN20complex_dynamic_type3app17h471953ab1a63afd8E+0x86>
   2233c:	9926      	ldr	r1, [sp, #152]	@ 0x98
   2233e:	e000      	b.n	22342 <_ZN20complex_dynamic_type3app17h471953ab1a63afd8E+0x7e>
   22340:	2103      	movs	r1, #3
   22342:	4630      	mov	r0, r6
   22344:	2800      	cmp	r0, #0
   22346:	d005      	beq.n	22354 <_ZN20complex_dynamic_type3app17h471953ab1a63afd8E+0x90>
   22348:	e00c      	b.n	22364 <_ZN20complex_dynamic_type3app17h471953ab1a63afd8E+0xa0>
   2234a:	a817      	add	r0, sp, #92	@ 0x5c
   2234c:	7004      	strb	r4, [r0, #0]
   2234e:	2000      	movs	r0, #0
   22350:	2800      	cmp	r0, #0
   22352:	d107      	bne.n	22364 <_ZN20complex_dynamic_type3app17h471953ab1a63afd8E+0xa0>
   22354:	2108      	movs	r1, #8
   22356:	2203      	movs	r2, #3
   22358:	2500      	movs	r5, #0
   2235a:	9807      	ldr	r0, [sp, #28]
   2235c:	462b      	mov	r3, r5
   2235e:	df02      	svc	2
   22360:	287f      	cmp	r0, #127	@ 0x7f
   22362:	d80d      	bhi.n	22380 <_ZN20complex_dynamic_type3app17h471953ab1a63afd8E+0xbc>
   22364:	4635      	mov	r5, r6
   22366:	2d00      	cmp	r5, #0
   22368:	d021      	beq.n	223ae <_ZN20complex_dynamic_type3app17h471953ab1a63afd8E+0xea>
   2236a:	2001      	movs	r0, #1
   2236c:	9a06      	ldr	r2, [sp, #24]
   2236e:	7010      	strb	r0, [r2, #0]
   22370:	6051      	str	r1, [r2, #4]
   22372:	a817      	add	r0, sp, #92	@ 0x5c
   22374:	7802      	ldrb	r2, [r0, #0]
   22376:	2a02      	cmp	r2, #2
   22378:	d02e      	beq.n	223d8 <_ZN20complex_dynamic_type3app17h471953ab1a63afd8E+0x114>
   2237a:	2103      	movs	r1, #3
   2237c:	9807      	ldr	r0, [sp, #28]
   2237e:	e029      	b.n	223d4 <_ZN20complex_dynamic_type3app17h471953ab1a63afd8E+0x110>
   22380:	a808      	add	r0, sp, #32
   22382:	7802      	ldrb	r2, [r0, #0]
   22384:	2a02      	cmp	r2, #2
   22386:	d003      	beq.n	22390 <_ZN20complex_dynamic_type3app17h471953ab1a63afd8E+0xcc>
   22388:	2108      	movs	r1, #8
   2238a:	9807      	ldr	r0, [sp, #28]
   2238c:	f008 ff78 	bl	2b280 <_ZN9allow_pin12dynamic_type7unshare17hefa7cd45f9379b26E>
   22390:	a808      	add	r0, sp, #32
   22392:	9c02      	ldr	r4, [sp, #8]
   22394:	7004      	strb	r4, [r0, #0]
   22396:	a817      	add	r0, sp, #92	@ 0x5c
   22398:	7802      	ldrb	r2, [r0, #0]
   2239a:	2a02      	cmp	r2, #2
   2239c:	d003      	beq.n	223a6 <_ZN20complex_dynamic_type3app17h471953ab1a63afd8E+0xe2>
   2239e:	2103      	movs	r1, #3
   223a0:	9807      	ldr	r0, [sp, #28]
   223a2:	f008 ff6d 	bl	2b280 <_ZN9allow_pin12dynamic_type7unshare17hefa7cd45f9379b26E>
   223a6:	a817      	add	r0, sp, #92	@ 0x5c
   223a8:	7004      	strb	r4, [r0, #0]
   223aa:	2d00      	cmp	r5, #0
   223ac:	d1dd      	bne.n	2236a <_ZN20complex_dynamic_type3app17h471953ab1a63afd8E+0xa6>
   223ae:	a817      	add	r0, sp, #92	@ 0x5c
   223b0:	7805      	ldrb	r5, [r0, #0]
   223b2:	2d02      	cmp	r5, #2
   223b4:	d001      	beq.n	223ba <_ZN20complex_dynamic_type3app17h471953ab1a63afd8E+0xf6>
   223b6:	480d      	ldr	r0, [pc, #52]	@ (223ec <_ZN20complex_dynamic_type3app17h471953ab1a63afd8E+0x128>)
   223b8:	9005      	str	r0, [sp, #20]
   223ba:	9c06      	ldr	r4, [sp, #24]
   223bc:	1c60      	adds	r0, r4, #1
   223be:	2234      	movs	r2, #52	@ 0x34
   223c0:	9905      	ldr	r1, [sp, #20]
   223c2:	f009 f942 	bl	2b64a <__aeabi_memcpy>
   223c6:	2000      	movs	r0, #0
   223c8:	2d02      	cmp	r5, #2
   223ca:	7020      	strb	r0, [r4, #0]
   223cc:	d004      	beq.n	223d8 <_ZN20complex_dynamic_type3app17h471953ab1a63afd8E+0x114>
   223ce:	2103      	movs	r1, #3
   223d0:	9807      	ldr	r0, [sp, #28]
   223d2:	462a      	mov	r2, r5
   223d4:	f008 ff54 	bl	2b280 <_ZN9allow_pin12dynamic_type7unshare17hefa7cd45f9379b26E>
   223d8:	a808      	add	r0, sp, #32
   223da:	7802      	ldrb	r2, [r0, #0]
   223dc:	2a02      	cmp	r2, #2
   223de:	d003      	beq.n	223e8 <_ZN20complex_dynamic_type3app17h471953ab1a63afd8E+0x124>
   223e0:	2108      	movs	r1, #8
   223e2:	9807      	ldr	r0, [sp, #28]
   223e4:	f008 ff4c 	bl	2b280 <_ZN9allow_pin12dynamic_type7unshare17hefa7cd45f9379b26E>
   223e8:	b029      	add	sp, #164	@ 0xa4
   223ea:	bdf0      	pop	{r4, r5, r6, r7, pc}
   223ec:	0001078b 	.word	0x0001078b

000223f0 <_ZN20complex_dynamic_type3app17h48697300aee0e5e1E>:
   223f0:	b5f0      	push	{r4, r5, r6, r7, lr}
   223f2:	af03      	add	r7, sp, #12
   223f4:	b0ad      	sub	sp, #180	@ 0xb4
   223f6:	9006      	str	r0, [sp, #24]
   223f8:	a807      	add	r0, sp, #28
   223fa:	2502      	movs	r5, #2
   223fc:	7005      	strb	r5, [r0, #0]
   223fe:	1c40      	adds	r0, r0, #1
   22400:	9004      	str	r0, [sp, #16]
   22402:	264f      	movs	r6, #79	@ 0x4f
   22404:	4632      	mov	r2, r6
   22406:	f009 f920 	bl	2b64a <__aeabi_memcpy>
   2240a:	ac1b      	add	r4, sp, #108	@ 0x6c
   2240c:	1c60      	adds	r0, r4, #1
   2240e:	2135      	movs	r1, #53	@ 0x35
   22410:	9005      	str	r0, [sp, #20]
   22412:	9103      	str	r1, [sp, #12]
   22414:	f008 ff59 	bl	2b2ca <__aeabi_memclr>
   22418:	9502      	str	r5, [sp, #8]
   2241a:	7025      	strb	r5, [r4, #0]
   2241c:	2404      	movs	r4, #4
   2241e:	9600      	str	r6, [sp, #0]
   22420:	9401      	str	r4, [sp, #4]
   22422:	a829      	add	r0, sp, #164	@ 0xa4
   22424:	4e3c      	ldr	r6, [pc, #240]	@ (22518 <_ZN20complex_dynamic_type3app17h48697300aee0e5e1E+0x128>)
   22426:	2207      	movs	r2, #7
   22428:	4631      	mov	r1, r6
   2242a:	9b04      	ldr	r3, [sp, #16]
   2242c:	f008 ff35 	bl	2b29a <_ZN9allow_pin13dynamic_allow17h33d41317a2da4f1cE>
   22430:	9829      	ldr	r0, [sp, #164]	@ 0xa4
   22432:	2802      	cmp	r0, #2
   22434:	d101      	bne.n	2243a <_ZN20complex_dynamic_type3app17h48697300aee0e5e1E+0x4a>
   22436:	992a      	ldr	r1, [sp, #168]	@ 0xa8
   22438:	e001      	b.n	2243e <_ZN20complex_dynamic_type3app17h48697300aee0e5e1E+0x4e>
   2243a:	a907      	add	r1, sp, #28
   2243c:	700c      	strb	r4, [r1, #0]
   2243e:	2501      	movs	r5, #1
   22440:	2802      	cmp	r0, #2
   22442:	d024      	beq.n	2248e <_ZN20complex_dynamic_type3app17h48697300aee0e5e1E+0x9e>
   22444:	a81b      	add	r0, sp, #108	@ 0x6c
   22446:	7800      	ldrb	r0, [r0, #0]
   22448:	2802      	cmp	r0, #2
   2244a:	d10e      	bne.n	2246a <_ZN20complex_dynamic_type3app17h48697300aee0e5e1E+0x7a>
   2244c:	2403      	movs	r4, #3
   2244e:	9803      	ldr	r0, [sp, #12]
   22450:	9000      	str	r0, [sp, #0]
   22452:	9401      	str	r4, [sp, #4]
   22454:	a829      	add	r0, sp, #164	@ 0xa4
   22456:	2201      	movs	r2, #1
   22458:	4631      	mov	r1, r6
   2245a:	9b05      	ldr	r3, [sp, #20]
   2245c:	f008 ff1d 	bl	2b29a <_ZN9allow_pin13dynamic_allow17h33d41317a2da4f1cE>
   22460:	9829      	ldr	r0, [sp, #164]	@ 0xa4
   22462:	2802      	cmp	r0, #2
   22464:	d106      	bne.n	22474 <_ZN20complex_dynamic_type3app17h48697300aee0e5e1E+0x84>
   22466:	992a      	ldr	r1, [sp, #168]	@ 0xa8
   22468:	e000      	b.n	2246c <_ZN20complex_dynamic_type3app17h48697300aee0e5e1E+0x7c>
   2246a:	2103      	movs	r1, #3
   2246c:	4628      	mov	r0, r5
   2246e:	2800      	cmp	r0, #0
   22470:	d005      	beq.n	2247e <_ZN20complex_dynamic_type3app17h48697300aee0e5e1E+0x8e>
   22472:	e00c      	b.n	2248e <_ZN20complex_dynamic_type3app17h48697300aee0e5e1E+0x9e>
   22474:	a81b      	add	r0, sp, #108	@ 0x6c
   22476:	7004      	strb	r4, [r0, #0]
   22478:	2000      	movs	r0, #0
   2247a:	2800      	cmp	r0, #0
   2247c:	d107      	bne.n	2248e <_ZN20complex_dynamic_type3app17h48697300aee0e5e1E+0x9e>
   2247e:	4826      	ldr	r0, [pc, #152]	@ (22518 <_ZN20complex_dynamic_type3app17h48697300aee0e5e1E+0x128>)
   22480:	2107      	movs	r1, #7
   22482:	2201      	movs	r2, #1
   22484:	2400      	movs	r4, #0
   22486:	4623      	mov	r3, r4
   22488:	df02      	svc	2
   2248a:	287f      	cmp	r0, #127	@ 0x7f
   2248c:	d80d      	bhi.n	224aa <_ZN20complex_dynamic_type3app17h48697300aee0e5e1E+0xba>
   2248e:	462c      	mov	r4, r5
   22490:	2c00      	cmp	r4, #0
   22492:	d021      	beq.n	224d8 <_ZN20complex_dynamic_type3app17h48697300aee0e5e1E+0xe8>
   22494:	2001      	movs	r0, #1
   22496:	9a06      	ldr	r2, [sp, #24]
   22498:	7010      	strb	r0, [r2, #0]
   2249a:	6051      	str	r1, [r2, #4]
   2249c:	a81b      	add	r0, sp, #108	@ 0x6c
   2249e:	7802      	ldrb	r2, [r0, #0]
   224a0:	2a02      	cmp	r2, #2
   224a2:	d02e      	beq.n	22502 <_ZN20complex_dynamic_type3app17h48697300aee0e5e1E+0x112>
   224a4:	2101      	movs	r1, #1
   224a6:	4630      	mov	r0, r6
   224a8:	e029      	b.n	224fe <_ZN20complex_dynamic_type3app17h48697300aee0e5e1E+0x10e>
   224aa:	a807      	add	r0, sp, #28
   224ac:	7802      	ldrb	r2, [r0, #0]
   224ae:	2a02      	cmp	r2, #2
   224b0:	d003      	beq.n	224ba <_ZN20complex_dynamic_type3app17h48697300aee0e5e1E+0xca>
   224b2:	2107      	movs	r1, #7
   224b4:	4630      	mov	r0, r6
   224b6:	f008 fee3 	bl	2b280 <_ZN9allow_pin12dynamic_type7unshare17hefa7cd45f9379b26E>
   224ba:	a807      	add	r0, sp, #28
   224bc:	9d02      	ldr	r5, [sp, #8]
   224be:	7005      	strb	r5, [r0, #0]
   224c0:	a81b      	add	r0, sp, #108	@ 0x6c
   224c2:	7802      	ldrb	r2, [r0, #0]
   224c4:	2a02      	cmp	r2, #2
   224c6:	d003      	beq.n	224d0 <_ZN20complex_dynamic_type3app17h48697300aee0e5e1E+0xe0>
   224c8:	2101      	movs	r1, #1
   224ca:	4630      	mov	r0, r6
   224cc:	f008 fed8 	bl	2b280 <_ZN9allow_pin12dynamic_type7unshare17hefa7cd45f9379b26E>
   224d0:	a81b      	add	r0, sp, #108	@ 0x6c
   224d2:	7005      	strb	r5, [r0, #0]
   224d4:	2c00      	cmp	r4, #0
   224d6:	d1dd      	bne.n	22494 <_ZN20complex_dynamic_type3app17h48697300aee0e5e1E+0xa4>
   224d8:	a81b      	add	r0, sp, #108	@ 0x6c
   224da:	7804      	ldrb	r4, [r0, #0]
   224dc:	2c02      	cmp	r4, #2
   224de:	d001      	beq.n	224e4 <_ZN20complex_dynamic_type3app17h48697300aee0e5e1E+0xf4>
   224e0:	480e      	ldr	r0, [pc, #56]	@ (2251c <_ZN20complex_dynamic_type3app17h48697300aee0e5e1E+0x12c>)
   224e2:	9005      	str	r0, [sp, #20]
   224e4:	9d06      	ldr	r5, [sp, #24]
   224e6:	1c68      	adds	r0, r5, #1
   224e8:	2235      	movs	r2, #53	@ 0x35
   224ea:	9905      	ldr	r1, [sp, #20]
   224ec:	f009 f8ad 	bl	2b64a <__aeabi_memcpy>
   224f0:	2000      	movs	r0, #0
   224f2:	2c02      	cmp	r4, #2
   224f4:	7028      	strb	r0, [r5, #0]
   224f6:	d004      	beq.n	22502 <_ZN20complex_dynamic_type3app17h48697300aee0e5e1E+0x112>
   224f8:	2101      	movs	r1, #1
   224fa:	4630      	mov	r0, r6
   224fc:	4622      	mov	r2, r4
   224fe:	f008 febf 	bl	2b280 <_ZN9allow_pin12dynamic_type7unshare17hefa7cd45f9379b26E>
   22502:	a807      	add	r0, sp, #28
   22504:	7802      	ldrb	r2, [r0, #0]
   22506:	2a02      	cmp	r2, #2
   22508:	d003      	beq.n	22512 <_ZN20complex_dynamic_type3app17h48697300aee0e5e1E+0x122>
   2250a:	2107      	movs	r1, #7
   2250c:	4630      	mov	r0, r6
   2250e:	f008 feb7 	bl	2b280 <_ZN9allow_pin12dynamic_type7unshare17hefa7cd45f9379b26E>
   22512:	b02d      	add	sp, #180	@ 0xb4
   22514:	bdf0      	pop	{r4, r5, r6, r7, pc}
   22516:	46c0      	nop			@ (mov r8, r8)
   22518:	000016d7 	.word	0x000016d7
   2251c:	00010b4c 	.word	0x00010b4c

00022520 <_ZN20complex_dynamic_type3app17h4a1f8b05dedb497dE>:
   22520:	b5f0      	push	{r4, r5, r6, r7, lr}
   22522:	af03      	add	r7, sp, #12
   22524:	b0a9      	sub	sp, #164	@ 0xa4
   22526:	9006      	str	r0, [sp, #24]
   22528:	a807      	add	r0, sp, #28
   2252a:	2502      	movs	r5, #2
   2252c:	7005      	strb	r5, [r0, #0]
   2252e:	1c40      	adds	r0, r0, #1
   22530:	9004      	str	r0, [sp, #16]
   22532:	2421      	movs	r4, #33	@ 0x21
   22534:	4622      	mov	r2, r4
   22536:	f009 f888 	bl	2b64a <__aeabi_memcpy>
   2253a:	ae10      	add	r6, sp, #64	@ 0x40
   2253c:	1c70      	adds	r0, r6, #1
   2253e:	2153      	movs	r1, #83	@ 0x53
   22540:	9005      	str	r0, [sp, #20]
   22542:	9103      	str	r1, [sp, #12]
   22544:	f008 fec1 	bl	2b2ca <__aeabi_memclr>
   22548:	7035      	strb	r5, [r6, #0]
   2254a:	2004      	movs	r0, #4
   2254c:	9400      	str	r4, [sp, #0]
   2254e:	4604      	mov	r4, r0
   22550:	9001      	str	r0, [sp, #4]
   22552:	a825      	add	r0, sp, #148	@ 0x94
   22554:	4e3d      	ldr	r6, [pc, #244]	@ (2264c <_ZN20complex_dynamic_type3app17h4a1f8b05dedb497dE+0x12c>)
   22556:	4631      	mov	r1, r6
   22558:	462a      	mov	r2, r5
   2255a:	9b04      	ldr	r3, [sp, #16]
   2255c:	f008 fe9d 	bl	2b29a <_ZN9allow_pin13dynamic_allow17h33d41317a2da4f1cE>
   22560:	9825      	ldr	r0, [sp, #148]	@ 0x94
   22562:	2802      	cmp	r0, #2
   22564:	d101      	bne.n	2256a <_ZN20complex_dynamic_type3app17h4a1f8b05dedb497dE+0x4a>
   22566:	9926      	ldr	r1, [sp, #152]	@ 0x98
   22568:	e001      	b.n	2256e <_ZN20complex_dynamic_type3app17h4a1f8b05dedb497dE+0x4e>
   2256a:	a907      	add	r1, sp, #28
   2256c:	700c      	strb	r4, [r1, #0]
   2256e:	2501      	movs	r5, #1
   22570:	2802      	cmp	r0, #2
   22572:	d016      	beq.n	225a2 <_ZN20complex_dynamic_type3app17h4a1f8b05dedb497dE+0x82>
   22574:	a810      	add	r0, sp, #64	@ 0x40
   22576:	7800      	ldrb	r0, [r0, #0]
   22578:	2802      	cmp	r0, #2
   2257a:	d10e      	bne.n	2259a <_ZN20complex_dynamic_type3app17h4a1f8b05dedb497dE+0x7a>
   2257c:	2403      	movs	r4, #3
   2257e:	9803      	ldr	r0, [sp, #12]
   22580:	9000      	str	r0, [sp, #0]
   22582:	9401      	str	r4, [sp, #4]
   22584:	a825      	add	r0, sp, #148	@ 0x94
   22586:	2208      	movs	r2, #8
   22588:	4631      	mov	r1, r6
   2258a:	9b05      	ldr	r3, [sp, #20]
   2258c:	f008 fe85 	bl	2b29a <_ZN9allow_pin13dynamic_allow17h33d41317a2da4f1cE>
   22590:	9825      	ldr	r0, [sp, #148]	@ 0x94
   22592:	2802      	cmp	r0, #2
   22594:	d113      	bne.n	225be <_ZN20complex_dynamic_type3app17h4a1f8b05dedb497dE+0x9e>
   22596:	9926      	ldr	r1, [sp, #152]	@ 0x98
   22598:	e000      	b.n	2259c <_ZN20complex_dynamic_type3app17h4a1f8b05dedb497dE+0x7c>
   2259a:	2103      	movs	r1, #3
   2259c:	4628      	mov	r0, r5
   2259e:	2800      	cmp	r0, #0
   225a0:	d012      	beq.n	225c8 <_ZN20complex_dynamic_type3app17h4a1f8b05dedb497dE+0xa8>
   225a2:	462c      	mov	r4, r5
   225a4:	2c00      	cmp	r4, #0
   225a6:	d031      	beq.n	2260c <_ZN20complex_dynamic_type3app17h4a1f8b05dedb497dE+0xec>
   225a8:	2001      	movs	r0, #1
   225aa:	9a06      	ldr	r2, [sp, #24]
   225ac:	7010      	strb	r0, [r2, #0]
   225ae:	6051      	str	r1, [r2, #4]
   225b0:	a810      	add	r0, sp, #64	@ 0x40
   225b2:	7802      	ldrb	r2, [r0, #0]
   225b4:	2a02      	cmp	r2, #2
   225b6:	d03e      	beq.n	22636 <_ZN20complex_dynamic_type3app17h4a1f8b05dedb497dE+0x116>
   225b8:	2108      	movs	r1, #8
   225ba:	4630      	mov	r0, r6
   225bc:	e039      	b.n	22632 <_ZN20complex_dynamic_type3app17h4a1f8b05dedb497dE+0x112>
   225be:	a810      	add	r0, sp, #64	@ 0x40
   225c0:	7004      	strb	r4, [r0, #0]
   225c2:	2000      	movs	r0, #0
   225c4:	2800      	cmp	r0, #0
   225c6:	d1ec      	bne.n	225a2 <_ZN20complex_dynamic_type3app17h4a1f8b05dedb497dE+0x82>
   225c8:	4820      	ldr	r0, [pc, #128]	@ (2264c <_ZN20complex_dynamic_type3app17h4a1f8b05dedb497dE+0x12c>)
   225ca:	2102      	movs	r1, #2
   225cc:	2208      	movs	r2, #8
   225ce:	2400      	movs	r4, #0
   225d0:	460e      	mov	r6, r1
   225d2:	4623      	mov	r3, r4
   225d4:	df02      	svc	2
   225d6:	287f      	cmp	r0, #127	@ 0x7f
   225d8:	d801      	bhi.n	225de <_ZN20complex_dynamic_type3app17h4a1f8b05dedb497dE+0xbe>
   225da:	462c      	mov	r4, r5
   225dc:	e013      	b.n	22606 <_ZN20complex_dynamic_type3app17h4a1f8b05dedb497dE+0xe6>
   225de:	a807      	add	r0, sp, #28
   225e0:	7802      	ldrb	r2, [r0, #0]
   225e2:	2a02      	cmp	r2, #2
   225e4:	d003      	beq.n	225ee <_ZN20complex_dynamic_type3app17h4a1f8b05dedb497dE+0xce>
   225e6:	2102      	movs	r1, #2
   225e8:	4818      	ldr	r0, [pc, #96]	@ (2264c <_ZN20complex_dynamic_type3app17h4a1f8b05dedb497dE+0x12c>)
   225ea:	f008 fe49 	bl	2b280 <_ZN9allow_pin12dynamic_type7unshare17hefa7cd45f9379b26E>
   225ee:	a807      	add	r0, sp, #28
   225f0:	7006      	strb	r6, [r0, #0]
   225f2:	a810      	add	r0, sp, #64	@ 0x40
   225f4:	7802      	ldrb	r2, [r0, #0]
   225f6:	2a02      	cmp	r2, #2
   225f8:	d003      	beq.n	22602 <_ZN20complex_dynamic_type3app17h4a1f8b05dedb497dE+0xe2>
   225fa:	2108      	movs	r1, #8
   225fc:	4813      	ldr	r0, [pc, #76]	@ (2264c <_ZN20complex_dynamic_type3app17h4a1f8b05dedb497dE+0x12c>)
   225fe:	f008 fe3f 	bl	2b280 <_ZN9allow_pin12dynamic_type7unshare17hefa7cd45f9379b26E>
   22602:	a810      	add	r0, sp, #64	@ 0x40
   22604:	7006      	strb	r6, [r0, #0]
   22606:	4e11      	ldr	r6, [pc, #68]	@ (2264c <_ZN20complex_dynamic_type3app17h4a1f8b05dedb497dE+0x12c>)
   22608:	2c00      	cmp	r4, #0
   2260a:	d1cd      	bne.n	225a8 <_ZN20complex_dynamic_type3app17h4a1f8b05dedb497dE+0x88>
   2260c:	a810      	add	r0, sp, #64	@ 0x40
   2260e:	7804      	ldrb	r4, [r0, #0]
   22610:	2c02      	cmp	r4, #2
   22612:	d001      	beq.n	22618 <_ZN20complex_dynamic_type3app17h4a1f8b05dedb497dE+0xf8>
   22614:	480e      	ldr	r0, [pc, #56]	@ (22650 <_ZN20complex_dynamic_type3app17h4a1f8b05dedb497dE+0x130>)
   22616:	9005      	str	r0, [sp, #20]
   22618:	9d06      	ldr	r5, [sp, #24]
   2261a:	1c68      	adds	r0, r5, #1
   2261c:	2253      	movs	r2, #83	@ 0x53
   2261e:	9905      	ldr	r1, [sp, #20]
   22620:	f009 f813 	bl	2b64a <__aeabi_memcpy>
   22624:	2000      	movs	r0, #0
   22626:	2c02      	cmp	r4, #2
   22628:	7028      	strb	r0, [r5, #0]
   2262a:	d004      	beq.n	22636 <_ZN20complex_dynamic_type3app17h4a1f8b05dedb497dE+0x116>
   2262c:	2108      	movs	r1, #8
   2262e:	4630      	mov	r0, r6
   22630:	4622      	mov	r2, r4
   22632:	f008 fe25 	bl	2b280 <_ZN9allow_pin12dynamic_type7unshare17hefa7cd45f9379b26E>
   22636:	a807      	add	r0, sp, #28
   22638:	7802      	ldrb	r2, [r0, #0]
   2263a:	2a02      	cmp	r2, #2
   2263c:	d003      	beq.n	22646 <_ZN20complex_dynamic_type3app17h4a1f8b05dedb497dE+0x126>
   2263e:	2102      	movs	r1, #2
   22640:	4630      	mov	r0, r6
   22642:	f008 fe1d 	bl	2b280 <_ZN9allow_pin12dynamic_type7unshare17hefa7cd45f9379b26E>
   22646:	b029      	add	sp, #164	@ 0xa4
   22648:	bdf0      	pop	{r4, r5, r6, r7, pc}
   2264a:	46c0      	nop			@ (mov r8, r8)
   2264c:	0000253e 	.word	0x0000253e
   22650:	000102cb 	.word	0x000102cb

00022654 <_ZN20complex_dynamic_type3app17h4bc05184b996d04bE>:
   22654:	b5f0      	push	{r4, r5, r6, r7, lr}
   22656:	af03      	add	r7, sp, #12
   22658:	b0ab      	sub	sp, #172	@ 0xac
   2265a:	9006      	str	r0, [sp, #24]
   2265c:	a807      	add	r0, sp, #28
   2265e:	2502      	movs	r5, #2
   22660:	7005      	strb	r5, [r0, #0]
   22662:	1c40      	adds	r0, r0, #1
   22664:	9004      	str	r0, [sp, #16]
   22666:	261c      	movs	r6, #28
   22668:	4632      	mov	r2, r6
   2266a:	f008 ffee 	bl	2b64a <__aeabi_memcpy>
   2266e:	ac0f      	add	r4, sp, #60	@ 0x3c
   22670:	1c60      	adds	r0, r4, #1
   22672:	215d      	movs	r1, #93	@ 0x5d
   22674:	9005      	str	r0, [sp, #20]
   22676:	9103      	str	r1, [sp, #12]
   22678:	f008 fe27 	bl	2b2ca <__aeabi_memclr>
   2267c:	9502      	str	r5, [sp, #8]
   2267e:	7025      	strb	r5, [r4, #0]
   22680:	2404      	movs	r4, #4
   22682:	9600      	str	r6, [sp, #0]
   22684:	9401      	str	r4, [sp, #4]
   22686:	a827      	add	r0, sp, #156	@ 0x9c
   22688:	4e3c      	ldr	r6, [pc, #240]	@ (2277c <_ZN20complex_dynamic_type3app17h4bc05184b996d04bE+0x128>)
   2268a:	2208      	movs	r2, #8
   2268c:	4631      	mov	r1, r6
   2268e:	9b04      	ldr	r3, [sp, #16]
   22690:	f008 fe03 	bl	2b29a <_ZN9allow_pin13dynamic_allow17h33d41317a2da4f1cE>
   22694:	9827      	ldr	r0, [sp, #156]	@ 0x9c
   22696:	2802      	cmp	r0, #2
   22698:	d101      	bne.n	2269e <_ZN20complex_dynamic_type3app17h4bc05184b996d04bE+0x4a>
   2269a:	9928      	ldr	r1, [sp, #160]	@ 0xa0
   2269c:	e001      	b.n	226a2 <_ZN20complex_dynamic_type3app17h4bc05184b996d04bE+0x4e>
   2269e:	a907      	add	r1, sp, #28
   226a0:	700c      	strb	r4, [r1, #0]
   226a2:	2501      	movs	r5, #1
   226a4:	2802      	cmp	r0, #2
   226a6:	d024      	beq.n	226f2 <_ZN20complex_dynamic_type3app17h4bc05184b996d04bE+0x9e>
   226a8:	a80f      	add	r0, sp, #60	@ 0x3c
   226aa:	7800      	ldrb	r0, [r0, #0]
   226ac:	2802      	cmp	r0, #2
   226ae:	d10e      	bne.n	226ce <_ZN20complex_dynamic_type3app17h4bc05184b996d04bE+0x7a>
   226b0:	2403      	movs	r4, #3
   226b2:	9803      	ldr	r0, [sp, #12]
   226b4:	9000      	str	r0, [sp, #0]
   226b6:	9401      	str	r4, [sp, #4]
   226b8:	a827      	add	r0, sp, #156	@ 0x9c
   226ba:	2205      	movs	r2, #5
   226bc:	4631      	mov	r1, r6
   226be:	9b05      	ldr	r3, [sp, #20]
   226c0:	f008 fdeb 	bl	2b29a <_ZN9allow_pin13dynamic_allow17h33d41317a2da4f1cE>
   226c4:	9827      	ldr	r0, [sp, #156]	@ 0x9c
   226c6:	2802      	cmp	r0, #2
   226c8:	d106      	bne.n	226d8 <_ZN20complex_dynamic_type3app17h4bc05184b996d04bE+0x84>
   226ca:	9928      	ldr	r1, [sp, #160]	@ 0xa0
   226cc:	e000      	b.n	226d0 <_ZN20complex_dynamic_type3app17h4bc05184b996d04bE+0x7c>
   226ce:	2103      	movs	r1, #3
   226d0:	4628      	mov	r0, r5
   226d2:	2800      	cmp	r0, #0
   226d4:	d005      	beq.n	226e2 <_ZN20complex_dynamic_type3app17h4bc05184b996d04bE+0x8e>
   226d6:	e00c      	b.n	226f2 <_ZN20complex_dynamic_type3app17h4bc05184b996d04bE+0x9e>
   226d8:	a80f      	add	r0, sp, #60	@ 0x3c
   226da:	7004      	strb	r4, [r0, #0]
   226dc:	2000      	movs	r0, #0
   226de:	2800      	cmp	r0, #0
   226e0:	d107      	bne.n	226f2 <_ZN20complex_dynamic_type3app17h4bc05184b996d04bE+0x9e>
   226e2:	4826      	ldr	r0, [pc, #152]	@ (2277c <_ZN20complex_dynamic_type3app17h4bc05184b996d04bE+0x128>)
   226e4:	2108      	movs	r1, #8
   226e6:	2205      	movs	r2, #5
   226e8:	2400      	movs	r4, #0
   226ea:	4623      	mov	r3, r4
   226ec:	df02      	svc	2
   226ee:	287f      	cmp	r0, #127	@ 0x7f
   226f0:	d80d      	bhi.n	2270e <_ZN20complex_dynamic_type3app17h4bc05184b996d04bE+0xba>
   226f2:	462c      	mov	r4, r5
   226f4:	2c00      	cmp	r4, #0
   226f6:	d021      	beq.n	2273c <_ZN20complex_dynamic_type3app17h4bc05184b996d04bE+0xe8>
   226f8:	2001      	movs	r0, #1
   226fa:	9a06      	ldr	r2, [sp, #24]
   226fc:	7010      	strb	r0, [r2, #0]
   226fe:	6051      	str	r1, [r2, #4]
   22700:	a80f      	add	r0, sp, #60	@ 0x3c
   22702:	7802      	ldrb	r2, [r0, #0]
   22704:	2a02      	cmp	r2, #2
   22706:	d02e      	beq.n	22766 <_ZN20complex_dynamic_type3app17h4bc05184b996d04bE+0x112>
   22708:	2105      	movs	r1, #5
   2270a:	4630      	mov	r0, r6
   2270c:	e029      	b.n	22762 <_ZN20complex_dynamic_type3app17h4bc05184b996d04bE+0x10e>
   2270e:	a807      	add	r0, sp, #28
   22710:	7802      	ldrb	r2, [r0, #0]
   22712:	2a02      	cmp	r2, #2
   22714:	d003      	beq.n	2271e <_ZN20complex_dynamic_type3app17h4bc05184b996d04bE+0xca>
   22716:	2108      	movs	r1, #8
   22718:	4630      	mov	r0, r6
   2271a:	f008 fdb1 	bl	2b280 <_ZN9allow_pin12dynamic_type7unshare17hefa7cd45f9379b26E>
   2271e:	a807      	add	r0, sp, #28
   22720:	9d02      	ldr	r5, [sp, #8]
   22722:	7005      	strb	r5, [r0, #0]
   22724:	a80f      	add	r0, sp, #60	@ 0x3c
   22726:	7802      	ldrb	r2, [r0, #0]
   22728:	2a02      	cmp	r2, #2
   2272a:	d003      	beq.n	22734 <_ZN20complex_dynamic_type3app17h4bc05184b996d04bE+0xe0>
   2272c:	2105      	movs	r1, #5
   2272e:	4630      	mov	r0, r6
   22730:	f008 fda6 	bl	2b280 <_ZN9allow_pin12dynamic_type7unshare17hefa7cd45f9379b26E>
   22734:	a80f      	add	r0, sp, #60	@ 0x3c
   22736:	7005      	strb	r5, [r0, #0]
   22738:	2c00      	cmp	r4, #0
   2273a:	d1dd      	bne.n	226f8 <_ZN20complex_dynamic_type3app17h4bc05184b996d04bE+0xa4>
   2273c:	a80f      	add	r0, sp, #60	@ 0x3c
   2273e:	7804      	ldrb	r4, [r0, #0]
   22740:	2c02      	cmp	r4, #2
   22742:	d001      	beq.n	22748 <_ZN20complex_dynamic_type3app17h4bc05184b996d04bE+0xf4>
   22744:	480e      	ldr	r0, [pc, #56]	@ (22780 <_ZN20complex_dynamic_type3app17h4bc05184b996d04bE+0x12c>)
   22746:	9005      	str	r0, [sp, #20]
   22748:	9d06      	ldr	r5, [sp, #24]
   2274a:	1c68      	adds	r0, r5, #1
   2274c:	225d      	movs	r2, #93	@ 0x5d
   2274e:	9905      	ldr	r1, [sp, #20]
   22750:	f008 ff7b 	bl	2b64a <__aeabi_memcpy>
   22754:	2000      	movs	r0, #0
   22756:	2c02      	cmp	r4, #2
   22758:	7028      	strb	r0, [r5, #0]
   2275a:	d004      	beq.n	22766 <_ZN20complex_dynamic_type3app17h4bc05184b996d04bE+0x112>
   2275c:	2105      	movs	r1, #5
   2275e:	4630      	mov	r0, r6
   22760:	4622      	mov	r2, r4
   22762:	f008 fd8d 	bl	2b280 <_ZN9allow_pin12dynamic_type7unshare17hefa7cd45f9379b26E>
   22766:	a807      	add	r0, sp, #28
   22768:	7802      	ldrb	r2, [r0, #0]
   2276a:	2a02      	cmp	r2, #2
   2276c:	d003      	beq.n	22776 <_ZN20complex_dynamic_type3app17h4bc05184b996d04bE+0x122>
   2276e:	2108      	movs	r1, #8
   22770:	4630      	mov	r0, r6
   22772:	f008 fd85 	bl	2b280 <_ZN9allow_pin12dynamic_type7unshare17hefa7cd45f9379b26E>
   22776:	b02b      	add	sp, #172	@ 0xac
   22778:	bdf0      	pop	{r4, r5, r6, r7, pc}
   2277a:	46c0      	nop			@ (mov r8, r8)
   2277c:	00000c3e 	.word	0x00000c3e
   22780:	0001063a 	.word	0x0001063a

00022784 <_ZN20complex_dynamic_type3app17h4c94003244ae301aE>:
   22784:	b5f0      	push	{r4, r5, r6, r7, lr}
   22786:	af03      	add	r7, sp, #12
   22788:	b09b      	sub	sp, #108	@ 0x6c
   2278a:	9007      	str	r0, [sp, #28]
   2278c:	a808      	add	r0, sp, #32
   2278e:	2502      	movs	r5, #2
   22790:	7005      	strb	r5, [r0, #0]
   22792:	1c40      	adds	r0, r0, #1
   22794:	9005      	str	r0, [sp, #20]
   22796:	262b      	movs	r6, #43	@ 0x2b
   22798:	4632      	mov	r2, r6
   2279a:	f008 ff56 	bl	2b64a <__aeabi_memcpy>
   2279e:	ac13      	add	r4, sp, #76	@ 0x4c
   227a0:	1c60      	adds	r0, r4, #1
   227a2:	210d      	movs	r1, #13
   227a4:	9006      	str	r0, [sp, #24]
   227a6:	9104      	str	r1, [sp, #16]
   227a8:	f008 fd8f 	bl	2b2ca <__aeabi_memclr>
   227ac:	9503      	str	r5, [sp, #12]
   227ae:	7025      	strb	r5, [r4, #0]
   227b0:	2404      	movs	r4, #4
   227b2:	9600      	str	r6, [sp, #0]
   227b4:	9401      	str	r4, [sp, #4]
   227b6:	a817      	add	r0, sp, #92	@ 0x5c
   227b8:	4e3d      	ldr	r6, [pc, #244]	@ (228b0 <_ZN20complex_dynamic_type3app17h4c94003244ae301aE+0x12c>)
   227ba:	2206      	movs	r2, #6
   227bc:	4631      	mov	r1, r6
   227be:	9b05      	ldr	r3, [sp, #20]
   227c0:	f008 fd6b 	bl	2b29a <_ZN9allow_pin13dynamic_allow17h33d41317a2da4f1cE>
   227c4:	9817      	ldr	r0, [sp, #92]	@ 0x5c
   227c6:	2802      	cmp	r0, #2
   227c8:	d101      	bne.n	227ce <_ZN20complex_dynamic_type3app17h4c94003244ae301aE+0x4a>
   227ca:	9918      	ldr	r1, [sp, #96]	@ 0x60
   227cc:	e001      	b.n	227d2 <_ZN20complex_dynamic_type3app17h4c94003244ae301aE+0x4e>
   227ce:	a908      	add	r1, sp, #32
   227d0:	700c      	strb	r4, [r1, #0]
   227d2:	2501      	movs	r5, #1
   227d4:	2802      	cmp	r0, #2
   227d6:	d10d      	bne.n	227f4 <_ZN20complex_dynamic_type3app17h4c94003244ae301aE+0x70>
   227d8:	462c      	mov	r4, r5
   227da:	2c00      	cmp	r4, #0
   227dc:	d048      	beq.n	22870 <_ZN20complex_dynamic_type3app17h4c94003244ae301aE+0xec>
   227de:	2001      	movs	r0, #1
   227e0:	9a07      	ldr	r2, [sp, #28]
   227e2:	7010      	strb	r0, [r2, #0]
   227e4:	6051      	str	r1, [r2, #4]
   227e6:	a813      	add	r0, sp, #76	@ 0x4c
   227e8:	7802      	ldrb	r2, [r0, #0]
   227ea:	2a02      	cmp	r2, #2
   227ec:	d055      	beq.n	2289a <_ZN20complex_dynamic_type3app17h4c94003244ae301aE+0x116>
   227ee:	2100      	movs	r1, #0
   227f0:	4630      	mov	r0, r6
   227f2:	e050      	b.n	22896 <_ZN20complex_dynamic_type3app17h4c94003244ae301aE+0x112>
   227f4:	a813      	add	r0, sp, #76	@ 0x4c
   227f6:	7800      	ldrb	r0, [r0, #0]
   227f8:	2802      	cmp	r0, #2
   227fa:	d110      	bne.n	2281e <_ZN20complex_dynamic_type3app17h4c94003244ae301aE+0x9a>
   227fc:	4631      	mov	r1, r6
   227fe:	2603      	movs	r6, #3
   22800:	9804      	ldr	r0, [sp, #16]
   22802:	9000      	str	r0, [sp, #0]
   22804:	9601      	str	r6, [sp, #4]
   22806:	a817      	add	r0, sp, #92	@ 0x5c
   22808:	2400      	movs	r4, #0
   2280a:	4622      	mov	r2, r4
   2280c:	9b06      	ldr	r3, [sp, #24]
   2280e:	f008 fd44 	bl	2b29a <_ZN9allow_pin13dynamic_allow17h33d41317a2da4f1cE>
   22812:	9817      	ldr	r0, [sp, #92]	@ 0x5c
   22814:	2802      	cmp	r0, #2
   22816:	d107      	bne.n	22828 <_ZN20complex_dynamic_type3app17h4c94003244ae301aE+0xa4>
   22818:	9918      	ldr	r1, [sp, #96]	@ 0x60
   2281a:	462c      	mov	r4, r5
   2281c:	e006      	b.n	2282c <_ZN20complex_dynamic_type3app17h4c94003244ae301aE+0xa8>
   2281e:	2103      	movs	r1, #3
   22820:	462c      	mov	r4, r5
   22822:	2c00      	cmp	r4, #0
   22824:	d1d8      	bne.n	227d8 <_ZN20complex_dynamic_type3app17h4c94003244ae301aE+0x54>
   22826:	e004      	b.n	22832 <_ZN20complex_dynamic_type3app17h4c94003244ae301aE+0xae>
   22828:	a813      	add	r0, sp, #76	@ 0x4c
   2282a:	7006      	strb	r6, [r0, #0]
   2282c:	4e20      	ldr	r6, [pc, #128]	@ (228b0 <_ZN20complex_dynamic_type3app17h4c94003244ae301aE+0x12c>)
   2282e:	2c00      	cmp	r4, #0
   22830:	d1d2      	bne.n	227d8 <_ZN20complex_dynamic_type3app17h4c94003244ae301aE+0x54>
   22832:	481f      	ldr	r0, [pc, #124]	@ (228b0 <_ZN20complex_dynamic_type3app17h4c94003244ae301aE+0x12c>)
   22834:	2106      	movs	r1, #6
   22836:	2400      	movs	r4, #0
   22838:	4622      	mov	r2, r4
   2283a:	4623      	mov	r3, r4
   2283c:	df02      	svc	2
   2283e:	287f      	cmp	r0, #127	@ 0x7f
   22840:	d9ca      	bls.n	227d8 <_ZN20complex_dynamic_type3app17h4c94003244ae301aE+0x54>
   22842:	a808      	add	r0, sp, #32
   22844:	7802      	ldrb	r2, [r0, #0]
   22846:	2a02      	cmp	r2, #2
   22848:	d003      	beq.n	22852 <_ZN20complex_dynamic_type3app17h4c94003244ae301aE+0xce>
   2284a:	2106      	movs	r1, #6
   2284c:	4630      	mov	r0, r6
   2284e:	f008 fd17 	bl	2b280 <_ZN9allow_pin12dynamic_type7unshare17hefa7cd45f9379b26E>
   22852:	a808      	add	r0, sp, #32
   22854:	9d03      	ldr	r5, [sp, #12]
   22856:	7005      	strb	r5, [r0, #0]
   22858:	a813      	add	r0, sp, #76	@ 0x4c
   2285a:	7802      	ldrb	r2, [r0, #0]
   2285c:	2a02      	cmp	r2, #2
   2285e:	d003      	beq.n	22868 <_ZN20complex_dynamic_type3app17h4c94003244ae301aE+0xe4>
   22860:	2100      	movs	r1, #0
   22862:	4630      	mov	r0, r6
   22864:	f008 fd0c 	bl	2b280 <_ZN9allow_pin12dynamic_type7unshare17hefa7cd45f9379b26E>
   22868:	a813      	add	r0, sp, #76	@ 0x4c
   2286a:	7005      	strb	r5, [r0, #0]
   2286c:	2c00      	cmp	r4, #0
   2286e:	d1b6      	bne.n	227de <_ZN20complex_dynamic_type3app17h4c94003244ae301aE+0x5a>
   22870:	a813      	add	r0, sp, #76	@ 0x4c
   22872:	7804      	ldrb	r4, [r0, #0]
   22874:	2c02      	cmp	r4, #2
   22876:	d001      	beq.n	2287c <_ZN20complex_dynamic_type3app17h4c94003244ae301aE+0xf8>
   22878:	480e      	ldr	r0, [pc, #56]	@ (228b4 <_ZN20complex_dynamic_type3app17h4c94003244ae301aE+0x130>)
   2287a:	9006      	str	r0, [sp, #24]
   2287c:	9d07      	ldr	r5, [sp, #28]
   2287e:	1c68      	adds	r0, r5, #1
   22880:	220d      	movs	r2, #13
   22882:	9906      	ldr	r1, [sp, #24]
   22884:	f008 fee1 	bl	2b64a <__aeabi_memcpy>
   22888:	2000      	movs	r0, #0
   2288a:	2c02      	cmp	r4, #2
   2288c:	7028      	strb	r0, [r5, #0]
   2288e:	d004      	beq.n	2289a <_ZN20complex_dynamic_type3app17h4c94003244ae301aE+0x116>
   22890:	2100      	movs	r1, #0
   22892:	4630      	mov	r0, r6
   22894:	4622      	mov	r2, r4
   22896:	f008 fcf3 	bl	2b280 <_ZN9allow_pin12dynamic_type7unshare17hefa7cd45f9379b26E>
   2289a:	a808      	add	r0, sp, #32
   2289c:	7802      	ldrb	r2, [r0, #0]
   2289e:	2a02      	cmp	r2, #2
   228a0:	d003      	beq.n	228aa <_ZN20complex_dynamic_type3app17h4c94003244ae301aE+0x126>
   228a2:	2106      	movs	r1, #6
   228a4:	4630      	mov	r0, r6
   228a6:	f008 fceb 	bl	2b280 <_ZN9allow_pin12dynamic_type7unshare17hefa7cd45f9379b26E>
   228aa:	b01b      	add	sp, #108	@ 0x6c
   228ac:	bdf0      	pop	{r4, r5, r6, r7, pc}
   228ae:	46c0      	nop			@ (mov r8, r8)
   228b0:	00001465 	.word	0x00001465
   228b4:	000105b3 	.word	0x000105b3

000228b8 <_ZN20complex_dynamic_type3app17h4d615afd0c5e9671E>:
   228b8:	b5f0      	push	{r4, r5, r6, r7, lr}
   228ba:	af03      	add	r7, sp, #12
   228bc:	b0ad      	sub	sp, #180	@ 0xb4
   228be:	9006      	str	r0, [sp, #24]
   228c0:	a807      	add	r0, sp, #28
   228c2:	2602      	movs	r6, #2
   228c4:	7006      	strb	r6, [r0, #0]
   228c6:	1c40      	adds	r0, r0, #1
   228c8:	9004      	str	r0, [sp, #16]
   228ca:	252a      	movs	r5, #42	@ 0x2a
   228cc:	462a      	mov	r2, r5
   228ce:	f008 febc 	bl	2b64a <__aeabi_memcpy>
   228d2:	ac12      	add	r4, sp, #72	@ 0x48
   228d4:	1c60      	adds	r0, r4, #1
   228d6:	2159      	movs	r1, #89	@ 0x59
   228d8:	9005      	str	r0, [sp, #20]
   228da:	9103      	str	r1, [sp, #12]
   228dc:	f008 fcf5 	bl	2b2ca <__aeabi_memclr>
   228e0:	9602      	str	r6, [sp, #8]
   228e2:	7026      	strb	r6, [r4, #0]
   228e4:	2404      	movs	r4, #4
   228e6:	9500      	str	r5, [sp, #0]
   228e8:	9401      	str	r4, [sp, #4]
   228ea:	a829      	add	r0, sp, #164	@ 0xa4
   228ec:	493c      	ldr	r1, [pc, #240]	@ (229e0 <_ZN20complex_dynamic_type3app17h4d615afd0c5e9671E+0x128>)
   228ee:	2501      	movs	r5, #1
   228f0:	462a      	mov	r2, r5
   228f2:	9b04      	ldr	r3, [sp, #16]
   228f4:	f008 fcd1 	bl	2b29a <_ZN9allow_pin13dynamic_allow17h33d41317a2da4f1cE>
   228f8:	9829      	ldr	r0, [sp, #164]	@ 0xa4
   228fa:	2802      	cmp	r0, #2
   228fc:	d103      	bne.n	22906 <_ZN20complex_dynamic_type3app17h4d615afd0c5e9671E+0x4e>
   228fe:	992a      	ldr	r1, [sp, #168]	@ 0xa8
   22900:	2802      	cmp	r0, #2
   22902:	d029      	beq.n	22958 <_ZN20complex_dynamic_type3app17h4d615afd0c5e9671E+0xa0>
   22904:	e003      	b.n	2290e <_ZN20complex_dynamic_type3app17h4d615afd0c5e9671E+0x56>
   22906:	a907      	add	r1, sp, #28
   22908:	700c      	strb	r4, [r1, #0]
   2290a:	2802      	cmp	r0, #2
   2290c:	d024      	beq.n	22958 <_ZN20complex_dynamic_type3app17h4d615afd0c5e9671E+0xa0>
   2290e:	a812      	add	r0, sp, #72	@ 0x48
   22910:	7800      	ldrb	r0, [r0, #0]
   22912:	2802      	cmp	r0, #2
   22914:	d10e      	bne.n	22934 <_ZN20complex_dynamic_type3app17h4d615afd0c5e9671E+0x7c>
   22916:	2603      	movs	r6, #3
   22918:	9803      	ldr	r0, [sp, #12]
   2291a:	9000      	str	r0, [sp, #0]
   2291c:	9601      	str	r6, [sp, #4]
   2291e:	a829      	add	r0, sp, #164	@ 0xa4
   22920:	492f      	ldr	r1, [pc, #188]	@ (229e0 <_ZN20complex_dynamic_type3app17h4d615afd0c5e9671E+0x128>)
   22922:	4632      	mov	r2, r6
   22924:	9b05      	ldr	r3, [sp, #20]
   22926:	f008 fcb8 	bl	2b29a <_ZN9allow_pin13dynamic_allow17h33d41317a2da4f1cE>
   2292a:	9829      	ldr	r0, [sp, #164]	@ 0xa4
   2292c:	2802      	cmp	r0, #2
   2292e:	d106      	bne.n	2293e <_ZN20complex_dynamic_type3app17h4d615afd0c5e9671E+0x86>
   22930:	992a      	ldr	r1, [sp, #168]	@ 0xa8
   22932:	e000      	b.n	22936 <_ZN20complex_dynamic_type3app17h4d615afd0c5e9671E+0x7e>
   22934:	2103      	movs	r1, #3
   22936:	4628      	mov	r0, r5
   22938:	2800      	cmp	r0, #0
   2293a:	d005      	beq.n	22948 <_ZN20complex_dynamic_type3app17h4d615afd0c5e9671E+0x90>
   2293c:	e00c      	b.n	22958 <_ZN20complex_dynamic_type3app17h4d615afd0c5e9671E+0xa0>
   2293e:	a812      	add	r0, sp, #72	@ 0x48
   22940:	7006      	strb	r6, [r0, #0]
   22942:	2000      	movs	r0, #0
   22944:	2800      	cmp	r0, #0
   22946:	d107      	bne.n	22958 <_ZN20complex_dynamic_type3app17h4d615afd0c5e9671E+0xa0>
   22948:	4825      	ldr	r0, [pc, #148]	@ (229e0 <_ZN20complex_dynamic_type3app17h4d615afd0c5e9671E+0x128>)
   2294a:	2101      	movs	r1, #1
   2294c:	2203      	movs	r2, #3
   2294e:	2400      	movs	r4, #0
   22950:	4623      	mov	r3, r4
   22952:	df02      	svc	2
   22954:	287f      	cmp	r0, #127	@ 0x7f
   22956:	d80d      	bhi.n	22974 <_ZN20complex_dynamic_type3app17h4d615afd0c5e9671E+0xbc>
   22958:	462c      	mov	r4, r5
   2295a:	2c00      	cmp	r4, #0
   2295c:	d021      	beq.n	229a2 <_ZN20complex_dynamic_type3app17h4d615afd0c5e9671E+0xea>
   2295e:	2001      	movs	r0, #1
   22960:	9a06      	ldr	r2, [sp, #24]
   22962:	7010      	strb	r0, [r2, #0]
   22964:	6051      	str	r1, [r2, #4]
   22966:	a812      	add	r0, sp, #72	@ 0x48
   22968:	7802      	ldrb	r2, [r0, #0]
   2296a:	2a02      	cmp	r2, #2
   2296c:	d02e      	beq.n	229cc <_ZN20complex_dynamic_type3app17h4d615afd0c5e9671E+0x114>
   2296e:	2103      	movs	r1, #3
   22970:	481b      	ldr	r0, [pc, #108]	@ (229e0 <_ZN20complex_dynamic_type3app17h4d615afd0c5e9671E+0x128>)
   22972:	e029      	b.n	229c8 <_ZN20complex_dynamic_type3app17h4d615afd0c5e9671E+0x110>
   22974:	a807      	add	r0, sp, #28
   22976:	7802      	ldrb	r2, [r0, #0]
   22978:	2a02      	cmp	r2, #2
   2297a:	d003      	beq.n	22984 <_ZN20complex_dynamic_type3app17h4d615afd0c5e9671E+0xcc>
   2297c:	2101      	movs	r1, #1
   2297e:	4818      	ldr	r0, [pc, #96]	@ (229e0 <_ZN20complex_dynamic_type3app17h4d615afd0c5e9671E+0x128>)
   22980:	f008 fc7e 	bl	2b280 <_ZN9allow_pin12dynamic_type7unshare17hefa7cd45f9379b26E>
   22984:	a807      	add	r0, sp, #28
   22986:	9d02      	ldr	r5, [sp, #8]
   22988:	7005      	strb	r5, [r0, #0]
   2298a:	a812      	add	r0, sp, #72	@ 0x48
   2298c:	7802      	ldrb	r2, [r0, #0]
   2298e:	2a02      	cmp	r2, #2
   22990:	d003      	beq.n	2299a <_ZN20complex_dynamic_type3app17h4d615afd0c5e9671E+0xe2>
   22992:	2103      	movs	r1, #3
   22994:	4812      	ldr	r0, [pc, #72]	@ (229e0 <_ZN20complex_dynamic_type3app17h4d615afd0c5e9671E+0x128>)
   22996:	f008 fc73 	bl	2b280 <_ZN9allow_pin12dynamic_type7unshare17hefa7cd45f9379b26E>
   2299a:	a812      	add	r0, sp, #72	@ 0x48
   2299c:	7005      	strb	r5, [r0, #0]
   2299e:	2c00      	cmp	r4, #0
   229a0:	d1dd      	bne.n	2295e <_ZN20complex_dynamic_type3app17h4d615afd0c5e9671E+0xa6>
   229a2:	a812      	add	r0, sp, #72	@ 0x48
   229a4:	7804      	ldrb	r4, [r0, #0]
   229a6:	2c02      	cmp	r4, #2
   229a8:	d001      	beq.n	229ae <_ZN20complex_dynamic_type3app17h4d615afd0c5e9671E+0xf6>
   229aa:	480e      	ldr	r0, [pc, #56]	@ (229e4 <_ZN20complex_dynamic_type3app17h4d615afd0c5e9671E+0x12c>)
   229ac:	9005      	str	r0, [sp, #20]
   229ae:	9d06      	ldr	r5, [sp, #24]
   229b0:	1c68      	adds	r0, r5, #1
   229b2:	2259      	movs	r2, #89	@ 0x59
   229b4:	9905      	ldr	r1, [sp, #20]
   229b6:	f008 fe48 	bl	2b64a <__aeabi_memcpy>
   229ba:	2000      	movs	r0, #0
   229bc:	2c02      	cmp	r4, #2
   229be:	7028      	strb	r0, [r5, #0]
   229c0:	d004      	beq.n	229cc <_ZN20complex_dynamic_type3app17h4d615afd0c5e9671E+0x114>
   229c2:	2103      	movs	r1, #3
   229c4:	4806      	ldr	r0, [pc, #24]	@ (229e0 <_ZN20complex_dynamic_type3app17h4d615afd0c5e9671E+0x128>)
   229c6:	4622      	mov	r2, r4
   229c8:	f008 fc5a 	bl	2b280 <_ZN9allow_pin12dynamic_type7unshare17hefa7cd45f9379b26E>
   229cc:	a807      	add	r0, sp, #28
   229ce:	7802      	ldrb	r2, [r0, #0]
   229d0:	2a02      	cmp	r2, #2
   229d2:	d003      	beq.n	229dc <_ZN20complex_dynamic_type3app17h4d615afd0c5e9671E+0x124>
   229d4:	2101      	movs	r1, #1
   229d6:	4802      	ldr	r0, [pc, #8]	@ (229e0 <_ZN20complex_dynamic_type3app17h4d615afd0c5e9671E+0x128>)
   229d8:	f008 fc52 	bl	2b280 <_ZN9allow_pin12dynamic_type7unshare17hefa7cd45f9379b26E>
   229dc:	b02d      	add	sp, #180	@ 0xb4
   229de:	bdf0      	pop	{r4, r5, r6, r7, pc}
   229e0:	00000ed2 	.word	0x00000ed2
   229e4:	00010af3 	.word	0x00010af3

000229e8 <_ZN20complex_dynamic_type3app17h4e9e33dbc88df202E>:
   229e8:	b5f0      	push	{r4, r5, r6, r7, lr}
   229ea:	af03      	add	r7, sp, #12
   229ec:	b0a7      	sub	sp, #156	@ 0x9c
   229ee:	9006      	str	r0, [sp, #24]
   229f0:	a807      	add	r0, sp, #28
   229f2:	2502      	movs	r5, #2
   229f4:	7005      	strb	r5, [r0, #0]
   229f6:	1c40      	adds	r0, r0, #1
   229f8:	9004      	str	r0, [sp, #16]
   229fa:	263c      	movs	r6, #60	@ 0x3c
   229fc:	4632      	mov	r2, r6
   229fe:	f008 fe24 	bl	2b64a <__aeabi_memcpy>
   22a02:	ac17      	add	r4, sp, #92	@ 0x5c
   22a04:	1c60      	adds	r0, r4, #1
   22a06:	212c      	movs	r1, #44	@ 0x2c
   22a08:	9005      	str	r0, [sp, #20]
   22a0a:	9103      	str	r1, [sp, #12]
   22a0c:	f008 fc5d 	bl	2b2ca <__aeabi_memclr>
   22a10:	9502      	str	r5, [sp, #8]
   22a12:	7025      	strb	r5, [r4, #0]
   22a14:	2404      	movs	r4, #4
   22a16:	9600      	str	r6, [sp, #0]
   22a18:	9401      	str	r4, [sp, #4]
   22a1a:	a823      	add	r0, sp, #140	@ 0x8c
   22a1c:	4e3c      	ldr	r6, [pc, #240]	@ (22b10 <_ZN20complex_dynamic_type3app17h4e9e33dbc88df202E+0x128>)
   22a1e:	2205      	movs	r2, #5
   22a20:	4631      	mov	r1, r6
   22a22:	9b04      	ldr	r3, [sp, #16]
   22a24:	f008 fc39 	bl	2b29a <_ZN9allow_pin13dynamic_allow17h33d41317a2da4f1cE>
   22a28:	9823      	ldr	r0, [sp, #140]	@ 0x8c
   22a2a:	2802      	cmp	r0, #2
   22a2c:	d101      	bne.n	22a32 <_ZN20complex_dynamic_type3app17h4e9e33dbc88df202E+0x4a>
   22a2e:	9924      	ldr	r1, [sp, #144]	@ 0x90
   22a30:	e001      	b.n	22a36 <_ZN20complex_dynamic_type3app17h4e9e33dbc88df202E+0x4e>
   22a32:	a907      	add	r1, sp, #28
   22a34:	700c      	strb	r4, [r1, #0]
   22a36:	2501      	movs	r5, #1
   22a38:	2802      	cmp	r0, #2
   22a3a:	d024      	beq.n	22a86 <_ZN20complex_dynamic_type3app17h4e9e33dbc88df202E+0x9e>
   22a3c:	a817      	add	r0, sp, #92	@ 0x5c
   22a3e:	7800      	ldrb	r0, [r0, #0]
   22a40:	2802      	cmp	r0, #2
   22a42:	d10e      	bne.n	22a62 <_ZN20complex_dynamic_type3app17h4e9e33dbc88df202E+0x7a>
   22a44:	2403      	movs	r4, #3
   22a46:	9803      	ldr	r0, [sp, #12]
   22a48:	9000      	str	r0, [sp, #0]
   22a4a:	9401      	str	r4, [sp, #4]
   22a4c:	a823      	add	r0, sp, #140	@ 0x8c
   22a4e:	2207      	movs	r2, #7
   22a50:	4631      	mov	r1, r6
   22a52:	9b05      	ldr	r3, [sp, #20]
   22a54:	f008 fc21 	bl	2b29a <_ZN9allow_pin13dynamic_allow17h33d41317a2da4f1cE>
   22a58:	9823      	ldr	r0, [sp, #140]	@ 0x8c
   22a5a:	2802      	cmp	r0, #2
   22a5c:	d106      	bne.n	22a6c <_ZN20complex_dynamic_type3app17h4e9e33dbc88df202E+0x84>
   22a5e:	9924      	ldr	r1, [sp, #144]	@ 0x90
   22a60:	e000      	b.n	22a64 <_ZN20complex_dynamic_type3app17h4e9e33dbc88df202E+0x7c>
   22a62:	2103      	movs	r1, #3
   22a64:	4628      	mov	r0, r5
   22a66:	2800      	cmp	r0, #0
   22a68:	d005      	beq.n	22a76 <_ZN20complex_dynamic_type3app17h4e9e33dbc88df202E+0x8e>
   22a6a:	e00c      	b.n	22a86 <_ZN20complex_dynamic_type3app17h4e9e33dbc88df202E+0x9e>
   22a6c:	a817      	add	r0, sp, #92	@ 0x5c
   22a6e:	7004      	strb	r4, [r0, #0]
   22a70:	2000      	movs	r0, #0
   22a72:	2800      	cmp	r0, #0
   22a74:	d107      	bne.n	22a86 <_ZN20complex_dynamic_type3app17h4e9e33dbc88df202E+0x9e>
   22a76:	4826      	ldr	r0, [pc, #152]	@ (22b10 <_ZN20complex_dynamic_type3app17h4e9e33dbc88df202E+0x128>)
   22a78:	2105      	movs	r1, #5
   22a7a:	2207      	movs	r2, #7
   22a7c:	2400      	movs	r4, #0
   22a7e:	4623      	mov	r3, r4
   22a80:	df02      	svc	2
   22a82:	287f      	cmp	r0, #127	@ 0x7f
   22a84:	d80d      	bhi.n	22aa2 <_ZN20complex_dynamic_type3app17h4e9e33dbc88df202E+0xba>
   22a86:	462c      	mov	r4, r5
   22a88:	2c00      	cmp	r4, #0
   22a8a:	d021      	beq.n	22ad0 <_ZN20complex_dynamic_type3app17h4e9e33dbc88df202E+0xe8>
   22a8c:	2001      	movs	r0, #1
   22a8e:	9a06      	ldr	r2, [sp, #24]
   22a90:	7010      	strb	r0, [r2, #0]
   22a92:	6051      	str	r1, [r2, #4]
   22a94:	a817      	add	r0, sp, #92	@ 0x5c
   22a96:	7802      	ldrb	r2, [r0, #0]
   22a98:	2a02      	cmp	r2, #2
   22a9a:	d02e      	beq.n	22afa <_ZN20complex_dynamic_type3app17h4e9e33dbc88df202E+0x112>
   22a9c:	2107      	movs	r1, #7
   22a9e:	4630      	mov	r0, r6
   22aa0:	e029      	b.n	22af6 <_ZN20complex_dynamic_type3app17h4e9e33dbc88df202E+0x10e>
   22aa2:	a807      	add	r0, sp, #28
   22aa4:	7802      	ldrb	r2, [r0, #0]
   22aa6:	2a02      	cmp	r2, #2
   22aa8:	d003      	beq.n	22ab2 <_ZN20complex_dynamic_type3app17h4e9e33dbc88df202E+0xca>
   22aaa:	2105      	movs	r1, #5
   22aac:	4630      	mov	r0, r6
   22aae:	f008 fbe7 	bl	2b280 <_ZN9allow_pin12dynamic_type7unshare17hefa7cd45f9379b26E>
   22ab2:	a807      	add	r0, sp, #28
   22ab4:	9d02      	ldr	r5, [sp, #8]
   22ab6:	7005      	strb	r5, [r0, #0]
   22ab8:	a817      	add	r0, sp, #92	@ 0x5c
   22aba:	7802      	ldrb	r2, [r0, #0]
   22abc:	2a02      	cmp	r2, #2
   22abe:	d003      	beq.n	22ac8 <_ZN20complex_dynamic_type3app17h4e9e33dbc88df202E+0xe0>
   22ac0:	2107      	movs	r1, #7
   22ac2:	4630      	mov	r0, r6
   22ac4:	f008 fbdc 	bl	2b280 <_ZN9allow_pin12dynamic_type7unshare17hefa7cd45f9379b26E>
   22ac8:	a817      	add	r0, sp, #92	@ 0x5c
   22aca:	7005      	strb	r5, [r0, #0]
   22acc:	2c00      	cmp	r4, #0
   22ace:	d1dd      	bne.n	22a8c <_ZN20complex_dynamic_type3app17h4e9e33dbc88df202E+0xa4>
   22ad0:	a817      	add	r0, sp, #92	@ 0x5c
   22ad2:	7804      	ldrb	r4, [r0, #0]
   22ad4:	2c02      	cmp	r4, #2
   22ad6:	d001      	beq.n	22adc <_ZN20complex_dynamic_type3app17h4e9e33dbc88df202E+0xf4>
   22ad8:	480e      	ldr	r0, [pc, #56]	@ (22b14 <_ZN20complex_dynamic_type3app17h4e9e33dbc88df202E+0x12c>)
   22ada:	9005      	str	r0, [sp, #20]
   22adc:	9d06      	ldr	r5, [sp, #24]
   22ade:	1c68      	adds	r0, r5, #1
   22ae0:	222c      	movs	r2, #44	@ 0x2c
   22ae2:	9905      	ldr	r1, [sp, #20]
   22ae4:	f008 fdb1 	bl	2b64a <__aeabi_memcpy>
   22ae8:	2000      	movs	r0, #0
   22aea:	2c02      	cmp	r4, #2
   22aec:	7028      	strb	r0, [r5, #0]
   22aee:	d004      	beq.n	22afa <_ZN20complex_dynamic_type3app17h4e9e33dbc88df202E+0x112>
   22af0:	2107      	movs	r1, #7
   22af2:	4630      	mov	r0, r6
   22af4:	4622      	mov	r2, r4
   22af6:	f008 fbc3 	bl	2b280 <_ZN9allow_pin12dynamic_type7unshare17hefa7cd45f9379b26E>
   22afa:	a807      	add	r0, sp, #28
   22afc:	7802      	ldrb	r2, [r0, #0]
   22afe:	2a02      	cmp	r2, #2
   22b00:	d003      	beq.n	22b0a <_ZN20complex_dynamic_type3app17h4e9e33dbc88df202E+0x122>
   22b02:	2105      	movs	r1, #5
   22b04:	4630      	mov	r0, r6
   22b06:	f008 fbbb 	bl	2b280 <_ZN9allow_pin12dynamic_type7unshare17hefa7cd45f9379b26E>
   22b0a:	b027      	add	sp, #156	@ 0x9c
   22b0c:	bdf0      	pop	{r4, r5, r6, r7, pc}
   22b0e:	46c0      	nop			@ (mov r8, r8)
   22b10:	00001eac 	.word	0x00001eac
   22b14:	00010383 	.word	0x00010383

00022b18 <_ZN20complex_dynamic_type3app17h5555730902837eeeE>:
   22b18:	b5f0      	push	{r4, r5, r6, r7, lr}
   22b1a:	af03      	add	r7, sp, #12
   22b1c:	b0af      	sub	sp, #188	@ 0xbc
   22b1e:	9006      	str	r0, [sp, #24]
   22b20:	a807      	add	r0, sp, #28
   22b22:	2502      	movs	r5, #2
   22b24:	7005      	strb	r5, [r0, #0]
   22b26:	1c40      	adds	r0, r0, #1
   22b28:	9004      	str	r0, [sp, #16]
   22b2a:	2653      	movs	r6, #83	@ 0x53
   22b2c:	4632      	mov	r2, r6
   22b2e:	f008 fd8c 	bl	2b64a <__aeabi_memcpy>
   22b32:	ac1c      	add	r4, sp, #112	@ 0x70
   22b34:	1c60      	adds	r0, r4, #1
   22b36:	213a      	movs	r1, #58	@ 0x3a
   22b38:	9005      	str	r0, [sp, #20]
   22b3a:	9103      	str	r1, [sp, #12]
   22b3c:	f008 fbc5 	bl	2b2ca <__aeabi_memclr>
   22b40:	9502      	str	r5, [sp, #8]
   22b42:	7025      	strb	r5, [r4, #0]
   22b44:	2404      	movs	r4, #4
   22b46:	9600      	str	r6, [sp, #0]
   22b48:	9401      	str	r4, [sp, #4]
   22b4a:	a82b      	add	r0, sp, #172	@ 0xac
   22b4c:	4e3c      	ldr	r6, [pc, #240]	@ (22c40 <_ZN20complex_dynamic_type3app17h5555730902837eeeE+0x128>)
   22b4e:	2206      	movs	r2, #6
   22b50:	4631      	mov	r1, r6
   22b52:	9b04      	ldr	r3, [sp, #16]
   22b54:	f008 fba1 	bl	2b29a <_ZN9allow_pin13dynamic_allow17h33d41317a2da4f1cE>
   22b58:	982b      	ldr	r0, [sp, #172]	@ 0xac
   22b5a:	2802      	cmp	r0, #2
   22b5c:	d101      	bne.n	22b62 <_ZN20complex_dynamic_type3app17h5555730902837eeeE+0x4a>
   22b5e:	992c      	ldr	r1, [sp, #176]	@ 0xb0
   22b60:	e001      	b.n	22b66 <_ZN20complex_dynamic_type3app17h5555730902837eeeE+0x4e>
   22b62:	a907      	add	r1, sp, #28
   22b64:	700c      	strb	r4, [r1, #0]
   22b66:	2501      	movs	r5, #1
   22b68:	2802      	cmp	r0, #2
   22b6a:	d024      	beq.n	22bb6 <_ZN20complex_dynamic_type3app17h5555730902837eeeE+0x9e>
   22b6c:	a81c      	add	r0, sp, #112	@ 0x70
   22b6e:	7800      	ldrb	r0, [r0, #0]
   22b70:	2802      	cmp	r0, #2
   22b72:	d10e      	bne.n	22b92 <_ZN20complex_dynamic_type3app17h5555730902837eeeE+0x7a>
   22b74:	2403      	movs	r4, #3
   22b76:	9803      	ldr	r0, [sp, #12]
   22b78:	9000      	str	r0, [sp, #0]
   22b7a:	9401      	str	r4, [sp, #4]
   22b7c:	a82b      	add	r0, sp, #172	@ 0xac
   22b7e:	2207      	movs	r2, #7
   22b80:	4631      	mov	r1, r6
   22b82:	9b05      	ldr	r3, [sp, #20]
   22b84:	f008 fb89 	bl	2b29a <_ZN9allow_pin13dynamic_allow17h33d41317a2da4f1cE>
   22b88:	982b      	ldr	r0, [sp, #172]	@ 0xac
   22b8a:	2802      	cmp	r0, #2
   22b8c:	d106      	bne.n	22b9c <_ZN20complex_dynamic_type3app17h5555730902837eeeE+0x84>
   22b8e:	992c      	ldr	r1, [sp, #176]	@ 0xb0
   22b90:	e000      	b.n	22b94 <_ZN20complex_dynamic_type3app17h5555730902837eeeE+0x7c>
   22b92:	2103      	movs	r1, #3
   22b94:	4628      	mov	r0, r5
   22b96:	2800      	cmp	r0, #0
   22b98:	d005      	beq.n	22ba6 <_ZN20complex_dynamic_type3app17h5555730902837eeeE+0x8e>
   22b9a:	e00c      	b.n	22bb6 <_ZN20complex_dynamic_type3app17h5555730902837eeeE+0x9e>
   22b9c:	a81c      	add	r0, sp, #112	@ 0x70
   22b9e:	7004      	strb	r4, [r0, #0]
   22ba0:	2000      	movs	r0, #0
   22ba2:	2800      	cmp	r0, #0
   22ba4:	d107      	bne.n	22bb6 <_ZN20complex_dynamic_type3app17h5555730902837eeeE+0x9e>
   22ba6:	4826      	ldr	r0, [pc, #152]	@ (22c40 <_ZN20complex_dynamic_type3app17h5555730902837eeeE+0x128>)
   22ba8:	2106      	movs	r1, #6
   22baa:	2207      	movs	r2, #7
   22bac:	2400      	movs	r4, #0
   22bae:	4623      	mov	r3, r4
   22bb0:	df02      	svc	2
   22bb2:	287f      	cmp	r0, #127	@ 0x7f
   22bb4:	d80d      	bhi.n	22bd2 <_ZN20complex_dynamic_type3app17h5555730902837eeeE+0xba>
   22bb6:	462c      	mov	r4, r5
   22bb8:	2c00      	cmp	r4, #0
   22bba:	d021      	beq.n	22c00 <_ZN20complex_dynamic_type3app17h5555730902837eeeE+0xe8>
   22bbc:	2001      	movs	r0, #1
   22bbe:	9a06      	ldr	r2, [sp, #24]
   22bc0:	7010      	strb	r0, [r2, #0]
   22bc2:	6051      	str	r1, [r2, #4]
   22bc4:	a81c      	add	r0, sp, #112	@ 0x70
   22bc6:	7802      	ldrb	r2, [r0, #0]
   22bc8:	2a02      	cmp	r2, #2
   22bca:	d02e      	beq.n	22c2a <_ZN20complex_dynamic_type3app17h5555730902837eeeE+0x112>
   22bcc:	2107      	movs	r1, #7
   22bce:	4630      	mov	r0, r6
   22bd0:	e029      	b.n	22c26 <_ZN20complex_dynamic_type3app17h5555730902837eeeE+0x10e>
   22bd2:	a807      	add	r0, sp, #28
   22bd4:	7802      	ldrb	r2, [r0, #0]
   22bd6:	2a02      	cmp	r2, #2
   22bd8:	d003      	beq.n	22be2 <_ZN20complex_dynamic_type3app17h5555730902837eeeE+0xca>
   22bda:	2106      	movs	r1, #6
   22bdc:	4630      	mov	r0, r6
   22bde:	f008 fb4f 	bl	2b280 <_ZN9allow_pin12dynamic_type7unshare17hefa7cd45f9379b26E>
   22be2:	a807      	add	r0, sp, #28
   22be4:	9d02      	ldr	r5, [sp, #8]
   22be6:	7005      	strb	r5, [r0, #0]
   22be8:	a81c      	add	r0, sp, #112	@ 0x70
   22bea:	7802      	ldrb	r2, [r0, #0]
   22bec:	2a02      	cmp	r2, #2
   22bee:	d003      	beq.n	22bf8 <_ZN20complex_dynamic_type3app17h5555730902837eeeE+0xe0>
   22bf0:	2107      	movs	r1, #7
   22bf2:	4630      	mov	r0, r6
   22bf4:	f008 fb44 	bl	2b280 <_ZN9allow_pin12dynamic_type7unshare17hefa7cd45f9379b26E>
   22bf8:	a81c      	add	r0, sp, #112	@ 0x70
   22bfa:	7005      	strb	r5, [r0, #0]
   22bfc:	2c00      	cmp	r4, #0
   22bfe:	d1dd      	bne.n	22bbc <_ZN20complex_dynamic_type3app17h5555730902837eeeE+0xa4>
   22c00:	a81c      	add	r0, sp, #112	@ 0x70
   22c02:	7804      	ldrb	r4, [r0, #0]
   22c04:	2c02      	cmp	r4, #2
   22c06:	d001      	beq.n	22c0c <_ZN20complex_dynamic_type3app17h5555730902837eeeE+0xf4>
   22c08:	480e      	ldr	r0, [pc, #56]	@ (22c44 <_ZN20complex_dynamic_type3app17h5555730902837eeeE+0x12c>)
   22c0a:	9005      	str	r0, [sp, #20]
   22c0c:	9d06      	ldr	r5, [sp, #24]
   22c0e:	1c68      	adds	r0, r5, #1
   22c10:	223a      	movs	r2, #58	@ 0x3a
   22c12:	9905      	ldr	r1, [sp, #20]
   22c14:	f008 fd19 	bl	2b64a <__aeabi_memcpy>
   22c18:	2000      	movs	r0, #0
   22c1a:	2c02      	cmp	r4, #2
   22c1c:	7028      	strb	r0, [r5, #0]
   22c1e:	d004      	beq.n	22c2a <_ZN20complex_dynamic_type3app17h5555730902837eeeE+0x112>
   22c20:	2107      	movs	r1, #7
   22c22:	4630      	mov	r0, r6
   22c24:	4622      	mov	r2, r4
   22c26:	f008 fb2b 	bl	2b280 <_ZN9allow_pin12dynamic_type7unshare17hefa7cd45f9379b26E>
   22c2a:	a807      	add	r0, sp, #28
   22c2c:	7802      	ldrb	r2, [r0, #0]
   22c2e:	2a02      	cmp	r2, #2
   22c30:	d003      	beq.n	22c3a <_ZN20complex_dynamic_type3app17h5555730902837eeeE+0x122>
   22c32:	2106      	movs	r1, #6
   22c34:	4630      	mov	r0, r6
   22c36:	f008 fb23 	bl	2b280 <_ZN9allow_pin12dynamic_type7unshare17hefa7cd45f9379b26E>
   22c3a:	b02f      	add	sp, #188	@ 0xbc
   22c3c:	bdf0      	pop	{r4, r5, r6, r7, pc}
   22c3e:	46c0      	nop			@ (mov r8, r8)
   22c40:	00002645 	.word	0x00002645
   22c44:	000109cb 	.word	0x000109cb

00022c48 <_ZN20complex_dynamic_type3app17h58d2688bb64ffa8aE>:
   22c48:	b5f0      	push	{r4, r5, r6, r7, lr}
   22c4a:	af03      	add	r7, sp, #12
   22c4c:	b0af      	sub	sp, #188	@ 0xbc
   22c4e:	9007      	str	r0, [sp, #28]
   22c50:	a808      	add	r0, sp, #32
   22c52:	2502      	movs	r5, #2
   22c54:	7005      	strb	r5, [r0, #0]
   22c56:	1c40      	adds	r0, r0, #1
   22c58:	9005      	str	r0, [sp, #20]
   22c5a:	264f      	movs	r6, #79	@ 0x4f
   22c5c:	4632      	mov	r2, r6
   22c5e:	f008 fcf4 	bl	2b64a <__aeabi_memcpy>
   22c62:	ac1c      	add	r4, sp, #112	@ 0x70
   22c64:	1c60      	adds	r0, r4, #1
   22c66:	213b      	movs	r1, #59	@ 0x3b
   22c68:	9006      	str	r0, [sp, #24]
   22c6a:	9104      	str	r1, [sp, #16]
   22c6c:	f008 fb2d 	bl	2b2ca <__aeabi_memclr>
   22c70:	9503      	str	r5, [sp, #12]
   22c72:	7025      	strb	r5, [r4, #0]
   22c74:	2404      	movs	r4, #4
   22c76:	9600      	str	r6, [sp, #0]
   22c78:	9401      	str	r4, [sp, #4]
   22c7a:	a82b      	add	r0, sp, #172	@ 0xac
   22c7c:	4e3c      	ldr	r6, [pc, #240]	@ (22d70 <_ZN20complex_dynamic_type3app17h58d2688bb64ffa8aE+0x128>)
   22c7e:	2208      	movs	r2, #8
   22c80:	4631      	mov	r1, r6
   22c82:	9b05      	ldr	r3, [sp, #20]
   22c84:	f008 fb09 	bl	2b29a <_ZN9allow_pin13dynamic_allow17h33d41317a2da4f1cE>
   22c88:	982b      	ldr	r0, [sp, #172]	@ 0xac
   22c8a:	2802      	cmp	r0, #2
   22c8c:	d101      	bne.n	22c92 <_ZN20complex_dynamic_type3app17h58d2688bb64ffa8aE+0x4a>
   22c8e:	992c      	ldr	r1, [sp, #176]	@ 0xb0
   22c90:	e001      	b.n	22c96 <_ZN20complex_dynamic_type3app17h58d2688bb64ffa8aE+0x4e>
   22c92:	a908      	add	r1, sp, #32
   22c94:	700c      	strb	r4, [r1, #0]
   22c96:	2501      	movs	r5, #1
   22c98:	2802      	cmp	r0, #2
   22c9a:	d024      	beq.n	22ce6 <_ZN20complex_dynamic_type3app17h58d2688bb64ffa8aE+0x9e>
   22c9c:	a81c      	add	r0, sp, #112	@ 0x70
   22c9e:	7800      	ldrb	r0, [r0, #0]
   22ca0:	2802      	cmp	r0, #2
   22ca2:	d10e      	bne.n	22cc2 <_ZN20complex_dynamic_type3app17h58d2688bb64ffa8aE+0x7a>
   22ca4:	2403      	movs	r4, #3
   22ca6:	9804      	ldr	r0, [sp, #16]
   22ca8:	9000      	str	r0, [sp, #0]
   22caa:	9401      	str	r4, [sp, #4]
   22cac:	a82b      	add	r0, sp, #172	@ 0xac
   22cae:	2205      	movs	r2, #5
   22cb0:	4631      	mov	r1, r6
   22cb2:	9b06      	ldr	r3, [sp, #24]
   22cb4:	f008 faf1 	bl	2b29a <_ZN9allow_pin13dynamic_allow17h33d41317a2da4f1cE>
   22cb8:	982b      	ldr	r0, [sp, #172]	@ 0xac
   22cba:	2802      	cmp	r0, #2
   22cbc:	d106      	bne.n	22ccc <_ZN20complex_dynamic_type3app17h58d2688bb64ffa8aE+0x84>
   22cbe:	992c      	ldr	r1, [sp, #176]	@ 0xb0
   22cc0:	e000      	b.n	22cc4 <_ZN20complex_dynamic_type3app17h58d2688bb64ffa8aE+0x7c>
   22cc2:	2103      	movs	r1, #3
   22cc4:	4628      	mov	r0, r5
   22cc6:	2800      	cmp	r0, #0
   22cc8:	d005      	beq.n	22cd6 <_ZN20complex_dynamic_type3app17h58d2688bb64ffa8aE+0x8e>
   22cca:	e00c      	b.n	22ce6 <_ZN20complex_dynamic_type3app17h58d2688bb64ffa8aE+0x9e>
   22ccc:	a81c      	add	r0, sp, #112	@ 0x70
   22cce:	7004      	strb	r4, [r0, #0]
   22cd0:	2000      	movs	r0, #0
   22cd2:	2800      	cmp	r0, #0
   22cd4:	d107      	bne.n	22ce6 <_ZN20complex_dynamic_type3app17h58d2688bb64ffa8aE+0x9e>
   22cd6:	4826      	ldr	r0, [pc, #152]	@ (22d70 <_ZN20complex_dynamic_type3app17h58d2688bb64ffa8aE+0x128>)
   22cd8:	2108      	movs	r1, #8
   22cda:	2205      	movs	r2, #5
   22cdc:	2400      	movs	r4, #0
   22cde:	4623      	mov	r3, r4
   22ce0:	df02      	svc	2
   22ce2:	287f      	cmp	r0, #127	@ 0x7f
   22ce4:	d80d      	bhi.n	22d02 <_ZN20complex_dynamic_type3app17h58d2688bb64ffa8aE+0xba>
   22ce6:	462c      	mov	r4, r5
   22ce8:	2c00      	cmp	r4, #0
   22cea:	d021      	beq.n	22d30 <_ZN20complex_dynamic_type3app17h58d2688bb64ffa8aE+0xe8>
   22cec:	2001      	movs	r0, #1
   22cee:	9a07      	ldr	r2, [sp, #28]
   22cf0:	7010      	strb	r0, [r2, #0]
   22cf2:	6051      	str	r1, [r2, #4]
   22cf4:	a81c      	add	r0, sp, #112	@ 0x70
   22cf6:	7802      	ldrb	r2, [r0, #0]
   22cf8:	2a02      	cmp	r2, #2
   22cfa:	d02e      	beq.n	22d5a <_ZN20complex_dynamic_type3app17h58d2688bb64ffa8aE+0x112>
   22cfc:	2105      	movs	r1, #5
   22cfe:	4630      	mov	r0, r6
   22d00:	e029      	b.n	22d56 <_ZN20complex_dynamic_type3app17h58d2688bb64ffa8aE+0x10e>
   22d02:	a808      	add	r0, sp, #32
   22d04:	7802      	ldrb	r2, [r0, #0]
   22d06:	2a02      	cmp	r2, #2
   22d08:	d003      	beq.n	22d12 <_ZN20complex_dynamic_type3app17h58d2688bb64ffa8aE+0xca>
   22d0a:	2108      	movs	r1, #8
   22d0c:	4630      	mov	r0, r6
   22d0e:	f008 fab7 	bl	2b280 <_ZN9allow_pin12dynamic_type7unshare17hefa7cd45f9379b26E>
   22d12:	a808      	add	r0, sp, #32
   22d14:	9d03      	ldr	r5, [sp, #12]
   22d16:	7005      	strb	r5, [r0, #0]
   22d18:	a81c      	add	r0, sp, #112	@ 0x70
   22d1a:	7802      	ldrb	r2, [r0, #0]
   22d1c:	2a02      	cmp	r2, #2
   22d1e:	d003      	beq.n	22d28 <_ZN20complex_dynamic_type3app17h58d2688bb64ffa8aE+0xe0>
   22d20:	2105      	movs	r1, #5
   22d22:	4630      	mov	r0, r6
   22d24:	f008 faac 	bl	2b280 <_ZN9allow_pin12dynamic_type7unshare17hefa7cd45f9379b26E>
   22d28:	a81c      	add	r0, sp, #112	@ 0x70
   22d2a:	7005      	strb	r5, [r0, #0]
   22d2c:	2c00      	cmp	r4, #0
   22d2e:	d1dd      	bne.n	22cec <_ZN20complex_dynamic_type3app17h58d2688bb64ffa8aE+0xa4>
   22d30:	a81c      	add	r0, sp, #112	@ 0x70
   22d32:	7804      	ldrb	r4, [r0, #0]
   22d34:	2c02      	cmp	r4, #2
   22d36:	d001      	beq.n	22d3c <_ZN20complex_dynamic_type3app17h58d2688bb64ffa8aE+0xf4>
   22d38:	480e      	ldr	r0, [pc, #56]	@ (22d74 <_ZN20complex_dynamic_type3app17h58d2688bb64ffa8aE+0x12c>)
   22d3a:	9006      	str	r0, [sp, #24]
   22d3c:	9d07      	ldr	r5, [sp, #28]
   22d3e:	1c68      	adds	r0, r5, #1
   22d40:	223b      	movs	r2, #59	@ 0x3b
   22d42:	9906      	ldr	r1, [sp, #24]
   22d44:	f008 fc81 	bl	2b64a <__aeabi_memcpy>
   22d48:	2000      	movs	r0, #0
   22d4a:	2c02      	cmp	r4, #2
   22d4c:	7028      	strb	r0, [r5, #0]
   22d4e:	d004      	beq.n	22d5a <_ZN20complex_dynamic_type3app17h58d2688bb64ffa8aE+0x112>
   22d50:	2105      	movs	r1, #5
   22d52:	4630      	mov	r0, r6
   22d54:	4622      	mov	r2, r4
   22d56:	f008 fa93 	bl	2b280 <_ZN9allow_pin12dynamic_type7unshare17hefa7cd45f9379b26E>
   22d5a:	a808      	add	r0, sp, #32
   22d5c:	7802      	ldrb	r2, [r0, #0]
   22d5e:	2a02      	cmp	r2, #2
   22d60:	d003      	beq.n	22d6a <_ZN20complex_dynamic_type3app17h58d2688bb64ffa8aE+0x122>
   22d62:	2108      	movs	r1, #8
   22d64:	4630      	mov	r0, r6
   22d66:	f008 fa8b 	bl	2b280 <_ZN9allow_pin12dynamic_type7unshare17hefa7cd45f9379b26E>
   22d6a:	b02f      	add	sp, #188	@ 0xbc
   22d6c:	bdf0      	pop	{r4, r5, r6, r7, pc}
   22d6e:	46c0      	nop			@ (mov r8, r8)
   22d70:	00000a06 	.word	0x00000a06
   22d74:	00010750 	.word	0x00010750

00022d78 <_ZN20complex_dynamic_type3app17h5be3399cfd1d1ed7E>:
   22d78:	b5f0      	push	{r4, r5, r6, r7, lr}
   22d7a:	af03      	add	r7, sp, #12
   22d7c:	b0a5      	sub	sp, #148	@ 0x94
   22d7e:	9007      	str	r0, [sp, #28]
   22d80:	a808      	add	r0, sp, #32
   22d82:	2502      	movs	r5, #2
   22d84:	7005      	strb	r5, [r0, #0]
   22d86:	1c40      	adds	r0, r0, #1
   22d88:	9005      	str	r0, [sp, #20]
   22d8a:	263b      	movs	r6, #59	@ 0x3b
   22d8c:	4632      	mov	r2, r6
   22d8e:	f008 fc5c 	bl	2b64a <__aeabi_memcpy>
   22d92:	ac17      	add	r4, sp, #92	@ 0x5c
   22d94:	1c60      	adds	r0, r4, #1
   22d96:	2127      	movs	r1, #39	@ 0x27
   22d98:	9006      	str	r0, [sp, #24]
   22d9a:	9104      	str	r1, [sp, #16]
   22d9c:	f008 fa95 	bl	2b2ca <__aeabi_memclr>
   22da0:	9503      	str	r5, [sp, #12]
   22da2:	7025      	strb	r5, [r4, #0]
   22da4:	2404      	movs	r4, #4
   22da6:	9600      	str	r6, [sp, #0]
   22da8:	9401      	str	r4, [sp, #4]
   22daa:	a821      	add	r0, sp, #132	@ 0x84
   22dac:	493b      	ldr	r1, [pc, #236]	@ (22e9c <_ZN20complex_dynamic_type3app17h5be3399cfd1d1ed7E+0x124>)
   22dae:	2205      	movs	r2, #5
   22db0:	9b05      	ldr	r3, [sp, #20]
   22db2:	f008 fa72 	bl	2b29a <_ZN9allow_pin13dynamic_allow17h33d41317a2da4f1cE>
   22db6:	9821      	ldr	r0, [sp, #132]	@ 0x84
   22db8:	2802      	cmp	r0, #2
   22dba:	d101      	bne.n	22dc0 <_ZN20complex_dynamic_type3app17h5be3399cfd1d1ed7E+0x48>
   22dbc:	9922      	ldr	r1, [sp, #136]	@ 0x88
   22dbe:	e001      	b.n	22dc4 <_ZN20complex_dynamic_type3app17h5be3399cfd1d1ed7E+0x4c>
   22dc0:	a908      	add	r1, sp, #32
   22dc2:	700c      	strb	r4, [r1, #0]
   22dc4:	2601      	movs	r6, #1
   22dc6:	2802      	cmp	r0, #2
   22dc8:	d024      	beq.n	22e14 <_ZN20complex_dynamic_type3app17h5be3399cfd1d1ed7E+0x9c>
   22dca:	a817      	add	r0, sp, #92	@ 0x5c
   22dcc:	7800      	ldrb	r0, [r0, #0]
   22dce:	2802      	cmp	r0, #2
   22dd0:	d10e      	bne.n	22df0 <_ZN20complex_dynamic_type3app17h5be3399cfd1d1ed7E+0x78>
   22dd2:	2503      	movs	r5, #3
   22dd4:	9804      	ldr	r0, [sp, #16]
   22dd6:	9000      	str	r0, [sp, #0]
   22dd8:	9501      	str	r5, [sp, #4]
   22dda:	a821      	add	r0, sp, #132	@ 0x84
   22ddc:	492f      	ldr	r1, [pc, #188]	@ (22e9c <_ZN20complex_dynamic_type3app17h5be3399cfd1d1ed7E+0x124>)
   22dde:	462a      	mov	r2, r5
   22de0:	9b06      	ldr	r3, [sp, #24]
   22de2:	f008 fa5a 	bl	2b29a <_ZN9allow_pin13dynamic_allow17h33d41317a2da4f1cE>
   22de6:	9821      	ldr	r0, [sp, #132]	@ 0x84
   22de8:	2802      	cmp	r0, #2
   22dea:	d106      	bne.n	22dfa <_ZN20complex_dynamic_type3app17h5be3399cfd1d1ed7E+0x82>
   22dec:	9922      	ldr	r1, [sp, #136]	@ 0x88
   22dee:	e000      	b.n	22df2 <_ZN20complex_dynamic_type3app17h5be3399cfd1d1ed7E+0x7a>
   22df0:	2103      	movs	r1, #3
   22df2:	4630      	mov	r0, r6
   22df4:	2800      	cmp	r0, #0
   22df6:	d005      	beq.n	22e04 <_ZN20complex_dynamic_type3app17h5be3399cfd1d1ed7E+0x8c>
   22df8:	e00c      	b.n	22e14 <_ZN20complex_dynamic_type3app17h5be3399cfd1d1ed7E+0x9c>
   22dfa:	a817      	add	r0, sp, #92	@ 0x5c
   22dfc:	7005      	strb	r5, [r0, #0]
   22dfe:	2000      	movs	r0, #0
   22e00:	2800      	cmp	r0, #0
   22e02:	d107      	bne.n	22e14 <_ZN20complex_dynamic_type3app17h5be3399cfd1d1ed7E+0x9c>
   22e04:	4825      	ldr	r0, [pc, #148]	@ (22e9c <_ZN20complex_dynamic_type3app17h5be3399cfd1d1ed7E+0x124>)
   22e06:	2105      	movs	r1, #5
   22e08:	2203      	movs	r2, #3
   22e0a:	2400      	movs	r4, #0
   22e0c:	4623      	mov	r3, r4
   22e0e:	df02      	svc	2
   22e10:	287f      	cmp	r0, #127	@ 0x7f
   22e12:	d80d      	bhi.n	22e30 <_ZN20complex_dynamic_type3app17h5be3399cfd1d1ed7E+0xb8>
   22e14:	4634      	mov	r4, r6
   22e16:	2c00      	cmp	r4, #0
   22e18:	d021      	beq.n	22e5e <_ZN20complex_dynamic_type3app17h5be3399cfd1d1ed7E+0xe6>
   22e1a:	2001      	movs	r0, #1
   22e1c:	9a07      	ldr	r2, [sp, #28]
   22e1e:	7010      	strb	r0, [r2, #0]
   22e20:	6051      	str	r1, [r2, #4]
   22e22:	a817      	add	r0, sp, #92	@ 0x5c
   22e24:	7802      	ldrb	r2, [r0, #0]
   22e26:	2a02      	cmp	r2, #2
   22e28:	d02e      	beq.n	22e88 <_ZN20complex_dynamic_type3app17h5be3399cfd1d1ed7E+0x110>
   22e2a:	2103      	movs	r1, #3
   22e2c:	481b      	ldr	r0, [pc, #108]	@ (22e9c <_ZN20complex_dynamic_type3app17h5be3399cfd1d1ed7E+0x124>)
   22e2e:	e029      	b.n	22e84 <_ZN20complex_dynamic_type3app17h5be3399cfd1d1ed7E+0x10c>
   22e30:	a808      	add	r0, sp, #32
   22e32:	7802      	ldrb	r2, [r0, #0]
   22e34:	2a02      	cmp	r2, #2
   22e36:	d003      	beq.n	22e40 <_ZN20complex_dynamic_type3app17h5be3399cfd1d1ed7E+0xc8>
   22e38:	2105      	movs	r1, #5
   22e3a:	4818      	ldr	r0, [pc, #96]	@ (22e9c <_ZN20complex_dynamic_type3app17h5be3399cfd1d1ed7E+0x124>)
   22e3c:	f008 fa20 	bl	2b280 <_ZN9allow_pin12dynamic_type7unshare17hefa7cd45f9379b26E>
   22e40:	a808      	add	r0, sp, #32
   22e42:	9d03      	ldr	r5, [sp, #12]
   22e44:	7005      	strb	r5, [r0, #0]
   22e46:	a817      	add	r0, sp, #92	@ 0x5c
   22e48:	7802      	ldrb	r2, [r0, #0]
   22e4a:	2a02      	cmp	r2, #2
   22e4c:	d003      	beq.n	22e56 <_ZN20complex_dynamic_type3app17h5be3399cfd1d1ed7E+0xde>
   22e4e:	2103      	movs	r1, #3
   22e50:	4812      	ldr	r0, [pc, #72]	@ (22e9c <_ZN20complex_dynamic_type3app17h5be3399cfd1d1ed7E+0x124>)
   22e52:	f008 fa15 	bl	2b280 <_ZN9allow_pin12dynamic_type7unshare17hefa7cd45f9379b26E>
   22e56:	a817      	add	r0, sp, #92	@ 0x5c
   22e58:	7005      	strb	r5, [r0, #0]
   22e5a:	2c00      	cmp	r4, #0
   22e5c:	d1dd      	bne.n	22e1a <_ZN20complex_dynamic_type3app17h5be3399cfd1d1ed7E+0xa2>
   22e5e:	a817      	add	r0, sp, #92	@ 0x5c
   22e60:	7804      	ldrb	r4, [r0, #0]
   22e62:	2c02      	cmp	r4, #2
   22e64:	d001      	beq.n	22e6a <_ZN20complex_dynamic_type3app17h5be3399cfd1d1ed7E+0xf2>
   22e66:	480e      	ldr	r0, [pc, #56]	@ (22ea0 <_ZN20complex_dynamic_type3app17h5be3399cfd1d1ed7E+0x128>)
   22e68:	9006      	str	r0, [sp, #24]
   22e6a:	9d07      	ldr	r5, [sp, #28]
   22e6c:	1c68      	adds	r0, r5, #1
   22e6e:	2227      	movs	r2, #39	@ 0x27
   22e70:	9906      	ldr	r1, [sp, #24]
   22e72:	f008 fbea 	bl	2b64a <__aeabi_memcpy>
   22e76:	2000      	movs	r0, #0
   22e78:	2c02      	cmp	r4, #2
   22e7a:	7028      	strb	r0, [r5, #0]
   22e7c:	d004      	beq.n	22e88 <_ZN20complex_dynamic_type3app17h5be3399cfd1d1ed7E+0x110>
   22e7e:	2103      	movs	r1, #3
   22e80:	4806      	ldr	r0, [pc, #24]	@ (22e9c <_ZN20complex_dynamic_type3app17h5be3399cfd1d1ed7E+0x124>)
   22e82:	4622      	mov	r2, r4
   22e84:	f008 f9fc 	bl	2b280 <_ZN9allow_pin12dynamic_type7unshare17hefa7cd45f9379b26E>
   22e88:	a808      	add	r0, sp, #32
   22e8a:	7802      	ldrb	r2, [r0, #0]
   22e8c:	2a02      	cmp	r2, #2
   22e8e:	d003      	beq.n	22e98 <_ZN20complex_dynamic_type3app17h5be3399cfd1d1ed7E+0x120>
   22e90:	2105      	movs	r1, #5
   22e92:	4802      	ldr	r0, [pc, #8]	@ (22e9c <_ZN20complex_dynamic_type3app17h5be3399cfd1d1ed7E+0x124>)
   22e94:	f008 f9f4 	bl	2b280 <_ZN9allow_pin12dynamic_type7unshare17hefa7cd45f9379b26E>
   22e98:	b025      	add	sp, #148	@ 0x94
   22e9a:	bdf0      	pop	{r4, r5, r6, r7, pc}
   22e9c:	00000bd3 	.word	0x00000bd3
   22ea0:	00010339 	.word	0x00010339

00022ea4 <_ZN20complex_dynamic_type3app17h5d82302347cb25fdE>:
   22ea4:	b5f0      	push	{r4, r5, r6, r7, lr}
   22ea6:	af03      	add	r7, sp, #12
   22ea8:	b0a9      	sub	sp, #164	@ 0xa4
   22eaa:	9006      	str	r0, [sp, #24]
   22eac:	a807      	add	r0, sp, #28
   22eae:	2502      	movs	r5, #2
   22eb0:	7005      	strb	r5, [r0, #0]
   22eb2:	1c40      	adds	r0, r0, #1
   22eb4:	9004      	str	r0, [sp, #16]
   22eb6:	2622      	movs	r6, #34	@ 0x22
   22eb8:	4632      	mov	r2, r6
   22eba:	f008 fbc6 	bl	2b64a <__aeabi_memcpy>
   22ebe:	ac10      	add	r4, sp, #64	@ 0x40
   22ec0:	1c60      	adds	r0, r4, #1
   22ec2:	2151      	movs	r1, #81	@ 0x51
   22ec4:	9005      	str	r0, [sp, #20]
   22ec6:	9103      	str	r1, [sp, #12]
   22ec8:	f008 f9ff 	bl	2b2ca <__aeabi_memclr>
   22ecc:	9502      	str	r5, [sp, #8]
   22ece:	7025      	strb	r5, [r4, #0]
   22ed0:	2404      	movs	r4, #4
   22ed2:	9600      	str	r6, [sp, #0]
   22ed4:	9401      	str	r4, [sp, #4]
   22ed6:	a825      	add	r0, sp, #148	@ 0x94
   22ed8:	4e3c      	ldr	r6, [pc, #240]	@ (22fcc <_ZN20complex_dynamic_type3app17h5d82302347cb25fdE+0x128>)
   22eda:	2209      	movs	r2, #9
   22edc:	4631      	mov	r1, r6
   22ede:	9b04      	ldr	r3, [sp, #16]
   22ee0:	f008 f9db 	bl	2b29a <_ZN9allow_pin13dynamic_allow17h33d41317a2da4f1cE>
   22ee4:	9825      	ldr	r0, [sp, #148]	@ 0x94
   22ee6:	2802      	cmp	r0, #2
   22ee8:	d101      	bne.n	22eee <_ZN20complex_dynamic_type3app17h5d82302347cb25fdE+0x4a>
   22eea:	9926      	ldr	r1, [sp, #152]	@ 0x98
   22eec:	e001      	b.n	22ef2 <_ZN20complex_dynamic_type3app17h5d82302347cb25fdE+0x4e>
   22eee:	a907      	add	r1, sp, #28
   22ef0:	700c      	strb	r4, [r1, #0]
   22ef2:	2501      	movs	r5, #1
   22ef4:	2802      	cmp	r0, #2
   22ef6:	d024      	beq.n	22f42 <_ZN20complex_dynamic_type3app17h5d82302347cb25fdE+0x9e>
   22ef8:	a810      	add	r0, sp, #64	@ 0x40
   22efa:	7800      	ldrb	r0, [r0, #0]
   22efc:	2802      	cmp	r0, #2
   22efe:	d10e      	bne.n	22f1e <_ZN20complex_dynamic_type3app17h5d82302347cb25fdE+0x7a>
   22f00:	2403      	movs	r4, #3
   22f02:	9803      	ldr	r0, [sp, #12]
   22f04:	9000      	str	r0, [sp, #0]
   22f06:	9401      	str	r4, [sp, #4]
   22f08:	a825      	add	r0, sp, #148	@ 0x94
   22f0a:	2209      	movs	r2, #9
   22f0c:	4631      	mov	r1, r6
   22f0e:	9b05      	ldr	r3, [sp, #20]
   22f10:	f008 f9c3 	bl	2b29a <_ZN9allow_pin13dynamic_allow17h33d41317a2da4f1cE>
   22f14:	9825      	ldr	r0, [sp, #148]	@ 0x94
   22f16:	2802      	cmp	r0, #2
   22f18:	d106      	bne.n	22f28 <_ZN20complex_dynamic_type3app17h5d82302347cb25fdE+0x84>
   22f1a:	9926      	ldr	r1, [sp, #152]	@ 0x98
   22f1c:	e000      	b.n	22f20 <_ZN20complex_dynamic_type3app17h5d82302347cb25fdE+0x7c>
   22f1e:	2103      	movs	r1, #3
   22f20:	4628      	mov	r0, r5
   22f22:	2800      	cmp	r0, #0
   22f24:	d005      	beq.n	22f32 <_ZN20complex_dynamic_type3app17h5d82302347cb25fdE+0x8e>
   22f26:	e00c      	b.n	22f42 <_ZN20complex_dynamic_type3app17h5d82302347cb25fdE+0x9e>
   22f28:	a810      	add	r0, sp, #64	@ 0x40
   22f2a:	7004      	strb	r4, [r0, #0]
   22f2c:	2000      	movs	r0, #0
   22f2e:	2800      	cmp	r0, #0
   22f30:	d107      	bne.n	22f42 <_ZN20complex_dynamic_type3app17h5d82302347cb25fdE+0x9e>
   22f32:	4826      	ldr	r0, [pc, #152]	@ (22fcc <_ZN20complex_dynamic_type3app17h5d82302347cb25fdE+0x128>)
   22f34:	2109      	movs	r1, #9
   22f36:	2400      	movs	r4, #0
   22f38:	460a      	mov	r2, r1
   22f3a:	4623      	mov	r3, r4
   22f3c:	df02      	svc	2
   22f3e:	287f      	cmp	r0, #127	@ 0x7f
   22f40:	d80d      	bhi.n	22f5e <_ZN20complex_dynamic_type3app17h5d82302347cb25fdE+0xba>
   22f42:	462c      	mov	r4, r5
   22f44:	2c00      	cmp	r4, #0
   22f46:	d021      	beq.n	22f8c <_ZN20complex_dynamic_type3app17h5d82302347cb25fdE+0xe8>
   22f48:	2001      	movs	r0, #1
   22f4a:	9a06      	ldr	r2, [sp, #24]
   22f4c:	7010      	strb	r0, [r2, #0]
   22f4e:	6051      	str	r1, [r2, #4]
   22f50:	a810      	add	r0, sp, #64	@ 0x40
   22f52:	7802      	ldrb	r2, [r0, #0]
   22f54:	2a02      	cmp	r2, #2
   22f56:	d02e      	beq.n	22fb6 <_ZN20complex_dynamic_type3app17h5d82302347cb25fdE+0x112>
   22f58:	2109      	movs	r1, #9
   22f5a:	4630      	mov	r0, r6
   22f5c:	e029      	b.n	22fb2 <_ZN20complex_dynamic_type3app17h5d82302347cb25fdE+0x10e>
   22f5e:	a807      	add	r0, sp, #28
   22f60:	7802      	ldrb	r2, [r0, #0]
   22f62:	2a02      	cmp	r2, #2
   22f64:	d003      	beq.n	22f6e <_ZN20complex_dynamic_type3app17h5d82302347cb25fdE+0xca>
   22f66:	2109      	movs	r1, #9
   22f68:	4630      	mov	r0, r6
   22f6a:	f008 f989 	bl	2b280 <_ZN9allow_pin12dynamic_type7unshare17hefa7cd45f9379b26E>
   22f6e:	a807      	add	r0, sp, #28
   22f70:	9d02      	ldr	r5, [sp, #8]
   22f72:	7005      	strb	r5, [r0, #0]
   22f74:	a810      	add	r0, sp, #64	@ 0x40
   22f76:	7802      	ldrb	r2, [r0, #0]
   22f78:	2a02      	cmp	r2, #2
   22f7a:	d003      	beq.n	22f84 <_ZN20complex_dynamic_type3app17h5d82302347cb25fdE+0xe0>
   22f7c:	2109      	movs	r1, #9
   22f7e:	4630      	mov	r0, r6
   22f80:	f008 f97e 	bl	2b280 <_ZN9allow_pin12dynamic_type7unshare17hefa7cd45f9379b26E>
   22f84:	a810      	add	r0, sp, #64	@ 0x40
   22f86:	7005      	strb	r5, [r0, #0]
   22f88:	2c00      	cmp	r4, #0
   22f8a:	d1dd      	bne.n	22f48 <_ZN20complex_dynamic_type3app17h5d82302347cb25fdE+0xa4>
   22f8c:	a810      	add	r0, sp, #64	@ 0x40
   22f8e:	7804      	ldrb	r4, [r0, #0]
   22f90:	2c02      	cmp	r4, #2
   22f92:	d001      	beq.n	22f98 <_ZN20complex_dynamic_type3app17h5d82302347cb25fdE+0xf4>
   22f94:	480e      	ldr	r0, [pc, #56]	@ (22fd0 <_ZN20complex_dynamic_type3app17h5d82302347cb25fdE+0x12c>)
   22f96:	9005      	str	r0, [sp, #20]
   22f98:	9d06      	ldr	r5, [sp, #24]
   22f9a:	1c68      	adds	r0, r5, #1
   22f9c:	2251      	movs	r2, #81	@ 0x51
   22f9e:	9905      	ldr	r1, [sp, #20]
   22fa0:	f008 fb53 	bl	2b64a <__aeabi_memcpy>
   22fa4:	2000      	movs	r0, #0
   22fa6:	2c02      	cmp	r4, #2
   22fa8:	7028      	strb	r0, [r5, #0]
   22faa:	d004      	beq.n	22fb6 <_ZN20complex_dynamic_type3app17h5d82302347cb25fdE+0x112>
   22fac:	2109      	movs	r1, #9
   22fae:	4630      	mov	r0, r6
   22fb0:	4622      	mov	r2, r4
   22fb2:	f008 f965 	bl	2b280 <_ZN9allow_pin12dynamic_type7unshare17hefa7cd45f9379b26E>
   22fb6:	a807      	add	r0, sp, #28
   22fb8:	7802      	ldrb	r2, [r0, #0]
   22fba:	2a02      	cmp	r2, #2
   22fbc:	d003      	beq.n	22fc6 <_ZN20complex_dynamic_type3app17h5d82302347cb25fdE+0x122>
   22fbe:	2109      	movs	r1, #9
   22fc0:	4630      	mov	r0, r6
   22fc2:	f008 f95d 	bl	2b280 <_ZN9allow_pin12dynamic_type7unshare17hefa7cd45f9379b26E>
   22fc6:	b029      	add	sp, #164	@ 0xa4
   22fc8:	bdf0      	pop	{r4, r5, r6, r7, pc}
   22fca:	46c0      	nop			@ (mov r8, r8)
   22fcc:	0000055e 	.word	0x0000055e
   22fd0:	0001022b 	.word	0x0001022b

00022fd4 <_ZN20complex_dynamic_type3app17h5e9eef4e9789ca2dE>:
   22fd4:	b5f0      	push	{r4, r5, r6, r7, lr}
   22fd6:	af03      	add	r7, sp, #12
   22fd8:	b09f      	sub	sp, #124	@ 0x7c
   22fda:	9006      	str	r0, [sp, #24]
   22fdc:	a807      	add	r0, sp, #28
   22fde:	2502      	movs	r5, #2
   22fe0:	7005      	strb	r5, [r0, #0]
   22fe2:	1c40      	adds	r0, r0, #1
   22fe4:	9004      	str	r0, [sp, #16]
   22fe6:	261e      	movs	r6, #30
   22fe8:	4632      	mov	r2, r6
   22fea:	f008 fb2e 	bl	2b64a <__aeabi_memcpy>
   22fee:	ac0f      	add	r4, sp, #60	@ 0x3c
   22ff0:	1c60      	adds	r0, r4, #1
   22ff2:	212c      	movs	r1, #44	@ 0x2c
   22ff4:	9005      	str	r0, [sp, #20]
   22ff6:	9103      	str	r1, [sp, #12]
   22ff8:	f008 f967 	bl	2b2ca <__aeabi_memclr>
   22ffc:	9502      	str	r5, [sp, #8]
   22ffe:	7025      	strb	r5, [r4, #0]
   23000:	2404      	movs	r4, #4
   23002:	9600      	str	r6, [sp, #0]
   23004:	9401      	str	r4, [sp, #4]
   23006:	a81b      	add	r0, sp, #108	@ 0x6c
   23008:	4e3d      	ldr	r6, [pc, #244]	@ (23100 <_ZN20complex_dynamic_type3app17h5e9eef4e9789ca2dE+0x12c>)
   2300a:	2207      	movs	r2, #7
   2300c:	4631      	mov	r1, r6
   2300e:	9b04      	ldr	r3, [sp, #16]
   23010:	f008 f943 	bl	2b29a <_ZN9allow_pin13dynamic_allow17h33d41317a2da4f1cE>
   23014:	981b      	ldr	r0, [sp, #108]	@ 0x6c
   23016:	2802      	cmp	r0, #2
   23018:	d101      	bne.n	2301e <_ZN20complex_dynamic_type3app17h5e9eef4e9789ca2dE+0x4a>
   2301a:	991c      	ldr	r1, [sp, #112]	@ 0x70
   2301c:	e001      	b.n	23022 <_ZN20complex_dynamic_type3app17h5e9eef4e9789ca2dE+0x4e>
   2301e:	a907      	add	r1, sp, #28
   23020:	700c      	strb	r4, [r1, #0]
   23022:	2501      	movs	r5, #1
   23024:	2802      	cmp	r0, #2
   23026:	d10d      	bne.n	23044 <_ZN20complex_dynamic_type3app17h5e9eef4e9789ca2dE+0x70>
   23028:	462c      	mov	r4, r5
   2302a:	2c00      	cmp	r4, #0
   2302c:	d048      	beq.n	230c0 <_ZN20complex_dynamic_type3app17h5e9eef4e9789ca2dE+0xec>
   2302e:	2001      	movs	r0, #1
   23030:	9a06      	ldr	r2, [sp, #24]
   23032:	7010      	strb	r0, [r2, #0]
   23034:	6051      	str	r1, [r2, #4]
   23036:	a80f      	add	r0, sp, #60	@ 0x3c
   23038:	7802      	ldrb	r2, [r0, #0]
   2303a:	2a02      	cmp	r2, #2
   2303c:	d055      	beq.n	230ea <_ZN20complex_dynamic_type3app17h5e9eef4e9789ca2dE+0x116>
   2303e:	2100      	movs	r1, #0
   23040:	4630      	mov	r0, r6
   23042:	e050      	b.n	230e6 <_ZN20complex_dynamic_type3app17h5e9eef4e9789ca2dE+0x112>
   23044:	a80f      	add	r0, sp, #60	@ 0x3c
   23046:	7800      	ldrb	r0, [r0, #0]
   23048:	2802      	cmp	r0, #2
   2304a:	d110      	bne.n	2306e <_ZN20complex_dynamic_type3app17h5e9eef4e9789ca2dE+0x9a>
   2304c:	4631      	mov	r1, r6
   2304e:	2603      	movs	r6, #3
   23050:	9803      	ldr	r0, [sp, #12]
   23052:	9000      	str	r0, [sp, #0]
   23054:	9601      	str	r6, [sp, #4]
   23056:	a81b      	add	r0, sp, #108	@ 0x6c
   23058:	2400      	movs	r4, #0
   2305a:	4622      	mov	r2, r4
   2305c:	9b05      	ldr	r3, [sp, #20]
   2305e:	f008 f91c 	bl	2b29a <_ZN9allow_pin13dynamic_allow17h33d41317a2da4f1cE>
   23062:	981b      	ldr	r0, [sp, #108]	@ 0x6c
   23064:	2802      	cmp	r0, #2
   23066:	d107      	bne.n	23078 <_ZN20complex_dynamic_type3app17h5e9eef4e9789ca2dE+0xa4>
   23068:	991c      	ldr	r1, [sp, #112]	@ 0x70
   2306a:	462c      	mov	r4, r5
   2306c:	e006      	b.n	2307c <_ZN20complex_dynamic_type3app17h5e9eef4e9789ca2dE+0xa8>
   2306e:	2103      	movs	r1, #3
   23070:	462c      	mov	r4, r5
   23072:	2c00      	cmp	r4, #0
   23074:	d1d8      	bne.n	23028 <_ZN20complex_dynamic_type3app17h5e9eef4e9789ca2dE+0x54>
   23076:	e004      	b.n	23082 <_ZN20complex_dynamic_type3app17h5e9eef4e9789ca2dE+0xae>
   23078:	a80f      	add	r0, sp, #60	@ 0x3c
   2307a:	7006      	strb	r6, [r0, #0]
   2307c:	4e20      	ldr	r6, [pc, #128]	@ (23100 <_ZN20complex_dynamic_type3app17h5e9eef4e9789ca2dE+0x12c>)
   2307e:	2c00      	cmp	r4, #0
   23080:	d1d2      	bne.n	23028 <_ZN20complex_dynamic_type3app17h5e9eef4e9789ca2dE+0x54>
   23082:	481f      	ldr	r0, [pc, #124]	@ (23100 <_ZN20complex_dynamic_type3app17h5e9eef4e9789ca2dE+0x12c>)
   23084:	2107      	movs	r1, #7
   23086:	2400      	movs	r4, #0
   23088:	4622      	mov	r2, r4
   2308a:	4623      	mov	r3, r4
   2308c:	df02      	svc	2
   2308e:	287f      	cmp	r0, #127	@ 0x7f
   23090:	d9ca      	bls.n	23028 <_ZN20complex_dynamic_type3app17h5e9eef4e9789ca2dE+0x54>
   23092:	a807      	add	r0, sp, #28
   23094:	7802      	ldrb	r2, [r0, #0]
   23096:	2a02      	cmp	r2, #2
   23098:	d003      	beq.n	230a2 <_ZN20complex_dynamic_type3app17h5e9eef4e9789ca2dE+0xce>
   2309a:	2107      	movs	r1, #7
   2309c:	4630      	mov	r0, r6
   2309e:	f008 f8ef 	bl	2b280 <_ZN9allow_pin12dynamic_type7unshare17hefa7cd45f9379b26E>
   230a2:	a807      	add	r0, sp, #28
   230a4:	9d02      	ldr	r5, [sp, #8]
   230a6:	7005      	strb	r5, [r0, #0]
   230a8:	a80f      	add	r0, sp, #60	@ 0x3c
   230aa:	7802      	ldrb	r2, [r0, #0]
   230ac:	2a02      	cmp	r2, #2
   230ae:	d003      	beq.n	230b8 <_ZN20complex_dynamic_type3app17h5e9eef4e9789ca2dE+0xe4>
   230b0:	2100      	movs	r1, #0
   230b2:	4630      	mov	r0, r6
   230b4:	f008 f8e4 	bl	2b280 <_ZN9allow_pin12dynamic_type7unshare17hefa7cd45f9379b26E>
   230b8:	a80f      	add	r0, sp, #60	@ 0x3c
   230ba:	7005      	strb	r5, [r0, #0]
   230bc:	2c00      	cmp	r4, #0
   230be:	d1b6      	bne.n	2302e <_ZN20complex_dynamic_type3app17h5e9eef4e9789ca2dE+0x5a>
   230c0:	a80f      	add	r0, sp, #60	@ 0x3c
   230c2:	7804      	ldrb	r4, [r0, #0]
   230c4:	2c02      	cmp	r4, #2
   230c6:	d001      	beq.n	230cc <_ZN20complex_dynamic_type3app17h5e9eef4e9789ca2dE+0xf8>
   230c8:	480e      	ldr	r0, [pc, #56]	@ (23104 <_ZN20complex_dynamic_type3app17h5e9eef4e9789ca2dE+0x130>)
   230ca:	9005      	str	r0, [sp, #20]
   230cc:	9d06      	ldr	r5, [sp, #24]
   230ce:	1c68      	adds	r0, r5, #1
   230d0:	222c      	movs	r2, #44	@ 0x2c
   230d2:	9905      	ldr	r1, [sp, #20]
   230d4:	f008 fab9 	bl	2b64a <__aeabi_memcpy>
   230d8:	2000      	movs	r0, #0
   230da:	2c02      	cmp	r4, #2
   230dc:	7028      	strb	r0, [r5, #0]
   230de:	d004      	beq.n	230ea <_ZN20complex_dynamic_type3app17h5e9eef4e9789ca2dE+0x116>
   230e0:	2100      	movs	r1, #0
   230e2:	4630      	mov	r0, r6
   230e4:	4622      	mov	r2, r4
   230e6:	f008 f8cb 	bl	2b280 <_ZN9allow_pin12dynamic_type7unshare17hefa7cd45f9379b26E>
   230ea:	a807      	add	r0, sp, #28
   230ec:	7802      	ldrb	r2, [r0, #0]
   230ee:	2a02      	cmp	r2, #2
   230f0:	d003      	beq.n	230fa <_ZN20complex_dynamic_type3app17h5e9eef4e9789ca2dE+0x126>
   230f2:	2107      	movs	r1, #7
   230f4:	4630      	mov	r0, r6
   230f6:	f008 f8c3 	bl	2b280 <_ZN9allow_pin12dynamic_type7unshare17hefa7cd45f9379b26E>
   230fa:	b01f      	add	sp, #124	@ 0x7c
   230fc:	bdf0      	pop	{r4, r5, r6, r7, pc}
   230fe:	46c0      	nop			@ (mov r8, r8)
   23100:	000003fb 	.word	0x000003fb
   23104:	00010383 	.word	0x00010383

00023108 <_ZN20complex_dynamic_type3app17h5fd80e817ba59e65E>:
   23108:	b5f0      	push	{r4, r5, r6, r7, lr}
   2310a:	af03      	add	r7, sp, #12
   2310c:	b0a9      	sub	sp, #164	@ 0xa4
   2310e:	9006      	str	r0, [sp, #24]
   23110:	a807      	add	r0, sp, #28
   23112:	2602      	movs	r6, #2
   23114:	7006      	strb	r6, [r0, #0]
   23116:	1c40      	adds	r0, r0, #1
   23118:	9004      	str	r0, [sp, #16]
   2311a:	2548      	movs	r5, #72	@ 0x48
   2311c:	462a      	mov	r2, r5
   2311e:	f008 fa94 	bl	2b64a <__aeabi_memcpy>
   23122:	ac1a      	add	r4, sp, #104	@ 0x68
   23124:	1c60      	adds	r0, r4, #1
   23126:	2129      	movs	r1, #41	@ 0x29
   23128:	9005      	str	r0, [sp, #20]
   2312a:	9103      	str	r1, [sp, #12]
   2312c:	f008 f8cd 	bl	2b2ca <__aeabi_memclr>
   23130:	9602      	str	r6, [sp, #8]
   23132:	7026      	strb	r6, [r4, #0]
   23134:	2404      	movs	r4, #4
   23136:	9500      	str	r5, [sp, #0]
   23138:	9401      	str	r4, [sp, #4]
   2313a:	a825      	add	r0, sp, #148	@ 0x94
   2313c:	493c      	ldr	r1, [pc, #240]	@ (23230 <_ZN20complex_dynamic_type3app17h5fd80e817ba59e65E+0x128>)
   2313e:	2503      	movs	r5, #3
   23140:	462a      	mov	r2, r5
   23142:	9b04      	ldr	r3, [sp, #16]
   23144:	f008 f8a9 	bl	2b29a <_ZN9allow_pin13dynamic_allow17h33d41317a2da4f1cE>
   23148:	9825      	ldr	r0, [sp, #148]	@ 0x94
   2314a:	2802      	cmp	r0, #2
   2314c:	d101      	bne.n	23152 <_ZN20complex_dynamic_type3app17h5fd80e817ba59e65E+0x4a>
   2314e:	9926      	ldr	r1, [sp, #152]	@ 0x98
   23150:	e001      	b.n	23156 <_ZN20complex_dynamic_type3app17h5fd80e817ba59e65E+0x4e>
   23152:	a907      	add	r1, sp, #28
   23154:	700c      	strb	r4, [r1, #0]
   23156:	2601      	movs	r6, #1
   23158:	2802      	cmp	r0, #2
   2315a:	d024      	beq.n	231a6 <_ZN20complex_dynamic_type3app17h5fd80e817ba59e65E+0x9e>
   2315c:	a81a      	add	r0, sp, #104	@ 0x68
   2315e:	7800      	ldrb	r0, [r0, #0]
   23160:	2802      	cmp	r0, #2
   23162:	4630      	mov	r0, r6
   23164:	d10e      	bne.n	23184 <_ZN20complex_dynamic_type3app17h5fd80e817ba59e65E+0x7c>
   23166:	2403      	movs	r4, #3
   23168:	9803      	ldr	r0, [sp, #12]
   2316a:	9000      	str	r0, [sp, #0]
   2316c:	9401      	str	r4, [sp, #4]
   2316e:	a825      	add	r0, sp, #148	@ 0x94
   23170:	2204      	movs	r2, #4
   23172:	492f      	ldr	r1, [pc, #188]	@ (23230 <_ZN20complex_dynamic_type3app17h5fd80e817ba59e65E+0x128>)
   23174:	9b05      	ldr	r3, [sp, #20]
   23176:	f008 f890 	bl	2b29a <_ZN9allow_pin13dynamic_allow17h33d41317a2da4f1cE>
   2317a:	9825      	ldr	r0, [sp, #148]	@ 0x94
   2317c:	2802      	cmp	r0, #2
   2317e:	d105      	bne.n	2318c <_ZN20complex_dynamic_type3app17h5fd80e817ba59e65E+0x84>
   23180:	9d26      	ldr	r5, [sp, #152]	@ 0x98
   23182:	4630      	mov	r0, r6
   23184:	2800      	cmp	r0, #0
   23186:	d006      	beq.n	23196 <_ZN20complex_dynamic_type3app17h5fd80e817ba59e65E+0x8e>
   23188:	4629      	mov	r1, r5
   2318a:	e00c      	b.n	231a6 <_ZN20complex_dynamic_type3app17h5fd80e817ba59e65E+0x9e>
   2318c:	a81a      	add	r0, sp, #104	@ 0x68
   2318e:	7004      	strb	r4, [r0, #0]
   23190:	2000      	movs	r0, #0
   23192:	2800      	cmp	r0, #0
   23194:	d1f8      	bne.n	23188 <_ZN20complex_dynamic_type3app17h5fd80e817ba59e65E+0x80>
   23196:	4826      	ldr	r0, [pc, #152]	@ (23230 <_ZN20complex_dynamic_type3app17h5fd80e817ba59e65E+0x128>)
   23198:	2103      	movs	r1, #3
   2319a:	2204      	movs	r2, #4
   2319c:	2400      	movs	r4, #0
   2319e:	4623      	mov	r3, r4
   231a0:	df02      	svc	2
   231a2:	287f      	cmp	r0, #127	@ 0x7f
   231a4:	d80d      	bhi.n	231c2 <_ZN20complex_dynamic_type3app17h5fd80e817ba59e65E+0xba>
   231a6:	4634      	mov	r4, r6
   231a8:	2c00      	cmp	r4, #0
   231aa:	d021      	beq.n	231f0 <_ZN20complex_dynamic_type3app17h5fd80e817ba59e65E+0xe8>
   231ac:	2001      	movs	r0, #1
   231ae:	9a06      	ldr	r2, [sp, #24]
   231b0:	7010      	strb	r0, [r2, #0]
   231b2:	6051      	str	r1, [r2, #4]
   231b4:	a81a      	add	r0, sp, #104	@ 0x68
   231b6:	7802      	ldrb	r2, [r0, #0]
   231b8:	2a02      	cmp	r2, #2
   231ba:	d02e      	beq.n	2321a <_ZN20complex_dynamic_type3app17h5fd80e817ba59e65E+0x112>
   231bc:	2104      	movs	r1, #4
   231be:	481c      	ldr	r0, [pc, #112]	@ (23230 <_ZN20complex_dynamic_type3app17h5fd80e817ba59e65E+0x128>)
   231c0:	e029      	b.n	23216 <_ZN20complex_dynamic_type3app17h5fd80e817ba59e65E+0x10e>
   231c2:	a807      	add	r0, sp, #28
   231c4:	7802      	ldrb	r2, [r0, #0]
   231c6:	2a02      	cmp	r2, #2
   231c8:	d003      	beq.n	231d2 <_ZN20complex_dynamic_type3app17h5fd80e817ba59e65E+0xca>
   231ca:	2103      	movs	r1, #3
   231cc:	4818      	ldr	r0, [pc, #96]	@ (23230 <_ZN20complex_dynamic_type3app17h5fd80e817ba59e65E+0x128>)
   231ce:	f008 f857 	bl	2b280 <_ZN9allow_pin12dynamic_type7unshare17hefa7cd45f9379b26E>
   231d2:	a807      	add	r0, sp, #28
   231d4:	9d02      	ldr	r5, [sp, #8]
   231d6:	7005      	strb	r5, [r0, #0]
   231d8:	a81a      	add	r0, sp, #104	@ 0x68
   231da:	7802      	ldrb	r2, [r0, #0]
   231dc:	2a02      	cmp	r2, #2
   231de:	d003      	beq.n	231e8 <_ZN20complex_dynamic_type3app17h5fd80e817ba59e65E+0xe0>
   231e0:	2104      	movs	r1, #4
   231e2:	4813      	ldr	r0, [pc, #76]	@ (23230 <_ZN20complex_dynamic_type3app17h5fd80e817ba59e65E+0x128>)
   231e4:	f008 f84c 	bl	2b280 <_ZN9allow_pin12dynamic_type7unshare17hefa7cd45f9379b26E>
   231e8:	a81a      	add	r0, sp, #104	@ 0x68
   231ea:	7005      	strb	r5, [r0, #0]
   231ec:	2c00      	cmp	r4, #0
   231ee:	d1dd      	bne.n	231ac <_ZN20complex_dynamic_type3app17h5fd80e817ba59e65E+0xa4>
   231f0:	a81a      	add	r0, sp, #104	@ 0x68
   231f2:	7804      	ldrb	r4, [r0, #0]
   231f4:	2c02      	cmp	r4, #2
   231f6:	d001      	beq.n	231fc <_ZN20complex_dynamic_type3app17h5fd80e817ba59e65E+0xf4>
   231f8:	480e      	ldr	r0, [pc, #56]	@ (23234 <_ZN20complex_dynamic_type3app17h5fd80e817ba59e65E+0x12c>)
   231fa:	9005      	str	r0, [sp, #20]
   231fc:	9d06      	ldr	r5, [sp, #24]
   231fe:	1c68      	adds	r0, r5, #1
   23200:	2229      	movs	r2, #41	@ 0x29
   23202:	9905      	ldr	r1, [sp, #20]
   23204:	f008 fa21 	bl	2b64a <__aeabi_memcpy>
   23208:	2000      	movs	r0, #0
   2320a:	2c02      	cmp	r4, #2
   2320c:	7028      	strb	r0, [r5, #0]
   2320e:	d004      	beq.n	2321a <_ZN20complex_dynamic_type3app17h5fd80e817ba59e65E+0x112>
   23210:	2104      	movs	r1, #4
   23212:	4807      	ldr	r0, [pc, #28]	@ (23230 <_ZN20complex_dynamic_type3app17h5fd80e817ba59e65E+0x128>)
   23214:	4622      	mov	r2, r4
   23216:	f008 f833 	bl	2b280 <_ZN9allow_pin12dynamic_type7unshare17hefa7cd45f9379b26E>
   2321a:	a807      	add	r0, sp, #28
   2321c:	7802      	ldrb	r2, [r0, #0]
   2321e:	2a02      	cmp	r2, #2
   23220:	d003      	beq.n	2322a <_ZN20complex_dynamic_type3app17h5fd80e817ba59e65E+0x122>
   23222:	2103      	movs	r1, #3
   23224:	4802      	ldr	r0, [pc, #8]	@ (23230 <_ZN20complex_dynamic_type3app17h5fd80e817ba59e65E+0x128>)
   23226:	f008 f82b 	bl	2b280 <_ZN9allow_pin12dynamic_type7unshare17hefa7cd45f9379b26E>
   2322a:	b029      	add	sp, #164	@ 0xa4
   2322c:	bdf0      	pop	{r4, r5, r6, r7, pc}
   2322e:	46c0      	nop			@ (mov r8, r8)
   23230:	000026a4 	.word	0x000026a4
   23234:	000103af 	.word	0x000103af

00023238 <_ZN20complex_dynamic_type3app17h617571d6232c8fb6E>:
   23238:	b5f0      	push	{r4, r5, r6, r7, lr}
   2323a:	af03      	add	r7, sp, #12
   2323c:	b0a1      	sub	sp, #132	@ 0x84
   2323e:	9007      	str	r0, [sp, #28]
   23240:	a808      	add	r0, sp, #32
   23242:	2602      	movs	r6, #2
   23244:	7006      	strb	r6, [r0, #0]
   23246:	1c40      	adds	r0, r0, #1
   23248:	9005      	str	r0, [sp, #20]
   2324a:	2434      	movs	r4, #52	@ 0x34
   2324c:	4622      	mov	r2, r4
   2324e:	f008 f9fc 	bl	2b64a <__aeabi_memcpy>
   23252:	ad16      	add	r5, sp, #88	@ 0x58
   23254:	1c68      	adds	r0, r5, #1
   23256:	211a      	movs	r1, #26
   23258:	9006      	str	r0, [sp, #24]
   2325a:	9104      	str	r1, [sp, #16]
   2325c:	f008 f835 	bl	2b2ca <__aeabi_memclr>
   23260:	9603      	str	r6, [sp, #12]
   23262:	702e      	strb	r6, [r5, #0]
   23264:	2504      	movs	r5, #4
   23266:	9400      	str	r4, [sp, #0]
   23268:	9501      	str	r5, [sp, #4]
   2326a:	a81d      	add	r0, sp, #116	@ 0x74
   2326c:	493b      	ldr	r1, [pc, #236]	@ (2335c <_ZN20complex_dynamic_type3app17h617571d6232c8fb6E+0x124>)
   2326e:	2400      	movs	r4, #0
   23270:	4622      	mov	r2, r4
   23272:	9b05      	ldr	r3, [sp, #20]
   23274:	f008 f811 	bl	2b29a <_ZN9allow_pin13dynamic_allow17h33d41317a2da4f1cE>
   23278:	981d      	ldr	r0, [sp, #116]	@ 0x74
   2327a:	2802      	cmp	r0, #2
   2327c:	d101      	bne.n	23282 <_ZN20complex_dynamic_type3app17h617571d6232c8fb6E+0x4a>
   2327e:	991e      	ldr	r1, [sp, #120]	@ 0x78
   23280:	e001      	b.n	23286 <_ZN20complex_dynamic_type3app17h617571d6232c8fb6E+0x4e>
   23282:	a908      	add	r1, sp, #32
   23284:	700d      	strb	r5, [r1, #0]
   23286:	2601      	movs	r6, #1
   23288:	2802      	cmp	r0, #2
   2328a:	d023      	beq.n	232d4 <_ZN20complex_dynamic_type3app17h617571d6232c8fb6E+0x9c>
   2328c:	a816      	add	r0, sp, #88	@ 0x58
   2328e:	7800      	ldrb	r0, [r0, #0]
   23290:	2802      	cmp	r0, #2
   23292:	d10e      	bne.n	232b2 <_ZN20complex_dynamic_type3app17h617571d6232c8fb6E+0x7a>
   23294:	2503      	movs	r5, #3
   23296:	9804      	ldr	r0, [sp, #16]
   23298:	9000      	str	r0, [sp, #0]
   2329a:	9501      	str	r5, [sp, #4]
   2329c:	a81d      	add	r0, sp, #116	@ 0x74
   2329e:	2205      	movs	r2, #5
   232a0:	492e      	ldr	r1, [pc, #184]	@ (2335c <_ZN20complex_dynamic_type3app17h617571d6232c8fb6E+0x124>)
   232a2:	9b06      	ldr	r3, [sp, #24]
   232a4:	f007 fff9 	bl	2b29a <_ZN9allow_pin13dynamic_allow17h33d41317a2da4f1cE>
   232a8:	981d      	ldr	r0, [sp, #116]	@ 0x74
   232aa:	2802      	cmp	r0, #2
   232ac:	d106      	bne.n	232bc <_ZN20complex_dynamic_type3app17h617571d6232c8fb6E+0x84>
   232ae:	991e      	ldr	r1, [sp, #120]	@ 0x78
   232b0:	e000      	b.n	232b4 <_ZN20complex_dynamic_type3app17h617571d6232c8fb6E+0x7c>
   232b2:	2103      	movs	r1, #3
   232b4:	4634      	mov	r4, r6
   232b6:	2c00      	cmp	r4, #0
   232b8:	d004      	beq.n	232c4 <_ZN20complex_dynamic_type3app17h617571d6232c8fb6E+0x8c>
   232ba:	e00b      	b.n	232d4 <_ZN20complex_dynamic_type3app17h617571d6232c8fb6E+0x9c>
   232bc:	a816      	add	r0, sp, #88	@ 0x58
   232be:	7005      	strb	r5, [r0, #0]
   232c0:	2c00      	cmp	r4, #0
   232c2:	d107      	bne.n	232d4 <_ZN20complex_dynamic_type3app17h617571d6232c8fb6E+0x9c>
   232c4:	4825      	ldr	r0, [pc, #148]	@ (2335c <_ZN20complex_dynamic_type3app17h617571d6232c8fb6E+0x124>)
   232c6:	2205      	movs	r2, #5
   232c8:	2400      	movs	r4, #0
   232ca:	4621      	mov	r1, r4
   232cc:	4623      	mov	r3, r4
   232ce:	df02      	svc	2
   232d0:	287f      	cmp	r0, #127	@ 0x7f
   232d2:	d80d      	bhi.n	232f0 <_ZN20complex_dynamic_type3app17h617571d6232c8fb6E+0xb8>
   232d4:	4634      	mov	r4, r6
   232d6:	2c00      	cmp	r4, #0
   232d8:	d021      	beq.n	2331e <_ZN20complex_dynamic_type3app17h617571d6232c8fb6E+0xe6>
   232da:	2001      	movs	r0, #1
   232dc:	9a07      	ldr	r2, [sp, #28]
   232de:	7010      	strb	r0, [r2, #0]
   232e0:	6051      	str	r1, [r2, #4]
   232e2:	a816      	add	r0, sp, #88	@ 0x58
   232e4:	7802      	ldrb	r2, [r0, #0]
   232e6:	2a02      	cmp	r2, #2
   232e8:	d02e      	beq.n	23348 <_ZN20complex_dynamic_type3app17h617571d6232c8fb6E+0x110>
   232ea:	2105      	movs	r1, #5
   232ec:	481b      	ldr	r0, [pc, #108]	@ (2335c <_ZN20complex_dynamic_type3app17h617571d6232c8fb6E+0x124>)
   232ee:	e029      	b.n	23344 <_ZN20complex_dynamic_type3app17h617571d6232c8fb6E+0x10c>
   232f0:	a808      	add	r0, sp, #32
   232f2:	7802      	ldrb	r2, [r0, #0]
   232f4:	2a02      	cmp	r2, #2
   232f6:	d003      	beq.n	23300 <_ZN20complex_dynamic_type3app17h617571d6232c8fb6E+0xc8>
   232f8:	2100      	movs	r1, #0
   232fa:	4818      	ldr	r0, [pc, #96]	@ (2335c <_ZN20complex_dynamic_type3app17h617571d6232c8fb6E+0x124>)
   232fc:	f007 ffc0 	bl	2b280 <_ZN9allow_pin12dynamic_type7unshare17hefa7cd45f9379b26E>
   23300:	a808      	add	r0, sp, #32
   23302:	9d03      	ldr	r5, [sp, #12]
   23304:	7005      	strb	r5, [r0, #0]
   23306:	a816      	add	r0, sp, #88	@ 0x58
   23308:	7802      	ldrb	r2, [r0, #0]
   2330a:	2a02      	cmp	r2, #2
   2330c:	d003      	beq.n	23316 <_ZN20complex_dynamic_type3app17h617571d6232c8fb6E+0xde>
   2330e:	2105      	movs	r1, #5
   23310:	4812      	ldr	r0, [pc, #72]	@ (2335c <_ZN20complex_dynamic_type3app17h617571d6232c8fb6E+0x124>)
   23312:	f007 ffb5 	bl	2b280 <_ZN9allow_pin12dynamic_type7unshare17hefa7cd45f9379b26E>
   23316:	a816      	add	r0, sp, #88	@ 0x58
   23318:	7005      	strb	r5, [r0, #0]
   2331a:	2c00      	cmp	r4, #0
   2331c:	d1dd      	bne.n	232da <_ZN20complex_dynamic_type3app17h617571d6232c8fb6E+0xa2>
   2331e:	a816      	add	r0, sp, #88	@ 0x58
   23320:	7804      	ldrb	r4, [r0, #0]
   23322:	2c02      	cmp	r4, #2
   23324:	d001      	beq.n	2332a <_ZN20complex_dynamic_type3app17h617571d6232c8fb6E+0xf2>
   23326:	480e      	ldr	r0, [pc, #56]	@ (23360 <_ZN20complex_dynamic_type3app17h617571d6232c8fb6E+0x128>)
   23328:	9006      	str	r0, [sp, #24]
   2332a:	9d07      	ldr	r5, [sp, #28]
   2332c:	1c68      	adds	r0, r5, #1
   2332e:	221a      	movs	r2, #26
   23330:	9906      	ldr	r1, [sp, #24]
   23332:	f008 f98a 	bl	2b64a <__aeabi_memcpy>
   23336:	2000      	movs	r0, #0
   23338:	2c02      	cmp	r4, #2
   2333a:	7028      	strb	r0, [r5, #0]
   2333c:	d004      	beq.n	23348 <_ZN20complex_dynamic_type3app17h617571d6232c8fb6E+0x110>
   2333e:	2105      	movs	r1, #5
   23340:	4806      	ldr	r0, [pc, #24]	@ (2335c <_ZN20complex_dynamic_type3app17h617571d6232c8fb6E+0x124>)
   23342:	4622      	mov	r2, r4
   23344:	f007 ff9c 	bl	2b280 <_ZN9allow_pin12dynamic_type7unshare17hefa7cd45f9379b26E>
   23348:	a808      	add	r0, sp, #32
   2334a:	7802      	ldrb	r2, [r0, #0]
   2334c:	2a02      	cmp	r2, #2
   2334e:	d003      	beq.n	23358 <_ZN20complex_dynamic_type3app17h617571d6232c8fb6E+0x120>
   23350:	2100      	movs	r1, #0
   23352:	4802      	ldr	r0, [pc, #8]	@ (2335c <_ZN20complex_dynamic_type3app17h617571d6232c8fb6E+0x124>)
   23354:	f007 ff94 	bl	2b280 <_ZN9allow_pin12dynamic_type7unshare17hefa7cd45f9379b26E>
   23358:	b021      	add	sp, #132	@ 0x84
   2335a:	bdf0      	pop	{r4, r5, r6, r7, pc}
   2335c:	000012cc 	.word	0x000012cc
   23360:	000108ec 	.word	0x000108ec

00023364 <_ZN20complex_dynamic_type3app17h633094e0cf0946b0E>:
   23364:	b5f0      	push	{r4, r5, r6, r7, lr}
   23366:	af03      	add	r7, sp, #12
   23368:	b099      	sub	sp, #100	@ 0x64
   2336a:	9006      	str	r0, [sp, #24]
   2336c:	a807      	add	r0, sp, #28
   2336e:	2402      	movs	r4, #2
   23370:	7004      	strb	r4, [r0, #0]
   23372:	1c40      	adds	r0, r0, #1
   23374:	9004      	str	r0, [sp, #16]
   23376:	261a      	movs	r6, #26
   23378:	4632      	mov	r2, r6
   2337a:	f008 f966 	bl	2b64a <__aeabi_memcpy>
   2337e:	ad0e      	add	r5, sp, #56	@ 0x38
   23380:	1c68      	adds	r0, r5, #1
   23382:	211b      	movs	r1, #27
   23384:	9005      	str	r0, [sp, #20]
   23386:	9103      	str	r1, [sp, #12]
   23388:	f007 ff9f 	bl	2b2ca <__aeabi_memclr>
   2338c:	702c      	strb	r4, [r5, #0]
   2338e:	2404      	movs	r4, #4
   23390:	9600      	str	r6, [sp, #0]
   23392:	9401      	str	r4, [sp, #4]
   23394:	a815      	add	r0, sp, #84	@ 0x54
   23396:	4e3d      	ldr	r6, [pc, #244]	@ (2348c <_ZN20complex_dynamic_type3app17h633094e0cf0946b0E+0x128>)
   23398:	2205      	movs	r2, #5
   2339a:	4631      	mov	r1, r6
   2339c:	9b04      	ldr	r3, [sp, #16]
   2339e:	f007 ff7c 	bl	2b29a <_ZN9allow_pin13dynamic_allow17h33d41317a2da4f1cE>
   233a2:	9815      	ldr	r0, [sp, #84]	@ 0x54
   233a4:	2802      	cmp	r0, #2
   233a6:	d101      	bne.n	233ac <_ZN20complex_dynamic_type3app17h633094e0cf0946b0E+0x48>
   233a8:	9916      	ldr	r1, [sp, #88]	@ 0x58
   233aa:	e001      	b.n	233b0 <_ZN20complex_dynamic_type3app17h633094e0cf0946b0E+0x4c>
   233ac:	a907      	add	r1, sp, #28
   233ae:	700c      	strb	r4, [r1, #0]
   233b0:	2501      	movs	r5, #1
   233b2:	2802      	cmp	r0, #2
   233b4:	d016      	beq.n	233e4 <_ZN20complex_dynamic_type3app17h633094e0cf0946b0E+0x80>
   233b6:	a80e      	add	r0, sp, #56	@ 0x38
   233b8:	7800      	ldrb	r0, [r0, #0]
   233ba:	2802      	cmp	r0, #2
   233bc:	d10e      	bne.n	233dc <_ZN20complex_dynamic_type3app17h633094e0cf0946b0E+0x78>
   233be:	2403      	movs	r4, #3
   233c0:	9803      	ldr	r0, [sp, #12]
   233c2:	9000      	str	r0, [sp, #0]
   233c4:	9401      	str	r4, [sp, #4]
   233c6:	a815      	add	r0, sp, #84	@ 0x54
   233c8:	2202      	movs	r2, #2
   233ca:	4631      	mov	r1, r6
   233cc:	9b05      	ldr	r3, [sp, #20]
   233ce:	f007 ff64 	bl	2b29a <_ZN9allow_pin13dynamic_allow17h33d41317a2da4f1cE>
   233d2:	9815      	ldr	r0, [sp, #84]	@ 0x54
   233d4:	2802      	cmp	r0, #2
   233d6:	d113      	bne.n	23400 <_ZN20complex_dynamic_type3app17h633094e0cf0946b0E+0x9c>
   233d8:	9916      	ldr	r1, [sp, #88]	@ 0x58
   233da:	e000      	b.n	233de <_ZN20complex_dynamic_type3app17h633094e0cf0946b0E+0x7a>
   233dc:	2103      	movs	r1, #3
   233de:	4628      	mov	r0, r5
   233e0:	2800      	cmp	r0, #0
   233e2:	d012      	beq.n	2340a <_ZN20complex_dynamic_type3app17h633094e0cf0946b0E+0xa6>
   233e4:	462c      	mov	r4, r5
   233e6:	2c00      	cmp	r4, #0
   233e8:	d031      	beq.n	2344e <_ZN20complex_dynamic_type3app17h633094e0cf0946b0E+0xea>
   233ea:	2001      	movs	r0, #1
   233ec:	9a06      	ldr	r2, [sp, #24]
   233ee:	7010      	strb	r0, [r2, #0]
   233f0:	6051      	str	r1, [r2, #4]
   233f2:	a80e      	add	r0, sp, #56	@ 0x38
   233f4:	7802      	ldrb	r2, [r0, #0]
   233f6:	2a02      	cmp	r2, #2
   233f8:	d03e      	beq.n	23478 <_ZN20complex_dynamic_type3app17h633094e0cf0946b0E+0x114>
   233fa:	2102      	movs	r1, #2
   233fc:	4630      	mov	r0, r6
   233fe:	e039      	b.n	23474 <_ZN20complex_dynamic_type3app17h633094e0cf0946b0E+0x110>
   23400:	a80e      	add	r0, sp, #56	@ 0x38
   23402:	7004      	strb	r4, [r0, #0]
   23404:	2000      	movs	r0, #0
   23406:	2800      	cmp	r0, #0
   23408:	d1ec      	bne.n	233e4 <_ZN20complex_dynamic_type3app17h633094e0cf0946b0E+0x80>
   2340a:	4820      	ldr	r0, [pc, #128]	@ (2348c <_ZN20complex_dynamic_type3app17h633094e0cf0946b0E+0x128>)
   2340c:	2105      	movs	r1, #5
   2340e:	2202      	movs	r2, #2
   23410:	2400      	movs	r4, #0
   23412:	4616      	mov	r6, r2
   23414:	4623      	mov	r3, r4
   23416:	df02      	svc	2
   23418:	287f      	cmp	r0, #127	@ 0x7f
   2341a:	d801      	bhi.n	23420 <_ZN20complex_dynamic_type3app17h633094e0cf0946b0E+0xbc>
   2341c:	462c      	mov	r4, r5
   2341e:	e013      	b.n	23448 <_ZN20complex_dynamic_type3app17h633094e0cf0946b0E+0xe4>
   23420:	a807      	add	r0, sp, #28
   23422:	7802      	ldrb	r2, [r0, #0]
   23424:	2a02      	cmp	r2, #2
   23426:	d003      	beq.n	23430 <_ZN20complex_dynamic_type3app17h633094e0cf0946b0E+0xcc>
   23428:	2105      	movs	r1, #5
   2342a:	4818      	ldr	r0, [pc, #96]	@ (2348c <_ZN20complex_dynamic_type3app17h633094e0cf0946b0E+0x128>)
   2342c:	f007 ff28 	bl	2b280 <_ZN9allow_pin12dynamic_type7unshare17hefa7cd45f9379b26E>
   23430:	a807      	add	r0, sp, #28
   23432:	7006      	strb	r6, [r0, #0]
   23434:	a80e      	add	r0, sp, #56	@ 0x38
   23436:	7802      	ldrb	r2, [r0, #0]
   23438:	2a02      	cmp	r2, #2
   2343a:	d003      	beq.n	23444 <_ZN20complex_dynamic_type3app17h633094e0cf0946b0E+0xe0>
   2343c:	2102      	movs	r1, #2
   2343e:	4813      	ldr	r0, [pc, #76]	@ (2348c <_ZN20complex_dynamic_type3app17h633094e0cf0946b0E+0x128>)
   23440:	f007 ff1e 	bl	2b280 <_ZN9allow_pin12dynamic_type7unshare17hefa7cd45f9379b26E>
   23444:	a80e      	add	r0, sp, #56	@ 0x38
   23446:	7006      	strb	r6, [r0, #0]
   23448:	4e10      	ldr	r6, [pc, #64]	@ (2348c <_ZN20complex_dynamic_type3app17h633094e0cf0946b0E+0x128>)
   2344a:	2c00      	cmp	r4, #0
   2344c:	d1cd      	bne.n	233ea <_ZN20complex_dynamic_type3app17h633094e0cf0946b0E+0x86>
   2344e:	a80e      	add	r0, sp, #56	@ 0x38
   23450:	7804      	ldrb	r4, [r0, #0]
   23452:	2c02      	cmp	r4, #2
   23454:	d001      	beq.n	2345a <_ZN20complex_dynamic_type3app17h633094e0cf0946b0E+0xf6>
   23456:	480e      	ldr	r0, [pc, #56]	@ (23490 <_ZN20complex_dynamic_type3app17h633094e0cf0946b0E+0x12c>)
   23458:	9005      	str	r0, [sp, #20]
   2345a:	9d06      	ldr	r5, [sp, #24]
   2345c:	1c68      	adds	r0, r5, #1
   2345e:	221b      	movs	r2, #27
   23460:	9905      	ldr	r1, [sp, #20]
   23462:	f008 f8f2 	bl	2b64a <__aeabi_memcpy>
   23466:	2000      	movs	r0, #0
   23468:	2c02      	cmp	r4, #2
   2346a:	7028      	strb	r0, [r5, #0]
   2346c:	d004      	beq.n	23478 <_ZN20complex_dynamic_type3app17h633094e0cf0946b0E+0x114>
   2346e:	2102      	movs	r1, #2
   23470:	4630      	mov	r0, r6
   23472:	4622      	mov	r2, r4
   23474:	f007 ff04 	bl	2b280 <_ZN9allow_pin12dynamic_type7unshare17hefa7cd45f9379b26E>
   23478:	a807      	add	r0, sp, #28
   2347a:	7802      	ldrb	r2, [r0, #0]
   2347c:	2a02      	cmp	r2, #2
   2347e:	d003      	beq.n	23488 <_ZN20complex_dynamic_type3app17h633094e0cf0946b0E+0x124>
   23480:	2105      	movs	r1, #5
   23482:	4630      	mov	r0, r6
   23484:	f007 fefc 	bl	2b280 <_ZN9allow_pin12dynamic_type7unshare17hefa7cd45f9379b26E>
   23488:	b019      	add	sp, #100	@ 0x64
   2348a:	bdf0      	pop	{r4, r5, r6, r7, pc}
   2348c:	00001cce 	.word	0x00001cce
   23490:	0001031e 	.word	0x0001031e

00023494 <_ZN20complex_dynamic_type3app17h6ad628d17653e20eE>:
   23494:	b5f0      	push	{r4, r5, r6, r7, lr}
   23496:	af03      	add	r7, sp, #12
   23498:	b0a1      	sub	sp, #132	@ 0x84
   2349a:	9006      	str	r0, [sp, #24]
   2349c:	a807      	add	r0, sp, #28
   2349e:	2502      	movs	r5, #2
   234a0:	7005      	strb	r5, [r0, #0]
   234a2:	1c40      	adds	r0, r0, #1
   234a4:	9004      	str	r0, [sp, #16]
   234a6:	2624      	movs	r6, #36	@ 0x24
   234a8:	4632      	mov	r2, r6
   234aa:	f008 f8ce 	bl	2b64a <__aeabi_memcpy>
   234ae:	ac11      	add	r4, sp, #68	@ 0x44
   234b0:	1c60      	adds	r0, r4, #1
   234b2:	212f      	movs	r1, #47	@ 0x2f
   234b4:	9005      	str	r0, [sp, #20]
   234b6:	9103      	str	r1, [sp, #12]
   234b8:	f007 ff07 	bl	2b2ca <__aeabi_memclr>
   234bc:	9502      	str	r5, [sp, #8]
   234be:	7025      	strb	r5, [r4, #0]
   234c0:	2404      	movs	r4, #4
   234c2:	9600      	str	r6, [sp, #0]
   234c4:	9401      	str	r4, [sp, #4]
   234c6:	a81d      	add	r0, sp, #116	@ 0x74
   234c8:	4e3c      	ldr	r6, [pc, #240]	@ (235bc <_ZN20complex_dynamic_type3app17h6ad628d17653e20eE+0x128>)
   234ca:	2206      	movs	r2, #6
   234cc:	4631      	mov	r1, r6
   234ce:	9b04      	ldr	r3, [sp, #16]
   234d0:	f007 fee3 	bl	2b29a <_ZN9allow_pin13dynamic_allow17h33d41317a2da4f1cE>
   234d4:	981d      	ldr	r0, [sp, #116]	@ 0x74
   234d6:	2802      	cmp	r0, #2
   234d8:	d101      	bne.n	234de <_ZN20complex_dynamic_type3app17h6ad628d17653e20eE+0x4a>
   234da:	991e      	ldr	r1, [sp, #120]	@ 0x78
   234dc:	e001      	b.n	234e2 <_ZN20complex_dynamic_type3app17h6ad628d17653e20eE+0x4e>
   234de:	a907      	add	r1, sp, #28
   234e0:	700c      	strb	r4, [r1, #0]
   234e2:	2501      	movs	r5, #1
   234e4:	2802      	cmp	r0, #2
   234e6:	d024      	beq.n	23532 <_ZN20complex_dynamic_type3app17h6ad628d17653e20eE+0x9e>
   234e8:	a811      	add	r0, sp, #68	@ 0x44
   234ea:	7800      	ldrb	r0, [r0, #0]
   234ec:	2802      	cmp	r0, #2
   234ee:	d10e      	bne.n	2350e <_ZN20complex_dynamic_type3app17h6ad628d17653e20eE+0x7a>
   234f0:	2403      	movs	r4, #3
   234f2:	9803      	ldr	r0, [sp, #12]
   234f4:	9000      	str	r0, [sp, #0]
   234f6:	9401      	str	r4, [sp, #4]
   234f8:	a81d      	add	r0, sp, #116	@ 0x74
   234fa:	2209      	movs	r2, #9
   234fc:	4631      	mov	r1, r6
   234fe:	9b05      	ldr	r3, [sp, #20]
   23500:	f007 fecb 	bl	2b29a <_ZN9allow_pin13dynamic_allow17h33d41317a2da4f1cE>
   23504:	981d      	ldr	r0, [sp, #116]	@ 0x74
   23506:	2802      	cmp	r0, #2
   23508:	d106      	bne.n	23518 <_ZN20complex_dynamic_type3app17h6ad628d17653e20eE+0x84>
   2350a:	991e      	ldr	r1, [sp, #120]	@ 0x78
   2350c:	e000      	b.n	23510 <_ZN20complex_dynamic_type3app17h6ad628d17653e20eE+0x7c>
   2350e:	2103      	movs	r1, #3
   23510:	4628      	mov	r0, r5
   23512:	2800      	cmp	r0, #0
   23514:	d005      	beq.n	23522 <_ZN20complex_dynamic_type3app17h6ad628d17653e20eE+0x8e>
   23516:	e00c      	b.n	23532 <_ZN20complex_dynamic_type3app17h6ad628d17653e20eE+0x9e>
   23518:	a811      	add	r0, sp, #68	@ 0x44
   2351a:	7004      	strb	r4, [r0, #0]
   2351c:	2000      	movs	r0, #0
   2351e:	2800      	cmp	r0, #0
   23520:	d107      	bne.n	23532 <_ZN20complex_dynamic_type3app17h6ad628d17653e20eE+0x9e>
   23522:	4826      	ldr	r0, [pc, #152]	@ (235bc <_ZN20complex_dynamic_type3app17h6ad628d17653e20eE+0x128>)
   23524:	2106      	movs	r1, #6
   23526:	2209      	movs	r2, #9
   23528:	2400      	movs	r4, #0
   2352a:	4623      	mov	r3, r4
   2352c:	df02      	svc	2
   2352e:	287f      	cmp	r0, #127	@ 0x7f
   23530:	d80d      	bhi.n	2354e <_ZN20complex_dynamic_type3app17h6ad628d17653e20eE+0xba>
   23532:	462c      	mov	r4, r5
   23534:	2c00      	cmp	r4, #0
   23536:	d021      	beq.n	2357c <_ZN20complex_dynamic_type3app17h6ad628d17653e20eE+0xe8>
   23538:	2001      	movs	r0, #1
   2353a:	9a06      	ldr	r2, [sp, #24]
   2353c:	7010      	strb	r0, [r2, #0]
   2353e:	6051      	str	r1, [r2, #4]
   23540:	a811      	add	r0, sp, #68	@ 0x44
   23542:	7802      	ldrb	r2, [r0, #0]
   23544:	2a02      	cmp	r2, #2
   23546:	d02e      	beq.n	235a6 <_ZN20complex_dynamic_type3app17h6ad628d17653e20eE+0x112>
   23548:	2109      	movs	r1, #9
   2354a:	4630      	mov	r0, r6
   2354c:	e029      	b.n	235a2 <_ZN20complex_dynamic_type3app17h6ad628d17653e20eE+0x10e>
   2354e:	a807      	add	r0, sp, #28
   23550:	7802      	ldrb	r2, [r0, #0]
   23552:	2a02      	cmp	r2, #2
   23554:	d003      	beq.n	2355e <_ZN20complex_dynamic_type3app17h6ad628d17653e20eE+0xca>
   23556:	2106      	movs	r1, #6
   23558:	4630      	mov	r0, r6
   2355a:	f007 fe91 	bl	2b280 <_ZN9allow_pin12dynamic_type7unshare17hefa7cd45f9379b26E>
   2355e:	a807      	add	r0, sp, #28
   23560:	9d02      	ldr	r5, [sp, #8]
   23562:	7005      	strb	r5, [r0, #0]
   23564:	a811      	add	r0, sp, #68	@ 0x44
   23566:	7802      	ldrb	r2, [r0, #0]
   23568:	2a02      	cmp	r2, #2
   2356a:	d003      	beq.n	23574 <_ZN20complex_dynamic_type3app17h6ad628d17653e20eE+0xe0>
   2356c:	2109      	movs	r1, #9
   2356e:	4630      	mov	r0, r6
   23570:	f007 fe86 	bl	2b280 <_ZN9allow_pin12dynamic_type7unshare17hefa7cd45f9379b26E>
   23574:	a811      	add	r0, sp, #68	@ 0x44
   23576:	7005      	strb	r5, [r0, #0]
   23578:	2c00      	cmp	r4, #0
   2357a:	d1dd      	bne.n	23538 <_ZN20complex_dynamic_type3app17h6ad628d17653e20eE+0xa4>
   2357c:	a811      	add	r0, sp, #68	@ 0x44
   2357e:	7804      	ldrb	r4, [r0, #0]
   23580:	2c02      	cmp	r4, #2
   23582:	d001      	beq.n	23588 <_ZN20complex_dynamic_type3app17h6ad628d17653e20eE+0xf4>
   23584:	480e      	ldr	r0, [pc, #56]	@ (235c0 <_ZN20complex_dynamic_type3app17h6ad628d17653e20eE+0x12c>)
   23586:	9005      	str	r0, [sp, #20]
   23588:	9d06      	ldr	r5, [sp, #24]
   2358a:	1c68      	adds	r0, r5, #1
   2358c:	222f      	movs	r2, #47	@ 0x2f
   2358e:	9905      	ldr	r1, [sp, #20]
   23590:	f008 f85b 	bl	2b64a <__aeabi_memcpy>
   23594:	2000      	movs	r0, #0
   23596:	2c02      	cmp	r4, #2
   23598:	7028      	strb	r0, [r5, #0]
   2359a:	d004      	beq.n	235a6 <_ZN20complex_dynamic_type3app17h6ad628d17653e20eE+0x112>
   2359c:	2109      	movs	r1, #9
   2359e:	4630      	mov	r0, r6
   235a0:	4622      	mov	r2, r4
   235a2:	f007 fe6d 	bl	2b280 <_ZN9allow_pin12dynamic_type7unshare17hefa7cd45f9379b26E>
   235a6:	a807      	add	r0, sp, #28
   235a8:	7802      	ldrb	r2, [r0, #0]
   235aa:	2a02      	cmp	r2, #2
   235ac:	d003      	beq.n	235b6 <_ZN20complex_dynamic_type3app17h6ad628d17653e20eE+0x122>
   235ae:	2106      	movs	r1, #6
   235b0:	4630      	mov	r0, r6
   235b2:	f007 fe65 	bl	2b280 <_ZN9allow_pin12dynamic_type7unshare17hefa7cd45f9379b26E>
   235b6:	b021      	add	sp, #132	@ 0x84
   235b8:	bdf0      	pop	{r4, r5, r6, r7, pc}
   235ba:	46c0      	nop			@ (mov r8, r8)
   235bc:	00001273 	.word	0x00001273
   235c0:	000104c3 	.word	0x000104c3

000235c4 <_ZN20complex_dynamic_type3app17h6b311899b4f5852fE>:
   235c4:	b5f0      	push	{r4, r5, r6, r7, lr}
   235c6:	af03      	add	r7, sp, #12
   235c8:	b09f      	sub	sp, #124	@ 0x7c
   235ca:	9007      	str	r0, [sp, #28]
   235cc:	a808      	add	r0, sp, #32
   235ce:	2602      	movs	r6, #2
   235d0:	7006      	strb	r6, [r0, #0]
   235d2:	1c40      	adds	r0, r0, #1
   235d4:	9005      	str	r0, [sp, #20]
   235d6:	2510      	movs	r5, #16
   235d8:	462a      	mov	r2, r5
   235da:	f008 f836 	bl	2b64a <__aeabi_memcpy>
   235de:	ac0d      	add	r4, sp, #52	@ 0x34
   235e0:	1c60      	adds	r0, r4, #1
   235e2:	2136      	movs	r1, #54	@ 0x36
   235e4:	9006      	str	r0, [sp, #24]
   235e6:	9104      	str	r1, [sp, #16]
   235e8:	f007 fe6f 	bl	2b2ca <__aeabi_memclr>
   235ec:	9603      	str	r6, [sp, #12]
   235ee:	7026      	strb	r6, [r4, #0]
   235f0:	2404      	movs	r4, #4
   235f2:	9500      	str	r5, [sp, #0]
   235f4:	9401      	str	r4, [sp, #4]
   235f6:	a81b      	add	r0, sp, #108	@ 0x6c
   235f8:	493c      	ldr	r1, [pc, #240]	@ (236ec <_ZN20complex_dynamic_type3app17h6b311899b4f5852fE+0x128>)
   235fa:	2501      	movs	r5, #1
   235fc:	462a      	mov	r2, r5
   235fe:	9b05      	ldr	r3, [sp, #20]
   23600:	f007 fe4b 	bl	2b29a <_ZN9allow_pin13dynamic_allow17h33d41317a2da4f1cE>
   23604:	981b      	ldr	r0, [sp, #108]	@ 0x6c
   23606:	2802      	cmp	r0, #2
   23608:	d101      	bne.n	2360e <_ZN20complex_dynamic_type3app17h6b311899b4f5852fE+0x4a>
   2360a:	991c      	ldr	r1, [sp, #112]	@ 0x70
   2360c:	e001      	b.n	23612 <_ZN20complex_dynamic_type3app17h6b311899b4f5852fE+0x4e>
   2360e:	a908      	add	r1, sp, #32
   23610:	700c      	strb	r4, [r1, #0]
   23612:	2802      	cmp	r0, #2
   23614:	4e35      	ldr	r6, [pc, #212]	@ (236ec <_ZN20complex_dynamic_type3app17h6b311899b4f5852fE+0x128>)
   23616:	d024      	beq.n	23662 <_ZN20complex_dynamic_type3app17h6b311899b4f5852fE+0x9e>
   23618:	a80d      	add	r0, sp, #52	@ 0x34
   2361a:	7800      	ldrb	r0, [r0, #0]
   2361c:	2802      	cmp	r0, #2
   2361e:	d10e      	bne.n	2363e <_ZN20complex_dynamic_type3app17h6b311899b4f5852fE+0x7a>
   23620:	2403      	movs	r4, #3
   23622:	9804      	ldr	r0, [sp, #16]
   23624:	9000      	str	r0, [sp, #0]
   23626:	9401      	str	r4, [sp, #4]
   23628:	a81b      	add	r0, sp, #108	@ 0x6c
   2362a:	2207      	movs	r2, #7
   2362c:	4631      	mov	r1, r6
   2362e:	9b06      	ldr	r3, [sp, #24]
   23630:	f007 fe33 	bl	2b29a <_ZN9allow_pin13dynamic_allow17h33d41317a2da4f1cE>
   23634:	981b      	ldr	r0, [sp, #108]	@ 0x6c
   23636:	2802      	cmp	r0, #2
   23638:	d106      	bne.n	23648 <_ZN20complex_dynamic_type3app17h6b311899b4f5852fE+0x84>
   2363a:	991c      	ldr	r1, [sp, #112]	@ 0x70
   2363c:	e000      	b.n	23640 <_ZN20complex_dynamic_type3app17h6b311899b4f5852fE+0x7c>
   2363e:	2103      	movs	r1, #3
   23640:	4628      	mov	r0, r5
   23642:	2800      	cmp	r0, #0
   23644:	d005      	beq.n	23652 <_ZN20complex_dynamic_type3app17h6b311899b4f5852fE+0x8e>
   23646:	e00c      	b.n	23662 <_ZN20complex_dynamic_type3app17h6b311899b4f5852fE+0x9e>
   23648:	a80d      	add	r0, sp, #52	@ 0x34
   2364a:	7004      	strb	r4, [r0, #0]
   2364c:	2000      	movs	r0, #0
   2364e:	2800      	cmp	r0, #0
   23650:	d107      	bne.n	23662 <_ZN20complex_dynamic_type3app17h6b311899b4f5852fE+0x9e>
   23652:	4826      	ldr	r0, [pc, #152]	@ (236ec <_ZN20complex_dynamic_type3app17h6b311899b4f5852fE+0x128>)
   23654:	2101      	movs	r1, #1
   23656:	2207      	movs	r2, #7
   23658:	2400      	movs	r4, #0
   2365a:	4623      	mov	r3, r4
   2365c:	df02      	svc	2
   2365e:	287f      	cmp	r0, #127	@ 0x7f
   23660:	d80d      	bhi.n	2367e <_ZN20complex_dynamic_type3app17h6b311899b4f5852fE+0xba>
   23662:	462c      	mov	r4, r5
   23664:	2c00      	cmp	r4, #0
   23666:	d021      	beq.n	236ac <_ZN20complex_dynamic_type3app17h6b311899b4f5852fE+0xe8>
   23668:	2001      	movs	r0, #1
   2366a:	9a07      	ldr	r2, [sp, #28]
   2366c:	7010      	strb	r0, [r2, #0]
   2366e:	6051      	str	r1, [r2, #4]
   23670:	a80d      	add	r0, sp, #52	@ 0x34
   23672:	7802      	ldrb	r2, [r0, #0]
   23674:	2a02      	cmp	r2, #2
   23676:	d02e      	beq.n	236d6 <_ZN20complex_dynamic_type3app17h6b311899b4f5852fE+0x112>
   23678:	2107      	movs	r1, #7
   2367a:	4630      	mov	r0, r6
   2367c:	e029      	b.n	236d2 <_ZN20complex_dynamic_type3app17h6b311899b4f5852fE+0x10e>
   2367e:	a808      	add	r0, sp, #32
   23680:	7802      	ldrb	r2, [r0, #0]
   23682:	2a02      	cmp	r2, #2
   23684:	d003      	beq.n	2368e <_ZN20complex_dynamic_type3app17h6b311899b4f5852fE+0xca>
   23686:	2101      	movs	r1, #1
   23688:	4630      	mov	r0, r6
   2368a:	f007 fdf9 	bl	2b280 <_ZN9allow_pin12dynamic_type7unshare17hefa7cd45f9379b26E>
   2368e:	a808      	add	r0, sp, #32
   23690:	9d03      	ldr	r5, [sp, #12]
   23692:	7005      	strb	r5, [r0, #0]
   23694:	a80d      	add	r0, sp, #52	@ 0x34
   23696:	7802      	ldrb	r2, [r0, #0]
   23698:	2a02      	cmp	r2, #2
   2369a:	d003      	beq.n	236a4 <_ZN20complex_dynamic_type3app17h6b311899b4f5852fE+0xe0>
   2369c:	2107      	movs	r1, #7
   2369e:	4630      	mov	r0, r6
   236a0:	f007 fdee 	bl	2b280 <_ZN9allow_pin12dynamic_type7unshare17hefa7cd45f9379b26E>
   236a4:	a80d      	add	r0, sp, #52	@ 0x34
   236a6:	7005      	strb	r5, [r0, #0]
   236a8:	2c00      	cmp	r4, #0
   236aa:	d1dd      	bne.n	23668 <_ZN20complex_dynamic_type3app17h6b311899b4f5852fE+0xa4>
   236ac:	a80d      	add	r0, sp, #52	@ 0x34
   236ae:	7804      	ldrb	r4, [r0, #0]
   236b0:	2c02      	cmp	r4, #2
   236b2:	d001      	beq.n	236b8 <_ZN20complex_dynamic_type3app17h6b311899b4f5852fE+0xf4>
   236b4:	480e      	ldr	r0, [pc, #56]	@ (236f0 <_ZN20complex_dynamic_type3app17h6b311899b4f5852fE+0x12c>)
   236b6:	9006      	str	r0, [sp, #24]
   236b8:	9d07      	ldr	r5, [sp, #28]
   236ba:	1c68      	adds	r0, r5, #1
   236bc:	2236      	movs	r2, #54	@ 0x36
   236be:	9906      	ldr	r1, [sp, #24]
   236c0:	f007 ffc3 	bl	2b64a <__aeabi_memcpy>
   236c4:	2000      	movs	r0, #0
   236c6:	2c02      	cmp	r4, #2
   236c8:	7028      	strb	r0, [r5, #0]
   236ca:	d004      	beq.n	236d6 <_ZN20complex_dynamic_type3app17h6b311899b4f5852fE+0x112>
   236cc:	2107      	movs	r1, #7
   236ce:	4630      	mov	r0, r6
   236d0:	4622      	mov	r2, r4
   236d2:	f007 fdd5 	bl	2b280 <_ZN9allow_pin12dynamic_type7unshare17hefa7cd45f9379b26E>
   236d6:	a808      	add	r0, sp, #32
   236d8:	7802      	ldrb	r2, [r0, #0]
   236da:	2a02      	cmp	r2, #2
   236dc:	d003      	beq.n	236e6 <_ZN20complex_dynamic_type3app17h6b311899b4f5852fE+0x122>
   236de:	2101      	movs	r1, #1
   236e0:	4630      	mov	r0, r6
   236e2:	f007 fdcd 	bl	2b280 <_ZN9allow_pin12dynamic_type7unshare17hefa7cd45f9379b26E>
   236e6:	b01f      	add	sp, #124	@ 0x7c
   236e8:	bdf0      	pop	{r4, r5, r6, r7, pc}
   236ea:	46c0      	nop			@ (mov r8, r8)
   236ec:	00001989 	.word	0x00001989
   236f0:	0001071a 	.word	0x0001071a

000236f4 <_ZN20complex_dynamic_type3app17h75efe726895bc0a1E>:
   236f4:	b5f0      	push	{r4, r5, r6, r7, lr}
   236f6:	af03      	add	r7, sp, #12
   236f8:	b095      	sub	sp, #84	@ 0x54
   236fa:	9007      	str	r0, [sp, #28]
   236fc:	a808      	add	r0, sp, #32
   236fe:	2602      	movs	r6, #2
   23700:	7006      	strb	r6, [r0, #0]
   23702:	1c40      	adds	r0, r0, #1
   23704:	9005      	str	r0, [sp, #20]
   23706:	250f      	movs	r5, #15
   23708:	462a      	mov	r2, r5
   2370a:	f007 ff9e 	bl	2b64a <__aeabi_memcpy>
   2370e:	ac0c      	add	r4, sp, #48	@ 0x30
   23710:	1c60      	adds	r0, r4, #1
   23712:	2113      	movs	r1, #19
   23714:	9006      	str	r0, [sp, #24]
   23716:	9104      	str	r1, [sp, #16]
   23718:	f007 fdd7 	bl	2b2ca <__aeabi_memclr>
   2371c:	9603      	str	r6, [sp, #12]
   2371e:	7026      	strb	r6, [r4, #0]
   23720:	2404      	movs	r4, #4
   23722:	9500      	str	r5, [sp, #0]
   23724:	9401      	str	r4, [sp, #4]
   23726:	a811      	add	r0, sp, #68	@ 0x44
   23728:	493f      	ldr	r1, [pc, #252]	@ (23828 <_ZN20complex_dynamic_type3app17h75efe726895bc0a1E+0x134>)
   2372a:	2503      	movs	r5, #3
   2372c:	462a      	mov	r2, r5
   2372e:	9b05      	ldr	r3, [sp, #20]
   23730:	f007 fdb3 	bl	2b29a <_ZN9allow_pin13dynamic_allow17h33d41317a2da4f1cE>
   23734:	9811      	ldr	r0, [sp, #68]	@ 0x44
   23736:	2802      	cmp	r0, #2
   23738:	d101      	bne.n	2373e <_ZN20complex_dynamic_type3app17h75efe726895bc0a1E+0x4a>
   2373a:	9912      	ldr	r1, [sp, #72]	@ 0x48
   2373c:	e001      	b.n	23742 <_ZN20complex_dynamic_type3app17h75efe726895bc0a1E+0x4e>
   2373e:	a908      	add	r1, sp, #32
   23740:	700c      	strb	r4, [r1, #0]
   23742:	2401      	movs	r4, #1
   23744:	2802      	cmp	r0, #2
   23746:	d02b      	beq.n	237a0 <_ZN20complex_dynamic_type3app17h75efe726895bc0a1E+0xac>
   23748:	a80c      	add	r0, sp, #48	@ 0x30
   2374a:	7800      	ldrb	r0, [r0, #0]
   2374c:	2802      	cmp	r0, #2
   2374e:	4626      	mov	r6, r4
   23750:	d111      	bne.n	23776 <_ZN20complex_dynamic_type3app17h75efe726895bc0a1E+0x82>
   23752:	9405      	str	r4, [sp, #20]
   23754:	2403      	movs	r4, #3
   23756:	9804      	ldr	r0, [sp, #16]
   23758:	9000      	str	r0, [sp, #0]
   2375a:	9401      	str	r4, [sp, #4]
   2375c:	a811      	add	r0, sp, #68	@ 0x44
   2375e:	2600      	movs	r6, #0
   23760:	4931      	ldr	r1, [pc, #196]	@ (23828 <_ZN20complex_dynamic_type3app17h75efe726895bc0a1E+0x134>)
   23762:	4632      	mov	r2, r6
   23764:	9b06      	ldr	r3, [sp, #24]
   23766:	f007 fd98 	bl	2b29a <_ZN9allow_pin13dynamic_allow17h33d41317a2da4f1cE>
   2376a:	9811      	ldr	r0, [sp, #68]	@ 0x44
   2376c:	2802      	cmp	r0, #2
   2376e:	d108      	bne.n	23782 <_ZN20complex_dynamic_type3app17h75efe726895bc0a1E+0x8e>
   23770:	9d12      	ldr	r5, [sp, #72]	@ 0x48
   23772:	9c05      	ldr	r4, [sp, #20]
   23774:	4626      	mov	r6, r4
   23776:	2e00      	cmp	r6, #0
   23778:	d008      	beq.n	2378c <_ZN20complex_dynamic_type3app17h75efe726895bc0a1E+0x98>
   2377a:	4629      	mov	r1, r5
   2377c:	2c00      	cmp	r4, #0
   2377e:	d111      	bne.n	237a4 <_ZN20complex_dynamic_type3app17h75efe726895bc0a1E+0xb0>
   23780:	e032      	b.n	237e8 <_ZN20complex_dynamic_type3app17h75efe726895bc0a1E+0xf4>
   23782:	a80c      	add	r0, sp, #48	@ 0x30
   23784:	7004      	strb	r4, [r0, #0]
   23786:	9c05      	ldr	r4, [sp, #20]
   23788:	2e00      	cmp	r6, #0
   2378a:	d1f6      	bne.n	2377a <_ZN20complex_dynamic_type3app17h75efe726895bc0a1E+0x86>
   2378c:	4625      	mov	r5, r4
   2378e:	4826      	ldr	r0, [pc, #152]	@ (23828 <_ZN20complex_dynamic_type3app17h75efe726895bc0a1E+0x134>)
   23790:	2103      	movs	r1, #3
   23792:	2400      	movs	r4, #0
   23794:	4622      	mov	r2, r4
   23796:	4623      	mov	r3, r4
   23798:	df02      	svc	2
   2379a:	287f      	cmp	r0, #127	@ 0x7f
   2379c:	d80d      	bhi.n	237ba <_ZN20complex_dynamic_type3app17h75efe726895bc0a1E+0xc6>
   2379e:	462c      	mov	r4, r5
   237a0:	2c00      	cmp	r4, #0
   237a2:	d021      	beq.n	237e8 <_ZN20complex_dynamic_type3app17h75efe726895bc0a1E+0xf4>
   237a4:	2001      	movs	r0, #1
   237a6:	9a07      	ldr	r2, [sp, #28]
   237a8:	7010      	strb	r0, [r2, #0]
   237aa:	6051      	str	r1, [r2, #4]
   237ac:	a80c      	add	r0, sp, #48	@ 0x30
   237ae:	7802      	ldrb	r2, [r0, #0]
   237b0:	2a02      	cmp	r2, #2
   237b2:	d02e      	beq.n	23812 <_ZN20complex_dynamic_type3app17h75efe726895bc0a1E+0x11e>
   237b4:	2100      	movs	r1, #0
   237b6:	481c      	ldr	r0, [pc, #112]	@ (23828 <_ZN20complex_dynamic_type3app17h75efe726895bc0a1E+0x134>)
   237b8:	e029      	b.n	2380e <_ZN20complex_dynamic_type3app17h75efe726895bc0a1E+0x11a>
   237ba:	a808      	add	r0, sp, #32
   237bc:	7802      	ldrb	r2, [r0, #0]
   237be:	2a02      	cmp	r2, #2
   237c0:	d003      	beq.n	237ca <_ZN20complex_dynamic_type3app17h75efe726895bc0a1E+0xd6>
   237c2:	2103      	movs	r1, #3
   237c4:	4818      	ldr	r0, [pc, #96]	@ (23828 <_ZN20complex_dynamic_type3app17h75efe726895bc0a1E+0x134>)
   237c6:	f007 fd5b 	bl	2b280 <_ZN9allow_pin12dynamic_type7unshare17hefa7cd45f9379b26E>
   237ca:	a808      	add	r0, sp, #32
   237cc:	9d03      	ldr	r5, [sp, #12]
   237ce:	7005      	strb	r5, [r0, #0]
   237d0:	a80c      	add	r0, sp, #48	@ 0x30
   237d2:	7802      	ldrb	r2, [r0, #0]
   237d4:	2a02      	cmp	r2, #2
   237d6:	d003      	beq.n	237e0 <_ZN20complex_dynamic_type3app17h75efe726895bc0a1E+0xec>
   237d8:	2100      	movs	r1, #0
   237da:	4813      	ldr	r0, [pc, #76]	@ (23828 <_ZN20complex_dynamic_type3app17h75efe726895bc0a1E+0x134>)
   237dc:	f007 fd50 	bl	2b280 <_ZN9allow_pin12dynamic_type7unshare17hefa7cd45f9379b26E>
   237e0:	a80c      	add	r0, sp, #48	@ 0x30
   237e2:	7005      	strb	r5, [r0, #0]
   237e4:	2c00      	cmp	r4, #0
   237e6:	d1dd      	bne.n	237a4 <_ZN20complex_dynamic_type3app17h75efe726895bc0a1E+0xb0>
   237e8:	a80c      	add	r0, sp, #48	@ 0x30
   237ea:	7804      	ldrb	r4, [r0, #0]
   237ec:	2c02      	cmp	r4, #2
   237ee:	d001      	beq.n	237f4 <_ZN20complex_dynamic_type3app17h75efe726895bc0a1E+0x100>
   237f0:	480e      	ldr	r0, [pc, #56]	@ (2382c <_ZN20complex_dynamic_type3app17h75efe726895bc0a1E+0x138>)
   237f2:	9006      	str	r0, [sp, #24]
   237f4:	9d07      	ldr	r5, [sp, #28]
   237f6:	1c68      	adds	r0, r5, #1
   237f8:	2213      	movs	r2, #19
   237fa:	9906      	ldr	r1, [sp, #24]
   237fc:	f007 ff25 	bl	2b64a <__aeabi_memcpy>
   23800:	2000      	movs	r0, #0
   23802:	2c02      	cmp	r4, #2
   23804:	7028      	strb	r0, [r5, #0]
   23806:	d004      	beq.n	23812 <_ZN20complex_dynamic_type3app17h75efe726895bc0a1E+0x11e>
   23808:	2100      	movs	r1, #0
   2380a:	4807      	ldr	r0, [pc, #28]	@ (23828 <_ZN20complex_dynamic_type3app17h75efe726895bc0a1E+0x134>)
   2380c:	4622      	mov	r2, r4
   2380e:	f007 fd37 	bl	2b280 <_ZN9allow_pin12dynamic_type7unshare17hefa7cd45f9379b26E>
   23812:	a808      	add	r0, sp, #32
   23814:	7802      	ldrb	r2, [r0, #0]
   23816:	2a02      	cmp	r2, #2
   23818:	d003      	beq.n	23822 <_ZN20complex_dynamic_type3app17h75efe726895bc0a1E+0x12e>
   2381a:	2103      	movs	r1, #3
   2381c:	4802      	ldr	r0, [pc, #8]	@ (23828 <_ZN20complex_dynamic_type3app17h75efe726895bc0a1E+0x134>)
   2381e:	f007 fd2f 	bl	2b280 <_ZN9allow_pin12dynamic_type7unshare17hefa7cd45f9379b26E>
   23822:	b015      	add	sp, #84	@ 0x54
   23824:	bdf0      	pop	{r4, r5, r6, r7, pc}
   23826:	46c0      	nop			@ (mov r8, r8)
   23828:	00001e4b 	.word	0x00001e4b
   2382c:	000108a8 	.word	0x000108a8

00023830 <_ZN20complex_dynamic_type3app17h7caecb9cad38eef3E>:
   23830:	b5f0      	push	{r4, r5, r6, r7, lr}
   23832:	af03      	add	r7, sp, #12
   23834:	b0a3      	sub	sp, #140	@ 0x8c
   23836:	9006      	str	r0, [sp, #24]
   23838:	a807      	add	r0, sp, #28
   2383a:	2502      	movs	r5, #2
   2383c:	7005      	strb	r5, [r0, #0]
   2383e:	1c40      	adds	r0, r0, #1
   23840:	9004      	str	r0, [sp, #16]
   23842:	241e      	movs	r4, #30
   23844:	4622      	mov	r2, r4
   23846:	f007 ff00 	bl	2b64a <__aeabi_memcpy>
   2384a:	ae0f      	add	r6, sp, #60	@ 0x3c
   2384c:	1c70      	adds	r0, r6, #1
   2384e:	213c      	movs	r1, #60	@ 0x3c
   23850:	9005      	str	r0, [sp, #20]
   23852:	9103      	str	r1, [sp, #12]
   23854:	f007 fd39 	bl	2b2ca <__aeabi_memclr>
   23858:	7035      	strb	r5, [r6, #0]
   2385a:	2004      	movs	r0, #4
   2385c:	9400      	str	r4, [sp, #0]
   2385e:	4604      	mov	r4, r0
   23860:	9001      	str	r0, [sp, #4]
   23862:	a81f      	add	r0, sp, #124	@ 0x7c
   23864:	4e3d      	ldr	r6, [pc, #244]	@ (2395c <_ZN20complex_dynamic_type3app17h7caecb9cad38eef3E+0x12c>)
   23866:	4631      	mov	r1, r6
   23868:	462a      	mov	r2, r5
   2386a:	9b04      	ldr	r3, [sp, #16]
   2386c:	f007 fd15 	bl	2b29a <_ZN9allow_pin13dynamic_allow17h33d41317a2da4f1cE>
   23870:	981f      	ldr	r0, [sp, #124]	@ 0x7c
   23872:	2802      	cmp	r0, #2
   23874:	d101      	bne.n	2387a <_ZN20complex_dynamic_type3app17h7caecb9cad38eef3E+0x4a>
   23876:	9920      	ldr	r1, [sp, #128]	@ 0x80
   23878:	e001      	b.n	2387e <_ZN20complex_dynamic_type3app17h7caecb9cad38eef3E+0x4e>
   2387a:	a907      	add	r1, sp, #28
   2387c:	700c      	strb	r4, [r1, #0]
   2387e:	2501      	movs	r5, #1
   23880:	2802      	cmp	r0, #2
   23882:	d016      	beq.n	238b2 <_ZN20complex_dynamic_type3app17h7caecb9cad38eef3E+0x82>
   23884:	a80f      	add	r0, sp, #60	@ 0x3c
   23886:	7800      	ldrb	r0, [r0, #0]
   23888:	2802      	cmp	r0, #2
   2388a:	d10e      	bne.n	238aa <_ZN20complex_dynamic_type3app17h7caecb9cad38eef3E+0x7a>
   2388c:	2403      	movs	r4, #3
   2388e:	9803      	ldr	r0, [sp, #12]
   23890:	9000      	str	r0, [sp, #0]
   23892:	9401      	str	r4, [sp, #4]
   23894:	a81f      	add	r0, sp, #124	@ 0x7c
   23896:	4631      	mov	r1, r6
   23898:	4622      	mov	r2, r4
   2389a:	9b05      	ldr	r3, [sp, #20]
   2389c:	f007 fcfd 	bl	2b29a <_ZN9allow_pin13dynamic_allow17h33d41317a2da4f1cE>
   238a0:	981f      	ldr	r0, [sp, #124]	@ 0x7c
   238a2:	2802      	cmp	r0, #2
   238a4:	d113      	bne.n	238ce <_ZN20complex_dynamic_type3app17h7caecb9cad38eef3E+0x9e>
   238a6:	9920      	ldr	r1, [sp, #128]	@ 0x80
   238a8:	e000      	b.n	238ac <_ZN20complex_dynamic_type3app17h7caecb9cad38eef3E+0x7c>
   238aa:	2103      	movs	r1, #3
   238ac:	4628      	mov	r0, r5
   238ae:	2800      	cmp	r0, #0
   238b0:	d012      	beq.n	238d8 <_ZN20complex_dynamic_type3app17h7caecb9cad38eef3E+0xa8>
   238b2:	462c      	mov	r4, r5
   238b4:	2c00      	cmp	r4, #0
   238b6:	d031      	beq.n	2391c <_ZN20complex_dynamic_type3app17h7caecb9cad38eef3E+0xec>
   238b8:	2001      	movs	r0, #1
   238ba:	9a06      	ldr	r2, [sp, #24]
   238bc:	7010      	strb	r0, [r2, #0]
   238be:	6051      	str	r1, [r2, #4]
   238c0:	a80f      	add	r0, sp, #60	@ 0x3c
   238c2:	7802      	ldrb	r2, [r0, #0]
   238c4:	2a02      	cmp	r2, #2
   238c6:	d03e      	beq.n	23946 <_ZN20complex_dynamic_type3app17h7caecb9cad38eef3E+0x116>
   238c8:	2103      	movs	r1, #3
   238ca:	4630      	mov	r0, r6
   238cc:	e039      	b.n	23942 <_ZN20complex_dynamic_type3app17h7caecb9cad38eef3E+0x112>
   238ce:	a80f      	add	r0, sp, #60	@ 0x3c
   238d0:	7004      	strb	r4, [r0, #0]
   238d2:	2000      	movs	r0, #0
   238d4:	2800      	cmp	r0, #0
   238d6:	d1ec      	bne.n	238b2 <_ZN20complex_dynamic_type3app17h7caecb9cad38eef3E+0x82>
   238d8:	4820      	ldr	r0, [pc, #128]	@ (2395c <_ZN20complex_dynamic_type3app17h7caecb9cad38eef3E+0x12c>)
   238da:	2102      	movs	r1, #2
   238dc:	2203      	movs	r2, #3
   238de:	2400      	movs	r4, #0
   238e0:	460e      	mov	r6, r1
   238e2:	4623      	mov	r3, r4
   238e4:	df02      	svc	2
   238e6:	287f      	cmp	r0, #127	@ 0x7f
   238e8:	d801      	bhi.n	238ee <_ZN20complex_dynamic_type3app17h7caecb9cad38eef3E+0xbe>
   238ea:	462c      	mov	r4, r5
   238ec:	e013      	b.n	23916 <_ZN20complex_dynamic_type3app17h7caecb9cad38eef3E+0xe6>
   238ee:	a807      	add	r0, sp, #28
   238f0:	7802      	ldrb	r2, [r0, #0]
   238f2:	2a02      	cmp	r2, #2
   238f4:	d003      	beq.n	238fe <_ZN20complex_dynamic_type3app17h7caecb9cad38eef3E+0xce>
   238f6:	2102      	movs	r1, #2
   238f8:	4818      	ldr	r0, [pc, #96]	@ (2395c <_ZN20complex_dynamic_type3app17h7caecb9cad38eef3E+0x12c>)
   238fa:	f007 fcc1 	bl	2b280 <_ZN9allow_pin12dynamic_type7unshare17hefa7cd45f9379b26E>
   238fe:	a807      	add	r0, sp, #28
   23900:	7006      	strb	r6, [r0, #0]
   23902:	a80f      	add	r0, sp, #60	@ 0x3c
   23904:	7802      	ldrb	r2, [r0, #0]
   23906:	2a02      	cmp	r2, #2
   23908:	d003      	beq.n	23912 <_ZN20complex_dynamic_type3app17h7caecb9cad38eef3E+0xe2>
   2390a:	2103      	movs	r1, #3
   2390c:	4813      	ldr	r0, [pc, #76]	@ (2395c <_ZN20complex_dynamic_type3app17h7caecb9cad38eef3E+0x12c>)
   2390e:	f007 fcb7 	bl	2b280 <_ZN9allow_pin12dynamic_type7unshare17hefa7cd45f9379b26E>
   23912:	a80f      	add	r0, sp, #60	@ 0x3c
   23914:	7006      	strb	r6, [r0, #0]
   23916:	4e11      	ldr	r6, [pc, #68]	@ (2395c <_ZN20complex_dynamic_type3app17h7caecb9cad38eef3E+0x12c>)
   23918:	2c00      	cmp	r4, #0
   2391a:	d1cd      	bne.n	238b8 <_ZN20complex_dynamic_type3app17h7caecb9cad38eef3E+0x88>
   2391c:	a80f      	add	r0, sp, #60	@ 0x3c
   2391e:	7804      	ldrb	r4, [r0, #0]
   23920:	2c02      	cmp	r4, #2
   23922:	d001      	beq.n	23928 <_ZN20complex_dynamic_type3app17h7caecb9cad38eef3E+0xf8>
   23924:	480e      	ldr	r0, [pc, #56]	@ (23960 <_ZN20complex_dynamic_type3app17h7caecb9cad38eef3E+0x130>)
   23926:	9005      	str	r0, [sp, #20]
   23928:	9d06      	ldr	r5, [sp, #24]
   2392a:	1c68      	adds	r0, r5, #1
   2392c:	223c      	movs	r2, #60	@ 0x3c
   2392e:	9905      	ldr	r1, [sp, #20]
   23930:	f007 fe8b 	bl	2b64a <__aeabi_memcpy>
   23934:	2000      	movs	r0, #0
   23936:	2c02      	cmp	r4, #2
   23938:	7028      	strb	r0, [r5, #0]
   2393a:	d004      	beq.n	23946 <_ZN20complex_dynamic_type3app17h7caecb9cad38eef3E+0x116>
   2393c:	2103      	movs	r1, #3
   2393e:	4630      	mov	r0, r6
   23940:	4622      	mov	r2, r4
   23942:	f007 fc9d 	bl	2b280 <_ZN9allow_pin12dynamic_type7unshare17hefa7cd45f9379b26E>
   23946:	a807      	add	r0, sp, #28
   23948:	7802      	ldrb	r2, [r0, #0]
   2394a:	2a02      	cmp	r2, #2
   2394c:	d003      	beq.n	23956 <_ZN20complex_dynamic_type3app17h7caecb9cad38eef3E+0x126>
   2394e:	2102      	movs	r1, #2
   23950:	4630      	mov	r0, r6
   23952:	f007 fc95 	bl	2b280 <_ZN9allow_pin12dynamic_type7unshare17hefa7cd45f9379b26E>
   23956:	b023      	add	sp, #140	@ 0x8c
   23958:	bdf0      	pop	{r4, r5, r6, r7, pc}
   2395a:	46c0      	nop			@ (mov r8, r8)
   2395c:	00000b3c 	.word	0x00000b3c
   23960:	000101a6 	.word	0x000101a6

00023964 <_ZN20complex_dynamic_type3app17h8054204578b54b8aE>:
   23964:	b5f0      	push	{r4, r5, r6, r7, lr}
   23966:	af03      	add	r7, sp, #12
   23968:	b0ab      	sub	sp, #172	@ 0xac
   2396a:	9006      	str	r0, [sp, #24]
   2396c:	a807      	add	r0, sp, #28
   2396e:	2602      	movs	r6, #2
   23970:	7006      	strb	r6, [r0, #0]
   23972:	1c40      	adds	r0, r0, #1
   23974:	9004      	str	r0, [sp, #16]
   23976:	251b      	movs	r5, #27
   23978:	462a      	mov	r2, r5
   2397a:	f007 fe66 	bl	2b64a <__aeabi_memcpy>
   2397e:	ac0e      	add	r4, sp, #56	@ 0x38
   23980:	1c60      	adds	r0, r4, #1
   23982:	2163      	movs	r1, #99	@ 0x63
   23984:	9005      	str	r0, [sp, #20]
   23986:	9103      	str	r1, [sp, #12]
   23988:	f007 fc9f 	bl	2b2ca <__aeabi_memclr>
   2398c:	9602      	str	r6, [sp, #8]
   2398e:	7026      	strb	r6, [r4, #0]
   23990:	2404      	movs	r4, #4
   23992:	9500      	str	r5, [sp, #0]
   23994:	9401      	str	r4, [sp, #4]
   23996:	a827      	add	r0, sp, #156	@ 0x9c
   23998:	493c      	ldr	r1, [pc, #240]	@ (23a8c <_ZN20complex_dynamic_type3app17h8054204578b54b8aE+0x128>)
   2399a:	2503      	movs	r5, #3
   2399c:	462a      	mov	r2, r5
   2399e:	9b04      	ldr	r3, [sp, #16]
   239a0:	f007 fc7b 	bl	2b29a <_ZN9allow_pin13dynamic_allow17h33d41317a2da4f1cE>
   239a4:	9827      	ldr	r0, [sp, #156]	@ 0x9c
   239a6:	2802      	cmp	r0, #2
   239a8:	d101      	bne.n	239ae <_ZN20complex_dynamic_type3app17h8054204578b54b8aE+0x4a>
   239aa:	9928      	ldr	r1, [sp, #160]	@ 0xa0
   239ac:	e001      	b.n	239b2 <_ZN20complex_dynamic_type3app17h8054204578b54b8aE+0x4e>
   239ae:	a907      	add	r1, sp, #28
   239b0:	700c      	strb	r4, [r1, #0]
   239b2:	2601      	movs	r6, #1
   239b4:	2802      	cmp	r0, #2
   239b6:	d024      	beq.n	23a02 <_ZN20complex_dynamic_type3app17h8054204578b54b8aE+0x9e>
   239b8:	a80e      	add	r0, sp, #56	@ 0x38
   239ba:	7800      	ldrb	r0, [r0, #0]
   239bc:	2802      	cmp	r0, #2
   239be:	4630      	mov	r0, r6
   239c0:	d10e      	bne.n	239e0 <_ZN20complex_dynamic_type3app17h8054204578b54b8aE+0x7c>
   239c2:	2503      	movs	r5, #3
   239c4:	9803      	ldr	r0, [sp, #12]
   239c6:	9000      	str	r0, [sp, #0]
   239c8:	9501      	str	r5, [sp, #4]
   239ca:	a827      	add	r0, sp, #156	@ 0x9c
   239cc:	492f      	ldr	r1, [pc, #188]	@ (23a8c <_ZN20complex_dynamic_type3app17h8054204578b54b8aE+0x128>)
   239ce:	462a      	mov	r2, r5
   239d0:	9b05      	ldr	r3, [sp, #20]
   239d2:	f007 fc62 	bl	2b29a <_ZN9allow_pin13dynamic_allow17h33d41317a2da4f1cE>
   239d6:	9827      	ldr	r0, [sp, #156]	@ 0x9c
   239d8:	2802      	cmp	r0, #2
   239da:	d105      	bne.n	239e8 <_ZN20complex_dynamic_type3app17h8054204578b54b8aE+0x84>
   239dc:	9d28      	ldr	r5, [sp, #160]	@ 0xa0
   239de:	4630      	mov	r0, r6
   239e0:	2800      	cmp	r0, #0
   239e2:	d006      	beq.n	239f2 <_ZN20complex_dynamic_type3app17h8054204578b54b8aE+0x8e>
   239e4:	4629      	mov	r1, r5
   239e6:	e00c      	b.n	23a02 <_ZN20complex_dynamic_type3app17h8054204578b54b8aE+0x9e>
   239e8:	a80e      	add	r0, sp, #56	@ 0x38
   239ea:	7005      	strb	r5, [r0, #0]
   239ec:	2000      	movs	r0, #0
   239ee:	2800      	cmp	r0, #0
   239f0:	d1f8      	bne.n	239e4 <_ZN20complex_dynamic_type3app17h8054204578b54b8aE+0x80>
   239f2:	4826      	ldr	r0, [pc, #152]	@ (23a8c <_ZN20complex_dynamic_type3app17h8054204578b54b8aE+0x128>)
   239f4:	2103      	movs	r1, #3
   239f6:	2400      	movs	r4, #0
   239f8:	460a      	mov	r2, r1
   239fa:	4623      	mov	r3, r4
   239fc:	df02      	svc	2
   239fe:	287f      	cmp	r0, #127	@ 0x7f
   23a00:	d80d      	bhi.n	23a1e <_ZN20complex_dynamic_type3app17h8054204578b54b8aE+0xba>
   23a02:	4634      	mov	r4, r6
   23a04:	2c00      	cmp	r4, #0
   23a06:	d021      	beq.n	23a4c <_ZN20complex_dynamic_type3app17h8054204578b54b8aE+0xe8>
   23a08:	2001      	movs	r0, #1
   23a0a:	9a06      	ldr	r2, [sp, #24]
   23a0c:	7010      	strb	r0, [r2, #0]
   23a0e:	6051      	str	r1, [r2, #4]
   23a10:	a80e      	add	r0, sp, #56	@ 0x38
   23a12:	7802      	ldrb	r2, [r0, #0]
   23a14:	2a02      	cmp	r2, #2
   23a16:	d02e      	beq.n	23a76 <_ZN20complex_dynamic_type3app17h8054204578b54b8aE+0x112>
   23a18:	2103      	movs	r1, #3
   23a1a:	481c      	ldr	r0, [pc, #112]	@ (23a8c <_ZN20complex_dynamic_type3app17h8054204578b54b8aE+0x128>)
   23a1c:	e029      	b.n	23a72 <_ZN20complex_dynamic_type3app17h8054204578b54b8aE+0x10e>
   23a1e:	a807      	add	r0, sp, #28
   23a20:	7802      	ldrb	r2, [r0, #0]
   23a22:	2a02      	cmp	r2, #2
   23a24:	d003      	beq.n	23a2e <_ZN20complex_dynamic_type3app17h8054204578b54b8aE+0xca>
   23a26:	2103      	movs	r1, #3
   23a28:	4818      	ldr	r0, [pc, #96]	@ (23a8c <_ZN20complex_dynamic_type3app17h8054204578b54b8aE+0x128>)
   23a2a:	f007 fc29 	bl	2b280 <_ZN9allow_pin12dynamic_type7unshare17hefa7cd45f9379b26E>
   23a2e:	a807      	add	r0, sp, #28
   23a30:	9d02      	ldr	r5, [sp, #8]
   23a32:	7005      	strb	r5, [r0, #0]
   23a34:	a80e      	add	r0, sp, #56	@ 0x38
   23a36:	7802      	ldrb	r2, [r0, #0]
   23a38:	2a02      	cmp	r2, #2
   23a3a:	d003      	beq.n	23a44 <_ZN20complex_dynamic_type3app17h8054204578b54b8aE+0xe0>
   23a3c:	2103      	movs	r1, #3
   23a3e:	4813      	ldr	r0, [pc, #76]	@ (23a8c <_ZN20complex_dynamic_type3app17h8054204578b54b8aE+0x128>)
   23a40:	f007 fc1e 	bl	2b280 <_ZN9allow_pin12dynamic_type7unshare17hefa7cd45f9379b26E>
   23a44:	a80e      	add	r0, sp, #56	@ 0x38
   23a46:	7005      	strb	r5, [r0, #0]
   23a48:	2c00      	cmp	r4, #0
   23a4a:	d1dd      	bne.n	23a08 <_ZN20complex_dynamic_type3app17h8054204578b54b8aE+0xa4>
   23a4c:	a80e      	add	r0, sp, #56	@ 0x38
   23a4e:	7804      	ldrb	r4, [r0, #0]
   23a50:	2c02      	cmp	r4, #2
   23a52:	d001      	beq.n	23a58 <_ZN20complex_dynamic_type3app17h8054204578b54b8aE+0xf4>
   23a54:	480e      	ldr	r0, [pc, #56]	@ (23a90 <_ZN20complex_dynamic_type3app17h8054204578b54b8aE+0x12c>)
   23a56:	9005      	str	r0, [sp, #20]
   23a58:	9d06      	ldr	r5, [sp, #24]
   23a5a:	1c68      	adds	r0, r5, #1
   23a5c:	2263      	movs	r2, #99	@ 0x63
   23a5e:	9905      	ldr	r1, [sp, #20]
   23a60:	f007 fdf3 	bl	2b64a <__aeabi_memcpy>
   23a64:	2000      	movs	r0, #0
   23a66:	2c02      	cmp	r4, #2
   23a68:	7028      	strb	r0, [r5, #0]
   23a6a:	d004      	beq.n	23a76 <_ZN20complex_dynamic_type3app17h8054204578b54b8aE+0x112>
   23a6c:	2103      	movs	r1, #3
   23a6e:	4807      	ldr	r0, [pc, #28]	@ (23a8c <_ZN20complex_dynamic_type3app17h8054204578b54b8aE+0x128>)
   23a70:	4622      	mov	r2, r4
   23a72:	f007 fc05 	bl	2b280 <_ZN9allow_pin12dynamic_type7unshare17hefa7cd45f9379b26E>
   23a76:	a807      	add	r0, sp, #28
   23a78:	7802      	ldrb	r2, [r0, #0]
   23a7a:	2a02      	cmp	r2, #2
   23a7c:	d003      	beq.n	23a86 <_ZN20complex_dynamic_type3app17h8054204578b54b8aE+0x122>
   23a7e:	2103      	movs	r1, #3
   23a80:	4802      	ldr	r0, [pc, #8]	@ (23a8c <_ZN20complex_dynamic_type3app17h8054204578b54b8aE+0x128>)
   23a82:	f007 fbfd 	bl	2b280 <_ZN9allow_pin12dynamic_type7unshare17hefa7cd45f9379b26E>
   23a86:	b02b      	add	sp, #172	@ 0xac
   23a88:	bdf0      	pop	{r4, r5, r6, r7, pc}
   23a8a:	46c0      	nop			@ (mov r8, r8)
   23a8c:	00002548 	.word	0x00002548
   23a90:	00010be1 	.word	0x00010be1

00023a94 <_ZN20complex_dynamic_type3app17h8066b6782e17543cE>:
   23a94:	b5f0      	push	{r4, r5, r6, r7, lr}
   23a96:	af03      	add	r7, sp, #12
   23a98:	b09d      	sub	sp, #116	@ 0x74
   23a9a:	9006      	str	r0, [sp, #24]
   23a9c:	a807      	add	r0, sp, #28
   23a9e:	2602      	movs	r6, #2
   23aa0:	7006      	strb	r6, [r0, #0]
   23aa2:	1c40      	adds	r0, r0, #1
   23aa4:	9004      	str	r0, [sp, #16]
   23aa6:	2527      	movs	r5, #39	@ 0x27
   23aa8:	462a      	mov	r2, r5
   23aaa:	f007 fdce 	bl	2b64a <__aeabi_memcpy>
   23aae:	ac11      	add	r4, sp, #68	@ 0x44
   23ab0:	1c60      	adds	r0, r4, #1
   23ab2:	211e      	movs	r1, #30
   23ab4:	9005      	str	r0, [sp, #20]
   23ab6:	9103      	str	r1, [sp, #12]
   23ab8:	f007 fc07 	bl	2b2ca <__aeabi_memclr>
   23abc:	9602      	str	r6, [sp, #8]
   23abe:	7026      	strb	r6, [r4, #0]
   23ac0:	2404      	movs	r4, #4
   23ac2:	9500      	str	r5, [sp, #0]
   23ac4:	9401      	str	r4, [sp, #4]
   23ac6:	a819      	add	r0, sp, #100	@ 0x64
   23ac8:	493c      	ldr	r1, [pc, #240]	@ (23bbc <_ZN20complex_dynamic_type3app17h8066b6782e17543cE+0x128>)
   23aca:	2503      	movs	r5, #3
   23acc:	462a      	mov	r2, r5
   23ace:	9b04      	ldr	r3, [sp, #16]
   23ad0:	f007 fbe3 	bl	2b29a <_ZN9allow_pin13dynamic_allow17h33d41317a2da4f1cE>
   23ad4:	9819      	ldr	r0, [sp, #100]	@ 0x64
   23ad6:	2802      	cmp	r0, #2
   23ad8:	d101      	bne.n	23ade <_ZN20complex_dynamic_type3app17h8066b6782e17543cE+0x4a>
   23ada:	991a      	ldr	r1, [sp, #104]	@ 0x68
   23adc:	e001      	b.n	23ae2 <_ZN20complex_dynamic_type3app17h8066b6782e17543cE+0x4e>
   23ade:	a907      	add	r1, sp, #28
   23ae0:	700c      	strb	r4, [r1, #0]
   23ae2:	2601      	movs	r6, #1
   23ae4:	2802      	cmp	r0, #2
   23ae6:	d024      	beq.n	23b32 <_ZN20complex_dynamic_type3app17h8066b6782e17543cE+0x9e>
   23ae8:	a811      	add	r0, sp, #68	@ 0x44
   23aea:	7800      	ldrb	r0, [r0, #0]
   23aec:	2802      	cmp	r0, #2
   23aee:	4630      	mov	r0, r6
   23af0:	d10e      	bne.n	23b10 <_ZN20complex_dynamic_type3app17h8066b6782e17543cE+0x7c>
   23af2:	2503      	movs	r5, #3
   23af4:	9803      	ldr	r0, [sp, #12]
   23af6:	9000      	str	r0, [sp, #0]
   23af8:	9501      	str	r5, [sp, #4]
   23afa:	a819      	add	r0, sp, #100	@ 0x64
   23afc:	492f      	ldr	r1, [pc, #188]	@ (23bbc <_ZN20complex_dynamic_type3app17h8066b6782e17543cE+0x128>)
   23afe:	462a      	mov	r2, r5
   23b00:	9b05      	ldr	r3, [sp, #20]
   23b02:	f007 fbca 	bl	2b29a <_ZN9allow_pin13dynamic_allow17h33d41317a2da4f1cE>
   23b06:	9819      	ldr	r0, [sp, #100]	@ 0x64
   23b08:	2802      	cmp	r0, #2
   23b0a:	d105      	bne.n	23b18 <_ZN20complex_dynamic_type3app17h8066b6782e17543cE+0x84>
   23b0c:	9d1a      	ldr	r5, [sp, #104]	@ 0x68
   23b0e:	4630      	mov	r0, r6
   23b10:	2800      	cmp	r0, #0
   23b12:	d006      	beq.n	23b22 <_ZN20complex_dynamic_type3app17h8066b6782e17543cE+0x8e>
   23b14:	4629      	mov	r1, r5
   23b16:	e00c      	b.n	23b32 <_ZN20complex_dynamic_type3app17h8066b6782e17543cE+0x9e>
   23b18:	a811      	add	r0, sp, #68	@ 0x44
   23b1a:	7005      	strb	r5, [r0, #0]
   23b1c:	2000      	movs	r0, #0
   23b1e:	2800      	cmp	r0, #0
   23b20:	d1f8      	bne.n	23b14 <_ZN20complex_dynamic_type3app17h8066b6782e17543cE+0x80>
   23b22:	4826      	ldr	r0, [pc, #152]	@ (23bbc <_ZN20complex_dynamic_type3app17h8066b6782e17543cE+0x128>)
   23b24:	2103      	movs	r1, #3
   23b26:	2400      	movs	r4, #0
   23b28:	460a      	mov	r2, r1
   23b2a:	4623      	mov	r3, r4
   23b2c:	df02      	svc	2
   23b2e:	287f      	cmp	r0, #127	@ 0x7f
   23b30:	d80d      	bhi.n	23b4e <_ZN20complex_dynamic_type3app17h8066b6782e17543cE+0xba>
   23b32:	4634      	mov	r4, r6
   23b34:	2c00      	cmp	r4, #0
   23b36:	d021      	beq.n	23b7c <_ZN20complex_dynamic_type3app17h8066b6782e17543cE+0xe8>
   23b38:	2001      	movs	r0, #1
   23b3a:	9a06      	ldr	r2, [sp, #24]
   23b3c:	7010      	strb	r0, [r2, #0]
   23b3e:	6051      	str	r1, [r2, #4]
   23b40:	a811      	add	r0, sp, #68	@ 0x44
   23b42:	7802      	ldrb	r2, [r0, #0]
   23b44:	2a02      	cmp	r2, #2
   23b46:	d02e      	beq.n	23ba6 <_ZN20complex_dynamic_type3app17h8066b6782e17543cE+0x112>
   23b48:	2103      	movs	r1, #3
   23b4a:	481c      	ldr	r0, [pc, #112]	@ (23bbc <_ZN20complex_dynamic_type3app17h8066b6782e17543cE+0x128>)
   23b4c:	e029      	b.n	23ba2 <_ZN20complex_dynamic_type3app17h8066b6782e17543cE+0x10e>
   23b4e:	a807      	add	r0, sp, #28
   23b50:	7802      	ldrb	r2, [r0, #0]
   23b52:	2a02      	cmp	r2, #2
   23b54:	d003      	beq.n	23b5e <_ZN20complex_dynamic_type3app17h8066b6782e17543cE+0xca>
   23b56:	2103      	movs	r1, #3
   23b58:	4818      	ldr	r0, [pc, #96]	@ (23bbc <_ZN20complex_dynamic_type3app17h8066b6782e17543cE+0x128>)
   23b5a:	f007 fb91 	bl	2b280 <_ZN9allow_pin12dynamic_type7unshare17hefa7cd45f9379b26E>
   23b5e:	a807      	add	r0, sp, #28
   23b60:	9d02      	ldr	r5, [sp, #8]
   23b62:	7005      	strb	r5, [r0, #0]
   23b64:	a811      	add	r0, sp, #68	@ 0x44
   23b66:	7802      	ldrb	r2, [r0, #0]
   23b68:	2a02      	cmp	r2, #2
   23b6a:	d003      	beq.n	23b74 <_ZN20complex_dynamic_type3app17h8066b6782e17543cE+0xe0>
   23b6c:	2103      	movs	r1, #3
   23b6e:	4813      	ldr	r0, [pc, #76]	@ (23bbc <_ZN20complex_dynamic_type3app17h8066b6782e17543cE+0x128>)
   23b70:	f007 fb86 	bl	2b280 <_ZN9allow_pin12dynamic_type7unshare17hefa7cd45f9379b26E>
   23b74:	a811      	add	r0, sp, #68	@ 0x44
   23b76:	7005      	strb	r5, [r0, #0]
   23b78:	2c00      	cmp	r4, #0
   23b7a:	d1dd      	bne.n	23b38 <_ZN20complex_dynamic_type3app17h8066b6782e17543cE+0xa4>
   23b7c:	a811      	add	r0, sp, #68	@ 0x44
   23b7e:	7804      	ldrb	r4, [r0, #0]
   23b80:	2c02      	cmp	r4, #2
   23b82:	d001      	beq.n	23b88 <_ZN20complex_dynamic_type3app17h8066b6782e17543cE+0xf4>
   23b84:	480e      	ldr	r0, [pc, #56]	@ (23bc0 <_ZN20complex_dynamic_type3app17h8066b6782e17543cE+0x12c>)
   23b86:	9005      	str	r0, [sp, #20]
   23b88:	9d06      	ldr	r5, [sp, #24]
   23b8a:	1c68      	adds	r0, r5, #1
   23b8c:	221e      	movs	r2, #30
   23b8e:	9905      	ldr	r1, [sp, #20]
   23b90:	f007 fd5b 	bl	2b64a <__aeabi_memcpy>
   23b94:	2000      	movs	r0, #0
   23b96:	2c02      	cmp	r4, #2
   23b98:	7028      	strb	r0, [r5, #0]
   23b9a:	d004      	beq.n	23ba6 <_ZN20complex_dynamic_type3app17h8066b6782e17543cE+0x112>
   23b9c:	2103      	movs	r1, #3
   23b9e:	4807      	ldr	r0, [pc, #28]	@ (23bbc <_ZN20complex_dynamic_type3app17h8066b6782e17543cE+0x128>)
   23ba0:	4622      	mov	r2, r4
   23ba2:	f007 fb6d 	bl	2b280 <_ZN9allow_pin12dynamic_type7unshare17hefa7cd45f9379b26E>
   23ba6:	a807      	add	r0, sp, #28
   23ba8:	7802      	ldrb	r2, [r0, #0]
   23baa:	2a02      	cmp	r2, #2
   23bac:	d003      	beq.n	23bb6 <_ZN20complex_dynamic_type3app17h8066b6782e17543cE+0x122>
   23bae:	2103      	movs	r1, #3
   23bb0:	4802      	ldr	r0, [pc, #8]	@ (23bbc <_ZN20complex_dynamic_type3app17h8066b6782e17543cE+0x128>)
   23bb2:	f007 fb65 	bl	2b280 <_ZN9allow_pin12dynamic_type7unshare17hefa7cd45f9379b26E>
   23bb6:	b01d      	add	sp, #116	@ 0x74
   23bb8:	bdf0      	pop	{r4, r5, r6, r7, pc}
   23bba:	46c0      	nop			@ (mov r8, r8)
   23bbc:	000010e2 	.word	0x000010e2
   23bc0:	0001010e 	.word	0x0001010e

00023bc4 <_ZN20complex_dynamic_type3app17h81d79199fec79c3bE>:
   23bc4:	b5f0      	push	{r4, r5, r6, r7, lr}
   23bc6:	af03      	add	r7, sp, #12
   23bc8:	b0a3      	sub	sp, #140	@ 0x8c
   23bca:	9007      	str	r0, [sp, #28]
   23bcc:	a808      	add	r0, sp, #32
   23bce:	2502      	movs	r5, #2
   23bd0:	7005      	strb	r5, [r0, #0]
   23bd2:	1c40      	adds	r0, r0, #1
   23bd4:	9005      	str	r0, [sp, #20]
   23bd6:	2648      	movs	r6, #72	@ 0x48
   23bd8:	4632      	mov	r2, r6
   23bda:	f007 fd36 	bl	2b64a <__aeabi_memcpy>
   23bde:	ac1b      	add	r4, sp, #108	@ 0x6c
   23be0:	1c60      	adds	r0, r4, #1
   23be2:	210f      	movs	r1, #15
   23be4:	9006      	str	r0, [sp, #24]
   23be6:	9104      	str	r1, [sp, #16]
   23be8:	f007 fb6f 	bl	2b2ca <__aeabi_memclr>
   23bec:	9503      	str	r5, [sp, #12]
   23bee:	7025      	strb	r5, [r4, #0]
   23bf0:	2404      	movs	r4, #4
   23bf2:	9600      	str	r6, [sp, #0]
   23bf4:	9401      	str	r4, [sp, #4]
   23bf6:	a81f      	add	r0, sp, #124	@ 0x7c
   23bf8:	4e3c      	ldr	r6, [pc, #240]	@ (23cec <_ZN20complex_dynamic_type3app17h81d79199fec79c3bE+0x128>)
   23bfa:	2208      	movs	r2, #8
   23bfc:	4631      	mov	r1, r6
   23bfe:	9b05      	ldr	r3, [sp, #20]
   23c00:	f007 fb4b 	bl	2b29a <_ZN9allow_pin13dynamic_allow17h33d41317a2da4f1cE>
   23c04:	981f      	ldr	r0, [sp, #124]	@ 0x7c
   23c06:	2802      	cmp	r0, #2
   23c08:	d101      	bne.n	23c0e <_ZN20complex_dynamic_type3app17h81d79199fec79c3bE+0x4a>
   23c0a:	9920      	ldr	r1, [sp, #128]	@ 0x80
   23c0c:	e001      	b.n	23c12 <_ZN20complex_dynamic_type3app17h81d79199fec79c3bE+0x4e>
   23c0e:	a908      	add	r1, sp, #32
   23c10:	700c      	strb	r4, [r1, #0]
   23c12:	2501      	movs	r5, #1
   23c14:	2802      	cmp	r0, #2
   23c16:	d024      	beq.n	23c62 <_ZN20complex_dynamic_type3app17h81d79199fec79c3bE+0x9e>
   23c18:	a81b      	add	r0, sp, #108	@ 0x6c
   23c1a:	7800      	ldrb	r0, [r0, #0]
   23c1c:	2802      	cmp	r0, #2
   23c1e:	d10e      	bne.n	23c3e <_ZN20complex_dynamic_type3app17h81d79199fec79c3bE+0x7a>
   23c20:	2403      	movs	r4, #3
   23c22:	9804      	ldr	r0, [sp, #16]
   23c24:	9000      	str	r0, [sp, #0]
   23c26:	9401      	str	r4, [sp, #4]
   23c28:	a81f      	add	r0, sp, #124	@ 0x7c
   23c2a:	2209      	movs	r2, #9
   23c2c:	4631      	mov	r1, r6
   23c2e:	9b06      	ldr	r3, [sp, #24]
   23c30:	f007 fb33 	bl	2b29a <_ZN9allow_pin13dynamic_allow17h33d41317a2da4f1cE>
   23c34:	981f      	ldr	r0, [sp, #124]	@ 0x7c
   23c36:	2802      	cmp	r0, #2
   23c38:	d106      	bne.n	23c48 <_ZN20complex_dynamic_type3app17h81d79199fec79c3bE+0x84>
   23c3a:	9920      	ldr	r1, [sp, #128]	@ 0x80
   23c3c:	e000      	b.n	23c40 <_ZN20complex_dynamic_type3app17h81d79199fec79c3bE+0x7c>
   23c3e:	2103      	movs	r1, #3
   23c40:	4628      	mov	r0, r5
   23c42:	2800      	cmp	r0, #0
   23c44:	d005      	beq.n	23c52 <_ZN20complex_dynamic_type3app17h81d79199fec79c3bE+0x8e>
   23c46:	e00c      	b.n	23c62 <_ZN20complex_dynamic_type3app17h81d79199fec79c3bE+0x9e>
   23c48:	a81b      	add	r0, sp, #108	@ 0x6c
   23c4a:	7004      	strb	r4, [r0, #0]
   23c4c:	2000      	movs	r0, #0
   23c4e:	2800      	cmp	r0, #0
   23c50:	d107      	bne.n	23c62 <_ZN20complex_dynamic_type3app17h81d79199fec79c3bE+0x9e>
   23c52:	4826      	ldr	r0, [pc, #152]	@ (23cec <_ZN20complex_dynamic_type3app17h81d79199fec79c3bE+0x128>)
   23c54:	2108      	movs	r1, #8
   23c56:	2209      	movs	r2, #9
   23c58:	2400      	movs	r4, #0
   23c5a:	4623      	mov	r3, r4
   23c5c:	df02      	svc	2
   23c5e:	287f      	cmp	r0, #127	@ 0x7f
   23c60:	d80d      	bhi.n	23c7e <_ZN20complex_dynamic_type3app17h81d79199fec79c3bE+0xba>
   23c62:	462c      	mov	r4, r5
   23c64:	2c00      	cmp	r4, #0
   23c66:	d021      	beq.n	23cac <_ZN20complex_dynamic_type3app17h81d79199fec79c3bE+0xe8>
   23c68:	2001      	movs	r0, #1
   23c6a:	9a07      	ldr	r2, [sp, #28]
   23c6c:	7010      	strb	r0, [r2, #0]
   23c6e:	6051      	str	r1, [r2, #4]
   23c70:	a81b      	add	r0, sp, #108	@ 0x6c
   23c72:	7802      	ldrb	r2, [r0, #0]
   23c74:	2a02      	cmp	r2, #2
   23c76:	d02e      	beq.n	23cd6 <_ZN20complex_dynamic_type3app17h81d79199fec79c3bE+0x112>
   23c78:	2109      	movs	r1, #9
   23c7a:	4630      	mov	r0, r6
   23c7c:	e029      	b.n	23cd2 <_ZN20complex_dynamic_type3app17h81d79199fec79c3bE+0x10e>
   23c7e:	a808      	add	r0, sp, #32
   23c80:	7802      	ldrb	r2, [r0, #0]
   23c82:	2a02      	cmp	r2, #2
   23c84:	d003      	beq.n	23c8e <_ZN20complex_dynamic_type3app17h81d79199fec79c3bE+0xca>
   23c86:	2108      	movs	r1, #8
   23c88:	4630      	mov	r0, r6
   23c8a:	f007 faf9 	bl	2b280 <_ZN9allow_pin12dynamic_type7unshare17hefa7cd45f9379b26E>
   23c8e:	a808      	add	r0, sp, #32
   23c90:	9d03      	ldr	r5, [sp, #12]
   23c92:	7005      	strb	r5, [r0, #0]
   23c94:	a81b      	add	r0, sp, #108	@ 0x6c
   23c96:	7802      	ldrb	r2, [r0, #0]
   23c98:	2a02      	cmp	r2, #2
   23c9a:	d003      	beq.n	23ca4 <_ZN20complex_dynamic_type3app17h81d79199fec79c3bE+0xe0>
   23c9c:	2109      	movs	r1, #9
   23c9e:	4630      	mov	r0, r6
   23ca0:	f007 faee 	bl	2b280 <_ZN9allow_pin12dynamic_type7unshare17hefa7cd45f9379b26E>
   23ca4:	a81b      	add	r0, sp, #108	@ 0x6c
   23ca6:	7005      	strb	r5, [r0, #0]
   23ca8:	2c00      	cmp	r4, #0
   23caa:	d1dd      	bne.n	23c68 <_ZN20complex_dynamic_type3app17h81d79199fec79c3bE+0xa4>
   23cac:	a81b      	add	r0, sp, #108	@ 0x6c
   23cae:	7804      	ldrb	r4, [r0, #0]
   23cb0:	2c02      	cmp	r4, #2
   23cb2:	d001      	beq.n	23cb8 <_ZN20complex_dynamic_type3app17h81d79199fec79c3bE+0xf4>
   23cb4:	480e      	ldr	r0, [pc, #56]	@ (23cf0 <_ZN20complex_dynamic_type3app17h81d79199fec79c3bE+0x12c>)
   23cb6:	9006      	str	r0, [sp, #24]
   23cb8:	9d07      	ldr	r5, [sp, #28]
   23cba:	1c68      	adds	r0, r5, #1
   23cbc:	220f      	movs	r2, #15
   23cbe:	9906      	ldr	r1, [sp, #24]
   23cc0:	f007 fcc3 	bl	2b64a <__aeabi_memcpy>
   23cc4:	2000      	movs	r0, #0
   23cc6:	2c02      	cmp	r4, #2
   23cc8:	7028      	strb	r0, [r5, #0]
   23cca:	d004      	beq.n	23cd6 <_ZN20complex_dynamic_type3app17h81d79199fec79c3bE+0x112>
   23ccc:	2109      	movs	r1, #9
   23cce:	4630      	mov	r0, r6
   23cd0:	4622      	mov	r2, r4
   23cd2:	f007 fad5 	bl	2b280 <_ZN9allow_pin12dynamic_type7unshare17hefa7cd45f9379b26E>
   23cd6:	a808      	add	r0, sp, #32
   23cd8:	7802      	ldrb	r2, [r0, #0]
   23cda:	2a02      	cmp	r2, #2
   23cdc:	d003      	beq.n	23ce6 <_ZN20complex_dynamic_type3app17h81d79199fec79c3bE+0x122>
   23cde:	2108      	movs	r1, #8
   23ce0:	4630      	mov	r0, r6
   23ce2:	f007 facd 	bl	2b280 <_ZN9allow_pin12dynamic_type7unshare17hefa7cd45f9379b26E>
   23ce6:	b023      	add	sp, #140	@ 0x8c
   23ce8:	bdf0      	pop	{r4, r5, r6, r7, pc}
   23cea:	46c0      	nop			@ (mov r8, r8)
   23cec:	0000111d 	.word	0x0000111d
   23cf0:	0001081f 	.word	0x0001081f

00023cf4 <_ZN20complex_dynamic_type3app17h86d9a88f5e1d8649E>:
   23cf4:	b5f0      	push	{r4, r5, r6, r7, lr}
   23cf6:	af03      	add	r7, sp, #12
   23cf8:	b0a1      	sub	sp, #132	@ 0x84
   23cfa:	9006      	str	r0, [sp, #24]
   23cfc:	a807      	add	r0, sp, #28
   23cfe:	2602      	movs	r6, #2
   23d00:	7006      	strb	r6, [r0, #0]
   23d02:	1c40      	adds	r0, r0, #1
   23d04:	9004      	str	r0, [sp, #16]
   23d06:	252c      	movs	r5, #44	@ 0x2c
   23d08:	462a      	mov	r2, r5
   23d0a:	f007 fc9e 	bl	2b64a <__aeabi_memcpy>
   23d0e:	ac13      	add	r4, sp, #76	@ 0x4c
   23d10:	1c60      	adds	r0, r4, #1
   23d12:	2125      	movs	r1, #37	@ 0x25
   23d14:	9005      	str	r0, [sp, #20]
   23d16:	9103      	str	r1, [sp, #12]
   23d18:	f007 fad7 	bl	2b2ca <__aeabi_memclr>
   23d1c:	9602      	str	r6, [sp, #8]
   23d1e:	7026      	strb	r6, [r4, #0]
   23d20:	2404      	movs	r4, #4
   23d22:	9500      	str	r5, [sp, #0]
   23d24:	9401      	str	r4, [sp, #4]
   23d26:	a81d      	add	r0, sp, #116	@ 0x74
   23d28:	493f      	ldr	r1, [pc, #252]	@ (23e28 <_ZN20complex_dynamic_type3app17h86d9a88f5e1d8649E+0x134>)
   23d2a:	2503      	movs	r5, #3
   23d2c:	462a      	mov	r2, r5
   23d2e:	9b04      	ldr	r3, [sp, #16]
   23d30:	f007 fab3 	bl	2b29a <_ZN9allow_pin13dynamic_allow17h33d41317a2da4f1cE>
   23d34:	981d      	ldr	r0, [sp, #116]	@ 0x74
   23d36:	2802      	cmp	r0, #2
   23d38:	d101      	bne.n	23d3e <_ZN20complex_dynamic_type3app17h86d9a88f5e1d8649E+0x4a>
   23d3a:	991e      	ldr	r1, [sp, #120]	@ 0x78
   23d3c:	e001      	b.n	23d42 <_ZN20complex_dynamic_type3app17h86d9a88f5e1d8649E+0x4e>
   23d3e:	a907      	add	r1, sp, #28
   23d40:	700c      	strb	r4, [r1, #0]
   23d42:	2401      	movs	r4, #1
   23d44:	2802      	cmp	r0, #2
   23d46:	d02b      	beq.n	23da0 <_ZN20complex_dynamic_type3app17h86d9a88f5e1d8649E+0xac>
   23d48:	a813      	add	r0, sp, #76	@ 0x4c
   23d4a:	7800      	ldrb	r0, [r0, #0]
   23d4c:	2802      	cmp	r0, #2
   23d4e:	4626      	mov	r6, r4
   23d50:	d111      	bne.n	23d76 <_ZN20complex_dynamic_type3app17h86d9a88f5e1d8649E+0x82>
   23d52:	9404      	str	r4, [sp, #16]
   23d54:	2403      	movs	r4, #3
   23d56:	9803      	ldr	r0, [sp, #12]
   23d58:	9000      	str	r0, [sp, #0]
   23d5a:	9401      	str	r4, [sp, #4]
   23d5c:	a81d      	add	r0, sp, #116	@ 0x74
   23d5e:	2600      	movs	r6, #0
   23d60:	4931      	ldr	r1, [pc, #196]	@ (23e28 <_ZN20complex_dynamic_type3app17h86d9a88f5e1d8649E+0x134>)
   23d62:	4632      	mov	r2, r6
   23d64:	9b05      	ldr	r3, [sp, #20]
   23d66:	f007 fa98 	bl	2b29a <_ZN9allow_pin13dynamic_allow17h33d41317a2da4f1cE>
   23d6a:	981d      	ldr	r0, [sp, #116]	@ 0x74
   23d6c:	2802      	cmp	r0, #2
   23d6e:	d108      	bne.n	23d82 <_ZN20complex_dynamic_type3app17h86d9a88f5e1d8649E+0x8e>
   23d70:	9d1e      	ldr	r5, [sp, #120]	@ 0x78
   23d72:	9c04      	ldr	r4, [sp, #16]
   23d74:	4626      	mov	r6, r4
   23d76:	2e00      	cmp	r6, #0
   23d78:	d008      	beq.n	23d8c <_ZN20complex_dynamic_type3app17h86d9a88f5e1d8649E+0x98>
   23d7a:	4629      	mov	r1, r5
   23d7c:	2c00      	cmp	r4, #0
   23d7e:	d111      	bne.n	23da4 <_ZN20complex_dynamic_type3app17h86d9a88f5e1d8649E+0xb0>
   23d80:	e032      	b.n	23de8 <_ZN20complex_dynamic_type3app17h86d9a88f5e1d8649E+0xf4>
   23d82:	a813      	add	r0, sp, #76	@ 0x4c
   23d84:	7004      	strb	r4, [r0, #0]
   23d86:	9c04      	ldr	r4, [sp, #16]
   23d88:	2e00      	cmp	r6, #0
   23d8a:	d1f6      	bne.n	23d7a <_ZN20complex_dynamic_type3app17h86d9a88f5e1d8649E+0x86>
   23d8c:	4625      	mov	r5, r4
   23d8e:	4826      	ldr	r0, [pc, #152]	@ (23e28 <_ZN20complex_dynamic_type3app17h86d9a88f5e1d8649E+0x134>)
   23d90:	2103      	movs	r1, #3
   23d92:	2400      	movs	r4, #0
   23d94:	4622      	mov	r2, r4
   23d96:	4623      	mov	r3, r4
   23d98:	df02      	svc	2
   23d9a:	287f      	cmp	r0, #127	@ 0x7f
   23d9c:	d80d      	bhi.n	23dba <_ZN20complex_dynamic_type3app17h86d9a88f5e1d8649E+0xc6>
   23d9e:	462c      	mov	r4, r5
   23da0:	2c00      	cmp	r4, #0
   23da2:	d021      	beq.n	23de8 <_ZN20complex_dynamic_type3app17h86d9a88f5e1d8649E+0xf4>
   23da4:	2001      	movs	r0, #1
   23da6:	9a06      	ldr	r2, [sp, #24]
   23da8:	7010      	strb	r0, [r2, #0]
   23daa:	6051      	str	r1, [r2, #4]
   23dac:	a813      	add	r0, sp, #76	@ 0x4c
   23dae:	7802      	ldrb	r2, [r0, #0]
   23db0:	2a02      	cmp	r2, #2
   23db2:	d02e      	beq.n	23e12 <_ZN20complex_dynamic_type3app17h86d9a88f5e1d8649E+0x11e>
   23db4:	2100      	movs	r1, #0
   23db6:	481c      	ldr	r0, [pc, #112]	@ (23e28 <_ZN20complex_dynamic_type3app17h86d9a88f5e1d8649E+0x134>)
   23db8:	e029      	b.n	23e0e <_ZN20complex_dynamic_type3app17h86d9a88f5e1d8649E+0x11a>
   23dba:	a807      	add	r0, sp, #28
   23dbc:	7802      	ldrb	r2, [r0, #0]
   23dbe:	2a02      	cmp	r2, #2
   23dc0:	d003      	beq.n	23dca <_ZN20complex_dynamic_type3app17h86d9a88f5e1d8649E+0xd6>
   23dc2:	2103      	movs	r1, #3
   23dc4:	4818      	ldr	r0, [pc, #96]	@ (23e28 <_ZN20complex_dynamic_type3app17h86d9a88f5e1d8649E+0x134>)
   23dc6:	f007 fa5b 	bl	2b280 <_ZN9allow_pin12dynamic_type7unshare17hefa7cd45f9379b26E>
   23dca:	a807      	add	r0, sp, #28
   23dcc:	9d02      	ldr	r5, [sp, #8]
   23dce:	7005      	strb	r5, [r0, #0]
   23dd0:	a813      	add	r0, sp, #76	@ 0x4c
   23dd2:	7802      	ldrb	r2, [r0, #0]
   23dd4:	2a02      	cmp	r2, #2
   23dd6:	d003      	beq.n	23de0 <_ZN20complex_dynamic_type3app17h86d9a88f5e1d8649E+0xec>
   23dd8:	2100      	movs	r1, #0
   23dda:	4813      	ldr	r0, [pc, #76]	@ (23e28 <_ZN20complex_dynamic_type3app17h86d9a88f5e1d8649E+0x134>)
   23ddc:	f007 fa50 	bl	2b280 <_ZN9allow_pin12dynamic_type7unshare17hefa7cd45f9379b26E>
   23de0:	a813      	add	r0, sp, #76	@ 0x4c
   23de2:	7005      	strb	r5, [r0, #0]
   23de4:	2c00      	cmp	r4, #0
   23de6:	d1dd      	bne.n	23da4 <_ZN20complex_dynamic_type3app17h86d9a88f5e1d8649E+0xb0>
   23de8:	a813      	add	r0, sp, #76	@ 0x4c
   23dea:	7804      	ldrb	r4, [r0, #0]
   23dec:	2c02      	cmp	r4, #2
   23dee:	d001      	beq.n	23df4 <_ZN20complex_dynamic_type3app17h86d9a88f5e1d8649E+0x100>
   23df0:	480e      	ldr	r0, [pc, #56]	@ (23e2c <_ZN20complex_dynamic_type3app17h86d9a88f5e1d8649E+0x138>)
   23df2:	9005      	str	r0, [sp, #20]
   23df4:	9d06      	ldr	r5, [sp, #24]
   23df6:	1c68      	adds	r0, r5, #1
   23df8:	2225      	movs	r2, #37	@ 0x25
   23dfa:	9905      	ldr	r1, [sp, #20]
   23dfc:	f007 fc25 	bl	2b64a <__aeabi_memcpy>
   23e00:	2000      	movs	r0, #0
   23e02:	2c02      	cmp	r4, #2
   23e04:	7028      	strb	r0, [r5, #0]
   23e06:	d004      	beq.n	23e12 <_ZN20complex_dynamic_type3app17h86d9a88f5e1d8649E+0x11e>
   23e08:	2100      	movs	r1, #0
   23e0a:	4807      	ldr	r0, [pc, #28]	@ (23e28 <_ZN20complex_dynamic_type3app17h86d9a88f5e1d8649E+0x134>)
   23e0c:	4622      	mov	r2, r4
   23e0e:	f007 fa37 	bl	2b280 <_ZN9allow_pin12dynamic_type7unshare17hefa7cd45f9379b26E>
   23e12:	a807      	add	r0, sp, #28
   23e14:	7802      	ldrb	r2, [r0, #0]
   23e16:	2a02      	cmp	r2, #2
   23e18:	d003      	beq.n	23e22 <_ZN20complex_dynamic_type3app17h86d9a88f5e1d8649E+0x12e>
   23e1a:	2103      	movs	r1, #3
   23e1c:	4802      	ldr	r0, [pc, #8]	@ (23e28 <_ZN20complex_dynamic_type3app17h86d9a88f5e1d8649E+0x134>)
   23e1e:	f007 fa2f 	bl	2b280 <_ZN9allow_pin12dynamic_type7unshare17hefa7cd45f9379b26E>
   23e22:	b021      	add	sp, #132	@ 0x84
   23e24:	bdf0      	pop	{r4, r5, r6, r7, pc}
   23e26:	46c0      	nop			@ (mov r8, r8)
   23e28:	0000077f 	.word	0x0000077f
   23e2c:	00010615 	.word	0x00010615

00023e30 <_ZN20complex_dynamic_type3app17h8933dc6181fba57eE>:
   23e30:	b5f0      	push	{r4, r5, r6, r7, lr}
   23e32:	af03      	add	r7, sp, #12
   23e34:	b0a5      	sub	sp, #148	@ 0x94
   23e36:	9006      	str	r0, [sp, #24]
   23e38:	a807      	add	r0, sp, #28
   23e3a:	2402      	movs	r4, #2
   23e3c:	7004      	strb	r4, [r0, #0]
   23e3e:	1c40      	adds	r0, r0, #1
   23e40:	9004      	str	r0, [sp, #16]
   23e42:	2632      	movs	r6, #50	@ 0x32
   23e44:	4632      	mov	r2, r6
   23e46:	f007 fc00 	bl	2b64a <__aeabi_memcpy>
   23e4a:	ad14      	add	r5, sp, #80	@ 0x50
   23e4c:	1c68      	adds	r0, r5, #1
   23e4e:	9005      	str	r0, [sp, #20]
   23e50:	4631      	mov	r1, r6
   23e52:	f007 fa3a 	bl	2b2ca <__aeabi_memclr>
   23e56:	9402      	str	r4, [sp, #8]
   23e58:	702c      	strb	r4, [r5, #0]
   23e5a:	4634      	mov	r4, r6
   23e5c:	2504      	movs	r5, #4
   23e5e:	9600      	str	r6, [sp, #0]
   23e60:	9501      	str	r5, [sp, #4]
   23e62:	a821      	add	r0, sp, #132	@ 0x84
   23e64:	493c      	ldr	r1, [pc, #240]	@ (23f58 <_ZN20complex_dynamic_type3app17h8933dc6181fba57eE+0x128>)
   23e66:	2203      	movs	r2, #3
   23e68:	9203      	str	r2, [sp, #12]
   23e6a:	9b04      	ldr	r3, [sp, #16]
   23e6c:	f007 fa15 	bl	2b29a <_ZN9allow_pin13dynamic_allow17h33d41317a2da4f1cE>
   23e70:	9821      	ldr	r0, [sp, #132]	@ 0x84
   23e72:	2802      	cmp	r0, #2
   23e74:	d101      	bne.n	23e7a <_ZN20complex_dynamic_type3app17h8933dc6181fba57eE+0x4a>
   23e76:	9922      	ldr	r1, [sp, #136]	@ 0x88
   23e78:	e001      	b.n	23e7e <_ZN20complex_dynamic_type3app17h8933dc6181fba57eE+0x4e>
   23e7a:	a907      	add	r1, sp, #28
   23e7c:	700d      	strb	r5, [r1, #0]
   23e7e:	2601      	movs	r6, #1
   23e80:	2802      	cmp	r0, #2
   23e82:	d024      	beq.n	23ece <_ZN20complex_dynamic_type3app17h8933dc6181fba57eE+0x9e>
   23e84:	a814      	add	r0, sp, #80	@ 0x50
   23e86:	7800      	ldrb	r0, [r0, #0]
   23e88:	2802      	cmp	r0, #2
   23e8a:	4630      	mov	r0, r6
   23e8c:	d10e      	bne.n	23eac <_ZN20complex_dynamic_type3app17h8933dc6181fba57eE+0x7c>
   23e8e:	2503      	movs	r5, #3
   23e90:	9400      	str	r4, [sp, #0]
   23e92:	9501      	str	r5, [sp, #4]
   23e94:	a821      	add	r0, sp, #132	@ 0x84
   23e96:	2201      	movs	r2, #1
   23e98:	492f      	ldr	r1, [pc, #188]	@ (23f58 <_ZN20complex_dynamic_type3app17h8933dc6181fba57eE+0x128>)
   23e9a:	9b05      	ldr	r3, [sp, #20]
   23e9c:	f007 f9fd 	bl	2b29a <_ZN9allow_pin13dynamic_allow17h33d41317a2da4f1cE>
   23ea0:	9821      	ldr	r0, [sp, #132]	@ 0x84
   23ea2:	2802      	cmp	r0, #2
   23ea4:	d106      	bne.n	23eb4 <_ZN20complex_dynamic_type3app17h8933dc6181fba57eE+0x84>
   23ea6:	9822      	ldr	r0, [sp, #136]	@ 0x88
   23ea8:	9003      	str	r0, [sp, #12]
   23eaa:	4630      	mov	r0, r6
   23eac:	2800      	cmp	r0, #0
   23eae:	d006      	beq.n	23ebe <_ZN20complex_dynamic_type3app17h8933dc6181fba57eE+0x8e>
   23eb0:	9903      	ldr	r1, [sp, #12]
   23eb2:	e00c      	b.n	23ece <_ZN20complex_dynamic_type3app17h8933dc6181fba57eE+0x9e>
   23eb4:	a814      	add	r0, sp, #80	@ 0x50
   23eb6:	7005      	strb	r5, [r0, #0]
   23eb8:	2000      	movs	r0, #0
   23eba:	2800      	cmp	r0, #0
   23ebc:	d1f8      	bne.n	23eb0 <_ZN20complex_dynamic_type3app17h8933dc6181fba57eE+0x80>
   23ebe:	4826      	ldr	r0, [pc, #152]	@ (23f58 <_ZN20complex_dynamic_type3app17h8933dc6181fba57eE+0x128>)
   23ec0:	2103      	movs	r1, #3
   23ec2:	2201      	movs	r2, #1
   23ec4:	2400      	movs	r4, #0
   23ec6:	4623      	mov	r3, r4
   23ec8:	df02      	svc	2
   23eca:	287f      	cmp	r0, #127	@ 0x7f
   23ecc:	d80d      	bhi.n	23eea <_ZN20complex_dynamic_type3app17h8933dc6181fba57eE+0xba>
   23ece:	4634      	mov	r4, r6
   23ed0:	2c00      	cmp	r4, #0
   23ed2:	d021      	beq.n	23f18 <_ZN20complex_dynamic_type3app17h8933dc6181fba57eE+0xe8>
   23ed4:	2001      	movs	r0, #1
   23ed6:	9a06      	ldr	r2, [sp, #24]
   23ed8:	7010      	strb	r0, [r2, #0]
   23eda:	6051      	str	r1, [r2, #4]
   23edc:	a814      	add	r0, sp, #80	@ 0x50
   23ede:	7802      	ldrb	r2, [r0, #0]
   23ee0:	2a02      	cmp	r2, #2
   23ee2:	d02e      	beq.n	23f42 <_ZN20complex_dynamic_type3app17h8933dc6181fba57eE+0x112>
   23ee4:	2101      	movs	r1, #1
   23ee6:	481c      	ldr	r0, [pc, #112]	@ (23f58 <_ZN20complex_dynamic_type3app17h8933dc6181fba57eE+0x128>)
   23ee8:	e029      	b.n	23f3e <_ZN20complex_dynamic_type3app17h8933dc6181fba57eE+0x10e>
   23eea:	a807      	add	r0, sp, #28
   23eec:	7802      	ldrb	r2, [r0, #0]
   23eee:	2a02      	cmp	r2, #2
   23ef0:	d003      	beq.n	23efa <_ZN20complex_dynamic_type3app17h8933dc6181fba57eE+0xca>
   23ef2:	2103      	movs	r1, #3
   23ef4:	4818      	ldr	r0, [pc, #96]	@ (23f58 <_ZN20complex_dynamic_type3app17h8933dc6181fba57eE+0x128>)
   23ef6:	f007 f9c3 	bl	2b280 <_ZN9allow_pin12dynamic_type7unshare17hefa7cd45f9379b26E>
   23efa:	a807      	add	r0, sp, #28
   23efc:	9d02      	ldr	r5, [sp, #8]
   23efe:	7005      	strb	r5, [r0, #0]
   23f00:	a814      	add	r0, sp, #80	@ 0x50
   23f02:	7802      	ldrb	r2, [r0, #0]
   23f04:	2a02      	cmp	r2, #2
   23f06:	d003      	beq.n	23f10 <_ZN20complex_dynamic_type3app17h8933dc6181fba57eE+0xe0>
   23f08:	2101      	movs	r1, #1
   23f0a:	4813      	ldr	r0, [pc, #76]	@ (23f58 <_ZN20complex_dynamic_type3app17h8933dc6181fba57eE+0x128>)
   23f0c:	f007 f9b8 	bl	2b280 <_ZN9allow_pin12dynamic_type7unshare17hefa7cd45f9379b26E>
   23f10:	a814      	add	r0, sp, #80	@ 0x50
   23f12:	7005      	strb	r5, [r0, #0]
   23f14:	2c00      	cmp	r4, #0
   23f16:	d1dd      	bne.n	23ed4 <_ZN20complex_dynamic_type3app17h8933dc6181fba57eE+0xa4>
   23f18:	a814      	add	r0, sp, #80	@ 0x50
   23f1a:	7804      	ldrb	r4, [r0, #0]
   23f1c:	2c02      	cmp	r4, #2
   23f1e:	d001      	beq.n	23f24 <_ZN20complex_dynamic_type3app17h8933dc6181fba57eE+0xf4>
   23f20:	480e      	ldr	r0, [pc, #56]	@ (23f5c <_ZN20complex_dynamic_type3app17h8933dc6181fba57eE+0x12c>)
   23f22:	9005      	str	r0, [sp, #20]
   23f24:	9d06      	ldr	r5, [sp, #24]
   23f26:	1c68      	adds	r0, r5, #1
   23f28:	2232      	movs	r2, #50	@ 0x32
   23f2a:	9905      	ldr	r1, [sp, #20]
   23f2c:	f007 fb8d 	bl	2b64a <__aeabi_memcpy>
   23f30:	2000      	movs	r0, #0
   23f32:	2c02      	cmp	r4, #2
   23f34:	7028      	strb	r0, [r5, #0]
   23f36:	d004      	beq.n	23f42 <_ZN20complex_dynamic_type3app17h8933dc6181fba57eE+0x112>
   23f38:	2101      	movs	r1, #1
   23f3a:	4807      	ldr	r0, [pc, #28]	@ (23f58 <_ZN20complex_dynamic_type3app17h8933dc6181fba57eE+0x128>)
   23f3c:	4622      	mov	r2, r4
   23f3e:	f007 f99f 	bl	2b280 <_ZN9allow_pin12dynamic_type7unshare17hefa7cd45f9379b26E>
   23f42:	a807      	add	r0, sp, #28
   23f44:	7802      	ldrb	r2, [r0, #0]
   23f46:	2a02      	cmp	r2, #2
   23f48:	d003      	beq.n	23f52 <_ZN20complex_dynamic_type3app17h8933dc6181fba57eE+0x122>
   23f4a:	2103      	movs	r1, #3
   23f4c:	4802      	ldr	r0, [pc, #8]	@ (23f58 <_ZN20complex_dynamic_type3app17h8933dc6181fba57eE+0x128>)
   23f4e:	f007 f997 	bl	2b280 <_ZN9allow_pin12dynamic_type7unshare17hefa7cd45f9379b26E>
   23f52:	b025      	add	sp, #148	@ 0x94
   23f54:	bdf0      	pop	{r4, r5, r6, r7, pc}
   23f56:	46c0      	nop			@ (mov r8, r8)
   23f58:	00001f07 	.word	0x00001f07
   23f5c:	00010174 	.word	0x00010174

00023f60 <_ZN20complex_dynamic_type3app17h89f68b83b9dc7ab0E>:
   23f60:	b5f0      	push	{r4, r5, r6, r7, lr}
   23f62:	af03      	add	r7, sp, #12
   23f64:	b0a1      	sub	sp, #132	@ 0x84
   23f66:	9006      	str	r0, [sp, #24]
   23f68:	a807      	add	r0, sp, #28
   23f6a:	2402      	movs	r4, #2
   23f6c:	7004      	strb	r4, [r0, #0]
   23f6e:	1c40      	adds	r0, r0, #1
   23f70:	9004      	str	r0, [sp, #16]
   23f72:	260f      	movs	r6, #15
   23f74:	4632      	mov	r2, r6
   23f76:	f007 fb68 	bl	2b64a <__aeabi_memcpy>
   23f7a:	ad0b      	add	r5, sp, #44	@ 0x2c
   23f7c:	1c68      	adds	r0, r5, #1
   23f7e:	2146      	movs	r1, #70	@ 0x46
   23f80:	9005      	str	r0, [sp, #20]
   23f82:	9103      	str	r1, [sp, #12]
   23f84:	f007 f9a1 	bl	2b2ca <__aeabi_memclr>
   23f88:	702c      	strb	r4, [r5, #0]
   23f8a:	2404      	movs	r4, #4
   23f8c:	9600      	str	r6, [sp, #0]
   23f8e:	9401      	str	r4, [sp, #4]
   23f90:	a81d      	add	r0, sp, #116	@ 0x74
   23f92:	4e3d      	ldr	r6, [pc, #244]	@ (24088 <_ZN20complex_dynamic_type3app17h89f68b83b9dc7ab0E+0x128>)
   23f94:	2209      	movs	r2, #9
   23f96:	4631      	mov	r1, r6
   23f98:	9b04      	ldr	r3, [sp, #16]
   23f9a:	f007 f97e 	bl	2b29a <_ZN9allow_pin13dynamic_allow17h33d41317a2da4f1cE>
   23f9e:	981d      	ldr	r0, [sp, #116]	@ 0x74
   23fa0:	2802      	cmp	r0, #2
   23fa2:	d101      	bne.n	23fa8 <_ZN20complex_dynamic_type3app17h89f68b83b9dc7ab0E+0x48>
   23fa4:	991e      	ldr	r1, [sp, #120]	@ 0x78
   23fa6:	e001      	b.n	23fac <_ZN20complex_dynamic_type3app17h89f68b83b9dc7ab0E+0x4c>
   23fa8:	a907      	add	r1, sp, #28
   23faa:	700c      	strb	r4, [r1, #0]
   23fac:	2501      	movs	r5, #1
   23fae:	2802      	cmp	r0, #2
   23fb0:	d016      	beq.n	23fe0 <_ZN20complex_dynamic_type3app17h89f68b83b9dc7ab0E+0x80>
   23fb2:	a80b      	add	r0, sp, #44	@ 0x2c
   23fb4:	7800      	ldrb	r0, [r0, #0]
   23fb6:	2802      	cmp	r0, #2
   23fb8:	d10e      	bne.n	23fd8 <_ZN20complex_dynamic_type3app17h89f68b83b9dc7ab0E+0x78>
   23fba:	2403      	movs	r4, #3
   23fbc:	9803      	ldr	r0, [sp, #12]
   23fbe:	9000      	str	r0, [sp, #0]
   23fc0:	9401      	str	r4, [sp, #4]
   23fc2:	a81d      	add	r0, sp, #116	@ 0x74
   23fc4:	2202      	movs	r2, #2
   23fc6:	4631      	mov	r1, r6
   23fc8:	9b05      	ldr	r3, [sp, #20]
   23fca:	f007 f966 	bl	2b29a <_ZN9allow_pin13dynamic_allow17h33d41317a2da4f1cE>
   23fce:	981d      	ldr	r0, [sp, #116]	@ 0x74
   23fd0:	2802      	cmp	r0, #2
   23fd2:	d113      	bne.n	23ffc <_ZN20complex_dynamic_type3app17h89f68b83b9dc7ab0E+0x9c>
   23fd4:	991e      	ldr	r1, [sp, #120]	@ 0x78
   23fd6:	e000      	b.n	23fda <_ZN20complex_dynamic_type3app17h89f68b83b9dc7ab0E+0x7a>
   23fd8:	2103      	movs	r1, #3
   23fda:	4628      	mov	r0, r5
   23fdc:	2800      	cmp	r0, #0
   23fde:	d012      	beq.n	24006 <_ZN20complex_dynamic_type3app17h89f68b83b9dc7ab0E+0xa6>
   23fe0:	462c      	mov	r4, r5
   23fe2:	2c00      	cmp	r4, #0
   23fe4:	d031      	beq.n	2404a <_ZN20complex_dynamic_type3app17h89f68b83b9dc7ab0E+0xea>
   23fe6:	2001      	movs	r0, #1
   23fe8:	9a06      	ldr	r2, [sp, #24]
   23fea:	7010      	strb	r0, [r2, #0]
   23fec:	6051      	str	r1, [r2, #4]
   23fee:	a80b      	add	r0, sp, #44	@ 0x2c
   23ff0:	7802      	ldrb	r2, [r0, #0]
   23ff2:	2a02      	cmp	r2, #2
   23ff4:	d03e      	beq.n	24074 <_ZN20complex_dynamic_type3app17h89f68b83b9dc7ab0E+0x114>
   23ff6:	2102      	movs	r1, #2
   23ff8:	4630      	mov	r0, r6
   23ffa:	e039      	b.n	24070 <_ZN20complex_dynamic_type3app17h89f68b83b9dc7ab0E+0x110>
   23ffc:	a80b      	add	r0, sp, #44	@ 0x2c
   23ffe:	7004      	strb	r4, [r0, #0]
   24000:	2000      	movs	r0, #0
   24002:	2800      	cmp	r0, #0
   24004:	d1ec      	bne.n	23fe0 <_ZN20complex_dynamic_type3app17h89f68b83b9dc7ab0E+0x80>
   24006:	4820      	ldr	r0, [pc, #128]	@ (24088 <_ZN20complex_dynamic_type3app17h89f68b83b9dc7ab0E+0x128>)
   24008:	2109      	movs	r1, #9
   2400a:	2202      	movs	r2, #2
   2400c:	2400      	movs	r4, #0
   2400e:	4616      	mov	r6, r2
   24010:	4623      	mov	r3, r4
   24012:	df02      	svc	2
   24014:	287f      	cmp	r0, #127	@ 0x7f
   24016:	d801      	bhi.n	2401c <_ZN20complex_dynamic_type3app17h89f68b83b9dc7ab0E+0xbc>
   24018:	462c      	mov	r4, r5
   2401a:	e013      	b.n	24044 <_ZN20complex_dynamic_type3app17h89f68b83b9dc7ab0E+0xe4>
   2401c:	a807      	add	r0, sp, #28
   2401e:	7802      	ldrb	r2, [r0, #0]
   24020:	2a02      	cmp	r2, #2
   24022:	d003      	beq.n	2402c <_ZN20complex_dynamic_type3app17h89f68b83b9dc7ab0E+0xcc>
   24024:	2109      	movs	r1, #9
   24026:	4818      	ldr	r0, [pc, #96]	@ (24088 <_ZN20complex_dynamic_type3app17h89f68b83b9dc7ab0E+0x128>)
   24028:	f007 f92a 	bl	2b280 <_ZN9allow_pin12dynamic_type7unshare17hefa7cd45f9379b26E>
   2402c:	a807      	add	r0, sp, #28
   2402e:	7006      	strb	r6, [r0, #0]
   24030:	a80b      	add	r0, sp, #44	@ 0x2c
   24032:	7802      	ldrb	r2, [r0, #0]
   24034:	2a02      	cmp	r2, #2
   24036:	d003      	beq.n	24040 <_ZN20complex_dynamic_type3app17h89f68b83b9dc7ab0E+0xe0>
   24038:	2102      	movs	r1, #2
   2403a:	4813      	ldr	r0, [pc, #76]	@ (24088 <_ZN20complex_dynamic_type3app17h89f68b83b9dc7ab0E+0x128>)
   2403c:	f007 f920 	bl	2b280 <_ZN9allow_pin12dynamic_type7unshare17hefa7cd45f9379b26E>
   24040:	a80b      	add	r0, sp, #44	@ 0x2c
   24042:	7006      	strb	r6, [r0, #0]
   24044:	4e10      	ldr	r6, [pc, #64]	@ (24088 <_ZN20complex_dynamic_type3app17h89f68b83b9dc7ab0E+0x128>)
   24046:	2c00      	cmp	r4, #0
   24048:	d1cd      	bne.n	23fe6 <_ZN20complex_dynamic_type3app17h89f68b83b9dc7ab0E+0x86>
   2404a:	a80b      	add	r0, sp, #44	@ 0x2c
   2404c:	7804      	ldrb	r4, [r0, #0]
   2404e:	2c02      	cmp	r4, #2
   24050:	d001      	beq.n	24056 <_ZN20complex_dynamic_type3app17h89f68b83b9dc7ab0E+0xf6>
   24052:	480e      	ldr	r0, [pc, #56]	@ (2408c <_ZN20complex_dynamic_type3app17h89f68b83b9dc7ab0E+0x12c>)
   24054:	9005      	str	r0, [sp, #20]
   24056:	9d06      	ldr	r5, [sp, #24]
   24058:	1c68      	adds	r0, r5, #1
   2405a:	2246      	movs	r2, #70	@ 0x46
   2405c:	9905      	ldr	r1, [sp, #20]
   2405e:	f007 faf4 	bl	2b64a <__aeabi_memcpy>
   24062:	2000      	movs	r0, #0
   24064:	2c02      	cmp	r4, #2
   24066:	7028      	strb	r0, [r5, #0]
   24068:	d004      	beq.n	24074 <_ZN20complex_dynamic_type3app17h89f68b83b9dc7ab0E+0x114>
   2406a:	2102      	movs	r1, #2
   2406c:	4630      	mov	r0, r6
   2406e:	4622      	mov	r2, r4
   24070:	f007 f906 	bl	2b280 <_ZN9allow_pin12dynamic_type7unshare17hefa7cd45f9379b26E>
   24074:	a807      	add	r0, sp, #28
   24076:	7802      	ldrb	r2, [r0, #0]
   24078:	2a02      	cmp	r2, #2
   2407a:	d003      	beq.n	24084 <_ZN20complex_dynamic_type3app17h89f68b83b9dc7ab0E+0x124>
   2407c:	2109      	movs	r1, #9
   2407e:	4630      	mov	r0, r6
   24080:	f007 f8fe 	bl	2b280 <_ZN9allow_pin12dynamic_type7unshare17hefa7cd45f9379b26E>
   24084:	b021      	add	sp, #132	@ 0x84
   24086:	bdf0      	pop	{r4, r5, r6, r7, pc}
   24088:	00001d7e 	.word	0x00001d7e
   2408c:	00010a05 	.word	0x00010a05

00024090 <_ZN20complex_dynamic_type3app17h90d0910cbe5853f3E>:
   24090:	b5f0      	push	{r4, r5, r6, r7, lr}
   24092:	af03      	add	r7, sp, #12
   24094:	b09d      	sub	sp, #116	@ 0x74
   24096:	9006      	str	r0, [sp, #24]
   24098:	a807      	add	r0, sp, #28
   2409a:	2502      	movs	r5, #2
   2409c:	7005      	strb	r5, [r0, #0]
   2409e:	1c40      	adds	r0, r0, #1
   240a0:	9004      	str	r0, [sp, #16]
   240a2:	2636      	movs	r6, #54	@ 0x36
   240a4:	4632      	mov	r2, r6
   240a6:	f007 fad0 	bl	2b64a <__aeabi_memcpy>
   240aa:	ac15      	add	r4, sp, #84	@ 0x54
   240ac:	1c60      	adds	r0, r4, #1
   240ae:	210f      	movs	r1, #15
   240b0:	9005      	str	r0, [sp, #20]
   240b2:	9103      	str	r1, [sp, #12]
   240b4:	f007 f909 	bl	2b2ca <__aeabi_memclr>
   240b8:	9502      	str	r5, [sp, #8]
   240ba:	7025      	strb	r5, [r4, #0]
   240bc:	2404      	movs	r4, #4
   240be:	9600      	str	r6, [sp, #0]
   240c0:	9401      	str	r4, [sp, #4]
   240c2:	a819      	add	r0, sp, #100	@ 0x64
   240c4:	493b      	ldr	r1, [pc, #236]	@ (241b4 <_ZN20complex_dynamic_type3app17h90d0910cbe5853f3E+0x124>)
   240c6:	2205      	movs	r2, #5
   240c8:	9b04      	ldr	r3, [sp, #16]
   240ca:	f007 f8e6 	bl	2b29a <_ZN9allow_pin13dynamic_allow17h33d41317a2da4f1cE>
   240ce:	9819      	ldr	r0, [sp, #100]	@ 0x64
   240d0:	2802      	cmp	r0, #2
   240d2:	d101      	bne.n	240d8 <_ZN20complex_dynamic_type3app17h90d0910cbe5853f3E+0x48>
   240d4:	991a      	ldr	r1, [sp, #104]	@ 0x68
   240d6:	e001      	b.n	240dc <_ZN20complex_dynamic_type3app17h90d0910cbe5853f3E+0x4c>
   240d8:	a907      	add	r1, sp, #28
   240da:	700c      	strb	r4, [r1, #0]
   240dc:	2601      	movs	r6, #1
   240de:	2802      	cmp	r0, #2
   240e0:	d024      	beq.n	2412c <_ZN20complex_dynamic_type3app17h90d0910cbe5853f3E+0x9c>
   240e2:	a815      	add	r0, sp, #84	@ 0x54
   240e4:	7800      	ldrb	r0, [r0, #0]
   240e6:	2802      	cmp	r0, #2
   240e8:	d10e      	bne.n	24108 <_ZN20complex_dynamic_type3app17h90d0910cbe5853f3E+0x78>
   240ea:	2503      	movs	r5, #3
   240ec:	9803      	ldr	r0, [sp, #12]
   240ee:	9000      	str	r0, [sp, #0]
   240f0:	9501      	str	r5, [sp, #4]
   240f2:	a819      	add	r0, sp, #100	@ 0x64
   240f4:	492f      	ldr	r1, [pc, #188]	@ (241b4 <_ZN20complex_dynamic_type3app17h90d0910cbe5853f3E+0x124>)
   240f6:	462a      	mov	r2, r5
   240f8:	9b05      	ldr	r3, [sp, #20]
   240fa:	f007 f8ce 	bl	2b29a <_ZN9allow_pin13dynamic_allow17h33d41317a2da4f1cE>
   240fe:	9819      	ldr	r0, [sp, #100]	@ 0x64
   24100:	2802      	cmp	r0, #2
   24102:	d106      	bne.n	24112 <_ZN20complex_dynamic_type3app17h90d0910cbe5853f3E+0x82>
   24104:	991a      	ldr	r1, [sp, #104]	@ 0x68
   24106:	e000      	b.n	2410a <_ZN20complex_dynamic_type3app17h90d0910cbe5853f3E+0x7a>
   24108:	2103      	movs	r1, #3
   2410a:	4630      	mov	r0, r6
   2410c:	2800      	cmp	r0, #0
   2410e:	d005      	beq.n	2411c <_ZN20complex_dynamic_type3app17h90d0910cbe5853f3E+0x8c>
   24110:	e00c      	b.n	2412c <_ZN20complex_dynamic_type3app17h90d0910cbe5853f3E+0x9c>
   24112:	a815      	add	r0, sp, #84	@ 0x54
   24114:	7005      	strb	r5, [r0, #0]
   24116:	2000      	movs	r0, #0
   24118:	2800      	cmp	r0, #0
   2411a:	d107      	bne.n	2412c <_ZN20complex_dynamic_type3app17h90d0910cbe5853f3E+0x9c>
   2411c:	4825      	ldr	r0, [pc, #148]	@ (241b4 <_ZN20complex_dynamic_type3app17h90d0910cbe5853f3E+0x124>)
   2411e:	2105      	movs	r1, #5
   24120:	2203      	movs	r2, #3
   24122:	2400      	movs	r4, #0
   24124:	4623      	mov	r3, r4
   24126:	df02      	svc	2
   24128:	287f      	cmp	r0, #127	@ 0x7f
   2412a:	d80d      	bhi.n	24148 <_ZN20complex_dynamic_type3app17h90d0910cbe5853f3E+0xb8>
   2412c:	4634      	mov	r4, r6
   2412e:	2c00      	cmp	r4, #0
   24130:	d021      	beq.n	24176 <_ZN20complex_dynamic_type3app17h90d0910cbe5853f3E+0xe6>
   24132:	2001      	movs	r0, #1
   24134:	9a06      	ldr	r2, [sp, #24]
   24136:	7010      	strb	r0, [r2, #0]
   24138:	6051      	str	r1, [r2, #4]
   2413a:	a815      	add	r0, sp, #84	@ 0x54
   2413c:	7802      	ldrb	r2, [r0, #0]
   2413e:	2a02      	cmp	r2, #2
   24140:	d02e      	beq.n	241a0 <_ZN20complex_dynamic_type3app17h90d0910cbe5853f3E+0x110>
   24142:	2103      	movs	r1, #3
   24144:	481b      	ldr	r0, [pc, #108]	@ (241b4 <_ZN20complex_dynamic_type3app17h90d0910cbe5853f3E+0x124>)
   24146:	e029      	b.n	2419c <_ZN20complex_dynamic_type3app17h90d0910cbe5853f3E+0x10c>
   24148:	a807      	add	r0, sp, #28
   2414a:	7802      	ldrb	r2, [r0, #0]
   2414c:	2a02      	cmp	r2, #2
   2414e:	d003      	beq.n	24158 <_ZN20complex_dynamic_type3app17h90d0910cbe5853f3E+0xc8>
   24150:	2105      	movs	r1, #5
   24152:	4818      	ldr	r0, [pc, #96]	@ (241b4 <_ZN20complex_dynamic_type3app17h90d0910cbe5853f3E+0x124>)
   24154:	f007 f894 	bl	2b280 <_ZN9allow_pin12dynamic_type7unshare17hefa7cd45f9379b26E>
   24158:	a807      	add	r0, sp, #28
   2415a:	9d02      	ldr	r5, [sp, #8]
   2415c:	7005      	strb	r5, [r0, #0]
   2415e:	a815      	add	r0, sp, #84	@ 0x54
   24160:	7802      	ldrb	r2, [r0, #0]
   24162:	2a02      	cmp	r2, #2
   24164:	d003      	beq.n	2416e <_ZN20complex_dynamic_type3app17h90d0910cbe5853f3E+0xde>
   24166:	2103      	movs	r1, #3
   24168:	4812      	ldr	r0, [pc, #72]	@ (241b4 <_ZN20complex_dynamic_type3app17h90d0910cbe5853f3E+0x124>)
   2416a:	f007 f889 	bl	2b280 <_ZN9allow_pin12dynamic_type7unshare17hefa7cd45f9379b26E>
   2416e:	a815      	add	r0, sp, #84	@ 0x54
   24170:	7005      	strb	r5, [r0, #0]
   24172:	2c00      	cmp	r4, #0
   24174:	d1dd      	bne.n	24132 <_ZN20complex_dynamic_type3app17h90d0910cbe5853f3E+0xa2>
   24176:	a815      	add	r0, sp, #84	@ 0x54
   24178:	7804      	ldrb	r4, [r0, #0]
   2417a:	2c02      	cmp	r4, #2
   2417c:	d001      	beq.n	24182 <_ZN20complex_dynamic_type3app17h90d0910cbe5853f3E+0xf2>
   2417e:	480e      	ldr	r0, [pc, #56]	@ (241b8 <_ZN20complex_dynamic_type3app17h90d0910cbe5853f3E+0x128>)
   24180:	9005      	str	r0, [sp, #20]
   24182:	9d06      	ldr	r5, [sp, #24]
   24184:	1c68      	adds	r0, r5, #1
   24186:	220f      	movs	r2, #15
   24188:	9905      	ldr	r1, [sp, #20]
   2418a:	f007 fa5e 	bl	2b64a <__aeabi_memcpy>
   2418e:	2000      	movs	r0, #0
   24190:	2c02      	cmp	r4, #2
   24192:	7028      	strb	r0, [r5, #0]
   24194:	d004      	beq.n	241a0 <_ZN20complex_dynamic_type3app17h90d0910cbe5853f3E+0x110>
   24196:	2103      	movs	r1, #3
   24198:	4806      	ldr	r0, [pc, #24]	@ (241b4 <_ZN20complex_dynamic_type3app17h90d0910cbe5853f3E+0x124>)
   2419a:	4622      	mov	r2, r4
   2419c:	f007 f870 	bl	2b280 <_ZN9allow_pin12dynamic_type7unshare17hefa7cd45f9379b26E>
   241a0:	a807      	add	r0, sp, #28
   241a2:	7802      	ldrb	r2, [r0, #0]
   241a4:	2a02      	cmp	r2, #2
   241a6:	d003      	beq.n	241b0 <_ZN20complex_dynamic_type3app17h90d0910cbe5853f3E+0x120>
   241a8:	2105      	movs	r1, #5
   241aa:	4802      	ldr	r0, [pc, #8]	@ (241b4 <_ZN20complex_dynamic_type3app17h90d0910cbe5853f3E+0x124>)
   241ac:	f007 f868 	bl	2b280 <_ZN9allow_pin12dynamic_type7unshare17hefa7cd45f9379b26E>
   241b0:	b01d      	add	sp, #116	@ 0x74
   241b2:	bdf0      	pop	{r4, r5, r6, r7, pc}
   241b4:	00000653 	.word	0x00000653
   241b8:	0001081f 	.word	0x0001081f

000241bc <_ZN20complex_dynamic_type3app17h927c688a439ab16cE>:
   241bc:	b5f0      	push	{r4, r5, r6, r7, lr}
   241be:	af03      	add	r7, sp, #12
   241c0:	b0a1      	sub	sp, #132	@ 0x84
   241c2:	9007      	str	r0, [sp, #28]
   241c4:	a808      	add	r0, sp, #32
   241c6:	2402      	movs	r4, #2
   241c8:	7004      	strb	r4, [r0, #0]
   241ca:	1c40      	adds	r0, r0, #1
   241cc:	9005      	str	r0, [sp, #20]
   241ce:	2518      	movs	r5, #24
   241d0:	462a      	mov	r2, r5
   241d2:	f007 fa3a 	bl	2b64a <__aeabi_memcpy>
   241d6:	ae0f      	add	r6, sp, #60	@ 0x3c
   241d8:	1c70      	adds	r0, r6, #1
   241da:	2136      	movs	r1, #54	@ 0x36
   241dc:	9006      	str	r0, [sp, #24]
   241de:	9104      	str	r1, [sp, #16]
   241e0:	f007 f873 	bl	2b2ca <__aeabi_memclr>
   241e4:	9403      	str	r4, [sp, #12]
   241e6:	7034      	strb	r4, [r6, #0]
   241e8:	2604      	movs	r6, #4
   241ea:	9500      	str	r5, [sp, #0]
   241ec:	9601      	str	r6, [sp, #4]
   241ee:	a81d      	add	r0, sp, #116	@ 0x74
   241f0:	21f3      	movs	r1, #243	@ 0xf3
   241f2:	2208      	movs	r2, #8
   241f4:	9b05      	ldr	r3, [sp, #20]
   241f6:	f007 f850 	bl	2b29a <_ZN9allow_pin13dynamic_allow17h33d41317a2da4f1cE>
   241fa:	981d      	ldr	r0, [sp, #116]	@ 0x74
   241fc:	2802      	cmp	r0, #2
   241fe:	d101      	bne.n	24204 <_ZN20complex_dynamic_type3app17h927c688a439ab16cE+0x48>
   24200:	991e      	ldr	r1, [sp, #120]	@ 0x78
   24202:	e001      	b.n	24208 <_ZN20complex_dynamic_type3app17h927c688a439ab16cE+0x4c>
   24204:	a908      	add	r1, sp, #32
   24206:	700e      	strb	r6, [r1, #0]
   24208:	2401      	movs	r4, #1
   2420a:	2802      	cmp	r0, #2
   2420c:	d024      	beq.n	24258 <_ZN20complex_dynamic_type3app17h927c688a439ab16cE+0x9c>
   2420e:	a80f      	add	r0, sp, #60	@ 0x3c
   24210:	7800      	ldrb	r0, [r0, #0]
   24212:	2802      	cmp	r0, #2
   24214:	d10e      	bne.n	24234 <_ZN20complex_dynamic_type3app17h927c688a439ab16cE+0x78>
   24216:	2503      	movs	r5, #3
   24218:	9804      	ldr	r0, [sp, #16]
   2421a:	9000      	str	r0, [sp, #0]
   2421c:	9501      	str	r5, [sp, #4]
   2421e:	a81d      	add	r0, sp, #116	@ 0x74
   24220:	21f3      	movs	r1, #243	@ 0xf3
   24222:	2204      	movs	r2, #4
   24224:	9b06      	ldr	r3, [sp, #24]
   24226:	f007 f838 	bl	2b29a <_ZN9allow_pin13dynamic_allow17h33d41317a2da4f1cE>
   2422a:	981d      	ldr	r0, [sp, #116]	@ 0x74
   2422c:	2802      	cmp	r0, #2
   2422e:	d106      	bne.n	2423e <_ZN20complex_dynamic_type3app17h927c688a439ab16cE+0x82>
   24230:	991e      	ldr	r1, [sp, #120]	@ 0x78
   24232:	e000      	b.n	24236 <_ZN20complex_dynamic_type3app17h927c688a439ab16cE+0x7a>
   24234:	2103      	movs	r1, #3
   24236:	4620      	mov	r0, r4
   24238:	2800      	cmp	r0, #0
   2423a:	d005      	beq.n	24248 <_ZN20complex_dynamic_type3app17h927c688a439ab16cE+0x8c>
   2423c:	e00c      	b.n	24258 <_ZN20complex_dynamic_type3app17h927c688a439ab16cE+0x9c>
   2423e:	a80f      	add	r0, sp, #60	@ 0x3c
   24240:	7005      	strb	r5, [r0, #0]
   24242:	2000      	movs	r0, #0
   24244:	2800      	cmp	r0, #0
   24246:	d107      	bne.n	24258 <_ZN20complex_dynamic_type3app17h927c688a439ab16cE+0x9c>
   24248:	20f3      	movs	r0, #243	@ 0xf3
   2424a:	2108      	movs	r1, #8
   2424c:	2204      	movs	r2, #4
   2424e:	2600      	movs	r6, #0
   24250:	4633      	mov	r3, r6
   24252:	df02      	svc	2
   24254:	287f      	cmp	r0, #127	@ 0x7f
   24256:	d80d      	bhi.n	24274 <_ZN20complex_dynamic_type3app17h927c688a439ab16cE+0xb8>
   24258:	4626      	mov	r6, r4
   2425a:	2e00      	cmp	r6, #0
   2425c:	d021      	beq.n	242a2 <_ZN20complex_dynamic_type3app17h927c688a439ab16cE+0xe6>
   2425e:	2001      	movs	r0, #1
   24260:	9a07      	ldr	r2, [sp, #28]
   24262:	7010      	strb	r0, [r2, #0]
   24264:	6051      	str	r1, [r2, #4]
   24266:	a80f      	add	r0, sp, #60	@ 0x3c
   24268:	7802      	ldrb	r2, [r0, #0]
   2426a:	2a02      	cmp	r2, #2
   2426c:	d02e      	beq.n	242cc <_ZN20complex_dynamic_type3app17h927c688a439ab16cE+0x110>
   2426e:	20f3      	movs	r0, #243	@ 0xf3
   24270:	2104      	movs	r1, #4
   24272:	e029      	b.n	242c8 <_ZN20complex_dynamic_type3app17h927c688a439ab16cE+0x10c>
   24274:	a808      	add	r0, sp, #32
   24276:	7802      	ldrb	r2, [r0, #0]
   24278:	2a02      	cmp	r2, #2
   2427a:	d003      	beq.n	24284 <_ZN20complex_dynamic_type3app17h927c688a439ab16cE+0xc8>
   2427c:	20f3      	movs	r0, #243	@ 0xf3
   2427e:	2108      	movs	r1, #8
   24280:	f006 fffe 	bl	2b280 <_ZN9allow_pin12dynamic_type7unshare17hefa7cd45f9379b26E>
   24284:	a808      	add	r0, sp, #32
   24286:	9c03      	ldr	r4, [sp, #12]
   24288:	7004      	strb	r4, [r0, #0]
   2428a:	a80f      	add	r0, sp, #60	@ 0x3c
   2428c:	7802      	ldrb	r2, [r0, #0]
   2428e:	2a02      	cmp	r2, #2
   24290:	d003      	beq.n	2429a <_ZN20complex_dynamic_type3app17h927c688a439ab16cE+0xde>
   24292:	20f3      	movs	r0, #243	@ 0xf3
   24294:	2104      	movs	r1, #4
   24296:	f006 fff3 	bl	2b280 <_ZN9allow_pin12dynamic_type7unshare17hefa7cd45f9379b26E>
   2429a:	a80f      	add	r0, sp, #60	@ 0x3c
   2429c:	7004      	strb	r4, [r0, #0]
   2429e:	2e00      	cmp	r6, #0
   242a0:	d1dd      	bne.n	2425e <_ZN20complex_dynamic_type3app17h927c688a439ab16cE+0xa2>
   242a2:	a80f      	add	r0, sp, #60	@ 0x3c
   242a4:	7806      	ldrb	r6, [r0, #0]
   242a6:	2e02      	cmp	r6, #2
   242a8:	d001      	beq.n	242ae <_ZN20complex_dynamic_type3app17h927c688a439ab16cE+0xf2>
   242aa:	480d      	ldr	r0, [pc, #52]	@ (242e0 <_ZN20complex_dynamic_type3app17h927c688a439ab16cE+0x124>)
   242ac:	9006      	str	r0, [sp, #24]
   242ae:	9c07      	ldr	r4, [sp, #28]
   242b0:	1c60      	adds	r0, r4, #1
   242b2:	2236      	movs	r2, #54	@ 0x36
   242b4:	9906      	ldr	r1, [sp, #24]
   242b6:	f007 f9c8 	bl	2b64a <__aeabi_memcpy>
   242ba:	2000      	movs	r0, #0
   242bc:	2e02      	cmp	r6, #2
   242be:	7020      	strb	r0, [r4, #0]
   242c0:	d004      	beq.n	242cc <_ZN20complex_dynamic_type3app17h927c688a439ab16cE+0x110>
   242c2:	20f3      	movs	r0, #243	@ 0xf3
   242c4:	2104      	movs	r1, #4
   242c6:	4632      	mov	r2, r6
   242c8:	f006 ffda 	bl	2b280 <_ZN9allow_pin12dynamic_type7unshare17hefa7cd45f9379b26E>
   242cc:	a808      	add	r0, sp, #32
   242ce:	7802      	ldrb	r2, [r0, #0]
   242d0:	2a02      	cmp	r2, #2
   242d2:	d003      	beq.n	242dc <_ZN20complex_dynamic_type3app17h927c688a439ab16cE+0x120>
   242d4:	20f3      	movs	r0, #243	@ 0xf3
   242d6:	2108      	movs	r1, #8
   242d8:	f006 ffd2 	bl	2b280 <_ZN9allow_pin12dynamic_type7unshare17hefa7cd45f9379b26E>
   242dc:	b021      	add	sp, #132	@ 0x84
   242de:	bdf0      	pop	{r4, r5, r6, r7, pc}
   242e0:	0001071a 	.word	0x0001071a

000242e4 <_ZN20complex_dynamic_type3app17h950b49092efb419eE>:
   242e4:	b5f0      	push	{r4, r5, r6, r7, lr}
   242e6:	af03      	add	r7, sp, #12
   242e8:	b0a1      	sub	sp, #132	@ 0x84
   242ea:	9006      	str	r0, [sp, #24]
   242ec:	a807      	add	r0, sp, #28
   242ee:	2502      	movs	r5, #2
   242f0:	7005      	strb	r5, [r0, #0]
   242f2:	1c40      	adds	r0, r0, #1
   242f4:	9004      	str	r0, [sp, #16]
   242f6:	262a      	movs	r6, #42	@ 0x2a
   242f8:	4632      	mov	r2, r6
   242fa:	f007 f9a6 	bl	2b64a <__aeabi_memcpy>
   242fe:	ac12      	add	r4, sp, #72	@ 0x48
   24300:	1c60      	adds	r0, r4, #1
   24302:	2128      	movs	r1, #40	@ 0x28
   24304:	9005      	str	r0, [sp, #20]
   24306:	9103      	str	r1, [sp, #12]
   24308:	f006 ffdf 	bl	2b2ca <__aeabi_memclr>
   2430c:	9502      	str	r5, [sp, #8]
   2430e:	7025      	strb	r5, [r4, #0]
   24310:	2404      	movs	r4, #4
   24312:	9600      	str	r6, [sp, #0]
   24314:	9401      	str	r4, [sp, #4]
   24316:	a81d      	add	r0, sp, #116	@ 0x74
   24318:	4e3c      	ldr	r6, [pc, #240]	@ (2440c <_ZN20complex_dynamic_type3app17h950b49092efb419eE+0x128>)
   2431a:	4631      	mov	r1, r6
   2431c:	4622      	mov	r2, r4
   2431e:	9b04      	ldr	r3, [sp, #16]
   24320:	f006 ffbb 	bl	2b29a <_ZN9allow_pin13dynamic_allow17h33d41317a2da4f1cE>
   24324:	981d      	ldr	r0, [sp, #116]	@ 0x74
   24326:	2802      	cmp	r0, #2
   24328:	d101      	bne.n	2432e <_ZN20complex_dynamic_type3app17h950b49092efb419eE+0x4a>
   2432a:	991e      	ldr	r1, [sp, #120]	@ 0x78
   2432c:	e001      	b.n	24332 <_ZN20complex_dynamic_type3app17h950b49092efb419eE+0x4e>
   2432e:	a907      	add	r1, sp, #28
   24330:	700c      	strb	r4, [r1, #0]
   24332:	2501      	movs	r5, #1
   24334:	2802      	cmp	r0, #2
   24336:	d024      	beq.n	24382 <_ZN20complex_dynamic_type3app17h950b49092efb419eE+0x9e>
   24338:	a812      	add	r0, sp, #72	@ 0x48
   2433a:	7800      	ldrb	r0, [r0, #0]
   2433c:	2802      	cmp	r0, #2
   2433e:	d10e      	bne.n	2435e <_ZN20complex_dynamic_type3app17h950b49092efb419eE+0x7a>
   24340:	2403      	movs	r4, #3
   24342:	9803      	ldr	r0, [sp, #12]
   24344:	9000      	str	r0, [sp, #0]
   24346:	9401      	str	r4, [sp, #4]
   24348:	a81d      	add	r0, sp, #116	@ 0x74
   2434a:	2208      	movs	r2, #8
   2434c:	4631      	mov	r1, r6
   2434e:	9b05      	ldr	r3, [sp, #20]
   24350:	f006 ffa3 	bl	2b29a <_ZN9allow_pin13dynamic_allow17h33d41317a2da4f1cE>
   24354:	981d      	ldr	r0, [sp, #116]	@ 0x74
   24356:	2802      	cmp	r0, #2
   24358:	d106      	bne.n	24368 <_ZN20complex_dynamic_type3app17h950b49092efb419eE+0x84>
   2435a:	991e      	ldr	r1, [sp, #120]	@ 0x78
   2435c:	e000      	b.n	24360 <_ZN20complex_dynamic_type3app17h950b49092efb419eE+0x7c>
   2435e:	2103      	movs	r1, #3
   24360:	4628      	mov	r0, r5
   24362:	2800      	cmp	r0, #0
   24364:	d005      	beq.n	24372 <_ZN20complex_dynamic_type3app17h950b49092efb419eE+0x8e>
   24366:	e00c      	b.n	24382 <_ZN20complex_dynamic_type3app17h950b49092efb419eE+0x9e>
   24368:	a812      	add	r0, sp, #72	@ 0x48
   2436a:	7004      	strb	r4, [r0, #0]
   2436c:	2000      	movs	r0, #0
   2436e:	2800      	cmp	r0, #0
   24370:	d107      	bne.n	24382 <_ZN20complex_dynamic_type3app17h950b49092efb419eE+0x9e>
   24372:	4826      	ldr	r0, [pc, #152]	@ (2440c <_ZN20complex_dynamic_type3app17h950b49092efb419eE+0x128>)
   24374:	2104      	movs	r1, #4
   24376:	2208      	movs	r2, #8
   24378:	2400      	movs	r4, #0
   2437a:	4623      	mov	r3, r4
   2437c:	df02      	svc	2
   2437e:	287f      	cmp	r0, #127	@ 0x7f
   24380:	d80d      	bhi.n	2439e <_ZN20complex_dynamic_type3app17h950b49092efb419eE+0xba>
   24382:	462c      	mov	r4, r5
   24384:	2c00      	cmp	r4, #0
   24386:	d021      	beq.n	243cc <_ZN20complex_dynamic_type3app17h950b49092efb419eE+0xe8>
   24388:	2001      	movs	r0, #1
   2438a:	9a06      	ldr	r2, [sp, #24]
   2438c:	7010      	strb	r0, [r2, #0]
   2438e:	6051      	str	r1, [r2, #4]
   24390:	a812      	add	r0, sp, #72	@ 0x48
   24392:	7802      	ldrb	r2, [r0, #0]
   24394:	2a02      	cmp	r2, #2
   24396:	d02e      	beq.n	243f6 <_ZN20complex_dynamic_type3app17h950b49092efb419eE+0x112>
   24398:	2108      	movs	r1, #8
   2439a:	4630      	mov	r0, r6
   2439c:	e029      	b.n	243f2 <_ZN20complex_dynamic_type3app17h950b49092efb419eE+0x10e>
   2439e:	a807      	add	r0, sp, #28
   243a0:	7802      	ldrb	r2, [r0, #0]
   243a2:	2a02      	cmp	r2, #2
   243a4:	d003      	beq.n	243ae <_ZN20complex_dynamic_type3app17h950b49092efb419eE+0xca>
   243a6:	2104      	movs	r1, #4
   243a8:	4630      	mov	r0, r6
   243aa:	f006 ff69 	bl	2b280 <_ZN9allow_pin12dynamic_type7unshare17hefa7cd45f9379b26E>
   243ae:	a807      	add	r0, sp, #28
   243b0:	9d02      	ldr	r5, [sp, #8]
   243b2:	7005      	strb	r5, [r0, #0]
   243b4:	a812      	add	r0, sp, #72	@ 0x48
   243b6:	7802      	ldrb	r2, [r0, #0]
   243b8:	2a02      	cmp	r2, #2
   243ba:	d003      	beq.n	243c4 <_ZN20complex_dynamic_type3app17h950b49092efb419eE+0xe0>
   243bc:	2108      	movs	r1, #8
   243be:	4630      	mov	r0, r6
   243c0:	f006 ff5e 	bl	2b280 <_ZN9allow_pin12dynamic_type7unshare17hefa7cd45f9379b26E>
   243c4:	a812      	add	r0, sp, #72	@ 0x48
   243c6:	7005      	strb	r5, [r0, #0]
   243c8:	2c00      	cmp	r4, #0
   243ca:	d1dd      	bne.n	24388 <_ZN20complex_dynamic_type3app17h950b49092efb419eE+0xa4>
   243cc:	a812      	add	r0, sp, #72	@ 0x48
   243ce:	7804      	ldrb	r4, [r0, #0]
   243d0:	2c02      	cmp	r4, #2
   243d2:	d001      	beq.n	243d8 <_ZN20complex_dynamic_type3app17h950b49092efb419eE+0xf4>
   243d4:	480e      	ldr	r0, [pc, #56]	@ (24410 <_ZN20complex_dynamic_type3app17h950b49092efb419eE+0x12c>)
   243d6:	9005      	str	r0, [sp, #20]
   243d8:	9d06      	ldr	r5, [sp, #24]
   243da:	1c68      	adds	r0, r5, #1
   243dc:	2228      	movs	r2, #40	@ 0x28
   243de:	9905      	ldr	r1, [sp, #20]
   243e0:	f007 f933 	bl	2b64a <__aeabi_memcpy>
   243e4:	2000      	movs	r0, #0
   243e6:	2c02      	cmp	r4, #2
   243e8:	7028      	strb	r0, [r5, #0]
   243ea:	d004      	beq.n	243f6 <_ZN20complex_dynamic_type3app17h950b49092efb419eE+0x112>
   243ec:	2108      	movs	r1, #8
   243ee:	4630      	mov	r0, r6
   243f0:	4622      	mov	r2, r4
   243f2:	f006 ff45 	bl	2b280 <_ZN9allow_pin12dynamic_type7unshare17hefa7cd45f9379b26E>
   243f6:	a807      	add	r0, sp, #28
   243f8:	7802      	ldrb	r2, [r0, #0]
   243fa:	2a02      	cmp	r2, #2
   243fc:	d003      	beq.n	24406 <_ZN20complex_dynamic_type3app17h950b49092efb419eE+0x122>
   243fe:	2104      	movs	r1, #4
   24400:	4630      	mov	r0, r6
   24402:	f006 ff3d 	bl	2b280 <_ZN9allow_pin12dynamic_type7unshare17hefa7cd45f9379b26E>
   24406:	b021      	add	sp, #132	@ 0x84
   24408:	bdf0      	pop	{r4, r5, r6, r7, pc}
   2440a:	46c0      	nop			@ (mov r8, r8)
   2440c:	00001efa 	.word	0x00001efa
   24410:	00010203 	.word	0x00010203

00024414 <_ZN20complex_dynamic_type3app17h95579f92877ff96cE>:
   24414:	b5f0      	push	{r4, r5, r6, r7, lr}
   24416:	af03      	add	r7, sp, #12
   24418:	b09d      	sub	sp, #116	@ 0x74
   2441a:	9006      	str	r0, [sp, #24]
   2441c:	a807      	add	r0, sp, #28
   2441e:	2502      	movs	r5, #2
   24420:	7005      	strb	r5, [r0, #0]
   24422:	1c40      	adds	r0, r0, #1
   24424:	9004      	str	r0, [sp, #16]
   24426:	2632      	movs	r6, #50	@ 0x32
   24428:	4632      	mov	r2, r6
   2442a:	f007 f90e 	bl	2b64a <__aeabi_memcpy>
   2442e:	ac14      	add	r4, sp, #80	@ 0x50
   24430:	1c60      	adds	r0, r4, #1
   24432:	2110      	movs	r1, #16
   24434:	9005      	str	r0, [sp, #20]
   24436:	9103      	str	r1, [sp, #12]
   24438:	f006 ff47 	bl	2b2ca <__aeabi_memclr>
   2443c:	9502      	str	r5, [sp, #8]
   2443e:	7025      	strb	r5, [r4, #0]
   24440:	2404      	movs	r4, #4
   24442:	9600      	str	r6, [sp, #0]
   24444:	9401      	str	r4, [sp, #4]
   24446:	a819      	add	r0, sp, #100	@ 0x64
   24448:	4e3c      	ldr	r6, [pc, #240]	@ (2453c <_ZN20complex_dynamic_type3app17h95579f92877ff96cE+0x128>)
   2444a:	4631      	mov	r1, r6
   2444c:	4622      	mov	r2, r4
   2444e:	9b04      	ldr	r3, [sp, #16]
   24450:	f006 ff23 	bl	2b29a <_ZN9allow_pin13dynamic_allow17h33d41317a2da4f1cE>
   24454:	9819      	ldr	r0, [sp, #100]	@ 0x64
   24456:	2802      	cmp	r0, #2
   24458:	d101      	bne.n	2445e <_ZN20complex_dynamic_type3app17h95579f92877ff96cE+0x4a>
   2445a:	991a      	ldr	r1, [sp, #104]	@ 0x68
   2445c:	e001      	b.n	24462 <_ZN20complex_dynamic_type3app17h95579f92877ff96cE+0x4e>
   2445e:	a907      	add	r1, sp, #28
   24460:	700c      	strb	r4, [r1, #0]
   24462:	2501      	movs	r5, #1
   24464:	2802      	cmp	r0, #2
   24466:	d024      	beq.n	244b2 <_ZN20complex_dynamic_type3app17h95579f92877ff96cE+0x9e>
   24468:	a814      	add	r0, sp, #80	@ 0x50
   2446a:	7800      	ldrb	r0, [r0, #0]
   2446c:	2802      	cmp	r0, #2
   2446e:	d10e      	bne.n	2448e <_ZN20complex_dynamic_type3app17h95579f92877ff96cE+0x7a>
   24470:	2403      	movs	r4, #3
   24472:	9803      	ldr	r0, [sp, #12]
   24474:	9000      	str	r0, [sp, #0]
   24476:	9401      	str	r4, [sp, #4]
   24478:	a819      	add	r0, sp, #100	@ 0x64
   2447a:	2209      	movs	r2, #9
   2447c:	4631      	mov	r1, r6
   2447e:	9b05      	ldr	r3, [sp, #20]
   24480:	f006 ff0b 	bl	2b29a <_ZN9allow_pin13dynamic_allow17h33d41317a2da4f1cE>
   24484:	9819      	ldr	r0, [sp, #100]	@ 0x64
   24486:	2802      	cmp	r0, #2
   24488:	d106      	bne.n	24498 <_ZN20complex_dynamic_type3app17h95579f92877ff96cE+0x84>
   2448a:	991a      	ldr	r1, [sp, #104]	@ 0x68
   2448c:	e000      	b.n	24490 <_ZN20complex_dynamic_type3app17h95579f92877ff96cE+0x7c>
   2448e:	2103      	movs	r1, #3
   24490:	4628      	mov	r0, r5
   24492:	2800      	cmp	r0, #0
   24494:	d005      	beq.n	244a2 <_ZN20complex_dynamic_type3app17h95579f92877ff96cE+0x8e>
   24496:	e00c      	b.n	244b2 <_ZN20complex_dynamic_type3app17h95579f92877ff96cE+0x9e>
   24498:	a814      	add	r0, sp, #80	@ 0x50
   2449a:	7004      	strb	r4, [r0, #0]
   2449c:	2000      	movs	r0, #0
   2449e:	2800      	cmp	r0, #0
   244a0:	d107      	bne.n	244b2 <_ZN20complex_dynamic_type3app17h95579f92877ff96cE+0x9e>
   244a2:	4826      	ldr	r0, [pc, #152]	@ (2453c <_ZN20complex_dynamic_type3app17h95579f92877ff96cE+0x128>)
   244a4:	2104      	movs	r1, #4
   244a6:	2209      	movs	r2, #9
   244a8:	2400      	movs	r4, #0
   244aa:	4623      	mov	r3, r4
   244ac:	df02      	svc	2
   244ae:	287f      	cmp	r0, #127	@ 0x7f
   244b0:	d80d      	bhi.n	244ce <_ZN20complex_dynamic_type3app17h95579f92877ff96cE+0xba>
   244b2:	462c      	mov	r4, r5
   244b4:	2c00      	cmp	r4, #0
   244b6:	d021      	beq.n	244fc <_ZN20complex_dynamic_type3app17h95579f92877ff96cE+0xe8>
   244b8:	2001      	movs	r0, #1
   244ba:	9a06      	ldr	r2, [sp, #24]
   244bc:	7010      	strb	r0, [r2, #0]
   244be:	6051      	str	r1, [r2, #4]
   244c0:	a814      	add	r0, sp, #80	@ 0x50
   244c2:	7802      	ldrb	r2, [r0, #0]
   244c4:	2a02      	cmp	r2, #2
   244c6:	d02e      	beq.n	24526 <_ZN20complex_dynamic_type3app17h95579f92877ff96cE+0x112>
   244c8:	2109      	movs	r1, #9
   244ca:	4630      	mov	r0, r6
   244cc:	e029      	b.n	24522 <_ZN20complex_dynamic_type3app17h95579f92877ff96cE+0x10e>
   244ce:	a807      	add	r0, sp, #28
   244d0:	7802      	ldrb	r2, [r0, #0]
   244d2:	2a02      	cmp	r2, #2
   244d4:	d003      	beq.n	244de <_ZN20complex_dynamic_type3app17h95579f92877ff96cE+0xca>
   244d6:	2104      	movs	r1, #4
   244d8:	4630      	mov	r0, r6
   244da:	f006 fed1 	bl	2b280 <_ZN9allow_pin12dynamic_type7unshare17hefa7cd45f9379b26E>
   244de:	a807      	add	r0, sp, #28
   244e0:	9d02      	ldr	r5, [sp, #8]
   244e2:	7005      	strb	r5, [r0, #0]
   244e4:	a814      	add	r0, sp, #80	@ 0x50
   244e6:	7802      	ldrb	r2, [r0, #0]
   244e8:	2a02      	cmp	r2, #2
   244ea:	d003      	beq.n	244f4 <_ZN20complex_dynamic_type3app17h95579f92877ff96cE+0xe0>
   244ec:	2109      	movs	r1, #9
   244ee:	4630      	mov	r0, r6
   244f0:	f006 fec6 	bl	2b280 <_ZN9allow_pin12dynamic_type7unshare17hefa7cd45f9379b26E>
   244f4:	a814      	add	r0, sp, #80	@ 0x50
   244f6:	7005      	strb	r5, [r0, #0]
   244f8:	2c00      	cmp	r4, #0
   244fa:	d1dd      	bne.n	244b8 <_ZN20complex_dynamic_type3app17h95579f92877ff96cE+0xa4>
   244fc:	a814      	add	r0, sp, #80	@ 0x50
   244fe:	7804      	ldrb	r4, [r0, #0]
   24500:	2c02      	cmp	r4, #2
   24502:	d001      	beq.n	24508 <_ZN20complex_dynamic_type3app17h95579f92877ff96cE+0xf4>
   24504:	480e      	ldr	r0, [pc, #56]	@ (24540 <_ZN20complex_dynamic_type3app17h95579f92877ff96cE+0x12c>)
   24506:	9005      	str	r0, [sp, #20]
   24508:	9d06      	ldr	r5, [sp, #24]
   2450a:	1c68      	adds	r0, r5, #1
   2450c:	2210      	movs	r2, #16
   2450e:	9905      	ldr	r1, [sp, #20]
   24510:	f007 f89b 	bl	2b64a <__aeabi_memcpy>
   24514:	2000      	movs	r0, #0
   24516:	2c02      	cmp	r4, #2
   24518:	7028      	strb	r0, [r5, #0]
   2451a:	d004      	beq.n	24526 <_ZN20complex_dynamic_type3app17h95579f92877ff96cE+0x112>
   2451c:	2109      	movs	r1, #9
   2451e:	4630      	mov	r0, r6
   24520:	4622      	mov	r2, r4
   24522:	f006 fead 	bl	2b280 <_ZN9allow_pin12dynamic_type7unshare17hefa7cd45f9379b26E>
   24526:	a807      	add	r0, sp, #28
   24528:	7802      	ldrb	r2, [r0, #0]
   2452a:	2a02      	cmp	r2, #2
   2452c:	d003      	beq.n	24536 <_ZN20complex_dynamic_type3app17h95579f92877ff96cE+0x122>
   2452e:	2104      	movs	r1, #4
   24530:	4630      	mov	r0, r6
   24532:	f006 fea5 	bl	2b280 <_ZN9allow_pin12dynamic_type7unshare17hefa7cd45f9379b26E>
   24536:	b01d      	add	sp, #116	@ 0x74
   24538:	bdf0      	pop	{r4, r5, r6, r7, pc}
   2453a:	46c0      	nop			@ (mov r8, r8)
   2453c:	000019d6 	.word	0x000019d6
   24540:	000107bf 	.word	0x000107bf

00024544 <_ZN20complex_dynamic_type3app17h9765b1d8db708ef2E>:
   24544:	b5f0      	push	{r4, r5, r6, r7, lr}
   24546:	af03      	add	r7, sp, #12
   24548:	b0a7      	sub	sp, #156	@ 0x9c
   2454a:	9006      	str	r0, [sp, #24]
   2454c:	a807      	add	r0, sp, #28
   2454e:	2402      	movs	r4, #2
   24550:	7004      	strb	r4, [r0, #0]
   24552:	1c40      	adds	r0, r0, #1
   24554:	9004      	str	r0, [sp, #16]
   24556:	2550      	movs	r5, #80	@ 0x50
   24558:	462a      	mov	r2, r5
   2455a:	f007 f876 	bl	2b64a <__aeabi_memcpy>
   2455e:	ae1c      	add	r6, sp, #112	@ 0x70
   24560:	1c70      	adds	r0, r6, #1
   24562:	211b      	movs	r1, #27
   24564:	9005      	str	r0, [sp, #20]
   24566:	9103      	str	r1, [sp, #12]
   24568:	f006 feaf 	bl	2b2ca <__aeabi_memclr>
   2456c:	7034      	strb	r4, [r6, #0]
   2456e:	2404      	movs	r4, #4
   24570:	9500      	str	r5, [sp, #0]
   24572:	9401      	str	r4, [sp, #4]
   24574:	a823      	add	r0, sp, #140	@ 0x8c
   24576:	4e3e      	ldr	r6, [pc, #248]	@ (24670 <_ZN20complex_dynamic_type3app17h9765b1d8db708ef2E+0x12c>)
   24578:	2501      	movs	r5, #1
   2457a:	4631      	mov	r1, r6
   2457c:	462a      	mov	r2, r5
   2457e:	9b04      	ldr	r3, [sp, #16]
   24580:	f006 fe8b 	bl	2b29a <_ZN9allow_pin13dynamic_allow17h33d41317a2da4f1cE>
   24584:	9823      	ldr	r0, [sp, #140]	@ 0x8c
   24586:	2802      	cmp	r0, #2
   24588:	d103      	bne.n	24592 <_ZN20complex_dynamic_type3app17h9765b1d8db708ef2E+0x4e>
   2458a:	9924      	ldr	r1, [sp, #144]	@ 0x90
   2458c:	2802      	cmp	r0, #2
   2458e:	d01b      	beq.n	245c8 <_ZN20complex_dynamic_type3app17h9765b1d8db708ef2E+0x84>
   24590:	e003      	b.n	2459a <_ZN20complex_dynamic_type3app17h9765b1d8db708ef2E+0x56>
   24592:	a907      	add	r1, sp, #28
   24594:	700c      	strb	r4, [r1, #0]
   24596:	2802      	cmp	r0, #2
   24598:	d016      	beq.n	245c8 <_ZN20complex_dynamic_type3app17h9765b1d8db708ef2E+0x84>
   2459a:	a81c      	add	r0, sp, #112	@ 0x70
   2459c:	7800      	ldrb	r0, [r0, #0]
   2459e:	2802      	cmp	r0, #2
   245a0:	d10e      	bne.n	245c0 <_ZN20complex_dynamic_type3app17h9765b1d8db708ef2E+0x7c>
   245a2:	2403      	movs	r4, #3
   245a4:	9803      	ldr	r0, [sp, #12]
   245a6:	9000      	str	r0, [sp, #0]
   245a8:	9401      	str	r4, [sp, #4]
   245aa:	a823      	add	r0, sp, #140	@ 0x8c
   245ac:	2202      	movs	r2, #2
   245ae:	4631      	mov	r1, r6
   245b0:	9b05      	ldr	r3, [sp, #20]
   245b2:	f006 fe72 	bl	2b29a <_ZN9allow_pin13dynamic_allow17h33d41317a2da4f1cE>
   245b6:	9823      	ldr	r0, [sp, #140]	@ 0x8c
   245b8:	2802      	cmp	r0, #2
   245ba:	d113      	bne.n	245e4 <_ZN20complex_dynamic_type3app17h9765b1d8db708ef2E+0xa0>
   245bc:	9924      	ldr	r1, [sp, #144]	@ 0x90
   245be:	e000      	b.n	245c2 <_ZN20complex_dynamic_type3app17h9765b1d8db708ef2E+0x7e>
   245c0:	2103      	movs	r1, #3
   245c2:	4628      	mov	r0, r5
   245c4:	2800      	cmp	r0, #0
   245c6:	d012      	beq.n	245ee <_ZN20complex_dynamic_type3app17h9765b1d8db708ef2E+0xaa>
   245c8:	462c      	mov	r4, r5
   245ca:	2c00      	cmp	r4, #0
   245cc:	d031      	beq.n	24632 <_ZN20complex_dynamic_type3app17h9765b1d8db708ef2E+0xee>
   245ce:	2001      	movs	r0, #1
   245d0:	9a06      	ldr	r2, [sp, #24]
   245d2:	7010      	strb	r0, [r2, #0]
   245d4:	6051      	str	r1, [r2, #4]
   245d6:	a81c      	add	r0, sp, #112	@ 0x70
   245d8:	7802      	ldrb	r2, [r0, #0]
   245da:	2a02      	cmp	r2, #2
   245dc:	d03e      	beq.n	2465c <_ZN20complex_dynamic_type3app17h9765b1d8db708ef2E+0x118>
   245de:	2102      	movs	r1, #2
   245e0:	4630      	mov	r0, r6
   245e2:	e039      	b.n	24658 <_ZN20complex_dynamic_type3app17h9765b1d8db708ef2E+0x114>
   245e4:	a81c      	add	r0, sp, #112	@ 0x70
   245e6:	7004      	strb	r4, [r0, #0]
   245e8:	2000      	movs	r0, #0
   245ea:	2800      	cmp	r0, #0
   245ec:	d1ec      	bne.n	245c8 <_ZN20complex_dynamic_type3app17h9765b1d8db708ef2E+0x84>
   245ee:	4820      	ldr	r0, [pc, #128]	@ (24670 <_ZN20complex_dynamic_type3app17h9765b1d8db708ef2E+0x12c>)
   245f0:	2101      	movs	r1, #1
   245f2:	2202      	movs	r2, #2
   245f4:	2400      	movs	r4, #0
   245f6:	4616      	mov	r6, r2
   245f8:	4623      	mov	r3, r4
   245fa:	df02      	svc	2
   245fc:	287f      	cmp	r0, #127	@ 0x7f
   245fe:	d801      	bhi.n	24604 <_ZN20complex_dynamic_type3app17h9765b1d8db708ef2E+0xc0>
   24600:	462c      	mov	r4, r5
   24602:	e013      	b.n	2462c <_ZN20complex_dynamic_type3app17h9765b1d8db708ef2E+0xe8>
   24604:	a807      	add	r0, sp, #28
   24606:	7802      	ldrb	r2, [r0, #0]
   24608:	2a02      	cmp	r2, #2
   2460a:	d003      	beq.n	24614 <_ZN20complex_dynamic_type3app17h9765b1d8db708ef2E+0xd0>
   2460c:	2101      	movs	r1, #1
   2460e:	4818      	ldr	r0, [pc, #96]	@ (24670 <_ZN20complex_dynamic_type3app17h9765b1d8db708ef2E+0x12c>)
   24610:	f006 fe36 	bl	2b280 <_ZN9allow_pin12dynamic_type7unshare17hefa7cd45f9379b26E>
   24614:	a807      	add	r0, sp, #28
   24616:	7006      	strb	r6, [r0, #0]
   24618:	a81c      	add	r0, sp, #112	@ 0x70
   2461a:	7802      	ldrb	r2, [r0, #0]
   2461c:	2a02      	cmp	r2, #2
   2461e:	d003      	beq.n	24628 <_ZN20complex_dynamic_type3app17h9765b1d8db708ef2E+0xe4>
   24620:	2102      	movs	r1, #2
   24622:	4813      	ldr	r0, [pc, #76]	@ (24670 <_ZN20complex_dynamic_type3app17h9765b1d8db708ef2E+0x12c>)
   24624:	f006 fe2c 	bl	2b280 <_ZN9allow_pin12dynamic_type7unshare17hefa7cd45f9379b26E>
   24628:	a81c      	add	r0, sp, #112	@ 0x70
   2462a:	7006      	strb	r6, [r0, #0]
   2462c:	4e10      	ldr	r6, [pc, #64]	@ (24670 <_ZN20complex_dynamic_type3app17h9765b1d8db708ef2E+0x12c>)
   2462e:	2c00      	cmp	r4, #0
   24630:	d1cd      	bne.n	245ce <_ZN20complex_dynamic_type3app17h9765b1d8db708ef2E+0x8a>
   24632:	a81c      	add	r0, sp, #112	@ 0x70
   24634:	7804      	ldrb	r4, [r0, #0]
   24636:	2c02      	cmp	r4, #2
   24638:	d001      	beq.n	2463e <_ZN20complex_dynamic_type3app17h9765b1d8db708ef2E+0xfa>
   2463a:	480e      	ldr	r0, [pc, #56]	@ (24674 <_ZN20complex_dynamic_type3app17h9765b1d8db708ef2E+0x130>)
   2463c:	9005      	str	r0, [sp, #20]
   2463e:	9d06      	ldr	r5, [sp, #24]
   24640:	1c68      	adds	r0, r5, #1
   24642:	221b      	movs	r2, #27
   24644:	9905      	ldr	r1, [sp, #20]
   24646:	f007 f800 	bl	2b64a <__aeabi_memcpy>
   2464a:	2000      	movs	r0, #0
   2464c:	2c02      	cmp	r4, #2
   2464e:	7028      	strb	r0, [r5, #0]
   24650:	d004      	beq.n	2465c <_ZN20complex_dynamic_type3app17h9765b1d8db708ef2E+0x118>
   24652:	2102      	movs	r1, #2
   24654:	4630      	mov	r0, r6
   24656:	4622      	mov	r2, r4
   24658:	f006 fe12 	bl	2b280 <_ZN9allow_pin12dynamic_type7unshare17hefa7cd45f9379b26E>
   2465c:	a807      	add	r0, sp, #28
   2465e:	7802      	ldrb	r2, [r0, #0]
   24660:	2a02      	cmp	r2, #2
   24662:	d003      	beq.n	2466c <_ZN20complex_dynamic_type3app17h9765b1d8db708ef2E+0x128>
   24664:	2101      	movs	r1, #1
   24666:	4630      	mov	r0, r6
   24668:	f006 fe0a 	bl	2b280 <_ZN9allow_pin12dynamic_type7unshare17hefa7cd45f9379b26E>
   2466c:	b027      	add	sp, #156	@ 0x9c
   2466e:	bdf0      	pop	{r4, r5, r6, r7, pc}
   24670:	000003d9 	.word	0x000003d9
   24674:	0001031e 	.word	0x0001031e

00024678 <_ZN20complex_dynamic_type3app17h9a56bce338077389E>:
   24678:	b5f0      	push	{r4, r5, r6, r7, lr}
   2467a:	af03      	add	r7, sp, #12
   2467c:	b0a7      	sub	sp, #156	@ 0x9c
   2467e:	9006      	str	r0, [sp, #24]
   24680:	a807      	add	r0, sp, #28
   24682:	2402      	movs	r4, #2
   24684:	7004      	strb	r4, [r0, #0]
   24686:	1c40      	adds	r0, r0, #1
   24688:	9004      	str	r0, [sp, #16]
   2468a:	2636      	movs	r6, #54	@ 0x36
   2468c:	4632      	mov	r2, r6
   2468e:	f006 ffdc 	bl	2b64a <__aeabi_memcpy>
   24692:	ad15      	add	r5, sp, #84	@ 0x54
   24694:	1c68      	adds	r0, r5, #1
   24696:	2134      	movs	r1, #52	@ 0x34
   24698:	9005      	str	r0, [sp, #20]
   2469a:	9103      	str	r1, [sp, #12]
   2469c:	f006 fe15 	bl	2b2ca <__aeabi_memclr>
   246a0:	702c      	strb	r4, [r5, #0]
   246a2:	2404      	movs	r4, #4
   246a4:	9600      	str	r6, [sp, #0]
   246a6:	9401      	str	r4, [sp, #4]
   246a8:	a823      	add	r0, sp, #140	@ 0x8c
   246aa:	4e3d      	ldr	r6, [pc, #244]	@ (247a0 <_ZN20complex_dynamic_type3app17h9a56bce338077389E+0x128>)
   246ac:	4631      	mov	r1, r6
   246ae:	4622      	mov	r2, r4
   246b0:	9b04      	ldr	r3, [sp, #16]
   246b2:	f006 fdf2 	bl	2b29a <_ZN9allow_pin13dynamic_allow17h33d41317a2da4f1cE>
   246b6:	9823      	ldr	r0, [sp, #140]	@ 0x8c
   246b8:	2802      	cmp	r0, #2
   246ba:	d101      	bne.n	246c0 <_ZN20complex_dynamic_type3app17h9a56bce338077389E+0x48>
   246bc:	9924      	ldr	r1, [sp, #144]	@ 0x90
   246be:	e001      	b.n	246c4 <_ZN20complex_dynamic_type3app17h9a56bce338077389E+0x4c>
   246c0:	a907      	add	r1, sp, #28
   246c2:	700c      	strb	r4, [r1, #0]
   246c4:	2501      	movs	r5, #1
   246c6:	2802      	cmp	r0, #2
   246c8:	d016      	beq.n	246f8 <_ZN20complex_dynamic_type3app17h9a56bce338077389E+0x80>
   246ca:	a815      	add	r0, sp, #84	@ 0x54
   246cc:	7800      	ldrb	r0, [r0, #0]
   246ce:	2802      	cmp	r0, #2
   246d0:	d10e      	bne.n	246f0 <_ZN20complex_dynamic_type3app17h9a56bce338077389E+0x78>
   246d2:	2403      	movs	r4, #3
   246d4:	9803      	ldr	r0, [sp, #12]
   246d6:	9000      	str	r0, [sp, #0]
   246d8:	9401      	str	r4, [sp, #4]
   246da:	a823      	add	r0, sp, #140	@ 0x8c
   246dc:	2202      	movs	r2, #2
   246de:	4631      	mov	r1, r6
   246e0:	9b05      	ldr	r3, [sp, #20]
   246e2:	f006 fdda 	bl	2b29a <_ZN9allow_pin13dynamic_allow17h33d41317a2da4f1cE>
   246e6:	9823      	ldr	r0, [sp, #140]	@ 0x8c
   246e8:	2802      	cmp	r0, #2
   246ea:	d113      	bne.n	24714 <_ZN20complex_dynamic_type3app17h9a56bce338077389E+0x9c>
   246ec:	9924      	ldr	r1, [sp, #144]	@ 0x90
   246ee:	e000      	b.n	246f2 <_ZN20complex_dynamic_type3app17h9a56bce338077389E+0x7a>
   246f0:	2103      	movs	r1, #3
   246f2:	4628      	mov	r0, r5
   246f4:	2800      	cmp	r0, #0
   246f6:	d012      	beq.n	2471e <_ZN20complex_dynamic_type3app17h9a56bce338077389E+0xa6>
   246f8:	462c      	mov	r4, r5
   246fa:	2c00      	cmp	r4, #0
   246fc:	d031      	beq.n	24762 <_ZN20complex_dynamic_type3app17h9a56bce338077389E+0xea>
   246fe:	2001      	movs	r0, #1
   24700:	9a06      	ldr	r2, [sp, #24]
   24702:	7010      	strb	r0, [r2, #0]
   24704:	6051      	str	r1, [r2, #4]
   24706:	a815      	add	r0, sp, #84	@ 0x54
   24708:	7802      	ldrb	r2, [r0, #0]
   2470a:	2a02      	cmp	r2, #2
   2470c:	d03e      	beq.n	2478c <_ZN20complex_dynamic_type3app17h9a56bce338077389E+0x114>
   2470e:	2102      	movs	r1, #2
   24710:	4630      	mov	r0, r6
   24712:	e039      	b.n	24788 <_ZN20complex_dynamic_type3app17h9a56bce338077389E+0x110>
   24714:	a815      	add	r0, sp, #84	@ 0x54
   24716:	7004      	strb	r4, [r0, #0]
   24718:	2000      	movs	r0, #0
   2471a:	2800      	cmp	r0, #0
   2471c:	d1ec      	bne.n	246f8 <_ZN20complex_dynamic_type3app17h9a56bce338077389E+0x80>
   2471e:	4820      	ldr	r0, [pc, #128]	@ (247a0 <_ZN20complex_dynamic_type3app17h9a56bce338077389E+0x128>)
   24720:	2104      	movs	r1, #4
   24722:	2202      	movs	r2, #2
   24724:	2400      	movs	r4, #0
   24726:	4616      	mov	r6, r2
   24728:	4623      	mov	r3, r4
   2472a:	df02      	svc	2
   2472c:	287f      	cmp	r0, #127	@ 0x7f
   2472e:	d801      	bhi.n	24734 <_ZN20complex_dynamic_type3app17h9a56bce338077389E+0xbc>
   24730:	462c      	mov	r4, r5
   24732:	e013      	b.n	2475c <_ZN20complex_dynamic_type3app17h9a56bce338077389E+0xe4>
   24734:	a807      	add	r0, sp, #28
   24736:	7802      	ldrb	r2, [r0, #0]
   24738:	2a02      	cmp	r2, #2
   2473a:	d003      	beq.n	24744 <_ZN20complex_dynamic_type3app17h9a56bce338077389E+0xcc>
   2473c:	2104      	movs	r1, #4
   2473e:	4818      	ldr	r0, [pc, #96]	@ (247a0 <_ZN20complex_dynamic_type3app17h9a56bce338077389E+0x128>)
   24740:	f006 fd9e 	bl	2b280 <_ZN9allow_pin12dynamic_type7unshare17hefa7cd45f9379b26E>
   24744:	a807      	add	r0, sp, #28
   24746:	7006      	strb	r6, [r0, #0]
   24748:	a815      	add	r0, sp, #84	@ 0x54
   2474a:	7802      	ldrb	r2, [r0, #0]
   2474c:	2a02      	cmp	r2, #2
   2474e:	d003      	beq.n	24758 <_ZN20complex_dynamic_type3app17h9a56bce338077389E+0xe0>
   24750:	2102      	movs	r1, #2
   24752:	4813      	ldr	r0, [pc, #76]	@ (247a0 <_ZN20complex_dynamic_type3app17h9a56bce338077389E+0x128>)
   24754:	f006 fd94 	bl	2b280 <_ZN9allow_pin12dynamic_type7unshare17hefa7cd45f9379b26E>
   24758:	a815      	add	r0, sp, #84	@ 0x54
   2475a:	7006      	strb	r6, [r0, #0]
   2475c:	4e10      	ldr	r6, [pc, #64]	@ (247a0 <_ZN20complex_dynamic_type3app17h9a56bce338077389E+0x128>)
   2475e:	2c00      	cmp	r4, #0
   24760:	d1cd      	bne.n	246fe <_ZN20complex_dynamic_type3app17h9a56bce338077389E+0x86>
   24762:	a815      	add	r0, sp, #84	@ 0x54
   24764:	7804      	ldrb	r4, [r0, #0]
   24766:	2c02      	cmp	r4, #2
   24768:	d001      	beq.n	2476e <_ZN20complex_dynamic_type3app17h9a56bce338077389E+0xf6>
   2476a:	480e      	ldr	r0, [pc, #56]	@ (247a4 <_ZN20complex_dynamic_type3app17h9a56bce338077389E+0x12c>)
   2476c:	9005      	str	r0, [sp, #20]
   2476e:	9d06      	ldr	r5, [sp, #24]
   24770:	1c68      	adds	r0, r5, #1
   24772:	2234      	movs	r2, #52	@ 0x34
   24774:	9905      	ldr	r1, [sp, #20]
   24776:	f006 ff68 	bl	2b64a <__aeabi_memcpy>
   2477a:	2000      	movs	r0, #0
   2477c:	2c02      	cmp	r4, #2
   2477e:	7028      	strb	r0, [r5, #0]
   24780:	d004      	beq.n	2478c <_ZN20complex_dynamic_type3app17h9a56bce338077389E+0x114>
   24782:	2102      	movs	r1, #2
   24784:	4630      	mov	r0, r6
   24786:	4622      	mov	r2, r4
   24788:	f006 fd7a 	bl	2b280 <_ZN9allow_pin12dynamic_type7unshare17hefa7cd45f9379b26E>
   2478c:	a807      	add	r0, sp, #28
   2478e:	7802      	ldrb	r2, [r0, #0]
   24790:	2a02      	cmp	r2, #2
   24792:	d003      	beq.n	2479c <_ZN20complex_dynamic_type3app17h9a56bce338077389E+0x124>
   24794:	2104      	movs	r1, #4
   24796:	4630      	mov	r0, r6
   24798:	f006 fd72 	bl	2b280 <_ZN9allow_pin12dynamic_type7unshare17hefa7cd45f9379b26E>
   2479c:	b027      	add	sp, #156	@ 0x9c
   2479e:	bdf0      	pop	{r4, r5, r6, r7, pc}
   247a0:	000023c6 	.word	0x000023c6
   247a4:	0001078b 	.word	0x0001078b

000247a8 <_ZN20complex_dynamic_type3app17h9b78e5794135a08dE>:
   247a8:	b5f0      	push	{r4, r5, r6, r7, lr}
   247aa:	af03      	add	r7, sp, #12
   247ac:	b0a3      	sub	sp, #140	@ 0x8c
   247ae:	9005      	str	r0, [sp, #20]
   247b0:	a806      	add	r0, sp, #24
   247b2:	2502      	movs	r5, #2
   247b4:	7005      	strb	r5, [r0, #0]
   247b6:	1c40      	adds	r0, r0, #1
   247b8:	9003      	str	r0, [sp, #12]
   247ba:	2438      	movs	r4, #56	@ 0x38
   247bc:	4622      	mov	r2, r4
   247be:	f006 ff44 	bl	2b64a <__aeabi_memcpy>
   247c2:	ae15      	add	r6, sp, #84	@ 0x54
   247c4:	1c70      	adds	r0, r6, #1
   247c6:	2127      	movs	r1, #39	@ 0x27
   247c8:	9004      	str	r0, [sp, #16]
   247ca:	9102      	str	r1, [sp, #8]
   247cc:	f006 fd7d 	bl	2b2ca <__aeabi_memclr>
   247d0:	7035      	strb	r5, [r6, #0]
   247d2:	2004      	movs	r0, #4
   247d4:	9400      	str	r4, [sp, #0]
   247d6:	4604      	mov	r4, r0
   247d8:	9001      	str	r0, [sp, #4]
   247da:	a81f      	add	r0, sp, #124	@ 0x7c
   247dc:	4e3d      	ldr	r6, [pc, #244]	@ (248d4 <_ZN20complex_dynamic_type3app17h9b78e5794135a08dE+0x12c>)
   247de:	4631      	mov	r1, r6
   247e0:	462a      	mov	r2, r5
   247e2:	9b03      	ldr	r3, [sp, #12]
   247e4:	f006 fd59 	bl	2b29a <_ZN9allow_pin13dynamic_allow17h33d41317a2da4f1cE>
   247e8:	981f      	ldr	r0, [sp, #124]	@ 0x7c
   247ea:	2802      	cmp	r0, #2
   247ec:	d101      	bne.n	247f2 <_ZN20complex_dynamic_type3app17h9b78e5794135a08dE+0x4a>
   247ee:	9920      	ldr	r1, [sp, #128]	@ 0x80
   247f0:	e001      	b.n	247f6 <_ZN20complex_dynamic_type3app17h9b78e5794135a08dE+0x4e>
   247f2:	a906      	add	r1, sp, #24
   247f4:	700c      	strb	r4, [r1, #0]
   247f6:	2501      	movs	r5, #1
   247f8:	2802      	cmp	r0, #2
   247fa:	d016      	beq.n	2482a <_ZN20complex_dynamic_type3app17h9b78e5794135a08dE+0x82>
   247fc:	a815      	add	r0, sp, #84	@ 0x54
   247fe:	7800      	ldrb	r0, [r0, #0]
   24800:	2802      	cmp	r0, #2
   24802:	d10e      	bne.n	24822 <_ZN20complex_dynamic_type3app17h9b78e5794135a08dE+0x7a>
   24804:	2403      	movs	r4, #3
   24806:	9802      	ldr	r0, [sp, #8]
   24808:	9000      	str	r0, [sp, #0]
   2480a:	9401      	str	r4, [sp, #4]
   2480c:	a81f      	add	r0, sp, #124	@ 0x7c
   2480e:	2208      	movs	r2, #8
   24810:	4631      	mov	r1, r6
   24812:	9b04      	ldr	r3, [sp, #16]
   24814:	f006 fd41 	bl	2b29a <_ZN9allow_pin13dynamic_allow17h33d41317a2da4f1cE>
   24818:	981f      	ldr	r0, [sp, #124]	@ 0x7c
   2481a:	2802      	cmp	r0, #2
   2481c:	d113      	bne.n	24846 <_ZN20complex_dynamic_type3app17h9b78e5794135a08dE+0x9e>
   2481e:	9920      	ldr	r1, [sp, #128]	@ 0x80
   24820:	e000      	b.n	24824 <_ZN20complex_dynamic_type3app17h9b78e5794135a08dE+0x7c>
   24822:	2103      	movs	r1, #3
   24824:	4628      	mov	r0, r5
   24826:	2800      	cmp	r0, #0
   24828:	d012      	beq.n	24850 <_ZN20complex_dynamic_type3app17h9b78e5794135a08dE+0xa8>
   2482a:	462c      	mov	r4, r5
   2482c:	2c00      	cmp	r4, #0
   2482e:	d031      	beq.n	24894 <_ZN20complex_dynamic_type3app17h9b78e5794135a08dE+0xec>
   24830:	2001      	movs	r0, #1
   24832:	9a05      	ldr	r2, [sp, #20]
   24834:	7010      	strb	r0, [r2, #0]
   24836:	6051      	str	r1, [r2, #4]
   24838:	a815      	add	r0, sp, #84	@ 0x54
   2483a:	7802      	ldrb	r2, [r0, #0]
   2483c:	2a02      	cmp	r2, #2
   2483e:	d03e      	beq.n	248be <_ZN20complex_dynamic_type3app17h9b78e5794135a08dE+0x116>
   24840:	2108      	movs	r1, #8
   24842:	4630      	mov	r0, r6
   24844:	e039      	b.n	248ba <_ZN20complex_dynamic_type3app17h9b78e5794135a08dE+0x112>
   24846:	a815      	add	r0, sp, #84	@ 0x54
   24848:	7004      	strb	r4, [r0, #0]
   2484a:	2000      	movs	r0, #0
   2484c:	2800      	cmp	r0, #0
   2484e:	d1ec      	bne.n	2482a <_ZN20complex_dynamic_type3app17h9b78e5794135a08dE+0x82>
   24850:	4820      	ldr	r0, [pc, #128]	@ (248d4 <_ZN20complex_dynamic_type3app17h9b78e5794135a08dE+0x12c>)
   24852:	2102      	movs	r1, #2
   24854:	2208      	movs	r2, #8
   24856:	2400      	movs	r4, #0
   24858:	460e      	mov	r6, r1
   2485a:	4623      	mov	r3, r4
   2485c:	df02      	svc	2
   2485e:	287f      	cmp	r0, #127	@ 0x7f
   24860:	d801      	bhi.n	24866 <_ZN20complex_dynamic_type3app17h9b78e5794135a08dE+0xbe>
   24862:	462c      	mov	r4, r5
   24864:	e013      	b.n	2488e <_ZN20complex_dynamic_type3app17h9b78e5794135a08dE+0xe6>
   24866:	a806      	add	r0, sp, #24
   24868:	7802      	ldrb	r2, [r0, #0]
   2486a:	2a02      	cmp	r2, #2
   2486c:	d003      	beq.n	24876 <_ZN20complex_dynamic_type3app17h9b78e5794135a08dE+0xce>
   2486e:	2102      	movs	r1, #2
   24870:	4818      	ldr	r0, [pc, #96]	@ (248d4 <_ZN20complex_dynamic_type3app17h9b78e5794135a08dE+0x12c>)
   24872:	f006 fd05 	bl	2b280 <_ZN9allow_pin12dynamic_type7unshare17hefa7cd45f9379b26E>
   24876:	a806      	add	r0, sp, #24
   24878:	7006      	strb	r6, [r0, #0]
   2487a:	a815      	add	r0, sp, #84	@ 0x54
   2487c:	7802      	ldrb	r2, [r0, #0]
   2487e:	2a02      	cmp	r2, #2
   24880:	d003      	beq.n	2488a <_ZN20complex_dynamic_type3app17h9b78e5794135a08dE+0xe2>
   24882:	2108      	movs	r1, #8
   24884:	4813      	ldr	r0, [pc, #76]	@ (248d4 <_ZN20complex_dynamic_type3app17h9b78e5794135a08dE+0x12c>)
   24886:	f006 fcfb 	bl	2b280 <_ZN9allow_pin12dynamic_type7unshare17hefa7cd45f9379b26E>
   2488a:	a815      	add	r0, sp, #84	@ 0x54
   2488c:	7006      	strb	r6, [r0, #0]
   2488e:	4e11      	ldr	r6, [pc, #68]	@ (248d4 <_ZN20complex_dynamic_type3app17h9b78e5794135a08dE+0x12c>)
   24890:	2c00      	cmp	r4, #0
   24892:	d1cd      	bne.n	24830 <_ZN20complex_dynamic_type3app17h9b78e5794135a08dE+0x88>
   24894:	a815      	add	r0, sp, #84	@ 0x54
   24896:	7804      	ldrb	r4, [r0, #0]
   24898:	2c02      	cmp	r4, #2
   2489a:	d001      	beq.n	248a0 <_ZN20complex_dynamic_type3app17h9b78e5794135a08dE+0xf8>
   2489c:	480e      	ldr	r0, [pc, #56]	@ (248d8 <_ZN20complex_dynamic_type3app17h9b78e5794135a08dE+0x130>)
   2489e:	9004      	str	r0, [sp, #16]
   248a0:	9d05      	ldr	r5, [sp, #20]
   248a2:	1c68      	adds	r0, r5, #1
   248a4:	2227      	movs	r2, #39	@ 0x27
   248a6:	9904      	ldr	r1, [sp, #16]
   248a8:	f006 fecf 	bl	2b64a <__aeabi_memcpy>
   248ac:	2000      	movs	r0, #0
   248ae:	2c02      	cmp	r4, #2
   248b0:	7028      	strb	r0, [r5, #0]
   248b2:	d004      	beq.n	248be <_ZN20complex_dynamic_type3app17h9b78e5794135a08dE+0x116>
   248b4:	2108      	movs	r1, #8
   248b6:	4630      	mov	r0, r6
   248b8:	4622      	mov	r2, r4
   248ba:	f006 fce1 	bl	2b280 <_ZN9allow_pin12dynamic_type7unshare17hefa7cd45f9379b26E>
   248be:	a806      	add	r0, sp, #24
   248c0:	7802      	ldrb	r2, [r0, #0]
   248c2:	2a02      	cmp	r2, #2
   248c4:	d003      	beq.n	248ce <_ZN20complex_dynamic_type3app17h9b78e5794135a08dE+0x126>
   248c6:	2102      	movs	r1, #2
   248c8:	4630      	mov	r0, r6
   248ca:	f006 fcd9 	bl	2b280 <_ZN9allow_pin12dynamic_type7unshare17hefa7cd45f9379b26E>
   248ce:	b023      	add	sp, #140	@ 0x8c
   248d0:	bdf0      	pop	{r4, r5, r6, r7, pc}
   248d2:	46c0      	nop			@ (mov r8, r8)
   248d4:	00000e2b 	.word	0x00000e2b
   248d8:	00010339 	.word	0x00010339

000248dc <_ZN20complex_dynamic_type3app17h9c453a0ac44f804bE>:
   248dc:	b5f0      	push	{r4, r5, r6, r7, lr}
   248de:	af03      	add	r7, sp, #12
   248e0:	b0a1      	sub	sp, #132	@ 0x84
   248e2:	9006      	str	r0, [sp, #24]
   248e4:	a807      	add	r0, sp, #28
   248e6:	2502      	movs	r5, #2
   248e8:	7005      	strb	r5, [r0, #0]
   248ea:	1c40      	adds	r0, r0, #1
   248ec:	9004      	str	r0, [sp, #16]
   248ee:	262c      	movs	r6, #44	@ 0x2c
   248f0:	4632      	mov	r2, r6
   248f2:	f006 feaa 	bl	2b64a <__aeabi_memcpy>
   248f6:	ac13      	add	r4, sp, #76	@ 0x4c
   248f8:	1c60      	adds	r0, r4, #1
   248fa:	2127      	movs	r1, #39	@ 0x27
   248fc:	9005      	str	r0, [sp, #20]
   248fe:	9103      	str	r1, [sp, #12]
   24900:	f006 fce3 	bl	2b2ca <__aeabi_memclr>
   24904:	9502      	str	r5, [sp, #8]
   24906:	7025      	strb	r5, [r4, #0]
   24908:	2404      	movs	r4, #4
   2490a:	9600      	str	r6, [sp, #0]
   2490c:	9401      	str	r4, [sp, #4]
   2490e:	a81d      	add	r0, sp, #116	@ 0x74
   24910:	4e3c      	ldr	r6, [pc, #240]	@ (24a04 <_ZN20complex_dynamic_type3app17h9c453a0ac44f804bE+0x128>)
   24912:	4631      	mov	r1, r6
   24914:	4622      	mov	r2, r4
   24916:	9b04      	ldr	r3, [sp, #16]
   24918:	f006 fcbf 	bl	2b29a <_ZN9allow_pin13dynamic_allow17h33d41317a2da4f1cE>
   2491c:	981d      	ldr	r0, [sp, #116]	@ 0x74
   2491e:	2802      	cmp	r0, #2
   24920:	d101      	bne.n	24926 <_ZN20complex_dynamic_type3app17h9c453a0ac44f804bE+0x4a>
   24922:	991e      	ldr	r1, [sp, #120]	@ 0x78
   24924:	e001      	b.n	2492a <_ZN20complex_dynamic_type3app17h9c453a0ac44f804bE+0x4e>
   24926:	a907      	add	r1, sp, #28
   24928:	700c      	strb	r4, [r1, #0]
   2492a:	2501      	movs	r5, #1
   2492c:	2802      	cmp	r0, #2
   2492e:	d024      	beq.n	2497a <_ZN20complex_dynamic_type3app17h9c453a0ac44f804bE+0x9e>
   24930:	a813      	add	r0, sp, #76	@ 0x4c
   24932:	7800      	ldrb	r0, [r0, #0]
   24934:	2802      	cmp	r0, #2
   24936:	d10e      	bne.n	24956 <_ZN20complex_dynamic_type3app17h9c453a0ac44f804bE+0x7a>
   24938:	2403      	movs	r4, #3
   2493a:	9803      	ldr	r0, [sp, #12]
   2493c:	9000      	str	r0, [sp, #0]
   2493e:	9401      	str	r4, [sp, #4]
   24940:	a81d      	add	r0, sp, #116	@ 0x74
   24942:	4631      	mov	r1, r6
   24944:	4622      	mov	r2, r4
   24946:	9b05      	ldr	r3, [sp, #20]
   24948:	f006 fca7 	bl	2b29a <_ZN9allow_pin13dynamic_allow17h33d41317a2da4f1cE>
   2494c:	981d      	ldr	r0, [sp, #116]	@ 0x74
   2494e:	2802      	cmp	r0, #2
   24950:	d106      	bne.n	24960 <_ZN20complex_dynamic_type3app17h9c453a0ac44f804bE+0x84>
   24952:	991e      	ldr	r1, [sp, #120]	@ 0x78
   24954:	e000      	b.n	24958 <_ZN20complex_dynamic_type3app17h9c453a0ac44f804bE+0x7c>
   24956:	2103      	movs	r1, #3
   24958:	4628      	mov	r0, r5
   2495a:	2800      	cmp	r0, #0
   2495c:	d005      	beq.n	2496a <_ZN20complex_dynamic_type3app17h9c453a0ac44f804bE+0x8e>
   2495e:	e00c      	b.n	2497a <_ZN20complex_dynamic_type3app17h9c453a0ac44f804bE+0x9e>
   24960:	a813      	add	r0, sp, #76	@ 0x4c
   24962:	7004      	strb	r4, [r0, #0]
   24964:	2000      	movs	r0, #0
   24966:	2800      	cmp	r0, #0
   24968:	d107      	bne.n	2497a <_ZN20complex_dynamic_type3app17h9c453a0ac44f804bE+0x9e>
   2496a:	4826      	ldr	r0, [pc, #152]	@ (24a04 <_ZN20complex_dynamic_type3app17h9c453a0ac44f804bE+0x128>)
   2496c:	2104      	movs	r1, #4
   2496e:	2203      	movs	r2, #3
   24970:	2400      	movs	r4, #0
   24972:	4623      	mov	r3, r4
   24974:	df02      	svc	2
   24976:	287f      	cmp	r0, #127	@ 0x7f
   24978:	d80d      	bhi.n	24996 <_ZN20complex_dynamic_type3app17h9c453a0ac44f804bE+0xba>
   2497a:	462c      	mov	r4, r5
   2497c:	2c00      	cmp	r4, #0
   2497e:	d021      	beq.n	249c4 <_ZN20complex_dynamic_type3app17h9c453a0ac44f804bE+0xe8>
   24980:	2001      	movs	r0, #1
   24982:	9a06      	ldr	r2, [sp, #24]
   24984:	7010      	strb	r0, [r2, #0]
   24986:	6051      	str	r1, [r2, #4]
   24988:	a813      	add	r0, sp, #76	@ 0x4c
   2498a:	7802      	ldrb	r2, [r0, #0]
   2498c:	2a02      	cmp	r2, #2
   2498e:	d02e      	beq.n	249ee <_ZN20complex_dynamic_type3app17h9c453a0ac44f804bE+0x112>
   24990:	2103      	movs	r1, #3
   24992:	4630      	mov	r0, r6
   24994:	e029      	b.n	249ea <_ZN20complex_dynamic_type3app17h9c453a0ac44f804bE+0x10e>
   24996:	a807      	add	r0, sp, #28
   24998:	7802      	ldrb	r2, [r0, #0]
   2499a:	2a02      	cmp	r2, #2
   2499c:	d003      	beq.n	249a6 <_ZN20complex_dynamic_type3app17h9c453a0ac44f804bE+0xca>
   2499e:	2104      	movs	r1, #4
   249a0:	4630      	mov	r0, r6
   249a2:	f006 fc6d 	bl	2b280 <_ZN9allow_pin12dynamic_type7unshare17hefa7cd45f9379b26E>
   249a6:	a807      	add	r0, sp, #28
   249a8:	9d02      	ldr	r5, [sp, #8]
   249aa:	7005      	strb	r5, [r0, #0]
   249ac:	a813      	add	r0, sp, #76	@ 0x4c
   249ae:	7802      	ldrb	r2, [r0, #0]
   249b0:	2a02      	cmp	r2, #2
   249b2:	d003      	beq.n	249bc <_ZN20complex_dynamic_type3app17h9c453a0ac44f804bE+0xe0>
   249b4:	2103      	movs	r1, #3
   249b6:	4630      	mov	r0, r6
   249b8:	f006 fc62 	bl	2b280 <_ZN9allow_pin12dynamic_type7unshare17hefa7cd45f9379b26E>
   249bc:	a813      	add	r0, sp, #76	@ 0x4c
   249be:	7005      	strb	r5, [r0, #0]
   249c0:	2c00      	cmp	r4, #0
   249c2:	d1dd      	bne.n	24980 <_ZN20complex_dynamic_type3app17h9c453a0ac44f804bE+0xa4>
   249c4:	a813      	add	r0, sp, #76	@ 0x4c
   249c6:	7804      	ldrb	r4, [r0, #0]
   249c8:	2c02      	cmp	r4, #2
   249ca:	d001      	beq.n	249d0 <_ZN20complex_dynamic_type3app17h9c453a0ac44f804bE+0xf4>
   249cc:	480e      	ldr	r0, [pc, #56]	@ (24a08 <_ZN20complex_dynamic_type3app17h9c453a0ac44f804bE+0x12c>)
   249ce:	9005      	str	r0, [sp, #20]
   249d0:	9d06      	ldr	r5, [sp, #24]
   249d2:	1c68      	adds	r0, r5, #1
   249d4:	2227      	movs	r2, #39	@ 0x27
   249d6:	9905      	ldr	r1, [sp, #20]
   249d8:	f006 fe37 	bl	2b64a <__aeabi_memcpy>
   249dc:	2000      	movs	r0, #0
   249de:	2c02      	cmp	r4, #2
   249e0:	7028      	strb	r0, [r5, #0]
   249e2:	d004      	beq.n	249ee <_ZN20complex_dynamic_type3app17h9c453a0ac44f804bE+0x112>
   249e4:	2103      	movs	r1, #3
   249e6:	4630      	mov	r0, r6
   249e8:	4622      	mov	r2, r4
   249ea:	f006 fc49 	bl	2b280 <_ZN9allow_pin12dynamic_type7unshare17hefa7cd45f9379b26E>
   249ee:	a807      	add	r0, sp, #28
   249f0:	7802      	ldrb	r2, [r0, #0]
   249f2:	2a02      	cmp	r2, #2
   249f4:	d003      	beq.n	249fe <_ZN20complex_dynamic_type3app17h9c453a0ac44f804bE+0x122>
   249f6:	2104      	movs	r1, #4
   249f8:	4630      	mov	r0, r6
   249fa:	f006 fc41 	bl	2b280 <_ZN9allow_pin12dynamic_type7unshare17hefa7cd45f9379b26E>
   249fe:	b021      	add	sp, #132	@ 0x84
   24a00:	bdf0      	pop	{r4, r5, r6, r7, pc}
   24a02:	46c0      	nop			@ (mov r8, r8)
   24a04:	000011b5 	.word	0x000011b5
   24a08:	00010339 	.word	0x00010339

00024a0c <_ZN20complex_dynamic_type3app17h9e20bbcc0bcf48b9E>:
   24a0c:	b5f0      	push	{r4, r5, r6, r7, lr}
   24a0e:	af03      	add	r7, sp, #12
   24a10:	b0a5      	sub	sp, #148	@ 0x94
   24a12:	9007      	str	r0, [sp, #28]
   24a14:	a808      	add	r0, sp, #32
   24a16:	2602      	movs	r6, #2
   24a18:	7006      	strb	r6, [r0, #0]
   24a1a:	1c40      	adds	r0, r0, #1
   24a1c:	9005      	str	r0, [sp, #20]
   24a1e:	2451      	movs	r4, #81	@ 0x51
   24a20:	4622      	mov	r2, r4
   24a22:	f006 fe12 	bl	2b64a <__aeabi_memcpy>
   24a26:	ad1d      	add	r5, sp, #116	@ 0x74
   24a28:	1c68      	adds	r0, r5, #1
   24a2a:	210f      	movs	r1, #15
   24a2c:	9006      	str	r0, [sp, #24]
   24a2e:	9104      	str	r1, [sp, #16]
   24a30:	f006 fc4b 	bl	2b2ca <__aeabi_memclr>
   24a34:	9603      	str	r6, [sp, #12]
   24a36:	702e      	strb	r6, [r5, #0]
   24a38:	2504      	movs	r5, #4
   24a3a:	9400      	str	r4, [sp, #0]
   24a3c:	9501      	str	r5, [sp, #4]
   24a3e:	a821      	add	r0, sp, #132	@ 0x84
   24a40:	493d      	ldr	r1, [pc, #244]	@ (24b38 <_ZN20complex_dynamic_type3app17h9e20bbcc0bcf48b9E+0x12c>)
   24a42:	2400      	movs	r4, #0
   24a44:	4622      	mov	r2, r4
   24a46:	9b05      	ldr	r3, [sp, #20]
   24a48:	f006 fc27 	bl	2b29a <_ZN9allow_pin13dynamic_allow17h33d41317a2da4f1cE>
   24a4c:	9821      	ldr	r0, [sp, #132]	@ 0x84
   24a4e:	2802      	cmp	r0, #2
   24a50:	d101      	bne.n	24a56 <_ZN20complex_dynamic_type3app17h9e20bbcc0bcf48b9E+0x4a>
   24a52:	9922      	ldr	r1, [sp, #136]	@ 0x88
   24a54:	e001      	b.n	24a5a <_ZN20complex_dynamic_type3app17h9e20bbcc0bcf48b9E+0x4e>
   24a56:	a908      	add	r1, sp, #32
   24a58:	700d      	strb	r5, [r1, #0]
   24a5a:	2601      	movs	r6, #1
   24a5c:	2802      	cmp	r0, #2
   24a5e:	4d36      	ldr	r5, [pc, #216]	@ (24b38 <_ZN20complex_dynamic_type3app17h9e20bbcc0bcf48b9E+0x12c>)
   24a60:	d10d      	bne.n	24a7e <_ZN20complex_dynamic_type3app17h9e20bbcc0bcf48b9E+0x72>
   24a62:	4634      	mov	r4, r6
   24a64:	2c00      	cmp	r4, #0
   24a66:	d047      	beq.n	24af8 <_ZN20complex_dynamic_type3app17h9e20bbcc0bcf48b9E+0xec>
   24a68:	2001      	movs	r0, #1
   24a6a:	9a07      	ldr	r2, [sp, #28]
   24a6c:	7010      	strb	r0, [r2, #0]
   24a6e:	6051      	str	r1, [r2, #4]
   24a70:	a81d      	add	r0, sp, #116	@ 0x74
   24a72:	7802      	ldrb	r2, [r0, #0]
   24a74:	2a02      	cmp	r2, #2
   24a76:	d054      	beq.n	24b22 <_ZN20complex_dynamic_type3app17h9e20bbcc0bcf48b9E+0x116>
   24a78:	2103      	movs	r1, #3
   24a7a:	4628      	mov	r0, r5
   24a7c:	e04f      	b.n	24b1e <_ZN20complex_dynamic_type3app17h9e20bbcc0bcf48b9E+0x112>
   24a7e:	a81d      	add	r0, sp, #116	@ 0x74
   24a80:	7800      	ldrb	r0, [r0, #0]
   24a82:	2802      	cmp	r0, #2
   24a84:	d10f      	bne.n	24aa6 <_ZN20complex_dynamic_type3app17h9e20bbcc0bcf48b9E+0x9a>
   24a86:	2203      	movs	r2, #3
   24a88:	9804      	ldr	r0, [sp, #16]
   24a8a:	9000      	str	r0, [sp, #0]
   24a8c:	9201      	str	r2, [sp, #4]
   24a8e:	a821      	add	r0, sp, #132	@ 0x84
   24a90:	4629      	mov	r1, r5
   24a92:	4615      	mov	r5, r2
   24a94:	9b06      	ldr	r3, [sp, #24]
   24a96:	f006 fc00 	bl	2b29a <_ZN9allow_pin13dynamic_allow17h33d41317a2da4f1cE>
   24a9a:	9821      	ldr	r0, [sp, #132]	@ 0x84
   24a9c:	2802      	cmp	r0, #2
   24a9e:	d107      	bne.n	24ab0 <_ZN20complex_dynamic_type3app17h9e20bbcc0bcf48b9E+0xa4>
   24aa0:	9922      	ldr	r1, [sp, #136]	@ 0x88
   24aa2:	4634      	mov	r4, r6
   24aa4:	e006      	b.n	24ab4 <_ZN20complex_dynamic_type3app17h9e20bbcc0bcf48b9E+0xa8>
   24aa6:	2103      	movs	r1, #3
   24aa8:	4634      	mov	r4, r6
   24aaa:	2c00      	cmp	r4, #0
   24aac:	d1d9      	bne.n	24a62 <_ZN20complex_dynamic_type3app17h9e20bbcc0bcf48b9E+0x56>
   24aae:	e004      	b.n	24aba <_ZN20complex_dynamic_type3app17h9e20bbcc0bcf48b9E+0xae>
   24ab0:	a81d      	add	r0, sp, #116	@ 0x74
   24ab2:	7005      	strb	r5, [r0, #0]
   24ab4:	4d20      	ldr	r5, [pc, #128]	@ (24b38 <_ZN20complex_dynamic_type3app17h9e20bbcc0bcf48b9E+0x12c>)
   24ab6:	2c00      	cmp	r4, #0
   24ab8:	d1d3      	bne.n	24a62 <_ZN20complex_dynamic_type3app17h9e20bbcc0bcf48b9E+0x56>
   24aba:	481f      	ldr	r0, [pc, #124]	@ (24b38 <_ZN20complex_dynamic_type3app17h9e20bbcc0bcf48b9E+0x12c>)
   24abc:	2203      	movs	r2, #3
   24abe:	2400      	movs	r4, #0
   24ac0:	4621      	mov	r1, r4
   24ac2:	4623      	mov	r3, r4
   24ac4:	df02      	svc	2
   24ac6:	287f      	cmp	r0, #127	@ 0x7f
   24ac8:	d9cb      	bls.n	24a62 <_ZN20complex_dynamic_type3app17h9e20bbcc0bcf48b9E+0x56>
   24aca:	a808      	add	r0, sp, #32
   24acc:	7802      	ldrb	r2, [r0, #0]
   24ace:	2a02      	cmp	r2, #2
   24ad0:	d003      	beq.n	24ada <_ZN20complex_dynamic_type3app17h9e20bbcc0bcf48b9E+0xce>
   24ad2:	2100      	movs	r1, #0
   24ad4:	4628      	mov	r0, r5
   24ad6:	f006 fbd3 	bl	2b280 <_ZN9allow_pin12dynamic_type7unshare17hefa7cd45f9379b26E>
   24ada:	a808      	add	r0, sp, #32
   24adc:	9e03      	ldr	r6, [sp, #12]
   24ade:	7006      	strb	r6, [r0, #0]
   24ae0:	a81d      	add	r0, sp, #116	@ 0x74
   24ae2:	7802      	ldrb	r2, [r0, #0]
   24ae4:	2a02      	cmp	r2, #2
   24ae6:	d003      	beq.n	24af0 <_ZN20complex_dynamic_type3app17h9e20bbcc0bcf48b9E+0xe4>
   24ae8:	2103      	movs	r1, #3
   24aea:	4628      	mov	r0, r5
   24aec:	f006 fbc8 	bl	2b280 <_ZN9allow_pin12dynamic_type7unshare17hefa7cd45f9379b26E>
   24af0:	a81d      	add	r0, sp, #116	@ 0x74
   24af2:	7006      	strb	r6, [r0, #0]
   24af4:	2c00      	cmp	r4, #0
   24af6:	d1b7      	bne.n	24a68 <_ZN20complex_dynamic_type3app17h9e20bbcc0bcf48b9E+0x5c>
   24af8:	a81d      	add	r0, sp, #116	@ 0x74
   24afa:	7804      	ldrb	r4, [r0, #0]
   24afc:	2c02      	cmp	r4, #2
   24afe:	d001      	beq.n	24b04 <_ZN20complex_dynamic_type3app17h9e20bbcc0bcf48b9E+0xf8>
   24b00:	480e      	ldr	r0, [pc, #56]	@ (24b3c <_ZN20complex_dynamic_type3app17h9e20bbcc0bcf48b9E+0x130>)
   24b02:	9006      	str	r0, [sp, #24]
   24b04:	9e07      	ldr	r6, [sp, #28]
   24b06:	1c70      	adds	r0, r6, #1
   24b08:	220f      	movs	r2, #15
   24b0a:	9906      	ldr	r1, [sp, #24]
   24b0c:	f006 fd9d 	bl	2b64a <__aeabi_memcpy>
   24b10:	2000      	movs	r0, #0
   24b12:	2c02      	cmp	r4, #2
   24b14:	7030      	strb	r0, [r6, #0]
   24b16:	d004      	beq.n	24b22 <_ZN20complex_dynamic_type3app17h9e20bbcc0bcf48b9E+0x116>
   24b18:	2103      	movs	r1, #3
   24b1a:	4628      	mov	r0, r5
   24b1c:	4622      	mov	r2, r4
   24b1e:	f006 fbaf 	bl	2b280 <_ZN9allow_pin12dynamic_type7unshare17hefa7cd45f9379b26E>
   24b22:	a808      	add	r0, sp, #32
   24b24:	7802      	ldrb	r2, [r0, #0]
   24b26:	2a02      	cmp	r2, #2
   24b28:	d003      	beq.n	24b32 <_ZN20complex_dynamic_type3app17h9e20bbcc0bcf48b9E+0x126>
   24b2a:	2100      	movs	r1, #0
   24b2c:	4628      	mov	r0, r5
   24b2e:	f006 fba7 	bl	2b280 <_ZN9allow_pin12dynamic_type7unshare17hefa7cd45f9379b26E>
   24b32:	b025      	add	sp, #148	@ 0x94
   24b34:	bdf0      	pop	{r4, r5, r6, r7, pc}
   24b36:	46c0      	nop			@ (mov r8, r8)
   24b38:	000013bf 	.word	0x000013bf
   24b3c:	0001081f 	.word	0x0001081f

00024b40 <_ZN20complex_dynamic_type3app17ha35e5e0f5c5e156cE>:
   24b40:	b5f0      	push	{r4, r5, r6, r7, lr}
   24b42:	af03      	add	r7, sp, #12
   24b44:	b09f      	sub	sp, #124	@ 0x7c
   24b46:	9006      	str	r0, [sp, #24]
   24b48:	a807      	add	r0, sp, #28
   24b4a:	2602      	movs	r6, #2
   24b4c:	7006      	strb	r6, [r0, #0]
   24b4e:	1c40      	adds	r0, r0, #1
   24b50:	9004      	str	r0, [sp, #16]
   24b52:	2521      	movs	r5, #33	@ 0x21
   24b54:	462a      	mov	r2, r5
   24b56:	f006 fd78 	bl	2b64a <__aeabi_memcpy>
   24b5a:	ac10      	add	r4, sp, #64	@ 0x40
   24b5c:	1c60      	adds	r0, r4, #1
   24b5e:	212a      	movs	r1, #42	@ 0x2a
   24b60:	9005      	str	r0, [sp, #20]
   24b62:	9103      	str	r1, [sp, #12]
   24b64:	f006 fbb1 	bl	2b2ca <__aeabi_memclr>
   24b68:	9602      	str	r6, [sp, #8]
   24b6a:	7026      	strb	r6, [r4, #0]
   24b6c:	2404      	movs	r4, #4
   24b6e:	9500      	str	r5, [sp, #0]
   24b70:	9401      	str	r4, [sp, #4]
   24b72:	a81b      	add	r0, sp, #108	@ 0x6c
   24b74:	493c      	ldr	r1, [pc, #240]	@ (24c68 <_ZN20complex_dynamic_type3app17ha35e5e0f5c5e156cE+0x128>)
   24b76:	2501      	movs	r5, #1
   24b78:	462a      	mov	r2, r5
   24b7a:	9b04      	ldr	r3, [sp, #16]
   24b7c:	f006 fb8d 	bl	2b29a <_ZN9allow_pin13dynamic_allow17h33d41317a2da4f1cE>
   24b80:	981b      	ldr	r0, [sp, #108]	@ 0x6c
   24b82:	2802      	cmp	r0, #2
   24b84:	d103      	bne.n	24b8e <_ZN20complex_dynamic_type3app17ha35e5e0f5c5e156cE+0x4e>
   24b86:	991c      	ldr	r1, [sp, #112]	@ 0x70
   24b88:	2802      	cmp	r0, #2
   24b8a:	d029      	beq.n	24be0 <_ZN20complex_dynamic_type3app17ha35e5e0f5c5e156cE+0xa0>
   24b8c:	e003      	b.n	24b96 <_ZN20complex_dynamic_type3app17ha35e5e0f5c5e156cE+0x56>
   24b8e:	a907      	add	r1, sp, #28
   24b90:	700c      	strb	r4, [r1, #0]
   24b92:	2802      	cmp	r0, #2
   24b94:	d024      	beq.n	24be0 <_ZN20complex_dynamic_type3app17ha35e5e0f5c5e156cE+0xa0>
   24b96:	a810      	add	r0, sp, #64	@ 0x40
   24b98:	7800      	ldrb	r0, [r0, #0]
   24b9a:	2802      	cmp	r0, #2
   24b9c:	d10e      	bne.n	24bbc <_ZN20complex_dynamic_type3app17ha35e5e0f5c5e156cE+0x7c>
   24b9e:	2603      	movs	r6, #3
   24ba0:	9803      	ldr	r0, [sp, #12]
   24ba2:	9000      	str	r0, [sp, #0]
   24ba4:	9601      	str	r6, [sp, #4]
   24ba6:	a81b      	add	r0, sp, #108	@ 0x6c
   24ba8:	492f      	ldr	r1, [pc, #188]	@ (24c68 <_ZN20complex_dynamic_type3app17ha35e5e0f5c5e156cE+0x128>)
   24baa:	4632      	mov	r2, r6
   24bac:	9b05      	ldr	r3, [sp, #20]
   24bae:	f006 fb74 	bl	2b29a <_ZN9allow_pin13dynamic_allow17h33d41317a2da4f1cE>
   24bb2:	981b      	ldr	r0, [sp, #108]	@ 0x6c
   24bb4:	2802      	cmp	r0, #2
   24bb6:	d106      	bne.n	24bc6 <_ZN20complex_dynamic_type3app17ha35e5e0f5c5e156cE+0x86>
   24bb8:	991c      	ldr	r1, [sp, #112]	@ 0x70
   24bba:	e000      	b.n	24bbe <_ZN20complex_dynamic_type3app17ha35e5e0f5c5e156cE+0x7e>
   24bbc:	2103      	movs	r1, #3
   24bbe:	4628      	mov	r0, r5
   24bc0:	2800      	cmp	r0, #0
   24bc2:	d005      	beq.n	24bd0 <_ZN20complex_dynamic_type3app17ha35e5e0f5c5e156cE+0x90>
   24bc4:	e00c      	b.n	24be0 <_ZN20complex_dynamic_type3app17ha35e5e0f5c5e156cE+0xa0>
   24bc6:	a810      	add	r0, sp, #64	@ 0x40
   24bc8:	7006      	strb	r6, [r0, #0]
   24bca:	2000      	movs	r0, #0
   24bcc:	2800      	cmp	r0, #0
   24bce:	d107      	bne.n	24be0 <_ZN20complex_dynamic_type3app17ha35e5e0f5c5e156cE+0xa0>
   24bd0:	4825      	ldr	r0, [pc, #148]	@ (24c68 <_ZN20complex_dynamic_type3app17ha35e5e0f5c5e156cE+0x128>)
   24bd2:	2101      	movs	r1, #1
   24bd4:	2203      	movs	r2, #3
   24bd6:	2400      	movs	r4, #0
   24bd8:	4623      	mov	r3, r4
   24bda:	df02      	svc	2
   24bdc:	287f      	cmp	r0, #127	@ 0x7f
   24bde:	d80d      	bhi.n	24bfc <_ZN20complex_dynamic_type3app17ha35e5e0f5c5e156cE+0xbc>
   24be0:	462c      	mov	r4, r5
   24be2:	2c00      	cmp	r4, #0
   24be4:	d021      	beq.n	24c2a <_ZN20complex_dynamic_type3app17ha35e5e0f5c5e156cE+0xea>
   24be6:	2001      	movs	r0, #1
   24be8:	9a06      	ldr	r2, [sp, #24]
   24bea:	7010      	strb	r0, [r2, #0]
   24bec:	6051      	str	r1, [r2, #4]
   24bee:	a810      	add	r0, sp, #64	@ 0x40
   24bf0:	7802      	ldrb	r2, [r0, #0]
   24bf2:	2a02      	cmp	r2, #2
   24bf4:	d02e      	beq.n	24c54 <_ZN20complex_dynamic_type3app17ha35e5e0f5c5e156cE+0x114>
   24bf6:	2103      	movs	r1, #3
   24bf8:	481b      	ldr	r0, [pc, #108]	@ (24c68 <_ZN20complex_dynamic_type3app17ha35e5e0f5c5e156cE+0x128>)
   24bfa:	e029      	b.n	24c50 <_ZN20complex_dynamic_type3app17ha35e5e0f5c5e156cE+0x110>
   24bfc:	a807      	add	r0, sp, #28
   24bfe:	7802      	ldrb	r2, [r0, #0]
   24c00:	2a02      	cmp	r2, #2
   24c02:	d003      	beq.n	24c0c <_ZN20complex_dynamic_type3app17ha35e5e0f5c5e156cE+0xcc>
   24c04:	2101      	movs	r1, #1
   24c06:	4818      	ldr	r0, [pc, #96]	@ (24c68 <_ZN20complex_dynamic_type3app17ha35e5e0f5c5e156cE+0x128>)
   24c08:	f006 fb3a 	bl	2b280 <_ZN9allow_pin12dynamic_type7unshare17hefa7cd45f9379b26E>
   24c0c:	a807      	add	r0, sp, #28
   24c0e:	9d02      	ldr	r5, [sp, #8]
   24c10:	7005      	strb	r5, [r0, #0]
   24c12:	a810      	add	r0, sp, #64	@ 0x40
   24c14:	7802      	ldrb	r2, [r0, #0]
   24c16:	2a02      	cmp	r2, #2
   24c18:	d003      	beq.n	24c22 <_ZN20complex_dynamic_type3app17ha35e5e0f5c5e156cE+0xe2>
   24c1a:	2103      	movs	r1, #3
   24c1c:	4812      	ldr	r0, [pc, #72]	@ (24c68 <_ZN20complex_dynamic_type3app17ha35e5e0f5c5e156cE+0x128>)
   24c1e:	f006 fb2f 	bl	2b280 <_ZN9allow_pin12dynamic_type7unshare17hefa7cd45f9379b26E>
   24c22:	a810      	add	r0, sp, #64	@ 0x40
   24c24:	7005      	strb	r5, [r0, #0]
   24c26:	2c00      	cmp	r4, #0
   24c28:	d1dd      	bne.n	24be6 <_ZN20complex_dynamic_type3app17ha35e5e0f5c5e156cE+0xa6>
   24c2a:	a810      	add	r0, sp, #64	@ 0x40
   24c2c:	7804      	ldrb	r4, [r0, #0]
   24c2e:	2c02      	cmp	r4, #2
   24c30:	d001      	beq.n	24c36 <_ZN20complex_dynamic_type3app17ha35e5e0f5c5e156cE+0xf6>
   24c32:	480e      	ldr	r0, [pc, #56]	@ (24c6c <_ZN20complex_dynamic_type3app17ha35e5e0f5c5e156cE+0x12c>)
   24c34:	9005      	str	r0, [sp, #20]
   24c36:	9d06      	ldr	r5, [sp, #24]
   24c38:	1c68      	adds	r0, r5, #1
   24c3a:	222a      	movs	r2, #42	@ 0x2a
   24c3c:	9905      	ldr	r1, [sp, #20]
   24c3e:	f006 fd04 	bl	2b64a <__aeabi_memcpy>
   24c42:	2000      	movs	r0, #0
   24c44:	2c02      	cmp	r4, #2
   24c46:	7028      	strb	r0, [r5, #0]
   24c48:	d004      	beq.n	24c54 <_ZN20complex_dynamic_type3app17ha35e5e0f5c5e156cE+0x114>
   24c4a:	2103      	movs	r1, #3
   24c4c:	4806      	ldr	r0, [pc, #24]	@ (24c68 <_ZN20complex_dynamic_type3app17ha35e5e0f5c5e156cE+0x128>)
   24c4e:	4622      	mov	r2, r4
   24c50:	f006 fb16 	bl	2b280 <_ZN9allow_pin12dynamic_type7unshare17hefa7cd45f9379b26E>
   24c54:	a807      	add	r0, sp, #28
   24c56:	7802      	ldrb	r2, [r0, #0]
   24c58:	2a02      	cmp	r2, #2
   24c5a:	d003      	beq.n	24c64 <_ZN20complex_dynamic_type3app17ha35e5e0f5c5e156cE+0x124>
   24c5c:	2101      	movs	r1, #1
   24c5e:	4802      	ldr	r0, [pc, #8]	@ (24c68 <_ZN20complex_dynamic_type3app17ha35e5e0f5c5e156cE+0x128>)
   24c60:	f006 fb0e 	bl	2b280 <_ZN9allow_pin12dynamic_type7unshare17hefa7cd45f9379b26E>
   24c64:	b01f      	add	sp, #124	@ 0x7c
   24c66:	bdf0      	pop	{r4, r5, r6, r7, pc}
   24c68:	000015f3 	.word	0x000015f3
   24c6c:	000100e4 	.word	0x000100e4

00024c70 <_ZN20complex_dynamic_type3app17ha5efb78051657f41E>:
   24c70:	b5f0      	push	{r4, r5, r6, r7, lr}
   24c72:	af03      	add	r7, sp, #12
   24c74:	b0af      	sub	sp, #188	@ 0xbc
   24c76:	9006      	str	r0, [sp, #24]
   24c78:	a807      	add	r0, sp, #28
   24c7a:	2502      	movs	r5, #2
   24c7c:	7005      	strb	r5, [r0, #0]
   24c7e:	1c40      	adds	r0, r0, #1
   24c80:	9004      	str	r0, [sp, #16]
   24c82:	262a      	movs	r6, #42	@ 0x2a
   24c84:	4632      	mov	r2, r6
   24c86:	f006 fce0 	bl	2b64a <__aeabi_memcpy>
   24c8a:	ac12      	add	r4, sp, #72	@ 0x48
   24c8c:	1c60      	adds	r0, r4, #1
   24c8e:	2163      	movs	r1, #99	@ 0x63
   24c90:	9005      	str	r0, [sp, #20]
   24c92:	9103      	str	r1, [sp, #12]
   24c94:	f006 fb19 	bl	2b2ca <__aeabi_memclr>
   24c98:	9502      	str	r5, [sp, #8]
   24c9a:	7025      	strb	r5, [r4, #0]
   24c9c:	2404      	movs	r4, #4
   24c9e:	9600      	str	r6, [sp, #0]
   24ca0:	9401      	str	r4, [sp, #4]
   24ca2:	a82b      	add	r0, sp, #172	@ 0xac
   24ca4:	4e3d      	ldr	r6, [pc, #244]	@ (24d9c <_ZN20complex_dynamic_type3app17ha5efb78051657f41E+0x12c>)
   24ca6:	4631      	mov	r1, r6
   24ca8:	4622      	mov	r2, r4
   24caa:	9b04      	ldr	r3, [sp, #16]
   24cac:	f006 faf5 	bl	2b29a <_ZN9allow_pin13dynamic_allow17h33d41317a2da4f1cE>
   24cb0:	982b      	ldr	r0, [sp, #172]	@ 0xac
   24cb2:	2802      	cmp	r0, #2
   24cb4:	d101      	bne.n	24cba <_ZN20complex_dynamic_type3app17ha5efb78051657f41E+0x4a>
   24cb6:	992c      	ldr	r1, [sp, #176]	@ 0xb0
   24cb8:	e001      	b.n	24cbe <_ZN20complex_dynamic_type3app17ha5efb78051657f41E+0x4e>
   24cba:	a907      	add	r1, sp, #28
   24cbc:	700c      	strb	r4, [r1, #0]
   24cbe:	2501      	movs	r5, #1
   24cc0:	2802      	cmp	r0, #2
   24cc2:	d10d      	bne.n	24ce0 <_ZN20complex_dynamic_type3app17ha5efb78051657f41E+0x70>
   24cc4:	462c      	mov	r4, r5
   24cc6:	2c00      	cmp	r4, #0
   24cc8:	d048      	beq.n	24d5c <_ZN20complex_dynamic_type3app17ha5efb78051657f41E+0xec>
   24cca:	2001      	movs	r0, #1
   24ccc:	9a06      	ldr	r2, [sp, #24]
   24cce:	7010      	strb	r0, [r2, #0]
   24cd0:	6051      	str	r1, [r2, #4]
   24cd2:	a812      	add	r0, sp, #72	@ 0x48
   24cd4:	7802      	ldrb	r2, [r0, #0]
   24cd6:	2a02      	cmp	r2, #2
   24cd8:	d055      	beq.n	24d86 <_ZN20complex_dynamic_type3app17ha5efb78051657f41E+0x116>
   24cda:	2100      	movs	r1, #0
   24cdc:	4630      	mov	r0, r6
   24cde:	e050      	b.n	24d82 <_ZN20complex_dynamic_type3app17ha5efb78051657f41E+0x112>
   24ce0:	a812      	add	r0, sp, #72	@ 0x48
   24ce2:	7800      	ldrb	r0, [r0, #0]
   24ce4:	2802      	cmp	r0, #2
   24ce6:	d110      	bne.n	24d0a <_ZN20complex_dynamic_type3app17ha5efb78051657f41E+0x9a>
   24ce8:	4631      	mov	r1, r6
   24cea:	2603      	movs	r6, #3
   24cec:	9803      	ldr	r0, [sp, #12]
   24cee:	9000      	str	r0, [sp, #0]
   24cf0:	9601      	str	r6, [sp, #4]
   24cf2:	a82b      	add	r0, sp, #172	@ 0xac
   24cf4:	2400      	movs	r4, #0
   24cf6:	4622      	mov	r2, r4
   24cf8:	9b05      	ldr	r3, [sp, #20]
   24cfa:	f006 face 	bl	2b29a <_ZN9allow_pin13dynamic_allow17h33d41317a2da4f1cE>
   24cfe:	982b      	ldr	r0, [sp, #172]	@ 0xac
   24d00:	2802      	cmp	r0, #2
   24d02:	d107      	bne.n	24d14 <_ZN20complex_dynamic_type3app17ha5efb78051657f41E+0xa4>
   24d04:	992c      	ldr	r1, [sp, #176]	@ 0xb0
   24d06:	462c      	mov	r4, r5
   24d08:	e006      	b.n	24d18 <_ZN20complex_dynamic_type3app17ha5efb78051657f41E+0xa8>
   24d0a:	2103      	movs	r1, #3
   24d0c:	462c      	mov	r4, r5
   24d0e:	2c00      	cmp	r4, #0
   24d10:	d1d8      	bne.n	24cc4 <_ZN20complex_dynamic_type3app17ha5efb78051657f41E+0x54>
   24d12:	e004      	b.n	24d1e <_ZN20complex_dynamic_type3app17ha5efb78051657f41E+0xae>
   24d14:	a812      	add	r0, sp, #72	@ 0x48
   24d16:	7006      	strb	r6, [r0, #0]
   24d18:	4e20      	ldr	r6, [pc, #128]	@ (24d9c <_ZN20complex_dynamic_type3app17ha5efb78051657f41E+0x12c>)
   24d1a:	2c00      	cmp	r4, #0
   24d1c:	d1d2      	bne.n	24cc4 <_ZN20complex_dynamic_type3app17ha5efb78051657f41E+0x54>
   24d1e:	481f      	ldr	r0, [pc, #124]	@ (24d9c <_ZN20complex_dynamic_type3app17ha5efb78051657f41E+0x12c>)
   24d20:	2104      	movs	r1, #4
   24d22:	2400      	movs	r4, #0
   24d24:	4622      	mov	r2, r4
   24d26:	4623      	mov	r3, r4
   24d28:	df02      	svc	2
   24d2a:	287f      	cmp	r0, #127	@ 0x7f
   24d2c:	d9ca      	bls.n	24cc4 <_ZN20complex_dynamic_type3app17ha5efb78051657f41E+0x54>
   24d2e:	a807      	add	r0, sp, #28
   24d30:	7802      	ldrb	r2, [r0, #0]
   24d32:	2a02      	cmp	r2, #2
   24d34:	d003      	beq.n	24d3e <_ZN20complex_dynamic_type3app17ha5efb78051657f41E+0xce>
   24d36:	2104      	movs	r1, #4
   24d38:	4630      	mov	r0, r6
   24d3a:	f006 faa1 	bl	2b280 <_ZN9allow_pin12dynamic_type7unshare17hefa7cd45f9379b26E>
   24d3e:	a807      	add	r0, sp, #28
   24d40:	9d02      	ldr	r5, [sp, #8]
   24d42:	7005      	strb	r5, [r0, #0]
   24d44:	a812      	add	r0, sp, #72	@ 0x48
   24d46:	7802      	ldrb	r2, [r0, #0]
   24d48:	2a02      	cmp	r2, #2
   24d4a:	d003      	beq.n	24d54 <_ZN20complex_dynamic_type3app17ha5efb78051657f41E+0xe4>
   24d4c:	2100      	movs	r1, #0
   24d4e:	4630      	mov	r0, r6
   24d50:	f006 fa96 	bl	2b280 <_ZN9allow_pin12dynamic_type7unshare17hefa7cd45f9379b26E>
   24d54:	a812      	add	r0, sp, #72	@ 0x48
   24d56:	7005      	strb	r5, [r0, #0]
   24d58:	2c00      	cmp	r4, #0
   24d5a:	d1b6      	bne.n	24cca <_ZN20complex_dynamic_type3app17ha5efb78051657f41E+0x5a>
   24d5c:	a812      	add	r0, sp, #72	@ 0x48
   24d5e:	7804      	ldrb	r4, [r0, #0]
   24d60:	2c02      	cmp	r4, #2
   24d62:	d001      	beq.n	24d68 <_ZN20complex_dynamic_type3app17ha5efb78051657f41E+0xf8>
   24d64:	480e      	ldr	r0, [pc, #56]	@ (24da0 <_ZN20complex_dynamic_type3app17ha5efb78051657f41E+0x130>)
   24d66:	9005      	str	r0, [sp, #20]
   24d68:	9d06      	ldr	r5, [sp, #24]
   24d6a:	1c68      	adds	r0, r5, #1
   24d6c:	2263      	movs	r2, #99	@ 0x63
   24d6e:	9905      	ldr	r1, [sp, #20]
   24d70:	f006 fc6b 	bl	2b64a <__aeabi_memcpy>
   24d74:	2000      	movs	r0, #0
   24d76:	2c02      	cmp	r4, #2
   24d78:	7028      	strb	r0, [r5, #0]
   24d7a:	d004      	beq.n	24d86 <_ZN20complex_dynamic_type3app17ha5efb78051657f41E+0x116>
   24d7c:	2100      	movs	r1, #0
   24d7e:	4630      	mov	r0, r6
   24d80:	4622      	mov	r2, r4
   24d82:	f006 fa7d 	bl	2b280 <_ZN9allow_pin12dynamic_type7unshare17hefa7cd45f9379b26E>
   24d86:	a807      	add	r0, sp, #28
   24d88:	7802      	ldrb	r2, [r0, #0]
   24d8a:	2a02      	cmp	r2, #2
   24d8c:	d003      	beq.n	24d96 <_ZN20complex_dynamic_type3app17ha5efb78051657f41E+0x126>
   24d8e:	2104      	movs	r1, #4
   24d90:	4630      	mov	r0, r6
   24d92:	f006 fa75 	bl	2b280 <_ZN9allow_pin12dynamic_type7unshare17hefa7cd45f9379b26E>
   24d96:	b02f      	add	sp, #188	@ 0xbc
   24d98:	bdf0      	pop	{r4, r5, r6, r7, pc}
   24d9a:	46c0      	nop			@ (mov r8, r8)
   24d9c:	00001c7c 	.word	0x00001c7c
   24da0:	00010be1 	.word	0x00010be1

00024da4 <_ZN20complex_dynamic_type3app17ha712121d626ad273E>:
   24da4:	b5f0      	push	{r4, r5, r6, r7, lr}
   24da6:	af03      	add	r7, sp, #12
   24da8:	b0a9      	sub	sp, #164	@ 0xa4
   24daa:	9006      	str	r0, [sp, #24]
   24dac:	a807      	add	r0, sp, #28
   24dae:	2602      	movs	r6, #2
   24db0:	7006      	strb	r6, [r0, #0]
   24db2:	1c40      	adds	r0, r0, #1
   24db4:	9004      	str	r0, [sp, #16]
   24db6:	2435      	movs	r4, #53	@ 0x35
   24db8:	4622      	mov	r2, r4
   24dba:	f006 fc46 	bl	2b64a <__aeabi_memcpy>
   24dbe:	ad15      	add	r5, sp, #84	@ 0x54
   24dc0:	1c68      	adds	r0, r5, #1
   24dc2:	213f      	movs	r1, #63	@ 0x3f
   24dc4:	9005      	str	r0, [sp, #20]
   24dc6:	9103      	str	r1, [sp, #12]
   24dc8:	f006 fa7f 	bl	2b2ca <__aeabi_memclr>
   24dcc:	9602      	str	r6, [sp, #8]
   24dce:	702e      	strb	r6, [r5, #0]
   24dd0:	2504      	movs	r5, #4
   24dd2:	9400      	str	r4, [sp, #0]
   24dd4:	9501      	str	r5, [sp, #4]
   24dd6:	a825      	add	r0, sp, #148	@ 0x94
   24dd8:	493d      	ldr	r1, [pc, #244]	@ (24ed0 <_ZN20complex_dynamic_type3app17ha712121d626ad273E+0x12c>)
   24dda:	2400      	movs	r4, #0
   24ddc:	4622      	mov	r2, r4
   24dde:	9b04      	ldr	r3, [sp, #16]
   24de0:	f006 fa5b 	bl	2b29a <_ZN9allow_pin13dynamic_allow17h33d41317a2da4f1cE>
   24de4:	9825      	ldr	r0, [sp, #148]	@ 0x94
   24de6:	2802      	cmp	r0, #2
   24de8:	d101      	bne.n	24dee <_ZN20complex_dynamic_type3app17ha712121d626ad273E+0x4a>
   24dea:	9926      	ldr	r1, [sp, #152]	@ 0x98
   24dec:	e001      	b.n	24df2 <_ZN20complex_dynamic_type3app17ha712121d626ad273E+0x4e>
   24dee:	a907      	add	r1, sp, #28
   24df0:	700d      	strb	r5, [r1, #0]
   24df2:	2601      	movs	r6, #1
   24df4:	2802      	cmp	r0, #2
   24df6:	4d36      	ldr	r5, [pc, #216]	@ (24ed0 <_ZN20complex_dynamic_type3app17ha712121d626ad273E+0x12c>)
   24df8:	d10d      	bne.n	24e16 <_ZN20complex_dynamic_type3app17ha712121d626ad273E+0x72>
   24dfa:	4634      	mov	r4, r6
   24dfc:	2c00      	cmp	r4, #0
   24dfe:	d047      	beq.n	24e90 <_ZN20complex_dynamic_type3app17ha712121d626ad273E+0xec>
   24e00:	2001      	movs	r0, #1
   24e02:	9a06      	ldr	r2, [sp, #24]
   24e04:	7010      	strb	r0, [r2, #0]
   24e06:	6051      	str	r1, [r2, #4]
   24e08:	a815      	add	r0, sp, #84	@ 0x54
   24e0a:	7802      	ldrb	r2, [r0, #0]
   24e0c:	2a02      	cmp	r2, #2
   24e0e:	d054      	beq.n	24eba <_ZN20complex_dynamic_type3app17ha712121d626ad273E+0x116>
   24e10:	2103      	movs	r1, #3
   24e12:	4628      	mov	r0, r5
   24e14:	e04f      	b.n	24eb6 <_ZN20complex_dynamic_type3app17ha712121d626ad273E+0x112>
   24e16:	a815      	add	r0, sp, #84	@ 0x54
   24e18:	7800      	ldrb	r0, [r0, #0]
   24e1a:	2802      	cmp	r0, #2
   24e1c:	d10f      	bne.n	24e3e <_ZN20complex_dynamic_type3app17ha712121d626ad273E+0x9a>
   24e1e:	2203      	movs	r2, #3
   24e20:	9803      	ldr	r0, [sp, #12]
   24e22:	9000      	str	r0, [sp, #0]
   24e24:	9201      	str	r2, [sp, #4]
   24e26:	a825      	add	r0, sp, #148	@ 0x94
   24e28:	4629      	mov	r1, r5
   24e2a:	4615      	mov	r5, r2
   24e2c:	9b05      	ldr	r3, [sp, #20]
   24e2e:	f006 fa34 	bl	2b29a <_ZN9allow_pin13dynamic_allow17h33d41317a2da4f1cE>
   24e32:	9825      	ldr	r0, [sp, #148]	@ 0x94
   24e34:	2802      	cmp	r0, #2
   24e36:	d107      	bne.n	24e48 <_ZN20complex_dynamic_type3app17ha712121d626ad273E+0xa4>
   24e38:	9926      	ldr	r1, [sp, #152]	@ 0x98
   24e3a:	4634      	mov	r4, r6
   24e3c:	e006      	b.n	24e4c <_ZN20complex_dynamic_type3app17ha712121d626ad273E+0xa8>
   24e3e:	2103      	movs	r1, #3
   24e40:	4634      	mov	r4, r6
   24e42:	2c00      	cmp	r4, #0
   24e44:	d1d9      	bne.n	24dfa <_ZN20complex_dynamic_type3app17ha712121d626ad273E+0x56>
   24e46:	e004      	b.n	24e52 <_ZN20complex_dynamic_type3app17ha712121d626ad273E+0xae>
   24e48:	a815      	add	r0, sp, #84	@ 0x54
   24e4a:	7005      	strb	r5, [r0, #0]
   24e4c:	4d20      	ldr	r5, [pc, #128]	@ (24ed0 <_ZN20complex_dynamic_type3app17ha712121d626ad273E+0x12c>)
   24e4e:	2c00      	cmp	r4, #0
   24e50:	d1d3      	bne.n	24dfa <_ZN20complex_dynamic_type3app17ha712121d626ad273E+0x56>
   24e52:	481f      	ldr	r0, [pc, #124]	@ (24ed0 <_ZN20complex_dynamic_type3app17ha712121d626ad273E+0x12c>)
   24e54:	2203      	movs	r2, #3
   24e56:	2400      	movs	r4, #0
   24e58:	4621      	mov	r1, r4
   24e5a:	4623      	mov	r3, r4
   24e5c:	df02      	svc	2
   24e5e:	287f      	cmp	r0, #127	@ 0x7f
   24e60:	d9cb      	bls.n	24dfa <_ZN20complex_dynamic_type3app17ha712121d626ad273E+0x56>
   24e62:	a807      	add	r0, sp, #28
   24e64:	7802      	ldrb	r2, [r0, #0]
   24e66:	2a02      	cmp	r2, #2
   24e68:	d003      	beq.n	24e72 <_ZN20complex_dynamic_type3app17ha712121d626ad273E+0xce>
   24e6a:	2100      	movs	r1, #0
   24e6c:	4628      	mov	r0, r5
   24e6e:	f006 fa07 	bl	2b280 <_ZN9allow_pin12dynamic_type7unshare17hefa7cd45f9379b26E>
   24e72:	a807      	add	r0, sp, #28
   24e74:	9e02      	ldr	r6, [sp, #8]
   24e76:	7006      	strb	r6, [r0, #0]
   24e78:	a815      	add	r0, sp, #84	@ 0x54
   24e7a:	7802      	ldrb	r2, [r0, #0]
   24e7c:	2a02      	cmp	r2, #2
   24e7e:	d003      	beq.n	24e88 <_ZN20complex_dynamic_type3app17ha712121d626ad273E+0xe4>
   24e80:	2103      	movs	r1, #3
   24e82:	4628      	mov	r0, r5
   24e84:	f006 f9fc 	bl	2b280 <_ZN9allow_pin12dynamic_type7unshare17hefa7cd45f9379b26E>
   24e88:	a815      	add	r0, sp, #84	@ 0x54
   24e8a:	7006      	strb	r6, [r0, #0]
   24e8c:	2c00      	cmp	r4, #0
   24e8e:	d1b7      	bne.n	24e00 <_ZN20complex_dynamic_type3app17ha712121d626ad273E+0x5c>
   24e90:	a815      	add	r0, sp, #84	@ 0x54
   24e92:	7804      	ldrb	r4, [r0, #0]
   24e94:	2c02      	cmp	r4, #2
   24e96:	d001      	beq.n	24e9c <_ZN20complex_dynamic_type3app17ha712121d626ad273E+0xf8>
   24e98:	480e      	ldr	r0, [pc, #56]	@ (24ed4 <_ZN20complex_dynamic_type3app17ha712121d626ad273E+0x130>)
   24e9a:	9005      	str	r0, [sp, #20]
   24e9c:	9e06      	ldr	r6, [sp, #24]
   24e9e:	1c70      	adds	r0, r6, #1
   24ea0:	223f      	movs	r2, #63	@ 0x3f
   24ea2:	9905      	ldr	r1, [sp, #20]
   24ea4:	f006 fbd1 	bl	2b64a <__aeabi_memcpy>
   24ea8:	2000      	movs	r0, #0
   24eaa:	2c02      	cmp	r4, #2
   24eac:	7030      	strb	r0, [r6, #0]
   24eae:	d004      	beq.n	24eba <_ZN20complex_dynamic_type3app17ha712121d626ad273E+0x116>
   24eb0:	2103      	movs	r1, #3
   24eb2:	4628      	mov	r0, r5
   24eb4:	4622      	mov	r2, r4
   24eb6:	f006 f9e3 	bl	2b280 <_ZN9allow_pin12dynamic_type7unshare17hefa7cd45f9379b26E>
   24eba:	a807      	add	r0, sp, #28
   24ebc:	7802      	ldrb	r2, [r0, #0]
   24ebe:	2a02      	cmp	r2, #2
   24ec0:	d003      	beq.n	24eca <_ZN20complex_dynamic_type3app17ha712121d626ad273E+0x126>
   24ec2:	2100      	movs	r1, #0
   24ec4:	4628      	mov	r0, r5
   24ec6:	f006 f9db 	bl	2b280 <_ZN9allow_pin12dynamic_type7unshare17hefa7cd45f9379b26E>
   24eca:	b029      	add	sp, #164	@ 0xa4
   24ecc:	bdf0      	pop	{r4, r5, r6, r7, pc}
   24ece:	46c0      	nop			@ (mov r8, r8)
   24ed0:	00000e57 	.word	0x00000e57
   24ed4:	00010906 	.word	0x00010906

00024ed8 <_ZN20complex_dynamic_type3app17ha87ac2ea9b88629aE>:
   24ed8:	b5f0      	push	{r4, r5, r6, r7, lr}
   24eda:	af03      	add	r7, sp, #12
   24edc:	b099      	sub	sp, #100	@ 0x64
   24ede:	9006      	str	r0, [sp, #24]
   24ee0:	a807      	add	r0, sp, #28
   24ee2:	2402      	movs	r4, #2
   24ee4:	7004      	strb	r4, [r0, #0]
   24ee6:	1c40      	adds	r0, r0, #1
   24ee8:	9004      	str	r0, [sp, #16]
   24eea:	250f      	movs	r5, #15
   24eec:	462a      	mov	r2, r5
   24eee:	f006 fbac 	bl	2b64a <__aeabi_memcpy>
   24ef2:	ae0b      	add	r6, sp, #44	@ 0x2c
   24ef4:	1c70      	adds	r0, r6, #1
   24ef6:	2125      	movs	r1, #37	@ 0x25
   24ef8:	9005      	str	r0, [sp, #20]
   24efa:	9103      	str	r1, [sp, #12]
   24efc:	f006 f9e5 	bl	2b2ca <__aeabi_memclr>
   24f00:	9402      	str	r4, [sp, #8]
   24f02:	7034      	strb	r4, [r6, #0]
   24f04:	2604      	movs	r6, #4
   24f06:	9500      	str	r5, [sp, #0]
   24f08:	9601      	str	r6, [sp, #4]
   24f0a:	a815      	add	r0, sp, #84	@ 0x54
   24f0c:	21a2      	movs	r1, #162	@ 0xa2
   24f0e:	2208      	movs	r2, #8
   24f10:	9b04      	ldr	r3, [sp, #16]
   24f12:	f006 f9c2 	bl	2b29a <_ZN9allow_pin13dynamic_allow17h33d41317a2da4f1cE>
   24f16:	9815      	ldr	r0, [sp, #84]	@ 0x54
   24f18:	2802      	cmp	r0, #2
   24f1a:	d101      	bne.n	24f20 <_ZN20complex_dynamic_type3app17ha87ac2ea9b88629aE+0x48>
   24f1c:	9916      	ldr	r1, [sp, #88]	@ 0x58
   24f1e:	e001      	b.n	24f24 <_ZN20complex_dynamic_type3app17ha87ac2ea9b88629aE+0x4c>
   24f20:	a907      	add	r1, sp, #28
   24f22:	700e      	strb	r6, [r1, #0]
   24f24:	2501      	movs	r5, #1
   24f26:	2802      	cmp	r0, #2
   24f28:	d024      	beq.n	24f74 <_ZN20complex_dynamic_type3app17ha87ac2ea9b88629aE+0x9c>
   24f2a:	a80b      	add	r0, sp, #44	@ 0x2c
   24f2c:	7800      	ldrb	r0, [r0, #0]
   24f2e:	2802      	cmp	r0, #2
   24f30:	d10f      	bne.n	24f52 <_ZN20complex_dynamic_type3app17ha87ac2ea9b88629aE+0x7a>
   24f32:	2603      	movs	r6, #3
   24f34:	9803      	ldr	r0, [sp, #12]
   24f36:	9000      	str	r0, [sp, #0]
   24f38:	9601      	str	r6, [sp, #4]
   24f3a:	a815      	add	r0, sp, #84	@ 0x54
   24f3c:	21a2      	movs	r1, #162	@ 0xa2
   24f3e:	2400      	movs	r4, #0
   24f40:	4622      	mov	r2, r4
   24f42:	9b05      	ldr	r3, [sp, #20]
   24f44:	f006 f9a9 	bl	2b29a <_ZN9allow_pin13dynamic_allow17h33d41317a2da4f1cE>
   24f48:	9815      	ldr	r0, [sp, #84]	@ 0x54
   24f4a:	2802      	cmp	r0, #2
   24f4c:	d106      	bne.n	24f5c <_ZN20complex_dynamic_type3app17ha87ac2ea9b88629aE+0x84>
   24f4e:	9916      	ldr	r1, [sp, #88]	@ 0x58
   24f50:	e000      	b.n	24f54 <_ZN20complex_dynamic_type3app17ha87ac2ea9b88629aE+0x7c>
   24f52:	2103      	movs	r1, #3
   24f54:	462c      	mov	r4, r5
   24f56:	2c00      	cmp	r4, #0
   24f58:	d004      	beq.n	24f64 <_ZN20complex_dynamic_type3app17ha87ac2ea9b88629aE+0x8c>
   24f5a:	e00b      	b.n	24f74 <_ZN20complex_dynamic_type3app17ha87ac2ea9b88629aE+0x9c>
   24f5c:	a80b      	add	r0, sp, #44	@ 0x2c
   24f5e:	7006      	strb	r6, [r0, #0]
   24f60:	2c00      	cmp	r4, #0
   24f62:	d107      	bne.n	24f74 <_ZN20complex_dynamic_type3app17ha87ac2ea9b88629aE+0x9c>
   24f64:	20a2      	movs	r0, #162	@ 0xa2
   24f66:	2108      	movs	r1, #8
   24f68:	2600      	movs	r6, #0
   24f6a:	4632      	mov	r2, r6
   24f6c:	4633      	mov	r3, r6
   24f6e:	df02      	svc	2
   24f70:	287f      	cmp	r0, #127	@ 0x7f
   24f72:	d80d      	bhi.n	24f90 <_ZN20complex_dynamic_type3app17ha87ac2ea9b88629aE+0xb8>
   24f74:	462e      	mov	r6, r5
   24f76:	2e00      	cmp	r6, #0
   24f78:	d021      	beq.n	24fbe <_ZN20complex_dynamic_type3app17ha87ac2ea9b88629aE+0xe6>
   24f7a:	2001      	movs	r0, #1
   24f7c:	9a06      	ldr	r2, [sp, #24]
   24f7e:	7010      	strb	r0, [r2, #0]
   24f80:	6051      	str	r1, [r2, #4]
   24f82:	a80b      	add	r0, sp, #44	@ 0x2c
   24f84:	7802      	ldrb	r2, [r0, #0]
   24f86:	2a02      	cmp	r2, #2
   24f88:	d02e      	beq.n	24fe8 <_ZN20complex_dynamic_type3app17ha87ac2ea9b88629aE+0x110>
   24f8a:	20a2      	movs	r0, #162	@ 0xa2
   24f8c:	2100      	movs	r1, #0
   24f8e:	e029      	b.n	24fe4 <_ZN20complex_dynamic_type3app17ha87ac2ea9b88629aE+0x10c>
   24f90:	a807      	add	r0, sp, #28
   24f92:	7802      	ldrb	r2, [r0, #0]
   24f94:	2a02      	cmp	r2, #2
   24f96:	d003      	beq.n	24fa0 <_ZN20complex_dynamic_type3app17ha87ac2ea9b88629aE+0xc8>
   24f98:	20a2      	movs	r0, #162	@ 0xa2
   24f9a:	2108      	movs	r1, #8
   24f9c:	f006 f970 	bl	2b280 <_ZN9allow_pin12dynamic_type7unshare17hefa7cd45f9379b26E>
   24fa0:	a807      	add	r0, sp, #28
   24fa2:	9c02      	ldr	r4, [sp, #8]
   24fa4:	7004      	strb	r4, [r0, #0]
   24fa6:	a80b      	add	r0, sp, #44	@ 0x2c
   24fa8:	7802      	ldrb	r2, [r0, #0]
   24faa:	2a02      	cmp	r2, #2
   24fac:	d003      	beq.n	24fb6 <_ZN20complex_dynamic_type3app17ha87ac2ea9b88629aE+0xde>
   24fae:	20a2      	movs	r0, #162	@ 0xa2
   24fb0:	2100      	movs	r1, #0
   24fb2:	f006 f965 	bl	2b280 <_ZN9allow_pin12dynamic_type7unshare17hefa7cd45f9379b26E>
   24fb6:	a80b      	add	r0, sp, #44	@ 0x2c
   24fb8:	7004      	strb	r4, [r0, #0]
   24fba:	2e00      	cmp	r6, #0
   24fbc:	d1dd      	bne.n	24f7a <_ZN20complex_dynamic_type3app17ha87ac2ea9b88629aE+0xa2>
   24fbe:	a80b      	add	r0, sp, #44	@ 0x2c
   24fc0:	7806      	ldrb	r6, [r0, #0]
   24fc2:	2e02      	cmp	r6, #2
   24fc4:	d001      	beq.n	24fca <_ZN20complex_dynamic_type3app17ha87ac2ea9b88629aE+0xf2>
   24fc6:	480d      	ldr	r0, [pc, #52]	@ (24ffc <_ZN20complex_dynamic_type3app17ha87ac2ea9b88629aE+0x124>)
   24fc8:	9005      	str	r0, [sp, #20]
   24fca:	9c06      	ldr	r4, [sp, #24]
   24fcc:	1c60      	adds	r0, r4, #1
   24fce:	2225      	movs	r2, #37	@ 0x25
   24fd0:	9905      	ldr	r1, [sp, #20]
   24fd2:	f006 fb3a 	bl	2b64a <__aeabi_memcpy>
   24fd6:	2000      	movs	r0, #0
   24fd8:	2e02      	cmp	r6, #2
   24fda:	7020      	strb	r0, [r4, #0]
   24fdc:	d004      	beq.n	24fe8 <_ZN20complex_dynamic_type3app17ha87ac2ea9b88629aE+0x110>
   24fde:	20a2      	movs	r0, #162	@ 0xa2
   24fe0:	2100      	movs	r1, #0
   24fe2:	4632      	mov	r2, r6
   24fe4:	f006 f94c 	bl	2b280 <_ZN9allow_pin12dynamic_type7unshare17hefa7cd45f9379b26E>
   24fe8:	a807      	add	r0, sp, #28
   24fea:	7802      	ldrb	r2, [r0, #0]
   24fec:	2a02      	cmp	r2, #2
   24fee:	d003      	beq.n	24ff8 <_ZN20complex_dynamic_type3app17ha87ac2ea9b88629aE+0x120>
   24ff0:	20a2      	movs	r0, #162	@ 0xa2
   24ff2:	2108      	movs	r1, #8
   24ff4:	f006 f944 	bl	2b280 <_ZN9allow_pin12dynamic_type7unshare17hefa7cd45f9379b26E>
   24ff8:	b019      	add	sp, #100	@ 0x64
   24ffa:	bdf0      	pop	{r4, r5, r6, r7, pc}
   24ffc:	00010615 	.word	0x00010615

00025000 <_ZN20complex_dynamic_type3app17ha9f649f998a9e4a2E>:
   25000:	b5f0      	push	{r4, r5, r6, r7, lr}
   25002:	af03      	add	r7, sp, #12
   25004:	b0af      	sub	sp, #188	@ 0xbc
   25006:	9006      	str	r0, [sp, #24]
   25008:	a807      	add	r0, sp, #28
   2500a:	2402      	movs	r4, #2
   2500c:	7004      	strb	r4, [r0, #0]
   2500e:	1c40      	adds	r0, r0, #1
   25010:	9004      	str	r0, [sp, #16]
   25012:	262f      	movs	r6, #47	@ 0x2f
   25014:	4632      	mov	r2, r6
   25016:	f006 fb18 	bl	2b64a <__aeabi_memcpy>
   2501a:	ad13      	add	r5, sp, #76	@ 0x4c
   2501c:	1c68      	adds	r0, r5, #1
   2501e:	215e      	movs	r1, #94	@ 0x5e
   25020:	9005      	str	r0, [sp, #20]
   25022:	9103      	str	r1, [sp, #12]
   25024:	f006 f951 	bl	2b2ca <__aeabi_memclr>
   25028:	702c      	strb	r4, [r5, #0]
   2502a:	2404      	movs	r4, #4
   2502c:	9600      	str	r6, [sp, #0]
   2502e:	9401      	str	r4, [sp, #4]
   25030:	a82b      	add	r0, sp, #172	@ 0xac
   25032:	4e3d      	ldr	r6, [pc, #244]	@ (25128 <_ZN20complex_dynamic_type3app17ha9f649f998a9e4a2E+0x128>)
   25034:	2205      	movs	r2, #5
   25036:	4631      	mov	r1, r6
   25038:	9b04      	ldr	r3, [sp, #16]
   2503a:	f006 f92e 	bl	2b29a <_ZN9allow_pin13dynamic_allow17h33d41317a2da4f1cE>
   2503e:	982b      	ldr	r0, [sp, #172]	@ 0xac
   25040:	2802      	cmp	r0, #2
   25042:	d101      	bne.n	25048 <_ZN20complex_dynamic_type3app17ha9f649f998a9e4a2E+0x48>
   25044:	992c      	ldr	r1, [sp, #176]	@ 0xb0
   25046:	e001      	b.n	2504c <_ZN20complex_dynamic_type3app17ha9f649f998a9e4a2E+0x4c>
   25048:	a907      	add	r1, sp, #28
   2504a:	700c      	strb	r4, [r1, #0]
   2504c:	2501      	movs	r5, #1
   2504e:	2802      	cmp	r0, #2
   25050:	d016      	beq.n	25080 <_ZN20complex_dynamic_type3app17ha9f649f998a9e4a2E+0x80>
   25052:	a813      	add	r0, sp, #76	@ 0x4c
   25054:	7800      	ldrb	r0, [r0, #0]
   25056:	2802      	cmp	r0, #2
   25058:	d10e      	bne.n	25078 <_ZN20complex_dynamic_type3app17ha9f649f998a9e4a2E+0x78>
   2505a:	2403      	movs	r4, #3
   2505c:	9803      	ldr	r0, [sp, #12]
   2505e:	9000      	str	r0, [sp, #0]
   25060:	9401      	str	r4, [sp, #4]
   25062:	a82b      	add	r0, sp, #172	@ 0xac
   25064:	2202      	movs	r2, #2
   25066:	4631      	mov	r1, r6
   25068:	9b05      	ldr	r3, [sp, #20]
   2506a:	f006 f916 	bl	2b29a <_ZN9allow_pin13dynamic_allow17h33d41317a2da4f1cE>
   2506e:	982b      	ldr	r0, [sp, #172]	@ 0xac
   25070:	2802      	cmp	r0, #2
   25072:	d113      	bne.n	2509c <_ZN20complex_dynamic_type3app17ha9f649f998a9e4a2E+0x9c>
   25074:	992c      	ldr	r1, [sp, #176]	@ 0xb0
   25076:	e000      	b.n	2507a <_ZN20complex_dynamic_type3app17ha9f649f998a9e4a2E+0x7a>
   25078:	2103      	movs	r1, #3
   2507a:	4628      	mov	r0, r5
   2507c:	2800      	cmp	r0, #0
   2507e:	d012      	beq.n	250a6 <_ZN20complex_dynamic_type3app17ha9f649f998a9e4a2E+0xa6>
   25080:	462c      	mov	r4, r5
   25082:	2c00      	cmp	r4, #0
   25084:	d031      	beq.n	250ea <_ZN20complex_dynamic_type3app17ha9f649f998a9e4a2E+0xea>
   25086:	2001      	movs	r0, #1
   25088:	9a06      	ldr	r2, [sp, #24]
   2508a:	7010      	strb	r0, [r2, #0]
   2508c:	6051      	str	r1, [r2, #4]
   2508e:	a813      	add	r0, sp, #76	@ 0x4c
   25090:	7802      	ldrb	r2, [r0, #0]
   25092:	2a02      	cmp	r2, #2
   25094:	d03e      	beq.n	25114 <_ZN20complex_dynamic_type3app17ha9f649f998a9e4a2E+0x114>
   25096:	2102      	movs	r1, #2
   25098:	4630      	mov	r0, r6
   2509a:	e039      	b.n	25110 <_ZN20complex_dynamic_type3app17ha9f649f998a9e4a2E+0x110>
   2509c:	a813      	add	r0, sp, #76	@ 0x4c
   2509e:	7004      	strb	r4, [r0, #0]
   250a0:	2000      	movs	r0, #0
   250a2:	2800      	cmp	r0, #0
   250a4:	d1ec      	bne.n	25080 <_ZN20complex_dynamic_type3app17ha9f649f998a9e4a2E+0x80>
   250a6:	4820      	ldr	r0, [pc, #128]	@ (25128 <_ZN20complex_dynamic_type3app17ha9f649f998a9e4a2E+0x128>)
   250a8:	2105      	movs	r1, #5
   250aa:	2202      	movs	r2, #2
   250ac:	2400      	movs	r4, #0
   250ae:	4616      	mov	r6, r2
   250b0:	4623      	mov	r3, r4
   250b2:	df02      	svc	2
   250b4:	287f      	cmp	r0, #127	@ 0x7f
   250b6:	d801      	bhi.n	250bc <_ZN20complex_dynamic_type3app17ha9f649f998a9e4a2E+0xbc>
   250b8:	462c      	mov	r4, r5
   250ba:	e013      	b.n	250e4 <_ZN20complex_dynamic_type3app17ha9f649f998a9e4a2E+0xe4>
   250bc:	a807      	add	r0, sp, #28
   250be:	7802      	ldrb	r2, [r0, #0]
   250c0:	2a02      	cmp	r2, #2
   250c2:	d003      	beq.n	250cc <_ZN20complex_dynamic_type3app17ha9f649f998a9e4a2E+0xcc>
   250c4:	2105      	movs	r1, #5
   250c6:	4818      	ldr	r0, [pc, #96]	@ (25128 <_ZN20complex_dynamic_type3app17ha9f649f998a9e4a2E+0x128>)
   250c8:	f006 f8da 	bl	2b280 <_ZN9allow_pin12dynamic_type7unshare17hefa7cd45f9379b26E>
   250cc:	a807      	add	r0, sp, #28
   250ce:	7006      	strb	r6, [r0, #0]
   250d0:	a813      	add	r0, sp, #76	@ 0x4c
   250d2:	7802      	ldrb	r2, [r0, #0]
   250d4:	2a02      	cmp	r2, #2
   250d6:	d003      	beq.n	250e0 <_ZN20complex_dynamic_type3app17ha9f649f998a9e4a2E+0xe0>
   250d8:	2102      	movs	r1, #2
   250da:	4813      	ldr	r0, [pc, #76]	@ (25128 <_ZN20complex_dynamic_type3app17ha9f649f998a9e4a2E+0x128>)
   250dc:	f006 f8d0 	bl	2b280 <_ZN9allow_pin12dynamic_type7unshare17hefa7cd45f9379b26E>
   250e0:	a813      	add	r0, sp, #76	@ 0x4c
   250e2:	7006      	strb	r6, [r0, #0]
   250e4:	4e10      	ldr	r6, [pc, #64]	@ (25128 <_ZN20complex_dynamic_type3app17ha9f649f998a9e4a2E+0x128>)
   250e6:	2c00      	cmp	r4, #0
   250e8:	d1cd      	bne.n	25086 <_ZN20complex_dynamic_type3app17ha9f649f998a9e4a2E+0x86>
   250ea:	a813      	add	r0, sp, #76	@ 0x4c
   250ec:	7804      	ldrb	r4, [r0, #0]
   250ee:	2c02      	cmp	r4, #2
   250f0:	d001      	beq.n	250f6 <_ZN20complex_dynamic_type3app17ha9f649f998a9e4a2E+0xf6>
   250f2:	480e      	ldr	r0, [pc, #56]	@ (2512c <_ZN20complex_dynamic_type3app17ha9f649f998a9e4a2E+0x12c>)
   250f4:	9005      	str	r0, [sp, #20]
   250f6:	9d06      	ldr	r5, [sp, #24]
   250f8:	1c68      	adds	r0, r5, #1
   250fa:	225e      	movs	r2, #94	@ 0x5e
   250fc:	9905      	ldr	r1, [sp, #20]
   250fe:	f006 faa4 	bl	2b64a <__aeabi_memcpy>
   25102:	2000      	movs	r0, #0
   25104:	2c02      	cmp	r4, #2
   25106:	7028      	strb	r0, [r5, #0]
   25108:	d004      	beq.n	25114 <_ZN20complex_dynamic_type3app17ha9f649f998a9e4a2E+0x114>
   2510a:	2102      	movs	r1, #2
   2510c:	4630      	mov	r0, r6
   2510e:	4622      	mov	r2, r4
   25110:	f006 f8b6 	bl	2b280 <_ZN9allow_pin12dynamic_type7unshare17hefa7cd45f9379b26E>
   25114:	a807      	add	r0, sp, #28
   25116:	7802      	ldrb	r2, [r0, #0]
   25118:	2a02      	cmp	r2, #2
   2511a:	d003      	beq.n	25124 <_ZN20complex_dynamic_type3app17ha9f649f998a9e4a2E+0x124>
   2511c:	2105      	movs	r1, #5
   2511e:	4630      	mov	r0, r6
   25120:	f006 f8ae 	bl	2b280 <_ZN9allow_pin12dynamic_type7unshare17hefa7cd45f9379b26E>
   25124:	b02f      	add	sp, #188	@ 0xbc
   25126:	bdf0      	pop	{r4, r5, r6, r7, pc}
   25128:	0000022b 	.word	0x0000022b
   2512c:	00010a95 	.word	0x00010a95

00025130 <_ZN20complex_dynamic_type3app17hab178545bdfede9fE>:
   25130:	b5f0      	push	{r4, r5, r6, r7, lr}
   25132:	af03      	add	r7, sp, #12
   25134:	b0af      	sub	sp, #188	@ 0xbc
   25136:	9007      	str	r0, [sp, #28]
   25138:	a808      	add	r0, sp, #32
   2513a:	2502      	movs	r5, #2
   2513c:	7005      	strb	r5, [r0, #0]
   2513e:	1c40      	adds	r0, r0, #1
   25140:	9005      	str	r0, [sp, #20]
   25142:	2663      	movs	r6, #99	@ 0x63
   25144:	4632      	mov	r2, r6
   25146:	f006 fa80 	bl	2b64a <__aeabi_memcpy>
   2514a:	ac21      	add	r4, sp, #132	@ 0x84
   2514c:	1c60      	adds	r0, r4, #1
   2514e:	2127      	movs	r1, #39	@ 0x27
   25150:	9006      	str	r0, [sp, #24]
   25152:	9104      	str	r1, [sp, #16]
   25154:	f006 f8b9 	bl	2b2ca <__aeabi_memclr>
   25158:	9503      	str	r5, [sp, #12]
   2515a:	7025      	strb	r5, [r4, #0]
   2515c:	2404      	movs	r4, #4
   2515e:	9600      	str	r6, [sp, #0]
   25160:	9401      	str	r4, [sp, #4]
   25162:	a82b      	add	r0, sp, #172	@ 0xac
   25164:	4e3d      	ldr	r6, [pc, #244]	@ (2525c <_ZN20complex_dynamic_type3app17hab178545bdfede9fE+0x12c>)
   25166:	2207      	movs	r2, #7
   25168:	4631      	mov	r1, r6
   2516a:	9b05      	ldr	r3, [sp, #20]
   2516c:	f006 f895 	bl	2b29a <_ZN9allow_pin13dynamic_allow17h33d41317a2da4f1cE>
   25170:	982b      	ldr	r0, [sp, #172]	@ 0xac
   25172:	2802      	cmp	r0, #2
   25174:	d101      	bne.n	2517a <_ZN20complex_dynamic_type3app17hab178545bdfede9fE+0x4a>
   25176:	992c      	ldr	r1, [sp, #176]	@ 0xb0
   25178:	e001      	b.n	2517e <_ZN20complex_dynamic_type3app17hab178545bdfede9fE+0x4e>
   2517a:	a908      	add	r1, sp, #32
   2517c:	700c      	strb	r4, [r1, #0]
   2517e:	2501      	movs	r5, #1
   25180:	2802      	cmp	r0, #2
   25182:	d10d      	bne.n	251a0 <_ZN20complex_dynamic_type3app17hab178545bdfede9fE+0x70>
   25184:	462c      	mov	r4, r5
   25186:	2c00      	cmp	r4, #0
   25188:	d048      	beq.n	2521c <_ZN20complex_dynamic_type3app17hab178545bdfede9fE+0xec>
   2518a:	2001      	movs	r0, #1
   2518c:	9a07      	ldr	r2, [sp, #28]
   2518e:	7010      	strb	r0, [r2, #0]
   25190:	6051      	str	r1, [r2, #4]
   25192:	a821      	add	r0, sp, #132	@ 0x84
   25194:	7802      	ldrb	r2, [r0, #0]
   25196:	2a02      	cmp	r2, #2
   25198:	d055      	beq.n	25246 <_ZN20complex_dynamic_type3app17hab178545bdfede9fE+0x116>
   2519a:	2100      	movs	r1, #0
   2519c:	4630      	mov	r0, r6
   2519e:	e050      	b.n	25242 <_ZN20complex_dynamic_type3app17hab178545bdfede9fE+0x112>
   251a0:	a821      	add	r0, sp, #132	@ 0x84
   251a2:	7800      	ldrb	r0, [r0, #0]
   251a4:	2802      	cmp	r0, #2
   251a6:	d110      	bne.n	251ca <_ZN20complex_dynamic_type3app17hab178545bdfede9fE+0x9a>
   251a8:	4631      	mov	r1, r6
   251aa:	2603      	movs	r6, #3
   251ac:	9804      	ldr	r0, [sp, #16]
   251ae:	9000      	str	r0, [sp, #0]
   251b0:	9601      	str	r6, [sp, #4]
   251b2:	a82b      	add	r0, sp, #172	@ 0xac
   251b4:	2400      	movs	r4, #0
   251b6:	4622      	mov	r2, r4
   251b8:	9b06      	ldr	r3, [sp, #24]
   251ba:	f006 f86e 	bl	2b29a <_ZN9allow_pin13dynamic_allow17h33d41317a2da4f1cE>
   251be:	982b      	ldr	r0, [sp, #172]	@ 0xac
   251c0:	2802      	cmp	r0, #2
   251c2:	d107      	bne.n	251d4 <_ZN20complex_dynamic_type3app17hab178545bdfede9fE+0xa4>
   251c4:	992c      	ldr	r1, [sp, #176]	@ 0xb0
   251c6:	462c      	mov	r4, r5
   251c8:	e006      	b.n	251d8 <_ZN20complex_dynamic_type3app17hab178545bdfede9fE+0xa8>
   251ca:	2103      	movs	r1, #3
   251cc:	462c      	mov	r4, r5
   251ce:	2c00      	cmp	r4, #0
   251d0:	d1d8      	bne.n	25184 <_ZN20complex_dynamic_type3app17hab178545bdfede9fE+0x54>
   251d2:	e004      	b.n	251de <_ZN20complex_dynamic_type3app17hab178545bdfede9fE+0xae>
   251d4:	a821      	add	r0, sp, #132	@ 0x84
   251d6:	7006      	strb	r6, [r0, #0]
   251d8:	4e20      	ldr	r6, [pc, #128]	@ (2525c <_ZN20complex_dynamic_type3app17hab178545bdfede9fE+0x12c>)
   251da:	2c00      	cmp	r4, #0
   251dc:	d1d2      	bne.n	25184 <_ZN20complex_dynamic_type3app17hab178545bdfede9fE+0x54>
   251de:	481f      	ldr	r0, [pc, #124]	@ (2525c <_ZN20complex_dynamic_type3app17hab178545bdfede9fE+0x12c>)
   251e0:	2107      	movs	r1, #7
   251e2:	2400      	movs	r4, #0
   251e4:	4622      	mov	r2, r4
   251e6:	4623      	mov	r3, r4
   251e8:	df02      	svc	2
   251ea:	287f      	cmp	r0, #127	@ 0x7f
   251ec:	d9ca      	bls.n	25184 <_ZN20complex_dynamic_type3app17hab178545bdfede9fE+0x54>
   251ee:	a808      	add	r0, sp, #32
   251f0:	7802      	ldrb	r2, [r0, #0]
   251f2:	2a02      	cmp	r2, #2
   251f4:	d003      	beq.n	251fe <_ZN20complex_dynamic_type3app17hab178545bdfede9fE+0xce>
   251f6:	2107      	movs	r1, #7
   251f8:	4630      	mov	r0, r6
   251fa:	f006 f841 	bl	2b280 <_ZN9allow_pin12dynamic_type7unshare17hefa7cd45f9379b26E>
   251fe:	a808      	add	r0, sp, #32
   25200:	9d03      	ldr	r5, [sp, #12]
   25202:	7005      	strb	r5, [r0, #0]
   25204:	a821      	add	r0, sp, #132	@ 0x84
   25206:	7802      	ldrb	r2, [r0, #0]
   25208:	2a02      	cmp	r2, #2
   2520a:	d003      	beq.n	25214 <_ZN20complex_dynamic_type3app17hab178545bdfede9fE+0xe4>
   2520c:	2100      	movs	r1, #0
   2520e:	4630      	mov	r0, r6
   25210:	f006 f836 	bl	2b280 <_ZN9allow_pin12dynamic_type7unshare17hefa7cd45f9379b26E>
   25214:	a821      	add	r0, sp, #132	@ 0x84
   25216:	7005      	strb	r5, [r0, #0]
   25218:	2c00      	cmp	r4, #0
   2521a:	d1b6      	bne.n	2518a <_ZN20complex_dynamic_type3app17hab178545bdfede9fE+0x5a>
   2521c:	a821      	add	r0, sp, #132	@ 0x84
   2521e:	7804      	ldrb	r4, [r0, #0]
   25220:	2c02      	cmp	r4, #2
   25222:	d001      	beq.n	25228 <_ZN20complex_dynamic_type3app17hab178545bdfede9fE+0xf8>
   25224:	480e      	ldr	r0, [pc, #56]	@ (25260 <_ZN20complex_dynamic_type3app17hab178545bdfede9fE+0x130>)
   25226:	9006      	str	r0, [sp, #24]
   25228:	9d07      	ldr	r5, [sp, #28]
   2522a:	1c68      	adds	r0, r5, #1
   2522c:	2227      	movs	r2, #39	@ 0x27
   2522e:	9906      	ldr	r1, [sp, #24]
   25230:	f006 fa0b 	bl	2b64a <__aeabi_memcpy>
   25234:	2000      	movs	r0, #0
   25236:	2c02      	cmp	r4, #2
   25238:	7028      	strb	r0, [r5, #0]
   2523a:	d004      	beq.n	25246 <_ZN20complex_dynamic_type3app17hab178545bdfede9fE+0x116>
   2523c:	2100      	movs	r1, #0
   2523e:	4630      	mov	r0, r6
   25240:	4622      	mov	r2, r4
   25242:	f006 f81d 	bl	2b280 <_ZN9allow_pin12dynamic_type7unshare17hefa7cd45f9379b26E>
   25246:	a808      	add	r0, sp, #32
   25248:	7802      	ldrb	r2, [r0, #0]
   2524a:	2a02      	cmp	r2, #2
   2524c:	d003      	beq.n	25256 <_ZN20complex_dynamic_type3app17hab178545bdfede9fE+0x126>
   2524e:	2107      	movs	r1, #7
   25250:	4630      	mov	r0, r6
   25252:	f006 f815 	bl	2b280 <_ZN9allow_pin12dynamic_type7unshare17hefa7cd45f9379b26E>
   25256:	b02f      	add	sp, #188	@ 0xbc
   25258:	bdf0      	pop	{r4, r5, r6, r7, pc}
   2525a:	46c0      	nop			@ (mov r8, r8)
   2525c:	00001e54 	.word	0x00001e54
   25260:	00010339 	.word	0x00010339

00025264 <_ZN20complex_dynamic_type3app17hace1fba4b6d4591bE>:
   25264:	b5f0      	push	{r4, r5, r6, r7, lr}
   25266:	af03      	add	r7, sp, #12
   25268:	b09f      	sub	sp, #124	@ 0x7c
   2526a:	9007      	str	r0, [sp, #28]
   2526c:	a808      	add	r0, sp, #32
   2526e:	2502      	movs	r5, #2
   25270:	7005      	strb	r5, [r0, #0]
   25272:	1c40      	adds	r0, r0, #1
   25274:	9005      	str	r0, [sp, #20]
   25276:	2623      	movs	r6, #35	@ 0x23
   25278:	4632      	mov	r2, r6
   2527a:	f006 f9e6 	bl	2b64a <__aeabi_memcpy>
   2527e:	ac11      	add	r4, sp, #68	@ 0x44
   25280:	1c60      	adds	r0, r4, #1
   25282:	2124      	movs	r1, #36	@ 0x24
   25284:	9006      	str	r0, [sp, #24]
   25286:	9104      	str	r1, [sp, #16]
   25288:	f006 f81f 	bl	2b2ca <__aeabi_memclr>
   2528c:	9503      	str	r5, [sp, #12]
   2528e:	7025      	strb	r5, [r4, #0]
   25290:	2404      	movs	r4, #4
   25292:	9600      	str	r6, [sp, #0]
   25294:	9401      	str	r4, [sp, #4]
   25296:	a81b      	add	r0, sp, #108	@ 0x6c
   25298:	4e3c      	ldr	r6, [pc, #240]	@ (2538c <_ZN20complex_dynamic_type3app17hace1fba4b6d4591bE+0x128>)
   2529a:	4631      	mov	r1, r6
   2529c:	4622      	mov	r2, r4
   2529e:	9b05      	ldr	r3, [sp, #20]
   252a0:	f005 fffb 	bl	2b29a <_ZN9allow_pin13dynamic_allow17h33d41317a2da4f1cE>
   252a4:	981b      	ldr	r0, [sp, #108]	@ 0x6c
   252a6:	2802      	cmp	r0, #2
   252a8:	d101      	bne.n	252ae <_ZN20complex_dynamic_type3app17hace1fba4b6d4591bE+0x4a>
   252aa:	991c      	ldr	r1, [sp, #112]	@ 0x70
   252ac:	e001      	b.n	252b2 <_ZN20complex_dynamic_type3app17hace1fba4b6d4591bE+0x4e>
   252ae:	a908      	add	r1, sp, #32
   252b0:	700c      	strb	r4, [r1, #0]
   252b2:	2501      	movs	r5, #1
   252b4:	2802      	cmp	r0, #2
   252b6:	d024      	beq.n	25302 <_ZN20complex_dynamic_type3app17hace1fba4b6d4591bE+0x9e>
   252b8:	a811      	add	r0, sp, #68	@ 0x44
   252ba:	7800      	ldrb	r0, [r0, #0]
   252bc:	2802      	cmp	r0, #2
   252be:	d10e      	bne.n	252de <_ZN20complex_dynamic_type3app17hace1fba4b6d4591bE+0x7a>
   252c0:	2403      	movs	r4, #3
   252c2:	9804      	ldr	r0, [sp, #16]
   252c4:	9000      	str	r0, [sp, #0]
   252c6:	9401      	str	r4, [sp, #4]
   252c8:	a81b      	add	r0, sp, #108	@ 0x6c
   252ca:	2208      	movs	r2, #8
   252cc:	4631      	mov	r1, r6
   252ce:	9b06      	ldr	r3, [sp, #24]
   252d0:	f005 ffe3 	bl	2b29a <_ZN9allow_pin13dynamic_allow17h33d41317a2da4f1cE>
   252d4:	981b      	ldr	r0, [sp, #108]	@ 0x6c
   252d6:	2802      	cmp	r0, #2
   252d8:	d106      	bne.n	252e8 <_ZN20complex_dynamic_type3app17hace1fba4b6d4591bE+0x84>
   252da:	991c      	ldr	r1, [sp, #112]	@ 0x70
   252dc:	e000      	b.n	252e0 <_ZN20complex_dynamic_type3app17hace1fba4b6d4591bE+0x7c>
   252de:	2103      	movs	r1, #3
   252e0:	4628      	mov	r0, r5
   252e2:	2800      	cmp	r0, #0
   252e4:	d005      	beq.n	252f2 <_ZN20complex_dynamic_type3app17hace1fba4b6d4591bE+0x8e>
   252e6:	e00c      	b.n	25302 <_ZN20complex_dynamic_type3app17hace1fba4b6d4591bE+0x9e>
   252e8:	a811      	add	r0, sp, #68	@ 0x44
   252ea:	7004      	strb	r4, [r0, #0]
   252ec:	2000      	movs	r0, #0
   252ee:	2800      	cmp	r0, #0
   252f0:	d107      	bne.n	25302 <_ZN20complex_dynamic_type3app17hace1fba4b6d4591bE+0x9e>
   252f2:	4826      	ldr	r0, [pc, #152]	@ (2538c <_ZN20complex_dynamic_type3app17hace1fba4b6d4591bE+0x128>)
   252f4:	2104      	movs	r1, #4
   252f6:	2208      	movs	r2, #8
   252f8:	2400      	movs	r4, #0
   252fa:	4623      	mov	r3, r4
   252fc:	df02      	svc	2
   252fe:	287f      	cmp	r0, #127	@ 0x7f
   25300:	d80d      	bhi.n	2531e <_ZN20complex_dynamic_type3app17hace1fba4b6d4591bE+0xba>
   25302:	462c      	mov	r4, r5
   25304:	2c00      	cmp	r4, #0
   25306:	d021      	beq.n	2534c <_ZN20complex_dynamic_type3app17hace1fba4b6d4591bE+0xe8>
   25308:	2001      	movs	r0, #1
   2530a:	9a07      	ldr	r2, [sp, #28]
   2530c:	7010      	strb	r0, [r2, #0]
   2530e:	6051      	str	r1, [r2, #4]
   25310:	a811      	add	r0, sp, #68	@ 0x44
   25312:	7802      	ldrb	r2, [r0, #0]
   25314:	2a02      	cmp	r2, #2
   25316:	d02e      	beq.n	25376 <_ZN20complex_dynamic_type3app17hace1fba4b6d4591bE+0x112>
   25318:	2108      	movs	r1, #8
   2531a:	4630      	mov	r0, r6
   2531c:	e029      	b.n	25372 <_ZN20complex_dynamic_type3app17hace1fba4b6d4591bE+0x10e>
   2531e:	a808      	add	r0, sp, #32
   25320:	7802      	ldrb	r2, [r0, #0]
   25322:	2a02      	cmp	r2, #2
   25324:	d003      	beq.n	2532e <_ZN20complex_dynamic_type3app17hace1fba4b6d4591bE+0xca>
   25326:	2104      	movs	r1, #4
   25328:	4630      	mov	r0, r6
   2532a:	f005 ffa9 	bl	2b280 <_ZN9allow_pin12dynamic_type7unshare17hefa7cd45f9379b26E>
   2532e:	a808      	add	r0, sp, #32
   25330:	9d03      	ldr	r5, [sp, #12]
   25332:	7005      	strb	r5, [r0, #0]
   25334:	a811      	add	r0, sp, #68	@ 0x44
   25336:	7802      	ldrb	r2, [r0, #0]
   25338:	2a02      	cmp	r2, #2
   2533a:	d003      	beq.n	25344 <_ZN20complex_dynamic_type3app17hace1fba4b6d4591bE+0xe0>
   2533c:	2108      	movs	r1, #8
   2533e:	4630      	mov	r0, r6
   25340:	f005 ff9e 	bl	2b280 <_ZN9allow_pin12dynamic_type7unshare17hefa7cd45f9379b26E>
   25344:	a811      	add	r0, sp, #68	@ 0x44
   25346:	7005      	strb	r5, [r0, #0]
   25348:	2c00      	cmp	r4, #0
   2534a:	d1dd      	bne.n	25308 <_ZN20complex_dynamic_type3app17hace1fba4b6d4591bE+0xa4>
   2534c:	a811      	add	r0, sp, #68	@ 0x44
   2534e:	7804      	ldrb	r4, [r0, #0]
   25350:	2c02      	cmp	r4, #2
   25352:	d001      	beq.n	25358 <_ZN20complex_dynamic_type3app17hace1fba4b6d4591bE+0xf4>
   25354:	480e      	ldr	r0, [pc, #56]	@ (25390 <_ZN20complex_dynamic_type3app17hace1fba4b6d4591bE+0x12c>)
   25356:	9006      	str	r0, [sp, #24]
   25358:	9d07      	ldr	r5, [sp, #28]
   2535a:	1c68      	adds	r0, r5, #1
   2535c:	2224      	movs	r2, #36	@ 0x24
   2535e:	9906      	ldr	r1, [sp, #24]
   25360:	f006 f973 	bl	2b64a <__aeabi_memcpy>
   25364:	2000      	movs	r0, #0
   25366:	2c02      	cmp	r4, #2
   25368:	7028      	strb	r0, [r5, #0]
   2536a:	d004      	beq.n	25376 <_ZN20complex_dynamic_type3app17hace1fba4b6d4591bE+0x112>
   2536c:	2108      	movs	r1, #8
   2536e:	4630      	mov	r0, r6
   25370:	4622      	mov	r2, r4
   25372:	f005 ff85 	bl	2b280 <_ZN9allow_pin12dynamic_type7unshare17hefa7cd45f9379b26E>
   25376:	a808      	add	r0, sp, #32
   25378:	7802      	ldrb	r2, [r0, #0]
   2537a:	2a02      	cmp	r2, #2
   2537c:	d003      	beq.n	25386 <_ZN20complex_dynamic_type3app17hace1fba4b6d4591bE+0x122>
   2537e:	2104      	movs	r1, #4
   25380:	4630      	mov	r0, r6
   25382:	f005 ff7d 	bl	2b280 <_ZN9allow_pin12dynamic_type7unshare17hefa7cd45f9379b26E>
   25386:	b01f      	add	sp, #124	@ 0x7c
   25388:	bdf0      	pop	{r4, r5, r6, r7, pc}
   2538a:	46c0      	nop			@ (mov r8, r8)
   2538c:	00001bd6 	.word	0x00001bd6
   25390:	000104f2 	.word	0x000104f2

00025394 <_ZN20complex_dynamic_type3app17hb104bd97adf4e5faE>:
   25394:	b5f0      	push	{r4, r5, r6, r7, lr}
   25396:	af03      	add	r7, sp, #12
   25398:	b0a7      	sub	sp, #156	@ 0x9c
   2539a:	9007      	str	r0, [sp, #28]
   2539c:	a808      	add	r0, sp, #32
   2539e:	2502      	movs	r5, #2
   253a0:	7005      	strb	r5, [r0, #0]
   253a2:	1c40      	adds	r0, r0, #1
   253a4:	9005      	str	r0, [sp, #20]
   253a6:	2613      	movs	r6, #19
   253a8:	4632      	mov	r2, r6
   253aa:	f006 f94e 	bl	2b64a <__aeabi_memcpy>
   253ae:	ac0d      	add	r4, sp, #52	@ 0x34
   253b0:	1c60      	adds	r0, r4, #1
   253b2:	2155      	movs	r1, #85	@ 0x55
   253b4:	9006      	str	r0, [sp, #24]
   253b6:	9104      	str	r1, [sp, #16]
   253b8:	f005 ff87 	bl	2b2ca <__aeabi_memclr>
   253bc:	9503      	str	r5, [sp, #12]
   253be:	7025      	strb	r5, [r4, #0]
   253c0:	2404      	movs	r4, #4
   253c2:	9600      	str	r6, [sp, #0]
   253c4:	9401      	str	r4, [sp, #4]
   253c6:	a823      	add	r0, sp, #140	@ 0x8c
   253c8:	4e3c      	ldr	r6, [pc, #240]	@ (254bc <_ZN20complex_dynamic_type3app17hb104bd97adf4e5faE+0x128>)
   253ca:	2209      	movs	r2, #9
   253cc:	4631      	mov	r1, r6
   253ce:	9b05      	ldr	r3, [sp, #20]
   253d0:	f005 ff63 	bl	2b29a <_ZN9allow_pin13dynamic_allow17h33d41317a2da4f1cE>
   253d4:	9823      	ldr	r0, [sp, #140]	@ 0x8c
   253d6:	2802      	cmp	r0, #2
   253d8:	d101      	bne.n	253de <_ZN20complex_dynamic_type3app17hb104bd97adf4e5faE+0x4a>
   253da:	9924      	ldr	r1, [sp, #144]	@ 0x90
   253dc:	e001      	b.n	253e2 <_ZN20complex_dynamic_type3app17hb104bd97adf4e5faE+0x4e>
   253de:	a908      	add	r1, sp, #32
   253e0:	700c      	strb	r4, [r1, #0]
   253e2:	2501      	movs	r5, #1
   253e4:	2802      	cmp	r0, #2
   253e6:	d024      	beq.n	25432 <_ZN20complex_dynamic_type3app17hb104bd97adf4e5faE+0x9e>
   253e8:	a80d      	add	r0, sp, #52	@ 0x34
   253ea:	7800      	ldrb	r0, [r0, #0]
   253ec:	2802      	cmp	r0, #2
   253ee:	d10e      	bne.n	2540e <_ZN20complex_dynamic_type3app17hb104bd97adf4e5faE+0x7a>
   253f0:	2403      	movs	r4, #3
   253f2:	9804      	ldr	r0, [sp, #16]
   253f4:	9000      	str	r0, [sp, #0]
   253f6:	9401      	str	r4, [sp, #4]
   253f8:	a823      	add	r0, sp, #140	@ 0x8c
   253fa:	2207      	movs	r2, #7
   253fc:	4631      	mov	r1, r6
   253fe:	9b06      	ldr	r3, [sp, #24]
   25400:	f005 ff4b 	bl	2b29a <_ZN9allow_pin13dynamic_allow17h33d41317a2da4f1cE>
   25404:	9823      	ldr	r0, [sp, #140]	@ 0x8c
   25406:	2802      	cmp	r0, #2
   25408:	d106      	bne.n	25418 <_ZN20complex_dynamic_type3app17hb104bd97adf4e5faE+0x84>
   2540a:	9924      	ldr	r1, [sp, #144]	@ 0x90
   2540c:	e000      	b.n	25410 <_ZN20complex_dynamic_type3app17hb104bd97adf4e5faE+0x7c>
   2540e:	2103      	movs	r1, #3
   25410:	4628      	mov	r0, r5
   25412:	2800      	cmp	r0, #0
   25414:	d005      	beq.n	25422 <_ZN20complex_dynamic_type3app17hb104bd97adf4e5faE+0x8e>
   25416:	e00c      	b.n	25432 <_ZN20complex_dynamic_type3app17hb104bd97adf4e5faE+0x9e>
   25418:	a80d      	add	r0, sp, #52	@ 0x34
   2541a:	7004      	strb	r4, [r0, #0]
   2541c:	2000      	movs	r0, #0
   2541e:	2800      	cmp	r0, #0
   25420:	d107      	bne.n	25432 <_ZN20complex_dynamic_type3app17hb104bd97adf4e5faE+0x9e>
   25422:	4826      	ldr	r0, [pc, #152]	@ (254bc <_ZN20complex_dynamic_type3app17hb104bd97adf4e5faE+0x128>)
   25424:	2109      	movs	r1, #9
   25426:	2207      	movs	r2, #7
   25428:	2400      	movs	r4, #0
   2542a:	4623      	mov	r3, r4
   2542c:	df02      	svc	2
   2542e:	287f      	cmp	r0, #127	@ 0x7f
   25430:	d80d      	bhi.n	2544e <_ZN20complex_dynamic_type3app17hb104bd97adf4e5faE+0xba>
   25432:	462c      	mov	r4, r5
   25434:	2c00      	cmp	r4, #0
   25436:	d021      	beq.n	2547c <_ZN20complex_dynamic_type3app17hb104bd97adf4e5faE+0xe8>
   25438:	2001      	movs	r0, #1
   2543a:	9a07      	ldr	r2, [sp, #28]
   2543c:	7010      	strb	r0, [r2, #0]
   2543e:	6051      	str	r1, [r2, #4]
   25440:	a80d      	add	r0, sp, #52	@ 0x34
   25442:	7802      	ldrb	r2, [r0, #0]
   25444:	2a02      	cmp	r2, #2
   25446:	d02e      	beq.n	254a6 <_ZN20complex_dynamic_type3app17hb104bd97adf4e5faE+0x112>
   25448:	2107      	movs	r1, #7
   2544a:	4630      	mov	r0, r6
   2544c:	e029      	b.n	254a2 <_ZN20complex_dynamic_type3app17hb104bd97adf4e5faE+0x10e>
   2544e:	a808      	add	r0, sp, #32
   25450:	7802      	ldrb	r2, [r0, #0]
   25452:	2a02      	cmp	r2, #2
   25454:	d003      	beq.n	2545e <_ZN20complex_dynamic_type3app17hb104bd97adf4e5faE+0xca>
   25456:	2109      	movs	r1, #9
   25458:	4630      	mov	r0, r6
   2545a:	f005 ff11 	bl	2b280 <_ZN9allow_pin12dynamic_type7unshare17hefa7cd45f9379b26E>
   2545e:	a808      	add	r0, sp, #32
   25460:	9d03      	ldr	r5, [sp, #12]
   25462:	7005      	strb	r5, [r0, #0]
   25464:	a80d      	add	r0, sp, #52	@ 0x34
   25466:	7802      	ldrb	r2, [r0, #0]
   25468:	2a02      	cmp	r2, #2
   2546a:	d003      	beq.n	25474 <_ZN20complex_dynamic_type3app17hb104bd97adf4e5faE+0xe0>
   2546c:	2107      	movs	r1, #7
   2546e:	4630      	mov	r0, r6
   25470:	f005 ff06 	bl	2b280 <_ZN9allow_pin12dynamic_type7unshare17hefa7cd45f9379b26E>
   25474:	a80d      	add	r0, sp, #52	@ 0x34
   25476:	7005      	strb	r5, [r0, #0]
   25478:	2c00      	cmp	r4, #0
   2547a:	d1dd      	bne.n	25438 <_ZN20complex_dynamic_type3app17hb104bd97adf4e5faE+0xa4>
   2547c:	a80d      	add	r0, sp, #52	@ 0x34
   2547e:	7804      	ldrb	r4, [r0, #0]
   25480:	2c02      	cmp	r4, #2
   25482:	d001      	beq.n	25488 <_ZN20complex_dynamic_type3app17hb104bd97adf4e5faE+0xf4>
   25484:	480e      	ldr	r0, [pc, #56]	@ (254c0 <_ZN20complex_dynamic_type3app17hb104bd97adf4e5faE+0x12c>)
   25486:	9006      	str	r0, [sp, #24]
   25488:	9d07      	ldr	r5, [sp, #28]
   2548a:	1c68      	adds	r0, r5, #1
   2548c:	2255      	movs	r2, #85	@ 0x55
   2548e:	9906      	ldr	r1, [sp, #24]
   25490:	f006 f8db 	bl	2b64a <__aeabi_memcpy>
   25494:	2000      	movs	r0, #0
   25496:	2c02      	cmp	r4, #2
   25498:	7028      	strb	r0, [r5, #0]
   2549a:	d004      	beq.n	254a6 <_ZN20complex_dynamic_type3app17hb104bd97adf4e5faE+0x112>
   2549c:	2107      	movs	r1, #7
   2549e:	4630      	mov	r0, r6
   254a0:	4622      	mov	r2, r4
   254a2:	f005 feed 	bl	2b280 <_ZN9allow_pin12dynamic_type7unshare17hefa7cd45f9379b26E>
   254a6:	a808      	add	r0, sp, #32
   254a8:	7802      	ldrb	r2, [r0, #0]
   254aa:	2a02      	cmp	r2, #2
   254ac:	d003      	beq.n	254b6 <_ZN20complex_dynamic_type3app17hb104bd97adf4e5faE+0x122>
   254ae:	2109      	movs	r1, #9
   254b0:	4630      	mov	r0, r6
   254b2:	f005 fee5 	bl	2b280 <_ZN9allow_pin12dynamic_type7unshare17hefa7cd45f9379b26E>
   254b6:	b027      	add	sp, #156	@ 0x9c
   254b8:	bdf0      	pop	{r4, r5, r6, r7, pc}
   254ba:	46c0      	nop			@ (mov r8, r8)
   254bc:	0000032e 	.word	0x0000032e
   254c0:	000105c0 	.word	0x000105c0

000254c4 <_ZN20complex_dynamic_type3app17hb1412cdab2d899fdE>:
   254c4:	b5f0      	push	{r4, r5, r6, r7, lr}
   254c6:	af03      	add	r7, sp, #12
   254c8:	b0b7      	sub	sp, #220	@ 0xdc
   254ca:	9005      	str	r0, [sp, #20]
   254cc:	a806      	add	r0, sp, #24
   254ce:	2402      	movs	r4, #2
   254d0:	7004      	strb	r4, [r0, #0]
   254d2:	1c40      	adds	r0, r0, #1
   254d4:	9003      	str	r0, [sp, #12]
   254d6:	254f      	movs	r5, #79	@ 0x4f
   254d8:	462a      	mov	r2, r5
   254da:	f006 f8b6 	bl	2b64a <__aeabi_memcpy>
   254de:	ae1a      	add	r6, sp, #104	@ 0x68
   254e0:	1c70      	adds	r0, r6, #1
   254e2:	2161      	movs	r1, #97	@ 0x61
   254e4:	9004      	str	r0, [sp, #16]
   254e6:	9102      	str	r1, [sp, #8]
   254e8:	f005 feef 	bl	2b2ca <__aeabi_memclr>
   254ec:	7034      	strb	r4, [r6, #0]
   254ee:	2004      	movs	r0, #4
   254f0:	9500      	str	r5, [sp, #0]
   254f2:	4605      	mov	r5, r0
   254f4:	9001      	str	r0, [sp, #4]
   254f6:	20db      	movs	r0, #219	@ 0xdb
   254f8:	0046      	lsls	r6, r0, #1
   254fa:	a833      	add	r0, sp, #204	@ 0xcc
   254fc:	4631      	mov	r1, r6
   254fe:	4622      	mov	r2, r4
   25500:	9b03      	ldr	r3, [sp, #12]
   25502:	f005 feca 	bl	2b29a <_ZN9allow_pin13dynamic_allow17h33d41317a2da4f1cE>
   25506:	9833      	ldr	r0, [sp, #204]	@ 0xcc
   25508:	2802      	cmp	r0, #2
   2550a:	d101      	bne.n	25510 <_ZN20complex_dynamic_type3app17hb1412cdab2d899fdE+0x4c>
   2550c:	9934      	ldr	r1, [sp, #208]	@ 0xd0
   2550e:	e001      	b.n	25514 <_ZN20complex_dynamic_type3app17hb1412cdab2d899fdE+0x50>
   25510:	a906      	add	r1, sp, #24
   25512:	700d      	strb	r5, [r1, #0]
   25514:	2401      	movs	r4, #1
   25516:	2802      	cmp	r0, #2
   25518:	d025      	beq.n	25566 <_ZN20complex_dynamic_type3app17hb1412cdab2d899fdE+0xa2>
   2551a:	a81a      	add	r0, sp, #104	@ 0x68
   2551c:	7800      	ldrb	r0, [r0, #0]
   2551e:	2802      	cmp	r0, #2
   25520:	d10e      	bne.n	25540 <_ZN20complex_dynamic_type3app17hb1412cdab2d899fdE+0x7c>
   25522:	2503      	movs	r5, #3
   25524:	9802      	ldr	r0, [sp, #8]
   25526:	9000      	str	r0, [sp, #0]
   25528:	9501      	str	r5, [sp, #4]
   2552a:	a833      	add	r0, sp, #204	@ 0xcc
   2552c:	2208      	movs	r2, #8
   2552e:	4631      	mov	r1, r6
   25530:	9b04      	ldr	r3, [sp, #16]
   25532:	f005 feb2 	bl	2b29a <_ZN9allow_pin13dynamic_allow17h33d41317a2da4f1cE>
   25536:	9833      	ldr	r0, [sp, #204]	@ 0xcc
   25538:	2802      	cmp	r0, #2
   2553a:	d106      	bne.n	2554a <_ZN20complex_dynamic_type3app17hb1412cdab2d899fdE+0x86>
   2553c:	9934      	ldr	r1, [sp, #208]	@ 0xd0
   2553e:	e000      	b.n	25542 <_ZN20complex_dynamic_type3app17hb1412cdab2d899fdE+0x7e>
   25540:	2103      	movs	r1, #3
   25542:	4620      	mov	r0, r4
   25544:	2800      	cmp	r0, #0
   25546:	d005      	beq.n	25554 <_ZN20complex_dynamic_type3app17hb1412cdab2d899fdE+0x90>
   25548:	e00d      	b.n	25566 <_ZN20complex_dynamic_type3app17hb1412cdab2d899fdE+0xa2>
   2554a:	a81a      	add	r0, sp, #104	@ 0x68
   2554c:	7005      	strb	r5, [r0, #0]
   2554e:	2000      	movs	r0, #0
   25550:	2800      	cmp	r0, #0
   25552:	d108      	bne.n	25566 <_ZN20complex_dynamic_type3app17hb1412cdab2d899fdE+0xa2>
   25554:	2102      	movs	r1, #2
   25556:	2208      	movs	r2, #8
   25558:	2500      	movs	r5, #0
   2555a:	4630      	mov	r0, r6
   2555c:	9103      	str	r1, [sp, #12]
   2555e:	462b      	mov	r3, r5
   25560:	df02      	svc	2
   25562:	287f      	cmp	r0, #127	@ 0x7f
   25564:	d80d      	bhi.n	25582 <_ZN20complex_dynamic_type3app17hb1412cdab2d899fdE+0xbe>
   25566:	4625      	mov	r5, r4
   25568:	2d00      	cmp	r5, #0
   2556a:	d021      	beq.n	255b0 <_ZN20complex_dynamic_type3app17hb1412cdab2d899fdE+0xec>
   2556c:	2001      	movs	r0, #1
   2556e:	9a05      	ldr	r2, [sp, #20]
   25570:	7010      	strb	r0, [r2, #0]
   25572:	6051      	str	r1, [r2, #4]
   25574:	a81a      	add	r0, sp, #104	@ 0x68
   25576:	7802      	ldrb	r2, [r0, #0]
   25578:	2a02      	cmp	r2, #2
   2557a:	d02e      	beq.n	255da <_ZN20complex_dynamic_type3app17hb1412cdab2d899fdE+0x116>
   2557c:	2108      	movs	r1, #8
   2557e:	4630      	mov	r0, r6
   25580:	e029      	b.n	255d6 <_ZN20complex_dynamic_type3app17hb1412cdab2d899fdE+0x112>
   25582:	a806      	add	r0, sp, #24
   25584:	7802      	ldrb	r2, [r0, #0]
   25586:	2a02      	cmp	r2, #2
   25588:	d003      	beq.n	25592 <_ZN20complex_dynamic_type3app17hb1412cdab2d899fdE+0xce>
   2558a:	2102      	movs	r1, #2
   2558c:	4630      	mov	r0, r6
   2558e:	f005 fe77 	bl	2b280 <_ZN9allow_pin12dynamic_type7unshare17hefa7cd45f9379b26E>
   25592:	a806      	add	r0, sp, #24
   25594:	9c03      	ldr	r4, [sp, #12]
   25596:	7004      	strb	r4, [r0, #0]
   25598:	a81a      	add	r0, sp, #104	@ 0x68
   2559a:	7802      	ldrb	r2, [r0, #0]
   2559c:	2a02      	cmp	r2, #2
   2559e:	d003      	beq.n	255a8 <_ZN20complex_dynamic_type3app17hb1412cdab2d899fdE+0xe4>
   255a0:	2108      	movs	r1, #8
   255a2:	4630      	mov	r0, r6
   255a4:	f005 fe6c 	bl	2b280 <_ZN9allow_pin12dynamic_type7unshare17hefa7cd45f9379b26E>
   255a8:	a81a      	add	r0, sp, #104	@ 0x68
   255aa:	7004      	strb	r4, [r0, #0]
   255ac:	2d00      	cmp	r5, #0
   255ae:	d1dd      	bne.n	2556c <_ZN20complex_dynamic_type3app17hb1412cdab2d899fdE+0xa8>
   255b0:	a81a      	add	r0, sp, #104	@ 0x68
   255b2:	7804      	ldrb	r4, [r0, #0]
   255b4:	2c02      	cmp	r4, #2
   255b6:	d001      	beq.n	255bc <_ZN20complex_dynamic_type3app17hb1412cdab2d899fdE+0xf8>
   255b8:	480d      	ldr	r0, [pc, #52]	@ (255f0 <_ZN20complex_dynamic_type3app17hb1412cdab2d899fdE+0x12c>)
   255ba:	9004      	str	r0, [sp, #16]
   255bc:	9d05      	ldr	r5, [sp, #20]
   255be:	1c68      	adds	r0, r5, #1
   255c0:	2261      	movs	r2, #97	@ 0x61
   255c2:	9904      	ldr	r1, [sp, #16]
   255c4:	f006 f841 	bl	2b64a <__aeabi_memcpy>
   255c8:	2000      	movs	r0, #0
   255ca:	2c02      	cmp	r4, #2
   255cc:	7028      	strb	r0, [r5, #0]
   255ce:	d004      	beq.n	255da <_ZN20complex_dynamic_type3app17hb1412cdab2d899fdE+0x116>
   255d0:	2108      	movs	r1, #8
   255d2:	4630      	mov	r0, r6
   255d4:	4622      	mov	r2, r4
   255d6:	f005 fe53 	bl	2b280 <_ZN9allow_pin12dynamic_type7unshare17hefa7cd45f9379b26E>
   255da:	a806      	add	r0, sp, #24
   255dc:	7802      	ldrb	r2, [r0, #0]
   255de:	2a02      	cmp	r2, #2
   255e0:	d003      	beq.n	255ea <_ZN20complex_dynamic_type3app17hb1412cdab2d899fdE+0x126>
   255e2:	2102      	movs	r1, #2
   255e4:	4630      	mov	r0, r6
   255e6:	f005 fe4b 	bl	2b280 <_ZN9allow_pin12dynamic_type7unshare17hefa7cd45f9379b26E>
   255ea:	b037      	add	sp, #220	@ 0xdc
   255ec:	bdf0      	pop	{r4, r5, r6, r7, pc}
   255ee:	46c0      	nop			@ (mov r8, r8)
   255f0:	00010697 	.word	0x00010697

000255f4 <_ZN20complex_dynamic_type3app17hb15dc0263bf40423E>:
   255f4:	b5f0      	push	{r4, r5, r6, r7, lr}
   255f6:	af03      	add	r7, sp, #12
   255f8:	b0a5      	sub	sp, #148	@ 0x94
   255fa:	9006      	str	r0, [sp, #24]
   255fc:	a807      	add	r0, sp, #28
   255fe:	2502      	movs	r5, #2
   25600:	7005      	strb	r5, [r0, #0]
   25602:	1c40      	adds	r0, r0, #1
   25604:	9004      	str	r0, [sp, #16]
   25606:	2611      	movs	r6, #17
   25608:	4632      	mov	r2, r6
   2560a:	f006 f81e 	bl	2b64a <__aeabi_memcpy>
   2560e:	ac0c      	add	r4, sp, #48	@ 0x30
   25610:	1c60      	adds	r0, r4, #1
   25612:	2150      	movs	r1, #80	@ 0x50
   25614:	9005      	str	r0, [sp, #20]
   25616:	9103      	str	r1, [sp, #12]
   25618:	f005 fe57 	bl	2b2ca <__aeabi_memclr>
   2561c:	9502      	str	r5, [sp, #8]
   2561e:	7025      	strb	r5, [r4, #0]
   25620:	2404      	movs	r4, #4
   25622:	9600      	str	r6, [sp, #0]
   25624:	9401      	str	r4, [sp, #4]
   25626:	a821      	add	r0, sp, #132	@ 0x84
   25628:	4e3c      	ldr	r6, [pc, #240]	@ (2571c <_ZN20complex_dynamic_type3app17hb15dc0263bf40423E+0x128>)
   2562a:	2206      	movs	r2, #6
   2562c:	4631      	mov	r1, r6
   2562e:	9b04      	ldr	r3, [sp, #16]
   25630:	f005 fe33 	bl	2b29a <_ZN9allow_pin13dynamic_allow17h33d41317a2da4f1cE>
   25634:	9821      	ldr	r0, [sp, #132]	@ 0x84
   25636:	2802      	cmp	r0, #2
   25638:	d101      	bne.n	2563e <_ZN20complex_dynamic_type3app17hb15dc0263bf40423E+0x4a>
   2563a:	9922      	ldr	r1, [sp, #136]	@ 0x88
   2563c:	e001      	b.n	25642 <_ZN20complex_dynamic_type3app17hb15dc0263bf40423E+0x4e>
   2563e:	a907      	add	r1, sp, #28
   25640:	700c      	strb	r4, [r1, #0]
   25642:	2501      	movs	r5, #1
   25644:	2802      	cmp	r0, #2
   25646:	d024      	beq.n	25692 <_ZN20complex_dynamic_type3app17hb15dc0263bf40423E+0x9e>
   25648:	a80c      	add	r0, sp, #48	@ 0x30
   2564a:	7800      	ldrb	r0, [r0, #0]
   2564c:	2802      	cmp	r0, #2
   2564e:	d10e      	bne.n	2566e <_ZN20complex_dynamic_type3app17hb15dc0263bf40423E+0x7a>
   25650:	2403      	movs	r4, #3
   25652:	9803      	ldr	r0, [sp, #12]
   25654:	9000      	str	r0, [sp, #0]
   25656:	9401      	str	r4, [sp, #4]
   25658:	a821      	add	r0, sp, #132	@ 0x84
   2565a:	2205      	movs	r2, #5
   2565c:	4631      	mov	r1, r6
   2565e:	9b05      	ldr	r3, [sp, #20]
   25660:	f005 fe1b 	bl	2b29a <_ZN9allow_pin13dynamic_allow17h33d41317a2da4f1cE>
   25664:	9821      	ldr	r0, [sp, #132]	@ 0x84
   25666:	2802      	cmp	r0, #2
   25668:	d106      	bne.n	25678 <_ZN20complex_dynamic_type3app17hb15dc0263bf40423E+0x84>
   2566a:	9922      	ldr	r1, [sp, #136]	@ 0x88
   2566c:	e000      	b.n	25670 <_ZN20complex_dynamic_type3app17hb15dc0263bf40423E+0x7c>
   2566e:	2103      	movs	r1, #3
   25670:	4628      	mov	r0, r5
   25672:	2800      	cmp	r0, #0
   25674:	d005      	beq.n	25682 <_ZN20complex_dynamic_type3app17hb15dc0263bf40423E+0x8e>
   25676:	e00c      	b.n	25692 <_ZN20complex_dynamic_type3app17hb15dc0263bf40423E+0x9e>
   25678:	a80c      	add	r0, sp, #48	@ 0x30
   2567a:	7004      	strb	r4, [r0, #0]
   2567c:	2000      	movs	r0, #0
   2567e:	2800      	cmp	r0, #0
   25680:	d107      	bne.n	25692 <_ZN20complex_dynamic_type3app17hb15dc0263bf40423E+0x9e>
   25682:	4826      	ldr	r0, [pc, #152]	@ (2571c <_ZN20complex_dynamic_type3app17hb15dc0263bf40423E+0x128>)
   25684:	2106      	movs	r1, #6
   25686:	2205      	movs	r2, #5
   25688:	2400      	movs	r4, #0
   2568a:	4623      	mov	r3, r4
   2568c:	df02      	svc	2
   2568e:	287f      	cmp	r0, #127	@ 0x7f
   25690:	d80d      	bhi.n	256ae <_ZN20complex_dynamic_type3app17hb15dc0263bf40423E+0xba>
   25692:	462c      	mov	r4, r5
   25694:	2c00      	cmp	r4, #0
   25696:	d021      	beq.n	256dc <_ZN20complex_dynamic_type3app17hb15dc0263bf40423E+0xe8>
   25698:	2001      	movs	r0, #1
   2569a:	9a06      	ldr	r2, [sp, #24]
   2569c:	7010      	strb	r0, [r2, #0]
   2569e:	6051      	str	r1, [r2, #4]
   256a0:	a80c      	add	r0, sp, #48	@ 0x30
   256a2:	7802      	ldrb	r2, [r0, #0]
   256a4:	2a02      	cmp	r2, #2
   256a6:	d02e      	beq.n	25706 <_ZN20complex_dynamic_type3app17hb15dc0263bf40423E+0x112>
   256a8:	2105      	movs	r1, #5
   256aa:	4630      	mov	r0, r6
   256ac:	e029      	b.n	25702 <_ZN20complex_dynamic_type3app17hb15dc0263bf40423E+0x10e>
   256ae:	a807      	add	r0, sp, #28
   256b0:	7802      	ldrb	r2, [r0, #0]
   256b2:	2a02      	cmp	r2, #2
   256b4:	d003      	beq.n	256be <_ZN20complex_dynamic_type3app17hb15dc0263bf40423E+0xca>
   256b6:	2106      	movs	r1, #6
   256b8:	4630      	mov	r0, r6
   256ba:	f005 fde1 	bl	2b280 <_ZN9allow_pin12dynamic_type7unshare17hefa7cd45f9379b26E>
   256be:	a807      	add	r0, sp, #28
   256c0:	9d02      	ldr	r5, [sp, #8]
   256c2:	7005      	strb	r5, [r0, #0]
   256c4:	a80c      	add	r0, sp, #48	@ 0x30
   256c6:	7802      	ldrb	r2, [r0, #0]
   256c8:	2a02      	cmp	r2, #2
   256ca:	d003      	beq.n	256d4 <_ZN20complex_dynamic_type3app17hb15dc0263bf40423E+0xe0>
   256cc:	2105      	movs	r1, #5
   256ce:	4630      	mov	r0, r6
   256d0:	f005 fdd6 	bl	2b280 <_ZN9allow_pin12dynamic_type7unshare17hefa7cd45f9379b26E>
   256d4:	a80c      	add	r0, sp, #48	@ 0x30
   256d6:	7005      	strb	r5, [r0, #0]
   256d8:	2c00      	cmp	r4, #0
   256da:	d1dd      	bne.n	25698 <_ZN20complex_dynamic_type3app17hb15dc0263bf40423E+0xa4>
   256dc:	a80c      	add	r0, sp, #48	@ 0x30
   256de:	7804      	ldrb	r4, [r0, #0]
   256e0:	2c02      	cmp	r4, #2
   256e2:	d001      	beq.n	256e8 <_ZN20complex_dynamic_type3app17hb15dc0263bf40423E+0xf4>
   256e4:	480e      	ldr	r0, [pc, #56]	@ (25720 <_ZN20complex_dynamic_type3app17hb15dc0263bf40423E+0x12c>)
   256e6:	9005      	str	r0, [sp, #20]
   256e8:	9d06      	ldr	r5, [sp, #24]
   256ea:	1c68      	adds	r0, r5, #1
   256ec:	2250      	movs	r2, #80	@ 0x50
   256ee:	9905      	ldr	r1, [sp, #20]
   256f0:	f005 ffab 	bl	2b64a <__aeabi_memcpy>
   256f4:	2000      	movs	r0, #0
   256f6:	2c02      	cmp	r4, #2
   256f8:	7028      	strb	r0, [r5, #0]
   256fa:	d004      	beq.n	25706 <_ZN20complex_dynamic_type3app17hb15dc0263bf40423E+0x112>
   256fc:	2105      	movs	r1, #5
   256fe:	4630      	mov	r0, r6
   25700:	4622      	mov	r2, r4
   25702:	f005 fdbd 	bl	2b280 <_ZN9allow_pin12dynamic_type7unshare17hefa7cd45f9379b26E>
   25706:	a807      	add	r0, sp, #28
   25708:	7802      	ldrb	r2, [r0, #0]
   2570a:	2a02      	cmp	r2, #2
   2570c:	d003      	beq.n	25716 <_ZN20complex_dynamic_type3app17hb15dc0263bf40423E+0x122>
   2570e:	2106      	movs	r1, #6
   25710:	4630      	mov	r0, r6
   25712:	f005 fdb5 	bl	2b280 <_ZN9allow_pin12dynamic_type7unshare17hefa7cd45f9379b26E>
   25716:	b025      	add	sp, #148	@ 0x94
   25718:	bdf0      	pop	{r4, r5, r6, r7, pc}
   2571a:	46c0      	nop			@ (mov r8, r8)
   2571c:	00001aa9 	.word	0x00001aa9
   25720:	000107cf 	.word	0x000107cf

00025724 <_ZN20complex_dynamic_type3app17hb441260bc5db75b6E>:
   25724:	b5f0      	push	{r4, r5, r6, r7, lr}
   25726:	af03      	add	r7, sp, #12
   25728:	b0a3      	sub	sp, #140	@ 0x8c
   2572a:	9007      	str	r0, [sp, #28]
   2572c:	a808      	add	r0, sp, #32
   2572e:	2602      	movs	r6, #2
   25730:	7006      	strb	r6, [r0, #0]
   25732:	1c40      	adds	r0, r0, #1
   25734:	9005      	str	r0, [sp, #20]
   25736:	250e      	movs	r5, #14
   25738:	462a      	mov	r2, r5
   2573a:	f005 ff86 	bl	2b64a <__aeabi_memcpy>
   2573e:	ac0c      	add	r4, sp, #48	@ 0x30
   25740:	1c60      	adds	r0, r4, #1
   25742:	2148      	movs	r1, #72	@ 0x48
   25744:	9006      	str	r0, [sp, #24]
   25746:	9104      	str	r1, [sp, #16]
   25748:	f005 fdbf 	bl	2b2ca <__aeabi_memclr>
   2574c:	9603      	str	r6, [sp, #12]
   2574e:	7026      	strb	r6, [r4, #0]
   25750:	2404      	movs	r4, #4
   25752:	9500      	str	r5, [sp, #0]
   25754:	9401      	str	r4, [sp, #4]
   25756:	a81f      	add	r0, sp, #124	@ 0x7c
   25758:	493c      	ldr	r1, [pc, #240]	@ (2584c <_ZN20complex_dynamic_type3app17hb441260bc5db75b6E+0x128>)
   2575a:	2503      	movs	r5, #3
   2575c:	462a      	mov	r2, r5
   2575e:	9b05      	ldr	r3, [sp, #20]
   25760:	f005 fd9b 	bl	2b29a <_ZN9allow_pin13dynamic_allow17h33d41317a2da4f1cE>
   25764:	981f      	ldr	r0, [sp, #124]	@ 0x7c
   25766:	2802      	cmp	r0, #2
   25768:	d101      	bne.n	2576e <_ZN20complex_dynamic_type3app17hb441260bc5db75b6E+0x4a>
   2576a:	9920      	ldr	r1, [sp, #128]	@ 0x80
   2576c:	e001      	b.n	25772 <_ZN20complex_dynamic_type3app17hb441260bc5db75b6E+0x4e>
   2576e:	a908      	add	r1, sp, #32
   25770:	700c      	strb	r4, [r1, #0]
   25772:	2601      	movs	r6, #1
   25774:	2802      	cmp	r0, #2
   25776:	d024      	beq.n	257c2 <_ZN20complex_dynamic_type3app17hb441260bc5db75b6E+0x9e>
   25778:	a80c      	add	r0, sp, #48	@ 0x30
   2577a:	7800      	ldrb	r0, [r0, #0]
   2577c:	2802      	cmp	r0, #2
   2577e:	4630      	mov	r0, r6
   25780:	d10e      	bne.n	257a0 <_ZN20complex_dynamic_type3app17hb441260bc5db75b6E+0x7c>
   25782:	2403      	movs	r4, #3
   25784:	9804      	ldr	r0, [sp, #16]
   25786:	9000      	str	r0, [sp, #0]
   25788:	9401      	str	r4, [sp, #4]
   2578a:	a81f      	add	r0, sp, #124	@ 0x7c
   2578c:	2208      	movs	r2, #8
   2578e:	492f      	ldr	r1, [pc, #188]	@ (2584c <_ZN20complex_dynamic_type3app17hb441260bc5db75b6E+0x128>)
   25790:	9b06      	ldr	r3, [sp, #24]
   25792:	f005 fd82 	bl	2b29a <_ZN9allow_pin13dynamic_allow17h33d41317a2da4f1cE>
   25796:	981f      	ldr	r0, [sp, #124]	@ 0x7c
   25798:	2802      	cmp	r0, #2
   2579a:	d105      	bne.n	257a8 <_ZN20complex_dynamic_type3app17hb441260bc5db75b6E+0x84>
   2579c:	9d20      	ldr	r5, [sp, #128]	@ 0x80
   2579e:	4630      	mov	r0, r6
   257a0:	2800      	cmp	r0, #0
   257a2:	d006      	beq.n	257b2 <_ZN20complex_dynamic_type3app17hb441260bc5db75b6E+0x8e>
   257a4:	4629      	mov	r1, r5
   257a6:	e00c      	b.n	257c2 <_ZN20complex_dynamic_type3app17hb441260bc5db75b6E+0x9e>
   257a8:	a80c      	add	r0, sp, #48	@ 0x30
   257aa:	7004      	strb	r4, [r0, #0]
   257ac:	2000      	movs	r0, #0
   257ae:	2800      	cmp	r0, #0
   257b0:	d1f8      	bne.n	257a4 <_ZN20complex_dynamic_type3app17hb441260bc5db75b6E+0x80>
   257b2:	4826      	ldr	r0, [pc, #152]	@ (2584c <_ZN20complex_dynamic_type3app17hb441260bc5db75b6E+0x128>)
   257b4:	2103      	movs	r1, #3
   257b6:	2208      	movs	r2, #8
   257b8:	2400      	movs	r4, #0
   257ba:	4623      	mov	r3, r4
   257bc:	df02      	svc	2
   257be:	287f      	cmp	r0, #127	@ 0x7f
   257c0:	d80d      	bhi.n	257de <_ZN20complex_dynamic_type3app17hb441260bc5db75b6E+0xba>
   257c2:	4634      	mov	r4, r6
   257c4:	2c00      	cmp	r4, #0
   257c6:	d021      	beq.n	2580c <_ZN20complex_dynamic_type3app17hb441260bc5db75b6E+0xe8>
   257c8:	2001      	movs	r0, #1
   257ca:	9a07      	ldr	r2, [sp, #28]
   257cc:	7010      	strb	r0, [r2, #0]
   257ce:	6051      	str	r1, [r2, #4]
   257d0:	a80c      	add	r0, sp, #48	@ 0x30
   257d2:	7802      	ldrb	r2, [r0, #0]
   257d4:	2a02      	cmp	r2, #2
   257d6:	d02e      	beq.n	25836 <_ZN20complex_dynamic_type3app17hb441260bc5db75b6E+0x112>
   257d8:	2108      	movs	r1, #8
   257da:	481c      	ldr	r0, [pc, #112]	@ (2584c <_ZN20complex_dynamic_type3app17hb441260bc5db75b6E+0x128>)
   257dc:	e029      	b.n	25832 <_ZN20complex_dynamic_type3app17hb441260bc5db75b6E+0x10e>
   257de:	a808      	add	r0, sp, #32
   257e0:	7802      	ldrb	r2, [r0, #0]
   257e2:	2a02      	cmp	r2, #2
   257e4:	d003      	beq.n	257ee <_ZN20complex_dynamic_type3app17hb441260bc5db75b6E+0xca>
   257e6:	2103      	movs	r1, #3
   257e8:	4818      	ldr	r0, [pc, #96]	@ (2584c <_ZN20complex_dynamic_type3app17hb441260bc5db75b6E+0x128>)
   257ea:	f005 fd49 	bl	2b280 <_ZN9allow_pin12dynamic_type7unshare17hefa7cd45f9379b26E>
   257ee:	a808      	add	r0, sp, #32
   257f0:	9d03      	ldr	r5, [sp, #12]
   257f2:	7005      	strb	r5, [r0, #0]
   257f4:	a80c      	add	r0, sp, #48	@ 0x30
   257f6:	7802      	ldrb	r2, [r0, #0]
   257f8:	2a02      	cmp	r2, #2
   257fa:	d003      	beq.n	25804 <_ZN20complex_dynamic_type3app17hb441260bc5db75b6E+0xe0>
   257fc:	2108      	movs	r1, #8
   257fe:	4813      	ldr	r0, [pc, #76]	@ (2584c <_ZN20complex_dynamic_type3app17hb441260bc5db75b6E+0x128>)
   25800:	f005 fd3e 	bl	2b280 <_ZN9allow_pin12dynamic_type7unshare17hefa7cd45f9379b26E>
   25804:	a80c      	add	r0, sp, #48	@ 0x30
   25806:	7005      	strb	r5, [r0, #0]
   25808:	2c00      	cmp	r4, #0
   2580a:	d1dd      	bne.n	257c8 <_ZN20complex_dynamic_type3app17hb441260bc5db75b6E+0xa4>
   2580c:	a80c      	add	r0, sp, #48	@ 0x30
   2580e:	7804      	ldrb	r4, [r0, #0]
   25810:	2c02      	cmp	r4, #2
   25812:	d001      	beq.n	25818 <_ZN20complex_dynamic_type3app17hb441260bc5db75b6E+0xf4>
   25814:	480e      	ldr	r0, [pc, #56]	@ (25850 <_ZN20complex_dynamic_type3app17hb441260bc5db75b6E+0x12c>)
   25816:	9006      	str	r0, [sp, #24]
   25818:	9d07      	ldr	r5, [sp, #28]
   2581a:	1c68      	adds	r0, r5, #1
   2581c:	2248      	movs	r2, #72	@ 0x48
   2581e:	9906      	ldr	r1, [sp, #24]
   25820:	f005 ff13 	bl	2b64a <__aeabi_memcpy>
   25824:	2000      	movs	r0, #0
   25826:	2c02      	cmp	r4, #2
   25828:	7028      	strb	r0, [r5, #0]
   2582a:	d004      	beq.n	25836 <_ZN20complex_dynamic_type3app17hb441260bc5db75b6E+0x112>
   2582c:	2108      	movs	r1, #8
   2582e:	4807      	ldr	r0, [pc, #28]	@ (2584c <_ZN20complex_dynamic_type3app17hb441260bc5db75b6E+0x128>)
   25830:	4622      	mov	r2, r4
   25832:	f005 fd25 	bl	2b280 <_ZN9allow_pin12dynamic_type7unshare17hefa7cd45f9379b26E>
   25836:	a808      	add	r0, sp, #32
   25838:	7802      	ldrb	r2, [r0, #0]
   2583a:	2a02      	cmp	r2, #2
   2583c:	d003      	beq.n	25846 <_ZN20complex_dynamic_type3app17hb441260bc5db75b6E+0x122>
   2583e:	2103      	movs	r1, #3
   25840:	4802      	ldr	r0, [pc, #8]	@ (2584c <_ZN20complex_dynamic_type3app17hb441260bc5db75b6E+0x128>)
   25842:	f005 fd1d 	bl	2b280 <_ZN9allow_pin12dynamic_type7unshare17hefa7cd45f9379b26E>
   25846:	b023      	add	sp, #140	@ 0x8c
   25848:	bdf0      	pop	{r4, r5, r6, r7, pc}
   2584a:	46c0      	nop			@ (mov r8, r8)
   2584c:	000012d1 	.word	0x000012d1
   25850:	0001012c 	.word	0x0001012c

00025854 <_ZN20complex_dynamic_type3app17hb657d1f4be035569E>:
   25854:	b5f0      	push	{r4, r5, r6, r7, lr}
   25856:	af03      	add	r7, sp, #12
   25858:	b09d      	sub	sp, #116	@ 0x74
   2585a:	9006      	str	r0, [sp, #24]
   2585c:	a807      	add	r0, sp, #28
   2585e:	2502      	movs	r5, #2
   25860:	7005      	strb	r5, [r0, #0]
   25862:	1c40      	adds	r0, r0, #1
   25864:	9004      	str	r0, [sp, #16]
   25866:	2629      	movs	r6, #41	@ 0x29
   25868:	4632      	mov	r2, r6
   2586a:	f005 feee 	bl	2b64a <__aeabi_memcpy>
   2586e:	ac12      	add	r4, sp, #72	@ 0x48
   25870:	1c60      	adds	r0, r4, #1
   25872:	211a      	movs	r1, #26
   25874:	9005      	str	r0, [sp, #20]
   25876:	9103      	str	r1, [sp, #12]
   25878:	f005 fd27 	bl	2b2ca <__aeabi_memclr>
   2587c:	9502      	str	r5, [sp, #8]
   2587e:	7025      	strb	r5, [r4, #0]
   25880:	2404      	movs	r4, #4
   25882:	9600      	str	r6, [sp, #0]
   25884:	9401      	str	r4, [sp, #4]
   25886:	a819      	add	r0, sp, #100	@ 0x64
   25888:	493b      	ldr	r1, [pc, #236]	@ (25978 <_ZN20complex_dynamic_type3app17hb657d1f4be035569E+0x124>)
   2588a:	2205      	movs	r2, #5
   2588c:	9b04      	ldr	r3, [sp, #16]
   2588e:	f005 fd04 	bl	2b29a <_ZN9allow_pin13dynamic_allow17h33d41317a2da4f1cE>
   25892:	9819      	ldr	r0, [sp, #100]	@ 0x64
   25894:	2802      	cmp	r0, #2
   25896:	d101      	bne.n	2589c <_ZN20complex_dynamic_type3app17hb657d1f4be035569E+0x48>
   25898:	991a      	ldr	r1, [sp, #104]	@ 0x68
   2589a:	e001      	b.n	258a0 <_ZN20complex_dynamic_type3app17hb657d1f4be035569E+0x4c>
   2589c:	a907      	add	r1, sp, #28
   2589e:	700c      	strb	r4, [r1, #0]
   258a0:	2601      	movs	r6, #1
   258a2:	2802      	cmp	r0, #2
   258a4:	d024      	beq.n	258f0 <_ZN20complex_dynamic_type3app17hb657d1f4be035569E+0x9c>
   258a6:	a812      	add	r0, sp, #72	@ 0x48
   258a8:	7800      	ldrb	r0, [r0, #0]
   258aa:	2802      	cmp	r0, #2
   258ac:	d10e      	bne.n	258cc <_ZN20complex_dynamic_type3app17hb657d1f4be035569E+0x78>
   258ae:	2503      	movs	r5, #3
   258b0:	9803      	ldr	r0, [sp, #12]
   258b2:	9000      	str	r0, [sp, #0]
   258b4:	9501      	str	r5, [sp, #4]
   258b6:	a819      	add	r0, sp, #100	@ 0x64
   258b8:	492f      	ldr	r1, [pc, #188]	@ (25978 <_ZN20complex_dynamic_type3app17hb657d1f4be035569E+0x124>)
   258ba:	462a      	mov	r2, r5
   258bc:	9b05      	ldr	r3, [sp, #20]
   258be:	f005 fcec 	bl	2b29a <_ZN9allow_pin13dynamic_allow17h33d41317a2da4f1cE>
   258c2:	9819      	ldr	r0, [sp, #100]	@ 0x64
   258c4:	2802      	cmp	r0, #2
   258c6:	d106      	bne.n	258d6 <_ZN20complex_dynamic_type3app17hb657d1f4be035569E+0x82>
   258c8:	991a      	ldr	r1, [sp, #104]	@ 0x68
   258ca:	e000      	b.n	258ce <_ZN20complex_dynamic_type3app17hb657d1f4be035569E+0x7a>
   258cc:	2103      	movs	r1, #3
   258ce:	4630      	mov	r0, r6
   258d0:	2800      	cmp	r0, #0
   258d2:	d005      	beq.n	258e0 <_ZN20complex_dynamic_type3app17hb657d1f4be035569E+0x8c>
   258d4:	e00c      	b.n	258f0 <_ZN20complex_dynamic_type3app17hb657d1f4be035569E+0x9c>
   258d6:	a812      	add	r0, sp, #72	@ 0x48
   258d8:	7005      	strb	r5, [r0, #0]
   258da:	2000      	movs	r0, #0
   258dc:	2800      	cmp	r0, #0
   258de:	d107      	bne.n	258f0 <_ZN20complex_dynamic_type3app17hb657d1f4be035569E+0x9c>
   258e0:	4825      	ldr	r0, [pc, #148]	@ (25978 <_ZN20complex_dynamic_type3app17hb657d1f4be035569E+0x124>)
   258e2:	2105      	movs	r1, #5
   258e4:	2203      	movs	r2, #3
   258e6:	2400      	movs	r4, #0
   258e8:	4623      	mov	r3, r4
   258ea:	df02      	svc	2
   258ec:	287f      	cmp	r0, #127	@ 0x7f
   258ee:	d80d      	bhi.n	2590c <_ZN20complex_dynamic_type3app17hb657d1f4be035569E+0xb8>
   258f0:	4634      	mov	r4, r6
   258f2:	2c00      	cmp	r4, #0
   258f4:	d021      	beq.n	2593a <_ZN20complex_dynamic_type3app17hb657d1f4be035569E+0xe6>
   258f6:	2001      	movs	r0, #1
   258f8:	9a06      	ldr	r2, [sp, #24]
   258fa:	7010      	strb	r0, [r2, #0]
   258fc:	6051      	str	r1, [r2, #4]
   258fe:	a812      	add	r0, sp, #72	@ 0x48
   25900:	7802      	ldrb	r2, [r0, #0]
   25902:	2a02      	cmp	r2, #2
   25904:	d02e      	beq.n	25964 <_ZN20complex_dynamic_type3app17hb657d1f4be035569E+0x110>
   25906:	2103      	movs	r1, #3
   25908:	481b      	ldr	r0, [pc, #108]	@ (25978 <_ZN20complex_dynamic_type3app17hb657d1f4be035569E+0x124>)
   2590a:	e029      	b.n	25960 <_ZN20complex_dynamic_type3app17hb657d1f4be035569E+0x10c>
   2590c:	a807      	add	r0, sp, #28
   2590e:	7802      	ldrb	r2, [r0, #0]
   25910:	2a02      	cmp	r2, #2
   25912:	d003      	beq.n	2591c <_ZN20complex_dynamic_type3app17hb657d1f4be035569E+0xc8>
   25914:	2105      	movs	r1, #5
   25916:	4818      	ldr	r0, [pc, #96]	@ (25978 <_ZN20complex_dynamic_type3app17hb657d1f4be035569E+0x124>)
   25918:	f005 fcb2 	bl	2b280 <_ZN9allow_pin12dynamic_type7unshare17hefa7cd45f9379b26E>
   2591c:	a807      	add	r0, sp, #28
   2591e:	9d02      	ldr	r5, [sp, #8]
   25920:	7005      	strb	r5, [r0, #0]
   25922:	a812      	add	r0, sp, #72	@ 0x48
   25924:	7802      	ldrb	r2, [r0, #0]
   25926:	2a02      	cmp	r2, #2
   25928:	d003      	beq.n	25932 <_ZN20complex_dynamic_type3app17hb657d1f4be035569E+0xde>
   2592a:	2103      	movs	r1, #3
   2592c:	4812      	ldr	r0, [pc, #72]	@ (25978 <_ZN20complex_dynamic_type3app17hb657d1f4be035569E+0x124>)
   2592e:	f005 fca7 	bl	2b280 <_ZN9allow_pin12dynamic_type7unshare17hefa7cd45f9379b26E>
   25932:	a812      	add	r0, sp, #72	@ 0x48
   25934:	7005      	strb	r5, [r0, #0]
   25936:	2c00      	cmp	r4, #0
   25938:	d1dd      	bne.n	258f6 <_ZN20complex_dynamic_type3app17hb657d1f4be035569E+0xa2>
   2593a:	a812      	add	r0, sp, #72	@ 0x48
   2593c:	7804      	ldrb	r4, [r0, #0]
   2593e:	2c02      	cmp	r4, #2
   25940:	d001      	beq.n	25946 <_ZN20complex_dynamic_type3app17hb657d1f4be035569E+0xf2>
   25942:	480e      	ldr	r0, [pc, #56]	@ (2597c <_ZN20complex_dynamic_type3app17hb657d1f4be035569E+0x128>)
   25944:	9005      	str	r0, [sp, #20]
   25946:	9d06      	ldr	r5, [sp, #24]
   25948:	1c68      	adds	r0, r5, #1
   2594a:	221a      	movs	r2, #26
   2594c:	9905      	ldr	r1, [sp, #20]
   2594e:	f005 fe7c 	bl	2b64a <__aeabi_memcpy>
   25952:	2000      	movs	r0, #0
   25954:	2c02      	cmp	r4, #2
   25956:	7028      	strb	r0, [r5, #0]
   25958:	d004      	beq.n	25964 <_ZN20complex_dynamic_type3app17hb657d1f4be035569E+0x110>
   2595a:	2103      	movs	r1, #3
   2595c:	4806      	ldr	r0, [pc, #24]	@ (25978 <_ZN20complex_dynamic_type3app17hb657d1f4be035569E+0x124>)
   2595e:	4622      	mov	r2, r4
   25960:	f005 fc8e 	bl	2b280 <_ZN9allow_pin12dynamic_type7unshare17hefa7cd45f9379b26E>
   25964:	a807      	add	r0, sp, #28
   25966:	7802      	ldrb	r2, [r0, #0]
   25968:	2a02      	cmp	r2, #2
   2596a:	d003      	beq.n	25974 <_ZN20complex_dynamic_type3app17hb657d1f4be035569E+0x120>
   2596c:	2105      	movs	r1, #5
   2596e:	4802      	ldr	r0, [pc, #8]	@ (25978 <_ZN20complex_dynamic_type3app17hb657d1f4be035569E+0x124>)
   25970:	f005 fc86 	bl	2b280 <_ZN9allow_pin12dynamic_type7unshare17hefa7cd45f9379b26E>
   25974:	b01d      	add	sp, #116	@ 0x74
   25976:	bdf0      	pop	{r4, r5, r6, r7, pc}
   25978:	00002048 	.word	0x00002048
   2597c:	000108ec 	.word	0x000108ec

00025980 <_ZN20complex_dynamic_type3app17hc22d929e31d62ed0E>:
   25980:	b5f0      	push	{r4, r5, r6, r7, lr}
   25982:	af03      	add	r7, sp, #12
   25984:	b0a1      	sub	sp, #132	@ 0x84
   25986:	9007      	str	r0, [sp, #28]
   25988:	a808      	add	r0, sp, #32
   2598a:	2502      	movs	r5, #2
   2598c:	7005      	strb	r5, [r0, #0]
   2598e:	1c40      	adds	r0, r0, #1
   25990:	9005      	str	r0, [sp, #20]
   25992:	263f      	movs	r6, #63	@ 0x3f
   25994:	4632      	mov	r2, r6
   25996:	f005 fe58 	bl	2b64a <__aeabi_memcpy>
   2599a:	ac18      	add	r4, sp, #96	@ 0x60
   2599c:	1c60      	adds	r0, r4, #1
   2599e:	2111      	movs	r1, #17
   259a0:	9006      	str	r0, [sp, #24]
   259a2:	9104      	str	r1, [sp, #16]
   259a4:	f005 fc91 	bl	2b2ca <__aeabi_memclr>
   259a8:	9503      	str	r5, [sp, #12]
   259aa:	7025      	strb	r5, [r4, #0]
   259ac:	2404      	movs	r4, #4
   259ae:	9600      	str	r6, [sp, #0]
   259b0:	9401      	str	r4, [sp, #4]
   259b2:	a81d      	add	r0, sp, #116	@ 0x74
   259b4:	4e3c      	ldr	r6, [pc, #240]	@ (25aa8 <_ZN20complex_dynamic_type3app17hc22d929e31d62ed0E+0x128>)
   259b6:	4631      	mov	r1, r6
   259b8:	4622      	mov	r2, r4
   259ba:	9b05      	ldr	r3, [sp, #20]
   259bc:	f005 fc6d 	bl	2b29a <_ZN9allow_pin13dynamic_allow17h33d41317a2da4f1cE>
   259c0:	981d      	ldr	r0, [sp, #116]	@ 0x74
   259c2:	2802      	cmp	r0, #2
   259c4:	d101      	bne.n	259ca <_ZN20complex_dynamic_type3app17hc22d929e31d62ed0E+0x4a>
   259c6:	991e      	ldr	r1, [sp, #120]	@ 0x78
   259c8:	e001      	b.n	259ce <_ZN20complex_dynamic_type3app17hc22d929e31d62ed0E+0x4e>
   259ca:	a908      	add	r1, sp, #32
   259cc:	700c      	strb	r4, [r1, #0]
   259ce:	2501      	movs	r5, #1
   259d0:	2802      	cmp	r0, #2
   259d2:	d024      	beq.n	25a1e <_ZN20complex_dynamic_type3app17hc22d929e31d62ed0E+0x9e>
   259d4:	a818      	add	r0, sp, #96	@ 0x60
   259d6:	7800      	ldrb	r0, [r0, #0]
   259d8:	2802      	cmp	r0, #2
   259da:	d10e      	bne.n	259fa <_ZN20complex_dynamic_type3app17hc22d929e31d62ed0E+0x7a>
   259dc:	2403      	movs	r4, #3
   259de:	9804      	ldr	r0, [sp, #16]
   259e0:	9000      	str	r0, [sp, #0]
   259e2:	9401      	str	r4, [sp, #4]
   259e4:	a81d      	add	r0, sp, #116	@ 0x74
   259e6:	4631      	mov	r1, r6
   259e8:	4622      	mov	r2, r4
   259ea:	9b06      	ldr	r3, [sp, #24]
   259ec:	f005 fc55 	bl	2b29a <_ZN9allow_pin13dynamic_allow17h33d41317a2da4f1cE>
   259f0:	981d      	ldr	r0, [sp, #116]	@ 0x74
   259f2:	2802      	cmp	r0, #2
   259f4:	d106      	bne.n	25a04 <_ZN20complex_dynamic_type3app17hc22d929e31d62ed0E+0x84>
   259f6:	991e      	ldr	r1, [sp, #120]	@ 0x78
   259f8:	e000      	b.n	259fc <_ZN20complex_dynamic_type3app17hc22d929e31d62ed0E+0x7c>
   259fa:	2103      	movs	r1, #3
   259fc:	4628      	mov	r0, r5
   259fe:	2800      	cmp	r0, #0
   25a00:	d005      	beq.n	25a0e <_ZN20complex_dynamic_type3app17hc22d929e31d62ed0E+0x8e>
   25a02:	e00c      	b.n	25a1e <_ZN20complex_dynamic_type3app17hc22d929e31d62ed0E+0x9e>
   25a04:	a818      	add	r0, sp, #96	@ 0x60
   25a06:	7004      	strb	r4, [r0, #0]
   25a08:	2000      	movs	r0, #0
   25a0a:	2800      	cmp	r0, #0
   25a0c:	d107      	bne.n	25a1e <_ZN20complex_dynamic_type3app17hc22d929e31d62ed0E+0x9e>
   25a0e:	4826      	ldr	r0, [pc, #152]	@ (25aa8 <_ZN20complex_dynamic_type3app17hc22d929e31d62ed0E+0x128>)
   25a10:	2104      	movs	r1, #4
   25a12:	2203      	movs	r2, #3
   25a14:	2400      	movs	r4, #0
   25a16:	4623      	mov	r3, r4
   25a18:	df02      	svc	2
   25a1a:	287f      	cmp	r0, #127	@ 0x7f
   25a1c:	d80d      	bhi.n	25a3a <_ZN20complex_dynamic_type3app17hc22d929e31d62ed0E+0xba>
   25a1e:	462c      	mov	r4, r5
   25a20:	2c00      	cmp	r4, #0
   25a22:	d021      	beq.n	25a68 <_ZN20complex_dynamic_type3app17hc22d929e31d62ed0E+0xe8>
   25a24:	2001      	movs	r0, #1
   25a26:	9a07      	ldr	r2, [sp, #28]
   25a28:	7010      	strb	r0, [r2, #0]
   25a2a:	6051      	str	r1, [r2, #4]
   25a2c:	a818      	add	r0, sp, #96	@ 0x60
   25a2e:	7802      	ldrb	r2, [r0, #0]
   25a30:	2a02      	cmp	r2, #2
   25a32:	d02e      	beq.n	25a92 <_ZN20complex_dynamic_type3app17hc22d929e31d62ed0E+0x112>
   25a34:	2103      	movs	r1, #3
   25a36:	4630      	mov	r0, r6
   25a38:	e029      	b.n	25a8e <_ZN20complex_dynamic_type3app17hc22d929e31d62ed0E+0x10e>
   25a3a:	a808      	add	r0, sp, #32
   25a3c:	7802      	ldrb	r2, [r0, #0]
   25a3e:	2a02      	cmp	r2, #2
   25a40:	d003      	beq.n	25a4a <_ZN20complex_dynamic_type3app17hc22d929e31d62ed0E+0xca>
   25a42:	2104      	movs	r1, #4
   25a44:	4630      	mov	r0, r6
   25a46:	f005 fc1b 	bl	2b280 <_ZN9allow_pin12dynamic_type7unshare17hefa7cd45f9379b26E>
   25a4a:	a808      	add	r0, sp, #32
   25a4c:	9d03      	ldr	r5, [sp, #12]
   25a4e:	7005      	strb	r5, [r0, #0]
   25a50:	a818      	add	r0, sp, #96	@ 0x60
   25a52:	7802      	ldrb	r2, [r0, #0]
   25a54:	2a02      	cmp	r2, #2
   25a56:	d003      	beq.n	25a60 <_ZN20complex_dynamic_type3app17hc22d929e31d62ed0E+0xe0>
   25a58:	2103      	movs	r1, #3
   25a5a:	4630      	mov	r0, r6
   25a5c:	f005 fc10 	bl	2b280 <_ZN9allow_pin12dynamic_type7unshare17hefa7cd45f9379b26E>
   25a60:	a818      	add	r0, sp, #96	@ 0x60
   25a62:	7005      	strb	r5, [r0, #0]
   25a64:	2c00      	cmp	r4, #0
   25a66:	d1dd      	bne.n	25a24 <_ZN20complex_dynamic_type3app17hc22d929e31d62ed0E+0xa4>
   25a68:	a818      	add	r0, sp, #96	@ 0x60
   25a6a:	7804      	ldrb	r4, [r0, #0]
   25a6c:	2c02      	cmp	r4, #2
   25a6e:	d001      	beq.n	25a74 <_ZN20complex_dynamic_type3app17hc22d929e31d62ed0E+0xf4>
   25a70:	480e      	ldr	r0, [pc, #56]	@ (25aac <_ZN20complex_dynamic_type3app17hc22d929e31d62ed0E+0x12c>)
   25a72:	9006      	str	r0, [sp, #24]
   25a74:	9d07      	ldr	r5, [sp, #28]
   25a76:	1c68      	adds	r0, r5, #1
   25a78:	2211      	movs	r2, #17
   25a7a:	9906      	ldr	r1, [sp, #24]
   25a7c:	f005 fde5 	bl	2b64a <__aeabi_memcpy>
   25a80:	2000      	movs	r0, #0
   25a82:	2c02      	cmp	r4, #2
   25a84:	7028      	strb	r0, [r5, #0]
   25a86:	d004      	beq.n	25a92 <_ZN20complex_dynamic_type3app17hc22d929e31d62ed0E+0x112>
   25a88:	2103      	movs	r1, #3
   25a8a:	4630      	mov	r0, r6
   25a8c:	4622      	mov	r2, r4
   25a8e:	f005 fbf7 	bl	2b280 <_ZN9allow_pin12dynamic_type7unshare17hefa7cd45f9379b26E>
   25a92:	a808      	add	r0, sp, #32
   25a94:	7802      	ldrb	r2, [r0, #0]
   25a96:	2a02      	cmp	r2, #2
   25a98:	d003      	beq.n	25aa2 <_ZN20complex_dynamic_type3app17hc22d929e31d62ed0E+0x122>
   25a9a:	2104      	movs	r1, #4
   25a9c:	4630      	mov	r0, r6
   25a9e:	f005 fbef 	bl	2b280 <_ZN9allow_pin12dynamic_type7unshare17hefa7cd45f9379b26E>
   25aa2:	b021      	add	sp, #132	@ 0x84
   25aa4:	bdf0      	pop	{r4, r5, r6, r7, pc}
   25aa6:	46c0      	nop			@ (mov r8, r8)
   25aa8:	000014d7 	.word	0x000014d7
   25aac:	0001047a 	.word	0x0001047a

00025ab0 <_ZN20complex_dynamic_type3app17hc51e9eb5adb83728E>:
   25ab0:	b5f0      	push	{r4, r5, r6, r7, lr}
   25ab2:	af03      	add	r7, sp, #12
   25ab4:	b09f      	sub	sp, #124	@ 0x7c
   25ab6:	9007      	str	r0, [sp, #28]
   25ab8:	a808      	add	r0, sp, #32
   25aba:	2502      	movs	r5, #2
   25abc:	7005      	strb	r5, [r0, #0]
   25abe:	1c40      	adds	r0, r0, #1
   25ac0:	9005      	str	r0, [sp, #20]
   25ac2:	262b      	movs	r6, #43	@ 0x2b
   25ac4:	4632      	mov	r2, r6
   25ac6:	f005 fdc0 	bl	2b64a <__aeabi_memcpy>
   25aca:	ac13      	add	r4, sp, #76	@ 0x4c
   25acc:	1c60      	adds	r0, r4, #1
   25ace:	211e      	movs	r1, #30
   25ad0:	9006      	str	r0, [sp, #24]
   25ad2:	9104      	str	r1, [sp, #16]
   25ad4:	f005 fbf9 	bl	2b2ca <__aeabi_memclr>
   25ad8:	9503      	str	r5, [sp, #12]
   25ada:	7025      	strb	r5, [r4, #0]
   25adc:	2404      	movs	r4, #4
   25ade:	9600      	str	r6, [sp, #0]
   25ae0:	9401      	str	r4, [sp, #4]
   25ae2:	a81b      	add	r0, sp, #108	@ 0x6c
   25ae4:	4e3c      	ldr	r6, [pc, #240]	@ (25bd8 <_ZN20complex_dynamic_type3app17hc51e9eb5adb83728E+0x128>)
   25ae6:	2207      	movs	r2, #7
   25ae8:	4631      	mov	r1, r6
   25aea:	9b05      	ldr	r3, [sp, #20]
   25aec:	f005 fbd5 	bl	2b29a <_ZN9allow_pin13dynamic_allow17h33d41317a2da4f1cE>
   25af0:	981b      	ldr	r0, [sp, #108]	@ 0x6c
   25af2:	2802      	cmp	r0, #2
   25af4:	d101      	bne.n	25afa <_ZN20complex_dynamic_type3app17hc51e9eb5adb83728E+0x4a>
   25af6:	991c      	ldr	r1, [sp, #112]	@ 0x70
   25af8:	e001      	b.n	25afe <_ZN20complex_dynamic_type3app17hc51e9eb5adb83728E+0x4e>
   25afa:	a908      	add	r1, sp, #32
   25afc:	700c      	strb	r4, [r1, #0]
   25afe:	2501      	movs	r5, #1
   25b00:	2802      	cmp	r0, #2
   25b02:	d024      	beq.n	25b4e <_ZN20complex_dynamic_type3app17hc51e9eb5adb83728E+0x9e>
   25b04:	a813      	add	r0, sp, #76	@ 0x4c
   25b06:	7800      	ldrb	r0, [r0, #0]
   25b08:	2802      	cmp	r0, #2
   25b0a:	d10e      	bne.n	25b2a <_ZN20complex_dynamic_type3app17hc51e9eb5adb83728E+0x7a>
   25b0c:	2403      	movs	r4, #3
   25b0e:	9804      	ldr	r0, [sp, #16]
   25b10:	9000      	str	r0, [sp, #0]
   25b12:	9401      	str	r4, [sp, #4]
   25b14:	a81b      	add	r0, sp, #108	@ 0x6c
   25b16:	2208      	movs	r2, #8
   25b18:	4631      	mov	r1, r6
   25b1a:	9b06      	ldr	r3, [sp, #24]
   25b1c:	f005 fbbd 	bl	2b29a <_ZN9allow_pin13dynamic_allow17h33d41317a2da4f1cE>
   25b20:	981b      	ldr	r0, [sp, #108]	@ 0x6c
   25b22:	2802      	cmp	r0, #2
   25b24:	d106      	bne.n	25b34 <_ZN20complex_dynamic_type3app17hc51e9eb5adb83728E+0x84>
   25b26:	991c      	ldr	r1, [sp, #112]	@ 0x70
   25b28:	e000      	b.n	25b2c <_ZN20complex_dynamic_type3app17hc51e9eb5adb83728E+0x7c>
   25b2a:	2103      	movs	r1, #3
   25b2c:	4628      	mov	r0, r5
   25b2e:	2800      	cmp	r0, #0
   25b30:	d005      	beq.n	25b3e <_ZN20complex_dynamic_type3app17hc51e9eb5adb83728E+0x8e>
   25b32:	e00c      	b.n	25b4e <_ZN20complex_dynamic_type3app17hc51e9eb5adb83728E+0x9e>
   25b34:	a813      	add	r0, sp, #76	@ 0x4c
   25b36:	7004      	strb	r4, [r0, #0]
   25b38:	2000      	movs	r0, #0
   25b3a:	2800      	cmp	r0, #0
   25b3c:	d107      	bne.n	25b4e <_ZN20complex_dynamic_type3app17hc51e9eb5adb83728E+0x9e>
   25b3e:	4826      	ldr	r0, [pc, #152]	@ (25bd8 <_ZN20complex_dynamic_type3app17hc51e9eb5adb83728E+0x128>)
   25b40:	2107      	movs	r1, #7
   25b42:	2208      	movs	r2, #8
   25b44:	2400      	movs	r4, #0
   25b46:	4623      	mov	r3, r4
   25b48:	df02      	svc	2
   25b4a:	287f      	cmp	r0, #127	@ 0x7f
   25b4c:	d80d      	bhi.n	25b6a <_ZN20complex_dynamic_type3app17hc51e9eb5adb83728E+0xba>
   25b4e:	462c      	mov	r4, r5
   25b50:	2c00      	cmp	r4, #0
   25b52:	d021      	beq.n	25b98 <_ZN20complex_dynamic_type3app17hc51e9eb5adb83728E+0xe8>
   25b54:	2001      	movs	r0, #1
   25b56:	9a07      	ldr	r2, [sp, #28]
   25b58:	7010      	strb	r0, [r2, #0]
   25b5a:	6051      	str	r1, [r2, #4]
   25b5c:	a813      	add	r0, sp, #76	@ 0x4c
   25b5e:	7802      	ldrb	r2, [r0, #0]
   25b60:	2a02      	cmp	r2, #2
   25b62:	d02e      	beq.n	25bc2 <_ZN20complex_dynamic_type3app17hc51e9eb5adb83728E+0x112>
   25b64:	2108      	movs	r1, #8
   25b66:	4630      	mov	r0, r6
   25b68:	e029      	b.n	25bbe <_ZN20complex_dynamic_type3app17hc51e9eb5adb83728E+0x10e>
   25b6a:	a808      	add	r0, sp, #32
   25b6c:	7802      	ldrb	r2, [r0, #0]
   25b6e:	2a02      	cmp	r2, #2
   25b70:	d003      	beq.n	25b7a <_ZN20complex_dynamic_type3app17hc51e9eb5adb83728E+0xca>
   25b72:	2107      	movs	r1, #7
   25b74:	4630      	mov	r0, r6
   25b76:	f005 fb83 	bl	2b280 <_ZN9allow_pin12dynamic_type7unshare17hefa7cd45f9379b26E>
   25b7a:	a808      	add	r0, sp, #32
   25b7c:	9d03      	ldr	r5, [sp, #12]
   25b7e:	7005      	strb	r5, [r0, #0]
   25b80:	a813      	add	r0, sp, #76	@ 0x4c
   25b82:	7802      	ldrb	r2, [r0, #0]
   25b84:	2a02      	cmp	r2, #2
   25b86:	d003      	beq.n	25b90 <_ZN20complex_dynamic_type3app17hc51e9eb5adb83728E+0xe0>
   25b88:	2108      	movs	r1, #8
   25b8a:	4630      	mov	r0, r6
   25b8c:	f005 fb78 	bl	2b280 <_ZN9allow_pin12dynamic_type7unshare17hefa7cd45f9379b26E>
   25b90:	a813      	add	r0, sp, #76	@ 0x4c
   25b92:	7005      	strb	r5, [r0, #0]
   25b94:	2c00      	cmp	r4, #0
   25b96:	d1dd      	bne.n	25b54 <_ZN20complex_dynamic_type3app17hc51e9eb5adb83728E+0xa4>
   25b98:	a813      	add	r0, sp, #76	@ 0x4c
   25b9a:	7804      	ldrb	r4, [r0, #0]
   25b9c:	2c02      	cmp	r4, #2
   25b9e:	d001      	beq.n	25ba4 <_ZN20complex_dynamic_type3app17hc51e9eb5adb83728E+0xf4>
   25ba0:	480e      	ldr	r0, [pc, #56]	@ (25bdc <_ZN20complex_dynamic_type3app17hc51e9eb5adb83728E+0x12c>)
   25ba2:	9006      	str	r0, [sp, #24]
   25ba4:	9d07      	ldr	r5, [sp, #28]
   25ba6:	1c68      	adds	r0, r5, #1
   25ba8:	221e      	movs	r2, #30
   25baa:	9906      	ldr	r1, [sp, #24]
   25bac:	f005 fd4d 	bl	2b64a <__aeabi_memcpy>
   25bb0:	2000      	movs	r0, #0
   25bb2:	2c02      	cmp	r4, #2
   25bb4:	7028      	strb	r0, [r5, #0]
   25bb6:	d004      	beq.n	25bc2 <_ZN20complex_dynamic_type3app17hc51e9eb5adb83728E+0x112>
   25bb8:	2108      	movs	r1, #8
   25bba:	4630      	mov	r0, r6
   25bbc:	4622      	mov	r2, r4
   25bbe:	f005 fb5f 	bl	2b280 <_ZN9allow_pin12dynamic_type7unshare17hefa7cd45f9379b26E>
   25bc2:	a808      	add	r0, sp, #32
   25bc4:	7802      	ldrb	r2, [r0, #0]
   25bc6:	2a02      	cmp	r2, #2
   25bc8:	d003      	beq.n	25bd2 <_ZN20complex_dynamic_type3app17hc51e9eb5adb83728E+0x122>
   25bca:	2107      	movs	r1, #7
   25bcc:	4630      	mov	r0, r6
   25bce:	f005 fb57 	bl	2b280 <_ZN9allow_pin12dynamic_type7unshare17hefa7cd45f9379b26E>
   25bd2:	b01f      	add	sp, #124	@ 0x7c
   25bd4:	bdf0      	pop	{r4, r5, r6, r7, pc}
   25bd6:	46c0      	nop			@ (mov r8, r8)
   25bd8:	000007e3 	.word	0x000007e3
   25bdc:	0001010e 	.word	0x0001010e

00025be0 <_ZN20complex_dynamic_type3app17hc73c5440a822ea57E>:
   25be0:	b5f0      	push	{r4, r5, r6, r7, lr}
   25be2:	af03      	add	r7, sp, #12
   25be4:	b09b      	sub	sp, #108	@ 0x6c
   25be6:	9006      	str	r0, [sp, #24]
   25be8:	a807      	add	r0, sp, #28
   25bea:	2502      	movs	r5, #2
   25bec:	7005      	strb	r5, [r0, #0]
   25bee:	1c40      	adds	r0, r0, #1
   25bf0:	9004      	str	r0, [sp, #16]
   25bf2:	2627      	movs	r6, #39	@ 0x27
   25bf4:	4632      	mov	r2, r6
   25bf6:	f005 fd28 	bl	2b64a <__aeabi_memcpy>
   25bfa:	ac11      	add	r4, sp, #68	@ 0x44
   25bfc:	1c60      	adds	r0, r4, #1
   25bfe:	2114      	movs	r1, #20
   25c00:	9005      	str	r0, [sp, #20]
   25c02:	9103      	str	r1, [sp, #12]
   25c04:	f005 fb61 	bl	2b2ca <__aeabi_memclr>
   25c08:	9502      	str	r5, [sp, #8]
   25c0a:	7025      	strb	r5, [r4, #0]
   25c0c:	2404      	movs	r4, #4
   25c0e:	9600      	str	r6, [sp, #0]
   25c10:	9401      	str	r4, [sp, #4]
   25c12:	a817      	add	r0, sp, #92	@ 0x5c
   25c14:	4e3c      	ldr	r6, [pc, #240]	@ (25d08 <_ZN20complex_dynamic_type3app17hc73c5440a822ea57E+0x128>)
   25c16:	2206      	movs	r2, #6
   25c18:	4631      	mov	r1, r6
   25c1a:	9b04      	ldr	r3, [sp, #16]
   25c1c:	f005 fb3d 	bl	2b29a <_ZN9allow_pin13dynamic_allow17h33d41317a2da4f1cE>
   25c20:	9817      	ldr	r0, [sp, #92]	@ 0x5c
   25c22:	2802      	cmp	r0, #2
   25c24:	d101      	bne.n	25c2a <_ZN20complex_dynamic_type3app17hc73c5440a822ea57E+0x4a>
   25c26:	9918      	ldr	r1, [sp, #96]	@ 0x60
   25c28:	e001      	b.n	25c2e <_ZN20complex_dynamic_type3app17hc73c5440a822ea57E+0x4e>
   25c2a:	a907      	add	r1, sp, #28
   25c2c:	700c      	strb	r4, [r1, #0]
   25c2e:	2501      	movs	r5, #1
   25c30:	2802      	cmp	r0, #2
   25c32:	d024      	beq.n	25c7e <_ZN20complex_dynamic_type3app17hc73c5440a822ea57E+0x9e>
   25c34:	a811      	add	r0, sp, #68	@ 0x44
   25c36:	7800      	ldrb	r0, [r0, #0]
   25c38:	2802      	cmp	r0, #2
   25c3a:	d10e      	bne.n	25c5a <_ZN20complex_dynamic_type3app17hc73c5440a822ea57E+0x7a>
   25c3c:	2403      	movs	r4, #3
   25c3e:	9803      	ldr	r0, [sp, #12]
   25c40:	9000      	str	r0, [sp, #0]
   25c42:	9401      	str	r4, [sp, #4]
   25c44:	a817      	add	r0, sp, #92	@ 0x5c
   25c46:	2205      	movs	r2, #5
   25c48:	4631      	mov	r1, r6
   25c4a:	9b05      	ldr	r3, [sp, #20]
   25c4c:	f005 fb25 	bl	2b29a <_ZN9allow_pin13dynamic_allow17h33d41317a2da4f1cE>
   25c50:	9817      	ldr	r0, [sp, #92]	@ 0x5c
   25c52:	2802      	cmp	r0, #2
   25c54:	d106      	bne.n	25c64 <_ZN20complex_dynamic_type3app17hc73c5440a822ea57E+0x84>
   25c56:	9918      	ldr	r1, [sp, #96]	@ 0x60
   25c58:	e000      	b.n	25c5c <_ZN20complex_dynamic_type3app17hc73c5440a822ea57E+0x7c>
   25c5a:	2103      	movs	r1, #3
   25c5c:	4628      	mov	r0, r5
   25c5e:	2800      	cmp	r0, #0
   25c60:	d005      	beq.n	25c6e <_ZN20complex_dynamic_type3app17hc73c5440a822ea57E+0x8e>
   25c62:	e00c      	b.n	25c7e <_ZN20complex_dynamic_type3app17hc73c5440a822ea57E+0x9e>
   25c64:	a811      	add	r0, sp, #68	@ 0x44
   25c66:	7004      	strb	r4, [r0, #0]
   25c68:	2000      	movs	r0, #0
   25c6a:	2800      	cmp	r0, #0
   25c6c:	d107      	bne.n	25c7e <_ZN20complex_dynamic_type3app17hc73c5440a822ea57E+0x9e>
   25c6e:	4826      	ldr	r0, [pc, #152]	@ (25d08 <_ZN20complex_dynamic_type3app17hc73c5440a822ea57E+0x128>)
   25c70:	2106      	movs	r1, #6
   25c72:	2205      	movs	r2, #5
   25c74:	2400      	movs	r4, #0
   25c76:	4623      	mov	r3, r4
   25c78:	df02      	svc	2
   25c7a:	287f      	cmp	r0, #127	@ 0x7f
   25c7c:	d80d      	bhi.n	25c9a <_ZN20complex_dynamic_type3app17hc73c5440a822ea57E+0xba>
   25c7e:	462c      	mov	r4, r5
   25c80:	2c00      	cmp	r4, #0
   25c82:	d021      	beq.n	25cc8 <_ZN20complex_dynamic_type3app17hc73c5440a822ea57E+0xe8>
   25c84:	2001      	movs	r0, #1
   25c86:	9a06      	ldr	r2, [sp, #24]
   25c88:	7010      	strb	r0, [r2, #0]
   25c8a:	6051      	str	r1, [r2, #4]
   25c8c:	a811      	add	r0, sp, #68	@ 0x44
   25c8e:	7802      	ldrb	r2, [r0, #0]
   25c90:	2a02      	cmp	r2, #2
   25c92:	d02e      	beq.n	25cf2 <_ZN20complex_dynamic_type3app17hc73c5440a822ea57E+0x112>
   25c94:	2105      	movs	r1, #5
   25c96:	4630      	mov	r0, r6
   25c98:	e029      	b.n	25cee <_ZN20complex_dynamic_type3app17hc73c5440a822ea57E+0x10e>
   25c9a:	a807      	add	r0, sp, #28
   25c9c:	7802      	ldrb	r2, [r0, #0]
   25c9e:	2a02      	cmp	r2, #2
   25ca0:	d003      	beq.n	25caa <_ZN20complex_dynamic_type3app17hc73c5440a822ea57E+0xca>
   25ca2:	2106      	movs	r1, #6
   25ca4:	4630      	mov	r0, r6
   25ca6:	f005 faeb 	bl	2b280 <_ZN9allow_pin12dynamic_type7unshare17hefa7cd45f9379b26E>
   25caa:	a807      	add	r0, sp, #28
   25cac:	9d02      	ldr	r5, [sp, #8]
   25cae:	7005      	strb	r5, [r0, #0]
   25cb0:	a811      	add	r0, sp, #68	@ 0x44
   25cb2:	7802      	ldrb	r2, [r0, #0]
   25cb4:	2a02      	cmp	r2, #2
   25cb6:	d003      	beq.n	25cc0 <_ZN20complex_dynamic_type3app17hc73c5440a822ea57E+0xe0>
   25cb8:	2105      	movs	r1, #5
   25cba:	4630      	mov	r0, r6
   25cbc:	f005 fae0 	bl	2b280 <_ZN9allow_pin12dynamic_type7unshare17hefa7cd45f9379b26E>
   25cc0:	a811      	add	r0, sp, #68	@ 0x44
   25cc2:	7005      	strb	r5, [r0, #0]
   25cc4:	2c00      	cmp	r4, #0
   25cc6:	d1dd      	bne.n	25c84 <_ZN20complex_dynamic_type3app17hc73c5440a822ea57E+0xa4>
   25cc8:	a811      	add	r0, sp, #68	@ 0x44
   25cca:	7804      	ldrb	r4, [r0, #0]
   25ccc:	2c02      	cmp	r4, #2
   25cce:	d001      	beq.n	25cd4 <_ZN20complex_dynamic_type3app17hc73c5440a822ea57E+0xf4>
   25cd0:	480e      	ldr	r0, [pc, #56]	@ (25d0c <_ZN20complex_dynamic_type3app17hc73c5440a822ea57E+0x12c>)
   25cd2:	9005      	str	r0, [sp, #20]
   25cd4:	9d06      	ldr	r5, [sp, #24]
   25cd6:	1c68      	adds	r0, r5, #1
   25cd8:	2214      	movs	r2, #20
   25cda:	9905      	ldr	r1, [sp, #20]
   25cdc:	f005 fcb5 	bl	2b64a <__aeabi_memcpy>
   25ce0:	2000      	movs	r0, #0
   25ce2:	2c02      	cmp	r4, #2
   25ce4:	7028      	strb	r0, [r5, #0]
   25ce6:	d004      	beq.n	25cf2 <_ZN20complex_dynamic_type3app17hc73c5440a822ea57E+0x112>
   25ce8:	2105      	movs	r1, #5
   25cea:	4630      	mov	r0, r6
   25cec:	4622      	mov	r2, r4
   25cee:	f005 fac7 	bl	2b280 <_ZN9allow_pin12dynamic_type7unshare17hefa7cd45f9379b26E>
   25cf2:	a807      	add	r0, sp, #28
   25cf4:	7802      	ldrb	r2, [r0, #0]
   25cf6:	2a02      	cmp	r2, #2
   25cf8:	d003      	beq.n	25d02 <_ZN20complex_dynamic_type3app17hc73c5440a822ea57E+0x122>
   25cfa:	2106      	movs	r1, #6
   25cfc:	4630      	mov	r0, r6
   25cfe:	f005 fabf 	bl	2b280 <_ZN9allow_pin12dynamic_type7unshare17hefa7cd45f9379b26E>
   25d02:	b01b      	add	sp, #108	@ 0x6c
   25d04:	bdf0      	pop	{r4, r5, r6, r7, pc}
   25d06:	46c0      	nop			@ (mov r8, r8)
   25d08:	000022c9 	.word	0x000022c9
   25d0c:	00010945 	.word	0x00010945

00025d10 <_ZN20complex_dynamic_type3app17hcd37c1fdac6d3d4dE>:
   25d10:	b5f0      	push	{r4, r5, r6, r7, lr}
   25d12:	af03      	add	r7, sp, #12
   25d14:	b0a7      	sub	sp, #156	@ 0x9c
   25d16:	9005      	str	r0, [sp, #20]
   25d18:	a806      	add	r0, sp, #24
   25d1a:	2502      	movs	r5, #2
   25d1c:	7005      	strb	r5, [r0, #0]
   25d1e:	1c40      	adds	r0, r0, #1
   25d20:	9003      	str	r0, [sp, #12]
   25d22:	241e      	movs	r4, #30
   25d24:	4622      	mov	r2, r4
   25d26:	f005 fc90 	bl	2b64a <__aeabi_memcpy>
   25d2a:	ae0e      	add	r6, sp, #56	@ 0x38
   25d2c:	1c70      	adds	r0, r6, #1
   25d2e:	2151      	movs	r1, #81	@ 0x51
   25d30:	9004      	str	r0, [sp, #16]
   25d32:	9102      	str	r1, [sp, #8]
   25d34:	f005 fac9 	bl	2b2ca <__aeabi_memclr>
   25d38:	7035      	strb	r5, [r6, #0]
   25d3a:	2004      	movs	r0, #4
   25d3c:	9400      	str	r4, [sp, #0]
   25d3e:	4604      	mov	r4, r0
   25d40:	9001      	str	r0, [sp, #4]
   25d42:	a823      	add	r0, sp, #140	@ 0x8c
   25d44:	4e3d      	ldr	r6, [pc, #244]	@ (25e3c <_ZN20complex_dynamic_type3app17hcd37c1fdac6d3d4dE+0x12c>)
   25d46:	4631      	mov	r1, r6
   25d48:	462a      	mov	r2, r5
   25d4a:	9b03      	ldr	r3, [sp, #12]
   25d4c:	f005 faa5 	bl	2b29a <_ZN9allow_pin13dynamic_allow17h33d41317a2da4f1cE>
   25d50:	9823      	ldr	r0, [sp, #140]	@ 0x8c
   25d52:	2802      	cmp	r0, #2
   25d54:	d101      	bne.n	25d5a <_ZN20complex_dynamic_type3app17hcd37c1fdac6d3d4dE+0x4a>
   25d56:	9924      	ldr	r1, [sp, #144]	@ 0x90
   25d58:	e001      	b.n	25d5e <_ZN20complex_dynamic_type3app17hcd37c1fdac6d3d4dE+0x4e>
   25d5a:	a906      	add	r1, sp, #24
   25d5c:	700c      	strb	r4, [r1, #0]
   25d5e:	2501      	movs	r5, #1
   25d60:	2802      	cmp	r0, #2
   25d62:	d10d      	bne.n	25d80 <_ZN20complex_dynamic_type3app17hcd37c1fdac6d3d4dE+0x70>
   25d64:	462c      	mov	r4, r5
   25d66:	2c00      	cmp	r4, #0
   25d68:	d049      	beq.n	25dfe <_ZN20complex_dynamic_type3app17hcd37c1fdac6d3d4dE+0xee>
   25d6a:	2001      	movs	r0, #1
   25d6c:	9a05      	ldr	r2, [sp, #20]
   25d6e:	7010      	strb	r0, [r2, #0]
   25d70:	6051      	str	r1, [r2, #4]
   25d72:	a80e      	add	r0, sp, #56	@ 0x38
   25d74:	7802      	ldrb	r2, [r0, #0]
   25d76:	2a02      	cmp	r2, #2
   25d78:	d056      	beq.n	25e28 <_ZN20complex_dynamic_type3app17hcd37c1fdac6d3d4dE+0x118>
   25d7a:	2100      	movs	r1, #0
   25d7c:	4630      	mov	r0, r6
   25d7e:	e051      	b.n	25e24 <_ZN20complex_dynamic_type3app17hcd37c1fdac6d3d4dE+0x114>
   25d80:	a80e      	add	r0, sp, #56	@ 0x38
   25d82:	7800      	ldrb	r0, [r0, #0]
   25d84:	2802      	cmp	r0, #2
   25d86:	d110      	bne.n	25daa <_ZN20complex_dynamic_type3app17hcd37c1fdac6d3d4dE+0x9a>
   25d88:	4631      	mov	r1, r6
   25d8a:	2603      	movs	r6, #3
   25d8c:	9802      	ldr	r0, [sp, #8]
   25d8e:	9000      	str	r0, [sp, #0]
   25d90:	9601      	str	r6, [sp, #4]
   25d92:	a823      	add	r0, sp, #140	@ 0x8c
   25d94:	2400      	movs	r4, #0
   25d96:	4622      	mov	r2, r4
   25d98:	9b04      	ldr	r3, [sp, #16]
   25d9a:	f005 fa7e 	bl	2b29a <_ZN9allow_pin13dynamic_allow17h33d41317a2da4f1cE>
   25d9e:	9823      	ldr	r0, [sp, #140]	@ 0x8c
   25da0:	2802      	cmp	r0, #2
   25da2:	d107      	bne.n	25db4 <_ZN20complex_dynamic_type3app17hcd37c1fdac6d3d4dE+0xa4>
   25da4:	9924      	ldr	r1, [sp, #144]	@ 0x90
   25da6:	462c      	mov	r4, r5
   25da8:	e006      	b.n	25db8 <_ZN20complex_dynamic_type3app17hcd37c1fdac6d3d4dE+0xa8>
   25daa:	2103      	movs	r1, #3
   25dac:	462c      	mov	r4, r5
   25dae:	2c00      	cmp	r4, #0
   25db0:	d1d8      	bne.n	25d64 <_ZN20complex_dynamic_type3app17hcd37c1fdac6d3d4dE+0x54>
   25db2:	e004      	b.n	25dbe <_ZN20complex_dynamic_type3app17hcd37c1fdac6d3d4dE+0xae>
   25db4:	a80e      	add	r0, sp, #56	@ 0x38
   25db6:	7006      	strb	r6, [r0, #0]
   25db8:	4e20      	ldr	r6, [pc, #128]	@ (25e3c <_ZN20complex_dynamic_type3app17hcd37c1fdac6d3d4dE+0x12c>)
   25dba:	2c00      	cmp	r4, #0
   25dbc:	d1d2      	bne.n	25d64 <_ZN20complex_dynamic_type3app17hcd37c1fdac6d3d4dE+0x54>
   25dbe:	481f      	ldr	r0, [pc, #124]	@ (25e3c <_ZN20complex_dynamic_type3app17hcd37c1fdac6d3d4dE+0x12c>)
   25dc0:	2102      	movs	r1, #2
   25dc2:	2400      	movs	r4, #0
   25dc4:	9103      	str	r1, [sp, #12]
   25dc6:	4622      	mov	r2, r4
   25dc8:	4623      	mov	r3, r4
   25dca:	df02      	svc	2
   25dcc:	287f      	cmp	r0, #127	@ 0x7f
   25dce:	d9c9      	bls.n	25d64 <_ZN20complex_dynamic_type3app17hcd37c1fdac6d3d4dE+0x54>
   25dd0:	a806      	add	r0, sp, #24
   25dd2:	7802      	ldrb	r2, [r0, #0]
   25dd4:	2a02      	cmp	r2, #2
   25dd6:	d003      	beq.n	25de0 <_ZN20complex_dynamic_type3app17hcd37c1fdac6d3d4dE+0xd0>
   25dd8:	2102      	movs	r1, #2
   25dda:	4630      	mov	r0, r6
   25ddc:	f005 fa50 	bl	2b280 <_ZN9allow_pin12dynamic_type7unshare17hefa7cd45f9379b26E>
   25de0:	a806      	add	r0, sp, #24
   25de2:	9d03      	ldr	r5, [sp, #12]
   25de4:	7005      	strb	r5, [r0, #0]
   25de6:	a80e      	add	r0, sp, #56	@ 0x38
   25de8:	7802      	ldrb	r2, [r0, #0]
   25dea:	2a02      	cmp	r2, #2
   25dec:	d003      	beq.n	25df6 <_ZN20complex_dynamic_type3app17hcd37c1fdac6d3d4dE+0xe6>
   25dee:	2100      	movs	r1, #0
   25df0:	4630      	mov	r0, r6
   25df2:	f005 fa45 	bl	2b280 <_ZN9allow_pin12dynamic_type7unshare17hefa7cd45f9379b26E>
   25df6:	a80e      	add	r0, sp, #56	@ 0x38
   25df8:	7005      	strb	r5, [r0, #0]
   25dfa:	2c00      	cmp	r4, #0
   25dfc:	d1b5      	bne.n	25d6a <_ZN20complex_dynamic_type3app17hcd37c1fdac6d3d4dE+0x5a>
   25dfe:	a80e      	add	r0, sp, #56	@ 0x38
   25e00:	7804      	ldrb	r4, [r0, #0]
   25e02:	2c02      	cmp	r4, #2
   25e04:	d001      	beq.n	25e0a <_ZN20complex_dynamic_type3app17hcd37c1fdac6d3d4dE+0xfa>
   25e06:	480e      	ldr	r0, [pc, #56]	@ (25e40 <_ZN20complex_dynamic_type3app17hcd37c1fdac6d3d4dE+0x130>)
   25e08:	9004      	str	r0, [sp, #16]
   25e0a:	9d05      	ldr	r5, [sp, #20]
   25e0c:	1c68      	adds	r0, r5, #1
   25e0e:	2251      	movs	r2, #81	@ 0x51
   25e10:	9904      	ldr	r1, [sp, #16]
   25e12:	f005 fc1a 	bl	2b64a <__aeabi_memcpy>
   25e16:	2000      	movs	r0, #0
   25e18:	2c02      	cmp	r4, #2
   25e1a:	7028      	strb	r0, [r5, #0]
   25e1c:	d004      	beq.n	25e28 <_ZN20complex_dynamic_type3app17hcd37c1fdac6d3d4dE+0x118>
   25e1e:	2100      	movs	r1, #0
   25e20:	4630      	mov	r0, r6
   25e22:	4622      	mov	r2, r4
   25e24:	f005 fa2c 	bl	2b280 <_ZN9allow_pin12dynamic_type7unshare17hefa7cd45f9379b26E>
   25e28:	a806      	add	r0, sp, #24
   25e2a:	7802      	ldrb	r2, [r0, #0]
   25e2c:	2a02      	cmp	r2, #2
   25e2e:	d003      	beq.n	25e38 <_ZN20complex_dynamic_type3app17hcd37c1fdac6d3d4dE+0x128>
   25e30:	2102      	movs	r1, #2
   25e32:	4630      	mov	r0, r6
   25e34:	f005 fa24 	bl	2b280 <_ZN9allow_pin12dynamic_type7unshare17hefa7cd45f9379b26E>
   25e38:	b027      	add	sp, #156	@ 0x9c
   25e3a:	bdf0      	pop	{r4, r5, r6, r7, pc}
   25e3c:	0000196b 	.word	0x0000196b
   25e40:	0001022b 	.word	0x0001022b

00025e44 <_ZN20complex_dynamic_type3app17hcdc7fee5dc659edaE>:
   25e44:	b5f0      	push	{r4, r5, r6, r7, lr}
   25e46:	af03      	add	r7, sp, #12
   25e48:	b09d      	sub	sp, #116	@ 0x74
   25e4a:	9007      	str	r0, [sp, #28]
   25e4c:	a808      	add	r0, sp, #32
   25e4e:	2502      	movs	r5, #2
   25e50:	7005      	strb	r5, [r0, #0]
   25e52:	1c40      	adds	r0, r0, #1
   25e54:	9005      	str	r0, [sp, #20]
   25e56:	2614      	movs	r6, #20
   25e58:	4632      	mov	r2, r6
   25e5a:	f005 fbf6 	bl	2b64a <__aeabi_memcpy>
   25e5e:	ac0e      	add	r4, sp, #56	@ 0x38
   25e60:	1c60      	adds	r0, r4, #1
   25e62:	212b      	movs	r1, #43	@ 0x2b
   25e64:	9006      	str	r0, [sp, #24]
   25e66:	9104      	str	r1, [sp, #16]
   25e68:	f005 fa2f 	bl	2b2ca <__aeabi_memclr>
   25e6c:	9503      	str	r5, [sp, #12]
   25e6e:	7025      	strb	r5, [r4, #0]
   25e70:	2404      	movs	r4, #4
   25e72:	9600      	str	r6, [sp, #0]
   25e74:	9401      	str	r4, [sp, #4]
   25e76:	a819      	add	r0, sp, #100	@ 0x64
   25e78:	4e3c      	ldr	r6, [pc, #240]	@ (25f6c <_ZN20complex_dynamic_type3app17hcdc7fee5dc659edaE+0x128>)
   25e7a:	2208      	movs	r2, #8
   25e7c:	4631      	mov	r1, r6
   25e7e:	9b05      	ldr	r3, [sp, #20]
   25e80:	f005 fa0b 	bl	2b29a <_ZN9allow_pin13dynamic_allow17h33d41317a2da4f1cE>
   25e84:	9819      	ldr	r0, [sp, #100]	@ 0x64
   25e86:	2802      	cmp	r0, #2
   25e88:	d101      	bne.n	25e8e <_ZN20complex_dynamic_type3app17hcdc7fee5dc659edaE+0x4a>
   25e8a:	991a      	ldr	r1, [sp, #104]	@ 0x68
   25e8c:	e001      	b.n	25e92 <_ZN20complex_dynamic_type3app17hcdc7fee5dc659edaE+0x4e>
   25e8e:	a908      	add	r1, sp, #32
   25e90:	700c      	strb	r4, [r1, #0]
   25e92:	2501      	movs	r5, #1
   25e94:	2802      	cmp	r0, #2
   25e96:	d024      	beq.n	25ee2 <_ZN20complex_dynamic_type3app17hcdc7fee5dc659edaE+0x9e>
   25e98:	a80e      	add	r0, sp, #56	@ 0x38
   25e9a:	7800      	ldrb	r0, [r0, #0]
   25e9c:	2802      	cmp	r0, #2
   25e9e:	d10e      	bne.n	25ebe <_ZN20complex_dynamic_type3app17hcdc7fee5dc659edaE+0x7a>
   25ea0:	2403      	movs	r4, #3
   25ea2:	9804      	ldr	r0, [sp, #16]
   25ea4:	9000      	str	r0, [sp, #0]
   25ea6:	9401      	str	r4, [sp, #4]
   25ea8:	a819      	add	r0, sp, #100	@ 0x64
   25eaa:	2204      	movs	r2, #4
   25eac:	4631      	mov	r1, r6
   25eae:	9b06      	ldr	r3, [sp, #24]
   25eb0:	f005 f9f3 	bl	2b29a <_ZN9allow_pin13dynamic_allow17h33d41317a2da4f1cE>
   25eb4:	9819      	ldr	r0, [sp, #100]	@ 0x64
   25eb6:	2802      	cmp	r0, #2
   25eb8:	d106      	bne.n	25ec8 <_ZN20complex_dynamic_type3app17hcdc7fee5dc659edaE+0x84>
   25eba:	991a      	ldr	r1, [sp, #104]	@ 0x68
   25ebc:	e000      	b.n	25ec0 <_ZN20complex_dynamic_type3app17hcdc7fee5dc659edaE+0x7c>
   25ebe:	2103      	movs	r1, #3
   25ec0:	4628      	mov	r0, r5
   25ec2:	2800      	cmp	r0, #0
   25ec4:	d005      	beq.n	25ed2 <_ZN20complex_dynamic_type3app17hcdc7fee5dc659edaE+0x8e>
   25ec6:	e00c      	b.n	25ee2 <_ZN20complex_dynamic_type3app17hcdc7fee5dc659edaE+0x9e>
   25ec8:	a80e      	add	r0, sp, #56	@ 0x38
   25eca:	7004      	strb	r4, [r0, #0]
   25ecc:	2000      	movs	r0, #0
   25ece:	2800      	cmp	r0, #0
   25ed0:	d107      	bne.n	25ee2 <_ZN20complex_dynamic_type3app17hcdc7fee5dc659edaE+0x9e>
   25ed2:	4826      	ldr	r0, [pc, #152]	@ (25f6c <_ZN20complex_dynamic_type3app17hcdc7fee5dc659edaE+0x128>)
   25ed4:	2108      	movs	r1, #8
   25ed6:	2204      	movs	r2, #4
   25ed8:	2400      	movs	r4, #0
   25eda:	4623      	mov	r3, r4
   25edc:	df02      	svc	2
   25ede:	287f      	cmp	r0, #127	@ 0x7f
   25ee0:	d80d      	bhi.n	25efe <_ZN20complex_dynamic_type3app17hcdc7fee5dc659edaE+0xba>
   25ee2:	462c      	mov	r4, r5
   25ee4:	2c00      	cmp	r4, #0
   25ee6:	d021      	beq.n	25f2c <_ZN20complex_dynamic_type3app17hcdc7fee5dc659edaE+0xe8>
   25ee8:	2001      	movs	r0, #1
   25eea:	9a07      	ldr	r2, [sp, #28]
   25eec:	7010      	strb	r0, [r2, #0]
   25eee:	6051      	str	r1, [r2, #4]
   25ef0:	a80e      	add	r0, sp, #56	@ 0x38
   25ef2:	7802      	ldrb	r2, [r0, #0]
   25ef4:	2a02      	cmp	r2, #2
   25ef6:	d02e      	beq.n	25f56 <_ZN20complex_dynamic_type3app17hcdc7fee5dc659edaE+0x112>
   25ef8:	2104      	movs	r1, #4
   25efa:	4630      	mov	r0, r6
   25efc:	e029      	b.n	25f52 <_ZN20complex_dynamic_type3app17hcdc7fee5dc659edaE+0x10e>
   25efe:	a808      	add	r0, sp, #32
   25f00:	7802      	ldrb	r2, [r0, #0]
   25f02:	2a02      	cmp	r2, #2
   25f04:	d003      	beq.n	25f0e <_ZN20complex_dynamic_type3app17hcdc7fee5dc659edaE+0xca>
   25f06:	2108      	movs	r1, #8
   25f08:	4630      	mov	r0, r6
   25f0a:	f005 f9b9 	bl	2b280 <_ZN9allow_pin12dynamic_type7unshare17hefa7cd45f9379b26E>
   25f0e:	a808      	add	r0, sp, #32
   25f10:	9d03      	ldr	r5, [sp, #12]
   25f12:	7005      	strb	r5, [r0, #0]
   25f14:	a80e      	add	r0, sp, #56	@ 0x38
   25f16:	7802      	ldrb	r2, [r0, #0]
   25f18:	2a02      	cmp	r2, #2
   25f1a:	d003      	beq.n	25f24 <_ZN20complex_dynamic_type3app17hcdc7fee5dc659edaE+0xe0>
   25f1c:	2104      	movs	r1, #4
   25f1e:	4630      	mov	r0, r6
   25f20:	f005 f9ae 	bl	2b280 <_ZN9allow_pin12dynamic_type7unshare17hefa7cd45f9379b26E>
   25f24:	a80e      	add	r0, sp, #56	@ 0x38
   25f26:	7005      	strb	r5, [r0, #0]
   25f28:	2c00      	cmp	r4, #0
   25f2a:	d1dd      	bne.n	25ee8 <_ZN20complex_dynamic_type3app17hcdc7fee5dc659edaE+0xa4>
   25f2c:	a80e      	add	r0, sp, #56	@ 0x38
   25f2e:	7804      	ldrb	r4, [r0, #0]
   25f30:	2c02      	cmp	r4, #2
   25f32:	d001      	beq.n	25f38 <_ZN20complex_dynamic_type3app17hcdc7fee5dc659edaE+0xf4>
   25f34:	480e      	ldr	r0, [pc, #56]	@ (25f70 <_ZN20complex_dynamic_type3app17hcdc7fee5dc659edaE+0x12c>)
   25f36:	9006      	str	r0, [sp, #24]
   25f38:	9d07      	ldr	r5, [sp, #28]
   25f3a:	1c68      	adds	r0, r5, #1
   25f3c:	222b      	movs	r2, #43	@ 0x2b
   25f3e:	9906      	ldr	r1, [sp, #24]
   25f40:	f005 fb83 	bl	2b64a <__aeabi_memcpy>
   25f44:	2000      	movs	r0, #0
   25f46:	2c02      	cmp	r4, #2
   25f48:	7028      	strb	r0, [r5, #0]
   25f4a:	d004      	beq.n	25f56 <_ZN20complex_dynamic_type3app17hcdc7fee5dc659edaE+0x112>
   25f4c:	2104      	movs	r1, #4
   25f4e:	4630      	mov	r0, r6
   25f50:	4622      	mov	r2, r4
   25f52:	f005 f995 	bl	2b280 <_ZN9allow_pin12dynamic_type7unshare17hefa7cd45f9379b26E>
   25f56:	a808      	add	r0, sp, #32
   25f58:	7802      	ldrb	r2, [r0, #0]
   25f5a:	2a02      	cmp	r2, #2
   25f5c:	d003      	beq.n	25f66 <_ZN20complex_dynamic_type3app17hcdc7fee5dc659edaE+0x122>
   25f5e:	2108      	movs	r1, #8
   25f60:	4630      	mov	r0, r6
   25f62:	f005 f98d 	bl	2b280 <_ZN9allow_pin12dynamic_type7unshare17hefa7cd45f9379b26E>
   25f66:	b01d      	add	sp, #116	@ 0x74
   25f68:	bdf0      	pop	{r4, r5, r6, r7, pc}
   25f6a:	46c0      	nop			@ (mov r8, r8)
   25f6c:	0000239f 	.word	0x0000239f
   25f70:	00010532 	.word	0x00010532

00025f74 <_ZN20complex_dynamic_type3app17hce8f0da81058faa3E>:
   25f74:	b5f0      	push	{r4, r5, r6, r7, lr}
   25f76:	af03      	add	r7, sp, #12
   25f78:	b09b      	sub	sp, #108	@ 0x6c
   25f7a:	9007      	str	r0, [sp, #28]
   25f7c:	a808      	add	r0, sp, #32
   25f7e:	2502      	movs	r5, #2
   25f80:	7005      	strb	r5, [r0, #0]
   25f82:	1c40      	adds	r0, r0, #1
   25f84:	9005      	str	r0, [sp, #20]
   25f86:	2618      	movs	r6, #24
   25f88:	4632      	mov	r2, r6
   25f8a:	f005 fb5e 	bl	2b64a <__aeabi_memcpy>
   25f8e:	ac0f      	add	r4, sp, #60	@ 0x3c
   25f90:	1c60      	adds	r0, r4, #1
   25f92:	211e      	movs	r1, #30
   25f94:	9006      	str	r0, [sp, #24]
   25f96:	9104      	str	r1, [sp, #16]
   25f98:	f005 f997 	bl	2b2ca <__aeabi_memclr>
   25f9c:	9503      	str	r5, [sp, #12]
   25f9e:	7025      	strb	r5, [r4, #0]
   25fa0:	2404      	movs	r4, #4
   25fa2:	9600      	str	r6, [sp, #0]
   25fa4:	9401      	str	r4, [sp, #4]
   25fa6:	a817      	add	r0, sp, #92	@ 0x5c
   25fa8:	4e3c      	ldr	r6, [pc, #240]	@ (2609c <_ZN20complex_dynamic_type3app17hce8f0da81058faa3E+0x128>)
   25faa:	2209      	movs	r2, #9
   25fac:	4631      	mov	r1, r6
   25fae:	9b05      	ldr	r3, [sp, #20]
   25fb0:	f005 f973 	bl	2b29a <_ZN9allow_pin13dynamic_allow17h33d41317a2da4f1cE>
   25fb4:	9817      	ldr	r0, [sp, #92]	@ 0x5c
   25fb6:	2802      	cmp	r0, #2
   25fb8:	d101      	bne.n	25fbe <_ZN20complex_dynamic_type3app17hce8f0da81058faa3E+0x4a>
   25fba:	9918      	ldr	r1, [sp, #96]	@ 0x60
   25fbc:	e001      	b.n	25fc2 <_ZN20complex_dynamic_type3app17hce8f0da81058faa3E+0x4e>
   25fbe:	a908      	add	r1, sp, #32
   25fc0:	700c      	strb	r4, [r1, #0]
   25fc2:	2501      	movs	r5, #1
   25fc4:	2802      	cmp	r0, #2
   25fc6:	d024      	beq.n	26012 <_ZN20complex_dynamic_type3app17hce8f0da81058faa3E+0x9e>
   25fc8:	a80f      	add	r0, sp, #60	@ 0x3c
   25fca:	7800      	ldrb	r0, [r0, #0]
   25fcc:	2802      	cmp	r0, #2
   25fce:	d10e      	bne.n	25fee <_ZN20complex_dynamic_type3app17hce8f0da81058faa3E+0x7a>
   25fd0:	2403      	movs	r4, #3
   25fd2:	9804      	ldr	r0, [sp, #16]
   25fd4:	9000      	str	r0, [sp, #0]
   25fd6:	9401      	str	r4, [sp, #4]
   25fd8:	a817      	add	r0, sp, #92	@ 0x5c
   25fda:	2205      	movs	r2, #5
   25fdc:	4631      	mov	r1, r6
   25fde:	9b06      	ldr	r3, [sp, #24]
   25fe0:	f005 f95b 	bl	2b29a <_ZN9allow_pin13dynamic_allow17h33d41317a2da4f1cE>
   25fe4:	9817      	ldr	r0, [sp, #92]	@ 0x5c
   25fe6:	2802      	cmp	r0, #2
   25fe8:	d106      	bne.n	25ff8 <_ZN20complex_dynamic_type3app17hce8f0da81058faa3E+0x84>
   25fea:	9918      	ldr	r1, [sp, #96]	@ 0x60
   25fec:	e000      	b.n	25ff0 <_ZN20complex_dynamic_type3app17hce8f0da81058faa3E+0x7c>
   25fee:	2103      	movs	r1, #3
   25ff0:	4628      	mov	r0, r5
   25ff2:	2800      	cmp	r0, #0
   25ff4:	d005      	beq.n	26002 <_ZN20complex_dynamic_type3app17hce8f0da81058faa3E+0x8e>
   25ff6:	e00c      	b.n	26012 <_ZN20complex_dynamic_type3app17hce8f0da81058faa3E+0x9e>
   25ff8:	a80f      	add	r0, sp, #60	@ 0x3c
   25ffa:	7004      	strb	r4, [r0, #0]
   25ffc:	2000      	movs	r0, #0
   25ffe:	2800      	cmp	r0, #0
   26000:	d107      	bne.n	26012 <_ZN20complex_dynamic_type3app17hce8f0da81058faa3E+0x9e>
   26002:	4826      	ldr	r0, [pc, #152]	@ (2609c <_ZN20complex_dynamic_type3app17hce8f0da81058faa3E+0x128>)
   26004:	2109      	movs	r1, #9
   26006:	2205      	movs	r2, #5
   26008:	2400      	movs	r4, #0
   2600a:	4623      	mov	r3, r4
   2600c:	df02      	svc	2
   2600e:	287f      	cmp	r0, #127	@ 0x7f
   26010:	d80d      	bhi.n	2602e <_ZN20complex_dynamic_type3app17hce8f0da81058faa3E+0xba>
   26012:	462c      	mov	r4, r5
   26014:	2c00      	cmp	r4, #0
   26016:	d021      	beq.n	2605c <_ZN20complex_dynamic_type3app17hce8f0da81058faa3E+0xe8>
   26018:	2001      	movs	r0, #1
   2601a:	9a07      	ldr	r2, [sp, #28]
   2601c:	7010      	strb	r0, [r2, #0]
   2601e:	6051      	str	r1, [r2, #4]
   26020:	a80f      	add	r0, sp, #60	@ 0x3c
   26022:	7802      	ldrb	r2, [r0, #0]
   26024:	2a02      	cmp	r2, #2
   26026:	d02e      	beq.n	26086 <_ZN20complex_dynamic_type3app17hce8f0da81058faa3E+0x112>
   26028:	2105      	movs	r1, #5
   2602a:	4630      	mov	r0, r6
   2602c:	e029      	b.n	26082 <_ZN20complex_dynamic_type3app17hce8f0da81058faa3E+0x10e>
   2602e:	a808      	add	r0, sp, #32
   26030:	7802      	ldrb	r2, [r0, #0]
   26032:	2a02      	cmp	r2, #2
   26034:	d003      	beq.n	2603e <_ZN20complex_dynamic_type3app17hce8f0da81058faa3E+0xca>
   26036:	2109      	movs	r1, #9
   26038:	4630      	mov	r0, r6
   2603a:	f005 f921 	bl	2b280 <_ZN9allow_pin12dynamic_type7unshare17hefa7cd45f9379b26E>
   2603e:	a808      	add	r0, sp, #32
   26040:	9d03      	ldr	r5, [sp, #12]
   26042:	7005      	strb	r5, [r0, #0]
   26044:	a80f      	add	r0, sp, #60	@ 0x3c
   26046:	7802      	ldrb	r2, [r0, #0]
   26048:	2a02      	cmp	r2, #2
   2604a:	d003      	beq.n	26054 <_ZN20complex_dynamic_type3app17hce8f0da81058faa3E+0xe0>
   2604c:	2105      	movs	r1, #5
   2604e:	4630      	mov	r0, r6
   26050:	f005 f916 	bl	2b280 <_ZN9allow_pin12dynamic_type7unshare17hefa7cd45f9379b26E>
   26054:	a80f      	add	r0, sp, #60	@ 0x3c
   26056:	7005      	strb	r5, [r0, #0]
   26058:	2c00      	cmp	r4, #0
   2605a:	d1dd      	bne.n	26018 <_ZN20complex_dynamic_type3app17hce8f0da81058faa3E+0xa4>
   2605c:	a80f      	add	r0, sp, #60	@ 0x3c
   2605e:	7804      	ldrb	r4, [r0, #0]
   26060:	2c02      	cmp	r4, #2
   26062:	d001      	beq.n	26068 <_ZN20complex_dynamic_type3app17hce8f0da81058faa3E+0xf4>
   26064:	480e      	ldr	r0, [pc, #56]	@ (260a0 <_ZN20complex_dynamic_type3app17hce8f0da81058faa3E+0x12c>)
   26066:	9006      	str	r0, [sp, #24]
   26068:	9d07      	ldr	r5, [sp, #28]
   2606a:	1c68      	adds	r0, r5, #1
   2606c:	221e      	movs	r2, #30
   2606e:	9906      	ldr	r1, [sp, #24]
   26070:	f005 faeb 	bl	2b64a <__aeabi_memcpy>
   26074:	2000      	movs	r0, #0
   26076:	2c02      	cmp	r4, #2
   26078:	7028      	strb	r0, [r5, #0]
   2607a:	d004      	beq.n	26086 <_ZN20complex_dynamic_type3app17hce8f0da81058faa3E+0x112>
   2607c:	2105      	movs	r1, #5
   2607e:	4630      	mov	r0, r6
   26080:	4622      	mov	r2, r4
   26082:	f005 f8fd 	bl	2b280 <_ZN9allow_pin12dynamic_type7unshare17hefa7cd45f9379b26E>
   26086:	a808      	add	r0, sp, #32
   26088:	7802      	ldrb	r2, [r0, #0]
   2608a:	2a02      	cmp	r2, #2
   2608c:	d003      	beq.n	26096 <_ZN20complex_dynamic_type3app17hce8f0da81058faa3E+0x122>
   2608e:	2109      	movs	r1, #9
   26090:	4630      	mov	r0, r6
   26092:	f005 f8f5 	bl	2b280 <_ZN9allow_pin12dynamic_type7unshare17hefa7cd45f9379b26E>
   26096:	b01b      	add	sp, #108	@ 0x6c
   26098:	bdf0      	pop	{r4, r5, r6, r7, pc}
   2609a:	46c0      	nop			@ (mov r8, r8)
   2609c:	00000cbb 	.word	0x00000cbb
   260a0:	0001010e 	.word	0x0001010e

000260a4 <_ZN20complex_dynamic_type3app17hd097f7385a620d34E>:
   260a4:	b5f0      	push	{r4, r5, r6, r7, lr}
   260a6:	af03      	add	r7, sp, #12
   260a8:	b0b5      	sub	sp, #212	@ 0xd4
   260aa:	9007      	str	r0, [sp, #28]
   260ac:	a808      	add	r0, sp, #32
   260ae:	2502      	movs	r5, #2
   260b0:	7005      	strb	r5, [r0, #0]
   260b2:	1c40      	adds	r0, r0, #1
   260b4:	9005      	str	r0, [sp, #20]
   260b6:	2656      	movs	r6, #86	@ 0x56
   260b8:	4632      	mov	r2, r6
   260ba:	f005 fac6 	bl	2b64a <__aeabi_memcpy>
   260be:	ac1e      	add	r4, sp, #120	@ 0x78
   260c0:	1c60      	adds	r0, r4, #1
   260c2:	2149      	movs	r1, #73	@ 0x49
   260c4:	9006      	str	r0, [sp, #24]
   260c6:	9104      	str	r1, [sp, #16]
   260c8:	f005 f8ff 	bl	2b2ca <__aeabi_memclr>
   260cc:	9503      	str	r5, [sp, #12]
   260ce:	7025      	strb	r5, [r4, #0]
   260d0:	2404      	movs	r4, #4
   260d2:	9600      	str	r6, [sp, #0]
   260d4:	9401      	str	r4, [sp, #4]
   260d6:	a831      	add	r0, sp, #196	@ 0xc4
   260d8:	4e3c      	ldr	r6, [pc, #240]	@ (261cc <_ZN20complex_dynamic_type3app17hd097f7385a620d34E+0x128>)
   260da:	2206      	movs	r2, #6
   260dc:	4631      	mov	r1, r6
   260de:	9b05      	ldr	r3, [sp, #20]
   260e0:	f005 f8db 	bl	2b29a <_ZN9allow_pin13dynamic_allow17h33d41317a2da4f1cE>
   260e4:	9831      	ldr	r0, [sp, #196]	@ 0xc4
   260e6:	2802      	cmp	r0, #2
   260e8:	d101      	bne.n	260ee <_ZN20complex_dynamic_type3app17hd097f7385a620d34E+0x4a>
   260ea:	9932      	ldr	r1, [sp, #200]	@ 0xc8
   260ec:	e001      	b.n	260f2 <_ZN20complex_dynamic_type3app17hd097f7385a620d34E+0x4e>
   260ee:	a908      	add	r1, sp, #32
   260f0:	700c      	strb	r4, [r1, #0]
   260f2:	2501      	movs	r5, #1
   260f4:	2802      	cmp	r0, #2
   260f6:	d024      	beq.n	26142 <_ZN20complex_dynamic_type3app17hd097f7385a620d34E+0x9e>
   260f8:	a81e      	add	r0, sp, #120	@ 0x78
   260fa:	7800      	ldrb	r0, [r0, #0]
   260fc:	2802      	cmp	r0, #2
   260fe:	d10e      	bne.n	2611e <_ZN20complex_dynamic_type3app17hd097f7385a620d34E+0x7a>
   26100:	2403      	movs	r4, #3
   26102:	9804      	ldr	r0, [sp, #16]
   26104:	9000      	str	r0, [sp, #0]
   26106:	9401      	str	r4, [sp, #4]
   26108:	a831      	add	r0, sp, #196	@ 0xc4
   2610a:	2206      	movs	r2, #6
   2610c:	4631      	mov	r1, r6
   2610e:	9b06      	ldr	r3, [sp, #24]
   26110:	f005 f8c3 	bl	2b29a <_ZN9allow_pin13dynamic_allow17h33d41317a2da4f1cE>
   26114:	9831      	ldr	r0, [sp, #196]	@ 0xc4
   26116:	2802      	cmp	r0, #2
   26118:	d106      	bne.n	26128 <_ZN20complex_dynamic_type3app17hd097f7385a620d34E+0x84>
   2611a:	9932      	ldr	r1, [sp, #200]	@ 0xc8
   2611c:	e000      	b.n	26120 <_ZN20complex_dynamic_type3app17hd097f7385a620d34E+0x7c>
   2611e:	2103      	movs	r1, #3
   26120:	4628      	mov	r0, r5
   26122:	2800      	cmp	r0, #0
   26124:	d005      	beq.n	26132 <_ZN20complex_dynamic_type3app17hd097f7385a620d34E+0x8e>
   26126:	e00c      	b.n	26142 <_ZN20complex_dynamic_type3app17hd097f7385a620d34E+0x9e>
   26128:	a81e      	add	r0, sp, #120	@ 0x78
   2612a:	7004      	strb	r4, [r0, #0]
   2612c:	2000      	movs	r0, #0
   2612e:	2800      	cmp	r0, #0
   26130:	d107      	bne.n	26142 <_ZN20complex_dynamic_type3app17hd097f7385a620d34E+0x9e>
   26132:	4826      	ldr	r0, [pc, #152]	@ (261cc <_ZN20complex_dynamic_type3app17hd097f7385a620d34E+0x128>)
   26134:	2106      	movs	r1, #6
   26136:	2400      	movs	r4, #0
   26138:	460a      	mov	r2, r1
   2613a:	4623      	mov	r3, r4
   2613c:	df02      	svc	2
   2613e:	287f      	cmp	r0, #127	@ 0x7f
   26140:	d80d      	bhi.n	2615e <_ZN20complex_dynamic_type3app17hd097f7385a620d34E+0xba>
   26142:	462c      	mov	r4, r5
   26144:	2c00      	cmp	r4, #0
   26146:	d021      	beq.n	2618c <_ZN20complex_dynamic_type3app17hd097f7385a620d34E+0xe8>
   26148:	2001      	movs	r0, #1
   2614a:	9a07      	ldr	r2, [sp, #28]
   2614c:	7010      	strb	r0, [r2, #0]
   2614e:	6051      	str	r1, [r2, #4]
   26150:	a81e      	add	r0, sp, #120	@ 0x78
   26152:	7802      	ldrb	r2, [r0, #0]
   26154:	2a02      	cmp	r2, #2
   26156:	d02e      	beq.n	261b6 <_ZN20complex_dynamic_type3app17hd097f7385a620d34E+0x112>
   26158:	2106      	movs	r1, #6
   2615a:	4630      	mov	r0, r6
   2615c:	e029      	b.n	261b2 <_ZN20complex_dynamic_type3app17hd097f7385a620d34E+0x10e>
   2615e:	a808      	add	r0, sp, #32
   26160:	7802      	ldrb	r2, [r0, #0]
   26162:	2a02      	cmp	r2, #2
   26164:	d003      	beq.n	2616e <_ZN20complex_dynamic_type3app17hd097f7385a620d34E+0xca>
   26166:	2106      	movs	r1, #6
   26168:	4630      	mov	r0, r6
   2616a:	f005 f889 	bl	2b280 <_ZN9allow_pin12dynamic_type7unshare17hefa7cd45f9379b26E>
   2616e:	a808      	add	r0, sp, #32
   26170:	9d03      	ldr	r5, [sp, #12]
   26172:	7005      	strb	r5, [r0, #0]
   26174:	a81e      	add	r0, sp, #120	@ 0x78
   26176:	7802      	ldrb	r2, [r0, #0]
   26178:	2a02      	cmp	r2, #2
   2617a:	d003      	beq.n	26184 <_ZN20complex_dynamic_type3app17hd097f7385a620d34E+0xe0>
   2617c:	2106      	movs	r1, #6
   2617e:	4630      	mov	r0, r6
   26180:	f005 f87e 	bl	2b280 <_ZN9allow_pin12dynamic_type7unshare17hefa7cd45f9379b26E>
   26184:	a81e      	add	r0, sp, #120	@ 0x78
   26186:	7005      	strb	r5, [r0, #0]
   26188:	2c00      	cmp	r4, #0
   2618a:	d1dd      	bne.n	26148 <_ZN20complex_dynamic_type3app17hd097f7385a620d34E+0xa4>
   2618c:	a81e      	add	r0, sp, #120	@ 0x78
   2618e:	7804      	ldrb	r4, [r0, #0]
   26190:	2c02      	cmp	r4, #2
   26192:	d001      	beq.n	26198 <_ZN20complex_dynamic_type3app17hd097f7385a620d34E+0xf4>
   26194:	480e      	ldr	r0, [pc, #56]	@ (261d0 <_ZN20complex_dynamic_type3app17hd097f7385a620d34E+0x12c>)
   26196:	9006      	str	r0, [sp, #24]
   26198:	9d07      	ldr	r5, [sp, #28]
   2619a:	1c68      	adds	r0, r5, #1
   2619c:	2249      	movs	r2, #73	@ 0x49
   2619e:	9906      	ldr	r1, [sp, #24]
   261a0:	f005 fa53 	bl	2b64a <__aeabi_memcpy>
   261a4:	2000      	movs	r0, #0
   261a6:	2c02      	cmp	r4, #2
   261a8:	7028      	strb	r0, [r5, #0]
   261aa:	d004      	beq.n	261b6 <_ZN20complex_dynamic_type3app17hd097f7385a620d34E+0x112>
   261ac:	2106      	movs	r1, #6
   261ae:	4630      	mov	r0, r6
   261b0:	4622      	mov	r2, r4
   261b2:	f005 f865 	bl	2b280 <_ZN9allow_pin12dynamic_type7unshare17hefa7cd45f9379b26E>
   261b6:	a808      	add	r0, sp, #32
   261b8:	7802      	ldrb	r2, [r0, #0]
   261ba:	2a02      	cmp	r2, #2
   261bc:	d003      	beq.n	261c6 <_ZN20complex_dynamic_type3app17hd097f7385a620d34E+0x122>
   261be:	2106      	movs	r1, #6
   261c0:	4630      	mov	r0, r6
   261c2:	f005 f85d 	bl	2b280 <_ZN9allow_pin12dynamic_type7unshare17hefa7cd45f9379b26E>
   261c6:	b035      	add	sp, #212	@ 0xd4
   261c8:	bdf0      	pop	{r4, r5, r6, r7, pc}
   261ca:	46c0      	nop			@ (mov r8, r8)
   261cc:	00001c6b 	.word	0x00001c6b
   261d0:	00010419 	.word	0x00010419

000261d4 <_ZN20complex_dynamic_type3app17hd44ca80db79e3c4fE>:
   261d4:	b5f0      	push	{r4, r5, r6, r7, lr}
   261d6:	af03      	add	r7, sp, #12
   261d8:	b09f      	sub	sp, #124	@ 0x7c
   261da:	9006      	str	r0, [sp, #24]
   261dc:	a807      	add	r0, sp, #28
   261de:	2502      	movs	r5, #2
   261e0:	7005      	strb	r5, [r0, #0]
   261e2:	1c40      	adds	r0, r0, #1
   261e4:	9004      	str	r0, [sp, #16]
   261e6:	2423      	movs	r4, #35	@ 0x23
   261e8:	4622      	mov	r2, r4
   261ea:	f005 fa2e 	bl	2b64a <__aeabi_memcpy>
   261ee:	ae10      	add	r6, sp, #64	@ 0x40
   261f0:	1c70      	adds	r0, r6, #1
   261f2:	212b      	movs	r1, #43	@ 0x2b
   261f4:	9005      	str	r0, [sp, #20]
   261f6:	9103      	str	r1, [sp, #12]
   261f8:	f005 f867 	bl	2b2ca <__aeabi_memclr>
   261fc:	7035      	strb	r5, [r6, #0]
   261fe:	2004      	movs	r0, #4
   26200:	9400      	str	r4, [sp, #0]
   26202:	4604      	mov	r4, r0
   26204:	9001      	str	r0, [sp, #4]
   26206:	a81b      	add	r0, sp, #108	@ 0x6c
   26208:	4e3d      	ldr	r6, [pc, #244]	@ (26300 <_ZN20complex_dynamic_type3app17hd44ca80db79e3c4fE+0x12c>)
   2620a:	4631      	mov	r1, r6
   2620c:	462a      	mov	r2, r5
   2620e:	9b04      	ldr	r3, [sp, #16]
   26210:	f005 f843 	bl	2b29a <_ZN9allow_pin13dynamic_allow17h33d41317a2da4f1cE>
   26214:	981b      	ldr	r0, [sp, #108]	@ 0x6c
   26216:	2802      	cmp	r0, #2
   26218:	d101      	bne.n	2621e <_ZN20complex_dynamic_type3app17hd44ca80db79e3c4fE+0x4a>
   2621a:	991c      	ldr	r1, [sp, #112]	@ 0x70
   2621c:	e001      	b.n	26222 <_ZN20complex_dynamic_type3app17hd44ca80db79e3c4fE+0x4e>
   2621e:	a907      	add	r1, sp, #28
   26220:	700c      	strb	r4, [r1, #0]
   26222:	2501      	movs	r5, #1
   26224:	2802      	cmp	r0, #2
   26226:	d10d      	bne.n	26244 <_ZN20complex_dynamic_type3app17hd44ca80db79e3c4fE+0x70>
   26228:	462c      	mov	r4, r5
   2622a:	2c00      	cmp	r4, #0
   2622c:	d049      	beq.n	262c2 <_ZN20complex_dynamic_type3app17hd44ca80db79e3c4fE+0xee>
   2622e:	2001      	movs	r0, #1
   26230:	9a06      	ldr	r2, [sp, #24]
   26232:	7010      	strb	r0, [r2, #0]
   26234:	6051      	str	r1, [r2, #4]
   26236:	a810      	add	r0, sp, #64	@ 0x40
   26238:	7802      	ldrb	r2, [r0, #0]
   2623a:	2a02      	cmp	r2, #2
   2623c:	d056      	beq.n	262ec <_ZN20complex_dynamic_type3app17hd44ca80db79e3c4fE+0x118>
   2623e:	2100      	movs	r1, #0
   26240:	4630      	mov	r0, r6
   26242:	e051      	b.n	262e8 <_ZN20complex_dynamic_type3app17hd44ca80db79e3c4fE+0x114>
   26244:	a810      	add	r0, sp, #64	@ 0x40
   26246:	7800      	ldrb	r0, [r0, #0]
   26248:	2802      	cmp	r0, #2
   2624a:	d110      	bne.n	2626e <_ZN20complex_dynamic_type3app17hd44ca80db79e3c4fE+0x9a>
   2624c:	4631      	mov	r1, r6
   2624e:	2603      	movs	r6, #3
   26250:	9803      	ldr	r0, [sp, #12]
   26252:	9000      	str	r0, [sp, #0]
   26254:	9601      	str	r6, [sp, #4]
   26256:	a81b      	add	r0, sp, #108	@ 0x6c
   26258:	2400      	movs	r4, #0
   2625a:	4622      	mov	r2, r4
   2625c:	9b05      	ldr	r3, [sp, #20]
   2625e:	f005 f81c 	bl	2b29a <_ZN9allow_pin13dynamic_allow17h33d41317a2da4f1cE>
   26262:	981b      	ldr	r0, [sp, #108]	@ 0x6c
   26264:	2802      	cmp	r0, #2
   26266:	d107      	bne.n	26278 <_ZN20complex_dynamic_type3app17hd44ca80db79e3c4fE+0xa4>
   26268:	991c      	ldr	r1, [sp, #112]	@ 0x70
   2626a:	462c      	mov	r4, r5
   2626c:	e006      	b.n	2627c <_ZN20complex_dynamic_type3app17hd44ca80db79e3c4fE+0xa8>
   2626e:	2103      	movs	r1, #3
   26270:	462c      	mov	r4, r5
   26272:	2c00      	cmp	r4, #0
   26274:	d1d8      	bne.n	26228 <_ZN20complex_dynamic_type3app17hd44ca80db79e3c4fE+0x54>
   26276:	e004      	b.n	26282 <_ZN20complex_dynamic_type3app17hd44ca80db79e3c4fE+0xae>
   26278:	a810      	add	r0, sp, #64	@ 0x40
   2627a:	7006      	strb	r6, [r0, #0]
   2627c:	4e20      	ldr	r6, [pc, #128]	@ (26300 <_ZN20complex_dynamic_type3app17hd44ca80db79e3c4fE+0x12c>)
   2627e:	2c00      	cmp	r4, #0
   26280:	d1d2      	bne.n	26228 <_ZN20complex_dynamic_type3app17hd44ca80db79e3c4fE+0x54>
   26282:	481f      	ldr	r0, [pc, #124]	@ (26300 <_ZN20complex_dynamic_type3app17hd44ca80db79e3c4fE+0x12c>)
   26284:	2102      	movs	r1, #2
   26286:	2400      	movs	r4, #0
   26288:	9104      	str	r1, [sp, #16]
   2628a:	4622      	mov	r2, r4
   2628c:	4623      	mov	r3, r4
   2628e:	df02      	svc	2
   26290:	287f      	cmp	r0, #127	@ 0x7f
   26292:	d9c9      	bls.n	26228 <_ZN20complex_dynamic_type3app17hd44ca80db79e3c4fE+0x54>
   26294:	a807      	add	r0, sp, #28
   26296:	7802      	ldrb	r2, [r0, #0]
   26298:	2a02      	cmp	r2, #2
   2629a:	d003      	beq.n	262a4 <_ZN20complex_dynamic_type3app17hd44ca80db79e3c4fE+0xd0>
   2629c:	2102      	movs	r1, #2
   2629e:	4630      	mov	r0, r6
   262a0:	f004 ffee 	bl	2b280 <_ZN9allow_pin12dynamic_type7unshare17hefa7cd45f9379b26E>
   262a4:	a807      	add	r0, sp, #28
   262a6:	9d04      	ldr	r5, [sp, #16]
   262a8:	7005      	strb	r5, [r0, #0]
   262aa:	a810      	add	r0, sp, #64	@ 0x40
   262ac:	7802      	ldrb	r2, [r0, #0]
   262ae:	2a02      	cmp	r2, #2
   262b0:	d003      	beq.n	262ba <_ZN20complex_dynamic_type3app17hd44ca80db79e3c4fE+0xe6>
   262b2:	2100      	movs	r1, #0
   262b4:	4630      	mov	r0, r6
   262b6:	f004 ffe3 	bl	2b280 <_ZN9allow_pin12dynamic_type7unshare17hefa7cd45f9379b26E>
   262ba:	a810      	add	r0, sp, #64	@ 0x40
   262bc:	7005      	strb	r5, [r0, #0]
   262be:	2c00      	cmp	r4, #0
   262c0:	d1b5      	bne.n	2622e <_ZN20complex_dynamic_type3app17hd44ca80db79e3c4fE+0x5a>
   262c2:	a810      	add	r0, sp, #64	@ 0x40
   262c4:	7804      	ldrb	r4, [r0, #0]
   262c6:	2c02      	cmp	r4, #2
   262c8:	d001      	beq.n	262ce <_ZN20complex_dynamic_type3app17hd44ca80db79e3c4fE+0xfa>
   262ca:	480e      	ldr	r0, [pc, #56]	@ (26304 <_ZN20complex_dynamic_type3app17hd44ca80db79e3c4fE+0x130>)
   262cc:	9005      	str	r0, [sp, #20]
   262ce:	9d06      	ldr	r5, [sp, #24]
   262d0:	1c68      	adds	r0, r5, #1
   262d2:	222b      	movs	r2, #43	@ 0x2b
   262d4:	9905      	ldr	r1, [sp, #20]
   262d6:	f005 f9b8 	bl	2b64a <__aeabi_memcpy>
   262da:	2000      	movs	r0, #0
   262dc:	2c02      	cmp	r4, #2
   262de:	7028      	strb	r0, [r5, #0]
   262e0:	d004      	beq.n	262ec <_ZN20complex_dynamic_type3app17hd44ca80db79e3c4fE+0x118>
   262e2:	2100      	movs	r1, #0
   262e4:	4630      	mov	r0, r6
   262e6:	4622      	mov	r2, r4
   262e8:	f004 ffca 	bl	2b280 <_ZN9allow_pin12dynamic_type7unshare17hefa7cd45f9379b26E>
   262ec:	a807      	add	r0, sp, #28
   262ee:	7802      	ldrb	r2, [r0, #0]
   262f0:	2a02      	cmp	r2, #2
   262f2:	d003      	beq.n	262fc <_ZN20complex_dynamic_type3app17hd44ca80db79e3c4fE+0x128>
   262f4:	2102      	movs	r1, #2
   262f6:	4630      	mov	r0, r6
   262f8:	f004 ffc2 	bl	2b280 <_ZN9allow_pin12dynamic_type7unshare17hefa7cd45f9379b26E>
   262fc:	b01f      	add	sp, #124	@ 0x7c
   262fe:	bdf0      	pop	{r4, r5, r6, r7, pc}
   26300:	00000d5d 	.word	0x00000d5d
   26304:	00010532 	.word	0x00010532

00026308 <_ZN20complex_dynamic_type3app17hd564efceb6f53716E>:
   26308:	b5f0      	push	{r4, r5, r6, r7, lr}
   2630a:	af03      	add	r7, sp, #12
   2630c:	b0ad      	sub	sp, #180	@ 0xb4
   2630e:	9007      	str	r0, [sp, #28]
   26310:	a808      	add	r0, sp, #32
   26312:	2402      	movs	r4, #2
   26314:	7004      	strb	r4, [r0, #0]
   26316:	1c40      	adds	r0, r0, #1
   26318:	9005      	str	r0, [sp, #20]
   2631a:	2561      	movs	r5, #97	@ 0x61
   2631c:	462a      	mov	r2, r5
   2631e:	f005 f994 	bl	2b64a <__aeabi_memcpy>
   26322:	ae21      	add	r6, sp, #132	@ 0x84
   26324:	1c70      	adds	r0, r6, #1
   26326:	211e      	movs	r1, #30
   26328:	9006      	str	r0, [sp, #24]
   2632a:	9104      	str	r1, [sp, #16]
   2632c:	f004 ffcd 	bl	2b2ca <__aeabi_memclr>
   26330:	9403      	str	r4, [sp, #12]
   26332:	7034      	strb	r4, [r6, #0]
   26334:	2604      	movs	r6, #4
   26336:	9500      	str	r5, [sp, #0]
   26338:	9601      	str	r6, [sp, #4]
   2633a:	2031      	movs	r0, #49	@ 0x31
   2633c:	00c1      	lsls	r1, r0, #3
   2633e:	a829      	add	r0, sp, #164	@ 0xa4
   26340:	460d      	mov	r5, r1
   26342:	4632      	mov	r2, r6
   26344:	9b05      	ldr	r3, [sp, #20]
   26346:	f004 ffa8 	bl	2b29a <_ZN9allow_pin13dynamic_allow17h33d41317a2da4f1cE>
   2634a:	9829      	ldr	r0, [sp, #164]	@ 0xa4
   2634c:	2802      	cmp	r0, #2
   2634e:	d101      	bne.n	26354 <_ZN20complex_dynamic_type3app17hd564efceb6f53716E+0x4c>
   26350:	992a      	ldr	r1, [sp, #168]	@ 0xa8
   26352:	e001      	b.n	26358 <_ZN20complex_dynamic_type3app17hd564efceb6f53716E+0x50>
   26354:	a908      	add	r1, sp, #32
   26356:	700e      	strb	r6, [r1, #0]
   26358:	2401      	movs	r4, #1
   2635a:	2802      	cmp	r0, #2
   2635c:	462e      	mov	r6, r5
   2635e:	d024      	beq.n	263aa <_ZN20complex_dynamic_type3app17hd564efceb6f53716E+0xa2>
   26360:	a821      	add	r0, sp, #132	@ 0x84
   26362:	7800      	ldrb	r0, [r0, #0]
   26364:	2802      	cmp	r0, #2
   26366:	d10e      	bne.n	26386 <_ZN20complex_dynamic_type3app17hd564efceb6f53716E+0x7e>
   26368:	2503      	movs	r5, #3
   2636a:	9804      	ldr	r0, [sp, #16]
   2636c:	9000      	str	r0, [sp, #0]
   2636e:	9501      	str	r5, [sp, #4]
   26370:	a829      	add	r0, sp, #164	@ 0xa4
   26372:	2206      	movs	r2, #6
   26374:	4631      	mov	r1, r6
   26376:	9b06      	ldr	r3, [sp, #24]
   26378:	f004 ff8f 	bl	2b29a <_ZN9allow_pin13dynamic_allow17h33d41317a2da4f1cE>
   2637c:	9829      	ldr	r0, [sp, #164]	@ 0xa4
   2637e:	2802      	cmp	r0, #2
   26380:	d106      	bne.n	26390 <_ZN20complex_dynamic_type3app17hd564efceb6f53716E+0x88>
   26382:	992a      	ldr	r1, [sp, #168]	@ 0xa8
   26384:	e000      	b.n	26388 <_ZN20complex_dynamic_type3app17hd564efceb6f53716E+0x80>
   26386:	2103      	movs	r1, #3
   26388:	4620      	mov	r0, r4
   2638a:	2800      	cmp	r0, #0
   2638c:	d005      	beq.n	2639a <_ZN20complex_dynamic_type3app17hd564efceb6f53716E+0x92>
   2638e:	e00c      	b.n	263aa <_ZN20complex_dynamic_type3app17hd564efceb6f53716E+0xa2>
   26390:	a821      	add	r0, sp, #132	@ 0x84
   26392:	7005      	strb	r5, [r0, #0]
   26394:	2000      	movs	r0, #0
   26396:	2800      	cmp	r0, #0
   26398:	d107      	bne.n	263aa <_ZN20complex_dynamic_type3app17hd564efceb6f53716E+0xa2>
   2639a:	2104      	movs	r1, #4
   2639c:	2206      	movs	r2, #6
   2639e:	2500      	movs	r5, #0
   263a0:	4630      	mov	r0, r6
   263a2:	462b      	mov	r3, r5
   263a4:	df02      	svc	2
   263a6:	287f      	cmp	r0, #127	@ 0x7f
   263a8:	d80d      	bhi.n	263c6 <_ZN20complex_dynamic_type3app17hd564efceb6f53716E+0xbe>
   263aa:	4625      	mov	r5, r4
   263ac:	2d00      	cmp	r5, #0
   263ae:	d021      	beq.n	263f4 <_ZN20complex_dynamic_type3app17hd564efceb6f53716E+0xec>
   263b0:	2001      	movs	r0, #1
   263b2:	9a07      	ldr	r2, [sp, #28]
   263b4:	7010      	strb	r0, [r2, #0]
   263b6:	6051      	str	r1, [r2, #4]
   263b8:	a821      	add	r0, sp, #132	@ 0x84
   263ba:	7802      	ldrb	r2, [r0, #0]
   263bc:	2a02      	cmp	r2, #2
   263be:	d02e      	beq.n	2641e <_ZN20complex_dynamic_type3app17hd564efceb6f53716E+0x116>
   263c0:	2106      	movs	r1, #6
   263c2:	4630      	mov	r0, r6
   263c4:	e029      	b.n	2641a <_ZN20complex_dynamic_type3app17hd564efceb6f53716E+0x112>
   263c6:	a808      	add	r0, sp, #32
   263c8:	7802      	ldrb	r2, [r0, #0]
   263ca:	2a02      	cmp	r2, #2
   263cc:	d003      	beq.n	263d6 <_ZN20complex_dynamic_type3app17hd564efceb6f53716E+0xce>
   263ce:	2104      	movs	r1, #4
   263d0:	4630      	mov	r0, r6
   263d2:	f004 ff55 	bl	2b280 <_ZN9allow_pin12dynamic_type7unshare17hefa7cd45f9379b26E>
   263d6:	a808      	add	r0, sp, #32
   263d8:	9c03      	ldr	r4, [sp, #12]
   263da:	7004      	strb	r4, [r0, #0]
   263dc:	a821      	add	r0, sp, #132	@ 0x84
   263de:	7802      	ldrb	r2, [r0, #0]
   263e0:	2a02      	cmp	r2, #2
   263e2:	d003      	beq.n	263ec <_ZN20complex_dynamic_type3app17hd564efceb6f53716E+0xe4>
   263e4:	2106      	movs	r1, #6
   263e6:	4630      	mov	r0, r6
   263e8:	f004 ff4a 	bl	2b280 <_ZN9allow_pin12dynamic_type7unshare17hefa7cd45f9379b26E>
   263ec:	a821      	add	r0, sp, #132	@ 0x84
   263ee:	7004      	strb	r4, [r0, #0]
   263f0:	2d00      	cmp	r5, #0
   263f2:	d1dd      	bne.n	263b0 <_ZN20complex_dynamic_type3app17hd564efceb6f53716E+0xa8>
   263f4:	a821      	add	r0, sp, #132	@ 0x84
   263f6:	7805      	ldrb	r5, [r0, #0]
   263f8:	2d02      	cmp	r5, #2
   263fa:	d001      	beq.n	26400 <_ZN20complex_dynamic_type3app17hd564efceb6f53716E+0xf8>
   263fc:	480d      	ldr	r0, [pc, #52]	@ (26434 <_ZN20complex_dynamic_type3app17hd564efceb6f53716E+0x12c>)
   263fe:	9006      	str	r0, [sp, #24]
   26400:	9c07      	ldr	r4, [sp, #28]
   26402:	1c60      	adds	r0, r4, #1
   26404:	221e      	movs	r2, #30
   26406:	9906      	ldr	r1, [sp, #24]
   26408:	f005 f91f 	bl	2b64a <__aeabi_memcpy>
   2640c:	2000      	movs	r0, #0
   2640e:	2d02      	cmp	r5, #2
   26410:	7020      	strb	r0, [r4, #0]
   26412:	d004      	beq.n	2641e <_ZN20complex_dynamic_type3app17hd564efceb6f53716E+0x116>
   26414:	2106      	movs	r1, #6
   26416:	4630      	mov	r0, r6
   26418:	462a      	mov	r2, r5
   2641a:	f004 ff31 	bl	2b280 <_ZN9allow_pin12dynamic_type7unshare17hefa7cd45f9379b26E>
   2641e:	a808      	add	r0, sp, #32
   26420:	7802      	ldrb	r2, [r0, #0]
   26422:	2a02      	cmp	r2, #2
   26424:	d003      	beq.n	2642e <_ZN20complex_dynamic_type3app17hd564efceb6f53716E+0x126>
   26426:	2104      	movs	r1, #4
   26428:	4630      	mov	r0, r6
   2642a:	f004 ff29 	bl	2b280 <_ZN9allow_pin12dynamic_type7unshare17hefa7cd45f9379b26E>
   2642e:	b02d      	add	sp, #180	@ 0xb4
   26430:	bdf0      	pop	{r4, r5, r6, r7, pc}
   26432:	46c0      	nop			@ (mov r8, r8)
   26434:	0001010e 	.word	0x0001010e

00026438 <_ZN20complex_dynamic_type3app17hd5c81e84761d98f4E>:
   26438:	b5f0      	push	{r4, r5, r6, r7, lr}
   2643a:	af03      	add	r7, sp, #12
   2643c:	b0a9      	sub	sp, #164	@ 0xa4
   2643e:	9006      	str	r0, [sp, #24]
   26440:	a807      	add	r0, sp, #28
   26442:	2502      	movs	r5, #2
   26444:	7005      	strb	r5, [r0, #0]
   26446:	1c40      	adds	r0, r0, #1
   26448:	9004      	str	r0, [sp, #16]
   2644a:	2632      	movs	r6, #50	@ 0x32
   2644c:	4632      	mov	r2, r6
   2644e:	f005 f8fc 	bl	2b64a <__aeabi_memcpy>
   26452:	ac14      	add	r4, sp, #80	@ 0x50
   26454:	1c60      	adds	r0, r4, #1
   26456:	2141      	movs	r1, #65	@ 0x41
   26458:	9005      	str	r0, [sp, #20]
   2645a:	9103      	str	r1, [sp, #12]
   2645c:	f004 ff35 	bl	2b2ca <__aeabi_memclr>
   26460:	9502      	str	r5, [sp, #8]
   26462:	7025      	strb	r5, [r4, #0]
   26464:	2404      	movs	r4, #4
   26466:	9600      	str	r6, [sp, #0]
   26468:	9401      	str	r4, [sp, #4]
   2646a:	a825      	add	r0, sp, #148	@ 0x94
   2646c:	4e3c      	ldr	r6, [pc, #240]	@ (26560 <_ZN20complex_dynamic_type3app17hd5c81e84761d98f4E+0x128>)
   2646e:	2207      	movs	r2, #7
   26470:	4631      	mov	r1, r6
   26472:	9b04      	ldr	r3, [sp, #16]
   26474:	f004 ff11 	bl	2b29a <_ZN9allow_pin13dynamic_allow17h33d41317a2da4f1cE>
   26478:	9825      	ldr	r0, [sp, #148]	@ 0x94
   2647a:	2802      	cmp	r0, #2
   2647c:	d101      	bne.n	26482 <_ZN20complex_dynamic_type3app17hd5c81e84761d98f4E+0x4a>
   2647e:	9926      	ldr	r1, [sp, #152]	@ 0x98
   26480:	e001      	b.n	26486 <_ZN20complex_dynamic_type3app17hd5c81e84761d98f4E+0x4e>
   26482:	a907      	add	r1, sp, #28
   26484:	700c      	strb	r4, [r1, #0]
   26486:	2501      	movs	r5, #1
   26488:	2802      	cmp	r0, #2
   2648a:	d024      	beq.n	264d6 <_ZN20complex_dynamic_type3app17hd5c81e84761d98f4E+0x9e>
   2648c:	a814      	add	r0, sp, #80	@ 0x50
   2648e:	7800      	ldrb	r0, [r0, #0]
   26490:	2802      	cmp	r0, #2
   26492:	d10e      	bne.n	264b2 <_ZN20complex_dynamic_type3app17hd5c81e84761d98f4E+0x7a>
   26494:	2403      	movs	r4, #3
   26496:	9803      	ldr	r0, [sp, #12]
   26498:	9000      	str	r0, [sp, #0]
   2649a:	9401      	str	r4, [sp, #4]
   2649c:	a825      	add	r0, sp, #148	@ 0x94
   2649e:	2205      	movs	r2, #5
   264a0:	4631      	mov	r1, r6
   264a2:	9b05      	ldr	r3, [sp, #20]
   264a4:	f004 fef9 	bl	2b29a <_ZN9allow_pin13dynamic_allow17h33d41317a2da4f1cE>
   264a8:	9825      	ldr	r0, [sp, #148]	@ 0x94
   264aa:	2802      	cmp	r0, #2
   264ac:	d106      	bne.n	264bc <_ZN20complex_dynamic_type3app17hd5c81e84761d98f4E+0x84>
   264ae:	9926      	ldr	r1, [sp, #152]	@ 0x98
   264b0:	e000      	b.n	264b4 <_ZN20complex_dynamic_type3app17hd5c81e84761d98f4E+0x7c>
   264b2:	2103      	movs	r1, #3
   264b4:	4628      	mov	r0, r5
   264b6:	2800      	cmp	r0, #0
   264b8:	d005      	beq.n	264c6 <_ZN20complex_dynamic_type3app17hd5c81e84761d98f4E+0x8e>
   264ba:	e00c      	b.n	264d6 <_ZN20complex_dynamic_type3app17hd5c81e84761d98f4E+0x9e>
   264bc:	a814      	add	r0, sp, #80	@ 0x50
   264be:	7004      	strb	r4, [r0, #0]
   264c0:	2000      	movs	r0, #0
   264c2:	2800      	cmp	r0, #0
   264c4:	d107      	bne.n	264d6 <_ZN20complex_dynamic_type3app17hd5c81e84761d98f4E+0x9e>
   264c6:	4826      	ldr	r0, [pc, #152]	@ (26560 <_ZN20complex_dynamic_type3app17hd5c81e84761d98f4E+0x128>)
   264c8:	2107      	movs	r1, #7
   264ca:	2205      	movs	r2, #5
   264cc:	2400      	movs	r4, #0
   264ce:	4623      	mov	r3, r4
   264d0:	df02      	svc	2
   264d2:	287f      	cmp	r0, #127	@ 0x7f
   264d4:	d80d      	bhi.n	264f2 <_ZN20complex_dynamic_type3app17hd5c81e84761d98f4E+0xba>
   264d6:	462c      	mov	r4, r5
   264d8:	2c00      	cmp	r4, #0
   264da:	d021      	beq.n	26520 <_ZN20complex_dynamic_type3app17hd5c81e84761d98f4E+0xe8>
   264dc:	2001      	movs	r0, #1
   264de:	9a06      	ldr	r2, [sp, #24]
   264e0:	7010      	strb	r0, [r2, #0]
   264e2:	6051      	str	r1, [r2, #4]
   264e4:	a814      	add	r0, sp, #80	@ 0x50
   264e6:	7802      	ldrb	r2, [r0, #0]
   264e8:	2a02      	cmp	r2, #2
   264ea:	d02e      	beq.n	2654a <_ZN20complex_dynamic_type3app17hd5c81e84761d98f4E+0x112>
   264ec:	2105      	movs	r1, #5
   264ee:	4630      	mov	r0, r6
   264f0:	e029      	b.n	26546 <_ZN20complex_dynamic_type3app17hd5c81e84761d98f4E+0x10e>
   264f2:	a807      	add	r0, sp, #28
   264f4:	7802      	ldrb	r2, [r0, #0]
   264f6:	2a02      	cmp	r2, #2
   264f8:	d003      	beq.n	26502 <_ZN20complex_dynamic_type3app17hd5c81e84761d98f4E+0xca>
   264fa:	2107      	movs	r1, #7
   264fc:	4630      	mov	r0, r6
   264fe:	f004 febf 	bl	2b280 <_ZN9allow_pin12dynamic_type7unshare17hefa7cd45f9379b26E>
   26502:	a807      	add	r0, sp, #28
   26504:	9d02      	ldr	r5, [sp, #8]
   26506:	7005      	strb	r5, [r0, #0]
   26508:	a814      	add	r0, sp, #80	@ 0x50
   2650a:	7802      	ldrb	r2, [r0, #0]
   2650c:	2a02      	cmp	r2, #2
   2650e:	d003      	beq.n	26518 <_ZN20complex_dynamic_type3app17hd5c81e84761d98f4E+0xe0>
   26510:	2105      	movs	r1, #5
   26512:	4630      	mov	r0, r6
   26514:	f004 feb4 	bl	2b280 <_ZN9allow_pin12dynamic_type7unshare17hefa7cd45f9379b26E>
   26518:	a814      	add	r0, sp, #80	@ 0x50
   2651a:	7005      	strb	r5, [r0, #0]
   2651c:	2c00      	cmp	r4, #0
   2651e:	d1dd      	bne.n	264dc <_ZN20complex_dynamic_type3app17hd5c81e84761d98f4E+0xa4>
   26520:	a814      	add	r0, sp, #80	@ 0x50
   26522:	7804      	ldrb	r4, [r0, #0]
   26524:	2c02      	cmp	r4, #2
   26526:	d001      	beq.n	2652c <_ZN20complex_dynamic_type3app17hd5c81e84761d98f4E+0xf4>
   26528:	480e      	ldr	r0, [pc, #56]	@ (26564 <_ZN20complex_dynamic_type3app17hd5c81e84761d98f4E+0x12c>)
   2652a:	9005      	str	r0, [sp, #20]
   2652c:	9d06      	ldr	r5, [sp, #24]
   2652e:	1c68      	adds	r0, r5, #1
   26530:	2241      	movs	r2, #65	@ 0x41
   26532:	9905      	ldr	r1, [sp, #20]
   26534:	f005 f889 	bl	2b64a <__aeabi_memcpy>
   26538:	2000      	movs	r0, #0
   2653a:	2c02      	cmp	r4, #2
   2653c:	7028      	strb	r0, [r5, #0]
   2653e:	d004      	beq.n	2654a <_ZN20complex_dynamic_type3app17hd5c81e84761d98f4E+0x112>
   26540:	2105      	movs	r1, #5
   26542:	4630      	mov	r0, r6
   26544:	4622      	mov	r2, r4
   26546:	f004 fe9b 	bl	2b280 <_ZN9allow_pin12dynamic_type7unshare17hefa7cd45f9379b26E>
   2654a:	a807      	add	r0, sp, #28
   2654c:	7802      	ldrb	r2, [r0, #0]
   2654e:	2a02      	cmp	r2, #2
   26550:	d003      	beq.n	2655a <_ZN20complex_dynamic_type3app17hd5c81e84761d98f4E+0x122>
   26552:	2107      	movs	r1, #7
   26554:	4630      	mov	r0, r6
   26556:	f004 fe93 	bl	2b280 <_ZN9allow_pin12dynamic_type7unshare17hefa7cd45f9379b26E>
   2655a:	b029      	add	sp, #164	@ 0xa4
   2655c:	bdf0      	pop	{r4, r5, r6, r7, pc}
   2655e:	46c0      	nop			@ (mov r8, r8)
   26560:	0000091d 	.word	0x0000091d
   26564:	000103d8 	.word	0x000103d8

00026568 <_ZN20complex_dynamic_type3app17hd6766bc95bae6580E>:
   26568:	b5f0      	push	{r4, r5, r6, r7, lr}
   2656a:	af03      	add	r7, sp, #12
   2656c:	b0a9      	sub	sp, #164	@ 0xa4
   2656e:	9006      	str	r0, [sp, #24]
   26570:	a807      	add	r0, sp, #28
   26572:	2502      	movs	r5, #2
   26574:	7005      	strb	r5, [r0, #0]
   26576:	1c40      	adds	r0, r0, #1
   26578:	9004      	str	r0, [sp, #16]
   2657a:	2640      	movs	r6, #64	@ 0x40
   2657c:	4632      	mov	r2, r6
   2657e:	f005 f864 	bl	2b64a <__aeabi_memcpy>
   26582:	ac18      	add	r4, sp, #96	@ 0x60
   26584:	1c60      	adds	r0, r4, #1
   26586:	2131      	movs	r1, #49	@ 0x31
   26588:	9005      	str	r0, [sp, #20]
   2658a:	9103      	str	r1, [sp, #12]
   2658c:	f004 fe9d 	bl	2b2ca <__aeabi_memclr>
   26590:	9502      	str	r5, [sp, #8]
   26592:	7025      	strb	r5, [r4, #0]
   26594:	2404      	movs	r4, #4
   26596:	9600      	str	r6, [sp, #0]
   26598:	9401      	str	r4, [sp, #4]
   2659a:	a825      	add	r0, sp, #148	@ 0x94
   2659c:	4e3c      	ldr	r6, [pc, #240]	@ (26690 <_ZN20complex_dynamic_type3app17hd6766bc95bae6580E+0x128>)
   2659e:	2208      	movs	r2, #8
   265a0:	4631      	mov	r1, r6
   265a2:	9b04      	ldr	r3, [sp, #16]
   265a4:	f004 fe79 	bl	2b29a <_ZN9allow_pin13dynamic_allow17h33d41317a2da4f1cE>
   265a8:	9825      	ldr	r0, [sp, #148]	@ 0x94
   265aa:	2802      	cmp	r0, #2
   265ac:	d101      	bne.n	265b2 <_ZN20complex_dynamic_type3app17hd6766bc95bae6580E+0x4a>
   265ae:	9926      	ldr	r1, [sp, #152]	@ 0x98
   265b0:	e001      	b.n	265b6 <_ZN20complex_dynamic_type3app17hd6766bc95bae6580E+0x4e>
   265b2:	a907      	add	r1, sp, #28
   265b4:	700c      	strb	r4, [r1, #0]
   265b6:	2501      	movs	r5, #1
   265b8:	2802      	cmp	r0, #2
   265ba:	d024      	beq.n	26606 <_ZN20complex_dynamic_type3app17hd6766bc95bae6580E+0x9e>
   265bc:	a818      	add	r0, sp, #96	@ 0x60
   265be:	7800      	ldrb	r0, [r0, #0]
   265c0:	2802      	cmp	r0, #2
   265c2:	d10e      	bne.n	265e2 <_ZN20complex_dynamic_type3app17hd6766bc95bae6580E+0x7a>
   265c4:	2403      	movs	r4, #3
   265c6:	9803      	ldr	r0, [sp, #12]
   265c8:	9000      	str	r0, [sp, #0]
   265ca:	9401      	str	r4, [sp, #4]
   265cc:	a825      	add	r0, sp, #148	@ 0x94
   265ce:	2205      	movs	r2, #5
   265d0:	4631      	mov	r1, r6
   265d2:	9b05      	ldr	r3, [sp, #20]
   265d4:	f004 fe61 	bl	2b29a <_ZN9allow_pin13dynamic_allow17h33d41317a2da4f1cE>
   265d8:	9825      	ldr	r0, [sp, #148]	@ 0x94
   265da:	2802      	cmp	r0, #2
   265dc:	d106      	bne.n	265ec <_ZN20complex_dynamic_type3app17hd6766bc95bae6580E+0x84>
   265de:	9926      	ldr	r1, [sp, #152]	@ 0x98
   265e0:	e000      	b.n	265e4 <_ZN20complex_dynamic_type3app17hd6766bc95bae6580E+0x7c>
   265e2:	2103      	movs	r1, #3
   265e4:	4628      	mov	r0, r5
   265e6:	2800      	cmp	r0, #0
   265e8:	d005      	beq.n	265f6 <_ZN20complex_dynamic_type3app17hd6766bc95bae6580E+0x8e>
   265ea:	e00c      	b.n	26606 <_ZN20complex_dynamic_type3app17hd6766bc95bae6580E+0x9e>
   265ec:	a818      	add	r0, sp, #96	@ 0x60
   265ee:	7004      	strb	r4, [r0, #0]
   265f0:	2000      	movs	r0, #0
   265f2:	2800      	cmp	r0, #0
   265f4:	d107      	bne.n	26606 <_ZN20complex_dynamic_type3app17hd6766bc95bae6580E+0x9e>
   265f6:	4826      	ldr	r0, [pc, #152]	@ (26690 <_ZN20complex_dynamic_type3app17hd6766bc95bae6580E+0x128>)
   265f8:	2108      	movs	r1, #8
   265fa:	2205      	movs	r2, #5
   265fc:	2400      	movs	r4, #0
   265fe:	4623      	mov	r3, r4
   26600:	df02      	svc	2
   26602:	287f      	cmp	r0, #127	@ 0x7f
   26604:	d80d      	bhi.n	26622 <_ZN20complex_dynamic_type3app17hd6766bc95bae6580E+0xba>
   26606:	462c      	mov	r4, r5
   26608:	2c00      	cmp	r4, #0
   2660a:	d021      	beq.n	26650 <_ZN20complex_dynamic_type3app17hd6766bc95bae6580E+0xe8>
   2660c:	2001      	movs	r0, #1
   2660e:	9a06      	ldr	r2, [sp, #24]
   26610:	7010      	strb	r0, [r2, #0]
   26612:	6051      	str	r1, [r2, #4]
   26614:	a818      	add	r0, sp, #96	@ 0x60
   26616:	7802      	ldrb	r2, [r0, #0]
   26618:	2a02      	cmp	r2, #2
   2661a:	d02e      	beq.n	2667a <_ZN20complex_dynamic_type3app17hd6766bc95bae6580E+0x112>
   2661c:	2105      	movs	r1, #5
   2661e:	4630      	mov	r0, r6
   26620:	e029      	b.n	26676 <_ZN20complex_dynamic_type3app17hd6766bc95bae6580E+0x10e>
   26622:	a807      	add	r0, sp, #28
   26624:	7802      	ldrb	r2, [r0, #0]
   26626:	2a02      	cmp	r2, #2
   26628:	d003      	beq.n	26632 <_ZN20complex_dynamic_type3app17hd6766bc95bae6580E+0xca>
   2662a:	2108      	movs	r1, #8
   2662c:	4630      	mov	r0, r6
   2662e:	f004 fe27 	bl	2b280 <_ZN9allow_pin12dynamic_type7unshare17hefa7cd45f9379b26E>
   26632:	a807      	add	r0, sp, #28
   26634:	9d02      	ldr	r5, [sp, #8]
   26636:	7005      	strb	r5, [r0, #0]
   26638:	a818      	add	r0, sp, #96	@ 0x60
   2663a:	7802      	ldrb	r2, [r0, #0]
   2663c:	2a02      	cmp	r2, #2
   2663e:	d003      	beq.n	26648 <_ZN20complex_dynamic_type3app17hd6766bc95bae6580E+0xe0>
   26640:	2105      	movs	r1, #5
   26642:	4630      	mov	r0, r6
   26644:	f004 fe1c 	bl	2b280 <_ZN9allow_pin12dynamic_type7unshare17hefa7cd45f9379b26E>
   26648:	a818      	add	r0, sp, #96	@ 0x60
   2664a:	7005      	strb	r5, [r0, #0]
   2664c:	2c00      	cmp	r4, #0
   2664e:	d1dd      	bne.n	2660c <_ZN20complex_dynamic_type3app17hd6766bc95bae6580E+0xa4>
   26650:	a818      	add	r0, sp, #96	@ 0x60
   26652:	7804      	ldrb	r4, [r0, #0]
   26654:	2c02      	cmp	r4, #2
   26656:	d001      	beq.n	2665c <_ZN20complex_dynamic_type3app17hd6766bc95bae6580E+0xf4>
   26658:	480e      	ldr	r0, [pc, #56]	@ (26694 <_ZN20complex_dynamic_type3app17hd6766bc95bae6580E+0x12c>)
   2665a:	9005      	str	r0, [sp, #20]
   2665c:	9d06      	ldr	r5, [sp, #24]
   2665e:	1c68      	adds	r0, r5, #1
   26660:	2231      	movs	r2, #49	@ 0x31
   26662:	9905      	ldr	r1, [sp, #20]
   26664:	f004 fff1 	bl	2b64a <__aeabi_memcpy>
   26668:	2000      	movs	r0, #0
   2666a:	2c02      	cmp	r4, #2
   2666c:	7028      	strb	r0, [r5, #0]
   2666e:	d004      	beq.n	2667a <_ZN20complex_dynamic_type3app17hd6766bc95bae6580E+0x112>
   26670:	2105      	movs	r1, #5
   26672:	4630      	mov	r0, r6
   26674:	4622      	mov	r2, r4
   26676:	f004 fe03 	bl	2b280 <_ZN9allow_pin12dynamic_type7unshare17hefa7cd45f9379b26E>
   2667a:	a807      	add	r0, sp, #28
   2667c:	7802      	ldrb	r2, [r0, #0]
   2667e:	2a02      	cmp	r2, #2
   26680:	d003      	beq.n	2668a <_ZN20complex_dynamic_type3app17hd6766bc95bae6580E+0x122>
   26682:	2108      	movs	r1, #8
   26684:	4630      	mov	r0, r6
   26686:	f004 fdfb 	bl	2b280 <_ZN9allow_pin12dynamic_type7unshare17hefa7cd45f9379b26E>
   2668a:	b029      	add	sp, #164	@ 0xa4
   2668c:	bdf0      	pop	{r4, r5, r6, r7, pc}
   2668e:	46c0      	nop			@ (mov r8, r8)
   26690:	00000fce 	.word	0x00000fce
   26694:	000108bb 	.word	0x000108bb

00026698 <_ZN20complex_dynamic_type3app17hd76460c5a3c6de63E>:
   26698:	b5f0      	push	{r4, r5, r6, r7, lr}
   2669a:	af03      	add	r7, sp, #12
   2669c:	b0ab      	sub	sp, #172	@ 0xac
   2669e:	9006      	str	r0, [sp, #24]
   266a0:	a807      	add	r0, sp, #28
   266a2:	2502      	movs	r5, #2
   266a4:	7005      	strb	r5, [r0, #0]
   266a6:	1c40      	adds	r0, r0, #1
   266a8:	9004      	str	r0, [sp, #16]
   266aa:	2631      	movs	r6, #49	@ 0x31
   266ac:	4632      	mov	r2, r6
   266ae:	f004 ffcc 	bl	2b64a <__aeabi_memcpy>
   266b2:	ac14      	add	r4, sp, #80	@ 0x50
   266b4:	1c60      	adds	r0, r4, #1
   266b6:	2148      	movs	r1, #72	@ 0x48
   266b8:	9005      	str	r0, [sp, #20]
   266ba:	9103      	str	r1, [sp, #12]
   266bc:	f004 fe05 	bl	2b2ca <__aeabi_memclr>
   266c0:	9502      	str	r5, [sp, #8]
   266c2:	7025      	strb	r5, [r4, #0]
   266c4:	2404      	movs	r4, #4
   266c6:	9600      	str	r6, [sp, #0]
   266c8:	9401      	str	r4, [sp, #4]
   266ca:	a827      	add	r0, sp, #156	@ 0x9c
   266cc:	4e3c      	ldr	r6, [pc, #240]	@ (267c0 <_ZN20complex_dynamic_type3app17hd76460c5a3c6de63E+0x128>)
   266ce:	4631      	mov	r1, r6
   266d0:	4622      	mov	r2, r4
   266d2:	9b04      	ldr	r3, [sp, #16]
   266d4:	f004 fde1 	bl	2b29a <_ZN9allow_pin13dynamic_allow17h33d41317a2da4f1cE>
   266d8:	9827      	ldr	r0, [sp, #156]	@ 0x9c
   266da:	2802      	cmp	r0, #2
   266dc:	d101      	bne.n	266e2 <_ZN20complex_dynamic_type3app17hd76460c5a3c6de63E+0x4a>
   266de:	9928      	ldr	r1, [sp, #160]	@ 0xa0
   266e0:	e001      	b.n	266e6 <_ZN20complex_dynamic_type3app17hd76460c5a3c6de63E+0x4e>
   266e2:	a907      	add	r1, sp, #28
   266e4:	700c      	strb	r4, [r1, #0]
   266e6:	2501      	movs	r5, #1
   266e8:	2802      	cmp	r0, #2
   266ea:	d024      	beq.n	26736 <_ZN20complex_dynamic_type3app17hd76460c5a3c6de63E+0x9e>
   266ec:	a814      	add	r0, sp, #80	@ 0x50
   266ee:	7800      	ldrb	r0, [r0, #0]
   266f0:	2802      	cmp	r0, #2
   266f2:	d10e      	bne.n	26712 <_ZN20complex_dynamic_type3app17hd76460c5a3c6de63E+0x7a>
   266f4:	2403      	movs	r4, #3
   266f6:	9803      	ldr	r0, [sp, #12]
   266f8:	9000      	str	r0, [sp, #0]
   266fa:	9401      	str	r4, [sp, #4]
   266fc:	a827      	add	r0, sp, #156	@ 0x9c
   266fe:	4631      	mov	r1, r6
   26700:	4622      	mov	r2, r4
   26702:	9b05      	ldr	r3, [sp, #20]
   26704:	f004 fdc9 	bl	2b29a <_ZN9allow_pin13dynamic_allow17h33d41317a2da4f1cE>
   26708:	9827      	ldr	r0, [sp, #156]	@ 0x9c
   2670a:	2802      	cmp	r0, #2
   2670c:	d106      	bne.n	2671c <_ZN20complex_dynamic_type3app17hd76460c5a3c6de63E+0x84>
   2670e:	9928      	ldr	r1, [sp, #160]	@ 0xa0
   26710:	e000      	b.n	26714 <_ZN20complex_dynamic_type3app17hd76460c5a3c6de63E+0x7c>
   26712:	2103      	movs	r1, #3
   26714:	4628      	mov	r0, r5
   26716:	2800      	cmp	r0, #0
   26718:	d005      	beq.n	26726 <_ZN20complex_dynamic_type3app17hd76460c5a3c6de63E+0x8e>
   2671a:	e00c      	b.n	26736 <_ZN20complex_dynamic_type3app17hd76460c5a3c6de63E+0x9e>
   2671c:	a814      	add	r0, sp, #80	@ 0x50
   2671e:	7004      	strb	r4, [r0, #0]
   26720:	2000      	movs	r0, #0
   26722:	2800      	cmp	r0, #0
   26724:	d107      	bne.n	26736 <_ZN20complex_dynamic_type3app17hd76460c5a3c6de63E+0x9e>
   26726:	4826      	ldr	r0, [pc, #152]	@ (267c0 <_ZN20complex_dynamic_type3app17hd76460c5a3c6de63E+0x128>)
   26728:	2104      	movs	r1, #4
   2672a:	2203      	movs	r2, #3
   2672c:	2400      	movs	r4, #0
   2672e:	4623      	mov	r3, r4
   26730:	df02      	svc	2
   26732:	287f      	cmp	r0, #127	@ 0x7f
   26734:	d80d      	bhi.n	26752 <_ZN20complex_dynamic_type3app17hd76460c5a3c6de63E+0xba>
   26736:	462c      	mov	r4, r5
   26738:	2c00      	cmp	r4, #0
   2673a:	d021      	beq.n	26780 <_ZN20complex_dynamic_type3app17hd76460c5a3c6de63E+0xe8>
   2673c:	2001      	movs	r0, #1
   2673e:	9a06      	ldr	r2, [sp, #24]
   26740:	7010      	strb	r0, [r2, #0]
   26742:	6051      	str	r1, [r2, #4]
   26744:	a814      	add	r0, sp, #80	@ 0x50
   26746:	7802      	ldrb	r2, [r0, #0]
   26748:	2a02      	cmp	r2, #2
   2674a:	d02e      	beq.n	267aa <_ZN20complex_dynamic_type3app17hd76460c5a3c6de63E+0x112>
   2674c:	2103      	movs	r1, #3
   2674e:	4630      	mov	r0, r6
   26750:	e029      	b.n	267a6 <_ZN20complex_dynamic_type3app17hd76460c5a3c6de63E+0x10e>
   26752:	a807      	add	r0, sp, #28
   26754:	7802      	ldrb	r2, [r0, #0]
   26756:	2a02      	cmp	r2, #2
   26758:	d003      	beq.n	26762 <_ZN20complex_dynamic_type3app17hd76460c5a3c6de63E+0xca>
   2675a:	2104      	movs	r1, #4
   2675c:	4630      	mov	r0, r6
   2675e:	f004 fd8f 	bl	2b280 <_ZN9allow_pin12dynamic_type7unshare17hefa7cd45f9379b26E>
   26762:	a807      	add	r0, sp, #28
   26764:	9d02      	ldr	r5, [sp, #8]
   26766:	7005      	strb	r5, [r0, #0]
   26768:	a814      	add	r0, sp, #80	@ 0x50
   2676a:	7802      	ldrb	r2, [r0, #0]
   2676c:	2a02      	cmp	r2, #2
   2676e:	d003      	beq.n	26778 <_ZN20complex_dynamic_type3app17hd76460c5a3c6de63E+0xe0>
   26770:	2103      	movs	r1, #3
   26772:	4630      	mov	r0, r6
   26774:	f004 fd84 	bl	2b280 <_ZN9allow_pin12dynamic_type7unshare17hefa7cd45f9379b26E>
   26778:	a814      	add	r0, sp, #80	@ 0x50
   2677a:	7005      	strb	r5, [r0, #0]
   2677c:	2c00      	cmp	r4, #0
   2677e:	d1dd      	bne.n	2673c <_ZN20complex_dynamic_type3app17hd76460c5a3c6de63E+0xa4>
   26780:	a814      	add	r0, sp, #80	@ 0x50
   26782:	7804      	ldrb	r4, [r0, #0]
   26784:	2c02      	cmp	r4, #2
   26786:	d001      	beq.n	2678c <_ZN20complex_dynamic_type3app17hd76460c5a3c6de63E+0xf4>
   26788:	480e      	ldr	r0, [pc, #56]	@ (267c4 <_ZN20complex_dynamic_type3app17hd76460c5a3c6de63E+0x12c>)
   2678a:	9005      	str	r0, [sp, #20]
   2678c:	9d06      	ldr	r5, [sp, #24]
   2678e:	1c68      	adds	r0, r5, #1
   26790:	2248      	movs	r2, #72	@ 0x48
   26792:	9905      	ldr	r1, [sp, #20]
   26794:	f004 ff59 	bl	2b64a <__aeabi_memcpy>
   26798:	2000      	movs	r0, #0
   2679a:	2c02      	cmp	r4, #2
   2679c:	7028      	strb	r0, [r5, #0]
   2679e:	d004      	beq.n	267aa <_ZN20complex_dynamic_type3app17hd76460c5a3c6de63E+0x112>
   267a0:	2103      	movs	r1, #3
   267a2:	4630      	mov	r0, r6
   267a4:	4622      	mov	r2, r4
   267a6:	f004 fd6b 	bl	2b280 <_ZN9allow_pin12dynamic_type7unshare17hefa7cd45f9379b26E>
   267aa:	a807      	add	r0, sp, #28
   267ac:	7802      	ldrb	r2, [r0, #0]
   267ae:	2a02      	cmp	r2, #2
   267b0:	d003      	beq.n	267ba <_ZN20complex_dynamic_type3app17hd76460c5a3c6de63E+0x122>
   267b2:	2104      	movs	r1, #4
   267b4:	4630      	mov	r0, r6
   267b6:	f004 fd63 	bl	2b280 <_ZN9allow_pin12dynamic_type7unshare17hefa7cd45f9379b26E>
   267ba:	b02b      	add	sp, #172	@ 0xac
   267bc:	bdf0      	pop	{r4, r5, r6, r7, pc}
   267be:	46c0      	nop			@ (mov r8, r8)
   267c0:	0000180e 	.word	0x0000180e
   267c4:	0001012c 	.word	0x0001012c

000267c8 <_ZN20complex_dynamic_type3app17hd77425c8f5c0bb6eE>:
   267c8:	b5f0      	push	{r4, r5, r6, r7, lr}
   267ca:	af03      	add	r7, sp, #12
   267cc:	b0b1      	sub	sp, #196	@ 0xc4
   267ce:	9007      	str	r0, [sp, #28]
   267d0:	a808      	add	r0, sp, #32
   267d2:	2402      	movs	r4, #2
   267d4:	7004      	strb	r4, [r0, #0]
   267d6:	1c40      	adds	r0, r0, #1
   267d8:	9005      	str	r0, [sp, #20]
   267da:	2563      	movs	r5, #99	@ 0x63
   267dc:	462a      	mov	r2, r5
   267de:	f004 ff34 	bl	2b64a <__aeabi_memcpy>
   267e2:	ae21      	add	r6, sp, #132	@ 0x84
   267e4:	1c70      	adds	r0, r6, #1
   267e6:	212c      	movs	r1, #44	@ 0x2c
   267e8:	9006      	str	r0, [sp, #24]
   267ea:	9104      	str	r1, [sp, #16]
   267ec:	f004 fd6d 	bl	2b2ca <__aeabi_memclr>
   267f0:	9403      	str	r4, [sp, #12]
   267f2:	7034      	strb	r4, [r6, #0]
   267f4:	2604      	movs	r6, #4
   267f6:	9500      	str	r5, [sp, #0]
   267f8:	9601      	str	r6, [sp, #4]
   267fa:	a82d      	add	r0, sp, #180	@ 0xb4
   267fc:	2118      	movs	r1, #24
   267fe:	2205      	movs	r2, #5
   26800:	9b05      	ldr	r3, [sp, #20]
   26802:	f004 fd4a 	bl	2b29a <_ZN9allow_pin13dynamic_allow17h33d41317a2da4f1cE>
   26806:	982d      	ldr	r0, [sp, #180]	@ 0xb4
   26808:	2802      	cmp	r0, #2
   2680a:	d101      	bne.n	26810 <_ZN20complex_dynamic_type3app17hd77425c8f5c0bb6eE+0x48>
   2680c:	992e      	ldr	r1, [sp, #184]	@ 0xb8
   2680e:	e001      	b.n	26814 <_ZN20complex_dynamic_type3app17hd77425c8f5c0bb6eE+0x4c>
   26810:	a908      	add	r1, sp, #32
   26812:	700e      	strb	r6, [r1, #0]
   26814:	2501      	movs	r5, #1
   26816:	2802      	cmp	r0, #2
   26818:	d024      	beq.n	26864 <_ZN20complex_dynamic_type3app17hd77425c8f5c0bb6eE+0x9c>
   2681a:	a821      	add	r0, sp, #132	@ 0x84
   2681c:	7800      	ldrb	r0, [r0, #0]
   2681e:	2802      	cmp	r0, #2
   26820:	d10e      	bne.n	26840 <_ZN20complex_dynamic_type3app17hd77425c8f5c0bb6eE+0x78>
   26822:	2403      	movs	r4, #3
   26824:	9804      	ldr	r0, [sp, #16]
   26826:	9000      	str	r0, [sp, #0]
   26828:	9401      	str	r4, [sp, #4]
   2682a:	a82d      	add	r0, sp, #180	@ 0xb4
   2682c:	2118      	movs	r1, #24
   2682e:	4622      	mov	r2, r4
   26830:	9b06      	ldr	r3, [sp, #24]
   26832:	f004 fd32 	bl	2b29a <_ZN9allow_pin13dynamic_allow17h33d41317a2da4f1cE>
   26836:	982d      	ldr	r0, [sp, #180]	@ 0xb4
   26838:	2802      	cmp	r0, #2
   2683a:	d106      	bne.n	2684a <_ZN20complex_dynamic_type3app17hd77425c8f5c0bb6eE+0x82>
   2683c:	992e      	ldr	r1, [sp, #184]	@ 0xb8
   2683e:	e000      	b.n	26842 <_ZN20complex_dynamic_type3app17hd77425c8f5c0bb6eE+0x7a>
   26840:	2103      	movs	r1, #3
   26842:	4628      	mov	r0, r5
   26844:	2800      	cmp	r0, #0
   26846:	d005      	beq.n	26854 <_ZN20complex_dynamic_type3app17hd77425c8f5c0bb6eE+0x8c>
   26848:	e00c      	b.n	26864 <_ZN20complex_dynamic_type3app17hd77425c8f5c0bb6eE+0x9c>
   2684a:	a821      	add	r0, sp, #132	@ 0x84
   2684c:	7004      	strb	r4, [r0, #0]
   2684e:	2000      	movs	r0, #0
   26850:	2800      	cmp	r0, #0
   26852:	d107      	bne.n	26864 <_ZN20complex_dynamic_type3app17hd77425c8f5c0bb6eE+0x9c>
   26854:	2018      	movs	r0, #24
   26856:	2105      	movs	r1, #5
   26858:	2203      	movs	r2, #3
   2685a:	2600      	movs	r6, #0
   2685c:	4633      	mov	r3, r6
   2685e:	df02      	svc	2
   26860:	287f      	cmp	r0, #127	@ 0x7f
   26862:	d80d      	bhi.n	26880 <_ZN20complex_dynamic_type3app17hd77425c8f5c0bb6eE+0xb8>
   26864:	462e      	mov	r6, r5
   26866:	2e00      	cmp	r6, #0
   26868:	d021      	beq.n	268ae <_ZN20complex_dynamic_type3app17hd77425c8f5c0bb6eE+0xe6>
   2686a:	2001      	movs	r0, #1
   2686c:	9a07      	ldr	r2, [sp, #28]
   2686e:	7010      	strb	r0, [r2, #0]
   26870:	6051      	str	r1, [r2, #4]
   26872:	a821      	add	r0, sp, #132	@ 0x84
   26874:	7802      	ldrb	r2, [r0, #0]
   26876:	2a02      	cmp	r2, #2
   26878:	d02e      	beq.n	268d8 <_ZN20complex_dynamic_type3app17hd77425c8f5c0bb6eE+0x110>
   2687a:	2018      	movs	r0, #24
   2687c:	2103      	movs	r1, #3
   2687e:	e029      	b.n	268d4 <_ZN20complex_dynamic_type3app17hd77425c8f5c0bb6eE+0x10c>
   26880:	a808      	add	r0, sp, #32
   26882:	7802      	ldrb	r2, [r0, #0]
   26884:	2a02      	cmp	r2, #2
   26886:	d003      	beq.n	26890 <_ZN20complex_dynamic_type3app17hd77425c8f5c0bb6eE+0xc8>
   26888:	2018      	movs	r0, #24
   2688a:	2105      	movs	r1, #5
   2688c:	f004 fcf8 	bl	2b280 <_ZN9allow_pin12dynamic_type7unshare17hefa7cd45f9379b26E>
   26890:	a808      	add	r0, sp, #32
   26892:	9c03      	ldr	r4, [sp, #12]
   26894:	7004      	strb	r4, [r0, #0]
   26896:	a821      	add	r0, sp, #132	@ 0x84
   26898:	7802      	ldrb	r2, [r0, #0]
   2689a:	2a02      	cmp	r2, #2
   2689c:	d003      	beq.n	268a6 <_ZN20complex_dynamic_type3app17hd77425c8f5c0bb6eE+0xde>
   2689e:	2018      	movs	r0, #24
   268a0:	2103      	movs	r1, #3
   268a2:	f004 fced 	bl	2b280 <_ZN9allow_pin12dynamic_type7unshare17hefa7cd45f9379b26E>
   268a6:	a821      	add	r0, sp, #132	@ 0x84
   268a8:	7004      	strb	r4, [r0, #0]
   268aa:	2e00      	cmp	r6, #0
   268ac:	d1dd      	bne.n	2686a <_ZN20complex_dynamic_type3app17hd77425c8f5c0bb6eE+0xa2>
   268ae:	a821      	add	r0, sp, #132	@ 0x84
   268b0:	7806      	ldrb	r6, [r0, #0]
   268b2:	2e02      	cmp	r6, #2
   268b4:	d001      	beq.n	268ba <_ZN20complex_dynamic_type3app17hd77425c8f5c0bb6eE+0xf2>
   268b6:	480d      	ldr	r0, [pc, #52]	@ (268ec <_ZN20complex_dynamic_type3app17hd77425c8f5c0bb6eE+0x124>)
   268b8:	9006      	str	r0, [sp, #24]
   268ba:	9c07      	ldr	r4, [sp, #28]
   268bc:	1c60      	adds	r0, r4, #1
   268be:	222c      	movs	r2, #44	@ 0x2c
   268c0:	9906      	ldr	r1, [sp, #24]
   268c2:	f004 fec2 	bl	2b64a <__aeabi_memcpy>
   268c6:	2000      	movs	r0, #0
   268c8:	2e02      	cmp	r6, #2
   268ca:	7020      	strb	r0, [r4, #0]
   268cc:	d004      	beq.n	268d8 <_ZN20complex_dynamic_type3app17hd77425c8f5c0bb6eE+0x110>
   268ce:	2018      	movs	r0, #24
   268d0:	2103      	movs	r1, #3
   268d2:	4632      	mov	r2, r6
   268d4:	f004 fcd4 	bl	2b280 <_ZN9allow_pin12dynamic_type7unshare17hefa7cd45f9379b26E>
   268d8:	a808      	add	r0, sp, #32
   268da:	7802      	ldrb	r2, [r0, #0]
   268dc:	2a02      	cmp	r2, #2
   268de:	d003      	beq.n	268e8 <_ZN20complex_dynamic_type3app17hd77425c8f5c0bb6eE+0x120>
   268e0:	2018      	movs	r0, #24
   268e2:	2105      	movs	r1, #5
   268e4:	f004 fccc 	bl	2b280 <_ZN9allow_pin12dynamic_type7unshare17hefa7cd45f9379b26E>
   268e8:	b031      	add	sp, #196	@ 0xc4
   268ea:	bdf0      	pop	{r4, r5, r6, r7, pc}
   268ec:	00010383 	.word	0x00010383

000268f0 <_ZN20complex_dynamic_type3app17hd7a4aad8ca7ea399E>:
   268f0:	b5f0      	push	{r4, r5, r6, r7, lr}
   268f2:	af03      	add	r7, sp, #12
   268f4:	b0a1      	sub	sp, #132	@ 0x84
   268f6:	9005      	str	r0, [sp, #20]
   268f8:	a806      	add	r0, sp, #24
   268fa:	2502      	movs	r5, #2
   268fc:	7005      	strb	r5, [r0, #0]
   268fe:	1c40      	adds	r0, r0, #1
   26900:	9003      	str	r0, [sp, #12]
   26902:	2412      	movs	r4, #18
   26904:	4622      	mov	r2, r4
   26906:	f004 fea0 	bl	2b64a <__aeabi_memcpy>
   2690a:	ae0b      	add	r6, sp, #44	@ 0x2c
   2690c:	1c70      	adds	r0, r6, #1
   2690e:	2144      	movs	r1, #68	@ 0x44
   26910:	9004      	str	r0, [sp, #16]
   26912:	9102      	str	r1, [sp, #8]
   26914:	f004 fcd9 	bl	2b2ca <__aeabi_memclr>
   26918:	7035      	strb	r5, [r6, #0]
   2691a:	2004      	movs	r0, #4
   2691c:	9400      	str	r4, [sp, #0]
   2691e:	4604      	mov	r4, r0
   26920:	9001      	str	r0, [sp, #4]
   26922:	a81d      	add	r0, sp, #116	@ 0x74
   26924:	4e3d      	ldr	r6, [pc, #244]	@ (26a1c <_ZN20complex_dynamic_type3app17hd7a4aad8ca7ea399E+0x12c>)
   26926:	4631      	mov	r1, r6
   26928:	462a      	mov	r2, r5
   2692a:	9b03      	ldr	r3, [sp, #12]
   2692c:	f004 fcb5 	bl	2b29a <_ZN9allow_pin13dynamic_allow17h33d41317a2da4f1cE>
   26930:	981d      	ldr	r0, [sp, #116]	@ 0x74
   26932:	2802      	cmp	r0, #2
   26934:	d101      	bne.n	2693a <_ZN20complex_dynamic_type3app17hd7a4aad8ca7ea399E+0x4a>
   26936:	991e      	ldr	r1, [sp, #120]	@ 0x78
   26938:	e001      	b.n	2693e <_ZN20complex_dynamic_type3app17hd7a4aad8ca7ea399E+0x4e>
   2693a:	a906      	add	r1, sp, #24
   2693c:	700c      	strb	r4, [r1, #0]
   2693e:	2501      	movs	r5, #1
   26940:	2802      	cmp	r0, #2
   26942:	d016      	beq.n	26972 <_ZN20complex_dynamic_type3app17hd7a4aad8ca7ea399E+0x82>
   26944:	a80b      	add	r0, sp, #44	@ 0x2c
   26946:	7800      	ldrb	r0, [r0, #0]
   26948:	2802      	cmp	r0, #2
   2694a:	d10e      	bne.n	2696a <_ZN20complex_dynamic_type3app17hd7a4aad8ca7ea399E+0x7a>
   2694c:	2403      	movs	r4, #3
   2694e:	9802      	ldr	r0, [sp, #8]
   26950:	9000      	str	r0, [sp, #0]
   26952:	9401      	str	r4, [sp, #4]
   26954:	a81d      	add	r0, sp, #116	@ 0x74
   26956:	2209      	movs	r2, #9
   26958:	4631      	mov	r1, r6
   2695a:	9b04      	ldr	r3, [sp, #16]
   2695c:	f004 fc9d 	bl	2b29a <_ZN9allow_pin13dynamic_allow17h33d41317a2da4f1cE>
   26960:	981d      	ldr	r0, [sp, #116]	@ 0x74
   26962:	2802      	cmp	r0, #2
   26964:	d113      	bne.n	2698e <_ZN20complex_dynamic_type3app17hd7a4aad8ca7ea399E+0x9e>
   26966:	991e      	ldr	r1, [sp, #120]	@ 0x78
   26968:	e000      	b.n	2696c <_ZN20complex_dynamic_type3app17hd7a4aad8ca7ea399E+0x7c>
   2696a:	2103      	movs	r1, #3
   2696c:	4628      	mov	r0, r5
   2696e:	2800      	cmp	r0, #0
   26970:	d012      	beq.n	26998 <_ZN20complex_dynamic_type3app17hd7a4aad8ca7ea399E+0xa8>
   26972:	462c      	mov	r4, r5
   26974:	2c00      	cmp	r4, #0
   26976:	d031      	beq.n	269dc <_ZN20complex_dynamic_type3app17hd7a4aad8ca7ea399E+0xec>
   26978:	2001      	movs	r0, #1
   2697a:	9a05      	ldr	r2, [sp, #20]
   2697c:	7010      	strb	r0, [r2, #0]
   2697e:	6051      	str	r1, [r2, #4]
   26980:	a80b      	add	r0, sp, #44	@ 0x2c
   26982:	7802      	ldrb	r2, [r0, #0]
   26984:	2a02      	cmp	r2, #2
   26986:	d03e      	beq.n	26a06 <_ZN20complex_dynamic_type3app17hd7a4aad8ca7ea399E+0x116>
   26988:	2109      	movs	r1, #9
   2698a:	4630      	mov	r0, r6
   2698c:	e039      	b.n	26a02 <_ZN20complex_dynamic_type3app17hd7a4aad8ca7ea399E+0x112>
   2698e:	a80b      	add	r0, sp, #44	@ 0x2c
   26990:	7004      	strb	r4, [r0, #0]
   26992:	2000      	movs	r0, #0
   26994:	2800      	cmp	r0, #0
   26996:	d1ec      	bne.n	26972 <_ZN20complex_dynamic_type3app17hd7a4aad8ca7ea399E+0x82>
   26998:	4820      	ldr	r0, [pc, #128]	@ (26a1c <_ZN20complex_dynamic_type3app17hd7a4aad8ca7ea399E+0x12c>)
   2699a:	2102      	movs	r1, #2
   2699c:	2209      	movs	r2, #9
   2699e:	2400      	movs	r4, #0
   269a0:	460e      	mov	r6, r1
   269a2:	4623      	mov	r3, r4
   269a4:	df02      	svc	2
   269a6:	287f      	cmp	r0, #127	@ 0x7f
   269a8:	d801      	bhi.n	269ae <_ZN20complex_dynamic_type3app17hd7a4aad8ca7ea399E+0xbe>
   269aa:	462c      	mov	r4, r5
   269ac:	e013      	b.n	269d6 <_ZN20complex_dynamic_type3app17hd7a4aad8ca7ea399E+0xe6>
   269ae:	a806      	add	r0, sp, #24
   269b0:	7802      	ldrb	r2, [r0, #0]
   269b2:	2a02      	cmp	r2, #2
   269b4:	d003      	beq.n	269be <_ZN20complex_dynamic_type3app17hd7a4aad8ca7ea399E+0xce>
   269b6:	2102      	movs	r1, #2
   269b8:	4818      	ldr	r0, [pc, #96]	@ (26a1c <_ZN20complex_dynamic_type3app17hd7a4aad8ca7ea399E+0x12c>)
   269ba:	f004 fc61 	bl	2b280 <_ZN9allow_pin12dynamic_type7unshare17hefa7cd45f9379b26E>
   269be:	a806      	add	r0, sp, #24
   269c0:	7006      	strb	r6, [r0, #0]
   269c2:	a80b      	add	r0, sp, #44	@ 0x2c
   269c4:	7802      	ldrb	r2, [r0, #0]
   269c6:	2a02      	cmp	r2, #2
   269c8:	d003      	beq.n	269d2 <_ZN20complex_dynamic_type3app17hd7a4aad8ca7ea399E+0xe2>
   269ca:	2109      	movs	r1, #9
   269cc:	4813      	ldr	r0, [pc, #76]	@ (26a1c <_ZN20complex_dynamic_type3app17hd7a4aad8ca7ea399E+0x12c>)
   269ce:	f004 fc57 	bl	2b280 <_ZN9allow_pin12dynamic_type7unshare17hefa7cd45f9379b26E>
   269d2:	a80b      	add	r0, sp, #44	@ 0x2c
   269d4:	7006      	strb	r6, [r0, #0]
   269d6:	4e11      	ldr	r6, [pc, #68]	@ (26a1c <_ZN20complex_dynamic_type3app17hd7a4aad8ca7ea399E+0x12c>)
   269d8:	2c00      	cmp	r4, #0
   269da:	d1cd      	bne.n	26978 <_ZN20complex_dynamic_type3app17hd7a4aad8ca7ea399E+0x88>
   269dc:	a80b      	add	r0, sp, #44	@ 0x2c
   269de:	7804      	ldrb	r4, [r0, #0]
   269e0:	2c02      	cmp	r4, #2
   269e2:	d001      	beq.n	269e8 <_ZN20complex_dynamic_type3app17hd7a4aad8ca7ea399E+0xf8>
   269e4:	480e      	ldr	r0, [pc, #56]	@ (26a20 <_ZN20complex_dynamic_type3app17hd7a4aad8ca7ea399E+0x130>)
   269e6:	9004      	str	r0, [sp, #16]
   269e8:	9d05      	ldr	r5, [sp, #20]
   269ea:	1c68      	adds	r0, r5, #1
   269ec:	2244      	movs	r2, #68	@ 0x44
   269ee:	9904      	ldr	r1, [sp, #16]
   269f0:	f004 fe2b 	bl	2b64a <__aeabi_memcpy>
   269f4:	2000      	movs	r0, #0
   269f6:	2c02      	cmp	r4, #2
   269f8:	7028      	strb	r0, [r5, #0]
   269fa:	d004      	beq.n	26a06 <_ZN20complex_dynamic_type3app17hd7a4aad8ca7ea399E+0x116>
   269fc:	2109      	movs	r1, #9
   269fe:	4630      	mov	r0, r6
   26a00:	4622      	mov	r2, r4
   26a02:	f004 fc3d 	bl	2b280 <_ZN9allow_pin12dynamic_type7unshare17hefa7cd45f9379b26E>
   26a06:	a806      	add	r0, sp, #24
   26a08:	7802      	ldrb	r2, [r0, #0]
   26a0a:	2a02      	cmp	r2, #2
   26a0c:	d003      	beq.n	26a16 <_ZN20complex_dynamic_type3app17hd7a4aad8ca7ea399E+0x126>
   26a0e:	2102      	movs	r1, #2
   26a10:	4630      	mov	r0, r6
   26a12:	f004 fc35 	bl	2b280 <_ZN9allow_pin12dynamic_type7unshare17hefa7cd45f9379b26E>
   26a16:	b021      	add	sp, #132	@ 0x84
   26a18:	bdf0      	pop	{r4, r5, r6, r7, pc}
   26a1a:	46c0      	nop			@ (mov r8, r8)
   26a1c:	00002432 	.word	0x00002432
   26a20:	00010959 	.word	0x00010959

00026a24 <_ZN20complex_dynamic_type3app17hd88392e2d34c96e5E>:
   26a24:	b5f0      	push	{r4, r5, r6, r7, lr}
   26a26:	af03      	add	r7, sp, #12
   26a28:	b0a9      	sub	sp, #164	@ 0xa4
   26a2a:	9007      	str	r0, [sp, #28]
   26a2c:	a808      	add	r0, sp, #32
   26a2e:	2502      	movs	r5, #2
   26a30:	7005      	strb	r5, [r0, #0]
   26a32:	1c40      	adds	r0, r0, #1
   26a34:	9005      	str	r0, [sp, #20]
   26a36:	263c      	movs	r6, #60	@ 0x3c
   26a38:	4632      	mov	r2, r6
   26a3a:	f004 fe06 	bl	2b64a <__aeabi_memcpy>
   26a3e:	ac18      	add	r4, sp, #96	@ 0x60
   26a40:	1c60      	adds	r0, r4, #1
   26a42:	2132      	movs	r1, #50	@ 0x32
   26a44:	9006      	str	r0, [sp, #24]
   26a46:	9104      	str	r1, [sp, #16]
   26a48:	f004 fc3f 	bl	2b2ca <__aeabi_memclr>
   26a4c:	9503      	str	r5, [sp, #12]
   26a4e:	7025      	strb	r5, [r4, #0]
   26a50:	2404      	movs	r4, #4
   26a52:	9600      	str	r6, [sp, #0]
   26a54:	9401      	str	r4, [sp, #4]
   26a56:	a825      	add	r0, sp, #148	@ 0x94
   26a58:	4e3c      	ldr	r6, [pc, #240]	@ (26b4c <_ZN20complex_dynamic_type3app17hd88392e2d34c96e5E+0x128>)
   26a5a:	2206      	movs	r2, #6
   26a5c:	4631      	mov	r1, r6
   26a5e:	9b05      	ldr	r3, [sp, #20]
   26a60:	f004 fc1b 	bl	2b29a <_ZN9allow_pin13dynamic_allow17h33d41317a2da4f1cE>
   26a64:	9825      	ldr	r0, [sp, #148]	@ 0x94
   26a66:	2802      	cmp	r0, #2
   26a68:	d101      	bne.n	26a6e <_ZN20complex_dynamic_type3app17hd88392e2d34c96e5E+0x4a>
   26a6a:	9926      	ldr	r1, [sp, #152]	@ 0x98
   26a6c:	e001      	b.n	26a72 <_ZN20complex_dynamic_type3app17hd88392e2d34c96e5E+0x4e>
   26a6e:	a908      	add	r1, sp, #32
   26a70:	700c      	strb	r4, [r1, #0]
   26a72:	2501      	movs	r5, #1
   26a74:	2802      	cmp	r0, #2
   26a76:	d024      	beq.n	26ac2 <_ZN20complex_dynamic_type3app17hd88392e2d34c96e5E+0x9e>
   26a78:	a818      	add	r0, sp, #96	@ 0x60
   26a7a:	7800      	ldrb	r0, [r0, #0]
   26a7c:	2802      	cmp	r0, #2
   26a7e:	d10e      	bne.n	26a9e <_ZN20complex_dynamic_type3app17hd88392e2d34c96e5E+0x7a>
   26a80:	2403      	movs	r4, #3
   26a82:	9804      	ldr	r0, [sp, #16]
   26a84:	9000      	str	r0, [sp, #0]
   26a86:	9401      	str	r4, [sp, #4]
   26a88:	a825      	add	r0, sp, #148	@ 0x94
   26a8a:	2208      	movs	r2, #8
   26a8c:	4631      	mov	r1, r6
   26a8e:	9b06      	ldr	r3, [sp, #24]
   26a90:	f004 fc03 	bl	2b29a <_ZN9allow_pin13dynamic_allow17h33d41317a2da4f1cE>
   26a94:	9825      	ldr	r0, [sp, #148]	@ 0x94
   26a96:	2802      	cmp	r0, #2
   26a98:	d106      	bne.n	26aa8 <_ZN20complex_dynamic_type3app17hd88392e2d34c96e5E+0x84>
   26a9a:	9926      	ldr	r1, [sp, #152]	@ 0x98
   26a9c:	e000      	b.n	26aa0 <_ZN20complex_dynamic_type3app17hd88392e2d34c96e5E+0x7c>
   26a9e:	2103      	movs	r1, #3
   26aa0:	4628      	mov	r0, r5
   26aa2:	2800      	cmp	r0, #0
   26aa4:	d005      	beq.n	26ab2 <_ZN20complex_dynamic_type3app17hd88392e2d34c96e5E+0x8e>
   26aa6:	e00c      	b.n	26ac2 <_ZN20complex_dynamic_type3app17hd88392e2d34c96e5E+0x9e>
   26aa8:	a818      	add	r0, sp, #96	@ 0x60
   26aaa:	7004      	strb	r4, [r0, #0]
   26aac:	2000      	movs	r0, #0
   26aae:	2800      	cmp	r0, #0
   26ab0:	d107      	bne.n	26ac2 <_ZN20complex_dynamic_type3app17hd88392e2d34c96e5E+0x9e>
   26ab2:	4826      	ldr	r0, [pc, #152]	@ (26b4c <_ZN20complex_dynamic_type3app17hd88392e2d34c96e5E+0x128>)
   26ab4:	2106      	movs	r1, #6
   26ab6:	2208      	movs	r2, #8
   26ab8:	2400      	movs	r4, #0
   26aba:	4623      	mov	r3, r4
   26abc:	df02      	svc	2
   26abe:	287f      	cmp	r0, #127	@ 0x7f
   26ac0:	d80d      	bhi.n	26ade <_ZN20complex_dynamic_type3app17hd88392e2d34c96e5E+0xba>
   26ac2:	462c      	mov	r4, r5
   26ac4:	2c00      	cmp	r4, #0
   26ac6:	d021      	beq.n	26b0c <_ZN20complex_dynamic_type3app17hd88392e2d34c96e5E+0xe8>
   26ac8:	2001      	movs	r0, #1
   26aca:	9a07      	ldr	r2, [sp, #28]
   26acc:	7010      	strb	r0, [r2, #0]
   26ace:	6051      	str	r1, [r2, #4]
   26ad0:	a818      	add	r0, sp, #96	@ 0x60
   26ad2:	7802      	ldrb	r2, [r0, #0]
   26ad4:	2a02      	cmp	r2, #2
   26ad6:	d02e      	beq.n	26b36 <_ZN20complex_dynamic_type3app17hd88392e2d34c96e5E+0x112>
   26ad8:	2108      	movs	r1, #8
   26ada:	4630      	mov	r0, r6
   26adc:	e029      	b.n	26b32 <_ZN20complex_dynamic_type3app17hd88392e2d34c96e5E+0x10e>
   26ade:	a808      	add	r0, sp, #32
   26ae0:	7802      	ldrb	r2, [r0, #0]
   26ae2:	2a02      	cmp	r2, #2
   26ae4:	d003      	beq.n	26aee <_ZN20complex_dynamic_type3app17hd88392e2d34c96e5E+0xca>
   26ae6:	2106      	movs	r1, #6
   26ae8:	4630      	mov	r0, r6
   26aea:	f004 fbc9 	bl	2b280 <_ZN9allow_pin12dynamic_type7unshare17hefa7cd45f9379b26E>
   26aee:	a808      	add	r0, sp, #32
   26af0:	9d03      	ldr	r5, [sp, #12]
   26af2:	7005      	strb	r5, [r0, #0]
   26af4:	a818      	add	r0, sp, #96	@ 0x60
   26af6:	7802      	ldrb	r2, [r0, #0]
   26af8:	2a02      	cmp	r2, #2
   26afa:	d003      	beq.n	26b04 <_ZN20complex_dynamic_type3app17hd88392e2d34c96e5E+0xe0>
   26afc:	2108      	movs	r1, #8
   26afe:	4630      	mov	r0, r6
   26b00:	f004 fbbe 	bl	2b280 <_ZN9allow_pin12dynamic_type7unshare17hefa7cd45f9379b26E>
   26b04:	a818      	add	r0, sp, #96	@ 0x60
   26b06:	7005      	strb	r5, [r0, #0]
   26b08:	2c00      	cmp	r4, #0
   26b0a:	d1dd      	bne.n	26ac8 <_ZN20complex_dynamic_type3app17hd88392e2d34c96e5E+0xa4>
   26b0c:	a818      	add	r0, sp, #96	@ 0x60
   26b0e:	7804      	ldrb	r4, [r0, #0]
   26b10:	2c02      	cmp	r4, #2
   26b12:	d001      	beq.n	26b18 <_ZN20complex_dynamic_type3app17hd88392e2d34c96e5E+0xf4>
   26b14:	480e      	ldr	r0, [pc, #56]	@ (26b50 <_ZN20complex_dynamic_type3app17hd88392e2d34c96e5E+0x12c>)
   26b16:	9006      	str	r0, [sp, #24]
   26b18:	9d07      	ldr	r5, [sp, #28]
   26b1a:	1c68      	adds	r0, r5, #1
   26b1c:	2232      	movs	r2, #50	@ 0x32
   26b1e:	9906      	ldr	r1, [sp, #24]
   26b20:	f004 fd93 	bl	2b64a <__aeabi_memcpy>
   26b24:	2000      	movs	r0, #0
   26b26:	2c02      	cmp	r4, #2
   26b28:	7028      	strb	r0, [r5, #0]
   26b2a:	d004      	beq.n	26b36 <_ZN20complex_dynamic_type3app17hd88392e2d34c96e5E+0x112>
   26b2c:	2108      	movs	r1, #8
   26b2e:	4630      	mov	r0, r6
   26b30:	4622      	mov	r2, r4
   26b32:	f004 fba5 	bl	2b280 <_ZN9allow_pin12dynamic_type7unshare17hefa7cd45f9379b26E>
   26b36:	a808      	add	r0, sp, #32
   26b38:	7802      	ldrb	r2, [r0, #0]
   26b3a:	2a02      	cmp	r2, #2
   26b3c:	d003      	beq.n	26b46 <_ZN20complex_dynamic_type3app17hd88392e2d34c96e5E+0x122>
   26b3e:	2106      	movs	r1, #6
   26b40:	4630      	mov	r0, r6
   26b42:	f004 fb9d 	bl	2b280 <_ZN9allow_pin12dynamic_type7unshare17hefa7cd45f9379b26E>
   26b46:	b029      	add	sp, #164	@ 0xa4
   26b48:	bdf0      	pop	{r4, r5, r6, r7, pc}
   26b4a:	46c0      	nop			@ (mov r8, r8)
   26b4c:	00001b1e 	.word	0x00001b1e
   26b50:	00010174 	.word	0x00010174

00026b54 <_ZN20complex_dynamic_type3app17he223d3423dbf9d90E>:
   26b54:	b5f0      	push	{r4, r5, r6, r7, lr}
   26b56:	af03      	add	r7, sp, #12
   26b58:	b0ab      	sub	sp, #172	@ 0xac
   26b5a:	9007      	str	r0, [sp, #28]
   26b5c:	a808      	add	r0, sp, #32
   26b5e:	2602      	movs	r6, #2
   26b60:	7006      	strb	r6, [r0, #0]
   26b62:	1c40      	adds	r0, r0, #1
   26b64:	9005      	str	r0, [sp, #20]
   26b66:	2427      	movs	r4, #39	@ 0x27
   26b68:	4622      	mov	r2, r4
   26b6a:	f004 fd6e 	bl	2b64a <__aeabi_memcpy>
   26b6e:	ad12      	add	r5, sp, #72	@ 0x48
   26b70:	1c68      	adds	r0, r5, #1
   26b72:	2151      	movs	r1, #81	@ 0x51
   26b74:	9006      	str	r0, [sp, #24]
   26b76:	9104      	str	r1, [sp, #16]
   26b78:	f004 fba7 	bl	2b2ca <__aeabi_memclr>
   26b7c:	9603      	str	r6, [sp, #12]
   26b7e:	702e      	strb	r6, [r5, #0]
   26b80:	2504      	movs	r5, #4
   26b82:	9400      	str	r4, [sp, #0]
   26b84:	9501      	str	r5, [sp, #4]
   26b86:	a827      	add	r0, sp, #156	@ 0x9c
   26b88:	493b      	ldr	r1, [pc, #236]	@ (26c78 <_ZN20complex_dynamic_type3app17he223d3423dbf9d90E+0x124>)
   26b8a:	2400      	movs	r4, #0
   26b8c:	4622      	mov	r2, r4
   26b8e:	9b05      	ldr	r3, [sp, #20]
   26b90:	f004 fb83 	bl	2b29a <_ZN9allow_pin13dynamic_allow17h33d41317a2da4f1cE>
   26b94:	9827      	ldr	r0, [sp, #156]	@ 0x9c
   26b96:	2802      	cmp	r0, #2
   26b98:	d101      	bne.n	26b9e <_ZN20complex_dynamic_type3app17he223d3423dbf9d90E+0x4a>
   26b9a:	9928      	ldr	r1, [sp, #160]	@ 0xa0
   26b9c:	e001      	b.n	26ba2 <_ZN20complex_dynamic_type3app17he223d3423dbf9d90E+0x4e>
   26b9e:	a908      	add	r1, sp, #32
   26ba0:	700d      	strb	r5, [r1, #0]
   26ba2:	2601      	movs	r6, #1
   26ba4:	2802      	cmp	r0, #2
   26ba6:	d023      	beq.n	26bf0 <_ZN20complex_dynamic_type3app17he223d3423dbf9d90E+0x9c>
   26ba8:	a812      	add	r0, sp, #72	@ 0x48
   26baa:	7800      	ldrb	r0, [r0, #0]
   26bac:	2802      	cmp	r0, #2
   26bae:	d10e      	bne.n	26bce <_ZN20complex_dynamic_type3app17he223d3423dbf9d90E+0x7a>
   26bb0:	2503      	movs	r5, #3
   26bb2:	9804      	ldr	r0, [sp, #16]
   26bb4:	9000      	str	r0, [sp, #0]
   26bb6:	9501      	str	r5, [sp, #4]
   26bb8:	a827      	add	r0, sp, #156	@ 0x9c
   26bba:	2204      	movs	r2, #4
   26bbc:	492e      	ldr	r1, [pc, #184]	@ (26c78 <_ZN20complex_dynamic_type3app17he223d3423dbf9d90E+0x124>)
   26bbe:	9b06      	ldr	r3, [sp, #24]
   26bc0:	f004 fb6b 	bl	2b29a <_ZN9allow_pin13dynamic_allow17h33d41317a2da4f1cE>
   26bc4:	9827      	ldr	r0, [sp, #156]	@ 0x9c
   26bc6:	2802      	cmp	r0, #2
   26bc8:	d106      	bne.n	26bd8 <_ZN20complex_dynamic_type3app17he223d3423dbf9d90E+0x84>
   26bca:	9928      	ldr	r1, [sp, #160]	@ 0xa0
   26bcc:	e000      	b.n	26bd0 <_ZN20complex_dynamic_type3app17he223d3423dbf9d90E+0x7c>
   26bce:	2103      	movs	r1, #3
   26bd0:	4634      	mov	r4, r6
   26bd2:	2c00      	cmp	r4, #0
   26bd4:	d004      	beq.n	26be0 <_ZN20complex_dynamic_type3app17he223d3423dbf9d90E+0x8c>
   26bd6:	e00b      	b.n	26bf0 <_ZN20complex_dynamic_type3app17he223d3423dbf9d90E+0x9c>
   26bd8:	a812      	add	r0, sp, #72	@ 0x48
   26bda:	7005      	strb	r5, [r0, #0]
   26bdc:	2c00      	cmp	r4, #0
   26bde:	d107      	bne.n	26bf0 <_ZN20complex_dynamic_type3app17he223d3423dbf9d90E+0x9c>
   26be0:	4825      	ldr	r0, [pc, #148]	@ (26c78 <_ZN20complex_dynamic_type3app17he223d3423dbf9d90E+0x124>)
   26be2:	2204      	movs	r2, #4
   26be4:	2400      	movs	r4, #0
   26be6:	4621      	mov	r1, r4
   26be8:	4623      	mov	r3, r4
   26bea:	df02      	svc	2
   26bec:	287f      	cmp	r0, #127	@ 0x7f
   26bee:	d80d      	bhi.n	26c0c <_ZN20complex_dynamic_type3app17he223d3423dbf9d90E+0xb8>
   26bf0:	4634      	mov	r4, r6
   26bf2:	2c00      	cmp	r4, #0
   26bf4:	d021      	beq.n	26c3a <_ZN20complex_dynamic_type3app17he223d3423dbf9d90E+0xe6>
   26bf6:	2001      	movs	r0, #1
   26bf8:	9a07      	ldr	r2, [sp, #28]
   26bfa:	7010      	strb	r0, [r2, #0]
   26bfc:	6051      	str	r1, [r2, #4]
   26bfe:	a812      	add	r0, sp, #72	@ 0x48
   26c00:	7802      	ldrb	r2, [r0, #0]
   26c02:	2a02      	cmp	r2, #2
   26c04:	d02e      	beq.n	26c64 <_ZN20complex_dynamic_type3app17he223d3423dbf9d90E+0x110>
   26c06:	2104      	movs	r1, #4
   26c08:	481b      	ldr	r0, [pc, #108]	@ (26c78 <_ZN20complex_dynamic_type3app17he223d3423dbf9d90E+0x124>)
   26c0a:	e029      	b.n	26c60 <_ZN20complex_dynamic_type3app17he223d3423dbf9d90E+0x10c>
   26c0c:	a808      	add	r0, sp, #32
   26c0e:	7802      	ldrb	r2, [r0, #0]
   26c10:	2a02      	cmp	r2, #2
   26c12:	d003      	beq.n	26c1c <_ZN20complex_dynamic_type3app17he223d3423dbf9d90E+0xc8>
   26c14:	2100      	movs	r1, #0
   26c16:	4818      	ldr	r0, [pc, #96]	@ (26c78 <_ZN20complex_dynamic_type3app17he223d3423dbf9d90E+0x124>)
   26c18:	f004 fb32 	bl	2b280 <_ZN9allow_pin12dynamic_type7unshare17hefa7cd45f9379b26E>
   26c1c:	a808      	add	r0, sp, #32
   26c1e:	9d03      	ldr	r5, [sp, #12]
   26c20:	7005      	strb	r5, [r0, #0]
   26c22:	a812      	add	r0, sp, #72	@ 0x48
   26c24:	7802      	ldrb	r2, [r0, #0]
   26c26:	2a02      	cmp	r2, #2
   26c28:	d003      	beq.n	26c32 <_ZN20complex_dynamic_type3app17he223d3423dbf9d90E+0xde>
   26c2a:	2104      	movs	r1, #4
   26c2c:	4812      	ldr	r0, [pc, #72]	@ (26c78 <_ZN20complex_dynamic_type3app17he223d3423dbf9d90E+0x124>)
   26c2e:	f004 fb27 	bl	2b280 <_ZN9allow_pin12dynamic_type7unshare17hefa7cd45f9379b26E>
   26c32:	a812      	add	r0, sp, #72	@ 0x48
   26c34:	7005      	strb	r5, [r0, #0]
   26c36:	2c00      	cmp	r4, #0
   26c38:	d1dd      	bne.n	26bf6 <_ZN20complex_dynamic_type3app17he223d3423dbf9d90E+0xa2>
   26c3a:	a812      	add	r0, sp, #72	@ 0x48
   26c3c:	7804      	ldrb	r4, [r0, #0]
   26c3e:	2c02      	cmp	r4, #2
   26c40:	d001      	beq.n	26c46 <_ZN20complex_dynamic_type3app17he223d3423dbf9d90E+0xf2>
   26c42:	480e      	ldr	r0, [pc, #56]	@ (26c7c <_ZN20complex_dynamic_type3app17he223d3423dbf9d90E+0x128>)
   26c44:	9006      	str	r0, [sp, #24]
   26c46:	9d07      	ldr	r5, [sp, #28]
   26c48:	1c68      	adds	r0, r5, #1
   26c4a:	2251      	movs	r2, #81	@ 0x51
   26c4c:	9906      	ldr	r1, [sp, #24]
   26c4e:	f004 fcfc 	bl	2b64a <__aeabi_memcpy>
   26c52:	2000      	movs	r0, #0
   26c54:	2c02      	cmp	r4, #2
   26c56:	7028      	strb	r0, [r5, #0]
   26c58:	d004      	beq.n	26c64 <_ZN20complex_dynamic_type3app17he223d3423dbf9d90E+0x110>
   26c5a:	2104      	movs	r1, #4
   26c5c:	4806      	ldr	r0, [pc, #24]	@ (26c78 <_ZN20complex_dynamic_type3app17he223d3423dbf9d90E+0x124>)
   26c5e:	4622      	mov	r2, r4
   26c60:	f004 fb0e 	bl	2b280 <_ZN9allow_pin12dynamic_type7unshare17hefa7cd45f9379b26E>
   26c64:	a808      	add	r0, sp, #32
   26c66:	7802      	ldrb	r2, [r0, #0]
   26c68:	2a02      	cmp	r2, #2
   26c6a:	d003      	beq.n	26c74 <_ZN20complex_dynamic_type3app17he223d3423dbf9d90E+0x120>
   26c6c:	2100      	movs	r1, #0
   26c6e:	4802      	ldr	r0, [pc, #8]	@ (26c78 <_ZN20complex_dynamic_type3app17he223d3423dbf9d90E+0x124>)
   26c70:	f004 fb06 	bl	2b280 <_ZN9allow_pin12dynamic_type7unshare17hefa7cd45f9379b26E>
   26c74:	b02b      	add	sp, #172	@ 0xac
   26c76:	bdf0      	pop	{r4, r5, r6, r7, pc}
   26c78:	00000a36 	.word	0x00000a36
   26c7c:	0001022b 	.word	0x0001022b

00026c80 <_ZN20complex_dynamic_type3app17he24eb1a2b55d035fE>:
   26c80:	b5f0      	push	{r4, r5, r6, r7, lr}
   26c82:	af03      	add	r7, sp, #12
   26c84:	b0a3      	sub	sp, #140	@ 0x8c
   26c86:	9007      	str	r0, [sp, #28]
   26c88:	a808      	add	r0, sp, #32
   26c8a:	2602      	movs	r6, #2
   26c8c:	7006      	strb	r6, [r0, #0]
   26c8e:	1c40      	adds	r0, r0, #1
   26c90:	9005      	str	r0, [sp, #20]
   26c92:	252c      	movs	r5, #44	@ 0x2c
   26c94:	462a      	mov	r2, r5
   26c96:	f004 fcd8 	bl	2b64a <__aeabi_memcpy>
   26c9a:	ac14      	add	r4, sp, #80	@ 0x50
   26c9c:	1c60      	adds	r0, r4, #1
   26c9e:	212a      	movs	r1, #42	@ 0x2a
   26ca0:	9006      	str	r0, [sp, #24]
   26ca2:	9104      	str	r1, [sp, #16]
   26ca4:	f004 fb11 	bl	2b2ca <__aeabi_memclr>
   26ca8:	9603      	str	r6, [sp, #12]
   26caa:	7026      	strb	r6, [r4, #0]
   26cac:	2404      	movs	r4, #4
   26cae:	9500      	str	r5, [sp, #0]
   26cb0:	9401      	str	r4, [sp, #4]
   26cb2:	a81f      	add	r0, sp, #124	@ 0x7c
   26cb4:	493f      	ldr	r1, [pc, #252]	@ (26db4 <_ZN20complex_dynamic_type3app17he24eb1a2b55d035fE+0x134>)
   26cb6:	2503      	movs	r5, #3
   26cb8:	462a      	mov	r2, r5
   26cba:	9b05      	ldr	r3, [sp, #20]
   26cbc:	f004 faed 	bl	2b29a <_ZN9allow_pin13dynamic_allow17h33d41317a2da4f1cE>
   26cc0:	981f      	ldr	r0, [sp, #124]	@ 0x7c
   26cc2:	2802      	cmp	r0, #2
   26cc4:	d101      	bne.n	26cca <_ZN20complex_dynamic_type3app17he24eb1a2b55d035fE+0x4a>
   26cc6:	9920      	ldr	r1, [sp, #128]	@ 0x80
   26cc8:	e001      	b.n	26cce <_ZN20complex_dynamic_type3app17he24eb1a2b55d035fE+0x4e>
   26cca:	a908      	add	r1, sp, #32
   26ccc:	700c      	strb	r4, [r1, #0]
   26cce:	2401      	movs	r4, #1
   26cd0:	2802      	cmp	r0, #2
   26cd2:	d02b      	beq.n	26d2c <_ZN20complex_dynamic_type3app17he24eb1a2b55d035fE+0xac>
   26cd4:	a814      	add	r0, sp, #80	@ 0x50
   26cd6:	7800      	ldrb	r0, [r0, #0]
   26cd8:	2802      	cmp	r0, #2
   26cda:	4626      	mov	r6, r4
   26cdc:	d111      	bne.n	26d02 <_ZN20complex_dynamic_type3app17he24eb1a2b55d035fE+0x82>
   26cde:	9405      	str	r4, [sp, #20]
   26ce0:	2403      	movs	r4, #3
   26ce2:	9804      	ldr	r0, [sp, #16]
   26ce4:	9000      	str	r0, [sp, #0]
   26ce6:	9401      	str	r4, [sp, #4]
   26ce8:	a81f      	add	r0, sp, #124	@ 0x7c
   26cea:	2600      	movs	r6, #0
   26cec:	4931      	ldr	r1, [pc, #196]	@ (26db4 <_ZN20complex_dynamic_type3app17he24eb1a2b55d035fE+0x134>)
   26cee:	4632      	mov	r2, r6
   26cf0:	9b06      	ldr	r3, [sp, #24]
   26cf2:	f004 fad2 	bl	2b29a <_ZN9allow_pin13dynamic_allow17h33d41317a2da4f1cE>
   26cf6:	981f      	ldr	r0, [sp, #124]	@ 0x7c
   26cf8:	2802      	cmp	r0, #2
   26cfa:	d108      	bne.n	26d0e <_ZN20complex_dynamic_type3app17he24eb1a2b55d035fE+0x8e>
   26cfc:	9d20      	ldr	r5, [sp, #128]	@ 0x80
   26cfe:	9c05      	ldr	r4, [sp, #20]
   26d00:	4626      	mov	r6, r4
   26d02:	2e00      	cmp	r6, #0
   26d04:	d008      	beq.n	26d18 <_ZN20complex_dynamic_type3app17he24eb1a2b55d035fE+0x98>
   26d06:	4629      	mov	r1, r5
   26d08:	2c00      	cmp	r4, #0
   26d0a:	d111      	bne.n	26d30 <_ZN20complex_dynamic_type3app17he24eb1a2b55d035fE+0xb0>
   26d0c:	e032      	b.n	26d74 <_ZN20complex_dynamic_type3app17he24eb1a2b55d035fE+0xf4>
   26d0e:	a814      	add	r0, sp, #80	@ 0x50
   26d10:	7004      	strb	r4, [r0, #0]
   26d12:	9c05      	ldr	r4, [sp, #20]
   26d14:	2e00      	cmp	r6, #0
   26d16:	d1f6      	bne.n	26d06 <_ZN20complex_dynamic_type3app17he24eb1a2b55d035fE+0x86>
   26d18:	4625      	mov	r5, r4
   26d1a:	4826      	ldr	r0, [pc, #152]	@ (26db4 <_ZN20complex_dynamic_type3app17he24eb1a2b55d035fE+0x134>)
   26d1c:	2103      	movs	r1, #3
   26d1e:	2400      	movs	r4, #0
   26d20:	4622      	mov	r2, r4
   26d22:	4623      	mov	r3, r4
   26d24:	df02      	svc	2
   26d26:	287f      	cmp	r0, #127	@ 0x7f
   26d28:	d80d      	bhi.n	26d46 <_ZN20complex_dynamic_type3app17he24eb1a2b55d035fE+0xc6>
   26d2a:	462c      	mov	r4, r5
   26d2c:	2c00      	cmp	r4, #0
   26d2e:	d021      	beq.n	26d74 <_ZN20complex_dynamic_type3app17he24eb1a2b55d035fE+0xf4>
   26d30:	2001      	movs	r0, #1
   26d32:	9a07      	ldr	r2, [sp, #28]
   26d34:	7010      	strb	r0, [r2, #0]
   26d36:	6051      	str	r1, [r2, #4]
   26d38:	a814      	add	r0, sp, #80	@ 0x50
   26d3a:	7802      	ldrb	r2, [r0, #0]
   26d3c:	2a02      	cmp	r2, #2
   26d3e:	d02e      	beq.n	26d9e <_ZN20complex_dynamic_type3app17he24eb1a2b55d035fE+0x11e>
   26d40:	2100      	movs	r1, #0
   26d42:	481c      	ldr	r0, [pc, #112]	@ (26db4 <_ZN20complex_dynamic_type3app17he24eb1a2b55d035fE+0x134>)
   26d44:	e029      	b.n	26d9a <_ZN20complex_dynamic_type3app17he24eb1a2b55d035fE+0x11a>
   26d46:	a808      	add	r0, sp, #32
   26d48:	7802      	ldrb	r2, [r0, #0]
   26d4a:	2a02      	cmp	r2, #2
   26d4c:	d003      	beq.n	26d56 <_ZN20complex_dynamic_type3app17he24eb1a2b55d035fE+0xd6>
   26d4e:	2103      	movs	r1, #3
   26d50:	4818      	ldr	r0, [pc, #96]	@ (26db4 <_ZN20complex_dynamic_type3app17he24eb1a2b55d035fE+0x134>)
   26d52:	f004 fa95 	bl	2b280 <_ZN9allow_pin12dynamic_type7unshare17hefa7cd45f9379b26E>
   26d56:	a808      	add	r0, sp, #32
   26d58:	9d03      	ldr	r5, [sp, #12]
   26d5a:	7005      	strb	r5, [r0, #0]
   26d5c:	a814      	add	r0, sp, #80	@ 0x50
   26d5e:	7802      	ldrb	r2, [r0, #0]
   26d60:	2a02      	cmp	r2, #2
   26d62:	d003      	beq.n	26d6c <_ZN20complex_dynamic_type3app17he24eb1a2b55d035fE+0xec>
   26d64:	2100      	movs	r1, #0
   26d66:	4813      	ldr	r0, [pc, #76]	@ (26db4 <_ZN20complex_dynamic_type3app17he24eb1a2b55d035fE+0x134>)
   26d68:	f004 fa8a 	bl	2b280 <_ZN9allow_pin12dynamic_type7unshare17hefa7cd45f9379b26E>
   26d6c:	a814      	add	r0, sp, #80	@ 0x50
   26d6e:	7005      	strb	r5, [r0, #0]
   26d70:	2c00      	cmp	r4, #0
   26d72:	d1dd      	bne.n	26d30 <_ZN20complex_dynamic_type3app17he24eb1a2b55d035fE+0xb0>
   26d74:	a814      	add	r0, sp, #80	@ 0x50
   26d76:	7804      	ldrb	r4, [r0, #0]
   26d78:	2c02      	cmp	r4, #2
   26d7a:	d001      	beq.n	26d80 <_ZN20complex_dynamic_type3app17he24eb1a2b55d035fE+0x100>
   26d7c:	480e      	ldr	r0, [pc, #56]	@ (26db8 <_ZN20complex_dynamic_type3app17he24eb1a2b55d035fE+0x138>)
   26d7e:	9006      	str	r0, [sp, #24]
   26d80:	9d07      	ldr	r5, [sp, #28]
   26d82:	1c68      	adds	r0, r5, #1
   26d84:	222a      	movs	r2, #42	@ 0x2a
   26d86:	9906      	ldr	r1, [sp, #24]
   26d88:	f004 fc5f 	bl	2b64a <__aeabi_memcpy>
   26d8c:	2000      	movs	r0, #0
   26d8e:	2c02      	cmp	r4, #2
   26d90:	7028      	strb	r0, [r5, #0]
   26d92:	d004      	beq.n	26d9e <_ZN20complex_dynamic_type3app17he24eb1a2b55d035fE+0x11e>
   26d94:	2100      	movs	r1, #0
   26d96:	4807      	ldr	r0, [pc, #28]	@ (26db4 <_ZN20complex_dynamic_type3app17he24eb1a2b55d035fE+0x134>)
   26d98:	4622      	mov	r2, r4
   26d9a:	f004 fa71 	bl	2b280 <_ZN9allow_pin12dynamic_type7unshare17hefa7cd45f9379b26E>
   26d9e:	a808      	add	r0, sp, #32
   26da0:	7802      	ldrb	r2, [r0, #0]
   26da2:	2a02      	cmp	r2, #2
   26da4:	d003      	beq.n	26dae <_ZN20complex_dynamic_type3app17he24eb1a2b55d035fE+0x12e>
   26da6:	2103      	movs	r1, #3
   26da8:	4802      	ldr	r0, [pc, #8]	@ (26db4 <_ZN20complex_dynamic_type3app17he24eb1a2b55d035fE+0x134>)
   26daa:	f004 fa69 	bl	2b280 <_ZN9allow_pin12dynamic_type7unshare17hefa7cd45f9379b26E>
   26dae:	b023      	add	sp, #140	@ 0x8c
   26db0:	bdf0      	pop	{r4, r5, r6, r7, pc}
   26db2:	46c0      	nop			@ (mov r8, r8)
   26db4:	000024f0 	.word	0x000024f0
   26db8:	000100e4 	.word	0x000100e4

00026dbc <_ZN20complex_dynamic_type3app17he5900e5753a59fc2E>:
   26dbc:	b5f0      	push	{r4, r5, r6, r7, lr}
   26dbe:	af03      	add	r7, sp, #12
   26dc0:	b0b5      	sub	sp, #212	@ 0xd4
   26dc2:	9007      	str	r0, [sp, #28]
   26dc4:	a808      	add	r0, sp, #32
   26dc6:	2502      	movs	r5, #2
   26dc8:	7005      	strb	r5, [r0, #0]
   26dca:	1c40      	adds	r0, r0, #1
   26dcc:	9005      	str	r0, [sp, #20]
   26dce:	265d      	movs	r6, #93	@ 0x5d
   26dd0:	4632      	mov	r2, r6
   26dd2:	f004 fc3a 	bl	2b64a <__aeabi_memcpy>
   26dd6:	ac20      	add	r4, sp, #128	@ 0x80
   26dd8:	1c60      	adds	r0, r4, #1
   26dda:	2140      	movs	r1, #64	@ 0x40
   26ddc:	9006      	str	r0, [sp, #24]
   26dde:	9104      	str	r1, [sp, #16]
   26de0:	f004 fa73 	bl	2b2ca <__aeabi_memclr>
   26de4:	9503      	str	r5, [sp, #12]
   26de6:	7025      	strb	r5, [r4, #0]
   26de8:	2404      	movs	r4, #4
   26dea:	9600      	str	r6, [sp, #0]
   26dec:	9401      	str	r4, [sp, #4]
   26dee:	a831      	add	r0, sp, #196	@ 0xc4
   26df0:	4e3c      	ldr	r6, [pc, #240]	@ (26ee4 <_ZN20complex_dynamic_type3app17he5900e5753a59fc2E+0x128>)
   26df2:	2208      	movs	r2, #8
   26df4:	4631      	mov	r1, r6
   26df6:	9b05      	ldr	r3, [sp, #20]
   26df8:	f004 fa4f 	bl	2b29a <_ZN9allow_pin13dynamic_allow17h33d41317a2da4f1cE>
   26dfc:	9831      	ldr	r0, [sp, #196]	@ 0xc4
   26dfe:	2802      	cmp	r0, #2
   26e00:	d101      	bne.n	26e06 <_ZN20complex_dynamic_type3app17he5900e5753a59fc2E+0x4a>
   26e02:	9932      	ldr	r1, [sp, #200]	@ 0xc8
   26e04:	e001      	b.n	26e0a <_ZN20complex_dynamic_type3app17he5900e5753a59fc2E+0x4e>
   26e06:	a908      	add	r1, sp, #32
   26e08:	700c      	strb	r4, [r1, #0]
   26e0a:	2501      	movs	r5, #1
   26e0c:	2802      	cmp	r0, #2
   26e0e:	d024      	beq.n	26e5a <_ZN20complex_dynamic_type3app17he5900e5753a59fc2E+0x9e>
   26e10:	a820      	add	r0, sp, #128	@ 0x80
   26e12:	7800      	ldrb	r0, [r0, #0]
   26e14:	2802      	cmp	r0, #2
   26e16:	d10e      	bne.n	26e36 <_ZN20complex_dynamic_type3app17he5900e5753a59fc2E+0x7a>
   26e18:	2403      	movs	r4, #3
   26e1a:	9804      	ldr	r0, [sp, #16]
   26e1c:	9000      	str	r0, [sp, #0]
   26e1e:	9401      	str	r4, [sp, #4]
   26e20:	a831      	add	r0, sp, #196	@ 0xc4
   26e22:	2204      	movs	r2, #4
   26e24:	4631      	mov	r1, r6
   26e26:	9b06      	ldr	r3, [sp, #24]
   26e28:	f004 fa37 	bl	2b29a <_ZN9allow_pin13dynamic_allow17h33d41317a2da4f1cE>
   26e2c:	9831      	ldr	r0, [sp, #196]	@ 0xc4
   26e2e:	2802      	cmp	r0, #2
   26e30:	d106      	bne.n	26e40 <_ZN20complex_dynamic_type3app17he5900e5753a59fc2E+0x84>
   26e32:	9932      	ldr	r1, [sp, #200]	@ 0xc8
   26e34:	e000      	b.n	26e38 <_ZN20complex_dynamic_type3app17he5900e5753a59fc2E+0x7c>
   26e36:	2103      	movs	r1, #3
   26e38:	4628      	mov	r0, r5
   26e3a:	2800      	cmp	r0, #0
   26e3c:	d005      	beq.n	26e4a <_ZN20complex_dynamic_type3app17he5900e5753a59fc2E+0x8e>
   26e3e:	e00c      	b.n	26e5a <_ZN20complex_dynamic_type3app17he5900e5753a59fc2E+0x9e>
   26e40:	a820      	add	r0, sp, #128	@ 0x80
   26e42:	7004      	strb	r4, [r0, #0]
   26e44:	2000      	movs	r0, #0
   26e46:	2800      	cmp	r0, #0
   26e48:	d107      	bne.n	26e5a <_ZN20complex_dynamic_type3app17he5900e5753a59fc2E+0x9e>
   26e4a:	4826      	ldr	r0, [pc, #152]	@ (26ee4 <_ZN20complex_dynamic_type3app17he5900e5753a59fc2E+0x128>)
   26e4c:	2108      	movs	r1, #8
   26e4e:	2204      	movs	r2, #4
   26e50:	2400      	movs	r4, #0
   26e52:	4623      	mov	r3, r4
   26e54:	df02      	svc	2
   26e56:	287f      	cmp	r0, #127	@ 0x7f
   26e58:	d80d      	bhi.n	26e76 <_ZN20complex_dynamic_type3app17he5900e5753a59fc2E+0xba>
   26e5a:	462c      	mov	r4, r5
   26e5c:	2c00      	cmp	r4, #0
   26e5e:	d021      	beq.n	26ea4 <_ZN20complex_dynamic_type3app17he5900e5753a59fc2E+0xe8>
   26e60:	2001      	movs	r0, #1
   26e62:	9a07      	ldr	r2, [sp, #28]
   26e64:	7010      	strb	r0, [r2, #0]
   26e66:	6051      	str	r1, [r2, #4]
   26e68:	a820      	add	r0, sp, #128	@ 0x80
   26e6a:	7802      	ldrb	r2, [r0, #0]
   26e6c:	2a02      	cmp	r2, #2
   26e6e:	d02e      	beq.n	26ece <_ZN20complex_dynamic_type3app17he5900e5753a59fc2E+0x112>
   26e70:	2104      	movs	r1, #4
   26e72:	4630      	mov	r0, r6
   26e74:	e029      	b.n	26eca <_ZN20complex_dynamic_type3app17he5900e5753a59fc2E+0x10e>
   26e76:	a808      	add	r0, sp, #32
   26e78:	7802      	ldrb	r2, [r0, #0]
   26e7a:	2a02      	cmp	r2, #2
   26e7c:	d003      	beq.n	26e86 <_ZN20complex_dynamic_type3app17he5900e5753a59fc2E+0xca>
   26e7e:	2108      	movs	r1, #8
   26e80:	4630      	mov	r0, r6
   26e82:	f004 f9fd 	bl	2b280 <_ZN9allow_pin12dynamic_type7unshare17hefa7cd45f9379b26E>
   26e86:	a808      	add	r0, sp, #32
   26e88:	9d03      	ldr	r5, [sp, #12]
   26e8a:	7005      	strb	r5, [r0, #0]
   26e8c:	a820      	add	r0, sp, #128	@ 0x80
   26e8e:	7802      	ldrb	r2, [r0, #0]
   26e90:	2a02      	cmp	r2, #2
   26e92:	d003      	beq.n	26e9c <_ZN20complex_dynamic_type3app17he5900e5753a59fc2E+0xe0>
   26e94:	2104      	movs	r1, #4
   26e96:	4630      	mov	r0, r6
   26e98:	f004 f9f2 	bl	2b280 <_ZN9allow_pin12dynamic_type7unshare17hefa7cd45f9379b26E>
   26e9c:	a820      	add	r0, sp, #128	@ 0x80
   26e9e:	7005      	strb	r5, [r0, #0]
   26ea0:	2c00      	cmp	r4, #0
   26ea2:	d1dd      	bne.n	26e60 <_ZN20complex_dynamic_type3app17he5900e5753a59fc2E+0xa4>
   26ea4:	a820      	add	r0, sp, #128	@ 0x80
   26ea6:	7804      	ldrb	r4, [r0, #0]
   26ea8:	2c02      	cmp	r4, #2
   26eaa:	d001      	beq.n	26eb0 <_ZN20complex_dynamic_type3app17he5900e5753a59fc2E+0xf4>
   26eac:	480e      	ldr	r0, [pc, #56]	@ (26ee8 <_ZN20complex_dynamic_type3app17he5900e5753a59fc2E+0x12c>)
   26eae:	9006      	str	r0, [sp, #24]
   26eb0:	9d07      	ldr	r5, [sp, #28]
   26eb2:	1c68      	adds	r0, r5, #1
   26eb4:	2240      	movs	r2, #64	@ 0x40
   26eb6:	9906      	ldr	r1, [sp, #24]
   26eb8:	f004 fbc7 	bl	2b64a <__aeabi_memcpy>
   26ebc:	2000      	movs	r0, #0
   26ebe:	2c02      	cmp	r4, #2
   26ec0:	7028      	strb	r0, [r5, #0]
   26ec2:	d004      	beq.n	26ece <_ZN20complex_dynamic_type3app17he5900e5753a59fc2E+0x112>
   26ec4:	2104      	movs	r1, #4
   26ec6:	4630      	mov	r0, r6
   26ec8:	4622      	mov	r2, r4
   26eca:	f004 f9d9 	bl	2b280 <_ZN9allow_pin12dynamic_type7unshare17hefa7cd45f9379b26E>
   26ece:	a808      	add	r0, sp, #32
   26ed0:	7802      	ldrb	r2, [r0, #0]
   26ed2:	2a02      	cmp	r2, #2
   26ed4:	d003      	beq.n	26ede <_ZN20complex_dynamic_type3app17he5900e5753a59fc2E+0x122>
   26ed6:	2108      	movs	r1, #8
   26ed8:	4630      	mov	r0, r6
   26eda:	f004 f9d1 	bl	2b280 <_ZN9allow_pin12dynamic_type7unshare17hefa7cd45f9379b26E>
   26ede:	b035      	add	sp, #212	@ 0xd4
   26ee0:	bdf0      	pop	{r4, r5, r6, r7, pc}
   26ee2:	46c0      	nop			@ (mov r8, r8)
   26ee4:	00001028 	.word	0x00001028
   26ee8:	00010b81 	.word	0x00010b81

00026eec <_ZN20complex_dynamic_type3app17he7167974ce9878c8E>:
   26eec:	b5f0      	push	{r4, r5, r6, r7, lr}
   26eee:	af03      	add	r7, sp, #12
   26ef0:	b0a9      	sub	sp, #164	@ 0xa4
   26ef2:	9005      	str	r0, [sp, #20]
   26ef4:	a806      	add	r0, sp, #24
   26ef6:	2502      	movs	r5, #2
   26ef8:	7005      	strb	r5, [r0, #0]
   26efa:	1c40      	adds	r0, r0, #1
   26efc:	9003      	str	r0, [sp, #12]
   26efe:	244a      	movs	r4, #74	@ 0x4a
   26f00:	4622      	mov	r2, r4
   26f02:	f004 fba2 	bl	2b64a <__aeabi_memcpy>
   26f06:	ae19      	add	r6, sp, #100	@ 0x64
   26f08:	1c70      	adds	r0, r6, #1
   26f0a:	212d      	movs	r1, #45	@ 0x2d
   26f0c:	9004      	str	r0, [sp, #16]
   26f0e:	9102      	str	r1, [sp, #8]
   26f10:	f004 f9db 	bl	2b2ca <__aeabi_memclr>
   26f14:	7035      	strb	r5, [r6, #0]
   26f16:	2004      	movs	r0, #4
   26f18:	9400      	str	r4, [sp, #0]
   26f1a:	4604      	mov	r4, r0
   26f1c:	9001      	str	r0, [sp, #4]
   26f1e:	a825      	add	r0, sp, #148	@ 0x94
   26f20:	4e3d      	ldr	r6, [pc, #244]	@ (27018 <_ZN20complex_dynamic_type3app17he7167974ce9878c8E+0x12c>)
   26f22:	4631      	mov	r1, r6
   26f24:	462a      	mov	r2, r5
   26f26:	9b03      	ldr	r3, [sp, #12]
   26f28:	f004 f9b7 	bl	2b29a <_ZN9allow_pin13dynamic_allow17h33d41317a2da4f1cE>
   26f2c:	9825      	ldr	r0, [sp, #148]	@ 0x94
   26f2e:	2802      	cmp	r0, #2
   26f30:	d101      	bne.n	26f36 <_ZN20complex_dynamic_type3app17he7167974ce9878c8E+0x4a>
   26f32:	9926      	ldr	r1, [sp, #152]	@ 0x98
   26f34:	e001      	b.n	26f3a <_ZN20complex_dynamic_type3app17he7167974ce9878c8E+0x4e>
   26f36:	a906      	add	r1, sp, #24
   26f38:	700c      	strb	r4, [r1, #0]
   26f3a:	2501      	movs	r5, #1
   26f3c:	2802      	cmp	r0, #2
   26f3e:	d016      	beq.n	26f6e <_ZN20complex_dynamic_type3app17he7167974ce9878c8E+0x82>
   26f40:	a819      	add	r0, sp, #100	@ 0x64
   26f42:	7800      	ldrb	r0, [r0, #0]
   26f44:	2802      	cmp	r0, #2
   26f46:	d10e      	bne.n	26f66 <_ZN20complex_dynamic_type3app17he7167974ce9878c8E+0x7a>
   26f48:	2403      	movs	r4, #3
   26f4a:	9802      	ldr	r0, [sp, #8]
   26f4c:	9000      	str	r0, [sp, #0]
   26f4e:	9401      	str	r4, [sp, #4]
   26f50:	a825      	add	r0, sp, #148	@ 0x94
   26f52:	4631      	mov	r1, r6
   26f54:	4622      	mov	r2, r4
   26f56:	9b04      	ldr	r3, [sp, #16]
   26f58:	f004 f99f 	bl	2b29a <_ZN9allow_pin13dynamic_allow17h33d41317a2da4f1cE>
   26f5c:	9825      	ldr	r0, [sp, #148]	@ 0x94
   26f5e:	2802      	cmp	r0, #2
   26f60:	d113      	bne.n	26f8a <_ZN20complex_dynamic_type3app17he7167974ce9878c8E+0x9e>
   26f62:	9926      	ldr	r1, [sp, #152]	@ 0x98
   26f64:	e000      	b.n	26f68 <_ZN20complex_dynamic_type3app17he7167974ce9878c8E+0x7c>
   26f66:	2103      	movs	r1, #3
   26f68:	4628      	mov	r0, r5
   26f6a:	2800      	cmp	r0, #0
   26f6c:	d012      	beq.n	26f94 <_ZN20complex_dynamic_type3app17he7167974ce9878c8E+0xa8>
   26f6e:	462c      	mov	r4, r5
   26f70:	2c00      	cmp	r4, #0
   26f72:	d031      	beq.n	26fd8 <_ZN20complex_dynamic_type3app17he7167974ce9878c8E+0xec>
   26f74:	2001      	movs	r0, #1
   26f76:	9a05      	ldr	r2, [sp, #20]
   26f78:	7010      	strb	r0, [r2, #0]
   26f7a:	6051      	str	r1, [r2, #4]
   26f7c:	a819      	add	r0, sp, #100	@ 0x64
   26f7e:	7802      	ldrb	r2, [r0, #0]
   26f80:	2a02      	cmp	r2, #2
   26f82:	d03e      	beq.n	27002 <_ZN20complex_dynamic_type3app17he7167974ce9878c8E+0x116>
   26f84:	2103      	movs	r1, #3
   26f86:	4630      	mov	r0, r6
   26f88:	e039      	b.n	26ffe <_ZN20complex_dynamic_type3app17he7167974ce9878c8E+0x112>
   26f8a:	a819      	add	r0, sp, #100	@ 0x64
   26f8c:	7004      	strb	r4, [r0, #0]
   26f8e:	2000      	movs	r0, #0
   26f90:	2800      	cmp	r0, #0
   26f92:	d1ec      	bne.n	26f6e <_ZN20complex_dynamic_type3app17he7167974ce9878c8E+0x82>
   26f94:	4820      	ldr	r0, [pc, #128]	@ (27018 <_ZN20complex_dynamic_type3app17he7167974ce9878c8E+0x12c>)
   26f96:	2102      	movs	r1, #2
   26f98:	2203      	movs	r2, #3
   26f9a:	2400      	movs	r4, #0
   26f9c:	460e      	mov	r6, r1
   26f9e:	4623      	mov	r3, r4
   26fa0:	df02      	svc	2
   26fa2:	287f      	cmp	r0, #127	@ 0x7f
   26fa4:	d801      	bhi.n	26faa <_ZN20complex_dynamic_type3app17he7167974ce9878c8E+0xbe>
   26fa6:	462c      	mov	r4, r5
   26fa8:	e013      	b.n	26fd2 <_ZN20complex_dynamic_type3app17he7167974ce9878c8E+0xe6>
   26faa:	a806      	add	r0, sp, #24
   26fac:	7802      	ldrb	r2, [r0, #0]
   26fae:	2a02      	cmp	r2, #2
   26fb0:	d003      	beq.n	26fba <_ZN20complex_dynamic_type3app17he7167974ce9878c8E+0xce>
   26fb2:	2102      	movs	r1, #2
   26fb4:	4818      	ldr	r0, [pc, #96]	@ (27018 <_ZN20complex_dynamic_type3app17he7167974ce9878c8E+0x12c>)
   26fb6:	f004 f963 	bl	2b280 <_ZN9allow_pin12dynamic_type7unshare17hefa7cd45f9379b26E>
   26fba:	a806      	add	r0, sp, #24
   26fbc:	7006      	strb	r6, [r0, #0]
   26fbe:	a819      	add	r0, sp, #100	@ 0x64
   26fc0:	7802      	ldrb	r2, [r0, #0]
   26fc2:	2a02      	cmp	r2, #2
   26fc4:	d003      	beq.n	26fce <_ZN20complex_dynamic_type3app17he7167974ce9878c8E+0xe2>
   26fc6:	2103      	movs	r1, #3
   26fc8:	4813      	ldr	r0, [pc, #76]	@ (27018 <_ZN20complex_dynamic_type3app17he7167974ce9878c8E+0x12c>)
   26fca:	f004 f959 	bl	2b280 <_ZN9allow_pin12dynamic_type7unshare17hefa7cd45f9379b26E>
   26fce:	a819      	add	r0, sp, #100	@ 0x64
   26fd0:	7006      	strb	r6, [r0, #0]
   26fd2:	4e11      	ldr	r6, [pc, #68]	@ (27018 <_ZN20complex_dynamic_type3app17he7167974ce9878c8E+0x12c>)
   26fd4:	2c00      	cmp	r4, #0
   26fd6:	d1cd      	bne.n	26f74 <_ZN20complex_dynamic_type3app17he7167974ce9878c8E+0x88>
   26fd8:	a819      	add	r0, sp, #100	@ 0x64
   26fda:	7804      	ldrb	r4, [r0, #0]
   26fdc:	2c02      	cmp	r4, #2
   26fde:	d001      	beq.n	26fe4 <_ZN20complex_dynamic_type3app17he7167974ce9878c8E+0xf8>
   26fe0:	480e      	ldr	r0, [pc, #56]	@ (2701c <_ZN20complex_dynamic_type3app17he7167974ce9878c8E+0x130>)
   26fe2:	9004      	str	r0, [sp, #16]
   26fe4:	9d05      	ldr	r5, [sp, #20]
   26fe6:	1c68      	adds	r0, r5, #1
   26fe8:	222d      	movs	r2, #45	@ 0x2d
   26fea:	9904      	ldr	r1, [sp, #16]
   26fec:	f004 fb2d 	bl	2b64a <__aeabi_memcpy>
   26ff0:	2000      	movs	r0, #0
   26ff2:	2c02      	cmp	r4, #2
   26ff4:	7028      	strb	r0, [r5, #0]
   26ff6:	d004      	beq.n	27002 <_ZN20complex_dynamic_type3app17he7167974ce9878c8E+0x116>
   26ff8:	2103      	movs	r1, #3
   26ffa:	4630      	mov	r0, r6
   26ffc:	4622      	mov	r2, r4
   26ffe:	f004 f93f 	bl	2b280 <_ZN9allow_pin12dynamic_type7unshare17hefa7cd45f9379b26E>
   27002:	a806      	add	r0, sp, #24
   27004:	7802      	ldrb	r2, [r0, #0]
   27006:	2a02      	cmp	r2, #2
   27008:	d003      	beq.n	27012 <_ZN20complex_dynamic_type3app17he7167974ce9878c8E+0x126>
   2700a:	2102      	movs	r1, #2
   2700c:	4630      	mov	r0, r6
   2700e:	f004 f937 	bl	2b280 <_ZN9allow_pin12dynamic_type7unshare17hefa7cd45f9379b26E>
   27012:	b029      	add	sp, #164	@ 0xa4
   27014:	bdf0      	pop	{r4, r5, r6, r7, pc}
   27016:	46c0      	nop			@ (mov r8, r8)
   27018:	00000e3d 	.word	0x00000e3d
   2701c:	0001087b 	.word	0x0001087b

00027020 <_ZN20complex_dynamic_type3app17he8f1cf1912196212E>:
   27020:	b5f0      	push	{r4, r5, r6, r7, lr}
   27022:	af03      	add	r7, sp, #12
   27024:	b0b5      	sub	sp, #212	@ 0xd4
   27026:	9007      	str	r0, [sp, #28]
   27028:	a808      	add	r0, sp, #32
   2702a:	2502      	movs	r5, #2
   2702c:	7005      	strb	r5, [r0, #0]
   2702e:	1c40      	adds	r0, r0, #1
   27030:	9005      	str	r0, [sp, #20]
   27032:	2651      	movs	r6, #81	@ 0x51
   27034:	4632      	mov	r2, r6
   27036:	f004 fb08 	bl	2b64a <__aeabi_memcpy>
   2703a:	ac1d      	add	r4, sp, #116	@ 0x74
   2703c:	1c60      	adds	r0, r4, #1
   2703e:	214f      	movs	r1, #79	@ 0x4f
   27040:	9006      	str	r0, [sp, #24]
   27042:	9104      	str	r1, [sp, #16]
   27044:	f004 f941 	bl	2b2ca <__aeabi_memclr>
   27048:	9503      	str	r5, [sp, #12]
   2704a:	7025      	strb	r5, [r4, #0]
   2704c:	2404      	movs	r4, #4
   2704e:	9600      	str	r6, [sp, #0]
   27050:	9401      	str	r4, [sp, #4]
   27052:	a831      	add	r0, sp, #196	@ 0xc4
   27054:	4e3c      	ldr	r6, [pc, #240]	@ (27148 <_ZN20complex_dynamic_type3app17he8f1cf1912196212E+0x128>)
   27056:	4631      	mov	r1, r6
   27058:	4622      	mov	r2, r4
   2705a:	9b05      	ldr	r3, [sp, #20]
   2705c:	f004 f91d 	bl	2b29a <_ZN9allow_pin13dynamic_allow17h33d41317a2da4f1cE>
   27060:	9831      	ldr	r0, [sp, #196]	@ 0xc4
   27062:	2802      	cmp	r0, #2
   27064:	d101      	bne.n	2706a <_ZN20complex_dynamic_type3app17he8f1cf1912196212E+0x4a>
   27066:	9932      	ldr	r1, [sp, #200]	@ 0xc8
   27068:	e001      	b.n	2706e <_ZN20complex_dynamic_type3app17he8f1cf1912196212E+0x4e>
   2706a:	a908      	add	r1, sp, #32
   2706c:	700c      	strb	r4, [r1, #0]
   2706e:	2501      	movs	r5, #1
   27070:	2802      	cmp	r0, #2
   27072:	d024      	beq.n	270be <_ZN20complex_dynamic_type3app17he8f1cf1912196212E+0x9e>
   27074:	a81d      	add	r0, sp, #116	@ 0x74
   27076:	7800      	ldrb	r0, [r0, #0]
   27078:	2802      	cmp	r0, #2
   2707a:	d10e      	bne.n	2709a <_ZN20complex_dynamic_type3app17he8f1cf1912196212E+0x7a>
   2707c:	2403      	movs	r4, #3
   2707e:	9804      	ldr	r0, [sp, #16]
   27080:	9000      	str	r0, [sp, #0]
   27082:	9401      	str	r4, [sp, #4]
   27084:	a831      	add	r0, sp, #196	@ 0xc4
   27086:	2209      	movs	r2, #9
   27088:	4631      	mov	r1, r6
   2708a:	9b06      	ldr	r3, [sp, #24]
   2708c:	f004 f905 	bl	2b29a <_ZN9allow_pin13dynamic_allow17h33d41317a2da4f1cE>
   27090:	9831      	ldr	r0, [sp, #196]	@ 0xc4
   27092:	2802      	cmp	r0, #2
   27094:	d106      	bne.n	270a4 <_ZN20complex_dynamic_type3app17he8f1cf1912196212E+0x84>
   27096:	9932      	ldr	r1, [sp, #200]	@ 0xc8
   27098:	e000      	b.n	2709c <_ZN20complex_dynamic_type3app17he8f1cf1912196212E+0x7c>
   2709a:	2103      	movs	r1, #3
   2709c:	4628      	mov	r0, r5
   2709e:	2800      	cmp	r0, #0
   270a0:	d005      	beq.n	270ae <_ZN20complex_dynamic_type3app17he8f1cf1912196212E+0x8e>
   270a2:	e00c      	b.n	270be <_ZN20complex_dynamic_type3app17he8f1cf1912196212E+0x9e>
   270a4:	a81d      	add	r0, sp, #116	@ 0x74
   270a6:	7004      	strb	r4, [r0, #0]
   270a8:	2000      	movs	r0, #0
   270aa:	2800      	cmp	r0, #0
   270ac:	d107      	bne.n	270be <_ZN20complex_dynamic_type3app17he8f1cf1912196212E+0x9e>
   270ae:	4826      	ldr	r0, [pc, #152]	@ (27148 <_ZN20complex_dynamic_type3app17he8f1cf1912196212E+0x128>)
   270b0:	2104      	movs	r1, #4
   270b2:	2209      	movs	r2, #9
   270b4:	2400      	movs	r4, #0
   270b6:	4623      	mov	r3, r4
   270b8:	df02      	svc	2
   270ba:	287f      	cmp	r0, #127	@ 0x7f
   270bc:	d80d      	bhi.n	270da <_ZN20complex_dynamic_type3app17he8f1cf1912196212E+0xba>
   270be:	462c      	mov	r4, r5
   270c0:	2c00      	cmp	r4, #0
   270c2:	d021      	beq.n	27108 <_ZN20complex_dynamic_type3app17he8f1cf1912196212E+0xe8>
   270c4:	2001      	movs	r0, #1
   270c6:	9a07      	ldr	r2, [sp, #28]
   270c8:	7010      	strb	r0, [r2, #0]
   270ca:	6051      	str	r1, [r2, #4]
   270cc:	a81d      	add	r0, sp, #116	@ 0x74
   270ce:	7802      	ldrb	r2, [r0, #0]
   270d0:	2a02      	cmp	r2, #2
   270d2:	d02e      	beq.n	27132 <_ZN20complex_dynamic_type3app17he8f1cf1912196212E+0x112>
   270d4:	2109      	movs	r1, #9
   270d6:	4630      	mov	r0, r6
   270d8:	e029      	b.n	2712e <_ZN20complex_dynamic_type3app17he8f1cf1912196212E+0x10e>
   270da:	a808      	add	r0, sp, #32
   270dc:	7802      	ldrb	r2, [r0, #0]
   270de:	2a02      	cmp	r2, #2
   270e0:	d003      	beq.n	270ea <_ZN20complex_dynamic_type3app17he8f1cf1912196212E+0xca>
   270e2:	2104      	movs	r1, #4
   270e4:	4630      	mov	r0, r6
   270e6:	f004 f8cb 	bl	2b280 <_ZN9allow_pin12dynamic_type7unshare17hefa7cd45f9379b26E>
   270ea:	a808      	add	r0, sp, #32
   270ec:	9d03      	ldr	r5, [sp, #12]
   270ee:	7005      	strb	r5, [r0, #0]
   270f0:	a81d      	add	r0, sp, #116	@ 0x74
   270f2:	7802      	ldrb	r2, [r0, #0]
   270f4:	2a02      	cmp	r2, #2
   270f6:	d003      	beq.n	27100 <_ZN20complex_dynamic_type3app17he8f1cf1912196212E+0xe0>
   270f8:	2109      	movs	r1, #9
   270fa:	4630      	mov	r0, r6
   270fc:	f004 f8c0 	bl	2b280 <_ZN9allow_pin12dynamic_type7unshare17hefa7cd45f9379b26E>
   27100:	a81d      	add	r0, sp, #116	@ 0x74
   27102:	7005      	strb	r5, [r0, #0]
   27104:	2c00      	cmp	r4, #0
   27106:	d1dd      	bne.n	270c4 <_ZN20complex_dynamic_type3app17he8f1cf1912196212E+0xa4>
   27108:	a81d      	add	r0, sp, #116	@ 0x74
   2710a:	7804      	ldrb	r4, [r0, #0]
   2710c:	2c02      	cmp	r4, #2
   2710e:	d001      	beq.n	27114 <_ZN20complex_dynamic_type3app17he8f1cf1912196212E+0xf4>
   27110:	480e      	ldr	r0, [pc, #56]	@ (2714c <_ZN20complex_dynamic_type3app17he8f1cf1912196212E+0x12c>)
   27112:	9006      	str	r0, [sp, #24]
   27114:	9d07      	ldr	r5, [sp, #28]
   27116:	1c68      	adds	r0, r5, #1
   27118:	224f      	movs	r2, #79	@ 0x4f
   2711a:	9906      	ldr	r1, [sp, #24]
   2711c:	f004 fa95 	bl	2b64a <__aeabi_memcpy>
   27120:	2000      	movs	r0, #0
   27122:	2c02      	cmp	r4, #2
   27124:	7028      	strb	r0, [r5, #0]
   27126:	d004      	beq.n	27132 <_ZN20complex_dynamic_type3app17he8f1cf1912196212E+0x112>
   27128:	2109      	movs	r1, #9
   2712a:	4630      	mov	r0, r6
   2712c:	4622      	mov	r2, r4
   2712e:	f004 f8a7 	bl	2b280 <_ZN9allow_pin12dynamic_type7unshare17hefa7cd45f9379b26E>
   27132:	a808      	add	r0, sp, #32
   27134:	7802      	ldrb	r2, [r0, #0]
   27136:	2a02      	cmp	r2, #2
   27138:	d003      	beq.n	27142 <_ZN20complex_dynamic_type3app17he8f1cf1912196212E+0x122>
   2713a:	2104      	movs	r1, #4
   2713c:	4630      	mov	r0, r6
   2713e:	f004 f89f 	bl	2b280 <_ZN9allow_pin12dynamic_type7unshare17hefa7cd45f9379b26E>
   27142:	b035      	add	sp, #212	@ 0xd4
   27144:	bdf0      	pop	{r4, r5, r6, r7, pc}
   27146:	46c0      	nop			@ (mov r8, r8)
   27148:	000020ee 	.word	0x000020ee
   2714c:	0001027c 	.word	0x0001027c

00027150 <_ZN20complex_dynamic_type3app17he8f9471df2669f64E>:
   27150:	b5f0      	push	{r4, r5, r6, r7, lr}
   27152:	af03      	add	r7, sp, #12
   27154:	b0ab      	sub	sp, #172	@ 0xac
   27156:	9005      	str	r0, [sp, #20]
   27158:	a806      	add	r0, sp, #24
   2715a:	2502      	movs	r5, #2
   2715c:	7005      	strb	r5, [r0, #0]
   2715e:	1c40      	adds	r0, r0, #1
   27160:	9003      	str	r0, [sp, #12]
   27162:	242d      	movs	r4, #45	@ 0x2d
   27164:	4622      	mov	r2, r4
   27166:	f004 fa70 	bl	2b64a <__aeabi_memcpy>
   2716a:	ae12      	add	r6, sp, #72	@ 0x48
   2716c:	1c70      	adds	r0, r6, #1
   2716e:	2153      	movs	r1, #83	@ 0x53
   27170:	9004      	str	r0, [sp, #16]
   27172:	9102      	str	r1, [sp, #8]
   27174:	f004 f8a9 	bl	2b2ca <__aeabi_memclr>
   27178:	7035      	strb	r5, [r6, #0]
   2717a:	2004      	movs	r0, #4
   2717c:	9400      	str	r4, [sp, #0]
   2717e:	4604      	mov	r4, r0
   27180:	9001      	str	r0, [sp, #4]
   27182:	a827      	add	r0, sp, #156	@ 0x9c
   27184:	4e3d      	ldr	r6, [pc, #244]	@ (2727c <_ZN20complex_dynamic_type3app17he8f9471df2669f64E+0x12c>)
   27186:	4631      	mov	r1, r6
   27188:	462a      	mov	r2, r5
   2718a:	9b03      	ldr	r3, [sp, #12]
   2718c:	f004 f885 	bl	2b29a <_ZN9allow_pin13dynamic_allow17h33d41317a2da4f1cE>
   27190:	9827      	ldr	r0, [sp, #156]	@ 0x9c
   27192:	2802      	cmp	r0, #2
   27194:	d101      	bne.n	2719a <_ZN20complex_dynamic_type3app17he8f9471df2669f64E+0x4a>
   27196:	9928      	ldr	r1, [sp, #160]	@ 0xa0
   27198:	e001      	b.n	2719e <_ZN20complex_dynamic_type3app17he8f9471df2669f64E+0x4e>
   2719a:	a906      	add	r1, sp, #24
   2719c:	700c      	strb	r4, [r1, #0]
   2719e:	2501      	movs	r5, #1
   271a0:	2802      	cmp	r0, #2
   271a2:	d016      	beq.n	271d2 <_ZN20complex_dynamic_type3app17he8f9471df2669f64E+0x82>
   271a4:	a812      	add	r0, sp, #72	@ 0x48
   271a6:	7800      	ldrb	r0, [r0, #0]
   271a8:	2802      	cmp	r0, #2
   271aa:	d10e      	bne.n	271ca <_ZN20complex_dynamic_type3app17he8f9471df2669f64E+0x7a>
   271ac:	2403      	movs	r4, #3
   271ae:	9802      	ldr	r0, [sp, #8]
   271b0:	9000      	str	r0, [sp, #0]
   271b2:	9401      	str	r4, [sp, #4]
   271b4:	a827      	add	r0, sp, #156	@ 0x9c
   271b6:	2207      	movs	r2, #7
   271b8:	4631      	mov	r1, r6
   271ba:	9b04      	ldr	r3, [sp, #16]
   271bc:	f004 f86d 	bl	2b29a <_ZN9allow_pin13dynamic_allow17h33d41317a2da4f1cE>
   271c0:	9827      	ldr	r0, [sp, #156]	@ 0x9c
   271c2:	2802      	cmp	r0, #2
   271c4:	d113      	bne.n	271ee <_ZN20complex_dynamic_type3app17he8f9471df2669f64E+0x9e>
   271c6:	9928      	ldr	r1, [sp, #160]	@ 0xa0
   271c8:	e000      	b.n	271cc <_ZN20complex_dynamic_type3app17he8f9471df2669f64E+0x7c>
   271ca:	2103      	movs	r1, #3
   271cc:	4628      	mov	r0, r5
   271ce:	2800      	cmp	r0, #0
   271d0:	d012      	beq.n	271f8 <_ZN20complex_dynamic_type3app17he8f9471df2669f64E+0xa8>
   271d2:	462c      	mov	r4, r5
   271d4:	2c00      	cmp	r4, #0
   271d6:	d031      	beq.n	2723c <_ZN20complex_dynamic_type3app17he8f9471df2669f64E+0xec>
   271d8:	2001      	movs	r0, #1
   271da:	9a05      	ldr	r2, [sp, #20]
   271dc:	7010      	strb	r0, [r2, #0]
   271de:	6051      	str	r1, [r2, #4]
   271e0:	a812      	add	r0, sp, #72	@ 0x48
   271e2:	7802      	ldrb	r2, [r0, #0]
   271e4:	2a02      	cmp	r2, #2
   271e6:	d03e      	beq.n	27266 <_ZN20complex_dynamic_type3app17he8f9471df2669f64E+0x116>
   271e8:	2107      	movs	r1, #7
   271ea:	4630      	mov	r0, r6
   271ec:	e039      	b.n	27262 <_ZN20complex_dynamic_type3app17he8f9471df2669f64E+0x112>
   271ee:	a812      	add	r0, sp, #72	@ 0x48
   271f0:	7004      	strb	r4, [r0, #0]
   271f2:	2000      	movs	r0, #0
   271f4:	2800      	cmp	r0, #0
   271f6:	d1ec      	bne.n	271d2 <_ZN20complex_dynamic_type3app17he8f9471df2669f64E+0x82>
   271f8:	4820      	ldr	r0, [pc, #128]	@ (2727c <_ZN20complex_dynamic_type3app17he8f9471df2669f64E+0x12c>)
   271fa:	2102      	movs	r1, #2
   271fc:	2207      	movs	r2, #7
   271fe:	2400      	movs	r4, #0
   27200:	460e      	mov	r6, r1
   27202:	4623      	mov	r3, r4
   27204:	df02      	svc	2
   27206:	287f      	cmp	r0, #127	@ 0x7f
   27208:	d801      	bhi.n	2720e <_ZN20complex_dynamic_type3app17he8f9471df2669f64E+0xbe>
   2720a:	462c      	mov	r4, r5
   2720c:	e013      	b.n	27236 <_ZN20complex_dynamic_type3app17he8f9471df2669f64E+0xe6>
   2720e:	a806      	add	r0, sp, #24
   27210:	7802      	ldrb	r2, [r0, #0]
   27212:	2a02      	cmp	r2, #2
   27214:	d003      	beq.n	2721e <_ZN20complex_dynamic_type3app17he8f9471df2669f64E+0xce>
   27216:	2102      	movs	r1, #2
   27218:	4818      	ldr	r0, [pc, #96]	@ (2727c <_ZN20complex_dynamic_type3app17he8f9471df2669f64E+0x12c>)
   2721a:	f004 f831 	bl	2b280 <_ZN9allow_pin12dynamic_type7unshare17hefa7cd45f9379b26E>
   2721e:	a806      	add	r0, sp, #24
   27220:	7006      	strb	r6, [r0, #0]
   27222:	a812      	add	r0, sp, #72	@ 0x48
   27224:	7802      	ldrb	r2, [r0, #0]
   27226:	2a02      	cmp	r2, #2
   27228:	d003      	beq.n	27232 <_ZN20complex_dynamic_type3app17he8f9471df2669f64E+0xe2>
   2722a:	2107      	movs	r1, #7
   2722c:	4813      	ldr	r0, [pc, #76]	@ (2727c <_ZN20complex_dynamic_type3app17he8f9471df2669f64E+0x12c>)
   2722e:	f004 f827 	bl	2b280 <_ZN9allow_pin12dynamic_type7unshare17hefa7cd45f9379b26E>
   27232:	a812      	add	r0, sp, #72	@ 0x48
   27234:	7006      	strb	r6, [r0, #0]
   27236:	4e11      	ldr	r6, [pc, #68]	@ (2727c <_ZN20complex_dynamic_type3app17he8f9471df2669f64E+0x12c>)
   27238:	2c00      	cmp	r4, #0
   2723a:	d1cd      	bne.n	271d8 <_ZN20complex_dynamic_type3app17he8f9471df2669f64E+0x88>
   2723c:	a812      	add	r0, sp, #72	@ 0x48
   2723e:	7804      	ldrb	r4, [r0, #0]
   27240:	2c02      	cmp	r4, #2
   27242:	d001      	beq.n	27248 <_ZN20complex_dynamic_type3app17he8f9471df2669f64E+0xf8>
   27244:	480e      	ldr	r0, [pc, #56]	@ (27280 <_ZN20complex_dynamic_type3app17he8f9471df2669f64E+0x130>)
   27246:	9004      	str	r0, [sp, #16]
   27248:	9d05      	ldr	r5, [sp, #20]
   2724a:	1c68      	adds	r0, r5, #1
   2724c:	2253      	movs	r2, #83	@ 0x53
   2724e:	9904      	ldr	r1, [sp, #16]
   27250:	f004 f9fb 	bl	2b64a <__aeabi_memcpy>
   27254:	2000      	movs	r0, #0
   27256:	2c02      	cmp	r4, #2
   27258:	7028      	strb	r0, [r5, #0]
   2725a:	d004      	beq.n	27266 <_ZN20complex_dynamic_type3app17he8f9471df2669f64E+0x116>
   2725c:	2107      	movs	r1, #7
   2725e:	4630      	mov	r0, r6
   27260:	4622      	mov	r2, r4
   27262:	f004 f80d 	bl	2b280 <_ZN9allow_pin12dynamic_type7unshare17hefa7cd45f9379b26E>
   27266:	a806      	add	r0, sp, #24
   27268:	7802      	ldrb	r2, [r0, #0]
   2726a:	2a02      	cmp	r2, #2
   2726c:	d003      	beq.n	27276 <_ZN20complex_dynamic_type3app17he8f9471df2669f64E+0x126>
   2726e:	2102      	movs	r1, #2
   27270:	4630      	mov	r0, r6
   27272:	f004 f805 	bl	2b280 <_ZN9allow_pin12dynamic_type7unshare17hefa7cd45f9379b26E>
   27276:	b02b      	add	sp, #172	@ 0xac
   27278:	bdf0      	pop	{r4, r5, r6, r7, pc}
   2727a:	46c0      	nop			@ (mov r8, r8)
   2727c:	00000ec3 	.word	0x00000ec3
   27280:	000102cb 	.word	0x000102cb

00027284 <_ZN20complex_dynamic_type3app17hea4a81755df7de80E>:
   27284:	b5f0      	push	{r4, r5, r6, r7, lr}
   27286:	af03      	add	r7, sp, #12
   27288:	b0b3      	sub	sp, #204	@ 0xcc
   2728a:	9006      	str	r0, [sp, #24]
   2728c:	a807      	add	r0, sp, #28
   2728e:	2502      	movs	r5, #2
   27290:	7005      	strb	r5, [r0, #0]
   27292:	1c40      	adds	r0, r0, #1
   27294:	9004      	str	r0, [sp, #16]
   27296:	2646      	movs	r6, #70	@ 0x46
   27298:	4632      	mov	r2, r6
   2729a:	f004 f9d6 	bl	2b64a <__aeabi_memcpy>
   2729e:	ac19      	add	r4, sp, #100	@ 0x64
   272a0:	1c60      	adds	r0, r4, #1
   272a2:	2156      	movs	r1, #86	@ 0x56
   272a4:	9005      	str	r0, [sp, #20]
   272a6:	9103      	str	r1, [sp, #12]
   272a8:	f004 f80f 	bl	2b2ca <__aeabi_memclr>
   272ac:	9502      	str	r5, [sp, #8]
   272ae:	7025      	strb	r5, [r4, #0]
   272b0:	2404      	movs	r4, #4
   272b2:	9600      	str	r6, [sp, #0]
   272b4:	9401      	str	r4, [sp, #4]
   272b6:	a82f      	add	r0, sp, #188	@ 0xbc
   272b8:	493b      	ldr	r1, [pc, #236]	@ (273a8 <_ZN20complex_dynamic_type3app17hea4a81755df7de80E+0x124>)
   272ba:	2207      	movs	r2, #7
   272bc:	9b04      	ldr	r3, [sp, #16]
   272be:	f003 ffec 	bl	2b29a <_ZN9allow_pin13dynamic_allow17h33d41317a2da4f1cE>
   272c2:	982f      	ldr	r0, [sp, #188]	@ 0xbc
   272c4:	2802      	cmp	r0, #2
   272c6:	d101      	bne.n	272cc <_ZN20complex_dynamic_type3app17hea4a81755df7de80E+0x48>
   272c8:	9930      	ldr	r1, [sp, #192]	@ 0xc0
   272ca:	e001      	b.n	272d0 <_ZN20complex_dynamic_type3app17hea4a81755df7de80E+0x4c>
   272cc:	a907      	add	r1, sp, #28
   272ce:	700c      	strb	r4, [r1, #0]
   272d0:	2601      	movs	r6, #1
   272d2:	2802      	cmp	r0, #2
   272d4:	d024      	beq.n	27320 <_ZN20complex_dynamic_type3app17hea4a81755df7de80E+0x9c>
   272d6:	a819      	add	r0, sp, #100	@ 0x64
   272d8:	7800      	ldrb	r0, [r0, #0]
   272da:	2802      	cmp	r0, #2
   272dc:	d10e      	bne.n	272fc <_ZN20complex_dynamic_type3app17hea4a81755df7de80E+0x78>
   272de:	2503      	movs	r5, #3
   272e0:	9803      	ldr	r0, [sp, #12]
   272e2:	9000      	str	r0, [sp, #0]
   272e4:	9501      	str	r5, [sp, #4]
   272e6:	a82f      	add	r0, sp, #188	@ 0xbc
   272e8:	492f      	ldr	r1, [pc, #188]	@ (273a8 <_ZN20complex_dynamic_type3app17hea4a81755df7de80E+0x124>)
   272ea:	462a      	mov	r2, r5
   272ec:	9b05      	ldr	r3, [sp, #20]
   272ee:	f003 ffd4 	bl	2b29a <_ZN9allow_pin13dynamic_allow17h33d41317a2da4f1cE>
   272f2:	982f      	ldr	r0, [sp, #188]	@ 0xbc
   272f4:	2802      	cmp	r0, #2
   272f6:	d106      	bne.n	27306 <_ZN20complex_dynamic_type3app17hea4a81755df7de80E+0x82>
   272f8:	9930      	ldr	r1, [sp, #192]	@ 0xc0
   272fa:	e000      	b.n	272fe <_ZN20complex_dynamic_type3app17hea4a81755df7de80E+0x7a>
   272fc:	2103      	movs	r1, #3
   272fe:	4630      	mov	r0, r6
   27300:	2800      	cmp	r0, #0
   27302:	d005      	beq.n	27310 <_ZN20complex_dynamic_type3app17hea4a81755df7de80E+0x8c>
   27304:	e00c      	b.n	27320 <_ZN20complex_dynamic_type3app17hea4a81755df7de80E+0x9c>
   27306:	a819      	add	r0, sp, #100	@ 0x64
   27308:	7005      	strb	r5, [r0, #0]
   2730a:	2000      	movs	r0, #0
   2730c:	2800      	cmp	r0, #0
   2730e:	d107      	bne.n	27320 <_ZN20complex_dynamic_type3app17hea4a81755df7de80E+0x9c>
   27310:	4825      	ldr	r0, [pc, #148]	@ (273a8 <_ZN20complex_dynamic_type3app17hea4a81755df7de80E+0x124>)
   27312:	2107      	movs	r1, #7
   27314:	2203      	movs	r2, #3
   27316:	2400      	movs	r4, #0
   27318:	4623      	mov	r3, r4
   2731a:	df02      	svc	2
   2731c:	287f      	cmp	r0, #127	@ 0x7f
   2731e:	d80d      	bhi.n	2733c <_ZN20complex_dynamic_type3app17hea4a81755df7de80E+0xb8>
   27320:	4634      	mov	r4, r6
   27322:	2c00      	cmp	r4, #0
   27324:	d021      	beq.n	2736a <_ZN20complex_dynamic_type3app17hea4a81755df7de80E+0xe6>
   27326:	2001      	movs	r0, #1
   27328:	9a06      	ldr	r2, [sp, #24]
   2732a:	7010      	strb	r0, [r2, #0]
   2732c:	6051      	str	r1, [r2, #4]
   2732e:	a819      	add	r0, sp, #100	@ 0x64
   27330:	7802      	ldrb	r2, [r0, #0]
   27332:	2a02      	cmp	r2, #2
   27334:	d02e      	beq.n	27394 <_ZN20complex_dynamic_type3app17hea4a81755df7de80E+0x110>
   27336:	2103      	movs	r1, #3
   27338:	481b      	ldr	r0, [pc, #108]	@ (273a8 <_ZN20complex_dynamic_type3app17hea4a81755df7de80E+0x124>)
   2733a:	e029      	b.n	27390 <_ZN20complex_dynamic_type3app17hea4a81755df7de80E+0x10c>
   2733c:	a807      	add	r0, sp, #28
   2733e:	7802      	ldrb	r2, [r0, #0]
   27340:	2a02      	cmp	r2, #2
   27342:	d003      	beq.n	2734c <_ZN20complex_dynamic_type3app17hea4a81755df7de80E+0xc8>
   27344:	2107      	movs	r1, #7
   27346:	4818      	ldr	r0, [pc, #96]	@ (273a8 <_ZN20complex_dynamic_type3app17hea4a81755df7de80E+0x124>)
   27348:	f003 ff9a 	bl	2b280 <_ZN9allow_pin12dynamic_type7unshare17hefa7cd45f9379b26E>
   2734c:	a807      	add	r0, sp, #28
   2734e:	9d02      	ldr	r5, [sp, #8]
   27350:	7005      	strb	r5, [r0, #0]
   27352:	a819      	add	r0, sp, #100	@ 0x64
   27354:	7802      	ldrb	r2, [r0, #0]
   27356:	2a02      	cmp	r2, #2
   27358:	d003      	beq.n	27362 <_ZN20complex_dynamic_type3app17hea4a81755df7de80E+0xde>
   2735a:	2103      	movs	r1, #3
   2735c:	4812      	ldr	r0, [pc, #72]	@ (273a8 <_ZN20complex_dynamic_type3app17hea4a81755df7de80E+0x124>)
   2735e:	f003 ff8f 	bl	2b280 <_ZN9allow_pin12dynamic_type7unshare17hefa7cd45f9379b26E>
   27362:	a819      	add	r0, sp, #100	@ 0x64
   27364:	7005      	strb	r5, [r0, #0]
   27366:	2c00      	cmp	r4, #0
   27368:	d1dd      	bne.n	27326 <_ZN20complex_dynamic_type3app17hea4a81755df7de80E+0xa2>
   2736a:	a819      	add	r0, sp, #100	@ 0x64
   2736c:	7804      	ldrb	r4, [r0, #0]
   2736e:	2c02      	cmp	r4, #2
   27370:	d001      	beq.n	27376 <_ZN20complex_dynamic_type3app17hea4a81755df7de80E+0xf2>
   27372:	480e      	ldr	r0, [pc, #56]	@ (273ac <_ZN20complex_dynamic_type3app17hea4a81755df7de80E+0x128>)
   27374:	9005      	str	r0, [sp, #20]
   27376:	9d06      	ldr	r5, [sp, #24]
   27378:	1c68      	adds	r0, r5, #1
   2737a:	2256      	movs	r2, #86	@ 0x56
   2737c:	9905      	ldr	r1, [sp, #20]
   2737e:	f004 f964 	bl	2b64a <__aeabi_memcpy>
   27382:	2000      	movs	r0, #0
   27384:	2c02      	cmp	r4, #2
   27386:	7028      	strb	r0, [r5, #0]
   27388:	d004      	beq.n	27394 <_ZN20complex_dynamic_type3app17hea4a81755df7de80E+0x110>
   2738a:	2103      	movs	r1, #3
   2738c:	4806      	ldr	r0, [pc, #24]	@ (273a8 <_ZN20complex_dynamic_type3app17hea4a81755df7de80E+0x124>)
   2738e:	4622      	mov	r2, r4
   27390:	f003 ff76 	bl	2b280 <_ZN9allow_pin12dynamic_type7unshare17hefa7cd45f9379b26E>
   27394:	a807      	add	r0, sp, #28
   27396:	7802      	ldrb	r2, [r0, #0]
   27398:	2a02      	cmp	r2, #2
   2739a:	d003      	beq.n	273a4 <_ZN20complex_dynamic_type3app17hea4a81755df7de80E+0x120>
   2739c:	2107      	movs	r1, #7
   2739e:	4802      	ldr	r0, [pc, #8]	@ (273a8 <_ZN20complex_dynamic_type3app17hea4a81755df7de80E+0x124>)
   273a0:	f003 ff6e 	bl	2b280 <_ZN9allow_pin12dynamic_type7unshare17hefa7cd45f9379b26E>
   273a4:	b033      	add	sp, #204	@ 0xcc
   273a6:	bdf0      	pop	{r4, r5, r6, r7, pc}
   273a8:	00001e50 	.word	0x00001e50
   273ac:	0001055d 	.word	0x0001055d

000273b0 <_ZN20complex_dynamic_type3app17heabc89f5c2dc88ffE>:
   273b0:	b5f0      	push	{r4, r5, r6, r7, lr}
   273b2:	af03      	add	r7, sp, #12
   273b4:	b0b1      	sub	sp, #196	@ 0xc4
   273b6:	9007      	str	r0, [sp, #28]
   273b8:	a808      	add	r0, sp, #32
   273ba:	2602      	movs	r6, #2
   273bc:	7006      	strb	r6, [r0, #0]
   273be:	1c40      	adds	r0, r0, #1
   273c0:	9005      	str	r0, [sp, #20]
   273c2:	2550      	movs	r5, #80	@ 0x50
   273c4:	462a      	mov	r2, r5
   273c6:	f004 f940 	bl	2b64a <__aeabi_memcpy>
   273ca:	ac1d      	add	r4, sp, #116	@ 0x74
   273cc:	1c60      	adds	r0, r4, #1
   273ce:	213c      	movs	r1, #60	@ 0x3c
   273d0:	9006      	str	r0, [sp, #24]
   273d2:	9104      	str	r1, [sp, #16]
   273d4:	f003 ff79 	bl	2b2ca <__aeabi_memclr>
   273d8:	9603      	str	r6, [sp, #12]
   273da:	7026      	strb	r6, [r4, #0]
   273dc:	2404      	movs	r4, #4
   273de:	9500      	str	r5, [sp, #0]
   273e0:	9401      	str	r4, [sp, #4]
   273e2:	a82d      	add	r0, sp, #180	@ 0xb4
   273e4:	493c      	ldr	r1, [pc, #240]	@ (274d8 <_ZN20complex_dynamic_type3app17heabc89f5c2dc88ffE+0x128>)
   273e6:	2503      	movs	r5, #3
   273e8:	462a      	mov	r2, r5
   273ea:	9b05      	ldr	r3, [sp, #20]
   273ec:	f003 ff55 	bl	2b29a <_ZN9allow_pin13dynamic_allow17h33d41317a2da4f1cE>
   273f0:	982d      	ldr	r0, [sp, #180]	@ 0xb4
   273f2:	2802      	cmp	r0, #2
   273f4:	d101      	bne.n	273fa <_ZN20complex_dynamic_type3app17heabc89f5c2dc88ffE+0x4a>
   273f6:	992e      	ldr	r1, [sp, #184]	@ 0xb8
   273f8:	e001      	b.n	273fe <_ZN20complex_dynamic_type3app17heabc89f5c2dc88ffE+0x4e>
   273fa:	a908      	add	r1, sp, #32
   273fc:	700c      	strb	r4, [r1, #0]
   273fe:	2601      	movs	r6, #1
   27400:	2802      	cmp	r0, #2
   27402:	d024      	beq.n	2744e <_ZN20complex_dynamic_type3app17heabc89f5c2dc88ffE+0x9e>
   27404:	a81d      	add	r0, sp, #116	@ 0x74
   27406:	7800      	ldrb	r0, [r0, #0]
   27408:	2802      	cmp	r0, #2
   2740a:	4630      	mov	r0, r6
   2740c:	d10e      	bne.n	2742c <_ZN20complex_dynamic_type3app17heabc89f5c2dc88ffE+0x7c>
   2740e:	2403      	movs	r4, #3
   27410:	9804      	ldr	r0, [sp, #16]
   27412:	9000      	str	r0, [sp, #0]
   27414:	9401      	str	r4, [sp, #4]
   27416:	a82d      	add	r0, sp, #180	@ 0xb4
   27418:	2209      	movs	r2, #9
   2741a:	492f      	ldr	r1, [pc, #188]	@ (274d8 <_ZN20complex_dynamic_type3app17heabc89f5c2dc88ffE+0x128>)
   2741c:	9b06      	ldr	r3, [sp, #24]
   2741e:	f003 ff3c 	bl	2b29a <_ZN9allow_pin13dynamic_allow17h33d41317a2da4f1cE>
   27422:	982d      	ldr	r0, [sp, #180]	@ 0xb4
   27424:	2802      	cmp	r0, #2
   27426:	d105      	bne.n	27434 <_ZN20complex_dynamic_type3app17heabc89f5c2dc88ffE+0x84>
   27428:	9d2e      	ldr	r5, [sp, #184]	@ 0xb8
   2742a:	4630      	mov	r0, r6
   2742c:	2800      	cmp	r0, #0
   2742e:	d006      	beq.n	2743e <_ZN20complex_dynamic_type3app17heabc89f5c2dc88ffE+0x8e>
   27430:	4629      	mov	r1, r5
   27432:	e00c      	b.n	2744e <_ZN20complex_dynamic_type3app17heabc89f5c2dc88ffE+0x9e>
   27434:	a81d      	add	r0, sp, #116	@ 0x74
   27436:	7004      	strb	r4, [r0, #0]
   27438:	2000      	movs	r0, #0
   2743a:	2800      	cmp	r0, #0
   2743c:	d1f8      	bne.n	27430 <_ZN20complex_dynamic_type3app17heabc89f5c2dc88ffE+0x80>
   2743e:	4826      	ldr	r0, [pc, #152]	@ (274d8 <_ZN20complex_dynamic_type3app17heabc89f5c2dc88ffE+0x128>)
   27440:	2103      	movs	r1, #3
   27442:	2209      	movs	r2, #9
   27444:	2400      	movs	r4, #0
   27446:	4623      	mov	r3, r4
   27448:	df02      	svc	2
   2744a:	287f      	cmp	r0, #127	@ 0x7f
   2744c:	d80d      	bhi.n	2746a <_ZN20complex_dynamic_type3app17heabc89f5c2dc88ffE+0xba>
   2744e:	4634      	mov	r4, r6
   27450:	2c00      	cmp	r4, #0
   27452:	d021      	beq.n	27498 <_ZN20complex_dynamic_type3app17heabc89f5c2dc88ffE+0xe8>
   27454:	2001      	movs	r0, #1
   27456:	9a07      	ldr	r2, [sp, #28]
   27458:	7010      	strb	r0, [r2, #0]
   2745a:	6051      	str	r1, [r2, #4]
   2745c:	a81d      	add	r0, sp, #116	@ 0x74
   2745e:	7802      	ldrb	r2, [r0, #0]
   27460:	2a02      	cmp	r2, #2
   27462:	d02e      	beq.n	274c2 <_ZN20complex_dynamic_type3app17heabc89f5c2dc88ffE+0x112>
   27464:	2109      	movs	r1, #9
   27466:	481c      	ldr	r0, [pc, #112]	@ (274d8 <_ZN20complex_dynamic_type3app17heabc89f5c2dc88ffE+0x128>)
   27468:	e029      	b.n	274be <_ZN20complex_dynamic_type3app17heabc89f5c2dc88ffE+0x10e>
   2746a:	a808      	add	r0, sp, #32
   2746c:	7802      	ldrb	r2, [r0, #0]
   2746e:	2a02      	cmp	r2, #2
   27470:	d003      	beq.n	2747a <_ZN20complex_dynamic_type3app17heabc89f5c2dc88ffE+0xca>
   27472:	2103      	movs	r1, #3
   27474:	4818      	ldr	r0, [pc, #96]	@ (274d8 <_ZN20complex_dynamic_type3app17heabc89f5c2dc88ffE+0x128>)
   27476:	f003 ff03 	bl	2b280 <_ZN9allow_pin12dynamic_type7unshare17hefa7cd45f9379b26E>
   2747a:	a808      	add	r0, sp, #32
   2747c:	9d03      	ldr	r5, [sp, #12]
   2747e:	7005      	strb	r5, [r0, #0]
   27480:	a81d      	add	r0, sp, #116	@ 0x74
   27482:	7802      	ldrb	r2, [r0, #0]
   27484:	2a02      	cmp	r2, #2
   27486:	d003      	beq.n	27490 <_ZN20complex_dynamic_type3app17heabc89f5c2dc88ffE+0xe0>
   27488:	2109      	movs	r1, #9
   2748a:	4813      	ldr	r0, [pc, #76]	@ (274d8 <_ZN20complex_dynamic_type3app17heabc89f5c2dc88ffE+0x128>)
   2748c:	f003 fef8 	bl	2b280 <_ZN9allow_pin12dynamic_type7unshare17hefa7cd45f9379b26E>
   27490:	a81d      	add	r0, sp, #116	@ 0x74
   27492:	7005      	strb	r5, [r0, #0]
   27494:	2c00      	cmp	r4, #0
   27496:	d1dd      	bne.n	27454 <_ZN20complex_dynamic_type3app17heabc89f5c2dc88ffE+0xa4>
   27498:	a81d      	add	r0, sp, #116	@ 0x74
   2749a:	7804      	ldrb	r4, [r0, #0]
   2749c:	2c02      	cmp	r4, #2
   2749e:	d001      	beq.n	274a4 <_ZN20complex_dynamic_type3app17heabc89f5c2dc88ffE+0xf4>
   274a0:	480e      	ldr	r0, [pc, #56]	@ (274dc <_ZN20complex_dynamic_type3app17heabc89f5c2dc88ffE+0x12c>)
   274a2:	9006      	str	r0, [sp, #24]
   274a4:	9d07      	ldr	r5, [sp, #28]
   274a6:	1c68      	adds	r0, r5, #1
   274a8:	223c      	movs	r2, #60	@ 0x3c
   274aa:	9906      	ldr	r1, [sp, #24]
   274ac:	f004 f8cd 	bl	2b64a <__aeabi_memcpy>
   274b0:	2000      	movs	r0, #0
   274b2:	2c02      	cmp	r4, #2
   274b4:	7028      	strb	r0, [r5, #0]
   274b6:	d004      	beq.n	274c2 <_ZN20complex_dynamic_type3app17heabc89f5c2dc88ffE+0x112>
   274b8:	2109      	movs	r1, #9
   274ba:	4807      	ldr	r0, [pc, #28]	@ (274d8 <_ZN20complex_dynamic_type3app17heabc89f5c2dc88ffE+0x128>)
   274bc:	4622      	mov	r2, r4
   274be:	f003 fedf 	bl	2b280 <_ZN9allow_pin12dynamic_type7unshare17hefa7cd45f9379b26E>
   274c2:	a808      	add	r0, sp, #32
   274c4:	7802      	ldrb	r2, [r0, #0]
   274c6:	2a02      	cmp	r2, #2
   274c8:	d003      	beq.n	274d2 <_ZN20complex_dynamic_type3app17heabc89f5c2dc88ffE+0x122>
   274ca:	2103      	movs	r1, #3
   274cc:	4802      	ldr	r0, [pc, #8]	@ (274d8 <_ZN20complex_dynamic_type3app17heabc89f5c2dc88ffE+0x128>)
   274ce:	f003 fed7 	bl	2b280 <_ZN9allow_pin12dynamic_type7unshare17hefa7cd45f9379b26E>
   274d2:	b031      	add	sp, #196	@ 0xc4
   274d4:	bdf0      	pop	{r4, r5, r6, r7, pc}
   274d6:	46c0      	nop			@ (mov r8, r8)
   274d8:	00000d7a 	.word	0x00000d7a
   274dc:	000101a6 	.word	0x000101a6

000274e0 <_ZN20complex_dynamic_type3app17hebd8c2e325e62969E>:
   274e0:	b5f0      	push	{r4, r5, r6, r7, lr}
   274e2:	af03      	add	r7, sp, #12
   274e4:	b09d      	sub	sp, #116	@ 0x74
   274e6:	9007      	str	r0, [sp, #28]
   274e8:	a808      	add	r0, sp, #32
   274ea:	2502      	movs	r5, #2
   274ec:	7005      	strb	r5, [r0, #0]
   274ee:	1c40      	adds	r0, r0, #1
   274f0:	9005      	str	r0, [sp, #20]
   274f2:	261e      	movs	r6, #30
   274f4:	4632      	mov	r2, r6
   274f6:	f004 f8a8 	bl	2b64a <__aeabi_memcpy>
   274fa:	ac10      	add	r4, sp, #64	@ 0x40
   274fc:	1c60      	adds	r0, r4, #1
   274fe:	2121      	movs	r1, #33	@ 0x21
   27500:	9006      	str	r0, [sp, #24]
   27502:	9104      	str	r1, [sp, #16]
   27504:	f003 fee1 	bl	2b2ca <__aeabi_memclr>
   27508:	9503      	str	r5, [sp, #12]
   2750a:	7025      	strb	r5, [r4, #0]
   2750c:	2404      	movs	r4, #4
   2750e:	9600      	str	r6, [sp, #0]
   27510:	9401      	str	r4, [sp, #4]
   27512:	a819      	add	r0, sp, #100	@ 0x64
   27514:	4e3c      	ldr	r6, [pc, #240]	@ (27608 <_ZN20complex_dynamic_type3app17hebd8c2e325e62969E+0x128>)
   27516:	2206      	movs	r2, #6
   27518:	4631      	mov	r1, r6
   2751a:	9b05      	ldr	r3, [sp, #20]
   2751c:	f003 febd 	bl	2b29a <_ZN9allow_pin13dynamic_allow17h33d41317a2da4f1cE>
   27520:	9819      	ldr	r0, [sp, #100]	@ 0x64
   27522:	2802      	cmp	r0, #2
   27524:	d101      	bne.n	2752a <_ZN20complex_dynamic_type3app17hebd8c2e325e62969E+0x4a>
   27526:	991a      	ldr	r1, [sp, #104]	@ 0x68
   27528:	e001      	b.n	2752e <_ZN20complex_dynamic_type3app17hebd8c2e325e62969E+0x4e>
   2752a:	a908      	add	r1, sp, #32
   2752c:	700c      	strb	r4, [r1, #0]
   2752e:	2501      	movs	r5, #1
   27530:	2802      	cmp	r0, #2
   27532:	d024      	beq.n	2757e <_ZN20complex_dynamic_type3app17hebd8c2e325e62969E+0x9e>
   27534:	a810      	add	r0, sp, #64	@ 0x40
   27536:	7800      	ldrb	r0, [r0, #0]
   27538:	2802      	cmp	r0, #2
   2753a:	d10e      	bne.n	2755a <_ZN20complex_dynamic_type3app17hebd8c2e325e62969E+0x7a>
   2753c:	2403      	movs	r4, #3
   2753e:	9804      	ldr	r0, [sp, #16]
   27540:	9000      	str	r0, [sp, #0]
   27542:	9401      	str	r4, [sp, #4]
   27544:	a819      	add	r0, sp, #100	@ 0x64
   27546:	2209      	movs	r2, #9
   27548:	4631      	mov	r1, r6
   2754a:	9b06      	ldr	r3, [sp, #24]
   2754c:	f003 fea5 	bl	2b29a <_ZN9allow_pin13dynamic_allow17h33d41317a2da4f1cE>
   27550:	9819      	ldr	r0, [sp, #100]	@ 0x64
   27552:	2802      	cmp	r0, #2
   27554:	d106      	bne.n	27564 <_ZN20complex_dynamic_type3app17hebd8c2e325e62969E+0x84>
   27556:	991a      	ldr	r1, [sp, #104]	@ 0x68
   27558:	e000      	b.n	2755c <_ZN20complex_dynamic_type3app17hebd8c2e325e62969E+0x7c>
   2755a:	2103      	movs	r1, #3
   2755c:	4628      	mov	r0, r5
   2755e:	2800      	cmp	r0, #0
   27560:	d005      	beq.n	2756e <_ZN20complex_dynamic_type3app17hebd8c2e325e62969E+0x8e>
   27562:	e00c      	b.n	2757e <_ZN20complex_dynamic_type3app17hebd8c2e325e62969E+0x9e>
   27564:	a810      	add	r0, sp, #64	@ 0x40
   27566:	7004      	strb	r4, [r0, #0]
   27568:	2000      	movs	r0, #0
   2756a:	2800      	cmp	r0, #0
   2756c:	d107      	bne.n	2757e <_ZN20complex_dynamic_type3app17hebd8c2e325e62969E+0x9e>
   2756e:	4826      	ldr	r0, [pc, #152]	@ (27608 <_ZN20complex_dynamic_type3app17hebd8c2e325e62969E+0x128>)
   27570:	2106      	movs	r1, #6
   27572:	2209      	movs	r2, #9
   27574:	2400      	movs	r4, #0
   27576:	4623      	mov	r3, r4
   27578:	df02      	svc	2
   2757a:	287f      	cmp	r0, #127	@ 0x7f
   2757c:	d80d      	bhi.n	2759a <_ZN20complex_dynamic_type3app17hebd8c2e325e62969E+0xba>
   2757e:	462c      	mov	r4, r5
   27580:	2c00      	cmp	r4, #0
   27582:	d021      	beq.n	275c8 <_ZN20complex_dynamic_type3app17hebd8c2e325e62969E+0xe8>
   27584:	2001      	movs	r0, #1
   27586:	9a07      	ldr	r2, [sp, #28]
   27588:	7010      	strb	r0, [r2, #0]
   2758a:	6051      	str	r1, [r2, #4]
   2758c:	a810      	add	r0, sp, #64	@ 0x40
   2758e:	7802      	ldrb	r2, [r0, #0]
   27590:	2a02      	cmp	r2, #2
   27592:	d02e      	beq.n	275f2 <_ZN20complex_dynamic_type3app17hebd8c2e325e62969E+0x112>
   27594:	2109      	movs	r1, #9
   27596:	4630      	mov	r0, r6
   27598:	e029      	b.n	275ee <_ZN20complex_dynamic_type3app17hebd8c2e325e62969E+0x10e>
   2759a:	a808      	add	r0, sp, #32
   2759c:	7802      	ldrb	r2, [r0, #0]
   2759e:	2a02      	cmp	r2, #2
   275a0:	d003      	beq.n	275aa <_ZN20complex_dynamic_type3app17hebd8c2e325e62969E+0xca>
   275a2:	2106      	movs	r1, #6
   275a4:	4630      	mov	r0, r6
   275a6:	f003 fe6b 	bl	2b280 <_ZN9allow_pin12dynamic_type7unshare17hefa7cd45f9379b26E>
   275aa:	a808      	add	r0, sp, #32
   275ac:	9d03      	ldr	r5, [sp, #12]
   275ae:	7005      	strb	r5, [r0, #0]
   275b0:	a810      	add	r0, sp, #64	@ 0x40
   275b2:	7802      	ldrb	r2, [r0, #0]
   275b4:	2a02      	cmp	r2, #2
   275b6:	d003      	beq.n	275c0 <_ZN20complex_dynamic_type3app17hebd8c2e325e62969E+0xe0>
   275b8:	2109      	movs	r1, #9
   275ba:	4630      	mov	r0, r6
   275bc:	f003 fe60 	bl	2b280 <_ZN9allow_pin12dynamic_type7unshare17hefa7cd45f9379b26E>
   275c0:	a810      	add	r0, sp, #64	@ 0x40
   275c2:	7005      	strb	r5, [r0, #0]
   275c4:	2c00      	cmp	r4, #0
   275c6:	d1dd      	bne.n	27584 <_ZN20complex_dynamic_type3app17hebd8c2e325e62969E+0xa4>
   275c8:	a810      	add	r0, sp, #64	@ 0x40
   275ca:	7804      	ldrb	r4, [r0, #0]
   275cc:	2c02      	cmp	r4, #2
   275ce:	d001      	beq.n	275d4 <_ZN20complex_dynamic_type3app17hebd8c2e325e62969E+0xf4>
   275d0:	480e      	ldr	r0, [pc, #56]	@ (2760c <_ZN20complex_dynamic_type3app17hebd8c2e325e62969E+0x12c>)
   275d2:	9006      	str	r0, [sp, #24]
   275d4:	9d07      	ldr	r5, [sp, #28]
   275d6:	1c68      	adds	r0, r5, #1
   275d8:	2221      	movs	r2, #33	@ 0x21
   275da:	9906      	ldr	r1, [sp, #24]
   275dc:	f004 f835 	bl	2b64a <__aeabi_memcpy>
   275e0:	2000      	movs	r0, #0
   275e2:	2c02      	cmp	r4, #2
   275e4:	7028      	strb	r0, [r5, #0]
   275e6:	d004      	beq.n	275f2 <_ZN20complex_dynamic_type3app17hebd8c2e325e62969E+0x112>
   275e8:	2109      	movs	r1, #9
   275ea:	4630      	mov	r0, r6
   275ec:	4622      	mov	r2, r4
   275ee:	f003 fe47 	bl	2b280 <_ZN9allow_pin12dynamic_type7unshare17hefa7cd45f9379b26E>
   275f2:	a808      	add	r0, sp, #32
   275f4:	7802      	ldrb	r2, [r0, #0]
   275f6:	2a02      	cmp	r2, #2
   275f8:	d003      	beq.n	27602 <_ZN20complex_dynamic_type3app17hebd8c2e325e62969E+0x122>
   275fa:	2106      	movs	r1, #6
   275fc:	4630      	mov	r0, r6
   275fe:	f003 fe3f 	bl	2b280 <_ZN9allow_pin12dynamic_type7unshare17hefa7cd45f9379b26E>
   27602:	b01d      	add	sp, #116	@ 0x74
   27604:	bdf0      	pop	{r4, r5, r6, r7, pc}
   27606:	46c0      	nop			@ (mov r8, r8)
   27608:	000019b5 	.word	0x000019b5
   2760c:	000101e2 	.word	0x000101e2

00027610 <_ZN20complex_dynamic_type3app17hee9b8f929d43afe6E>:
   27610:	b5f0      	push	{r4, r5, r6, r7, lr}
   27612:	af03      	add	r7, sp, #12
   27614:	b0b9      	sub	sp, #228	@ 0xe4
   27616:	9006      	str	r0, [sp, #24]
   27618:	a807      	add	r0, sp, #28
   2761a:	2502      	movs	r5, #2
   2761c:	7005      	strb	r5, [r0, #0]
   2761e:	1c40      	adds	r0, r0, #1
   27620:	9004      	str	r0, [sp, #16]
   27622:	265e      	movs	r6, #94	@ 0x5e
   27624:	4632      	mov	r2, r6
   27626:	f004 f810 	bl	2b64a <__aeabi_memcpy>
   2762a:	ac1f      	add	r4, sp, #124	@ 0x7c
   2762c:	1c60      	adds	r0, r4, #1
   2762e:	2155      	movs	r1, #85	@ 0x55
   27630:	9005      	str	r0, [sp, #20]
   27632:	9103      	str	r1, [sp, #12]
   27634:	f003 fe49 	bl	2b2ca <__aeabi_memclr>
   27638:	9502      	str	r5, [sp, #8]
   2763a:	7025      	strb	r5, [r4, #0]
   2763c:	2404      	movs	r4, #4
   2763e:	9600      	str	r6, [sp, #0]
   27640:	9401      	str	r4, [sp, #4]
   27642:	a835      	add	r0, sp, #212	@ 0xd4
   27644:	493b      	ldr	r1, [pc, #236]	@ (27734 <_ZN20complex_dynamic_type3app17hee9b8f929d43afe6E+0x124>)
   27646:	2207      	movs	r2, #7
   27648:	9b04      	ldr	r3, [sp, #16]
   2764a:	f003 fe26 	bl	2b29a <_ZN9allow_pin13dynamic_allow17h33d41317a2da4f1cE>
   2764e:	9835      	ldr	r0, [sp, #212]	@ 0xd4
   27650:	2802      	cmp	r0, #2
   27652:	d101      	bne.n	27658 <_ZN20complex_dynamic_type3app17hee9b8f929d43afe6E+0x48>
   27654:	9936      	ldr	r1, [sp, #216]	@ 0xd8
   27656:	e001      	b.n	2765c <_ZN20complex_dynamic_type3app17hee9b8f929d43afe6E+0x4c>
   27658:	a907      	add	r1, sp, #28
   2765a:	700c      	strb	r4, [r1, #0]
   2765c:	2601      	movs	r6, #1
   2765e:	2802      	cmp	r0, #2
   27660:	d024      	beq.n	276ac <_ZN20complex_dynamic_type3app17hee9b8f929d43afe6E+0x9c>
   27662:	a81f      	add	r0, sp, #124	@ 0x7c
   27664:	7800      	ldrb	r0, [r0, #0]
   27666:	2802      	cmp	r0, #2
   27668:	d10e      	bne.n	27688 <_ZN20complex_dynamic_type3app17hee9b8f929d43afe6E+0x78>
   2766a:	2503      	movs	r5, #3
   2766c:	9803      	ldr	r0, [sp, #12]
   2766e:	9000      	str	r0, [sp, #0]
   27670:	9501      	str	r5, [sp, #4]
   27672:	a835      	add	r0, sp, #212	@ 0xd4
   27674:	492f      	ldr	r1, [pc, #188]	@ (27734 <_ZN20complex_dynamic_type3app17hee9b8f929d43afe6E+0x124>)
   27676:	462a      	mov	r2, r5
   27678:	9b05      	ldr	r3, [sp, #20]
   2767a:	f003 fe0e 	bl	2b29a <_ZN9allow_pin13dynamic_allow17h33d41317a2da4f1cE>
   2767e:	9835      	ldr	r0, [sp, #212]	@ 0xd4
   27680:	2802      	cmp	r0, #2
   27682:	d106      	bne.n	27692 <_ZN20complex_dynamic_type3app17hee9b8f929d43afe6E+0x82>
   27684:	9936      	ldr	r1, [sp, #216]	@ 0xd8
   27686:	e000      	b.n	2768a <_ZN20complex_dynamic_type3app17hee9b8f929d43afe6E+0x7a>
   27688:	2103      	movs	r1, #3
   2768a:	4630      	mov	r0, r6
   2768c:	2800      	cmp	r0, #0
   2768e:	d005      	beq.n	2769c <_ZN20complex_dynamic_type3app17hee9b8f929d43afe6E+0x8c>
   27690:	e00c      	b.n	276ac <_ZN20complex_dynamic_type3app17hee9b8f929d43afe6E+0x9c>
   27692:	a81f      	add	r0, sp, #124	@ 0x7c
   27694:	7005      	strb	r5, [r0, #0]
   27696:	2000      	movs	r0, #0
   27698:	2800      	cmp	r0, #0
   2769a:	d107      	bne.n	276ac <_ZN20complex_dynamic_type3app17hee9b8f929d43afe6E+0x9c>
   2769c:	4825      	ldr	r0, [pc, #148]	@ (27734 <_ZN20complex_dynamic_type3app17hee9b8f929d43afe6E+0x124>)
   2769e:	2107      	movs	r1, #7
   276a0:	2203      	movs	r2, #3
   276a2:	2400      	movs	r4, #0
   276a4:	4623      	mov	r3, r4
   276a6:	df02      	svc	2
   276a8:	287f      	cmp	r0, #127	@ 0x7f
   276aa:	d80d      	bhi.n	276c8 <_ZN20complex_dynamic_type3app17hee9b8f929d43afe6E+0xb8>
   276ac:	4634      	mov	r4, r6
   276ae:	2c00      	cmp	r4, #0
   276b0:	d021      	beq.n	276f6 <_ZN20complex_dynamic_type3app17hee9b8f929d43afe6E+0xe6>
   276b2:	2001      	movs	r0, #1
   276b4:	9a06      	ldr	r2, [sp, #24]
   276b6:	7010      	strb	r0, [r2, #0]
   276b8:	6051      	str	r1, [r2, #4]
   276ba:	a81f      	add	r0, sp, #124	@ 0x7c
   276bc:	7802      	ldrb	r2, [r0, #0]
   276be:	2a02      	cmp	r2, #2
   276c0:	d02e      	beq.n	27720 <_ZN20complex_dynamic_type3app17hee9b8f929d43afe6E+0x110>
   276c2:	2103      	movs	r1, #3
   276c4:	481b      	ldr	r0, [pc, #108]	@ (27734 <_ZN20complex_dynamic_type3app17hee9b8f929d43afe6E+0x124>)
   276c6:	e029      	b.n	2771c <_ZN20complex_dynamic_type3app17hee9b8f929d43afe6E+0x10c>
   276c8:	a807      	add	r0, sp, #28
   276ca:	7802      	ldrb	r2, [r0, #0]
   276cc:	2a02      	cmp	r2, #2
   276ce:	d003      	beq.n	276d8 <_ZN20complex_dynamic_type3app17hee9b8f929d43afe6E+0xc8>
   276d0:	2107      	movs	r1, #7
   276d2:	4818      	ldr	r0, [pc, #96]	@ (27734 <_ZN20complex_dynamic_type3app17hee9b8f929d43afe6E+0x124>)
   276d4:	f003 fdd4 	bl	2b280 <_ZN9allow_pin12dynamic_type7unshare17hefa7cd45f9379b26E>
   276d8:	a807      	add	r0, sp, #28
   276da:	9d02      	ldr	r5, [sp, #8]
   276dc:	7005      	strb	r5, [r0, #0]
   276de:	a81f      	add	r0, sp, #124	@ 0x7c
   276e0:	7802      	ldrb	r2, [r0, #0]
   276e2:	2a02      	cmp	r2, #2
   276e4:	d003      	beq.n	276ee <_ZN20complex_dynamic_type3app17hee9b8f929d43afe6E+0xde>
   276e6:	2103      	movs	r1, #3
   276e8:	4812      	ldr	r0, [pc, #72]	@ (27734 <_ZN20complex_dynamic_type3app17hee9b8f929d43afe6E+0x124>)
   276ea:	f003 fdc9 	bl	2b280 <_ZN9allow_pin12dynamic_type7unshare17hefa7cd45f9379b26E>
   276ee:	a81f      	add	r0, sp, #124	@ 0x7c
   276f0:	7005      	strb	r5, [r0, #0]
   276f2:	2c00      	cmp	r4, #0
   276f4:	d1dd      	bne.n	276b2 <_ZN20complex_dynamic_type3app17hee9b8f929d43afe6E+0xa2>
   276f6:	a81f      	add	r0, sp, #124	@ 0x7c
   276f8:	7804      	ldrb	r4, [r0, #0]
   276fa:	2c02      	cmp	r4, #2
   276fc:	d001      	beq.n	27702 <_ZN20complex_dynamic_type3app17hee9b8f929d43afe6E+0xf2>
   276fe:	480e      	ldr	r0, [pc, #56]	@ (27738 <_ZN20complex_dynamic_type3app17hee9b8f929d43afe6E+0x128>)
   27700:	9005      	str	r0, [sp, #20]
   27702:	9d06      	ldr	r5, [sp, #24]
   27704:	1c68      	adds	r0, r5, #1
   27706:	2255      	movs	r2, #85	@ 0x55
   27708:	9905      	ldr	r1, [sp, #20]
   2770a:	f003 ff9e 	bl	2b64a <__aeabi_memcpy>
   2770e:	2000      	movs	r0, #0
   27710:	2c02      	cmp	r4, #2
   27712:	7028      	strb	r0, [r5, #0]
   27714:	d004      	beq.n	27720 <_ZN20complex_dynamic_type3app17hee9b8f929d43afe6E+0x110>
   27716:	2103      	movs	r1, #3
   27718:	4806      	ldr	r0, [pc, #24]	@ (27734 <_ZN20complex_dynamic_type3app17hee9b8f929d43afe6E+0x124>)
   2771a:	4622      	mov	r2, r4
   2771c:	f003 fdb0 	bl	2b280 <_ZN9allow_pin12dynamic_type7unshare17hefa7cd45f9379b26E>
   27720:	a807      	add	r0, sp, #28
   27722:	7802      	ldrb	r2, [r0, #0]
   27724:	2a02      	cmp	r2, #2
   27726:	d003      	beq.n	27730 <_ZN20complex_dynamic_type3app17hee9b8f929d43afe6E+0x120>
   27728:	2107      	movs	r1, #7
   2772a:	4802      	ldr	r0, [pc, #8]	@ (27734 <_ZN20complex_dynamic_type3app17hee9b8f929d43afe6E+0x124>)
   2772c:	f003 fda8 	bl	2b280 <_ZN9allow_pin12dynamic_type7unshare17hefa7cd45f9379b26E>
   27730:	b039      	add	sp, #228	@ 0xe4
   27732:	bdf0      	pop	{r4, r5, r6, r7, pc}
   27734:	0000178a 	.word	0x0000178a
   27738:	000105c0 	.word	0x000105c0

0002773c <_ZN20complex_dynamic_type3app17hf02d4d86c6b01c08E>:
   2773c:	b5f0      	push	{r4, r5, r6, r7, lr}
   2773e:	af03      	add	r7, sp, #12
   27740:	b0a1      	sub	sp, #132	@ 0x84
   27742:	9007      	str	r0, [sp, #28]
   27744:	a808      	add	r0, sp, #32
   27746:	2402      	movs	r4, #2
   27748:	7004      	strb	r4, [r0, #0]
   2774a:	1c40      	adds	r0, r0, #1
   2774c:	9005      	str	r0, [sp, #20]
   2774e:	2611      	movs	r6, #17
   27750:	4632      	mov	r2, r6
   27752:	f003 ff7a 	bl	2b64a <__aeabi_memcpy>
   27756:	ad0d      	add	r5, sp, #52	@ 0x34
   27758:	1c68      	adds	r0, r5, #1
   2775a:	213f      	movs	r1, #63	@ 0x3f
   2775c:	9006      	str	r0, [sp, #24]
   2775e:	9104      	str	r1, [sp, #16]
   27760:	f003 fdb3 	bl	2b2ca <__aeabi_memclr>
   27764:	9403      	str	r4, [sp, #12]
   27766:	702c      	strb	r4, [r5, #0]
   27768:	2504      	movs	r5, #4
   2776a:	9600      	str	r6, [sp, #0]
   2776c:	9501      	str	r5, [sp, #4]
   2776e:	20cb      	movs	r0, #203	@ 0xcb
   27770:	0106      	lsls	r6, r0, #4
   27772:	a81d      	add	r0, sp, #116	@ 0x74
   27774:	2207      	movs	r2, #7
   27776:	4631      	mov	r1, r6
   27778:	9b05      	ldr	r3, [sp, #20]
   2777a:	f003 fd8e 	bl	2b29a <_ZN9allow_pin13dynamic_allow17h33d41317a2da4f1cE>
   2777e:	981d      	ldr	r0, [sp, #116]	@ 0x74
   27780:	2802      	cmp	r0, #2
   27782:	d101      	bne.n	27788 <_ZN20complex_dynamic_type3app17hf02d4d86c6b01c08E+0x4c>
   27784:	991e      	ldr	r1, [sp, #120]	@ 0x78
   27786:	e001      	b.n	2778c <_ZN20complex_dynamic_type3app17hf02d4d86c6b01c08E+0x50>
   27788:	a908      	add	r1, sp, #32
   2778a:	700d      	strb	r5, [r1, #0]
   2778c:	2401      	movs	r4, #1
   2778e:	2802      	cmp	r0, #2
   27790:	d024      	beq.n	277dc <_ZN20complex_dynamic_type3app17hf02d4d86c6b01c08E+0xa0>
   27792:	a80d      	add	r0, sp, #52	@ 0x34
   27794:	7800      	ldrb	r0, [r0, #0]
   27796:	2802      	cmp	r0, #2
   27798:	d10e      	bne.n	277b8 <_ZN20complex_dynamic_type3app17hf02d4d86c6b01c08E+0x7c>
   2779a:	2503      	movs	r5, #3
   2779c:	9804      	ldr	r0, [sp, #16]
   2779e:	9000      	str	r0, [sp, #0]
   277a0:	9501      	str	r5, [sp, #4]
   277a2:	a81d      	add	r0, sp, #116	@ 0x74
   277a4:	2204      	movs	r2, #4
   277a6:	4631      	mov	r1, r6
   277a8:	9b06      	ldr	r3, [sp, #24]
   277aa:	f003 fd76 	bl	2b29a <_ZN9allow_pin13dynamic_allow17h33d41317a2da4f1cE>
   277ae:	981d      	ldr	r0, [sp, #116]	@ 0x74
   277b0:	2802      	cmp	r0, #2
   277b2:	d106      	bne.n	277c2 <_ZN20complex_dynamic_type3app17hf02d4d86c6b01c08E+0x86>
   277b4:	991e      	ldr	r1, [sp, #120]	@ 0x78
   277b6:	e000      	b.n	277ba <_ZN20complex_dynamic_type3app17hf02d4d86c6b01c08E+0x7e>
   277b8:	2103      	movs	r1, #3
   277ba:	4620      	mov	r0, r4
   277bc:	2800      	cmp	r0, #0
   277be:	d005      	beq.n	277cc <_ZN20complex_dynamic_type3app17hf02d4d86c6b01c08E+0x90>
   277c0:	e00c      	b.n	277dc <_ZN20complex_dynamic_type3app17hf02d4d86c6b01c08E+0xa0>
   277c2:	a80d      	add	r0, sp, #52	@ 0x34
   277c4:	7005      	strb	r5, [r0, #0]
   277c6:	2000      	movs	r0, #0
   277c8:	2800      	cmp	r0, #0
   277ca:	d107      	bne.n	277dc <_ZN20complex_dynamic_type3app17hf02d4d86c6b01c08E+0xa0>
   277cc:	2107      	movs	r1, #7
   277ce:	2204      	movs	r2, #4
   277d0:	2500      	movs	r5, #0
   277d2:	4630      	mov	r0, r6
   277d4:	462b      	mov	r3, r5
   277d6:	df02      	svc	2
   277d8:	287f      	cmp	r0, #127	@ 0x7f
   277da:	d80d      	bhi.n	277f8 <_ZN20complex_dynamic_type3app17hf02d4d86c6b01c08E+0xbc>
   277dc:	4625      	mov	r5, r4
   277de:	2d00      	cmp	r5, #0
   277e0:	d021      	beq.n	27826 <_ZN20complex_dynamic_type3app17hf02d4d86c6b01c08E+0xea>
   277e2:	2001      	movs	r0, #1
   277e4:	9a07      	ldr	r2, [sp, #28]
   277e6:	7010      	strb	r0, [r2, #0]
   277e8:	6051      	str	r1, [r2, #4]
   277ea:	a80d      	add	r0, sp, #52	@ 0x34
   277ec:	7802      	ldrb	r2, [r0, #0]
   277ee:	2a02      	cmp	r2, #2
   277f0:	d02e      	beq.n	27850 <_ZN20complex_dynamic_type3app17hf02d4d86c6b01c08E+0x114>
   277f2:	2104      	movs	r1, #4
   277f4:	4630      	mov	r0, r6
   277f6:	e029      	b.n	2784c <_ZN20complex_dynamic_type3app17hf02d4d86c6b01c08E+0x110>
   277f8:	a808      	add	r0, sp, #32
   277fa:	7802      	ldrb	r2, [r0, #0]
   277fc:	2a02      	cmp	r2, #2
   277fe:	d003      	beq.n	27808 <_ZN20complex_dynamic_type3app17hf02d4d86c6b01c08E+0xcc>
   27800:	2107      	movs	r1, #7
   27802:	4630      	mov	r0, r6
   27804:	f003 fd3c 	bl	2b280 <_ZN9allow_pin12dynamic_type7unshare17hefa7cd45f9379b26E>
   27808:	a808      	add	r0, sp, #32
   2780a:	9c03      	ldr	r4, [sp, #12]
   2780c:	7004      	strb	r4, [r0, #0]
   2780e:	a80d      	add	r0, sp, #52	@ 0x34
   27810:	7802      	ldrb	r2, [r0, #0]
   27812:	2a02      	cmp	r2, #2
   27814:	d003      	beq.n	2781e <_ZN20complex_dynamic_type3app17hf02d4d86c6b01c08E+0xe2>
   27816:	2104      	movs	r1, #4
   27818:	4630      	mov	r0, r6
   2781a:	f003 fd31 	bl	2b280 <_ZN9allow_pin12dynamic_type7unshare17hefa7cd45f9379b26E>
   2781e:	a80d      	add	r0, sp, #52	@ 0x34
   27820:	7004      	strb	r4, [r0, #0]
   27822:	2d00      	cmp	r5, #0
   27824:	d1dd      	bne.n	277e2 <_ZN20complex_dynamic_type3app17hf02d4d86c6b01c08E+0xa6>
   27826:	a80d      	add	r0, sp, #52	@ 0x34
   27828:	7805      	ldrb	r5, [r0, #0]
   2782a:	2d02      	cmp	r5, #2
   2782c:	d001      	beq.n	27832 <_ZN20complex_dynamic_type3app17hf02d4d86c6b01c08E+0xf6>
   2782e:	480d      	ldr	r0, [pc, #52]	@ (27864 <_ZN20complex_dynamic_type3app17hf02d4d86c6b01c08E+0x128>)
   27830:	9006      	str	r0, [sp, #24]
   27832:	9c07      	ldr	r4, [sp, #28]
   27834:	1c60      	adds	r0, r4, #1
   27836:	223f      	movs	r2, #63	@ 0x3f
   27838:	9906      	ldr	r1, [sp, #24]
   2783a:	f003 ff06 	bl	2b64a <__aeabi_memcpy>
   2783e:	2000      	movs	r0, #0
   27840:	2d02      	cmp	r5, #2
   27842:	7020      	strb	r0, [r4, #0]
   27844:	d004      	beq.n	27850 <_ZN20complex_dynamic_type3app17hf02d4d86c6b01c08E+0x114>
   27846:	2104      	movs	r1, #4
   27848:	4630      	mov	r0, r6
   2784a:	462a      	mov	r2, r5
   2784c:	f003 fd18 	bl	2b280 <_ZN9allow_pin12dynamic_type7unshare17hefa7cd45f9379b26E>
   27850:	a808      	add	r0, sp, #32
   27852:	7802      	ldrb	r2, [r0, #0]
   27854:	2a02      	cmp	r2, #2
   27856:	d003      	beq.n	27860 <_ZN20complex_dynamic_type3app17hf02d4d86c6b01c08E+0x124>
   27858:	2107      	movs	r1, #7
   2785a:	4630      	mov	r0, r6
   2785c:	f003 fd10 	bl	2b280 <_ZN9allow_pin12dynamic_type7unshare17hefa7cd45f9379b26E>
   27860:	b021      	add	sp, #132	@ 0x84
   27862:	bdf0      	pop	{r4, r5, r6, r7, pc}
   27864:	00010906 	.word	0x00010906

00027868 <_ZN20complex_dynamic_type3app17hf4a4b2c6432a0894E>:
   27868:	b5f0      	push	{r4, r5, r6, r7, lr}
   2786a:	af03      	add	r7, sp, #12
   2786c:	b0a9      	sub	sp, #164	@ 0xa4
   2786e:	9006      	str	r0, [sp, #24]
   27870:	a807      	add	r0, sp, #28
   27872:	2502      	movs	r5, #2
   27874:	7005      	strb	r5, [r0, #0]
   27876:	1c40      	adds	r0, r0, #1
   27878:	9004      	str	r0, [sp, #16]
   2787a:	2627      	movs	r6, #39	@ 0x27
   2787c:	4632      	mov	r2, r6
   2787e:	f003 fee4 	bl	2b64a <__aeabi_memcpy>
   27882:	ac11      	add	r4, sp, #68	@ 0x44
   27884:	1c60      	adds	r0, r4, #1
   27886:	214f      	movs	r1, #79	@ 0x4f
   27888:	9005      	str	r0, [sp, #20]
   2788a:	9103      	str	r1, [sp, #12]
   2788c:	f003 fd1d 	bl	2b2ca <__aeabi_memclr>
   27890:	9502      	str	r5, [sp, #8]
   27892:	7025      	strb	r5, [r4, #0]
   27894:	2404      	movs	r4, #4
   27896:	9600      	str	r6, [sp, #0]
   27898:	9401      	str	r4, [sp, #4]
   2789a:	a825      	add	r0, sp, #148	@ 0x94
   2789c:	4e3d      	ldr	r6, [pc, #244]	@ (27994 <_ZN20complex_dynamic_type3app17hf4a4b2c6432a0894E+0x12c>)
   2789e:	2209      	movs	r2, #9
   278a0:	4631      	mov	r1, r6
   278a2:	9b04      	ldr	r3, [sp, #16]
   278a4:	f003 fcf9 	bl	2b29a <_ZN9allow_pin13dynamic_allow17h33d41317a2da4f1cE>
   278a8:	9825      	ldr	r0, [sp, #148]	@ 0x94
   278aa:	2802      	cmp	r0, #2
   278ac:	d101      	bne.n	278b2 <_ZN20complex_dynamic_type3app17hf4a4b2c6432a0894E+0x4a>
   278ae:	9926      	ldr	r1, [sp, #152]	@ 0x98
   278b0:	e001      	b.n	278b6 <_ZN20complex_dynamic_type3app17hf4a4b2c6432a0894E+0x4e>
   278b2:	a907      	add	r1, sp, #28
   278b4:	700c      	strb	r4, [r1, #0]
   278b6:	2501      	movs	r5, #1
   278b8:	2802      	cmp	r0, #2
   278ba:	d10d      	bne.n	278d8 <_ZN20complex_dynamic_type3app17hf4a4b2c6432a0894E+0x70>
   278bc:	462c      	mov	r4, r5
   278be:	2c00      	cmp	r4, #0
   278c0:	d048      	beq.n	27954 <_ZN20complex_dynamic_type3app17hf4a4b2c6432a0894E+0xec>
   278c2:	2001      	movs	r0, #1
   278c4:	9a06      	ldr	r2, [sp, #24]
   278c6:	7010      	strb	r0, [r2, #0]
   278c8:	6051      	str	r1, [r2, #4]
   278ca:	a811      	add	r0, sp, #68	@ 0x44
   278cc:	7802      	ldrb	r2, [r0, #0]
   278ce:	2a02      	cmp	r2, #2
   278d0:	d055      	beq.n	2797e <_ZN20complex_dynamic_type3app17hf4a4b2c6432a0894E+0x116>
   278d2:	2100      	movs	r1, #0
   278d4:	4630      	mov	r0, r6
   278d6:	e050      	b.n	2797a <_ZN20complex_dynamic_type3app17hf4a4b2c6432a0894E+0x112>
   278d8:	a811      	add	r0, sp, #68	@ 0x44
   278da:	7800      	ldrb	r0, [r0, #0]
   278dc:	2802      	cmp	r0, #2
   278de:	d110      	bne.n	27902 <_ZN20complex_dynamic_type3app17hf4a4b2c6432a0894E+0x9a>
   278e0:	4631      	mov	r1, r6
   278e2:	2603      	movs	r6, #3
   278e4:	9803      	ldr	r0, [sp, #12]
   278e6:	9000      	str	r0, [sp, #0]
   278e8:	9601      	str	r6, [sp, #4]
   278ea:	a825      	add	r0, sp, #148	@ 0x94
   278ec:	2400      	movs	r4, #0
   278ee:	4622      	mov	r2, r4
   278f0:	9b05      	ldr	r3, [sp, #20]
   278f2:	f003 fcd2 	bl	2b29a <_ZN9allow_pin13dynamic_allow17h33d41317a2da4f1cE>
   278f6:	9825      	ldr	r0, [sp, #148]	@ 0x94
   278f8:	2802      	cmp	r0, #2
   278fa:	d107      	bne.n	2790c <_ZN20complex_dynamic_type3app17hf4a4b2c6432a0894E+0xa4>
   278fc:	9926      	ldr	r1, [sp, #152]	@ 0x98
   278fe:	462c      	mov	r4, r5
   27900:	e006      	b.n	27910 <_ZN20complex_dynamic_type3app17hf4a4b2c6432a0894E+0xa8>
   27902:	2103      	movs	r1, #3
   27904:	462c      	mov	r4, r5
   27906:	2c00      	cmp	r4, #0
   27908:	d1d8      	bne.n	278bc <_ZN20complex_dynamic_type3app17hf4a4b2c6432a0894E+0x54>
   2790a:	e004      	b.n	27916 <_ZN20complex_dynamic_type3app17hf4a4b2c6432a0894E+0xae>
   2790c:	a811      	add	r0, sp, #68	@ 0x44
   2790e:	7006      	strb	r6, [r0, #0]
   27910:	4e20      	ldr	r6, [pc, #128]	@ (27994 <_ZN20complex_dynamic_type3app17hf4a4b2c6432a0894E+0x12c>)
   27912:	2c00      	cmp	r4, #0
   27914:	d1d2      	bne.n	278bc <_ZN20complex_dynamic_type3app17hf4a4b2c6432a0894E+0x54>
   27916:	481f      	ldr	r0, [pc, #124]	@ (27994 <_ZN20complex_dynamic_type3app17hf4a4b2c6432a0894E+0x12c>)
   27918:	2109      	movs	r1, #9
   2791a:	2400      	movs	r4, #0
   2791c:	4622      	mov	r2, r4
   2791e:	4623      	mov	r3, r4
   27920:	df02      	svc	2
   27922:	287f      	cmp	r0, #127	@ 0x7f
   27924:	d9ca      	bls.n	278bc <_ZN20complex_dynamic_type3app17hf4a4b2c6432a0894E+0x54>
   27926:	a807      	add	r0, sp, #28
   27928:	7802      	ldrb	r2, [r0, #0]
   2792a:	2a02      	cmp	r2, #2
   2792c:	d003      	beq.n	27936 <_ZN20complex_dynamic_type3app17hf4a4b2c6432a0894E+0xce>
   2792e:	2109      	movs	r1, #9
   27930:	4630      	mov	r0, r6
   27932:	f003 fca5 	bl	2b280 <_ZN9allow_pin12dynamic_type7unshare17hefa7cd45f9379b26E>
   27936:	a807      	add	r0, sp, #28
   27938:	9d02      	ldr	r5, [sp, #8]
   2793a:	7005      	strb	r5, [r0, #0]
   2793c:	a811      	add	r0, sp, #68	@ 0x44
   2793e:	7802      	ldrb	r2, [r0, #0]
   27940:	2a02      	cmp	r2, #2
   27942:	d003      	beq.n	2794c <_ZN20complex_dynamic_type3app17hf4a4b2c6432a0894E+0xe4>
   27944:	2100      	movs	r1, #0
   27946:	4630      	mov	r0, r6
   27948:	f003 fc9a 	bl	2b280 <_ZN9allow_pin12dynamic_type7unshare17hefa7cd45f9379b26E>
   2794c:	a811      	add	r0, sp, #68	@ 0x44
   2794e:	7005      	strb	r5, [r0, #0]
   27950:	2c00      	cmp	r4, #0
   27952:	d1b6      	bne.n	278c2 <_ZN20complex_dynamic_type3app17hf4a4b2c6432a0894E+0x5a>
   27954:	a811      	add	r0, sp, #68	@ 0x44
   27956:	7804      	ldrb	r4, [r0, #0]
   27958:	2c02      	cmp	r4, #2
   2795a:	d001      	beq.n	27960 <_ZN20complex_dynamic_type3app17hf4a4b2c6432a0894E+0xf8>
   2795c:	480e      	ldr	r0, [pc, #56]	@ (27998 <_ZN20complex_dynamic_type3app17hf4a4b2c6432a0894E+0x130>)
   2795e:	9005      	str	r0, [sp, #20]
   27960:	9d06      	ldr	r5, [sp, #24]
   27962:	1c68      	adds	r0, r5, #1
   27964:	224f      	movs	r2, #79	@ 0x4f
   27966:	9905      	ldr	r1, [sp, #20]
   27968:	f003 fe6f 	bl	2b64a <__aeabi_memcpy>
   2796c:	2000      	movs	r0, #0
   2796e:	2c02      	cmp	r4, #2
   27970:	7028      	strb	r0, [r5, #0]
   27972:	d004      	beq.n	2797e <_ZN20complex_dynamic_type3app17hf4a4b2c6432a0894E+0x116>
   27974:	2100      	movs	r1, #0
   27976:	4630      	mov	r0, r6
   27978:	4622      	mov	r2, r4
   2797a:	f003 fc81 	bl	2b280 <_ZN9allow_pin12dynamic_type7unshare17hefa7cd45f9379b26E>
   2797e:	a807      	add	r0, sp, #28
   27980:	7802      	ldrb	r2, [r0, #0]
   27982:	2a02      	cmp	r2, #2
   27984:	d003      	beq.n	2798e <_ZN20complex_dynamic_type3app17hf4a4b2c6432a0894E+0x126>
   27986:	2109      	movs	r1, #9
   27988:	4630      	mov	r0, r6
   2798a:	f003 fc79 	bl	2b280 <_ZN9allow_pin12dynamic_type7unshare17hefa7cd45f9379b26E>
   2798e:	b029      	add	sp, #164	@ 0xa4
   27990:	bdf0      	pop	{r4, r5, r6, r7, pc}
   27992:	46c0      	nop			@ (mov r8, r8)
   27994:	00000b4c 	.word	0x00000b4c
   27998:	0001027c 	.word	0x0001027c

0002799c <_ZN20complex_dynamic_type3app17hf7b0039ed7a63740E>:
   2799c:	b5f0      	push	{r4, r5, r6, r7, lr}
   2799e:	af03      	add	r7, sp, #12
   279a0:	b0a5      	sub	sp, #148	@ 0x94
   279a2:	9006      	str	r0, [sp, #24]
   279a4:	a807      	add	r0, sp, #28
   279a6:	2502      	movs	r5, #2
   279a8:	7005      	strb	r5, [r0, #0]
   279aa:	1c40      	adds	r0, r0, #1
   279ac:	9004      	str	r0, [sp, #16]
   279ae:	2434      	movs	r4, #52	@ 0x34
   279b0:	4622      	mov	r2, r4
   279b2:	f003 fe4a 	bl	2b64a <__aeabi_memcpy>
   279b6:	ae15      	add	r6, sp, #84	@ 0x54
   279b8:	1c70      	adds	r0, r6, #1
   279ba:	212e      	movs	r1, #46	@ 0x2e
   279bc:	9005      	str	r0, [sp, #20]
   279be:	9103      	str	r1, [sp, #12]
   279c0:	f003 fc83 	bl	2b2ca <__aeabi_memclr>
   279c4:	7035      	strb	r5, [r6, #0]
   279c6:	2004      	movs	r0, #4
   279c8:	9400      	str	r4, [sp, #0]
   279ca:	4604      	mov	r4, r0
   279cc:	9001      	str	r0, [sp, #4]
   279ce:	a821      	add	r0, sp, #132	@ 0x84
   279d0:	4e3d      	ldr	r6, [pc, #244]	@ (27ac8 <_ZN20complex_dynamic_type3app17hf7b0039ed7a63740E+0x12c>)
   279d2:	4631      	mov	r1, r6
   279d4:	462a      	mov	r2, r5
   279d6:	9b04      	ldr	r3, [sp, #16]
   279d8:	f003 fc5f 	bl	2b29a <_ZN9allow_pin13dynamic_allow17h33d41317a2da4f1cE>
   279dc:	9821      	ldr	r0, [sp, #132]	@ 0x84
   279de:	2802      	cmp	r0, #2
   279e0:	d101      	bne.n	279e6 <_ZN20complex_dynamic_type3app17hf7b0039ed7a63740E+0x4a>
   279e2:	9922      	ldr	r1, [sp, #136]	@ 0x88
   279e4:	e001      	b.n	279ea <_ZN20complex_dynamic_type3app17hf7b0039ed7a63740E+0x4e>
   279e6:	a907      	add	r1, sp, #28
   279e8:	700c      	strb	r4, [r1, #0]
   279ea:	2501      	movs	r5, #1
   279ec:	2802      	cmp	r0, #2
   279ee:	d016      	beq.n	27a1e <_ZN20complex_dynamic_type3app17hf7b0039ed7a63740E+0x82>
   279f0:	a815      	add	r0, sp, #84	@ 0x54
   279f2:	7800      	ldrb	r0, [r0, #0]
   279f4:	2802      	cmp	r0, #2
   279f6:	d10e      	bne.n	27a16 <_ZN20complex_dynamic_type3app17hf7b0039ed7a63740E+0x7a>
   279f8:	2403      	movs	r4, #3
   279fa:	9803      	ldr	r0, [sp, #12]
   279fc:	9000      	str	r0, [sp, #0]
   279fe:	9401      	str	r4, [sp, #4]
   27a00:	a821      	add	r0, sp, #132	@ 0x84
   27a02:	2208      	movs	r2, #8
   27a04:	4631      	mov	r1, r6
   27a06:	9b05      	ldr	r3, [sp, #20]
   27a08:	f003 fc47 	bl	2b29a <_ZN9allow_pin13dynamic_allow17h33d41317a2da4f1cE>
   27a0c:	9821      	ldr	r0, [sp, #132]	@ 0x84
   27a0e:	2802      	cmp	r0, #2
   27a10:	d113      	bne.n	27a3a <_ZN20complex_dynamic_type3app17hf7b0039ed7a63740E+0x9e>
   27a12:	9922      	ldr	r1, [sp, #136]	@ 0x88
   27a14:	e000      	b.n	27a18 <_ZN20complex_dynamic_type3app17hf7b0039ed7a63740E+0x7c>
   27a16:	2103      	movs	r1, #3
   27a18:	4628      	mov	r0, r5
   27a1a:	2800      	cmp	r0, #0
   27a1c:	d012      	beq.n	27a44 <_ZN20complex_dynamic_type3app17hf7b0039ed7a63740E+0xa8>
   27a1e:	462c      	mov	r4, r5
   27a20:	2c00      	cmp	r4, #0
   27a22:	d031      	beq.n	27a88 <_ZN20complex_dynamic_type3app17hf7b0039ed7a63740E+0xec>
   27a24:	2001      	movs	r0, #1
   27a26:	9a06      	ldr	r2, [sp, #24]
   27a28:	7010      	strb	r0, [r2, #0]
   27a2a:	6051      	str	r1, [r2, #4]
   27a2c:	a815      	add	r0, sp, #84	@ 0x54
   27a2e:	7802      	ldrb	r2, [r0, #0]
   27a30:	2a02      	cmp	r2, #2
   27a32:	d03e      	beq.n	27ab2 <_ZN20complex_dynamic_type3app17hf7b0039ed7a63740E+0x116>
   27a34:	2108      	movs	r1, #8
   27a36:	4630      	mov	r0, r6
   27a38:	e039      	b.n	27aae <_ZN20complex_dynamic_type3app17hf7b0039ed7a63740E+0x112>
   27a3a:	a815      	add	r0, sp, #84	@ 0x54
   27a3c:	7004      	strb	r4, [r0, #0]
   27a3e:	2000      	movs	r0, #0
   27a40:	2800      	cmp	r0, #0
   27a42:	d1ec      	bne.n	27a1e <_ZN20complex_dynamic_type3app17hf7b0039ed7a63740E+0x82>
   27a44:	4820      	ldr	r0, [pc, #128]	@ (27ac8 <_ZN20complex_dynamic_type3app17hf7b0039ed7a63740E+0x12c>)
   27a46:	2102      	movs	r1, #2
   27a48:	2208      	movs	r2, #8
   27a4a:	2400      	movs	r4, #0
   27a4c:	460e      	mov	r6, r1
   27a4e:	4623      	mov	r3, r4
   27a50:	df02      	svc	2
   27a52:	287f      	cmp	r0, #127	@ 0x7f
   27a54:	d801      	bhi.n	27a5a <_ZN20complex_dynamic_type3app17hf7b0039ed7a63740E+0xbe>
   27a56:	462c      	mov	r4, r5
   27a58:	e013      	b.n	27a82 <_ZN20complex_dynamic_type3app17hf7b0039ed7a63740E+0xe6>
   27a5a:	a807      	add	r0, sp, #28
   27a5c:	7802      	ldrb	r2, [r0, #0]
   27a5e:	2a02      	cmp	r2, #2
   27a60:	d003      	beq.n	27a6a <_ZN20complex_dynamic_type3app17hf7b0039ed7a63740E+0xce>
   27a62:	2102      	movs	r1, #2
   27a64:	4818      	ldr	r0, [pc, #96]	@ (27ac8 <_ZN20complex_dynamic_type3app17hf7b0039ed7a63740E+0x12c>)
   27a66:	f003 fc0b 	bl	2b280 <_ZN9allow_pin12dynamic_type7unshare17hefa7cd45f9379b26E>
   27a6a:	a807      	add	r0, sp, #28
   27a6c:	7006      	strb	r6, [r0, #0]
   27a6e:	a815      	add	r0, sp, #84	@ 0x54
   27a70:	7802      	ldrb	r2, [r0, #0]
   27a72:	2a02      	cmp	r2, #2
   27a74:	d003      	beq.n	27a7e <_ZN20complex_dynamic_type3app17hf7b0039ed7a63740E+0xe2>
   27a76:	2108      	movs	r1, #8
   27a78:	4813      	ldr	r0, [pc, #76]	@ (27ac8 <_ZN20complex_dynamic_type3app17hf7b0039ed7a63740E+0x12c>)
   27a7a:	f003 fc01 	bl	2b280 <_ZN9allow_pin12dynamic_type7unshare17hefa7cd45f9379b26E>
   27a7e:	a815      	add	r0, sp, #84	@ 0x54
   27a80:	7006      	strb	r6, [r0, #0]
   27a82:	4e11      	ldr	r6, [pc, #68]	@ (27ac8 <_ZN20complex_dynamic_type3app17hf7b0039ed7a63740E+0x12c>)
   27a84:	2c00      	cmp	r4, #0
   27a86:	d1cd      	bne.n	27a24 <_ZN20complex_dynamic_type3app17hf7b0039ed7a63740E+0x88>
   27a88:	a815      	add	r0, sp, #84	@ 0x54
   27a8a:	7804      	ldrb	r4, [r0, #0]
   27a8c:	2c02      	cmp	r4, #2
   27a8e:	d001      	beq.n	27a94 <_ZN20complex_dynamic_type3app17hf7b0039ed7a63740E+0xf8>
   27a90:	480e      	ldr	r0, [pc, #56]	@ (27acc <_ZN20complex_dynamic_type3app17hf7b0039ed7a63740E+0x130>)
   27a92:	9005      	str	r0, [sp, #20]
   27a94:	9d06      	ldr	r5, [sp, #24]
   27a96:	1c68      	adds	r0, r5, #1
   27a98:	222e      	movs	r2, #46	@ 0x2e
   27a9a:	9905      	ldr	r1, [sp, #20]
   27a9c:	f003 fdd5 	bl	2b64a <__aeabi_memcpy>
   27aa0:	2000      	movs	r0, #0
   27aa2:	2c02      	cmp	r4, #2
   27aa4:	7028      	strb	r0, [r5, #0]
   27aa6:	d004      	beq.n	27ab2 <_ZN20complex_dynamic_type3app17hf7b0039ed7a63740E+0x116>
   27aa8:	2108      	movs	r1, #8
   27aaa:	4630      	mov	r0, r6
   27aac:	4622      	mov	r2, r4
   27aae:	f003 fbe7 	bl	2b280 <_ZN9allow_pin12dynamic_type7unshare17hefa7cd45f9379b26E>
   27ab2:	a807      	add	r0, sp, #28
   27ab4:	7802      	ldrb	r2, [r0, #0]
   27ab6:	2a02      	cmp	r2, #2
   27ab8:	d003      	beq.n	27ac2 <_ZN20complex_dynamic_type3app17hf7b0039ed7a63740E+0x126>
   27aba:	2102      	movs	r1, #2
   27abc:	4630      	mov	r0, r6
   27abe:	f003 fbdf 	bl	2b280 <_ZN9allow_pin12dynamic_type7unshare17hefa7cd45f9379b26E>
   27ac2:	b025      	add	sp, #148	@ 0x94
   27ac4:	bdf0      	pop	{r4, r5, r6, r7, pc}
   27ac6:	46c0      	nop			@ (mov r8, r8)
   27ac8:	00000209 	.word	0x00000209
   27acc:	0001099d 	.word	0x0001099d

00027ad0 <_ZN20complex_dynamic_type3app17hfb6378938b5d8597E>:
   27ad0:	b5f0      	push	{r4, r5, r6, r7, lr}
   27ad2:	af03      	add	r7, sp, #12
   27ad4:	b0a7      	sub	sp, #156	@ 0x9c
   27ad6:	9006      	str	r0, [sp, #24]
   27ad8:	a807      	add	r0, sp, #28
   27ada:	2502      	movs	r5, #2
   27adc:	7005      	strb	r5, [r0, #0]
   27ade:	1c40      	adds	r0, r0, #1
   27ae0:	9004      	str	r0, [sp, #16]
   27ae2:	261a      	movs	r6, #26
   27ae4:	4632      	mov	r2, r6
   27ae6:	f003 fdb0 	bl	2b64a <__aeabi_memcpy>
   27aea:	ac0e      	add	r4, sp, #56	@ 0x38
   27aec:	1c60      	adds	r0, r4, #1
   27aee:	2150      	movs	r1, #80	@ 0x50
   27af0:	9005      	str	r0, [sp, #20]
   27af2:	9103      	str	r1, [sp, #12]
   27af4:	f003 fbe9 	bl	2b2ca <__aeabi_memclr>
   27af8:	9502      	str	r5, [sp, #8]
   27afa:	7025      	strb	r5, [r4, #0]
   27afc:	2404      	movs	r4, #4
   27afe:	9600      	str	r6, [sp, #0]
   27b00:	9401      	str	r4, [sp, #4]
   27b02:	a823      	add	r0, sp, #140	@ 0x8c
   27b04:	4e3c      	ldr	r6, [pc, #240]	@ (27bf8 <_ZN20complex_dynamic_type3app17hfb6378938b5d8597E+0x128>)
   27b06:	2207      	movs	r2, #7
   27b08:	4631      	mov	r1, r6
   27b0a:	9b04      	ldr	r3, [sp, #16]
   27b0c:	f003 fbc5 	bl	2b29a <_ZN9allow_pin13dynamic_allow17h33d41317a2da4f1cE>
   27b10:	9823      	ldr	r0, [sp, #140]	@ 0x8c
   27b12:	2802      	cmp	r0, #2
   27b14:	d101      	bne.n	27b1a <_ZN20complex_dynamic_type3app17hfb6378938b5d8597E+0x4a>
   27b16:	9924      	ldr	r1, [sp, #144]	@ 0x90
   27b18:	e001      	b.n	27b1e <_ZN20complex_dynamic_type3app17hfb6378938b5d8597E+0x4e>
   27b1a:	a907      	add	r1, sp, #28
   27b1c:	700c      	strb	r4, [r1, #0]
   27b1e:	2501      	movs	r5, #1
   27b20:	2802      	cmp	r0, #2
   27b22:	d024      	beq.n	27b6e <_ZN20complex_dynamic_type3app17hfb6378938b5d8597E+0x9e>
   27b24:	a80e      	add	r0, sp, #56	@ 0x38
   27b26:	7800      	ldrb	r0, [r0, #0]
   27b28:	2802      	cmp	r0, #2
   27b2a:	d10e      	bne.n	27b4a <_ZN20complex_dynamic_type3app17hfb6378938b5d8597E+0x7a>
   27b2c:	2403      	movs	r4, #3
   27b2e:	9803      	ldr	r0, [sp, #12]
   27b30:	9000      	str	r0, [sp, #0]
   27b32:	9401      	str	r4, [sp, #4]
   27b34:	a823      	add	r0, sp, #140	@ 0x8c
   27b36:	2204      	movs	r2, #4
   27b38:	4631      	mov	r1, r6
   27b3a:	9b05      	ldr	r3, [sp, #20]
   27b3c:	f003 fbad 	bl	2b29a <_ZN9allow_pin13dynamic_allow17h33d41317a2da4f1cE>
   27b40:	9823      	ldr	r0, [sp, #140]	@ 0x8c
   27b42:	2802      	cmp	r0, #2
   27b44:	d106      	bne.n	27b54 <_ZN20complex_dynamic_type3app17hfb6378938b5d8597E+0x84>
   27b46:	9924      	ldr	r1, [sp, #144]	@ 0x90
   27b48:	e000      	b.n	27b4c <_ZN20complex_dynamic_type3app17hfb6378938b5d8597E+0x7c>
   27b4a:	2103      	movs	r1, #3
   27b4c:	4628      	mov	r0, r5
   27b4e:	2800      	cmp	r0, #0
   27b50:	d005      	beq.n	27b5e <_ZN20complex_dynamic_type3app17hfb6378938b5d8597E+0x8e>
   27b52:	e00c      	b.n	27b6e <_ZN20complex_dynamic_type3app17hfb6378938b5d8597E+0x9e>
   27b54:	a80e      	add	r0, sp, #56	@ 0x38
   27b56:	7004      	strb	r4, [r0, #0]
   27b58:	2000      	movs	r0, #0
   27b5a:	2800      	cmp	r0, #0
   27b5c:	d107      	bne.n	27b6e <_ZN20complex_dynamic_type3app17hfb6378938b5d8597E+0x9e>
   27b5e:	4826      	ldr	r0, [pc, #152]	@ (27bf8 <_ZN20complex_dynamic_type3app17hfb6378938b5d8597E+0x128>)
   27b60:	2107      	movs	r1, #7
   27b62:	2204      	movs	r2, #4
   27b64:	2400      	movs	r4, #0
   27b66:	4623      	mov	r3, r4
   27b68:	df02      	svc	2
   27b6a:	287f      	cmp	r0, #127	@ 0x7f
   27b6c:	d80d      	bhi.n	27b8a <_ZN20complex_dynamic_type3app17hfb6378938b5d8597E+0xba>
   27b6e:	462c      	mov	r4, r5
   27b70:	2c00      	cmp	r4, #0
   27b72:	d021      	beq.n	27bb8 <_ZN20complex_dynamic_type3app17hfb6378938b5d8597E+0xe8>
   27b74:	2001      	movs	r0, #1
   27b76:	9a06      	ldr	r2, [sp, #24]
   27b78:	7010      	strb	r0, [r2, #0]
   27b7a:	6051      	str	r1, [r2, #4]
   27b7c:	a80e      	add	r0, sp, #56	@ 0x38
   27b7e:	7802      	ldrb	r2, [r0, #0]
   27b80:	2a02      	cmp	r2, #2
   27b82:	d02e      	beq.n	27be2 <_ZN20complex_dynamic_type3app17hfb6378938b5d8597E+0x112>
   27b84:	2104      	movs	r1, #4
   27b86:	4630      	mov	r0, r6
   27b88:	e029      	b.n	27bde <_ZN20complex_dynamic_type3app17hfb6378938b5d8597E+0x10e>
   27b8a:	a807      	add	r0, sp, #28
   27b8c:	7802      	ldrb	r2, [r0, #0]
   27b8e:	2a02      	cmp	r2, #2
   27b90:	d003      	beq.n	27b9a <_ZN20complex_dynamic_type3app17hfb6378938b5d8597E+0xca>
   27b92:	2107      	movs	r1, #7
   27b94:	4630      	mov	r0, r6
   27b96:	f003 fb73 	bl	2b280 <_ZN9allow_pin12dynamic_type7unshare17hefa7cd45f9379b26E>
   27b9a:	a807      	add	r0, sp, #28
   27b9c:	9d02      	ldr	r5, [sp, #8]
   27b9e:	7005      	strb	r5, [r0, #0]
   27ba0:	a80e      	add	r0, sp, #56	@ 0x38
   27ba2:	7802      	ldrb	r2, [r0, #0]
   27ba4:	2a02      	cmp	r2, #2
   27ba6:	d003      	beq.n	27bb0 <_ZN20complex_dynamic_type3app17hfb6378938b5d8597E+0xe0>
   27ba8:	2104      	movs	r1, #4
   27baa:	4630      	mov	r0, r6
   27bac:	f003 fb68 	bl	2b280 <_ZN9allow_pin12dynamic_type7unshare17hefa7cd45f9379b26E>
   27bb0:	a80e      	add	r0, sp, #56	@ 0x38
   27bb2:	7005      	strb	r5, [r0, #0]
   27bb4:	2c00      	cmp	r4, #0
   27bb6:	d1dd      	bne.n	27b74 <_ZN20complex_dynamic_type3app17hfb6378938b5d8597E+0xa4>
   27bb8:	a80e      	add	r0, sp, #56	@ 0x38
   27bba:	7804      	ldrb	r4, [r0, #0]
   27bbc:	2c02      	cmp	r4, #2
   27bbe:	d001      	beq.n	27bc4 <_ZN20complex_dynamic_type3app17hfb6378938b5d8597E+0xf4>
   27bc0:	480e      	ldr	r0, [pc, #56]	@ (27bfc <_ZN20complex_dynamic_type3app17hfb6378938b5d8597E+0x12c>)
   27bc2:	9005      	str	r0, [sp, #20]
   27bc4:	9d06      	ldr	r5, [sp, #24]
   27bc6:	1c68      	adds	r0, r5, #1
   27bc8:	2250      	movs	r2, #80	@ 0x50
   27bca:	9905      	ldr	r1, [sp, #20]
   27bcc:	f003 fd3d 	bl	2b64a <__aeabi_memcpy>
   27bd0:	2000      	movs	r0, #0
   27bd2:	2c02      	cmp	r4, #2
   27bd4:	7028      	strb	r0, [r5, #0]
   27bd6:	d004      	beq.n	27be2 <_ZN20complex_dynamic_type3app17hfb6378938b5d8597E+0x112>
   27bd8:	2104      	movs	r1, #4
   27bda:	4630      	mov	r0, r6
   27bdc:	4622      	mov	r2, r4
   27bde:	f003 fb4f 	bl	2b280 <_ZN9allow_pin12dynamic_type7unshare17hefa7cd45f9379b26E>
   27be2:	a807      	add	r0, sp, #28
   27be4:	7802      	ldrb	r2, [r0, #0]
   27be6:	2a02      	cmp	r2, #2
   27be8:	d003      	beq.n	27bf2 <_ZN20complex_dynamic_type3app17hfb6378938b5d8597E+0x122>
   27bea:	2107      	movs	r1, #7
   27bec:	4630      	mov	r0, r6
   27bee:	f003 fb47 	bl	2b280 <_ZN9allow_pin12dynamic_type7unshare17hefa7cd45f9379b26E>
   27bf2:	b027      	add	sp, #156	@ 0x9c
   27bf4:	bdf0      	pop	{r4, r5, r6, r7, pc}
   27bf6:	46c0      	nop			@ (mov r8, r8)
   27bf8:	00000aee 	.word	0x00000aee
   27bfc:	000107cf 	.word	0x000107cf

00027c00 <_start>:
   27c00:	b5f0      	push	{r4, r5, r6, r7, lr}
   27c02:	af03      	add	r7, sp, #12
   27c04:	4ef3      	ldr	r6, [pc, #972]	@ (27fd4 <_start+0x3d4>)
   27c06:	44b5      	add	sp, r6
   27c08:	48f3      	ldr	r0, [pc, #972]	@ (27fd8 <_start+0x3d8>)
   27c0a:	4468      	add	r0, sp
   27c0c:	900d      	str	r0, [sp, #52]	@ 0x34
   27c0e:	48f3      	ldr	r0, [pc, #972]	@ (27fdc <_start+0x3dc>)
   27c10:	4468      	add	r0, sp
   27c12:	9009      	str	r0, [sp, #36]	@ 0x24
   27c14:	ac23      	add	r4, sp, #140	@ 0x8c
   27c16:	1c60      	adds	r0, r4, #1
   27c18:	900e      	str	r0, [sp, #56]	@ 0x38
   27c1a:	2628      	movs	r6, #40	@ 0x28
   27c1c:	4631      	mov	r1, r6
   27c1e:	f003 fb54 	bl	2b2ca <__aeabi_memclr>
   27c22:	2502      	movs	r5, #2
   27c24:	7025      	strb	r5, [r4, #0]
   27c26:	4cee      	ldr	r4, [pc, #952]	@ (27fe0 <_start+0x3e0>)
   27c28:	446c      	add	r4, sp
   27c2a:	1c60      	adds	r0, r4, #1
   27c2c:	2151      	movs	r1, #81	@ 0x51
   27c2e:	900f      	str	r0, [sp, #60]	@ 0x3c
   27c30:	910a      	str	r1, [sp, #40]	@ 0x28
   27c32:	f003 fb4a 	bl	2b2ca <__aeabi_memclr>
   27c36:	950c      	str	r5, [sp, #48]	@ 0x30
   27c38:	7025      	strb	r5, [r4, #0]
   27c3a:	2504      	movs	r5, #4
   27c3c:	9600      	str	r6, [sp, #0]
   27c3e:	9501      	str	r5, [sp, #4]
   27c40:	a833      	add	r0, sp, #204	@ 0xcc
   27c42:	49e8      	ldr	r1, [pc, #928]	@ (27fe4 <_start+0x3e4>)
   27c44:	2209      	movs	r2, #9
   27c46:	9b0e      	ldr	r3, [sp, #56]	@ 0x38
   27c48:	f003 fb27 	bl	2b29a <_ZN9allow_pin13dynamic_allow17h33d41317a2da4f1cE>
   27c4c:	9833      	ldr	r0, [sp, #204]	@ 0xcc
   27c4e:	a94f      	add	r1, sp, #316	@ 0x13c
   27c50:	9108      	str	r1, [sp, #32]
   27c52:	49e5      	ldr	r1, [pc, #916]	@ (27fe8 <_start+0x3e8>)
   27c54:	4469      	add	r1, sp
   27c56:	9107      	str	r1, [sp, #28]
   27c58:	4ce4      	ldr	r4, [pc, #912]	@ (27fec <_start+0x3ec>)
   27c5a:	446c      	add	r4, sp
   27c5c:	2802      	cmp	r0, #2
   27c5e:	950b      	str	r5, [sp, #44]	@ 0x2c
   27c60:	d101      	bne.n	27c66 <_start+0x66>
   27c62:	9934      	ldr	r1, [sp, #208]	@ 0xd0
   27c64:	e001      	b.n	27c6a <_start+0x6a>
   27c66:	a923      	add	r1, sp, #140	@ 0x8c
   27c68:	700d      	strb	r5, [r1, #0]
   27c6a:	2601      	movs	r6, #1
   27c6c:	2802      	cmp	r0, #2
   27c6e:	4635      	mov	r5, r6
   27c70:	d040      	beq.n	27cf4 <_start+0xf4>
   27c72:	48db      	ldr	r0, [pc, #876]	@ (27fe0 <_start+0x3e0>)
   27c74:	4468      	add	r0, sp
   27c76:	7800      	ldrb	r0, [r0, #0]
   27c78:	2802      	cmp	r0, #2
   27c7a:	d10f      	bne.n	27c9c <_start+0x9c>
   27c7c:	2503      	movs	r5, #3
   27c7e:	980a      	ldr	r0, [sp, #40]	@ 0x28
   27c80:	9000      	str	r0, [sp, #0]
   27c82:	9501      	str	r5, [sp, #4]
   27c84:	a833      	add	r0, sp, #204	@ 0xcc
   27c86:	2209      	movs	r2, #9
   27c88:	49d6      	ldr	r1, [pc, #856]	@ (27fe4 <_start+0x3e4>)
   27c8a:	9b0f      	ldr	r3, [sp, #60]	@ 0x3c
   27c8c:	f003 fb05 	bl	2b29a <_ZN9allow_pin13dynamic_allow17h33d41317a2da4f1cE>
   27c90:	9833      	ldr	r0, [sp, #204]	@ 0xcc
   27c92:	2802      	cmp	r0, #2
   27c94:	d105      	bne.n	27ca2 <_start+0xa2>
   27c96:	9934      	ldr	r1, [sp, #208]	@ 0xd0
   27c98:	4630      	mov	r0, r6
   27c9a:	e006      	b.n	27caa <_start+0xaa>
   27c9c:	2103      	movs	r1, #3
   27c9e:	4630      	mov	r0, r6
   27ca0:	e003      	b.n	27caa <_start+0xaa>
   27ca2:	48cf      	ldr	r0, [pc, #828]	@ (27fe0 <_start+0x3e0>)
   27ca4:	4468      	add	r0, sp
   27ca6:	7005      	strb	r5, [r0, #0]
   27ca8:	2000      	movs	r0, #0
   27caa:	2800      	cmp	r0, #0
   27cac:	4635      	mov	r5, r6
   27cae:	d121      	bne.n	27cf4 <_start+0xf4>
   27cb0:	48cc      	ldr	r0, [pc, #816]	@ (27fe4 <_start+0x3e4>)
   27cb2:	2109      	movs	r1, #9
   27cb4:	2500      	movs	r5, #0
   27cb6:	460a      	mov	r2, r1
   27cb8:	462b      	mov	r3, r5
   27cba:	df02      	svc	2
   27cbc:	287f      	cmp	r0, #127	@ 0x7f
   27cbe:	d801      	bhi.n	27cc4 <_start+0xc4>
   27cc0:	4635      	mov	r5, r6
   27cc2:	e017      	b.n	27cf4 <_start+0xf4>
   27cc4:	a823      	add	r0, sp, #140	@ 0x8c
   27cc6:	7802      	ldrb	r2, [r0, #0]
   27cc8:	2a02      	cmp	r2, #2
   27cca:	d003      	beq.n	27cd4 <_start+0xd4>
   27ccc:	2109      	movs	r1, #9
   27cce:	48c5      	ldr	r0, [pc, #788]	@ (27fe4 <_start+0x3e4>)
   27cd0:	f003 fad6 	bl	2b280 <_ZN9allow_pin12dynamic_type7unshare17hefa7cd45f9379b26E>
   27cd4:	a823      	add	r0, sp, #140	@ 0x8c
   27cd6:	990c      	ldr	r1, [sp, #48]	@ 0x30
   27cd8:	7001      	strb	r1, [r0, #0]
   27cda:	48c1      	ldr	r0, [pc, #772]	@ (27fe0 <_start+0x3e0>)
   27cdc:	4468      	add	r0, sp
   27cde:	7802      	ldrb	r2, [r0, #0]
   27ce0:	2a02      	cmp	r2, #2
   27ce2:	d003      	beq.n	27cec <_start+0xec>
   27ce4:	2109      	movs	r1, #9
   27ce6:	48bf      	ldr	r0, [pc, #764]	@ (27fe4 <_start+0x3e4>)
   27ce8:	f003 faca 	bl	2b280 <_ZN9allow_pin12dynamic_type7unshare17hefa7cd45f9379b26E>
   27cec:	48bc      	ldr	r0, [pc, #752]	@ (27fe0 <_start+0x3e0>)
   27cee:	4468      	add	r0, sp
   27cf0:	990c      	ldr	r1, [sp, #48]	@ 0x30
   27cf2:	7001      	strb	r1, [r0, #0]
   27cf4:	960e      	str	r6, [sp, #56]	@ 0x38
   27cf6:	48ba      	ldr	r0, [pc, #744]	@ (27fe0 <_start+0x3e0>)
   27cf8:	4468      	add	r0, sp
   27cfa:	7806      	ldrb	r6, [r0, #0]
   27cfc:	2d00      	cmp	r5, #0
   27cfe:	d003      	beq.n	27d08 <_start+0x108>
   27d00:	910f      	str	r1, [sp, #60]	@ 0x3c
   27d02:	2e02      	cmp	r6, #2
   27d04:	d120      	bne.n	27d48 <_start+0x148>
   27d06:	e024      	b.n	27d52 <_start+0x152>
   27d08:	4bb9      	ldr	r3, [pc, #740]	@ (27ff0 <_start+0x3f0>)
   27d0a:	1dda      	adds	r2, r3, #7
   27d0c:	49b4      	ldr	r1, [pc, #720]	@ (27fe0 <_start+0x3e0>)
   27d0e:	4469      	add	r1, sp
   27d10:	3108      	adds	r1, #8
   27d12:	a838      	add	r0, sp, #224	@ 0xe0
   27d14:	2e02      	cmp	r6, #2
   27d16:	d000      	beq.n	27d1a <_start+0x11a>
   27d18:	930f      	str	r3, [sp, #60]	@ 0x3c
   27d1a:	9b0f      	ldr	r3, [sp, #60]	@ 0x3c
   27d1c:	789b      	ldrb	r3, [r3, #2]
   27d1e:	7083      	strb	r3, [r0, #2]
   27d20:	d000      	beq.n	27d24 <_start+0x124>
   27d22:	4611      	mov	r1, r2
   27d24:	9b0f      	ldr	r3, [sp, #60]	@ 0x3c
   27d26:	781a      	ldrb	r2, [r3, #0]
   27d28:	785b      	ldrb	r3, [r3, #1]
   27d2a:	021b      	lsls	r3, r3, #8
   27d2c:	189a      	adds	r2, r3, r2
   27d2e:	8002      	strh	r2, [r0, #0]
   27d30:	980d      	ldr	r0, [sp, #52]	@ 0x34
   27d32:	6e00      	ldr	r0, [r0, #96]	@ 0x60
   27d34:	900f      	str	r0, [sp, #60]	@ 0x3c
   27d36:	a810      	add	r0, sp, #64	@ 0x40
   27d38:	224a      	movs	r2, #74	@ 0x4a
   27d3a:	f003 fc86 	bl	2b64a <__aeabi_memcpy>
   27d3e:	2000      	movs	r0, #0
   27d40:	2e02      	cmp	r6, #2
   27d42:	d000      	beq.n	27d46 <_start+0x146>
   27d44:	900f      	str	r0, [sp, #60]	@ 0x3c
   27d46:	d004      	beq.n	27d52 <_start+0x152>
   27d48:	2109      	movs	r1, #9
   27d4a:	48a6      	ldr	r0, [pc, #664]	@ (27fe4 <_start+0x3e4>)
   27d4c:	4632      	mov	r2, r6
   27d4e:	f003 fa97 	bl	2b280 <_ZN9allow_pin12dynamic_type7unshare17hefa7cd45f9379b26E>
   27d52:	a823      	add	r0, sp, #140	@ 0x8c
   27d54:	7802      	ldrb	r2, [r0, #0]
   27d56:	2a02      	cmp	r2, #2
   27d58:	d003      	beq.n	27d62 <_start+0x162>
   27d5a:	2109      	movs	r1, #9
   27d5c:	48a1      	ldr	r0, [pc, #644]	@ (27fe4 <_start+0x3e4>)
   27d5e:	f003 fa8f 	bl	2b280 <_ZN9allow_pin12dynamic_type7unshare17hefa7cd45f9379b26E>
   27d62:	2d00      	cmp	r5, #0
   27d64:	d001      	beq.n	27d6a <_start+0x16a>
   27d66:	f003 fa4c 	bl	2b202 <_start+0x3602>
   27d6a:	9405      	str	r4, [sp, #20]
   27d6c:	4e9c      	ldr	r6, [pc, #624]	@ (27fe0 <_start+0x3e0>)
   27d6e:	446e      	add	r6, sp
   27d70:	9838      	ldr	r0, [sp, #224]	@ 0xe0
   27d72:	7070      	strb	r0, [r6, #1]
   27d74:	a838      	add	r0, sp, #224	@ 0xe0
   27d76:	7881      	ldrb	r1, [r0, #2]
   27d78:	70f1      	strb	r1, [r6, #3]
   27d7a:	7840      	ldrb	r0, [r0, #1]
   27d7c:	70b0      	strb	r0, [r6, #2]
   27d7e:	4c96      	ldr	r4, [pc, #600]	@ (27fd8 <_start+0x3d8>)
   27d80:	446c      	add	r4, sp
   27d82:	a910      	add	r1, sp, #64	@ 0x40
   27d84:	254a      	movs	r5, #74	@ 0x4a
   27d86:	4620      	mov	r0, r4
   27d88:	462a      	mov	r2, r5
   27d8a:	f003 fafe 	bl	2b38a <__aeabi_memcpy4>
   27d8e:	4630      	mov	r0, r6
   27d90:	3008      	adds	r0, #8
   27d92:	4621      	mov	r1, r4
   27d94:	462a      	mov	r2, r5
   27d96:	f003 faf8 	bl	2b38a <__aeabi_memcpy4>
   27d9a:	9c0c      	ldr	r4, [sp, #48]	@ 0x30
   27d9c:	7034      	strb	r4, [r6, #0]
   27d9e:	980d      	ldr	r0, [sp, #52]	@ 0x34
   27da0:	990f      	ldr	r1, [sp, #60]	@ 0x3c
   27da2:	6601      	str	r1, [r0, #96]	@ 0x60
   27da4:	4d8c      	ldr	r5, [pc, #560]	@ (27fd8 <_start+0x3d8>)
   27da6:	446d      	add	r5, sp
   27da8:	1c68      	adds	r0, r5, #1
   27daa:	2146      	movs	r1, #70	@ 0x46
   27dac:	900f      	str	r0, [sp, #60]	@ 0x3c
   27dae:	9106      	str	r1, [sp, #24]
   27db0:	f003 fa8b 	bl	2b2ca <__aeabi_memclr>
   27db4:	702c      	strb	r4, [r5, #0]
   27db6:	980a      	ldr	r0, [sp, #40]	@ 0x28
   27db8:	9000      	str	r0, [sp, #0]
   27dba:	9c0b      	ldr	r4, [sp, #44]	@ 0x2c
   27dbc:	9401      	str	r4, [sp, #4]
   27dbe:	4989      	ldr	r1, [pc, #548]	@ (27fe4 <_start+0x3e4>)
   27dc0:	31be      	adds	r1, #190	@ 0xbe
   27dc2:	1c73      	adds	r3, r6, #1
   27dc4:	a833      	add	r0, sp, #204	@ 0xcc
   27dc6:	2207      	movs	r2, #7
   27dc8:	910a      	str	r1, [sp, #40]	@ 0x28
   27dca:	f003 fa66 	bl	2b29a <_ZN9allow_pin13dynamic_allow17h33d41317a2da4f1cE>
   27dce:	9833      	ldr	r0, [sp, #204]	@ 0xcc
   27dd0:	2802      	cmp	r0, #2
   27dd2:	d101      	bne.n	27dd8 <_start+0x1d8>
   27dd4:	9934      	ldr	r1, [sp, #208]	@ 0xd0
   27dd6:	e002      	b.n	27dde <_start+0x1de>
   27dd8:	4981      	ldr	r1, [pc, #516]	@ (27fe0 <_start+0x3e0>)
   27dda:	4469      	add	r1, sp
   27ddc:	700c      	strb	r4, [r1, #0]
   27dde:	9e0e      	ldr	r6, [sp, #56]	@ 0x38
   27de0:	2802      	cmp	r0, #2
   27de2:	4635      	mov	r5, r6
   27de4:	9c0f      	ldr	r4, [sp, #60]	@ 0x3c
   27de6:	d044      	beq.n	27e72 <_start+0x272>
   27de8:	487b      	ldr	r0, [pc, #492]	@ (27fd8 <_start+0x3d8>)
   27dea:	4468      	add	r0, sp
   27dec:	7800      	ldrb	r0, [r0, #0]
   27dee:	2802      	cmp	r0, #2
   27df0:	d111      	bne.n	27e16 <_start+0x216>
   27df2:	2603      	movs	r6, #3
   27df4:	9806      	ldr	r0, [sp, #24]
   27df6:	9000      	str	r0, [sp, #0]
   27df8:	9601      	str	r6, [sp, #4]
   27dfa:	a833      	add	r0, sp, #204	@ 0xcc
   27dfc:	2500      	movs	r5, #0
   27dfe:	990a      	ldr	r1, [sp, #40]	@ 0x28
   27e00:	462a      	mov	r2, r5
   27e02:	4623      	mov	r3, r4
   27e04:	f003 fa49 	bl	2b29a <_ZN9allow_pin13dynamic_allow17h33d41317a2da4f1cE>
   27e08:	9833      	ldr	r0, [sp, #204]	@ 0xcc
   27e0a:	2802      	cmp	r0, #2
   27e0c:	d106      	bne.n	27e1c <_start+0x21c>
   27e0e:	9934      	ldr	r1, [sp, #208]	@ 0xd0
   27e10:	9e0e      	ldr	r6, [sp, #56]	@ 0x38
   27e12:	4635      	mov	r5, r6
   27e14:	e006      	b.n	27e24 <_start+0x224>
   27e16:	2103      	movs	r1, #3
   27e18:	4635      	mov	r5, r6
   27e1a:	e003      	b.n	27e24 <_start+0x224>
   27e1c:	486e      	ldr	r0, [pc, #440]	@ (27fd8 <_start+0x3d8>)
   27e1e:	4468      	add	r0, sp
   27e20:	7006      	strb	r6, [r0, #0]
   27e22:	9e0e      	ldr	r6, [sp, #56]	@ 0x38
   27e24:	2d00      	cmp	r5, #0
   27e26:	4635      	mov	r5, r6
   27e28:	d123      	bne.n	27e72 <_start+0x272>
   27e2a:	4872      	ldr	r0, [pc, #456]	@ (27ff4 <_start+0x3f4>)
   27e2c:	2107      	movs	r1, #7
   27e2e:	2500      	movs	r5, #0
   27e30:	462a      	mov	r2, r5
   27e32:	462b      	mov	r3, r5
   27e34:	df02      	svc	2
   27e36:	287f      	cmp	r0, #127	@ 0x7f
   27e38:	d801      	bhi.n	27e3e <_start+0x23e>
   27e3a:	4635      	mov	r5, r6
   27e3c:	e019      	b.n	27e72 <_start+0x272>
   27e3e:	4868      	ldr	r0, [pc, #416]	@ (27fe0 <_start+0x3e0>)
   27e40:	4468      	add	r0, sp
   27e42:	7802      	ldrb	r2, [r0, #0]
   27e44:	2a02      	cmp	r2, #2
   27e46:	d003      	beq.n	27e50 <_start+0x250>
   27e48:	2107      	movs	r1, #7
   27e4a:	980a      	ldr	r0, [sp, #40]	@ 0x28
   27e4c:	f003 fa18 	bl	2b280 <_ZN9allow_pin12dynamic_type7unshare17hefa7cd45f9379b26E>
   27e50:	4863      	ldr	r0, [pc, #396]	@ (27fe0 <_start+0x3e0>)
   27e52:	4468      	add	r0, sp
   27e54:	990c      	ldr	r1, [sp, #48]	@ 0x30
   27e56:	7001      	strb	r1, [r0, #0]
   27e58:	485f      	ldr	r0, [pc, #380]	@ (27fd8 <_start+0x3d8>)
   27e5a:	4468      	add	r0, sp
   27e5c:	7802      	ldrb	r2, [r0, #0]
   27e5e:	2a02      	cmp	r2, #2
   27e60:	d003      	beq.n	27e6a <_start+0x26a>
   27e62:	2100      	movs	r1, #0
   27e64:	980a      	ldr	r0, [sp, #40]	@ 0x28
   27e66:	f003 fa0b 	bl	2b280 <_ZN9allow_pin12dynamic_type7unshare17hefa7cd45f9379b26E>
   27e6a:	485b      	ldr	r0, [pc, #364]	@ (27fd8 <_start+0x3d8>)
   27e6c:	4468      	add	r0, sp
   27e6e:	990c      	ldr	r1, [sp, #48]	@ 0x30
   27e70:	7001      	strb	r1, [r0, #0]
   27e72:	4859      	ldr	r0, [pc, #356]	@ (27fd8 <_start+0x3d8>)
   27e74:	4468      	add	r0, sp
   27e76:	7806      	ldrb	r6, [r0, #0]
   27e78:	2d00      	cmp	r5, #0
   27e7a:	d003      	beq.n	27e84 <_start+0x284>
   27e7c:	910f      	str	r1, [sp, #60]	@ 0x3c
   27e7e:	2e02      	cmp	r6, #2
   27e80:	d11e      	bne.n	27ec0 <_start+0x2c0>
   27e82:	e022      	b.n	27eca <_start+0x2ca>
   27e84:	4b5c      	ldr	r3, [pc, #368]	@ (27ff8 <_start+0x3f8>)
   27e86:	1dda      	adds	r2, r3, #7
   27e88:	4953      	ldr	r1, [pc, #332]	@ (27fd8 <_start+0x3d8>)
   27e8a:	4469      	add	r1, sp
   27e8c:	3108      	adds	r1, #8
   27e8e:	a838      	add	r0, sp, #224	@ 0xe0
   27e90:	2e02      	cmp	r6, #2
   27e92:	d000      	beq.n	27e96 <_start+0x296>
   27e94:	461c      	mov	r4, r3
   27e96:	78a3      	ldrb	r3, [r4, #2]
   27e98:	7083      	strb	r3, [r0, #2]
   27e9a:	d000      	beq.n	27e9e <_start+0x29e>
   27e9c:	4611      	mov	r1, r2
   27e9e:	7822      	ldrb	r2, [r4, #0]
   27ea0:	7863      	ldrb	r3, [r4, #1]
   27ea2:	021b      	lsls	r3, r3, #8
   27ea4:	189a      	adds	r2, r3, r2
   27ea6:	8002      	strh	r2, [r0, #0]
   27ea8:	9809      	ldr	r0, [sp, #36]	@ 0x24
   27eaa:	6800      	ldr	r0, [r0, #0]
   27eac:	900f      	str	r0, [sp, #60]	@ 0x3c
   27eae:	a823      	add	r0, sp, #140	@ 0x8c
   27eb0:	223f      	movs	r2, #63	@ 0x3f
   27eb2:	f003 fbca 	bl	2b64a <__aeabi_memcpy>
   27eb6:	2000      	movs	r0, #0
   27eb8:	2e02      	cmp	r6, #2
   27eba:	d000      	beq.n	27ebe <_start+0x2be>
   27ebc:	900f      	str	r0, [sp, #60]	@ 0x3c
   27ebe:	d004      	beq.n	27eca <_start+0x2ca>
   27ec0:	2100      	movs	r1, #0
   27ec2:	980a      	ldr	r0, [sp, #40]	@ 0x28
   27ec4:	4632      	mov	r2, r6
   27ec6:	f003 f9db 	bl	2b280 <_ZN9allow_pin12dynamic_type7unshare17hefa7cd45f9379b26E>
   27eca:	4845      	ldr	r0, [pc, #276]	@ (27fe0 <_start+0x3e0>)
   27ecc:	4468      	add	r0, sp
   27ece:	7802      	ldrb	r2, [r0, #0]
   27ed0:	2a02      	cmp	r2, #2
   27ed2:	d003      	beq.n	27edc <_start+0x2dc>
   27ed4:	2107      	movs	r1, #7
   27ed6:	980a      	ldr	r0, [sp, #40]	@ 0x28
   27ed8:	f003 f9d2 	bl	2b280 <_ZN9allow_pin12dynamic_type7unshare17hefa7cd45f9379b26E>
   27edc:	2d00      	cmp	r5, #0
   27ede:	d001      	beq.n	27ee4 <_start+0x2e4>
   27ee0:	f003 f98f 	bl	2b202 <_start+0x3602>
   27ee4:	4a3e      	ldr	r2, [pc, #248]	@ (27fe0 <_start+0x3e0>)
   27ee6:	446a      	add	r2, sp
   27ee8:	920a      	str	r2, [sp, #40]	@ 0x28
   27eea:	9838      	ldr	r0, [sp, #224]	@ 0xe0
   27eec:	7050      	strb	r0, [r2, #1]
   27eee:	a838      	add	r0, sp, #224	@ 0xe0
   27ef0:	7881      	ldrb	r1, [r0, #2]
   27ef2:	70d1      	strb	r1, [r2, #3]
   27ef4:	7840      	ldrb	r0, [r0, #1]
   27ef6:	7090      	strb	r0, [r2, #2]
   27ef8:	a923      	add	r1, sp, #140	@ 0x8c
   27efa:	a810      	add	r0, sp, #64	@ 0x40
   27efc:	4602      	mov	r2, r0
   27efe:	c968      	ldmia	r1!, {r3, r5, r6}
   27f00:	c268      	stmia	r2!, {r3, r5, r6}
   27f02:	c978      	ldmia	r1!, {r3, r4, r5, r6}
   27f04:	c278      	stmia	r2!, {r3, r4, r5, r6}
   27f06:	c978      	ldmia	r1!, {r3, r4, r5, r6}
   27f08:	c278      	stmia	r2!, {r3, r4, r5, r6}
   27f0a:	c978      	ldmia	r1!, {r3, r4, r5, r6}
   27f0c:	c278      	stmia	r2!, {r3, r4, r5, r6}
   27f0e:	880b      	ldrh	r3, [r1, #0]
   27f10:	8013      	strh	r3, [r2, #0]
   27f12:	7889      	ldrb	r1, [r1, #2]
   27f14:	7091      	strb	r1, [r2, #2]
   27f16:	9e0a      	ldr	r6, [sp, #40]	@ 0x28
   27f18:	4631      	mov	r1, r6
   27f1a:	3108      	adds	r1, #8
   27f1c:	c81c      	ldmia	r0!, {r2, r3, r4}
   27f1e:	c11c      	stmia	r1!, {r2, r3, r4}
   27f20:	c83c      	ldmia	r0!, {r2, r3, r4, r5}
   27f22:	c13c      	stmia	r1!, {r2, r3, r4, r5}
   27f24:	c83c      	ldmia	r0!, {r2, r3, r4, r5}
   27f26:	c13c      	stmia	r1!, {r2, r3, r4, r5}
   27f28:	c83c      	ldmia	r0!, {r2, r3, r4, r5}
   27f2a:	c13c      	stmia	r1!, {r2, r3, r4, r5}
   27f2c:	8802      	ldrh	r2, [r0, #0]
   27f2e:	800a      	strh	r2, [r1, #0]
   27f30:	7880      	ldrb	r0, [r0, #2]
   27f32:	7088      	strb	r0, [r1, #2]
   27f34:	9d0c      	ldr	r5, [sp, #48]	@ 0x30
   27f36:	7035      	strb	r5, [r6, #0]
   27f38:	980d      	ldr	r0, [sp, #52]	@ 0x34
   27f3a:	990f      	ldr	r1, [sp, #60]	@ 0x3c
   27f3c:	6601      	str	r1, [r0, #96]	@ 0x60
   27f3e:	4c26      	ldr	r4, [pc, #152]	@ (27fd8 <_start+0x3d8>)
   27f40:	446c      	add	r4, sp
   27f42:	1c60      	adds	r0, r4, #1
   27f44:	2118      	movs	r1, #24
   27f46:	900f      	str	r0, [sp, #60]	@ 0x3c
   27f48:	9104      	str	r1, [sp, #16]
   27f4a:	f003 f9be 	bl	2b2ca <__aeabi_memclr>
   27f4e:	7025      	strb	r5, [r4, #0]
   27f50:	9806      	ldr	r0, [sp, #24]
   27f52:	9000      	str	r0, [sp, #0]
   27f54:	9c0b      	ldr	r4, [sp, #44]	@ 0x2c
   27f56:	9401      	str	r4, [sp, #4]
   27f58:	1c73      	adds	r3, r6, #1
   27f5a:	a823      	add	r0, sp, #140	@ 0x8c
   27f5c:	4927      	ldr	r1, [pc, #156]	@ (27ffc <_start+0x3fc>)
   27f5e:	2503      	movs	r5, #3
   27f60:	462a      	mov	r2, r5
   27f62:	f003 f99a 	bl	2b29a <_ZN9allow_pin13dynamic_allow17h33d41317a2da4f1cE>
   27f66:	9823      	ldr	r0, [sp, #140]	@ 0x8c
   27f68:	2802      	cmp	r0, #2
   27f6a:	d101      	bne.n	27f70 <_start+0x370>
   27f6c:	9924      	ldr	r1, [sp, #144]	@ 0x90
   27f6e:	e002      	b.n	27f76 <_start+0x376>
   27f70:	491b      	ldr	r1, [pc, #108]	@ (27fe0 <_start+0x3e0>)
   27f72:	4469      	add	r1, sp
   27f74:	700c      	strb	r4, [r1, #0]
   27f76:	2802      	cmp	r0, #2
   27f78:	9c0e      	ldr	r4, [sp, #56]	@ 0x38
   27f7a:	9e0f      	ldr	r6, [sp, #60]	@ 0x3c
   27f7c:	d058      	beq.n	28030 <_start+0x430>
   27f7e:	4816      	ldr	r0, [pc, #88]	@ (27fd8 <_start+0x3d8>)
   27f80:	4468      	add	r0, sp
   27f82:	7800      	ldrb	r0, [r0, #0]
   27f84:	2802      	cmp	r0, #2
   27f86:	4629      	mov	r1, r5
   27f88:	9c0e      	ldr	r4, [sp, #56]	@ 0x38
   27f8a:	4620      	mov	r0, r4
   27f8c:	d115      	bne.n	27fba <_start+0x3ba>
   27f8e:	2403      	movs	r4, #3
   27f90:	9804      	ldr	r0, [sp, #16]
   27f92:	9000      	str	r0, [sp, #0]
   27f94:	9401      	str	r4, [sp, #4]
   27f96:	a823      	add	r0, sp, #140	@ 0x8c
   27f98:	2202      	movs	r2, #2
   27f9a:	4918      	ldr	r1, [pc, #96]	@ (27ffc <_start+0x3fc>)
   27f9c:	4633      	mov	r3, r6
   27f9e:	f003 f97c 	bl	2b29a <_ZN9allow_pin13dynamic_allow17h33d41317a2da4f1cE>
   27fa2:	9823      	ldr	r0, [sp, #140]	@ 0x8c
   27fa4:	2802      	cmp	r0, #2
   27fa6:	d103      	bne.n	27fb0 <_start+0x3b0>
   27fa8:	9924      	ldr	r1, [sp, #144]	@ 0x90
   27faa:	9c0e      	ldr	r4, [sp, #56]	@ 0x38
   27fac:	4620      	mov	r0, r4
   27fae:	e004      	b.n	27fba <_start+0x3ba>
   27fb0:	4809      	ldr	r0, [pc, #36]	@ (27fd8 <_start+0x3d8>)
   27fb2:	4468      	add	r0, sp
   27fb4:	7004      	strb	r4, [r0, #0]
   27fb6:	2000      	movs	r0, #0
   27fb8:	9c0e      	ldr	r4, [sp, #56]	@ 0x38
   27fba:	2800      	cmp	r0, #0
   27fbc:	d138      	bne.n	28030 <_start+0x430>
   27fbe:	480f      	ldr	r0, [pc, #60]	@ (27ffc <_start+0x3fc>)
   27fc0:	2103      	movs	r1, #3
   27fc2:	2502      	movs	r5, #2
   27fc4:	2400      	movs	r4, #0
   27fc6:	462a      	mov	r2, r5
   27fc8:	4623      	mov	r3, r4
   27fca:	df02      	svc	2
   27fcc:	287f      	cmp	r0, #127	@ 0x7f
   27fce:	d817      	bhi.n	28000 <_start+0x400>
   27fd0:	9c0e      	ldr	r4, [sp, #56]	@ 0x38
   27fd2:	e02d      	b.n	28030 <_start+0x430>
   27fd4:	ffffeacc 	.word	0xffffeacc
   27fd8:	000013b8 	.word	0x000013b8
   27fdc:	000013bc 	.word	0x000013bc
   27fe0:	00001414 	.word	0x00001414
   27fe4:	00002006 	.word	0x00002006
   27fe8:	00000518 	.word	0x00000518
   27fec:	000007ec 	.word	0x000007ec
   27ff0:	0001022b 	.word	0x0001022b
   27ff4:	000020c4 	.word	0x000020c4
   27ff8:	00010a05 	.word	0x00010a05
   27ffc:	000023cf 	.word	0x000023cf
   28000:	48cd      	ldr	r0, [pc, #820]	@ (28338 <_start+0x738>)
   28002:	4468      	add	r0, sp
   28004:	7802      	ldrb	r2, [r0, #0]
   28006:	2a02      	cmp	r2, #2
   28008:	d003      	beq.n	28012 <_start+0x412>
   2800a:	2103      	movs	r1, #3
   2800c:	48cb      	ldr	r0, [pc, #812]	@ (2833c <_start+0x73c>)
   2800e:	f003 f937 	bl	2b280 <_ZN9allow_pin12dynamic_type7unshare17hefa7cd45f9379b26E>
   28012:	48c9      	ldr	r0, [pc, #804]	@ (28338 <_start+0x738>)
   28014:	4468      	add	r0, sp
   28016:	7005      	strb	r5, [r0, #0]
   28018:	48c9      	ldr	r0, [pc, #804]	@ (28340 <_start+0x740>)
   2801a:	4468      	add	r0, sp
   2801c:	7802      	ldrb	r2, [r0, #0]
   2801e:	2a02      	cmp	r2, #2
   28020:	d003      	beq.n	2802a <_start+0x42a>
   28022:	2102      	movs	r1, #2
   28024:	48c5      	ldr	r0, [pc, #788]	@ (2833c <_start+0x73c>)
   28026:	f003 f92b 	bl	2b280 <_ZN9allow_pin12dynamic_type7unshare17hefa7cd45f9379b26E>
   2802a:	48c5      	ldr	r0, [pc, #788]	@ (28340 <_start+0x740>)
   2802c:	4468      	add	r0, sp
   2802e:	7005      	strb	r5, [r0, #0]
   28030:	48c3      	ldr	r0, [pc, #780]	@ (28340 <_start+0x740>)
   28032:	4468      	add	r0, sp
   28034:	7805      	ldrb	r5, [r0, #0]
   28036:	2c00      	cmp	r4, #0
   28038:	d003      	beq.n	28042 <_start+0x442>
   2803a:	910f      	str	r1, [sp, #60]	@ 0x3c
   2803c:	2d02      	cmp	r5, #2
   2803e:	d11e      	bne.n	2807e <_start+0x47e>
   28040:	e022      	b.n	28088 <_start+0x488>
   28042:	4bc0      	ldr	r3, [pc, #768]	@ (28344 <_start+0x744>)
   28044:	1dda      	adds	r2, r3, #7
   28046:	49be      	ldr	r1, [pc, #760]	@ (28340 <_start+0x740>)
   28048:	4469      	add	r1, sp
   2804a:	3108      	adds	r1, #8
   2804c:	a838      	add	r0, sp, #224	@ 0xe0
   2804e:	2d02      	cmp	r5, #2
   28050:	d000      	beq.n	28054 <_start+0x454>
   28052:	461e      	mov	r6, r3
   28054:	78b3      	ldrb	r3, [r6, #2]
   28056:	7083      	strb	r3, [r0, #2]
   28058:	d000      	beq.n	2805c <_start+0x45c>
   2805a:	4611      	mov	r1, r2
   2805c:	7832      	ldrb	r2, [r6, #0]
   2805e:	7873      	ldrb	r3, [r6, #1]
   28060:	021b      	lsls	r3, r3, #8
   28062:	189a      	adds	r2, r3, r2
   28064:	8002      	strh	r2, [r0, #0]
   28066:	9809      	ldr	r0, [sp, #36]	@ 0x24
   28068:	6800      	ldr	r0, [r0, #0]
   2806a:	900f      	str	r0, [sp, #60]	@ 0x3c
   2806c:	a833      	add	r0, sp, #204	@ 0xcc
   2806e:	2211      	movs	r2, #17
   28070:	f003 faeb 	bl	2b64a <__aeabi_memcpy>
   28074:	2000      	movs	r0, #0
   28076:	2d02      	cmp	r5, #2
   28078:	d000      	beq.n	2807c <_start+0x47c>
   2807a:	900f      	str	r0, [sp, #60]	@ 0x3c
   2807c:	d004      	beq.n	28088 <_start+0x488>
   2807e:	2102      	movs	r1, #2
   28080:	48ae      	ldr	r0, [pc, #696]	@ (2833c <_start+0x73c>)
   28082:	462a      	mov	r2, r5
   28084:	f003 f8fc 	bl	2b280 <_ZN9allow_pin12dynamic_type7unshare17hefa7cd45f9379b26E>
   28088:	48ab      	ldr	r0, [pc, #684]	@ (28338 <_start+0x738>)
   2808a:	4468      	add	r0, sp
   2808c:	7802      	ldrb	r2, [r0, #0]
   2808e:	2a02      	cmp	r2, #2
   28090:	d003      	beq.n	2809a <_start+0x49a>
   28092:	2103      	movs	r1, #3
   28094:	48a9      	ldr	r0, [pc, #676]	@ (2833c <_start+0x73c>)
   28096:	f003 f8f3 	bl	2b280 <_ZN9allow_pin12dynamic_type7unshare17hefa7cd45f9379b26E>
   2809a:	2c00      	cmp	r4, #0
   2809c:	d001      	beq.n	280a2 <_start+0x4a2>
   2809e:	f003 f8b0 	bl	2b202 <_start+0x3602>
   280a2:	aa23      	add	r2, sp, #140	@ 0x8c
   280a4:	920a      	str	r2, [sp, #40]	@ 0x28
   280a6:	9838      	ldr	r0, [sp, #224]	@ 0xe0
   280a8:	7050      	strb	r0, [r2, #1]
   280aa:	a838      	add	r0, sp, #224	@ 0xe0
   280ac:	7881      	ldrb	r1, [r0, #2]
   280ae:	70d1      	strb	r1, [r2, #3]
   280b0:	7840      	ldrb	r0, [r0, #1]
   280b2:	7090      	strb	r0, [r2, #2]
   280b4:	a833      	add	r0, sp, #204	@ 0xcc
   280b6:	a910      	add	r1, sp, #64	@ 0x40
   280b8:	460a      	mov	r2, r1
   280ba:	c878      	ldmia	r0!, {r3, r4, r5, r6}
   280bc:	c278      	stmia	r2!, {r3, r4, r5, r6}
   280be:	7800      	ldrb	r0, [r0, #0]
   280c0:	7010      	strb	r0, [r2, #0]
   280c2:	9e0a      	ldr	r6, [sp, #40]	@ 0x28
   280c4:	4630      	mov	r0, r6
   280c6:	3008      	adds	r0, #8
   280c8:	c93c      	ldmia	r1!, {r2, r3, r4, r5}
   280ca:	c03c      	stmia	r0!, {r2, r3, r4, r5}
   280cc:	7809      	ldrb	r1, [r1, #0]
   280ce:	7001      	strb	r1, [r0, #0]
   280d0:	9d0c      	ldr	r5, [sp, #48]	@ 0x30
   280d2:	7035      	strb	r5, [r6, #0]
   280d4:	980f      	ldr	r0, [sp, #60]	@ 0x3c
   280d6:	9024      	str	r0, [sp, #144]	@ 0x90
   280d8:	4c97      	ldr	r4, [pc, #604]	@ (28338 <_start+0x738>)
   280da:	446c      	add	r4, sp
   280dc:	1c60      	adds	r0, r4, #1
   280de:	2136      	movs	r1, #54	@ 0x36
   280e0:	900f      	str	r0, [sp, #60]	@ 0x3c
   280e2:	9106      	str	r1, [sp, #24]
   280e4:	f003 f8f1 	bl	2b2ca <__aeabi_memclr>
   280e8:	7025      	strb	r5, [r4, #0]
   280ea:	9804      	ldr	r0, [sp, #16]
   280ec:	9000      	str	r0, [sp, #0]
   280ee:	9d0b      	ldr	r5, [sp, #44]	@ 0x2c
   280f0:	9501      	str	r5, [sp, #4]
   280f2:	1c73      	adds	r3, r6, #1
   280f4:	a833      	add	r0, sp, #204	@ 0xcc
   280f6:	4994      	ldr	r1, [pc, #592]	@ (28348 <_start+0x748>)
   280f8:	2400      	movs	r4, #0
   280fa:	4622      	mov	r2, r4
   280fc:	f003 f8cd 	bl	2b29a <_ZN9allow_pin13dynamic_allow17h33d41317a2da4f1cE>
   28100:	9833      	ldr	r0, [sp, #204]	@ 0xcc
   28102:	2802      	cmp	r0, #2
   28104:	d101      	bne.n	2810a <_start+0x50a>
   28106:	9934      	ldr	r1, [sp, #208]	@ 0xd0
   28108:	e001      	b.n	2810e <_start+0x50e>
   2810a:	a923      	add	r1, sp, #140	@ 0x8c
   2810c:	700d      	strb	r5, [r1, #0]
   2810e:	2802      	cmp	r0, #2
   28110:	9d0e      	ldr	r5, [sp, #56]	@ 0x38
   28112:	9e0f      	ldr	r6, [sp, #60]	@ 0x3c
   28114:	d041      	beq.n	2819a <_start+0x59a>
   28116:	4888      	ldr	r0, [pc, #544]	@ (28338 <_start+0x738>)
   28118:	4468      	add	r0, sp
   2811a:	7800      	ldrb	r0, [r0, #0]
   2811c:	2802      	cmp	r0, #2
   2811e:	d10e      	bne.n	2813e <_start+0x53e>
   28120:	2503      	movs	r5, #3
   28122:	9806      	ldr	r0, [sp, #24]
   28124:	9000      	str	r0, [sp, #0]
   28126:	9501      	str	r5, [sp, #4]
   28128:	a833      	add	r0, sp, #204	@ 0xcc
   2812a:	2207      	movs	r2, #7
   2812c:	4986      	ldr	r1, [pc, #536]	@ (28348 <_start+0x748>)
   2812e:	4633      	mov	r3, r6
   28130:	f003 f8b3 	bl	2b29a <_ZN9allow_pin13dynamic_allow17h33d41317a2da4f1cE>
   28134:	9833      	ldr	r0, [sp, #204]	@ 0xcc
   28136:	2802      	cmp	r0, #2
   28138:	d107      	bne.n	2814a <_start+0x54a>
   2813a:	9934      	ldr	r1, [sp, #208]	@ 0xd0
   2813c:	e000      	b.n	28140 <_start+0x540>
   2813e:	2103      	movs	r1, #3
   28140:	9d0e      	ldr	r5, [sp, #56]	@ 0x38
   28142:	462c      	mov	r4, r5
   28144:	2c00      	cmp	r4, #0
   28146:	d006      	beq.n	28156 <_start+0x556>
   28148:	e027      	b.n	2819a <_start+0x59a>
   2814a:	487b      	ldr	r0, [pc, #492]	@ (28338 <_start+0x738>)
   2814c:	4468      	add	r0, sp
   2814e:	7005      	strb	r5, [r0, #0]
   28150:	9d0e      	ldr	r5, [sp, #56]	@ 0x38
   28152:	2c00      	cmp	r4, #0
   28154:	d121      	bne.n	2819a <_start+0x59a>
   28156:	487c      	ldr	r0, [pc, #496]	@ (28348 <_start+0x748>)
   28158:	2207      	movs	r2, #7
   2815a:	2500      	movs	r5, #0
   2815c:	4629      	mov	r1, r5
   2815e:	462b      	mov	r3, r5
   28160:	df02      	svc	2
   28162:	287f      	cmp	r0, #127	@ 0x7f
   28164:	d801      	bhi.n	2816a <_start+0x56a>
   28166:	9d0e      	ldr	r5, [sp, #56]	@ 0x38
   28168:	e017      	b.n	2819a <_start+0x59a>
   2816a:	a823      	add	r0, sp, #140	@ 0x8c
   2816c:	7802      	ldrb	r2, [r0, #0]
   2816e:	2a02      	cmp	r2, #2
   28170:	d003      	beq.n	2817a <_start+0x57a>
   28172:	2100      	movs	r1, #0
   28174:	4874      	ldr	r0, [pc, #464]	@ (28348 <_start+0x748>)
   28176:	f003 f883 	bl	2b280 <_ZN9allow_pin12dynamic_type7unshare17hefa7cd45f9379b26E>
   2817a:	a823      	add	r0, sp, #140	@ 0x8c
   2817c:	990c      	ldr	r1, [sp, #48]	@ 0x30
   2817e:	7001      	strb	r1, [r0, #0]
   28180:	486d      	ldr	r0, [pc, #436]	@ (28338 <_start+0x738>)
   28182:	4468      	add	r0, sp
   28184:	7802      	ldrb	r2, [r0, #0]
   28186:	2a02      	cmp	r2, #2
   28188:	d003      	beq.n	28192 <_start+0x592>
   2818a:	2107      	movs	r1, #7
   2818c:	486e      	ldr	r0, [pc, #440]	@ (28348 <_start+0x748>)
   2818e:	f003 f877 	bl	2b280 <_ZN9allow_pin12dynamic_type7unshare17hefa7cd45f9379b26E>
   28192:	4869      	ldr	r0, [pc, #420]	@ (28338 <_start+0x738>)
   28194:	4468      	add	r0, sp
   28196:	990c      	ldr	r1, [sp, #48]	@ 0x30
   28198:	7001      	strb	r1, [r0, #0]
   2819a:	4867      	ldr	r0, [pc, #412]	@ (28338 <_start+0x738>)
   2819c:	4468      	add	r0, sp
   2819e:	7804      	ldrb	r4, [r0, #0]
   281a0:	2d00      	cmp	r5, #0
   281a2:	d003      	beq.n	281ac <_start+0x5ac>
   281a4:	910f      	str	r1, [sp, #60]	@ 0x3c
   281a6:	2c02      	cmp	r4, #2
   281a8:	d11e      	bne.n	281e8 <_start+0x5e8>
   281aa:	e022      	b.n	281f2 <_start+0x5f2>
   281ac:	4b67      	ldr	r3, [pc, #412]	@ (2834c <_start+0x74c>)
   281ae:	1dda      	adds	r2, r3, #7
   281b0:	4961      	ldr	r1, [pc, #388]	@ (28338 <_start+0x738>)
   281b2:	4469      	add	r1, sp
   281b4:	3108      	adds	r1, #8
   281b6:	a838      	add	r0, sp, #224	@ 0xe0
   281b8:	2c02      	cmp	r4, #2
   281ba:	d000      	beq.n	281be <_start+0x5be>
   281bc:	461e      	mov	r6, r3
   281be:	78b3      	ldrb	r3, [r6, #2]
   281c0:	7083      	strb	r3, [r0, #2]
   281c2:	d000      	beq.n	281c6 <_start+0x5c6>
   281c4:	4611      	mov	r1, r2
   281c6:	7832      	ldrb	r2, [r6, #0]
   281c8:	7873      	ldrb	r3, [r6, #1]
   281ca:	021b      	lsls	r3, r3, #8
   281cc:	189a      	adds	r2, r3, r2
   281ce:	8002      	strh	r2, [r0, #0]
   281d0:	9e0d      	ldr	r6, [sp, #52]	@ 0x34
   281d2:	6e30      	ldr	r0, [r6, #96]	@ 0x60
   281d4:	900f      	str	r0, [sp, #60]	@ 0x3c
   281d6:	a810      	add	r0, sp, #64	@ 0x40
   281d8:	222f      	movs	r2, #47	@ 0x2f
   281da:	f003 fa36 	bl	2b64a <__aeabi_memcpy>
   281de:	2000      	movs	r0, #0
   281e0:	2c02      	cmp	r4, #2
   281e2:	d000      	beq.n	281e6 <_start+0x5e6>
   281e4:	900f      	str	r0, [sp, #60]	@ 0x3c
   281e6:	d004      	beq.n	281f2 <_start+0x5f2>
   281e8:	2107      	movs	r1, #7
   281ea:	4857      	ldr	r0, [pc, #348]	@ (28348 <_start+0x748>)
   281ec:	4622      	mov	r2, r4
   281ee:	f003 f847 	bl	2b280 <_ZN9allow_pin12dynamic_type7unshare17hefa7cd45f9379b26E>
   281f2:	a823      	add	r0, sp, #140	@ 0x8c
   281f4:	7802      	ldrb	r2, [r0, #0]
   281f6:	2a02      	cmp	r2, #2
   281f8:	d003      	beq.n	28202 <_start+0x602>
   281fa:	2100      	movs	r1, #0
   281fc:	4852      	ldr	r0, [pc, #328]	@ (28348 <_start+0x748>)
   281fe:	f003 f83f 	bl	2b280 <_ZN9allow_pin12dynamic_type7unshare17hefa7cd45f9379b26E>
   28202:	2d00      	cmp	r5, #0
   28204:	d001      	beq.n	2820a <_start+0x60a>
   28206:	f002 fffc 	bl	2b202 <_start+0x3602>
   2820a:	4a4b      	ldr	r2, [pc, #300]	@ (28338 <_start+0x738>)
   2820c:	446a      	add	r2, sp
   2820e:	920a      	str	r2, [sp, #40]	@ 0x28
   28210:	9838      	ldr	r0, [sp, #224]	@ 0xe0
   28212:	7050      	strb	r0, [r2, #1]
   28214:	a838      	add	r0, sp, #224	@ 0xe0
   28216:	7881      	ldrb	r1, [r0, #2]
   28218:	70d1      	strb	r1, [r2, #3]
   2821a:	7840      	ldrb	r0, [r0, #1]
   2821c:	7090      	strb	r0, [r2, #2]
   2821e:	a910      	add	r1, sp, #64	@ 0x40
   28220:	4847      	ldr	r0, [pc, #284]	@ (28340 <_start+0x740>)
   28222:	4468      	add	r0, sp
   28224:	4602      	mov	r2, r0
   28226:	c968      	ldmia	r1!, {r3, r5, r6}
   28228:	c268      	stmia	r2!, {r3, r5, r6}
   2822a:	c978      	ldmia	r1!, {r3, r4, r5, r6}
   2822c:	c278      	stmia	r2!, {r3, r4, r5, r6}
   2822e:	c978      	ldmia	r1!, {r3, r4, r5, r6}
   28230:	c278      	stmia	r2!, {r3, r4, r5, r6}
   28232:	880b      	ldrh	r3, [r1, #0]
   28234:	8013      	strh	r3, [r2, #0]
   28236:	7889      	ldrb	r1, [r1, #2]
   28238:	7091      	strb	r1, [r2, #2]
   2823a:	9e0a      	ldr	r6, [sp, #40]	@ 0x28
   2823c:	4631      	mov	r1, r6
   2823e:	3108      	adds	r1, #8
   28240:	c81c      	ldmia	r0!, {r2, r3, r4}
   28242:	c11c      	stmia	r1!, {r2, r3, r4}
   28244:	c83c      	ldmia	r0!, {r2, r3, r4, r5}
   28246:	c13c      	stmia	r1!, {r2, r3, r4, r5}
   28248:	c83c      	ldmia	r0!, {r2, r3, r4, r5}
   2824a:	c13c      	stmia	r1!, {r2, r3, r4, r5}
   2824c:	8802      	ldrh	r2, [r0, #0]
   2824e:	800a      	strh	r2, [r1, #0]
   28250:	7880      	ldrb	r0, [r0, #2]
   28252:	7088      	strb	r0, [r1, #2]
   28254:	9d0c      	ldr	r5, [sp, #48]	@ 0x30
   28256:	7035      	strb	r5, [r6, #0]
   28258:	980f      	ldr	r0, [sp, #60]	@ 0x3c
   2825a:	990d      	ldr	r1, [sp, #52]	@ 0x34
   2825c:	6608      	str	r0, [r1, #96]	@ 0x60
   2825e:	4c38      	ldr	r4, [pc, #224]	@ (28340 <_start+0x740>)
   28260:	446c      	add	r4, sp
   28262:	1c60      	adds	r0, r4, #1
   28264:	2125      	movs	r1, #37	@ 0x25
   28266:	900f      	str	r0, [sp, #60]	@ 0x3c
   28268:	9104      	str	r1, [sp, #16]
   2826a:	f003 f82e 	bl	2b2ca <__aeabi_memclr>
   2826e:	7025      	strb	r5, [r4, #0]
   28270:	9806      	ldr	r0, [sp, #24]
   28272:	9000      	str	r0, [sp, #0]
   28274:	9c0b      	ldr	r4, [sp, #44]	@ 0x2c
   28276:	9401      	str	r4, [sp, #4]
   28278:	1c73      	adds	r3, r6, #1
   2827a:	a833      	add	r0, sp, #204	@ 0xcc
   2827c:	4934      	ldr	r1, [pc, #208]	@ (28350 <_start+0x750>)
   2827e:	2207      	movs	r2, #7
   28280:	f003 f80b 	bl	2b29a <_ZN9allow_pin13dynamic_allow17h33d41317a2da4f1cE>
   28284:	9833      	ldr	r0, [sp, #204]	@ 0xcc
   28286:	2802      	cmp	r0, #2
   28288:	d101      	bne.n	2828e <_start+0x68e>
   2828a:	9934      	ldr	r1, [sp, #208]	@ 0xd0
   2828c:	e002      	b.n	28294 <_start+0x694>
   2828e:	492a      	ldr	r1, [pc, #168]	@ (28338 <_start+0x738>)
   28290:	4469      	add	r1, sp
   28292:	700c      	strb	r4, [r1, #0]
   28294:	2802      	cmp	r0, #2
   28296:	9c0e      	ldr	r4, [sp, #56]	@ 0x38
   28298:	9e0f      	ldr	r6, [sp, #60]	@ 0x3c
   2829a:	d043      	beq.n	28324 <_start+0x724>
   2829c:	4828      	ldr	r0, [pc, #160]	@ (28340 <_start+0x740>)
   2829e:	4468      	add	r0, sp
   282a0:	7800      	ldrb	r0, [r0, #0]
   282a2:	2802      	cmp	r0, #2
   282a4:	d10f      	bne.n	282c6 <_start+0x6c6>
   282a6:	2503      	movs	r5, #3
   282a8:	9804      	ldr	r0, [sp, #16]
   282aa:	9000      	str	r0, [sp, #0]
   282ac:	9501      	str	r5, [sp, #4]
   282ae:	a833      	add	r0, sp, #204	@ 0xcc
   282b0:	2400      	movs	r4, #0
   282b2:	4927      	ldr	r1, [pc, #156]	@ (28350 <_start+0x750>)
   282b4:	4622      	mov	r2, r4
   282b6:	4633      	mov	r3, r6
   282b8:	f002 ffef 	bl	2b29a <_ZN9allow_pin13dynamic_allow17h33d41317a2da4f1cE>
   282bc:	9833      	ldr	r0, [sp, #204]	@ 0xcc
   282be:	2802      	cmp	r0, #2
   282c0:	d105      	bne.n	282ce <_start+0x6ce>
   282c2:	9934      	ldr	r1, [sp, #208]	@ 0xd0
   282c4:	e000      	b.n	282c8 <_start+0x6c8>
   282c6:	2103      	movs	r1, #3
   282c8:	980e      	ldr	r0, [sp, #56]	@ 0x38
   282ca:	4604      	mov	r4, r0
   282cc:	e003      	b.n	282d6 <_start+0x6d6>
   282ce:	481c      	ldr	r0, [pc, #112]	@ (28340 <_start+0x740>)
   282d0:	4468      	add	r0, sp
   282d2:	7005      	strb	r5, [r0, #0]
   282d4:	980e      	ldr	r0, [sp, #56]	@ 0x38
   282d6:	2c00      	cmp	r4, #0
   282d8:	4604      	mov	r4, r0
   282da:	d123      	bne.n	28324 <_start+0x724>
   282dc:	481c      	ldr	r0, [pc, #112]	@ (28350 <_start+0x750>)
   282de:	2107      	movs	r1, #7
   282e0:	2400      	movs	r4, #0
   282e2:	4622      	mov	r2, r4
   282e4:	4623      	mov	r3, r4
   282e6:	df02      	svc	2
   282e8:	287f      	cmp	r0, #127	@ 0x7f
   282ea:	d801      	bhi.n	282f0 <_start+0x6f0>
   282ec:	9c0e      	ldr	r4, [sp, #56]	@ 0x38
   282ee:	e019      	b.n	28324 <_start+0x724>
   282f0:	4811      	ldr	r0, [pc, #68]	@ (28338 <_start+0x738>)
   282f2:	4468      	add	r0, sp
   282f4:	7802      	ldrb	r2, [r0, #0]
   282f6:	2a02      	cmp	r2, #2
   282f8:	d003      	beq.n	28302 <_start+0x702>
   282fa:	2107      	movs	r1, #7
   282fc:	4814      	ldr	r0, [pc, #80]	@ (28350 <_start+0x750>)
   282fe:	f002 ffbf 	bl	2b280 <_ZN9allow_pin12dynamic_type7unshare17hefa7cd45f9379b26E>
   28302:	480d      	ldr	r0, [pc, #52]	@ (28338 <_start+0x738>)
   28304:	4468      	add	r0, sp
   28306:	990c      	ldr	r1, [sp, #48]	@ 0x30
   28308:	7001      	strb	r1, [r0, #0]
   2830a:	480d      	ldr	r0, [pc, #52]	@ (28340 <_start+0x740>)
   2830c:	4468      	add	r0, sp
   2830e:	7802      	ldrb	r2, [r0, #0]
   28310:	2a02      	cmp	r2, #2
   28312:	d003      	beq.n	2831c <_start+0x71c>
   28314:	2100      	movs	r1, #0
   28316:	480e      	ldr	r0, [pc, #56]	@ (28350 <_start+0x750>)
   28318:	f002 ffb2 	bl	2b280 <_ZN9allow_pin12dynamic_type7unshare17hefa7cd45f9379b26E>
   2831c:	4808      	ldr	r0, [pc, #32]	@ (28340 <_start+0x740>)
   2831e:	4468      	add	r0, sp
   28320:	990c      	ldr	r1, [sp, #48]	@ 0x30
   28322:	7001      	strb	r1, [r0, #0]
   28324:	4806      	ldr	r0, [pc, #24]	@ (28340 <_start+0x740>)
   28326:	4468      	add	r0, sp
   28328:	7805      	ldrb	r5, [r0, #0]
   2832a:	2c00      	cmp	r4, #0
   2832c:	d012      	beq.n	28354 <_start+0x754>
   2832e:	910f      	str	r1, [sp, #60]	@ 0x3c
   28330:	2d02      	cmp	r5, #2
   28332:	d12d      	bne.n	28390 <_start+0x790>
   28334:	e031      	b.n	2839a <_start+0x79a>
   28336:	46c0      	nop			@ (mov r8, r8)
   28338:	00001414 	.word	0x00001414
   2833c:	000023cf 	.word	0x000023cf
   28340:	000013b8 	.word	0x000013b8
   28344:	00010462 	.word	0x00010462
   28348:	0000021f 	.word	0x0000021f
   2834c:	0001071a 	.word	0x0001071a
   28350:	00001597 	.word	0x00001597
   28354:	4be7      	ldr	r3, [pc, #924]	@ (286f4 <_start+0xaf4>)
   28356:	1dda      	adds	r2, r3, #7
   28358:	49e7      	ldr	r1, [pc, #924]	@ (286f8 <_start+0xaf8>)
   2835a:	4469      	add	r1, sp
   2835c:	3108      	adds	r1, #8
   2835e:	a838      	add	r0, sp, #224	@ 0xe0
   28360:	2d02      	cmp	r5, #2
   28362:	d000      	beq.n	28366 <_start+0x766>
   28364:	461e      	mov	r6, r3
   28366:	78b3      	ldrb	r3, [r6, #2]
   28368:	7083      	strb	r3, [r0, #2]
   2836a:	d000      	beq.n	2836e <_start+0x76e>
   2836c:	4611      	mov	r1, r2
   2836e:	7832      	ldrb	r2, [r6, #0]
   28370:	7873      	ldrb	r3, [r6, #1]
   28372:	021b      	lsls	r3, r3, #8
   28374:	189a      	adds	r2, r3, r2
   28376:	8002      	strh	r2, [r0, #0]
   28378:	9809      	ldr	r0, [sp, #36]	@ 0x24
   2837a:	6800      	ldr	r0, [r0, #0]
   2837c:	900f      	str	r0, [sp, #60]	@ 0x3c
   2837e:	a823      	add	r0, sp, #140	@ 0x8c
   28380:	221e      	movs	r2, #30
   28382:	f003 f962 	bl	2b64a <__aeabi_memcpy>
   28386:	2000      	movs	r0, #0
   28388:	2d02      	cmp	r5, #2
   2838a:	d000      	beq.n	2838e <_start+0x78e>
   2838c:	900f      	str	r0, [sp, #60]	@ 0x3c
   2838e:	d004      	beq.n	2839a <_start+0x79a>
   28390:	2100      	movs	r1, #0
   28392:	48da      	ldr	r0, [pc, #872]	@ (286fc <_start+0xafc>)
   28394:	462a      	mov	r2, r5
   28396:	f002 ff73 	bl	2b280 <_ZN9allow_pin12dynamic_type7unshare17hefa7cd45f9379b26E>
   2839a:	48d9      	ldr	r0, [pc, #868]	@ (28700 <_start+0xb00>)
   2839c:	4468      	add	r0, sp
   2839e:	7802      	ldrb	r2, [r0, #0]
   283a0:	2a02      	cmp	r2, #2
   283a2:	d003      	beq.n	283ac <_start+0x7ac>
   283a4:	2107      	movs	r1, #7
   283a6:	48d5      	ldr	r0, [pc, #852]	@ (286fc <_start+0xafc>)
   283a8:	f002 ff6a 	bl	2b280 <_ZN9allow_pin12dynamic_type7unshare17hefa7cd45f9379b26E>
   283ac:	2c00      	cmp	r4, #0
   283ae:	d001      	beq.n	283b4 <_start+0x7b4>
   283b0:	f002 ff27 	bl	2b202 <_start+0x3602>
   283b4:	4ad2      	ldr	r2, [pc, #840]	@ (28700 <_start+0xb00>)
   283b6:	446a      	add	r2, sp
   283b8:	920a      	str	r2, [sp, #40]	@ 0x28
   283ba:	9838      	ldr	r0, [sp, #224]	@ 0xe0
   283bc:	7050      	strb	r0, [r2, #1]
   283be:	a838      	add	r0, sp, #224	@ 0xe0
   283c0:	7881      	ldrb	r1, [r0, #2]
   283c2:	70d1      	strb	r1, [r2, #3]
   283c4:	7840      	ldrb	r0, [r0, #1]
   283c6:	7090      	strb	r0, [r2, #2]
   283c8:	a923      	add	r1, sp, #140	@ 0x8c
   283ca:	a810      	add	r0, sp, #64	@ 0x40
   283cc:	4602      	mov	r2, r0
   283ce:	c958      	ldmia	r1!, {r3, r4, r6}
   283d0:	c258      	stmia	r2!, {r3, r4, r6}
   283d2:	c978      	ldmia	r1!, {r3, r4, r5, r6}
   283d4:	c278      	stmia	r2!, {r3, r4, r5, r6}
   283d6:	8809      	ldrh	r1, [r1, #0]
   283d8:	8011      	strh	r1, [r2, #0]
   283da:	9e0a      	ldr	r6, [sp, #40]	@ 0x28
   283dc:	4631      	mov	r1, r6
   283de:	3108      	adds	r1, #8
   283e0:	c81c      	ldmia	r0!, {r2, r3, r4}
   283e2:	c11c      	stmia	r1!, {r2, r3, r4}
   283e4:	c83c      	ldmia	r0!, {r2, r3, r4, r5}
   283e6:	c13c      	stmia	r1!, {r2, r3, r4, r5}
   283e8:	8800      	ldrh	r0, [r0, #0]
   283ea:	8008      	strh	r0, [r1, #0]
   283ec:	9c0c      	ldr	r4, [sp, #48]	@ 0x30
   283ee:	7034      	strb	r4, [r6, #0]
   283f0:	9e0d      	ldr	r6, [sp, #52]	@ 0x34
   283f2:	980f      	ldr	r0, [sp, #60]	@ 0x3c
   283f4:	6630      	str	r0, [r6, #96]	@ 0x60
   283f6:	ad10      	add	r5, sp, #64	@ 0x40
   283f8:	1c68      	adds	r0, r5, #1
   283fa:	210e      	movs	r1, #14
   283fc:	9006      	str	r0, [sp, #24]
   283fe:	910f      	str	r1, [sp, #60]	@ 0x3c
   28400:	f002 ff63 	bl	2b2ca <__aeabi_memclr>
   28404:	702c      	strb	r4, [r5, #0]
   28406:	9804      	ldr	r0, [sp, #16]
   28408:	9000      	str	r0, [sp, #0]
   2840a:	9d0b      	ldr	r5, [sp, #44]	@ 0x2c
   2840c:	9501      	str	r5, [sp, #4]
   2840e:	980a      	ldr	r0, [sp, #40]	@ 0x28
   28410:	1c43      	adds	r3, r0, #1
   28412:	48b9      	ldr	r0, [pc, #740]	@ (286f8 <_start+0xaf8>)
   28414:	4468      	add	r0, sp
   28416:	49bb      	ldr	r1, [pc, #748]	@ (28704 <_start+0xb04>)
   28418:	4622      	mov	r2, r4
   2841a:	f002 ff3e 	bl	2b29a <_ZN9allow_pin13dynamic_allow17h33d41317a2da4f1cE>
   2841e:	6830      	ldr	r0, [r6, #0]
   28420:	2802      	cmp	r0, #2
   28422:	d102      	bne.n	2842a <_start+0x82a>
   28424:	9909      	ldr	r1, [sp, #36]	@ 0x24
   28426:	6809      	ldr	r1, [r1, #0]
   28428:	e002      	b.n	28430 <_start+0x830>
   2842a:	49b5      	ldr	r1, [pc, #724]	@ (28700 <_start+0xb00>)
   2842c:	4469      	add	r1, sp
   2842e:	700d      	strb	r5, [r1, #0]
   28430:	2802      	cmp	r0, #2
   28432:	d026      	beq.n	28482 <_start+0x882>
   28434:	a810      	add	r0, sp, #64	@ 0x40
   28436:	7800      	ldrb	r0, [r0, #0]
   28438:	2802      	cmp	r0, #2
   2843a:	d110      	bne.n	2845e <_start+0x85e>
   2843c:	2503      	movs	r5, #3
   2843e:	980f      	ldr	r0, [sp, #60]	@ 0x3c
   28440:	9000      	str	r0, [sp, #0]
   28442:	9501      	str	r5, [sp, #4]
   28444:	48ac      	ldr	r0, [pc, #688]	@ (286f8 <_start+0xaf8>)
   28446:	4468      	add	r0, sp
   28448:	2208      	movs	r2, #8
   2844a:	49ae      	ldr	r1, [pc, #696]	@ (28704 <_start+0xb04>)
   2844c:	9b06      	ldr	r3, [sp, #24]
   2844e:	f002 ff24 	bl	2b29a <_ZN9allow_pin13dynamic_allow17h33d41317a2da4f1cE>
   28452:	6830      	ldr	r0, [r6, #0]
   28454:	2802      	cmp	r0, #2
   28456:	d105      	bne.n	28464 <_start+0x864>
   28458:	6871      	ldr	r1, [r6, #4]
   2845a:	980e      	ldr	r0, [sp, #56]	@ 0x38
   2845c:	e005      	b.n	2846a <_start+0x86a>
   2845e:	2103      	movs	r1, #3
   28460:	980e      	ldr	r0, [sp, #56]	@ 0x38
   28462:	e002      	b.n	2846a <_start+0x86a>
   28464:	a810      	add	r0, sp, #64	@ 0x40
   28466:	7005      	strb	r5, [r0, #0]
   28468:	2000      	movs	r0, #0
   2846a:	2800      	cmp	r0, #0
   2846c:	d109      	bne.n	28482 <_start+0x882>
   2846e:	48a5      	ldr	r0, [pc, #660]	@ (28704 <_start+0xb04>)
   28470:	2402      	movs	r4, #2
   28472:	2208      	movs	r2, #8
   28474:	2500      	movs	r5, #0
   28476:	4621      	mov	r1, r4
   28478:	462b      	mov	r3, r5
   2847a:	df02      	svc	2
   2847c:	287f      	cmp	r0, #127	@ 0x7f
   2847e:	d900      	bls.n	28482 <_start+0x882>
   28480:	e0a9      	b.n	285d6 <_start+0x9d6>
   28482:	9d0e      	ldr	r5, [sp, #56]	@ 0x38
   28484:	a810      	add	r0, sp, #64	@ 0x40
   28486:	7802      	ldrb	r2, [r0, #0]
   28488:	2d00      	cmp	r5, #0
   2848a:	d003      	beq.n	28494 <_start+0x894>
   2848c:	910f      	str	r1, [sp, #60]	@ 0x3c
   2848e:	2a02      	cmp	r2, #2
   28490:	d134      	bne.n	284fc <_start+0x8fc>
   28492:	e037      	b.n	28504 <_start+0x904>
   28494:	4b9c      	ldr	r3, [pc, #624]	@ (28708 <_start+0xb08>)
   28496:	1dd9      	adds	r1, r3, #7
   28498:	a810      	add	r0, sp, #64	@ 0x40
   2849a:	3008      	adds	r0, #8
   2849c:	2a02      	cmp	r2, #2
   2849e:	d000      	beq.n	284a2 <_start+0x8a2>
   284a0:	9306      	str	r3, [sp, #24]
   284a2:	920e      	str	r2, [sp, #56]	@ 0x38
   284a4:	950c      	str	r5, [sp, #48]	@ 0x30
   284a6:	d000      	beq.n	284aa <_start+0x8aa>
   284a8:	4608      	mov	r0, r1
   284aa:	7801      	ldrb	r1, [r0, #0]
   284ac:	7843      	ldrb	r3, [r0, #1]
   284ae:	021b      	lsls	r3, r3, #8
   284b0:	1859      	adds	r1, r3, r1
   284b2:	7883      	ldrb	r3, [r0, #2]
   284b4:	041b      	lsls	r3, r3, #16
   284b6:	78c4      	ldrb	r4, [r0, #3]
   284b8:	0624      	lsls	r4, r4, #24
   284ba:	18e3      	adds	r3, r4, r3
   284bc:	1859      	adds	r1, r3, r1
   284be:	910b      	str	r1, [sp, #44]	@ 0x2c
   284c0:	7903      	ldrb	r3, [r0, #4]
   284c2:	7944      	ldrb	r4, [r0, #5]
   284c4:	0224      	lsls	r4, r4, #8
   284c6:	18e3      	adds	r3, r4, r3
   284c8:	9a06      	ldr	r2, [sp, #24]
   284ca:	7814      	ldrb	r4, [r2, #0]
   284cc:	7855      	ldrb	r5, [r2, #1]
   284ce:	022d      	lsls	r5, r5, #8
   284d0:	192c      	adds	r4, r5, r4
   284d2:	2100      	movs	r1, #0
   284d4:	910f      	str	r1, [sp, #60]	@ 0x3c
   284d6:	ad33      	add	r5, sp, #204	@ 0xcc
   284d8:	ae38      	add	r6, sp, #224	@ 0xe0
   284da:	990e      	ldr	r1, [sp, #56]	@ 0x38
   284dc:	2902      	cmp	r1, #2
   284de:	7891      	ldrb	r1, [r2, #2]
   284e0:	70b1      	strb	r1, [r6, #2]
   284e2:	7980      	ldrb	r0, [r0, #6]
   284e4:	71a8      	strb	r0, [r5, #6]
   284e6:	8034      	strh	r4, [r6, #0]
   284e8:	80ab      	strh	r3, [r5, #4]
   284ea:	980b      	ldr	r0, [sp, #44]	@ 0x2c
   284ec:	9033      	str	r0, [sp, #204]	@ 0xcc
   284ee:	d101      	bne.n	284f4 <_start+0x8f4>
   284f0:	9811      	ldr	r0, [sp, #68]	@ 0x44
   284f2:	900f      	str	r0, [sp, #60]	@ 0x3c
   284f4:	9e0d      	ldr	r6, [sp, #52]	@ 0x34
   284f6:	9d0c      	ldr	r5, [sp, #48]	@ 0x30
   284f8:	9a0e      	ldr	r2, [sp, #56]	@ 0x38
   284fa:	d003      	beq.n	28504 <_start+0x904>
   284fc:	2108      	movs	r1, #8
   284fe:	4881      	ldr	r0, [pc, #516]	@ (28704 <_start+0xb04>)
   28500:	f002 febe 	bl	2b280 <_ZN9allow_pin12dynamic_type7unshare17hefa7cd45f9379b26E>
   28504:	487e      	ldr	r0, [pc, #504]	@ (28700 <_start+0xb00>)
   28506:	4468      	add	r0, sp
   28508:	7802      	ldrb	r2, [r0, #0]
   2850a:	2a02      	cmp	r2, #2
   2850c:	d003      	beq.n	28516 <_start+0x916>
   2850e:	2102      	movs	r1, #2
   28510:	487c      	ldr	r0, [pc, #496]	@ (28704 <_start+0xb04>)
   28512:	f002 feb5 	bl	2b280 <_ZN9allow_pin12dynamic_type7unshare17hefa7cd45f9379b26E>
   28516:	2d00      	cmp	r5, #0
   28518:	d001      	beq.n	2851e <_start+0x91e>
   2851a:	f002 fe72 	bl	2b202 <_start+0x3602>
   2851e:	ac39      	add	r4, sp, #228	@ 0xe4
   28520:	9838      	ldr	r0, [sp, #224]	@ 0xe0
   28522:	8020      	strh	r0, [r4, #0]
   28524:	a923      	add	r1, sp, #140	@ 0x8c
   28526:	9834      	ldr	r0, [sp, #208]	@ 0xd0
   28528:	8088      	strh	r0, [r1, #4]
   2852a:	a838      	add	r0, sp, #224	@ 0xe0
   2852c:	7880      	ldrb	r0, [r0, #2]
   2852e:	70a0      	strb	r0, [r4, #2]
   28530:	a833      	add	r0, sp, #204	@ 0xcc
   28532:	7980      	ldrb	r0, [r0, #6]
   28534:	7188      	strb	r0, [r1, #6]
   28536:	9a0f      	ldr	r2, [sp, #60]	@ 0x3c
   28538:	70e2      	strb	r2, [r4, #3]
   2853a:	0e10      	lsrs	r0, r2, #24
   2853c:	71a0      	strb	r0, [r4, #6]
   2853e:	0c10      	lsrs	r0, r2, #16
   28540:	7160      	strb	r0, [r4, #5]
   28542:	0a10      	lsrs	r0, r2, #8
   28544:	7120      	strb	r0, [r4, #4]
   28546:	9833      	ldr	r0, [sp, #204]	@ 0xcc
   28548:	9023      	str	r0, [sp, #140]	@ 0x8c
   2854a:	1de0      	adds	r0, r4, #7
   2854c:	2207      	movs	r2, #7
   2854e:	f003 f87c 	bl	2b64a <__aeabi_memcpy>
   28552:	4d6b      	ldr	r5, [pc, #428]	@ (28700 <_start+0xb00>)
   28554:	446d      	add	r5, sp
   28556:	4628      	mov	r0, r5
   28558:	4621      	mov	r1, r4
   2855a:	f7fd f8e3 	bl	25724 <_ZN20complex_dynamic_type3app17hb441260bc5db75b6E>
   2855e:	782c      	ldrb	r4, [r5, #0]
   28560:	2c00      	cmp	r4, #0
   28562:	d002      	beq.n	2856a <_start+0x96a>
   28564:	6e30      	ldr	r0, [r6, #96]	@ 0x60
   28566:	900f      	str	r0, [sp, #60]	@ 0x3c
   28568:	e011      	b.n	2858e <_start+0x98e>
   2856a:	4965      	ldr	r1, [pc, #404]	@ (28700 <_start+0xb00>)
   2856c:	4469      	add	r1, sp
   2856e:	78c8      	ldrb	r0, [r1, #3]
   28570:	aa10      	add	r2, sp, #64	@ 0x40
   28572:	7090      	strb	r0, [r2, #2]
   28574:	7848      	ldrb	r0, [r1, #1]
   28576:	788b      	ldrb	r3, [r1, #2]
   28578:	021b      	lsls	r3, r3, #8
   2857a:	1818      	adds	r0, r3, r0
   2857c:	8010      	strh	r0, [r2, #0]
   2857e:	6e30      	ldr	r0, [r6, #96]	@ 0x60
   28580:	900f      	str	r0, [sp, #60]	@ 0x3c
   28582:	3108      	adds	r1, #8
   28584:	485c      	ldr	r0, [pc, #368]	@ (286f8 <_start+0xaf8>)
   28586:	4468      	add	r0, sp
   28588:	2241      	movs	r2, #65	@ 0x41
   2858a:	f002 fefe 	bl	2b38a <__aeabi_memcpy4>
   2858e:	2c00      	cmp	r4, #0
   28590:	d001      	beq.n	28596 <_start+0x996>
   28592:	f002 fe36 	bl	2b202 <_start+0x3602>
   28596:	ac3d      	add	r4, sp, #244	@ 0xf4
   28598:	990f      	ldr	r1, [sp, #60]	@ 0x3c
   2859a:	70e1      	strb	r1, [r4, #3]
   2859c:	9810      	ldr	r0, [sp, #64]	@ 0x40
   2859e:	8020      	strh	r0, [r4, #0]
   285a0:	0e08      	lsrs	r0, r1, #24
   285a2:	71a0      	strb	r0, [r4, #6]
   285a4:	0c08      	lsrs	r0, r1, #16
   285a6:	7160      	strb	r0, [r4, #5]
   285a8:	0a08      	lsrs	r0, r1, #8
   285aa:	7120      	strb	r0, [r4, #4]
   285ac:	a810      	add	r0, sp, #64	@ 0x40
   285ae:	7880      	ldrb	r0, [r0, #2]
   285b0:	70a0      	strb	r0, [r4, #2]
   285b2:	1de0      	adds	r0, r4, #7
   285b4:	4950      	ldr	r1, [pc, #320]	@ (286f8 <_start+0xaf8>)
   285b6:	4469      	add	r1, sp
   285b8:	2241      	movs	r2, #65	@ 0x41
   285ba:	f003 f846 	bl	2b64a <__aeabi_memcpy>
   285be:	4d50      	ldr	r5, [pc, #320]	@ (28700 <_start+0xb00>)
   285c0:	446d      	add	r5, sp
   285c2:	4628      	mov	r0, r5
   285c4:	4621      	mov	r1, r4
   285c6:	f7fb fafd 	bl	23bc4 <_ZN20complex_dynamic_type3app17h81d79199fec79c3bE>
   285ca:	7829      	ldrb	r1, [r5, #0]
   285cc:	2901      	cmp	r1, #1
   285ce:	d119      	bne.n	28604 <_start+0xa04>
   285d0:	6e30      	ldr	r0, [r6, #96]	@ 0x60
   285d2:	900f      	str	r0, [sp, #60]	@ 0x3c
   285d4:	e025      	b.n	28622 <_start+0xa22>
   285d6:	484a      	ldr	r0, [pc, #296]	@ (28700 <_start+0xb00>)
   285d8:	4468      	add	r0, sp
   285da:	7802      	ldrb	r2, [r0, #0]
   285dc:	2a02      	cmp	r2, #2
   285de:	d003      	beq.n	285e8 <_start+0x9e8>
   285e0:	2102      	movs	r1, #2
   285e2:	4848      	ldr	r0, [pc, #288]	@ (28704 <_start+0xb04>)
   285e4:	f002 fe4c 	bl	2b280 <_ZN9allow_pin12dynamic_type7unshare17hefa7cd45f9379b26E>
   285e8:	4845      	ldr	r0, [pc, #276]	@ (28700 <_start+0xb00>)
   285ea:	4468      	add	r0, sp
   285ec:	7004      	strb	r4, [r0, #0]
   285ee:	a810      	add	r0, sp, #64	@ 0x40
   285f0:	7802      	ldrb	r2, [r0, #0]
   285f2:	2a02      	cmp	r2, #2
   285f4:	d003      	beq.n	285fe <_start+0x9fe>
   285f6:	2108      	movs	r1, #8
   285f8:	4842      	ldr	r0, [pc, #264]	@ (28704 <_start+0xb04>)
   285fa:	f002 fe41 	bl	2b280 <_ZN9allow_pin12dynamic_type7unshare17hefa7cd45f9379b26E>
   285fe:	a810      	add	r0, sp, #64	@ 0x40
   28600:	7004      	strb	r4, [r0, #0]
   28602:	e73f      	b.n	28484 <_start+0x884>
   28604:	483e      	ldr	r0, [pc, #248]	@ (28700 <_start+0xb00>)
   28606:	4468      	add	r0, sp
   28608:	78c2      	ldrb	r2, [r0, #3]
   2860a:	4b3b      	ldr	r3, [pc, #236]	@ (286f8 <_start+0xaf8>)
   2860c:	446b      	add	r3, sp
   2860e:	709a      	strb	r2, [r3, #2]
   28610:	7842      	ldrb	r2, [r0, #1]
   28612:	7880      	ldrb	r0, [r0, #2]
   28614:	0200      	lsls	r0, r0, #8
   28616:	1880      	adds	r0, r0, r2
   28618:	8018      	strh	r0, [r3, #0]
   2861a:	6e30      	ldr	r0, [r6, #96]	@ 0x60
   2861c:	900f      	str	r0, [sp, #60]	@ 0x3c
   2861e:	6e72      	ldr	r2, [r6, #100]	@ 0x64
   28620:	6eb0      	ldr	r0, [r6, #104]	@ 0x68
   28622:	2900      	cmp	r1, #0
   28624:	d001      	beq.n	2862a <_start+0xa2a>
   28626:	f002 fdec 	bl	2b202 <_start+0x3602>
   2862a:	9908      	ldr	r1, [sp, #32]
   2862c:	1ccb      	adds	r3, r1, #3
   2862e:	711a      	strb	r2, [r3, #4]
   28630:	9d0f      	ldr	r5, [sp, #60]	@ 0x3c
   28632:	701d      	strb	r5, [r3, #0]
   28634:	a94f      	add	r1, sp, #316	@ 0x13c
   28636:	6834      	ldr	r4, [r6, #0]
   28638:	800c      	strh	r4, [r1, #0]
   2863a:	7218      	strb	r0, [r3, #8]
   2863c:	0e14      	lsrs	r4, r2, #24
   2863e:	71dc      	strb	r4, [r3, #7]
   28640:	0c14      	lsrs	r4, r2, #16
   28642:	719c      	strb	r4, [r3, #6]
   28644:	0a12      	lsrs	r2, r2, #8
   28646:	715a      	strb	r2, [r3, #5]
   28648:	0e2a      	lsrs	r2, r5, #24
   2864a:	70da      	strb	r2, [r3, #3]
   2864c:	0c2a      	lsrs	r2, r5, #16
   2864e:	709a      	strb	r2, [r3, #2]
   28650:	0a2a      	lsrs	r2, r5, #8
   28652:	705a      	strb	r2, [r3, #1]
   28654:	4a28      	ldr	r2, [pc, #160]	@ (286f8 <_start+0xaf8>)
   28656:	446a      	add	r2, sp
   28658:	7892      	ldrb	r2, [r2, #2]
   2865a:	708a      	strb	r2, [r1, #2]
   2865c:	0e02      	lsrs	r2, r0, #24
   2865e:	72da      	strb	r2, [r3, #11]
   28660:	0c02      	lsrs	r2, r0, #16
   28662:	729a      	strb	r2, [r3, #10]
   28664:	0a00      	lsrs	r0, r0, #8
   28666:	7258      	strb	r0, [r3, #9]
   28668:	4c25      	ldr	r4, [pc, #148]	@ (28700 <_start+0xb00>)
   2866a:	446c      	add	r4, sp
   2866c:	4620      	mov	r0, r4
   2866e:	f7fc fc33 	bl	24ed8 <_ZN20complex_dynamic_type3app17ha87ac2ea9b88629aE>
   28672:	7820      	ldrb	r0, [r4, #0]
   28674:	2801      	cmp	r0, #1
   28676:	d102      	bne.n	2867e <_start+0xa7e>
   28678:	6e31      	ldr	r1, [r6, #96]	@ 0x60
   2867a:	910f      	str	r1, [sp, #60]	@ 0x3c
   2867c:	e015      	b.n	286aa <_start+0xaaa>
   2867e:	4920      	ldr	r1, [pc, #128]	@ (28700 <_start+0xb00>)
   28680:	4469      	add	r1, sp
   28682:	78ca      	ldrb	r2, [r1, #3]
   28684:	ab10      	add	r3, sp, #64	@ 0x40
   28686:	709a      	strb	r2, [r3, #2]
   28688:	784a      	ldrb	r2, [r1, #1]
   2868a:	788c      	ldrb	r4, [r1, #2]
   2868c:	0224      	lsls	r4, r4, #8
   2868e:	18a2      	adds	r2, r4, r2
   28690:	801a      	strh	r2, [r3, #0]
   28692:	3108      	adds	r1, #8
   28694:	6e32      	ldr	r2, [r6, #96]	@ 0x60
   28696:	920f      	str	r2, [sp, #60]	@ 0x3c
   28698:	4a17      	ldr	r2, [pc, #92]	@ (286f8 <_start+0xaf8>)
   2869a:	446a      	add	r2, sp
   2869c:	c938      	ldmia	r1!, {r3, r4, r5}
   2869e:	c238      	stmia	r2!, {r3, r4, r5}
   286a0:	c978      	ldmia	r1!, {r3, r4, r5, r6}
   286a2:	c278      	stmia	r2!, {r3, r4, r5, r6}
   286a4:	9e0d      	ldr	r6, [sp, #52]	@ 0x34
   286a6:	8809      	ldrh	r1, [r1, #0]
   286a8:	8011      	strh	r1, [r2, #0]
   286aa:	2800      	cmp	r0, #0
   286ac:	d001      	beq.n	286b2 <_start+0xab2>
   286ae:	f002 fda8 	bl	2b202 <_start+0x3602>
   286b2:	ac53      	add	r4, sp, #332	@ 0x14c
   286b4:	990f      	ldr	r1, [sp, #60]	@ 0x3c
   286b6:	70e1      	strb	r1, [r4, #3]
   286b8:	9810      	ldr	r0, [sp, #64]	@ 0x40
   286ba:	8020      	strh	r0, [r4, #0]
   286bc:	0e08      	lsrs	r0, r1, #24
   286be:	71a0      	strb	r0, [r4, #6]
   286c0:	0c08      	lsrs	r0, r1, #16
   286c2:	7160      	strb	r0, [r4, #5]
   286c4:	0a08      	lsrs	r0, r1, #8
   286c6:	7120      	strb	r0, [r4, #4]
   286c8:	a810      	add	r0, sp, #64	@ 0x40
   286ca:	7880      	ldrb	r0, [r0, #2]
   286cc:	70a0      	strb	r0, [r4, #2]
   286ce:	1de0      	adds	r0, r4, #7
   286d0:	4909      	ldr	r1, [pc, #36]	@ (286f8 <_start+0xaf8>)
   286d2:	4469      	add	r1, sp
   286d4:	221e      	movs	r2, #30
   286d6:	f002 ffb8 	bl	2b64a <__aeabi_memcpy>
   286da:	4d09      	ldr	r5, [pc, #36]	@ (28700 <_start+0xb00>)
   286dc:	446d      	add	r5, sp
   286de:	4628      	mov	r0, r5
   286e0:	4621      	mov	r1, r4
   286e2:	f7f9 fa5d 	bl	21ba0 <_ZN20complex_dynamic_type3app17h321db58372f4d021E>
   286e6:	7828      	ldrb	r0, [r5, #0]
   286e8:	2801      	cmp	r0, #1
   286ea:	d10f      	bne.n	2870c <_start+0xb0c>
   286ec:	6e31      	ldr	r1, [r6, #96]	@ 0x60
   286ee:	910f      	str	r1, [sp, #60]	@ 0x3c
   286f0:	e024      	b.n	2873c <_start+0xb3c>
   286f2:	46c0      	nop			@ (mov r8, r8)
   286f4:	00010615 	.word	0x00010615
   286f8:	000013b8 	.word	0x000013b8
   286fc:	00001597 	.word	0x00001597
   28700:	00001414 	.word	0x00001414
   28704:	00000667 	.word	0x00000667
   28708:	00010bc1 	.word	0x00010bc1
   2870c:	49e8      	ldr	r1, [pc, #928]	@ (28ab0 <_start+0xeb0>)
   2870e:	4469      	add	r1, sp
   28710:	78ca      	ldrb	r2, [r1, #3]
   28712:	ab10      	add	r3, sp, #64	@ 0x40
   28714:	709a      	strb	r2, [r3, #2]
   28716:	784a      	ldrb	r2, [r1, #1]
   28718:	788c      	ldrb	r4, [r1, #2]
   2871a:	0224      	lsls	r4, r4, #8
   2871c:	18a2      	adds	r2, r4, r2
   2871e:	801a      	strh	r2, [r3, #0]
   28720:	3108      	adds	r1, #8
   28722:	6e32      	ldr	r2, [r6, #96]	@ 0x60
   28724:	920f      	str	r2, [sp, #60]	@ 0x3c
   28726:	4ae3      	ldr	r2, [pc, #908]	@ (28ab4 <_start+0xeb4>)
   28728:	446a      	add	r2, sp
   2872a:	c978      	ldmia	r1!, {r3, r4, r5, r6}
   2872c:	c278      	stmia	r2!, {r3, r4, r5, r6}
   2872e:	c978      	ldmia	r1!, {r3, r4, r5, r6}
   28730:	c278      	stmia	r2!, {r3, r4, r5, r6}
   28732:	9e0d      	ldr	r6, [sp, #52]	@ 0x34
   28734:	880b      	ldrh	r3, [r1, #0]
   28736:	8013      	strh	r3, [r2, #0]
   28738:	7889      	ldrb	r1, [r1, #2]
   2873a:	7091      	strb	r1, [r2, #2]
   2873c:	2800      	cmp	r0, #0
   2873e:	d001      	beq.n	28744 <_start+0xb44>
   28740:	f002 fd5f 	bl	2b202 <_start+0x3602>
   28744:	ac5d      	add	r4, sp, #372	@ 0x174
   28746:	990f      	ldr	r1, [sp, #60]	@ 0x3c
   28748:	70e1      	strb	r1, [r4, #3]
   2874a:	9810      	ldr	r0, [sp, #64]	@ 0x40
   2874c:	8020      	strh	r0, [r4, #0]
   2874e:	0e08      	lsrs	r0, r1, #24
   28750:	71a0      	strb	r0, [r4, #6]
   28752:	0c08      	lsrs	r0, r1, #16
   28754:	7160      	strb	r0, [r4, #5]
   28756:	0a08      	lsrs	r0, r1, #8
   28758:	7120      	strb	r0, [r4, #4]
   2875a:	a810      	add	r0, sp, #64	@ 0x40
   2875c:	7880      	ldrb	r0, [r0, #2]
   2875e:	70a0      	strb	r0, [r4, #2]
   28760:	1de0      	adds	r0, r4, #7
   28762:	49f5      	ldr	r1, [pc, #980]	@ (28b38 <_start+0xf38>)
   28764:	4469      	add	r1, sp
   28766:	2223      	movs	r2, #35	@ 0x23
   28768:	f002 ff6f 	bl	2b64a <__aeabi_memcpy>
   2876c:	4df1      	ldr	r5, [pc, #964]	@ (28b34 <_start+0xf34>)
   2876e:	446d      	add	r5, sp
   28770:	4628      	mov	r0, r5
   28772:	4621      	mov	r1, r4
   28774:	f7fc fa7c 	bl	24c70 <_ZN20complex_dynamic_type3app17ha5efb78051657f41E>
   28778:	782c      	ldrb	r4, [r5, #0]
   2877a:	2c01      	cmp	r4, #1
   2877c:	d102      	bne.n	28784 <_start+0xb84>
   2877e:	6e30      	ldr	r0, [r6, #96]	@ 0x60
   28780:	900f      	str	r0, [sp, #60]	@ 0x3c
   28782:	e011      	b.n	287a8 <_start+0xba8>
   28784:	49eb      	ldr	r1, [pc, #940]	@ (28b34 <_start+0xf34>)
   28786:	4469      	add	r1, sp
   28788:	78c8      	ldrb	r0, [r1, #3]
   2878a:	aa10      	add	r2, sp, #64	@ 0x40
   2878c:	7090      	strb	r0, [r2, #2]
   2878e:	7848      	ldrb	r0, [r1, #1]
   28790:	788b      	ldrb	r3, [r1, #2]
   28792:	021b      	lsls	r3, r3, #8
   28794:	1818      	adds	r0, r3, r0
   28796:	8010      	strh	r0, [r2, #0]
   28798:	6e30      	ldr	r0, [r6, #96]	@ 0x60
   2879a:	900f      	str	r0, [sp, #60]	@ 0x3c
   2879c:	3108      	adds	r1, #8
   2879e:	48e6      	ldr	r0, [pc, #920]	@ (28b38 <_start+0xf38>)
   287a0:	4468      	add	r0, sp
   287a2:	225c      	movs	r2, #92	@ 0x5c
   287a4:	f002 fdf1 	bl	2b38a <__aeabi_memcpy4>
   287a8:	2c00      	cmp	r4, #0
   287aa:	d001      	beq.n	287b0 <_start+0xbb0>
   287ac:	f002 fd29 	bl	2b202 <_start+0x3602>
   287b0:	ac68      	add	r4, sp, #416	@ 0x1a0
   287b2:	990f      	ldr	r1, [sp, #60]	@ 0x3c
   287b4:	70e1      	strb	r1, [r4, #3]
   287b6:	9810      	ldr	r0, [sp, #64]	@ 0x40
   287b8:	8020      	strh	r0, [r4, #0]
   287ba:	0e08      	lsrs	r0, r1, #24
   287bc:	71a0      	strb	r0, [r4, #6]
   287be:	0c08      	lsrs	r0, r1, #16
   287c0:	7160      	strb	r0, [r4, #5]
   287c2:	0a08      	lsrs	r0, r1, #8
   287c4:	7120      	strb	r0, [r4, #4]
   287c6:	a810      	add	r0, sp, #64	@ 0x40
   287c8:	7880      	ldrb	r0, [r0, #2]
   287ca:	70a0      	strb	r0, [r4, #2]
   287cc:	1de0      	adds	r0, r4, #7
   287ce:	49da      	ldr	r1, [pc, #872]	@ (28b38 <_start+0xf38>)
   287d0:	4469      	add	r1, sp
   287d2:	225c      	movs	r2, #92	@ 0x5c
   287d4:	f002 ff39 	bl	2b64a <__aeabi_memcpy>
   287d8:	4dd6      	ldr	r5, [pc, #856]	@ (28b34 <_start+0xf34>)
   287da:	446d      	add	r5, sp
   287dc:	4628      	mov	r0, r5
   287de:	4621      	mov	r1, r4
   287e0:	f7fc fca6 	bl	25130 <_ZN20complex_dynamic_type3app17hab178545bdfede9fE>
   287e4:	7828      	ldrb	r0, [r5, #0]
   287e6:	2801      	cmp	r0, #1
   287e8:	d102      	bne.n	287f0 <_start+0xbf0>
   287ea:	6e31      	ldr	r1, [r6, #96]	@ 0x60
   287ec:	910f      	str	r1, [sp, #60]	@ 0x3c
   287ee:	e013      	b.n	28818 <_start+0xc18>
   287f0:	49d0      	ldr	r1, [pc, #832]	@ (28b34 <_start+0xf34>)
   287f2:	4469      	add	r1, sp
   287f4:	78ca      	ldrb	r2, [r1, #3]
   287f6:	ab10      	add	r3, sp, #64	@ 0x40
   287f8:	709a      	strb	r2, [r3, #2]
   287fa:	784a      	ldrb	r2, [r1, #1]
   287fc:	788c      	ldrb	r4, [r1, #2]
   287fe:	0224      	lsls	r4, r4, #8
   28800:	18a2      	adds	r2, r4, r2
   28802:	801a      	strh	r2, [r3, #0]
   28804:	3108      	adds	r1, #8
   28806:	6e32      	ldr	r2, [r6, #96]	@ 0x60
   28808:	920f      	str	r2, [sp, #60]	@ 0x3c
   2880a:	4acb      	ldr	r2, [pc, #812]	@ (28b38 <_start+0xf38>)
   2880c:	446a      	add	r2, sp
   2880e:	c978      	ldmia	r1!, {r3, r4, r5, r6}
   28810:	c278      	stmia	r2!, {r3, r4, r5, r6}
   28812:	c978      	ldmia	r1!, {r3, r4, r5, r6}
   28814:	c278      	stmia	r2!, {r3, r4, r5, r6}
   28816:	9e0d      	ldr	r6, [sp, #52]	@ 0x34
   28818:	2800      	cmp	r0, #0
   2881a:	d001      	beq.n	28820 <_start+0xc20>
   2881c:	f002 fcf1 	bl	2b202 <_start+0x3602>
   28820:	ac81      	add	r4, sp, #516	@ 0x204
   28822:	990f      	ldr	r1, [sp, #60]	@ 0x3c
   28824:	70e1      	strb	r1, [r4, #3]
   28826:	9810      	ldr	r0, [sp, #64]	@ 0x40
   28828:	8020      	strh	r0, [r4, #0]
   2882a:	0e08      	lsrs	r0, r1, #24
   2882c:	71a0      	strb	r0, [r4, #6]
   2882e:	0c08      	lsrs	r0, r1, #16
   28830:	7160      	strb	r0, [r4, #5]
   28832:	0a08      	lsrs	r0, r1, #8
   28834:	7120      	strb	r0, [r4, #4]
   28836:	a810      	add	r0, sp, #64	@ 0x40
   28838:	7880      	ldrb	r0, [r0, #2]
   2883a:	70a0      	strb	r0, [r4, #2]
   2883c:	1de0      	adds	r0, r4, #7
   2883e:	49be      	ldr	r1, [pc, #760]	@ (28b38 <_start+0xf38>)
   28840:	4469      	add	r1, sp
   28842:	2220      	movs	r2, #32
   28844:	f002 ff01 	bl	2b64a <__aeabi_memcpy>
   28848:	4dba      	ldr	r5, [pc, #744]	@ (28b34 <_start+0xf34>)
   2884a:	446d      	add	r5, sp
   2884c:	4628      	mov	r0, r5
   2884e:	4621      	mov	r1, r4
   28850:	f7fb f920 	bl	23a94 <_ZN20complex_dynamic_type3app17h8066b6782e17543cE>
   28854:	7828      	ldrb	r0, [r5, #0]
   28856:	2801      	cmp	r0, #1
   28858:	d102      	bne.n	28860 <_start+0xc60>
   2885a:	6e31      	ldr	r1, [r6, #96]	@ 0x60
   2885c:	910f      	str	r1, [sp, #60]	@ 0x3c
   2885e:	e016      	b.n	2888e <_start+0xc8e>
   28860:	49b4      	ldr	r1, [pc, #720]	@ (28b34 <_start+0xf34>)
   28862:	4469      	add	r1, sp
   28864:	78ca      	ldrb	r2, [r1, #3]
   28866:	ab10      	add	r3, sp, #64	@ 0x40
   28868:	709a      	strb	r2, [r3, #2]
   2886a:	784a      	ldrb	r2, [r1, #1]
   2886c:	788c      	ldrb	r4, [r1, #2]
   2886e:	0224      	lsls	r4, r4, #8
   28870:	18a2      	adds	r2, r4, r2
   28872:	801a      	strh	r2, [r3, #0]
   28874:	3108      	adds	r1, #8
   28876:	6e32      	ldr	r2, [r6, #96]	@ 0x60
   28878:	920f      	str	r2, [sp, #60]	@ 0x3c
   2887a:	4aaf      	ldr	r2, [pc, #700]	@ (28b38 <_start+0xf38>)
   2887c:	446a      	add	r2, sp
   2887e:	c918      	ldmia	r1!, {r3, r4}
   28880:	c218      	stmia	r2!, {r3, r4}
   28882:	c938      	ldmia	r1!, {r3, r4, r5}
   28884:	c238      	stmia	r2!, {r3, r4, r5}
   28886:	880b      	ldrh	r3, [r1, #0]
   28888:	8013      	strh	r3, [r2, #0]
   2888a:	7889      	ldrb	r1, [r1, #2]
   2888c:	7091      	strb	r1, [r2, #2]
   2888e:	2800      	cmp	r0, #0
   28890:	d001      	beq.n	28896 <_start+0xc96>
   28892:	f002 fcb6 	bl	2b202 <_start+0x3602>
   28896:	ac8b      	add	r4, sp, #556	@ 0x22c
   28898:	990f      	ldr	r1, [sp, #60]	@ 0x3c
   2889a:	70e1      	strb	r1, [r4, #3]
   2889c:	9810      	ldr	r0, [sp, #64]	@ 0x40
   2889e:	8020      	strh	r0, [r4, #0]
   288a0:	0e08      	lsrs	r0, r1, #24
   288a2:	71a0      	strb	r0, [r4, #6]
   288a4:	0c08      	lsrs	r0, r1, #16
   288a6:	7160      	strb	r0, [r4, #5]
   288a8:	0a08      	lsrs	r0, r1, #8
   288aa:	7120      	strb	r0, [r4, #4]
   288ac:	a810      	add	r0, sp, #64	@ 0x40
   288ae:	7880      	ldrb	r0, [r0, #2]
   288b0:	70a0      	strb	r0, [r4, #2]
   288b2:	1de0      	adds	r0, r4, #7
   288b4:	49a0      	ldr	r1, [pc, #640]	@ (28b38 <_start+0xf38>)
   288b6:	4469      	add	r1, sp
   288b8:	2217      	movs	r2, #23
   288ba:	f002 fec6 	bl	2b64a <__aeabi_memcpy>
   288be:	4d9d      	ldr	r5, [pc, #628]	@ (28b34 <_start+0xf34>)
   288c0:	446d      	add	r5, sp
   288c2:	4628      	mov	r0, r5
   288c4:	4621      	mov	r1, r4
   288c6:	f7fa fb85 	bl	22fd4 <_ZN20complex_dynamic_type3app17h5e9eef4e9789ca2dE>
   288ca:	7828      	ldrb	r0, [r5, #0]
   288cc:	2801      	cmp	r0, #1
   288ce:	d102      	bne.n	288d6 <_start+0xcd6>
   288d0:	6e31      	ldr	r1, [r6, #96]	@ 0x60
   288d2:	910f      	str	r1, [sp, #60]	@ 0x3c
   288d4:	e016      	b.n	28904 <_start+0xd04>
   288d6:	4997      	ldr	r1, [pc, #604]	@ (28b34 <_start+0xf34>)
   288d8:	4469      	add	r1, sp
   288da:	78ca      	ldrb	r2, [r1, #3]
   288dc:	ab10      	add	r3, sp, #64	@ 0x40
   288de:	709a      	strb	r2, [r3, #2]
   288e0:	784a      	ldrb	r2, [r1, #1]
   288e2:	788c      	ldrb	r4, [r1, #2]
   288e4:	0224      	lsls	r4, r4, #8
   288e6:	18a2      	adds	r2, r4, r2
   288e8:	801a      	strh	r2, [r3, #0]
   288ea:	3108      	adds	r1, #8
   288ec:	6e32      	ldr	r2, [r6, #96]	@ 0x60
   288ee:	920f      	str	r2, [sp, #60]	@ 0x3c
   288f0:	4a91      	ldr	r2, [pc, #580]	@ (28b38 <_start+0xf38>)
   288f2:	446a      	add	r2, sp
   288f4:	c938      	ldmia	r1!, {r3, r4, r5}
   288f6:	c238      	stmia	r2!, {r3, r4, r5}
   288f8:	c938      	ldmia	r1!, {r3, r4, r5}
   288fa:	c238      	stmia	r2!, {r3, r4, r5}
   288fc:	c938      	ldmia	r1!, {r3, r4, r5}
   288fe:	c238      	stmia	r2!, {r3, r4, r5}
   28900:	7809      	ldrb	r1, [r1, #0]
   28902:	7011      	strb	r1, [r2, #0]
   28904:	2800      	cmp	r0, #0
   28906:	d001      	beq.n	2890c <_start+0xd0c>
   28908:	f002 fc7b 	bl	2b202 <_start+0x3602>
   2890c:	ac93      	add	r4, sp, #588	@ 0x24c
   2890e:	990f      	ldr	r1, [sp, #60]	@ 0x3c
   28910:	70e1      	strb	r1, [r4, #3]
   28912:	9810      	ldr	r0, [sp, #64]	@ 0x40
   28914:	8020      	strh	r0, [r4, #0]
   28916:	0e08      	lsrs	r0, r1, #24
   28918:	71a0      	strb	r0, [r4, #6]
   2891a:	0c08      	lsrs	r0, r1, #16
   2891c:	7160      	strb	r0, [r4, #5]
   2891e:	0a08      	lsrs	r0, r1, #8
   28920:	7120      	strb	r0, [r4, #4]
   28922:	a810      	add	r0, sp, #64	@ 0x40
   28924:	7880      	ldrb	r0, [r0, #2]
   28926:	70a0      	strb	r0, [r4, #2]
   28928:	1de0      	adds	r0, r4, #7
   2892a:	4983      	ldr	r1, [pc, #524]	@ (28b38 <_start+0xf38>)
   2892c:	4469      	add	r1, sp
   2892e:	2225      	movs	r2, #37	@ 0x25
   28930:	f002 fe8b 	bl	2b64a <__aeabi_memcpy>
   28934:	4d7f      	ldr	r5, [pc, #508]	@ (28b34 <_start+0xf34>)
   28936:	446d      	add	r5, sp
   28938:	4628      	mov	r0, r5
   2893a:	4621      	mov	r1, r4
   2893c:	f7fb f9da 	bl	23cf4 <_ZN20complex_dynamic_type3app17h86d9a88f5e1d8649E>
   28940:	7828      	ldrb	r0, [r5, #0]
   28942:	2801      	cmp	r0, #1
   28944:	d102      	bne.n	2894c <_start+0xd4c>
   28946:	6e31      	ldr	r1, [r6, #96]	@ 0x60
   28948:	910f      	str	r1, [sp, #60]	@ 0x3c
   2894a:	e014      	b.n	28976 <_start+0xd76>
   2894c:	4979      	ldr	r1, [pc, #484]	@ (28b34 <_start+0xf34>)
   2894e:	4469      	add	r1, sp
   28950:	78ca      	ldrb	r2, [r1, #3]
   28952:	ab10      	add	r3, sp, #64	@ 0x40
   28954:	709a      	strb	r2, [r3, #2]
   28956:	784a      	ldrb	r2, [r1, #1]
   28958:	788c      	ldrb	r4, [r1, #2]
   2895a:	0224      	lsls	r4, r4, #8
   2895c:	18a2      	adds	r2, r4, r2
   2895e:	801a      	strh	r2, [r3, #0]
   28960:	3108      	adds	r1, #8
   28962:	6e32      	ldr	r2, [r6, #96]	@ 0x60
   28964:	920f      	str	r2, [sp, #60]	@ 0x3c
   28966:	4a74      	ldr	r2, [pc, #464]	@ (28b38 <_start+0xf38>)
   28968:	446a      	add	r2, sp
   2896a:	c938      	ldmia	r1!, {r3, r4, r5}
   2896c:	c238      	stmia	r2!, {r3, r4, r5}
   2896e:	c978      	ldmia	r1!, {r3, r4, r5, r6}
   28970:	c278      	stmia	r2!, {r3, r4, r5, r6}
   28972:	8809      	ldrh	r1, [r1, #0]
   28974:	8011      	strh	r1, [r2, #0]
   28976:	2800      	cmp	r0, #0
   28978:	d001      	beq.n	2897e <_start+0xd7e>
   2897a:	f002 fc42 	bl	2b202 <_start+0x3602>
   2897e:	ac9e      	add	r4, sp, #632	@ 0x278
   28980:	990f      	ldr	r1, [sp, #60]	@ 0x3c
   28982:	70e1      	strb	r1, [r4, #3]
   28984:	9810      	ldr	r0, [sp, #64]	@ 0x40
   28986:	8020      	strh	r0, [r4, #0]
   28988:	0e08      	lsrs	r0, r1, #24
   2898a:	71a0      	strb	r0, [r4, #6]
   2898c:	0c08      	lsrs	r0, r1, #16
   2898e:	7160      	strb	r0, [r4, #5]
   28990:	0a08      	lsrs	r0, r1, #8
   28992:	7120      	strb	r0, [r4, #4]
   28994:	a810      	add	r0, sp, #64	@ 0x40
   28996:	7880      	ldrb	r0, [r0, #2]
   28998:	70a0      	strb	r0, [r4, #2]
   2899a:	1de0      	adds	r0, r4, #7
   2899c:	4966      	ldr	r1, [pc, #408]	@ (28b38 <_start+0xf38>)
   2899e:	4469      	add	r1, sp
   289a0:	221e      	movs	r2, #30
   289a2:	f002 fe52 	bl	2b64a <__aeabi_memcpy>
   289a6:	4d63      	ldr	r5, [pc, #396]	@ (28b34 <_start+0xf34>)
   289a8:	446d      	add	r5, sp
   289aa:	4628      	mov	r0, r5
   289ac:	4621      	mov	r1, r4
   289ae:	f7f8 fc3d 	bl	2122c <_ZN20complex_dynamic_type3app17h19801b49c67b5757E>
   289b2:	7828      	ldrb	r0, [r5, #0]
   289b4:	2801      	cmp	r0, #1
   289b6:	d103      	bne.n	289c0 <_start+0xdc0>
   289b8:	990d      	ldr	r1, [sp, #52]	@ 0x34
   289ba:	6e09      	ldr	r1, [r1, #96]	@ 0x60
   289bc:	910f      	str	r1, [sp, #60]	@ 0x3c
   289be:	e013      	b.n	289e8 <_start+0xde8>
   289c0:	495c      	ldr	r1, [pc, #368]	@ (28b34 <_start+0xf34>)
   289c2:	4469      	add	r1, sp
   289c4:	78ca      	ldrb	r2, [r1, #3]
   289c6:	ab10      	add	r3, sp, #64	@ 0x40
   289c8:	709a      	strb	r2, [r3, #2]
   289ca:	784a      	ldrb	r2, [r1, #1]
   289cc:	788c      	ldrb	r4, [r1, #2]
   289ce:	0224      	lsls	r4, r4, #8
   289d0:	18a2      	adds	r2, r4, r2
   289d2:	801a      	strh	r2, [r3, #0]
   289d4:	3108      	adds	r1, #8
   289d6:	9a0d      	ldr	r2, [sp, #52]	@ 0x34
   289d8:	6e12      	ldr	r2, [r2, #96]	@ 0x60
   289da:	920f      	str	r2, [sp, #60]	@ 0x3c
   289dc:	4a56      	ldr	r2, [pc, #344]	@ (28b38 <_start+0xf38>)
   289de:	446a      	add	r2, sp
   289e0:	c978      	ldmia	r1!, {r3, r4, r5, r6}
   289e2:	c278      	stmia	r2!, {r3, r4, r5, r6}
   289e4:	7809      	ldrb	r1, [r1, #0]
   289e6:	7011      	strb	r1, [r2, #0]
   289e8:	2800      	cmp	r0, #0
   289ea:	d001      	beq.n	289f0 <_start+0xdf0>
   289ec:	f002 fc09 	bl	2b202 <_start+0x3602>
   289f0:	aca8      	add	r4, sp, #672	@ 0x2a0
   289f2:	990f      	ldr	r1, [sp, #60]	@ 0x3c
   289f4:	70e1      	strb	r1, [r4, #3]
   289f6:	9810      	ldr	r0, [sp, #64]	@ 0x40
   289f8:	8020      	strh	r0, [r4, #0]
   289fa:	0e08      	lsrs	r0, r1, #24
   289fc:	71a0      	strb	r0, [r4, #6]
   289fe:	0c08      	lsrs	r0, r1, #16
   28a00:	7160      	strb	r0, [r4, #5]
   28a02:	0a08      	lsrs	r0, r1, #8
   28a04:	7120      	strb	r0, [r4, #4]
   28a06:	a810      	add	r0, sp, #64	@ 0x40
   28a08:	7880      	ldrb	r0, [r0, #2]
   28a0a:	70a0      	strb	r0, [r4, #2]
   28a0c:	1de0      	adds	r0, r4, #7
   28a0e:	494a      	ldr	r1, [pc, #296]	@ (28b38 <_start+0xf38>)
   28a10:	4469      	add	r1, sp
   28a12:	2211      	movs	r2, #17
   28a14:	f002 fe19 	bl	2b64a <__aeabi_memcpy>
   28a18:	4d46      	ldr	r5, [pc, #280]	@ (28b34 <_start+0xf34>)
   28a1a:	446d      	add	r5, sp
   28a1c:	4628      	mov	r0, r5
   28a1e:	4621      	mov	r1, r4
   28a20:	f7fb fbcc 	bl	241bc <_ZN20complex_dynamic_type3app17h927c688a439ab16cE>
   28a24:	7828      	ldrb	r0, [r5, #0]
   28a26:	2801      	cmp	r0, #1
   28a28:	d103      	bne.n	28a32 <_start+0xe32>
   28a2a:	990d      	ldr	r1, [sp, #52]	@ 0x34
   28a2c:	6e09      	ldr	r1, [r1, #96]	@ 0x60
   28a2e:	910f      	str	r1, [sp, #60]	@ 0x3c
   28a30:	e019      	b.n	28a66 <_start+0xe66>
   28a32:	4940      	ldr	r1, [pc, #256]	@ (28b34 <_start+0xf34>)
   28a34:	4469      	add	r1, sp
   28a36:	78ca      	ldrb	r2, [r1, #3]
   28a38:	ab10      	add	r3, sp, #64	@ 0x40
   28a3a:	709a      	strb	r2, [r3, #2]
   28a3c:	784a      	ldrb	r2, [r1, #1]
   28a3e:	788c      	ldrb	r4, [r1, #2]
   28a40:	0224      	lsls	r4, r4, #8
   28a42:	18a2      	adds	r2, r4, r2
   28a44:	801a      	strh	r2, [r3, #0]
   28a46:	3108      	adds	r1, #8
   28a48:	9a0d      	ldr	r2, [sp, #52]	@ 0x34
   28a4a:	6e12      	ldr	r2, [r2, #96]	@ 0x60
   28a4c:	920f      	str	r2, [sp, #60]	@ 0x3c
   28a4e:	4a3a      	ldr	r2, [pc, #232]	@ (28b38 <_start+0xf38>)
   28a50:	446a      	add	r2, sp
   28a52:	c938      	ldmia	r1!, {r3, r4, r5}
   28a54:	c238      	stmia	r2!, {r3, r4, r5}
   28a56:	c978      	ldmia	r1!, {r3, r4, r5, r6}
   28a58:	c278      	stmia	r2!, {r3, r4, r5, r6}
   28a5a:	c978      	ldmia	r1!, {r3, r4, r5, r6}
   28a5c:	c278      	stmia	r2!, {r3, r4, r5, r6}
   28a5e:	880b      	ldrh	r3, [r1, #0]
   28a60:	8013      	strh	r3, [r2, #0]
   28a62:	7889      	ldrb	r1, [r1, #2]
   28a64:	7091      	strb	r1, [r2, #2]
   28a66:	2800      	cmp	r0, #0
   28a68:	d001      	beq.n	28a6e <_start+0xe6e>
   28a6a:	f002 fbca 	bl	2b202 <_start+0x3602>
   28a6e:	acae      	add	r4, sp, #696	@ 0x2b8
   28a70:	990f      	ldr	r1, [sp, #60]	@ 0x3c
   28a72:	70e1      	strb	r1, [r4, #3]
   28a74:	9810      	ldr	r0, [sp, #64]	@ 0x40
   28a76:	8020      	strh	r0, [r4, #0]
   28a78:	0e08      	lsrs	r0, r1, #24
   28a7a:	71a0      	strb	r0, [r4, #6]
   28a7c:	0c08      	lsrs	r0, r1, #16
   28a7e:	7160      	strb	r0, [r4, #5]
   28a80:	0a08      	lsrs	r0, r1, #8
   28a82:	7120      	strb	r0, [r4, #4]
   28a84:	a810      	add	r0, sp, #64	@ 0x40
   28a86:	7880      	ldrb	r0, [r0, #2]
   28a88:	70a0      	strb	r0, [r4, #2]
   28a8a:	1de0      	adds	r0, r4, #7
   28a8c:	492a      	ldr	r1, [pc, #168]	@ (28b38 <_start+0xf38>)
   28a8e:	4469      	add	r1, sp
   28a90:	222f      	movs	r2, #47	@ 0x2f
   28a92:	f002 fdda 	bl	2b64a <__aeabi_memcpy>
   28a96:	4d27      	ldr	r5, [pc, #156]	@ (28b34 <_start+0xf34>)
   28a98:	446d      	add	r5, sp
   28a9a:	4628      	mov	r0, r5
   28a9c:	4621      	mov	r1, r4
   28a9e:	f7fb fdeb 	bl	24678 <_ZN20complex_dynamic_type3app17h9a56bce338077389E>
   28aa2:	7828      	ldrb	r0, [r5, #0]
   28aa4:	2801      	cmp	r0, #1
   28aa6:	d107      	bne.n	28ab8 <_start+0xeb8>
   28aa8:	990d      	ldr	r1, [sp, #52]	@ 0x34
   28aaa:	6e09      	ldr	r1, [r1, #96]	@ 0x60
   28aac:	910f      	str	r1, [sp, #60]	@ 0x3c
   28aae:	e01b      	b.n	28ae8 <_start+0xee8>
   28ab0:	00001414 	.word	0x00001414
   28ab4:	000013b8 	.word	0x000013b8
   28ab8:	491e      	ldr	r1, [pc, #120]	@ (28b34 <_start+0xf34>)
   28aba:	4469      	add	r1, sp
   28abc:	78ca      	ldrb	r2, [r1, #3]
   28abe:	ab10      	add	r3, sp, #64	@ 0x40
   28ac0:	709a      	strb	r2, [r3, #2]
   28ac2:	784a      	ldrb	r2, [r1, #1]
   28ac4:	788c      	ldrb	r4, [r1, #2]
   28ac6:	0224      	lsls	r4, r4, #8
   28ac8:	18a2      	adds	r2, r4, r2
   28aca:	801a      	strh	r2, [r3, #0]
   28acc:	3108      	adds	r1, #8
   28ace:	9a0d      	ldr	r2, [sp, #52]	@ 0x34
   28ad0:	6e12      	ldr	r2, [r2, #96]	@ 0x60
   28ad2:	920f      	str	r2, [sp, #60]	@ 0x3c
   28ad4:	4a18      	ldr	r2, [pc, #96]	@ (28b38 <_start+0xf38>)
   28ad6:	446a      	add	r2, sp
   28ad8:	c938      	ldmia	r1!, {r3, r4, r5}
   28ada:	c238      	stmia	r2!, {r3, r4, r5}
   28adc:	c978      	ldmia	r1!, {r3, r4, r5, r6}
   28ade:	c278      	stmia	r2!, {r3, r4, r5, r6}
   28ae0:	c978      	ldmia	r1!, {r3, r4, r5, r6}
   28ae2:	c278      	stmia	r2!, {r3, r4, r5, r6}
   28ae4:	7809      	ldrb	r1, [r1, #0]
   28ae6:	7011      	strb	r1, [r2, #0]
   28ae8:	2800      	cmp	r0, #0
   28aea:	d001      	beq.n	28af0 <_start+0xef0>
   28aec:	f002 fb89 	bl	2b202 <_start+0x3602>
   28af0:	acbc      	add	r4, sp, #752	@ 0x2f0
   28af2:	990f      	ldr	r1, [sp, #60]	@ 0x3c
   28af4:	70e1      	strb	r1, [r4, #3]
   28af6:	9810      	ldr	r0, [sp, #64]	@ 0x40
   28af8:	8020      	strh	r0, [r4, #0]
   28afa:	0e08      	lsrs	r0, r1, #24
   28afc:	71a0      	strb	r0, [r4, #6]
   28afe:	0c08      	lsrs	r0, r1, #16
   28b00:	7160      	strb	r0, [r4, #5]
   28b02:	0a08      	lsrs	r0, r1, #8
   28b04:	7120      	strb	r0, [r4, #4]
   28b06:	a810      	add	r0, sp, #64	@ 0x40
   28b08:	7880      	ldrb	r0, [r0, #2]
   28b0a:	70a0      	strb	r0, [r4, #2]
   28b0c:	1de0      	adds	r0, r4, #7
   28b0e:	490a      	ldr	r1, [pc, #40]	@ (28b38 <_start+0xf38>)
   28b10:	4469      	add	r1, sp
   28b12:	222d      	movs	r2, #45	@ 0x2d
   28b14:	f002 fd99 	bl	2b64a <__aeabi_memcpy>
   28b18:	4d06      	ldr	r5, [pc, #24]	@ (28b34 <_start+0xf34>)
   28b1a:	446d      	add	r5, sp
   28b1c:	4628      	mov	r0, r5
   28b1e:	4621      	mov	r1, r4
   28b20:	f7fe ff3c 	bl	2799c <_ZN20complex_dynamic_type3app17hf7b0039ed7a63740E>
   28b24:	7828      	ldrb	r0, [r5, #0]
   28b26:	2801      	cmp	r0, #1
   28b28:	d108      	bne.n	28b3c <_start+0xf3c>
   28b2a:	990d      	ldr	r1, [sp, #52]	@ 0x34
   28b2c:	6e09      	ldr	r1, [r1, #96]	@ 0x60
   28b2e:	910f      	str	r1, [sp, #60]	@ 0x3c
   28b30:	e01e      	b.n	28b70 <_start+0xf70>
   28b32:	46c0      	nop			@ (mov r8, r8)
   28b34:	00001414 	.word	0x00001414
   28b38:	000013b8 	.word	0x000013b8
   28b3c:	49f5      	ldr	r1, [pc, #980]	@ (28f14 <_start+0x1314>)
   28b3e:	4469      	add	r1, sp
   28b40:	78ca      	ldrb	r2, [r1, #3]
   28b42:	ab10      	add	r3, sp, #64	@ 0x40
   28b44:	709a      	strb	r2, [r3, #2]
   28b46:	784a      	ldrb	r2, [r1, #1]
   28b48:	788c      	ldrb	r4, [r1, #2]
   28b4a:	0224      	lsls	r4, r4, #8
   28b4c:	18a2      	adds	r2, r4, r2
   28b4e:	801a      	strh	r2, [r3, #0]
   28b50:	3108      	adds	r1, #8
   28b52:	9a0d      	ldr	r2, [sp, #52]	@ 0x34
   28b54:	6e12      	ldr	r2, [r2, #96]	@ 0x60
   28b56:	920f      	str	r2, [sp, #60]	@ 0x3c
   28b58:	4aef      	ldr	r2, [pc, #956]	@ (28f18 <_start+0x1318>)
   28b5a:	446a      	add	r2, sp
   28b5c:	c938      	ldmia	r1!, {r3, r4, r5}
   28b5e:	c238      	stmia	r2!, {r3, r4, r5}
   28b60:	c938      	ldmia	r1!, {r3, r4, r5}
   28b62:	c238      	stmia	r2!, {r3, r4, r5}
   28b64:	c938      	ldmia	r1!, {r3, r4, r5}
   28b66:	c238      	stmia	r2!, {r3, r4, r5}
   28b68:	880b      	ldrh	r3, [r1, #0]
   28b6a:	8013      	strh	r3, [r2, #0]
   28b6c:	7889      	ldrb	r1, [r1, #2]
   28b6e:	7091      	strb	r1, [r2, #2]
   28b70:	2800      	cmp	r0, #0
   28b72:	d001      	beq.n	28b78 <_start+0xf78>
   28b74:	f002 fb45 	bl	2b202 <_start+0x3602>
   28b78:	acc9      	add	r4, sp, #804	@ 0x324
   28b7a:	990f      	ldr	r1, [sp, #60]	@ 0x3c
   28b7c:	70e1      	strb	r1, [r4, #3]
   28b7e:	9810      	ldr	r0, [sp, #64]	@ 0x40
   28b80:	8020      	strh	r0, [r4, #0]
   28b82:	0e08      	lsrs	r0, r1, #24
   28b84:	71a0      	strb	r0, [r4, #6]
   28b86:	0c08      	lsrs	r0, r1, #16
   28b88:	7160      	strb	r0, [r4, #5]
   28b8a:	0a08      	lsrs	r0, r1, #8
   28b8c:	7120      	strb	r0, [r4, #4]
   28b8e:	a810      	add	r0, sp, #64	@ 0x40
   28b90:	7880      	ldrb	r0, [r0, #2]
   28b92:	70a0      	strb	r0, [r4, #2]
   28b94:	1de0      	adds	r0, r4, #7
   28b96:	49e0      	ldr	r1, [pc, #896]	@ (28f18 <_start+0x1318>)
   28b98:	4469      	add	r1, sp
   28b9a:	2227      	movs	r2, #39	@ 0x27
   28b9c:	f002 fd55 	bl	2b64a <__aeabi_memcpy>
   28ba0:	4ddc      	ldr	r5, [pc, #880]	@ (28f14 <_start+0x1314>)
   28ba2:	446d      	add	r5, sp
   28ba4:	4628      	mov	r0, r5
   28ba6:	4621      	mov	r1, r4
   28ba8:	f7f8 f97a 	bl	20ea0 <_ZN20complex_dynamic_type3app17h129481258f2ec272E>
   28bac:	7828      	ldrb	r0, [r5, #0]
   28bae:	2801      	cmp	r0, #1
   28bb0:	d103      	bne.n	28bba <_start+0xfba>
   28bb2:	990d      	ldr	r1, [sp, #52]	@ 0x34
   28bb4:	6e09      	ldr	r1, [r1, #96]	@ 0x60
   28bb6:	910f      	str	r1, [sp, #60]	@ 0x3c
   28bb8:	e017      	b.n	28bea <_start+0xfea>
   28bba:	49d6      	ldr	r1, [pc, #856]	@ (28f14 <_start+0x1314>)
   28bbc:	4469      	add	r1, sp
   28bbe:	78ca      	ldrb	r2, [r1, #3]
   28bc0:	ab10      	add	r3, sp, #64	@ 0x40
   28bc2:	709a      	strb	r2, [r3, #2]
   28bc4:	784a      	ldrb	r2, [r1, #1]
   28bc6:	788c      	ldrb	r4, [r1, #2]
   28bc8:	0224      	lsls	r4, r4, #8
   28bca:	18a2      	adds	r2, r4, r2
   28bcc:	801a      	strh	r2, [r3, #0]
   28bce:	3108      	adds	r1, #8
   28bd0:	9a0d      	ldr	r2, [sp, #52]	@ 0x34
   28bd2:	6e12      	ldr	r2, [r2, #96]	@ 0x60
   28bd4:	920f      	str	r2, [sp, #60]	@ 0x3c
   28bd6:	4ad0      	ldr	r2, [pc, #832]	@ (28f18 <_start+0x1318>)
   28bd8:	446a      	add	r2, sp
   28bda:	c978      	ldmia	r1!, {r3, r4, r5, r6}
   28bdc:	c278      	stmia	r2!, {r3, r4, r5, r6}
   28bde:	c978      	ldmia	r1!, {r3, r4, r5, r6}
   28be0:	c278      	stmia	r2!, {r3, r4, r5, r6}
   28be2:	c978      	ldmia	r1!, {r3, r4, r5, r6}
   28be4:	c278      	stmia	r2!, {r3, r4, r5, r6}
   28be6:	7809      	ldrb	r1, [r1, #0]
   28be8:	7011      	strb	r1, [r2, #0]
   28bea:	2800      	cmp	r0, #0
   28bec:	d001      	beq.n	28bf2 <_start+0xff2>
   28bee:	f002 fb08 	bl	2b202 <_start+0x3602>
   28bf2:	acd5      	add	r4, sp, #852	@ 0x354
   28bf4:	990f      	ldr	r1, [sp, #60]	@ 0x3c
   28bf6:	70e1      	strb	r1, [r4, #3]
   28bf8:	9810      	ldr	r0, [sp, #64]	@ 0x40
   28bfa:	8020      	strh	r0, [r4, #0]
   28bfc:	0e08      	lsrs	r0, r1, #24
   28bfe:	71a0      	strb	r0, [r4, #6]
   28c00:	0c08      	lsrs	r0, r1, #16
   28c02:	7160      	strb	r0, [r4, #5]
   28c04:	0a08      	lsrs	r0, r1, #8
   28c06:	7120      	strb	r0, [r4, #4]
   28c08:	a810      	add	r0, sp, #64	@ 0x40
   28c0a:	7880      	ldrb	r0, [r0, #2]
   28c0c:	70a0      	strb	r0, [r4, #2]
   28c0e:	1de0      	adds	r0, r4, #7
   28c10:	49c1      	ldr	r1, [pc, #772]	@ (28f18 <_start+0x1318>)
   28c12:	4469      	add	r1, sp
   28c14:	2231      	movs	r2, #49	@ 0x31
   28c16:	f002 fd18 	bl	2b64a <__aeabi_memcpy>
   28c1a:	4dbe      	ldr	r5, [pc, #760]	@ (28f14 <_start+0x1314>)
   28c1c:	446d      	add	r5, sp
   28c1e:	4628      	mov	r0, r5
   28c20:	4621      	mov	r1, r4
   28c22:	f7f9 fb4f 	bl	222c4 <_ZN20complex_dynamic_type3app17h471953ab1a63afd8E>
   28c26:	7828      	ldrb	r0, [r5, #0]
   28c28:	2801      	cmp	r0, #1
   28c2a:	d103      	bne.n	28c34 <_start+0x1034>
   28c2c:	990d      	ldr	r1, [sp, #52]	@ 0x34
   28c2e:	6e09      	ldr	r1, [r1, #96]	@ 0x60
   28c30:	910f      	str	r1, [sp, #60]	@ 0x3c
   28c32:	e017      	b.n	28c64 <_start+0x1064>
   28c34:	49b7      	ldr	r1, [pc, #732]	@ (28f14 <_start+0x1314>)
   28c36:	4469      	add	r1, sp
   28c38:	78ca      	ldrb	r2, [r1, #3]
   28c3a:	ab10      	add	r3, sp, #64	@ 0x40
   28c3c:	709a      	strb	r2, [r3, #2]
   28c3e:	784a      	ldrb	r2, [r1, #1]
   28c40:	788c      	ldrb	r4, [r1, #2]
   28c42:	0224      	lsls	r4, r4, #8
   28c44:	18a2      	adds	r2, r4, r2
   28c46:	801a      	strh	r2, [r3, #0]
   28c48:	3108      	adds	r1, #8
   28c4a:	9a0d      	ldr	r2, [sp, #52]	@ 0x34
   28c4c:	6e12      	ldr	r2, [r2, #96]	@ 0x60
   28c4e:	920f      	str	r2, [sp, #60]	@ 0x3c
   28c50:	4ab1      	ldr	r2, [pc, #708]	@ (28f18 <_start+0x1318>)
   28c52:	446a      	add	r2, sp
   28c54:	c938      	ldmia	r1!, {r3, r4, r5}
   28c56:	c238      	stmia	r2!, {r3, r4, r5}
   28c58:	c978      	ldmia	r1!, {r3, r4, r5, r6}
   28c5a:	c278      	stmia	r2!, {r3, r4, r5, r6}
   28c5c:	c978      	ldmia	r1!, {r3, r4, r5, r6}
   28c5e:	c278      	stmia	r2!, {r3, r4, r5, r6}
   28c60:	7809      	ldrb	r1, [r1, #0]
   28c62:	7011      	strb	r1, [r2, #0]
   28c64:	2800      	cmp	r0, #0
   28c66:	d001      	beq.n	28c6c <_start+0x106c>
   28c68:	f002 facb 	bl	2b202 <_start+0x3602>
   28c6c:	ace3      	add	r4, sp, #908	@ 0x38c
   28c6e:	990f      	ldr	r1, [sp, #60]	@ 0x3c
   28c70:	70e1      	strb	r1, [r4, #3]
   28c72:	9810      	ldr	r0, [sp, #64]	@ 0x40
   28c74:	8020      	strh	r0, [r4, #0]
   28c76:	0e08      	lsrs	r0, r1, #24
   28c78:	71a0      	strb	r0, [r4, #6]
   28c7a:	0c08      	lsrs	r0, r1, #16
   28c7c:	7160      	strb	r0, [r4, #5]
   28c7e:	0a08      	lsrs	r0, r1, #8
   28c80:	7120      	strb	r0, [r4, #4]
   28c82:	a810      	add	r0, sp, #64	@ 0x40
   28c84:	7880      	ldrb	r0, [r0, #2]
   28c86:	70a0      	strb	r0, [r4, #2]
   28c88:	1de0      	adds	r0, r4, #7
   28c8a:	49a3      	ldr	r1, [pc, #652]	@ (28f18 <_start+0x1318>)
   28c8c:	4469      	add	r1, sp
   28c8e:	222d      	movs	r2, #45	@ 0x2d
   28c90:	f002 fcdb 	bl	2b64a <__aeabi_memcpy>
   28c94:	4d9f      	ldr	r5, [pc, #636]	@ (28f14 <_start+0x1314>)
   28c96:	446d      	add	r5, sp
   28c98:	4628      	mov	r0, r5
   28c9a:	4621      	mov	r1, r4
   28c9c:	f7fa facc 	bl	23238 <_ZN20complex_dynamic_type3app17h617571d6232c8fb6E>
   28ca0:	7828      	ldrb	r0, [r5, #0]
   28ca2:	2801      	cmp	r0, #1
   28ca4:	d103      	bne.n	28cae <_start+0x10ae>
   28ca6:	990d      	ldr	r1, [sp, #52]	@ 0x34
   28ca8:	6e09      	ldr	r1, [r1, #96]	@ 0x60
   28caa:	910f      	str	r1, [sp, #60]	@ 0x3c
   28cac:	e015      	b.n	28cda <_start+0x10da>
   28cae:	4999      	ldr	r1, [pc, #612]	@ (28f14 <_start+0x1314>)
   28cb0:	4469      	add	r1, sp
   28cb2:	78ca      	ldrb	r2, [r1, #3]
   28cb4:	ab10      	add	r3, sp, #64	@ 0x40
   28cb6:	709a      	strb	r2, [r3, #2]
   28cb8:	784a      	ldrb	r2, [r1, #1]
   28cba:	788c      	ldrb	r4, [r1, #2]
   28cbc:	0224      	lsls	r4, r4, #8
   28cbe:	18a2      	adds	r2, r4, r2
   28cc0:	801a      	strh	r2, [r3, #0]
   28cc2:	3108      	adds	r1, #8
   28cc4:	9a0d      	ldr	r2, [sp, #52]	@ 0x34
   28cc6:	6e12      	ldr	r2, [r2, #96]	@ 0x60
   28cc8:	920f      	str	r2, [sp, #60]	@ 0x3c
   28cca:	4a93      	ldr	r2, [pc, #588]	@ (28f18 <_start+0x1318>)
   28ccc:	446a      	add	r2, sp
   28cce:	c978      	ldmia	r1!, {r3, r4, r5, r6}
   28cd0:	c278      	stmia	r2!, {r3, r4, r5, r6}
   28cd2:	880b      	ldrh	r3, [r1, #0]
   28cd4:	8013      	strh	r3, [r2, #0]
   28cd6:	7889      	ldrb	r1, [r1, #2]
   28cd8:	7091      	strb	r1, [r2, #2]
   28cda:	2800      	cmp	r0, #0
   28cdc:	d001      	beq.n	28ce2 <_start+0x10e2>
   28cde:	f002 fa90 	bl	2b202 <_start+0x3602>
   28ce2:	acf0      	add	r4, sp, #960	@ 0x3c0
   28ce4:	990f      	ldr	r1, [sp, #60]	@ 0x3c
   28ce6:	70e1      	strb	r1, [r4, #3]
   28ce8:	9810      	ldr	r0, [sp, #64]	@ 0x40
   28cea:	8020      	strh	r0, [r4, #0]
   28cec:	0e08      	lsrs	r0, r1, #24
   28cee:	71a0      	strb	r0, [r4, #6]
   28cf0:	0c08      	lsrs	r0, r1, #16
   28cf2:	7160      	strb	r0, [r4, #5]
   28cf4:	0a08      	lsrs	r0, r1, #8
   28cf6:	7120      	strb	r0, [r4, #4]
   28cf8:	a810      	add	r0, sp, #64	@ 0x40
   28cfa:	7880      	ldrb	r0, [r0, #2]
   28cfc:	70a0      	strb	r0, [r4, #2]
   28cfe:	1de0      	adds	r0, r4, #7
   28d00:	4985      	ldr	r1, [pc, #532]	@ (28f18 <_start+0x1318>)
   28d02:	4469      	add	r1, sp
   28d04:	2213      	movs	r2, #19
   28d06:	f002 fca0 	bl	2b64a <__aeabi_memcpy>
   28d0a:	4d82      	ldr	r5, [pc, #520]	@ (28f14 <_start+0x1314>)
   28d0c:	446d      	add	r5, sp
   28d0e:	4628      	mov	r0, r5
   28d10:	4621      	mov	r1, r4
   28d12:	f7fe fedd 	bl	27ad0 <_ZN20complex_dynamic_type3app17hfb6378938b5d8597E>
   28d16:	782c      	ldrb	r4, [r5, #0]
   28d18:	2c01      	cmp	r4, #1
   28d1a:	d103      	bne.n	28d24 <_start+0x1124>
   28d1c:	980d      	ldr	r0, [sp, #52]	@ 0x34
   28d1e:	6e00      	ldr	r0, [r0, #96]	@ 0x60
   28d20:	900f      	str	r0, [sp, #60]	@ 0x3c
   28d22:	e012      	b.n	28d4a <_start+0x114a>
   28d24:	497b      	ldr	r1, [pc, #492]	@ (28f14 <_start+0x1314>)
   28d26:	4469      	add	r1, sp
   28d28:	78c8      	ldrb	r0, [r1, #3]
   28d2a:	aa10      	add	r2, sp, #64	@ 0x40
   28d2c:	7090      	strb	r0, [r2, #2]
   28d2e:	7848      	ldrb	r0, [r1, #1]
   28d30:	788b      	ldrb	r3, [r1, #2]
   28d32:	021b      	lsls	r3, r3, #8
   28d34:	1818      	adds	r0, r3, r0
   28d36:	8010      	strh	r0, [r2, #0]
   28d38:	980d      	ldr	r0, [sp, #52]	@ 0x34
   28d3a:	6e00      	ldr	r0, [r0, #96]	@ 0x60
   28d3c:	900f      	str	r0, [sp, #60]	@ 0x3c
   28d3e:	3108      	adds	r1, #8
   28d40:	4875      	ldr	r0, [pc, #468]	@ (28f18 <_start+0x1318>)
   28d42:	4468      	add	r0, sp
   28d44:	2249      	movs	r2, #73	@ 0x49
   28d46:	f002 fb20 	bl	2b38a <__aeabi_memcpy4>
   28d4a:	2c00      	cmp	r4, #0
   28d4c:	d001      	beq.n	28d52 <_start+0x1152>
   28d4e:	f002 fa58 	bl	2b202 <_start+0x3602>
   28d52:	acf7      	add	r4, sp, #988	@ 0x3dc
   28d54:	990f      	ldr	r1, [sp, #60]	@ 0x3c
   28d56:	70e1      	strb	r1, [r4, #3]
   28d58:	9810      	ldr	r0, [sp, #64]	@ 0x40
   28d5a:	8020      	strh	r0, [r4, #0]
   28d5c:	0e08      	lsrs	r0, r1, #24
   28d5e:	71a0      	strb	r0, [r4, #6]
   28d60:	0c08      	lsrs	r0, r1, #16
   28d62:	7160      	strb	r0, [r4, #5]
   28d64:	0a08      	lsrs	r0, r1, #8
   28d66:	7120      	strb	r0, [r4, #4]
   28d68:	a810      	add	r0, sp, #64	@ 0x40
   28d6a:	7880      	ldrb	r0, [r0, #2]
   28d6c:	70a0      	strb	r0, [r4, #2]
   28d6e:	1de0      	adds	r0, r4, #7
   28d70:	4969      	ldr	r1, [pc, #420]	@ (28f18 <_start+0x1318>)
   28d72:	4469      	add	r1, sp
   28d74:	2249      	movs	r2, #73	@ 0x49
   28d76:	f002 fc68 	bl	2b64a <__aeabi_memcpy>
   28d7a:	4d66      	ldr	r5, [pc, #408]	@ (28f14 <_start+0x1314>)
   28d7c:	446d      	add	r5, sp
   28d7e:	4628      	mov	r0, r5
   28d80:	4621      	mov	r1, r4
   28d82:	f7fe fb15 	bl	273b0 <_ZN20complex_dynamic_type3app17heabc89f5c2dc88ffE>
   28d86:	7828      	ldrb	r0, [r5, #0]
   28d88:	2801      	cmp	r0, #1
   28d8a:	d103      	bne.n	28d94 <_start+0x1194>
   28d8c:	990d      	ldr	r1, [sp, #52]	@ 0x34
   28d8e:	6e09      	ldr	r1, [r1, #96]	@ 0x60
   28d90:	910f      	str	r1, [sp, #60]	@ 0x3c
   28d92:	e019      	b.n	28dc8 <_start+0x11c8>
   28d94:	495f      	ldr	r1, [pc, #380]	@ (28f14 <_start+0x1314>)
   28d96:	4469      	add	r1, sp
   28d98:	78ca      	ldrb	r2, [r1, #3]
   28d9a:	ab10      	add	r3, sp, #64	@ 0x40
   28d9c:	709a      	strb	r2, [r3, #2]
   28d9e:	784a      	ldrb	r2, [r1, #1]
   28da0:	788c      	ldrb	r4, [r1, #2]
   28da2:	0224      	lsls	r4, r4, #8
   28da4:	18a2      	adds	r2, r4, r2
   28da6:	801a      	strh	r2, [r3, #0]
   28da8:	3108      	adds	r1, #8
   28daa:	9a0d      	ldr	r2, [sp, #52]	@ 0x34
   28dac:	6e12      	ldr	r2, [r2, #96]	@ 0x60
   28dae:	920f      	str	r2, [sp, #60]	@ 0x3c
   28db0:	4a59      	ldr	r2, [pc, #356]	@ (28f18 <_start+0x1318>)
   28db2:	446a      	add	r2, sp
   28db4:	c938      	ldmia	r1!, {r3, r4, r5}
   28db6:	c238      	stmia	r2!, {r3, r4, r5}
   28db8:	c938      	ldmia	r1!, {r3, r4, r5}
   28dba:	c238      	stmia	r2!, {r3, r4, r5}
   28dbc:	c938      	ldmia	r1!, {r3, r4, r5}
   28dbe:	c238      	stmia	r2!, {r3, r4, r5}
   28dc0:	c978      	ldmia	r1!, {r3, r4, r5, r6}
   28dc2:	c278      	stmia	r2!, {r3, r4, r5, r6}
   28dc4:	7809      	ldrb	r1, [r1, #0]
   28dc6:	7011      	strb	r1, [r2, #0]
   28dc8:	2800      	cmp	r0, #0
   28dca:	d001      	beq.n	28dd0 <_start+0x11d0>
   28dcc:	f002 fa19 	bl	2b202 <_start+0x3602>
   28dd0:	acff      	add	r4, sp, #1020	@ 0x3fc
   28dd2:	3430      	adds	r4, #48	@ 0x30
   28dd4:	990f      	ldr	r1, [sp, #60]	@ 0x3c
   28dd6:	70e1      	strb	r1, [r4, #3]
   28dd8:	9810      	ldr	r0, [sp, #64]	@ 0x40
   28dda:	8020      	strh	r0, [r4, #0]
   28ddc:	0e08      	lsrs	r0, r1, #24
   28dde:	71a0      	strb	r0, [r4, #6]
   28de0:	0c08      	lsrs	r0, r1, #16
   28de2:	7160      	strb	r0, [r4, #5]
   28de4:	0a08      	lsrs	r0, r1, #8
   28de6:	7120      	strb	r0, [r4, #4]
   28de8:	a810      	add	r0, sp, #64	@ 0x40
   28dea:	7880      	ldrb	r0, [r0, #2]
   28dec:	70a0      	strb	r0, [r4, #2]
   28dee:	1de0      	adds	r0, r4, #7
   28df0:	4949      	ldr	r1, [pc, #292]	@ (28f18 <_start+0x1318>)
   28df2:	4469      	add	r1, sp
   28df4:	2235      	movs	r2, #53	@ 0x35
   28df6:	f002 fc28 	bl	2b64a <__aeabi_memcpy>
   28dfa:	4d46      	ldr	r5, [pc, #280]	@ (28f14 <_start+0x1314>)
   28dfc:	446d      	add	r5, sp
   28dfe:	4628      	mov	r0, r5
   28e00:	4621      	mov	r1, r4
   28e02:	f7fd fe0f 	bl	26a24 <_ZN20complex_dynamic_type3app17hd88392e2d34c96e5E>
   28e06:	7828      	ldrb	r0, [r5, #0]
   28e08:	2801      	cmp	r0, #1
   28e0a:	d103      	bne.n	28e14 <_start+0x1214>
   28e0c:	990d      	ldr	r1, [sp, #52]	@ 0x34
   28e0e:	6e09      	ldr	r1, [r1, #96]	@ 0x60
   28e10:	910f      	str	r1, [sp, #60]	@ 0x3c
   28e12:	e019      	b.n	28e48 <_start+0x1248>
   28e14:	493f      	ldr	r1, [pc, #252]	@ (28f14 <_start+0x1314>)
   28e16:	4469      	add	r1, sp
   28e18:	78ca      	ldrb	r2, [r1, #3]
   28e1a:	ab10      	add	r3, sp, #64	@ 0x40
   28e1c:	709a      	strb	r2, [r3, #2]
   28e1e:	784a      	ldrb	r2, [r1, #1]
   28e20:	788c      	ldrb	r4, [r1, #2]
   28e22:	0224      	lsls	r4, r4, #8
   28e24:	18a2      	adds	r2, r4, r2
   28e26:	801a      	strh	r2, [r3, #0]
   28e28:	3108      	adds	r1, #8
   28e2a:	9a0d      	ldr	r2, [sp, #52]	@ 0x34
   28e2c:	6e12      	ldr	r2, [r2, #96]	@ 0x60
   28e2e:	920f      	str	r2, [sp, #60]	@ 0x3c
   28e30:	4a39      	ldr	r2, [pc, #228]	@ (28f18 <_start+0x1318>)
   28e32:	446a      	add	r2, sp
   28e34:	c938      	ldmia	r1!, {r3, r4, r5}
   28e36:	c238      	stmia	r2!, {r3, r4, r5}
   28e38:	c938      	ldmia	r1!, {r3, r4, r5}
   28e3a:	c238      	stmia	r2!, {r3, r4, r5}
   28e3c:	c978      	ldmia	r1!, {r3, r4, r5, r6}
   28e3e:	c278      	stmia	r2!, {r3, r4, r5, r6}
   28e40:	880b      	ldrh	r3, [r1, #0]
   28e42:	8013      	strh	r3, [r2, #0]
   28e44:	7889      	ldrb	r1, [r1, #2]
   28e46:	7091      	strb	r1, [r2, #2]
   28e48:	2800      	cmp	r0, #0
   28e4a:	d001      	beq.n	28e50 <_start+0x1250>
   28e4c:	f002 f9d9 	bl	2b202 <_start+0x3602>
   28e50:	acff      	add	r4, sp, #1020	@ 0x3fc
   28e52:	346c      	adds	r4, #108	@ 0x6c
   28e54:	990f      	ldr	r1, [sp, #60]	@ 0x3c
   28e56:	70e1      	strb	r1, [r4, #3]
   28e58:	9810      	ldr	r0, [sp, #64]	@ 0x40
   28e5a:	8020      	strh	r0, [r4, #0]
   28e5c:	0e08      	lsrs	r0, r1, #24
   28e5e:	71a0      	strb	r0, [r4, #6]
   28e60:	0c08      	lsrs	r0, r1, #16
   28e62:	7160      	strb	r0, [r4, #5]
   28e64:	0a08      	lsrs	r0, r1, #8
   28e66:	7120      	strb	r0, [r4, #4]
   28e68:	a810      	add	r0, sp, #64	@ 0x40
   28e6a:	7880      	ldrb	r0, [r0, #2]
   28e6c:	70a0      	strb	r0, [r4, #2]
   28e6e:	1de0      	adds	r0, r4, #7
   28e70:	4929      	ldr	r1, [pc, #164]	@ (28f18 <_start+0x1318>)
   28e72:	4469      	add	r1, sp
   28e74:	222b      	movs	r2, #43	@ 0x2b
   28e76:	f002 fbe8 	bl	2b64a <__aeabi_memcpy>
   28e7a:	4d26      	ldr	r5, [pc, #152]	@ (28f14 <_start+0x1314>)
   28e7c:	446d      	add	r5, sp
   28e7e:	4628      	mov	r0, r5
   28e80:	4621      	mov	r1, r4
   28e82:	f7fa ffd5 	bl	23e30 <_ZN20complex_dynamic_type3app17h8933dc6181fba57eE>
   28e86:	7828      	ldrb	r0, [r5, #0]
   28e88:	2801      	cmp	r0, #1
   28e8a:	d103      	bne.n	28e94 <_start+0x1294>
   28e8c:	990d      	ldr	r1, [sp, #52]	@ 0x34
   28e8e:	6e09      	ldr	r1, [r1, #96]	@ 0x60
   28e90:	910f      	str	r1, [sp, #60]	@ 0x3c
   28e92:	e019      	b.n	28ec8 <_start+0x12c8>
   28e94:	491f      	ldr	r1, [pc, #124]	@ (28f14 <_start+0x1314>)
   28e96:	4469      	add	r1, sp
   28e98:	78ca      	ldrb	r2, [r1, #3]
   28e9a:	ab10      	add	r3, sp, #64	@ 0x40
   28e9c:	709a      	strb	r2, [r3, #2]
   28e9e:	784a      	ldrb	r2, [r1, #1]
   28ea0:	788c      	ldrb	r4, [r1, #2]
   28ea2:	0224      	lsls	r4, r4, #8
   28ea4:	18a2      	adds	r2, r4, r2
   28ea6:	801a      	strh	r2, [r3, #0]
   28ea8:	3108      	adds	r1, #8
   28eaa:	9a0d      	ldr	r2, [sp, #52]	@ 0x34
   28eac:	6e12      	ldr	r2, [r2, #96]	@ 0x60
   28eae:	920f      	str	r2, [sp, #60]	@ 0x3c
   28eb0:	4a19      	ldr	r2, [pc, #100]	@ (28f18 <_start+0x1318>)
   28eb2:	446a      	add	r2, sp
   28eb4:	c938      	ldmia	r1!, {r3, r4, r5}
   28eb6:	c238      	stmia	r2!, {r3, r4, r5}
   28eb8:	c938      	ldmia	r1!, {r3, r4, r5}
   28eba:	c238      	stmia	r2!, {r3, r4, r5}
   28ebc:	c978      	ldmia	r1!, {r3, r4, r5, r6}
   28ebe:	c278      	stmia	r2!, {r3, r4, r5, r6}
   28ec0:	880b      	ldrh	r3, [r1, #0]
   28ec2:	8013      	strh	r3, [r2, #0]
   28ec4:	7889      	ldrb	r1, [r1, #2]
   28ec6:	7091      	strb	r1, [r2, #2]
   28ec8:	2800      	cmp	r0, #0
   28eca:	d001      	beq.n	28ed0 <_start+0x12d0>
   28ecc:	f002 f999 	bl	2b202 <_start+0x3602>
   28ed0:	acff      	add	r4, sp, #1020	@ 0x3fc
   28ed2:	34a0      	adds	r4, #160	@ 0xa0
   28ed4:	990f      	ldr	r1, [sp, #60]	@ 0x3c
   28ed6:	70e1      	strb	r1, [r4, #3]
   28ed8:	9810      	ldr	r0, [sp, #64]	@ 0x40
   28eda:	8020      	strh	r0, [r4, #0]
   28edc:	0e08      	lsrs	r0, r1, #24
   28ede:	71a0      	strb	r0, [r4, #6]
   28ee0:	0c08      	lsrs	r0, r1, #16
   28ee2:	7160      	strb	r0, [r4, #5]
   28ee4:	0a08      	lsrs	r0, r1, #8
   28ee6:	7120      	strb	r0, [r4, #4]
   28ee8:	a810      	add	r0, sp, #64	@ 0x40
   28eea:	7880      	ldrb	r0, [r0, #2]
   28eec:	70a0      	strb	r0, [r4, #2]
   28eee:	1de0      	adds	r0, r4, #7
   28ef0:	4909      	ldr	r1, [pc, #36]	@ (28f18 <_start+0x1318>)
   28ef2:	4469      	add	r1, sp
   28ef4:	222b      	movs	r2, #43	@ 0x2b
   28ef6:	f002 fba8 	bl	2b64a <__aeabi_memcpy>
   28efa:	4d06      	ldr	r5, [pc, #24]	@ (28f14 <_start+0x1314>)
   28efc:	446d      	add	r5, sp
   28efe:	4628      	mov	r0, r5
   28f00:	4621      	mov	r1, r4
   28f02:	f7fb fa87 	bl	24414 <_ZN20complex_dynamic_type3app17h95579f92877ff96cE>
   28f06:	7828      	ldrb	r0, [r5, #0]
   28f08:	2801      	cmp	r0, #1
   28f0a:	d107      	bne.n	28f1c <_start+0x131c>
   28f0c:	990d      	ldr	r1, [sp, #52]	@ 0x34
   28f0e:	6e09      	ldr	r1, [r1, #96]	@ 0x60
   28f10:	e017      	b.n	28f42 <_start+0x1342>
   28f12:	46c0      	nop			@ (mov r8, r8)
   28f14:	00001414 	.word	0x00001414
   28f18:	000013b8 	.word	0x000013b8
   28f1c:	49f4      	ldr	r1, [pc, #976]	@ (292f0 <_start+0x16f0>)
   28f1e:	4469      	add	r1, sp
   28f20:	9c0d      	ldr	r4, [sp, #52]	@ 0x34
   28f22:	6ee2      	ldr	r2, [r4, #108]	@ 0x6c
   28f24:	720a      	strb	r2, [r1, #8]
   28f26:	49f3      	ldr	r1, [pc, #972]	@ (292f4 <_start+0x16f4>)
   28f28:	4469      	add	r1, sp
   28f2a:	78ca      	ldrb	r2, [r1, #3]
   28f2c:	ab10      	add	r3, sp, #64	@ 0x40
   28f2e:	709a      	strb	r2, [r3, #2]
   28f30:	784a      	ldrb	r2, [r1, #1]
   28f32:	7889      	ldrb	r1, [r1, #2]
   28f34:	0209      	lsls	r1, r1, #8
   28f36:	1889      	adds	r1, r1, r2
   28f38:	8019      	strh	r1, [r3, #0]
   28f3a:	6e61      	ldr	r1, [r4, #100]	@ 0x64
   28f3c:	6ea2      	ldr	r2, [r4, #104]	@ 0x68
   28f3e:	c406      	stmia	r4!, {r1, r2}
   28f40:	6da1      	ldr	r1, [r4, #88]	@ 0x58
   28f42:	910f      	str	r1, [sp, #60]	@ 0x3c
   28f44:	2800      	cmp	r0, #0
   28f46:	d001      	beq.n	28f4c <_start+0x134c>
   28f48:	f002 f95b 	bl	2b202 <_start+0x3602>
   28f4c:	acff      	add	r4, sp, #1020	@ 0x3fc
   28f4e:	34d4      	adds	r4, #212	@ 0xd4
   28f50:	990f      	ldr	r1, [sp, #60]	@ 0x3c
   28f52:	70e1      	strb	r1, [r4, #3]
   28f54:	9810      	ldr	r0, [sp, #64]	@ 0x40
   28f56:	8020      	strh	r0, [r4, #0]
   28f58:	0e08      	lsrs	r0, r1, #24
   28f5a:	71a0      	strb	r0, [r4, #6]
   28f5c:	0c08      	lsrs	r0, r1, #16
   28f5e:	7160      	strb	r0, [r4, #5]
   28f60:	0a08      	lsrs	r0, r1, #8
   28f62:	7120      	strb	r0, [r4, #4]
   28f64:	a810      	add	r0, sp, #64	@ 0x40
   28f66:	7880      	ldrb	r0, [r0, #2]
   28f68:	70a0      	strb	r0, [r4, #2]
   28f6a:	1de0      	adds	r0, r4, #7
   28f6c:	49e0      	ldr	r1, [pc, #896]	@ (292f0 <_start+0x16f0>)
   28f6e:	4469      	add	r1, sp
   28f70:	2209      	movs	r2, #9
   28f72:	f002 fb6a 	bl	2b64a <__aeabi_memcpy>
   28f76:	4ddf      	ldr	r5, [pc, #892]	@ (292f4 <_start+0x16f4>)
   28f78:	446d      	add	r5, sp
   28f7a:	4628      	mov	r0, r5
   28f7c:	4621      	mov	r1, r4
   28f7e:	f7fa fb21 	bl	235c4 <_ZN20complex_dynamic_type3app17h6b311899b4f5852fE>
   28f82:	7828      	ldrb	r0, [r5, #0]
   28f84:	2801      	cmp	r0, #1
   28f86:	d103      	bne.n	28f90 <_start+0x1390>
   28f88:	990d      	ldr	r1, [sp, #52]	@ 0x34
   28f8a:	6e09      	ldr	r1, [r1, #96]	@ 0x60
   28f8c:	910f      	str	r1, [sp, #60]	@ 0x3c
   28f8e:	e019      	b.n	28fc4 <_start+0x13c4>
   28f90:	49d8      	ldr	r1, [pc, #864]	@ (292f4 <_start+0x16f4>)
   28f92:	4469      	add	r1, sp
   28f94:	78ca      	ldrb	r2, [r1, #3]
   28f96:	ab10      	add	r3, sp, #64	@ 0x40
   28f98:	709a      	strb	r2, [r3, #2]
   28f9a:	784a      	ldrb	r2, [r1, #1]
   28f9c:	788c      	ldrb	r4, [r1, #2]
   28f9e:	0224      	lsls	r4, r4, #8
   28fa0:	18a2      	adds	r2, r4, r2
   28fa2:	801a      	strh	r2, [r3, #0]
   28fa4:	3108      	adds	r1, #8
   28fa6:	9a0d      	ldr	r2, [sp, #52]	@ 0x34
   28fa8:	6e12      	ldr	r2, [r2, #96]	@ 0x60
   28faa:	920f      	str	r2, [sp, #60]	@ 0x3c
   28fac:	4ad0      	ldr	r2, [pc, #832]	@ (292f0 <_start+0x16f0>)
   28fae:	446a      	add	r2, sp
   28fb0:	c938      	ldmia	r1!, {r3, r4, r5}
   28fb2:	c238      	stmia	r2!, {r3, r4, r5}
   28fb4:	c978      	ldmia	r1!, {r3, r4, r5, r6}
   28fb6:	c278      	stmia	r2!, {r3, r4, r5, r6}
   28fb8:	c978      	ldmia	r1!, {r3, r4, r5, r6}
   28fba:	c278      	stmia	r2!, {r3, r4, r5, r6}
   28fbc:	880b      	ldrh	r3, [r1, #0]
   28fbe:	8013      	strh	r3, [r2, #0]
   28fc0:	7889      	ldrb	r1, [r1, #2]
   28fc2:	7091      	strb	r1, [r2, #2]
   28fc4:	2800      	cmp	r0, #0
   28fc6:	d001      	beq.n	28fcc <_start+0x13cc>
   28fc8:	f002 f91b 	bl	2b202 <_start+0x3602>
   28fcc:	acff      	add	r4, sp, #1020	@ 0x3fc
   28fce:	34e4      	adds	r4, #228	@ 0xe4
   28fd0:	990f      	ldr	r1, [sp, #60]	@ 0x3c
   28fd2:	70e1      	strb	r1, [r4, #3]
   28fd4:	9810      	ldr	r0, [sp, #64]	@ 0x40
   28fd6:	8020      	strh	r0, [r4, #0]
   28fd8:	0e08      	lsrs	r0, r1, #24
   28fda:	71a0      	strb	r0, [r4, #6]
   28fdc:	0c08      	lsrs	r0, r1, #16
   28fde:	7160      	strb	r0, [r4, #5]
   28fe0:	0a08      	lsrs	r0, r1, #8
   28fe2:	7120      	strb	r0, [r4, #4]
   28fe4:	a810      	add	r0, sp, #64	@ 0x40
   28fe6:	7880      	ldrb	r0, [r0, #2]
   28fe8:	70a0      	strb	r0, [r4, #2]
   28fea:	1de0      	adds	r0, r4, #7
   28fec:	49c0      	ldr	r1, [pc, #768]	@ (292f0 <_start+0x16f0>)
   28fee:	4469      	add	r1, sp
   28ff0:	222f      	movs	r2, #47	@ 0x2f
   28ff2:	f002 fb2a 	bl	2b64a <__aeabi_memcpy>
   28ff6:	4dbf      	ldr	r5, [pc, #764]	@ (292f4 <_start+0x16f4>)
   28ff8:	446d      	add	r5, sp
   28ffa:	4628      	mov	r0, r5
   28ffc:	4621      	mov	r1, r4
   28ffe:	f7fb f847 	bl	24090 <_ZN20complex_dynamic_type3app17h90d0910cbe5853f3E>
   29002:	7829      	ldrb	r1, [r5, #0]
   29004:	2901      	cmp	r1, #1
   29006:	d103      	bne.n	29010 <_start+0x1410>
   29008:	980d      	ldr	r0, [sp, #52]	@ 0x34
   2900a:	6e00      	ldr	r0, [r0, #96]	@ 0x60
   2900c:	900f      	str	r0, [sp, #60]	@ 0x3c
   2900e:	e00f      	b.n	29030 <_start+0x1430>
   29010:	48b8      	ldr	r0, [pc, #736]	@ (292f4 <_start+0x16f4>)
   29012:	4468      	add	r0, sp
   29014:	78c2      	ldrb	r2, [r0, #3]
   29016:	4bb6      	ldr	r3, [pc, #728]	@ (292f0 <_start+0x16f0>)
   29018:	446b      	add	r3, sp
   2901a:	709a      	strb	r2, [r3, #2]
   2901c:	7842      	ldrb	r2, [r0, #1]
   2901e:	7880      	ldrb	r0, [r0, #2]
   29020:	0200      	lsls	r0, r0, #8
   29022:	1880      	adds	r0, r0, r2
   29024:	8018      	strh	r0, [r3, #0]
   29026:	980d      	ldr	r0, [sp, #52]	@ 0x34
   29028:	6e02      	ldr	r2, [r0, #96]	@ 0x60
   2902a:	920f      	str	r2, [sp, #60]	@ 0x3c
   2902c:	6e42      	ldr	r2, [r0, #100]	@ 0x64
   2902e:	6e80      	ldr	r0, [r0, #104]	@ 0x68
   29030:	2900      	cmp	r1, #0
   29032:	d001      	beq.n	29038 <_start+0x1438>
   29034:	f002 f8e5 	bl	2b202 <_start+0x3602>
   29038:	9907      	ldr	r1, [sp, #28]
   2903a:	1ccb      	adds	r3, r1, #3
   2903c:	711a      	strb	r2, [r3, #4]
   2903e:	9d0f      	ldr	r5, [sp, #60]	@ 0x3c
   29040:	701d      	strb	r5, [r3, #0]
   29042:	49ad      	ldr	r1, [pc, #692]	@ (292f8 <_start+0x16f8>)
   29044:	4469      	add	r1, sp
   29046:	9c0d      	ldr	r4, [sp, #52]	@ 0x34
   29048:	6824      	ldr	r4, [r4, #0]
   2904a:	800c      	strh	r4, [r1, #0]
   2904c:	7218      	strb	r0, [r3, #8]
   2904e:	0e14      	lsrs	r4, r2, #24
   29050:	71dc      	strb	r4, [r3, #7]
   29052:	0c14      	lsrs	r4, r2, #16
   29054:	719c      	strb	r4, [r3, #6]
   29056:	0a12      	lsrs	r2, r2, #8
   29058:	715a      	strb	r2, [r3, #5]
   2905a:	0e2a      	lsrs	r2, r5, #24
   2905c:	70da      	strb	r2, [r3, #3]
   2905e:	0c2a      	lsrs	r2, r5, #16
   29060:	709a      	strb	r2, [r3, #2]
   29062:	0a2a      	lsrs	r2, r5, #8
   29064:	705a      	strb	r2, [r3, #1]
   29066:	4aa2      	ldr	r2, [pc, #648]	@ (292f0 <_start+0x16f0>)
   29068:	446a      	add	r2, sp
   2906a:	7892      	ldrb	r2, [r2, #2]
   2906c:	708a      	strb	r2, [r1, #2]
   2906e:	0e02      	lsrs	r2, r0, #24
   29070:	72da      	strb	r2, [r3, #11]
   29072:	0c02      	lsrs	r2, r0, #16
   29074:	729a      	strb	r2, [r3, #10]
   29076:	0a00      	lsrs	r0, r0, #8
   29078:	7258      	strb	r0, [r3, #9]
   2907a:	4c9e      	ldr	r4, [pc, #632]	@ (292f4 <_start+0x16f4>)
   2907c:	446c      	add	r4, sp
   2907e:	4620      	mov	r0, r4
   29080:	f7fa fb38 	bl	236f4 <_ZN20complex_dynamic_type3app17h75efe726895bc0a1E>
   29084:	7820      	ldrb	r0, [r4, #0]
   29086:	2801      	cmp	r0, #1
   29088:	d103      	bne.n	29092 <_start+0x1492>
   2908a:	990d      	ldr	r1, [sp, #52]	@ 0x34
   2908c:	6e09      	ldr	r1, [r1, #96]	@ 0x60
   2908e:	910f      	str	r1, [sp, #60]	@ 0x3c
   29090:	e010      	b.n	290b4 <_start+0x14b4>
   29092:	4998      	ldr	r1, [pc, #608]	@ (292f4 <_start+0x16f4>)
   29094:	4469      	add	r1, sp
   29096:	78ca      	ldrb	r2, [r1, #3]
   29098:	ab10      	add	r3, sp, #64	@ 0x40
   2909a:	709a      	strb	r2, [r3, #2]
   2909c:	784a      	ldrb	r2, [r1, #1]
   2909e:	7889      	ldrb	r1, [r1, #2]
   290a0:	0209      	lsls	r1, r1, #8
   290a2:	1889      	adds	r1, r1, r2
   290a4:	8019      	strh	r1, [r3, #0]
   290a6:	9c0d      	ldr	r4, [sp, #52]	@ 0x34
   290a8:	6e21      	ldr	r1, [r4, #96]	@ 0x60
   290aa:	910f      	str	r1, [sp, #60]	@ 0x3c
   290ac:	4623      	mov	r3, r4
   290ae:	3364      	adds	r3, #100	@ 0x64
   290b0:	cb0e      	ldmia	r3, {r1, r2, r3}
   290b2:	c40e      	stmia	r4!, {r1, r2, r3}
   290b4:	2800      	cmp	r0, #0
   290b6:	d001      	beq.n	290bc <_start+0x14bc>
   290b8:	f002 f8a3 	bl	2b202 <_start+0x3602>
   290bc:	4c8f      	ldr	r4, [pc, #572]	@ (292fc <_start+0x16fc>)
   290be:	446c      	add	r4, sp
   290c0:	990f      	ldr	r1, [sp, #60]	@ 0x3c
   290c2:	70e1      	strb	r1, [r4, #3]
   290c4:	9810      	ldr	r0, [sp, #64]	@ 0x40
   290c6:	8020      	strh	r0, [r4, #0]
   290c8:	0e08      	lsrs	r0, r1, #24
   290ca:	71a0      	strb	r0, [r4, #6]
   290cc:	0c08      	lsrs	r0, r1, #16
   290ce:	7160      	strb	r0, [r4, #5]
   290d0:	0a08      	lsrs	r0, r1, #8
   290d2:	7120      	strb	r0, [r4, #4]
   290d4:	a810      	add	r0, sp, #64	@ 0x40
   290d6:	7880      	ldrb	r0, [r0, #2]
   290d8:	70a0      	strb	r0, [r4, #2]
   290da:	1de0      	adds	r0, r4, #7
   290dc:	4984      	ldr	r1, [pc, #528]	@ (292f0 <_start+0x16f0>)
   290de:	4469      	add	r1, sp
   290e0:	220c      	movs	r2, #12
   290e2:	f002 fab2 	bl	2b64a <__aeabi_memcpy>
   290e6:	4d83      	ldr	r5, [pc, #524]	@ (292f4 <_start+0x16f4>)
   290e8:	446d      	add	r5, sp
   290ea:	4628      	mov	r0, r5
   290ec:	4621      	mov	r1, r4
   290ee:	f7fc f951 	bl	25394 <_ZN20complex_dynamic_type3app17hb104bd97adf4e5faE>
   290f2:	782c      	ldrb	r4, [r5, #0]
   290f4:	2c01      	cmp	r4, #1
   290f6:	d103      	bne.n	29100 <_start+0x1500>
   290f8:	980d      	ldr	r0, [sp, #52]	@ 0x34
   290fa:	6e00      	ldr	r0, [r0, #96]	@ 0x60
   290fc:	900f      	str	r0, [sp, #60]	@ 0x3c
   290fe:	e012      	b.n	29126 <_start+0x1526>
   29100:	497c      	ldr	r1, [pc, #496]	@ (292f4 <_start+0x16f4>)
   29102:	4469      	add	r1, sp
   29104:	78c8      	ldrb	r0, [r1, #3]
   29106:	aa10      	add	r2, sp, #64	@ 0x40
   29108:	7090      	strb	r0, [r2, #2]
   2910a:	7848      	ldrb	r0, [r1, #1]
   2910c:	788b      	ldrb	r3, [r1, #2]
   2910e:	021b      	lsls	r3, r3, #8
   29110:	1818      	adds	r0, r3, r0
   29112:	8010      	strh	r0, [r2, #0]
   29114:	980d      	ldr	r0, [sp, #52]	@ 0x34
   29116:	6e00      	ldr	r0, [r0, #96]	@ 0x60
   29118:	900f      	str	r0, [sp, #60]	@ 0x3c
   2911a:	3108      	adds	r1, #8
   2911c:	4874      	ldr	r0, [pc, #464]	@ (292f0 <_start+0x16f0>)
   2911e:	4468      	add	r0, sp
   29120:	224e      	movs	r2, #78	@ 0x4e
   29122:	f002 f932 	bl	2b38a <__aeabi_memcpy4>
   29126:	2c00      	cmp	r4, #0
   29128:	d001      	beq.n	2912e <_start+0x152e>
   2912a:	f002 f86a 	bl	2b202 <_start+0x3602>
   2912e:	4c74      	ldr	r4, [pc, #464]	@ (29300 <_start+0x1700>)
   29130:	446c      	add	r4, sp
   29132:	990f      	ldr	r1, [sp, #60]	@ 0x3c
   29134:	70e1      	strb	r1, [r4, #3]
   29136:	9810      	ldr	r0, [sp, #64]	@ 0x40
   29138:	8020      	strh	r0, [r4, #0]
   2913a:	0e08      	lsrs	r0, r1, #24
   2913c:	71a0      	strb	r0, [r4, #6]
   2913e:	0c08      	lsrs	r0, r1, #16
   29140:	7160      	strb	r0, [r4, #5]
   29142:	0a08      	lsrs	r0, r1, #8
   29144:	7120      	strb	r0, [r4, #4]
   29146:	a810      	add	r0, sp, #64	@ 0x40
   29148:	7880      	ldrb	r0, [r0, #2]
   2914a:	70a0      	strb	r0, [r4, #2]
   2914c:	1de0      	adds	r0, r4, #7
   2914e:	4968      	ldr	r1, [pc, #416]	@ (292f0 <_start+0x16f0>)
   29150:	4469      	add	r1, sp
   29152:	224e      	movs	r2, #78	@ 0x4e
   29154:	f002 fa79 	bl	2b64a <__aeabi_memcpy>
   29158:	4d66      	ldr	r5, [pc, #408]	@ (292f4 <_start+0x16f4>)
   2915a:	446d      	add	r5, sp
   2915c:	4628      	mov	r0, r5
   2915e:	4621      	mov	r1, r4
   29160:	f7f7 fe06 	bl	20d70 <_ZN20complex_dynamic_type3app17h0947454a05c19f10E>
   29164:	7828      	ldrb	r0, [r5, #0]
   29166:	2801      	cmp	r0, #1
   29168:	d103      	bne.n	29172 <_start+0x1572>
   2916a:	990d      	ldr	r1, [sp, #52]	@ 0x34
   2916c:	6e09      	ldr	r1, [r1, #96]	@ 0x60
   2916e:	910f      	str	r1, [sp, #60]	@ 0x3c
   29170:	e019      	b.n	291a6 <_start+0x15a6>
   29172:	4960      	ldr	r1, [pc, #384]	@ (292f4 <_start+0x16f4>)
   29174:	4469      	add	r1, sp
   29176:	78ca      	ldrb	r2, [r1, #3]
   29178:	ab10      	add	r3, sp, #64	@ 0x40
   2917a:	709a      	strb	r2, [r3, #2]
   2917c:	784a      	ldrb	r2, [r1, #1]
   2917e:	788c      	ldrb	r4, [r1, #2]
   29180:	0224      	lsls	r4, r4, #8
   29182:	18a2      	adds	r2, r4, r2
   29184:	801a      	strh	r2, [r3, #0]
   29186:	3108      	adds	r1, #8
   29188:	9a0d      	ldr	r2, [sp, #52]	@ 0x34
   2918a:	6e12      	ldr	r2, [r2, #96]	@ 0x60
   2918c:	920f      	str	r2, [sp, #60]	@ 0x3c
   2918e:	4a58      	ldr	r2, [pc, #352]	@ (292f0 <_start+0x16f0>)
   29190:	446a      	add	r2, sp
   29192:	c938      	ldmia	r1!, {r3, r4, r5}
   29194:	c238      	stmia	r2!, {r3, r4, r5}
   29196:	c938      	ldmia	r1!, {r3, r4, r5}
   29198:	c238      	stmia	r2!, {r3, r4, r5}
   2919a:	c978      	ldmia	r1!, {r3, r4, r5, r6}
   2919c:	c278      	stmia	r2!, {r3, r4, r5, r6}
   2919e:	880b      	ldrh	r3, [r1, #0]
   291a0:	8013      	strh	r3, [r2, #0]
   291a2:	7889      	ldrb	r1, [r1, #2]
   291a4:	7091      	strb	r1, [r2, #2]
   291a6:	2800      	cmp	r0, #0
   291a8:	d001      	beq.n	291ae <_start+0x15ae>
   291aa:	f002 f82a 	bl	2b202 <_start+0x3602>
   291ae:	4c55      	ldr	r4, [pc, #340]	@ (29304 <_start+0x1704>)
   291b0:	446c      	add	r4, sp
   291b2:	990f      	ldr	r1, [sp, #60]	@ 0x3c
   291b4:	70e1      	strb	r1, [r4, #3]
   291b6:	9810      	ldr	r0, [sp, #64]	@ 0x40
   291b8:	8020      	strh	r0, [r4, #0]
   291ba:	0e08      	lsrs	r0, r1, #24
   291bc:	71a0      	strb	r0, [r4, #6]
   291be:	0c08      	lsrs	r0, r1, #16
   291c0:	7160      	strb	r0, [r4, #5]
   291c2:	0a08      	lsrs	r0, r1, #8
   291c4:	7120      	strb	r0, [r4, #4]
   291c6:	a810      	add	r0, sp, #64	@ 0x40
   291c8:	7880      	ldrb	r0, [r0, #2]
   291ca:	70a0      	strb	r0, [r4, #2]
   291cc:	1de0      	adds	r0, r4, #7
   291ce:	4948      	ldr	r1, [pc, #288]	@ (292f0 <_start+0x16f0>)
   291d0:	4469      	add	r1, sp
   291d2:	222b      	movs	r2, #43	@ 0x2b
   291d4:	f002 fa39 	bl	2b64a <__aeabi_memcpy>
   291d8:	4d46      	ldr	r5, [pc, #280]	@ (292f4 <_start+0x16f4>)
   291da:	446d      	add	r5, sp
   291dc:	4628      	mov	r0, r5
   291de:	4621      	mov	r1, r4
   291e0:	f7fd f92a 	bl	26438 <_ZN20complex_dynamic_type3app17hd5c81e84761d98f4E>
   291e4:	7828      	ldrb	r0, [r5, #0]
   291e6:	2801      	cmp	r0, #1
   291e8:	d103      	bne.n	291f2 <_start+0x15f2>
   291ea:	990d      	ldr	r1, [sp, #52]	@ 0x34
   291ec:	6e09      	ldr	r1, [r1, #96]	@ 0x60
   291ee:	910f      	str	r1, [sp, #60]	@ 0x3c
   291f0:	e019      	b.n	29226 <_start+0x1626>
   291f2:	4940      	ldr	r1, [pc, #256]	@ (292f4 <_start+0x16f4>)
   291f4:	4469      	add	r1, sp
   291f6:	78ca      	ldrb	r2, [r1, #3]
   291f8:	ab10      	add	r3, sp, #64	@ 0x40
   291fa:	709a      	strb	r2, [r3, #2]
   291fc:	784a      	ldrb	r2, [r1, #1]
   291fe:	788c      	ldrb	r4, [r1, #2]
   29200:	0224      	lsls	r4, r4, #8
   29202:	18a2      	adds	r2, r4, r2
   29204:	801a      	strh	r2, [r3, #0]
   29206:	3108      	adds	r1, #8
   29208:	9a0d      	ldr	r2, [sp, #52]	@ 0x34
   2920a:	6e12      	ldr	r2, [r2, #96]	@ 0x60
   2920c:	920f      	str	r2, [sp, #60]	@ 0x3c
   2920e:	4a38      	ldr	r2, [pc, #224]	@ (292f0 <_start+0x16f0>)
   29210:	446a      	add	r2, sp
   29212:	c938      	ldmia	r1!, {r3, r4, r5}
   29214:	c238      	stmia	r2!, {r3, r4, r5}
   29216:	c978      	ldmia	r1!, {r3, r4, r5, r6}
   29218:	c278      	stmia	r2!, {r3, r4, r5, r6}
   2921a:	c938      	ldmia	r1!, {r3, r4, r5}
   2921c:	c238      	stmia	r2!, {r3, r4, r5}
   2921e:	c978      	ldmia	r1!, {r3, r4, r5, r6}
   29220:	c278      	stmia	r2!, {r3, r4, r5, r6}
   29222:	8809      	ldrh	r1, [r1, #0]
   29224:	8011      	strh	r1, [r2, #0]
   29226:	2800      	cmp	r0, #0
   29228:	d001      	beq.n	2922e <_start+0x162e>
   2922a:	f001 ffea 	bl	2b202 <_start+0x3602>
   2922e:	4c36      	ldr	r4, [pc, #216]	@ (29308 <_start+0x1708>)
   29230:	446c      	add	r4, sp
   29232:	990f      	ldr	r1, [sp, #60]	@ 0x3c
   29234:	70e1      	strb	r1, [r4, #3]
   29236:	9810      	ldr	r0, [sp, #64]	@ 0x40
   29238:	8020      	strh	r0, [r4, #0]
   2923a:	0e08      	lsrs	r0, r1, #24
   2923c:	71a0      	strb	r0, [r4, #6]
   2923e:	0c08      	lsrs	r0, r1, #16
   29240:	7160      	strb	r0, [r4, #5]
   29242:	0a08      	lsrs	r0, r1, #8
   29244:	7120      	strb	r0, [r4, #4]
   29246:	a810      	add	r0, sp, #64	@ 0x40
   29248:	7880      	ldrb	r0, [r0, #2]
   2924a:	70a0      	strb	r0, [r4, #2]
   2924c:	1de0      	adds	r0, r4, #7
   2924e:	4928      	ldr	r1, [pc, #160]	@ (292f0 <_start+0x16f0>)
   29250:	4469      	add	r1, sp
   29252:	223a      	movs	r2, #58	@ 0x3a
   29254:	f002 f9f9 	bl	2b64a <__aeabi_memcpy>
   29258:	4d26      	ldr	r5, [pc, #152]	@ (292f4 <_start+0x16f4>)
   2925a:	446d      	add	r5, sp
   2925c:	4628      	mov	r0, r5
   2925e:	4621      	mov	r1, r4
   29260:	f7f8 fe68 	bl	21f34 <_ZN20complex_dynamic_type3app17h3a77554497741b9bE>
   29264:	7828      	ldrb	r0, [r5, #0]
   29266:	2801      	cmp	r0, #1
   29268:	d103      	bne.n	29272 <_start+0x1672>
   2926a:	990d      	ldr	r1, [sp, #52]	@ 0x34
   2926c:	6e09      	ldr	r1, [r1, #96]	@ 0x60
   2926e:	910f      	str	r1, [sp, #60]	@ 0x3c
   29270:	e017      	b.n	292a2 <_start+0x16a2>
   29272:	4920      	ldr	r1, [pc, #128]	@ (292f4 <_start+0x16f4>)
   29274:	4469      	add	r1, sp
   29276:	78ca      	ldrb	r2, [r1, #3]
   29278:	ab10      	add	r3, sp, #64	@ 0x40
   2927a:	709a      	strb	r2, [r3, #2]
   2927c:	784a      	ldrb	r2, [r1, #1]
   2927e:	788c      	ldrb	r4, [r1, #2]
   29280:	0224      	lsls	r4, r4, #8
   29282:	18a2      	adds	r2, r4, r2
   29284:	801a      	strh	r2, [r3, #0]
   29286:	3108      	adds	r1, #8
   29288:	9a0d      	ldr	r2, [sp, #52]	@ 0x34
   2928a:	6e12      	ldr	r2, [r2, #96]	@ 0x60
   2928c:	920f      	str	r2, [sp, #60]	@ 0x3c
   2928e:	4a18      	ldr	r2, [pc, #96]	@ (292f0 <_start+0x16f0>)
   29290:	446a      	add	r2, sp
   29292:	c938      	ldmia	r1!, {r3, r4, r5}
   29294:	c238      	stmia	r2!, {r3, r4, r5}
   29296:	c938      	ldmia	r1!, {r3, r4, r5}
   29298:	c238      	stmia	r2!, {r3, r4, r5}
   2929a:	880b      	ldrh	r3, [r1, #0]
   2929c:	8013      	strh	r3, [r2, #0]
   2929e:	7889      	ldrb	r1, [r1, #2]
   292a0:	7091      	strb	r1, [r2, #2]
   292a2:	2800      	cmp	r0, #0
   292a4:	d001      	beq.n	292aa <_start+0x16aa>
   292a6:	f001 ffac 	bl	2b202 <_start+0x3602>
   292aa:	4c18      	ldr	r4, [pc, #96]	@ (2930c <_start+0x170c>)
   292ac:	446c      	add	r4, sp
   292ae:	990f      	ldr	r1, [sp, #60]	@ 0x3c
   292b0:	70e1      	strb	r1, [r4, #3]
   292b2:	9810      	ldr	r0, [sp, #64]	@ 0x40
   292b4:	8020      	strh	r0, [r4, #0]
   292b6:	0e08      	lsrs	r0, r1, #24
   292b8:	71a0      	strb	r0, [r4, #6]
   292ba:	0c08      	lsrs	r0, r1, #16
   292bc:	7160      	strb	r0, [r4, #5]
   292be:	0a08      	lsrs	r0, r1, #8
   292c0:	7120      	strb	r0, [r4, #4]
   292c2:	a810      	add	r0, sp, #64	@ 0x40
   292c4:	7880      	ldrb	r0, [r0, #2]
   292c6:	70a0      	strb	r0, [r4, #2]
   292c8:	1de0      	adds	r0, r4, #7
   292ca:	4909      	ldr	r1, [pc, #36]	@ (292f0 <_start+0x16f0>)
   292cc:	4469      	add	r1, sp
   292ce:	221b      	movs	r2, #27
   292d0:	f002 f9bb 	bl	2b64a <__aeabi_memcpy>
   292d4:	4d07      	ldr	r5, [pc, #28]	@ (292f4 <_start+0x16f4>)
   292d6:	446d      	add	r5, sp
   292d8:	4628      	mov	r0, r5
   292da:	4621      	mov	r1, r4
   292dc:	f7f9 fde2 	bl	22ea4 <_ZN20complex_dynamic_type3app17h5d82302347cb25fdE>
   292e0:	782c      	ldrb	r4, [r5, #0]
   292e2:	2c01      	cmp	r4, #1
   292e4:	d114      	bne.n	29310 <_start+0x1710>
   292e6:	980d      	ldr	r0, [sp, #52]	@ 0x34
   292e8:	6e00      	ldr	r0, [r0, #96]	@ 0x60
   292ea:	900f      	str	r0, [sp, #60]	@ 0x3c
   292ec:	e023      	b.n	29336 <_start+0x1736>
   292ee:	46c0      	nop			@ (mov r8, r8)
   292f0:	000013b8 	.word	0x000013b8
   292f4:	00001414 	.word	0x00001414
   292f8:	00000518 	.word	0x00000518
   292fc:	00000528 	.word	0x00000528
   29300:	0000053c 	.word	0x0000053c
   29304:	00000594 	.word	0x00000594
   29308:	000005c8 	.word	0x000005c8
   2930c:	0000060c 	.word	0x0000060c
   29310:	49eb      	ldr	r1, [pc, #940]	@ (296c0 <_start+0x1ac0>)
   29312:	4469      	add	r1, sp
   29314:	78c8      	ldrb	r0, [r1, #3]
   29316:	aa10      	add	r2, sp, #64	@ 0x40
   29318:	7090      	strb	r0, [r2, #2]
   2931a:	7848      	ldrb	r0, [r1, #1]
   2931c:	788b      	ldrb	r3, [r1, #2]
   2931e:	021b      	lsls	r3, r3, #8
   29320:	1818      	adds	r0, r3, r0
   29322:	8010      	strh	r0, [r2, #0]
   29324:	980d      	ldr	r0, [sp, #52]	@ 0x34
   29326:	6e00      	ldr	r0, [r0, #96]	@ 0x60
   29328:	900f      	str	r0, [sp, #60]	@ 0x3c
   2932a:	3108      	adds	r1, #8
   2932c:	48e5      	ldr	r0, [pc, #916]	@ (296c4 <_start+0x1ac4>)
   2932e:	4468      	add	r0, sp
   29330:	224a      	movs	r2, #74	@ 0x4a
   29332:	f002 f82a 	bl	2b38a <__aeabi_memcpy4>
   29336:	2c00      	cmp	r4, #0
   29338:	d001      	beq.n	2933e <_start+0x173e>
   2933a:	f001 ff62 	bl	2b202 <_start+0x3602>
   2933e:	4ce2      	ldr	r4, [pc, #904]	@ (296c8 <_start+0x1ac8>)
   29340:	446c      	add	r4, sp
   29342:	990f      	ldr	r1, [sp, #60]	@ 0x3c
   29344:	70e1      	strb	r1, [r4, #3]
   29346:	9810      	ldr	r0, [sp, #64]	@ 0x40
   29348:	8020      	strh	r0, [r4, #0]
   2934a:	0e08      	lsrs	r0, r1, #24
   2934c:	71a0      	strb	r0, [r4, #6]
   2934e:	0c08      	lsrs	r0, r1, #16
   29350:	7160      	strb	r0, [r4, #5]
   29352:	0a08      	lsrs	r0, r1, #8
   29354:	7120      	strb	r0, [r4, #4]
   29356:	a810      	add	r0, sp, #64	@ 0x40
   29358:	7880      	ldrb	r0, [r0, #2]
   2935a:	70a0      	strb	r0, [r4, #2]
   2935c:	1de0      	adds	r0, r4, #7
   2935e:	49d9      	ldr	r1, [pc, #868]	@ (296c4 <_start+0x1ac4>)
   29360:	4469      	add	r1, sp
   29362:	224a      	movs	r2, #74	@ 0x4a
   29364:	f002 f971 	bl	2b64a <__aeabi_memcpy>
   29368:	4dd5      	ldr	r5, [pc, #852]	@ (296c0 <_start+0x1ac0>)
   2936a:	446d      	add	r5, sp
   2936c:	4628      	mov	r0, r5
   2936e:	4621      	mov	r1, r4
   29370:	f7f8 fe78 	bl	22064 <_ZN20complex_dynamic_type3app17h3ad0b530d87c77ecE>
   29374:	782c      	ldrb	r4, [r5, #0]
   29376:	2c01      	cmp	r4, #1
   29378:	d103      	bne.n	29382 <_start+0x1782>
   2937a:	980d      	ldr	r0, [sp, #52]	@ 0x34
   2937c:	6e00      	ldr	r0, [r0, #96]	@ 0x60
   2937e:	900f      	str	r0, [sp, #60]	@ 0x3c
   29380:	e012      	b.n	293a8 <_start+0x17a8>
   29382:	49cf      	ldr	r1, [pc, #828]	@ (296c0 <_start+0x1ac0>)
   29384:	4469      	add	r1, sp
   29386:	78c8      	ldrb	r0, [r1, #3]
   29388:	aa10      	add	r2, sp, #64	@ 0x40
   2938a:	7090      	strb	r0, [r2, #2]
   2938c:	7848      	ldrb	r0, [r1, #1]
   2938e:	788b      	ldrb	r3, [r1, #2]
   29390:	021b      	lsls	r3, r3, #8
   29392:	1818      	adds	r0, r3, r0
   29394:	8010      	strh	r0, [r2, #0]
   29396:	980d      	ldr	r0, [sp, #52]	@ 0x34
   29398:	6e00      	ldr	r0, [r0, #96]	@ 0x60
   2939a:	900f      	str	r0, [sp, #60]	@ 0x3c
   2939c:	3108      	adds	r1, #8
   2939e:	48c9      	ldr	r0, [pc, #804]	@ (296c4 <_start+0x1ac4>)
   293a0:	4468      	add	r0, sp
   293a2:	2248      	movs	r2, #72	@ 0x48
   293a4:	f001 fff1 	bl	2b38a <__aeabi_memcpy4>
   293a8:	2c00      	cmp	r4, #0
   293aa:	d001      	beq.n	293b0 <_start+0x17b0>
   293ac:	f001 ff29 	bl	2b202 <_start+0x3602>
   293b0:	4cc6      	ldr	r4, [pc, #792]	@ (296cc <_start+0x1acc>)
   293b2:	446c      	add	r4, sp
   293b4:	990f      	ldr	r1, [sp, #60]	@ 0x3c
   293b6:	70e1      	strb	r1, [r4, #3]
   293b8:	9810      	ldr	r0, [sp, #64]	@ 0x40
   293ba:	8020      	strh	r0, [r4, #0]
   293bc:	0e08      	lsrs	r0, r1, #24
   293be:	71a0      	strb	r0, [r4, #6]
   293c0:	0c08      	lsrs	r0, r1, #16
   293c2:	7160      	strb	r0, [r4, #5]
   293c4:	0a08      	lsrs	r0, r1, #8
   293c6:	7120      	strb	r0, [r4, #4]
   293c8:	a810      	add	r0, sp, #64	@ 0x40
   293ca:	7880      	ldrb	r0, [r0, #2]
   293cc:	70a0      	strb	r0, [r4, #2]
   293ce:	1de0      	adds	r0, r4, #7
   293d0:	49bc      	ldr	r1, [pc, #752]	@ (296c4 <_start+0x1ac4>)
   293d2:	4469      	add	r1, sp
   293d4:	2248      	movs	r2, #72	@ 0x48
   293d6:	f002 f938 	bl	2b64a <__aeabi_memcpy>
   293da:	4db9      	ldr	r5, [pc, #740]	@ (296c0 <_start+0x1ac0>)
   293dc:	446d      	add	r5, sp
   293de:	4628      	mov	r0, r5
   293e0:	4621      	mov	r1, r4
   293e2:	f7f9 fc31 	bl	22c48 <_ZN20complex_dynamic_type3app17h58d2688bb64ffa8aE>
   293e6:	7828      	ldrb	r0, [r5, #0]
   293e8:	2801      	cmp	r0, #1
   293ea:	d103      	bne.n	293f4 <_start+0x17f4>
   293ec:	990d      	ldr	r1, [sp, #52]	@ 0x34
   293ee:	6e09      	ldr	r1, [r1, #96]	@ 0x60
   293f0:	910f      	str	r1, [sp, #60]	@ 0x3c
   293f2:	e017      	b.n	29424 <_start+0x1824>
   293f4:	49b2      	ldr	r1, [pc, #712]	@ (296c0 <_start+0x1ac0>)
   293f6:	4469      	add	r1, sp
   293f8:	78ca      	ldrb	r2, [r1, #3]
   293fa:	ab10      	add	r3, sp, #64	@ 0x40
   293fc:	709a      	strb	r2, [r3, #2]
   293fe:	784a      	ldrb	r2, [r1, #1]
   29400:	788c      	ldrb	r4, [r1, #2]
   29402:	0224      	lsls	r4, r4, #8
   29404:	18a2      	adds	r2, r4, r2
   29406:	801a      	strh	r2, [r3, #0]
   29408:	3108      	adds	r1, #8
   2940a:	9a0d      	ldr	r2, [sp, #52]	@ 0x34
   2940c:	6e12      	ldr	r2, [r2, #96]	@ 0x60
   2940e:	920f      	str	r2, [sp, #60]	@ 0x3c
   29410:	4aac      	ldr	r2, [pc, #688]	@ (296c4 <_start+0x1ac4>)
   29412:	446a      	add	r2, sp
   29414:	c938      	ldmia	r1!, {r3, r4, r5}
   29416:	c238      	stmia	r2!, {r3, r4, r5}
   29418:	c938      	ldmia	r1!, {r3, r4, r5}
   2941a:	c238      	stmia	r2!, {r3, r4, r5}
   2941c:	c938      	ldmia	r1!, {r3, r4, r5}
   2941e:	c238      	stmia	r2!, {r3, r4, r5}
   29420:	c978      	ldmia	r1!, {r3, r4, r5, r6}
   29422:	c278      	stmia	r2!, {r3, r4, r5, r6}
   29424:	2800      	cmp	r0, #0
   29426:	d001      	beq.n	2942c <_start+0x182c>
   29428:	f001 feeb 	bl	2b202 <_start+0x3602>
   2942c:	4ca8      	ldr	r4, [pc, #672]	@ (296d0 <_start+0x1ad0>)
   2942e:	446c      	add	r4, sp
   29430:	990f      	ldr	r1, [sp, #60]	@ 0x3c
   29432:	70e1      	strb	r1, [r4, #3]
   29434:	9810      	ldr	r0, [sp, #64]	@ 0x40
   29436:	8020      	strh	r0, [r4, #0]
   29438:	0e08      	lsrs	r0, r1, #24
   2943a:	71a0      	strb	r0, [r4, #6]
   2943c:	0c08      	lsrs	r0, r1, #16
   2943e:	7160      	strb	r0, [r4, #5]
   29440:	0a08      	lsrs	r0, r1, #8
   29442:	7120      	strb	r0, [r4, #4]
   29444:	a810      	add	r0, sp, #64	@ 0x40
   29446:	7880      	ldrb	r0, [r0, #2]
   29448:	70a0      	strb	r0, [r4, #2]
   2944a:	1de0      	adds	r0, r4, #7
   2944c:	499d      	ldr	r1, [pc, #628]	@ (296c4 <_start+0x1ac4>)
   2944e:	4469      	add	r1, sp
   29450:	2234      	movs	r2, #52	@ 0x34
   29452:	f002 f8fa 	bl	2b64a <__aeabi_memcpy>
   29456:	4d9a      	ldr	r5, [pc, #616]	@ (296c0 <_start+0x1ac0>)
   29458:	446d      	add	r5, sp
   2945a:	4628      	mov	r0, r5
   2945c:	4621      	mov	r1, r4
   2945e:	f7f9 fc8b 	bl	22d78 <_ZN20complex_dynamic_type3app17h5be3399cfd1d1ed7E>
   29462:	7828      	ldrb	r0, [r5, #0]
   29464:	2801      	cmp	r0, #1
   29466:	d103      	bne.n	29470 <_start+0x1870>
   29468:	990d      	ldr	r1, [sp, #52]	@ 0x34
   2946a:	6e09      	ldr	r1, [r1, #96]	@ 0x60
   2946c:	910f      	str	r1, [sp, #60]	@ 0x3c
   2946e:	e013      	b.n	29498 <_start+0x1898>
   29470:	4993      	ldr	r1, [pc, #588]	@ (296c0 <_start+0x1ac0>)
   29472:	4469      	add	r1, sp
   29474:	78ca      	ldrb	r2, [r1, #3]
   29476:	ab10      	add	r3, sp, #64	@ 0x40
   29478:	709a      	strb	r2, [r3, #2]
   2947a:	784a      	ldrb	r2, [r1, #1]
   2947c:	788c      	ldrb	r4, [r1, #2]
   2947e:	0224      	lsls	r4, r4, #8
   29480:	18a2      	adds	r2, r4, r2
   29482:	801a      	strh	r2, [r3, #0]
   29484:	3108      	adds	r1, #8
   29486:	9a0d      	ldr	r2, [sp, #52]	@ 0x34
   29488:	6e12      	ldr	r2, [r2, #96]	@ 0x60
   2948a:	920f      	str	r2, [sp, #60]	@ 0x3c
   2948c:	4a8d      	ldr	r2, [pc, #564]	@ (296c4 <_start+0x1ac4>)
   2948e:	446a      	add	r2, sp
   29490:	c978      	ldmia	r1!, {r3, r4, r5, r6}
   29492:	c278      	stmia	r2!, {r3, r4, r5, r6}
   29494:	c978      	ldmia	r1!, {r3, r4, r5, r6}
   29496:	c278      	stmia	r2!, {r3, r4, r5, r6}
   29498:	2800      	cmp	r0, #0
   2949a:	d001      	beq.n	294a0 <_start+0x18a0>
   2949c:	f001 feb1 	bl	2b202 <_start+0x3602>
   294a0:	4c8c      	ldr	r4, [pc, #560]	@ (296d4 <_start+0x1ad4>)
   294a2:	446c      	add	r4, sp
   294a4:	990f      	ldr	r1, [sp, #60]	@ 0x3c
   294a6:	70e1      	strb	r1, [r4, #3]
   294a8:	9810      	ldr	r0, [sp, #64]	@ 0x40
   294aa:	8020      	strh	r0, [r4, #0]
   294ac:	0e08      	lsrs	r0, r1, #24
   294ae:	71a0      	strb	r0, [r4, #6]
   294b0:	0c08      	lsrs	r0, r1, #16
   294b2:	7160      	strb	r0, [r4, #5]
   294b4:	0a08      	lsrs	r0, r1, #8
   294b6:	7120      	strb	r0, [r4, #4]
   294b8:	a810      	add	r0, sp, #64	@ 0x40
   294ba:	7880      	ldrb	r0, [r0, #2]
   294bc:	70a0      	strb	r0, [r4, #2]
   294be:	1de0      	adds	r0, r4, #7
   294c0:	4980      	ldr	r1, [pc, #512]	@ (296c4 <_start+0x1ac4>)
   294c2:	4469      	add	r1, sp
   294c4:	2220      	movs	r2, #32
   294c6:	f002 f8c0 	bl	2b64a <__aeabi_memcpy>
   294ca:	4d7d      	ldr	r5, [pc, #500]	@ (296c0 <_start+0x1ac0>)
   294cc:	446d      	add	r5, sp
   294ce:	4628      	mov	r0, r5
   294d0:	4621      	mov	r1, r4
   294d2:	f7fc fb85 	bl	25be0 <_ZN20complex_dynamic_type3app17hc73c5440a822ea57E>
   294d6:	7828      	ldrb	r0, [r5, #0]
   294d8:	2801      	cmp	r0, #1
   294da:	d102      	bne.n	294e2 <_start+0x18e2>
   294dc:	990d      	ldr	r1, [sp, #52]	@ 0x34
   294de:	6e09      	ldr	r1, [r1, #96]	@ 0x60
   294e0:	e013      	b.n	2950a <_start+0x190a>
   294e2:	4978      	ldr	r1, [pc, #480]	@ (296c4 <_start+0x1ac4>)
   294e4:	4469      	add	r1, sp
   294e6:	9c0d      	ldr	r4, [sp, #52]	@ 0x34
   294e8:	6f22      	ldr	r2, [r4, #112]	@ 0x70
   294ea:	730a      	strb	r2, [r1, #12]
   294ec:	4974      	ldr	r1, [pc, #464]	@ (296c0 <_start+0x1ac0>)
   294ee:	4469      	add	r1, sp
   294f0:	78ca      	ldrb	r2, [r1, #3]
   294f2:	ab10      	add	r3, sp, #64	@ 0x40
   294f4:	709a      	strb	r2, [r3, #2]
   294f6:	784a      	ldrb	r2, [r1, #1]
   294f8:	7889      	ldrb	r1, [r1, #2]
   294fa:	0209      	lsls	r1, r1, #8
   294fc:	1889      	adds	r1, r1, r2
   294fe:	8019      	strh	r1, [r3, #0]
   29500:	4623      	mov	r3, r4
   29502:	3364      	adds	r3, #100	@ 0x64
   29504:	cb0e      	ldmia	r3, {r1, r2, r3}
   29506:	c40e      	stmia	r4!, {r1, r2, r3}
   29508:	6d61      	ldr	r1, [r4, #84]	@ 0x54
   2950a:	910f      	str	r1, [sp, #60]	@ 0x3c
   2950c:	2800      	cmp	r0, #0
   2950e:	d001      	beq.n	29514 <_start+0x1914>
   29510:	f001 fe77 	bl	2b202 <_start+0x3602>
   29514:	4c70      	ldr	r4, [pc, #448]	@ (296d8 <_start+0x1ad8>)
   29516:	446c      	add	r4, sp
   29518:	990f      	ldr	r1, [sp, #60]	@ 0x3c
   2951a:	70e1      	strb	r1, [r4, #3]
   2951c:	9810      	ldr	r0, [sp, #64]	@ 0x40
   2951e:	8020      	strh	r0, [r4, #0]
   29520:	0e08      	lsrs	r0, r1, #24
   29522:	71a0      	strb	r0, [r4, #6]
   29524:	0c08      	lsrs	r0, r1, #16
   29526:	7160      	strb	r0, [r4, #5]
   29528:	0a08      	lsrs	r0, r1, #8
   2952a:	7120      	strb	r0, [r4, #4]
   2952c:	a810      	add	r0, sp, #64	@ 0x40
   2952e:	7880      	ldrb	r0, [r0, #2]
   29530:	70a0      	strb	r0, [r4, #2]
   29532:	1de0      	adds	r0, r4, #7
   29534:	4963      	ldr	r1, [pc, #396]	@ (296c4 <_start+0x1ac4>)
   29536:	4469      	add	r1, sp
   29538:	220d      	movs	r2, #13
   2953a:	f002 f886 	bl	2b64a <__aeabi_memcpy>
   2953e:	4d60      	ldr	r5, [pc, #384]	@ (296c0 <_start+0x1ac0>)
   29540:	446d      	add	r5, sp
   29542:	4628      	mov	r0, r5
   29544:	4621      	mov	r1, r4
   29546:	f7fc fc7d 	bl	25e44 <_ZN20complex_dynamic_type3app17hcdc7fee5dc659edaE>
   2954a:	7828      	ldrb	r0, [r5, #0]
   2954c:	2801      	cmp	r0, #1
   2954e:	d103      	bne.n	29558 <_start+0x1958>
   29550:	990d      	ldr	r1, [sp, #52]	@ 0x34
   29552:	6e09      	ldr	r1, [r1, #96]	@ 0x60
   29554:	910f      	str	r1, [sp, #60]	@ 0x3c
   29556:	e015      	b.n	29584 <_start+0x1984>
   29558:	4959      	ldr	r1, [pc, #356]	@ (296c0 <_start+0x1ac0>)
   2955a:	4469      	add	r1, sp
   2955c:	78ca      	ldrb	r2, [r1, #3]
   2955e:	ab10      	add	r3, sp, #64	@ 0x40
   29560:	709a      	strb	r2, [r3, #2]
   29562:	784a      	ldrb	r2, [r1, #1]
   29564:	788c      	ldrb	r4, [r1, #2]
   29566:	0224      	lsls	r4, r4, #8
   29568:	18a2      	adds	r2, r4, r2
   2956a:	801a      	strh	r2, [r3, #0]
   2956c:	3108      	adds	r1, #8
   2956e:	9a0d      	ldr	r2, [sp, #52]	@ 0x34
   29570:	6e12      	ldr	r2, [r2, #96]	@ 0x60
   29572:	920f      	str	r2, [sp, #60]	@ 0x3c
   29574:	4a53      	ldr	r2, [pc, #332]	@ (296c4 <_start+0x1ac4>)
   29576:	446a      	add	r2, sp
   29578:	c938      	ldmia	r1!, {r3, r4, r5}
   2957a:	c238      	stmia	r2!, {r3, r4, r5}
   2957c:	c938      	ldmia	r1!, {r3, r4, r5}
   2957e:	c238      	stmia	r2!, {r3, r4, r5}
   29580:	c938      	ldmia	r1!, {r3, r4, r5}
   29582:	c238      	stmia	r2!, {r3, r4, r5}
   29584:	2800      	cmp	r0, #0
   29586:	d001      	beq.n	2958c <_start+0x198c>
   29588:	f001 fe3b 	bl	2b202 <_start+0x3602>
   2958c:	4c53      	ldr	r4, [pc, #332]	@ (296dc <_start+0x1adc>)
   2958e:	446c      	add	r4, sp
   29590:	990f      	ldr	r1, [sp, #60]	@ 0x3c
   29592:	70e1      	strb	r1, [r4, #3]
   29594:	9810      	ldr	r0, [sp, #64]	@ 0x40
   29596:	8020      	strh	r0, [r4, #0]
   29598:	0e08      	lsrs	r0, r1, #24
   2959a:	71a0      	strb	r0, [r4, #6]
   2959c:	0c08      	lsrs	r0, r1, #16
   2959e:	7160      	strb	r0, [r4, #5]
   295a0:	0a08      	lsrs	r0, r1, #8
   295a2:	7120      	strb	r0, [r4, #4]
   295a4:	a810      	add	r0, sp, #64	@ 0x40
   295a6:	7880      	ldrb	r0, [r0, #2]
   295a8:	70a0      	strb	r0, [r4, #2]
   295aa:	1de0      	adds	r0, r4, #7
   295ac:	4945      	ldr	r1, [pc, #276]	@ (296c4 <_start+0x1ac4>)
   295ae:	4469      	add	r1, sp
   295b0:	2224      	movs	r2, #36	@ 0x24
   295b2:	f002 f84a 	bl	2b64a <__aeabi_memcpy>
   295b6:	4d42      	ldr	r5, [pc, #264]	@ (296c0 <_start+0x1ac0>)
   295b8:	446d      	add	r5, sp
   295ba:	4628      	mov	r0, r5
   295bc:	4621      	mov	r1, r4
   295be:	f7fc fa77 	bl	25ab0 <_ZN20complex_dynamic_type3app17hc51e9eb5adb83728E>
   295c2:	7828      	ldrb	r0, [r5, #0]
   295c4:	2801      	cmp	r0, #1
   295c6:	d103      	bne.n	295d0 <_start+0x19d0>
   295c8:	990d      	ldr	r1, [sp, #52]	@ 0x34
   295ca:	6e09      	ldr	r1, [r1, #96]	@ 0x60
   295cc:	910f      	str	r1, [sp, #60]	@ 0x3c
   295ce:	e017      	b.n	29600 <_start+0x1a00>
   295d0:	493b      	ldr	r1, [pc, #236]	@ (296c0 <_start+0x1ac0>)
   295d2:	4469      	add	r1, sp
   295d4:	78ca      	ldrb	r2, [r1, #3]
   295d6:	ab10      	add	r3, sp, #64	@ 0x40
   295d8:	709a      	strb	r2, [r3, #2]
   295da:	784a      	ldrb	r2, [r1, #1]
   295dc:	788c      	ldrb	r4, [r1, #2]
   295de:	0224      	lsls	r4, r4, #8
   295e0:	18a2      	adds	r2, r4, r2
   295e2:	801a      	strh	r2, [r3, #0]
   295e4:	3108      	adds	r1, #8
   295e6:	9a0d      	ldr	r2, [sp, #52]	@ 0x34
   295e8:	6e12      	ldr	r2, [r2, #96]	@ 0x60
   295ea:	920f      	str	r2, [sp, #60]	@ 0x3c
   295ec:	4a35      	ldr	r2, [pc, #212]	@ (296c4 <_start+0x1ac4>)
   295ee:	446a      	add	r2, sp
   295f0:	c918      	ldmia	r1!, {r3, r4}
   295f2:	c218      	stmia	r2!, {r3, r4}
   295f4:	c938      	ldmia	r1!, {r3, r4, r5}
   295f6:	c238      	stmia	r2!, {r3, r4, r5}
   295f8:	880b      	ldrh	r3, [r1, #0]
   295fa:	8013      	strh	r3, [r2, #0]
   295fc:	7889      	ldrb	r1, [r1, #2]
   295fe:	7091      	strb	r1, [r2, #2]
   29600:	2800      	cmp	r0, #0
   29602:	d001      	beq.n	29608 <_start+0x1a08>
   29604:	f001 fdfd 	bl	2b202 <_start+0x3602>
   29608:	4c35      	ldr	r4, [pc, #212]	@ (296e0 <_start+0x1ae0>)
   2960a:	446c      	add	r4, sp
   2960c:	990f      	ldr	r1, [sp, #60]	@ 0x3c
   2960e:	70e1      	strb	r1, [r4, #3]
   29610:	9810      	ldr	r0, [sp, #64]	@ 0x40
   29612:	8020      	strh	r0, [r4, #0]
   29614:	0e08      	lsrs	r0, r1, #24
   29616:	71a0      	strb	r0, [r4, #6]
   29618:	0c08      	lsrs	r0, r1, #16
   2961a:	7160      	strb	r0, [r4, #5]
   2961c:	0a08      	lsrs	r0, r1, #8
   2961e:	7120      	strb	r0, [r4, #4]
   29620:	a810      	add	r0, sp, #64	@ 0x40
   29622:	7880      	ldrb	r0, [r0, #2]
   29624:	70a0      	strb	r0, [r4, #2]
   29626:	1de0      	adds	r0, r4, #7
   29628:	4926      	ldr	r1, [pc, #152]	@ (296c4 <_start+0x1ac4>)
   2962a:	4469      	add	r1, sp
   2962c:	2217      	movs	r2, #23
   2962e:	f002 f80c 	bl	2b64a <__aeabi_memcpy>
   29632:	4d23      	ldr	r5, [pc, #140]	@ (296c0 <_start+0x1ac0>)
   29634:	446d      	add	r5, sp
   29636:	4628      	mov	r0, r5
   29638:	4621      	mov	r1, r4
   2963a:	f7fc fb69 	bl	25d10 <_ZN20complex_dynamic_type3app17hcd37c1fdac6d3d4dE>
   2963e:	782c      	ldrb	r4, [r5, #0]
   29640:	2c01      	cmp	r4, #1
   29642:	d103      	bne.n	2964c <_start+0x1a4c>
   29644:	980d      	ldr	r0, [sp, #52]	@ 0x34
   29646:	6e00      	ldr	r0, [r0, #96]	@ 0x60
   29648:	900f      	str	r0, [sp, #60]	@ 0x3c
   2964a:	e012      	b.n	29672 <_start+0x1a72>
   2964c:	491c      	ldr	r1, [pc, #112]	@ (296c0 <_start+0x1ac0>)
   2964e:	4469      	add	r1, sp
   29650:	78c8      	ldrb	r0, [r1, #3]
   29652:	aa10      	add	r2, sp, #64	@ 0x40
   29654:	7090      	strb	r0, [r2, #2]
   29656:	7848      	ldrb	r0, [r1, #1]
   29658:	788b      	ldrb	r3, [r1, #2]
   2965a:	021b      	lsls	r3, r3, #8
   2965c:	1818      	adds	r0, r3, r0
   2965e:	8010      	strh	r0, [r2, #0]
   29660:	980d      	ldr	r0, [sp, #52]	@ 0x34
   29662:	6e00      	ldr	r0, [r0, #96]	@ 0x60
   29664:	900f      	str	r0, [sp, #60]	@ 0x3c
   29666:	3108      	adds	r1, #8
   29668:	4816      	ldr	r0, [pc, #88]	@ (296c4 <_start+0x1ac4>)
   2966a:	4468      	add	r0, sp
   2966c:	224a      	movs	r2, #74	@ 0x4a
   2966e:	f001 fe8c 	bl	2b38a <__aeabi_memcpy4>
   29672:	2c00      	cmp	r4, #0
   29674:	d001      	beq.n	2967a <_start+0x1a7a>
   29676:	f001 fdc4 	bl	2b202 <_start+0x3602>
   2967a:	4c1a      	ldr	r4, [pc, #104]	@ (296e4 <_start+0x1ae4>)
   2967c:	446c      	add	r4, sp
   2967e:	990f      	ldr	r1, [sp, #60]	@ 0x3c
   29680:	70e1      	strb	r1, [r4, #3]
   29682:	9810      	ldr	r0, [sp, #64]	@ 0x40
   29684:	8020      	strh	r0, [r4, #0]
   29686:	0e08      	lsrs	r0, r1, #24
   29688:	71a0      	strb	r0, [r4, #6]
   2968a:	0c08      	lsrs	r0, r1, #16
   2968c:	7160      	strb	r0, [r4, #5]
   2968e:	0a08      	lsrs	r0, r1, #8
   29690:	7120      	strb	r0, [r4, #4]
   29692:	a810      	add	r0, sp, #64	@ 0x40
   29694:	7880      	ldrb	r0, [r0, #2]
   29696:	70a0      	strb	r0, [r4, #2]
   29698:	1de0      	adds	r0, r4, #7
   2969a:	490a      	ldr	r1, [pc, #40]	@ (296c4 <_start+0x1ac4>)
   2969c:	4469      	add	r1, sp
   2969e:	224a      	movs	r2, #74	@ 0x4a
   296a0:	f001 ffd3 	bl	2b64a <__aeabi_memcpy>
   296a4:	4d06      	ldr	r5, [pc, #24]	@ (296c0 <_start+0x1ac0>)
   296a6:	446d      	add	r5, sp
   296a8:	4628      	mov	r0, r5
   296aa:	4621      	mov	r1, r4
   296ac:	f7fb f9ae 	bl	24a0c <_ZN20complex_dynamic_type3app17h9e20bbcc0bcf48b9E>
   296b0:	7829      	ldrb	r1, [r5, #0]
   296b2:	2901      	cmp	r1, #1
   296b4:	d118      	bne.n	296e8 <_start+0x1ae8>
   296b6:	980d      	ldr	r0, [sp, #52]	@ 0x34
   296b8:	6e00      	ldr	r0, [r0, #96]	@ 0x60
   296ba:	900f      	str	r0, [sp, #60]	@ 0x3c
   296bc:	e024      	b.n	29708 <_start+0x1b08>
   296be:	46c0      	nop			@ (mov r8, r8)
   296c0:	00001414 	.word	0x00001414
   296c4:	000013b8 	.word	0x000013b8
   296c8:	00000630 	.word	0x00000630
   296cc:	00000684 	.word	0x00000684
   296d0:	000006d4 	.word	0x000006d4
   296d4:	00000710 	.word	0x00000710
   296d8:	00000738 	.word	0x00000738
   296dc:	0000074c 	.word	0x0000074c
   296e0:	00000778 	.word	0x00000778
   296e4:	00000798 	.word	0x00000798
   296e8:	48ef      	ldr	r0, [pc, #956]	@ (29aa8 <_start+0x1ea8>)
   296ea:	4468      	add	r0, sp
   296ec:	78c2      	ldrb	r2, [r0, #3]
   296ee:	4bef      	ldr	r3, [pc, #956]	@ (29aac <_start+0x1eac>)
   296f0:	446b      	add	r3, sp
   296f2:	709a      	strb	r2, [r3, #2]
   296f4:	7842      	ldrb	r2, [r0, #1]
   296f6:	7880      	ldrb	r0, [r0, #2]
   296f8:	0200      	lsls	r0, r0, #8
   296fa:	1880      	adds	r0, r0, r2
   296fc:	8018      	strh	r0, [r3, #0]
   296fe:	980d      	ldr	r0, [sp, #52]	@ 0x34
   29700:	6e02      	ldr	r2, [r0, #96]	@ 0x60
   29702:	920f      	str	r2, [sp, #60]	@ 0x3c
   29704:	6e42      	ldr	r2, [r0, #100]	@ 0x64
   29706:	6e80      	ldr	r0, [r0, #104]	@ 0x68
   29708:	2900      	cmp	r1, #0
   2970a:	d001      	beq.n	29710 <_start+0x1b10>
   2970c:	f001 fd79 	bl	2b202 <_start+0x3602>
   29710:	9905      	ldr	r1, [sp, #20]
   29712:	1ccb      	adds	r3, r1, #3
   29714:	711a      	strb	r2, [r3, #4]
   29716:	9d0f      	ldr	r5, [sp, #60]	@ 0x3c
   29718:	701d      	strb	r5, [r3, #0]
   2971a:	49e5      	ldr	r1, [pc, #916]	@ (29ab0 <_start+0x1eb0>)
   2971c:	4469      	add	r1, sp
   2971e:	9c0d      	ldr	r4, [sp, #52]	@ 0x34
   29720:	6824      	ldr	r4, [r4, #0]
   29722:	800c      	strh	r4, [r1, #0]
   29724:	7218      	strb	r0, [r3, #8]
   29726:	0e14      	lsrs	r4, r2, #24
   29728:	71dc      	strb	r4, [r3, #7]
   2972a:	0c14      	lsrs	r4, r2, #16
   2972c:	719c      	strb	r4, [r3, #6]
   2972e:	0a12      	lsrs	r2, r2, #8
   29730:	715a      	strb	r2, [r3, #5]
   29732:	0e2a      	lsrs	r2, r5, #24
   29734:	70da      	strb	r2, [r3, #3]
   29736:	0c2a      	lsrs	r2, r5, #16
   29738:	709a      	strb	r2, [r3, #2]
   2973a:	0a2a      	lsrs	r2, r5, #8
   2973c:	705a      	strb	r2, [r3, #1]
   2973e:	4adb      	ldr	r2, [pc, #876]	@ (29aac <_start+0x1eac>)
   29740:	446a      	add	r2, sp
   29742:	7892      	ldrb	r2, [r2, #2]
   29744:	708a      	strb	r2, [r1, #2]
   29746:	0e02      	lsrs	r2, r0, #24
   29748:	72da      	strb	r2, [r3, #11]
   2974a:	0c02      	lsrs	r2, r0, #16
   2974c:	729a      	strb	r2, [r3, #10]
   2974e:	0a00      	lsrs	r0, r0, #8
   29750:	7258      	strb	r0, [r3, #9]
   29752:	4cd5      	ldr	r4, [pc, #852]	@ (29aa8 <_start+0x1ea8>)
   29754:	446c      	add	r4, sp
   29756:	4620      	mov	r0, r4
   29758:	f7fa fc02 	bl	23f60 <_ZN20complex_dynamic_type3app17h89f68b83b9dc7ab0E>
   2975c:	7820      	ldrb	r0, [r4, #0]
   2975e:	2801      	cmp	r0, #1
   29760:	d103      	bne.n	2976a <_start+0x1b6a>
   29762:	990d      	ldr	r1, [sp, #52]	@ 0x34
   29764:	6e09      	ldr	r1, [r1, #96]	@ 0x60
   29766:	910f      	str	r1, [sp, #60]	@ 0x3c
   29768:	e01b      	b.n	297a2 <_start+0x1ba2>
   2976a:	49cf      	ldr	r1, [pc, #828]	@ (29aa8 <_start+0x1ea8>)
   2976c:	4469      	add	r1, sp
   2976e:	78ca      	ldrb	r2, [r1, #3]
   29770:	ab10      	add	r3, sp, #64	@ 0x40
   29772:	709a      	strb	r2, [r3, #2]
   29774:	784a      	ldrb	r2, [r1, #1]
   29776:	788c      	ldrb	r4, [r1, #2]
   29778:	0224      	lsls	r4, r4, #8
   2977a:	18a2      	adds	r2, r4, r2
   2977c:	801a      	strh	r2, [r3, #0]
   2977e:	3108      	adds	r1, #8
   29780:	9a0d      	ldr	r2, [sp, #52]	@ 0x34
   29782:	6e12      	ldr	r2, [r2, #96]	@ 0x60
   29784:	920f      	str	r2, [sp, #60]	@ 0x3c
   29786:	4ac9      	ldr	r2, [pc, #804]	@ (29aac <_start+0x1eac>)
   29788:	446a      	add	r2, sp
   2978a:	c938      	ldmia	r1!, {r3, r4, r5}
   2978c:	c238      	stmia	r2!, {r3, r4, r5}
   2978e:	c978      	ldmia	r1!, {r3, r4, r5, r6}
   29790:	c278      	stmia	r2!, {r3, r4, r5, r6}
   29792:	c978      	ldmia	r1!, {r3, r4, r5, r6}
   29794:	c278      	stmia	r2!, {r3, r4, r5, r6}
   29796:	c978      	ldmia	r1!, {r3, r4, r5, r6}
   29798:	c278      	stmia	r2!, {r3, r4, r5, r6}
   2979a:	880b      	ldrh	r3, [r1, #0]
   2979c:	8013      	strh	r3, [r2, #0]
   2979e:	7889      	ldrb	r1, [r1, #2]
   297a0:	7091      	strb	r1, [r2, #2]
   297a2:	2800      	cmp	r0, #0
   297a4:	d001      	beq.n	297aa <_start+0x1baa>
   297a6:	f001 fd2c 	bl	2b202 <_start+0x3602>
   297aa:	4cc2      	ldr	r4, [pc, #776]	@ (29ab4 <_start+0x1eb4>)
   297ac:	446c      	add	r4, sp
   297ae:	990f      	ldr	r1, [sp, #60]	@ 0x3c
   297b0:	70e1      	strb	r1, [r4, #3]
   297b2:	9810      	ldr	r0, [sp, #64]	@ 0x40
   297b4:	8020      	strh	r0, [r4, #0]
   297b6:	0e08      	lsrs	r0, r1, #24
   297b8:	71a0      	strb	r0, [r4, #6]
   297ba:	0c08      	lsrs	r0, r1, #16
   297bc:	7160      	strb	r0, [r4, #5]
   297be:	0a08      	lsrs	r0, r1, #8
   297c0:	7120      	strb	r0, [r4, #4]
   297c2:	a810      	add	r0, sp, #64	@ 0x40
   297c4:	7880      	ldrb	r0, [r0, #2]
   297c6:	70a0      	strb	r0, [r4, #2]
   297c8:	1de0      	adds	r0, r4, #7
   297ca:	49b8      	ldr	r1, [pc, #736]	@ (29aac <_start+0x1eac>)
   297cc:	4469      	add	r1, sp
   297ce:	223f      	movs	r2, #63	@ 0x3f
   297d0:	f001 ff3b 	bl	2b64a <__aeabi_memcpy>
   297d4:	4db4      	ldr	r5, [pc, #720]	@ (29aa8 <_start+0x1ea8>)
   297d6:	446d      	add	r5, sp
   297d8:	4628      	mov	r0, r5
   297da:	4621      	mov	r1, r4
   297dc:	f7fd fd52 	bl	27284 <_ZN20complex_dynamic_type3app17hea4a81755df7de80E>
   297e0:	782c      	ldrb	r4, [r5, #0]
   297e2:	2c01      	cmp	r4, #1
   297e4:	d103      	bne.n	297ee <_start+0x1bee>
   297e6:	980d      	ldr	r0, [sp, #52]	@ 0x34
   297e8:	6e00      	ldr	r0, [r0, #96]	@ 0x60
   297ea:	900f      	str	r0, [sp, #60]	@ 0x3c
   297ec:	e012      	b.n	29814 <_start+0x1c14>
   297ee:	49ae      	ldr	r1, [pc, #696]	@ (29aa8 <_start+0x1ea8>)
   297f0:	4469      	add	r1, sp
   297f2:	78c8      	ldrb	r0, [r1, #3]
   297f4:	aa10      	add	r2, sp, #64	@ 0x40
   297f6:	7090      	strb	r0, [r2, #2]
   297f8:	7848      	ldrb	r0, [r1, #1]
   297fa:	788b      	ldrb	r3, [r1, #2]
   297fc:	021b      	lsls	r3, r3, #8
   297fe:	1818      	adds	r0, r3, r0
   29800:	8010      	strh	r0, [r2, #0]
   29802:	980d      	ldr	r0, [sp, #52]	@ 0x34
   29804:	6e00      	ldr	r0, [r0, #96]	@ 0x60
   29806:	900f      	str	r0, [sp, #60]	@ 0x3c
   29808:	3108      	adds	r1, #8
   2980a:	48a8      	ldr	r0, [pc, #672]	@ (29aac <_start+0x1eac>)
   2980c:	4468      	add	r0, sp
   2980e:	224f      	movs	r2, #79	@ 0x4f
   29810:	f001 fdbb 	bl	2b38a <__aeabi_memcpy4>
   29814:	2c00      	cmp	r4, #0
   29816:	d001      	beq.n	2981c <_start+0x1c1c>
   29818:	f001 fcf3 	bl	2b202 <_start+0x3602>
   2981c:	4ca6      	ldr	r4, [pc, #664]	@ (29ab8 <_start+0x1eb8>)
   2981e:	446c      	add	r4, sp
   29820:	990f      	ldr	r1, [sp, #60]	@ 0x3c
   29822:	70e1      	strb	r1, [r4, #3]
   29824:	9810      	ldr	r0, [sp, #64]	@ 0x40
   29826:	8020      	strh	r0, [r4, #0]
   29828:	0e08      	lsrs	r0, r1, #24
   2982a:	71a0      	strb	r0, [r4, #6]
   2982c:	0c08      	lsrs	r0, r1, #16
   2982e:	7160      	strb	r0, [r4, #5]
   29830:	0a08      	lsrs	r0, r1, #8
   29832:	7120      	strb	r0, [r4, #4]
   29834:	a810      	add	r0, sp, #64	@ 0x40
   29836:	7880      	ldrb	r0, [r0, #2]
   29838:	70a0      	strb	r0, [r4, #2]
   2983a:	1de0      	adds	r0, r4, #7
   2983c:	499b      	ldr	r1, [pc, #620]	@ (29aac <_start+0x1eac>)
   2983e:	4469      	add	r1, sp
   29840:	224f      	movs	r2, #79	@ 0x4f
   29842:	f001 ff02 	bl	2b64a <__aeabi_memcpy>
   29846:	4d98      	ldr	r5, [pc, #608]	@ (29aa8 <_start+0x1ea8>)
   29848:	446d      	add	r5, sp
   2984a:	4628      	mov	r0, r5
   2984c:	4621      	mov	r1, r4
   2984e:	f7fc fc29 	bl	260a4 <_ZN20complex_dynamic_type3app17hd097f7385a620d34E>
   29852:	782c      	ldrb	r4, [r5, #0]
   29854:	2c01      	cmp	r4, #1
   29856:	d103      	bne.n	29860 <_start+0x1c60>
   29858:	980d      	ldr	r0, [sp, #52]	@ 0x34
   2985a:	6e00      	ldr	r0, [r0, #96]	@ 0x60
   2985c:	900f      	str	r0, [sp, #60]	@ 0x3c
   2985e:	e012      	b.n	29886 <_start+0x1c86>
   29860:	4991      	ldr	r1, [pc, #580]	@ (29aa8 <_start+0x1ea8>)
   29862:	4469      	add	r1, sp
   29864:	78c8      	ldrb	r0, [r1, #3]
   29866:	aa10      	add	r2, sp, #64	@ 0x40
   29868:	7090      	strb	r0, [r2, #2]
   2986a:	7848      	ldrb	r0, [r1, #1]
   2986c:	788b      	ldrb	r3, [r1, #2]
   2986e:	021b      	lsls	r3, r3, #8
   29870:	1818      	adds	r0, r3, r0
   29872:	8010      	strh	r0, [r2, #0]
   29874:	980d      	ldr	r0, [sp, #52]	@ 0x34
   29876:	6e00      	ldr	r0, [r0, #96]	@ 0x60
   29878:	900f      	str	r0, [sp, #60]	@ 0x3c
   2987a:	3108      	adds	r1, #8
   2987c:	488b      	ldr	r0, [pc, #556]	@ (29aac <_start+0x1eac>)
   2987e:	4468      	add	r0, sp
   29880:	2242      	movs	r2, #66	@ 0x42
   29882:	f001 fd82 	bl	2b38a <__aeabi_memcpy4>
   29886:	2c00      	cmp	r4, #0
   29888:	d001      	beq.n	2988e <_start+0x1c8e>
   2988a:	f001 fcba 	bl	2b202 <_start+0x3602>
   2988e:	4c8b      	ldr	r4, [pc, #556]	@ (29abc <_start+0x1ebc>)
   29890:	446c      	add	r4, sp
   29892:	990f      	ldr	r1, [sp, #60]	@ 0x3c
   29894:	70e1      	strb	r1, [r4, #3]
   29896:	9810      	ldr	r0, [sp, #64]	@ 0x40
   29898:	8020      	strh	r0, [r4, #0]
   2989a:	0e08      	lsrs	r0, r1, #24
   2989c:	71a0      	strb	r0, [r4, #6]
   2989e:	0c08      	lsrs	r0, r1, #16
   298a0:	7160      	strb	r0, [r4, #5]
   298a2:	0a08      	lsrs	r0, r1, #8
   298a4:	7120      	strb	r0, [r4, #4]
   298a6:	a810      	add	r0, sp, #64	@ 0x40
   298a8:	7880      	ldrb	r0, [r0, #2]
   298aa:	70a0      	strb	r0, [r4, #2]
   298ac:	1de0      	adds	r0, r4, #7
   298ae:	497f      	ldr	r1, [pc, #508]	@ (29aac <_start+0x1eac>)
   298b0:	4469      	add	r1, sp
   298b2:	2242      	movs	r2, #66	@ 0x42
   298b4:	f001 fec9 	bl	2b64a <__aeabi_memcpy>
   298b8:	4d7b      	ldr	r5, [pc, #492]	@ (29aa8 <_start+0x1ea8>)
   298ba:	446d      	add	r5, sp
   298bc:	4628      	mov	r0, r5
   298be:	4621      	mov	r1, r4
   298c0:	f7f8 f8d6 	bl	21a70 <_ZN20complex_dynamic_type3app17h30dbece71511da4bE>
   298c4:	7828      	ldrb	r0, [r5, #0]
   298c6:	2801      	cmp	r0, #1
   298c8:	d103      	bne.n	298d2 <_start+0x1cd2>
   298ca:	990d      	ldr	r1, [sp, #52]	@ 0x34
   298cc:	6e09      	ldr	r1, [r1, #96]	@ 0x60
   298ce:	910f      	str	r1, [sp, #60]	@ 0x3c
   298d0:	e013      	b.n	298fa <_start+0x1cfa>
   298d2:	4975      	ldr	r1, [pc, #468]	@ (29aa8 <_start+0x1ea8>)
   298d4:	4469      	add	r1, sp
   298d6:	78ca      	ldrb	r2, [r1, #3]
   298d8:	ab10      	add	r3, sp, #64	@ 0x40
   298da:	709a      	strb	r2, [r3, #2]
   298dc:	784a      	ldrb	r2, [r1, #1]
   298de:	788c      	ldrb	r4, [r1, #2]
   298e0:	0224      	lsls	r4, r4, #8
   298e2:	18a2      	adds	r2, r4, r2
   298e4:	801a      	strh	r2, [r3, #0]
   298e6:	3108      	adds	r1, #8
   298e8:	9a0d      	ldr	r2, [sp, #52]	@ 0x34
   298ea:	6e12      	ldr	r2, [r2, #96]	@ 0x60
   298ec:	920f      	str	r2, [sp, #60]	@ 0x3c
   298ee:	4a6f      	ldr	r2, [pc, #444]	@ (29aac <_start+0x1eac>)
   298f0:	446a      	add	r2, sp
   298f2:	c938      	ldmia	r1!, {r3, r4, r5}
   298f4:	c238      	stmia	r2!, {r3, r4, r5}
   298f6:	c978      	ldmia	r1!, {r3, r4, r5, r6}
   298f8:	c278      	stmia	r2!, {r3, r4, r5, r6}
   298fa:	2800      	cmp	r0, #0
   298fc:	d001      	beq.n	29902 <_start+0x1d02>
   298fe:	f001 fc80 	bl	2b202 <_start+0x3602>
   29902:	4c6f      	ldr	r4, [pc, #444]	@ (29ac0 <_start+0x1ec0>)
   29904:	446c      	add	r4, sp
   29906:	990f      	ldr	r1, [sp, #60]	@ 0x3c
   29908:	70e1      	strb	r1, [r4, #3]
   2990a:	9810      	ldr	r0, [sp, #64]	@ 0x40
   2990c:	8020      	strh	r0, [r4, #0]
   2990e:	0e08      	lsrs	r0, r1, #24
   29910:	71a0      	strb	r0, [r4, #6]
   29912:	0c08      	lsrs	r0, r1, #16
   29914:	7160      	strb	r0, [r4, #5]
   29916:	0a08      	lsrs	r0, r1, #8
   29918:	7120      	strb	r0, [r4, #4]
   2991a:	a810      	add	r0, sp, #64	@ 0x40
   2991c:	7880      	ldrb	r0, [r0, #2]
   2991e:	70a0      	strb	r0, [r4, #2]
   29920:	1de0      	adds	r0, r4, #7
   29922:	4962      	ldr	r1, [pc, #392]	@ (29aac <_start+0x1eac>)
   29924:	4469      	add	r1, sp
   29926:	221c      	movs	r2, #28
   29928:	f001 fe8f 	bl	2b64a <__aeabi_memcpy>
   2992c:	4d5e      	ldr	r5, [pc, #376]	@ (29aa8 <_start+0x1ea8>)
   2992e:	446d      	add	r5, sp
   29930:	4628      	mov	r0, r5
   29932:	4621      	mov	r1, r4
   29934:	f7fc fc4e 	bl	261d4 <_ZN20complex_dynamic_type3app17hd44ca80db79e3c4fE>
   29938:	7828      	ldrb	r0, [r5, #0]
   2993a:	2801      	cmp	r0, #1
   2993c:	d103      	bne.n	29946 <_start+0x1d46>
   2993e:	990d      	ldr	r1, [sp, #52]	@ 0x34
   29940:	6e09      	ldr	r1, [r1, #96]	@ 0x60
   29942:	910f      	str	r1, [sp, #60]	@ 0x3c
   29944:	e015      	b.n	29972 <_start+0x1d72>
   29946:	4958      	ldr	r1, [pc, #352]	@ (29aa8 <_start+0x1ea8>)
   29948:	4469      	add	r1, sp
   2994a:	78ca      	ldrb	r2, [r1, #3]
   2994c:	ab10      	add	r3, sp, #64	@ 0x40
   2994e:	709a      	strb	r2, [r3, #2]
   29950:	784a      	ldrb	r2, [r1, #1]
   29952:	788c      	ldrb	r4, [r1, #2]
   29954:	0224      	lsls	r4, r4, #8
   29956:	18a2      	adds	r2, r4, r2
   29958:	801a      	strh	r2, [r3, #0]
   2995a:	3108      	adds	r1, #8
   2995c:	9a0d      	ldr	r2, [sp, #52]	@ 0x34
   2995e:	6e12      	ldr	r2, [r2, #96]	@ 0x60
   29960:	920f      	str	r2, [sp, #60]	@ 0x3c
   29962:	4a52      	ldr	r2, [pc, #328]	@ (29aac <_start+0x1eac>)
   29964:	446a      	add	r2, sp
   29966:	c938      	ldmia	r1!, {r3, r4, r5}
   29968:	c238      	stmia	r2!, {r3, r4, r5}
   2996a:	c938      	ldmia	r1!, {r3, r4, r5}
   2996c:	c238      	stmia	r2!, {r3, r4, r5}
   2996e:	c938      	ldmia	r1!, {r3, r4, r5}
   29970:	c238      	stmia	r2!, {r3, r4, r5}
   29972:	2800      	cmp	r0, #0
   29974:	d001      	beq.n	2997a <_start+0x1d7a>
   29976:	f001 fc44 	bl	2b202 <_start+0x3602>
   2997a:	4c52      	ldr	r4, [pc, #328]	@ (29ac4 <_start+0x1ec4>)
   2997c:	446c      	add	r4, sp
   2997e:	990f      	ldr	r1, [sp, #60]	@ 0x3c
   29980:	70e1      	strb	r1, [r4, #3]
   29982:	9810      	ldr	r0, [sp, #64]	@ 0x40
   29984:	8020      	strh	r0, [r4, #0]
   29986:	0e08      	lsrs	r0, r1, #24
   29988:	71a0      	strb	r0, [r4, #6]
   2998a:	0c08      	lsrs	r0, r1, #16
   2998c:	7160      	strb	r0, [r4, #5]
   2998e:	0a08      	lsrs	r0, r1, #8
   29990:	7120      	strb	r0, [r4, #4]
   29992:	a810      	add	r0, sp, #64	@ 0x40
   29994:	7880      	ldrb	r0, [r0, #2]
   29996:	70a0      	strb	r0, [r4, #2]
   29998:	1de0      	adds	r0, r4, #7
   2999a:	4944      	ldr	r1, [pc, #272]	@ (29aac <_start+0x1eac>)
   2999c:	4469      	add	r1, sp
   2999e:	2224      	movs	r2, #36	@ 0x24
   299a0:	f001 fe53 	bl	2b64a <__aeabi_memcpy>
   299a4:	4d40      	ldr	r5, [pc, #256]	@ (29aa8 <_start+0x1ea8>)
   299a6:	446d      	add	r5, sp
   299a8:	4628      	mov	r0, r5
   299aa:	4621      	mov	r1, r4
   299ac:	f7f8 feea 	bl	22784 <_ZN20complex_dynamic_type3app17h4c94003244ae301aE>
   299b0:	7828      	ldrb	r0, [r5, #0]
   299b2:	2801      	cmp	r0, #1
   299b4:	d102      	bne.n	299bc <_start+0x1dbc>
   299b6:	990d      	ldr	r1, [sp, #52]	@ 0x34
   299b8:	6e09      	ldr	r1, [r1, #96]	@ 0x60
   299ba:	e011      	b.n	299e0 <_start+0x1de0>
   299bc:	493b      	ldr	r1, [pc, #236]	@ (29aac <_start+0x1eac>)
   299be:	4469      	add	r1, sp
   299c0:	9c0d      	ldr	r4, [sp, #52]	@ 0x34
   299c2:	6ea2      	ldr	r2, [r4, #104]	@ 0x68
   299c4:	808a      	strh	r2, [r1, #4]
   299c6:	4938      	ldr	r1, [pc, #224]	@ (29aa8 <_start+0x1ea8>)
   299c8:	4469      	add	r1, sp
   299ca:	78ca      	ldrb	r2, [r1, #3]
   299cc:	ab10      	add	r3, sp, #64	@ 0x40
   299ce:	709a      	strb	r2, [r3, #2]
   299d0:	784a      	ldrb	r2, [r1, #1]
   299d2:	7889      	ldrb	r1, [r1, #2]
   299d4:	0209      	lsls	r1, r1, #8
   299d6:	1889      	adds	r1, r1, r2
   299d8:	8019      	strh	r1, [r3, #0]
   299da:	6e61      	ldr	r1, [r4, #100]	@ 0x64
   299dc:	6021      	str	r1, [r4, #0]
   299de:	6e21      	ldr	r1, [r4, #96]	@ 0x60
   299e0:	910f      	str	r1, [sp, #60]	@ 0x3c
   299e2:	2800      	cmp	r0, #0
   299e4:	d001      	beq.n	299ea <_start+0x1dea>
   299e6:	f001 fc0c 	bl	2b202 <_start+0x3602>
   299ea:	4c37      	ldr	r4, [pc, #220]	@ (29ac8 <_start+0x1ec8>)
   299ec:	446c      	add	r4, sp
   299ee:	990f      	ldr	r1, [sp, #60]	@ 0x3c
   299f0:	70e1      	strb	r1, [r4, #3]
   299f2:	9810      	ldr	r0, [sp, #64]	@ 0x40
   299f4:	8020      	strh	r0, [r4, #0]
   299f6:	0e08      	lsrs	r0, r1, #24
   299f8:	71a0      	strb	r0, [r4, #6]
   299fa:	0c08      	lsrs	r0, r1, #16
   299fc:	7160      	strb	r0, [r4, #5]
   299fe:	0a08      	lsrs	r0, r1, #8
   29a00:	7120      	strb	r0, [r4, #4]
   29a02:	a810      	add	r0, sp, #64	@ 0x40
   29a04:	7880      	ldrb	r0, [r0, #2]
   29a06:	70a0      	strb	r0, [r4, #2]
   29a08:	1de0      	adds	r0, r4, #7
   29a0a:	4928      	ldr	r1, [pc, #160]	@ (29aac <_start+0x1eac>)
   29a0c:	4469      	add	r1, sp
   29a0e:	2206      	movs	r2, #6
   29a10:	f001 fe1b 	bl	2b64a <__aeabi_memcpy>
   29a14:	4d24      	ldr	r5, [pc, #144]	@ (29aa8 <_start+0x1ea8>)
   29a16:	446d      	add	r5, sp
   29a18:	4628      	mov	r0, r5
   29a1a:	4621      	mov	r1, r4
   29a1c:	f7f8 f95a 	bl	21cd4 <_ZN20complex_dynamic_type3app17h331250f970233509E>
   29a20:	7828      	ldrb	r0, [r5, #0]
   29a22:	2801      	cmp	r0, #1
   29a24:	d103      	bne.n	29a2e <_start+0x1e2e>
   29a26:	990d      	ldr	r1, [sp, #52]	@ 0x34
   29a28:	6e09      	ldr	r1, [r1, #96]	@ 0x60
   29a2a:	910f      	str	r1, [sp, #60]	@ 0x3c
   29a2c:	e015      	b.n	29a5a <_start+0x1e5a>
   29a2e:	491e      	ldr	r1, [pc, #120]	@ (29aa8 <_start+0x1ea8>)
   29a30:	4469      	add	r1, sp
   29a32:	78ca      	ldrb	r2, [r1, #3]
   29a34:	ab10      	add	r3, sp, #64	@ 0x40
   29a36:	709a      	strb	r2, [r3, #2]
   29a38:	784a      	ldrb	r2, [r1, #1]
   29a3a:	788c      	ldrb	r4, [r1, #2]
   29a3c:	0224      	lsls	r4, r4, #8
   29a3e:	18a2      	adds	r2, r4, r2
   29a40:	801a      	strh	r2, [r3, #0]
   29a42:	3108      	adds	r1, #8
   29a44:	9a0d      	ldr	r2, [sp, #52]	@ 0x34
   29a46:	6e12      	ldr	r2, [r2, #96]	@ 0x60
   29a48:	920f      	str	r2, [sp, #60]	@ 0x3c
   29a4a:	4a18      	ldr	r2, [pc, #96]	@ (29aac <_start+0x1eac>)
   29a4c:	446a      	add	r2, sp
   29a4e:	c938      	ldmia	r1!, {r3, r4, r5}
   29a50:	c238      	stmia	r2!, {r3, r4, r5}
   29a52:	c938      	ldmia	r1!, {r3, r4, r5}
   29a54:	c238      	stmia	r2!, {r3, r4, r5}
   29a56:	8809      	ldrh	r1, [r1, #0]
   29a58:	8011      	strh	r1, [r2, #0]
   29a5a:	2800      	cmp	r0, #0
   29a5c:	d001      	beq.n	29a62 <_start+0x1e62>
   29a5e:	f001 fbd0 	bl	2b202 <_start+0x3602>
   29a62:	4c1a      	ldr	r4, [pc, #104]	@ (29acc <_start+0x1ecc>)
   29a64:	446c      	add	r4, sp
   29a66:	990f      	ldr	r1, [sp, #60]	@ 0x3c
   29a68:	70e1      	strb	r1, [r4, #3]
   29a6a:	9810      	ldr	r0, [sp, #64]	@ 0x40
   29a6c:	8020      	strh	r0, [r4, #0]
   29a6e:	0e08      	lsrs	r0, r1, #24
   29a70:	71a0      	strb	r0, [r4, #6]
   29a72:	0c08      	lsrs	r0, r1, #16
   29a74:	7160      	strb	r0, [r4, #5]
   29a76:	0a08      	lsrs	r0, r1, #8
   29a78:	7120      	strb	r0, [r4, #4]
   29a7a:	a810      	add	r0, sp, #64	@ 0x40
   29a7c:	7880      	ldrb	r0, [r0, #2]
   29a7e:	70a0      	strb	r0, [r4, #2]
   29a80:	1de0      	adds	r0, r4, #7
   29a82:	490a      	ldr	r1, [pc, #40]	@ (29aac <_start+0x1eac>)
   29a84:	4469      	add	r1, sp
   29a86:	221a      	movs	r2, #26
   29a88:	f001 fddf 	bl	2b64a <__aeabi_memcpy>
   29a8c:	4d06      	ldr	r5, [pc, #24]	@ (29aa8 <_start+0x1ea8>)
   29a8e:	446d      	add	r5, sp
   29a90:	4628      	mov	r0, r5
   29a92:	4621      	mov	r1, r4
   29a94:	f7f8 fd44 	bl	22520 <_ZN20complex_dynamic_type3app17h4a1f8b05dedb497dE>
   29a98:	782c      	ldrb	r4, [r5, #0]
   29a9a:	2c01      	cmp	r4, #1
   29a9c:	d118      	bne.n	29ad0 <_start+0x1ed0>
   29a9e:	980d      	ldr	r0, [sp, #52]	@ 0x34
   29aa0:	6e00      	ldr	r0, [r0, #96]	@ 0x60
   29aa2:	900f      	str	r0, [sp, #60]	@ 0x3c
   29aa4:	e027      	b.n	29af6 <_start+0x1ef6>
   29aa6:	46c0      	nop			@ (mov r8, r8)
   29aa8:	00001414 	.word	0x00001414
   29aac:	000013b8 	.word	0x000013b8
   29ab0:	000007ec 	.word	0x000007ec
   29ab4:	000007fc 	.word	0x000007fc
   29ab8:	00000844 	.word	0x00000844
   29abc:	0000089c 	.word	0x0000089c
   29ac0:	000008e8 	.word	0x000008e8
   29ac4:	0000090c 	.word	0x0000090c
   29ac8:	00000938 	.word	0x00000938
   29acc:	00000948 	.word	0x00000948
   29ad0:	49ea      	ldr	r1, [pc, #936]	@ (29e7c <_start+0x227c>)
   29ad2:	4469      	add	r1, sp
   29ad4:	78c8      	ldrb	r0, [r1, #3]
   29ad6:	aa10      	add	r2, sp, #64	@ 0x40
   29ad8:	7090      	strb	r0, [r2, #2]
   29ada:	7848      	ldrb	r0, [r1, #1]
   29adc:	788b      	ldrb	r3, [r1, #2]
   29ade:	021b      	lsls	r3, r3, #8
   29ae0:	1818      	adds	r0, r3, r0
   29ae2:	8010      	strh	r0, [r2, #0]
   29ae4:	980d      	ldr	r0, [sp, #52]	@ 0x34
   29ae6:	6e00      	ldr	r0, [r0, #96]	@ 0x60
   29ae8:	900f      	str	r0, [sp, #60]	@ 0x3c
   29aea:	3108      	adds	r1, #8
   29aec:	48e4      	ldr	r0, [pc, #912]	@ (29e80 <_start+0x2280>)
   29aee:	4468      	add	r0, sp
   29af0:	224c      	movs	r2, #76	@ 0x4c
   29af2:	f001 fc4a 	bl	2b38a <__aeabi_memcpy4>
   29af6:	2c00      	cmp	r4, #0
   29af8:	d001      	beq.n	29afe <_start+0x1efe>
   29afa:	f001 fb82 	bl	2b202 <_start+0x3602>
   29afe:	4ce1      	ldr	r4, [pc, #900]	@ (29e84 <_start+0x2284>)
   29b00:	446c      	add	r4, sp
   29b02:	990f      	ldr	r1, [sp, #60]	@ 0x3c
   29b04:	70e1      	strb	r1, [r4, #3]
   29b06:	9810      	ldr	r0, [sp, #64]	@ 0x40
   29b08:	8020      	strh	r0, [r4, #0]
   29b0a:	0e08      	lsrs	r0, r1, #24
   29b0c:	71a0      	strb	r0, [r4, #6]
   29b0e:	0c08      	lsrs	r0, r1, #16
   29b10:	7160      	strb	r0, [r4, #5]
   29b12:	0a08      	lsrs	r0, r1, #8
   29b14:	7120      	strb	r0, [r4, #4]
   29b16:	a810      	add	r0, sp, #64	@ 0x40
   29b18:	7880      	ldrb	r0, [r0, #2]
   29b1a:	70a0      	strb	r0, [r4, #2]
   29b1c:	1de0      	adds	r0, r4, #7
   29b1e:	49d8      	ldr	r1, [pc, #864]	@ (29e80 <_start+0x2280>)
   29b20:	4469      	add	r1, sp
   29b22:	224c      	movs	r2, #76	@ 0x4c
   29b24:	f001 fd91 	bl	2b64a <__aeabi_memcpy>
   29b28:	4dd4      	ldr	r5, [pc, #848]	@ (29e7c <_start+0x227c>)
   29b2a:	446d      	add	r5, sp
   29b2c:	4628      	mov	r0, r5
   29b2e:	4621      	mov	r1, r4
   29b30:	f7f7 fdd8 	bl	216e4 <_ZN20complex_dynamic_type3app17h2ba88a0bb1ba9a23E>
   29b34:	782c      	ldrb	r4, [r5, #0]
   29b36:	2c01      	cmp	r4, #1
   29b38:	d103      	bne.n	29b42 <_start+0x1f42>
   29b3a:	980d      	ldr	r0, [sp, #52]	@ 0x34
   29b3c:	6e00      	ldr	r0, [r0, #96]	@ 0x60
   29b3e:	900f      	str	r0, [sp, #60]	@ 0x3c
   29b40:	e012      	b.n	29b68 <_start+0x1f68>
   29b42:	49ce      	ldr	r1, [pc, #824]	@ (29e7c <_start+0x227c>)
   29b44:	4469      	add	r1, sp
   29b46:	78c8      	ldrb	r0, [r1, #3]
   29b48:	aa10      	add	r2, sp, #64	@ 0x40
   29b4a:	7090      	strb	r0, [r2, #2]
   29b4c:	7848      	ldrb	r0, [r1, #1]
   29b4e:	788b      	ldrb	r3, [r1, #2]
   29b50:	021b      	lsls	r3, r3, #8
   29b52:	1818      	adds	r0, r3, r0
   29b54:	8010      	strh	r0, [r2, #0]
   29b56:	980d      	ldr	r0, [sp, #52]	@ 0x34
   29b58:	6e00      	ldr	r0, [r0, #96]	@ 0x60
   29b5a:	900f      	str	r0, [sp, #60]	@ 0x3c
   29b5c:	3108      	adds	r1, #8
   29b5e:	48c8      	ldr	r0, [pc, #800]	@ (29e80 <_start+0x2280>)
   29b60:	4468      	add	r0, sp
   29b62:	2246      	movs	r2, #70	@ 0x46
   29b64:	f001 fc11 	bl	2b38a <__aeabi_memcpy4>
   29b68:	2c00      	cmp	r4, #0
   29b6a:	d001      	beq.n	29b70 <_start+0x1f70>
   29b6c:	f001 fb49 	bl	2b202 <_start+0x3602>
   29b70:	4cc5      	ldr	r4, [pc, #788]	@ (29e88 <_start+0x2288>)
   29b72:	446c      	add	r4, sp
   29b74:	990f      	ldr	r1, [sp, #60]	@ 0x3c
   29b76:	70e1      	strb	r1, [r4, #3]
   29b78:	9810      	ldr	r0, [sp, #64]	@ 0x40
   29b7a:	8020      	strh	r0, [r4, #0]
   29b7c:	0e08      	lsrs	r0, r1, #24
   29b7e:	71a0      	strb	r0, [r4, #6]
   29b80:	0c08      	lsrs	r0, r1, #16
   29b82:	7160      	strb	r0, [r4, #5]
   29b84:	0a08      	lsrs	r0, r1, #8
   29b86:	7120      	strb	r0, [r4, #4]
   29b88:	a810      	add	r0, sp, #64	@ 0x40
   29b8a:	7880      	ldrb	r0, [r0, #2]
   29b8c:	70a0      	strb	r0, [r4, #2]
   29b8e:	1de0      	adds	r0, r4, #7
   29b90:	49bb      	ldr	r1, [pc, #748]	@ (29e80 <_start+0x2280>)
   29b92:	4469      	add	r1, sp
   29b94:	2246      	movs	r2, #70	@ 0x46
   29b96:	f001 fd58 	bl	2b64a <__aeabi_memcpy>
   29b9a:	4db8      	ldr	r5, [pc, #736]	@ (29e7c <_start+0x227c>)
   29b9c:	446d      	add	r5, sp
   29b9e:	4628      	mov	r0, r5
   29ba0:	4621      	mov	r1, r4
   29ba2:	f7f7 fbd9 	bl	21358 <_ZN20complex_dynamic_type3app17h1ee91b64dd2a14a9E>
   29ba6:	7828      	ldrb	r0, [r5, #0]
   29ba8:	2801      	cmp	r0, #1
   29baa:	d103      	bne.n	29bb4 <_start+0x1fb4>
   29bac:	990d      	ldr	r1, [sp, #52]	@ 0x34
   29bae:	6e09      	ldr	r1, [r1, #96]	@ 0x60
   29bb0:	910f      	str	r1, [sp, #60]	@ 0x3c
   29bb2:	e019      	b.n	29be8 <_start+0x1fe8>
   29bb4:	49b1      	ldr	r1, [pc, #708]	@ (29e7c <_start+0x227c>)
   29bb6:	4469      	add	r1, sp
   29bb8:	78ca      	ldrb	r2, [r1, #3]
   29bba:	ab10      	add	r3, sp, #64	@ 0x40
   29bbc:	709a      	strb	r2, [r3, #2]
   29bbe:	784a      	ldrb	r2, [r1, #1]
   29bc0:	788c      	ldrb	r4, [r1, #2]
   29bc2:	0224      	lsls	r4, r4, #8
   29bc4:	18a2      	adds	r2, r4, r2
   29bc6:	801a      	strh	r2, [r3, #0]
   29bc8:	3108      	adds	r1, #8
   29bca:	9a0d      	ldr	r2, [sp, #52]	@ 0x34
   29bcc:	6e12      	ldr	r2, [r2, #96]	@ 0x60
   29bce:	920f      	str	r2, [sp, #60]	@ 0x3c
   29bd0:	4aab      	ldr	r2, [pc, #684]	@ (29e80 <_start+0x2280>)
   29bd2:	446a      	add	r2, sp
   29bd4:	c938      	ldmia	r1!, {r3, r4, r5}
   29bd6:	c238      	stmia	r2!, {r3, r4, r5}
   29bd8:	c938      	ldmia	r1!, {r3, r4, r5}
   29bda:	c238      	stmia	r2!, {r3, r4, r5}
   29bdc:	c938      	ldmia	r1!, {r3, r4, r5}
   29bde:	c238      	stmia	r2!, {r3, r4, r5}
   29be0:	c978      	ldmia	r1!, {r3, r4, r5, r6}
   29be2:	c278      	stmia	r2!, {r3, r4, r5, r6}
   29be4:	7809      	ldrb	r1, [r1, #0]
   29be6:	7011      	strb	r1, [r2, #0]
   29be8:	2800      	cmp	r0, #0
   29bea:	d001      	beq.n	29bf0 <_start+0x1ff0>
   29bec:	f001 fb09 	bl	2b202 <_start+0x3602>
   29bf0:	4ca6      	ldr	r4, [pc, #664]	@ (29e8c <_start+0x228c>)
   29bf2:	446c      	add	r4, sp
   29bf4:	990f      	ldr	r1, [sp, #60]	@ 0x3c
   29bf6:	70e1      	strb	r1, [r4, #3]
   29bf8:	9810      	ldr	r0, [sp, #64]	@ 0x40
   29bfa:	8020      	strh	r0, [r4, #0]
   29bfc:	0e08      	lsrs	r0, r1, #24
   29bfe:	71a0      	strb	r0, [r4, #6]
   29c00:	0c08      	lsrs	r0, r1, #16
   29c02:	7160      	strb	r0, [r4, #5]
   29c04:	0a08      	lsrs	r0, r1, #8
   29c06:	7120      	strb	r0, [r4, #4]
   29c08:	a810      	add	r0, sp, #64	@ 0x40
   29c0a:	7880      	ldrb	r0, [r0, #2]
   29c0c:	70a0      	strb	r0, [r4, #2]
   29c0e:	1de0      	adds	r0, r4, #7
   29c10:	499b      	ldr	r1, [pc, #620]	@ (29e80 <_start+0x2280>)
   29c12:	4469      	add	r1, sp
   29c14:	2235      	movs	r2, #53	@ 0x35
   29c16:	f001 fd18 	bl	2b64a <__aeabi_memcpy>
   29c1a:	4d98      	ldr	r5, [pc, #608]	@ (29e7c <_start+0x227c>)
   29c1c:	446d      	add	r5, sp
   29c1e:	4628      	mov	r0, r5
   29c20:	4621      	mov	r1, r4
   29c22:	f7f7 fdf7 	bl	21814 <_ZN20complex_dynamic_type3app17h2e4ab66447ca546eE>
   29c26:	7828      	ldrb	r0, [r5, #0]
   29c28:	2801      	cmp	r0, #1
   29c2a:	d103      	bne.n	29c34 <_start+0x2034>
   29c2c:	990d      	ldr	r1, [sp, #52]	@ 0x34
   29c2e:	6e09      	ldr	r1, [r1, #96]	@ 0x60
   29c30:	910f      	str	r1, [sp, #60]	@ 0x3c
   29c32:	e017      	b.n	29c64 <_start+0x2064>
   29c34:	4991      	ldr	r1, [pc, #580]	@ (29e7c <_start+0x227c>)
   29c36:	4469      	add	r1, sp
   29c38:	78ca      	ldrb	r2, [r1, #3]
   29c3a:	ab10      	add	r3, sp, #64	@ 0x40
   29c3c:	709a      	strb	r2, [r3, #2]
   29c3e:	784a      	ldrb	r2, [r1, #1]
   29c40:	788c      	ldrb	r4, [r1, #2]
   29c42:	0224      	lsls	r4, r4, #8
   29c44:	18a2      	adds	r2, r4, r2
   29c46:	801a      	strh	r2, [r3, #0]
   29c48:	3108      	adds	r1, #8
   29c4a:	9a0d      	ldr	r2, [sp, #52]	@ 0x34
   29c4c:	6e12      	ldr	r2, [r2, #96]	@ 0x60
   29c4e:	920f      	str	r2, [sp, #60]	@ 0x3c
   29c50:	4a8b      	ldr	r2, [pc, #556]	@ (29e80 <_start+0x2280>)
   29c52:	446a      	add	r2, sp
   29c54:	c978      	ldmia	r1!, {r3, r4, r5, r6}
   29c56:	c278      	stmia	r2!, {r3, r4, r5, r6}
   29c58:	c978      	ldmia	r1!, {r3, r4, r5, r6}
   29c5a:	c278      	stmia	r2!, {r3, r4, r5, r6}
   29c5c:	c978      	ldmia	r1!, {r3, r4, r5, r6}
   29c5e:	c278      	stmia	r2!, {r3, r4, r5, r6}
   29c60:	7809      	ldrb	r1, [r1, #0]
   29c62:	7011      	strb	r1, [r2, #0]
   29c64:	2800      	cmp	r0, #0
   29c66:	d001      	beq.n	29c6c <_start+0x206c>
   29c68:	f001 facb 	bl	2b202 <_start+0x3602>
   29c6c:	4c88      	ldr	r4, [pc, #544]	@ (29e90 <_start+0x2290>)
   29c6e:	446c      	add	r4, sp
   29c70:	990f      	ldr	r1, [sp, #60]	@ 0x3c
   29c72:	70e1      	strb	r1, [r4, #3]
   29c74:	9810      	ldr	r0, [sp, #64]	@ 0x40
   29c76:	8020      	strh	r0, [r4, #0]
   29c78:	0e08      	lsrs	r0, r1, #24
   29c7a:	71a0      	strb	r0, [r4, #6]
   29c7c:	0c08      	lsrs	r0, r1, #16
   29c7e:	7160      	strb	r0, [r4, #5]
   29c80:	0a08      	lsrs	r0, r1, #8
   29c82:	7120      	strb	r0, [r4, #4]
   29c84:	a810      	add	r0, sp, #64	@ 0x40
   29c86:	7880      	ldrb	r0, [r0, #2]
   29c88:	70a0      	strb	r0, [r4, #2]
   29c8a:	1de0      	adds	r0, r4, #7
   29c8c:	497c      	ldr	r1, [pc, #496]	@ (29e80 <_start+0x2280>)
   29c8e:	4469      	add	r1, sp
   29c90:	2231      	movs	r2, #49	@ 0x31
   29c92:	f001 fcda 	bl	2b64a <__aeabi_memcpy>
   29c96:	4d79      	ldr	r5, [pc, #484]	@ (29e7c <_start+0x227c>)
   29c98:	446d      	add	r5, sp
   29c9a:	4628      	mov	r0, r5
   29c9c:	4621      	mov	r1, r4
   29c9e:	f7fa fd83 	bl	247a8 <_ZN20complex_dynamic_type3app17h9b78e5794135a08dE>
   29ca2:	7828      	ldrb	r0, [r5, #0]
   29ca4:	2801      	cmp	r0, #1
   29ca6:	d103      	bne.n	29cb0 <_start+0x20b0>
   29ca8:	990d      	ldr	r1, [sp, #52]	@ 0x34
   29caa:	6e09      	ldr	r1, [r1, #96]	@ 0x60
   29cac:	910f      	str	r1, [sp, #60]	@ 0x3c
   29cae:	e013      	b.n	29cd8 <_start+0x20d8>
   29cb0:	4972      	ldr	r1, [pc, #456]	@ (29e7c <_start+0x227c>)
   29cb2:	4469      	add	r1, sp
   29cb4:	78ca      	ldrb	r2, [r1, #3]
   29cb6:	ab10      	add	r3, sp, #64	@ 0x40
   29cb8:	709a      	strb	r2, [r3, #2]
   29cba:	784a      	ldrb	r2, [r1, #1]
   29cbc:	788c      	ldrb	r4, [r1, #2]
   29cbe:	0224      	lsls	r4, r4, #8
   29cc0:	18a2      	adds	r2, r4, r2
   29cc2:	801a      	strh	r2, [r3, #0]
   29cc4:	3108      	adds	r1, #8
   29cc6:	9a0d      	ldr	r2, [sp, #52]	@ 0x34
   29cc8:	6e12      	ldr	r2, [r2, #96]	@ 0x60
   29cca:	920f      	str	r2, [sp, #60]	@ 0x3c
   29ccc:	4a6c      	ldr	r2, [pc, #432]	@ (29e80 <_start+0x2280>)
   29cce:	446a      	add	r2, sp
   29cd0:	c978      	ldmia	r1!, {r3, r4, r5, r6}
   29cd2:	c278      	stmia	r2!, {r3, r4, r5, r6}
   29cd4:	c978      	ldmia	r1!, {r3, r4, r5, r6}
   29cd6:	c278      	stmia	r2!, {r3, r4, r5, r6}
   29cd8:	2800      	cmp	r0, #0
   29cda:	d001      	beq.n	29ce0 <_start+0x20e0>
   29cdc:	f001 fa91 	bl	2b202 <_start+0x3602>
   29ce0:	4c6c      	ldr	r4, [pc, #432]	@ (29e94 <_start+0x2294>)
   29ce2:	446c      	add	r4, sp
   29ce4:	990f      	ldr	r1, [sp, #60]	@ 0x3c
   29ce6:	70e1      	strb	r1, [r4, #3]
   29ce8:	9810      	ldr	r0, [sp, #64]	@ 0x40
   29cea:	8020      	strh	r0, [r4, #0]
   29cec:	0e08      	lsrs	r0, r1, #24
   29cee:	71a0      	strb	r0, [r4, #6]
   29cf0:	0c08      	lsrs	r0, r1, #16
   29cf2:	7160      	strb	r0, [r4, #5]
   29cf4:	0a08      	lsrs	r0, r1, #8
   29cf6:	7120      	strb	r0, [r4, #4]
   29cf8:	a810      	add	r0, sp, #64	@ 0x40
   29cfa:	7880      	ldrb	r0, [r0, #2]
   29cfc:	70a0      	strb	r0, [r4, #2]
   29cfe:	1de0      	adds	r0, r4, #7
   29d00:	495f      	ldr	r1, [pc, #380]	@ (29e80 <_start+0x2280>)
   29d02:	4469      	add	r1, sp
   29d04:	2220      	movs	r2, #32
   29d06:	f001 fca0 	bl	2b64a <__aeabi_memcpy>
   29d0a:	4d5c      	ldr	r5, [pc, #368]	@ (29e7c <_start+0x227c>)
   29d0c:	446d      	add	r5, sp
   29d0e:	4628      	mov	r0, r5
   29d10:	4621      	mov	r1, r4
   29d12:	f7fc ff1f 	bl	26b54 <_ZN20complex_dynamic_type3app17he223d3423dbf9d90E>
   29d16:	782c      	ldrb	r4, [r5, #0]
   29d18:	2c01      	cmp	r4, #1
   29d1a:	d103      	bne.n	29d24 <_start+0x2124>
   29d1c:	980d      	ldr	r0, [sp, #52]	@ 0x34
   29d1e:	6e00      	ldr	r0, [r0, #96]	@ 0x60
   29d20:	900f      	str	r0, [sp, #60]	@ 0x3c
   29d22:	e012      	b.n	29d4a <_start+0x214a>
   29d24:	4955      	ldr	r1, [pc, #340]	@ (29e7c <_start+0x227c>)
   29d26:	4469      	add	r1, sp
   29d28:	78c8      	ldrb	r0, [r1, #3]
   29d2a:	aa10      	add	r2, sp, #64	@ 0x40
   29d2c:	7090      	strb	r0, [r2, #2]
   29d2e:	7848      	ldrb	r0, [r1, #1]
   29d30:	788b      	ldrb	r3, [r1, #2]
   29d32:	021b      	lsls	r3, r3, #8
   29d34:	1818      	adds	r0, r3, r0
   29d36:	8010      	strh	r0, [r2, #0]
   29d38:	980d      	ldr	r0, [sp, #52]	@ 0x34
   29d3a:	6e00      	ldr	r0, [r0, #96]	@ 0x60
   29d3c:	900f      	str	r0, [sp, #60]	@ 0x3c
   29d3e:	3108      	adds	r1, #8
   29d40:	484f      	ldr	r0, [pc, #316]	@ (29e80 <_start+0x2280>)
   29d42:	4468      	add	r0, sp
   29d44:	224a      	movs	r2, #74	@ 0x4a
   29d46:	f001 fb20 	bl	2b38a <__aeabi_memcpy4>
   29d4a:	2c00      	cmp	r4, #0
   29d4c:	d001      	beq.n	29d52 <_start+0x2152>
   29d4e:	f001 fa58 	bl	2b202 <_start+0x3602>
   29d52:	4c51      	ldr	r4, [pc, #324]	@ (29e98 <_start+0x2298>)
   29d54:	446c      	add	r4, sp
   29d56:	990f      	ldr	r1, [sp, #60]	@ 0x3c
   29d58:	70e1      	strb	r1, [r4, #3]
   29d5a:	9810      	ldr	r0, [sp, #64]	@ 0x40
   29d5c:	8020      	strh	r0, [r4, #0]
   29d5e:	0e08      	lsrs	r0, r1, #24
   29d60:	71a0      	strb	r0, [r4, #6]
   29d62:	0c08      	lsrs	r0, r1, #16
   29d64:	7160      	strb	r0, [r4, #5]
   29d66:	0a08      	lsrs	r0, r1, #8
   29d68:	7120      	strb	r0, [r4, #4]
   29d6a:	a810      	add	r0, sp, #64	@ 0x40
   29d6c:	7880      	ldrb	r0, [r0, #2]
   29d6e:	70a0      	strb	r0, [r4, #2]
   29d70:	1de0      	adds	r0, r4, #7
   29d72:	4943      	ldr	r1, [pc, #268]	@ (29e80 <_start+0x2280>)
   29d74:	4469      	add	r1, sp
   29d76:	224a      	movs	r2, #74	@ 0x4a
   29d78:	f001 fc67 	bl	2b64a <__aeabi_memcpy>
   29d7c:	4d3f      	ldr	r5, [pc, #252]	@ (29e7c <_start+0x227c>)
   29d7e:	446d      	add	r5, sp
   29d80:	4628      	mov	r0, r5
   29d82:	4621      	mov	r1, r4
   29d84:	f7fd f94c 	bl	27020 <_ZN20complex_dynamic_type3app17he8f1cf1912196212E>
   29d88:	782c      	ldrb	r4, [r5, #0]
   29d8a:	2c01      	cmp	r4, #1
   29d8c:	d103      	bne.n	29d96 <_start+0x2196>
   29d8e:	980d      	ldr	r0, [sp, #52]	@ 0x34
   29d90:	6e00      	ldr	r0, [r0, #96]	@ 0x60
   29d92:	900f      	str	r0, [sp, #60]	@ 0x3c
   29d94:	e012      	b.n	29dbc <_start+0x21bc>
   29d96:	4939      	ldr	r1, [pc, #228]	@ (29e7c <_start+0x227c>)
   29d98:	4469      	add	r1, sp
   29d9a:	78c8      	ldrb	r0, [r1, #3]
   29d9c:	aa10      	add	r2, sp, #64	@ 0x40
   29d9e:	7090      	strb	r0, [r2, #2]
   29da0:	7848      	ldrb	r0, [r1, #1]
   29da2:	788b      	ldrb	r3, [r1, #2]
   29da4:	021b      	lsls	r3, r3, #8
   29da6:	1818      	adds	r0, r3, r0
   29da8:	8010      	strh	r0, [r2, #0]
   29daa:	980d      	ldr	r0, [sp, #52]	@ 0x34
   29dac:	6e00      	ldr	r0, [r0, #96]	@ 0x60
   29dae:	900f      	str	r0, [sp, #60]	@ 0x3c
   29db0:	3108      	adds	r1, #8
   29db2:	4833      	ldr	r0, [pc, #204]	@ (29e80 <_start+0x2280>)
   29db4:	4468      	add	r0, sp
   29db6:	2248      	movs	r2, #72	@ 0x48
   29db8:	f001 fae7 	bl	2b38a <__aeabi_memcpy4>
   29dbc:	2c00      	cmp	r4, #0
   29dbe:	d001      	beq.n	29dc4 <_start+0x21c4>
   29dc0:	f001 fa1f 	bl	2b202 <_start+0x3602>
   29dc4:	4c35      	ldr	r4, [pc, #212]	@ (29e9c <_start+0x229c>)
   29dc6:	446c      	add	r4, sp
   29dc8:	990f      	ldr	r1, [sp, #60]	@ 0x3c
   29dca:	70e1      	strb	r1, [r4, #3]
   29dcc:	9810      	ldr	r0, [sp, #64]	@ 0x40
   29dce:	8020      	strh	r0, [r4, #0]
   29dd0:	0e08      	lsrs	r0, r1, #24
   29dd2:	71a0      	strb	r0, [r4, #6]
   29dd4:	0c08      	lsrs	r0, r1, #16
   29dd6:	7160      	strb	r0, [r4, #5]
   29dd8:	0a08      	lsrs	r0, r1, #8
   29dda:	7120      	strb	r0, [r4, #4]
   29ddc:	a810      	add	r0, sp, #64	@ 0x40
   29dde:	7880      	ldrb	r0, [r0, #2]
   29de0:	70a0      	strb	r0, [r4, #2]
   29de2:	1de0      	adds	r0, r4, #7
   29de4:	4926      	ldr	r1, [pc, #152]	@ (29e80 <_start+0x2280>)
   29de6:	4469      	add	r1, sp
   29de8:	2248      	movs	r2, #72	@ 0x48
   29dea:	f001 fc2e 	bl	2b64a <__aeabi_memcpy>
   29dee:	4d23      	ldr	r5, [pc, #140]	@ (29e7c <_start+0x227c>)
   29df0:	446d      	add	r5, sp
   29df2:	4628      	mov	r0, r5
   29df4:	4621      	mov	r1, r4
   29df6:	f7fb fb65 	bl	254c4 <_ZN20complex_dynamic_type3app17hb1412cdab2d899fdE>
   29dfa:	782c      	ldrb	r4, [r5, #0]
   29dfc:	2c01      	cmp	r4, #1
   29dfe:	d103      	bne.n	29e08 <_start+0x2208>
   29e00:	980d      	ldr	r0, [sp, #52]	@ 0x34
   29e02:	6e00      	ldr	r0, [r0, #96]	@ 0x60
   29e04:	900f      	str	r0, [sp, #60]	@ 0x3c
   29e06:	e012      	b.n	29e2e <_start+0x222e>
   29e08:	491c      	ldr	r1, [pc, #112]	@ (29e7c <_start+0x227c>)
   29e0a:	4469      	add	r1, sp
   29e0c:	78c8      	ldrb	r0, [r1, #3]
   29e0e:	aa10      	add	r2, sp, #64	@ 0x40
   29e10:	7090      	strb	r0, [r2, #2]
   29e12:	7848      	ldrb	r0, [r1, #1]
   29e14:	788b      	ldrb	r3, [r1, #2]
   29e16:	021b      	lsls	r3, r3, #8
   29e18:	1818      	adds	r0, r3, r0
   29e1a:	8010      	strh	r0, [r2, #0]
   29e1c:	980d      	ldr	r0, [sp, #52]	@ 0x34
   29e1e:	6e00      	ldr	r0, [r0, #96]	@ 0x60
   29e20:	900f      	str	r0, [sp, #60]	@ 0x3c
   29e22:	3108      	adds	r1, #8
   29e24:	4816      	ldr	r0, [pc, #88]	@ (29e80 <_start+0x2280>)
   29e26:	4468      	add	r0, sp
   29e28:	225a      	movs	r2, #90	@ 0x5a
   29e2a:	f001 faae 	bl	2b38a <__aeabi_memcpy4>
   29e2e:	2c00      	cmp	r4, #0
   29e30:	d001      	beq.n	29e36 <_start+0x2236>
   29e32:	f001 f9e6 	bl	2b202 <_start+0x3602>
   29e36:	4c1a      	ldr	r4, [pc, #104]	@ (29ea0 <_start+0x22a0>)
   29e38:	446c      	add	r4, sp
   29e3a:	990f      	ldr	r1, [sp, #60]	@ 0x3c
   29e3c:	70e1      	strb	r1, [r4, #3]
   29e3e:	9810      	ldr	r0, [sp, #64]	@ 0x40
   29e40:	8020      	strh	r0, [r4, #0]
   29e42:	0e08      	lsrs	r0, r1, #24
   29e44:	71a0      	strb	r0, [r4, #6]
   29e46:	0c08      	lsrs	r0, r1, #16
   29e48:	7160      	strb	r0, [r4, #5]
   29e4a:	0a08      	lsrs	r0, r1, #8
   29e4c:	7120      	strb	r0, [r4, #4]
   29e4e:	a810      	add	r0, sp, #64	@ 0x40
   29e50:	7880      	ldrb	r0, [r0, #2]
   29e52:	70a0      	strb	r0, [r4, #2]
   29e54:	1de0      	adds	r0, r4, #7
   29e56:	490a      	ldr	r1, [pc, #40]	@ (29e80 <_start+0x2280>)
   29e58:	4469      	add	r1, sp
   29e5a:	225a      	movs	r2, #90	@ 0x5a
   29e5c:	f001 fbf5 	bl	2b64a <__aeabi_memcpy>
   29e60:	4d06      	ldr	r5, [pc, #24]	@ (29e7c <_start+0x227c>)
   29e62:	446d      	add	r5, sp
   29e64:	4628      	mov	r0, r5
   29e66:	4621      	mov	r1, r4
   29e68:	f7fc fa4e 	bl	26308 <_ZN20complex_dynamic_type3app17hd564efceb6f53716E>
   29e6c:	7828      	ldrb	r0, [r5, #0]
   29e6e:	2801      	cmp	r0, #1
   29e70:	d118      	bne.n	29ea4 <_start+0x22a4>
   29e72:	990d      	ldr	r1, [sp, #52]	@ 0x34
   29e74:	6e09      	ldr	r1, [r1, #96]	@ 0x60
   29e76:	910f      	str	r1, [sp, #60]	@ 0x3c
   29e78:	e02c      	b.n	29ed4 <_start+0x22d4>
   29e7a:	46c0      	nop			@ (mov r8, r8)
   29e7c:	00001414 	.word	0x00001414
   29e80:	000013b8 	.word	0x000013b8
   29e84:	0000096c 	.word	0x0000096c
   29e88:	000009c0 	.word	0x000009c0
   29e8c:	00000a10 	.word	0x00000a10
   29e90:	00000a4c 	.word	0x00000a4c
   29e94:	00000a84 	.word	0x00000a84
   29e98:	00000aac 	.word	0x00000aac
   29e9c:	00000b00 	.word	0x00000b00
   29ea0:	00000b50 	.word	0x00000b50
   29ea4:	49f0      	ldr	r1, [pc, #960]	@ (2a268 <_start+0x2668>)
   29ea6:	4469      	add	r1, sp
   29ea8:	78ca      	ldrb	r2, [r1, #3]
   29eaa:	ab10      	add	r3, sp, #64	@ 0x40
   29eac:	709a      	strb	r2, [r3, #2]
   29eae:	784a      	ldrb	r2, [r1, #1]
   29eb0:	788c      	ldrb	r4, [r1, #2]
   29eb2:	0224      	lsls	r4, r4, #8
   29eb4:	18a2      	adds	r2, r4, r2
   29eb6:	801a      	strh	r2, [r3, #0]
   29eb8:	3108      	adds	r1, #8
   29eba:	9a0d      	ldr	r2, [sp, #52]	@ 0x34
   29ebc:	6e12      	ldr	r2, [r2, #96]	@ 0x60
   29ebe:	920f      	str	r2, [sp, #60]	@ 0x3c
   29ec0:	4aea      	ldr	r2, [pc, #936]	@ (2a26c <_start+0x266c>)
   29ec2:	446a      	add	r2, sp
   29ec4:	c918      	ldmia	r1!, {r3, r4}
   29ec6:	c218      	stmia	r2!, {r3, r4}
   29ec8:	c938      	ldmia	r1!, {r3, r4, r5}
   29eca:	c238      	stmia	r2!, {r3, r4, r5}
   29ecc:	880b      	ldrh	r3, [r1, #0]
   29ece:	8013      	strh	r3, [r2, #0]
   29ed0:	7889      	ldrb	r1, [r1, #2]
   29ed2:	7091      	strb	r1, [r2, #2]
   29ed4:	2800      	cmp	r0, #0
   29ed6:	d001      	beq.n	29edc <_start+0x22dc>
   29ed8:	f001 f993 	bl	2b202 <_start+0x3602>
   29edc:	4ce4      	ldr	r4, [pc, #912]	@ (2a270 <_start+0x2670>)
   29ede:	446c      	add	r4, sp
   29ee0:	990f      	ldr	r1, [sp, #60]	@ 0x3c
   29ee2:	70e1      	strb	r1, [r4, #3]
   29ee4:	9810      	ldr	r0, [sp, #64]	@ 0x40
   29ee6:	8020      	strh	r0, [r4, #0]
   29ee8:	0e08      	lsrs	r0, r1, #24
   29eea:	71a0      	strb	r0, [r4, #6]
   29eec:	0c08      	lsrs	r0, r1, #16
   29eee:	7160      	strb	r0, [r4, #5]
   29ef0:	0a08      	lsrs	r0, r1, #8
   29ef2:	7120      	strb	r0, [r4, #4]
   29ef4:	a810      	add	r0, sp, #64	@ 0x40
   29ef6:	7880      	ldrb	r0, [r0, #2]
   29ef8:	70a0      	strb	r0, [r4, #2]
   29efa:	1de0      	adds	r0, r4, #7
   29efc:	49db      	ldr	r1, [pc, #876]	@ (2a26c <_start+0x266c>)
   29efe:	4469      	add	r1, sp
   29f00:	2217      	movs	r2, #23
   29f02:	f001 fba2 	bl	2b64a <__aeabi_memcpy>
   29f06:	4dd8      	ldr	r5, [pc, #864]	@ (2a268 <_start+0x2668>)
   29f08:	446d      	add	r5, sp
   29f0a:	4628      	mov	r0, r5
   29f0c:	4621      	mov	r1, r4
   29f0e:	f7fd fae7 	bl	274e0 <_ZN20complex_dynamic_type3app17hebd8c2e325e62969E>
   29f12:	7828      	ldrb	r0, [r5, #0]
   29f14:	2801      	cmp	r0, #1
   29f16:	d103      	bne.n	29f20 <_start+0x2320>
   29f18:	990d      	ldr	r1, [sp, #52]	@ 0x34
   29f1a:	6e09      	ldr	r1, [r1, #96]	@ 0x60
   29f1c:	910f      	str	r1, [sp, #60]	@ 0x3c
   29f1e:	e015      	b.n	29f4c <_start+0x234c>
   29f20:	49d1      	ldr	r1, [pc, #836]	@ (2a268 <_start+0x2668>)
   29f22:	4469      	add	r1, sp
   29f24:	78ca      	ldrb	r2, [r1, #3]
   29f26:	ab10      	add	r3, sp, #64	@ 0x40
   29f28:	709a      	strb	r2, [r3, #2]
   29f2a:	784a      	ldrb	r2, [r1, #1]
   29f2c:	788c      	ldrb	r4, [r1, #2]
   29f2e:	0224      	lsls	r4, r4, #8
   29f30:	18a2      	adds	r2, r4, r2
   29f32:	801a      	strh	r2, [r3, #0]
   29f34:	3108      	adds	r1, #8
   29f36:	9a0d      	ldr	r2, [sp, #52]	@ 0x34
   29f38:	6e12      	ldr	r2, [r2, #96]	@ 0x60
   29f3a:	920f      	str	r2, [sp, #60]	@ 0x3c
   29f3c:	4acb      	ldr	r2, [pc, #812]	@ (2a26c <_start+0x266c>)
   29f3e:	446a      	add	r2, sp
   29f40:	c938      	ldmia	r1!, {r3, r4, r5}
   29f42:	c238      	stmia	r2!, {r3, r4, r5}
   29f44:	c938      	ldmia	r1!, {r3, r4, r5}
   29f46:	c238      	stmia	r2!, {r3, r4, r5}
   29f48:	8809      	ldrh	r1, [r1, #0]
   29f4a:	8011      	strh	r1, [r2, #0]
   29f4c:	2800      	cmp	r0, #0
   29f4e:	d001      	beq.n	29f54 <_start+0x2354>
   29f50:	f001 f957 	bl	2b202 <_start+0x3602>
   29f54:	4cc7      	ldr	r4, [pc, #796]	@ (2a274 <_start+0x2674>)
   29f56:	446c      	add	r4, sp
   29f58:	990f      	ldr	r1, [sp, #60]	@ 0x3c
   29f5a:	70e1      	strb	r1, [r4, #3]
   29f5c:	9810      	ldr	r0, [sp, #64]	@ 0x40
   29f5e:	8020      	strh	r0, [r4, #0]
   29f60:	0e08      	lsrs	r0, r1, #24
   29f62:	71a0      	strb	r0, [r4, #6]
   29f64:	0c08      	lsrs	r0, r1, #16
   29f66:	7160      	strb	r0, [r4, #5]
   29f68:	0a08      	lsrs	r0, r1, #8
   29f6a:	7120      	strb	r0, [r4, #4]
   29f6c:	a810      	add	r0, sp, #64	@ 0x40
   29f6e:	7880      	ldrb	r0, [r0, #2]
   29f70:	70a0      	strb	r0, [r4, #2]
   29f72:	1de0      	adds	r0, r4, #7
   29f74:	49bd      	ldr	r1, [pc, #756]	@ (2a26c <_start+0x266c>)
   29f76:	4469      	add	r1, sp
   29f78:	221a      	movs	r2, #26
   29f7a:	f001 fb66 	bl	2b64a <__aeabi_memcpy>
   29f7e:	4dba      	ldr	r5, [pc, #744]	@ (2a268 <_start+0x2668>)
   29f80:	446d      	add	r5, sp
   29f82:	4628      	mov	r0, r5
   29f84:	4621      	mov	r1, r4
   29f86:	f7fa fddb 	bl	24b40 <_ZN20complex_dynamic_type3app17ha35e5e0f5c5e156cE>
   29f8a:	7828      	ldrb	r0, [r5, #0]
   29f8c:	2801      	cmp	r0, #1
   29f8e:	d103      	bne.n	29f98 <_start+0x2398>
   29f90:	990d      	ldr	r1, [sp, #52]	@ 0x34
   29f92:	6e09      	ldr	r1, [r1, #96]	@ 0x60
   29f94:	910f      	str	r1, [sp, #60]	@ 0x3c
   29f96:	e017      	b.n	29fc8 <_start+0x23c8>
   29f98:	49b3      	ldr	r1, [pc, #716]	@ (2a268 <_start+0x2668>)
   29f9a:	4469      	add	r1, sp
   29f9c:	78ca      	ldrb	r2, [r1, #3]
   29f9e:	ab10      	add	r3, sp, #64	@ 0x40
   29fa0:	709a      	strb	r2, [r3, #2]
   29fa2:	784a      	ldrb	r2, [r1, #1]
   29fa4:	788c      	ldrb	r4, [r1, #2]
   29fa6:	0224      	lsls	r4, r4, #8
   29fa8:	18a2      	adds	r2, r4, r2
   29faa:	801a      	strh	r2, [r3, #0]
   29fac:	3108      	adds	r1, #8
   29fae:	9a0d      	ldr	r2, [sp, #52]	@ 0x34
   29fb0:	6e12      	ldr	r2, [r2, #96]	@ 0x60
   29fb2:	920f      	str	r2, [sp, #60]	@ 0x3c
   29fb4:	4aad      	ldr	r2, [pc, #692]	@ (2a26c <_start+0x266c>)
   29fb6:	446a      	add	r2, sp
   29fb8:	c978      	ldmia	r1!, {r3, r4, r5, r6}
   29fba:	c278      	stmia	r2!, {r3, r4, r5, r6}
   29fbc:	c978      	ldmia	r1!, {r3, r4, r5, r6}
   29fbe:	c278      	stmia	r2!, {r3, r4, r5, r6}
   29fc0:	880b      	ldrh	r3, [r1, #0]
   29fc2:	8013      	strh	r3, [r2, #0]
   29fc4:	7889      	ldrb	r1, [r1, #2]
   29fc6:	7091      	strb	r1, [r2, #2]
   29fc8:	2800      	cmp	r0, #0
   29fca:	d001      	beq.n	29fd0 <_start+0x23d0>
   29fcc:	f001 f919 	bl	2b202 <_start+0x3602>
   29fd0:	4ca9      	ldr	r4, [pc, #676]	@ (2a278 <_start+0x2678>)
   29fd2:	446c      	add	r4, sp
   29fd4:	990f      	ldr	r1, [sp, #60]	@ 0x3c
   29fd6:	70e1      	strb	r1, [r4, #3]
   29fd8:	9810      	ldr	r0, [sp, #64]	@ 0x40
   29fda:	8020      	strh	r0, [r4, #0]
   29fdc:	0e08      	lsrs	r0, r1, #24
   29fde:	71a0      	strb	r0, [r4, #6]
   29fe0:	0c08      	lsrs	r0, r1, #16
   29fe2:	7160      	strb	r0, [r4, #5]
   29fe4:	0a08      	lsrs	r0, r1, #8
   29fe6:	7120      	strb	r0, [r4, #4]
   29fe8:	a810      	add	r0, sp, #64	@ 0x40
   29fea:	7880      	ldrb	r0, [r0, #2]
   29fec:	70a0      	strb	r0, [r4, #2]
   29fee:	1de0      	adds	r0, r4, #7
   29ff0:	499e      	ldr	r1, [pc, #632]	@ (2a26c <_start+0x266c>)
   29ff2:	4469      	add	r1, sp
   29ff4:	2223      	movs	r2, #35	@ 0x23
   29ff6:	f001 fb28 	bl	2b64a <__aeabi_memcpy>
   29ffa:	4d9b      	ldr	r5, [pc, #620]	@ (2a268 <_start+0x2668>)
   29ffc:	446d      	add	r5, sp
   29ffe:	4628      	mov	r0, r5
   2a000:	4621      	mov	r1, r4
   2a002:	f7f8 fc59 	bl	228b8 <_ZN20complex_dynamic_type3app17h4d615afd0c5e9671E>
   2a006:	782c      	ldrb	r4, [r5, #0]
   2a008:	2c01      	cmp	r4, #1
   2a00a:	d103      	bne.n	2a014 <_start+0x2414>
   2a00c:	980d      	ldr	r0, [sp, #52]	@ 0x34
   2a00e:	6e00      	ldr	r0, [r0, #96]	@ 0x60
   2a010:	900f      	str	r0, [sp, #60]	@ 0x3c
   2a012:	e012      	b.n	2a03a <_start+0x243a>
   2a014:	4994      	ldr	r1, [pc, #592]	@ (2a268 <_start+0x2668>)
   2a016:	4469      	add	r1, sp
   2a018:	78c8      	ldrb	r0, [r1, #3]
   2a01a:	aa10      	add	r2, sp, #64	@ 0x40
   2a01c:	7090      	strb	r0, [r2, #2]
   2a01e:	7848      	ldrb	r0, [r1, #1]
   2a020:	788b      	ldrb	r3, [r1, #2]
   2a022:	021b      	lsls	r3, r3, #8
   2a024:	1818      	adds	r0, r3, r0
   2a026:	8010      	strh	r0, [r2, #0]
   2a028:	980d      	ldr	r0, [sp, #52]	@ 0x34
   2a02a:	6e00      	ldr	r0, [r0, #96]	@ 0x60
   2a02c:	900f      	str	r0, [sp, #60]	@ 0x3c
   2a02e:	3108      	adds	r1, #8
   2a030:	488e      	ldr	r0, [pc, #568]	@ (2a26c <_start+0x266c>)
   2a032:	4468      	add	r0, sp
   2a034:	2252      	movs	r2, #82	@ 0x52
   2a036:	f001 f9a8 	bl	2b38a <__aeabi_memcpy4>
   2a03a:	2c00      	cmp	r4, #0
   2a03c:	d001      	beq.n	2a042 <_start+0x2442>
   2a03e:	f001 f8e0 	bl	2b202 <_start+0x3602>
   2a042:	4c8e      	ldr	r4, [pc, #568]	@ (2a27c <_start+0x267c>)
   2a044:	446c      	add	r4, sp
   2a046:	990f      	ldr	r1, [sp, #60]	@ 0x3c
   2a048:	70e1      	strb	r1, [r4, #3]
   2a04a:	9810      	ldr	r0, [sp, #64]	@ 0x40
   2a04c:	8020      	strh	r0, [r4, #0]
   2a04e:	0e08      	lsrs	r0, r1, #24
   2a050:	71a0      	strb	r0, [r4, #6]
   2a052:	0c08      	lsrs	r0, r1, #16
   2a054:	7160      	strb	r0, [r4, #5]
   2a056:	0a08      	lsrs	r0, r1, #8
   2a058:	7120      	strb	r0, [r4, #4]
   2a05a:	a810      	add	r0, sp, #64	@ 0x40
   2a05c:	7880      	ldrb	r0, [r0, #2]
   2a05e:	70a0      	strb	r0, [r4, #2]
   2a060:	1de0      	adds	r0, r4, #7
   2a062:	4982      	ldr	r1, [pc, #520]	@ (2a26c <_start+0x266c>)
   2a064:	4469      	add	r1, sp
   2a066:	2252      	movs	r2, #82	@ 0x52
   2a068:	f001 faef 	bl	2b64a <__aeabi_memcpy>
   2a06c:	4d7e      	ldr	r5, [pc, #504]	@ (2a268 <_start+0x2668>)
   2a06e:	446d      	add	r5, sp
   2a070:	4628      	mov	r0, r5
   2a072:	4621      	mov	r1, r4
   2a074:	f7f8 f890 	bl	22198 <_ZN20complex_dynamic_type3app17h4299e4563ff4c191E>
   2a078:	782c      	ldrb	r4, [r5, #0]
   2a07a:	2c01      	cmp	r4, #1
   2a07c:	d103      	bne.n	2a086 <_start+0x2486>
   2a07e:	980d      	ldr	r0, [sp, #52]	@ 0x34
   2a080:	6e00      	ldr	r0, [r0, #96]	@ 0x60
   2a082:	900f      	str	r0, [sp, #60]	@ 0x3c
   2a084:	e012      	b.n	2a0ac <_start+0x24ac>
   2a086:	4978      	ldr	r1, [pc, #480]	@ (2a268 <_start+0x2668>)
   2a088:	4469      	add	r1, sp
   2a08a:	78c8      	ldrb	r0, [r1, #3]
   2a08c:	aa10      	add	r2, sp, #64	@ 0x40
   2a08e:	7090      	strb	r0, [r2, #2]
   2a090:	7848      	ldrb	r0, [r1, #1]
   2a092:	788b      	ldrb	r3, [r1, #2]
   2a094:	021b      	lsls	r3, r3, #8
   2a096:	1818      	adds	r0, r3, r0
   2a098:	8010      	strh	r0, [r2, #0]
   2a09a:	980d      	ldr	r0, [sp, #52]	@ 0x34
   2a09c:	6e00      	ldr	r0, [r0, #96]	@ 0x60
   2a09e:	900f      	str	r0, [sp, #60]	@ 0x3c
   2a0a0:	3108      	adds	r1, #8
   2a0a2:	4872      	ldr	r0, [pc, #456]	@ (2a26c <_start+0x266c>)
   2a0a4:	4468      	add	r0, sp
   2a0a6:	2243      	movs	r2, #67	@ 0x43
   2a0a8:	f001 f96f 	bl	2b38a <__aeabi_memcpy4>
   2a0ac:	2c00      	cmp	r4, #0
   2a0ae:	d001      	beq.n	2a0b4 <_start+0x24b4>
   2a0b0:	f001 f8a7 	bl	2b202 <_start+0x3602>
   2a0b4:	4c72      	ldr	r4, [pc, #456]	@ (2a280 <_start+0x2680>)
   2a0b6:	446c      	add	r4, sp
   2a0b8:	990f      	ldr	r1, [sp, #60]	@ 0x3c
   2a0ba:	70e1      	strb	r1, [r4, #3]
   2a0bc:	9810      	ldr	r0, [sp, #64]	@ 0x40
   2a0be:	8020      	strh	r0, [r4, #0]
   2a0c0:	0e08      	lsrs	r0, r1, #24
   2a0c2:	71a0      	strb	r0, [r4, #6]
   2a0c4:	0c08      	lsrs	r0, r1, #16
   2a0c6:	7160      	strb	r0, [r4, #5]
   2a0c8:	0a08      	lsrs	r0, r1, #8
   2a0ca:	7120      	strb	r0, [r4, #4]
   2a0cc:	a810      	add	r0, sp, #64	@ 0x40
   2a0ce:	7880      	ldrb	r0, [r0, #2]
   2a0d0:	70a0      	strb	r0, [r4, #2]
   2a0d2:	1de0      	adds	r0, r4, #7
   2a0d4:	4965      	ldr	r1, [pc, #404]	@ (2a26c <_start+0x266c>)
   2a0d6:	4469      	add	r1, sp
   2a0d8:	2243      	movs	r2, #67	@ 0x43
   2a0da:	f001 fab6 	bl	2b64a <__aeabi_memcpy>
   2a0de:	4d62      	ldr	r5, [pc, #392]	@ (2a268 <_start+0x2668>)
   2a0e0:	446d      	add	r5, sp
   2a0e2:	4628      	mov	r0, r5
   2a0e4:	4621      	mov	r1, r4
   2a0e6:	f7fc ff01 	bl	26eec <_ZN20complex_dynamic_type3app17he7167974ce9878c8E>
   2a0ea:	7828      	ldrb	r0, [r5, #0]
   2a0ec:	2801      	cmp	r0, #1
   2a0ee:	d103      	bne.n	2a0f8 <_start+0x24f8>
   2a0f0:	990d      	ldr	r1, [sp, #52]	@ 0x34
   2a0f2:	6e09      	ldr	r1, [r1, #96]	@ 0x60
   2a0f4:	910f      	str	r1, [sp, #60]	@ 0x3c
   2a0f6:	e017      	b.n	2a128 <_start+0x2528>
   2a0f8:	495b      	ldr	r1, [pc, #364]	@ (2a268 <_start+0x2668>)
   2a0fa:	4469      	add	r1, sp
   2a0fc:	78ca      	ldrb	r2, [r1, #3]
   2a0fe:	ab10      	add	r3, sp, #64	@ 0x40
   2a100:	709a      	strb	r2, [r3, #2]
   2a102:	784a      	ldrb	r2, [r1, #1]
   2a104:	788c      	ldrb	r4, [r1, #2]
   2a106:	0224      	lsls	r4, r4, #8
   2a108:	18a2      	adds	r2, r4, r2
   2a10a:	801a      	strh	r2, [r3, #0]
   2a10c:	3108      	adds	r1, #8
   2a10e:	9a0d      	ldr	r2, [sp, #52]	@ 0x34
   2a110:	6e12      	ldr	r2, [r2, #96]	@ 0x60
   2a112:	920f      	str	r2, [sp, #60]	@ 0x3c
   2a114:	4a55      	ldr	r2, [pc, #340]	@ (2a26c <_start+0x266c>)
   2a116:	446a      	add	r2, sp
   2a118:	c938      	ldmia	r1!, {r3, r4, r5}
   2a11a:	c238      	stmia	r2!, {r3, r4, r5}
   2a11c:	c938      	ldmia	r1!, {r3, r4, r5}
   2a11e:	c238      	stmia	r2!, {r3, r4, r5}
   2a120:	c938      	ldmia	r1!, {r3, r4, r5}
   2a122:	c238      	stmia	r2!, {r3, r4, r5}
   2a124:	8809      	ldrh	r1, [r1, #0]
   2a126:	8011      	strh	r1, [r2, #0]
   2a128:	2800      	cmp	r0, #0
   2a12a:	d001      	beq.n	2a130 <_start+0x2530>
   2a12c:	f001 f869 	bl	2b202 <_start+0x3602>
   2a130:	4c54      	ldr	r4, [pc, #336]	@ (2a284 <_start+0x2684>)
   2a132:	446c      	add	r4, sp
   2a134:	990f      	ldr	r1, [sp, #60]	@ 0x3c
   2a136:	70e1      	strb	r1, [r4, #3]
   2a138:	9810      	ldr	r0, [sp, #64]	@ 0x40
   2a13a:	8020      	strh	r0, [r4, #0]
   2a13c:	0e08      	lsrs	r0, r1, #24
   2a13e:	71a0      	strb	r0, [r4, #6]
   2a140:	0c08      	lsrs	r0, r1, #16
   2a142:	7160      	strb	r0, [r4, #5]
   2a144:	0a08      	lsrs	r0, r1, #8
   2a146:	7120      	strb	r0, [r4, #4]
   2a148:	a810      	add	r0, sp, #64	@ 0x40
   2a14a:	7880      	ldrb	r0, [r0, #2]
   2a14c:	70a0      	strb	r0, [r4, #2]
   2a14e:	1de0      	adds	r0, r4, #7
   2a150:	4946      	ldr	r1, [pc, #280]	@ (2a26c <_start+0x266c>)
   2a152:	4469      	add	r1, sp
   2a154:	2226      	movs	r2, #38	@ 0x26
   2a156:	f001 fa78 	bl	2b64a <__aeabi_memcpy>
   2a15a:	4d43      	ldr	r5, [pc, #268]	@ (2a268 <_start+0x2668>)
   2a15c:	446d      	add	r5, sp
   2a15e:	4628      	mov	r0, r5
   2a160:	4621      	mov	r1, r4
   2a162:	f7fc fff5 	bl	27150 <_ZN20complex_dynamic_type3app17he8f9471df2669f64E>
   2a166:	782c      	ldrb	r4, [r5, #0]
   2a168:	2c01      	cmp	r4, #1
   2a16a:	d103      	bne.n	2a174 <_start+0x2574>
   2a16c:	980d      	ldr	r0, [sp, #52]	@ 0x34
   2a16e:	6e00      	ldr	r0, [r0, #96]	@ 0x60
   2a170:	900f      	str	r0, [sp, #60]	@ 0x3c
   2a172:	e012      	b.n	2a19a <_start+0x259a>
   2a174:	493c      	ldr	r1, [pc, #240]	@ (2a268 <_start+0x2668>)
   2a176:	4469      	add	r1, sp
   2a178:	78c8      	ldrb	r0, [r1, #3]
   2a17a:	aa10      	add	r2, sp, #64	@ 0x40
   2a17c:	7090      	strb	r0, [r2, #2]
   2a17e:	7848      	ldrb	r0, [r1, #1]
   2a180:	788b      	ldrb	r3, [r1, #2]
   2a182:	021b      	lsls	r3, r3, #8
   2a184:	1818      	adds	r0, r3, r0
   2a186:	8010      	strh	r0, [r2, #0]
   2a188:	980d      	ldr	r0, [sp, #52]	@ 0x34
   2a18a:	6e00      	ldr	r0, [r0, #96]	@ 0x60
   2a18c:	900f      	str	r0, [sp, #60]	@ 0x3c
   2a18e:	3108      	adds	r1, #8
   2a190:	4836      	ldr	r0, [pc, #216]	@ (2a26c <_start+0x266c>)
   2a192:	4468      	add	r0, sp
   2a194:	224c      	movs	r2, #76	@ 0x4c
   2a196:	f001 f8f8 	bl	2b38a <__aeabi_memcpy4>
   2a19a:	2c00      	cmp	r4, #0
   2a19c:	d001      	beq.n	2a1a2 <_start+0x25a2>
   2a19e:	f001 f830 	bl	2b202 <_start+0x3602>
   2a1a2:	4c39      	ldr	r4, [pc, #228]	@ (2a288 <_start+0x2688>)
   2a1a4:	446c      	add	r4, sp
   2a1a6:	990f      	ldr	r1, [sp, #60]	@ 0x3c
   2a1a8:	70e1      	strb	r1, [r4, #3]
   2a1aa:	9810      	ldr	r0, [sp, #64]	@ 0x40
   2a1ac:	8020      	strh	r0, [r4, #0]
   2a1ae:	0e08      	lsrs	r0, r1, #24
   2a1b0:	71a0      	strb	r0, [r4, #6]
   2a1b2:	0c08      	lsrs	r0, r1, #16
   2a1b4:	7160      	strb	r0, [r4, #5]
   2a1b6:	0a08      	lsrs	r0, r1, #8
   2a1b8:	7120      	strb	r0, [r4, #4]
   2a1ba:	a810      	add	r0, sp, #64	@ 0x40
   2a1bc:	7880      	ldrb	r0, [r0, #2]
   2a1be:	70a0      	strb	r0, [r4, #2]
   2a1c0:	1de0      	adds	r0, r4, #7
   2a1c2:	492a      	ldr	r1, [pc, #168]	@ (2a26c <_start+0x266c>)
   2a1c4:	4469      	add	r1, sp
   2a1c6:	224c      	movs	r2, #76	@ 0x4c
   2a1c8:	f001 fa3f 	bl	2b64a <__aeabi_memcpy>
   2a1cc:	4d26      	ldr	r5, [pc, #152]	@ (2a268 <_start+0x2668>)
   2a1ce:	446d      	add	r5, sp
   2a1d0:	4628      	mov	r0, r5
   2a1d2:	4621      	mov	r1, r4
   2a1d4:	f7f8 fca0 	bl	22b18 <_ZN20complex_dynamic_type3app17h5555730902837eeeE>
   2a1d8:	7828      	ldrb	r0, [r5, #0]
   2a1da:	2801      	cmp	r0, #1
   2a1dc:	d103      	bne.n	2a1e6 <_start+0x25e6>
   2a1de:	990d      	ldr	r1, [sp, #52]	@ 0x34
   2a1e0:	6e09      	ldr	r1, [r1, #96]	@ 0x60
   2a1e2:	910f      	str	r1, [sp, #60]	@ 0x3c
   2a1e4:	e019      	b.n	2a21a <_start+0x261a>
   2a1e6:	4920      	ldr	r1, [pc, #128]	@ (2a268 <_start+0x2668>)
   2a1e8:	4469      	add	r1, sp
   2a1ea:	78ca      	ldrb	r2, [r1, #3]
   2a1ec:	ab10      	add	r3, sp, #64	@ 0x40
   2a1ee:	709a      	strb	r2, [r3, #2]
   2a1f0:	784a      	ldrb	r2, [r1, #1]
   2a1f2:	788c      	ldrb	r4, [r1, #2]
   2a1f4:	0224      	lsls	r4, r4, #8
   2a1f6:	18a2      	adds	r2, r4, r2
   2a1f8:	801a      	strh	r2, [r3, #0]
   2a1fa:	3108      	adds	r1, #8
   2a1fc:	9a0d      	ldr	r2, [sp, #52]	@ 0x34
   2a1fe:	6e12      	ldr	r2, [r2, #96]	@ 0x60
   2a200:	920f      	str	r2, [sp, #60]	@ 0x3c
   2a202:	4a1a      	ldr	r2, [pc, #104]	@ (2a26c <_start+0x266c>)
   2a204:	446a      	add	r2, sp
   2a206:	c978      	ldmia	r1!, {r3, r4, r5, r6}
   2a208:	c278      	stmia	r2!, {r3, r4, r5, r6}
   2a20a:	c978      	ldmia	r1!, {r3, r4, r5, r6}
   2a20c:	c278      	stmia	r2!, {r3, r4, r5, r6}
   2a20e:	c978      	ldmia	r1!, {r3, r4, r5, r6}
   2a210:	c278      	stmia	r2!, {r3, r4, r5, r6}
   2a212:	880b      	ldrh	r3, [r1, #0]
   2a214:	8013      	strh	r3, [r2, #0]
   2a216:	7889      	ldrb	r1, [r1, #2]
   2a218:	7091      	strb	r1, [r2, #2]
   2a21a:	2800      	cmp	r0, #0
   2a21c:	d001      	beq.n	2a222 <_start+0x2622>
   2a21e:	f000 fff0 	bl	2b202 <_start+0x3602>
   2a222:	4c1a      	ldr	r4, [pc, #104]	@ (2a28c <_start+0x268c>)
   2a224:	446c      	add	r4, sp
   2a226:	990f      	ldr	r1, [sp, #60]	@ 0x3c
   2a228:	70e1      	strb	r1, [r4, #3]
   2a22a:	9810      	ldr	r0, [sp, #64]	@ 0x40
   2a22c:	8020      	strh	r0, [r4, #0]
   2a22e:	0e08      	lsrs	r0, r1, #24
   2a230:	71a0      	strb	r0, [r4, #6]
   2a232:	0c08      	lsrs	r0, r1, #16
   2a234:	7160      	strb	r0, [r4, #5]
   2a236:	0a08      	lsrs	r0, r1, #8
   2a238:	7120      	strb	r0, [r4, #4]
   2a23a:	a810      	add	r0, sp, #64	@ 0x40
   2a23c:	7880      	ldrb	r0, [r0, #2]
   2a23e:	70a0      	strb	r0, [r4, #2]
   2a240:	1de0      	adds	r0, r4, #7
   2a242:	490a      	ldr	r1, [pc, #40]	@ (2a26c <_start+0x266c>)
   2a244:	4469      	add	r1, sp
   2a246:	2233      	movs	r2, #51	@ 0x33
   2a248:	f001 f9ff 	bl	2b64a <__aeabi_memcpy>
   2a24c:	4d06      	ldr	r5, [pc, #24]	@ (2a268 <_start+0x2668>)
   2a24e:	446d      	add	r5, sp
   2a250:	4628      	mov	r0, r5
   2a252:	4621      	mov	r1, r4
   2a254:	f7f6 febc 	bl	20fd0 <_ZN20complex_dynamic_type3app17h13a8735daa1cf287E>
   2a258:	782c      	ldrb	r4, [r5, #0]
   2a25a:	2c01      	cmp	r4, #1
   2a25c:	d118      	bne.n	2a290 <_start+0x2690>
   2a25e:	980d      	ldr	r0, [sp, #52]	@ 0x34
   2a260:	6e00      	ldr	r0, [r0, #96]	@ 0x60
   2a262:	900f      	str	r0, [sp, #60]	@ 0x3c
   2a264:	e027      	b.n	2a2b6 <_start+0x26b6>
   2a266:	46c0      	nop			@ (mov r8, r8)
   2a268:	00001414 	.word	0x00001414
   2a26c:	000013b8 	.word	0x000013b8
   2a270:	00000bb4 	.word	0x00000bb4
   2a274:	00000bd4 	.word	0x00000bd4
   2a278:	00000bf8 	.word	0x00000bf8
   2a27c:	00000c24 	.word	0x00000c24
   2a280:	00000c80 	.word	0x00000c80
   2a284:	00000ccc 	.word	0x00000ccc
   2a288:	00000cfc 	.word	0x00000cfc
   2a28c:	00000d50 	.word	0x00000d50
   2a290:	49f0      	ldr	r1, [pc, #960]	@ (2a654 <_start+0x2a54>)
   2a292:	4469      	add	r1, sp
   2a294:	78c8      	ldrb	r0, [r1, #3]
   2a296:	aa10      	add	r2, sp, #64	@ 0x40
   2a298:	7090      	strb	r0, [r2, #2]
   2a29a:	7848      	ldrb	r0, [r1, #1]
   2a29c:	788b      	ldrb	r3, [r1, #2]
   2a29e:	021b      	lsls	r3, r3, #8
   2a2a0:	1818      	adds	r0, r3, r0
   2a2a2:	8010      	strh	r0, [r2, #0]
   2a2a4:	980d      	ldr	r0, [sp, #52]	@ 0x34
   2a2a6:	6e00      	ldr	r0, [r0, #96]	@ 0x60
   2a2a8:	900f      	str	r0, [sp, #60]	@ 0x3c
   2a2aa:	3108      	adds	r1, #8
   2a2ac:	48ea      	ldr	r0, [pc, #936]	@ (2a658 <_start+0x2a58>)
   2a2ae:	4468      	add	r0, sp
   2a2b0:	2256      	movs	r2, #86	@ 0x56
   2a2b2:	f001 f86a 	bl	2b38a <__aeabi_memcpy4>
   2a2b6:	2c00      	cmp	r4, #0
   2a2b8:	d001      	beq.n	2a2be <_start+0x26be>
   2a2ba:	f000 ffa2 	bl	2b202 <_start+0x3602>
   2a2be:	4ce7      	ldr	r4, [pc, #924]	@ (2a65c <_start+0x2a5c>)
   2a2c0:	446c      	add	r4, sp
   2a2c2:	990f      	ldr	r1, [sp, #60]	@ 0x3c
   2a2c4:	70e1      	strb	r1, [r4, #3]
   2a2c6:	9810      	ldr	r0, [sp, #64]	@ 0x40
   2a2c8:	8020      	strh	r0, [r4, #0]
   2a2ca:	0e08      	lsrs	r0, r1, #24
   2a2cc:	71a0      	strb	r0, [r4, #6]
   2a2ce:	0c08      	lsrs	r0, r1, #16
   2a2d0:	7160      	strb	r0, [r4, #5]
   2a2d2:	0a08      	lsrs	r0, r1, #8
   2a2d4:	7120      	strb	r0, [r4, #4]
   2a2d6:	a810      	add	r0, sp, #64	@ 0x40
   2a2d8:	7880      	ldrb	r0, [r0, #2]
   2a2da:	70a0      	strb	r0, [r4, #2]
   2a2dc:	1de0      	adds	r0, r4, #7
   2a2de:	49de      	ldr	r1, [pc, #888]	@ (2a658 <_start+0x2a58>)
   2a2e0:	4469      	add	r1, sp
   2a2e2:	2256      	movs	r2, #86	@ 0x56
   2a2e4:	f001 f9b1 	bl	2b64a <__aeabi_memcpy>
   2a2e8:	4dda      	ldr	r5, [pc, #872]	@ (2a654 <_start+0x2a54>)
   2a2ea:	446d      	add	r5, sp
   2a2ec:	4628      	mov	r0, r5
   2a2ee:	4621      	mov	r1, r4
   2a2f0:	f7fc fd64 	bl	26dbc <_ZN20complex_dynamic_type3app17he5900e5753a59fc2E>
   2a2f4:	7828      	ldrb	r0, [r5, #0]
   2a2f6:	2801      	cmp	r0, #1
   2a2f8:	d103      	bne.n	2a302 <_start+0x2702>
   2a2fa:	990d      	ldr	r1, [sp, #52]	@ 0x34
   2a2fc:	6e09      	ldr	r1, [r1, #96]	@ 0x60
   2a2fe:	910f      	str	r1, [sp, #60]	@ 0x3c
   2a300:	e019      	b.n	2a336 <_start+0x2736>
   2a302:	49d4      	ldr	r1, [pc, #848]	@ (2a654 <_start+0x2a54>)
   2a304:	4469      	add	r1, sp
   2a306:	78ca      	ldrb	r2, [r1, #3]
   2a308:	ab10      	add	r3, sp, #64	@ 0x40
   2a30a:	709a      	strb	r2, [r3, #2]
   2a30c:	784a      	ldrb	r2, [r1, #1]
   2a30e:	788c      	ldrb	r4, [r1, #2]
   2a310:	0224      	lsls	r4, r4, #8
   2a312:	18a2      	adds	r2, r4, r2
   2a314:	801a      	strh	r2, [r3, #0]
   2a316:	3108      	adds	r1, #8
   2a318:	9a0d      	ldr	r2, [sp, #52]	@ 0x34
   2a31a:	6e12      	ldr	r2, [r2, #96]	@ 0x60
   2a31c:	920f      	str	r2, [sp, #60]	@ 0x3c
   2a31e:	4ace      	ldr	r2, [pc, #824]	@ (2a658 <_start+0x2a58>)
   2a320:	446a      	add	r2, sp
   2a322:	c938      	ldmia	r1!, {r3, r4, r5}
   2a324:	c238      	stmia	r2!, {r3, r4, r5}
   2a326:	c978      	ldmia	r1!, {r3, r4, r5, r6}
   2a328:	c278      	stmia	r2!, {r3, r4, r5, r6}
   2a32a:	c938      	ldmia	r1!, {r3, r4, r5}
   2a32c:	c238      	stmia	r2!, {r3, r4, r5}
   2a32e:	c978      	ldmia	r1!, {r3, r4, r5, r6}
   2a330:	c278      	stmia	r2!, {r3, r4, r5, r6}
   2a332:	7809      	ldrb	r1, [r1, #0]
   2a334:	7011      	strb	r1, [r2, #0]
   2a336:	2800      	cmp	r0, #0
   2a338:	d001      	beq.n	2a33e <_start+0x273e>
   2a33a:	f000 ff62 	bl	2b202 <_start+0x3602>
   2a33e:	4cc8      	ldr	r4, [pc, #800]	@ (2a660 <_start+0x2a60>)
   2a340:	446c      	add	r4, sp
   2a342:	990f      	ldr	r1, [sp, #60]	@ 0x3c
   2a344:	70e1      	strb	r1, [r4, #3]
   2a346:	9810      	ldr	r0, [sp, #64]	@ 0x40
   2a348:	8020      	strh	r0, [r4, #0]
   2a34a:	0e08      	lsrs	r0, r1, #24
   2a34c:	71a0      	strb	r0, [r4, #6]
   2a34e:	0c08      	lsrs	r0, r1, #16
   2a350:	7160      	strb	r0, [r4, #5]
   2a352:	0a08      	lsrs	r0, r1, #8
   2a354:	7120      	strb	r0, [r4, #4]
   2a356:	a810      	add	r0, sp, #64	@ 0x40
   2a358:	7880      	ldrb	r0, [r0, #2]
   2a35a:	70a0      	strb	r0, [r4, #2]
   2a35c:	1de0      	adds	r0, r4, #7
   2a35e:	49be      	ldr	r1, [pc, #760]	@ (2a658 <_start+0x2a58>)
   2a360:	4469      	add	r1, sp
   2a362:	2239      	movs	r2, #57	@ 0x39
   2a364:	f001 f971 	bl	2b64a <__aeabi_memcpy>
   2a368:	4dba      	ldr	r5, [pc, #744]	@ (2a654 <_start+0x2a54>)
   2a36a:	446d      	add	r5, sp
   2a36c:	4628      	mov	r0, r5
   2a36e:	4621      	mov	r1, r4
   2a370:	f7fc f8fa 	bl	26568 <_ZN20complex_dynamic_type3app17hd6766bc95bae6580E>
   2a374:	7828      	ldrb	r0, [r5, #0]
   2a376:	2801      	cmp	r0, #1
   2a378:	d103      	bne.n	2a382 <_start+0x2782>
   2a37a:	990d      	ldr	r1, [sp, #52]	@ 0x34
   2a37c:	6e09      	ldr	r1, [r1, #96]	@ 0x60
   2a37e:	910f      	str	r1, [sp, #60]	@ 0x3c
   2a380:	e017      	b.n	2a3b2 <_start+0x27b2>
   2a382:	49b4      	ldr	r1, [pc, #720]	@ (2a654 <_start+0x2a54>)
   2a384:	4469      	add	r1, sp
   2a386:	78ca      	ldrb	r2, [r1, #3]
   2a388:	ab10      	add	r3, sp, #64	@ 0x40
   2a38a:	709a      	strb	r2, [r3, #2]
   2a38c:	784a      	ldrb	r2, [r1, #1]
   2a38e:	788c      	ldrb	r4, [r1, #2]
   2a390:	0224      	lsls	r4, r4, #8
   2a392:	18a2      	adds	r2, r4, r2
   2a394:	801a      	strh	r2, [r3, #0]
   2a396:	3108      	adds	r1, #8
   2a398:	9a0d      	ldr	r2, [sp, #52]	@ 0x34
   2a39a:	6e12      	ldr	r2, [r2, #96]	@ 0x60
   2a39c:	920f      	str	r2, [sp, #60]	@ 0x3c
   2a39e:	4aae      	ldr	r2, [pc, #696]	@ (2a658 <_start+0x2a58>)
   2a3a0:	446a      	add	r2, sp
   2a3a2:	c938      	ldmia	r1!, {r3, r4, r5}
   2a3a4:	c238      	stmia	r2!, {r3, r4, r5}
   2a3a6:	c938      	ldmia	r1!, {r3, r4, r5}
   2a3a8:	c238      	stmia	r2!, {r3, r4, r5}
   2a3aa:	c978      	ldmia	r1!, {r3, r4, r5, r6}
   2a3ac:	c278      	stmia	r2!, {r3, r4, r5, r6}
   2a3ae:	8809      	ldrh	r1, [r1, #0]
   2a3b0:	8011      	strh	r1, [r2, #0]
   2a3b2:	2800      	cmp	r0, #0
   2a3b4:	d001      	beq.n	2a3ba <_start+0x27ba>
   2a3b6:	f000 ff24 	bl	2b202 <_start+0x3602>
   2a3ba:	4caa      	ldr	r4, [pc, #680]	@ (2a664 <_start+0x2a64>)
   2a3bc:	446c      	add	r4, sp
   2a3be:	990f      	ldr	r1, [sp, #60]	@ 0x3c
   2a3c0:	70e1      	strb	r1, [r4, #3]
   2a3c2:	9810      	ldr	r0, [sp, #64]	@ 0x40
   2a3c4:	8020      	strh	r0, [r4, #0]
   2a3c6:	0e08      	lsrs	r0, r1, #24
   2a3c8:	71a0      	strb	r0, [r4, #6]
   2a3ca:	0c08      	lsrs	r0, r1, #16
   2a3cc:	7160      	strb	r0, [r4, #5]
   2a3ce:	0a08      	lsrs	r0, r1, #8
   2a3d0:	7120      	strb	r0, [r4, #4]
   2a3d2:	a810      	add	r0, sp, #64	@ 0x40
   2a3d4:	7880      	ldrb	r0, [r0, #2]
   2a3d6:	70a0      	strb	r0, [r4, #2]
   2a3d8:	1de0      	adds	r0, r4, #7
   2a3da:	499f      	ldr	r1, [pc, #636]	@ (2a658 <_start+0x2a58>)
   2a3dc:	4469      	add	r1, sp
   2a3de:	222a      	movs	r2, #42	@ 0x2a
   2a3e0:	f001 f933 	bl	2b64a <__aeabi_memcpy>
   2a3e4:	4d9b      	ldr	r5, [pc, #620]	@ (2a654 <_start+0x2a54>)
   2a3e6:	446d      	add	r5, sp
   2a3e8:	4628      	mov	r0, r5
   2a3ea:	4621      	mov	r1, r4
   2a3ec:	f7fc f954 	bl	26698 <_ZN20complex_dynamic_type3app17hd76460c5a3c6de63E>
   2a3f0:	782c      	ldrb	r4, [r5, #0]
   2a3f2:	2c01      	cmp	r4, #1
   2a3f4:	d103      	bne.n	2a3fe <_start+0x27fe>
   2a3f6:	980d      	ldr	r0, [sp, #52]	@ 0x34
   2a3f8:	6e00      	ldr	r0, [r0, #96]	@ 0x60
   2a3fa:	900f      	str	r0, [sp, #60]	@ 0x3c
   2a3fc:	e012      	b.n	2a424 <_start+0x2824>
   2a3fe:	4995      	ldr	r1, [pc, #596]	@ (2a654 <_start+0x2a54>)
   2a400:	4469      	add	r1, sp
   2a402:	78c8      	ldrb	r0, [r1, #3]
   2a404:	aa10      	add	r2, sp, #64	@ 0x40
   2a406:	7090      	strb	r0, [r2, #2]
   2a408:	7848      	ldrb	r0, [r1, #1]
   2a40a:	788b      	ldrb	r3, [r1, #2]
   2a40c:	021b      	lsls	r3, r3, #8
   2a40e:	1818      	adds	r0, r3, r0
   2a410:	8010      	strh	r0, [r2, #0]
   2a412:	980d      	ldr	r0, [sp, #52]	@ 0x34
   2a414:	6e00      	ldr	r0, [r0, #96]	@ 0x60
   2a416:	900f      	str	r0, [sp, #60]	@ 0x3c
   2a418:	3108      	adds	r1, #8
   2a41a:	488f      	ldr	r0, [pc, #572]	@ (2a658 <_start+0x2a58>)
   2a41c:	4468      	add	r0, sp
   2a41e:	2241      	movs	r2, #65	@ 0x41
   2a420:	f000 ffb3 	bl	2b38a <__aeabi_memcpy4>
   2a424:	2c00      	cmp	r4, #0
   2a426:	d001      	beq.n	2a42c <_start+0x282c>
   2a428:	f000 feeb 	bl	2b202 <_start+0x3602>
   2a42c:	4c8e      	ldr	r4, [pc, #568]	@ (2a668 <_start+0x2a68>)
   2a42e:	446c      	add	r4, sp
   2a430:	990f      	ldr	r1, [sp, #60]	@ 0x3c
   2a432:	70e1      	strb	r1, [r4, #3]
   2a434:	9810      	ldr	r0, [sp, #64]	@ 0x40
   2a436:	8020      	strh	r0, [r4, #0]
   2a438:	0e08      	lsrs	r0, r1, #24
   2a43a:	71a0      	strb	r0, [r4, #6]
   2a43c:	0c08      	lsrs	r0, r1, #16
   2a43e:	7160      	strb	r0, [r4, #5]
   2a440:	0a08      	lsrs	r0, r1, #8
   2a442:	7120      	strb	r0, [r4, #4]
   2a444:	a810      	add	r0, sp, #64	@ 0x40
   2a446:	7880      	ldrb	r0, [r0, #2]
   2a448:	70a0      	strb	r0, [r4, #2]
   2a44a:	1de0      	adds	r0, r4, #7
   2a44c:	4982      	ldr	r1, [pc, #520]	@ (2a658 <_start+0x2a58>)
   2a44e:	4469      	add	r1, sp
   2a450:	2241      	movs	r2, #65	@ 0x41
   2a452:	f001 f8fa 	bl	2b64a <__aeabi_memcpy>
   2a456:	4d7f      	ldr	r5, [pc, #508]	@ (2a654 <_start+0x2a54>)
   2a458:	446d      	add	r5, sp
   2a45a:	4628      	mov	r0, r5
   2a45c:	4621      	mov	r1, r4
   2a45e:	f7f8 fe53 	bl	23108 <_ZN20complex_dynamic_type3app17h5fd80e817ba59e65E>
   2a462:	7828      	ldrb	r0, [r5, #0]
   2a464:	2801      	cmp	r0, #1
   2a466:	d103      	bne.n	2a470 <_start+0x2870>
   2a468:	990d      	ldr	r1, [sp, #52]	@ 0x34
   2a46a:	6e09      	ldr	r1, [r1, #96]	@ 0x60
   2a46c:	910f      	str	r1, [sp, #60]	@ 0x3c
   2a46e:	e015      	b.n	2a49c <_start+0x289c>
   2a470:	4978      	ldr	r1, [pc, #480]	@ (2a654 <_start+0x2a54>)
   2a472:	4469      	add	r1, sp
   2a474:	78ca      	ldrb	r2, [r1, #3]
   2a476:	ab10      	add	r3, sp, #64	@ 0x40
   2a478:	709a      	strb	r2, [r3, #2]
   2a47a:	784a      	ldrb	r2, [r1, #1]
   2a47c:	788c      	ldrb	r4, [r1, #2]
   2a47e:	0224      	lsls	r4, r4, #8
   2a480:	18a2      	adds	r2, r4, r2
   2a482:	801a      	strh	r2, [r3, #0]
   2a484:	3108      	adds	r1, #8
   2a486:	9a0d      	ldr	r2, [sp, #52]	@ 0x34
   2a488:	6e12      	ldr	r2, [r2, #96]	@ 0x60
   2a48a:	920f      	str	r2, [sp, #60]	@ 0x3c
   2a48c:	4a72      	ldr	r2, [pc, #456]	@ (2a658 <_start+0x2a58>)
   2a48e:	446a      	add	r2, sp
   2a490:	c978      	ldmia	r1!, {r3, r4, r5, r6}
   2a492:	c278      	stmia	r2!, {r3, r4, r5, r6}
   2a494:	c978      	ldmia	r1!, {r3, r4, r5, r6}
   2a496:	c278      	stmia	r2!, {r3, r4, r5, r6}
   2a498:	8809      	ldrh	r1, [r1, #0]
   2a49a:	8011      	strh	r1, [r2, #0]
   2a49c:	2800      	cmp	r0, #0
   2a49e:	d001      	beq.n	2a4a4 <_start+0x28a4>
   2a4a0:	f000 feaf 	bl	2b202 <_start+0x3602>
   2a4a4:	4c71      	ldr	r4, [pc, #452]	@ (2a66c <_start+0x2a6c>)
   2a4a6:	446c      	add	r4, sp
   2a4a8:	990f      	ldr	r1, [sp, #60]	@ 0x3c
   2a4aa:	70e1      	strb	r1, [r4, #3]
   2a4ac:	9810      	ldr	r0, [sp, #64]	@ 0x40
   2a4ae:	8020      	strh	r0, [r4, #0]
   2a4b0:	0e08      	lsrs	r0, r1, #24
   2a4b2:	71a0      	strb	r0, [r4, #6]
   2a4b4:	0c08      	lsrs	r0, r1, #16
   2a4b6:	7160      	strb	r0, [r4, #5]
   2a4b8:	0a08      	lsrs	r0, r1, #8
   2a4ba:	7120      	strb	r0, [r4, #4]
   2a4bc:	a810      	add	r0, sp, #64	@ 0x40
   2a4be:	7880      	ldrb	r0, [r0, #2]
   2a4c0:	70a0      	strb	r0, [r4, #2]
   2a4c2:	1de0      	adds	r0, r4, #7
   2a4c4:	4964      	ldr	r1, [pc, #400]	@ (2a658 <_start+0x2a58>)
   2a4c6:	4469      	add	r1, sp
   2a4c8:	2222      	movs	r2, #34	@ 0x22
   2a4ca:	f001 f8be 	bl	2b64a <__aeabi_memcpy>
   2a4ce:	4d61      	ldr	r5, [pc, #388]	@ (2a654 <_start+0x2a54>)
   2a4d0:	446d      	add	r5, sp
   2a4d2:	4628      	mov	r0, r5
   2a4d4:	4621      	mov	r1, r4
   2a4d6:	f7fb f9bd 	bl	25854 <_ZN20complex_dynamic_type3app17hb657d1f4be035569E>
   2a4da:	7828      	ldrb	r0, [r5, #0]
   2a4dc:	2801      	cmp	r0, #1
   2a4de:	d103      	bne.n	2a4e8 <_start+0x28e8>
   2a4e0:	990d      	ldr	r1, [sp, #52]	@ 0x34
   2a4e2:	6e09      	ldr	r1, [r1, #96]	@ 0x60
   2a4e4:	910f      	str	r1, [sp, #60]	@ 0x3c
   2a4e6:	e015      	b.n	2a514 <_start+0x2914>
   2a4e8:	495a      	ldr	r1, [pc, #360]	@ (2a654 <_start+0x2a54>)
   2a4ea:	4469      	add	r1, sp
   2a4ec:	78ca      	ldrb	r2, [r1, #3]
   2a4ee:	ab10      	add	r3, sp, #64	@ 0x40
   2a4f0:	709a      	strb	r2, [r3, #2]
   2a4f2:	784a      	ldrb	r2, [r1, #1]
   2a4f4:	788c      	ldrb	r4, [r1, #2]
   2a4f6:	0224      	lsls	r4, r4, #8
   2a4f8:	18a2      	adds	r2, r4, r2
   2a4fa:	801a      	strh	r2, [r3, #0]
   2a4fc:	3108      	adds	r1, #8
   2a4fe:	9a0d      	ldr	r2, [sp, #52]	@ 0x34
   2a500:	6e12      	ldr	r2, [r2, #96]	@ 0x60
   2a502:	920f      	str	r2, [sp, #60]	@ 0x3c
   2a504:	4a54      	ldr	r2, [pc, #336]	@ (2a658 <_start+0x2a58>)
   2a506:	446a      	add	r2, sp
   2a508:	c978      	ldmia	r1!, {r3, r4, r5, r6}
   2a50a:	c278      	stmia	r2!, {r3, r4, r5, r6}
   2a50c:	880b      	ldrh	r3, [r1, #0]
   2a50e:	8013      	strh	r3, [r2, #0]
   2a510:	7889      	ldrb	r1, [r1, #2]
   2a512:	7091      	strb	r1, [r2, #2]
   2a514:	2800      	cmp	r0, #0
   2a516:	d001      	beq.n	2a51c <_start+0x291c>
   2a518:	f000 fe73 	bl	2b202 <_start+0x3602>
   2a51c:	4c54      	ldr	r4, [pc, #336]	@ (2a670 <_start+0x2a70>)
   2a51e:	446c      	add	r4, sp
   2a520:	990f      	ldr	r1, [sp, #60]	@ 0x3c
   2a522:	70e1      	strb	r1, [r4, #3]
   2a524:	9810      	ldr	r0, [sp, #64]	@ 0x40
   2a526:	8020      	strh	r0, [r4, #0]
   2a528:	0e08      	lsrs	r0, r1, #24
   2a52a:	71a0      	strb	r0, [r4, #6]
   2a52c:	0c08      	lsrs	r0, r1, #16
   2a52e:	7160      	strb	r0, [r4, #5]
   2a530:	0a08      	lsrs	r0, r1, #8
   2a532:	7120      	strb	r0, [r4, #4]
   2a534:	a810      	add	r0, sp, #64	@ 0x40
   2a536:	7880      	ldrb	r0, [r0, #2]
   2a538:	70a0      	strb	r0, [r4, #2]
   2a53a:	1de0      	adds	r0, r4, #7
   2a53c:	4946      	ldr	r1, [pc, #280]	@ (2a658 <_start+0x2a58>)
   2a53e:	4469      	add	r1, sp
   2a540:	2213      	movs	r2, #19
   2a542:	f001 f882 	bl	2b64a <__aeabi_memcpy>
   2a546:	4d43      	ldr	r5, [pc, #268]	@ (2a654 <_start+0x2a54>)
   2a548:	446d      	add	r5, sp
   2a54a:	4628      	mov	r0, r5
   2a54c:	4621      	mov	r1, r4
   2a54e:	f7f8 ff09 	bl	23364 <_ZN20complex_dynamic_type3app17h633094e0cf0946b0E>
   2a552:	7828      	ldrb	r0, [r5, #0]
   2a554:	2801      	cmp	r0, #1
   2a556:	d103      	bne.n	2a560 <_start+0x2960>
   2a558:	990d      	ldr	r1, [sp, #52]	@ 0x34
   2a55a:	6e09      	ldr	r1, [r1, #96]	@ 0x60
   2a55c:	910f      	str	r1, [sp, #60]	@ 0x3c
   2a55e:	e013      	b.n	2a588 <_start+0x2988>
   2a560:	493c      	ldr	r1, [pc, #240]	@ (2a654 <_start+0x2a54>)
   2a562:	4469      	add	r1, sp
   2a564:	78ca      	ldrb	r2, [r1, #3]
   2a566:	ab10      	add	r3, sp, #64	@ 0x40
   2a568:	709a      	strb	r2, [r3, #2]
   2a56a:	784a      	ldrb	r2, [r1, #1]
   2a56c:	788c      	ldrb	r4, [r1, #2]
   2a56e:	0224      	lsls	r4, r4, #8
   2a570:	18a2      	adds	r2, r4, r2
   2a572:	801a      	strh	r2, [r3, #0]
   2a574:	3108      	adds	r1, #8
   2a576:	9a0d      	ldr	r2, [sp, #52]	@ 0x34
   2a578:	6e12      	ldr	r2, [r2, #96]	@ 0x60
   2a57a:	920f      	str	r2, [sp, #60]	@ 0x3c
   2a57c:	4a36      	ldr	r2, [pc, #216]	@ (2a658 <_start+0x2a58>)
   2a57e:	446a      	add	r2, sp
   2a580:	c918      	ldmia	r1!, {r3, r4}
   2a582:	c218      	stmia	r2!, {r3, r4}
   2a584:	c938      	ldmia	r1!, {r3, r4, r5}
   2a586:	c238      	stmia	r2!, {r3, r4, r5}
   2a588:	2800      	cmp	r0, #0
   2a58a:	d001      	beq.n	2a590 <_start+0x2990>
   2a58c:	f000 fe39 	bl	2b202 <_start+0x3602>
   2a590:	4c38      	ldr	r4, [pc, #224]	@ (2a674 <_start+0x2a74>)
   2a592:	446c      	add	r4, sp
   2a594:	990f      	ldr	r1, [sp, #60]	@ 0x3c
   2a596:	70e1      	strb	r1, [r4, #3]
   2a598:	9810      	ldr	r0, [sp, #64]	@ 0x40
   2a59a:	8020      	strh	r0, [r4, #0]
   2a59c:	0e08      	lsrs	r0, r1, #24
   2a59e:	71a0      	strb	r0, [r4, #6]
   2a5a0:	0c08      	lsrs	r0, r1, #16
   2a5a2:	7160      	strb	r0, [r4, #5]
   2a5a4:	0a08      	lsrs	r0, r1, #8
   2a5a6:	7120      	strb	r0, [r4, #4]
   2a5a8:	a810      	add	r0, sp, #64	@ 0x40
   2a5aa:	7880      	ldrb	r0, [r0, #2]
   2a5ac:	70a0      	strb	r0, [r4, #2]
   2a5ae:	1de0      	adds	r0, r4, #7
   2a5b0:	4929      	ldr	r1, [pc, #164]	@ (2a658 <_start+0x2a58>)
   2a5b2:	4469      	add	r1, sp
   2a5b4:	2214      	movs	r2, #20
   2a5b6:	f001 f848 	bl	2b64a <__aeabi_memcpy>
   2a5ba:	4d26      	ldr	r5, [pc, #152]	@ (2a654 <_start+0x2a54>)
   2a5bc:	446d      	add	r5, sp
   2a5be:	4628      	mov	r0, r5
   2a5c0:	4621      	mov	r1, r4
   2a5c2:	f7f7 fc21 	bl	21e08 <_ZN20complex_dynamic_type3app17h358c1fb25c3eb884E>
   2a5c6:	7828      	ldrb	r0, [r5, #0]
   2a5c8:	2801      	cmp	r0, #1
   2a5ca:	d103      	bne.n	2a5d4 <_start+0x29d4>
   2a5cc:	990d      	ldr	r1, [sp, #52]	@ 0x34
   2a5ce:	6e09      	ldr	r1, [r1, #96]	@ 0x60
   2a5d0:	910f      	str	r1, [sp, #60]	@ 0x3c
   2a5d2:	e019      	b.n	2a608 <_start+0x2a08>
   2a5d4:	491f      	ldr	r1, [pc, #124]	@ (2a654 <_start+0x2a54>)
   2a5d6:	4469      	add	r1, sp
   2a5d8:	78ca      	ldrb	r2, [r1, #3]
   2a5da:	ab10      	add	r3, sp, #64	@ 0x40
   2a5dc:	709a      	strb	r2, [r3, #2]
   2a5de:	784a      	ldrb	r2, [r1, #1]
   2a5e0:	788c      	ldrb	r4, [r1, #2]
   2a5e2:	0224      	lsls	r4, r4, #8
   2a5e4:	18a2      	adds	r2, r4, r2
   2a5e6:	801a      	strh	r2, [r3, #0]
   2a5e8:	3108      	adds	r1, #8
   2a5ea:	9a0d      	ldr	r2, [sp, #52]	@ 0x34
   2a5ec:	6e12      	ldr	r2, [r2, #96]	@ 0x60
   2a5ee:	920f      	str	r2, [sp, #60]	@ 0x3c
   2a5f0:	4a19      	ldr	r2, [pc, #100]	@ (2a658 <_start+0x2a58>)
   2a5f2:	446a      	add	r2, sp
   2a5f4:	c938      	ldmia	r1!, {r3, r4, r5}
   2a5f6:	c238      	stmia	r2!, {r3, r4, r5}
   2a5f8:	c978      	ldmia	r1!, {r3, r4, r5, r6}
   2a5fa:	c278      	stmia	r2!, {r3, r4, r5, r6}
   2a5fc:	c938      	ldmia	r1!, {r3, r4, r5}
   2a5fe:	c238      	stmia	r2!, {r3, r4, r5}
   2a600:	c978      	ldmia	r1!, {r3, r4, r5, r6}
   2a602:	c278      	stmia	r2!, {r3, r4, r5, r6}
   2a604:	8809      	ldrh	r1, [r1, #0]
   2a606:	8011      	strh	r1, [r2, #0]
   2a608:	2800      	cmp	r0, #0
   2a60a:	d001      	beq.n	2a610 <_start+0x2a10>
   2a60c:	f000 fdf9 	bl	2b202 <_start+0x3602>
   2a610:	4c19      	ldr	r4, [pc, #100]	@ (2a678 <_start+0x2a78>)
   2a612:	446c      	add	r4, sp
   2a614:	990f      	ldr	r1, [sp, #60]	@ 0x3c
   2a616:	70e1      	strb	r1, [r4, #3]
   2a618:	9810      	ldr	r0, [sp, #64]	@ 0x40
   2a61a:	8020      	strh	r0, [r4, #0]
   2a61c:	0e08      	lsrs	r0, r1, #24
   2a61e:	71a0      	strb	r0, [r4, #6]
   2a620:	0c08      	lsrs	r0, r1, #16
   2a622:	7160      	strb	r0, [r4, #5]
   2a624:	0a08      	lsrs	r0, r1, #8
   2a626:	7120      	strb	r0, [r4, #4]
   2a628:	a810      	add	r0, sp, #64	@ 0x40
   2a62a:	7880      	ldrb	r0, [r0, #2]
   2a62c:	70a0      	strb	r0, [r4, #2]
   2a62e:	1de0      	adds	r0, r4, #7
   2a630:	4909      	ldr	r1, [pc, #36]	@ (2a658 <_start+0x2a58>)
   2a632:	4469      	add	r1, sp
   2a634:	223a      	movs	r2, #58	@ 0x3a
   2a636:	f001 f808 	bl	2b64a <__aeabi_memcpy>
   2a63a:	4d06      	ldr	r5, [pc, #24]	@ (2a654 <_start+0x2a54>)
   2a63c:	446d      	add	r5, sp
   2a63e:	4628      	mov	r0, r5
   2a640:	4621      	mov	r1, r4
   2a642:	f7f6 fd5b 	bl	210fc <_ZN20complex_dynamic_type3app17h153232da6f57f5c5E>
   2a646:	7828      	ldrb	r0, [r5, #0]
   2a648:	2801      	cmp	r0, #1
   2a64a:	d117      	bne.n	2a67c <_start+0x2a7c>
   2a64c:	990d      	ldr	r1, [sp, #52]	@ 0x34
   2a64e:	6e09      	ldr	r1, [r1, #96]	@ 0x60
   2a650:	910f      	str	r1, [sp, #60]	@ 0x3c
   2a652:	e027      	b.n	2a6a4 <_start+0x2aa4>
   2a654:	00001414 	.word	0x00001414
   2a658:	000013b8 	.word	0x000013b8
   2a65c:	00000d8c 	.word	0x00000d8c
   2a660:	00000dec 	.word	0x00000dec
   2a664:	00000e2c 	.word	0x00000e2c
   2a668:	00000e60 	.word	0x00000e60
   2a66c:	00000ea8 	.word	0x00000ea8
   2a670:	00000ed4 	.word	0x00000ed4
   2a674:	00000ef0 	.word	0x00000ef0
   2a678:	00000f0c 	.word	0x00000f0c
   2a67c:	49f1      	ldr	r1, [pc, #964]	@ (2aa44 <_start+0x2e44>)
   2a67e:	4469      	add	r1, sp
   2a680:	78ca      	ldrb	r2, [r1, #3]
   2a682:	ab10      	add	r3, sp, #64	@ 0x40
   2a684:	709a      	strb	r2, [r3, #2]
   2a686:	784a      	ldrb	r2, [r1, #1]
   2a688:	788c      	ldrb	r4, [r1, #2]
   2a68a:	0224      	lsls	r4, r4, #8
   2a68c:	18a2      	adds	r2, r4, r2
   2a68e:	801a      	strh	r2, [r3, #0]
   2a690:	3108      	adds	r1, #8
   2a692:	9a0d      	ldr	r2, [sp, #52]	@ 0x34
   2a694:	6e12      	ldr	r2, [r2, #96]	@ 0x60
   2a696:	920f      	str	r2, [sp, #60]	@ 0x3c
   2a698:	4aeb      	ldr	r2, [pc, #940]	@ (2aa48 <_start+0x2e48>)
   2a69a:	446a      	add	r2, sp
   2a69c:	c978      	ldmia	r1!, {r3, r4, r5, r6}
   2a69e:	c278      	stmia	r2!, {r3, r4, r5, r6}
   2a6a0:	7809      	ldrb	r1, [r1, #0]
   2a6a2:	7011      	strb	r1, [r2, #0]
   2a6a4:	2800      	cmp	r0, #0
   2a6a6:	d001      	beq.n	2a6ac <_start+0x2aac>
   2a6a8:	f000 fdab 	bl	2b202 <_start+0x3602>
   2a6ac:	4ce7      	ldr	r4, [pc, #924]	@ (2aa4c <_start+0x2e4c>)
   2a6ae:	446c      	add	r4, sp
   2a6b0:	990f      	ldr	r1, [sp, #60]	@ 0x3c
   2a6b2:	70e1      	strb	r1, [r4, #3]
   2a6b4:	9810      	ldr	r0, [sp, #64]	@ 0x40
   2a6b6:	8020      	strh	r0, [r4, #0]
   2a6b8:	0e08      	lsrs	r0, r1, #24
   2a6ba:	71a0      	strb	r0, [r4, #6]
   2a6bc:	0c08      	lsrs	r0, r1, #16
   2a6be:	7160      	strb	r0, [r4, #5]
   2a6c0:	0a08      	lsrs	r0, r1, #8
   2a6c2:	7120      	strb	r0, [r4, #4]
   2a6c4:	a810      	add	r0, sp, #64	@ 0x40
   2a6c6:	7880      	ldrb	r0, [r0, #2]
   2a6c8:	70a0      	strb	r0, [r4, #2]
   2a6ca:	1de0      	adds	r0, r4, #7
   2a6cc:	49de      	ldr	r1, [pc, #888]	@ (2aa48 <_start+0x2e48>)
   2a6ce:	4469      	add	r1, sp
   2a6d0:	2211      	movs	r2, #17
   2a6d2:	f000 ffba 	bl	2b64a <__aeabi_memcpy>
   2a6d6:	4ddb      	ldr	r5, [pc, #876]	@ (2aa44 <_start+0x2e44>)
   2a6d8:	446d      	add	r5, sp
   2a6da:	4628      	mov	r0, r5
   2a6dc:	4621      	mov	r1, r4
   2a6de:	f7fb fc49 	bl	25f74 <_ZN20complex_dynamic_type3app17hce8f0da81058faa3E>
   2a6e2:	7828      	ldrb	r0, [r5, #0]
   2a6e4:	2801      	cmp	r0, #1
   2a6e6:	d103      	bne.n	2a6f0 <_start+0x2af0>
   2a6e8:	990d      	ldr	r1, [sp, #52]	@ 0x34
   2a6ea:	6e09      	ldr	r1, [r1, #96]	@ 0x60
   2a6ec:	910f      	str	r1, [sp, #60]	@ 0x3c
   2a6ee:	e017      	b.n	2a720 <_start+0x2b20>
   2a6f0:	49d4      	ldr	r1, [pc, #848]	@ (2aa44 <_start+0x2e44>)
   2a6f2:	4469      	add	r1, sp
   2a6f4:	78ca      	ldrb	r2, [r1, #3]
   2a6f6:	ab10      	add	r3, sp, #64	@ 0x40
   2a6f8:	709a      	strb	r2, [r3, #2]
   2a6fa:	784a      	ldrb	r2, [r1, #1]
   2a6fc:	788c      	ldrb	r4, [r1, #2]
   2a6fe:	0224      	lsls	r4, r4, #8
   2a700:	18a2      	adds	r2, r4, r2
   2a702:	801a      	strh	r2, [r3, #0]
   2a704:	3108      	adds	r1, #8
   2a706:	9a0d      	ldr	r2, [sp, #52]	@ 0x34
   2a708:	6e12      	ldr	r2, [r2, #96]	@ 0x60
   2a70a:	920f      	str	r2, [sp, #60]	@ 0x3c
   2a70c:	4ace      	ldr	r2, [pc, #824]	@ (2aa48 <_start+0x2e48>)
   2a70e:	446a      	add	r2, sp
   2a710:	c918      	ldmia	r1!, {r3, r4}
   2a712:	c218      	stmia	r2!, {r3, r4}
   2a714:	c938      	ldmia	r1!, {r3, r4, r5}
   2a716:	c238      	stmia	r2!, {r3, r4, r5}
   2a718:	880b      	ldrh	r3, [r1, #0]
   2a71a:	8013      	strh	r3, [r2, #0]
   2a71c:	7889      	ldrb	r1, [r1, #2]
   2a71e:	7091      	strb	r1, [r2, #2]
   2a720:	2800      	cmp	r0, #0
   2a722:	d001      	beq.n	2a728 <_start+0x2b28>
   2a724:	f000 fd6d 	bl	2b202 <_start+0x3602>
   2a728:	4cc9      	ldr	r4, [pc, #804]	@ (2aa50 <_start+0x2e50>)
   2a72a:	446c      	add	r4, sp
   2a72c:	990f      	ldr	r1, [sp, #60]	@ 0x3c
   2a72e:	70e1      	strb	r1, [r4, #3]
   2a730:	9810      	ldr	r0, [sp, #64]	@ 0x40
   2a732:	8020      	strh	r0, [r4, #0]
   2a734:	0e08      	lsrs	r0, r1, #24
   2a736:	71a0      	strb	r0, [r4, #6]
   2a738:	0c08      	lsrs	r0, r1, #16
   2a73a:	7160      	strb	r0, [r4, #5]
   2a73c:	0a08      	lsrs	r0, r1, #8
   2a73e:	7120      	strb	r0, [r4, #4]
   2a740:	a810      	add	r0, sp, #64	@ 0x40
   2a742:	7880      	ldrb	r0, [r0, #2]
   2a744:	70a0      	strb	r0, [r4, #2]
   2a746:	1de0      	adds	r0, r4, #7
   2a748:	49bf      	ldr	r1, [pc, #764]	@ (2aa48 <_start+0x2e48>)
   2a74a:	4469      	add	r1, sp
   2a74c:	2217      	movs	r2, #23
   2a74e:	f000 ff7c 	bl	2b64a <__aeabi_memcpy>
   2a752:	4dbc      	ldr	r5, [pc, #752]	@ (2aa44 <_start+0x2e44>)
   2a754:	446d      	add	r5, sp
   2a756:	4628      	mov	r0, r5
   2a758:	4621      	mov	r1, r4
   2a75a:	f7f9 f869 	bl	23830 <_ZN20complex_dynamic_type3app17h7caecb9cad38eef3E>
   2a75e:	7828      	ldrb	r0, [r5, #0]
   2a760:	2801      	cmp	r0, #1
   2a762:	d103      	bne.n	2a76c <_start+0x2b6c>
   2a764:	990d      	ldr	r1, [sp, #52]	@ 0x34
   2a766:	6e09      	ldr	r1, [r1, #96]	@ 0x60
   2a768:	910f      	str	r1, [sp, #60]	@ 0x3c
   2a76a:	e019      	b.n	2a7a0 <_start+0x2ba0>
   2a76c:	49b5      	ldr	r1, [pc, #724]	@ (2aa44 <_start+0x2e44>)
   2a76e:	4469      	add	r1, sp
   2a770:	78ca      	ldrb	r2, [r1, #3]
   2a772:	ab10      	add	r3, sp, #64	@ 0x40
   2a774:	709a      	strb	r2, [r3, #2]
   2a776:	784a      	ldrb	r2, [r1, #1]
   2a778:	788c      	ldrb	r4, [r1, #2]
   2a77a:	0224      	lsls	r4, r4, #8
   2a77c:	18a2      	adds	r2, r4, r2
   2a77e:	801a      	strh	r2, [r3, #0]
   2a780:	3108      	adds	r1, #8
   2a782:	9a0d      	ldr	r2, [sp, #52]	@ 0x34
   2a784:	6e12      	ldr	r2, [r2, #96]	@ 0x60
   2a786:	920f      	str	r2, [sp, #60]	@ 0x3c
   2a788:	4aaf      	ldr	r2, [pc, #700]	@ (2aa48 <_start+0x2e48>)
   2a78a:	446a      	add	r2, sp
   2a78c:	c938      	ldmia	r1!, {r3, r4, r5}
   2a78e:	c238      	stmia	r2!, {r3, r4, r5}
   2a790:	c938      	ldmia	r1!, {r3, r4, r5}
   2a792:	c238      	stmia	r2!, {r3, r4, r5}
   2a794:	c938      	ldmia	r1!, {r3, r4, r5}
   2a796:	c238      	stmia	r2!, {r3, r4, r5}
   2a798:	c978      	ldmia	r1!, {r3, r4, r5, r6}
   2a79a:	c278      	stmia	r2!, {r3, r4, r5, r6}
   2a79c:	7809      	ldrb	r1, [r1, #0]
   2a79e:	7011      	strb	r1, [r2, #0]
   2a7a0:	2800      	cmp	r0, #0
   2a7a2:	d001      	beq.n	2a7a8 <_start+0x2ba8>
   2a7a4:	f000 fd2d 	bl	2b202 <_start+0x3602>
   2a7a8:	4caa      	ldr	r4, [pc, #680]	@ (2aa54 <_start+0x2e54>)
   2a7aa:	446c      	add	r4, sp
   2a7ac:	990f      	ldr	r1, [sp, #60]	@ 0x3c
   2a7ae:	70e1      	strb	r1, [r4, #3]
   2a7b0:	9810      	ldr	r0, [sp, #64]	@ 0x40
   2a7b2:	8020      	strh	r0, [r4, #0]
   2a7b4:	0e08      	lsrs	r0, r1, #24
   2a7b6:	71a0      	strb	r0, [r4, #6]
   2a7b8:	0c08      	lsrs	r0, r1, #16
   2a7ba:	7160      	strb	r0, [r4, #5]
   2a7bc:	0a08      	lsrs	r0, r1, #8
   2a7be:	7120      	strb	r0, [r4, #4]
   2a7c0:	a810      	add	r0, sp, #64	@ 0x40
   2a7c2:	7880      	ldrb	r0, [r0, #2]
   2a7c4:	70a0      	strb	r0, [r4, #2]
   2a7c6:	1de0      	adds	r0, r4, #7
   2a7c8:	499f      	ldr	r1, [pc, #636]	@ (2aa48 <_start+0x2e48>)
   2a7ca:	4469      	add	r1, sp
   2a7cc:	2235      	movs	r2, #53	@ 0x35
   2a7ce:	f000 ff3c 	bl	2b64a <__aeabi_memcpy>
   2a7d2:	4d9c      	ldr	r5, [pc, #624]	@ (2aa44 <_start+0x2e44>)
   2a7d4:	446d      	add	r5, sp
   2a7d6:	4628      	mov	r0, r5
   2a7d8:	4621      	mov	r1, r4
   2a7da:	f7f8 f905 	bl	229e8 <_ZN20complex_dynamic_type3app17h4e9e33dbc88df202E>
   2a7de:	7828      	ldrb	r0, [r5, #0]
   2a7e0:	2801      	cmp	r0, #1
   2a7e2:	d103      	bne.n	2a7ec <_start+0x2bec>
   2a7e4:	990d      	ldr	r1, [sp, #52]	@ 0x34
   2a7e6:	6e09      	ldr	r1, [r1, #96]	@ 0x60
   2a7e8:	910f      	str	r1, [sp, #60]	@ 0x3c
   2a7ea:	e017      	b.n	2a81c <_start+0x2c1c>
   2a7ec:	4995      	ldr	r1, [pc, #596]	@ (2aa44 <_start+0x2e44>)
   2a7ee:	4469      	add	r1, sp
   2a7f0:	78ca      	ldrb	r2, [r1, #3]
   2a7f2:	ab10      	add	r3, sp, #64	@ 0x40
   2a7f4:	709a      	strb	r2, [r3, #2]
   2a7f6:	784a      	ldrb	r2, [r1, #1]
   2a7f8:	788c      	ldrb	r4, [r1, #2]
   2a7fa:	0224      	lsls	r4, r4, #8
   2a7fc:	18a2      	adds	r2, r4, r2
   2a7fe:	801a      	strh	r2, [r3, #0]
   2a800:	3108      	adds	r1, #8
   2a802:	9a0d      	ldr	r2, [sp, #52]	@ 0x34
   2a804:	6e12      	ldr	r2, [r2, #96]	@ 0x60
   2a806:	920f      	str	r2, [sp, #60]	@ 0x3c
   2a808:	4a8f      	ldr	r2, [pc, #572]	@ (2aa48 <_start+0x2e48>)
   2a80a:	446a      	add	r2, sp
   2a80c:	c938      	ldmia	r1!, {r3, r4, r5}
   2a80e:	c238      	stmia	r2!, {r3, r4, r5}
   2a810:	c938      	ldmia	r1!, {r3, r4, r5}
   2a812:	c238      	stmia	r2!, {r3, r4, r5}
   2a814:	c938      	ldmia	r1!, {r3, r4, r5}
   2a816:	c238      	stmia	r2!, {r3, r4, r5}
   2a818:	7809      	ldrb	r1, [r1, #0]
   2a81a:	7011      	strb	r1, [r2, #0]
   2a81c:	2800      	cmp	r0, #0
   2a81e:	d001      	beq.n	2a824 <_start+0x2c24>
   2a820:	f000 fcef 	bl	2b202 <_start+0x3602>
   2a824:	4c8c      	ldr	r4, [pc, #560]	@ (2aa58 <_start+0x2e58>)
   2a826:	446c      	add	r4, sp
   2a828:	990f      	ldr	r1, [sp, #60]	@ 0x3c
   2a82a:	70e1      	strb	r1, [r4, #3]
   2a82c:	9810      	ldr	r0, [sp, #64]	@ 0x40
   2a82e:	8020      	strh	r0, [r4, #0]
   2a830:	0e08      	lsrs	r0, r1, #24
   2a832:	71a0      	strb	r0, [r4, #6]
   2a834:	0c08      	lsrs	r0, r1, #16
   2a836:	7160      	strb	r0, [r4, #5]
   2a838:	0a08      	lsrs	r0, r1, #8
   2a83a:	7120      	strb	r0, [r4, #4]
   2a83c:	a810      	add	r0, sp, #64	@ 0x40
   2a83e:	7880      	ldrb	r0, [r0, #2]
   2a840:	70a0      	strb	r0, [r4, #2]
   2a842:	1de0      	adds	r0, r4, #7
   2a844:	4980      	ldr	r1, [pc, #512]	@ (2aa48 <_start+0x2e48>)
   2a846:	4469      	add	r1, sp
   2a848:	2225      	movs	r2, #37	@ 0x25
   2a84a:	f000 fefe 	bl	2b64a <__aeabi_memcpy>
   2a84e:	4d7d      	ldr	r5, [pc, #500]	@ (2aa44 <_start+0x2e44>)
   2a850:	446d      	add	r5, sp
   2a852:	4628      	mov	r0, r5
   2a854:	4621      	mov	r1, r4
   2a856:	f7fa f841 	bl	248dc <_ZN20complex_dynamic_type3app17h9c453a0ac44f804bE>
   2a85a:	7828      	ldrb	r0, [r5, #0]
   2a85c:	2801      	cmp	r0, #1
   2a85e:	d103      	bne.n	2a868 <_start+0x2c68>
   2a860:	990d      	ldr	r1, [sp, #52]	@ 0x34
   2a862:	6e09      	ldr	r1, [r1, #96]	@ 0x60
   2a864:	910f      	str	r1, [sp, #60]	@ 0x3c
   2a866:	e013      	b.n	2a890 <_start+0x2c90>
   2a868:	4976      	ldr	r1, [pc, #472]	@ (2aa44 <_start+0x2e44>)
   2a86a:	4469      	add	r1, sp
   2a86c:	78ca      	ldrb	r2, [r1, #3]
   2a86e:	ab10      	add	r3, sp, #64	@ 0x40
   2a870:	709a      	strb	r2, [r3, #2]
   2a872:	784a      	ldrb	r2, [r1, #1]
   2a874:	788c      	ldrb	r4, [r1, #2]
   2a876:	0224      	lsls	r4, r4, #8
   2a878:	18a2      	adds	r2, r4, r2
   2a87a:	801a      	strh	r2, [r3, #0]
   2a87c:	3108      	adds	r1, #8
   2a87e:	9a0d      	ldr	r2, [sp, #52]	@ 0x34
   2a880:	6e12      	ldr	r2, [r2, #96]	@ 0x60
   2a882:	920f      	str	r2, [sp, #60]	@ 0x3c
   2a884:	4a70      	ldr	r2, [pc, #448]	@ (2aa48 <_start+0x2e48>)
   2a886:	446a      	add	r2, sp
   2a888:	c978      	ldmia	r1!, {r3, r4, r5, r6}
   2a88a:	c278      	stmia	r2!, {r3, r4, r5, r6}
   2a88c:	c978      	ldmia	r1!, {r3, r4, r5, r6}
   2a88e:	c278      	stmia	r2!, {r3, r4, r5, r6}
   2a890:	2800      	cmp	r0, #0
   2a892:	d001      	beq.n	2a898 <_start+0x2c98>
   2a894:	f000 fcb5 	bl	2b202 <_start+0x3602>
   2a898:	4c70      	ldr	r4, [pc, #448]	@ (2aa5c <_start+0x2e5c>)
   2a89a:	446c      	add	r4, sp
   2a89c:	990f      	ldr	r1, [sp, #60]	@ 0x3c
   2a89e:	70e1      	strb	r1, [r4, #3]
   2a8a0:	9810      	ldr	r0, [sp, #64]	@ 0x40
   2a8a2:	8020      	strh	r0, [r4, #0]
   2a8a4:	0e08      	lsrs	r0, r1, #24
   2a8a6:	71a0      	strb	r0, [r4, #6]
   2a8a8:	0c08      	lsrs	r0, r1, #16
   2a8aa:	7160      	strb	r0, [r4, #5]
   2a8ac:	0a08      	lsrs	r0, r1, #8
   2a8ae:	7120      	strb	r0, [r4, #4]
   2a8b0:	a810      	add	r0, sp, #64	@ 0x40
   2a8b2:	7880      	ldrb	r0, [r0, #2]
   2a8b4:	70a0      	strb	r0, [r4, #2]
   2a8b6:	1de0      	adds	r0, r4, #7
   2a8b8:	4963      	ldr	r1, [pc, #396]	@ (2aa48 <_start+0x2e48>)
   2a8ba:	4469      	add	r1, sp
   2a8bc:	2220      	movs	r2, #32
   2a8be:	f000 fec4 	bl	2b64a <__aeabi_memcpy>
   2a8c2:	4d60      	ldr	r5, [pc, #384]	@ (2aa44 <_start+0x2e44>)
   2a8c4:	446d      	add	r5, sp
   2a8c6:	4628      	mov	r0, r5
   2a8c8:	4621      	mov	r1, r4
   2a8ca:	f7fc ffcd 	bl	27868 <_ZN20complex_dynamic_type3app17hf4a4b2c6432a0894E>
   2a8ce:	782c      	ldrb	r4, [r5, #0]
   2a8d0:	2c01      	cmp	r4, #1
   2a8d2:	d103      	bne.n	2a8dc <_start+0x2cdc>
   2a8d4:	980d      	ldr	r0, [sp, #52]	@ 0x34
   2a8d6:	6e00      	ldr	r0, [r0, #96]	@ 0x60
   2a8d8:	900f      	str	r0, [sp, #60]	@ 0x3c
   2a8da:	e012      	b.n	2a902 <_start+0x2d02>
   2a8dc:	4959      	ldr	r1, [pc, #356]	@ (2aa44 <_start+0x2e44>)
   2a8de:	4469      	add	r1, sp
   2a8e0:	78c8      	ldrb	r0, [r1, #3]
   2a8e2:	aa10      	add	r2, sp, #64	@ 0x40
   2a8e4:	7090      	strb	r0, [r2, #2]
   2a8e6:	7848      	ldrb	r0, [r1, #1]
   2a8e8:	788b      	ldrb	r3, [r1, #2]
   2a8ea:	021b      	lsls	r3, r3, #8
   2a8ec:	1818      	adds	r0, r3, r0
   2a8ee:	8010      	strh	r0, [r2, #0]
   2a8f0:	980d      	ldr	r0, [sp, #52]	@ 0x34
   2a8f2:	6e00      	ldr	r0, [r0, #96]	@ 0x60
   2a8f4:	900f      	str	r0, [sp, #60]	@ 0x3c
   2a8f6:	3108      	adds	r1, #8
   2a8f8:	4853      	ldr	r0, [pc, #332]	@ (2aa48 <_start+0x2e48>)
   2a8fa:	4468      	add	r0, sp
   2a8fc:	2248      	movs	r2, #72	@ 0x48
   2a8fe:	f000 fd44 	bl	2b38a <__aeabi_memcpy4>
   2a902:	2c00      	cmp	r4, #0
   2a904:	d001      	beq.n	2a90a <_start+0x2d0a>
   2a906:	f000 fc7c 	bl	2b202 <_start+0x3602>
   2a90a:	4c55      	ldr	r4, [pc, #340]	@ (2aa60 <_start+0x2e60>)
   2a90c:	446c      	add	r4, sp
   2a90e:	990f      	ldr	r1, [sp, #60]	@ 0x3c
   2a910:	70e1      	strb	r1, [r4, #3]
   2a912:	9810      	ldr	r0, [sp, #64]	@ 0x40
   2a914:	8020      	strh	r0, [r4, #0]
   2a916:	0e08      	lsrs	r0, r1, #24
   2a918:	71a0      	strb	r0, [r4, #6]
   2a91a:	0c08      	lsrs	r0, r1, #16
   2a91c:	7160      	strb	r0, [r4, #5]
   2a91e:	0a08      	lsrs	r0, r1, #8
   2a920:	7120      	strb	r0, [r4, #4]
   2a922:	a810      	add	r0, sp, #64	@ 0x40
   2a924:	7880      	ldrb	r0, [r0, #2]
   2a926:	70a0      	strb	r0, [r4, #2]
   2a928:	1de0      	adds	r0, r4, #7
   2a92a:	4947      	ldr	r1, [pc, #284]	@ (2aa48 <_start+0x2e48>)
   2a92c:	4469      	add	r1, sp
   2a92e:	2248      	movs	r2, #72	@ 0x48
   2a930:	f000 fe8b 	bl	2b64a <__aeabi_memcpy>
   2a934:	4d43      	ldr	r5, [pc, #268]	@ (2aa44 <_start+0x2e44>)
   2a936:	446d      	add	r5, sp
   2a938:	4628      	mov	r0, r5
   2a93a:	4621      	mov	r1, r4
   2a93c:	f7f7 fd58 	bl	223f0 <_ZN20complex_dynamic_type3app17h48697300aee0e5e1E>
   2a940:	7828      	ldrb	r0, [r5, #0]
   2a942:	2801      	cmp	r0, #1
   2a944:	d103      	bne.n	2a94e <_start+0x2d4e>
   2a946:	990d      	ldr	r1, [sp, #52]	@ 0x34
   2a948:	6e09      	ldr	r1, [r1, #96]	@ 0x60
   2a94a:	910f      	str	r1, [sp, #60]	@ 0x3c
   2a94c:	e017      	b.n	2a97e <_start+0x2d7e>
   2a94e:	493d      	ldr	r1, [pc, #244]	@ (2aa44 <_start+0x2e44>)
   2a950:	4469      	add	r1, sp
   2a952:	78ca      	ldrb	r2, [r1, #3]
   2a954:	ab10      	add	r3, sp, #64	@ 0x40
   2a956:	709a      	strb	r2, [r3, #2]
   2a958:	784a      	ldrb	r2, [r1, #1]
   2a95a:	788c      	ldrb	r4, [r1, #2]
   2a95c:	0224      	lsls	r4, r4, #8
   2a95e:	18a2      	adds	r2, r4, r2
   2a960:	801a      	strh	r2, [r3, #0]
   2a962:	3108      	adds	r1, #8
   2a964:	9a0d      	ldr	r2, [sp, #52]	@ 0x34
   2a966:	6e12      	ldr	r2, [r2, #96]	@ 0x60
   2a968:	920f      	str	r2, [sp, #60]	@ 0x3c
   2a96a:	4a37      	ldr	r2, [pc, #220]	@ (2aa48 <_start+0x2e48>)
   2a96c:	446a      	add	r2, sp
   2a96e:	c938      	ldmia	r1!, {r3, r4, r5}
   2a970:	c238      	stmia	r2!, {r3, r4, r5}
   2a972:	c978      	ldmia	r1!, {r3, r4, r5, r6}
   2a974:	c278      	stmia	r2!, {r3, r4, r5, r6}
   2a976:	c978      	ldmia	r1!, {r3, r4, r5, r6}
   2a978:	c278      	stmia	r2!, {r3, r4, r5, r6}
   2a97a:	8809      	ldrh	r1, [r1, #0]
   2a97c:	8011      	strh	r1, [r2, #0]
   2a97e:	2800      	cmp	r0, #0
   2a980:	d001      	beq.n	2a986 <_start+0x2d86>
   2a982:	f000 fc3e 	bl	2b202 <_start+0x3602>
   2a986:	4c37      	ldr	r4, [pc, #220]	@ (2aa64 <_start+0x2e64>)
   2a988:	446c      	add	r4, sp
   2a98a:	990f      	ldr	r1, [sp, #60]	@ 0x3c
   2a98c:	70e1      	strb	r1, [r4, #3]
   2a98e:	9810      	ldr	r0, [sp, #64]	@ 0x40
   2a990:	8020      	strh	r0, [r4, #0]
   2a992:	0e08      	lsrs	r0, r1, #24
   2a994:	71a0      	strb	r0, [r4, #6]
   2a996:	0c08      	lsrs	r0, r1, #16
   2a998:	7160      	strb	r0, [r4, #5]
   2a99a:	0a08      	lsrs	r0, r1, #8
   2a99c:	7120      	strb	r0, [r4, #4]
   2a99e:	a810      	add	r0, sp, #64	@ 0x40
   2a9a0:	7880      	ldrb	r0, [r0, #2]
   2a9a2:	70a0      	strb	r0, [r4, #2]
   2a9a4:	1de0      	adds	r0, r4, #7
   2a9a6:	4928      	ldr	r1, [pc, #160]	@ (2aa48 <_start+0x2e48>)
   2a9a8:	4469      	add	r1, sp
   2a9aa:	222e      	movs	r2, #46	@ 0x2e
   2a9ac:	f000 fe4d 	bl	2b64a <__aeabi_memcpy>
   2a9b0:	4d24      	ldr	r5, [pc, #144]	@ (2aa44 <_start+0x2e44>)
   2a9b2:	446d      	add	r5, sp
   2a9b4:	4628      	mov	r0, r5
   2a9b6:	4621      	mov	r1, r4
   2a9b8:	f7fa f9f4 	bl	24da4 <_ZN20complex_dynamic_type3app17ha712121d626ad273E>
   2a9bc:	7828      	ldrb	r0, [r5, #0]
   2a9be:	2801      	cmp	r0, #1
   2a9c0:	d103      	bne.n	2a9ca <_start+0x2dca>
   2a9c2:	990d      	ldr	r1, [sp, #52]	@ 0x34
   2a9c4:	6e09      	ldr	r1, [r1, #96]	@ 0x60
   2a9c6:	910f      	str	r1, [sp, #60]	@ 0x3c
   2a9c8:	e017      	b.n	2a9fa <_start+0x2dfa>
   2a9ca:	491e      	ldr	r1, [pc, #120]	@ (2aa44 <_start+0x2e44>)
   2a9cc:	4469      	add	r1, sp
   2a9ce:	78ca      	ldrb	r2, [r1, #3]
   2a9d0:	ab10      	add	r3, sp, #64	@ 0x40
   2a9d2:	709a      	strb	r2, [r3, #2]
   2a9d4:	784a      	ldrb	r2, [r1, #1]
   2a9d6:	788c      	ldrb	r4, [r1, #2]
   2a9d8:	0224      	lsls	r4, r4, #8
   2a9da:	18a2      	adds	r2, r4, r2
   2a9dc:	801a      	strh	r2, [r3, #0]
   2a9de:	3108      	adds	r1, #8
   2a9e0:	9a0d      	ldr	r2, [sp, #52]	@ 0x34
   2a9e2:	6e12      	ldr	r2, [r2, #96]	@ 0x60
   2a9e4:	920f      	str	r2, [sp, #60]	@ 0x3c
   2a9e6:	4a18      	ldr	r2, [pc, #96]	@ (2aa48 <_start+0x2e48>)
   2a9e8:	446a      	add	r2, sp
   2a9ea:	c938      	ldmia	r1!, {r3, r4, r5}
   2a9ec:	c238      	stmia	r2!, {r3, r4, r5}
   2a9ee:	c978      	ldmia	r1!, {r3, r4, r5, r6}
   2a9f0:	c278      	stmia	r2!, {r3, r4, r5, r6}
   2a9f2:	c938      	ldmia	r1!, {r3, r4, r5}
   2a9f4:	c238      	stmia	r2!, {r3, r4, r5}
   2a9f6:	c978      	ldmia	r1!, {r3, r4, r5, r6}
   2a9f8:	c278      	stmia	r2!, {r3, r4, r5, r6}
   2a9fa:	2800      	cmp	r0, #0
   2a9fc:	d001      	beq.n	2aa02 <_start+0x2e02>
   2a9fe:	f000 fc00 	bl	2b202 <_start+0x3602>
   2aa02:	4c19      	ldr	r4, [pc, #100]	@ (2aa68 <_start+0x2e68>)
   2aa04:	446c      	add	r4, sp
   2aa06:	990f      	ldr	r1, [sp, #60]	@ 0x3c
   2aa08:	70e1      	strb	r1, [r4, #3]
   2aa0a:	9810      	ldr	r0, [sp, #64]	@ 0x40
   2aa0c:	8020      	strh	r0, [r4, #0]
   2aa0e:	0e08      	lsrs	r0, r1, #24
   2aa10:	71a0      	strb	r0, [r4, #6]
   2aa12:	0c08      	lsrs	r0, r1, #16
   2aa14:	7160      	strb	r0, [r4, #5]
   2aa16:	0a08      	lsrs	r0, r1, #8
   2aa18:	7120      	strb	r0, [r4, #4]
   2aa1a:	a810      	add	r0, sp, #64	@ 0x40
   2aa1c:	7880      	ldrb	r0, [r0, #2]
   2aa1e:	70a0      	strb	r0, [r4, #2]
   2aa20:	1de0      	adds	r0, r4, #7
   2aa22:	4909      	ldr	r1, [pc, #36]	@ (2aa48 <_start+0x2e48>)
   2aa24:	4469      	add	r1, sp
   2aa26:	2238      	movs	r2, #56	@ 0x38
   2aa28:	f000 fe0f 	bl	2b64a <__aeabi_memcpy>
   2aa2c:	4d05      	ldr	r5, [pc, #20]	@ (2aa44 <_start+0x2e44>)
   2aa2e:	446d      	add	r5, sp
   2aa30:	4628      	mov	r0, r5
   2aa32:	4621      	mov	r1, r4
   2aa34:	f7fa ffa4 	bl	25980 <_ZN20complex_dynamic_type3app17hc22d929e31d62ed0E>
   2aa38:	7828      	ldrb	r0, [r5, #0]
   2aa3a:	2801      	cmp	r0, #1
   2aa3c:	d116      	bne.n	2aa6c <_start+0x2e6c>
   2aa3e:	990d      	ldr	r1, [sp, #52]	@ 0x34
   2aa40:	6e09      	ldr	r1, [r1, #96]	@ 0x60
   2aa42:	e026      	b.n	2aa92 <_start+0x2e92>
   2aa44:	00001414 	.word	0x00001414
   2aa48:	000013b8 	.word	0x000013b8
   2aa4c:	00000f50 	.word	0x00000f50
   2aa50:	00000f68 	.word	0x00000f68
   2aa54:	00000f88 	.word	0x00000f88
   2aa58:	00000fc4 	.word	0x00000fc4
   2aa5c:	00000ff0 	.word	0x00000ff0
   2aa60:	00001018 	.word	0x00001018
   2aa64:	00001068 	.word	0x00001068
   2aa68:	000010a0 	.word	0x000010a0
   2aa6c:	49ea      	ldr	r1, [pc, #936]	@ (2ae18 <_start+0x3218>)
   2aa6e:	4469      	add	r1, sp
   2aa70:	9c0d      	ldr	r4, [sp, #52]	@ 0x34
   2aa72:	6ee2      	ldr	r2, [r4, #108]	@ 0x6c
   2aa74:	810a      	strh	r2, [r1, #8]
   2aa76:	49e9      	ldr	r1, [pc, #932]	@ (2ae1c <_start+0x321c>)
   2aa78:	4469      	add	r1, sp
   2aa7a:	78ca      	ldrb	r2, [r1, #3]
   2aa7c:	ab10      	add	r3, sp, #64	@ 0x40
   2aa7e:	709a      	strb	r2, [r3, #2]
   2aa80:	784a      	ldrb	r2, [r1, #1]
   2aa82:	7889      	ldrb	r1, [r1, #2]
   2aa84:	0209      	lsls	r1, r1, #8
   2aa86:	1889      	adds	r1, r1, r2
   2aa88:	8019      	strh	r1, [r3, #0]
   2aa8a:	6e61      	ldr	r1, [r4, #100]	@ 0x64
   2aa8c:	6ea2      	ldr	r2, [r4, #104]	@ 0x68
   2aa8e:	c406      	stmia	r4!, {r1, r2}
   2aa90:	6da1      	ldr	r1, [r4, #88]	@ 0x58
   2aa92:	910f      	str	r1, [sp, #60]	@ 0x3c
   2aa94:	2800      	cmp	r0, #0
   2aa96:	d000      	beq.n	2aa9a <_start+0x2e9a>
   2aa98:	e3b3      	b.n	2b202 <_start+0x3602>
   2aa9a:	4ce1      	ldr	r4, [pc, #900]	@ (2ae20 <_start+0x3220>)
   2aa9c:	446c      	add	r4, sp
   2aa9e:	990f      	ldr	r1, [sp, #60]	@ 0x3c
   2aaa0:	70e1      	strb	r1, [r4, #3]
   2aaa2:	9810      	ldr	r0, [sp, #64]	@ 0x40
   2aaa4:	8020      	strh	r0, [r4, #0]
   2aaa6:	0e08      	lsrs	r0, r1, #24
   2aaa8:	71a0      	strb	r0, [r4, #6]
   2aaaa:	0c08      	lsrs	r0, r1, #16
   2aaac:	7160      	strb	r0, [r4, #5]
   2aaae:	0a08      	lsrs	r0, r1, #8
   2aab0:	7120      	strb	r0, [r4, #4]
   2aab2:	a810      	add	r0, sp, #64	@ 0x40
   2aab4:	7880      	ldrb	r0, [r0, #2]
   2aab6:	70a0      	strb	r0, [r4, #2]
   2aab8:	1de0      	adds	r0, r4, #7
   2aaba:	49d7      	ldr	r1, [pc, #860]	@ (2ae18 <_start+0x3218>)
   2aabc:	4469      	add	r1, sp
   2aabe:	220a      	movs	r2, #10
   2aac0:	f000 fdc3 	bl	2b64a <__aeabi_memcpy>
   2aac4:	4dd5      	ldr	r5, [pc, #852]	@ (2ae1c <_start+0x321c>)
   2aac6:	446d      	add	r5, sp
   2aac8:	4628      	mov	r0, r5
   2aaca:	4621      	mov	r1, r4
   2aacc:	f7fc fe36 	bl	2773c <_ZN20complex_dynamic_type3app17hf02d4d86c6b01c08E>
   2aad0:	7828      	ldrb	r0, [r5, #0]
   2aad2:	2801      	cmp	r0, #1
   2aad4:	d103      	bne.n	2aade <_start+0x2ede>
   2aad6:	990d      	ldr	r1, [sp, #52]	@ 0x34
   2aad8:	6e09      	ldr	r1, [r1, #96]	@ 0x60
   2aada:	910f      	str	r1, [sp, #60]	@ 0x3c
   2aadc:	e017      	b.n	2ab0e <_start+0x2f0e>
   2aade:	49cf      	ldr	r1, [pc, #828]	@ (2ae1c <_start+0x321c>)
   2aae0:	4469      	add	r1, sp
   2aae2:	78ca      	ldrb	r2, [r1, #3]
   2aae4:	ab10      	add	r3, sp, #64	@ 0x40
   2aae6:	709a      	strb	r2, [r3, #2]
   2aae8:	784a      	ldrb	r2, [r1, #1]
   2aaea:	788c      	ldrb	r4, [r1, #2]
   2aaec:	0224      	lsls	r4, r4, #8
   2aaee:	18a2      	adds	r2, r4, r2
   2aaf0:	801a      	strh	r2, [r3, #0]
   2aaf2:	3108      	adds	r1, #8
   2aaf4:	9a0d      	ldr	r2, [sp, #52]	@ 0x34
   2aaf6:	6e12      	ldr	r2, [r2, #96]	@ 0x60
   2aaf8:	920f      	str	r2, [sp, #60]	@ 0x3c
   2aafa:	4ac7      	ldr	r2, [pc, #796]	@ (2ae18 <_start+0x3218>)
   2aafc:	446a      	add	r2, sp
   2aafe:	c938      	ldmia	r1!, {r3, r4, r5}
   2ab00:	c238      	stmia	r2!, {r3, r4, r5}
   2ab02:	c978      	ldmia	r1!, {r3, r4, r5, r6}
   2ab04:	c278      	stmia	r2!, {r3, r4, r5, r6}
   2ab06:	c938      	ldmia	r1!, {r3, r4, r5}
   2ab08:	c238      	stmia	r2!, {r3, r4, r5}
   2ab0a:	c978      	ldmia	r1!, {r3, r4, r5, r6}
   2ab0c:	c278      	stmia	r2!, {r3, r4, r5, r6}
   2ab0e:	2800      	cmp	r0, #0
   2ab10:	d000      	beq.n	2ab14 <_start+0x2f14>
   2ab12:	e376      	b.n	2b202 <_start+0x3602>
   2ab14:	4cc3      	ldr	r4, [pc, #780]	@ (2ae24 <_start+0x3224>)
   2ab16:	446c      	add	r4, sp
   2ab18:	990f      	ldr	r1, [sp, #60]	@ 0x3c
   2ab1a:	70e1      	strb	r1, [r4, #3]
   2ab1c:	9810      	ldr	r0, [sp, #64]	@ 0x40
   2ab1e:	8020      	strh	r0, [r4, #0]
   2ab20:	0e08      	lsrs	r0, r1, #24
   2ab22:	71a0      	strb	r0, [r4, #6]
   2ab24:	0c08      	lsrs	r0, r1, #16
   2ab26:	7160      	strb	r0, [r4, #5]
   2ab28:	0a08      	lsrs	r0, r1, #8
   2ab2a:	7120      	strb	r0, [r4, #4]
   2ab2c:	a810      	add	r0, sp, #64	@ 0x40
   2ab2e:	7880      	ldrb	r0, [r0, #2]
   2ab30:	70a0      	strb	r0, [r4, #2]
   2ab32:	1de0      	adds	r0, r4, #7
   2ab34:	49b8      	ldr	r1, [pc, #736]	@ (2ae18 <_start+0x3218>)
   2ab36:	4469      	add	r1, sp
   2ab38:	2238      	movs	r2, #56	@ 0x38
   2ab3a:	f000 fd86 	bl	2b64a <__aeabi_memcpy>
   2ab3e:	4db7      	ldr	r5, [pc, #732]	@ (2ae1c <_start+0x321c>)
   2ab40:	446d      	add	r5, sp
   2ab42:	4628      	mov	r0, r5
   2ab44:	4621      	mov	r1, r4
   2ab46:	f7f6 fd35 	bl	215b4 <_ZN20complex_dynamic_type3app17h26b8012454c98a23E>
   2ab4a:	7828      	ldrb	r0, [r5, #0]
   2ab4c:	2801      	cmp	r0, #1
   2ab4e:	d103      	bne.n	2ab58 <_start+0x2f58>
   2ab50:	990d      	ldr	r1, [sp, #52]	@ 0x34
   2ab52:	6e09      	ldr	r1, [r1, #96]	@ 0x60
   2ab54:	910f      	str	r1, [sp, #60]	@ 0x3c
   2ab56:	e015      	b.n	2ab84 <_start+0x2f84>
   2ab58:	49b0      	ldr	r1, [pc, #704]	@ (2ae1c <_start+0x321c>)
   2ab5a:	4469      	add	r1, sp
   2ab5c:	78ca      	ldrb	r2, [r1, #3]
   2ab5e:	ab10      	add	r3, sp, #64	@ 0x40
   2ab60:	709a      	strb	r2, [r3, #2]
   2ab62:	784a      	ldrb	r2, [r1, #1]
   2ab64:	788c      	ldrb	r4, [r1, #2]
   2ab66:	0224      	lsls	r4, r4, #8
   2ab68:	18a2      	adds	r2, r4, r2
   2ab6a:	801a      	strh	r2, [r3, #0]
   2ab6c:	3108      	adds	r1, #8
   2ab6e:	9a0d      	ldr	r2, [sp, #52]	@ 0x34
   2ab70:	6e12      	ldr	r2, [r2, #96]	@ 0x60
   2ab72:	920f      	str	r2, [sp, #60]	@ 0x3c
   2ab74:	4aa8      	ldr	r2, [pc, #672]	@ (2ae18 <_start+0x3218>)
   2ab76:	446a      	add	r2, sp
   2ab78:	c918      	ldmia	r1!, {r3, r4}
   2ab7a:	c218      	stmia	r2!, {r3, r4}
   2ab7c:	c938      	ldmia	r1!, {r3, r4, r5}
   2ab7e:	c238      	stmia	r2!, {r3, r4, r5}
   2ab80:	7809      	ldrb	r1, [r1, #0]
   2ab82:	7011      	strb	r1, [r2, #0]
   2ab84:	2800      	cmp	r0, #0
   2ab86:	d000      	beq.n	2ab8a <_start+0x2f8a>
   2ab88:	e33b      	b.n	2b202 <_start+0x3602>
   2ab8a:	4ca7      	ldr	r4, [pc, #668]	@ (2ae28 <_start+0x3228>)
   2ab8c:	446c      	add	r4, sp
   2ab8e:	990f      	ldr	r1, [sp, #60]	@ 0x3c
   2ab90:	70e1      	strb	r1, [r4, #3]
   2ab92:	9810      	ldr	r0, [sp, #64]	@ 0x40
   2ab94:	8020      	strh	r0, [r4, #0]
   2ab96:	0e08      	lsrs	r0, r1, #24
   2ab98:	71a0      	strb	r0, [r4, #6]
   2ab9a:	0c08      	lsrs	r0, r1, #16
   2ab9c:	7160      	strb	r0, [r4, #5]
   2ab9e:	0a08      	lsrs	r0, r1, #8
   2aba0:	7120      	strb	r0, [r4, #4]
   2aba2:	a810      	add	r0, sp, #64	@ 0x40
   2aba4:	7880      	ldrb	r0, [r0, #2]
   2aba6:	70a0      	strb	r0, [r4, #2]
   2aba8:	1de0      	adds	r0, r4, #7
   2abaa:	499b      	ldr	r1, [pc, #620]	@ (2ae18 <_start+0x3218>)
   2abac:	4469      	add	r1, sp
   2abae:	2215      	movs	r2, #21
   2abb0:	f000 fd4b 	bl	2b64a <__aeabi_memcpy>
   2abb4:	4d99      	ldr	r5, [pc, #612]	@ (2ae1c <_start+0x321c>)
   2abb6:	446d      	add	r5, sp
   2abb8:	4628      	mov	r0, r5
   2abba:	4621      	mov	r1, r4
   2abbc:	f7f7 fd4a 	bl	22654 <_ZN20complex_dynamic_type3app17h4bc05184b996d04bE>
   2abc0:	782c      	ldrb	r4, [r5, #0]
   2abc2:	2c01      	cmp	r4, #1
   2abc4:	d103      	bne.n	2abce <_start+0x2fce>
   2abc6:	980d      	ldr	r0, [sp, #52]	@ 0x34
   2abc8:	6e00      	ldr	r0, [r0, #96]	@ 0x60
   2abca:	900f      	str	r0, [sp, #60]	@ 0x3c
   2abcc:	e012      	b.n	2abf4 <_start+0x2ff4>
   2abce:	4993      	ldr	r1, [pc, #588]	@ (2ae1c <_start+0x321c>)
   2abd0:	4469      	add	r1, sp
   2abd2:	78c8      	ldrb	r0, [r1, #3]
   2abd4:	aa10      	add	r2, sp, #64	@ 0x40
   2abd6:	7090      	strb	r0, [r2, #2]
   2abd8:	7848      	ldrb	r0, [r1, #1]
   2abda:	788b      	ldrb	r3, [r1, #2]
   2abdc:	021b      	lsls	r3, r3, #8
   2abde:	1818      	adds	r0, r3, r0
   2abe0:	8010      	strh	r0, [r2, #0]
   2abe2:	980d      	ldr	r0, [sp, #52]	@ 0x34
   2abe4:	6e00      	ldr	r0, [r0, #96]	@ 0x60
   2abe6:	900f      	str	r0, [sp, #60]	@ 0x3c
   2abe8:	3108      	adds	r1, #8
   2abea:	488b      	ldr	r0, [pc, #556]	@ (2ae18 <_start+0x3218>)
   2abec:	4468      	add	r0, sp
   2abee:	2256      	movs	r2, #86	@ 0x56
   2abf0:	f000 fbcb 	bl	2b38a <__aeabi_memcpy4>
   2abf4:	2c00      	cmp	r4, #0
   2abf6:	d000      	beq.n	2abfa <_start+0x2ffa>
   2abf8:	e303      	b.n	2b202 <_start+0x3602>
   2abfa:	4c8c      	ldr	r4, [pc, #560]	@ (2ae2c <_start+0x322c>)
   2abfc:	446c      	add	r4, sp
   2abfe:	990f      	ldr	r1, [sp, #60]	@ 0x3c
   2ac00:	70e1      	strb	r1, [r4, #3]
   2ac02:	9810      	ldr	r0, [sp, #64]	@ 0x40
   2ac04:	8020      	strh	r0, [r4, #0]
   2ac06:	0e08      	lsrs	r0, r1, #24
   2ac08:	71a0      	strb	r0, [r4, #6]
   2ac0a:	0c08      	lsrs	r0, r1, #16
   2ac0c:	7160      	strb	r0, [r4, #5]
   2ac0e:	0a08      	lsrs	r0, r1, #8
   2ac10:	7120      	strb	r0, [r4, #4]
   2ac12:	a810      	add	r0, sp, #64	@ 0x40
   2ac14:	7880      	ldrb	r0, [r0, #2]
   2ac16:	70a0      	strb	r0, [r4, #2]
   2ac18:	1de0      	adds	r0, r4, #7
   2ac1a:	497f      	ldr	r1, [pc, #508]	@ (2ae18 <_start+0x3218>)
   2ac1c:	4469      	add	r1, sp
   2ac1e:	2256      	movs	r2, #86	@ 0x56
   2ac20:	f000 fd13 	bl	2b64a <__aeabi_memcpy>
   2ac24:	4d7d      	ldr	r5, [pc, #500]	@ (2ae1c <_start+0x321c>)
   2ac26:	446d      	add	r5, sp
   2ac28:	4628      	mov	r0, r5
   2ac2a:	4621      	mov	r1, r4
   2ac2c:	f7f6 f80a 	bl	20c44 <_ZN20complex_dynamic_type3app17h07c9640483ea8cd5E>
   2ac30:	7828      	ldrb	r0, [r5, #0]
   2ac32:	2801      	cmp	r0, #1
   2ac34:	d102      	bne.n	2ac3c <_start+0x303c>
   2ac36:	990d      	ldr	r1, [sp, #52]	@ 0x34
   2ac38:	6e09      	ldr	r1, [r1, #96]	@ 0x60
   2ac3a:	e014      	b.n	2ac66 <_start+0x3066>
   2ac3c:	4976      	ldr	r1, [pc, #472]	@ (2ae18 <_start+0x3218>)
   2ac3e:	4469      	add	r1, sp
   2ac40:	9d0d      	ldr	r5, [sp, #52]	@ 0x34
   2ac42:	6eea      	ldr	r2, [r5, #108]	@ 0x6c
   2ac44:	810a      	strh	r2, [r1, #8]
   2ac46:	4a75      	ldr	r2, [pc, #468]	@ (2ae1c <_start+0x321c>)
   2ac48:	446a      	add	r2, sp
   2ac4a:	78d3      	ldrb	r3, [r2, #3]
   2ac4c:	ac10      	add	r4, sp, #64	@ 0x40
   2ac4e:	70a3      	strb	r3, [r4, #2]
   2ac50:	7c93      	ldrb	r3, [r2, #18]
   2ac52:	728b      	strb	r3, [r1, #10]
   2ac54:	7851      	ldrb	r1, [r2, #1]
   2ac56:	7892      	ldrb	r2, [r2, #2]
   2ac58:	0212      	lsls	r2, r2, #8
   2ac5a:	1851      	adds	r1, r2, r1
   2ac5c:	8021      	strh	r1, [r4, #0]
   2ac5e:	6e69      	ldr	r1, [r5, #100]	@ 0x64
   2ac60:	6eaa      	ldr	r2, [r5, #104]	@ 0x68
   2ac62:	c506      	stmia	r5!, {r1, r2}
   2ac64:	6da9      	ldr	r1, [r5, #88]	@ 0x58
   2ac66:	910f      	str	r1, [sp, #60]	@ 0x3c
   2ac68:	2800      	cmp	r0, #0
   2ac6a:	d000      	beq.n	2ac6e <_start+0x306e>
   2ac6c:	e2c9      	b.n	2b202 <_start+0x3602>
   2ac6e:	4c70      	ldr	r4, [pc, #448]	@ (2ae30 <_start+0x3230>)
   2ac70:	446c      	add	r4, sp
   2ac72:	990f      	ldr	r1, [sp, #60]	@ 0x3c
   2ac74:	70e1      	strb	r1, [r4, #3]
   2ac76:	9810      	ldr	r0, [sp, #64]	@ 0x40
   2ac78:	8020      	strh	r0, [r4, #0]
   2ac7a:	0e08      	lsrs	r0, r1, #24
   2ac7c:	71a0      	strb	r0, [r4, #6]
   2ac7e:	0c08      	lsrs	r0, r1, #16
   2ac80:	7160      	strb	r0, [r4, #5]
   2ac82:	0a08      	lsrs	r0, r1, #8
   2ac84:	7120      	strb	r0, [r4, #4]
   2ac86:	a810      	add	r0, sp, #64	@ 0x40
   2ac88:	7880      	ldrb	r0, [r0, #2]
   2ac8a:	70a0      	strb	r0, [r4, #2]
   2ac8c:	1de0      	adds	r0, r4, #7
   2ac8e:	4962      	ldr	r1, [pc, #392]	@ (2ae18 <_start+0x3218>)
   2ac90:	4469      	add	r1, sp
   2ac92:	220b      	movs	r2, #11
   2ac94:	f000 fcd9 	bl	2b64a <__aeabi_memcpy>
   2ac98:	4d60      	ldr	r5, [pc, #384]	@ (2ae1c <_start+0x321c>)
   2ac9a:	446d      	add	r5, sp
   2ac9c:	4628      	mov	r0, r5
   2ac9e:	4621      	mov	r1, r4
   2aca0:	f7fb fe26 	bl	268f0 <_ZN20complex_dynamic_type3app17hd7a4aad8ca7ea399E>
   2aca4:	7828      	ldrb	r0, [r5, #0]
   2aca6:	2801      	cmp	r0, #1
   2aca8:	d103      	bne.n	2acb2 <_start+0x30b2>
   2acaa:	990d      	ldr	r1, [sp, #52]	@ 0x34
   2acac:	6e09      	ldr	r1, [r1, #96]	@ 0x60
   2acae:	910f      	str	r1, [sp, #60]	@ 0x3c
   2acb0:	e019      	b.n	2ace6 <_start+0x30e6>
   2acb2:	495a      	ldr	r1, [pc, #360]	@ (2ae1c <_start+0x321c>)
   2acb4:	4469      	add	r1, sp
   2acb6:	78ca      	ldrb	r2, [r1, #3]
   2acb8:	ab10      	add	r3, sp, #64	@ 0x40
   2acba:	709a      	strb	r2, [r3, #2]
   2acbc:	784a      	ldrb	r2, [r1, #1]
   2acbe:	788c      	ldrb	r4, [r1, #2]
   2acc0:	0224      	lsls	r4, r4, #8
   2acc2:	18a2      	adds	r2, r4, r2
   2acc4:	801a      	strh	r2, [r3, #0]
   2acc6:	3108      	adds	r1, #8
   2acc8:	9a0d      	ldr	r2, [sp, #52]	@ 0x34
   2acca:	6e12      	ldr	r2, [r2, #96]	@ 0x60
   2accc:	920f      	str	r2, [sp, #60]	@ 0x3c
   2acce:	4a52      	ldr	r2, [pc, #328]	@ (2ae18 <_start+0x3218>)
   2acd0:	446a      	add	r2, sp
   2acd2:	c938      	ldmia	r1!, {r3, r4, r5}
   2acd4:	c238      	stmia	r2!, {r3, r4, r5}
   2acd6:	c978      	ldmia	r1!, {r3, r4, r5, r6}
   2acd8:	c278      	stmia	r2!, {r3, r4, r5, r6}
   2acda:	c978      	ldmia	r1!, {r3, r4, r5, r6}
   2acdc:	c278      	stmia	r2!, {r3, r4, r5, r6}
   2acde:	c978      	ldmia	r1!, {r3, r4, r5, r6}
   2ace0:	c278      	stmia	r2!, {r3, r4, r5, r6}
   2ace2:	7809      	ldrb	r1, [r1, #0]
   2ace4:	7011      	strb	r1, [r2, #0]
   2ace6:	2800      	cmp	r0, #0
   2ace8:	d000      	beq.n	2acec <_start+0x30ec>
   2acea:	e28a      	b.n	2b202 <_start+0x3602>
   2acec:	4c51      	ldr	r4, [pc, #324]	@ (2ae34 <_start+0x3234>)
   2acee:	446c      	add	r4, sp
   2acf0:	990f      	ldr	r1, [sp, #60]	@ 0x3c
   2acf2:	70e1      	strb	r1, [r4, #3]
   2acf4:	9810      	ldr	r0, [sp, #64]	@ 0x40
   2acf6:	8020      	strh	r0, [r4, #0]
   2acf8:	0e08      	lsrs	r0, r1, #24
   2acfa:	71a0      	strb	r0, [r4, #6]
   2acfc:	0c08      	lsrs	r0, r1, #16
   2acfe:	7160      	strb	r0, [r4, #5]
   2ad00:	0a08      	lsrs	r0, r1, #8
   2ad02:	7120      	strb	r0, [r4, #4]
   2ad04:	a810      	add	r0, sp, #64	@ 0x40
   2ad06:	7880      	ldrb	r0, [r0, #2]
   2ad08:	70a0      	strb	r0, [r4, #2]
   2ad0a:	1de0      	adds	r0, r4, #7
   2ad0c:	4942      	ldr	r1, [pc, #264]	@ (2ae18 <_start+0x3218>)
   2ad0e:	4469      	add	r1, sp
   2ad10:	223d      	movs	r2, #61	@ 0x3d
   2ad12:	f000 fc9a 	bl	2b64a <__aeabi_memcpy>
   2ad16:	4d41      	ldr	r5, [pc, #260]	@ (2ae1c <_start+0x321c>)
   2ad18:	446d      	add	r5, sp
   2ad1a:	4628      	mov	r0, r5
   2ad1c:	4621      	mov	r1, r4
   2ad1e:	f7f6 fbb3 	bl	21488 <_ZN20complex_dynamic_type3app17h2505028468bca723E>
   2ad22:	7828      	ldrb	r0, [r5, #0]
   2ad24:	2801      	cmp	r0, #1
   2ad26:	d103      	bne.n	2ad30 <_start+0x3130>
   2ad28:	990d      	ldr	r1, [sp, #52]	@ 0x34
   2ad2a:	6e09      	ldr	r1, [r1, #96]	@ 0x60
   2ad2c:	910f      	str	r1, [sp, #60]	@ 0x3c
   2ad2e:	e013      	b.n	2ad58 <_start+0x3158>
   2ad30:	493a      	ldr	r1, [pc, #232]	@ (2ae1c <_start+0x321c>)
   2ad32:	4469      	add	r1, sp
   2ad34:	78ca      	ldrb	r2, [r1, #3]
   2ad36:	ab10      	add	r3, sp, #64	@ 0x40
   2ad38:	709a      	strb	r2, [r3, #2]
   2ad3a:	784a      	ldrb	r2, [r1, #1]
   2ad3c:	788c      	ldrb	r4, [r1, #2]
   2ad3e:	0224      	lsls	r4, r4, #8
   2ad40:	18a2      	adds	r2, r4, r2
   2ad42:	801a      	strh	r2, [r3, #0]
   2ad44:	3108      	adds	r1, #8
   2ad46:	9a0d      	ldr	r2, [sp, #52]	@ 0x34
   2ad48:	6e12      	ldr	r2, [r2, #96]	@ 0x60
   2ad4a:	920f      	str	r2, [sp, #60]	@ 0x3c
   2ad4c:	4a32      	ldr	r2, [pc, #200]	@ (2ae18 <_start+0x3218>)
   2ad4e:	446a      	add	r2, sp
   2ad50:	c938      	ldmia	r1!, {r3, r4, r5}
   2ad52:	c238      	stmia	r2!, {r3, r4, r5}
   2ad54:	c978      	ldmia	r1!, {r3, r4, r5, r6}
   2ad56:	c278      	stmia	r2!, {r3, r4, r5, r6}
   2ad58:	2800      	cmp	r0, #0
   2ad5a:	d000      	beq.n	2ad5e <_start+0x315e>
   2ad5c:	e251      	b.n	2b202 <_start+0x3602>
   2ad5e:	4c36      	ldr	r4, [pc, #216]	@ (2ae38 <_start+0x3238>)
   2ad60:	446c      	add	r4, sp
   2ad62:	990f      	ldr	r1, [sp, #60]	@ 0x3c
   2ad64:	70e1      	strb	r1, [r4, #3]
   2ad66:	9810      	ldr	r0, [sp, #64]	@ 0x40
   2ad68:	8020      	strh	r0, [r4, #0]
   2ad6a:	0e08      	lsrs	r0, r1, #24
   2ad6c:	71a0      	strb	r0, [r4, #6]
   2ad6e:	0c08      	lsrs	r0, r1, #16
   2ad70:	7160      	strb	r0, [r4, #5]
   2ad72:	0a08      	lsrs	r0, r1, #8
   2ad74:	7120      	strb	r0, [r4, #4]
   2ad76:	a810      	add	r0, sp, #64	@ 0x40
   2ad78:	7880      	ldrb	r0, [r0, #2]
   2ad7a:	70a0      	strb	r0, [r4, #2]
   2ad7c:	1de0      	adds	r0, r4, #7
   2ad7e:	4926      	ldr	r1, [pc, #152]	@ (2ae18 <_start+0x3218>)
   2ad80:	4469      	add	r1, sp
   2ad82:	221c      	movs	r2, #28
   2ad84:	f000 fc61 	bl	2b64a <__aeabi_memcpy>
   2ad88:	4d24      	ldr	r5, [pc, #144]	@ (2ae1c <_start+0x321c>)
   2ad8a:	446d      	add	r5, sp
   2ad8c:	4628      	mov	r0, r5
   2ad8e:	4621      	mov	r1, r4
   2ad90:	f7fa fa68 	bl	25264 <_ZN20complex_dynamic_type3app17hace1fba4b6d4591bE>
   2ad94:	7828      	ldrb	r0, [r5, #0]
   2ad96:	2801      	cmp	r0, #1
   2ad98:	d103      	bne.n	2ada2 <_start+0x31a2>
   2ad9a:	990d      	ldr	r1, [sp, #52]	@ 0x34
   2ad9c:	6e09      	ldr	r1, [r1, #96]	@ 0x60
   2ad9e:	910f      	str	r1, [sp, #60]	@ 0x3c
   2ada0:	e015      	b.n	2adce <_start+0x31ce>
   2ada2:	491e      	ldr	r1, [pc, #120]	@ (2ae1c <_start+0x321c>)
   2ada4:	4469      	add	r1, sp
   2ada6:	78ca      	ldrb	r2, [r1, #3]
   2ada8:	ab10      	add	r3, sp, #64	@ 0x40
   2adaa:	709a      	strb	r2, [r3, #2]
   2adac:	784a      	ldrb	r2, [r1, #1]
   2adae:	788c      	ldrb	r4, [r1, #2]
   2adb0:	0224      	lsls	r4, r4, #8
   2adb2:	18a2      	adds	r2, r4, r2
   2adb4:	801a      	strh	r2, [r3, #0]
   2adb6:	3108      	adds	r1, #8
   2adb8:	9a0d      	ldr	r2, [sp, #52]	@ 0x34
   2adba:	6e12      	ldr	r2, [r2, #96]	@ 0x60
   2adbc:	920f      	str	r2, [sp, #60]	@ 0x3c
   2adbe:	4a16      	ldr	r2, [pc, #88]	@ (2ae18 <_start+0x3218>)
   2adc0:	446a      	add	r2, sp
   2adc2:	c938      	ldmia	r1!, {r3, r4, r5}
   2adc4:	c238      	stmia	r2!, {r3, r4, r5}
   2adc6:	c978      	ldmia	r1!, {r3, r4, r5, r6}
   2adc8:	c278      	stmia	r2!, {r3, r4, r5, r6}
   2adca:	7809      	ldrb	r1, [r1, #0]
   2adcc:	7011      	strb	r1, [r2, #0]
   2adce:	2800      	cmp	r0, #0
   2add0:	d000      	beq.n	2add4 <_start+0x31d4>
   2add2:	e216      	b.n	2b202 <_start+0x3602>
   2add4:	4c19      	ldr	r4, [pc, #100]	@ (2ae3c <_start+0x323c>)
   2add6:	446c      	add	r4, sp
   2add8:	990f      	ldr	r1, [sp, #60]	@ 0x3c
   2adda:	70e1      	strb	r1, [r4, #3]
   2addc:	9810      	ldr	r0, [sp, #64]	@ 0x40
   2adde:	8020      	strh	r0, [r4, #0]
   2ade0:	0e08      	lsrs	r0, r1, #24
   2ade2:	71a0      	strb	r0, [r4, #6]
   2ade4:	0c08      	lsrs	r0, r1, #16
   2ade6:	7160      	strb	r0, [r4, #5]
   2ade8:	0a08      	lsrs	r0, r1, #8
   2adea:	7120      	strb	r0, [r4, #4]
   2adec:	a810      	add	r0, sp, #64	@ 0x40
   2adee:	7880      	ldrb	r0, [r0, #2]
   2adf0:	70a0      	strb	r0, [r4, #2]
   2adf2:	1de0      	adds	r0, r4, #7
   2adf4:	4908      	ldr	r1, [pc, #32]	@ (2ae18 <_start+0x3218>)
   2adf6:	4469      	add	r1, sp
   2adf8:	221d      	movs	r2, #29
   2adfa:	f000 fc26 	bl	2b64a <__aeabi_memcpy>
   2adfe:	4d07      	ldr	r5, [pc, #28]	@ (2ae1c <_start+0x321c>)
   2ae00:	446d      	add	r5, sp
   2ae02:	4628      	mov	r0, r5
   2ae04:	4621      	mov	r1, r4
   2ae06:	f7f8 fb45 	bl	23494 <_ZN20complex_dynamic_type3app17h6ad628d17653e20eE>
   2ae0a:	7828      	ldrb	r0, [r5, #0]
   2ae0c:	2801      	cmp	r0, #1
   2ae0e:	d117      	bne.n	2ae40 <_start+0x3240>
   2ae10:	990d      	ldr	r1, [sp, #52]	@ 0x34
   2ae12:	6e09      	ldr	r1, [r1, #96]	@ 0x60
   2ae14:	910f      	str	r1, [sp, #60]	@ 0x3c
   2ae16:	e029      	b.n	2ae6c <_start+0x326c>
   2ae18:	000013b8 	.word	0x000013b8
   2ae1c:	00001414 	.word	0x00001414
   2ae20:	000010e0 	.word	0x000010e0
   2ae24:	000010f4 	.word	0x000010f4
   2ae28:	00001134 	.word	0x00001134
   2ae2c:	00001150 	.word	0x00001150
   2ae30:	000011b0 	.word	0x000011b0
   2ae34:	000011c4 	.word	0x000011c4
   2ae38:	00001208 	.word	0x00001208
   2ae3c:	0000122c 	.word	0x0000122c
   2ae40:	49f3      	ldr	r1, [pc, #972]	@ (2b210 <_start+0x3610>)
   2ae42:	4469      	add	r1, sp
   2ae44:	78ca      	ldrb	r2, [r1, #3]
   2ae46:	ab10      	add	r3, sp, #64	@ 0x40
   2ae48:	709a      	strb	r2, [r3, #2]
   2ae4a:	784a      	ldrb	r2, [r1, #1]
   2ae4c:	788c      	ldrb	r4, [r1, #2]
   2ae4e:	0224      	lsls	r4, r4, #8
   2ae50:	18a2      	adds	r2, r4, r2
   2ae52:	801a      	strh	r2, [r3, #0]
   2ae54:	3108      	adds	r1, #8
   2ae56:	9a0d      	ldr	r2, [sp, #52]	@ 0x34
   2ae58:	6e12      	ldr	r2, [r2, #96]	@ 0x60
   2ae5a:	920f      	str	r2, [sp, #60]	@ 0x3c
   2ae5c:	4afe      	ldr	r2, [pc, #1016]	@ (2b258 <_start+0x3658>)
   2ae5e:	446a      	add	r2, sp
   2ae60:	c938      	ldmia	r1!, {r3, r4, r5}
   2ae62:	c238      	stmia	r2!, {r3, r4, r5}
   2ae64:	c938      	ldmia	r1!, {r3, r4, r5}
   2ae66:	c238      	stmia	r2!, {r3, r4, r5}
   2ae68:	c978      	ldmia	r1!, {r3, r4, r5, r6}
   2ae6a:	c278      	stmia	r2!, {r3, r4, r5, r6}
   2ae6c:	2800      	cmp	r0, #0
   2ae6e:	d000      	beq.n	2ae72 <_start+0x3272>
   2ae70:	e1c7      	b.n	2b202 <_start+0x3602>
   2ae72:	4cfa      	ldr	r4, [pc, #1000]	@ (2b25c <_start+0x365c>)
   2ae74:	446c      	add	r4, sp
   2ae76:	990f      	ldr	r1, [sp, #60]	@ 0x3c
   2ae78:	70e1      	strb	r1, [r4, #3]
   2ae7a:	9810      	ldr	r0, [sp, #64]	@ 0x40
   2ae7c:	8020      	strh	r0, [r4, #0]
   2ae7e:	0e08      	lsrs	r0, r1, #24
   2ae80:	71a0      	strb	r0, [r4, #6]
   2ae82:	0c08      	lsrs	r0, r1, #16
   2ae84:	7160      	strb	r0, [r4, #5]
   2ae86:	0a08      	lsrs	r0, r1, #8
   2ae88:	7120      	strb	r0, [r4, #4]
   2ae8a:	a810      	add	r0, sp, #64	@ 0x40
   2ae8c:	7880      	ldrb	r0, [r0, #2]
   2ae8e:	70a0      	strb	r0, [r4, #2]
   2ae90:	1de0      	adds	r0, r4, #7
   2ae92:	49f1      	ldr	r1, [pc, #964]	@ (2b258 <_start+0x3658>)
   2ae94:	4469      	add	r1, sp
   2ae96:	2228      	movs	r2, #40	@ 0x28
   2ae98:	f000 fbd7 	bl	2b64a <__aeabi_memcpy>
   2ae9c:	4ded      	ldr	r5, [pc, #948]	@ (2b254 <_start+0x3654>)
   2ae9e:	446d      	add	r5, sp
   2aea0:	4628      	mov	r0, r5
   2aea2:	4621      	mov	r1, r4
   2aea4:	f7fa f8ac 	bl	25000 <_ZN20complex_dynamic_type3app17ha9f649f998a9e4a2E>
   2aea8:	782c      	ldrb	r4, [r5, #0]
   2aeaa:	2c01      	cmp	r4, #1
   2aeac:	d103      	bne.n	2aeb6 <_start+0x32b6>
   2aeae:	980d      	ldr	r0, [sp, #52]	@ 0x34
   2aeb0:	6e00      	ldr	r0, [r0, #96]	@ 0x60
   2aeb2:	900f      	str	r0, [sp, #60]	@ 0x3c
   2aeb4:	e012      	b.n	2aedc <_start+0x32dc>
   2aeb6:	49e7      	ldr	r1, [pc, #924]	@ (2b254 <_start+0x3654>)
   2aeb8:	4469      	add	r1, sp
   2aeba:	78c8      	ldrb	r0, [r1, #3]
   2aebc:	aa10      	add	r2, sp, #64	@ 0x40
   2aebe:	7090      	strb	r0, [r2, #2]
   2aec0:	7848      	ldrb	r0, [r1, #1]
   2aec2:	788b      	ldrb	r3, [r1, #2]
   2aec4:	021b      	lsls	r3, r3, #8
   2aec6:	1818      	adds	r0, r3, r0
   2aec8:	8010      	strh	r0, [r2, #0]
   2aeca:	980d      	ldr	r0, [sp, #52]	@ 0x34
   2aecc:	6e00      	ldr	r0, [r0, #96]	@ 0x60
   2aece:	900f      	str	r0, [sp, #60]	@ 0x3c
   2aed0:	3108      	adds	r1, #8
   2aed2:	48e1      	ldr	r0, [pc, #900]	@ (2b258 <_start+0x3658>)
   2aed4:	4468      	add	r0, sp
   2aed6:	2257      	movs	r2, #87	@ 0x57
   2aed8:	f000 fa57 	bl	2b38a <__aeabi_memcpy4>
   2aedc:	2c00      	cmp	r4, #0
   2aede:	d000      	beq.n	2aee2 <_start+0x32e2>
   2aee0:	e18f      	b.n	2b202 <_start+0x3602>
   2aee2:	4cdf      	ldr	r4, [pc, #892]	@ (2b260 <_start+0x3660>)
   2aee4:	446c      	add	r4, sp
   2aee6:	990f      	ldr	r1, [sp, #60]	@ 0x3c
   2aee8:	70e1      	strb	r1, [r4, #3]
   2aeea:	9810      	ldr	r0, [sp, #64]	@ 0x40
   2aeec:	8020      	strh	r0, [r4, #0]
   2aeee:	0e08      	lsrs	r0, r1, #24
   2aef0:	71a0      	strb	r0, [r4, #6]
   2aef2:	0c08      	lsrs	r0, r1, #16
   2aef4:	7160      	strb	r0, [r4, #5]
   2aef6:	0a08      	lsrs	r0, r1, #8
   2aef8:	7120      	strb	r0, [r4, #4]
   2aefa:	a810      	add	r0, sp, #64	@ 0x40
   2aefc:	7880      	ldrb	r0, [r0, #2]
   2aefe:	70a0      	strb	r0, [r4, #2]
   2af00:	1de0      	adds	r0, r4, #7
   2af02:	49d5      	ldr	r1, [pc, #852]	@ (2b258 <_start+0x3658>)
   2af04:	4469      	add	r1, sp
   2af06:	2257      	movs	r2, #87	@ 0x57
   2af08:	f000 fb9f 	bl	2b64a <__aeabi_memcpy>
   2af0c:	4dd1      	ldr	r5, [pc, #836]	@ (2b254 <_start+0x3654>)
   2af0e:	446d      	add	r5, sp
   2af10:	4628      	mov	r0, r5
   2af12:	4621      	mov	r1, r4
   2af14:	f7fc fb7c 	bl	27610 <_ZN20complex_dynamic_type3app17hee9b8f929d43afe6E>
   2af18:	782c      	ldrb	r4, [r5, #0]
   2af1a:	2c01      	cmp	r4, #1
   2af1c:	d103      	bne.n	2af26 <_start+0x3326>
   2af1e:	980d      	ldr	r0, [sp, #52]	@ 0x34
   2af20:	6e00      	ldr	r0, [r0, #96]	@ 0x60
   2af22:	900f      	str	r0, [sp, #60]	@ 0x3c
   2af24:	e012      	b.n	2af4c <_start+0x334c>
   2af26:	49cb      	ldr	r1, [pc, #812]	@ (2b254 <_start+0x3654>)
   2af28:	4469      	add	r1, sp
   2af2a:	78c8      	ldrb	r0, [r1, #3]
   2af2c:	aa10      	add	r2, sp, #64	@ 0x40
   2af2e:	7090      	strb	r0, [r2, #2]
   2af30:	7848      	ldrb	r0, [r1, #1]
   2af32:	788b      	ldrb	r3, [r1, #2]
   2af34:	021b      	lsls	r3, r3, #8
   2af36:	1818      	adds	r0, r3, r0
   2af38:	8010      	strh	r0, [r2, #0]
   2af3a:	980d      	ldr	r0, [sp, #52]	@ 0x34
   2af3c:	6e00      	ldr	r0, [r0, #96]	@ 0x60
   2af3e:	900f      	str	r0, [sp, #60]	@ 0x3c
   2af40:	3108      	adds	r1, #8
   2af42:	48c5      	ldr	r0, [pc, #788]	@ (2b258 <_start+0x3658>)
   2af44:	4468      	add	r0, sp
   2af46:	224e      	movs	r2, #78	@ 0x4e
   2af48:	f000 fa1f 	bl	2b38a <__aeabi_memcpy4>
   2af4c:	2c00      	cmp	r4, #0
   2af4e:	d000      	beq.n	2af52 <_start+0x3352>
   2af50:	e157      	b.n	2b202 <_start+0x3602>
   2af52:	4cc4      	ldr	r4, [pc, #784]	@ (2b264 <_start+0x3664>)
   2af54:	446c      	add	r4, sp
   2af56:	990f      	ldr	r1, [sp, #60]	@ 0x3c
   2af58:	70e1      	strb	r1, [r4, #3]
   2af5a:	9810      	ldr	r0, [sp, #64]	@ 0x40
   2af5c:	8020      	strh	r0, [r4, #0]
   2af5e:	0e08      	lsrs	r0, r1, #24
   2af60:	71a0      	strb	r0, [r4, #6]
   2af62:	0c08      	lsrs	r0, r1, #16
   2af64:	7160      	strb	r0, [r4, #5]
   2af66:	0a08      	lsrs	r0, r1, #8
   2af68:	7120      	strb	r0, [r4, #4]
   2af6a:	a810      	add	r0, sp, #64	@ 0x40
   2af6c:	7880      	ldrb	r0, [r0, #2]
   2af6e:	70a0      	strb	r0, [r4, #2]
   2af70:	1de0      	adds	r0, r4, #7
   2af72:	49b9      	ldr	r1, [pc, #740]	@ (2b258 <_start+0x3658>)
   2af74:	4469      	add	r1, sp
   2af76:	224e      	movs	r2, #78	@ 0x4e
   2af78:	f000 fb67 	bl	2b64a <__aeabi_memcpy>
   2af7c:	4db5      	ldr	r5, [pc, #724]	@ (2b254 <_start+0x3654>)
   2af7e:	446d      	add	r5, sp
   2af80:	4628      	mov	r0, r5
   2af82:	4621      	mov	r1, r4
   2af84:	f7f6 fcde 	bl	21944 <_ZN20complex_dynamic_type3app17h3038c89f84927fc0E>
   2af88:	7828      	ldrb	r0, [r5, #0]
   2af8a:	2801      	cmp	r0, #1
   2af8c:	d102      	bne.n	2af94 <_start+0x3394>
   2af8e:	990d      	ldr	r1, [sp, #52]	@ 0x34
   2af90:	6e09      	ldr	r1, [r1, #96]	@ 0x60
   2af92:	e012      	b.n	2afba <_start+0x33ba>
   2af94:	49b0      	ldr	r1, [pc, #704]	@ (2b258 <_start+0x3658>)
   2af96:	4469      	add	r1, sp
   2af98:	9c0d      	ldr	r4, [sp, #52]	@ 0x34
   2af9a:	6ee2      	ldr	r2, [r4, #108]	@ 0x6c
   2af9c:	810a      	strh	r2, [r1, #8]
   2af9e:	49ad      	ldr	r1, [pc, #692]	@ (2b254 <_start+0x3654>)
   2afa0:	4469      	add	r1, sp
   2afa2:	78ca      	ldrb	r2, [r1, #3]
   2afa4:	ab10      	add	r3, sp, #64	@ 0x40
   2afa6:	709a      	strb	r2, [r3, #2]
   2afa8:	784a      	ldrb	r2, [r1, #1]
   2afaa:	7889      	ldrb	r1, [r1, #2]
   2afac:	0209      	lsls	r1, r1, #8
   2afae:	1889      	adds	r1, r1, r2
   2afb0:	8019      	strh	r1, [r3, #0]
   2afb2:	6e61      	ldr	r1, [r4, #100]	@ 0x64
   2afb4:	6ea2      	ldr	r2, [r4, #104]	@ 0x68
   2afb6:	c406      	stmia	r4!, {r1, r2}
   2afb8:	6da1      	ldr	r1, [r4, #88]	@ 0x58
   2afba:	910f      	str	r1, [sp, #60]	@ 0x3c
   2afbc:	2800      	cmp	r0, #0
   2afbe:	d000      	beq.n	2afc2 <_start+0x33c2>
   2afc0:	e11f      	b.n	2b202 <_start+0x3602>
   2afc2:	4ca9      	ldr	r4, [pc, #676]	@ (2b268 <_start+0x3668>)
   2afc4:	446c      	add	r4, sp
   2afc6:	990f      	ldr	r1, [sp, #60]	@ 0x3c
   2afc8:	70e1      	strb	r1, [r4, #3]
   2afca:	9810      	ldr	r0, [sp, #64]	@ 0x40
   2afcc:	8020      	strh	r0, [r4, #0]
   2afce:	0e08      	lsrs	r0, r1, #24
   2afd0:	71a0      	strb	r0, [r4, #6]
   2afd2:	0c08      	lsrs	r0, r1, #16
   2afd4:	7160      	strb	r0, [r4, #5]
   2afd6:	0a08      	lsrs	r0, r1, #8
   2afd8:	7120      	strb	r0, [r4, #4]
   2afda:	a810      	add	r0, sp, #64	@ 0x40
   2afdc:	7880      	ldrb	r0, [r0, #2]
   2afde:	70a0      	strb	r0, [r4, #2]
   2afe0:	1de0      	adds	r0, r4, #7
   2afe2:	499d      	ldr	r1, [pc, #628]	@ (2b258 <_start+0x3658>)
   2afe4:	4469      	add	r1, sp
   2afe6:	220a      	movs	r2, #10
   2afe8:	f000 fb2f 	bl	2b64a <__aeabi_memcpy>
   2afec:	4d99      	ldr	r5, [pc, #612]	@ (2b254 <_start+0x3654>)
   2afee:	446d      	add	r5, sp
   2aff0:	4628      	mov	r0, r5
   2aff2:	4621      	mov	r1, r4
   2aff4:	f7fa fafe 	bl	255f4 <_ZN20complex_dynamic_type3app17hb15dc0263bf40423E>
   2aff8:	782c      	ldrb	r4, [r5, #0]
   2affa:	2c01      	cmp	r4, #1
   2affc:	d103      	bne.n	2b006 <_start+0x3406>
   2affe:	980d      	ldr	r0, [sp, #52]	@ 0x34
   2b000:	6e00      	ldr	r0, [r0, #96]	@ 0x60
   2b002:	900f      	str	r0, [sp, #60]	@ 0x3c
   2b004:	e012      	b.n	2b02c <_start+0x342c>
   2b006:	4993      	ldr	r1, [pc, #588]	@ (2b254 <_start+0x3654>)
   2b008:	4469      	add	r1, sp
   2b00a:	78c8      	ldrb	r0, [r1, #3]
   2b00c:	aa10      	add	r2, sp, #64	@ 0x40
   2b00e:	7090      	strb	r0, [r2, #2]
   2b010:	7848      	ldrb	r0, [r1, #1]
   2b012:	788b      	ldrb	r3, [r1, #2]
   2b014:	021b      	lsls	r3, r3, #8
   2b016:	1818      	adds	r0, r3, r0
   2b018:	8010      	strh	r0, [r2, #0]
   2b01a:	980d      	ldr	r0, [sp, #52]	@ 0x34
   2b01c:	6e00      	ldr	r0, [r0, #96]	@ 0x60
   2b01e:	900f      	str	r0, [sp, #60]	@ 0x3c
   2b020:	3108      	adds	r1, #8
   2b022:	488d      	ldr	r0, [pc, #564]	@ (2b258 <_start+0x3658>)
   2b024:	4468      	add	r0, sp
   2b026:	2249      	movs	r2, #73	@ 0x49
   2b028:	f000 f9af 	bl	2b38a <__aeabi_memcpy4>
   2b02c:	2c00      	cmp	r4, #0
   2b02e:	d000      	beq.n	2b032 <_start+0x3432>
   2b030:	e0e7      	b.n	2b202 <_start+0x3602>
   2b032:	4c8e      	ldr	r4, [pc, #568]	@ (2b26c <_start+0x366c>)
   2b034:	446c      	add	r4, sp
   2b036:	990f      	ldr	r1, [sp, #60]	@ 0x3c
   2b038:	70e1      	strb	r1, [r4, #3]
   2b03a:	9810      	ldr	r0, [sp, #64]	@ 0x40
   2b03c:	8020      	strh	r0, [r4, #0]
   2b03e:	0e08      	lsrs	r0, r1, #24
   2b040:	71a0      	strb	r0, [r4, #6]
   2b042:	0c08      	lsrs	r0, r1, #16
   2b044:	7160      	strb	r0, [r4, #5]
   2b046:	0a08      	lsrs	r0, r1, #8
   2b048:	7120      	strb	r0, [r4, #4]
   2b04a:	a810      	add	r0, sp, #64	@ 0x40
   2b04c:	7880      	ldrb	r0, [r0, #2]
   2b04e:	70a0      	strb	r0, [r4, #2]
   2b050:	1de0      	adds	r0, r4, #7
   2b052:	4981      	ldr	r1, [pc, #516]	@ (2b258 <_start+0x3658>)
   2b054:	4469      	add	r1, sp
   2b056:	2249      	movs	r2, #73	@ 0x49
   2b058:	f000 faf7 	bl	2b64a <__aeabi_memcpy>
   2b05c:	4d7d      	ldr	r5, [pc, #500]	@ (2b254 <_start+0x3654>)
   2b05e:	446d      	add	r5, sp
   2b060:	4628      	mov	r0, r5
   2b062:	4621      	mov	r1, r4
   2b064:	f7f9 fa6e 	bl	24544 <_ZN20complex_dynamic_type3app17h9765b1d8db708ef2E>
   2b068:	7828      	ldrb	r0, [r5, #0]
   2b06a:	2801      	cmp	r0, #1
   2b06c:	d103      	bne.n	2b076 <_start+0x3476>
   2b06e:	990d      	ldr	r1, [sp, #52]	@ 0x34
   2b070:	6e09      	ldr	r1, [r1, #96]	@ 0x60
   2b072:	910f      	str	r1, [sp, #60]	@ 0x3c
   2b074:	e013      	b.n	2b09e <_start+0x349e>
   2b076:	4977      	ldr	r1, [pc, #476]	@ (2b254 <_start+0x3654>)
   2b078:	4469      	add	r1, sp
   2b07a:	78ca      	ldrb	r2, [r1, #3]
   2b07c:	ab10      	add	r3, sp, #64	@ 0x40
   2b07e:	709a      	strb	r2, [r3, #2]
   2b080:	784a      	ldrb	r2, [r1, #1]
   2b082:	788c      	ldrb	r4, [r1, #2]
   2b084:	0224      	lsls	r4, r4, #8
   2b086:	18a2      	adds	r2, r4, r2
   2b088:	801a      	strh	r2, [r3, #0]
   2b08a:	3108      	adds	r1, #8
   2b08c:	9a0d      	ldr	r2, [sp, #52]	@ 0x34
   2b08e:	6e12      	ldr	r2, [r2, #96]	@ 0x60
   2b090:	920f      	str	r2, [sp, #60]	@ 0x3c
   2b092:	4a71      	ldr	r2, [pc, #452]	@ (2b258 <_start+0x3658>)
   2b094:	446a      	add	r2, sp
   2b096:	c918      	ldmia	r1!, {r3, r4}
   2b098:	c218      	stmia	r2!, {r3, r4}
   2b09a:	c938      	ldmia	r1!, {r3, r4, r5}
   2b09c:	c238      	stmia	r2!, {r3, r4, r5}
   2b09e:	2800      	cmp	r0, #0
   2b0a0:	d000      	beq.n	2b0a4 <_start+0x34a4>
   2b0a2:	e0ae      	b.n	2b202 <_start+0x3602>
   2b0a4:	4c72      	ldr	r4, [pc, #456]	@ (2b270 <_start+0x3670>)
   2b0a6:	446c      	add	r4, sp
   2b0a8:	990f      	ldr	r1, [sp, #60]	@ 0x3c
   2b0aa:	70e1      	strb	r1, [r4, #3]
   2b0ac:	9810      	ldr	r0, [sp, #64]	@ 0x40
   2b0ae:	8020      	strh	r0, [r4, #0]
   2b0b0:	0e08      	lsrs	r0, r1, #24
   2b0b2:	71a0      	strb	r0, [r4, #6]
   2b0b4:	0c08      	lsrs	r0, r1, #16
   2b0b6:	7160      	strb	r0, [r4, #5]
   2b0b8:	0a08      	lsrs	r0, r1, #8
   2b0ba:	7120      	strb	r0, [r4, #4]
   2b0bc:	a810      	add	r0, sp, #64	@ 0x40
   2b0be:	7880      	ldrb	r0, [r0, #2]
   2b0c0:	70a0      	strb	r0, [r4, #2]
   2b0c2:	1de0      	adds	r0, r4, #7
   2b0c4:	4964      	ldr	r1, [pc, #400]	@ (2b258 <_start+0x3658>)
   2b0c6:	4469      	add	r1, sp
   2b0c8:	2214      	movs	r2, #20
   2b0ca:	f000 fabe 	bl	2b64a <__aeabi_memcpy>
   2b0ce:	4d61      	ldr	r5, [pc, #388]	@ (2b254 <_start+0x3654>)
   2b0d0:	446d      	add	r5, sp
   2b0d2:	4628      	mov	r0, r5
   2b0d4:	4621      	mov	r1, r4
   2b0d6:	f7f8 fc45 	bl	23964 <_ZN20complex_dynamic_type3app17h8054204578b54b8aE>
   2b0da:	782c      	ldrb	r4, [r5, #0]
   2b0dc:	2c01      	cmp	r4, #1
   2b0de:	d103      	bne.n	2b0e8 <_start+0x34e8>
   2b0e0:	980d      	ldr	r0, [sp, #52]	@ 0x34
   2b0e2:	6e00      	ldr	r0, [r0, #96]	@ 0x60
   2b0e4:	900f      	str	r0, [sp, #60]	@ 0x3c
   2b0e6:	e012      	b.n	2b10e <_start+0x350e>
   2b0e8:	495a      	ldr	r1, [pc, #360]	@ (2b254 <_start+0x3654>)
   2b0ea:	4469      	add	r1, sp
   2b0ec:	78c8      	ldrb	r0, [r1, #3]
   2b0ee:	aa10      	add	r2, sp, #64	@ 0x40
   2b0f0:	7090      	strb	r0, [r2, #2]
   2b0f2:	7848      	ldrb	r0, [r1, #1]
   2b0f4:	788b      	ldrb	r3, [r1, #2]
   2b0f6:	021b      	lsls	r3, r3, #8
   2b0f8:	1818      	adds	r0, r3, r0
   2b0fa:	8010      	strh	r0, [r2, #0]
   2b0fc:	980d      	ldr	r0, [sp, #52]	@ 0x34
   2b0fe:	6e00      	ldr	r0, [r0, #96]	@ 0x60
   2b100:	900f      	str	r0, [sp, #60]	@ 0x3c
   2b102:	3108      	adds	r1, #8
   2b104:	4854      	ldr	r0, [pc, #336]	@ (2b258 <_start+0x3658>)
   2b106:	4468      	add	r0, sp
   2b108:	225c      	movs	r2, #92	@ 0x5c
   2b10a:	f000 f93e 	bl	2b38a <__aeabi_memcpy4>
   2b10e:	2c00      	cmp	r4, #0
   2b110:	d177      	bne.n	2b202 <_start+0x3602>
   2b112:	4c58      	ldr	r4, [pc, #352]	@ (2b274 <_start+0x3674>)
   2b114:	446c      	add	r4, sp
   2b116:	990f      	ldr	r1, [sp, #60]	@ 0x3c
   2b118:	70e1      	strb	r1, [r4, #3]
   2b11a:	9810      	ldr	r0, [sp, #64]	@ 0x40
   2b11c:	8020      	strh	r0, [r4, #0]
   2b11e:	0e08      	lsrs	r0, r1, #24
   2b120:	71a0      	strb	r0, [r4, #6]
   2b122:	0c08      	lsrs	r0, r1, #16
   2b124:	7160      	strb	r0, [r4, #5]
   2b126:	0a08      	lsrs	r0, r1, #8
   2b128:	7120      	strb	r0, [r4, #4]
   2b12a:	a810      	add	r0, sp, #64	@ 0x40
   2b12c:	7880      	ldrb	r0, [r0, #2]
   2b12e:	70a0      	strb	r0, [r4, #2]
   2b130:	1de0      	adds	r0, r4, #7
   2b132:	4949      	ldr	r1, [pc, #292]	@ (2b258 <_start+0x3658>)
   2b134:	4469      	add	r1, sp
   2b136:	225c      	movs	r2, #92	@ 0x5c
   2b138:	f000 fa87 	bl	2b64a <__aeabi_memcpy>
   2b13c:	4d45      	ldr	r5, [pc, #276]	@ (2b254 <_start+0x3654>)
   2b13e:	446d      	add	r5, sp
   2b140:	4628      	mov	r0, r5
   2b142:	4621      	mov	r1, r4
   2b144:	f7fb fb40 	bl	267c8 <_ZN20complex_dynamic_type3app17hd77425c8f5c0bb6eE>
   2b148:	7828      	ldrb	r0, [r5, #0]
   2b14a:	2801      	cmp	r0, #1
   2b14c:	d103      	bne.n	2b156 <_start+0x3556>
   2b14e:	990d      	ldr	r1, [sp, #52]	@ 0x34
   2b150:	6e09      	ldr	r1, [r1, #96]	@ 0x60
   2b152:	910f      	str	r1, [sp, #60]	@ 0x3c
   2b154:	e017      	b.n	2b186 <_start+0x3586>
   2b156:	493f      	ldr	r1, [pc, #252]	@ (2b254 <_start+0x3654>)
   2b158:	4469      	add	r1, sp
   2b15a:	78ca      	ldrb	r2, [r1, #3]
   2b15c:	ab10      	add	r3, sp, #64	@ 0x40
   2b15e:	709a      	strb	r2, [r3, #2]
   2b160:	784a      	ldrb	r2, [r1, #1]
   2b162:	788c      	ldrb	r4, [r1, #2]
   2b164:	0224      	lsls	r4, r4, #8
   2b166:	18a2      	adds	r2, r4, r2
   2b168:	801a      	strh	r2, [r3, #0]
   2b16a:	3108      	adds	r1, #8
   2b16c:	9a0d      	ldr	r2, [sp, #52]	@ 0x34
   2b16e:	6e12      	ldr	r2, [r2, #96]	@ 0x60
   2b170:	920f      	str	r2, [sp, #60]	@ 0x3c
   2b172:	4a39      	ldr	r2, [pc, #228]	@ (2b258 <_start+0x3658>)
   2b174:	446a      	add	r2, sp
   2b176:	c938      	ldmia	r1!, {r3, r4, r5}
   2b178:	c238      	stmia	r2!, {r3, r4, r5}
   2b17a:	c938      	ldmia	r1!, {r3, r4, r5}
   2b17c:	c238      	stmia	r2!, {r3, r4, r5}
   2b17e:	c938      	ldmia	r1!, {r3, r4, r5}
   2b180:	c238      	stmia	r2!, {r3, r4, r5}
   2b182:	7809      	ldrb	r1, [r1, #0]
   2b184:	7011      	strb	r1, [r2, #0]
   2b186:	2800      	cmp	r0, #0
   2b188:	d13b      	bne.n	2b202 <_start+0x3602>
   2b18a:	4c3b      	ldr	r4, [pc, #236]	@ (2b278 <_start+0x3678>)
   2b18c:	446c      	add	r4, sp
   2b18e:	990f      	ldr	r1, [sp, #60]	@ 0x3c
   2b190:	70e1      	strb	r1, [r4, #3]
   2b192:	9810      	ldr	r0, [sp, #64]	@ 0x40
   2b194:	8020      	strh	r0, [r4, #0]
   2b196:	0e08      	lsrs	r0, r1, #24
   2b198:	71a0      	strb	r0, [r4, #6]
   2b19a:	0c08      	lsrs	r0, r1, #16
   2b19c:	7160      	strb	r0, [r4, #5]
   2b19e:	0a08      	lsrs	r0, r1, #8
   2b1a0:	7120      	strb	r0, [r4, #4]
   2b1a2:	a810      	add	r0, sp, #64	@ 0x40
   2b1a4:	7880      	ldrb	r0, [r0, #2]
   2b1a6:	70a0      	strb	r0, [r4, #2]
   2b1a8:	1de0      	adds	r0, r4, #7
   2b1aa:	492b      	ldr	r1, [pc, #172]	@ (2b258 <_start+0x3658>)
   2b1ac:	4469      	add	r1, sp
   2b1ae:	2225      	movs	r2, #37	@ 0x25
   2b1b0:	f000 fa4b 	bl	2b64a <__aeabi_memcpy>
   2b1b4:	4d27      	ldr	r5, [pc, #156]	@ (2b254 <_start+0x3654>)
   2b1b6:	446d      	add	r5, sp
   2b1b8:	4628      	mov	r0, r5
   2b1ba:	4621      	mov	r1, r4
   2b1bc:	f7fb fd60 	bl	26c80 <_ZN20complex_dynamic_type3app17he24eb1a2b55d035fE>
   2b1c0:	7828      	ldrb	r0, [r5, #0]
   2b1c2:	2801      	cmp	r0, #1
   2b1c4:	d103      	bne.n	2b1ce <_start+0x35ce>
   2b1c6:	990d      	ldr	r1, [sp, #52]	@ 0x34
   2b1c8:	6e09      	ldr	r1, [r1, #96]	@ 0x60
   2b1ca:	910f      	str	r1, [sp, #60]	@ 0x3c
   2b1cc:	e017      	b.n	2b1fe <_start+0x35fe>
   2b1ce:	4921      	ldr	r1, [pc, #132]	@ (2b254 <_start+0x3654>)
   2b1d0:	4469      	add	r1, sp
   2b1d2:	78ca      	ldrb	r2, [r1, #3]
   2b1d4:	ab10      	add	r3, sp, #64	@ 0x40
   2b1d6:	709a      	strb	r2, [r3, #2]
   2b1d8:	784a      	ldrb	r2, [r1, #1]
   2b1da:	788c      	ldrb	r4, [r1, #2]
   2b1dc:	0224      	lsls	r4, r4, #8
   2b1de:	18a2      	adds	r2, r4, r2
   2b1e0:	801a      	strh	r2, [r3, #0]
   2b1e2:	3108      	adds	r1, #8
   2b1e4:	9a0d      	ldr	r2, [sp, #52]	@ 0x34
   2b1e6:	6e12      	ldr	r2, [r2, #96]	@ 0x60
   2b1e8:	920f      	str	r2, [sp, #60]	@ 0x3c
   2b1ea:	4a1b      	ldr	r2, [pc, #108]	@ (2b258 <_start+0x3658>)
   2b1ec:	446a      	add	r2, sp
   2b1ee:	c978      	ldmia	r1!, {r3, r4, r5, r6}
   2b1f0:	c278      	stmia	r2!, {r3, r4, r5, r6}
   2b1f2:	c978      	ldmia	r1!, {r3, r4, r5, r6}
   2b1f4:	c278      	stmia	r2!, {r3, r4, r5, r6}
   2b1f6:	880b      	ldrh	r3, [r1, #0]
   2b1f8:	8013      	strh	r3, [r2, #0]
   2b1fa:	7889      	ldrb	r1, [r1, #2]
   2b1fc:	7091      	strb	r1, [r2, #2]
   2b1fe:	2800      	cmp	r0, #0
   2b200:	d008      	beq.n	2b214 <_start+0x3614>
   2b202:	2001      	movs	r0, #1
   2b204:	990f      	ldr	r1, [sp, #60]	@ 0x3c
   2b206:	1ffe      	subs	r6, r7, #7
   2b208:	3e05      	subs	r6, #5
   2b20a:	46b5      	mov	sp, r6
   2b20c:	bdf0      	pop	{r4, r5, r6, r7, pc}
   2b20e:	46c0      	nop			@ (mov r8, r8)
   2b210:	00001414 	.word	0x00001414
   2b214:	4c19      	ldr	r4, [pc, #100]	@ (2b27c <_start+0x367c>)
   2b216:	446c      	add	r4, sp
   2b218:	990f      	ldr	r1, [sp, #60]	@ 0x3c
   2b21a:	70e1      	strb	r1, [r4, #3]
   2b21c:	9810      	ldr	r0, [sp, #64]	@ 0x40
   2b21e:	8020      	strh	r0, [r4, #0]
   2b220:	0e08      	lsrs	r0, r1, #24
   2b222:	71a0      	strb	r0, [r4, #6]
   2b224:	0c08      	lsrs	r0, r1, #16
   2b226:	7160      	strb	r0, [r4, #5]
   2b228:	0a08      	lsrs	r0, r1, #8
   2b22a:	7120      	strb	r0, [r4, #4]
   2b22c:	a810      	add	r0, sp, #64	@ 0x40
   2b22e:	7880      	ldrb	r0, [r0, #2]
   2b230:	70a0      	strb	r0, [r4, #2]
   2b232:	1de0      	adds	r0, r4, #7
   2b234:	4908      	ldr	r1, [pc, #32]	@ (2b258 <_start+0x3658>)
   2b236:	4469      	add	r1, sp
   2b238:	2223      	movs	r2, #35	@ 0x23
   2b23a:	f000 fa06 	bl	2b64a <__aeabi_memcpy>
   2b23e:	4d05      	ldr	r5, [pc, #20]	@ (2b254 <_start+0x3654>)
   2b240:	446d      	add	r5, sp
   2b242:	4628      	mov	r0, r5
   2b244:	4621      	mov	r1, r4
   2b246:	f7f9 f84d 	bl	242e4 <_ZN20complex_dynamic_type3app17h950b49092efb419eE>
   2b24a:	7828      	ldrb	r0, [r5, #0]
   2b24c:	990d      	ldr	r1, [sp, #52]	@ 0x34
   2b24e:	6e09      	ldr	r1, [r1, #96]	@ 0x60
   2b250:	910f      	str	r1, [sp, #60]	@ 0x3c
   2b252:	e7d7      	b.n	2b204 <_start+0x3604>
   2b254:	00001414 	.word	0x00001414
   2b258:	000013b8 	.word	0x000013b8
   2b25c:	00001250 	.word	0x00001250
   2b260:	00001280 	.word	0x00001280
   2b264:	000012e0 	.word	0x000012e0
   2b268:	00001338 	.word	0x00001338
   2b26c:	0000134c 	.word	0x0000134c
   2b270:	0000139c 	.word	0x0000139c
   2b274:	00001478 	.word	0x00001478
   2b278:	000014dc 	.word	0x000014dc
   2b27c:	00001508 	.word	0x00001508

0002b280 <_ZN9allow_pin12dynamic_type7unshare17hefa7cd45f9379b26E>:
   2b280:	b580      	push	{r7, lr}
   2b282:	af00      	add	r7, sp, #0
   2b284:	b2d2      	uxtb	r2, r2
   2b286:	2a03      	cmp	r2, #3
   2b288:	d103      	bne.n	2b292 <_ZN9allow_pin12dynamic_type7unshare17hefa7cd45f9379b26E+0x12>
   2b28a:	2200      	movs	r2, #0
   2b28c:	4613      	mov	r3, r2
   2b28e:	df03      	svc	3
   2b290:	bd80      	pop	{r7, pc}
   2b292:	2200      	movs	r2, #0
   2b294:	4613      	mov	r3, r2
   2b296:	df04      	svc	4
   2b298:	bd80      	pop	{r7, pc}

0002b29a <_ZN9allow_pin13dynamic_allow17h33d41317a2da4f1cE>:
   2b29a:	b5b0      	push	{r4, r5, r7, lr}
   2b29c:	af02      	add	r7, sp, #8
   2b29e:	461d      	mov	r5, r3
   2b2a0:	4604      	mov	r4, r0
   2b2a2:	1df8      	adds	r0, r7, #7
   2b2a4:	3005      	adds	r0, #5
   2b2a6:	7800      	ldrb	r0, [r0, #0]
   2b2a8:	68bb      	ldr	r3, [r7, #8]
   2b2aa:	2803      	cmp	r0, #3
   2b2ac:	d104      	bne.n	2b2b8 <_ZN9allow_pin13dynamic_allow17h33d41317a2da4f1cE+0x1e>
   2b2ae:	4608      	mov	r0, r1
   2b2b0:	4611      	mov	r1, r2
   2b2b2:	462a      	mov	r2, r5
   2b2b4:	df03      	svc	3
   2b2b6:	e003      	b.n	2b2c0 <_ZN9allow_pin13dynamic_allow17h33d41317a2da4f1cE+0x26>
   2b2b8:	4608      	mov	r0, r1
   2b2ba:	4611      	mov	r1, r2
   2b2bc:	462a      	mov	r2, r5
   2b2be:	df04      	svc	4
   2b2c0:	6020      	str	r0, [r4, #0]
   2b2c2:	6061      	str	r1, [r4, #4]
   2b2c4:	60a2      	str	r2, [r4, #8]
   2b2c6:	60e3      	str	r3, [r4, #12]
   2b2c8:	bdb0      	pop	{r4, r5, r7, pc}

0002b2ca <__aeabi_memclr>:
   2b2ca:	b5f0      	push	{r4, r5, r6, r7, lr}
   2b2cc:	af03      	add	r7, sp, #12
   2b2ce:	2910      	cmp	r1, #16
   2b2d0:	d332      	bcc.n	2b338 <__aeabi_memclr+0x6e>
   2b2d2:	4244      	negs	r4, r0
   2b2d4:	2203      	movs	r2, #3
   2b2d6:	4014      	ands	r4, r2
   2b2d8:	1903      	adds	r3, r0, r4
   2b2da:	4298      	cmp	r0, r3
   2b2dc:	d218      	bcs.n	2b310 <__aeabi_memclr+0x46>
   2b2de:	1e65      	subs	r5, r4, #1
   2b2e0:	2c00      	cmp	r4, #0
   2b2e2:	d00b      	beq.n	2b2fc <__aeabi_memclr+0x32>
   2b2e4:	2600      	movs	r6, #0
   2b2e6:	7006      	strb	r6, [r0, #0]
   2b2e8:	2c01      	cmp	r4, #1
   2b2ea:	d103      	bne.n	2b2f4 <__aeabi_memclr+0x2a>
   2b2ec:	1c40      	adds	r0, r0, #1
   2b2ee:	2d03      	cmp	r5, #3
   2b2f0:	d206      	bcs.n	2b300 <__aeabi_memclr+0x36>
   2b2f2:	e00d      	b.n	2b310 <__aeabi_memclr+0x46>
   2b2f4:	7046      	strb	r6, [r0, #1]
   2b2f6:	2c02      	cmp	r4, #2
   2b2f8:	d142      	bne.n	2b380 <__aeabi_memclr+0xb6>
   2b2fa:	1c80      	adds	r0, r0, #2
   2b2fc:	2d03      	cmp	r5, #3
   2b2fe:	d307      	bcc.n	2b310 <__aeabi_memclr+0x46>
   2b300:	2500      	movs	r5, #0
   2b302:	70c5      	strb	r5, [r0, #3]
   2b304:	7085      	strb	r5, [r0, #2]
   2b306:	7045      	strb	r5, [r0, #1]
   2b308:	7005      	strb	r5, [r0, #0]
   2b30a:	1d00      	adds	r0, r0, #4
   2b30c:	4298      	cmp	r0, r3
   2b30e:	d1f7      	bne.n	2b300 <__aeabi_memclr+0x36>
   2b310:	1b09      	subs	r1, r1, r4
   2b312:	4608      	mov	r0, r1
   2b314:	4390      	bics	r0, r2
   2b316:	1818      	adds	r0, r3, r0
   2b318:	4283      	cmp	r3, r0
   2b31a:	d20c      	bcs.n	2b336 <__aeabi_memclr+0x6c>
   2b31c:	2400      	movs	r4, #0
   2b31e:	c310      	stmia	r3!, {r4}
   2b320:	4283      	cmp	r3, r0
   2b322:	d208      	bcs.n	2b336 <__aeabi_memclr+0x6c>
   2b324:	c310      	stmia	r3!, {r4}
   2b326:	4283      	cmp	r3, r0
   2b328:	d205      	bcs.n	2b336 <__aeabi_memclr+0x6c>
   2b32a:	c310      	stmia	r3!, {r4}
   2b32c:	4283      	cmp	r3, r0
   2b32e:	d202      	bcs.n	2b336 <__aeabi_memclr+0x6c>
   2b330:	c310      	stmia	r3!, {r4}
   2b332:	4283      	cmp	r3, r0
   2b334:	d3f2      	bcc.n	2b31c <__aeabi_memclr+0x52>
   2b336:	4011      	ands	r1, r2
   2b338:	1842      	adds	r2, r0, r1
   2b33a:	4290      	cmp	r0, r2
   2b33c:	d21a      	bcs.n	2b374 <__aeabi_memclr+0xaa>
   2b33e:	2303      	movs	r3, #3
   2b340:	400b      	ands	r3, r1
   2b342:	1e49      	subs	r1, r1, #1
   2b344:	2b00      	cmp	r3, #0
   2b346:	d00b      	beq.n	2b360 <__aeabi_memclr+0x96>
   2b348:	2400      	movs	r4, #0
   2b34a:	7004      	strb	r4, [r0, #0]
   2b34c:	2b01      	cmp	r3, #1
   2b34e:	d103      	bne.n	2b358 <__aeabi_memclr+0x8e>
   2b350:	1c40      	adds	r0, r0, #1
   2b352:	2903      	cmp	r1, #3
   2b354:	d206      	bcs.n	2b364 <__aeabi_memclr+0x9a>
   2b356:	e00d      	b.n	2b374 <__aeabi_memclr+0xaa>
   2b358:	7044      	strb	r4, [r0, #1]
   2b35a:	2b02      	cmp	r3, #2
   2b35c:	d10b      	bne.n	2b376 <__aeabi_memclr+0xac>
   2b35e:	1c80      	adds	r0, r0, #2
   2b360:	2903      	cmp	r1, #3
   2b362:	d307      	bcc.n	2b374 <__aeabi_memclr+0xaa>
   2b364:	2100      	movs	r1, #0
   2b366:	70c1      	strb	r1, [r0, #3]
   2b368:	7081      	strb	r1, [r0, #2]
   2b36a:	7041      	strb	r1, [r0, #1]
   2b36c:	7001      	strb	r1, [r0, #0]
   2b36e:	1d00      	adds	r0, r0, #4
   2b370:	4290      	cmp	r0, r2
   2b372:	d1f7      	bne.n	2b364 <__aeabi_memclr+0x9a>
   2b374:	bdf0      	pop	{r4, r5, r6, r7, pc}
   2b376:	7084      	strb	r4, [r0, #2]
   2b378:	1cc0      	adds	r0, r0, #3
   2b37a:	2903      	cmp	r1, #3
   2b37c:	d2f2      	bcs.n	2b364 <__aeabi_memclr+0x9a>
   2b37e:	e7f9      	b.n	2b374 <__aeabi_memclr+0xaa>
   2b380:	7086      	strb	r6, [r0, #2]
   2b382:	1cc0      	adds	r0, r0, #3
   2b384:	2d03      	cmp	r5, #3
   2b386:	d2bb      	bcs.n	2b300 <__aeabi_memclr+0x36>
   2b388:	e7c2      	b.n	2b310 <__aeabi_memclr+0x46>

0002b38a <__aeabi_memcpy4>:
   2b38a:	b5f0      	push	{r4, r5, r6, r7, lr}
   2b38c:	af03      	add	r7, sp, #12
   2b38e:	b081      	sub	sp, #4
   2b390:	2a04      	cmp	r2, #4
   2b392:	d32d      	bcc.n	2b3f0 <__aeabi_memcpy4+0x66>
   2b394:	1f13      	subs	r3, r2, #4
   2b396:	250c      	movs	r5, #12
   2b398:	401d      	ands	r5, r3
   2b39a:	2d0c      	cmp	r5, #12
   2b39c:	d019      	beq.n	2b3d2 <__aeabi_memcpy4+0x48>
   2b39e:	9200      	str	r2, [sp, #0]
   2b3a0:	460e      	mov	r6, r1
   2b3a2:	c904      	ldmia	r1!, {r2}
   2b3a4:	4604      	mov	r4, r0
   2b3a6:	c004      	stmia	r0!, {r2}
   2b3a8:	071a      	lsls	r2, r3, #28
   2b3aa:	0f92      	lsrs	r2, r2, #30
   2b3ac:	461a      	mov	r2, r3
   2b3ae:	d010      	beq.n	2b3d2 <__aeabi_memcpy4+0x48>
   2b3b0:	4631      	mov	r1, r6
   2b3b2:	6872      	ldr	r2, [r6, #4]
   2b3b4:	6062      	str	r2, [r4, #4]
   2b3b6:	2d04      	cmp	r5, #4
   2b3b8:	d104      	bne.n	2b3c4 <__aeabi_memcpy4+0x3a>
   2b3ba:	9a00      	ldr	r2, [sp, #0]
   2b3bc:	3a08      	subs	r2, #8
   2b3be:	3108      	adds	r1, #8
   2b3c0:	3408      	adds	r4, #8
   2b3c2:	e005      	b.n	2b3d0 <__aeabi_memcpy4+0x46>
   2b3c4:	688a      	ldr	r2, [r1, #8]
   2b3c6:	60a2      	str	r2, [r4, #8]
   2b3c8:	9a00      	ldr	r2, [sp, #0]
   2b3ca:	3a0c      	subs	r2, #12
   2b3cc:	310c      	adds	r1, #12
   2b3ce:	340c      	adds	r4, #12
   2b3d0:	4620      	mov	r0, r4
   2b3d2:	2b0c      	cmp	r3, #12
   2b3d4:	d30c      	bcc.n	2b3f0 <__aeabi_memcpy4+0x66>
   2b3d6:	680b      	ldr	r3, [r1, #0]
   2b3d8:	6003      	str	r3, [r0, #0]
   2b3da:	684b      	ldr	r3, [r1, #4]
   2b3dc:	6043      	str	r3, [r0, #4]
   2b3de:	688b      	ldr	r3, [r1, #8]
   2b3e0:	6083      	str	r3, [r0, #8]
   2b3e2:	68cb      	ldr	r3, [r1, #12]
   2b3e4:	60c3      	str	r3, [r0, #12]
   2b3e6:	3110      	adds	r1, #16
   2b3e8:	3010      	adds	r0, #16
   2b3ea:	3a10      	subs	r2, #16
   2b3ec:	2a03      	cmp	r2, #3
   2b3ee:	d8f2      	bhi.n	2b3d6 <__aeabi_memcpy4+0x4c>
   2b3f0:	f000 f802 	bl	2b3f8 <_ZN17compiler_builtins3mem6memcpy17h1f9dbb1c3fd18e2fE>
   2b3f4:	b001      	add	sp, #4
   2b3f6:	bdf0      	pop	{r4, r5, r6, r7, pc}

0002b3f8 <_ZN17compiler_builtins3mem6memcpy17h1f9dbb1c3fd18e2fE>:
   2b3f8:	b5f0      	push	{r4, r5, r6, r7, lr}
   2b3fa:	af03      	add	r7, sp, #12
   2b3fc:	b08f      	sub	sp, #60	@ 0x3c
   2b3fe:	2a10      	cmp	r2, #16
   2b400:	d315      	bcc.n	2b42e <_ZN17compiler_builtins3mem6memcpy17h1f9dbb1c3fd18e2fE+0x36>
   2b402:	920b      	str	r2, [sp, #44]	@ 0x2c
   2b404:	4242      	negs	r2, r0
   2b406:	2303      	movs	r3, #3
   2b408:	9308      	str	r3, [sp, #32]
   2b40a:	401a      	ands	r2, r3
   2b40c:	1885      	adds	r5, r0, r2
   2b40e:	900a      	str	r0, [sp, #40]	@ 0x28
   2b410:	42a8      	cmp	r0, r5
   2b412:	d22a      	bcs.n	2b46a <_ZN17compiler_builtins3mem6memcpy17h1f9dbb1c3fd18e2fE+0x72>
   2b414:	1e54      	subs	r4, r2, #1
   2b416:	2a00      	cmp	r2, #0
   2b418:	980a      	ldr	r0, [sp, #40]	@ 0x28
   2b41a:	4606      	mov	r6, r0
   2b41c:	460b      	mov	r3, r1
   2b41e:	d016      	beq.n	2b44e <_ZN17compiler_builtins3mem6memcpy17h1f9dbb1c3fd18e2fE+0x56>
   2b420:	780b      	ldrb	r3, [r1, #0]
   2b422:	7003      	strb	r3, [r0, #0]
   2b424:	2a01      	cmp	r2, #1
   2b426:	d107      	bne.n	2b438 <_ZN17compiler_builtins3mem6memcpy17h1f9dbb1c3fd18e2fE+0x40>
   2b428:	1c4b      	adds	r3, r1, #1
   2b42a:	1c46      	adds	r6, r0, #1
   2b42c:	e00f      	b.n	2b44e <_ZN17compiler_builtins3mem6memcpy17h1f9dbb1c3fd18e2fE+0x56>
   2b42e:	4603      	mov	r3, r0
   2b430:	189c      	adds	r4, r3, r2
   2b432:	42a3      	cmp	r3, r4
   2b434:	d341      	bcc.n	2b4ba <_ZN17compiler_builtins3mem6memcpy17h1f9dbb1c3fd18e2fE+0xc2>
   2b436:	e062      	b.n	2b4fe <_ZN17compiler_builtins3mem6memcpy17h1f9dbb1c3fd18e2fE+0x106>
   2b438:	784b      	ldrb	r3, [r1, #1]
   2b43a:	7043      	strb	r3, [r0, #1]
   2b43c:	2a02      	cmp	r2, #2
   2b43e:	d102      	bne.n	2b446 <_ZN17compiler_builtins3mem6memcpy17h1f9dbb1c3fd18e2fE+0x4e>
   2b440:	1c8b      	adds	r3, r1, #2
   2b442:	1c86      	adds	r6, r0, #2
   2b444:	e003      	b.n	2b44e <_ZN17compiler_builtins3mem6memcpy17h1f9dbb1c3fd18e2fE+0x56>
   2b446:	788b      	ldrb	r3, [r1, #2]
   2b448:	7083      	strb	r3, [r0, #2]
   2b44a:	1ccb      	adds	r3, r1, #3
   2b44c:	1cc6      	adds	r6, r0, #3
   2b44e:	2c03      	cmp	r4, #3
   2b450:	d30b      	bcc.n	2b46a <_ZN17compiler_builtins3mem6memcpy17h1f9dbb1c3fd18e2fE+0x72>
   2b452:	781c      	ldrb	r4, [r3, #0]
   2b454:	7034      	strb	r4, [r6, #0]
   2b456:	785c      	ldrb	r4, [r3, #1]
   2b458:	7074      	strb	r4, [r6, #1]
   2b45a:	789c      	ldrb	r4, [r3, #2]
   2b45c:	70b4      	strb	r4, [r6, #2]
   2b45e:	78dc      	ldrb	r4, [r3, #3]
   2b460:	70f4      	strb	r4, [r6, #3]
   2b462:	1d1b      	adds	r3, r3, #4
   2b464:	1d36      	adds	r6, r6, #4
   2b466:	42ae      	cmp	r6, r5
   2b468:	d1f3      	bne.n	2b452 <_ZN17compiler_builtins3mem6memcpy17h1f9dbb1c3fd18e2fE+0x5a>
   2b46a:	980b      	ldr	r0, [sp, #44]	@ 0x2c
   2b46c:	1a80      	subs	r0, r0, r2
   2b46e:	900b      	str	r0, [sp, #44]	@ 0x2c
   2b470:	9c08      	ldr	r4, [sp, #32]
   2b472:	43a0      	bics	r0, r4
   2b474:	182b      	adds	r3, r5, r0
   2b476:	188e      	adds	r6, r1, r2
   2b478:	9609      	str	r6, [sp, #36]	@ 0x24
   2b47a:	4026      	ands	r6, r4
   2b47c:	9007      	str	r0, [sp, #28]
   2b47e:	d147      	bne.n	2b510 <_ZN17compiler_builtins3mem6memcpy17h1f9dbb1c3fd18e2fE+0x118>
   2b480:	429d      	cmp	r5, r3
   2b482:	9a0b      	ldr	r2, [sp, #44]	@ 0x2c
   2b484:	9e09      	ldr	r6, [sp, #36]	@ 0x24
   2b486:	d211      	bcs.n	2b4ac <_ZN17compiler_builtins3mem6memcpy17h1f9dbb1c3fd18e2fE+0xb4>
   2b488:	4631      	mov	r1, r6
   2b48a:	6808      	ldr	r0, [r1, #0]
   2b48c:	c501      	stmia	r5!, {r0}
   2b48e:	429d      	cmp	r5, r3
   2b490:	d20c      	bcs.n	2b4ac <_ZN17compiler_builtins3mem6memcpy17h1f9dbb1c3fd18e2fE+0xb4>
   2b492:	6848      	ldr	r0, [r1, #4]
   2b494:	c501      	stmia	r5!, {r0}
   2b496:	429d      	cmp	r5, r3
   2b498:	d208      	bcs.n	2b4ac <_ZN17compiler_builtins3mem6memcpy17h1f9dbb1c3fd18e2fE+0xb4>
   2b49a:	6888      	ldr	r0, [r1, #8]
   2b49c:	c501      	stmia	r5!, {r0}
   2b49e:	429d      	cmp	r5, r3
   2b4a0:	d204      	bcs.n	2b4ac <_ZN17compiler_builtins3mem6memcpy17h1f9dbb1c3fd18e2fE+0xb4>
   2b4a2:	68c8      	ldr	r0, [r1, #12]
   2b4a4:	c501      	stmia	r5!, {r0}
   2b4a6:	3110      	adds	r1, #16
   2b4a8:	429d      	cmp	r5, r3
   2b4aa:	d3ee      	bcc.n	2b48a <_ZN17compiler_builtins3mem6memcpy17h1f9dbb1c3fd18e2fE+0x92>
   2b4ac:	4022      	ands	r2, r4
   2b4ae:	9807      	ldr	r0, [sp, #28]
   2b4b0:	1831      	adds	r1, r6, r0
   2b4b2:	980a      	ldr	r0, [sp, #40]	@ 0x28
   2b4b4:	189c      	adds	r4, r3, r2
   2b4b6:	42a3      	cmp	r3, r4
   2b4b8:	d221      	bcs.n	2b4fe <_ZN17compiler_builtins3mem6memcpy17h1f9dbb1c3fd18e2fE+0x106>
   2b4ba:	2503      	movs	r5, #3
   2b4bc:	4015      	ands	r5, r2
   2b4be:	1e52      	subs	r2, r2, #1
   2b4c0:	2d00      	cmp	r5, #0
   2b4c2:	d00e      	beq.n	2b4e2 <_ZN17compiler_builtins3mem6memcpy17h1f9dbb1c3fd18e2fE+0xea>
   2b4c4:	780e      	ldrb	r6, [r1, #0]
   2b4c6:	701e      	strb	r6, [r3, #0]
   2b4c8:	2d01      	cmp	r5, #1
   2b4ca:	d104      	bne.n	2b4d6 <_ZN17compiler_builtins3mem6memcpy17h1f9dbb1c3fd18e2fE+0xde>
   2b4cc:	1c49      	adds	r1, r1, #1
   2b4ce:	1c5b      	adds	r3, r3, #1
   2b4d0:	2a03      	cmp	r2, #3
   2b4d2:	d208      	bcs.n	2b4e6 <_ZN17compiler_builtins3mem6memcpy17h1f9dbb1c3fd18e2fE+0xee>
   2b4d4:	e013      	b.n	2b4fe <_ZN17compiler_builtins3mem6memcpy17h1f9dbb1c3fd18e2fE+0x106>
   2b4d6:	784e      	ldrb	r6, [r1, #1]
   2b4d8:	705e      	strb	r6, [r3, #1]
   2b4da:	2d02      	cmp	r5, #2
   2b4dc:	d111      	bne.n	2b502 <_ZN17compiler_builtins3mem6memcpy17h1f9dbb1c3fd18e2fE+0x10a>
   2b4de:	1c89      	adds	r1, r1, #2
   2b4e0:	1c9b      	adds	r3, r3, #2
   2b4e2:	2a03      	cmp	r2, #3
   2b4e4:	d30b      	bcc.n	2b4fe <_ZN17compiler_builtins3mem6memcpy17h1f9dbb1c3fd18e2fE+0x106>
   2b4e6:	780a      	ldrb	r2, [r1, #0]
   2b4e8:	701a      	strb	r2, [r3, #0]
   2b4ea:	784a      	ldrb	r2, [r1, #1]
   2b4ec:	705a      	strb	r2, [r3, #1]
   2b4ee:	788a      	ldrb	r2, [r1, #2]
   2b4f0:	709a      	strb	r2, [r3, #2]
   2b4f2:	78ca      	ldrb	r2, [r1, #3]
   2b4f4:	70da      	strb	r2, [r3, #3]
   2b4f6:	1d09      	adds	r1, r1, #4
   2b4f8:	1d1b      	adds	r3, r3, #4
   2b4fa:	42a3      	cmp	r3, r4
   2b4fc:	d1f3      	bne.n	2b4e6 <_ZN17compiler_builtins3mem6memcpy17h1f9dbb1c3fd18e2fE+0xee>
   2b4fe:	b00f      	add	sp, #60	@ 0x3c
   2b500:	bdf0      	pop	{r4, r5, r6, r7, pc}
   2b502:	788d      	ldrb	r5, [r1, #2]
   2b504:	709d      	strb	r5, [r3, #2]
   2b506:	1cc9      	adds	r1, r1, #3
   2b508:	1cdb      	adds	r3, r3, #3
   2b50a:	2a03      	cmp	r2, #3
   2b50c:	d2eb      	bcs.n	2b4e6 <_ZN17compiler_builtins3mem6memcpy17h1f9dbb1c3fd18e2fE+0xee>
   2b50e:	e7f6      	b.n	2b4fe <_ZN17compiler_builtins3mem6memcpy17h1f9dbb1c3fd18e2fE+0x106>
   2b510:	2400      	movs	r4, #0
   2b512:	9406      	str	r4, [sp, #24]
   2b514:	940e      	str	r4, [sp, #56]	@ 0x38
   2b516:	ac0e      	add	r4, sp, #56	@ 0x38
   2b518:	19a4      	adds	r4, r4, r6
   2b51a:	9405      	str	r4, [sp, #20]
   2b51c:	2404      	movs	r4, #4
   2b51e:	1ba4      	subs	r4, r4, r6
   2b520:	9404      	str	r4, [sp, #16]
   2b522:	07e4      	lsls	r4, r4, #31
   2b524:	9600      	str	r6, [sp, #0]
   2b526:	d006      	beq.n	2b536 <_ZN17compiler_builtins3mem6memcpy17h1f9dbb1c3fd18e2fE+0x13e>
   2b528:	9c09      	ldr	r4, [sp, #36]	@ 0x24
   2b52a:	7824      	ldrb	r4, [r4, #0]
   2b52c:	9e05      	ldr	r6, [sp, #20]
   2b52e:	7034      	strb	r4, [r6, #0]
   2b530:	9e00      	ldr	r6, [sp, #0]
   2b532:	2401      	movs	r4, #1
   2b534:	9406      	str	r4, [sp, #24]
   2b536:	9c04      	ldr	r4, [sp, #16]
   2b538:	07a4      	lsls	r4, r4, #30
   2b53a:	d508      	bpl.n	2b54e <_ZN17compiler_builtins3mem6memcpy17h1f9dbb1c3fd18e2fE+0x156>
   2b53c:	9c09      	ldr	r4, [sp, #36]	@ 0x24
   2b53e:	9204      	str	r2, [sp, #16]
   2b540:	9a06      	ldr	r2, [sp, #24]
   2b542:	5aa4      	ldrh	r4, [r4, r2]
   2b544:	9e05      	ldr	r6, [sp, #20]
   2b546:	9a06      	ldr	r2, [sp, #24]
   2b548:	52b4      	strh	r4, [r6, r2]
   2b54a:	9a04      	ldr	r2, [sp, #16]
   2b54c:	9e00      	ldr	r6, [sp, #0]
   2b54e:	00f4      	lsls	r4, r6, #3
   2b550:	9403      	str	r4, [sp, #12]
   2b552:	9c0e      	ldr	r4, [sp, #56]	@ 0x38
   2b554:	9406      	str	r4, [sp, #24]
   2b556:	1d2c      	adds	r4, r5, #4
   2b558:	429c      	cmp	r4, r3
   2b55a:	d236      	bcs.n	2b5ca <_ZN17compiler_builtins3mem6memcpy17h1f9dbb1c3fd18e2fE+0x1d2>
   2b55c:	4274      	negs	r4, r6
   2b55e:	1909      	adds	r1, r1, r4
   2b560:	9105      	str	r1, [sp, #20]
   2b562:	9d03      	ldr	r5, [sp, #12]
   2b564:	4269      	negs	r1, r5
   2b566:	2418      	movs	r4, #24
   2b568:	400c      	ands	r4, r1
   2b56a:	9402      	str	r4, [sp, #8]
   2b56c:	990a      	ldr	r1, [sp, #40]	@ 0x28
   2b56e:	9104      	str	r1, [sp, #16]
   2b570:	4629      	mov	r1, r5
   2b572:	9c06      	ldr	r4, [sp, #24]
   2b574:	40cc      	lsrs	r4, r1
   2b576:	9406      	str	r4, [sp, #24]
   2b578:	9905      	ldr	r1, [sp, #20]
   2b57a:	1889      	adds	r1, r1, r2
   2b57c:	9101      	str	r1, [sp, #4]
   2b57e:	6849      	ldr	r1, [r1, #4]
   2b580:	460c      	mov	r4, r1
   2b582:	9d02      	ldr	r5, [sp, #8]
   2b584:	40ac      	lsls	r4, r5
   2b586:	9d06      	ldr	r5, [sp, #24]
   2b588:	432c      	orrs	r4, r5
   2b58a:	9d04      	ldr	r5, [sp, #16]
   2b58c:	50ac      	str	r4, [r5, r2]
   2b58e:	18ad      	adds	r5, r5, r2
   2b590:	462c      	mov	r4, r5
   2b592:	3408      	adds	r4, #8
   2b594:	429c      	cmp	r4, r3
   2b596:	d21c      	bcs.n	2b5d2 <_ZN17compiler_builtins3mem6memcpy17h1f9dbb1c3fd18e2fE+0x1da>
   2b598:	9c03      	ldr	r4, [sp, #12]
   2b59a:	40e1      	lsrs	r1, r4
   2b59c:	9c01      	ldr	r4, [sp, #4]
   2b59e:	68a4      	ldr	r4, [r4, #8]
   2b5a0:	9406      	str	r4, [sp, #24]
   2b5a2:	9501      	str	r5, [sp, #4]
   2b5a4:	9d02      	ldr	r5, [sp, #8]
   2b5a6:	40ac      	lsls	r4, r5
   2b5a8:	430c      	orrs	r4, r1
   2b5aa:	9901      	ldr	r1, [sp, #4]
   2b5ac:	604c      	str	r4, [r1, #4]
   2b5ae:	9904      	ldr	r1, [sp, #16]
   2b5b0:	3108      	adds	r1, #8
   2b5b2:	9104      	str	r1, [sp, #16]
   2b5b4:	188d      	adds	r5, r1, r2
   2b5b6:	1d29      	adds	r1, r5, #4
   2b5b8:	9c05      	ldr	r4, [sp, #20]
   2b5ba:	3408      	adds	r4, #8
   2b5bc:	9405      	str	r4, [sp, #20]
   2b5be:	4299      	cmp	r1, r3
   2b5c0:	9903      	ldr	r1, [sp, #12]
   2b5c2:	d3d6      	bcc.n	2b572 <_ZN17compiler_builtins3mem6memcpy17h1f9dbb1c3fd18e2fE+0x17a>
   2b5c4:	9805      	ldr	r0, [sp, #20]
   2b5c6:	1880      	adds	r0, r0, r2
   2b5c8:	e001      	b.n	2b5ce <_ZN17compiler_builtins3mem6memcpy17h1f9dbb1c3fd18e2fE+0x1d6>
   2b5ca:	9809      	ldr	r0, [sp, #36]	@ 0x24
   2b5cc:	1b80      	subs	r0, r0, r6
   2b5ce:	9005      	str	r0, [sp, #20]
   2b5d0:	e004      	b.n	2b5dc <_ZN17compiler_builtins3mem6memcpy17h1f9dbb1c3fd18e2fE+0x1e4>
   2b5d2:	9801      	ldr	r0, [sp, #4]
   2b5d4:	1d00      	adds	r0, r0, #4
   2b5d6:	9005      	str	r0, [sp, #20]
   2b5d8:	1d2d      	adds	r5, r5, #4
   2b5da:	9106      	str	r1, [sp, #24]
   2b5dc:	a80d      	add	r0, sp, #52	@ 0x34
   2b5de:	2100      	movs	r1, #0
   2b5e0:	9004      	str	r0, [sp, #16]
   2b5e2:	7001      	strb	r1, [r0, #0]
   2b5e4:	a80c      	add	r0, sp, #48	@ 0x30
   2b5e6:	7001      	strb	r1, [r0, #0]
   2b5e8:	2e01      	cmp	r6, #1
   2b5ea:	460e      	mov	r6, r1
   2b5ec:	460c      	mov	r4, r1
   2b5ee:	9102      	str	r1, [sp, #8]
   2b5f0:	9a0b      	ldr	r2, [sp, #44]	@ 0x2c
   2b5f2:	d009      	beq.n	2b608 <_ZN17compiler_builtins3mem6memcpy17h1f9dbb1c3fd18e2fE+0x210>
   2b5f4:	9c05      	ldr	r4, [sp, #20]
   2b5f6:	7960      	ldrb	r0, [r4, #5]
   2b5f8:	7926      	ldrb	r6, [r4, #4]
   2b5fa:	ac0d      	add	r4, sp, #52	@ 0x34
   2b5fc:	7026      	strb	r6, [r4, #0]
   2b5fe:	0204      	lsls	r4, r0, #8
   2b600:	2002      	movs	r0, #2
   2b602:	9002      	str	r0, [sp, #8]
   2b604:	a80c      	add	r0, sp, #48	@ 0x30
   2b606:	9004      	str	r0, [sp, #16]
   2b608:	9809      	ldr	r0, [sp, #36]	@ 0x24
   2b60a:	07c0      	lsls	r0, r0, #31
   2b60c:	d00a      	beq.n	2b624 <_ZN17compiler_builtins3mem6memcpy17h1f9dbb1c3fd18e2fE+0x22c>
   2b60e:	9805      	ldr	r0, [sp, #20]
   2b610:	1d00      	adds	r0, r0, #4
   2b612:	9902      	ldr	r1, [sp, #8]
   2b614:	5c40      	ldrb	r0, [r0, r1]
   2b616:	9904      	ldr	r1, [sp, #16]
   2b618:	7008      	strb	r0, [r1, #0]
   2b61a:	a80d      	add	r0, sp, #52	@ 0x34
   2b61c:	7806      	ldrb	r6, [r0, #0]
   2b61e:	a80c      	add	r0, sp, #48	@ 0x30
   2b620:	7800      	ldrb	r0, [r0, #0]
   2b622:	0401      	lsls	r1, r0, #16
   2b624:	9605      	str	r6, [sp, #20]
   2b626:	9803      	ldr	r0, [sp, #12]
   2b628:	4240      	negs	r0, r0
   2b62a:	9004      	str	r0, [sp, #16]
   2b62c:	2618      	movs	r6, #24
   2b62e:	9804      	ldr	r0, [sp, #16]
   2b630:	4006      	ands	r6, r0
   2b632:	430c      	orrs	r4, r1
   2b634:	9905      	ldr	r1, [sp, #20]
   2b636:	430c      	orrs	r4, r1
   2b638:	40b4      	lsls	r4, r6
   2b63a:	9906      	ldr	r1, [sp, #24]
   2b63c:	9803      	ldr	r0, [sp, #12]
   2b63e:	40c1      	lsrs	r1, r0
   2b640:	4321      	orrs	r1, r4
   2b642:	6029      	str	r1, [r5, #0]
   2b644:	9c08      	ldr	r4, [sp, #32]
   2b646:	9e09      	ldr	r6, [sp, #36]	@ 0x24
   2b648:	e730      	b.n	2b4ac <_ZN17compiler_builtins3mem6memcpy17h1f9dbb1c3fd18e2fE+0xb4>

0002b64a <__aeabi_memcpy>:
   2b64a:	b580      	push	{r7, lr}
   2b64c:	af00      	add	r7, sp, #0
   2b64e:	f7ff fed3 	bl	2b3f8 <_ZN17compiler_builtins3mem6memcpy17h1f9dbb1c3fd18e2fE>
   2b652:	bd80      	pop	{r7, pc}
