
target/riscv32imc-unknown-none-elf/opt-3/examples/complex_dynamic_type:     file format elf32-littleriscv

Sections:
Idx Name          Size      VMA       LMA       File off  Algn
  0 .eh_frame     00000060  000100d4  000100d4  000000d4  2**2
                  CONTENTS, ALLOC, LOAD, READONLY, DATA
  1 .text         0000d586  00011134  00011134  00000134  2**1
                  CONTENTS, ALLOC, LOAD, READONLY, CODE
  2 .comment      00000099  00000000  00000000  0000d6ba  2**0
                  CONTENTS, READONLY
  3 .riscv.attributes 0000002f  00000000  00000000  0000d753  2**0
                  CONTENTS, READONLY

Disassembly of section .text:

00011134 <_ZN20complex_dynamic_type3app17h019e5089ef3bcfedE>:
   11134:	7119                	addi	sp,sp,-128
   11136:	de86                	sw	ra,124(sp)
   11138:	dca2                	sw	s0,120(sp)
   1113a:	daa6                	sw	s1,116(sp)
   1113c:	d8ca                	sw	s2,112(sp)
   1113e:	d6ce                	sw	s3,108(sp)
   11140:	d4d2                	sw	s4,104(sp)
   11142:	d2d6                	sw	s5,100(sp)
   11144:	8aaa                	mv	s5,a0
   11146:	4409                	li	s0,2
   11148:	008106a3          	sb	s0,13(sp)
   1114c:	00e10493          	addi	s1,sp,14
   11150:	463d                	li	a2,15
   11152:	8526                	mv	a0,s1
   11154:	0000d097          	auipc	ra,0xd
   11158:	3c0080e7          	jalr	960(ra) # 1e514 <memcpy>
   1115c:	01e10a13          	addi	s4,sp,30
   11160:	04600613          	li	a2,70
   11164:	8552                	mv	a0,s4
   11166:	4581                	li	a1,0
   11168:	0000d097          	auipc	ra,0xd
   1116c:	340080e7          	jalr	832(ra) # 1e4a8 <memset>
   11170:	8626                	mv	a2,s1
   11172:	00810ea3          	sb	s0,29(sp)
   11176:	6509                	lui	a0,0x2
   11178:	4491                	li	s1,4
   1117a:	45a5                	li	a1,9
   1117c:	d7e50793          	addi	a5,a0,-642 # 1d7e <.Lline_table_start1+0x1b53>
   11180:	46bd                	li	a3,15
   11182:	4711                	li	a4,4
   11184:	853e                	mv	a0,a5
   11186:	00000073          	ecall
   1118a:	00851863          	bne	a0,s0,1119a <_ZN20complex_dynamic_type3app17h019e5089ef3bcfedE+0x66>
   1118e:	4505                	li	a0,1
   11190:	00aa8023          	sb	a0,0(s5)
   11194:	00baa223          	sw	a1,4(s5)
   11198:	a0bd                	j	11206 <_ZN20complex_dynamic_type3app17h019e5089ef3bcfedE+0xd2>
   1119a:	853e                	mv	a0,a5
   1119c:	8652                	mv	a2,s4
   1119e:	009106a3          	sb	s1,13(sp)
   111a2:	478d                	li	a5,3
   111a4:	4589                	li	a1,2
   111a6:	04600693          	li	a3,70
   111aa:	470d                	li	a4,3
   111ac:	00000073          	ecall
   111b0:	00851d63          	bne	a0,s0,111ca <_ZN20complex_dynamic_type3app17h019e5089ef3bcfedE+0x96>
   111b4:	01d14703          	lbu	a4,29(sp)
   111b8:	4505                	li	a0,1
   111ba:	4609                	li	a2,2
   111bc:	00aa8023          	sb	a0,0(s5)
   111c0:	00baa223          	sw	a1,4(s5)
   111c4:	02c71963          	bne	a4,a2,111f6 <_ZN20complex_dynamic_type3app17h019e5089ef3bcfedE+0xc2>
   111c8:	a83d                	j	11206 <_ZN20complex_dynamic_type3app17h019e5089ef3bcfedE+0xd2>
   111ca:	4681                	li	a3,0
   111cc:	00f10ea3          	sb	a5,29(sp)
   111d0:	6509                	lui	a0,0x2
   111d2:	45a5                	li	a1,9
   111d4:	4609                	li	a2,2
   111d6:	4709                	li	a4,2
   111d8:	d7e50513          	addi	a0,a0,-642 # 1d7e <.Lline_table_start1+0x1b53>
   111dc:	08000793          	li	a5,128
   111e0:	00000073          	ecall
   111e4:	4609                	li	a2,2
   111e6:	04f57663          	bgeu	a0,a5,11232 <_ZN20complex_dynamic_type3app17h019e5089ef3bcfedE+0xfe>
   111ea:	4505                	li	a0,1
   111ec:	00aa8023          	sb	a0,0(s5)
   111f0:	00baa223          	sw	a1,4(s5)
   111f4:	470d                	li	a4,3
   111f6:	6509                	lui	a0,0x2
   111f8:	d7e50513          	addi	a0,a0,-642 # 1d7e <.Lline_table_start1+0x1b53>
   111fc:	4589                	li	a1,2
   111fe:	4601                	li	a2,0
   11200:	4681                	li	a3,0
   11202:	00000073          	ecall
   11206:	00d14703          	lbu	a4,13(sp)
   1120a:	4509                	li	a0,2
   1120c:	00a70a63          	beq	a4,a0,11220 <_ZN20complex_dynamic_type3app17h019e5089ef3bcfedE+0xec>
   11210:	6509                	lui	a0,0x2
   11212:	d7e50513          	addi	a0,a0,-642 # 1d7e <.Lline_table_start1+0x1b53>
   11216:	45a5                	li	a1,9
   11218:	4601                	li	a2,0
   1121a:	4681                	li	a3,0
   1121c:	00000073          	ecall
   11220:	50f6                	lw	ra,124(sp)
   11222:	5466                	lw	s0,120(sp)
   11224:	54d6                	lw	s1,116(sp)
   11226:	5946                	lw	s2,112(sp)
   11228:	59b6                	lw	s3,108(sp)
   1122a:	5a26                	lw	s4,104(sp)
   1122c:	5a96                	lw	s5,100(sp)
   1122e:	6109                	addi	sp,sp,128
   11230:	8082                	ret
   11232:	00d14703          	lbu	a4,13(sp)
   11236:	00c71463          	bne	a4,a2,1123e <_ZN20complex_dynamic_type3app17h019e5089ef3bcfedE+0x10a>
   1123a:	470d                	li	a4,3
   1123c:	a825                	j	11274 <_ZN20complex_dynamic_type3app17h019e5089ef3bcfedE+0x140>
   1123e:	6509                	lui	a0,0x2
   11240:	d7e50513          	addi	a0,a0,-642 # 1d7e <.Lline_table_start1+0x1b53>
   11244:	45a5                	li	a1,9
   11246:	4601                	li	a2,0
   11248:	4681                	li	a3,0
   1124a:	00000073          	ecall
   1124e:	01d14703          	lbu	a4,29(sp)
   11252:	4509                	li	a0,2
   11254:	00a106a3          	sb	a0,13(sp)
   11258:	00a71e63          	bne	a4,a0,11274 <_ZN20complex_dynamic_type3app17h019e5089ef3bcfedE+0x140>
   1125c:	001a8513          	addi	a0,s5,1
   11260:	04600613          	li	a2,70
   11264:	85d2                	mv	a1,s4
   11266:	0000d097          	auipc	ra,0xd
   1126a:	2ae080e7          	jalr	686(ra) # 1e514 <memcpy>
   1126e:	000a8023          	sb	zero,0(s5)
   11272:	b77d                	j	11220 <_ZN20complex_dynamic_type3app17h019e5089ef3bcfedE+0xec>
   11274:	4601                	li	a2,0
   11276:	4681                	li	a3,0
   11278:	6509                	lui	a0,0x2
   1127a:	d7e50913          	addi	s2,a0,-642 # 1d7e <.Lline_table_start1+0x1b53>
   1127e:	4589                	li	a1,2
   11280:	854a                	mv	a0,s2
   11282:	00000073          	ecall
   11286:	00d14983          	lbu	s3,13(sp)
   1128a:	4409                	li	s0,2
   1128c:	001a8513          	addi	a0,s5,1
   11290:	04600613          	li	a2,70
   11294:	85d2                	mv	a1,s4
   11296:	0000d097          	auipc	ra,0xd
   1129a:	27e080e7          	jalr	638(ra) # 1e514 <memcpy>
   1129e:	000a8023          	sb	zero,0(s5)
   112a2:	f6898fe3          	beq	s3,s0,11220 <_ZN20complex_dynamic_type3app17h019e5089ef3bcfedE+0xec>
   112a6:	45a5                	li	a1,9
   112a8:	854a                	mv	a0,s2
   112aa:	4601                	li	a2,0
   112ac:	4681                	li	a3,0
   112ae:	874e                	mv	a4,s3
   112b0:	00000073          	ecall
   112b4:	b7b5                	j	11220 <_ZN20complex_dynamic_type3app17h019e5089ef3bcfedE+0xec>

000112b6 <_ZN20complex_dynamic_type3app17h0630b7b40d1b4902E>:
   112b6:	711d                	addi	sp,sp,-96
   112b8:	ce86                	sw	ra,92(sp)
   112ba:	cca2                	sw	s0,88(sp)
   112bc:	caa6                	sw	s1,84(sp)
   112be:	c8ca                	sw	s2,80(sp)
   112c0:	c6ce                	sw	s3,76(sp)
   112c2:	c4d2                	sw	s4,72(sp)
   112c4:	c2d6                	sw	s5,68(sp)
   112c6:	8aaa                	mv	s5,a0
   112c8:	4409                	li	s0,2
   112ca:	008102a3          	sb	s0,5(sp)
   112ce:	00610493          	addi	s1,sp,6
   112d2:	02500613          	li	a2,37
   112d6:	8526                	mv	a0,s1
   112d8:	0000d097          	auipc	ra,0xd
   112dc:	23c080e7          	jalr	572(ra) # 1e514 <memcpy>
   112e0:	02c10a13          	addi	s4,sp,44
   112e4:	4661                	li	a2,24
   112e6:	8552                	mv	a0,s4
   112e8:	4581                	li	a1,0
   112ea:	0000d097          	auipc	ra,0xd
   112ee:	1be080e7          	jalr	446(ra) # 1e4a8 <memset>
   112f2:	8626                	mv	a2,s1
   112f4:	028105a3          	sb	s0,43(sp)
   112f8:	6505                	lui	a0,0x1
   112fa:	4491                	li	s1,4
   112fc:	45a5                	li	a1,9
   112fe:	a7050793          	addi	a5,a0,-1424 # a70 <.Lline_table_start1+0x845>
   11302:	02500693          	li	a3,37
   11306:	4711                	li	a4,4
   11308:	853e                	mv	a0,a5
   1130a:	00000073          	ecall
   1130e:	00851863          	bne	a0,s0,1131e <_ZN20complex_dynamic_type3app17h0630b7b40d1b4902E+0x68>
   11312:	4505                	li	a0,1
   11314:	00aa8023          	sb	a0,0(s5)
   11318:	00baa223          	sw	a1,4(s5)
   1131c:	a0b5                	j	11388 <_ZN20complex_dynamic_type3app17h0630b7b40d1b4902E+0xd2>
   1131e:	853e                	mv	a0,a5
   11320:	8652                	mv	a2,s4
   11322:	009102a3          	sb	s1,5(sp)
   11326:	478d                	li	a5,3
   11328:	45a1                	li	a1,8
   1132a:	46e1                	li	a3,24
   1132c:	470d                	li	a4,3
   1132e:	00000073          	ecall
   11332:	00851d63          	bne	a0,s0,1134c <_ZN20complex_dynamic_type3app17h0630b7b40d1b4902E+0x96>
   11336:	02b14703          	lbu	a4,43(sp)
   1133a:	4505                	li	a0,1
   1133c:	4609                	li	a2,2
   1133e:	00aa8023          	sb	a0,0(s5)
   11342:	00baa223          	sw	a1,4(s5)
   11346:	02c71963          	bne	a4,a2,11378 <_ZN20complex_dynamic_type3app17h0630b7b40d1b4902E+0xc2>
   1134a:	a83d                	j	11388 <_ZN20complex_dynamic_type3app17h0630b7b40d1b4902E+0xd2>
   1134c:	4681                	li	a3,0
   1134e:	02f105a3          	sb	a5,43(sp)
   11352:	6505                	lui	a0,0x1
   11354:	45a5                	li	a1,9
   11356:	4621                	li	a2,8
   11358:	4709                	li	a4,2
   1135a:	a7050513          	addi	a0,a0,-1424 # a70 <.Lline_table_start1+0x845>
   1135e:	08000793          	li	a5,128
   11362:	00000073          	ecall
   11366:	4609                	li	a2,2
   11368:	04f57663          	bgeu	a0,a5,113b4 <_ZN20complex_dynamic_type3app17h0630b7b40d1b4902E+0xfe>
   1136c:	4505                	li	a0,1
   1136e:	00aa8023          	sb	a0,0(s5)
   11372:	00baa223          	sw	a1,4(s5)
   11376:	470d                	li	a4,3
   11378:	6505                	lui	a0,0x1
   1137a:	a7050513          	addi	a0,a0,-1424 # a70 <.Lline_table_start1+0x845>
   1137e:	45a1                	li	a1,8
   11380:	4601                	li	a2,0
   11382:	4681                	li	a3,0
   11384:	00000073          	ecall
   11388:	00514703          	lbu	a4,5(sp)
   1138c:	4509                	li	a0,2
   1138e:	00a70a63          	beq	a4,a0,113a2 <_ZN20complex_dynamic_type3app17h0630b7b40d1b4902E+0xec>
   11392:	6505                	lui	a0,0x1
   11394:	a7050513          	addi	a0,a0,-1424 # a70 <.Lline_table_start1+0x845>
   11398:	45a5                	li	a1,9
   1139a:	4601                	li	a2,0
   1139c:	4681                	li	a3,0
   1139e:	00000073          	ecall
   113a2:	40f6                	lw	ra,92(sp)
   113a4:	4466                	lw	s0,88(sp)
   113a6:	44d6                	lw	s1,84(sp)
   113a8:	4946                	lw	s2,80(sp)
   113aa:	49b6                	lw	s3,76(sp)
   113ac:	4a26                	lw	s4,72(sp)
   113ae:	4a96                	lw	s5,68(sp)
   113b0:	6125                	addi	sp,sp,96
   113b2:	8082                	ret
   113b4:	00514703          	lbu	a4,5(sp)
   113b8:	00c71463          	bne	a4,a2,113c0 <_ZN20complex_dynamic_type3app17h0630b7b40d1b4902E+0x10a>
   113bc:	470d                	li	a4,3
   113be:	a81d                	j	113f4 <_ZN20complex_dynamic_type3app17h0630b7b40d1b4902E+0x13e>
   113c0:	6505                	lui	a0,0x1
   113c2:	a7050513          	addi	a0,a0,-1424 # a70 <.Lline_table_start1+0x845>
   113c6:	45a5                	li	a1,9
   113c8:	4601                	li	a2,0
   113ca:	4681                	li	a3,0
   113cc:	00000073          	ecall
   113d0:	02b14703          	lbu	a4,43(sp)
   113d4:	4509                	li	a0,2
   113d6:	00a102a3          	sb	a0,5(sp)
   113da:	00a71d63          	bne	a4,a0,113f4 <_ZN20complex_dynamic_type3app17h0630b7b40d1b4902E+0x13e>
   113de:	001a8513          	addi	a0,s5,1
   113e2:	4661                	li	a2,24
   113e4:	85d2                	mv	a1,s4
   113e6:	0000d097          	auipc	ra,0xd
   113ea:	12e080e7          	jalr	302(ra) # 1e514 <memcpy>
   113ee:	000a8023          	sb	zero,0(s5)
   113f2:	bf45                	j	113a2 <_ZN20complex_dynamic_type3app17h0630b7b40d1b4902E+0xec>
   113f4:	6505                	lui	a0,0x1
   113f6:	a7050913          	addi	s2,a0,-1424 # a70 <.Lline_table_start1+0x845>
   113fa:	45a1                	li	a1,8
   113fc:	854a                	mv	a0,s2
   113fe:	4601                	li	a2,0
   11400:	4681                	li	a3,0
   11402:	00000073          	ecall
   11406:	00514983          	lbu	s3,5(sp)
   1140a:	001a8513          	addi	a0,s5,1
   1140e:	4661                	li	a2,24
   11410:	85d2                	mv	a1,s4
   11412:	0000d097          	auipc	ra,0xd
   11416:	102080e7          	jalr	258(ra) # 1e514 <memcpy>
   1141a:	4509                	li	a0,2
   1141c:	000a8023          	sb	zero,0(s5)
   11420:	f8a981e3          	beq	s3,a0,113a2 <_ZN20complex_dynamic_type3app17h0630b7b40d1b4902E+0xec>
   11424:	45a5                	li	a1,9
   11426:	854a                	mv	a0,s2
   11428:	4601                	li	a2,0
   1142a:	4681                	li	a3,0
   1142c:	874e                	mv	a4,s3
   1142e:	00000073          	ecall
   11432:	bf85                	j	113a2 <_ZN20complex_dynamic_type3app17h0630b7b40d1b4902E+0xec>

00011434 <_ZN20complex_dynamic_type3app17h0656d1ef36d80701E>:
   11434:	7119                	addi	sp,sp,-128
   11436:	de86                	sw	ra,124(sp)
   11438:	dca2                	sw	s0,120(sp)
   1143a:	daa6                	sw	s1,116(sp)
   1143c:	d8ca                	sw	s2,112(sp)
   1143e:	d6ce                	sw	s3,108(sp)
   11440:	d4d2                	sw	s4,104(sp)
   11442:	d2d6                	sw	s5,100(sp)
   11444:	8aaa                	mv	s5,a0
   11446:	4409                	li	s0,2
   11448:	00810023          	sb	s0,0(sp)
   1144c:	00110493          	addi	s1,sp,1
   11450:	03b00613          	li	a2,59
   11454:	8526                	mv	a0,s1
   11456:	0000d097          	auipc	ra,0xd
   1145a:	0be080e7          	jalr	190(ra) # 1e514 <memcpy>
   1145e:	03d10a13          	addi	s4,sp,61
   11462:	02700613          	li	a2,39
   11466:	8552                	mv	a0,s4
   11468:	4581                	li	a1,0
   1146a:	0000d097          	auipc	ra,0xd
   1146e:	03e080e7          	jalr	62(ra) # 1e4a8 <memset>
   11472:	8626                	mv	a2,s1
   11474:	02810e23          	sb	s0,60(sp)
   11478:	6505                	lui	a0,0x1
   1147a:	4491                	li	s1,4
   1147c:	4595                	li	a1,5
   1147e:	bd350793          	addi	a5,a0,-1069 # bd3 <.Lline_table_start1+0x9a8>
   11482:	03b00693          	li	a3,59
   11486:	4711                	li	a4,4
   11488:	853e                	mv	a0,a5
   1148a:	00000073          	ecall
   1148e:	00851863          	bne	a0,s0,1149e <_ZN20complex_dynamic_type3app17h0656d1ef36d80701E+0x6a>
   11492:	4505                	li	a0,1
   11494:	00aa8023          	sb	a0,0(s5)
   11498:	00baa223          	sw	a1,4(s5)
   1149c:	a0bd                	j	1150a <_ZN20complex_dynamic_type3app17h0656d1ef36d80701E+0xd6>
   1149e:	853e                	mv	a0,a5
   114a0:	8652                	mv	a2,s4
   114a2:	00910023          	sb	s1,0(sp)
   114a6:	478d                	li	a5,3
   114a8:	458d                	li	a1,3
   114aa:	02700693          	li	a3,39
   114ae:	470d                	li	a4,3
   114b0:	00000073          	ecall
   114b4:	00851d63          	bne	a0,s0,114ce <_ZN20complex_dynamic_type3app17h0656d1ef36d80701E+0x9a>
   114b8:	03c14703          	lbu	a4,60(sp)
   114bc:	4505                	li	a0,1
   114be:	4609                	li	a2,2
   114c0:	00aa8023          	sb	a0,0(s5)
   114c4:	00baa223          	sw	a1,4(s5)
   114c8:	02c71963          	bne	a4,a2,114fa <_ZN20complex_dynamic_type3app17h0656d1ef36d80701E+0xc6>
   114cc:	a83d                	j	1150a <_ZN20complex_dynamic_type3app17h0656d1ef36d80701E+0xd6>
   114ce:	4681                	li	a3,0
   114d0:	02f10e23          	sb	a5,60(sp)
   114d4:	6505                	lui	a0,0x1
   114d6:	4595                	li	a1,5
   114d8:	460d                	li	a2,3
   114da:	4709                	li	a4,2
   114dc:	bd350513          	addi	a0,a0,-1069 # bd3 <.Lline_table_start1+0x9a8>
   114e0:	08000793          	li	a5,128
   114e4:	00000073          	ecall
   114e8:	4609                	li	a2,2
   114ea:	04f57663          	bgeu	a0,a5,11536 <_ZN20complex_dynamic_type3app17h0656d1ef36d80701E+0x102>
   114ee:	4505                	li	a0,1
   114f0:	00aa8023          	sb	a0,0(s5)
   114f4:	00baa223          	sw	a1,4(s5)
   114f8:	470d                	li	a4,3
   114fa:	6505                	lui	a0,0x1
   114fc:	bd350513          	addi	a0,a0,-1069 # bd3 <.Lline_table_start1+0x9a8>
   11500:	458d                	li	a1,3
   11502:	4601                	li	a2,0
   11504:	4681                	li	a3,0
   11506:	00000073          	ecall
   1150a:	00014703          	lbu	a4,0(sp)
   1150e:	4509                	li	a0,2
   11510:	00a70a63          	beq	a4,a0,11524 <_ZN20complex_dynamic_type3app17h0656d1ef36d80701E+0xf0>
   11514:	6505                	lui	a0,0x1
   11516:	bd350513          	addi	a0,a0,-1069 # bd3 <.Lline_table_start1+0x9a8>
   1151a:	4595                	li	a1,5
   1151c:	4601                	li	a2,0
   1151e:	4681                	li	a3,0
   11520:	00000073          	ecall
   11524:	50f6                	lw	ra,124(sp)
   11526:	5466                	lw	s0,120(sp)
   11528:	54d6                	lw	s1,116(sp)
   1152a:	5946                	lw	s2,112(sp)
   1152c:	59b6                	lw	s3,108(sp)
   1152e:	5a26                	lw	s4,104(sp)
   11530:	5a96                	lw	s5,100(sp)
   11532:	6109                	addi	sp,sp,128
   11534:	8082                	ret
   11536:	00014703          	lbu	a4,0(sp)
   1153a:	00c71463          	bne	a4,a2,11542 <_ZN20complex_dynamic_type3app17h0656d1ef36d80701E+0x10e>
   1153e:	470d                	li	a4,3
   11540:	a825                	j	11578 <_ZN20complex_dynamic_type3app17h0656d1ef36d80701E+0x144>
   11542:	6505                	lui	a0,0x1
   11544:	bd350513          	addi	a0,a0,-1069 # bd3 <.Lline_table_start1+0x9a8>
   11548:	4595                	li	a1,5
   1154a:	4601                	li	a2,0
   1154c:	4681                	li	a3,0
   1154e:	00000073          	ecall
   11552:	03c14703          	lbu	a4,60(sp)
   11556:	4509                	li	a0,2
   11558:	00a10023          	sb	a0,0(sp)
   1155c:	00a71e63          	bne	a4,a0,11578 <_ZN20complex_dynamic_type3app17h0656d1ef36d80701E+0x144>
   11560:	001a8513          	addi	a0,s5,1
   11564:	02700613          	li	a2,39
   11568:	85d2                	mv	a1,s4
   1156a:	0000d097          	auipc	ra,0xd
   1156e:	faa080e7          	jalr	-86(ra) # 1e514 <memcpy>
   11572:	000a8023          	sb	zero,0(s5)
   11576:	b77d                	j	11524 <_ZN20complex_dynamic_type3app17h0656d1ef36d80701E+0xf0>
   11578:	6505                	lui	a0,0x1
   1157a:	bd350913          	addi	s2,a0,-1069 # bd3 <.Lline_table_start1+0x9a8>
   1157e:	458d                	li	a1,3
   11580:	854a                	mv	a0,s2
   11582:	4601                	li	a2,0
   11584:	4681                	li	a3,0
   11586:	00000073          	ecall
   1158a:	00014983          	lbu	s3,0(sp)
   1158e:	001a8513          	addi	a0,s5,1
   11592:	02700613          	li	a2,39
   11596:	85d2                	mv	a1,s4
   11598:	0000d097          	auipc	ra,0xd
   1159c:	f7c080e7          	jalr	-132(ra) # 1e514 <memcpy>
   115a0:	4509                	li	a0,2
   115a2:	000a8023          	sb	zero,0(s5)
   115a6:	f6a98fe3          	beq	s3,a0,11524 <_ZN20complex_dynamic_type3app17h0656d1ef36d80701E+0xf0>
   115aa:	4595                	li	a1,5
   115ac:	854a                	mv	a0,s2
   115ae:	4601                	li	a2,0
   115b0:	4681                	li	a3,0
   115b2:	874e                	mv	a4,s3
   115b4:	00000073          	ecall
   115b8:	b7b5                	j	11524 <_ZN20complex_dynamic_type3app17h0656d1ef36d80701E+0xf0>

000115ba <_ZN20complex_dynamic_type3app17h0959470f00de4928E>:
   115ba:	7135                	addi	sp,sp,-160
   115bc:	cf06                	sw	ra,156(sp)
   115be:	cd22                	sw	s0,152(sp)
   115c0:	cb26                	sw	s1,148(sp)
   115c2:	c94a                	sw	s2,144(sp)
   115c4:	c74e                	sw	s3,140(sp)
   115c6:	c552                	sw	s4,136(sp)
   115c8:	c356                	sw	s5,132(sp)
   115ca:	8aaa                	mv	s5,a0
   115cc:	4409                	li	s0,2
   115ce:	00810723          	sb	s0,14(sp)
   115d2:	00f10493          	addi	s1,sp,15
   115d6:	02100613          	li	a2,33
   115da:	8526                	mv	a0,s1
   115dc:	0000d097          	auipc	ra,0xd
   115e0:	f38080e7          	jalr	-200(ra) # 1e514 <memcpy>
   115e4:	03110a13          	addi	s4,sp,49
   115e8:	05300613          	li	a2,83
   115ec:	8552                	mv	a0,s4
   115ee:	4581                	li	a1,0
   115f0:	0000d097          	auipc	ra,0xd
   115f4:	eb8080e7          	jalr	-328(ra) # 1e4a8 <memset>
   115f8:	8626                	mv	a2,s1
   115fa:	02810823          	sb	s0,48(sp)
   115fe:	6509                	lui	a0,0x2
   11600:	4491                	li	s1,4
   11602:	4589                	li	a1,2
   11604:	53e50793          	addi	a5,a0,1342 # 253e <.Lline_table_start1+0x2313>
   11608:	02100693          	li	a3,33
   1160c:	4711                	li	a4,4
   1160e:	853e                	mv	a0,a5
   11610:	00000073          	ecall
   11614:	00851863          	bne	a0,s0,11624 <_ZN20complex_dynamic_type3app17h0959470f00de4928E+0x6a>
   11618:	4505                	li	a0,1
   1161a:	00aa8023          	sb	a0,0(s5)
   1161e:	00baa223          	sw	a1,4(s5)
   11622:	a0bd                	j	11690 <_ZN20complex_dynamic_type3app17h0959470f00de4928E+0xd6>
   11624:	853e                	mv	a0,a5
   11626:	8652                	mv	a2,s4
   11628:	00910723          	sb	s1,14(sp)
   1162c:	478d                	li	a5,3
   1162e:	45a1                	li	a1,8
   11630:	05300693          	li	a3,83
   11634:	470d                	li	a4,3
   11636:	00000073          	ecall
   1163a:	00851d63          	bne	a0,s0,11654 <_ZN20complex_dynamic_type3app17h0959470f00de4928E+0x9a>
   1163e:	03014703          	lbu	a4,48(sp)
   11642:	4505                	li	a0,1
   11644:	4609                	li	a2,2
   11646:	00aa8023          	sb	a0,0(s5)
   1164a:	00baa223          	sw	a1,4(s5)
   1164e:	02c71963          	bne	a4,a2,11680 <_ZN20complex_dynamic_type3app17h0959470f00de4928E+0xc6>
   11652:	a83d                	j	11690 <_ZN20complex_dynamic_type3app17h0959470f00de4928E+0xd6>
   11654:	4681                	li	a3,0
   11656:	02f10823          	sb	a5,48(sp)
   1165a:	6509                	lui	a0,0x2
   1165c:	4589                	li	a1,2
   1165e:	4621                	li	a2,8
   11660:	4709                	li	a4,2
   11662:	53e50513          	addi	a0,a0,1342 # 253e <.Lline_table_start1+0x2313>
   11666:	08000793          	li	a5,128
   1166a:	00000073          	ecall
   1166e:	4609                	li	a2,2
   11670:	04f57663          	bgeu	a0,a5,116bc <_ZN20complex_dynamic_type3app17h0959470f00de4928E+0x102>
   11674:	4505                	li	a0,1
   11676:	00aa8023          	sb	a0,0(s5)
   1167a:	00baa223          	sw	a1,4(s5)
   1167e:	470d                	li	a4,3
   11680:	6509                	lui	a0,0x2
   11682:	53e50513          	addi	a0,a0,1342 # 253e <.Lline_table_start1+0x2313>
   11686:	45a1                	li	a1,8
   11688:	4601                	li	a2,0
   1168a:	4681                	li	a3,0
   1168c:	00000073          	ecall
   11690:	00e14703          	lbu	a4,14(sp)
   11694:	4509                	li	a0,2
   11696:	00a70a63          	beq	a4,a0,116aa <_ZN20complex_dynamic_type3app17h0959470f00de4928E+0xf0>
   1169a:	6509                	lui	a0,0x2
   1169c:	53e50513          	addi	a0,a0,1342 # 253e <.Lline_table_start1+0x2313>
   116a0:	4589                	li	a1,2
   116a2:	4601                	li	a2,0
   116a4:	4681                	li	a3,0
   116a6:	00000073          	ecall
   116aa:	40fa                	lw	ra,156(sp)
   116ac:	446a                	lw	s0,152(sp)
   116ae:	44da                	lw	s1,148(sp)
   116b0:	494a                	lw	s2,144(sp)
   116b2:	49ba                	lw	s3,140(sp)
   116b4:	4a2a                	lw	s4,136(sp)
   116b6:	4a9a                	lw	s5,132(sp)
   116b8:	610d                	addi	sp,sp,160
   116ba:	8082                	ret
   116bc:	00e14703          	lbu	a4,14(sp)
   116c0:	00c71463          	bne	a4,a2,116c8 <_ZN20complex_dynamic_type3app17h0959470f00de4928E+0x10e>
   116c4:	470d                	li	a4,3
   116c6:	a825                	j	116fe <_ZN20complex_dynamic_type3app17h0959470f00de4928E+0x144>
   116c8:	6509                	lui	a0,0x2
   116ca:	53e50513          	addi	a0,a0,1342 # 253e <.Lline_table_start1+0x2313>
   116ce:	4589                	li	a1,2
   116d0:	4601                	li	a2,0
   116d2:	4681                	li	a3,0
   116d4:	00000073          	ecall
   116d8:	03014703          	lbu	a4,48(sp)
   116dc:	4509                	li	a0,2
   116de:	00a10723          	sb	a0,14(sp)
   116e2:	00a71e63          	bne	a4,a0,116fe <_ZN20complex_dynamic_type3app17h0959470f00de4928E+0x144>
   116e6:	001a8513          	addi	a0,s5,1
   116ea:	05300613          	li	a2,83
   116ee:	85d2                	mv	a1,s4
   116f0:	0000d097          	auipc	ra,0xd
   116f4:	e24080e7          	jalr	-476(ra) # 1e514 <memcpy>
   116f8:	000a8023          	sb	zero,0(s5)
   116fc:	b77d                	j	116aa <_ZN20complex_dynamic_type3app17h0959470f00de4928E+0xf0>
   116fe:	6509                	lui	a0,0x2
   11700:	53e50913          	addi	s2,a0,1342 # 253e <.Lline_table_start1+0x2313>
   11704:	45a1                	li	a1,8
   11706:	854a                	mv	a0,s2
   11708:	4601                	li	a2,0
   1170a:	4681                	li	a3,0
   1170c:	00000073          	ecall
   11710:	00e14983          	lbu	s3,14(sp)
   11714:	001a8513          	addi	a0,s5,1
   11718:	05300613          	li	a2,83
   1171c:	85d2                	mv	a1,s4
   1171e:	0000d097          	auipc	ra,0xd
   11722:	df6080e7          	jalr	-522(ra) # 1e514 <memcpy>
   11726:	4509                	li	a0,2
   11728:	000a8023          	sb	zero,0(s5)
   1172c:	f6a98fe3          	beq	s3,a0,116aa <_ZN20complex_dynamic_type3app17h0959470f00de4928E+0xf0>
   11730:	4589                	li	a1,2
   11732:	854a                	mv	a0,s2
   11734:	4601                	li	a2,0
   11736:	4681                	li	a3,0
   11738:	874e                	mv	a4,s3
   1173a:	00000073          	ecall
   1173e:	b7b5                	j	116aa <_ZN20complex_dynamic_type3app17h0959470f00de4928E+0xf0>

00011740 <_ZN20complex_dynamic_type3app17h0b8862d57272ce7eE>:
   11740:	715d                	addi	sp,sp,-80
   11742:	c686                	sw	ra,76(sp)
   11744:	c4a2                	sw	s0,72(sp)
   11746:	c2a6                	sw	s1,68(sp)
   11748:	c0ca                	sw	s2,64(sp)
   1174a:	de4e                	sw	s3,60(sp)
   1174c:	dc52                	sw	s4,56(sp)
   1174e:	8a2a                	mv	s4,a0
   11750:	4409                	li	s0,2
   11752:	00810123          	sb	s0,2(sp)
   11756:	00310493          	addi	s1,sp,3
   1175a:	463d                	li	a2,15
   1175c:	8526                	mv	a0,s1
   1175e:	0000d097          	auipc	ra,0xd
   11762:	db6080e7          	jalr	-586(ra) # 1e514 <memcpy>
   11766:	01310993          	addi	s3,sp,19
   1176a:	02500613          	li	a2,37
   1176e:	854e                	mv	a0,s3
   11770:	4581                	li	a1,0
   11772:	0000d097          	auipc	ra,0xd
   11776:	d36080e7          	jalr	-714(ra) # 1e4a8 <memset>
   1177a:	8626                	mv	a2,s1
   1177c:	00810923          	sb	s0,18(sp)
   11780:	4791                	li	a5,4
   11782:	0a200513          	li	a0,162
   11786:	45a1                	li	a1,8
   11788:	46bd                	li	a3,15
   1178a:	4711                	li	a4,4
   1178c:	00000073          	ecall
   11790:	00851863          	bne	a0,s0,117a0 <_ZN20complex_dynamic_type3app17h0b8862d57272ce7eE+0x60>
   11794:	4505                	li	a0,1
   11796:	00aa0023          	sb	a0,0(s4)
   1179a:	00ba2223          	sw	a1,4(s4)
   1179e:	a0b5                	j	1180a <_ZN20complex_dynamic_type3app17h0b8862d57272ce7eE+0xca>
   117a0:	4581                	li	a1,0
   117a2:	864e                	mv	a2,s3
   117a4:	00f10123          	sb	a5,2(sp)
   117a8:	478d                	li	a5,3
   117aa:	0a200513          	li	a0,162
   117ae:	02500693          	li	a3,37
   117b2:	470d                	li	a4,3
   117b4:	00000073          	ecall
   117b8:	00851d63          	bne	a0,s0,117d2 <_ZN20complex_dynamic_type3app17h0b8862d57272ce7eE+0x92>
   117bc:	01214703          	lbu	a4,18(sp)
   117c0:	4505                	li	a0,1
   117c2:	4609                	li	a2,2
   117c4:	00aa0023          	sb	a0,0(s4)
   117c8:	00ba2223          	sw	a1,4(s4)
   117cc:	02c71863          	bne	a4,a2,117fc <_ZN20complex_dynamic_type3app17h0b8862d57272ce7eE+0xbc>
   117d0:	a82d                	j	1180a <_ZN20complex_dynamic_type3app17h0b8862d57272ce7eE+0xca>
   117d2:	4601                	li	a2,0
   117d4:	4681                	li	a3,0
   117d6:	00f10923          	sb	a5,18(sp)
   117da:	0a200513          	li	a0,162
   117de:	45a1                	li	a1,8
   117e0:	4709                	li	a4,2
   117e2:	08000793          	li	a5,128
   117e6:	00000073          	ecall
   117ea:	4609                	li	a2,2
   117ec:	04f57363          	bgeu	a0,a5,11832 <_ZN20complex_dynamic_type3app17h0b8862d57272ce7eE+0xf2>
   117f0:	4505                	li	a0,1
   117f2:	00aa0023          	sb	a0,0(s4)
   117f6:	00ba2223          	sw	a1,4(s4)
   117fa:	470d                	li	a4,3
   117fc:	0a200513          	li	a0,162
   11800:	4581                	li	a1,0
   11802:	4601                	li	a2,0
   11804:	4681                	li	a3,0
   11806:	00000073          	ecall
   1180a:	00214703          	lbu	a4,2(sp)
   1180e:	4509                	li	a0,2
   11810:	00a70963          	beq	a4,a0,11822 <_ZN20complex_dynamic_type3app17h0b8862d57272ce7eE+0xe2>
   11814:	0a200513          	li	a0,162
   11818:	45a1                	li	a1,8
   1181a:	4601                	li	a2,0
   1181c:	4681                	li	a3,0
   1181e:	00000073          	ecall
   11822:	40b6                	lw	ra,76(sp)
   11824:	4426                	lw	s0,72(sp)
   11826:	4496                	lw	s1,68(sp)
   11828:	4906                	lw	s2,64(sp)
   1182a:	59f2                	lw	s3,60(sp)
   1182c:	5a62                	lw	s4,56(sp)
   1182e:	6161                	addi	sp,sp,80
   11830:	8082                	ret
   11832:	00214703          	lbu	a4,2(sp)
   11836:	00c71463          	bne	a4,a2,1183e <_ZN20complex_dynamic_type3app17h0b8862d57272ce7eE+0xfe>
   1183a:	470d                	li	a4,3
   1183c:	a81d                	j	11872 <_ZN20complex_dynamic_type3app17h0b8862d57272ce7eE+0x132>
   1183e:	0a200513          	li	a0,162
   11842:	45a1                	li	a1,8
   11844:	4601                	li	a2,0
   11846:	4681                	li	a3,0
   11848:	00000073          	ecall
   1184c:	01214703          	lbu	a4,18(sp)
   11850:	4509                	li	a0,2
   11852:	00a10123          	sb	a0,2(sp)
   11856:	00a71e63          	bne	a4,a0,11872 <_ZN20complex_dynamic_type3app17h0b8862d57272ce7eE+0x132>
   1185a:	001a0513          	addi	a0,s4,1
   1185e:	02500613          	li	a2,37
   11862:	85ce                	mv	a1,s3
   11864:	0000d097          	auipc	ra,0xd
   11868:	cb0080e7          	jalr	-848(ra) # 1e514 <memcpy>
   1186c:	000a0023          	sb	zero,0(s4)
   11870:	bf4d                	j	11822 <_ZN20complex_dynamic_type3app17h0b8862d57272ce7eE+0xe2>
   11872:	0a200513          	li	a0,162
   11876:	4581                	li	a1,0
   11878:	4601                	li	a2,0
   1187a:	4681                	li	a3,0
   1187c:	00000073          	ecall
   11880:	00214903          	lbu	s2,2(sp)
   11884:	001a0513          	addi	a0,s4,1
   11888:	02500613          	li	a2,37
   1188c:	85ce                	mv	a1,s3
   1188e:	0000d097          	auipc	ra,0xd
   11892:	c86080e7          	jalr	-890(ra) # 1e514 <memcpy>
   11896:	4509                	li	a0,2
   11898:	000a0023          	sb	zero,0(s4)
   1189c:	f8a903e3          	beq	s2,a0,11822 <_ZN20complex_dynamic_type3app17h0b8862d57272ce7eE+0xe2>
   118a0:	0a200513          	li	a0,162
   118a4:	45a1                	li	a1,8
   118a6:	4601                	li	a2,0
   118a8:	4681                	li	a3,0
   118aa:	874a                	mv	a4,s2
   118ac:	00000073          	ecall
   118b0:	bf8d                	j	11822 <_ZN20complex_dynamic_type3app17h0b8862d57272ce7eE+0xe2>

000118b2 <_ZN20complex_dynamic_type3app17h0d08cc1fd474aecdE>:
   118b2:	7119                	addi	sp,sp,-128
   118b4:	de86                	sw	ra,124(sp)
   118b6:	dca2                	sw	s0,120(sp)
   118b8:	daa6                	sw	s1,116(sp)
   118ba:	d8ca                	sw	s2,112(sp)
   118bc:	d6ce                	sw	s3,108(sp)
   118be:	d4d2                	sw	s4,104(sp)
   118c0:	8a2a                	mv	s4,a0
   118c2:	4409                	li	s0,2
   118c4:	00810223          	sb	s0,4(sp)
   118c8:	00510493          	addi	s1,sp,5
   118cc:	03400613          	li	a2,52
   118d0:	8526                	mv	a0,s1
   118d2:	0000d097          	auipc	ra,0xd
   118d6:	c42080e7          	jalr	-958(ra) # 1e514 <memcpy>
   118da:	03a10993          	addi	s3,sp,58
   118de:	02e00613          	li	a2,46
   118e2:	854e                	mv	a0,s3
   118e4:	4581                	li	a1,0
   118e6:	0000d097          	auipc	ra,0xd
   118ea:	bc2080e7          	jalr	-1086(ra) # 1e4a8 <memset>
   118ee:	8626                	mv	a2,s1
   118f0:	02810ca3          	sb	s0,57(sp)
   118f4:	4791                	li	a5,4
   118f6:	20900513          	li	a0,521
   118fa:	4589                	li	a1,2
   118fc:	03400693          	li	a3,52
   11900:	4711                	li	a4,4
   11902:	00000073          	ecall
   11906:	00851863          	bne	a0,s0,11916 <_ZN20complex_dynamic_type3app17h0d08cc1fd474aecdE+0x64>
   1190a:	4505                	li	a0,1
   1190c:	00aa0023          	sb	a0,0(s4)
   11910:	00ba2223          	sw	a1,4(s4)
   11914:	a0b5                	j	11980 <_ZN20complex_dynamic_type3app17h0d08cc1fd474aecdE+0xce>
   11916:	864e                	mv	a2,s3
   11918:	00f10223          	sb	a5,4(sp)
   1191c:	478d                	li	a5,3
   1191e:	20900513          	li	a0,521
   11922:	45a1                	li	a1,8
   11924:	02e00693          	li	a3,46
   11928:	470d                	li	a4,3
   1192a:	00000073          	ecall
   1192e:	00851d63          	bne	a0,s0,11948 <_ZN20complex_dynamic_type3app17h0d08cc1fd474aecdE+0x96>
   11932:	03914703          	lbu	a4,57(sp)
   11936:	4505                	li	a0,1
   11938:	4609                	li	a2,2
   1193a:	00aa0023          	sb	a0,0(s4)
   1193e:	00ba2223          	sw	a1,4(s4)
   11942:	02c71863          	bne	a4,a2,11972 <_ZN20complex_dynamic_type3app17h0d08cc1fd474aecdE+0xc0>
   11946:	a82d                	j	11980 <_ZN20complex_dynamic_type3app17h0d08cc1fd474aecdE+0xce>
   11948:	4681                	li	a3,0
   1194a:	02f10ca3          	sb	a5,57(sp)
   1194e:	20900513          	li	a0,521
   11952:	4589                	li	a1,2
   11954:	4621                	li	a2,8
   11956:	4709                	li	a4,2
   11958:	08000793          	li	a5,128
   1195c:	00000073          	ecall
   11960:	4609                	li	a2,2
   11962:	04f57363          	bgeu	a0,a5,119a8 <_ZN20complex_dynamic_type3app17h0d08cc1fd474aecdE+0xf6>
   11966:	4505                	li	a0,1
   11968:	00aa0023          	sb	a0,0(s4)
   1196c:	00ba2223          	sw	a1,4(s4)
   11970:	470d                	li	a4,3
   11972:	20900513          	li	a0,521
   11976:	45a1                	li	a1,8
   11978:	4601                	li	a2,0
   1197a:	4681                	li	a3,0
   1197c:	00000073          	ecall
   11980:	00414703          	lbu	a4,4(sp)
   11984:	4509                	li	a0,2
   11986:	00a70963          	beq	a4,a0,11998 <_ZN20complex_dynamic_type3app17h0d08cc1fd474aecdE+0xe6>
   1198a:	20900513          	li	a0,521
   1198e:	4589                	li	a1,2
   11990:	4601                	li	a2,0
   11992:	4681                	li	a3,0
   11994:	00000073          	ecall
   11998:	50f6                	lw	ra,124(sp)
   1199a:	5466                	lw	s0,120(sp)
   1199c:	54d6                	lw	s1,116(sp)
   1199e:	5946                	lw	s2,112(sp)
   119a0:	59b6                	lw	s3,108(sp)
   119a2:	5a26                	lw	s4,104(sp)
   119a4:	6109                	addi	sp,sp,128
   119a6:	8082                	ret
   119a8:	00414703          	lbu	a4,4(sp)
   119ac:	00c71463          	bne	a4,a2,119b4 <_ZN20complex_dynamic_type3app17h0d08cc1fd474aecdE+0x102>
   119b0:	470d                	li	a4,3
   119b2:	a81d                	j	119e8 <_ZN20complex_dynamic_type3app17h0d08cc1fd474aecdE+0x136>
   119b4:	20900513          	li	a0,521
   119b8:	4589                	li	a1,2
   119ba:	4601                	li	a2,0
   119bc:	4681                	li	a3,0
   119be:	00000073          	ecall
   119c2:	03914703          	lbu	a4,57(sp)
   119c6:	4509                	li	a0,2
   119c8:	00a10223          	sb	a0,4(sp)
   119cc:	00a71e63          	bne	a4,a0,119e8 <_ZN20complex_dynamic_type3app17h0d08cc1fd474aecdE+0x136>
   119d0:	001a0513          	addi	a0,s4,1
   119d4:	02e00613          	li	a2,46
   119d8:	85ce                	mv	a1,s3
   119da:	0000d097          	auipc	ra,0xd
   119de:	b3a080e7          	jalr	-1222(ra) # 1e514 <memcpy>
   119e2:	000a0023          	sb	zero,0(s4)
   119e6:	bf4d                	j	11998 <_ZN20complex_dynamic_type3app17h0d08cc1fd474aecdE+0xe6>
   119e8:	20900513          	li	a0,521
   119ec:	45a1                	li	a1,8
   119ee:	4601                	li	a2,0
   119f0:	4681                	li	a3,0
   119f2:	00000073          	ecall
   119f6:	00414903          	lbu	s2,4(sp)
   119fa:	001a0513          	addi	a0,s4,1
   119fe:	02e00613          	li	a2,46
   11a02:	85ce                	mv	a1,s3
   11a04:	0000d097          	auipc	ra,0xd
   11a08:	b10080e7          	jalr	-1264(ra) # 1e514 <memcpy>
   11a0c:	4509                	li	a0,2
   11a0e:	000a0023          	sb	zero,0(s4)
   11a12:	f8a903e3          	beq	s2,a0,11998 <_ZN20complex_dynamic_type3app17h0d08cc1fd474aecdE+0xe6>
   11a16:	20900513          	li	a0,521
   11a1a:	4589                	li	a1,2
   11a1c:	4601                	li	a2,0
   11a1e:	4681                	li	a3,0
   11a20:	874a                	mv	a4,s2
   11a22:	00000073          	ecall
   11a26:	bf8d                	j	11998 <_ZN20complex_dynamic_type3app17h0d08cc1fd474aecdE+0xe6>

00011a28 <_ZN20complex_dynamic_type3app17h134371b8964890bdE>:
   11a28:	7171                	addi	sp,sp,-176
   11a2a:	d706                	sw	ra,172(sp)
   11a2c:	d522                	sw	s0,168(sp)
   11a2e:	d326                	sw	s1,164(sp)
   11a30:	d14a                	sw	s2,160(sp)
   11a32:	cf4e                	sw	s3,156(sp)
   11a34:	cd52                	sw	s4,152(sp)
   11a36:	cb56                	sw	s5,148(sp)
   11a38:	8aaa                	mv	s5,a0
   11a3a:	4409                	li	s0,2
   11a3c:	008105a3          	sb	s0,11(sp)
   11a40:	0064                	addi	s1,sp,12
   11a42:	05500613          	li	a2,85
   11a46:	8526                	mv	a0,s1
   11a48:	0000d097          	auipc	ra,0xd
   11a4c:	acc080e7          	jalr	-1332(ra) # 1e514 <memcpy>
   11a50:	06210a13          	addi	s4,sp,98
   11a54:	03200613          	li	a2,50
   11a58:	8552                	mv	a0,s4
   11a5a:	4581                	li	a1,0
   11a5c:	0000d097          	auipc	ra,0xd
   11a60:	a4c080e7          	jalr	-1460(ra) # 1e4a8 <memset>
   11a64:	8626                	mv	a2,s1
   11a66:	068100a3          	sb	s0,97(sp)
   11a6a:	6509                	lui	a0,0x2
   11a6c:	4491                	li	s1,4
   11a6e:	45a1                	li	a1,8
   11a70:	09550793          	addi	a5,a0,149 # 2095 <.Lline_table_start1+0x1e6a>
   11a74:	05500693          	li	a3,85
   11a78:	4711                	li	a4,4
   11a7a:	853e                	mv	a0,a5
   11a7c:	00000073          	ecall
   11a80:	00851863          	bne	a0,s0,11a90 <_ZN20complex_dynamic_type3app17h134371b8964890bdE+0x68>
   11a84:	4505                	li	a0,1
   11a86:	00aa8023          	sb	a0,0(s5)
   11a8a:	00baa223          	sw	a1,4(s5)
   11a8e:	a0bd                	j	11afc <_ZN20complex_dynamic_type3app17h134371b8964890bdE+0xd4>
   11a90:	853e                	mv	a0,a5
   11a92:	8652                	mv	a2,s4
   11a94:	009105a3          	sb	s1,11(sp)
   11a98:	478d                	li	a5,3
   11a9a:	45a1                	li	a1,8
   11a9c:	03200693          	li	a3,50
   11aa0:	470d                	li	a4,3
   11aa2:	00000073          	ecall
   11aa6:	00851d63          	bne	a0,s0,11ac0 <_ZN20complex_dynamic_type3app17h134371b8964890bdE+0x98>
   11aaa:	06114703          	lbu	a4,97(sp)
   11aae:	4505                	li	a0,1
   11ab0:	4609                	li	a2,2
   11ab2:	00aa8023          	sb	a0,0(s5)
   11ab6:	00baa223          	sw	a1,4(s5)
   11aba:	02c71963          	bne	a4,a2,11aec <_ZN20complex_dynamic_type3app17h134371b8964890bdE+0xc4>
   11abe:	a83d                	j	11afc <_ZN20complex_dynamic_type3app17h134371b8964890bdE+0xd4>
   11ac0:	4681                	li	a3,0
   11ac2:	06f100a3          	sb	a5,97(sp)
   11ac6:	6509                	lui	a0,0x2
   11ac8:	45a1                	li	a1,8
   11aca:	4621                	li	a2,8
   11acc:	4709                	li	a4,2
   11ace:	09550513          	addi	a0,a0,149 # 2095 <.Lline_table_start1+0x1e6a>
   11ad2:	08000793          	li	a5,128
   11ad6:	00000073          	ecall
   11ada:	4609                	li	a2,2
   11adc:	04f57663          	bgeu	a0,a5,11b28 <_ZN20complex_dynamic_type3app17h134371b8964890bdE+0x100>
   11ae0:	4505                	li	a0,1
   11ae2:	00aa8023          	sb	a0,0(s5)
   11ae6:	00baa223          	sw	a1,4(s5)
   11aea:	470d                	li	a4,3
   11aec:	6509                	lui	a0,0x2
   11aee:	09550513          	addi	a0,a0,149 # 2095 <.Lline_table_start1+0x1e6a>
   11af2:	45a1                	li	a1,8
   11af4:	4601                	li	a2,0
   11af6:	4681                	li	a3,0
   11af8:	00000073          	ecall
   11afc:	00b14703          	lbu	a4,11(sp)
   11b00:	4509                	li	a0,2
   11b02:	00a70a63          	beq	a4,a0,11b16 <_ZN20complex_dynamic_type3app17h134371b8964890bdE+0xee>
   11b06:	6509                	lui	a0,0x2
   11b08:	09550513          	addi	a0,a0,149 # 2095 <.Lline_table_start1+0x1e6a>
   11b0c:	45a1                	li	a1,8
   11b0e:	4601                	li	a2,0
   11b10:	4681                	li	a3,0
   11b12:	00000073          	ecall
   11b16:	50ba                	lw	ra,172(sp)
   11b18:	542a                	lw	s0,168(sp)
   11b1a:	549a                	lw	s1,164(sp)
   11b1c:	590a                	lw	s2,160(sp)
   11b1e:	49fa                	lw	s3,156(sp)
   11b20:	4a6a                	lw	s4,152(sp)
   11b22:	4ada                	lw	s5,148(sp)
   11b24:	614d                	addi	sp,sp,176
   11b26:	8082                	ret
   11b28:	00b14703          	lbu	a4,11(sp)
   11b2c:	00c71463          	bne	a4,a2,11b34 <_ZN20complex_dynamic_type3app17h134371b8964890bdE+0x10c>
   11b30:	470d                	li	a4,3
   11b32:	a825                	j	11b6a <_ZN20complex_dynamic_type3app17h134371b8964890bdE+0x142>
   11b34:	6509                	lui	a0,0x2
   11b36:	09550513          	addi	a0,a0,149 # 2095 <.Lline_table_start1+0x1e6a>
   11b3a:	45a1                	li	a1,8
   11b3c:	4601                	li	a2,0
   11b3e:	4681                	li	a3,0
   11b40:	00000073          	ecall
   11b44:	06114703          	lbu	a4,97(sp)
   11b48:	4509                	li	a0,2
   11b4a:	00a105a3          	sb	a0,11(sp)
   11b4e:	00a71e63          	bne	a4,a0,11b6a <_ZN20complex_dynamic_type3app17h134371b8964890bdE+0x142>
   11b52:	001a8513          	addi	a0,s5,1
   11b56:	03200613          	li	a2,50
   11b5a:	85d2                	mv	a1,s4
   11b5c:	0000d097          	auipc	ra,0xd
   11b60:	9b8080e7          	jalr	-1608(ra) # 1e514 <memcpy>
   11b64:	000a8023          	sb	zero,0(s5)
   11b68:	b77d                	j	11b16 <_ZN20complex_dynamic_type3app17h134371b8964890bdE+0xee>
   11b6a:	6509                	lui	a0,0x2
   11b6c:	09550913          	addi	s2,a0,149 # 2095 <.Lline_table_start1+0x1e6a>
   11b70:	45a1                	li	a1,8
   11b72:	854a                	mv	a0,s2
   11b74:	4601                	li	a2,0
   11b76:	4681                	li	a3,0
   11b78:	00000073          	ecall
   11b7c:	00b14983          	lbu	s3,11(sp)
   11b80:	001a8513          	addi	a0,s5,1
   11b84:	03200613          	li	a2,50
   11b88:	85d2                	mv	a1,s4
   11b8a:	0000d097          	auipc	ra,0xd
   11b8e:	98a080e7          	jalr	-1654(ra) # 1e514 <memcpy>
   11b92:	4509                	li	a0,2
   11b94:	000a8023          	sb	zero,0(s5)
   11b98:	f6a98fe3          	beq	s3,a0,11b16 <_ZN20complex_dynamic_type3app17h134371b8964890bdE+0xee>
   11b9c:	45a1                	li	a1,8
   11b9e:	854a                	mv	a0,s2
   11ba0:	4601                	li	a2,0
   11ba2:	4681                	li	a3,0
   11ba4:	874e                	mv	a4,s3
   11ba6:	00000073          	ecall
   11baa:	b7b5                	j	11b16 <_ZN20complex_dynamic_type3app17h134371b8964890bdE+0xee>

00011bac <_ZN20complex_dynamic_type3app17h15311da362d0d59aE>:
   11bac:	7119                	addi	sp,sp,-128
   11bae:	de86                	sw	ra,124(sp)
   11bb0:	dca2                	sw	s0,120(sp)
   11bb2:	daa6                	sw	s1,116(sp)
   11bb4:	d8ca                	sw	s2,112(sp)
   11bb6:	d6ce                	sw	s3,108(sp)
   11bb8:	d4d2                	sw	s4,104(sp)
   11bba:	d2d6                	sw	s5,100(sp)
   11bbc:	8aaa                	mv	s5,a0
   11bbe:	4409                	li	s0,2
   11bc0:	00810623          	sb	s0,12(sp)
   11bc4:	00d10493          	addi	s1,sp,13
   11bc8:	4639                	li	a2,14
   11bca:	8526                	mv	a0,s1
   11bcc:	0000d097          	auipc	ra,0xd
   11bd0:	948080e7          	jalr	-1720(ra) # 1e514 <memcpy>
   11bd4:	01c10a13          	addi	s4,sp,28
   11bd8:	04800613          	li	a2,72
   11bdc:	8552                	mv	a0,s4
   11bde:	4581                	li	a1,0
   11be0:	0000d097          	auipc	ra,0xd
   11be4:	8c8080e7          	jalr	-1848(ra) # 1e4a8 <memset>
   11be8:	8626                	mv	a2,s1
   11bea:	00810da3          	sb	s0,27(sp)
   11bee:	6505                	lui	a0,0x1
   11bf0:	4491                	li	s1,4
   11bf2:	458d                	li	a1,3
   11bf4:	2d150793          	addi	a5,a0,721 # 12d1 <.Lline_table_start1+0x10a6>
   11bf8:	46b9                	li	a3,14
   11bfa:	4711                	li	a4,4
   11bfc:	853e                	mv	a0,a5
   11bfe:	00000073          	ecall
   11c02:	00851863          	bne	a0,s0,11c12 <_ZN20complex_dynamic_type3app17h15311da362d0d59aE+0x66>
   11c06:	4505                	li	a0,1
   11c08:	00aa8023          	sb	a0,0(s5)
   11c0c:	00baa223          	sw	a1,4(s5)
   11c10:	a0bd                	j	11c7e <_ZN20complex_dynamic_type3app17h15311da362d0d59aE+0xd2>
   11c12:	853e                	mv	a0,a5
   11c14:	8652                	mv	a2,s4
   11c16:	00910623          	sb	s1,12(sp)
   11c1a:	478d                	li	a5,3
   11c1c:	45a1                	li	a1,8
   11c1e:	04800693          	li	a3,72
   11c22:	470d                	li	a4,3
   11c24:	00000073          	ecall
   11c28:	00851d63          	bne	a0,s0,11c42 <_ZN20complex_dynamic_type3app17h15311da362d0d59aE+0x96>
   11c2c:	01b14703          	lbu	a4,27(sp)
   11c30:	4505                	li	a0,1
   11c32:	4609                	li	a2,2
   11c34:	00aa8023          	sb	a0,0(s5)
   11c38:	00baa223          	sw	a1,4(s5)
   11c3c:	02c71963          	bne	a4,a2,11c6e <_ZN20complex_dynamic_type3app17h15311da362d0d59aE+0xc2>
   11c40:	a83d                	j	11c7e <_ZN20complex_dynamic_type3app17h15311da362d0d59aE+0xd2>
   11c42:	4681                	li	a3,0
   11c44:	00f10da3          	sb	a5,27(sp)
   11c48:	6505                	lui	a0,0x1
   11c4a:	458d                	li	a1,3
   11c4c:	4621                	li	a2,8
   11c4e:	4709                	li	a4,2
   11c50:	2d150513          	addi	a0,a0,721 # 12d1 <.Lline_table_start1+0x10a6>
   11c54:	08000793          	li	a5,128
   11c58:	00000073          	ecall
   11c5c:	4609                	li	a2,2
   11c5e:	04f57663          	bgeu	a0,a5,11caa <_ZN20complex_dynamic_type3app17h15311da362d0d59aE+0xfe>
   11c62:	4505                	li	a0,1
   11c64:	00aa8023          	sb	a0,0(s5)
   11c68:	00baa223          	sw	a1,4(s5)
   11c6c:	470d                	li	a4,3
   11c6e:	6505                	lui	a0,0x1
   11c70:	2d150513          	addi	a0,a0,721 # 12d1 <.Lline_table_start1+0x10a6>
   11c74:	45a1                	li	a1,8
   11c76:	4601                	li	a2,0
   11c78:	4681                	li	a3,0
   11c7a:	00000073          	ecall
   11c7e:	00c14703          	lbu	a4,12(sp)
   11c82:	4509                	li	a0,2
   11c84:	00a70a63          	beq	a4,a0,11c98 <_ZN20complex_dynamic_type3app17h15311da362d0d59aE+0xec>
   11c88:	6505                	lui	a0,0x1
   11c8a:	2d150513          	addi	a0,a0,721 # 12d1 <.Lline_table_start1+0x10a6>
   11c8e:	458d                	li	a1,3
   11c90:	4601                	li	a2,0
   11c92:	4681                	li	a3,0
   11c94:	00000073          	ecall
   11c98:	50f6                	lw	ra,124(sp)
   11c9a:	5466                	lw	s0,120(sp)
   11c9c:	54d6                	lw	s1,116(sp)
   11c9e:	5946                	lw	s2,112(sp)
   11ca0:	59b6                	lw	s3,108(sp)
   11ca2:	5a26                	lw	s4,104(sp)
   11ca4:	5a96                	lw	s5,100(sp)
   11ca6:	6109                	addi	sp,sp,128
   11ca8:	8082                	ret
   11caa:	00c14703          	lbu	a4,12(sp)
   11cae:	00c71463          	bne	a4,a2,11cb6 <_ZN20complex_dynamic_type3app17h15311da362d0d59aE+0x10a>
   11cb2:	470d                	li	a4,3
   11cb4:	a825                	j	11cec <_ZN20complex_dynamic_type3app17h15311da362d0d59aE+0x140>
   11cb6:	6505                	lui	a0,0x1
   11cb8:	2d150513          	addi	a0,a0,721 # 12d1 <.Lline_table_start1+0x10a6>
   11cbc:	458d                	li	a1,3
   11cbe:	4601                	li	a2,0
   11cc0:	4681                	li	a3,0
   11cc2:	00000073          	ecall
   11cc6:	01b14703          	lbu	a4,27(sp)
   11cca:	4509                	li	a0,2
   11ccc:	00a10623          	sb	a0,12(sp)
   11cd0:	00a71e63          	bne	a4,a0,11cec <_ZN20complex_dynamic_type3app17h15311da362d0d59aE+0x140>
   11cd4:	001a8513          	addi	a0,s5,1
   11cd8:	04800613          	li	a2,72
   11cdc:	85d2                	mv	a1,s4
   11cde:	0000d097          	auipc	ra,0xd
   11ce2:	836080e7          	jalr	-1994(ra) # 1e514 <memcpy>
   11ce6:	000a8023          	sb	zero,0(s5)
   11cea:	b77d                	j	11c98 <_ZN20complex_dynamic_type3app17h15311da362d0d59aE+0xec>
   11cec:	6505                	lui	a0,0x1
   11cee:	2d150913          	addi	s2,a0,721 # 12d1 <.Lline_table_start1+0x10a6>
   11cf2:	45a1                	li	a1,8
   11cf4:	854a                	mv	a0,s2
   11cf6:	4601                	li	a2,0
   11cf8:	4681                	li	a3,0
   11cfa:	00000073          	ecall
   11cfe:	00c14983          	lbu	s3,12(sp)
   11d02:	001a8513          	addi	a0,s5,1
   11d06:	04800613          	li	a2,72
   11d0a:	85d2                	mv	a1,s4
   11d0c:	0000d097          	auipc	ra,0xd
   11d10:	808080e7          	jalr	-2040(ra) # 1e514 <memcpy>
   11d14:	4509                	li	a0,2
   11d16:	000a8023          	sb	zero,0(s5)
   11d1a:	f6a98fe3          	beq	s3,a0,11c98 <_ZN20complex_dynamic_type3app17h15311da362d0d59aE+0xec>
   11d1e:	458d                	li	a1,3
   11d20:	854a                	mv	a0,s2
   11d22:	4601                	li	a2,0
   11d24:	4681                	li	a3,0
   11d26:	874e                	mv	a4,s3
   11d28:	00000073          	ecall
   11d2c:	b7b5                	j	11c98 <_ZN20complex_dynamic_type3app17h15311da362d0d59aE+0xec>

00011d2e <_ZN20complex_dynamic_type3app17h19d89e10befb24d0E>:
   11d2e:	7119                	addi	sp,sp,-128
   11d30:	de86                	sw	ra,124(sp)
   11d32:	dca2                	sw	s0,120(sp)
   11d34:	daa6                	sw	s1,116(sp)
   11d36:	d8ca                	sw	s2,112(sp)
   11d38:	d6ce                	sw	s3,108(sp)
   11d3a:	d4d2                	sw	s4,104(sp)
   11d3c:	d2d6                	sw	s5,100(sp)
   11d3e:	8aaa                	mv	s5,a0
   11d40:	4409                	li	s0,2
   11d42:	00810623          	sb	s0,12(sp)
   11d46:	00d10493          	addi	s1,sp,13
   11d4a:	4649                	li	a2,18
   11d4c:	8526                	mv	a0,s1
   11d4e:	0000c097          	auipc	ra,0xc
   11d52:	7c6080e7          	jalr	1990(ra) # 1e514 <memcpy>
   11d56:	02010a13          	addi	s4,sp,32
   11d5a:	04400613          	li	a2,68
   11d5e:	8552                	mv	a0,s4
   11d60:	4581                	li	a1,0
   11d62:	0000c097          	auipc	ra,0xc
   11d66:	746080e7          	jalr	1862(ra) # 1e4a8 <memset>
   11d6a:	8626                	mv	a2,s1
   11d6c:	00810fa3          	sb	s0,31(sp)
   11d70:	6509                	lui	a0,0x2
   11d72:	4491                	li	s1,4
   11d74:	4589                	li	a1,2
   11d76:	43250793          	addi	a5,a0,1074 # 2432 <.Lline_table_start1+0x2207>
   11d7a:	46c9                	li	a3,18
   11d7c:	4711                	li	a4,4
   11d7e:	853e                	mv	a0,a5
   11d80:	00000073          	ecall
   11d84:	00851863          	bne	a0,s0,11d94 <_ZN20complex_dynamic_type3app17h19d89e10befb24d0E+0x66>
   11d88:	4505                	li	a0,1
   11d8a:	00aa8023          	sb	a0,0(s5)
   11d8e:	00baa223          	sw	a1,4(s5)
   11d92:	a0bd                	j	11e00 <_ZN20complex_dynamic_type3app17h19d89e10befb24d0E+0xd2>
   11d94:	853e                	mv	a0,a5
   11d96:	8652                	mv	a2,s4
   11d98:	00910623          	sb	s1,12(sp)
   11d9c:	478d                	li	a5,3
   11d9e:	45a5                	li	a1,9
   11da0:	04400693          	li	a3,68
   11da4:	470d                	li	a4,3
   11da6:	00000073          	ecall
   11daa:	00851d63          	bne	a0,s0,11dc4 <_ZN20complex_dynamic_type3app17h19d89e10befb24d0E+0x96>
   11dae:	01f14703          	lbu	a4,31(sp)
   11db2:	4505                	li	a0,1
   11db4:	4609                	li	a2,2
   11db6:	00aa8023          	sb	a0,0(s5)
   11dba:	00baa223          	sw	a1,4(s5)
   11dbe:	02c71963          	bne	a4,a2,11df0 <_ZN20complex_dynamic_type3app17h19d89e10befb24d0E+0xc2>
   11dc2:	a83d                	j	11e00 <_ZN20complex_dynamic_type3app17h19d89e10befb24d0E+0xd2>
   11dc4:	4681                	li	a3,0
   11dc6:	00f10fa3          	sb	a5,31(sp)
   11dca:	6509                	lui	a0,0x2
   11dcc:	4589                	li	a1,2
   11dce:	4625                	li	a2,9
   11dd0:	4709                	li	a4,2
   11dd2:	43250513          	addi	a0,a0,1074 # 2432 <.Lline_table_start1+0x2207>
   11dd6:	08000793          	li	a5,128
   11dda:	00000073          	ecall
   11dde:	4609                	li	a2,2
   11de0:	04f57663          	bgeu	a0,a5,11e2c <_ZN20complex_dynamic_type3app17h19d89e10befb24d0E+0xfe>
   11de4:	4505                	li	a0,1
   11de6:	00aa8023          	sb	a0,0(s5)
   11dea:	00baa223          	sw	a1,4(s5)
   11dee:	470d                	li	a4,3
   11df0:	6509                	lui	a0,0x2
   11df2:	43250513          	addi	a0,a0,1074 # 2432 <.Lline_table_start1+0x2207>
   11df6:	45a5                	li	a1,9
   11df8:	4601                	li	a2,0
   11dfa:	4681                	li	a3,0
   11dfc:	00000073          	ecall
   11e00:	00c14703          	lbu	a4,12(sp)
   11e04:	4509                	li	a0,2
   11e06:	00a70a63          	beq	a4,a0,11e1a <_ZN20complex_dynamic_type3app17h19d89e10befb24d0E+0xec>
   11e0a:	6509                	lui	a0,0x2
   11e0c:	43250513          	addi	a0,a0,1074 # 2432 <.Lline_table_start1+0x2207>
   11e10:	4589                	li	a1,2
   11e12:	4601                	li	a2,0
   11e14:	4681                	li	a3,0
   11e16:	00000073          	ecall
   11e1a:	50f6                	lw	ra,124(sp)
   11e1c:	5466                	lw	s0,120(sp)
   11e1e:	54d6                	lw	s1,116(sp)
   11e20:	5946                	lw	s2,112(sp)
   11e22:	59b6                	lw	s3,108(sp)
   11e24:	5a26                	lw	s4,104(sp)
   11e26:	5a96                	lw	s5,100(sp)
   11e28:	6109                	addi	sp,sp,128
   11e2a:	8082                	ret
   11e2c:	00c14703          	lbu	a4,12(sp)
   11e30:	00c71463          	bne	a4,a2,11e38 <_ZN20complex_dynamic_type3app17h19d89e10befb24d0E+0x10a>
   11e34:	470d                	li	a4,3
   11e36:	a825                	j	11e6e <_ZN20complex_dynamic_type3app17h19d89e10befb24d0E+0x140>
   11e38:	6509                	lui	a0,0x2
   11e3a:	43250513          	addi	a0,a0,1074 # 2432 <.Lline_table_start1+0x2207>
   11e3e:	4589                	li	a1,2
   11e40:	4601                	li	a2,0
   11e42:	4681                	li	a3,0
   11e44:	00000073          	ecall
   11e48:	01f14703          	lbu	a4,31(sp)
   11e4c:	4509                	li	a0,2
   11e4e:	00a10623          	sb	a0,12(sp)
   11e52:	00a71e63          	bne	a4,a0,11e6e <_ZN20complex_dynamic_type3app17h19d89e10befb24d0E+0x140>
   11e56:	001a8513          	addi	a0,s5,1
   11e5a:	04400613          	li	a2,68
   11e5e:	85d2                	mv	a1,s4
   11e60:	0000c097          	auipc	ra,0xc
   11e64:	6b4080e7          	jalr	1716(ra) # 1e514 <memcpy>
   11e68:	000a8023          	sb	zero,0(s5)
   11e6c:	b77d                	j	11e1a <_ZN20complex_dynamic_type3app17h19d89e10befb24d0E+0xec>
   11e6e:	6509                	lui	a0,0x2
   11e70:	43250913          	addi	s2,a0,1074 # 2432 <.Lline_table_start1+0x2207>
   11e74:	45a5                	li	a1,9
   11e76:	854a                	mv	a0,s2
   11e78:	4601                	li	a2,0
   11e7a:	4681                	li	a3,0
   11e7c:	00000073          	ecall
   11e80:	00c14983          	lbu	s3,12(sp)
   11e84:	001a8513          	addi	a0,s5,1
   11e88:	04400613          	li	a2,68
   11e8c:	85d2                	mv	a1,s4
   11e8e:	0000c097          	auipc	ra,0xc
   11e92:	686080e7          	jalr	1670(ra) # 1e514 <memcpy>
   11e96:	4509                	li	a0,2
   11e98:	000a8023          	sb	zero,0(s5)
   11e9c:	f6a98fe3          	beq	s3,a0,11e1a <_ZN20complex_dynamic_type3app17h19d89e10befb24d0E+0xec>
   11ea0:	4589                	li	a1,2
   11ea2:	854a                	mv	a0,s2
   11ea4:	4601                	li	a2,0
   11ea6:	4681                	li	a3,0
   11ea8:	874e                	mv	a4,s3
   11eaa:	00000073          	ecall
   11eae:	b7b5                	j	11e1a <_ZN20complex_dynamic_type3app17h19d89e10befb24d0E+0xec>

00011eb0 <_ZN20complex_dynamic_type3app17h1a58d52394a69be3E>:
   11eb0:	7119                	addi	sp,sp,-128
   11eb2:	de86                	sw	ra,124(sp)
   11eb4:	dca2                	sw	s0,120(sp)
   11eb6:	daa6                	sw	s1,116(sp)
   11eb8:	d8ca                	sw	s2,112(sp)
   11eba:	d6ce                	sw	s3,108(sp)
   11ebc:	d4d2                	sw	s4,104(sp)
   11ebe:	d2d6                	sw	s5,100(sp)
   11ec0:	8aaa                	mv	s5,a0
   11ec2:	4409                	li	s0,2
   11ec4:	008104a3          	sb	s0,9(sp)
   11ec8:	00a10493          	addi	s1,sp,10
   11ecc:	04100613          	li	a2,65
   11ed0:	8526                	mv	a0,s1
   11ed2:	0000c097          	auipc	ra,0xc
   11ed6:	642080e7          	jalr	1602(ra) # 1e514 <memcpy>
   11eda:	04c10a13          	addi	s4,sp,76
   11ede:	4661                	li	a2,24
   11ee0:	8552                	mv	a0,s4
   11ee2:	4581                	li	a1,0
   11ee4:	0000c097          	auipc	ra,0xc
   11ee8:	5c4080e7          	jalr	1476(ra) # 1e4a8 <memset>
   11eec:	8626                	mv	a2,s1
   11eee:	048105a3          	sb	s0,75(sp)
   11ef2:	6509                	lui	a0,0x2
   11ef4:	4805                	li	a6,1
   11ef6:	4491                	li	s1,4
   11ef8:	4585                	li	a1,1
   11efa:	15650793          	addi	a5,a0,342 # 2156 <.Lline_table_start1+0x1f2b>
   11efe:	04100693          	li	a3,65
   11f02:	4711                	li	a4,4
   11f04:	853e                	mv	a0,a5
   11f06:	00000073          	ecall
   11f0a:	00851763          	bne	a0,s0,11f18 <_ZN20complex_dynamic_type3app17h1a58d52394a69be3E+0x68>
   11f0e:	010a8023          	sb	a6,0(s5)
   11f12:	00baa223          	sw	a1,4(s5)
   11f16:	a0b5                	j	11f82 <_ZN20complex_dynamic_type3app17h1a58d52394a69be3E+0xd2>
   11f18:	853e                	mv	a0,a5
   11f1a:	8652                	mv	a2,s4
   11f1c:	009104a3          	sb	s1,9(sp)
   11f20:	478d                	li	a5,3
   11f22:	45a5                	li	a1,9
   11f24:	46e1                	li	a3,24
   11f26:	470d                	li	a4,3
   11f28:	00000073          	ecall
   11f2c:	00851d63          	bne	a0,s0,11f46 <_ZN20complex_dynamic_type3app17h1a58d52394a69be3E+0x96>
   11f30:	04b14703          	lbu	a4,75(sp)
   11f34:	4505                	li	a0,1
   11f36:	4609                	li	a2,2
   11f38:	00aa8023          	sb	a0,0(s5)
   11f3c:	00baa223          	sw	a1,4(s5)
   11f40:	02c71963          	bne	a4,a2,11f72 <_ZN20complex_dynamic_type3app17h1a58d52394a69be3E+0xc2>
   11f44:	a83d                	j	11f82 <_ZN20complex_dynamic_type3app17h1a58d52394a69be3E+0xd2>
   11f46:	4681                	li	a3,0
   11f48:	04f105a3          	sb	a5,75(sp)
   11f4c:	6509                	lui	a0,0x2
   11f4e:	4785                	li	a5,1
   11f50:	4585                	li	a1,1
   11f52:	4625                	li	a2,9
   11f54:	4709                	li	a4,2
   11f56:	15650513          	addi	a0,a0,342 # 2156 <.Lline_table_start1+0x1f2b>
   11f5a:	08000493          	li	s1,128
   11f5e:	00000073          	ecall
   11f62:	4609                	li	a2,2
   11f64:	04957563          	bgeu	a0,s1,11fae <_ZN20complex_dynamic_type3app17h1a58d52394a69be3E+0xfe>
   11f68:	00fa8023          	sb	a5,0(s5)
   11f6c:	00baa223          	sw	a1,4(s5)
   11f70:	470d                	li	a4,3
   11f72:	6509                	lui	a0,0x2
   11f74:	15650513          	addi	a0,a0,342 # 2156 <.Lline_table_start1+0x1f2b>
   11f78:	45a5                	li	a1,9
   11f7a:	4601                	li	a2,0
   11f7c:	4681                	li	a3,0
   11f7e:	00000073          	ecall
   11f82:	00914703          	lbu	a4,9(sp)
   11f86:	4509                	li	a0,2
   11f88:	00a70a63          	beq	a4,a0,11f9c <_ZN20complex_dynamic_type3app17h1a58d52394a69be3E+0xec>
   11f8c:	6509                	lui	a0,0x2
   11f8e:	15650513          	addi	a0,a0,342 # 2156 <.Lline_table_start1+0x1f2b>
   11f92:	4585                	li	a1,1
   11f94:	4601                	li	a2,0
   11f96:	4681                	li	a3,0
   11f98:	00000073          	ecall
   11f9c:	50f6                	lw	ra,124(sp)
   11f9e:	5466                	lw	s0,120(sp)
   11fa0:	54d6                	lw	s1,116(sp)
   11fa2:	5946                	lw	s2,112(sp)
   11fa4:	59b6                	lw	s3,108(sp)
   11fa6:	5a26                	lw	s4,104(sp)
   11fa8:	5a96                	lw	s5,100(sp)
   11faa:	6109                	addi	sp,sp,128
   11fac:	8082                	ret
   11fae:	00914703          	lbu	a4,9(sp)
   11fb2:	00c71463          	bne	a4,a2,11fba <_ZN20complex_dynamic_type3app17h1a58d52394a69be3E+0x10a>
   11fb6:	470d                	li	a4,3
   11fb8:	a81d                	j	11fee <_ZN20complex_dynamic_type3app17h1a58d52394a69be3E+0x13e>
   11fba:	6509                	lui	a0,0x2
   11fbc:	15650513          	addi	a0,a0,342 # 2156 <.Lline_table_start1+0x1f2b>
   11fc0:	4585                	li	a1,1
   11fc2:	4601                	li	a2,0
   11fc4:	4681                	li	a3,0
   11fc6:	00000073          	ecall
   11fca:	04b14703          	lbu	a4,75(sp)
   11fce:	4509                	li	a0,2
   11fd0:	00a104a3          	sb	a0,9(sp)
   11fd4:	00a71d63          	bne	a4,a0,11fee <_ZN20complex_dynamic_type3app17h1a58d52394a69be3E+0x13e>
   11fd8:	001a8513          	addi	a0,s5,1
   11fdc:	4661                	li	a2,24
   11fde:	85d2                	mv	a1,s4
   11fe0:	0000c097          	auipc	ra,0xc
   11fe4:	534080e7          	jalr	1332(ra) # 1e514 <memcpy>
   11fe8:	000a8023          	sb	zero,0(s5)
   11fec:	bf45                	j	11f9c <_ZN20complex_dynamic_type3app17h1a58d52394a69be3E+0xec>
   11fee:	6509                	lui	a0,0x2
   11ff0:	15650913          	addi	s2,a0,342 # 2156 <.Lline_table_start1+0x1f2b>
   11ff4:	45a5                	li	a1,9
   11ff6:	854a                	mv	a0,s2
   11ff8:	4601                	li	a2,0
   11ffa:	4681                	li	a3,0
   11ffc:	00000073          	ecall
   12000:	00914983          	lbu	s3,9(sp)
   12004:	001a8513          	addi	a0,s5,1
   12008:	4661                	li	a2,24
   1200a:	85d2                	mv	a1,s4
   1200c:	0000c097          	auipc	ra,0xc
   12010:	508080e7          	jalr	1288(ra) # 1e514 <memcpy>
   12014:	4509                	li	a0,2
   12016:	000a8023          	sb	zero,0(s5)
   1201a:	f8a981e3          	beq	s3,a0,11f9c <_ZN20complex_dynamic_type3app17h1a58d52394a69be3E+0xec>
   1201e:	4585                	li	a1,1
   12020:	854a                	mv	a0,s2
   12022:	4601                	li	a2,0
   12024:	4681                	li	a3,0
   12026:	874e                	mv	a4,s3
   12028:	00000073          	ecall
   1202c:	bf85                	j	11f9c <_ZN20complex_dynamic_type3app17h1a58d52394a69be3E+0xec>

0001202e <_ZN20complex_dynamic_type3app17h1d6bb1472ff079d4E>:
   1202e:	7159                	addi	sp,sp,-112
   12030:	d686                	sw	ra,108(sp)
   12032:	d4a2                	sw	s0,104(sp)
   12034:	d2a6                	sw	s1,100(sp)
   12036:	d0ca                	sw	s2,96(sp)
   12038:	cece                	sw	s3,92(sp)
   1203a:	ccd2                	sw	s4,88(sp)
   1203c:	cad6                	sw	s5,84(sp)
   1203e:	8aaa                	mv	s5,a0
   12040:	4409                	li	s0,2
   12042:	00810023          	sb	s0,0(sp)
   12046:	00110493          	addi	s1,sp,1
   1204a:	02a00613          	li	a2,42
   1204e:	8526                	mv	a0,s1
   12050:	0000c097          	auipc	ra,0xc
   12054:	4c4080e7          	jalr	1220(ra) # 1e514 <memcpy>
   12058:	02c10a13          	addi	s4,sp,44
   1205c:	02800613          	li	a2,40
   12060:	8552                	mv	a0,s4
   12062:	4581                	li	a1,0
   12064:	0000c097          	auipc	ra,0xc
   12068:	444080e7          	jalr	1092(ra) # 1e4a8 <memset>
   1206c:	8626                	mv	a2,s1
   1206e:	028105a3          	sb	s0,43(sp)
   12072:	6509                	lui	a0,0x2
   12074:	4491                	li	s1,4
   12076:	4591                	li	a1,4
   12078:	efa50793          	addi	a5,a0,-262 # 1efa <.Lline_table_start1+0x1ccf>
   1207c:	02a00693          	li	a3,42
   12080:	4711                	li	a4,4
   12082:	853e                	mv	a0,a5
   12084:	00000073          	ecall
   12088:	00851863          	bne	a0,s0,12098 <_ZN20complex_dynamic_type3app17h1d6bb1472ff079d4E+0x6a>
   1208c:	4505                	li	a0,1
   1208e:	00aa8023          	sb	a0,0(s5)
   12092:	00baa223          	sw	a1,4(s5)
   12096:	a0bd                	j	12104 <_ZN20complex_dynamic_type3app17h1d6bb1472ff079d4E+0xd6>
   12098:	853e                	mv	a0,a5
   1209a:	8652                	mv	a2,s4
   1209c:	00910023          	sb	s1,0(sp)
   120a0:	478d                	li	a5,3
   120a2:	45a1                	li	a1,8
   120a4:	02800693          	li	a3,40
   120a8:	470d                	li	a4,3
   120aa:	00000073          	ecall
   120ae:	00851d63          	bne	a0,s0,120c8 <_ZN20complex_dynamic_type3app17h1d6bb1472ff079d4E+0x9a>
   120b2:	02b14703          	lbu	a4,43(sp)
   120b6:	4505                	li	a0,1
   120b8:	4609                	li	a2,2
   120ba:	00aa8023          	sb	a0,0(s5)
   120be:	00baa223          	sw	a1,4(s5)
   120c2:	02c71963          	bne	a4,a2,120f4 <_ZN20complex_dynamic_type3app17h1d6bb1472ff079d4E+0xc6>
   120c6:	a83d                	j	12104 <_ZN20complex_dynamic_type3app17h1d6bb1472ff079d4E+0xd6>
   120c8:	4681                	li	a3,0
   120ca:	02f105a3          	sb	a5,43(sp)
   120ce:	6509                	lui	a0,0x2
   120d0:	4591                	li	a1,4
   120d2:	4621                	li	a2,8
   120d4:	4709                	li	a4,2
   120d6:	efa50513          	addi	a0,a0,-262 # 1efa <.Lline_table_start1+0x1ccf>
   120da:	08000793          	li	a5,128
   120de:	00000073          	ecall
   120e2:	4609                	li	a2,2
   120e4:	04f57663          	bgeu	a0,a5,12130 <_ZN20complex_dynamic_type3app17h1d6bb1472ff079d4E+0x102>
   120e8:	4505                	li	a0,1
   120ea:	00aa8023          	sb	a0,0(s5)
   120ee:	00baa223          	sw	a1,4(s5)
   120f2:	470d                	li	a4,3
   120f4:	6509                	lui	a0,0x2
   120f6:	efa50513          	addi	a0,a0,-262 # 1efa <.Lline_table_start1+0x1ccf>
   120fa:	45a1                	li	a1,8
   120fc:	4601                	li	a2,0
   120fe:	4681                	li	a3,0
   12100:	00000073          	ecall
   12104:	00014703          	lbu	a4,0(sp)
   12108:	4509                	li	a0,2
   1210a:	00a70a63          	beq	a4,a0,1211e <_ZN20complex_dynamic_type3app17h1d6bb1472ff079d4E+0xf0>
   1210e:	6509                	lui	a0,0x2
   12110:	efa50513          	addi	a0,a0,-262 # 1efa <.Lline_table_start1+0x1ccf>
   12114:	4591                	li	a1,4
   12116:	4601                	li	a2,0
   12118:	4681                	li	a3,0
   1211a:	00000073          	ecall
   1211e:	50b6                	lw	ra,108(sp)
   12120:	5426                	lw	s0,104(sp)
   12122:	5496                	lw	s1,100(sp)
   12124:	5906                	lw	s2,96(sp)
   12126:	49f6                	lw	s3,92(sp)
   12128:	4a66                	lw	s4,88(sp)
   1212a:	4ad6                	lw	s5,84(sp)
   1212c:	6165                	addi	sp,sp,112
   1212e:	8082                	ret
   12130:	00014703          	lbu	a4,0(sp)
   12134:	00c71463          	bne	a4,a2,1213c <_ZN20complex_dynamic_type3app17h1d6bb1472ff079d4E+0x10e>
   12138:	470d                	li	a4,3
   1213a:	a825                	j	12172 <_ZN20complex_dynamic_type3app17h1d6bb1472ff079d4E+0x144>
   1213c:	6509                	lui	a0,0x2
   1213e:	efa50513          	addi	a0,a0,-262 # 1efa <.Lline_table_start1+0x1ccf>
   12142:	4591                	li	a1,4
   12144:	4601                	li	a2,0
   12146:	4681                	li	a3,0
   12148:	00000073          	ecall
   1214c:	02b14703          	lbu	a4,43(sp)
   12150:	4509                	li	a0,2
   12152:	00a10023          	sb	a0,0(sp)
   12156:	00a71e63          	bne	a4,a0,12172 <_ZN20complex_dynamic_type3app17h1d6bb1472ff079d4E+0x144>
   1215a:	001a8513          	addi	a0,s5,1
   1215e:	02800613          	li	a2,40
   12162:	85d2                	mv	a1,s4
   12164:	0000c097          	auipc	ra,0xc
   12168:	3b0080e7          	jalr	944(ra) # 1e514 <memcpy>
   1216c:	000a8023          	sb	zero,0(s5)
   12170:	b77d                	j	1211e <_ZN20complex_dynamic_type3app17h1d6bb1472ff079d4E+0xf0>
   12172:	6509                	lui	a0,0x2
   12174:	efa50913          	addi	s2,a0,-262 # 1efa <.Lline_table_start1+0x1ccf>
   12178:	45a1                	li	a1,8
   1217a:	854a                	mv	a0,s2
   1217c:	4601                	li	a2,0
   1217e:	4681                	li	a3,0
   12180:	00000073          	ecall
   12184:	00014983          	lbu	s3,0(sp)
   12188:	001a8513          	addi	a0,s5,1
   1218c:	02800613          	li	a2,40
   12190:	85d2                	mv	a1,s4
   12192:	0000c097          	auipc	ra,0xc
   12196:	382080e7          	jalr	898(ra) # 1e514 <memcpy>
   1219a:	4509                	li	a0,2
   1219c:	000a8023          	sb	zero,0(s5)
   121a0:	f6a98fe3          	beq	s3,a0,1211e <_ZN20complex_dynamic_type3app17h1d6bb1472ff079d4E+0xf0>
   121a4:	4591                	li	a1,4
   121a6:	854a                	mv	a0,s2
   121a8:	4601                	li	a2,0
   121aa:	4681                	li	a3,0
   121ac:	874e                	mv	a4,s3
   121ae:	00000073          	ecall
   121b2:	b7b5                	j	1211e <_ZN20complex_dynamic_type3app17h1d6bb1472ff079d4E+0xf0>

000121b4 <_ZN20complex_dynamic_type3app17h1dc261f9faa89b8eE>:
   121b4:	7119                	addi	sp,sp,-128
   121b6:	de86                	sw	ra,124(sp)
   121b8:	dca2                	sw	s0,120(sp)
   121ba:	daa6                	sw	s1,116(sp)
   121bc:	d8ca                	sw	s2,112(sp)
   121be:	d6ce                	sw	s3,108(sp)
   121c0:	d4d2                	sw	s4,104(sp)
   121c2:	8a2a                	mv	s4,a0
   121c4:	4409                	li	s0,2
   121c6:	00810523          	sb	s0,10(sp)
   121ca:	00b10493          	addi	s1,sp,11
   121ce:	466d                	li	a2,27
   121d0:	8526                	mv	a0,s1
   121d2:	0000c097          	auipc	ra,0xc
   121d6:	342080e7          	jalr	834(ra) # 1e514 <memcpy>
   121da:	02710993          	addi	s3,sp,39
   121de:	04100613          	li	a2,65
   121e2:	854e                	mv	a0,s3
   121e4:	4581                	li	a1,0
   121e6:	0000c097          	auipc	ra,0xc
   121ea:	2c2080e7          	jalr	706(ra) # 1e4a8 <memset>
   121ee:	8626                	mv	a2,s1
   121f0:	02810323          	sb	s0,38(sp)
   121f4:	4791                	li	a5,4
   121f6:	14000513          	li	a0,320
   121fa:	45a1                	li	a1,8
   121fc:	46ed                	li	a3,27
   121fe:	4711                	li	a4,4
   12200:	00000073          	ecall
   12204:	00851863          	bne	a0,s0,12214 <_ZN20complex_dynamic_type3app17h1dc261f9faa89b8eE+0x60>
   12208:	4505                	li	a0,1
   1220a:	00aa0023          	sb	a0,0(s4)
   1220e:	00ba2223          	sw	a1,4(s4)
   12212:	a0b5                	j	1227e <_ZN20complex_dynamic_type3app17h1dc261f9faa89b8eE+0xca>
   12214:	864e                	mv	a2,s3
   12216:	00f10523          	sb	a5,10(sp)
   1221a:	478d                	li	a5,3
   1221c:	14000513          	li	a0,320
   12220:	45a5                	li	a1,9
   12222:	04100693          	li	a3,65
   12226:	470d                	li	a4,3
   12228:	00000073          	ecall
   1222c:	00851d63          	bne	a0,s0,12246 <_ZN20complex_dynamic_type3app17h1dc261f9faa89b8eE+0x92>
   12230:	02614703          	lbu	a4,38(sp)
   12234:	4505                	li	a0,1
   12236:	4609                	li	a2,2
   12238:	00aa0023          	sb	a0,0(s4)
   1223c:	00ba2223          	sw	a1,4(s4)
   12240:	02c71863          	bne	a4,a2,12270 <_ZN20complex_dynamic_type3app17h1dc261f9faa89b8eE+0xbc>
   12244:	a82d                	j	1227e <_ZN20complex_dynamic_type3app17h1dc261f9faa89b8eE+0xca>
   12246:	4681                	li	a3,0
   12248:	02f10323          	sb	a5,38(sp)
   1224c:	14000513          	li	a0,320
   12250:	45a1                	li	a1,8
   12252:	4625                	li	a2,9
   12254:	4709                	li	a4,2
   12256:	08000793          	li	a5,128
   1225a:	00000073          	ecall
   1225e:	4609                	li	a2,2
   12260:	04f57363          	bgeu	a0,a5,122a6 <_ZN20complex_dynamic_type3app17h1dc261f9faa89b8eE+0xf2>
   12264:	4505                	li	a0,1
   12266:	00aa0023          	sb	a0,0(s4)
   1226a:	00ba2223          	sw	a1,4(s4)
   1226e:	470d                	li	a4,3
   12270:	14000513          	li	a0,320
   12274:	45a5                	li	a1,9
   12276:	4601                	li	a2,0
   12278:	4681                	li	a3,0
   1227a:	00000073          	ecall
   1227e:	00a14703          	lbu	a4,10(sp)
   12282:	4509                	li	a0,2
   12284:	00a70963          	beq	a4,a0,12296 <_ZN20complex_dynamic_type3app17h1dc261f9faa89b8eE+0xe2>
   12288:	14000513          	li	a0,320
   1228c:	45a1                	li	a1,8
   1228e:	4601                	li	a2,0
   12290:	4681                	li	a3,0
   12292:	00000073          	ecall
   12296:	50f6                	lw	ra,124(sp)
   12298:	5466                	lw	s0,120(sp)
   1229a:	54d6                	lw	s1,116(sp)
   1229c:	5946                	lw	s2,112(sp)
   1229e:	59b6                	lw	s3,108(sp)
   122a0:	5a26                	lw	s4,104(sp)
   122a2:	6109                	addi	sp,sp,128
   122a4:	8082                	ret
   122a6:	00a14703          	lbu	a4,10(sp)
   122aa:	00c71463          	bne	a4,a2,122b2 <_ZN20complex_dynamic_type3app17h1dc261f9faa89b8eE+0xfe>
   122ae:	470d                	li	a4,3
   122b0:	a81d                	j	122e6 <_ZN20complex_dynamic_type3app17h1dc261f9faa89b8eE+0x132>
   122b2:	14000513          	li	a0,320
   122b6:	45a1                	li	a1,8
   122b8:	4601                	li	a2,0
   122ba:	4681                	li	a3,0
   122bc:	00000073          	ecall
   122c0:	02614703          	lbu	a4,38(sp)
   122c4:	4509                	li	a0,2
   122c6:	00a10523          	sb	a0,10(sp)
   122ca:	00a71e63          	bne	a4,a0,122e6 <_ZN20complex_dynamic_type3app17h1dc261f9faa89b8eE+0x132>
   122ce:	001a0513          	addi	a0,s4,1
   122d2:	04100613          	li	a2,65
   122d6:	85ce                	mv	a1,s3
   122d8:	0000c097          	auipc	ra,0xc
   122dc:	23c080e7          	jalr	572(ra) # 1e514 <memcpy>
   122e0:	000a0023          	sb	zero,0(s4)
   122e4:	bf4d                	j	12296 <_ZN20complex_dynamic_type3app17h1dc261f9faa89b8eE+0xe2>
   122e6:	14000513          	li	a0,320
   122ea:	45a5                	li	a1,9
   122ec:	4601                	li	a2,0
   122ee:	4681                	li	a3,0
   122f0:	00000073          	ecall
   122f4:	00a14903          	lbu	s2,10(sp)
   122f8:	001a0513          	addi	a0,s4,1
   122fc:	04100613          	li	a2,65
   12300:	85ce                	mv	a1,s3
   12302:	0000c097          	auipc	ra,0xc
   12306:	212080e7          	jalr	530(ra) # 1e514 <memcpy>
   1230a:	4509                	li	a0,2
   1230c:	000a0023          	sb	zero,0(s4)
   12310:	f8a903e3          	beq	s2,a0,12296 <_ZN20complex_dynamic_type3app17h1dc261f9faa89b8eE+0xe2>
   12314:	14000513          	li	a0,320
   12318:	45a1                	li	a1,8
   1231a:	4601                	li	a2,0
   1231c:	4681                	li	a3,0
   1231e:	874a                	mv	a4,s2
   12320:	00000073          	ecall
   12324:	bf8d                	j	12296 <_ZN20complex_dynamic_type3app17h1dc261f9faa89b8eE+0xe2>

00012326 <_ZN20complex_dynamic_type3app17h1e14f9b9f47f36e3E>:
   12326:	7175                	addi	sp,sp,-144
   12328:	c706                	sw	ra,140(sp)
   1232a:	c522                	sw	s0,136(sp)
   1232c:	c326                	sw	s1,132(sp)
   1232e:	c14a                	sw	s2,128(sp)
   12330:	dece                	sw	s3,124(sp)
   12332:	dcd2                	sw	s4,120(sp)
   12334:	dad6                	sw	s5,116(sp)
   12336:	8aaa                	mv	s5,a0
   12338:	4409                	li	s0,2
   1233a:	00810623          	sb	s0,12(sp)
   1233e:	00d10493          	addi	s1,sp,13
   12342:	05500613          	li	a2,85
   12346:	8526                	mv	a0,s1
   12348:	0000c097          	auipc	ra,0xc
   1234c:	1cc080e7          	jalr	460(ra) # 1e514 <memcpy>
   12350:	06310a13          	addi	s4,sp,99
   12354:	4645                	li	a2,17
   12356:	8552                	mv	a0,s4
   12358:	4581                	li	a1,0
   1235a:	0000c097          	auipc	ra,0xc
   1235e:	14e080e7          	jalr	334(ra) # 1e4a8 <memset>
   12362:	8626                	mv	a2,s1
   12364:	06810123          	sb	s0,98(sp)
   12368:	6505                	lui	a0,0x1
   1236a:	4491                	li	s1,4
   1236c:	4589                	li	a1,2
   1236e:	c8950793          	addi	a5,a0,-887 # c89 <.Lline_table_start1+0xa5e>
   12372:	05500693          	li	a3,85
   12376:	4711                	li	a4,4
   12378:	853e                	mv	a0,a5
   1237a:	00000073          	ecall
   1237e:	00851863          	bne	a0,s0,1238e <_ZN20complex_dynamic_type3app17h1e14f9b9f47f36e3E+0x68>
   12382:	4505                	li	a0,1
   12384:	00aa8023          	sb	a0,0(s5)
   12388:	00baa223          	sw	a1,4(s5)
   1238c:	a0b5                	j	123f8 <_ZN20complex_dynamic_type3app17h1e14f9b9f47f36e3E+0xd2>
   1238e:	853e                	mv	a0,a5
   12390:	8652                	mv	a2,s4
   12392:	00910623          	sb	s1,12(sp)
   12396:	478d                	li	a5,3
   12398:	4589                	li	a1,2
   1239a:	46c5                	li	a3,17
   1239c:	470d                	li	a4,3
   1239e:	00000073          	ecall
   123a2:	00851d63          	bne	a0,s0,123bc <_ZN20complex_dynamic_type3app17h1e14f9b9f47f36e3E+0x96>
   123a6:	06214703          	lbu	a4,98(sp)
   123aa:	4505                	li	a0,1
   123ac:	4609                	li	a2,2
   123ae:	00aa8023          	sb	a0,0(s5)
   123b2:	00baa223          	sw	a1,4(s5)
   123b6:	02c71963          	bne	a4,a2,123e8 <_ZN20complex_dynamic_type3app17h1e14f9b9f47f36e3E+0xc2>
   123ba:	a83d                	j	123f8 <_ZN20complex_dynamic_type3app17h1e14f9b9f47f36e3E+0xd2>
   123bc:	4681                	li	a3,0
   123be:	06f10123          	sb	a5,98(sp)
   123c2:	6505                	lui	a0,0x1
   123c4:	4589                	li	a1,2
   123c6:	4609                	li	a2,2
   123c8:	4709                	li	a4,2
   123ca:	c8950513          	addi	a0,a0,-887 # c89 <.Lline_table_start1+0xa5e>
   123ce:	08000793          	li	a5,128
   123d2:	00000073          	ecall
   123d6:	4609                	li	a2,2
   123d8:	04f57663          	bgeu	a0,a5,12424 <_ZN20complex_dynamic_type3app17h1e14f9b9f47f36e3E+0xfe>
   123dc:	4505                	li	a0,1
   123de:	00aa8023          	sb	a0,0(s5)
   123e2:	00baa223          	sw	a1,4(s5)
   123e6:	470d                	li	a4,3
   123e8:	6505                	lui	a0,0x1
   123ea:	c8950513          	addi	a0,a0,-887 # c89 <.Lline_table_start1+0xa5e>
   123ee:	4589                	li	a1,2
   123f0:	4601                	li	a2,0
   123f2:	4681                	li	a3,0
   123f4:	00000073          	ecall
   123f8:	00c14703          	lbu	a4,12(sp)
   123fc:	4509                	li	a0,2
   123fe:	00a70a63          	beq	a4,a0,12412 <_ZN20complex_dynamic_type3app17h1e14f9b9f47f36e3E+0xec>
   12402:	6505                	lui	a0,0x1
   12404:	c8950513          	addi	a0,a0,-887 # c89 <.Lline_table_start1+0xa5e>
   12408:	4589                	li	a1,2
   1240a:	4601                	li	a2,0
   1240c:	4681                	li	a3,0
   1240e:	00000073          	ecall
   12412:	40ba                	lw	ra,140(sp)
   12414:	442a                	lw	s0,136(sp)
   12416:	449a                	lw	s1,132(sp)
   12418:	490a                	lw	s2,128(sp)
   1241a:	59f6                	lw	s3,124(sp)
   1241c:	5a66                	lw	s4,120(sp)
   1241e:	5ad6                	lw	s5,116(sp)
   12420:	6149                	addi	sp,sp,144
   12422:	8082                	ret
   12424:	00c14703          	lbu	a4,12(sp)
   12428:	00c71463          	bne	a4,a2,12430 <_ZN20complex_dynamic_type3app17h1e14f9b9f47f36e3E+0x10a>
   1242c:	470d                	li	a4,3
   1242e:	a81d                	j	12464 <_ZN20complex_dynamic_type3app17h1e14f9b9f47f36e3E+0x13e>
   12430:	6505                	lui	a0,0x1
   12432:	c8950513          	addi	a0,a0,-887 # c89 <.Lline_table_start1+0xa5e>
   12436:	4589                	li	a1,2
   12438:	4601                	li	a2,0
   1243a:	4681                	li	a3,0
   1243c:	00000073          	ecall
   12440:	06214703          	lbu	a4,98(sp)
   12444:	4509                	li	a0,2
   12446:	00a10623          	sb	a0,12(sp)
   1244a:	00a71d63          	bne	a4,a0,12464 <_ZN20complex_dynamic_type3app17h1e14f9b9f47f36e3E+0x13e>
   1244e:	001a8513          	addi	a0,s5,1
   12452:	4645                	li	a2,17
   12454:	85d2                	mv	a1,s4
   12456:	0000c097          	auipc	ra,0xc
   1245a:	0be080e7          	jalr	190(ra) # 1e514 <memcpy>
   1245e:	000a8023          	sb	zero,0(s5)
   12462:	bf45                	j	12412 <_ZN20complex_dynamic_type3app17h1e14f9b9f47f36e3E+0xec>
   12464:	4601                	li	a2,0
   12466:	4681                	li	a3,0
   12468:	6505                	lui	a0,0x1
   1246a:	c8950913          	addi	s2,a0,-887 # c89 <.Lline_table_start1+0xa5e>
   1246e:	4589                	li	a1,2
   12470:	854a                	mv	a0,s2
   12472:	00000073          	ecall
   12476:	00c14983          	lbu	s3,12(sp)
   1247a:	4409                	li	s0,2
   1247c:	001a8513          	addi	a0,s5,1
   12480:	4645                	li	a2,17
   12482:	85d2                	mv	a1,s4
   12484:	0000c097          	auipc	ra,0xc
   12488:	090080e7          	jalr	144(ra) # 1e514 <memcpy>
   1248c:	000a8023          	sb	zero,0(s5)
   12490:	f88981e3          	beq	s3,s0,12412 <_ZN20complex_dynamic_type3app17h1e14f9b9f47f36e3E+0xec>
   12494:	4589                	li	a1,2
   12496:	854a                	mv	a0,s2
   12498:	4601                	li	a2,0
   1249a:	4681                	li	a3,0
   1249c:	874e                	mv	a4,s3
   1249e:	00000073          	ecall
   124a2:	bf85                	j	12412 <_ZN20complex_dynamic_type3app17h1e14f9b9f47f36e3E+0xec>

000124a4 <_ZN20complex_dynamic_type3app17h23ceaa8d10c95411E>:
   124a4:	7175                	addi	sp,sp,-144
   124a6:	c706                	sw	ra,140(sp)
   124a8:	c522                	sw	s0,136(sp)
   124aa:	c326                	sw	s1,132(sp)
   124ac:	c14a                	sw	s2,128(sp)
   124ae:	dece                	sw	s3,124(sp)
   124b0:	dcd2                	sw	s4,120(sp)
   124b2:	dad6                	sw	s5,116(sp)
   124b4:	8aaa                	mv	s5,a0
   124b6:	4409                	li	s0,2
   124b8:	008100a3          	sb	s0,1(sp)
   124bc:	00210493          	addi	s1,sp,2
   124c0:	04800613          	li	a2,72
   124c4:	8526                	mv	a0,s1
   124c6:	0000c097          	auipc	ra,0xc
   124ca:	04e080e7          	jalr	78(ra) # 1e514 <memcpy>
   124ce:	04b10a13          	addi	s4,sp,75
   124d2:	02900613          	li	a2,41
   124d6:	8552                	mv	a0,s4
   124d8:	4581                	li	a1,0
   124da:	0000c097          	auipc	ra,0xc
   124de:	fce080e7          	jalr	-50(ra) # 1e4a8 <memset>
   124e2:	8626                	mv	a2,s1
   124e4:	04810523          	sb	s0,74(sp)
   124e8:	6509                	lui	a0,0x2
   124ea:	4491                	li	s1,4
   124ec:	458d                	li	a1,3
   124ee:	6a450793          	addi	a5,a0,1700 # 26a4 <.Lline_table_start1+0x2479>
   124f2:	04800693          	li	a3,72
   124f6:	4711                	li	a4,4
   124f8:	853e                	mv	a0,a5
   124fa:	00000073          	ecall
   124fe:	00851863          	bne	a0,s0,1250e <_ZN20complex_dynamic_type3app17h23ceaa8d10c95411E+0x6a>
   12502:	4505                	li	a0,1
   12504:	00aa8023          	sb	a0,0(s5)
   12508:	00baa223          	sw	a1,4(s5)
   1250c:	a0bd                	j	1257a <_ZN20complex_dynamic_type3app17h23ceaa8d10c95411E+0xd6>
   1250e:	853e                	mv	a0,a5
   12510:	8652                	mv	a2,s4
   12512:	009100a3          	sb	s1,1(sp)
   12516:	478d                	li	a5,3
   12518:	4591                	li	a1,4
   1251a:	02900693          	li	a3,41
   1251e:	470d                	li	a4,3
   12520:	00000073          	ecall
   12524:	00851d63          	bne	a0,s0,1253e <_ZN20complex_dynamic_type3app17h23ceaa8d10c95411E+0x9a>
   12528:	04a14703          	lbu	a4,74(sp)
   1252c:	4505                	li	a0,1
   1252e:	4609                	li	a2,2
   12530:	00aa8023          	sb	a0,0(s5)
   12534:	00baa223          	sw	a1,4(s5)
   12538:	02c71963          	bne	a4,a2,1256a <_ZN20complex_dynamic_type3app17h23ceaa8d10c95411E+0xc6>
   1253c:	a83d                	j	1257a <_ZN20complex_dynamic_type3app17h23ceaa8d10c95411E+0xd6>
   1253e:	4681                	li	a3,0
   12540:	04f10523          	sb	a5,74(sp)
   12544:	6509                	lui	a0,0x2
   12546:	458d                	li	a1,3
   12548:	4611                	li	a2,4
   1254a:	4709                	li	a4,2
   1254c:	6a450513          	addi	a0,a0,1700 # 26a4 <.Lline_table_start1+0x2479>
   12550:	08000793          	li	a5,128
   12554:	00000073          	ecall
   12558:	4609                	li	a2,2
   1255a:	04f57663          	bgeu	a0,a5,125a6 <_ZN20complex_dynamic_type3app17h23ceaa8d10c95411E+0x102>
   1255e:	4505                	li	a0,1
   12560:	00aa8023          	sb	a0,0(s5)
   12564:	00baa223          	sw	a1,4(s5)
   12568:	470d                	li	a4,3
   1256a:	6509                	lui	a0,0x2
   1256c:	6a450513          	addi	a0,a0,1700 # 26a4 <.Lline_table_start1+0x2479>
   12570:	4591                	li	a1,4
   12572:	4601                	li	a2,0
   12574:	4681                	li	a3,0
   12576:	00000073          	ecall
   1257a:	00114703          	lbu	a4,1(sp)
   1257e:	4509                	li	a0,2
   12580:	00a70a63          	beq	a4,a0,12594 <_ZN20complex_dynamic_type3app17h23ceaa8d10c95411E+0xf0>
   12584:	6509                	lui	a0,0x2
   12586:	6a450513          	addi	a0,a0,1700 # 26a4 <.Lline_table_start1+0x2479>
   1258a:	458d                	li	a1,3
   1258c:	4601                	li	a2,0
   1258e:	4681                	li	a3,0
   12590:	00000073          	ecall
   12594:	40ba                	lw	ra,140(sp)
   12596:	442a                	lw	s0,136(sp)
   12598:	449a                	lw	s1,132(sp)
   1259a:	490a                	lw	s2,128(sp)
   1259c:	59f6                	lw	s3,124(sp)
   1259e:	5a66                	lw	s4,120(sp)
   125a0:	5ad6                	lw	s5,116(sp)
   125a2:	6149                	addi	sp,sp,144
   125a4:	8082                	ret
   125a6:	00114703          	lbu	a4,1(sp)
   125aa:	00c71463          	bne	a4,a2,125b2 <_ZN20complex_dynamic_type3app17h23ceaa8d10c95411E+0x10e>
   125ae:	470d                	li	a4,3
   125b0:	a825                	j	125e8 <_ZN20complex_dynamic_type3app17h23ceaa8d10c95411E+0x144>
   125b2:	6509                	lui	a0,0x2
   125b4:	6a450513          	addi	a0,a0,1700 # 26a4 <.Lline_table_start1+0x2479>
   125b8:	458d                	li	a1,3
   125ba:	4601                	li	a2,0
   125bc:	4681                	li	a3,0
   125be:	00000073          	ecall
   125c2:	04a14703          	lbu	a4,74(sp)
   125c6:	4509                	li	a0,2
   125c8:	00a100a3          	sb	a0,1(sp)
   125cc:	00a71e63          	bne	a4,a0,125e8 <_ZN20complex_dynamic_type3app17h23ceaa8d10c95411E+0x144>
   125d0:	001a8513          	addi	a0,s5,1
   125d4:	02900613          	li	a2,41
   125d8:	85d2                	mv	a1,s4
   125da:	0000c097          	auipc	ra,0xc
   125de:	f3a080e7          	jalr	-198(ra) # 1e514 <memcpy>
   125e2:	000a8023          	sb	zero,0(s5)
   125e6:	b77d                	j	12594 <_ZN20complex_dynamic_type3app17h23ceaa8d10c95411E+0xf0>
   125e8:	6509                	lui	a0,0x2
   125ea:	6a450913          	addi	s2,a0,1700 # 26a4 <.Lline_table_start1+0x2479>
   125ee:	4591                	li	a1,4
   125f0:	854a                	mv	a0,s2
   125f2:	4601                	li	a2,0
   125f4:	4681                	li	a3,0
   125f6:	00000073          	ecall
   125fa:	00114983          	lbu	s3,1(sp)
   125fe:	001a8513          	addi	a0,s5,1
   12602:	02900613          	li	a2,41
   12606:	85d2                	mv	a1,s4
   12608:	0000c097          	auipc	ra,0xc
   1260c:	f0c080e7          	jalr	-244(ra) # 1e514 <memcpy>
   12610:	4509                	li	a0,2
   12612:	000a8023          	sb	zero,0(s5)
   12616:	f6a98fe3          	beq	s3,a0,12594 <_ZN20complex_dynamic_type3app17h23ceaa8d10c95411E+0xf0>
   1261a:	458d                	li	a1,3
   1261c:	854a                	mv	a0,s2
   1261e:	4601                	li	a2,0
   12620:	4681                	li	a3,0
   12622:	874e                	mv	a4,s3
   12624:	00000073          	ecall
   12628:	b7b5                	j	12594 <_ZN20complex_dynamic_type3app17h23ceaa8d10c95411E+0xf0>

0001262a <_ZN20complex_dynamic_type3app17h28f7c16d8b7ea423E>:
   1262a:	7119                	addi	sp,sp,-128
   1262c:	de86                	sw	ra,124(sp)
   1262e:	dca2                	sw	s0,120(sp)
   12630:	daa6                	sw	s1,116(sp)
   12632:	d8ca                	sw	s2,112(sp)
   12634:	d6ce                	sw	s3,108(sp)
   12636:	d4d2                	sw	s4,104(sp)
   12638:	d2d6                	sw	s5,100(sp)
   1263a:	8aaa                	mv	s5,a0
   1263c:	4409                	li	s0,2
   1263e:	008105a3          	sb	s0,11(sp)
   12642:	0064                	addi	s1,sp,12
   12644:	04800613          	li	a2,72
   12648:	8526                	mv	a0,s1
   1264a:	0000c097          	auipc	ra,0xc
   1264e:	eca080e7          	jalr	-310(ra) # 1e514 <memcpy>
   12652:	05510a13          	addi	s4,sp,85
   12656:	463d                	li	a2,15
   12658:	8552                	mv	a0,s4
   1265a:	4581                	li	a1,0
   1265c:	0000c097          	auipc	ra,0xc
   12660:	e4c080e7          	jalr	-436(ra) # 1e4a8 <memset>
   12664:	8626                	mv	a2,s1
   12666:	04810a23          	sb	s0,84(sp)
   1266a:	6505                	lui	a0,0x1
   1266c:	4491                	li	s1,4
   1266e:	45a1                	li	a1,8
   12670:	11d50793          	addi	a5,a0,285 # 111d <.Lline_table_start1+0xef2>
   12674:	04800693          	li	a3,72
   12678:	4711                	li	a4,4
   1267a:	853e                	mv	a0,a5
   1267c:	00000073          	ecall
   12680:	00851863          	bne	a0,s0,12690 <_ZN20complex_dynamic_type3app17h28f7c16d8b7ea423E+0x66>
   12684:	4505                	li	a0,1
   12686:	00aa8023          	sb	a0,0(s5)
   1268a:	00baa223          	sw	a1,4(s5)
   1268e:	a0b5                	j	126fa <_ZN20complex_dynamic_type3app17h28f7c16d8b7ea423E+0xd0>
   12690:	853e                	mv	a0,a5
   12692:	8652                	mv	a2,s4
   12694:	009105a3          	sb	s1,11(sp)
   12698:	478d                	li	a5,3
   1269a:	45a5                	li	a1,9
   1269c:	46bd                	li	a3,15
   1269e:	470d                	li	a4,3
   126a0:	00000073          	ecall
   126a4:	00851d63          	bne	a0,s0,126be <_ZN20complex_dynamic_type3app17h28f7c16d8b7ea423E+0x94>
   126a8:	05414703          	lbu	a4,84(sp)
   126ac:	4505                	li	a0,1
   126ae:	4609                	li	a2,2
   126b0:	00aa8023          	sb	a0,0(s5)
   126b4:	00baa223          	sw	a1,4(s5)
   126b8:	02c71963          	bne	a4,a2,126ea <_ZN20complex_dynamic_type3app17h28f7c16d8b7ea423E+0xc0>
   126bc:	a83d                	j	126fa <_ZN20complex_dynamic_type3app17h28f7c16d8b7ea423E+0xd0>
   126be:	4681                	li	a3,0
   126c0:	04f10a23          	sb	a5,84(sp)
   126c4:	6505                	lui	a0,0x1
   126c6:	45a1                	li	a1,8
   126c8:	4625                	li	a2,9
   126ca:	4709                	li	a4,2
   126cc:	11d50513          	addi	a0,a0,285 # 111d <.Lline_table_start1+0xef2>
   126d0:	08000793          	li	a5,128
   126d4:	00000073          	ecall
   126d8:	4609                	li	a2,2
   126da:	04f57663          	bgeu	a0,a5,12726 <_ZN20complex_dynamic_type3app17h28f7c16d8b7ea423E+0xfc>
   126de:	4505                	li	a0,1
   126e0:	00aa8023          	sb	a0,0(s5)
   126e4:	00baa223          	sw	a1,4(s5)
   126e8:	470d                	li	a4,3
   126ea:	6505                	lui	a0,0x1
   126ec:	11d50513          	addi	a0,a0,285 # 111d <.Lline_table_start1+0xef2>
   126f0:	45a5                	li	a1,9
   126f2:	4601                	li	a2,0
   126f4:	4681                	li	a3,0
   126f6:	00000073          	ecall
   126fa:	00b14703          	lbu	a4,11(sp)
   126fe:	4509                	li	a0,2
   12700:	00a70a63          	beq	a4,a0,12714 <_ZN20complex_dynamic_type3app17h28f7c16d8b7ea423E+0xea>
   12704:	6505                	lui	a0,0x1
   12706:	11d50513          	addi	a0,a0,285 # 111d <.Lline_table_start1+0xef2>
   1270a:	45a1                	li	a1,8
   1270c:	4601                	li	a2,0
   1270e:	4681                	li	a3,0
   12710:	00000073          	ecall
   12714:	50f6                	lw	ra,124(sp)
   12716:	5466                	lw	s0,120(sp)
   12718:	54d6                	lw	s1,116(sp)
   1271a:	5946                	lw	s2,112(sp)
   1271c:	59b6                	lw	s3,108(sp)
   1271e:	5a26                	lw	s4,104(sp)
   12720:	5a96                	lw	s5,100(sp)
   12722:	6109                	addi	sp,sp,128
   12724:	8082                	ret
   12726:	00b14703          	lbu	a4,11(sp)
   1272a:	00c71463          	bne	a4,a2,12732 <_ZN20complex_dynamic_type3app17h28f7c16d8b7ea423E+0x108>
   1272e:	470d                	li	a4,3
   12730:	a81d                	j	12766 <_ZN20complex_dynamic_type3app17h28f7c16d8b7ea423E+0x13c>
   12732:	6505                	lui	a0,0x1
   12734:	11d50513          	addi	a0,a0,285 # 111d <.Lline_table_start1+0xef2>
   12738:	45a1                	li	a1,8
   1273a:	4601                	li	a2,0
   1273c:	4681                	li	a3,0
   1273e:	00000073          	ecall
   12742:	05414703          	lbu	a4,84(sp)
   12746:	4509                	li	a0,2
   12748:	00a105a3          	sb	a0,11(sp)
   1274c:	00a71d63          	bne	a4,a0,12766 <_ZN20complex_dynamic_type3app17h28f7c16d8b7ea423E+0x13c>
   12750:	001a8513          	addi	a0,s5,1
   12754:	463d                	li	a2,15
   12756:	85d2                	mv	a1,s4
   12758:	0000c097          	auipc	ra,0xc
   1275c:	dbc080e7          	jalr	-580(ra) # 1e514 <memcpy>
   12760:	000a8023          	sb	zero,0(s5)
   12764:	bf45                	j	12714 <_ZN20complex_dynamic_type3app17h28f7c16d8b7ea423E+0xea>
   12766:	6505                	lui	a0,0x1
   12768:	11d50913          	addi	s2,a0,285 # 111d <.Lline_table_start1+0xef2>
   1276c:	45a5                	li	a1,9
   1276e:	854a                	mv	a0,s2
   12770:	4601                	li	a2,0
   12772:	4681                	li	a3,0
   12774:	00000073          	ecall
   12778:	00b14983          	lbu	s3,11(sp)
   1277c:	001a8513          	addi	a0,s5,1
   12780:	463d                	li	a2,15
   12782:	85d2                	mv	a1,s4
   12784:	0000c097          	auipc	ra,0xc
   12788:	d90080e7          	jalr	-624(ra) # 1e514 <memcpy>
   1278c:	4509                	li	a0,2
   1278e:	000a8023          	sb	zero,0(s5)
   12792:	f8a981e3          	beq	s3,a0,12714 <_ZN20complex_dynamic_type3app17h28f7c16d8b7ea423E+0xea>
   12796:	45a1                	li	a1,8
   12798:	854a                	mv	a0,s2
   1279a:	4601                	li	a2,0
   1279c:	4681                	li	a3,0
   1279e:	874e                	mv	a4,s3
   127a0:	00000073          	ecall
   127a4:	bf85                	j	12714 <_ZN20complex_dynamic_type3app17h28f7c16d8b7ea423E+0xea>

000127a6 <_ZN20complex_dynamic_type3app17h2c704c8b9a13f084E>:
   127a6:	7159                	addi	sp,sp,-112
   127a8:	d686                	sw	ra,108(sp)
   127aa:	d4a2                	sw	s0,104(sp)
   127ac:	d2a6                	sw	s1,100(sp)
   127ae:	d0ca                	sw	s2,96(sp)
   127b0:	cece                	sw	s3,92(sp)
   127b2:	ccd2                	sw	s4,88(sp)
   127b4:	cad6                	sw	s5,84(sp)
   127b6:	8aaa                	mv	s5,a0
   127b8:	4409                	li	s0,2
   127ba:	008107a3          	sb	s0,15(sp)
   127be:	0804                	addi	s1,sp,16
   127c0:	02900613          	li	a2,41
   127c4:	8526                	mv	a0,s1
   127c6:	0000c097          	auipc	ra,0xc
   127ca:	d4e080e7          	jalr	-690(ra) # 1e514 <memcpy>
   127ce:	03a10a13          	addi	s4,sp,58
   127d2:	4669                	li	a2,26
   127d4:	8552                	mv	a0,s4
   127d6:	4581                	li	a1,0
   127d8:	0000c097          	auipc	ra,0xc
   127dc:	cd0080e7          	jalr	-816(ra) # 1e4a8 <memset>
   127e0:	8626                	mv	a2,s1
   127e2:	02810ca3          	sb	s0,57(sp)
   127e6:	6509                	lui	a0,0x2
   127e8:	4491                	li	s1,4
   127ea:	4595                	li	a1,5
   127ec:	04850793          	addi	a5,a0,72 # 2048 <.Lline_table_start1+0x1e1d>
   127f0:	02900693          	li	a3,41
   127f4:	4711                	li	a4,4
   127f6:	853e                	mv	a0,a5
   127f8:	00000073          	ecall
   127fc:	00851863          	bne	a0,s0,1280c <_ZN20complex_dynamic_type3app17h2c704c8b9a13f084E+0x66>
   12800:	4505                	li	a0,1
   12802:	00aa8023          	sb	a0,0(s5)
   12806:	00baa223          	sw	a1,4(s5)
   1280a:	a0b5                	j	12876 <_ZN20complex_dynamic_type3app17h2c704c8b9a13f084E+0xd0>
   1280c:	853e                	mv	a0,a5
   1280e:	8652                	mv	a2,s4
   12810:	009107a3          	sb	s1,15(sp)
   12814:	478d                	li	a5,3
   12816:	458d                	li	a1,3
   12818:	46e9                	li	a3,26
   1281a:	470d                	li	a4,3
   1281c:	00000073          	ecall
   12820:	00851d63          	bne	a0,s0,1283a <_ZN20complex_dynamic_type3app17h2c704c8b9a13f084E+0x94>
   12824:	03914703          	lbu	a4,57(sp)
   12828:	4505                	li	a0,1
   1282a:	4609                	li	a2,2
   1282c:	00aa8023          	sb	a0,0(s5)
   12830:	00baa223          	sw	a1,4(s5)
   12834:	02c71963          	bne	a4,a2,12866 <_ZN20complex_dynamic_type3app17h2c704c8b9a13f084E+0xc0>
   12838:	a83d                	j	12876 <_ZN20complex_dynamic_type3app17h2c704c8b9a13f084E+0xd0>
   1283a:	4681                	li	a3,0
   1283c:	02f10ca3          	sb	a5,57(sp)
   12840:	6509                	lui	a0,0x2
   12842:	4595                	li	a1,5
   12844:	460d                	li	a2,3
   12846:	4709                	li	a4,2
   12848:	04850513          	addi	a0,a0,72 # 2048 <.Lline_table_start1+0x1e1d>
   1284c:	08000793          	li	a5,128
   12850:	00000073          	ecall
   12854:	4609                	li	a2,2
   12856:	04f57663          	bgeu	a0,a5,128a2 <_ZN20complex_dynamic_type3app17h2c704c8b9a13f084E+0xfc>
   1285a:	4505                	li	a0,1
   1285c:	00aa8023          	sb	a0,0(s5)
   12860:	00baa223          	sw	a1,4(s5)
   12864:	470d                	li	a4,3
   12866:	6509                	lui	a0,0x2
   12868:	04850513          	addi	a0,a0,72 # 2048 <.Lline_table_start1+0x1e1d>
   1286c:	458d                	li	a1,3
   1286e:	4601                	li	a2,0
   12870:	4681                	li	a3,0
   12872:	00000073          	ecall
   12876:	00f14703          	lbu	a4,15(sp)
   1287a:	4509                	li	a0,2
   1287c:	00a70a63          	beq	a4,a0,12890 <_ZN20complex_dynamic_type3app17h2c704c8b9a13f084E+0xea>
   12880:	6509                	lui	a0,0x2
   12882:	04850513          	addi	a0,a0,72 # 2048 <.Lline_table_start1+0x1e1d>
   12886:	4595                	li	a1,5
   12888:	4601                	li	a2,0
   1288a:	4681                	li	a3,0
   1288c:	00000073          	ecall
   12890:	50b6                	lw	ra,108(sp)
   12892:	5426                	lw	s0,104(sp)
   12894:	5496                	lw	s1,100(sp)
   12896:	5906                	lw	s2,96(sp)
   12898:	49f6                	lw	s3,92(sp)
   1289a:	4a66                	lw	s4,88(sp)
   1289c:	4ad6                	lw	s5,84(sp)
   1289e:	6165                	addi	sp,sp,112
   128a0:	8082                	ret
   128a2:	00f14703          	lbu	a4,15(sp)
   128a6:	00c71463          	bne	a4,a2,128ae <_ZN20complex_dynamic_type3app17h2c704c8b9a13f084E+0x108>
   128aa:	470d                	li	a4,3
   128ac:	a81d                	j	128e2 <_ZN20complex_dynamic_type3app17h2c704c8b9a13f084E+0x13c>
   128ae:	6509                	lui	a0,0x2
   128b0:	04850513          	addi	a0,a0,72 # 2048 <.Lline_table_start1+0x1e1d>
   128b4:	4595                	li	a1,5
   128b6:	4601                	li	a2,0
   128b8:	4681                	li	a3,0
   128ba:	00000073          	ecall
   128be:	03914703          	lbu	a4,57(sp)
   128c2:	4509                	li	a0,2
   128c4:	00a107a3          	sb	a0,15(sp)
   128c8:	00a71d63          	bne	a4,a0,128e2 <_ZN20complex_dynamic_type3app17h2c704c8b9a13f084E+0x13c>
   128cc:	001a8513          	addi	a0,s5,1
   128d0:	4669                	li	a2,26
   128d2:	85d2                	mv	a1,s4
   128d4:	0000c097          	auipc	ra,0xc
   128d8:	c40080e7          	jalr	-960(ra) # 1e514 <memcpy>
   128dc:	000a8023          	sb	zero,0(s5)
   128e0:	bf45                	j	12890 <_ZN20complex_dynamic_type3app17h2c704c8b9a13f084E+0xea>
   128e2:	6509                	lui	a0,0x2
   128e4:	04850913          	addi	s2,a0,72 # 2048 <.Lline_table_start1+0x1e1d>
   128e8:	458d                	li	a1,3
   128ea:	854a                	mv	a0,s2
   128ec:	4601                	li	a2,0
   128ee:	4681                	li	a3,0
   128f0:	00000073          	ecall
   128f4:	00f14983          	lbu	s3,15(sp)
   128f8:	001a8513          	addi	a0,s5,1
   128fc:	4669                	li	a2,26
   128fe:	85d2                	mv	a1,s4
   12900:	0000c097          	auipc	ra,0xc
   12904:	c14080e7          	jalr	-1004(ra) # 1e514 <memcpy>
   12908:	4509                	li	a0,2
   1290a:	000a8023          	sb	zero,0(s5)
   1290e:	f8a981e3          	beq	s3,a0,12890 <_ZN20complex_dynamic_type3app17h2c704c8b9a13f084E+0xea>
   12912:	4595                	li	a1,5
   12914:	854a                	mv	a0,s2
   12916:	4601                	li	a2,0
   12918:	4681                	li	a3,0
   1291a:	874e                	mv	a4,s3
   1291c:	00000073          	ecall
   12920:	bf85                	j	12890 <_ZN20complex_dynamic_type3app17h2c704c8b9a13f084E+0xea>

00012922 <_ZN20complex_dynamic_type3app17h3207e0628ebad019E>:
   12922:	7159                	addi	sp,sp,-112
   12924:	d686                	sw	ra,108(sp)
   12926:	d4a2                	sw	s0,104(sp)
   12928:	d2a6                	sw	s1,100(sp)
   1292a:	d0ca                	sw	s2,96(sp)
   1292c:	cece                	sw	s3,92(sp)
   1292e:	ccd2                	sw	s4,88(sp)
   12930:	cad6                	sw	s5,84(sp)
   12932:	8aaa                	mv	s5,a0
   12934:	4409                	li	s0,2
   12936:	00810623          	sb	s0,12(sp)
   1293a:	00d10493          	addi	s1,sp,13
   1293e:	4641                	li	a2,16
   12940:	8526                	mv	a0,s1
   12942:	0000c097          	auipc	ra,0xc
   12946:	bd2080e7          	jalr	-1070(ra) # 1e514 <memcpy>
   1294a:	01e10a13          	addi	s4,sp,30
   1294e:	03600613          	li	a2,54
   12952:	8552                	mv	a0,s4
   12954:	4581                	li	a1,0
   12956:	0000c097          	auipc	ra,0xc
   1295a:	b52080e7          	jalr	-1198(ra) # 1e4a8 <memset>
   1295e:	8626                	mv	a2,s1
   12960:	00810ea3          	sb	s0,29(sp)
   12964:	6509                	lui	a0,0x2
   12966:	4805                	li	a6,1
   12968:	4491                	li	s1,4
   1296a:	4585                	li	a1,1
   1296c:	98950793          	addi	a5,a0,-1655 # 1989 <.Lline_table_start1+0x175e>
   12970:	46c1                	li	a3,16
   12972:	4711                	li	a4,4
   12974:	853e                	mv	a0,a5
   12976:	00000073          	ecall
   1297a:	00851763          	bne	a0,s0,12988 <_ZN20complex_dynamic_type3app17h3207e0628ebad019E+0x66>
   1297e:	010a8023          	sb	a6,0(s5)
   12982:	00baa223          	sw	a1,4(s5)
   12986:	a0bd                	j	129f4 <_ZN20complex_dynamic_type3app17h3207e0628ebad019E+0xd2>
   12988:	853e                	mv	a0,a5
   1298a:	8652                	mv	a2,s4
   1298c:	00910623          	sb	s1,12(sp)
   12990:	478d                	li	a5,3
   12992:	459d                	li	a1,7
   12994:	03600693          	li	a3,54
   12998:	470d                	li	a4,3
   1299a:	00000073          	ecall
   1299e:	00851d63          	bne	a0,s0,129b8 <_ZN20complex_dynamic_type3app17h3207e0628ebad019E+0x96>
   129a2:	01d14703          	lbu	a4,29(sp)
   129a6:	4505                	li	a0,1
   129a8:	4609                	li	a2,2
   129aa:	00aa8023          	sb	a0,0(s5)
   129ae:	00baa223          	sw	a1,4(s5)
   129b2:	02c71963          	bne	a4,a2,129e4 <_ZN20complex_dynamic_type3app17h3207e0628ebad019E+0xc2>
   129b6:	a83d                	j	129f4 <_ZN20complex_dynamic_type3app17h3207e0628ebad019E+0xd2>
   129b8:	4681                	li	a3,0
   129ba:	00f10ea3          	sb	a5,29(sp)
   129be:	6509                	lui	a0,0x2
   129c0:	4785                	li	a5,1
   129c2:	4585                	li	a1,1
   129c4:	461d                	li	a2,7
   129c6:	4709                	li	a4,2
   129c8:	98950513          	addi	a0,a0,-1655 # 1989 <.Lline_table_start1+0x175e>
   129cc:	08000493          	li	s1,128
   129d0:	00000073          	ecall
   129d4:	4609                	li	a2,2
   129d6:	04957563          	bgeu	a0,s1,12a20 <_ZN20complex_dynamic_type3app17h3207e0628ebad019E+0xfe>
   129da:	00fa8023          	sb	a5,0(s5)
   129de:	00baa223          	sw	a1,4(s5)
   129e2:	470d                	li	a4,3
   129e4:	6509                	lui	a0,0x2
   129e6:	98950513          	addi	a0,a0,-1655 # 1989 <.Lline_table_start1+0x175e>
   129ea:	459d                	li	a1,7
   129ec:	4601                	li	a2,0
   129ee:	4681                	li	a3,0
   129f0:	00000073          	ecall
   129f4:	00c14703          	lbu	a4,12(sp)
   129f8:	4509                	li	a0,2
   129fa:	00a70a63          	beq	a4,a0,12a0e <_ZN20complex_dynamic_type3app17h3207e0628ebad019E+0xec>
   129fe:	6509                	lui	a0,0x2
   12a00:	98950513          	addi	a0,a0,-1655 # 1989 <.Lline_table_start1+0x175e>
   12a04:	4585                	li	a1,1
   12a06:	4601                	li	a2,0
   12a08:	4681                	li	a3,0
   12a0a:	00000073          	ecall
   12a0e:	50b6                	lw	ra,108(sp)
   12a10:	5426                	lw	s0,104(sp)
   12a12:	5496                	lw	s1,100(sp)
   12a14:	5906                	lw	s2,96(sp)
   12a16:	49f6                	lw	s3,92(sp)
   12a18:	4a66                	lw	s4,88(sp)
   12a1a:	4ad6                	lw	s5,84(sp)
   12a1c:	6165                	addi	sp,sp,112
   12a1e:	8082                	ret
   12a20:	00c14703          	lbu	a4,12(sp)
   12a24:	00c71463          	bne	a4,a2,12a2c <_ZN20complex_dynamic_type3app17h3207e0628ebad019E+0x10a>
   12a28:	470d                	li	a4,3
   12a2a:	a825                	j	12a62 <_ZN20complex_dynamic_type3app17h3207e0628ebad019E+0x140>
   12a2c:	6509                	lui	a0,0x2
   12a2e:	98950513          	addi	a0,a0,-1655 # 1989 <.Lline_table_start1+0x175e>
   12a32:	4585                	li	a1,1
   12a34:	4601                	li	a2,0
   12a36:	4681                	li	a3,0
   12a38:	00000073          	ecall
   12a3c:	01d14703          	lbu	a4,29(sp)
   12a40:	4509                	li	a0,2
   12a42:	00a10623          	sb	a0,12(sp)
   12a46:	00a71e63          	bne	a4,a0,12a62 <_ZN20complex_dynamic_type3app17h3207e0628ebad019E+0x140>
   12a4a:	001a8513          	addi	a0,s5,1
   12a4e:	03600613          	li	a2,54
   12a52:	85d2                	mv	a1,s4
   12a54:	0000c097          	auipc	ra,0xc
   12a58:	ac0080e7          	jalr	-1344(ra) # 1e514 <memcpy>
   12a5c:	000a8023          	sb	zero,0(s5)
   12a60:	b77d                	j	12a0e <_ZN20complex_dynamic_type3app17h3207e0628ebad019E+0xec>
   12a62:	6509                	lui	a0,0x2
   12a64:	98950913          	addi	s2,a0,-1655 # 1989 <.Lline_table_start1+0x175e>
   12a68:	459d                	li	a1,7
   12a6a:	854a                	mv	a0,s2
   12a6c:	4601                	li	a2,0
   12a6e:	4681                	li	a3,0
   12a70:	00000073          	ecall
   12a74:	00c14983          	lbu	s3,12(sp)
   12a78:	001a8513          	addi	a0,s5,1
   12a7c:	03600613          	li	a2,54
   12a80:	85d2                	mv	a1,s4
   12a82:	0000c097          	auipc	ra,0xc
   12a86:	a92080e7          	jalr	-1390(ra) # 1e514 <memcpy>
   12a8a:	4509                	li	a0,2
   12a8c:	000a8023          	sb	zero,0(s5)
   12a90:	f6a98fe3          	beq	s3,a0,12a0e <_ZN20complex_dynamic_type3app17h3207e0628ebad019E+0xec>
   12a94:	4585                	li	a1,1
   12a96:	854a                	mv	a0,s2
   12a98:	4601                	li	a2,0
   12a9a:	4681                	li	a3,0
   12a9c:	874e                	mv	a4,s3
   12a9e:	00000073          	ecall
   12aa2:	b7b5                	j	12a0e <_ZN20complex_dynamic_type3app17h3207e0628ebad019E+0xec>

00012aa4 <_ZN20complex_dynamic_type3app17h343321349fb146f4E>:
   12aa4:	7159                	addi	sp,sp,-112
   12aa6:	d686                	sw	ra,108(sp)
   12aa8:	d4a2                	sw	s0,104(sp)
   12aaa:	d2a6                	sw	s1,100(sp)
   12aac:	d0ca                	sw	s2,96(sp)
   12aae:	cece                	sw	s3,92(sp)
   12ab0:	ccd2                	sw	s4,88(sp)
   12ab2:	cad6                	sw	s5,84(sp)
   12ab4:	8aaa                	mv	s5,a0
   12ab6:	4409                	li	s0,2
   12ab8:	008106a3          	sb	s0,13(sp)
   12abc:	00e10493          	addi	s1,sp,14
   12ac0:	02700613          	li	a2,39
   12ac4:	8526                	mv	a0,s1
   12ac6:	0000c097          	auipc	ra,0xc
   12aca:	a4e080e7          	jalr	-1458(ra) # 1e514 <memcpy>
   12ace:	03610a13          	addi	s4,sp,54
   12ad2:	4679                	li	a2,30
   12ad4:	8552                	mv	a0,s4
   12ad6:	4581                	li	a1,0
   12ad8:	0000c097          	auipc	ra,0xc
   12adc:	9d0080e7          	jalr	-1584(ra) # 1e4a8 <memset>
   12ae0:	8626                	mv	a2,s1
   12ae2:	02810aa3          	sb	s0,53(sp)
   12ae6:	6505                	lui	a0,0x1
   12ae8:	4491                	li	s1,4
   12aea:	458d                	li	a1,3
   12aec:	0e250793          	addi	a5,a0,226 # 10e2 <.Lline_table_start1+0xeb7>
   12af0:	02700693          	li	a3,39
   12af4:	4711                	li	a4,4
   12af6:	853e                	mv	a0,a5
   12af8:	00000073          	ecall
   12afc:	00851863          	bne	a0,s0,12b0c <_ZN20complex_dynamic_type3app17h343321349fb146f4E+0x68>
   12b00:	4505                	li	a0,1
   12b02:	00aa8023          	sb	a0,0(s5)
   12b06:	00baa223          	sw	a1,4(s5)
   12b0a:	a0b5                	j	12b76 <_ZN20complex_dynamic_type3app17h343321349fb146f4E+0xd2>
   12b0c:	853e                	mv	a0,a5
   12b0e:	8652                	mv	a2,s4
   12b10:	009106a3          	sb	s1,13(sp)
   12b14:	478d                	li	a5,3
   12b16:	458d                	li	a1,3
   12b18:	46f9                	li	a3,30
   12b1a:	470d                	li	a4,3
   12b1c:	00000073          	ecall
   12b20:	00851d63          	bne	a0,s0,12b3a <_ZN20complex_dynamic_type3app17h343321349fb146f4E+0x96>
   12b24:	03514703          	lbu	a4,53(sp)
   12b28:	4505                	li	a0,1
   12b2a:	4609                	li	a2,2
   12b2c:	00aa8023          	sb	a0,0(s5)
   12b30:	00baa223          	sw	a1,4(s5)
   12b34:	02c71963          	bne	a4,a2,12b66 <_ZN20complex_dynamic_type3app17h343321349fb146f4E+0xc2>
   12b38:	a83d                	j	12b76 <_ZN20complex_dynamic_type3app17h343321349fb146f4E+0xd2>
   12b3a:	4681                	li	a3,0
   12b3c:	02f10aa3          	sb	a5,53(sp)
   12b40:	6505                	lui	a0,0x1
   12b42:	458d                	li	a1,3
   12b44:	460d                	li	a2,3
   12b46:	4709                	li	a4,2
   12b48:	0e250513          	addi	a0,a0,226 # 10e2 <.Lline_table_start1+0xeb7>
   12b4c:	08000793          	li	a5,128
   12b50:	00000073          	ecall
   12b54:	4609                	li	a2,2
   12b56:	04f57663          	bgeu	a0,a5,12ba2 <_ZN20complex_dynamic_type3app17h343321349fb146f4E+0xfe>
   12b5a:	4505                	li	a0,1
   12b5c:	00aa8023          	sb	a0,0(s5)
   12b60:	00baa223          	sw	a1,4(s5)
   12b64:	470d                	li	a4,3
   12b66:	6505                	lui	a0,0x1
   12b68:	0e250513          	addi	a0,a0,226 # 10e2 <.Lline_table_start1+0xeb7>
   12b6c:	458d                	li	a1,3
   12b6e:	4601                	li	a2,0
   12b70:	4681                	li	a3,0
   12b72:	00000073          	ecall
   12b76:	00d14703          	lbu	a4,13(sp)
   12b7a:	4509                	li	a0,2
   12b7c:	00a70a63          	beq	a4,a0,12b90 <_ZN20complex_dynamic_type3app17h343321349fb146f4E+0xec>
   12b80:	6505                	lui	a0,0x1
   12b82:	0e250513          	addi	a0,a0,226 # 10e2 <.Lline_table_start1+0xeb7>
   12b86:	458d                	li	a1,3
   12b88:	4601                	li	a2,0
   12b8a:	4681                	li	a3,0
   12b8c:	00000073          	ecall
   12b90:	50b6                	lw	ra,108(sp)
   12b92:	5426                	lw	s0,104(sp)
   12b94:	5496                	lw	s1,100(sp)
   12b96:	5906                	lw	s2,96(sp)
   12b98:	49f6                	lw	s3,92(sp)
   12b9a:	4a66                	lw	s4,88(sp)
   12b9c:	4ad6                	lw	s5,84(sp)
   12b9e:	6165                	addi	sp,sp,112
   12ba0:	8082                	ret
   12ba2:	00d14703          	lbu	a4,13(sp)
   12ba6:	00c71463          	bne	a4,a2,12bae <_ZN20complex_dynamic_type3app17h343321349fb146f4E+0x10a>
   12baa:	470d                	li	a4,3
   12bac:	a81d                	j	12be2 <_ZN20complex_dynamic_type3app17h343321349fb146f4E+0x13e>
   12bae:	6505                	lui	a0,0x1
   12bb0:	0e250513          	addi	a0,a0,226 # 10e2 <.Lline_table_start1+0xeb7>
   12bb4:	458d                	li	a1,3
   12bb6:	4601                	li	a2,0
   12bb8:	4681                	li	a3,0
   12bba:	00000073          	ecall
   12bbe:	03514703          	lbu	a4,53(sp)
   12bc2:	4509                	li	a0,2
   12bc4:	00a106a3          	sb	a0,13(sp)
   12bc8:	00a71d63          	bne	a4,a0,12be2 <_ZN20complex_dynamic_type3app17h343321349fb146f4E+0x13e>
   12bcc:	001a8513          	addi	a0,s5,1
   12bd0:	4679                	li	a2,30
   12bd2:	85d2                	mv	a1,s4
   12bd4:	0000c097          	auipc	ra,0xc
   12bd8:	940080e7          	jalr	-1728(ra) # 1e514 <memcpy>
   12bdc:	000a8023          	sb	zero,0(s5)
   12be0:	bf45                	j	12b90 <_ZN20complex_dynamic_type3app17h343321349fb146f4E+0xec>
   12be2:	6505                	lui	a0,0x1
   12be4:	0e250913          	addi	s2,a0,226 # 10e2 <.Lline_table_start1+0xeb7>
   12be8:	458d                	li	a1,3
   12bea:	854a                	mv	a0,s2
   12bec:	4601                	li	a2,0
   12bee:	4681                	li	a3,0
   12bf0:	00000073          	ecall
   12bf4:	00d14983          	lbu	s3,13(sp)
   12bf8:	001a8513          	addi	a0,s5,1
   12bfc:	4679                	li	a2,30
   12bfe:	85d2                	mv	a1,s4
   12c00:	0000c097          	auipc	ra,0xc
   12c04:	914080e7          	jalr	-1772(ra) # 1e514 <memcpy>
   12c08:	4509                	li	a0,2
   12c0a:	000a8023          	sb	zero,0(s5)
   12c0e:	f8a981e3          	beq	s3,a0,12b90 <_ZN20complex_dynamic_type3app17h343321349fb146f4E+0xec>
   12c12:	458d                	li	a1,3
   12c14:	854a                	mv	a0,s2
   12c16:	4601                	li	a2,0
   12c18:	4681                	li	a3,0
   12c1a:	874e                	mv	a4,s3
   12c1c:	00000073          	ecall
   12c20:	bf85                	j	12b90 <_ZN20complex_dynamic_type3app17h343321349fb146f4E+0xec>

00012c22 <_ZN20complex_dynamic_type3app17h351d5eaf8fe8e240E>:
   12c22:	7171                	addi	sp,sp,-176
   12c24:	d706                	sw	ra,172(sp)
   12c26:	d522                	sw	s0,168(sp)
   12c28:	d326                	sw	s1,164(sp)
   12c2a:	d14a                	sw	s2,160(sp)
   12c2c:	cf4e                	sw	s3,156(sp)
   12c2e:	cd52                	sw	s4,152(sp)
   12c30:	cb56                	sw	s5,148(sp)
   12c32:	8aaa                	mv	s5,a0
   12c34:	4409                	li	s0,2
   12c36:	00810723          	sb	s0,14(sp)
   12c3a:	00f10493          	addi	s1,sp,15
   12c3e:	04f00613          	li	a2,79
   12c42:	8526                	mv	a0,s1
   12c44:	0000c097          	auipc	ra,0xc
   12c48:	8d0080e7          	jalr	-1840(ra) # 1e514 <memcpy>
   12c4c:	05f10a13          	addi	s4,sp,95
   12c50:	03500613          	li	a2,53
   12c54:	8552                	mv	a0,s4
   12c56:	4581                	li	a1,0
   12c58:	0000c097          	auipc	ra,0xc
   12c5c:	850080e7          	jalr	-1968(ra) # 1e4a8 <memset>
   12c60:	8626                	mv	a2,s1
   12c62:	04810f23          	sb	s0,94(sp)
   12c66:	6505                	lui	a0,0x1
   12c68:	4491                	li	s1,4
   12c6a:	459d                	li	a1,7
   12c6c:	6d750793          	addi	a5,a0,1751 # 16d7 <.Lline_table_start1+0x14ac>
   12c70:	04f00693          	li	a3,79
   12c74:	4711                	li	a4,4
   12c76:	853e                	mv	a0,a5
   12c78:	00000073          	ecall
   12c7c:	00851863          	bne	a0,s0,12c8c <_ZN20complex_dynamic_type3app17h351d5eaf8fe8e240E+0x6a>
   12c80:	4505                	li	a0,1
   12c82:	00aa8023          	sb	a0,0(s5)
   12c86:	00baa223          	sw	a1,4(s5)
   12c8a:	a0bd                	j	12cf8 <_ZN20complex_dynamic_type3app17h351d5eaf8fe8e240E+0xd6>
   12c8c:	853e                	mv	a0,a5
   12c8e:	8652                	mv	a2,s4
   12c90:	00910723          	sb	s1,14(sp)
   12c94:	4785                	li	a5,1
   12c96:	448d                	li	s1,3
   12c98:	4585                	li	a1,1
   12c9a:	03500693          	li	a3,53
   12c9e:	470d                	li	a4,3
   12ca0:	00000073          	ecall
   12ca4:	00851c63          	bne	a0,s0,12cbc <_ZN20complex_dynamic_type3app17h351d5eaf8fe8e240E+0x9a>
   12ca8:	05e14703          	lbu	a4,94(sp)
   12cac:	4509                	li	a0,2
   12cae:	00fa8023          	sb	a5,0(s5)
   12cb2:	00baa223          	sw	a1,4(s5)
   12cb6:	02a71963          	bne	a4,a0,12ce8 <_ZN20complex_dynamic_type3app17h351d5eaf8fe8e240E+0xc6>
   12cba:	a83d                	j	12cf8 <_ZN20complex_dynamic_type3app17h351d5eaf8fe8e240E+0xd6>
   12cbc:	4681                	li	a3,0
   12cbe:	04910f23          	sb	s1,94(sp)
   12cc2:	6505                	lui	a0,0x1
   12cc4:	4785                	li	a5,1
   12cc6:	459d                	li	a1,7
   12cc8:	4605                	li	a2,1
   12cca:	4709                	li	a4,2
   12ccc:	6d750513          	addi	a0,a0,1751 # 16d7 <.Lline_table_start1+0x14ac>
   12cd0:	08000493          	li	s1,128
   12cd4:	00000073          	ecall
   12cd8:	4609                	li	a2,2
   12cda:	04957563          	bgeu	a0,s1,12d24 <_ZN20complex_dynamic_type3app17h351d5eaf8fe8e240E+0x102>
   12cde:	00fa8023          	sb	a5,0(s5)
   12ce2:	00baa223          	sw	a1,4(s5)
   12ce6:	470d                	li	a4,3
   12ce8:	6505                	lui	a0,0x1
   12cea:	6d750513          	addi	a0,a0,1751 # 16d7 <.Lline_table_start1+0x14ac>
   12cee:	4585                	li	a1,1
   12cf0:	4601                	li	a2,0
   12cf2:	4681                	li	a3,0
   12cf4:	00000073          	ecall
   12cf8:	00e14703          	lbu	a4,14(sp)
   12cfc:	4509                	li	a0,2
   12cfe:	00a70a63          	beq	a4,a0,12d12 <_ZN20complex_dynamic_type3app17h351d5eaf8fe8e240E+0xf0>
   12d02:	6505                	lui	a0,0x1
   12d04:	6d750513          	addi	a0,a0,1751 # 16d7 <.Lline_table_start1+0x14ac>
   12d08:	459d                	li	a1,7
   12d0a:	4601                	li	a2,0
   12d0c:	4681                	li	a3,0
   12d0e:	00000073          	ecall
   12d12:	50ba                	lw	ra,172(sp)
   12d14:	542a                	lw	s0,168(sp)
   12d16:	549a                	lw	s1,164(sp)
   12d18:	590a                	lw	s2,160(sp)
   12d1a:	49fa                	lw	s3,156(sp)
   12d1c:	4a6a                	lw	s4,152(sp)
   12d1e:	4ada                	lw	s5,148(sp)
   12d20:	614d                	addi	sp,sp,176
   12d22:	8082                	ret
   12d24:	00e14703          	lbu	a4,14(sp)
   12d28:	00c71463          	bne	a4,a2,12d30 <_ZN20complex_dynamic_type3app17h351d5eaf8fe8e240E+0x10e>
   12d2c:	470d                	li	a4,3
   12d2e:	a825                	j	12d66 <_ZN20complex_dynamic_type3app17h351d5eaf8fe8e240E+0x144>
   12d30:	6505                	lui	a0,0x1
   12d32:	6d750513          	addi	a0,a0,1751 # 16d7 <.Lline_table_start1+0x14ac>
   12d36:	459d                	li	a1,7
   12d38:	4601                	li	a2,0
   12d3a:	4681                	li	a3,0
   12d3c:	00000073          	ecall
   12d40:	05e14703          	lbu	a4,94(sp)
   12d44:	4509                	li	a0,2
   12d46:	00a10723          	sb	a0,14(sp)
   12d4a:	00a71e63          	bne	a4,a0,12d66 <_ZN20complex_dynamic_type3app17h351d5eaf8fe8e240E+0x144>
   12d4e:	001a8513          	addi	a0,s5,1
   12d52:	03500613          	li	a2,53
   12d56:	85d2                	mv	a1,s4
   12d58:	0000b097          	auipc	ra,0xb
   12d5c:	7bc080e7          	jalr	1980(ra) # 1e514 <memcpy>
   12d60:	000a8023          	sb	zero,0(s5)
   12d64:	b77d                	j	12d12 <_ZN20complex_dynamic_type3app17h351d5eaf8fe8e240E+0xf0>
   12d66:	6505                	lui	a0,0x1
   12d68:	6d750913          	addi	s2,a0,1751 # 16d7 <.Lline_table_start1+0x14ac>
   12d6c:	4585                	li	a1,1
   12d6e:	854a                	mv	a0,s2
   12d70:	4601                	li	a2,0
   12d72:	4681                	li	a3,0
   12d74:	00000073          	ecall
   12d78:	00e14983          	lbu	s3,14(sp)
   12d7c:	001a8513          	addi	a0,s5,1
   12d80:	03500613          	li	a2,53
   12d84:	85d2                	mv	a1,s4
   12d86:	0000b097          	auipc	ra,0xb
   12d8a:	78e080e7          	jalr	1934(ra) # 1e514 <memcpy>
   12d8e:	4509                	li	a0,2
   12d90:	000a8023          	sb	zero,0(s5)
   12d94:	f6a98fe3          	beq	s3,a0,12d12 <_ZN20complex_dynamic_type3app17h351d5eaf8fe8e240E+0xf0>
   12d98:	459d                	li	a1,7
   12d9a:	854a                	mv	a0,s2
   12d9c:	4601                	li	a2,0
   12d9e:	4681                	li	a3,0
   12da0:	874e                	mv	a4,s3
   12da2:	00000073          	ecall
   12da6:	b7b5                	j	12d12 <_ZN20complex_dynamic_type3app17h351d5eaf8fe8e240E+0xf0>

00012da8 <_ZN20complex_dynamic_type3app17h36e5ca44a4abbc06E>:
   12da8:	7159                	addi	sp,sp,-112
   12daa:	d686                	sw	ra,108(sp)
   12dac:	d4a2                	sw	s0,104(sp)
   12dae:	d2a6                	sw	s1,100(sp)
   12db0:	d0ca                	sw	s2,96(sp)
   12db2:	cece                	sw	s3,92(sp)
   12db4:	ccd2                	sw	s4,88(sp)
   12db6:	cad6                	sw	s5,84(sp)
   12db8:	8aaa                	mv	s5,a0
   12dba:	4409                	li	s0,2
   12dbc:	00810123          	sb	s0,2(sp)
   12dc0:	00310493          	addi	s1,sp,3
   12dc4:	03f00613          	li	a2,63
   12dc8:	8526                	mv	a0,s1
   12dca:	0000b097          	auipc	ra,0xb
   12dce:	74a080e7          	jalr	1866(ra) # 1e514 <memcpy>
   12dd2:	04310a13          	addi	s4,sp,67
   12dd6:	4645                	li	a2,17
   12dd8:	8552                	mv	a0,s4
   12dda:	4581                	li	a1,0
   12ddc:	0000b097          	auipc	ra,0xb
   12de0:	6cc080e7          	jalr	1740(ra) # 1e4a8 <memset>
   12de4:	8626                	mv	a2,s1
   12de6:	04810123          	sb	s0,66(sp)
   12dea:	6505                	lui	a0,0x1
   12dec:	4491                	li	s1,4
   12dee:	4591                	li	a1,4
   12df0:	4d750793          	addi	a5,a0,1239 # 14d7 <.Lline_table_start1+0x12ac>
   12df4:	03f00693          	li	a3,63
   12df8:	4711                	li	a4,4
   12dfa:	853e                	mv	a0,a5
   12dfc:	00000073          	ecall
   12e00:	00851863          	bne	a0,s0,12e10 <_ZN20complex_dynamic_type3app17h36e5ca44a4abbc06E+0x68>
   12e04:	4505                	li	a0,1
   12e06:	00aa8023          	sb	a0,0(s5)
   12e0a:	00baa223          	sw	a1,4(s5)
   12e0e:	a0b5                	j	12e7a <_ZN20complex_dynamic_type3app17h36e5ca44a4abbc06E+0xd2>
   12e10:	853e                	mv	a0,a5
   12e12:	8652                	mv	a2,s4
   12e14:	00910123          	sb	s1,2(sp)
   12e18:	478d                	li	a5,3
   12e1a:	458d                	li	a1,3
   12e1c:	46c5                	li	a3,17
   12e1e:	470d                	li	a4,3
   12e20:	00000073          	ecall
   12e24:	00851d63          	bne	a0,s0,12e3e <_ZN20complex_dynamic_type3app17h36e5ca44a4abbc06E+0x96>
   12e28:	04214703          	lbu	a4,66(sp)
   12e2c:	4505                	li	a0,1
   12e2e:	4609                	li	a2,2
   12e30:	00aa8023          	sb	a0,0(s5)
   12e34:	00baa223          	sw	a1,4(s5)
   12e38:	02c71963          	bne	a4,a2,12e6a <_ZN20complex_dynamic_type3app17h36e5ca44a4abbc06E+0xc2>
   12e3c:	a83d                	j	12e7a <_ZN20complex_dynamic_type3app17h36e5ca44a4abbc06E+0xd2>
   12e3e:	4681                	li	a3,0
   12e40:	04f10123          	sb	a5,66(sp)
   12e44:	6505                	lui	a0,0x1
   12e46:	4591                	li	a1,4
   12e48:	460d                	li	a2,3
   12e4a:	4709                	li	a4,2
   12e4c:	4d750513          	addi	a0,a0,1239 # 14d7 <.Lline_table_start1+0x12ac>
   12e50:	08000793          	li	a5,128
   12e54:	00000073          	ecall
   12e58:	4609                	li	a2,2
   12e5a:	04f57663          	bgeu	a0,a5,12ea6 <_ZN20complex_dynamic_type3app17h36e5ca44a4abbc06E+0xfe>
   12e5e:	4505                	li	a0,1
   12e60:	00aa8023          	sb	a0,0(s5)
   12e64:	00baa223          	sw	a1,4(s5)
   12e68:	470d                	li	a4,3
   12e6a:	6505                	lui	a0,0x1
   12e6c:	4d750513          	addi	a0,a0,1239 # 14d7 <.Lline_table_start1+0x12ac>
   12e70:	458d                	li	a1,3
   12e72:	4601                	li	a2,0
   12e74:	4681                	li	a3,0
   12e76:	00000073          	ecall
   12e7a:	00214703          	lbu	a4,2(sp)
   12e7e:	4509                	li	a0,2
   12e80:	00a70a63          	beq	a4,a0,12e94 <_ZN20complex_dynamic_type3app17h36e5ca44a4abbc06E+0xec>
   12e84:	6505                	lui	a0,0x1
   12e86:	4d750513          	addi	a0,a0,1239 # 14d7 <.Lline_table_start1+0x12ac>
   12e8a:	4591                	li	a1,4
   12e8c:	4601                	li	a2,0
   12e8e:	4681                	li	a3,0
   12e90:	00000073          	ecall
   12e94:	50b6                	lw	ra,108(sp)
   12e96:	5426                	lw	s0,104(sp)
   12e98:	5496                	lw	s1,100(sp)
   12e9a:	5906                	lw	s2,96(sp)
   12e9c:	49f6                	lw	s3,92(sp)
   12e9e:	4a66                	lw	s4,88(sp)
   12ea0:	4ad6                	lw	s5,84(sp)
   12ea2:	6165                	addi	sp,sp,112
   12ea4:	8082                	ret
   12ea6:	00214703          	lbu	a4,2(sp)
   12eaa:	00c71463          	bne	a4,a2,12eb2 <_ZN20complex_dynamic_type3app17h36e5ca44a4abbc06E+0x10a>
   12eae:	470d                	li	a4,3
   12eb0:	a81d                	j	12ee6 <_ZN20complex_dynamic_type3app17h36e5ca44a4abbc06E+0x13e>
   12eb2:	6505                	lui	a0,0x1
   12eb4:	4d750513          	addi	a0,a0,1239 # 14d7 <.Lline_table_start1+0x12ac>
   12eb8:	4591                	li	a1,4
   12eba:	4601                	li	a2,0
   12ebc:	4681                	li	a3,0
   12ebe:	00000073          	ecall
   12ec2:	04214703          	lbu	a4,66(sp)
   12ec6:	4509                	li	a0,2
   12ec8:	00a10123          	sb	a0,2(sp)
   12ecc:	00a71d63          	bne	a4,a0,12ee6 <_ZN20complex_dynamic_type3app17h36e5ca44a4abbc06E+0x13e>
   12ed0:	001a8513          	addi	a0,s5,1
   12ed4:	4645                	li	a2,17
   12ed6:	85d2                	mv	a1,s4
   12ed8:	0000b097          	auipc	ra,0xb
   12edc:	63c080e7          	jalr	1596(ra) # 1e514 <memcpy>
   12ee0:	000a8023          	sb	zero,0(s5)
   12ee4:	bf45                	j	12e94 <_ZN20complex_dynamic_type3app17h36e5ca44a4abbc06E+0xec>
   12ee6:	6505                	lui	a0,0x1
   12ee8:	4d750913          	addi	s2,a0,1239 # 14d7 <.Lline_table_start1+0x12ac>
   12eec:	458d                	li	a1,3
   12eee:	854a                	mv	a0,s2
   12ef0:	4601                	li	a2,0
   12ef2:	4681                	li	a3,0
   12ef4:	00000073          	ecall
   12ef8:	00214983          	lbu	s3,2(sp)
   12efc:	001a8513          	addi	a0,s5,1
   12f00:	4645                	li	a2,17
   12f02:	85d2                	mv	a1,s4
   12f04:	0000b097          	auipc	ra,0xb
   12f08:	610080e7          	jalr	1552(ra) # 1e514 <memcpy>
   12f0c:	4509                	li	a0,2
   12f0e:	000a8023          	sb	zero,0(s5)
   12f12:	f8a981e3          	beq	s3,a0,12e94 <_ZN20complex_dynamic_type3app17h36e5ca44a4abbc06E+0xec>
   12f16:	4591                	li	a1,4
   12f18:	854a                	mv	a0,s2
   12f1a:	4601                	li	a2,0
   12f1c:	4681                	li	a3,0
   12f1e:	874e                	mv	a4,s3
   12f20:	00000073          	ecall
   12f24:	bf85                	j	12e94 <_ZN20complex_dynamic_type3app17h36e5ca44a4abbc06E+0xec>

00012f26 <_ZN20complex_dynamic_type3app17h39766873f2545fd3E>:
   12f26:	711d                	addi	sp,sp,-96
   12f28:	ce86                	sw	ra,92(sp)
   12f2a:	cca2                	sw	s0,88(sp)
   12f2c:	caa6                	sw	s1,84(sp)
   12f2e:	c8ca                	sw	s2,80(sp)
   12f30:	c6ce                	sw	s3,76(sp)
   12f32:	c4d2                	sw	s4,72(sp)
   12f34:	c2d6                	sw	s5,68(sp)
   12f36:	8aaa                	mv	s5,a0
   12f38:	4409                	li	s0,2
   12f3a:	008101a3          	sb	s0,3(sp)
   12f3e:	0044                	addi	s1,sp,4
   12f40:	4679                	li	a2,30
   12f42:	8526                	mv	a0,s1
   12f44:	0000b097          	auipc	ra,0xb
   12f48:	5d0080e7          	jalr	1488(ra) # 1e514 <memcpy>
   12f4c:	02310a13          	addi	s4,sp,35
   12f50:	02100613          	li	a2,33
   12f54:	8552                	mv	a0,s4
   12f56:	4581                	li	a1,0
   12f58:	0000b097          	auipc	ra,0xb
   12f5c:	550080e7          	jalr	1360(ra) # 1e4a8 <memset>
   12f60:	8626                	mv	a2,s1
   12f62:	02810123          	sb	s0,34(sp)
   12f66:	6509                	lui	a0,0x2
   12f68:	4491                	li	s1,4
   12f6a:	4599                	li	a1,6
   12f6c:	9b550793          	addi	a5,a0,-1611 # 19b5 <.Lline_table_start1+0x178a>
   12f70:	46f9                	li	a3,30
   12f72:	4711                	li	a4,4
   12f74:	853e                	mv	a0,a5
   12f76:	00000073          	ecall
   12f7a:	00851863          	bne	a0,s0,12f8a <_ZN20complex_dynamic_type3app17h39766873f2545fd3E+0x64>
   12f7e:	4505                	li	a0,1
   12f80:	00aa8023          	sb	a0,0(s5)
   12f84:	00baa223          	sw	a1,4(s5)
   12f88:	a0bd                	j	12ff6 <_ZN20complex_dynamic_type3app17h39766873f2545fd3E+0xd0>
   12f8a:	853e                	mv	a0,a5
   12f8c:	8652                	mv	a2,s4
   12f8e:	009101a3          	sb	s1,3(sp)
   12f92:	478d                	li	a5,3
   12f94:	45a5                	li	a1,9
   12f96:	02100693          	li	a3,33
   12f9a:	470d                	li	a4,3
   12f9c:	00000073          	ecall
   12fa0:	00851d63          	bne	a0,s0,12fba <_ZN20complex_dynamic_type3app17h39766873f2545fd3E+0x94>
   12fa4:	02214703          	lbu	a4,34(sp)
   12fa8:	4505                	li	a0,1
   12faa:	4609                	li	a2,2
   12fac:	00aa8023          	sb	a0,0(s5)
   12fb0:	00baa223          	sw	a1,4(s5)
   12fb4:	02c71963          	bne	a4,a2,12fe6 <_ZN20complex_dynamic_type3app17h39766873f2545fd3E+0xc0>
   12fb8:	a83d                	j	12ff6 <_ZN20complex_dynamic_type3app17h39766873f2545fd3E+0xd0>
   12fba:	4681                	li	a3,0
   12fbc:	02f10123          	sb	a5,34(sp)
   12fc0:	6509                	lui	a0,0x2
   12fc2:	4599                	li	a1,6
   12fc4:	4625                	li	a2,9
   12fc6:	4709                	li	a4,2
   12fc8:	9b550513          	addi	a0,a0,-1611 # 19b5 <.Lline_table_start1+0x178a>
   12fcc:	08000793          	li	a5,128
   12fd0:	00000073          	ecall
   12fd4:	4609                	li	a2,2
   12fd6:	04f57663          	bgeu	a0,a5,13022 <_ZN20complex_dynamic_type3app17h39766873f2545fd3E+0xfc>
   12fda:	4505                	li	a0,1
   12fdc:	00aa8023          	sb	a0,0(s5)
   12fe0:	00baa223          	sw	a1,4(s5)
   12fe4:	470d                	li	a4,3
   12fe6:	6509                	lui	a0,0x2
   12fe8:	9b550513          	addi	a0,a0,-1611 # 19b5 <.Lline_table_start1+0x178a>
   12fec:	45a5                	li	a1,9
   12fee:	4601                	li	a2,0
   12ff0:	4681                	li	a3,0
   12ff2:	00000073          	ecall
   12ff6:	00314703          	lbu	a4,3(sp)
   12ffa:	4509                	li	a0,2
   12ffc:	00a70a63          	beq	a4,a0,13010 <_ZN20complex_dynamic_type3app17h39766873f2545fd3E+0xea>
   13000:	6509                	lui	a0,0x2
   13002:	9b550513          	addi	a0,a0,-1611 # 19b5 <.Lline_table_start1+0x178a>
   13006:	4599                	li	a1,6
   13008:	4601                	li	a2,0
   1300a:	4681                	li	a3,0
   1300c:	00000073          	ecall
   13010:	40f6                	lw	ra,92(sp)
   13012:	4466                	lw	s0,88(sp)
   13014:	44d6                	lw	s1,84(sp)
   13016:	4946                	lw	s2,80(sp)
   13018:	49b6                	lw	s3,76(sp)
   1301a:	4a26                	lw	s4,72(sp)
   1301c:	4a96                	lw	s5,68(sp)
   1301e:	6125                	addi	sp,sp,96
   13020:	8082                	ret
   13022:	00314703          	lbu	a4,3(sp)
   13026:	00c71463          	bne	a4,a2,1302e <_ZN20complex_dynamic_type3app17h39766873f2545fd3E+0x108>
   1302a:	470d                	li	a4,3
   1302c:	a825                	j	13064 <_ZN20complex_dynamic_type3app17h39766873f2545fd3E+0x13e>
   1302e:	6509                	lui	a0,0x2
   13030:	9b550513          	addi	a0,a0,-1611 # 19b5 <.Lline_table_start1+0x178a>
   13034:	4599                	li	a1,6
   13036:	4601                	li	a2,0
   13038:	4681                	li	a3,0
   1303a:	00000073          	ecall
   1303e:	02214703          	lbu	a4,34(sp)
   13042:	4509                	li	a0,2
   13044:	00a101a3          	sb	a0,3(sp)
   13048:	00a71e63          	bne	a4,a0,13064 <_ZN20complex_dynamic_type3app17h39766873f2545fd3E+0x13e>
   1304c:	001a8513          	addi	a0,s5,1
   13050:	02100613          	li	a2,33
   13054:	85d2                	mv	a1,s4
   13056:	0000b097          	auipc	ra,0xb
   1305a:	4be080e7          	jalr	1214(ra) # 1e514 <memcpy>
   1305e:	000a8023          	sb	zero,0(s5)
   13062:	b77d                	j	13010 <_ZN20complex_dynamic_type3app17h39766873f2545fd3E+0xea>
   13064:	6509                	lui	a0,0x2
   13066:	9b550913          	addi	s2,a0,-1611 # 19b5 <.Lline_table_start1+0x178a>
   1306a:	45a5                	li	a1,9
   1306c:	854a                	mv	a0,s2
   1306e:	4601                	li	a2,0
   13070:	4681                	li	a3,0
   13072:	00000073          	ecall
   13076:	00314983          	lbu	s3,3(sp)
   1307a:	001a8513          	addi	a0,s5,1
   1307e:	02100613          	li	a2,33
   13082:	85d2                	mv	a1,s4
   13084:	0000b097          	auipc	ra,0xb
   13088:	490080e7          	jalr	1168(ra) # 1e514 <memcpy>
   1308c:	4509                	li	a0,2
   1308e:	000a8023          	sb	zero,0(s5)
   13092:	f6a98fe3          	beq	s3,a0,13010 <_ZN20complex_dynamic_type3app17h39766873f2545fd3E+0xea>
   13096:	4599                	li	a1,6
   13098:	854a                	mv	a0,s2
   1309a:	4601                	li	a2,0
   1309c:	4681                	li	a3,0
   1309e:	874e                	mv	a4,s3
   130a0:	00000073          	ecall
   130a4:	b7b5                	j	13010 <_ZN20complex_dynamic_type3app17h39766873f2545fd3E+0xea>

000130a6 <_ZN20complex_dynamic_type3app17h3bb3fc4ba2defa9cE>:
   130a6:	7175                	addi	sp,sp,-144
   130a8:	c706                	sw	ra,140(sp)
   130aa:	c522                	sw	s0,136(sp)
   130ac:	c326                	sw	s1,132(sp)
   130ae:	c14a                	sw	s2,128(sp)
   130b0:	dece                	sw	s3,124(sp)
   130b2:	dcd2                	sw	s4,120(sp)
   130b4:	dad6                	sw	s5,116(sp)
   130b6:	8aaa                	mv	s5,a0
   130b8:	4409                	li	s0,2
   130ba:	008100a3          	sb	s0,1(sp)
   130be:	00210493          	addi	s1,sp,2
   130c2:	04000613          	li	a2,64
   130c6:	8526                	mv	a0,s1
   130c8:	0000b097          	auipc	ra,0xb
   130cc:	44c080e7          	jalr	1100(ra) # 1e514 <memcpy>
   130d0:	04310a13          	addi	s4,sp,67
   130d4:	03100613          	li	a2,49
   130d8:	8552                	mv	a0,s4
   130da:	4581                	li	a1,0
   130dc:	0000b097          	auipc	ra,0xb
   130e0:	3cc080e7          	jalr	972(ra) # 1e4a8 <memset>
   130e4:	8626                	mv	a2,s1
   130e6:	04810123          	sb	s0,66(sp)
   130ea:	6505                	lui	a0,0x1
   130ec:	4491                	li	s1,4
   130ee:	45a1                	li	a1,8
   130f0:	fce50793          	addi	a5,a0,-50 # fce <.Lline_table_start1+0xda3>
   130f4:	04000693          	li	a3,64
   130f8:	4711                	li	a4,4
   130fa:	853e                	mv	a0,a5
   130fc:	00000073          	ecall
   13100:	00851863          	bne	a0,s0,13110 <_ZN20complex_dynamic_type3app17h3bb3fc4ba2defa9cE+0x6a>
   13104:	4505                	li	a0,1
   13106:	00aa8023          	sb	a0,0(s5)
   1310a:	00baa223          	sw	a1,4(s5)
   1310e:	a0bd                	j	1317c <_ZN20complex_dynamic_type3app17h3bb3fc4ba2defa9cE+0xd6>
   13110:	853e                	mv	a0,a5
   13112:	8652                	mv	a2,s4
   13114:	009100a3          	sb	s1,1(sp)
   13118:	478d                	li	a5,3
   1311a:	4595                	li	a1,5
   1311c:	03100693          	li	a3,49
   13120:	470d                	li	a4,3
   13122:	00000073          	ecall
   13126:	00851d63          	bne	a0,s0,13140 <_ZN20complex_dynamic_type3app17h3bb3fc4ba2defa9cE+0x9a>
   1312a:	04214703          	lbu	a4,66(sp)
   1312e:	4505                	li	a0,1
   13130:	4609                	li	a2,2
   13132:	00aa8023          	sb	a0,0(s5)
   13136:	00baa223          	sw	a1,4(s5)
   1313a:	02c71963          	bne	a4,a2,1316c <_ZN20complex_dynamic_type3app17h3bb3fc4ba2defa9cE+0xc6>
   1313e:	a83d                	j	1317c <_ZN20complex_dynamic_type3app17h3bb3fc4ba2defa9cE+0xd6>
   13140:	4681                	li	a3,0
   13142:	04f10123          	sb	a5,66(sp)
   13146:	6505                	lui	a0,0x1
   13148:	45a1                	li	a1,8
   1314a:	4615                	li	a2,5
   1314c:	4709                	li	a4,2
   1314e:	fce50513          	addi	a0,a0,-50 # fce <.Lline_table_start1+0xda3>
   13152:	08000793          	li	a5,128
   13156:	00000073          	ecall
   1315a:	4609                	li	a2,2
   1315c:	04f57663          	bgeu	a0,a5,131a8 <_ZN20complex_dynamic_type3app17h3bb3fc4ba2defa9cE+0x102>
   13160:	4505                	li	a0,1
   13162:	00aa8023          	sb	a0,0(s5)
   13166:	00baa223          	sw	a1,4(s5)
   1316a:	470d                	li	a4,3
   1316c:	6505                	lui	a0,0x1
   1316e:	fce50513          	addi	a0,a0,-50 # fce <.Lline_table_start1+0xda3>
   13172:	4595                	li	a1,5
   13174:	4601                	li	a2,0
   13176:	4681                	li	a3,0
   13178:	00000073          	ecall
   1317c:	00114703          	lbu	a4,1(sp)
   13180:	4509                	li	a0,2
   13182:	00a70a63          	beq	a4,a0,13196 <_ZN20complex_dynamic_type3app17h3bb3fc4ba2defa9cE+0xf0>
   13186:	6505                	lui	a0,0x1
   13188:	fce50513          	addi	a0,a0,-50 # fce <.Lline_table_start1+0xda3>
   1318c:	45a1                	li	a1,8
   1318e:	4601                	li	a2,0
   13190:	4681                	li	a3,0
   13192:	00000073          	ecall
   13196:	40ba                	lw	ra,140(sp)
   13198:	442a                	lw	s0,136(sp)
   1319a:	449a                	lw	s1,132(sp)
   1319c:	490a                	lw	s2,128(sp)
   1319e:	59f6                	lw	s3,124(sp)
   131a0:	5a66                	lw	s4,120(sp)
   131a2:	5ad6                	lw	s5,116(sp)
   131a4:	6149                	addi	sp,sp,144
   131a6:	8082                	ret
   131a8:	00114703          	lbu	a4,1(sp)
   131ac:	00c71463          	bne	a4,a2,131b4 <_ZN20complex_dynamic_type3app17h3bb3fc4ba2defa9cE+0x10e>
   131b0:	470d                	li	a4,3
   131b2:	a825                	j	131ea <_ZN20complex_dynamic_type3app17h3bb3fc4ba2defa9cE+0x144>
   131b4:	6505                	lui	a0,0x1
   131b6:	fce50513          	addi	a0,a0,-50 # fce <.Lline_table_start1+0xda3>
   131ba:	45a1                	li	a1,8
   131bc:	4601                	li	a2,0
   131be:	4681                	li	a3,0
   131c0:	00000073          	ecall
   131c4:	04214703          	lbu	a4,66(sp)
   131c8:	4509                	li	a0,2
   131ca:	00a100a3          	sb	a0,1(sp)
   131ce:	00a71e63          	bne	a4,a0,131ea <_ZN20complex_dynamic_type3app17h3bb3fc4ba2defa9cE+0x144>
   131d2:	001a8513          	addi	a0,s5,1
   131d6:	03100613          	li	a2,49
   131da:	85d2                	mv	a1,s4
   131dc:	0000b097          	auipc	ra,0xb
   131e0:	338080e7          	jalr	824(ra) # 1e514 <memcpy>
   131e4:	000a8023          	sb	zero,0(s5)
   131e8:	b77d                	j	13196 <_ZN20complex_dynamic_type3app17h3bb3fc4ba2defa9cE+0xf0>
   131ea:	6505                	lui	a0,0x1
   131ec:	fce50913          	addi	s2,a0,-50 # fce <.Lline_table_start1+0xda3>
   131f0:	4595                	li	a1,5
   131f2:	854a                	mv	a0,s2
   131f4:	4601                	li	a2,0
   131f6:	4681                	li	a3,0
   131f8:	00000073          	ecall
   131fc:	00114983          	lbu	s3,1(sp)
   13200:	001a8513          	addi	a0,s5,1
   13204:	03100613          	li	a2,49
   13208:	85d2                	mv	a1,s4
   1320a:	0000b097          	auipc	ra,0xb
   1320e:	30a080e7          	jalr	778(ra) # 1e514 <memcpy>
   13212:	4509                	li	a0,2
   13214:	000a8023          	sb	zero,0(s5)
   13218:	f6a98fe3          	beq	s3,a0,13196 <_ZN20complex_dynamic_type3app17h3bb3fc4ba2defa9cE+0xf0>
   1321c:	45a1                	li	a1,8
   1321e:	854a                	mv	a0,s2
   13220:	4601                	li	a2,0
   13222:	4681                	li	a3,0
   13224:	874e                	mv	a4,s3
   13226:	00000073          	ecall
   1322a:	b7b5                	j	13196 <_ZN20complex_dynamic_type3app17h3bb3fc4ba2defa9cE+0xf0>

0001322c <_ZN20complex_dynamic_type3app17h3e4838f1a06b573cE>:
   1322c:	7175                	addi	sp,sp,-144
   1322e:	c706                	sw	ra,140(sp)
   13230:	c522                	sw	s0,136(sp)
   13232:	c326                	sw	s1,132(sp)
   13234:	c14a                	sw	s2,128(sp)
   13236:	dece                	sw	s3,124(sp)
   13238:	dcd2                	sw	s4,120(sp)
   1323a:	dad6                	sw	s5,116(sp)
   1323c:	8aaa                	mv	s5,a0
   1323e:	4409                	li	s0,2
   13240:	00810223          	sb	s0,4(sp)
   13244:	00510493          	addi	s1,sp,5
   13248:	03c00613          	li	a2,60
   1324c:	8526                	mv	a0,s1
   1324e:	0000b097          	auipc	ra,0xb
   13252:	2c6080e7          	jalr	710(ra) # 1e514 <memcpy>
   13256:	04210a13          	addi	s4,sp,66
   1325a:	03200613          	li	a2,50
   1325e:	8552                	mv	a0,s4
   13260:	4581                	li	a1,0
   13262:	0000b097          	auipc	ra,0xb
   13266:	246080e7          	jalr	582(ra) # 1e4a8 <memset>
   1326a:	8626                	mv	a2,s1
   1326c:	048100a3          	sb	s0,65(sp)
   13270:	6509                	lui	a0,0x2
   13272:	4491                	li	s1,4
   13274:	4599                	li	a1,6
   13276:	b1e50793          	addi	a5,a0,-1250 # 1b1e <.Lline_table_start1+0x18f3>
   1327a:	03c00693          	li	a3,60
   1327e:	4711                	li	a4,4
   13280:	853e                	mv	a0,a5
   13282:	00000073          	ecall
   13286:	00851863          	bne	a0,s0,13296 <_ZN20complex_dynamic_type3app17h3e4838f1a06b573cE+0x6a>
   1328a:	4505                	li	a0,1
   1328c:	00aa8023          	sb	a0,0(s5)
   13290:	00baa223          	sw	a1,4(s5)
   13294:	a0bd                	j	13302 <_ZN20complex_dynamic_type3app17h3e4838f1a06b573cE+0xd6>
   13296:	853e                	mv	a0,a5
   13298:	8652                	mv	a2,s4
   1329a:	00910223          	sb	s1,4(sp)
   1329e:	478d                	li	a5,3
   132a0:	45a1                	li	a1,8
   132a2:	03200693          	li	a3,50
   132a6:	470d                	li	a4,3
   132a8:	00000073          	ecall
   132ac:	00851d63          	bne	a0,s0,132c6 <_ZN20complex_dynamic_type3app17h3e4838f1a06b573cE+0x9a>
   132b0:	04114703          	lbu	a4,65(sp)
   132b4:	4505                	li	a0,1
   132b6:	4609                	li	a2,2
   132b8:	00aa8023          	sb	a0,0(s5)
   132bc:	00baa223          	sw	a1,4(s5)
   132c0:	02c71963          	bne	a4,a2,132f2 <_ZN20complex_dynamic_type3app17h3e4838f1a06b573cE+0xc6>
   132c4:	a83d                	j	13302 <_ZN20complex_dynamic_type3app17h3e4838f1a06b573cE+0xd6>
   132c6:	4681                	li	a3,0
   132c8:	04f100a3          	sb	a5,65(sp)
   132cc:	6509                	lui	a0,0x2
   132ce:	4599                	li	a1,6
   132d0:	4621                	li	a2,8
   132d2:	4709                	li	a4,2
   132d4:	b1e50513          	addi	a0,a0,-1250 # 1b1e <.Lline_table_start1+0x18f3>
   132d8:	08000793          	li	a5,128
   132dc:	00000073          	ecall
   132e0:	4609                	li	a2,2
   132e2:	04f57663          	bgeu	a0,a5,1332e <_ZN20complex_dynamic_type3app17h3e4838f1a06b573cE+0x102>
   132e6:	4505                	li	a0,1
   132e8:	00aa8023          	sb	a0,0(s5)
   132ec:	00baa223          	sw	a1,4(s5)
   132f0:	470d                	li	a4,3
   132f2:	6509                	lui	a0,0x2
   132f4:	b1e50513          	addi	a0,a0,-1250 # 1b1e <.Lline_table_start1+0x18f3>
   132f8:	45a1                	li	a1,8
   132fa:	4601                	li	a2,0
   132fc:	4681                	li	a3,0
   132fe:	00000073          	ecall
   13302:	00414703          	lbu	a4,4(sp)
   13306:	4509                	li	a0,2
   13308:	00a70a63          	beq	a4,a0,1331c <_ZN20complex_dynamic_type3app17h3e4838f1a06b573cE+0xf0>
   1330c:	6509                	lui	a0,0x2
   1330e:	b1e50513          	addi	a0,a0,-1250 # 1b1e <.Lline_table_start1+0x18f3>
   13312:	4599                	li	a1,6
   13314:	4601                	li	a2,0
   13316:	4681                	li	a3,0
   13318:	00000073          	ecall
   1331c:	40ba                	lw	ra,140(sp)
   1331e:	442a                	lw	s0,136(sp)
   13320:	449a                	lw	s1,132(sp)
   13322:	490a                	lw	s2,128(sp)
   13324:	59f6                	lw	s3,124(sp)
   13326:	5a66                	lw	s4,120(sp)
   13328:	5ad6                	lw	s5,116(sp)
   1332a:	6149                	addi	sp,sp,144
   1332c:	8082                	ret
   1332e:	00414703          	lbu	a4,4(sp)
   13332:	00c71463          	bne	a4,a2,1333a <_ZN20complex_dynamic_type3app17h3e4838f1a06b573cE+0x10e>
   13336:	470d                	li	a4,3
   13338:	a825                	j	13370 <_ZN20complex_dynamic_type3app17h3e4838f1a06b573cE+0x144>
   1333a:	6509                	lui	a0,0x2
   1333c:	b1e50513          	addi	a0,a0,-1250 # 1b1e <.Lline_table_start1+0x18f3>
   13340:	4599                	li	a1,6
   13342:	4601                	li	a2,0
   13344:	4681                	li	a3,0
   13346:	00000073          	ecall
   1334a:	04114703          	lbu	a4,65(sp)
   1334e:	4509                	li	a0,2
   13350:	00a10223          	sb	a0,4(sp)
   13354:	00a71e63          	bne	a4,a0,13370 <_ZN20complex_dynamic_type3app17h3e4838f1a06b573cE+0x144>
   13358:	001a8513          	addi	a0,s5,1
   1335c:	03200613          	li	a2,50
   13360:	85d2                	mv	a1,s4
   13362:	0000b097          	auipc	ra,0xb
   13366:	1b2080e7          	jalr	434(ra) # 1e514 <memcpy>
   1336a:	000a8023          	sb	zero,0(s5)
   1336e:	b77d                	j	1331c <_ZN20complex_dynamic_type3app17h3e4838f1a06b573cE+0xf0>
   13370:	6509                	lui	a0,0x2
   13372:	b1e50913          	addi	s2,a0,-1250 # 1b1e <.Lline_table_start1+0x18f3>
   13376:	45a1                	li	a1,8
   13378:	854a                	mv	a0,s2
   1337a:	4601                	li	a2,0
   1337c:	4681                	li	a3,0
   1337e:	00000073          	ecall
   13382:	00414983          	lbu	s3,4(sp)
   13386:	001a8513          	addi	a0,s5,1
   1338a:	03200613          	li	a2,50
   1338e:	85d2                	mv	a1,s4
   13390:	0000b097          	auipc	ra,0xb
   13394:	184080e7          	jalr	388(ra) # 1e514 <memcpy>
   13398:	4509                	li	a0,2
   1339a:	000a8023          	sb	zero,0(s5)
   1339e:	f6a98fe3          	beq	s3,a0,1331c <_ZN20complex_dynamic_type3app17h3e4838f1a06b573cE+0xf0>
   133a2:	4599                	li	a1,6
   133a4:	854a                	mv	a0,s2
   133a6:	4601                	li	a2,0
   133a8:	4681                	li	a3,0
   133aa:	874e                	mv	a4,s3
   133ac:	00000073          	ecall
   133b0:	b7b5                	j	1331c <_ZN20complex_dynamic_type3app17h3e4838f1a06b573cE+0xf0>

000133b2 <_ZN20complex_dynamic_type3app17h3f5dc15ff8ba05beE>:
   133b2:	7175                	addi	sp,sp,-144
   133b4:	c706                	sw	ra,140(sp)
   133b6:	c522                	sw	s0,136(sp)
   133b8:	c326                	sw	s1,132(sp)
   133ba:	c14a                	sw	s2,128(sp)
   133bc:	dece                	sw	s3,124(sp)
   133be:	dcd2                	sw	s4,120(sp)
   133c0:	dad6                	sw	s5,116(sp)
   133c2:	8aaa                	mv	s5,a0
   133c4:	4409                	li	s0,2
   133c6:	00810323          	sb	s0,6(sp)
   133ca:	00710493          	addi	s1,sp,7
   133ce:	04900613          	li	a2,73
   133d2:	8526                	mv	a0,s1
   133d4:	0000b097          	auipc	ra,0xb
   133d8:	140080e7          	jalr	320(ra) # 1e514 <memcpy>
   133dc:	05110a13          	addi	s4,sp,81
   133e0:	02300613          	li	a2,35
   133e4:	8552                	mv	a0,s4
   133e6:	4581                	li	a1,0
   133e8:	0000b097          	auipc	ra,0xb
   133ec:	0c0080e7          	jalr	192(ra) # 1e4a8 <memset>
   133f0:	8626                	mv	a2,s1
   133f2:	04810823          	sb	s0,80(sp)
   133f6:	6505                	lui	a0,0x1
   133f8:	4491                	li	s1,4
   133fa:	459d                	li	a1,7
   133fc:	55150793          	addi	a5,a0,1361 # 1551 <.Lline_table_start1+0x1326>
   13400:	04900693          	li	a3,73
   13404:	4711                	li	a4,4
   13406:	853e                	mv	a0,a5
   13408:	00000073          	ecall
   1340c:	00851863          	bne	a0,s0,1341c <_ZN20complex_dynamic_type3app17h3f5dc15ff8ba05beE+0x6a>
   13410:	4505                	li	a0,1
   13412:	00aa8023          	sb	a0,0(s5)
   13416:	00baa223          	sw	a1,4(s5)
   1341a:	a0bd                	j	13488 <_ZN20complex_dynamic_type3app17h3f5dc15ff8ba05beE+0xd6>
   1341c:	853e                	mv	a0,a5
   1341e:	8652                	mv	a2,s4
   13420:	00910323          	sb	s1,6(sp)
   13424:	4785                	li	a5,1
   13426:	448d                	li	s1,3
   13428:	4585                	li	a1,1
   1342a:	02300693          	li	a3,35
   1342e:	470d                	li	a4,3
   13430:	00000073          	ecall
   13434:	00851c63          	bne	a0,s0,1344c <_ZN20complex_dynamic_type3app17h3f5dc15ff8ba05beE+0x9a>
   13438:	05014703          	lbu	a4,80(sp)
   1343c:	4509                	li	a0,2
   1343e:	00fa8023          	sb	a5,0(s5)
   13442:	00baa223          	sw	a1,4(s5)
   13446:	02a71963          	bne	a4,a0,13478 <_ZN20complex_dynamic_type3app17h3f5dc15ff8ba05beE+0xc6>
   1344a:	a83d                	j	13488 <_ZN20complex_dynamic_type3app17h3f5dc15ff8ba05beE+0xd6>
   1344c:	4681                	li	a3,0
   1344e:	04910823          	sb	s1,80(sp)
   13452:	6505                	lui	a0,0x1
   13454:	4785                	li	a5,1
   13456:	459d                	li	a1,7
   13458:	4605                	li	a2,1
   1345a:	4709                	li	a4,2
   1345c:	55150513          	addi	a0,a0,1361 # 1551 <.Lline_table_start1+0x1326>
   13460:	08000493          	li	s1,128
   13464:	00000073          	ecall
   13468:	4609                	li	a2,2
   1346a:	04957563          	bgeu	a0,s1,134b4 <_ZN20complex_dynamic_type3app17h3f5dc15ff8ba05beE+0x102>
   1346e:	00fa8023          	sb	a5,0(s5)
   13472:	00baa223          	sw	a1,4(s5)
   13476:	470d                	li	a4,3
   13478:	6505                	lui	a0,0x1
   1347a:	55150513          	addi	a0,a0,1361 # 1551 <.Lline_table_start1+0x1326>
   1347e:	4585                	li	a1,1
   13480:	4601                	li	a2,0
   13482:	4681                	li	a3,0
   13484:	00000073          	ecall
   13488:	00614703          	lbu	a4,6(sp)
   1348c:	4509                	li	a0,2
   1348e:	00a70a63          	beq	a4,a0,134a2 <_ZN20complex_dynamic_type3app17h3f5dc15ff8ba05beE+0xf0>
   13492:	6505                	lui	a0,0x1
   13494:	55150513          	addi	a0,a0,1361 # 1551 <.Lline_table_start1+0x1326>
   13498:	459d                	li	a1,7
   1349a:	4601                	li	a2,0
   1349c:	4681                	li	a3,0
   1349e:	00000073          	ecall
   134a2:	40ba                	lw	ra,140(sp)
   134a4:	442a                	lw	s0,136(sp)
   134a6:	449a                	lw	s1,132(sp)
   134a8:	490a                	lw	s2,128(sp)
   134aa:	59f6                	lw	s3,124(sp)
   134ac:	5a66                	lw	s4,120(sp)
   134ae:	5ad6                	lw	s5,116(sp)
   134b0:	6149                	addi	sp,sp,144
   134b2:	8082                	ret
   134b4:	00614703          	lbu	a4,6(sp)
   134b8:	00c71463          	bne	a4,a2,134c0 <_ZN20complex_dynamic_type3app17h3f5dc15ff8ba05beE+0x10e>
   134bc:	470d                	li	a4,3
   134be:	a825                	j	134f6 <_ZN20complex_dynamic_type3app17h3f5dc15ff8ba05beE+0x144>
   134c0:	6505                	lui	a0,0x1
   134c2:	55150513          	addi	a0,a0,1361 # 1551 <.Lline_table_start1+0x1326>
   134c6:	459d                	li	a1,7
   134c8:	4601                	li	a2,0
   134ca:	4681                	li	a3,0
   134cc:	00000073          	ecall
   134d0:	05014703          	lbu	a4,80(sp)
   134d4:	4509                	li	a0,2
   134d6:	00a10323          	sb	a0,6(sp)
   134da:	00a71e63          	bne	a4,a0,134f6 <_ZN20complex_dynamic_type3app17h3f5dc15ff8ba05beE+0x144>
   134de:	001a8513          	addi	a0,s5,1
   134e2:	02300613          	li	a2,35
   134e6:	85d2                	mv	a1,s4
   134e8:	0000b097          	auipc	ra,0xb
   134ec:	02c080e7          	jalr	44(ra) # 1e514 <memcpy>
   134f0:	000a8023          	sb	zero,0(s5)
   134f4:	b77d                	j	134a2 <_ZN20complex_dynamic_type3app17h3f5dc15ff8ba05beE+0xf0>
   134f6:	6505                	lui	a0,0x1
   134f8:	55150913          	addi	s2,a0,1361 # 1551 <.Lline_table_start1+0x1326>
   134fc:	4585                	li	a1,1
   134fe:	854a                	mv	a0,s2
   13500:	4601                	li	a2,0
   13502:	4681                	li	a3,0
   13504:	00000073          	ecall
   13508:	00614983          	lbu	s3,6(sp)
   1350c:	001a8513          	addi	a0,s5,1
   13510:	02300613          	li	a2,35
   13514:	85d2                	mv	a1,s4
   13516:	0000b097          	auipc	ra,0xb
   1351a:	ffe080e7          	jalr	-2(ra) # 1e514 <memcpy>
   1351e:	4509                	li	a0,2
   13520:	000a8023          	sb	zero,0(s5)
   13524:	f6a98fe3          	beq	s3,a0,134a2 <_ZN20complex_dynamic_type3app17h3f5dc15ff8ba05beE+0xf0>
   13528:	459d                	li	a1,7
   1352a:	854a                	mv	a0,s2
   1352c:	4601                	li	a2,0
   1352e:	4681                	li	a3,0
   13530:	874e                	mv	a4,s3
   13532:	00000073          	ecall
   13536:	b7b5                	j	134a2 <_ZN20complex_dynamic_type3app17h3f5dc15ff8ba05beE+0xf0>

00013538 <_ZN20complex_dynamic_type3app17h3fe7772a9af396c2E>:
   13538:	7119                	addi	sp,sp,-128
   1353a:	de86                	sw	ra,124(sp)
   1353c:	dca2                	sw	s0,120(sp)
   1353e:	daa6                	sw	s1,116(sp)
   13540:	d8ca                	sw	s2,112(sp)
   13542:	d6ce                	sw	s3,108(sp)
   13544:	d4d2                	sw	s4,104(sp)
   13546:	d2d6                	sw	s5,100(sp)
   13548:	8aaa                	mv	s5,a0
   1354a:	4409                	li	s0,2
   1354c:	008101a3          	sb	s0,3(sp)
   13550:	0044                	addi	s1,sp,4
   13552:	03800613          	li	a2,56
   13556:	8526                	mv	a0,s1
   13558:	0000b097          	auipc	ra,0xb
   1355c:	fbc080e7          	jalr	-68(ra) # 1e514 <memcpy>
   13560:	03d10a13          	addi	s4,sp,61
   13564:	02700613          	li	a2,39
   13568:	8552                	mv	a0,s4
   1356a:	4581                	li	a1,0
   1356c:	0000b097          	auipc	ra,0xb
   13570:	f3c080e7          	jalr	-196(ra) # 1e4a8 <memset>
   13574:	8626                	mv	a2,s1
   13576:	02810e23          	sb	s0,60(sp)
   1357a:	6505                	lui	a0,0x1
   1357c:	4491                	li	s1,4
   1357e:	4589                	li	a1,2
   13580:	e2b50793          	addi	a5,a0,-469 # e2b <.Lline_table_start1+0xc00>
   13584:	03800693          	li	a3,56
   13588:	4711                	li	a4,4
   1358a:	853e                	mv	a0,a5
   1358c:	00000073          	ecall
   13590:	00851863          	bne	a0,s0,135a0 <_ZN20complex_dynamic_type3app17h3fe7772a9af396c2E+0x68>
   13594:	4505                	li	a0,1
   13596:	00aa8023          	sb	a0,0(s5)
   1359a:	00baa223          	sw	a1,4(s5)
   1359e:	a0bd                	j	1360c <_ZN20complex_dynamic_type3app17h3fe7772a9af396c2E+0xd4>
   135a0:	853e                	mv	a0,a5
   135a2:	8652                	mv	a2,s4
   135a4:	009101a3          	sb	s1,3(sp)
   135a8:	478d                	li	a5,3
   135aa:	45a1                	li	a1,8
   135ac:	02700693          	li	a3,39
   135b0:	470d                	li	a4,3
   135b2:	00000073          	ecall
   135b6:	00851d63          	bne	a0,s0,135d0 <_ZN20complex_dynamic_type3app17h3fe7772a9af396c2E+0x98>
   135ba:	03c14703          	lbu	a4,60(sp)
   135be:	4505                	li	a0,1
   135c0:	4609                	li	a2,2
   135c2:	00aa8023          	sb	a0,0(s5)
   135c6:	00baa223          	sw	a1,4(s5)
   135ca:	02c71963          	bne	a4,a2,135fc <_ZN20complex_dynamic_type3app17h3fe7772a9af396c2E+0xc4>
   135ce:	a83d                	j	1360c <_ZN20complex_dynamic_type3app17h3fe7772a9af396c2E+0xd4>
   135d0:	4681                	li	a3,0
   135d2:	02f10e23          	sb	a5,60(sp)
   135d6:	6505                	lui	a0,0x1
   135d8:	4589                	li	a1,2
   135da:	4621                	li	a2,8
   135dc:	4709                	li	a4,2
   135de:	e2b50513          	addi	a0,a0,-469 # e2b <.Lline_table_start1+0xc00>
   135e2:	08000793          	li	a5,128
   135e6:	00000073          	ecall
   135ea:	4609                	li	a2,2
   135ec:	04f57663          	bgeu	a0,a5,13638 <_ZN20complex_dynamic_type3app17h3fe7772a9af396c2E+0x100>
   135f0:	4505                	li	a0,1
   135f2:	00aa8023          	sb	a0,0(s5)
   135f6:	00baa223          	sw	a1,4(s5)
   135fa:	470d                	li	a4,3
   135fc:	6505                	lui	a0,0x1
   135fe:	e2b50513          	addi	a0,a0,-469 # e2b <.Lline_table_start1+0xc00>
   13602:	45a1                	li	a1,8
   13604:	4601                	li	a2,0
   13606:	4681                	li	a3,0
   13608:	00000073          	ecall
   1360c:	00314703          	lbu	a4,3(sp)
   13610:	4509                	li	a0,2
   13612:	00a70a63          	beq	a4,a0,13626 <_ZN20complex_dynamic_type3app17h3fe7772a9af396c2E+0xee>
   13616:	6505                	lui	a0,0x1
   13618:	e2b50513          	addi	a0,a0,-469 # e2b <.Lline_table_start1+0xc00>
   1361c:	4589                	li	a1,2
   1361e:	4601                	li	a2,0
   13620:	4681                	li	a3,0
   13622:	00000073          	ecall
   13626:	50f6                	lw	ra,124(sp)
   13628:	5466                	lw	s0,120(sp)
   1362a:	54d6                	lw	s1,116(sp)
   1362c:	5946                	lw	s2,112(sp)
   1362e:	59b6                	lw	s3,108(sp)
   13630:	5a26                	lw	s4,104(sp)
   13632:	5a96                	lw	s5,100(sp)
   13634:	6109                	addi	sp,sp,128
   13636:	8082                	ret
   13638:	00314703          	lbu	a4,3(sp)
   1363c:	00c71463          	bne	a4,a2,13644 <_ZN20complex_dynamic_type3app17h3fe7772a9af396c2E+0x10c>
   13640:	470d                	li	a4,3
   13642:	a825                	j	1367a <_ZN20complex_dynamic_type3app17h3fe7772a9af396c2E+0x142>
   13644:	6505                	lui	a0,0x1
   13646:	e2b50513          	addi	a0,a0,-469 # e2b <.Lline_table_start1+0xc00>
   1364a:	4589                	li	a1,2
   1364c:	4601                	li	a2,0
   1364e:	4681                	li	a3,0
   13650:	00000073          	ecall
   13654:	03c14703          	lbu	a4,60(sp)
   13658:	4509                	li	a0,2
   1365a:	00a101a3          	sb	a0,3(sp)
   1365e:	00a71e63          	bne	a4,a0,1367a <_ZN20complex_dynamic_type3app17h3fe7772a9af396c2E+0x142>
   13662:	001a8513          	addi	a0,s5,1
   13666:	02700613          	li	a2,39
   1366a:	85d2                	mv	a1,s4
   1366c:	0000b097          	auipc	ra,0xb
   13670:	ea8080e7          	jalr	-344(ra) # 1e514 <memcpy>
   13674:	000a8023          	sb	zero,0(s5)
   13678:	b77d                	j	13626 <_ZN20complex_dynamic_type3app17h3fe7772a9af396c2E+0xee>
   1367a:	6505                	lui	a0,0x1
   1367c:	e2b50913          	addi	s2,a0,-469 # e2b <.Lline_table_start1+0xc00>
   13680:	45a1                	li	a1,8
   13682:	854a                	mv	a0,s2
   13684:	4601                	li	a2,0
   13686:	4681                	li	a3,0
   13688:	00000073          	ecall
   1368c:	00314983          	lbu	s3,3(sp)
   13690:	001a8513          	addi	a0,s5,1
   13694:	02700613          	li	a2,39
   13698:	85d2                	mv	a1,s4
   1369a:	0000b097          	auipc	ra,0xb
   1369e:	e7a080e7          	jalr	-390(ra) # 1e514 <memcpy>
   136a2:	4509                	li	a0,2
   136a4:	000a8023          	sb	zero,0(s5)
   136a8:	f6a98fe3          	beq	s3,a0,13626 <_ZN20complex_dynamic_type3app17h3fe7772a9af396c2E+0xee>
   136ac:	4589                	li	a1,2
   136ae:	854a                	mv	a0,s2
   136b0:	4601                	li	a2,0
   136b2:	4681                	li	a3,0
   136b4:	874e                	mv	a4,s3
   136b6:	00000073          	ecall
   136ba:	b7b5                	j	13626 <_ZN20complex_dynamic_type3app17h3fe7772a9af396c2E+0xee>

000136bc <_ZN20complex_dynamic_type3app17h45083a3eb275194eE>:
   136bc:	7119                	addi	sp,sp,-128
   136be:	de86                	sw	ra,124(sp)
   136c0:	dca2                	sw	s0,120(sp)
   136c2:	daa6                	sw	s1,116(sp)
   136c4:	d8ca                	sw	s2,112(sp)
   136c6:	d6ce                	sw	s3,108(sp)
   136c8:	d4d2                	sw	s4,104(sp)
   136ca:	d2d6                	sw	s5,100(sp)
   136cc:	8aaa                	mv	s5,a0
   136ce:	4409                	li	s0,2
   136d0:	00810623          	sb	s0,12(sp)
   136d4:	00d10493          	addi	s1,sp,13
   136d8:	02c00613          	li	a2,44
   136dc:	8526                	mv	a0,s1
   136de:	0000b097          	auipc	ra,0xb
   136e2:	e36080e7          	jalr	-458(ra) # 1e514 <memcpy>
   136e6:	03a10a13          	addi	s4,sp,58
   136ea:	02a00613          	li	a2,42
   136ee:	8552                	mv	a0,s4
   136f0:	4581                	li	a1,0
   136f2:	0000b097          	auipc	ra,0xb
   136f6:	db6080e7          	jalr	-586(ra) # 1e4a8 <memset>
   136fa:	8626                	mv	a2,s1
   136fc:	02810ca3          	sb	s0,57(sp)
   13700:	6509                	lui	a0,0x2
   13702:	4491                	li	s1,4
   13704:	458d                	li	a1,3
   13706:	4f050793          	addi	a5,a0,1264 # 24f0 <.Lline_table_start1+0x22c5>
   1370a:	02c00693          	li	a3,44
   1370e:	4711                	li	a4,4
   13710:	853e                	mv	a0,a5
   13712:	00000073          	ecall
   13716:	00851863          	bne	a0,s0,13726 <_ZN20complex_dynamic_type3app17h45083a3eb275194eE+0x6a>
   1371a:	4505                	li	a0,1
   1371c:	00aa8023          	sb	a0,0(s5)
   13720:	00baa223          	sw	a1,4(s5)
   13724:	a0bd                	j	13792 <_ZN20complex_dynamic_type3app17h45083a3eb275194eE+0xd6>
   13726:	853e                	mv	a0,a5
   13728:	4581                	li	a1,0
   1372a:	8652                	mv	a2,s4
   1372c:	00910623          	sb	s1,12(sp)
   13730:	478d                	li	a5,3
   13732:	02a00693          	li	a3,42
   13736:	470d                	li	a4,3
   13738:	00000073          	ecall
   1373c:	00851d63          	bne	a0,s0,13756 <_ZN20complex_dynamic_type3app17h45083a3eb275194eE+0x9a>
   13740:	03914703          	lbu	a4,57(sp)
   13744:	4505                	li	a0,1
   13746:	4609                	li	a2,2
   13748:	00aa8023          	sb	a0,0(s5)
   1374c:	00baa223          	sw	a1,4(s5)
   13750:	02c71963          	bne	a4,a2,13782 <_ZN20complex_dynamic_type3app17h45083a3eb275194eE+0xc6>
   13754:	a83d                	j	13792 <_ZN20complex_dynamic_type3app17h45083a3eb275194eE+0xd6>
   13756:	4601                	li	a2,0
   13758:	4681                	li	a3,0
   1375a:	02f10ca3          	sb	a5,57(sp)
   1375e:	6509                	lui	a0,0x2
   13760:	458d                	li	a1,3
   13762:	4709                	li	a4,2
   13764:	4f050513          	addi	a0,a0,1264 # 24f0 <.Lline_table_start1+0x22c5>
   13768:	08000793          	li	a5,128
   1376c:	00000073          	ecall
   13770:	4609                	li	a2,2
   13772:	04f57663          	bgeu	a0,a5,137be <_ZN20complex_dynamic_type3app17h45083a3eb275194eE+0x102>
   13776:	4505                	li	a0,1
   13778:	00aa8023          	sb	a0,0(s5)
   1377c:	00baa223          	sw	a1,4(s5)
   13780:	470d                	li	a4,3
   13782:	6509                	lui	a0,0x2
   13784:	4f050513          	addi	a0,a0,1264 # 24f0 <.Lline_table_start1+0x22c5>
   13788:	4581                	li	a1,0
   1378a:	4601                	li	a2,0
   1378c:	4681                	li	a3,0
   1378e:	00000073          	ecall
   13792:	00c14703          	lbu	a4,12(sp)
   13796:	4509                	li	a0,2
   13798:	00a70a63          	beq	a4,a0,137ac <_ZN20complex_dynamic_type3app17h45083a3eb275194eE+0xf0>
   1379c:	6509                	lui	a0,0x2
   1379e:	4f050513          	addi	a0,a0,1264 # 24f0 <.Lline_table_start1+0x22c5>
   137a2:	458d                	li	a1,3
   137a4:	4601                	li	a2,0
   137a6:	4681                	li	a3,0
   137a8:	00000073          	ecall
   137ac:	50f6                	lw	ra,124(sp)
   137ae:	5466                	lw	s0,120(sp)
   137b0:	54d6                	lw	s1,116(sp)
   137b2:	5946                	lw	s2,112(sp)
   137b4:	59b6                	lw	s3,108(sp)
   137b6:	5a26                	lw	s4,104(sp)
   137b8:	5a96                	lw	s5,100(sp)
   137ba:	6109                	addi	sp,sp,128
   137bc:	8082                	ret
   137be:	00c14703          	lbu	a4,12(sp)
   137c2:	00c71463          	bne	a4,a2,137ca <_ZN20complex_dynamic_type3app17h45083a3eb275194eE+0x10e>
   137c6:	470d                	li	a4,3
   137c8:	a825                	j	13800 <_ZN20complex_dynamic_type3app17h45083a3eb275194eE+0x144>
   137ca:	6509                	lui	a0,0x2
   137cc:	4f050513          	addi	a0,a0,1264 # 24f0 <.Lline_table_start1+0x22c5>
   137d0:	458d                	li	a1,3
   137d2:	4601                	li	a2,0
   137d4:	4681                	li	a3,0
   137d6:	00000073          	ecall
   137da:	03914703          	lbu	a4,57(sp)
   137de:	4509                	li	a0,2
   137e0:	00a10623          	sb	a0,12(sp)
   137e4:	00a71e63          	bne	a4,a0,13800 <_ZN20complex_dynamic_type3app17h45083a3eb275194eE+0x144>
   137e8:	001a8513          	addi	a0,s5,1
   137ec:	02a00613          	li	a2,42
   137f0:	85d2                	mv	a1,s4
   137f2:	0000b097          	auipc	ra,0xb
   137f6:	d22080e7          	jalr	-734(ra) # 1e514 <memcpy>
   137fa:	000a8023          	sb	zero,0(s5)
   137fe:	b77d                	j	137ac <_ZN20complex_dynamic_type3app17h45083a3eb275194eE+0xf0>
   13800:	6509                	lui	a0,0x2
   13802:	4f050913          	addi	s2,a0,1264 # 24f0 <.Lline_table_start1+0x22c5>
   13806:	854a                	mv	a0,s2
   13808:	4581                	li	a1,0
   1380a:	4601                	li	a2,0
   1380c:	4681                	li	a3,0
   1380e:	00000073          	ecall
   13812:	00c14983          	lbu	s3,12(sp)
   13816:	001a8513          	addi	a0,s5,1
   1381a:	02a00613          	li	a2,42
   1381e:	85d2                	mv	a1,s4
   13820:	0000b097          	auipc	ra,0xb
   13824:	cf4080e7          	jalr	-780(ra) # 1e514 <memcpy>
   13828:	4509                	li	a0,2
   1382a:	000a8023          	sb	zero,0(s5)
   1382e:	f6a98fe3          	beq	s3,a0,137ac <_ZN20complex_dynamic_type3app17h45083a3eb275194eE+0xf0>
   13832:	458d                	li	a1,3
   13834:	854a                	mv	a0,s2
   13836:	4601                	li	a2,0
   13838:	4681                	li	a3,0
   1383a:	874e                	mv	a4,s3
   1383c:	00000073          	ecall
   13840:	b7b5                	j	137ac <_ZN20complex_dynamic_type3app17h45083a3eb275194eE+0xf0>

00013842 <_ZN20complex_dynamic_type3app17h453a1411b464ab40E>:
   13842:	7155                	addi	sp,sp,-208
   13844:	c786                	sw	ra,204(sp)
   13846:	c5a2                	sw	s0,200(sp)
   13848:	c3a6                	sw	s1,196(sp)
   1384a:	c1ca                	sw	s2,192(sp)
   1384c:	df4e                	sw	s3,188(sp)
   1384e:	dd52                	sw	s4,184(sp)
   13850:	8a2a                	mv	s4,a0
   13852:	4409                	li	s0,2
   13854:	00810323          	sb	s0,6(sp)
   13858:	00710493          	addi	s1,sp,7
   1385c:	04f00613          	li	a2,79
   13860:	8526                	mv	a0,s1
   13862:	0000b097          	auipc	ra,0xb
   13866:	cb2080e7          	jalr	-846(ra) # 1e514 <memcpy>
   1386a:	05710993          	addi	s3,sp,87
   1386e:	06100613          	li	a2,97
   13872:	854e                	mv	a0,s3
   13874:	4581                	li	a1,0
   13876:	0000b097          	auipc	ra,0xb
   1387a:	c32080e7          	jalr	-974(ra) # 1e4a8 <memset>
   1387e:	8626                	mv	a2,s1
   13880:	04810b23          	sb	s0,86(sp)
   13884:	4791                	li	a5,4
   13886:	1b600513          	li	a0,438
   1388a:	4589                	li	a1,2
   1388c:	04f00693          	li	a3,79
   13890:	4711                	li	a4,4
   13892:	00000073          	ecall
   13896:	00851863          	bne	a0,s0,138a6 <_ZN20complex_dynamic_type3app17h453a1411b464ab40E+0x64>
   1389a:	4505                	li	a0,1
   1389c:	00aa0023          	sb	a0,0(s4)
   138a0:	00ba2223          	sw	a1,4(s4)
   138a4:	a0b5                	j	13910 <_ZN20complex_dynamic_type3app17h453a1411b464ab40E+0xce>
   138a6:	864e                	mv	a2,s3
   138a8:	00f10323          	sb	a5,6(sp)
   138ac:	478d                	li	a5,3
   138ae:	1b600513          	li	a0,438
   138b2:	45a1                	li	a1,8
   138b4:	06100693          	li	a3,97
   138b8:	470d                	li	a4,3
   138ba:	00000073          	ecall
   138be:	00851d63          	bne	a0,s0,138d8 <_ZN20complex_dynamic_type3app17h453a1411b464ab40E+0x96>
   138c2:	05614703          	lbu	a4,86(sp)
   138c6:	4505                	li	a0,1
   138c8:	4609                	li	a2,2
   138ca:	00aa0023          	sb	a0,0(s4)
   138ce:	00ba2223          	sw	a1,4(s4)
   138d2:	02c71863          	bne	a4,a2,13902 <_ZN20complex_dynamic_type3app17h453a1411b464ab40E+0xc0>
   138d6:	a82d                	j	13910 <_ZN20complex_dynamic_type3app17h453a1411b464ab40E+0xce>
   138d8:	4681                	li	a3,0
   138da:	04f10b23          	sb	a5,86(sp)
   138de:	1b600513          	li	a0,438
   138e2:	4589                	li	a1,2
   138e4:	4621                	li	a2,8
   138e6:	4709                	li	a4,2
   138e8:	08000793          	li	a5,128
   138ec:	00000073          	ecall
   138f0:	4609                	li	a2,2
   138f2:	04f57363          	bgeu	a0,a5,13938 <_ZN20complex_dynamic_type3app17h453a1411b464ab40E+0xf6>
   138f6:	4505                	li	a0,1
   138f8:	00aa0023          	sb	a0,0(s4)
   138fc:	00ba2223          	sw	a1,4(s4)
   13900:	470d                	li	a4,3
   13902:	1b600513          	li	a0,438
   13906:	45a1                	li	a1,8
   13908:	4601                	li	a2,0
   1390a:	4681                	li	a3,0
   1390c:	00000073          	ecall
   13910:	00614703          	lbu	a4,6(sp)
   13914:	4509                	li	a0,2
   13916:	00a70963          	beq	a4,a0,13928 <_ZN20complex_dynamic_type3app17h453a1411b464ab40E+0xe6>
   1391a:	1b600513          	li	a0,438
   1391e:	4589                	li	a1,2
   13920:	4601                	li	a2,0
   13922:	4681                	li	a3,0
   13924:	00000073          	ecall
   13928:	40be                	lw	ra,204(sp)
   1392a:	442e                	lw	s0,200(sp)
   1392c:	449e                	lw	s1,196(sp)
   1392e:	490e                	lw	s2,192(sp)
   13930:	59fa                	lw	s3,188(sp)
   13932:	5a6a                	lw	s4,184(sp)
   13934:	6169                	addi	sp,sp,208
   13936:	8082                	ret
   13938:	00614703          	lbu	a4,6(sp)
   1393c:	00c71463          	bne	a4,a2,13944 <_ZN20complex_dynamic_type3app17h453a1411b464ab40E+0x102>
   13940:	470d                	li	a4,3
   13942:	a81d                	j	13978 <_ZN20complex_dynamic_type3app17h453a1411b464ab40E+0x136>
   13944:	1b600513          	li	a0,438
   13948:	4589                	li	a1,2
   1394a:	4601                	li	a2,0
   1394c:	4681                	li	a3,0
   1394e:	00000073          	ecall
   13952:	05614703          	lbu	a4,86(sp)
   13956:	4509                	li	a0,2
   13958:	00a10323          	sb	a0,6(sp)
   1395c:	00a71e63          	bne	a4,a0,13978 <_ZN20complex_dynamic_type3app17h453a1411b464ab40E+0x136>
   13960:	001a0513          	addi	a0,s4,1
   13964:	06100613          	li	a2,97
   13968:	85ce                	mv	a1,s3
   1396a:	0000b097          	auipc	ra,0xb
   1396e:	baa080e7          	jalr	-1110(ra) # 1e514 <memcpy>
   13972:	000a0023          	sb	zero,0(s4)
   13976:	bf4d                	j	13928 <_ZN20complex_dynamic_type3app17h453a1411b464ab40E+0xe6>
   13978:	1b600513          	li	a0,438
   1397c:	45a1                	li	a1,8
   1397e:	4601                	li	a2,0
   13980:	4681                	li	a3,0
   13982:	00000073          	ecall
   13986:	00614903          	lbu	s2,6(sp)
   1398a:	001a0513          	addi	a0,s4,1
   1398e:	06100613          	li	a2,97
   13992:	85ce                	mv	a1,s3
   13994:	0000b097          	auipc	ra,0xb
   13998:	b80080e7          	jalr	-1152(ra) # 1e514 <memcpy>
   1399c:	4509                	li	a0,2
   1399e:	000a0023          	sb	zero,0(s4)
   139a2:	f8a903e3          	beq	s2,a0,13928 <_ZN20complex_dynamic_type3app17h453a1411b464ab40E+0xe6>
   139a6:	1b600513          	li	a0,438
   139aa:	4589                	li	a1,2
   139ac:	4601                	li	a2,0
   139ae:	4681                	li	a3,0
   139b0:	874a                	mv	a4,s2
   139b2:	00000073          	ecall
   139b6:	bf8d                	j	13928 <_ZN20complex_dynamic_type3app17h453a1411b464ab40E+0xe6>

000139b8 <_ZN20complex_dynamic_type3app17h456f80f47a8551daE>:
   139b8:	7175                	addi	sp,sp,-144
   139ba:	c706                	sw	ra,140(sp)
   139bc:	c522                	sw	s0,136(sp)
   139be:	c326                	sw	s1,132(sp)
   139c0:	c14a                	sw	s2,128(sp)
   139c2:	dece                	sw	s3,124(sp)
   139c4:	dcd2                	sw	s4,120(sp)
   139c6:	8a2a                	mv	s4,a0
   139c8:	4409                	li	s0,2
   139ca:	008105a3          	sb	s0,11(sp)
   139ce:	0064                	addi	s1,sp,12
   139d0:	05000613          	li	a2,80
   139d4:	8526                	mv	a0,s1
   139d6:	0000b097          	auipc	ra,0xb
   139da:	b3e080e7          	jalr	-1218(ra) # 1e514 <memcpy>
   139de:	05d10993          	addi	s3,sp,93
   139e2:	466d                	li	a2,27
   139e4:	854e                	mv	a0,s3
   139e6:	4581                	li	a1,0
   139e8:	0000b097          	auipc	ra,0xb
   139ec:	ac0080e7          	jalr	-1344(ra) # 1e4a8 <memset>
   139f0:	8626                	mv	a2,s1
   139f2:	04810e23          	sb	s0,92(sp)
   139f6:	4785                	li	a5,1
   139f8:	4491                	li	s1,4
   139fa:	3d900513          	li	a0,985
   139fe:	4585                	li	a1,1
   13a00:	05000693          	li	a3,80
   13a04:	4711                	li	a4,4
   13a06:	00000073          	ecall
   13a0a:	00851763          	bne	a0,s0,13a18 <_ZN20complex_dynamic_type3app17h456f80f47a8551daE+0x60>
   13a0e:	00fa0023          	sb	a5,0(s4)
   13a12:	00ba2223          	sw	a1,4(s4)
   13a16:	a0ad                	j	13a80 <_ZN20complex_dynamic_type3app17h456f80f47a8551daE+0xc8>
   13a18:	864e                	mv	a2,s3
   13a1a:	009105a3          	sb	s1,11(sp)
   13a1e:	478d                	li	a5,3
   13a20:	3d900513          	li	a0,985
   13a24:	4589                	li	a1,2
   13a26:	46ed                	li	a3,27
   13a28:	470d                	li	a4,3
   13a2a:	00000073          	ecall
   13a2e:	00851d63          	bne	a0,s0,13a48 <_ZN20complex_dynamic_type3app17h456f80f47a8551daE+0x90>
   13a32:	05c14703          	lbu	a4,92(sp)
   13a36:	4505                	li	a0,1
   13a38:	4609                	li	a2,2
   13a3a:	00aa0023          	sb	a0,0(s4)
   13a3e:	00ba2223          	sw	a1,4(s4)
   13a42:	02c71863          	bne	a4,a2,13a72 <_ZN20complex_dynamic_type3app17h456f80f47a8551daE+0xba>
   13a46:	a82d                	j	13a80 <_ZN20complex_dynamic_type3app17h456f80f47a8551daE+0xc8>
   13a48:	4681                	li	a3,0
   13a4a:	04f10e23          	sb	a5,92(sp)
   13a4e:	4785                	li	a5,1
   13a50:	3d900513          	li	a0,985
   13a54:	4585                	li	a1,1
   13a56:	4609                	li	a2,2
   13a58:	4709                	li	a4,2
   13a5a:	08000493          	li	s1,128
   13a5e:	00000073          	ecall
   13a62:	4609                	li	a2,2
   13a64:	04957263          	bgeu	a0,s1,13aa8 <_ZN20complex_dynamic_type3app17h456f80f47a8551daE+0xf0>
   13a68:	00fa0023          	sb	a5,0(s4)
   13a6c:	00ba2223          	sw	a1,4(s4)
   13a70:	470d                	li	a4,3
   13a72:	3d900513          	li	a0,985
   13a76:	4589                	li	a1,2
   13a78:	4601                	li	a2,0
   13a7a:	4681                	li	a3,0
   13a7c:	00000073          	ecall
   13a80:	00b14703          	lbu	a4,11(sp)
   13a84:	4509                	li	a0,2
   13a86:	00a70963          	beq	a4,a0,13a98 <_ZN20complex_dynamic_type3app17h456f80f47a8551daE+0xe0>
   13a8a:	3d900513          	li	a0,985
   13a8e:	4585                	li	a1,1
   13a90:	4601                	li	a2,0
   13a92:	4681                	li	a3,0
   13a94:	00000073          	ecall
   13a98:	40ba                	lw	ra,140(sp)
   13a9a:	442a                	lw	s0,136(sp)
   13a9c:	449a                	lw	s1,132(sp)
   13a9e:	490a                	lw	s2,128(sp)
   13aa0:	59f6                	lw	s3,124(sp)
   13aa2:	5a66                	lw	s4,120(sp)
   13aa4:	6149                	addi	sp,sp,144
   13aa6:	8082                	ret
   13aa8:	00b14703          	lbu	a4,11(sp)
   13aac:	00c71463          	bne	a4,a2,13ab4 <_ZN20complex_dynamic_type3app17h456f80f47a8551daE+0xfc>
   13ab0:	470d                	li	a4,3
   13ab2:	a815                	j	13ae6 <_ZN20complex_dynamic_type3app17h456f80f47a8551daE+0x12e>
   13ab4:	3d900513          	li	a0,985
   13ab8:	4585                	li	a1,1
   13aba:	4601                	li	a2,0
   13abc:	4681                	li	a3,0
   13abe:	00000073          	ecall
   13ac2:	05c14703          	lbu	a4,92(sp)
   13ac6:	4509                	li	a0,2
   13ac8:	00a105a3          	sb	a0,11(sp)
   13acc:	00a71d63          	bne	a4,a0,13ae6 <_ZN20complex_dynamic_type3app17h456f80f47a8551daE+0x12e>
   13ad0:	001a0513          	addi	a0,s4,1
   13ad4:	466d                	li	a2,27
   13ad6:	85ce                	mv	a1,s3
   13ad8:	0000b097          	auipc	ra,0xb
   13adc:	a3c080e7          	jalr	-1476(ra) # 1e514 <memcpy>
   13ae0:	000a0023          	sb	zero,0(s4)
   13ae4:	bf55                	j	13a98 <_ZN20complex_dynamic_type3app17h456f80f47a8551daE+0xe0>
   13ae6:	4601                	li	a2,0
   13ae8:	4681                	li	a3,0
   13aea:	3d900513          	li	a0,985
   13aee:	4589                	li	a1,2
   13af0:	00000073          	ecall
   13af4:	00b14903          	lbu	s2,11(sp)
   13af8:	4409                	li	s0,2
   13afa:	001a0513          	addi	a0,s4,1
   13afe:	466d                	li	a2,27
   13b00:	85ce                	mv	a1,s3
   13b02:	0000b097          	auipc	ra,0xb
   13b06:	a12080e7          	jalr	-1518(ra) # 1e514 <memcpy>
   13b0a:	000a0023          	sb	zero,0(s4)
   13b0e:	f88905e3          	beq	s2,s0,13a98 <_ZN20complex_dynamic_type3app17h456f80f47a8551daE+0xe0>
   13b12:	3d900513          	li	a0,985
   13b16:	4585                	li	a1,1
   13b18:	4601                	li	a2,0
   13b1a:	4681                	li	a3,0
   13b1c:	874a                	mv	a4,s2
   13b1e:	00000073          	ecall
   13b22:	bf9d                	j	13a98 <_ZN20complex_dynamic_type3app17h456f80f47a8551daE+0xe0>

00013b24 <_ZN20complex_dynamic_type3app17h463f04da8d76f28aE>:
   13b24:	7135                	addi	sp,sp,-160
   13b26:	cf06                	sw	ra,156(sp)
   13b28:	cd22                	sw	s0,152(sp)
   13b2a:	cb26                	sw	s1,148(sp)
   13b2c:	c94a                	sw	s2,144(sp)
   13b2e:	c74e                	sw	s3,140(sp)
   13b30:	c552                	sw	s4,136(sp)
   13b32:	c356                	sw	s5,132(sp)
   13b34:	8aaa                	mv	s5,a0
   13b36:	4409                	li	s0,2
   13b38:	008104a3          	sb	s0,9(sp)
   13b3c:	00a10493          	addi	s1,sp,10
   13b40:	4671                	li	a2,28
   13b42:	8526                	mv	a0,s1
   13b44:	0000b097          	auipc	ra,0xb
   13b48:	9d0080e7          	jalr	-1584(ra) # 1e514 <memcpy>
   13b4c:	02710a13          	addi	s4,sp,39
   13b50:	05d00613          	li	a2,93
   13b54:	8552                	mv	a0,s4
   13b56:	4581                	li	a1,0
   13b58:	0000b097          	auipc	ra,0xb
   13b5c:	950080e7          	jalr	-1712(ra) # 1e4a8 <memset>
   13b60:	8626                	mv	a2,s1
   13b62:	02810323          	sb	s0,38(sp)
   13b66:	6505                	lui	a0,0x1
   13b68:	4491                	li	s1,4
   13b6a:	45a1                	li	a1,8
   13b6c:	c3e50793          	addi	a5,a0,-962 # c3e <.Lline_table_start1+0xa13>
   13b70:	46f1                	li	a3,28
   13b72:	4711                	li	a4,4
   13b74:	853e                	mv	a0,a5
   13b76:	00000073          	ecall
   13b7a:	00851863          	bne	a0,s0,13b8a <_ZN20complex_dynamic_type3app17h463f04da8d76f28aE+0x66>
   13b7e:	4505                	li	a0,1
   13b80:	00aa8023          	sb	a0,0(s5)
   13b84:	00baa223          	sw	a1,4(s5)
   13b88:	a0bd                	j	13bf6 <_ZN20complex_dynamic_type3app17h463f04da8d76f28aE+0xd2>
   13b8a:	853e                	mv	a0,a5
   13b8c:	8652                	mv	a2,s4
   13b8e:	009104a3          	sb	s1,9(sp)
   13b92:	478d                	li	a5,3
   13b94:	4595                	li	a1,5
   13b96:	05d00693          	li	a3,93
   13b9a:	470d                	li	a4,3
   13b9c:	00000073          	ecall
   13ba0:	00851d63          	bne	a0,s0,13bba <_ZN20complex_dynamic_type3app17h463f04da8d76f28aE+0x96>
   13ba4:	02614703          	lbu	a4,38(sp)
   13ba8:	4505                	li	a0,1
   13baa:	4609                	li	a2,2
   13bac:	00aa8023          	sb	a0,0(s5)
   13bb0:	00baa223          	sw	a1,4(s5)
   13bb4:	02c71963          	bne	a4,a2,13be6 <_ZN20complex_dynamic_type3app17h463f04da8d76f28aE+0xc2>
   13bb8:	a83d                	j	13bf6 <_ZN20complex_dynamic_type3app17h463f04da8d76f28aE+0xd2>
   13bba:	4681                	li	a3,0
   13bbc:	02f10323          	sb	a5,38(sp)
   13bc0:	6505                	lui	a0,0x1
   13bc2:	45a1                	li	a1,8
   13bc4:	4615                	li	a2,5
   13bc6:	4709                	li	a4,2
   13bc8:	c3e50513          	addi	a0,a0,-962 # c3e <.Lline_table_start1+0xa13>
   13bcc:	08000793          	li	a5,128
   13bd0:	00000073          	ecall
   13bd4:	4609                	li	a2,2
   13bd6:	04f57663          	bgeu	a0,a5,13c22 <_ZN20complex_dynamic_type3app17h463f04da8d76f28aE+0xfe>
   13bda:	4505                	li	a0,1
   13bdc:	00aa8023          	sb	a0,0(s5)
   13be0:	00baa223          	sw	a1,4(s5)
   13be4:	470d                	li	a4,3
   13be6:	6505                	lui	a0,0x1
   13be8:	c3e50513          	addi	a0,a0,-962 # c3e <.Lline_table_start1+0xa13>
   13bec:	4595                	li	a1,5
   13bee:	4601                	li	a2,0
   13bf0:	4681                	li	a3,0
   13bf2:	00000073          	ecall
   13bf6:	00914703          	lbu	a4,9(sp)
   13bfa:	4509                	li	a0,2
   13bfc:	00a70a63          	beq	a4,a0,13c10 <_ZN20complex_dynamic_type3app17h463f04da8d76f28aE+0xec>
   13c00:	6505                	lui	a0,0x1
   13c02:	c3e50513          	addi	a0,a0,-962 # c3e <.Lline_table_start1+0xa13>
   13c06:	45a1                	li	a1,8
   13c08:	4601                	li	a2,0
   13c0a:	4681                	li	a3,0
   13c0c:	00000073          	ecall
   13c10:	40fa                	lw	ra,156(sp)
   13c12:	446a                	lw	s0,152(sp)
   13c14:	44da                	lw	s1,148(sp)
   13c16:	494a                	lw	s2,144(sp)
   13c18:	49ba                	lw	s3,140(sp)
   13c1a:	4a2a                	lw	s4,136(sp)
   13c1c:	4a9a                	lw	s5,132(sp)
   13c1e:	610d                	addi	sp,sp,160
   13c20:	8082                	ret
   13c22:	00914703          	lbu	a4,9(sp)
   13c26:	00c71463          	bne	a4,a2,13c2e <_ZN20complex_dynamic_type3app17h463f04da8d76f28aE+0x10a>
   13c2a:	470d                	li	a4,3
   13c2c:	a825                	j	13c64 <_ZN20complex_dynamic_type3app17h463f04da8d76f28aE+0x140>
   13c2e:	6505                	lui	a0,0x1
   13c30:	c3e50513          	addi	a0,a0,-962 # c3e <.Lline_table_start1+0xa13>
   13c34:	45a1                	li	a1,8
   13c36:	4601                	li	a2,0
   13c38:	4681                	li	a3,0
   13c3a:	00000073          	ecall
   13c3e:	02614703          	lbu	a4,38(sp)
   13c42:	4509                	li	a0,2
   13c44:	00a104a3          	sb	a0,9(sp)
   13c48:	00a71e63          	bne	a4,a0,13c64 <_ZN20complex_dynamic_type3app17h463f04da8d76f28aE+0x140>
   13c4c:	001a8513          	addi	a0,s5,1
   13c50:	05d00613          	li	a2,93
   13c54:	85d2                	mv	a1,s4
   13c56:	0000b097          	auipc	ra,0xb
   13c5a:	8be080e7          	jalr	-1858(ra) # 1e514 <memcpy>
   13c5e:	000a8023          	sb	zero,0(s5)
   13c62:	b77d                	j	13c10 <_ZN20complex_dynamic_type3app17h463f04da8d76f28aE+0xec>
   13c64:	6505                	lui	a0,0x1
   13c66:	c3e50913          	addi	s2,a0,-962 # c3e <.Lline_table_start1+0xa13>
   13c6a:	4595                	li	a1,5
   13c6c:	854a                	mv	a0,s2
   13c6e:	4601                	li	a2,0
   13c70:	4681                	li	a3,0
   13c72:	00000073          	ecall
   13c76:	00914983          	lbu	s3,9(sp)
   13c7a:	001a8513          	addi	a0,s5,1
   13c7e:	05d00613          	li	a2,93
   13c82:	85d2                	mv	a1,s4
   13c84:	0000b097          	auipc	ra,0xb
   13c88:	890080e7          	jalr	-1904(ra) # 1e514 <memcpy>
   13c8c:	4509                	li	a0,2
   13c8e:	000a8023          	sb	zero,0(s5)
   13c92:	f6a98fe3          	beq	s3,a0,13c10 <_ZN20complex_dynamic_type3app17h463f04da8d76f28aE+0xec>
   13c96:	45a1                	li	a1,8
   13c98:	854a                	mv	a0,s2
   13c9a:	4601                	li	a2,0
   13c9c:	4681                	li	a3,0
   13c9e:	874e                	mv	a4,s3
   13ca0:	00000073          	ecall
   13ca4:	b7b5                	j	13c10 <_ZN20complex_dynamic_type3app17h463f04da8d76f28aE+0xec>

00013ca6 <_ZN20complex_dynamic_type3app17h473b4399235cf610E>:
   13ca6:	7159                	addi	sp,sp,-112
   13ca8:	d686                	sw	ra,108(sp)
   13caa:	d4a2                	sw	s0,104(sp)
   13cac:	d2a6                	sw	s1,100(sp)
   13cae:	d0ca                	sw	s2,96(sp)
   13cb0:	cece                	sw	s3,92(sp)
   13cb2:	ccd2                	sw	s4,88(sp)
   13cb4:	cad6                	sw	s5,84(sp)
   13cb6:	8aaa                	mv	s5,a0
   13cb8:	4409                	li	s0,2
   13cba:	00810223          	sb	s0,4(sp)
   13cbe:	00510493          	addi	s1,sp,5
   13cc2:	02300613          	li	a2,35
   13cc6:	8526                	mv	a0,s1
   13cc8:	0000b097          	auipc	ra,0xb
   13ccc:	84c080e7          	jalr	-1972(ra) # 1e514 <memcpy>
   13cd0:	02910a13          	addi	s4,sp,41
   13cd4:	02b00613          	li	a2,43
   13cd8:	8552                	mv	a0,s4
   13cda:	4581                	li	a1,0
   13cdc:	0000a097          	auipc	ra,0xa
   13ce0:	7cc080e7          	jalr	1996(ra) # 1e4a8 <memset>
   13ce4:	8626                	mv	a2,s1
   13ce6:	02810423          	sb	s0,40(sp)
   13cea:	6505                	lui	a0,0x1
   13cec:	4491                	li	s1,4
   13cee:	4589                	li	a1,2
   13cf0:	d5d50793          	addi	a5,a0,-675 # d5d <.Lline_table_start1+0xb32>
   13cf4:	02300693          	li	a3,35
   13cf8:	4711                	li	a4,4
   13cfa:	853e                	mv	a0,a5
   13cfc:	00000073          	ecall
   13d00:	00851863          	bne	a0,s0,13d10 <_ZN20complex_dynamic_type3app17h473b4399235cf610E+0x6a>
   13d04:	4505                	li	a0,1
   13d06:	00aa8023          	sb	a0,0(s5)
   13d0a:	00baa223          	sw	a1,4(s5)
   13d0e:	a0bd                	j	13d7c <_ZN20complex_dynamic_type3app17h473b4399235cf610E+0xd6>
   13d10:	853e                	mv	a0,a5
   13d12:	4581                	li	a1,0
   13d14:	8652                	mv	a2,s4
   13d16:	00910223          	sb	s1,4(sp)
   13d1a:	478d                	li	a5,3
   13d1c:	02b00693          	li	a3,43
   13d20:	470d                	li	a4,3
   13d22:	00000073          	ecall
   13d26:	00851d63          	bne	a0,s0,13d40 <_ZN20complex_dynamic_type3app17h473b4399235cf610E+0x9a>
   13d2a:	02814703          	lbu	a4,40(sp)
   13d2e:	4505                	li	a0,1
   13d30:	4609                	li	a2,2
   13d32:	00aa8023          	sb	a0,0(s5)
   13d36:	00baa223          	sw	a1,4(s5)
   13d3a:	02c71963          	bne	a4,a2,13d6c <_ZN20complex_dynamic_type3app17h473b4399235cf610E+0xc6>
   13d3e:	a83d                	j	13d7c <_ZN20complex_dynamic_type3app17h473b4399235cf610E+0xd6>
   13d40:	4601                	li	a2,0
   13d42:	4681                	li	a3,0
   13d44:	02f10423          	sb	a5,40(sp)
   13d48:	6505                	lui	a0,0x1
   13d4a:	4589                	li	a1,2
   13d4c:	4709                	li	a4,2
   13d4e:	d5d50513          	addi	a0,a0,-675 # d5d <.Lline_table_start1+0xb32>
   13d52:	08000793          	li	a5,128
   13d56:	00000073          	ecall
   13d5a:	4609                	li	a2,2
   13d5c:	04f57663          	bgeu	a0,a5,13da8 <_ZN20complex_dynamic_type3app17h473b4399235cf610E+0x102>
   13d60:	4505                	li	a0,1
   13d62:	00aa8023          	sb	a0,0(s5)
   13d66:	00baa223          	sw	a1,4(s5)
   13d6a:	470d                	li	a4,3
   13d6c:	6505                	lui	a0,0x1
   13d6e:	d5d50513          	addi	a0,a0,-675 # d5d <.Lline_table_start1+0xb32>
   13d72:	4581                	li	a1,0
   13d74:	4601                	li	a2,0
   13d76:	4681                	li	a3,0
   13d78:	00000073          	ecall
   13d7c:	00414703          	lbu	a4,4(sp)
   13d80:	4509                	li	a0,2
   13d82:	00a70a63          	beq	a4,a0,13d96 <_ZN20complex_dynamic_type3app17h473b4399235cf610E+0xf0>
   13d86:	6505                	lui	a0,0x1
   13d88:	d5d50513          	addi	a0,a0,-675 # d5d <.Lline_table_start1+0xb32>
   13d8c:	4589                	li	a1,2
   13d8e:	4601                	li	a2,0
   13d90:	4681                	li	a3,0
   13d92:	00000073          	ecall
   13d96:	50b6                	lw	ra,108(sp)
   13d98:	5426                	lw	s0,104(sp)
   13d9a:	5496                	lw	s1,100(sp)
   13d9c:	5906                	lw	s2,96(sp)
   13d9e:	49f6                	lw	s3,92(sp)
   13da0:	4a66                	lw	s4,88(sp)
   13da2:	4ad6                	lw	s5,84(sp)
   13da4:	6165                	addi	sp,sp,112
   13da6:	8082                	ret
   13da8:	00414703          	lbu	a4,4(sp)
   13dac:	00c71463          	bne	a4,a2,13db4 <_ZN20complex_dynamic_type3app17h473b4399235cf610E+0x10e>
   13db0:	470d                	li	a4,3
   13db2:	a825                	j	13dea <_ZN20complex_dynamic_type3app17h473b4399235cf610E+0x144>
   13db4:	6505                	lui	a0,0x1
   13db6:	d5d50513          	addi	a0,a0,-675 # d5d <.Lline_table_start1+0xb32>
   13dba:	4589                	li	a1,2
   13dbc:	4601                	li	a2,0
   13dbe:	4681                	li	a3,0
   13dc0:	00000073          	ecall
   13dc4:	02814703          	lbu	a4,40(sp)
   13dc8:	4509                	li	a0,2
   13dca:	00a10223          	sb	a0,4(sp)
   13dce:	00a71e63          	bne	a4,a0,13dea <_ZN20complex_dynamic_type3app17h473b4399235cf610E+0x144>
   13dd2:	001a8513          	addi	a0,s5,1
   13dd6:	02b00613          	li	a2,43
   13dda:	85d2                	mv	a1,s4
   13ddc:	0000a097          	auipc	ra,0xa
   13de0:	738080e7          	jalr	1848(ra) # 1e514 <memcpy>
   13de4:	000a8023          	sb	zero,0(s5)
   13de8:	b77d                	j	13d96 <_ZN20complex_dynamic_type3app17h473b4399235cf610E+0xf0>
   13dea:	6505                	lui	a0,0x1
   13dec:	d5d50913          	addi	s2,a0,-675 # d5d <.Lline_table_start1+0xb32>
   13df0:	854a                	mv	a0,s2
   13df2:	4581                	li	a1,0
   13df4:	4601                	li	a2,0
   13df6:	4681                	li	a3,0
   13df8:	00000073          	ecall
   13dfc:	00414983          	lbu	s3,4(sp)
   13e00:	001a8513          	addi	a0,s5,1
   13e04:	02b00613          	li	a2,43
   13e08:	85d2                	mv	a1,s4
   13e0a:	0000a097          	auipc	ra,0xa
   13e0e:	70a080e7          	jalr	1802(ra) # 1e514 <memcpy>
   13e12:	4509                	li	a0,2
   13e14:	000a8023          	sb	zero,0(s5)
   13e18:	f6a98fe3          	beq	s3,a0,13d96 <_ZN20complex_dynamic_type3app17h473b4399235cf610E+0xf0>
   13e1c:	4589                	li	a1,2
   13e1e:	854a                	mv	a0,s2
   13e20:	4601                	li	a2,0
   13e22:	4681                	li	a3,0
   13e24:	874e                	mv	a4,s3
   13e26:	00000073          	ecall
   13e2a:	b7b5                	j	13d96 <_ZN20complex_dynamic_type3app17h473b4399235cf610E+0xf0>

00013e2c <_ZN20complex_dynamic_type3app17h491c0600687b68f2E>:
   13e2c:	7159                	addi	sp,sp,-112
   13e2e:	d686                	sw	ra,108(sp)
   13e30:	d4a2                	sw	s0,104(sp)
   13e32:	d2a6                	sw	s1,100(sp)
   13e34:	d0ca                	sw	s2,96(sp)
   13e36:	cece                	sw	s3,92(sp)
   13e38:	ccd2                	sw	s4,88(sp)
   13e3a:	cad6                	sw	s5,84(sp)
   13e3c:	8aaa                	mv	s5,a0
   13e3e:	4409                	li	s0,2
   13e40:	00810223          	sb	s0,4(sp)
   13e44:	00510493          	addi	s1,sp,5
   13e48:	03400613          	li	a2,52
   13e4c:	8526                	mv	a0,s1
   13e4e:	0000a097          	auipc	ra,0xa
   13e52:	6c6080e7          	jalr	1734(ra) # 1e514 <memcpy>
   13e56:	03a10a13          	addi	s4,sp,58
   13e5a:	4669                	li	a2,26
   13e5c:	8552                	mv	a0,s4
   13e5e:	4581                	li	a1,0
   13e60:	0000a097          	auipc	ra,0xa
   13e64:	648080e7          	jalr	1608(ra) # 1e4a8 <memset>
   13e68:	4581                	li	a1,0
   13e6a:	8626                	mv	a2,s1
   13e6c:	02810ca3          	sb	s0,57(sp)
   13e70:	6505                	lui	a0,0x1
   13e72:	4491                	li	s1,4
   13e74:	2cc50793          	addi	a5,a0,716 # 12cc <.Lline_table_start1+0x10a1>
   13e78:	03400693          	li	a3,52
   13e7c:	4711                	li	a4,4
   13e7e:	853e                	mv	a0,a5
   13e80:	00000073          	ecall
   13e84:	00851863          	bne	a0,s0,13e94 <_ZN20complex_dynamic_type3app17h491c0600687b68f2E+0x68>
   13e88:	4505                	li	a0,1
   13e8a:	00aa8023          	sb	a0,0(s5)
   13e8e:	00baa223          	sw	a1,4(s5)
   13e92:	a0b5                	j	13efe <_ZN20complex_dynamic_type3app17h491c0600687b68f2E+0xd2>
   13e94:	853e                	mv	a0,a5
   13e96:	8652                	mv	a2,s4
   13e98:	00910223          	sb	s1,4(sp)
   13e9c:	478d                	li	a5,3
   13e9e:	4595                	li	a1,5
   13ea0:	46e9                	li	a3,26
   13ea2:	470d                	li	a4,3
   13ea4:	00000073          	ecall
   13ea8:	00851d63          	bne	a0,s0,13ec2 <_ZN20complex_dynamic_type3app17h491c0600687b68f2E+0x96>
   13eac:	03914703          	lbu	a4,57(sp)
   13eb0:	4505                	li	a0,1
   13eb2:	4609                	li	a2,2
   13eb4:	00aa8023          	sb	a0,0(s5)
   13eb8:	00baa223          	sw	a1,4(s5)
   13ebc:	02c71963          	bne	a4,a2,13eee <_ZN20complex_dynamic_type3app17h491c0600687b68f2E+0xc2>
   13ec0:	a83d                	j	13efe <_ZN20complex_dynamic_type3app17h491c0600687b68f2E+0xd2>
   13ec2:	4581                	li	a1,0
   13ec4:	4681                	li	a3,0
   13ec6:	02f10ca3          	sb	a5,57(sp)
   13eca:	6505                	lui	a0,0x1
   13ecc:	4615                	li	a2,5
   13ece:	4709                	li	a4,2
   13ed0:	2cc50513          	addi	a0,a0,716 # 12cc <.Lline_table_start1+0x10a1>
   13ed4:	08000793          	li	a5,128
   13ed8:	00000073          	ecall
   13edc:	4609                	li	a2,2
   13ede:	04f57663          	bgeu	a0,a5,13f2a <_ZN20complex_dynamic_type3app17h491c0600687b68f2E+0xfe>
   13ee2:	4505                	li	a0,1
   13ee4:	00aa8023          	sb	a0,0(s5)
   13ee8:	00baa223          	sw	a1,4(s5)
   13eec:	470d                	li	a4,3
   13eee:	6505                	lui	a0,0x1
   13ef0:	2cc50513          	addi	a0,a0,716 # 12cc <.Lline_table_start1+0x10a1>
   13ef4:	4595                	li	a1,5
   13ef6:	4601                	li	a2,0
   13ef8:	4681                	li	a3,0
   13efa:	00000073          	ecall
   13efe:	00414703          	lbu	a4,4(sp)
   13f02:	4509                	li	a0,2
   13f04:	00a70a63          	beq	a4,a0,13f18 <_ZN20complex_dynamic_type3app17h491c0600687b68f2E+0xec>
   13f08:	6505                	lui	a0,0x1
   13f0a:	2cc50513          	addi	a0,a0,716 # 12cc <.Lline_table_start1+0x10a1>
   13f0e:	4581                	li	a1,0
   13f10:	4601                	li	a2,0
   13f12:	4681                	li	a3,0
   13f14:	00000073          	ecall
   13f18:	50b6                	lw	ra,108(sp)
   13f1a:	5426                	lw	s0,104(sp)
   13f1c:	5496                	lw	s1,100(sp)
   13f1e:	5906                	lw	s2,96(sp)
   13f20:	49f6                	lw	s3,92(sp)
   13f22:	4a66                	lw	s4,88(sp)
   13f24:	4ad6                	lw	s5,84(sp)
   13f26:	6165                	addi	sp,sp,112
   13f28:	8082                	ret
   13f2a:	00414703          	lbu	a4,4(sp)
   13f2e:	00c71463          	bne	a4,a2,13f36 <_ZN20complex_dynamic_type3app17h491c0600687b68f2E+0x10a>
   13f32:	470d                	li	a4,3
   13f34:	a81d                	j	13f6a <_ZN20complex_dynamic_type3app17h491c0600687b68f2E+0x13e>
   13f36:	6505                	lui	a0,0x1
   13f38:	2cc50513          	addi	a0,a0,716 # 12cc <.Lline_table_start1+0x10a1>
   13f3c:	4581                	li	a1,0
   13f3e:	4601                	li	a2,0
   13f40:	4681                	li	a3,0
   13f42:	00000073          	ecall
   13f46:	03914703          	lbu	a4,57(sp)
   13f4a:	4509                	li	a0,2
   13f4c:	00a10223          	sb	a0,4(sp)
   13f50:	00a71d63          	bne	a4,a0,13f6a <_ZN20complex_dynamic_type3app17h491c0600687b68f2E+0x13e>
   13f54:	001a8513          	addi	a0,s5,1
   13f58:	4669                	li	a2,26
   13f5a:	85d2                	mv	a1,s4
   13f5c:	0000a097          	auipc	ra,0xa
   13f60:	5b8080e7          	jalr	1464(ra) # 1e514 <memcpy>
   13f64:	000a8023          	sb	zero,0(s5)
   13f68:	bf45                	j	13f18 <_ZN20complex_dynamic_type3app17h491c0600687b68f2E+0xec>
   13f6a:	6505                	lui	a0,0x1
   13f6c:	2cc50913          	addi	s2,a0,716 # 12cc <.Lline_table_start1+0x10a1>
   13f70:	4595                	li	a1,5
   13f72:	854a                	mv	a0,s2
   13f74:	4601                	li	a2,0
   13f76:	4681                	li	a3,0
   13f78:	00000073          	ecall
   13f7c:	00414983          	lbu	s3,4(sp)
   13f80:	001a8513          	addi	a0,s5,1
   13f84:	4669                	li	a2,26
   13f86:	85d2                	mv	a1,s4
   13f88:	0000a097          	auipc	ra,0xa
   13f8c:	58c080e7          	jalr	1420(ra) # 1e514 <memcpy>
   13f90:	4509                	li	a0,2
   13f92:	000a8023          	sb	zero,0(s5)
   13f96:	f8a981e3          	beq	s3,a0,13f18 <_ZN20complex_dynamic_type3app17h491c0600687b68f2E+0xec>
   13f9a:	854a                	mv	a0,s2
   13f9c:	4581                	li	a1,0
   13f9e:	4601                	li	a2,0
   13fa0:	4681                	li	a3,0
   13fa2:	874e                	mv	a4,s3
   13fa4:	00000073          	ecall
   13fa8:	bf85                	j	13f18 <_ZN20complex_dynamic_type3app17h491c0600687b68f2E+0xec>

00013faa <_ZN20complex_dynamic_type3app17h52f2b80f03f5e511E>:
   13faa:	7131                	addi	sp,sp,-192
   13fac:	df06                	sw	ra,188(sp)
   13fae:	dd22                	sw	s0,184(sp)
   13fb0:	db26                	sw	s1,180(sp)
   13fb2:	d94a                	sw	s2,176(sp)
   13fb4:	d74e                	sw	s3,172(sp)
   13fb6:	d552                	sw	s4,168(sp)
   13fb8:	d356                	sw	s5,164(sp)
   13fba:	8aaa                	mv	s5,a0
   13fbc:	4409                	li	s0,2
   13fbe:	008101a3          	sb	s0,3(sp)
   13fc2:	0044                	addi	s1,sp,4
   13fc4:	05600613          	li	a2,86
   13fc8:	8526                	mv	a0,s1
   13fca:	0000a097          	auipc	ra,0xa
   13fce:	54a080e7          	jalr	1354(ra) # 1e514 <memcpy>
   13fd2:	05b10a13          	addi	s4,sp,91
   13fd6:	04900613          	li	a2,73
   13fda:	8552                	mv	a0,s4
   13fdc:	4581                	li	a1,0
   13fde:	0000a097          	auipc	ra,0xa
   13fe2:	4ca080e7          	jalr	1226(ra) # 1e4a8 <memset>
   13fe6:	8626                	mv	a2,s1
   13fe8:	04810d23          	sb	s0,90(sp)
   13fec:	6509                	lui	a0,0x2
   13fee:	4491                	li	s1,4
   13ff0:	4599                	li	a1,6
   13ff2:	c6b50793          	addi	a5,a0,-917 # 1c6b <.Lline_table_start1+0x1a40>
   13ff6:	05600693          	li	a3,86
   13ffa:	4711                	li	a4,4
   13ffc:	853e                	mv	a0,a5
   13ffe:	00000073          	ecall
   14002:	00851863          	bne	a0,s0,14012 <_ZN20complex_dynamic_type3app17h52f2b80f03f5e511E+0x68>
   14006:	4505                	li	a0,1
   14008:	00aa8023          	sb	a0,0(s5)
   1400c:	00baa223          	sw	a1,4(s5)
   14010:	a0bd                	j	1407e <_ZN20complex_dynamic_type3app17h52f2b80f03f5e511E+0xd4>
   14012:	853e                	mv	a0,a5
   14014:	8652                	mv	a2,s4
   14016:	009101a3          	sb	s1,3(sp)
   1401a:	478d                	li	a5,3
   1401c:	4599                	li	a1,6
   1401e:	04900693          	li	a3,73
   14022:	470d                	li	a4,3
   14024:	00000073          	ecall
   14028:	00851d63          	bne	a0,s0,14042 <_ZN20complex_dynamic_type3app17h52f2b80f03f5e511E+0x98>
   1402c:	05a14703          	lbu	a4,90(sp)
   14030:	4505                	li	a0,1
   14032:	4609                	li	a2,2
   14034:	00aa8023          	sb	a0,0(s5)
   14038:	00baa223          	sw	a1,4(s5)
   1403c:	02c71963          	bne	a4,a2,1406e <_ZN20complex_dynamic_type3app17h52f2b80f03f5e511E+0xc4>
   14040:	a83d                	j	1407e <_ZN20complex_dynamic_type3app17h52f2b80f03f5e511E+0xd4>
   14042:	4681                	li	a3,0
   14044:	04f10d23          	sb	a5,90(sp)
   14048:	6509                	lui	a0,0x2
   1404a:	4599                	li	a1,6
   1404c:	4619                	li	a2,6
   1404e:	4709                	li	a4,2
   14050:	c6b50513          	addi	a0,a0,-917 # 1c6b <.Lline_table_start1+0x1a40>
   14054:	08000793          	li	a5,128
   14058:	00000073          	ecall
   1405c:	4609                	li	a2,2
   1405e:	04f57663          	bgeu	a0,a5,140aa <_ZN20complex_dynamic_type3app17h52f2b80f03f5e511E+0x100>
   14062:	4505                	li	a0,1
   14064:	00aa8023          	sb	a0,0(s5)
   14068:	00baa223          	sw	a1,4(s5)
   1406c:	470d                	li	a4,3
   1406e:	6509                	lui	a0,0x2
   14070:	c6b50513          	addi	a0,a0,-917 # 1c6b <.Lline_table_start1+0x1a40>
   14074:	4599                	li	a1,6
   14076:	4601                	li	a2,0
   14078:	4681                	li	a3,0
   1407a:	00000073          	ecall
   1407e:	00314703          	lbu	a4,3(sp)
   14082:	4509                	li	a0,2
   14084:	00a70a63          	beq	a4,a0,14098 <_ZN20complex_dynamic_type3app17h52f2b80f03f5e511E+0xee>
   14088:	6509                	lui	a0,0x2
   1408a:	c6b50513          	addi	a0,a0,-917 # 1c6b <.Lline_table_start1+0x1a40>
   1408e:	4599                	li	a1,6
   14090:	4601                	li	a2,0
   14092:	4681                	li	a3,0
   14094:	00000073          	ecall
   14098:	50fa                	lw	ra,188(sp)
   1409a:	546a                	lw	s0,184(sp)
   1409c:	54da                	lw	s1,180(sp)
   1409e:	594a                	lw	s2,176(sp)
   140a0:	59ba                	lw	s3,172(sp)
   140a2:	5a2a                	lw	s4,168(sp)
   140a4:	5a9a                	lw	s5,164(sp)
   140a6:	6129                	addi	sp,sp,192
   140a8:	8082                	ret
   140aa:	00314703          	lbu	a4,3(sp)
   140ae:	00c71463          	bne	a4,a2,140b6 <_ZN20complex_dynamic_type3app17h52f2b80f03f5e511E+0x10c>
   140b2:	470d                	li	a4,3
   140b4:	a825                	j	140ec <_ZN20complex_dynamic_type3app17h52f2b80f03f5e511E+0x142>
   140b6:	6509                	lui	a0,0x2
   140b8:	c6b50513          	addi	a0,a0,-917 # 1c6b <.Lline_table_start1+0x1a40>
   140bc:	4599                	li	a1,6
   140be:	4601                	li	a2,0
   140c0:	4681                	li	a3,0
   140c2:	00000073          	ecall
   140c6:	05a14703          	lbu	a4,90(sp)
   140ca:	4509                	li	a0,2
   140cc:	00a101a3          	sb	a0,3(sp)
   140d0:	00a71e63          	bne	a4,a0,140ec <_ZN20complex_dynamic_type3app17h52f2b80f03f5e511E+0x142>
   140d4:	001a8513          	addi	a0,s5,1
   140d8:	04900613          	li	a2,73
   140dc:	85d2                	mv	a1,s4
   140de:	0000a097          	auipc	ra,0xa
   140e2:	436080e7          	jalr	1078(ra) # 1e514 <memcpy>
   140e6:	000a8023          	sb	zero,0(s5)
   140ea:	b77d                	j	14098 <_ZN20complex_dynamic_type3app17h52f2b80f03f5e511E+0xee>
   140ec:	6509                	lui	a0,0x2
   140ee:	c6b50913          	addi	s2,a0,-917 # 1c6b <.Lline_table_start1+0x1a40>
   140f2:	4599                	li	a1,6
   140f4:	854a                	mv	a0,s2
   140f6:	4601                	li	a2,0
   140f8:	4681                	li	a3,0
   140fa:	00000073          	ecall
   140fe:	00314983          	lbu	s3,3(sp)
   14102:	001a8513          	addi	a0,s5,1
   14106:	04900613          	li	a2,73
   1410a:	85d2                	mv	a1,s4
   1410c:	0000a097          	auipc	ra,0xa
   14110:	408080e7          	jalr	1032(ra) # 1e514 <memcpy>
   14114:	4509                	li	a0,2
   14116:	000a8023          	sb	zero,0(s5)
   1411a:	f6a98fe3          	beq	s3,a0,14098 <_ZN20complex_dynamic_type3app17h52f2b80f03f5e511E+0xee>
   1411e:	4599                	li	a1,6
   14120:	854a                	mv	a0,s2
   14122:	4601                	li	a2,0
   14124:	4681                	li	a3,0
   14126:	874e                	mv	a4,s3
   14128:	00000073          	ecall
   1412c:	b7b5                	j	14098 <_ZN20complex_dynamic_type3app17h52f2b80f03f5e511E+0xee>

0001412e <_ZN20complex_dynamic_type3app17h557785aecf30d752E>:
   1412e:	7171                	addi	sp,sp,-176
   14130:	d706                	sw	ra,172(sp)
   14132:	d522                	sw	s0,168(sp)
   14134:	d326                	sw	s1,164(sp)
   14136:	d14a                	sw	s2,160(sp)
   14138:	cf4e                	sw	s3,156(sp)
   1413a:	cd52                	sw	s4,152(sp)
   1413c:	8a2a                	mv	s4,a0
   1413e:	4409                	li	s0,2
   14140:	008103a3          	sb	s0,7(sp)
   14144:	0024                	addi	s1,sp,8
   14146:	06300613          	li	a2,99
   1414a:	8526                	mv	a0,s1
   1414c:	0000a097          	auipc	ra,0xa
   14150:	3c8080e7          	jalr	968(ra) # 1e514 <memcpy>
   14154:	06c10993          	addi	s3,sp,108
   14158:	02c00613          	li	a2,44
   1415c:	854e                	mv	a0,s3
   1415e:	4581                	li	a1,0
   14160:	0000a097          	auipc	ra,0xa
   14164:	348080e7          	jalr	840(ra) # 1e4a8 <memset>
   14168:	8626                	mv	a2,s1
   1416a:	068105a3          	sb	s0,107(sp)
   1416e:	4791                	li	a5,4
   14170:	4561                	li	a0,24
   14172:	4595                	li	a1,5
   14174:	06300693          	li	a3,99
   14178:	4711                	li	a4,4
   1417a:	00000073          	ecall
   1417e:	00851863          	bne	a0,s0,1418e <_ZN20complex_dynamic_type3app17h557785aecf30d752E+0x60>
   14182:	4505                	li	a0,1
   14184:	00aa0023          	sb	a0,0(s4)
   14188:	00ba2223          	sw	a1,4(s4)
   1418c:	a09d                	j	141f2 <_ZN20complex_dynamic_type3app17h557785aecf30d752E+0xc4>
   1418e:	864e                	mv	a2,s3
   14190:	00f103a3          	sb	a5,7(sp)
   14194:	478d                	li	a5,3
   14196:	4561                	li	a0,24
   14198:	458d                	li	a1,3
   1419a:	02c00693          	li	a3,44
   1419e:	470d                	li	a4,3
   141a0:	00000073          	ecall
   141a4:	00851d63          	bne	a0,s0,141be <_ZN20complex_dynamic_type3app17h557785aecf30d752E+0x90>
   141a8:	06b14703          	lbu	a4,107(sp)
   141ac:	4505                	li	a0,1
   141ae:	4609                	li	a2,2
   141b0:	00aa0023          	sb	a0,0(s4)
   141b4:	00ba2223          	sw	a1,4(s4)
   141b8:	02c71763          	bne	a4,a2,141e6 <_ZN20complex_dynamic_type3app17h557785aecf30d752E+0xb8>
   141bc:	a81d                	j	141f2 <_ZN20complex_dynamic_type3app17h557785aecf30d752E+0xc4>
   141be:	4681                	li	a3,0
   141c0:	06f105a3          	sb	a5,107(sp)
   141c4:	4561                	li	a0,24
   141c6:	4595                	li	a1,5
   141c8:	460d                	li	a2,3
   141ca:	4709                	li	a4,2
   141cc:	08000793          	li	a5,128
   141d0:	00000073          	ecall
   141d4:	4609                	li	a2,2
   141d6:	04f57163          	bgeu	a0,a5,14218 <_ZN20complex_dynamic_type3app17h557785aecf30d752E+0xea>
   141da:	4505                	li	a0,1
   141dc:	00aa0023          	sb	a0,0(s4)
   141e0:	00ba2223          	sw	a1,4(s4)
   141e4:	470d                	li	a4,3
   141e6:	4561                	li	a0,24
   141e8:	458d                	li	a1,3
   141ea:	4601                	li	a2,0
   141ec:	4681                	li	a3,0
   141ee:	00000073          	ecall
   141f2:	00714703          	lbu	a4,7(sp)
   141f6:	4509                	li	a0,2
   141f8:	00a70863          	beq	a4,a0,14208 <_ZN20complex_dynamic_type3app17h557785aecf30d752E+0xda>
   141fc:	4561                	li	a0,24
   141fe:	4595                	li	a1,5
   14200:	4601                	li	a2,0
   14202:	4681                	li	a3,0
   14204:	00000073          	ecall
   14208:	50ba                	lw	ra,172(sp)
   1420a:	542a                	lw	s0,168(sp)
   1420c:	549a                	lw	s1,164(sp)
   1420e:	590a                	lw	s2,160(sp)
   14210:	49fa                	lw	s3,156(sp)
   14212:	4a6a                	lw	s4,152(sp)
   14214:	614d                	addi	sp,sp,176
   14216:	8082                	ret
   14218:	00714703          	lbu	a4,7(sp)
   1421c:	00c71463          	bne	a4,a2,14224 <_ZN20complex_dynamic_type3app17h557785aecf30d752E+0xf6>
   14220:	470d                	li	a4,3
   14222:	a815                	j	14256 <_ZN20complex_dynamic_type3app17h557785aecf30d752E+0x128>
   14224:	4561                	li	a0,24
   14226:	4595                	li	a1,5
   14228:	4601                	li	a2,0
   1422a:	4681                	li	a3,0
   1422c:	00000073          	ecall
   14230:	06b14703          	lbu	a4,107(sp)
   14234:	4509                	li	a0,2
   14236:	00a103a3          	sb	a0,7(sp)
   1423a:	00a71e63          	bne	a4,a0,14256 <_ZN20complex_dynamic_type3app17h557785aecf30d752E+0x128>
   1423e:	001a0513          	addi	a0,s4,1
   14242:	02c00613          	li	a2,44
   14246:	85ce                	mv	a1,s3
   14248:	0000a097          	auipc	ra,0xa
   1424c:	2cc080e7          	jalr	716(ra) # 1e514 <memcpy>
   14250:	000a0023          	sb	zero,0(s4)
   14254:	bf55                	j	14208 <_ZN20complex_dynamic_type3app17h557785aecf30d752E+0xda>
   14256:	4561                	li	a0,24
   14258:	458d                	li	a1,3
   1425a:	4601                	li	a2,0
   1425c:	4681                	li	a3,0
   1425e:	00000073          	ecall
   14262:	00714903          	lbu	s2,7(sp)
   14266:	001a0513          	addi	a0,s4,1
   1426a:	02c00613          	li	a2,44
   1426e:	85ce                	mv	a1,s3
   14270:	0000a097          	auipc	ra,0xa
   14274:	2a4080e7          	jalr	676(ra) # 1e514 <memcpy>
   14278:	4509                	li	a0,2
   1427a:	000a0023          	sb	zero,0(s4)
   1427e:	f8a905e3          	beq	s2,a0,14208 <_ZN20complex_dynamic_type3app17h557785aecf30d752E+0xda>
   14282:	4561                	li	a0,24
   14284:	4595                	li	a1,5
   14286:	4601                	li	a2,0
   14288:	4681                	li	a3,0
   1428a:	874a                	mv	a4,s2
   1428c:	00000073          	ecall
   14290:	bfa5                	j	14208 <_ZN20complex_dynamic_type3app17h557785aecf30d752E+0xda>

00014292 <_ZN20complex_dynamic_type3app17h5670ae6f079cf73eE>:
   14292:	7131                	addi	sp,sp,-192
   14294:	df06                	sw	ra,188(sp)
   14296:	dd22                	sw	s0,184(sp)
   14298:	db26                	sw	s1,180(sp)
   1429a:	d94a                	sw	s2,176(sp)
   1429c:	d74e                	sw	s3,172(sp)
   1429e:	d552                	sw	s4,168(sp)
   142a0:	d356                	sw	s5,164(sp)
   142a2:	8aaa                	mv	s5,a0
   142a4:	4409                	li	s0,2
   142a6:	008102a3          	sb	s0,5(sp)
   142aa:	00610493          	addi	s1,sp,6
   142ae:	05d00613          	li	a2,93
   142b2:	8526                	mv	a0,s1
   142b4:	0000a097          	auipc	ra,0xa
   142b8:	260080e7          	jalr	608(ra) # 1e514 <memcpy>
   142bc:	06410a13          	addi	s4,sp,100
   142c0:	04000613          	li	a2,64
   142c4:	8552                	mv	a0,s4
   142c6:	4581                	li	a1,0
   142c8:	0000a097          	auipc	ra,0xa
   142cc:	1e0080e7          	jalr	480(ra) # 1e4a8 <memset>
   142d0:	8626                	mv	a2,s1
   142d2:	068101a3          	sb	s0,99(sp)
   142d6:	6505                	lui	a0,0x1
   142d8:	4491                	li	s1,4
   142da:	45a1                	li	a1,8
   142dc:	02850793          	addi	a5,a0,40 # 1028 <.Lline_table_start1+0xdfd>
   142e0:	05d00693          	li	a3,93
   142e4:	4711                	li	a4,4
   142e6:	853e                	mv	a0,a5
   142e8:	00000073          	ecall
   142ec:	00851863          	bne	a0,s0,142fc <_ZN20complex_dynamic_type3app17h5670ae6f079cf73eE+0x6a>
   142f0:	4505                	li	a0,1
   142f2:	00aa8023          	sb	a0,0(s5)
   142f6:	00baa223          	sw	a1,4(s5)
   142fa:	a0bd                	j	14368 <_ZN20complex_dynamic_type3app17h5670ae6f079cf73eE+0xd6>
   142fc:	853e                	mv	a0,a5
   142fe:	8652                	mv	a2,s4
   14300:	009102a3          	sb	s1,5(sp)
   14304:	478d                	li	a5,3
   14306:	4591                	li	a1,4
   14308:	04000693          	li	a3,64
   1430c:	470d                	li	a4,3
   1430e:	00000073          	ecall
   14312:	00851d63          	bne	a0,s0,1432c <_ZN20complex_dynamic_type3app17h5670ae6f079cf73eE+0x9a>
   14316:	06314703          	lbu	a4,99(sp)
   1431a:	4505                	li	a0,1
   1431c:	4609                	li	a2,2
   1431e:	00aa8023          	sb	a0,0(s5)
   14322:	00baa223          	sw	a1,4(s5)
   14326:	02c71963          	bne	a4,a2,14358 <_ZN20complex_dynamic_type3app17h5670ae6f079cf73eE+0xc6>
   1432a:	a83d                	j	14368 <_ZN20complex_dynamic_type3app17h5670ae6f079cf73eE+0xd6>
   1432c:	4681                	li	a3,0
   1432e:	06f101a3          	sb	a5,99(sp)
   14332:	6505                	lui	a0,0x1
   14334:	45a1                	li	a1,8
   14336:	4611                	li	a2,4
   14338:	4709                	li	a4,2
   1433a:	02850513          	addi	a0,a0,40 # 1028 <.Lline_table_start1+0xdfd>
   1433e:	08000793          	li	a5,128
   14342:	00000073          	ecall
   14346:	4609                	li	a2,2
   14348:	04f57663          	bgeu	a0,a5,14394 <_ZN20complex_dynamic_type3app17h5670ae6f079cf73eE+0x102>
   1434c:	4505                	li	a0,1
   1434e:	00aa8023          	sb	a0,0(s5)
   14352:	00baa223          	sw	a1,4(s5)
   14356:	470d                	li	a4,3
   14358:	6505                	lui	a0,0x1
   1435a:	02850513          	addi	a0,a0,40 # 1028 <.Lline_table_start1+0xdfd>
   1435e:	4591                	li	a1,4
   14360:	4601                	li	a2,0
   14362:	4681                	li	a3,0
   14364:	00000073          	ecall
   14368:	00514703          	lbu	a4,5(sp)
   1436c:	4509                	li	a0,2
   1436e:	00a70a63          	beq	a4,a0,14382 <_ZN20complex_dynamic_type3app17h5670ae6f079cf73eE+0xf0>
   14372:	6505                	lui	a0,0x1
   14374:	02850513          	addi	a0,a0,40 # 1028 <.Lline_table_start1+0xdfd>
   14378:	45a1                	li	a1,8
   1437a:	4601                	li	a2,0
   1437c:	4681                	li	a3,0
   1437e:	00000073          	ecall
   14382:	50fa                	lw	ra,188(sp)
   14384:	546a                	lw	s0,184(sp)
   14386:	54da                	lw	s1,180(sp)
   14388:	594a                	lw	s2,176(sp)
   1438a:	59ba                	lw	s3,172(sp)
   1438c:	5a2a                	lw	s4,168(sp)
   1438e:	5a9a                	lw	s5,164(sp)
   14390:	6129                	addi	sp,sp,192
   14392:	8082                	ret
   14394:	00514703          	lbu	a4,5(sp)
   14398:	00c71463          	bne	a4,a2,143a0 <_ZN20complex_dynamic_type3app17h5670ae6f079cf73eE+0x10e>
   1439c:	470d                	li	a4,3
   1439e:	a825                	j	143d6 <_ZN20complex_dynamic_type3app17h5670ae6f079cf73eE+0x144>
   143a0:	6505                	lui	a0,0x1
   143a2:	02850513          	addi	a0,a0,40 # 1028 <.Lline_table_start1+0xdfd>
   143a6:	45a1                	li	a1,8
   143a8:	4601                	li	a2,0
   143aa:	4681                	li	a3,0
   143ac:	00000073          	ecall
   143b0:	06314703          	lbu	a4,99(sp)
   143b4:	4509                	li	a0,2
   143b6:	00a102a3          	sb	a0,5(sp)
   143ba:	00a71e63          	bne	a4,a0,143d6 <_ZN20complex_dynamic_type3app17h5670ae6f079cf73eE+0x144>
   143be:	001a8513          	addi	a0,s5,1
   143c2:	04000613          	li	a2,64
   143c6:	85d2                	mv	a1,s4
   143c8:	0000a097          	auipc	ra,0xa
   143cc:	14c080e7          	jalr	332(ra) # 1e514 <memcpy>
   143d0:	000a8023          	sb	zero,0(s5)
   143d4:	b77d                	j	14382 <_ZN20complex_dynamic_type3app17h5670ae6f079cf73eE+0xf0>
   143d6:	6505                	lui	a0,0x1
   143d8:	02850913          	addi	s2,a0,40 # 1028 <.Lline_table_start1+0xdfd>
   143dc:	4591                	li	a1,4
   143de:	854a                	mv	a0,s2
   143e0:	4601                	li	a2,0
   143e2:	4681                	li	a3,0
   143e4:	00000073          	ecall
   143e8:	00514983          	lbu	s3,5(sp)
   143ec:	001a8513          	addi	a0,s5,1
   143f0:	04000613          	li	a2,64
   143f4:	85d2                	mv	a1,s4
   143f6:	0000a097          	auipc	ra,0xa
   143fa:	11e080e7          	jalr	286(ra) # 1e514 <memcpy>
   143fe:	4509                	li	a0,2
   14400:	000a8023          	sb	zero,0(s5)
   14404:	f6a98fe3          	beq	s3,a0,14382 <_ZN20complex_dynamic_type3app17h5670ae6f079cf73eE+0xf0>
   14408:	45a1                	li	a1,8
   1440a:	854a                	mv	a0,s2
   1440c:	4601                	li	a2,0
   1440e:	4681                	li	a3,0
   14410:	874e                	mv	a4,s3
   14412:	00000073          	ecall
   14416:	b7b5                	j	14382 <_ZN20complex_dynamic_type3app17h5670ae6f079cf73eE+0xf0>

00014418 <_ZN20complex_dynamic_type3app17h6a05aec672b5e5a1E>:
   14418:	7159                	addi	sp,sp,-112
   1441a:	d686                	sw	ra,108(sp)
   1441c:	d4a2                	sw	s0,104(sp)
   1441e:	d2a6                	sw	s1,100(sp)
   14420:	d0ca                	sw	s2,96(sp)
   14422:	cece                	sw	s3,92(sp)
   14424:	ccd2                	sw	s4,88(sp)
   14426:	8a2a                	mv	s4,a0
   14428:	4409                	li	s0,2
   1442a:	008102a3          	sb	s0,5(sp)
   1442e:	00610493          	addi	s1,sp,6
   14432:	02c00613          	li	a2,44
   14436:	8526                	mv	a0,s1
   14438:	0000a097          	auipc	ra,0xa
   1443c:	0dc080e7          	jalr	220(ra) # 1e514 <memcpy>
   14440:	03310993          	addi	s3,sp,51
   14444:	02500613          	li	a2,37
   14448:	854e                	mv	a0,s3
   1444a:	4581                	li	a1,0
   1444c:	0000a097          	auipc	ra,0xa
   14450:	05c080e7          	jalr	92(ra) # 1e4a8 <memset>
   14454:	8626                	mv	a2,s1
   14456:	02810923          	sb	s0,50(sp)
   1445a:	4791                	li	a5,4
   1445c:	77f00513          	li	a0,1919
   14460:	458d                	li	a1,3
   14462:	02c00693          	li	a3,44
   14466:	4711                	li	a4,4
   14468:	00000073          	ecall
   1446c:	00851863          	bne	a0,s0,1447c <_ZN20complex_dynamic_type3app17h6a05aec672b5e5a1E+0x64>
   14470:	4505                	li	a0,1
   14472:	00aa0023          	sb	a0,0(s4)
   14476:	00ba2223          	sw	a1,4(s4)
   1447a:	a0b5                	j	144e6 <_ZN20complex_dynamic_type3app17h6a05aec672b5e5a1E+0xce>
   1447c:	4581                	li	a1,0
   1447e:	864e                	mv	a2,s3
   14480:	00f102a3          	sb	a5,5(sp)
   14484:	478d                	li	a5,3
   14486:	77f00513          	li	a0,1919
   1448a:	02500693          	li	a3,37
   1448e:	470d                	li	a4,3
   14490:	00000073          	ecall
   14494:	00851d63          	bne	a0,s0,144ae <_ZN20complex_dynamic_type3app17h6a05aec672b5e5a1E+0x96>
   14498:	03214703          	lbu	a4,50(sp)
   1449c:	4505                	li	a0,1
   1449e:	4609                	li	a2,2
   144a0:	00aa0023          	sb	a0,0(s4)
   144a4:	00ba2223          	sw	a1,4(s4)
   144a8:	02c71863          	bne	a4,a2,144d8 <_ZN20complex_dynamic_type3app17h6a05aec672b5e5a1E+0xc0>
   144ac:	a82d                	j	144e6 <_ZN20complex_dynamic_type3app17h6a05aec672b5e5a1E+0xce>
   144ae:	4601                	li	a2,0
   144b0:	4681                	li	a3,0
   144b2:	02f10923          	sb	a5,50(sp)
   144b6:	77f00513          	li	a0,1919
   144ba:	458d                	li	a1,3
   144bc:	4709                	li	a4,2
   144be:	08000793          	li	a5,128
   144c2:	00000073          	ecall
   144c6:	4609                	li	a2,2
   144c8:	04f57363          	bgeu	a0,a5,1450e <_ZN20complex_dynamic_type3app17h6a05aec672b5e5a1E+0xf6>
   144cc:	4505                	li	a0,1
   144ce:	00aa0023          	sb	a0,0(s4)
   144d2:	00ba2223          	sw	a1,4(s4)
   144d6:	470d                	li	a4,3
   144d8:	77f00513          	li	a0,1919
   144dc:	4581                	li	a1,0
   144de:	4601                	li	a2,0
   144e0:	4681                	li	a3,0
   144e2:	00000073          	ecall
   144e6:	00514703          	lbu	a4,5(sp)
   144ea:	4509                	li	a0,2
   144ec:	00a70963          	beq	a4,a0,144fe <_ZN20complex_dynamic_type3app17h6a05aec672b5e5a1E+0xe6>
   144f0:	77f00513          	li	a0,1919
   144f4:	458d                	li	a1,3
   144f6:	4601                	li	a2,0
   144f8:	4681                	li	a3,0
   144fa:	00000073          	ecall
   144fe:	50b6                	lw	ra,108(sp)
   14500:	5426                	lw	s0,104(sp)
   14502:	5496                	lw	s1,100(sp)
   14504:	5906                	lw	s2,96(sp)
   14506:	49f6                	lw	s3,92(sp)
   14508:	4a66                	lw	s4,88(sp)
   1450a:	6165                	addi	sp,sp,112
   1450c:	8082                	ret
   1450e:	00514703          	lbu	a4,5(sp)
   14512:	00c71463          	bne	a4,a2,1451a <_ZN20complex_dynamic_type3app17h6a05aec672b5e5a1E+0x102>
   14516:	470d                	li	a4,3
   14518:	a81d                	j	1454e <_ZN20complex_dynamic_type3app17h6a05aec672b5e5a1E+0x136>
   1451a:	77f00513          	li	a0,1919
   1451e:	458d                	li	a1,3
   14520:	4601                	li	a2,0
   14522:	4681                	li	a3,0
   14524:	00000073          	ecall
   14528:	03214703          	lbu	a4,50(sp)
   1452c:	4509                	li	a0,2
   1452e:	00a102a3          	sb	a0,5(sp)
   14532:	00a71e63          	bne	a4,a0,1454e <_ZN20complex_dynamic_type3app17h6a05aec672b5e5a1E+0x136>
   14536:	001a0513          	addi	a0,s4,1
   1453a:	02500613          	li	a2,37
   1453e:	85ce                	mv	a1,s3
   14540:	0000a097          	auipc	ra,0xa
   14544:	fd4080e7          	jalr	-44(ra) # 1e514 <memcpy>
   14548:	000a0023          	sb	zero,0(s4)
   1454c:	bf4d                	j	144fe <_ZN20complex_dynamic_type3app17h6a05aec672b5e5a1E+0xe6>
   1454e:	77f00513          	li	a0,1919
   14552:	4581                	li	a1,0
   14554:	4601                	li	a2,0
   14556:	4681                	li	a3,0
   14558:	00000073          	ecall
   1455c:	00514903          	lbu	s2,5(sp)
   14560:	001a0513          	addi	a0,s4,1
   14564:	02500613          	li	a2,37
   14568:	85ce                	mv	a1,s3
   1456a:	0000a097          	auipc	ra,0xa
   1456e:	faa080e7          	jalr	-86(ra) # 1e514 <memcpy>
   14572:	4509                	li	a0,2
   14574:	000a0023          	sb	zero,0(s4)
   14578:	f8a903e3          	beq	s2,a0,144fe <_ZN20complex_dynamic_type3app17h6a05aec672b5e5a1E+0xe6>
   1457c:	77f00513          	li	a0,1919
   14580:	458d                	li	a1,3
   14582:	4601                	li	a2,0
   14584:	4681                	li	a3,0
   14586:	874a                	mv	a4,s2
   14588:	00000073          	ecall
   1458c:	bf8d                	j	144fe <_ZN20complex_dynamic_type3app17h6a05aec672b5e5a1E+0xe6>

0001458e <_ZN20complex_dynamic_type3app17h6ac29e6ecff3d811E>:
   1458e:	7119                	addi	sp,sp,-128
   14590:	de86                	sw	ra,124(sp)
   14592:	dca2                	sw	s0,120(sp)
   14594:	daa6                	sw	s1,116(sp)
   14596:	d8ca                	sw	s2,112(sp)
   14598:	d6ce                	sw	s3,108(sp)
   1459a:	d4d2                	sw	s4,104(sp)
   1459c:	d2d6                	sw	s5,100(sp)
   1459e:	8aaa                	mv	s5,a0
   145a0:	4409                	li	s0,2
   145a2:	00810423          	sb	s0,8(sp)
   145a6:	00910493          	addi	s1,sp,9
   145aa:	4679                	li	a2,30
   145ac:	8526                	mv	a0,s1
   145ae:	0000a097          	auipc	ra,0xa
   145b2:	f66080e7          	jalr	-154(ra) # 1e514 <memcpy>
   145b6:	02810a13          	addi	s4,sp,40
   145ba:	03c00613          	li	a2,60
   145be:	8552                	mv	a0,s4
   145c0:	4581                	li	a1,0
   145c2:	0000a097          	auipc	ra,0xa
   145c6:	ee6080e7          	jalr	-282(ra) # 1e4a8 <memset>
   145ca:	8626                	mv	a2,s1
   145cc:	028103a3          	sb	s0,39(sp)
   145d0:	6505                	lui	a0,0x1
   145d2:	4491                	li	s1,4
   145d4:	4589                	li	a1,2
   145d6:	b3c50793          	addi	a5,a0,-1220 # b3c <.Lline_table_start1+0x911>
   145da:	46f9                	li	a3,30
   145dc:	4711                	li	a4,4
   145de:	853e                	mv	a0,a5
   145e0:	00000073          	ecall
   145e4:	00851863          	bne	a0,s0,145f4 <_ZN20complex_dynamic_type3app17h6ac29e6ecff3d811E+0x66>
   145e8:	4505                	li	a0,1
   145ea:	00aa8023          	sb	a0,0(s5)
   145ee:	00baa223          	sw	a1,4(s5)
   145f2:	a0bd                	j	14660 <_ZN20complex_dynamic_type3app17h6ac29e6ecff3d811E+0xd2>
   145f4:	853e                	mv	a0,a5
   145f6:	8652                	mv	a2,s4
   145f8:	00910423          	sb	s1,8(sp)
   145fc:	478d                	li	a5,3
   145fe:	458d                	li	a1,3
   14600:	03c00693          	li	a3,60
   14604:	470d                	li	a4,3
   14606:	00000073          	ecall
   1460a:	00851d63          	bne	a0,s0,14624 <_ZN20complex_dynamic_type3app17h6ac29e6ecff3d811E+0x96>
   1460e:	02714703          	lbu	a4,39(sp)
   14612:	4505                	li	a0,1
   14614:	4609                	li	a2,2
   14616:	00aa8023          	sb	a0,0(s5)
   1461a:	00baa223          	sw	a1,4(s5)
   1461e:	02c71963          	bne	a4,a2,14650 <_ZN20complex_dynamic_type3app17h6ac29e6ecff3d811E+0xc2>
   14622:	a83d                	j	14660 <_ZN20complex_dynamic_type3app17h6ac29e6ecff3d811E+0xd2>
   14624:	4681                	li	a3,0
   14626:	02f103a3          	sb	a5,39(sp)
   1462a:	6505                	lui	a0,0x1
   1462c:	4589                	li	a1,2
   1462e:	460d                	li	a2,3
   14630:	4709                	li	a4,2
   14632:	b3c50513          	addi	a0,a0,-1220 # b3c <.Lline_table_start1+0x911>
   14636:	08000793          	li	a5,128
   1463a:	00000073          	ecall
   1463e:	4609                	li	a2,2
   14640:	04f57663          	bgeu	a0,a5,1468c <_ZN20complex_dynamic_type3app17h6ac29e6ecff3d811E+0xfe>
   14644:	4505                	li	a0,1
   14646:	00aa8023          	sb	a0,0(s5)
   1464a:	00baa223          	sw	a1,4(s5)
   1464e:	470d                	li	a4,3
   14650:	6505                	lui	a0,0x1
   14652:	b3c50513          	addi	a0,a0,-1220 # b3c <.Lline_table_start1+0x911>
   14656:	458d                	li	a1,3
   14658:	4601                	li	a2,0
   1465a:	4681                	li	a3,0
   1465c:	00000073          	ecall
   14660:	00814703          	lbu	a4,8(sp)
   14664:	4509                	li	a0,2
   14666:	00a70a63          	beq	a4,a0,1467a <_ZN20complex_dynamic_type3app17h6ac29e6ecff3d811E+0xec>
   1466a:	6505                	lui	a0,0x1
   1466c:	b3c50513          	addi	a0,a0,-1220 # b3c <.Lline_table_start1+0x911>
   14670:	4589                	li	a1,2
   14672:	4601                	li	a2,0
   14674:	4681                	li	a3,0
   14676:	00000073          	ecall
   1467a:	50f6                	lw	ra,124(sp)
   1467c:	5466                	lw	s0,120(sp)
   1467e:	54d6                	lw	s1,116(sp)
   14680:	5946                	lw	s2,112(sp)
   14682:	59b6                	lw	s3,108(sp)
   14684:	5a26                	lw	s4,104(sp)
   14686:	5a96                	lw	s5,100(sp)
   14688:	6109                	addi	sp,sp,128
   1468a:	8082                	ret
   1468c:	00814703          	lbu	a4,8(sp)
   14690:	00c71463          	bne	a4,a2,14698 <_ZN20complex_dynamic_type3app17h6ac29e6ecff3d811E+0x10a>
   14694:	470d                	li	a4,3
   14696:	a825                	j	146ce <_ZN20complex_dynamic_type3app17h6ac29e6ecff3d811E+0x140>
   14698:	6505                	lui	a0,0x1
   1469a:	b3c50513          	addi	a0,a0,-1220 # b3c <.Lline_table_start1+0x911>
   1469e:	4589                	li	a1,2
   146a0:	4601                	li	a2,0
   146a2:	4681                	li	a3,0
   146a4:	00000073          	ecall
   146a8:	02714703          	lbu	a4,39(sp)
   146ac:	4509                	li	a0,2
   146ae:	00a10423          	sb	a0,8(sp)
   146b2:	00a71e63          	bne	a4,a0,146ce <_ZN20complex_dynamic_type3app17h6ac29e6ecff3d811E+0x140>
   146b6:	001a8513          	addi	a0,s5,1
   146ba:	03c00613          	li	a2,60
   146be:	85d2                	mv	a1,s4
   146c0:	0000a097          	auipc	ra,0xa
   146c4:	e54080e7          	jalr	-428(ra) # 1e514 <memcpy>
   146c8:	000a8023          	sb	zero,0(s5)
   146cc:	b77d                	j	1467a <_ZN20complex_dynamic_type3app17h6ac29e6ecff3d811E+0xec>
   146ce:	6505                	lui	a0,0x1
   146d0:	b3c50913          	addi	s2,a0,-1220 # b3c <.Lline_table_start1+0x911>
   146d4:	458d                	li	a1,3
   146d6:	854a                	mv	a0,s2
   146d8:	4601                	li	a2,0
   146da:	4681                	li	a3,0
   146dc:	00000073          	ecall
   146e0:	00814983          	lbu	s3,8(sp)
   146e4:	001a8513          	addi	a0,s5,1
   146e8:	03c00613          	li	a2,60
   146ec:	85d2                	mv	a1,s4
   146ee:	0000a097          	auipc	ra,0xa
   146f2:	e26080e7          	jalr	-474(ra) # 1e514 <memcpy>
   146f6:	4509                	li	a0,2
   146f8:	000a8023          	sb	zero,0(s5)
   146fc:	f6a98fe3          	beq	s3,a0,1467a <_ZN20complex_dynamic_type3app17h6ac29e6ecff3d811E+0xec>
   14700:	4589                	li	a1,2
   14702:	854a                	mv	a0,s2
   14704:	4601                	li	a2,0
   14706:	4681                	li	a3,0
   14708:	874e                	mv	a4,s3
   1470a:	00000073          	ecall
   1470e:	b7b5                	j	1467a <_ZN20complex_dynamic_type3app17h6ac29e6ecff3d811E+0xec>

00014710 <_ZN20complex_dynamic_type3app17h6dab2450788c2651E>:
   14710:	7175                	addi	sp,sp,-144
   14712:	c706                	sw	ra,140(sp)
   14714:	c522                	sw	s0,136(sp)
   14716:	c326                	sw	s1,132(sp)
   14718:	c14a                	sw	s2,128(sp)
   1471a:	dece                	sw	s3,124(sp)
   1471c:	dcd2                	sw	s4,120(sp)
   1471e:	dad6                	sw	s5,116(sp)
   14720:	8aaa                	mv	s5,a0
   14722:	4409                	li	s0,2
   14724:	008101a3          	sb	s0,3(sp)
   14728:	0044                	addi	s1,sp,4
   1472a:	4679                	li	a2,30
   1472c:	8526                	mv	a0,s1
   1472e:	0000a097          	auipc	ra,0xa
   14732:	de6080e7          	jalr	-538(ra) # 1e514 <memcpy>
   14736:	02310a13          	addi	s4,sp,35
   1473a:	05100613          	li	a2,81
   1473e:	8552                	mv	a0,s4
   14740:	4581                	li	a1,0
   14742:	0000a097          	auipc	ra,0xa
   14746:	d66080e7          	jalr	-666(ra) # 1e4a8 <memset>
   1474a:	8626                	mv	a2,s1
   1474c:	02810123          	sb	s0,34(sp)
   14750:	6509                	lui	a0,0x2
   14752:	4491                	li	s1,4
   14754:	4589                	li	a1,2
   14756:	96b50793          	addi	a5,a0,-1685 # 196b <.Lline_table_start1+0x1740>
   1475a:	46f9                	li	a3,30
   1475c:	4711                	li	a4,4
   1475e:	853e                	mv	a0,a5
   14760:	00000073          	ecall
   14764:	00851863          	bne	a0,s0,14774 <_ZN20complex_dynamic_type3app17h6dab2450788c2651E+0x64>
   14768:	4505                	li	a0,1
   1476a:	00aa8023          	sb	a0,0(s5)
   1476e:	00baa223          	sw	a1,4(s5)
   14772:	a0bd                	j	147e0 <_ZN20complex_dynamic_type3app17h6dab2450788c2651E+0xd0>
   14774:	853e                	mv	a0,a5
   14776:	4581                	li	a1,0
   14778:	8652                	mv	a2,s4
   1477a:	009101a3          	sb	s1,3(sp)
   1477e:	478d                	li	a5,3
   14780:	05100693          	li	a3,81
   14784:	470d                	li	a4,3
   14786:	00000073          	ecall
   1478a:	00851d63          	bne	a0,s0,147a4 <_ZN20complex_dynamic_type3app17h6dab2450788c2651E+0x94>
   1478e:	02214703          	lbu	a4,34(sp)
   14792:	4505                	li	a0,1
   14794:	4609                	li	a2,2
   14796:	00aa8023          	sb	a0,0(s5)
   1479a:	00baa223          	sw	a1,4(s5)
   1479e:	02c71963          	bne	a4,a2,147d0 <_ZN20complex_dynamic_type3app17h6dab2450788c2651E+0xc0>
   147a2:	a83d                	j	147e0 <_ZN20complex_dynamic_type3app17h6dab2450788c2651E+0xd0>
   147a4:	4601                	li	a2,0
   147a6:	4681                	li	a3,0
   147a8:	02f10123          	sb	a5,34(sp)
   147ac:	6509                	lui	a0,0x2
   147ae:	4589                	li	a1,2
   147b0:	4709                	li	a4,2
   147b2:	96b50513          	addi	a0,a0,-1685 # 196b <.Lline_table_start1+0x1740>
   147b6:	08000793          	li	a5,128
   147ba:	00000073          	ecall
   147be:	4609                	li	a2,2
   147c0:	04f57663          	bgeu	a0,a5,1480c <_ZN20complex_dynamic_type3app17h6dab2450788c2651E+0xfc>
   147c4:	4505                	li	a0,1
   147c6:	00aa8023          	sb	a0,0(s5)
   147ca:	00baa223          	sw	a1,4(s5)
   147ce:	470d                	li	a4,3
   147d0:	6509                	lui	a0,0x2
   147d2:	96b50513          	addi	a0,a0,-1685 # 196b <.Lline_table_start1+0x1740>
   147d6:	4581                	li	a1,0
   147d8:	4601                	li	a2,0
   147da:	4681                	li	a3,0
   147dc:	00000073          	ecall
   147e0:	00314703          	lbu	a4,3(sp)
   147e4:	4509                	li	a0,2
   147e6:	00a70a63          	beq	a4,a0,147fa <_ZN20complex_dynamic_type3app17h6dab2450788c2651E+0xea>
   147ea:	6509                	lui	a0,0x2
   147ec:	96b50513          	addi	a0,a0,-1685 # 196b <.Lline_table_start1+0x1740>
   147f0:	4589                	li	a1,2
   147f2:	4601                	li	a2,0
   147f4:	4681                	li	a3,0
   147f6:	00000073          	ecall
   147fa:	40ba                	lw	ra,140(sp)
   147fc:	442a                	lw	s0,136(sp)
   147fe:	449a                	lw	s1,132(sp)
   14800:	490a                	lw	s2,128(sp)
   14802:	59f6                	lw	s3,124(sp)
   14804:	5a66                	lw	s4,120(sp)
   14806:	5ad6                	lw	s5,116(sp)
   14808:	6149                	addi	sp,sp,144
   1480a:	8082                	ret
   1480c:	00314703          	lbu	a4,3(sp)
   14810:	00c71463          	bne	a4,a2,14818 <_ZN20complex_dynamic_type3app17h6dab2450788c2651E+0x108>
   14814:	470d                	li	a4,3
   14816:	a825                	j	1484e <_ZN20complex_dynamic_type3app17h6dab2450788c2651E+0x13e>
   14818:	6509                	lui	a0,0x2
   1481a:	96b50513          	addi	a0,a0,-1685 # 196b <.Lline_table_start1+0x1740>
   1481e:	4589                	li	a1,2
   14820:	4601                	li	a2,0
   14822:	4681                	li	a3,0
   14824:	00000073          	ecall
   14828:	02214703          	lbu	a4,34(sp)
   1482c:	4509                	li	a0,2
   1482e:	00a101a3          	sb	a0,3(sp)
   14832:	00a71e63          	bne	a4,a0,1484e <_ZN20complex_dynamic_type3app17h6dab2450788c2651E+0x13e>
   14836:	001a8513          	addi	a0,s5,1
   1483a:	05100613          	li	a2,81
   1483e:	85d2                	mv	a1,s4
   14840:	0000a097          	auipc	ra,0xa
   14844:	cd4080e7          	jalr	-812(ra) # 1e514 <memcpy>
   14848:	000a8023          	sb	zero,0(s5)
   1484c:	b77d                	j	147fa <_ZN20complex_dynamic_type3app17h6dab2450788c2651E+0xea>
   1484e:	6509                	lui	a0,0x2
   14850:	96b50913          	addi	s2,a0,-1685 # 196b <.Lline_table_start1+0x1740>
   14854:	854a                	mv	a0,s2
   14856:	4581                	li	a1,0
   14858:	4601                	li	a2,0
   1485a:	4681                	li	a3,0
   1485c:	00000073          	ecall
   14860:	00314983          	lbu	s3,3(sp)
   14864:	001a8513          	addi	a0,s5,1
   14868:	05100613          	li	a2,81
   1486c:	85d2                	mv	a1,s4
   1486e:	0000a097          	auipc	ra,0xa
   14872:	ca6080e7          	jalr	-858(ra) # 1e514 <memcpy>
   14876:	4509                	li	a0,2
   14878:	000a8023          	sb	zero,0(s5)
   1487c:	f6a98fe3          	beq	s3,a0,147fa <_ZN20complex_dynamic_type3app17h6dab2450788c2651E+0xea>
   14880:	4589                	li	a1,2
   14882:	854a                	mv	a0,s2
   14884:	4601                	li	a2,0
   14886:	4681                	li	a3,0
   14888:	874e                	mv	a4,s3
   1488a:	00000073          	ecall
   1488e:	b7b5                	j	147fa <_ZN20complex_dynamic_type3app17h6dab2450788c2651E+0xea>

00014890 <_ZN20complex_dynamic_type3app17h71cf3ef02fb93b3dE>:
   14890:	7135                	addi	sp,sp,-160
   14892:	cf06                	sw	ra,156(sp)
   14894:	cd22                	sw	s0,152(sp)
   14896:	cb26                	sw	s1,148(sp)
   14898:	c94a                	sw	s2,144(sp)
   1489a:	c74e                	sw	s3,140(sp)
   1489c:	c552                	sw	s4,136(sp)
   1489e:	c356                	sw	s5,132(sp)
   148a0:	8aaa                	mv	s5,a0
   148a2:	4409                	li	s0,2
   148a4:	008107a3          	sb	s0,15(sp)
   148a8:	0804                	addi	s1,sp,16
   148aa:	03200613          	li	a2,50
   148ae:	8526                	mv	a0,s1
   148b0:	0000a097          	auipc	ra,0xa
   148b4:	c64080e7          	jalr	-924(ra) # 1e514 <memcpy>
   148b8:	04310a13          	addi	s4,sp,67
   148bc:	04100613          	li	a2,65
   148c0:	8552                	mv	a0,s4
   148c2:	4581                	li	a1,0
   148c4:	0000a097          	auipc	ra,0xa
   148c8:	be4080e7          	jalr	-1052(ra) # 1e4a8 <memset>
   148cc:	8626                	mv	a2,s1
   148ce:	04810123          	sb	s0,66(sp)
   148d2:	6505                	lui	a0,0x1
   148d4:	4491                	li	s1,4
   148d6:	459d                	li	a1,7
   148d8:	91d50793          	addi	a5,a0,-1763 # 91d <.Lline_table_start1+0x6f2>
   148dc:	03200693          	li	a3,50
   148e0:	4711                	li	a4,4
   148e2:	853e                	mv	a0,a5
   148e4:	00000073          	ecall
   148e8:	00851863          	bne	a0,s0,148f8 <_ZN20complex_dynamic_type3app17h71cf3ef02fb93b3dE+0x68>
   148ec:	4505                	li	a0,1
   148ee:	00aa8023          	sb	a0,0(s5)
   148f2:	00baa223          	sw	a1,4(s5)
   148f6:	a0bd                	j	14964 <_ZN20complex_dynamic_type3app17h71cf3ef02fb93b3dE+0xd4>
   148f8:	853e                	mv	a0,a5
   148fa:	8652                	mv	a2,s4
   148fc:	009107a3          	sb	s1,15(sp)
   14900:	478d                	li	a5,3
   14902:	4595                	li	a1,5
   14904:	04100693          	li	a3,65
   14908:	470d                	li	a4,3
   1490a:	00000073          	ecall
   1490e:	00851d63          	bne	a0,s0,14928 <_ZN20complex_dynamic_type3app17h71cf3ef02fb93b3dE+0x98>
   14912:	04214703          	lbu	a4,66(sp)
   14916:	4505                	li	a0,1
   14918:	4609                	li	a2,2
   1491a:	00aa8023          	sb	a0,0(s5)
   1491e:	00baa223          	sw	a1,4(s5)
   14922:	02c71963          	bne	a4,a2,14954 <_ZN20complex_dynamic_type3app17h71cf3ef02fb93b3dE+0xc4>
   14926:	a83d                	j	14964 <_ZN20complex_dynamic_type3app17h71cf3ef02fb93b3dE+0xd4>
   14928:	4681                	li	a3,0
   1492a:	04f10123          	sb	a5,66(sp)
   1492e:	6505                	lui	a0,0x1
   14930:	459d                	li	a1,7
   14932:	4615                	li	a2,5
   14934:	4709                	li	a4,2
   14936:	91d50513          	addi	a0,a0,-1763 # 91d <.Lline_table_start1+0x6f2>
   1493a:	08000793          	li	a5,128
   1493e:	00000073          	ecall
   14942:	4609                	li	a2,2
   14944:	04f57663          	bgeu	a0,a5,14990 <_ZN20complex_dynamic_type3app17h71cf3ef02fb93b3dE+0x100>
   14948:	4505                	li	a0,1
   1494a:	00aa8023          	sb	a0,0(s5)
   1494e:	00baa223          	sw	a1,4(s5)
   14952:	470d                	li	a4,3
   14954:	6505                	lui	a0,0x1
   14956:	91d50513          	addi	a0,a0,-1763 # 91d <.Lline_table_start1+0x6f2>
   1495a:	4595                	li	a1,5
   1495c:	4601                	li	a2,0
   1495e:	4681                	li	a3,0
   14960:	00000073          	ecall
   14964:	00f14703          	lbu	a4,15(sp)
   14968:	4509                	li	a0,2
   1496a:	00a70a63          	beq	a4,a0,1497e <_ZN20complex_dynamic_type3app17h71cf3ef02fb93b3dE+0xee>
   1496e:	6505                	lui	a0,0x1
   14970:	91d50513          	addi	a0,a0,-1763 # 91d <.Lline_table_start1+0x6f2>
   14974:	459d                	li	a1,7
   14976:	4601                	li	a2,0
   14978:	4681                	li	a3,0
   1497a:	00000073          	ecall
   1497e:	40fa                	lw	ra,156(sp)
   14980:	446a                	lw	s0,152(sp)
   14982:	44da                	lw	s1,148(sp)
   14984:	494a                	lw	s2,144(sp)
   14986:	49ba                	lw	s3,140(sp)
   14988:	4a2a                	lw	s4,136(sp)
   1498a:	4a9a                	lw	s5,132(sp)
   1498c:	610d                	addi	sp,sp,160
   1498e:	8082                	ret
   14990:	00f14703          	lbu	a4,15(sp)
   14994:	00c71463          	bne	a4,a2,1499c <_ZN20complex_dynamic_type3app17h71cf3ef02fb93b3dE+0x10c>
   14998:	470d                	li	a4,3
   1499a:	a825                	j	149d2 <_ZN20complex_dynamic_type3app17h71cf3ef02fb93b3dE+0x142>
   1499c:	6505                	lui	a0,0x1
   1499e:	91d50513          	addi	a0,a0,-1763 # 91d <.Lline_table_start1+0x6f2>
   149a2:	459d                	li	a1,7
   149a4:	4601                	li	a2,0
   149a6:	4681                	li	a3,0
   149a8:	00000073          	ecall
   149ac:	04214703          	lbu	a4,66(sp)
   149b0:	4509                	li	a0,2
   149b2:	00a107a3          	sb	a0,15(sp)
   149b6:	00a71e63          	bne	a4,a0,149d2 <_ZN20complex_dynamic_type3app17h71cf3ef02fb93b3dE+0x142>
   149ba:	001a8513          	addi	a0,s5,1
   149be:	04100613          	li	a2,65
   149c2:	85d2                	mv	a1,s4
   149c4:	0000a097          	auipc	ra,0xa
   149c8:	b50080e7          	jalr	-1200(ra) # 1e514 <memcpy>
   149cc:	000a8023          	sb	zero,0(s5)
   149d0:	b77d                	j	1497e <_ZN20complex_dynamic_type3app17h71cf3ef02fb93b3dE+0xee>
   149d2:	6505                	lui	a0,0x1
   149d4:	91d50913          	addi	s2,a0,-1763 # 91d <.Lline_table_start1+0x6f2>
   149d8:	4595                	li	a1,5
   149da:	854a                	mv	a0,s2
   149dc:	4601                	li	a2,0
   149de:	4681                	li	a3,0
   149e0:	00000073          	ecall
   149e4:	00f14983          	lbu	s3,15(sp)
   149e8:	001a8513          	addi	a0,s5,1
   149ec:	04100613          	li	a2,65
   149f0:	85d2                	mv	a1,s4
   149f2:	0000a097          	auipc	ra,0xa
   149f6:	b22080e7          	jalr	-1246(ra) # 1e514 <memcpy>
   149fa:	4509                	li	a0,2
   149fc:	000a8023          	sb	zero,0(s5)
   14a00:	f6a98fe3          	beq	s3,a0,1497e <_ZN20complex_dynamic_type3app17h71cf3ef02fb93b3dE+0xee>
   14a04:	459d                	li	a1,7
   14a06:	854a                	mv	a0,s2
   14a08:	4601                	li	a2,0
   14a0a:	4681                	li	a3,0
   14a0c:	874e                	mv	a4,s3
   14a0e:	00000073          	ecall
   14a12:	b7b5                	j	1497e <_ZN20complex_dynamic_type3app17h71cf3ef02fb93b3dE+0xee>

00014a14 <_ZN20complex_dynamic_type3app17h734e01f565f2de15E>:
   14a14:	7159                	addi	sp,sp,-112
   14a16:	d686                	sw	ra,108(sp)
   14a18:	d4a2                	sw	s0,104(sp)
   14a1a:	d2a6                	sw	s1,100(sp)
   14a1c:	d0ca                	sw	s2,96(sp)
   14a1e:	cece                	sw	s3,92(sp)
   14a20:	ccd2                	sw	s4,88(sp)
   14a22:	8a2a                	mv	s4,a0
   14a24:	4409                	li	s0,2
   14a26:	00810423          	sb	s0,8(sp)
   14a2a:	00910493          	addi	s1,sp,9
   14a2e:	4661                	li	a2,24
   14a30:	8526                	mv	a0,s1
   14a32:	0000a097          	auipc	ra,0xa
   14a36:	ae2080e7          	jalr	-1310(ra) # 1e514 <memcpy>
   14a3a:	02210993          	addi	s3,sp,34
   14a3e:	03600613          	li	a2,54
   14a42:	854e                	mv	a0,s3
   14a44:	4581                	li	a1,0
   14a46:	0000a097          	auipc	ra,0xa
   14a4a:	a62080e7          	jalr	-1438(ra) # 1e4a8 <memset>
   14a4e:	8626                	mv	a2,s1
   14a50:	028100a3          	sb	s0,33(sp)
   14a54:	4791                	li	a5,4
   14a56:	0f300513          	li	a0,243
   14a5a:	45a1                	li	a1,8
   14a5c:	46e1                	li	a3,24
   14a5e:	4711                	li	a4,4
   14a60:	00000073          	ecall
   14a64:	00851863          	bne	a0,s0,14a74 <_ZN20complex_dynamic_type3app17h734e01f565f2de15E+0x60>
   14a68:	4505                	li	a0,1
   14a6a:	00aa0023          	sb	a0,0(s4)
   14a6e:	00ba2223          	sw	a1,4(s4)
   14a72:	a0b5                	j	14ade <_ZN20complex_dynamic_type3app17h734e01f565f2de15E+0xca>
   14a74:	864e                	mv	a2,s3
   14a76:	00f10423          	sb	a5,8(sp)
   14a7a:	478d                	li	a5,3
   14a7c:	0f300513          	li	a0,243
   14a80:	4591                	li	a1,4
   14a82:	03600693          	li	a3,54
   14a86:	470d                	li	a4,3
   14a88:	00000073          	ecall
   14a8c:	00851d63          	bne	a0,s0,14aa6 <_ZN20complex_dynamic_type3app17h734e01f565f2de15E+0x92>
   14a90:	02114703          	lbu	a4,33(sp)
   14a94:	4505                	li	a0,1
   14a96:	4609                	li	a2,2
   14a98:	00aa0023          	sb	a0,0(s4)
   14a9c:	00ba2223          	sw	a1,4(s4)
   14aa0:	02c71863          	bne	a4,a2,14ad0 <_ZN20complex_dynamic_type3app17h734e01f565f2de15E+0xbc>
   14aa4:	a82d                	j	14ade <_ZN20complex_dynamic_type3app17h734e01f565f2de15E+0xca>
   14aa6:	4681                	li	a3,0
   14aa8:	02f100a3          	sb	a5,33(sp)
   14aac:	0f300513          	li	a0,243
   14ab0:	45a1                	li	a1,8
   14ab2:	4611                	li	a2,4
   14ab4:	4709                	li	a4,2
   14ab6:	08000793          	li	a5,128
   14aba:	00000073          	ecall
   14abe:	4609                	li	a2,2
   14ac0:	04f57363          	bgeu	a0,a5,14b06 <_ZN20complex_dynamic_type3app17h734e01f565f2de15E+0xf2>
   14ac4:	4505                	li	a0,1
   14ac6:	00aa0023          	sb	a0,0(s4)
   14aca:	00ba2223          	sw	a1,4(s4)
   14ace:	470d                	li	a4,3
   14ad0:	0f300513          	li	a0,243
   14ad4:	4591                	li	a1,4
   14ad6:	4601                	li	a2,0
   14ad8:	4681                	li	a3,0
   14ada:	00000073          	ecall
   14ade:	00814703          	lbu	a4,8(sp)
   14ae2:	4509                	li	a0,2
   14ae4:	00a70963          	beq	a4,a0,14af6 <_ZN20complex_dynamic_type3app17h734e01f565f2de15E+0xe2>
   14ae8:	0f300513          	li	a0,243
   14aec:	45a1                	li	a1,8
   14aee:	4601                	li	a2,0
   14af0:	4681                	li	a3,0
   14af2:	00000073          	ecall
   14af6:	50b6                	lw	ra,108(sp)
   14af8:	5426                	lw	s0,104(sp)
   14afa:	5496                	lw	s1,100(sp)
   14afc:	5906                	lw	s2,96(sp)
   14afe:	49f6                	lw	s3,92(sp)
   14b00:	4a66                	lw	s4,88(sp)
   14b02:	6165                	addi	sp,sp,112
   14b04:	8082                	ret
   14b06:	00814703          	lbu	a4,8(sp)
   14b0a:	00c71463          	bne	a4,a2,14b12 <_ZN20complex_dynamic_type3app17h734e01f565f2de15E+0xfe>
   14b0e:	470d                	li	a4,3
   14b10:	a81d                	j	14b46 <_ZN20complex_dynamic_type3app17h734e01f565f2de15E+0x132>
   14b12:	0f300513          	li	a0,243
   14b16:	45a1                	li	a1,8
   14b18:	4601                	li	a2,0
   14b1a:	4681                	li	a3,0
   14b1c:	00000073          	ecall
   14b20:	02114703          	lbu	a4,33(sp)
   14b24:	4509                	li	a0,2
   14b26:	00a10423          	sb	a0,8(sp)
   14b2a:	00a71e63          	bne	a4,a0,14b46 <_ZN20complex_dynamic_type3app17h734e01f565f2de15E+0x132>
   14b2e:	001a0513          	addi	a0,s4,1
   14b32:	03600613          	li	a2,54
   14b36:	85ce                	mv	a1,s3
   14b38:	0000a097          	auipc	ra,0xa
   14b3c:	9dc080e7          	jalr	-1572(ra) # 1e514 <memcpy>
   14b40:	000a0023          	sb	zero,0(s4)
   14b44:	bf4d                	j	14af6 <_ZN20complex_dynamic_type3app17h734e01f565f2de15E+0xe2>
   14b46:	0f300513          	li	a0,243
   14b4a:	4591                	li	a1,4
   14b4c:	4601                	li	a2,0
   14b4e:	4681                	li	a3,0
   14b50:	00000073          	ecall
   14b54:	00814903          	lbu	s2,8(sp)
   14b58:	001a0513          	addi	a0,s4,1
   14b5c:	03600613          	li	a2,54
   14b60:	85ce                	mv	a1,s3
   14b62:	0000a097          	auipc	ra,0xa
   14b66:	9b2080e7          	jalr	-1614(ra) # 1e514 <memcpy>
   14b6a:	4509                	li	a0,2
   14b6c:	000a0023          	sb	zero,0(s4)
   14b70:	f8a903e3          	beq	s2,a0,14af6 <_ZN20complex_dynamic_type3app17h734e01f565f2de15E+0xe2>
   14b74:	0f300513          	li	a0,243
   14b78:	45a1                	li	a1,8
   14b7a:	4601                	li	a2,0
   14b7c:	4681                	li	a3,0
   14b7e:	874a                	mv	a4,s2
   14b80:	00000073          	ecall
   14b84:	bf8d                	j	14af6 <_ZN20complex_dynamic_type3app17h734e01f565f2de15E+0xe2>

00014b86 <_ZN20complex_dynamic_type3app17h73fb014b4f814c14E>:
   14b86:	711d                	addi	sp,sp,-96
   14b88:	ce86                	sw	ra,92(sp)
   14b8a:	cca2                	sw	s0,88(sp)
   14b8c:	caa6                	sw	s1,84(sp)
   14b8e:	c8ca                	sw	s2,80(sp)
   14b90:	c6ce                	sw	s3,76(sp)
   14b92:	c4d2                	sw	s4,72(sp)
   14b94:	c2d6                	sw	s5,68(sp)
   14b96:	8aaa                	mv	s5,a0
   14b98:	4409                	li	s0,2
   14b9a:	008103a3          	sb	s0,7(sp)
   14b9e:	0024                	addi	s1,sp,8
   14ba0:	02700613          	li	a2,39
   14ba4:	8526                	mv	a0,s1
   14ba6:	0000a097          	auipc	ra,0xa
   14baa:	96e080e7          	jalr	-1682(ra) # 1e514 <memcpy>
   14bae:	03010a13          	addi	s4,sp,48
   14bb2:	4651                	li	a2,20
   14bb4:	8552                	mv	a0,s4
   14bb6:	4581                	li	a1,0
   14bb8:	0000a097          	auipc	ra,0xa
   14bbc:	8f0080e7          	jalr	-1808(ra) # 1e4a8 <memset>
   14bc0:	8626                	mv	a2,s1
   14bc2:	028107a3          	sb	s0,47(sp)
   14bc6:	6509                	lui	a0,0x2
   14bc8:	4491                	li	s1,4
   14bca:	4599                	li	a1,6
   14bcc:	2c950793          	addi	a5,a0,713 # 22c9 <.Lline_table_start1+0x209e>
   14bd0:	02700693          	li	a3,39
   14bd4:	4711                	li	a4,4
   14bd6:	853e                	mv	a0,a5
   14bd8:	00000073          	ecall
   14bdc:	00851863          	bne	a0,s0,14bec <_ZN20complex_dynamic_type3app17h73fb014b4f814c14E+0x66>
   14be0:	4505                	li	a0,1
   14be2:	00aa8023          	sb	a0,0(s5)
   14be6:	00baa223          	sw	a1,4(s5)
   14bea:	a0b5                	j	14c56 <_ZN20complex_dynamic_type3app17h73fb014b4f814c14E+0xd0>
   14bec:	853e                	mv	a0,a5
   14bee:	8652                	mv	a2,s4
   14bf0:	009103a3          	sb	s1,7(sp)
   14bf4:	478d                	li	a5,3
   14bf6:	4595                	li	a1,5
   14bf8:	46d1                	li	a3,20
   14bfa:	470d                	li	a4,3
   14bfc:	00000073          	ecall
   14c00:	00851d63          	bne	a0,s0,14c1a <_ZN20complex_dynamic_type3app17h73fb014b4f814c14E+0x94>
   14c04:	02f14703          	lbu	a4,47(sp)
   14c08:	4505                	li	a0,1
   14c0a:	4609                	li	a2,2
   14c0c:	00aa8023          	sb	a0,0(s5)
   14c10:	00baa223          	sw	a1,4(s5)
   14c14:	02c71963          	bne	a4,a2,14c46 <_ZN20complex_dynamic_type3app17h73fb014b4f814c14E+0xc0>
   14c18:	a83d                	j	14c56 <_ZN20complex_dynamic_type3app17h73fb014b4f814c14E+0xd0>
   14c1a:	4681                	li	a3,0
   14c1c:	02f107a3          	sb	a5,47(sp)
   14c20:	6509                	lui	a0,0x2
   14c22:	4599                	li	a1,6
   14c24:	4615                	li	a2,5
   14c26:	4709                	li	a4,2
   14c28:	2c950513          	addi	a0,a0,713 # 22c9 <.Lline_table_start1+0x209e>
   14c2c:	08000793          	li	a5,128
   14c30:	00000073          	ecall
   14c34:	4609                	li	a2,2
   14c36:	04f57663          	bgeu	a0,a5,14c82 <_ZN20complex_dynamic_type3app17h73fb014b4f814c14E+0xfc>
   14c3a:	4505                	li	a0,1
   14c3c:	00aa8023          	sb	a0,0(s5)
   14c40:	00baa223          	sw	a1,4(s5)
   14c44:	470d                	li	a4,3
   14c46:	6509                	lui	a0,0x2
   14c48:	2c950513          	addi	a0,a0,713 # 22c9 <.Lline_table_start1+0x209e>
   14c4c:	4595                	li	a1,5
   14c4e:	4601                	li	a2,0
   14c50:	4681                	li	a3,0
   14c52:	00000073          	ecall
   14c56:	00714703          	lbu	a4,7(sp)
   14c5a:	4509                	li	a0,2
   14c5c:	00a70a63          	beq	a4,a0,14c70 <_ZN20complex_dynamic_type3app17h73fb014b4f814c14E+0xea>
   14c60:	6509                	lui	a0,0x2
   14c62:	2c950513          	addi	a0,a0,713 # 22c9 <.Lline_table_start1+0x209e>
   14c66:	4599                	li	a1,6
   14c68:	4601                	li	a2,0
   14c6a:	4681                	li	a3,0
   14c6c:	00000073          	ecall
   14c70:	40f6                	lw	ra,92(sp)
   14c72:	4466                	lw	s0,88(sp)
   14c74:	44d6                	lw	s1,84(sp)
   14c76:	4946                	lw	s2,80(sp)
   14c78:	49b6                	lw	s3,76(sp)
   14c7a:	4a26                	lw	s4,72(sp)
   14c7c:	4a96                	lw	s5,68(sp)
   14c7e:	6125                	addi	sp,sp,96
   14c80:	8082                	ret
   14c82:	00714703          	lbu	a4,7(sp)
   14c86:	00c71463          	bne	a4,a2,14c8e <_ZN20complex_dynamic_type3app17h73fb014b4f814c14E+0x108>
   14c8a:	470d                	li	a4,3
   14c8c:	a81d                	j	14cc2 <_ZN20complex_dynamic_type3app17h73fb014b4f814c14E+0x13c>
   14c8e:	6509                	lui	a0,0x2
   14c90:	2c950513          	addi	a0,a0,713 # 22c9 <.Lline_table_start1+0x209e>
   14c94:	4599                	li	a1,6
   14c96:	4601                	li	a2,0
   14c98:	4681                	li	a3,0
   14c9a:	00000073          	ecall
   14c9e:	02f14703          	lbu	a4,47(sp)
   14ca2:	4509                	li	a0,2
   14ca4:	00a103a3          	sb	a0,7(sp)
   14ca8:	00a71d63          	bne	a4,a0,14cc2 <_ZN20complex_dynamic_type3app17h73fb014b4f814c14E+0x13c>
   14cac:	001a8513          	addi	a0,s5,1
   14cb0:	4651                	li	a2,20
   14cb2:	85d2                	mv	a1,s4
   14cb4:	0000a097          	auipc	ra,0xa
   14cb8:	860080e7          	jalr	-1952(ra) # 1e514 <memcpy>
   14cbc:	000a8023          	sb	zero,0(s5)
   14cc0:	bf45                	j	14c70 <_ZN20complex_dynamic_type3app17h73fb014b4f814c14E+0xea>
   14cc2:	6509                	lui	a0,0x2
   14cc4:	2c950913          	addi	s2,a0,713 # 22c9 <.Lline_table_start1+0x209e>
   14cc8:	4595                	li	a1,5
   14cca:	854a                	mv	a0,s2
   14ccc:	4601                	li	a2,0
   14cce:	4681                	li	a3,0
   14cd0:	00000073          	ecall
   14cd4:	00714983          	lbu	s3,7(sp)
   14cd8:	001a8513          	addi	a0,s5,1
   14cdc:	4651                	li	a2,20
   14cde:	85d2                	mv	a1,s4
   14ce0:	0000a097          	auipc	ra,0xa
   14ce4:	834080e7          	jalr	-1996(ra) # 1e514 <memcpy>
   14ce8:	4509                	li	a0,2
   14cea:	000a8023          	sb	zero,0(s5)
   14cee:	f8a981e3          	beq	s3,a0,14c70 <_ZN20complex_dynamic_type3app17h73fb014b4f814c14E+0xea>
   14cf2:	4599                	li	a1,6
   14cf4:	854a                	mv	a0,s2
   14cf6:	4601                	li	a2,0
   14cf8:	4681                	li	a3,0
   14cfa:	874e                	mv	a4,s3
   14cfc:	00000073          	ecall
   14d00:	bf85                	j	14c70 <_ZN20complex_dynamic_type3app17h73fb014b4f814c14E+0xea>

00014d02 <_ZN20complex_dynamic_type3app17h7560b516f4b4ad9aE>:
   14d02:	715d                	addi	sp,sp,-80
   14d04:	c686                	sw	ra,76(sp)
   14d06:	c4a2                	sw	s0,72(sp)
   14d08:	c2a6                	sw	s1,68(sp)
   14d0a:	c0ca                	sw	s2,64(sp)
   14d0c:	de4e                	sw	s3,60(sp)
   14d0e:	dc52                	sw	s4,56(sp)
   14d10:	da56                	sw	s5,52(sp)
   14d12:	8aaa                	mv	s5,a0
   14d14:	4409                	li	s0,2
   14d16:	00810223          	sb	s0,4(sp)
   14d1a:	00510493          	addi	s1,sp,5
   14d1e:	4635                	li	a2,13
   14d20:	8526                	mv	a0,s1
   14d22:	00009097          	auipc	ra,0x9
   14d26:	7f2080e7          	jalr	2034(ra) # 1e514 <memcpy>
   14d2a:	01310a13          	addi	s4,sp,19
   14d2e:	02100613          	li	a2,33
   14d32:	8552                	mv	a0,s4
   14d34:	4581                	li	a1,0
   14d36:	00009097          	auipc	ra,0x9
   14d3a:	772080e7          	jalr	1906(ra) # 1e4a8 <memset>
   14d3e:	4581                	li	a1,0
   14d40:	8626                	mv	a2,s1
   14d42:	00810923          	sb	s0,18(sp)
   14d46:	6505                	lui	a0,0x1
   14d48:	4491                	li	s1,4
   14d4a:	6b050793          	addi	a5,a0,1712 # 16b0 <.Lline_table_start1+0x1485>
   14d4e:	46b5                	li	a3,13
   14d50:	4711                	li	a4,4
   14d52:	853e                	mv	a0,a5
   14d54:	00000073          	ecall
   14d58:	00851863          	bne	a0,s0,14d68 <_ZN20complex_dynamic_type3app17h7560b516f4b4ad9aE+0x66>
   14d5c:	4505                	li	a0,1
   14d5e:	00aa8023          	sb	a0,0(s5)
   14d62:	00baa223          	sw	a1,4(s5)
   14d66:	a0bd                	j	14dd4 <_ZN20complex_dynamic_type3app17h7560b516f4b4ad9aE+0xd2>
   14d68:	853e                	mv	a0,a5
   14d6a:	4581                	li	a1,0
   14d6c:	8652                	mv	a2,s4
   14d6e:	00910223          	sb	s1,4(sp)
   14d72:	478d                	li	a5,3
   14d74:	02100693          	li	a3,33
   14d78:	470d                	li	a4,3
   14d7a:	00000073          	ecall
   14d7e:	00851d63          	bne	a0,s0,14d98 <_ZN20complex_dynamic_type3app17h7560b516f4b4ad9aE+0x96>
   14d82:	01214703          	lbu	a4,18(sp)
   14d86:	4505                	li	a0,1
   14d88:	4609                	li	a2,2
   14d8a:	00aa8023          	sb	a0,0(s5)
   14d8e:	00baa223          	sw	a1,4(s5)
   14d92:	02c71963          	bne	a4,a2,14dc4 <_ZN20complex_dynamic_type3app17h7560b516f4b4ad9aE+0xc2>
   14d96:	a83d                	j	14dd4 <_ZN20complex_dynamic_type3app17h7560b516f4b4ad9aE+0xd2>
   14d98:	4581                	li	a1,0
   14d9a:	4601                	li	a2,0
   14d9c:	4681                	li	a3,0
   14d9e:	00f10923          	sb	a5,18(sp)
   14da2:	6505                	lui	a0,0x1
   14da4:	4709                	li	a4,2
   14da6:	6b050513          	addi	a0,a0,1712 # 16b0 <.Lline_table_start1+0x1485>
   14daa:	08000793          	li	a5,128
   14dae:	00000073          	ecall
   14db2:	4609                	li	a2,2
   14db4:	04f57663          	bgeu	a0,a5,14e00 <_ZN20complex_dynamic_type3app17h7560b516f4b4ad9aE+0xfe>
   14db8:	4505                	li	a0,1
   14dba:	00aa8023          	sb	a0,0(s5)
   14dbe:	00baa223          	sw	a1,4(s5)
   14dc2:	470d                	li	a4,3
   14dc4:	6505                	lui	a0,0x1
   14dc6:	6b050513          	addi	a0,a0,1712 # 16b0 <.Lline_table_start1+0x1485>
   14dca:	4581                	li	a1,0
   14dcc:	4601                	li	a2,0
   14dce:	4681                	li	a3,0
   14dd0:	00000073          	ecall
   14dd4:	00414703          	lbu	a4,4(sp)
   14dd8:	4509                	li	a0,2
   14dda:	00a70a63          	beq	a4,a0,14dee <_ZN20complex_dynamic_type3app17h7560b516f4b4ad9aE+0xec>
   14dde:	6505                	lui	a0,0x1
   14de0:	6b050513          	addi	a0,a0,1712 # 16b0 <.Lline_table_start1+0x1485>
   14de4:	4581                	li	a1,0
   14de6:	4601                	li	a2,0
   14de8:	4681                	li	a3,0
   14dea:	00000073          	ecall
   14dee:	40b6                	lw	ra,76(sp)
   14df0:	4426                	lw	s0,72(sp)
   14df2:	4496                	lw	s1,68(sp)
   14df4:	4906                	lw	s2,64(sp)
   14df6:	59f2                	lw	s3,60(sp)
   14df8:	5a62                	lw	s4,56(sp)
   14dfa:	5ad2                	lw	s5,52(sp)
   14dfc:	6161                	addi	sp,sp,80
   14dfe:	8082                	ret
   14e00:	00414703          	lbu	a4,4(sp)
   14e04:	00c71463          	bne	a4,a2,14e0c <_ZN20complex_dynamic_type3app17h7560b516f4b4ad9aE+0x10a>
   14e08:	470d                	li	a4,3
   14e0a:	a825                	j	14e42 <_ZN20complex_dynamic_type3app17h7560b516f4b4ad9aE+0x140>
   14e0c:	6505                	lui	a0,0x1
   14e0e:	6b050513          	addi	a0,a0,1712 # 16b0 <.Lline_table_start1+0x1485>
   14e12:	4581                	li	a1,0
   14e14:	4601                	li	a2,0
   14e16:	4681                	li	a3,0
   14e18:	00000073          	ecall
   14e1c:	01214703          	lbu	a4,18(sp)
   14e20:	4509                	li	a0,2
   14e22:	00a10223          	sb	a0,4(sp)
   14e26:	00a71e63          	bne	a4,a0,14e42 <_ZN20complex_dynamic_type3app17h7560b516f4b4ad9aE+0x140>
   14e2a:	001a8513          	addi	a0,s5,1
   14e2e:	02100613          	li	a2,33
   14e32:	85d2                	mv	a1,s4
   14e34:	00009097          	auipc	ra,0x9
   14e38:	6e0080e7          	jalr	1760(ra) # 1e514 <memcpy>
   14e3c:	000a8023          	sb	zero,0(s5)
   14e40:	b77d                	j	14dee <_ZN20complex_dynamic_type3app17h7560b516f4b4ad9aE+0xec>
   14e42:	6505                	lui	a0,0x1
   14e44:	6b050913          	addi	s2,a0,1712 # 16b0 <.Lline_table_start1+0x1485>
   14e48:	854a                	mv	a0,s2
   14e4a:	4581                	li	a1,0
   14e4c:	4601                	li	a2,0
   14e4e:	4681                	li	a3,0
   14e50:	00000073          	ecall
   14e54:	00414983          	lbu	s3,4(sp)
   14e58:	001a8513          	addi	a0,s5,1
   14e5c:	02100613          	li	a2,33
   14e60:	85d2                	mv	a1,s4
   14e62:	00009097          	auipc	ra,0x9
   14e66:	6b2080e7          	jalr	1714(ra) # 1e514 <memcpy>
   14e6a:	4509                	li	a0,2
   14e6c:	000a8023          	sb	zero,0(s5)
   14e70:	f6a98fe3          	beq	s3,a0,14dee <_ZN20complex_dynamic_type3app17h7560b516f4b4ad9aE+0xec>
   14e74:	854a                	mv	a0,s2
   14e76:	4581                	li	a1,0
   14e78:	4601                	li	a2,0
   14e7a:	4681                	li	a3,0
   14e7c:	874e                	mv	a4,s3
   14e7e:	00000073          	ecall
   14e82:	b7b5                	j	14dee <_ZN20complex_dynamic_type3app17h7560b516f4b4ad9aE+0xec>

00014e84 <_ZN20complex_dynamic_type3app17h7590d44c197ef84fE>:
   14e84:	7175                	addi	sp,sp,-144
   14e86:	c706                	sw	ra,140(sp)
   14e88:	c522                	sw	s0,136(sp)
   14e8a:	c326                	sw	s1,132(sp)
   14e8c:	c14a                	sw	s2,128(sp)
   14e8e:	dece                	sw	s3,124(sp)
   14e90:	dcd2                	sw	s4,120(sp)
   14e92:	dad6                	sw	s5,116(sp)
   14e94:	8aaa                	mv	s5,a0
   14e96:	4409                	li	s0,2
   14e98:	008107a3          	sb	s0,15(sp)
   14e9c:	0804                	addi	s1,sp,16
   14e9e:	04100613          	li	a2,65
   14ea2:	8526                	mv	a0,s1
   14ea4:	00009097          	auipc	ra,0x9
   14ea8:	670080e7          	jalr	1648(ra) # 1e514 <memcpy>
   14eac:	05210a13          	addi	s4,sp,82
   14eb0:	02200613          	li	a2,34
   14eb4:	8552                	mv	a0,s4
   14eb6:	4581                	li	a1,0
   14eb8:	00009097          	auipc	ra,0x9
   14ebc:	5f0080e7          	jalr	1520(ra) # 1e4a8 <memset>
   14ec0:	8626                	mv	a2,s1
   14ec2:	048108a3          	sb	s0,81(sp)
   14ec6:	6509                	lui	a0,0x2
   14ec8:	4485                	li	s1,1
   14eca:	4811                	li	a6,4
   14ecc:	4585                	li	a1,1
   14ece:	47c50793          	addi	a5,a0,1148 # 247c <.Lline_table_start1+0x2251>
   14ed2:	04100693          	li	a3,65
   14ed6:	4711                	li	a4,4
   14ed8:	853e                	mv	a0,a5
   14eda:	00000073          	ecall
   14ede:	00851763          	bne	a0,s0,14eec <_ZN20complex_dynamic_type3app17h7590d44c197ef84fE+0x68>
   14ee2:	009a8023          	sb	s1,0(s5)
   14ee6:	00baa223          	sw	a1,4(s5)
   14eea:	a0bd                	j	14f58 <_ZN20complex_dynamic_type3app17h7590d44c197ef84fE+0xd4>
   14eec:	853e                	mv	a0,a5
   14eee:	4581                	li	a1,0
   14ef0:	8652                	mv	a2,s4
   14ef2:	010107a3          	sb	a6,15(sp)
   14ef6:	478d                	li	a5,3
   14ef8:	02200693          	li	a3,34
   14efc:	470d                	li	a4,3
   14efe:	00000073          	ecall
   14f02:	00851d63          	bne	a0,s0,14f1c <_ZN20complex_dynamic_type3app17h7590d44c197ef84fE+0x98>
   14f06:	05114703          	lbu	a4,81(sp)
   14f0a:	4505                	li	a0,1
   14f0c:	4609                	li	a2,2
   14f0e:	00aa8023          	sb	a0,0(s5)
   14f12:	00baa223          	sw	a1,4(s5)
   14f16:	02c71963          	bne	a4,a2,14f48 <_ZN20complex_dynamic_type3app17h7590d44c197ef84fE+0xc4>
   14f1a:	a83d                	j	14f58 <_ZN20complex_dynamic_type3app17h7590d44c197ef84fE+0xd4>
   14f1c:	4601                	li	a2,0
   14f1e:	4681                	li	a3,0
   14f20:	04f108a3          	sb	a5,81(sp)
   14f24:	6509                	lui	a0,0x2
   14f26:	4785                	li	a5,1
   14f28:	4585                	li	a1,1
   14f2a:	4709                	li	a4,2
   14f2c:	47c50513          	addi	a0,a0,1148 # 247c <.Lline_table_start1+0x2251>
   14f30:	08000493          	li	s1,128
   14f34:	00000073          	ecall
   14f38:	4609                	li	a2,2
   14f3a:	04957563          	bgeu	a0,s1,14f84 <_ZN20complex_dynamic_type3app17h7590d44c197ef84fE+0x100>
   14f3e:	00fa8023          	sb	a5,0(s5)
   14f42:	00baa223          	sw	a1,4(s5)
   14f46:	470d                	li	a4,3
   14f48:	6509                	lui	a0,0x2
   14f4a:	47c50513          	addi	a0,a0,1148 # 247c <.Lline_table_start1+0x2251>
   14f4e:	4581                	li	a1,0
   14f50:	4601                	li	a2,0
   14f52:	4681                	li	a3,0
   14f54:	00000073          	ecall
   14f58:	00f14703          	lbu	a4,15(sp)
   14f5c:	4509                	li	a0,2
   14f5e:	00a70a63          	beq	a4,a0,14f72 <_ZN20complex_dynamic_type3app17h7590d44c197ef84fE+0xee>
   14f62:	6509                	lui	a0,0x2
   14f64:	47c50513          	addi	a0,a0,1148 # 247c <.Lline_table_start1+0x2251>
   14f68:	4585                	li	a1,1
   14f6a:	4601                	li	a2,0
   14f6c:	4681                	li	a3,0
   14f6e:	00000073          	ecall
   14f72:	40ba                	lw	ra,140(sp)
   14f74:	442a                	lw	s0,136(sp)
   14f76:	449a                	lw	s1,132(sp)
   14f78:	490a                	lw	s2,128(sp)
   14f7a:	59f6                	lw	s3,124(sp)
   14f7c:	5a66                	lw	s4,120(sp)
   14f7e:	5ad6                	lw	s5,116(sp)
   14f80:	6149                	addi	sp,sp,144
   14f82:	8082                	ret
   14f84:	00f14703          	lbu	a4,15(sp)
   14f88:	00c71463          	bne	a4,a2,14f90 <_ZN20complex_dynamic_type3app17h7590d44c197ef84fE+0x10c>
   14f8c:	470d                	li	a4,3
   14f8e:	a825                	j	14fc6 <_ZN20complex_dynamic_type3app17h7590d44c197ef84fE+0x142>
   14f90:	6509                	lui	a0,0x2
   14f92:	47c50513          	addi	a0,a0,1148 # 247c <.Lline_table_start1+0x2251>
   14f96:	4585                	li	a1,1
   14f98:	4601                	li	a2,0
   14f9a:	4681                	li	a3,0
   14f9c:	00000073          	ecall
   14fa0:	05114703          	lbu	a4,81(sp)
   14fa4:	4509                	li	a0,2
   14fa6:	00a107a3          	sb	a0,15(sp)
   14faa:	00a71e63          	bne	a4,a0,14fc6 <_ZN20complex_dynamic_type3app17h7590d44c197ef84fE+0x142>
   14fae:	001a8513          	addi	a0,s5,1
   14fb2:	02200613          	li	a2,34
   14fb6:	85d2                	mv	a1,s4
   14fb8:	00009097          	auipc	ra,0x9
   14fbc:	55c080e7          	jalr	1372(ra) # 1e514 <memcpy>
   14fc0:	000a8023          	sb	zero,0(s5)
   14fc4:	b77d                	j	14f72 <_ZN20complex_dynamic_type3app17h7590d44c197ef84fE+0xee>
   14fc6:	6509                	lui	a0,0x2
   14fc8:	47c50913          	addi	s2,a0,1148 # 247c <.Lline_table_start1+0x2251>
   14fcc:	854a                	mv	a0,s2
   14fce:	4581                	li	a1,0
   14fd0:	4601                	li	a2,0
   14fd2:	4681                	li	a3,0
   14fd4:	00000073          	ecall
   14fd8:	00f14983          	lbu	s3,15(sp)
   14fdc:	001a8513          	addi	a0,s5,1
   14fe0:	02200613          	li	a2,34
   14fe4:	85d2                	mv	a1,s4
   14fe6:	00009097          	auipc	ra,0x9
   14fea:	52e080e7          	jalr	1326(ra) # 1e514 <memcpy>
   14fee:	4509                	li	a0,2
   14ff0:	000a8023          	sb	zero,0(s5)
   14ff4:	f6a98fe3          	beq	s3,a0,14f72 <_ZN20complex_dynamic_type3app17h7590d44c197ef84fE+0xee>
   14ff8:	4585                	li	a1,1
   14ffa:	854a                	mv	a0,s2
   14ffc:	4601                	li	a2,0
   14ffe:	4681                	li	a3,0
   15000:	874e                	mv	a4,s3
   15002:	00000073          	ecall
   15006:	b7b5                	j	14f72 <_ZN20complex_dynamic_type3app17h7590d44c197ef84fE+0xee>

00015008 <_ZN20complex_dynamic_type3app17h778ed7f5694907afE>:
   15008:	7159                	addi	sp,sp,-112
   1500a:	d686                	sw	ra,108(sp)
   1500c:	d4a2                	sw	s0,104(sp)
   1500e:	d2a6                	sw	s1,100(sp)
   15010:	d0ca                	sw	s2,96(sp)
   15012:	cece                	sw	s3,92(sp)
   15014:	ccd2                	sw	s4,88(sp)
   15016:	8a2a                	mv	s4,a0
   15018:	4409                	li	s0,2
   1501a:	008106a3          	sb	s0,13(sp)
   1501e:	00e10493          	addi	s1,sp,14
   15022:	02b00613          	li	a2,43
   15026:	8526                	mv	a0,s1
   15028:	00009097          	auipc	ra,0x9
   1502c:	4ec080e7          	jalr	1260(ra) # 1e514 <memcpy>
   15030:	03a10993          	addi	s3,sp,58
   15034:	4679                	li	a2,30
   15036:	854e                	mv	a0,s3
   15038:	4581                	li	a1,0
   1503a:	00009097          	auipc	ra,0x9
   1503e:	46e080e7          	jalr	1134(ra) # 1e4a8 <memset>
   15042:	8626                	mv	a2,s1
   15044:	02810ca3          	sb	s0,57(sp)
   15048:	4791                	li	a5,4
   1504a:	7e300513          	li	a0,2019
   1504e:	459d                	li	a1,7
   15050:	02b00693          	li	a3,43
   15054:	4711                	li	a4,4
   15056:	00000073          	ecall
   1505a:	00851863          	bne	a0,s0,1506a <_ZN20complex_dynamic_type3app17h778ed7f5694907afE+0x62>
   1505e:	4505                	li	a0,1
   15060:	00aa0023          	sb	a0,0(s4)
   15064:	00ba2223          	sw	a1,4(s4)
   15068:	a0ad                	j	150d2 <_ZN20complex_dynamic_type3app17h778ed7f5694907afE+0xca>
   1506a:	864e                	mv	a2,s3
   1506c:	00f106a3          	sb	a5,13(sp)
   15070:	478d                	li	a5,3
   15072:	7e300513          	li	a0,2019
   15076:	45a1                	li	a1,8
   15078:	46f9                	li	a3,30
   1507a:	470d                	li	a4,3
   1507c:	00000073          	ecall
   15080:	00851d63          	bne	a0,s0,1509a <_ZN20complex_dynamic_type3app17h778ed7f5694907afE+0x92>
   15084:	03914703          	lbu	a4,57(sp)
   15088:	4505                	li	a0,1
   1508a:	4609                	li	a2,2
   1508c:	00aa0023          	sb	a0,0(s4)
   15090:	00ba2223          	sw	a1,4(s4)
   15094:	02c71863          	bne	a4,a2,150c4 <_ZN20complex_dynamic_type3app17h778ed7f5694907afE+0xbc>
   15098:	a82d                	j	150d2 <_ZN20complex_dynamic_type3app17h778ed7f5694907afE+0xca>
   1509a:	4681                	li	a3,0
   1509c:	02f10ca3          	sb	a5,57(sp)
   150a0:	7e300513          	li	a0,2019
   150a4:	459d                	li	a1,7
   150a6:	4621                	li	a2,8
   150a8:	4709                	li	a4,2
   150aa:	08000793          	li	a5,128
   150ae:	00000073          	ecall
   150b2:	4609                	li	a2,2
   150b4:	04f57363          	bgeu	a0,a5,150fa <_ZN20complex_dynamic_type3app17h778ed7f5694907afE+0xf2>
   150b8:	4505                	li	a0,1
   150ba:	00aa0023          	sb	a0,0(s4)
   150be:	00ba2223          	sw	a1,4(s4)
   150c2:	470d                	li	a4,3
   150c4:	7e300513          	li	a0,2019
   150c8:	45a1                	li	a1,8
   150ca:	4601                	li	a2,0
   150cc:	4681                	li	a3,0
   150ce:	00000073          	ecall
   150d2:	00d14703          	lbu	a4,13(sp)
   150d6:	4509                	li	a0,2
   150d8:	00a70963          	beq	a4,a0,150ea <_ZN20complex_dynamic_type3app17h778ed7f5694907afE+0xe2>
   150dc:	7e300513          	li	a0,2019
   150e0:	459d                	li	a1,7
   150e2:	4601                	li	a2,0
   150e4:	4681                	li	a3,0
   150e6:	00000073          	ecall
   150ea:	50b6                	lw	ra,108(sp)
   150ec:	5426                	lw	s0,104(sp)
   150ee:	5496                	lw	s1,100(sp)
   150f0:	5906                	lw	s2,96(sp)
   150f2:	49f6                	lw	s3,92(sp)
   150f4:	4a66                	lw	s4,88(sp)
   150f6:	6165                	addi	sp,sp,112
   150f8:	8082                	ret
   150fa:	00d14703          	lbu	a4,13(sp)
   150fe:	00c71463          	bne	a4,a2,15106 <_ZN20complex_dynamic_type3app17h778ed7f5694907afE+0xfe>
   15102:	470d                	li	a4,3
   15104:	a815                	j	15138 <_ZN20complex_dynamic_type3app17h778ed7f5694907afE+0x130>
   15106:	7e300513          	li	a0,2019
   1510a:	459d                	li	a1,7
   1510c:	4601                	li	a2,0
   1510e:	4681                	li	a3,0
   15110:	00000073          	ecall
   15114:	03914703          	lbu	a4,57(sp)
   15118:	4509                	li	a0,2
   1511a:	00a106a3          	sb	a0,13(sp)
   1511e:	00a71d63          	bne	a4,a0,15138 <_ZN20complex_dynamic_type3app17h778ed7f5694907afE+0x130>
   15122:	001a0513          	addi	a0,s4,1
   15126:	4679                	li	a2,30
   15128:	85ce                	mv	a1,s3
   1512a:	00009097          	auipc	ra,0x9
   1512e:	3ea080e7          	jalr	1002(ra) # 1e514 <memcpy>
   15132:	000a0023          	sb	zero,0(s4)
   15136:	bf55                	j	150ea <_ZN20complex_dynamic_type3app17h778ed7f5694907afE+0xe2>
   15138:	7e300513          	li	a0,2019
   1513c:	45a1                	li	a1,8
   1513e:	4601                	li	a2,0
   15140:	4681                	li	a3,0
   15142:	00000073          	ecall
   15146:	00d14903          	lbu	s2,13(sp)
   1514a:	001a0513          	addi	a0,s4,1
   1514e:	4679                	li	a2,30
   15150:	85ce                	mv	a1,s3
   15152:	00009097          	auipc	ra,0x9
   15156:	3c2080e7          	jalr	962(ra) # 1e514 <memcpy>
   1515a:	4509                	li	a0,2
   1515c:	000a0023          	sb	zero,0(s4)
   15160:	f8a905e3          	beq	s2,a0,150ea <_ZN20complex_dynamic_type3app17h778ed7f5694907afE+0xe2>
   15164:	7e300513          	li	a0,2019
   15168:	459d                	li	a1,7
   1516a:	4601                	li	a2,0
   1516c:	4681                	li	a3,0
   1516e:	874a                	mv	a4,s2
   15170:	00000073          	ecall
   15174:	bf9d                	j	150ea <_ZN20complex_dynamic_type3app17h778ed7f5694907afE+0xe2>

00015176 <_ZN20complex_dynamic_type3app17h79e1004b7011b048E>:
   15176:	711d                	addi	sp,sp,-96
   15178:	ce86                	sw	ra,92(sp)
   1517a:	cca2                	sw	s0,88(sp)
   1517c:	caa6                	sw	s1,84(sp)
   1517e:	c8ca                	sw	s2,80(sp)
   15180:	c6ce                	sw	s3,76(sp)
   15182:	c4d2                	sw	s4,72(sp)
   15184:	c2d6                	sw	s5,68(sp)
   15186:	8aaa                	mv	s5,a0
   15188:	4409                	li	s0,2
   1518a:	008101a3          	sb	s0,3(sp)
   1518e:	0044                	addi	s1,sp,4
   15190:	4651                	li	a2,20
   15192:	8526                	mv	a0,s1
   15194:	00009097          	auipc	ra,0x9
   15198:	380080e7          	jalr	896(ra) # 1e514 <memcpy>
   1519c:	01910a13          	addi	s4,sp,25
   151a0:	02b00613          	li	a2,43
   151a4:	8552                	mv	a0,s4
   151a6:	4581                	li	a1,0
   151a8:	00009097          	auipc	ra,0x9
   151ac:	300080e7          	jalr	768(ra) # 1e4a8 <memset>
   151b0:	8626                	mv	a2,s1
   151b2:	00810c23          	sb	s0,24(sp)
   151b6:	6509                	lui	a0,0x2
   151b8:	4491                	li	s1,4
   151ba:	45a1                	li	a1,8
   151bc:	39f50793          	addi	a5,a0,927 # 239f <.Lline_table_start1+0x2174>
   151c0:	46d1                	li	a3,20
   151c2:	4711                	li	a4,4
   151c4:	853e                	mv	a0,a5
   151c6:	00000073          	ecall
   151ca:	00851863          	bne	a0,s0,151da <_ZN20complex_dynamic_type3app17h79e1004b7011b048E+0x64>
   151ce:	4505                	li	a0,1
   151d0:	00aa8023          	sb	a0,0(s5)
   151d4:	00baa223          	sw	a1,4(s5)
   151d8:	a0bd                	j	15246 <_ZN20complex_dynamic_type3app17h79e1004b7011b048E+0xd0>
   151da:	853e                	mv	a0,a5
   151dc:	8652                	mv	a2,s4
   151de:	009101a3          	sb	s1,3(sp)
   151e2:	478d                	li	a5,3
   151e4:	4591                	li	a1,4
   151e6:	02b00693          	li	a3,43
   151ea:	470d                	li	a4,3
   151ec:	00000073          	ecall
   151f0:	00851d63          	bne	a0,s0,1520a <_ZN20complex_dynamic_type3app17h79e1004b7011b048E+0x94>
   151f4:	01814703          	lbu	a4,24(sp)
   151f8:	4505                	li	a0,1
   151fa:	4609                	li	a2,2
   151fc:	00aa8023          	sb	a0,0(s5)
   15200:	00baa223          	sw	a1,4(s5)
   15204:	02c71963          	bne	a4,a2,15236 <_ZN20complex_dynamic_type3app17h79e1004b7011b048E+0xc0>
   15208:	a83d                	j	15246 <_ZN20complex_dynamic_type3app17h79e1004b7011b048E+0xd0>
   1520a:	4681                	li	a3,0
   1520c:	00f10c23          	sb	a5,24(sp)
   15210:	6509                	lui	a0,0x2
   15212:	45a1                	li	a1,8
   15214:	4611                	li	a2,4
   15216:	4709                	li	a4,2
   15218:	39f50513          	addi	a0,a0,927 # 239f <.Lline_table_start1+0x2174>
   1521c:	08000793          	li	a5,128
   15220:	00000073          	ecall
   15224:	4609                	li	a2,2
   15226:	04f57663          	bgeu	a0,a5,15272 <_ZN20complex_dynamic_type3app17h79e1004b7011b048E+0xfc>
   1522a:	4505                	li	a0,1
   1522c:	00aa8023          	sb	a0,0(s5)
   15230:	00baa223          	sw	a1,4(s5)
   15234:	470d                	li	a4,3
   15236:	6509                	lui	a0,0x2
   15238:	39f50513          	addi	a0,a0,927 # 239f <.Lline_table_start1+0x2174>
   1523c:	4591                	li	a1,4
   1523e:	4601                	li	a2,0
   15240:	4681                	li	a3,0
   15242:	00000073          	ecall
   15246:	00314703          	lbu	a4,3(sp)
   1524a:	4509                	li	a0,2
   1524c:	00a70a63          	beq	a4,a0,15260 <_ZN20complex_dynamic_type3app17h79e1004b7011b048E+0xea>
   15250:	6509                	lui	a0,0x2
   15252:	39f50513          	addi	a0,a0,927 # 239f <.Lline_table_start1+0x2174>
   15256:	45a1                	li	a1,8
   15258:	4601                	li	a2,0
   1525a:	4681                	li	a3,0
   1525c:	00000073          	ecall
   15260:	40f6                	lw	ra,92(sp)
   15262:	4466                	lw	s0,88(sp)
   15264:	44d6                	lw	s1,84(sp)
   15266:	4946                	lw	s2,80(sp)
   15268:	49b6                	lw	s3,76(sp)
   1526a:	4a26                	lw	s4,72(sp)
   1526c:	4a96                	lw	s5,68(sp)
   1526e:	6125                	addi	sp,sp,96
   15270:	8082                	ret
   15272:	00314703          	lbu	a4,3(sp)
   15276:	00c71463          	bne	a4,a2,1527e <_ZN20complex_dynamic_type3app17h79e1004b7011b048E+0x108>
   1527a:	470d                	li	a4,3
   1527c:	a825                	j	152b4 <_ZN20complex_dynamic_type3app17h79e1004b7011b048E+0x13e>
   1527e:	6509                	lui	a0,0x2
   15280:	39f50513          	addi	a0,a0,927 # 239f <.Lline_table_start1+0x2174>
   15284:	45a1                	li	a1,8
   15286:	4601                	li	a2,0
   15288:	4681                	li	a3,0
   1528a:	00000073          	ecall
   1528e:	01814703          	lbu	a4,24(sp)
   15292:	4509                	li	a0,2
   15294:	00a101a3          	sb	a0,3(sp)
   15298:	00a71e63          	bne	a4,a0,152b4 <_ZN20complex_dynamic_type3app17h79e1004b7011b048E+0x13e>
   1529c:	001a8513          	addi	a0,s5,1
   152a0:	02b00613          	li	a2,43
   152a4:	85d2                	mv	a1,s4
   152a6:	00009097          	auipc	ra,0x9
   152aa:	26e080e7          	jalr	622(ra) # 1e514 <memcpy>
   152ae:	000a8023          	sb	zero,0(s5)
   152b2:	b77d                	j	15260 <_ZN20complex_dynamic_type3app17h79e1004b7011b048E+0xea>
   152b4:	6509                	lui	a0,0x2
   152b6:	39f50913          	addi	s2,a0,927 # 239f <.Lline_table_start1+0x2174>
   152ba:	4591                	li	a1,4
   152bc:	854a                	mv	a0,s2
   152be:	4601                	li	a2,0
   152c0:	4681                	li	a3,0
   152c2:	00000073          	ecall
   152c6:	00314983          	lbu	s3,3(sp)
   152ca:	001a8513          	addi	a0,s5,1
   152ce:	02b00613          	li	a2,43
   152d2:	85d2                	mv	a1,s4
   152d4:	00009097          	auipc	ra,0x9
   152d8:	240080e7          	jalr	576(ra) # 1e514 <memcpy>
   152dc:	4509                	li	a0,2
   152de:	000a8023          	sb	zero,0(s5)
   152e2:	f6a98fe3          	beq	s3,a0,15260 <_ZN20complex_dynamic_type3app17h79e1004b7011b048E+0xea>
   152e6:	45a1                	li	a1,8
   152e8:	854a                	mv	a0,s2
   152ea:	4601                	li	a2,0
   152ec:	4681                	li	a3,0
   152ee:	874e                	mv	a4,s3
   152f0:	00000073          	ecall
   152f4:	b7b5                	j	15260 <_ZN20complex_dynamic_type3app17h79e1004b7011b048E+0xea>

000152f6 <_ZN20complex_dynamic_type3app17h7dff995c84bc234bE>:
   152f6:	7115                	addi	sp,sp,-224
   152f8:	cf86                	sw	ra,220(sp)
   152fa:	cda2                	sw	s0,216(sp)
   152fc:	cba6                	sw	s1,212(sp)
   152fe:	c9ca                	sw	s2,208(sp)
   15300:	c7ce                	sw	s3,204(sp)
   15302:	c5d2                	sw	s4,200(sp)
   15304:	c3d6                	sw	s5,196(sp)
   15306:	8aaa                	mv	s5,a0
   15308:	4409                	li	s0,2
   1530a:	008107a3          	sb	s0,15(sp)
   1530e:	0804                	addi	s1,sp,16
   15310:	05e00613          	li	a2,94
   15314:	8526                	mv	a0,s1
   15316:	00009097          	auipc	ra,0x9
   1531a:	1fe080e7          	jalr	510(ra) # 1e514 <memcpy>
   1531e:	06f10a13          	addi	s4,sp,111
   15322:	05500613          	li	a2,85
   15326:	8552                	mv	a0,s4
   15328:	4581                	li	a1,0
   1532a:	00009097          	auipc	ra,0x9
   1532e:	17e080e7          	jalr	382(ra) # 1e4a8 <memset>
   15332:	8626                	mv	a2,s1
   15334:	06810723          	sb	s0,110(sp)
   15338:	6505                	lui	a0,0x1
   1533a:	4491                	li	s1,4
   1533c:	459d                	li	a1,7
   1533e:	78a50793          	addi	a5,a0,1930 # 178a <.Lline_table_start1+0x155f>
   15342:	05e00693          	li	a3,94
   15346:	4711                	li	a4,4
   15348:	853e                	mv	a0,a5
   1534a:	00000073          	ecall
   1534e:	00851863          	bne	a0,s0,1535e <_ZN20complex_dynamic_type3app17h7dff995c84bc234bE+0x68>
   15352:	4505                	li	a0,1
   15354:	00aa8023          	sb	a0,0(s5)
   15358:	00baa223          	sw	a1,4(s5)
   1535c:	a0bd                	j	153ca <_ZN20complex_dynamic_type3app17h7dff995c84bc234bE+0xd4>
   1535e:	853e                	mv	a0,a5
   15360:	8652                	mv	a2,s4
   15362:	009107a3          	sb	s1,15(sp)
   15366:	478d                	li	a5,3
   15368:	458d                	li	a1,3
   1536a:	05500693          	li	a3,85
   1536e:	470d                	li	a4,3
   15370:	00000073          	ecall
   15374:	00851d63          	bne	a0,s0,1538e <_ZN20complex_dynamic_type3app17h7dff995c84bc234bE+0x98>
   15378:	06e14703          	lbu	a4,110(sp)
   1537c:	4505                	li	a0,1
   1537e:	4609                	li	a2,2
   15380:	00aa8023          	sb	a0,0(s5)
   15384:	00baa223          	sw	a1,4(s5)
   15388:	02c71963          	bne	a4,a2,153ba <_ZN20complex_dynamic_type3app17h7dff995c84bc234bE+0xc4>
   1538c:	a83d                	j	153ca <_ZN20complex_dynamic_type3app17h7dff995c84bc234bE+0xd4>
   1538e:	4681                	li	a3,0
   15390:	06f10723          	sb	a5,110(sp)
   15394:	6505                	lui	a0,0x1
   15396:	459d                	li	a1,7
   15398:	460d                	li	a2,3
   1539a:	4709                	li	a4,2
   1539c:	78a50513          	addi	a0,a0,1930 # 178a <.Lline_table_start1+0x155f>
   153a0:	08000793          	li	a5,128
   153a4:	00000073          	ecall
   153a8:	4609                	li	a2,2
   153aa:	04f57663          	bgeu	a0,a5,153f6 <_ZN20complex_dynamic_type3app17h7dff995c84bc234bE+0x100>
   153ae:	4505                	li	a0,1
   153b0:	00aa8023          	sb	a0,0(s5)
   153b4:	00baa223          	sw	a1,4(s5)
   153b8:	470d                	li	a4,3
   153ba:	6505                	lui	a0,0x1
   153bc:	78a50513          	addi	a0,a0,1930 # 178a <.Lline_table_start1+0x155f>
   153c0:	458d                	li	a1,3
   153c2:	4601                	li	a2,0
   153c4:	4681                	li	a3,0
   153c6:	00000073          	ecall
   153ca:	00f14703          	lbu	a4,15(sp)
   153ce:	4509                	li	a0,2
   153d0:	00a70a63          	beq	a4,a0,153e4 <_ZN20complex_dynamic_type3app17h7dff995c84bc234bE+0xee>
   153d4:	6505                	lui	a0,0x1
   153d6:	78a50513          	addi	a0,a0,1930 # 178a <.Lline_table_start1+0x155f>
   153da:	459d                	li	a1,7
   153dc:	4601                	li	a2,0
   153de:	4681                	li	a3,0
   153e0:	00000073          	ecall
   153e4:	40fe                	lw	ra,220(sp)
   153e6:	446e                	lw	s0,216(sp)
   153e8:	44de                	lw	s1,212(sp)
   153ea:	494e                	lw	s2,208(sp)
   153ec:	49be                	lw	s3,204(sp)
   153ee:	4a2e                	lw	s4,200(sp)
   153f0:	4a9e                	lw	s5,196(sp)
   153f2:	612d                	addi	sp,sp,224
   153f4:	8082                	ret
   153f6:	00f14703          	lbu	a4,15(sp)
   153fa:	00c71463          	bne	a4,a2,15402 <_ZN20complex_dynamic_type3app17h7dff995c84bc234bE+0x10c>
   153fe:	470d                	li	a4,3
   15400:	a825                	j	15438 <_ZN20complex_dynamic_type3app17h7dff995c84bc234bE+0x142>
   15402:	6505                	lui	a0,0x1
   15404:	78a50513          	addi	a0,a0,1930 # 178a <.Lline_table_start1+0x155f>
   15408:	459d                	li	a1,7
   1540a:	4601                	li	a2,0
   1540c:	4681                	li	a3,0
   1540e:	00000073          	ecall
   15412:	06e14703          	lbu	a4,110(sp)
   15416:	4509                	li	a0,2
   15418:	00a107a3          	sb	a0,15(sp)
   1541c:	00a71e63          	bne	a4,a0,15438 <_ZN20complex_dynamic_type3app17h7dff995c84bc234bE+0x142>
   15420:	001a8513          	addi	a0,s5,1
   15424:	05500613          	li	a2,85
   15428:	85d2                	mv	a1,s4
   1542a:	00009097          	auipc	ra,0x9
   1542e:	0ea080e7          	jalr	234(ra) # 1e514 <memcpy>
   15432:	000a8023          	sb	zero,0(s5)
   15436:	b77d                	j	153e4 <_ZN20complex_dynamic_type3app17h7dff995c84bc234bE+0xee>
   15438:	6505                	lui	a0,0x1
   1543a:	78a50913          	addi	s2,a0,1930 # 178a <.Lline_table_start1+0x155f>
   1543e:	458d                	li	a1,3
   15440:	854a                	mv	a0,s2
   15442:	4601                	li	a2,0
   15444:	4681                	li	a3,0
   15446:	00000073          	ecall
   1544a:	00f14983          	lbu	s3,15(sp)
   1544e:	001a8513          	addi	a0,s5,1
   15452:	05500613          	li	a2,85
   15456:	85d2                	mv	a1,s4
   15458:	00009097          	auipc	ra,0x9
   1545c:	0bc080e7          	jalr	188(ra) # 1e514 <memcpy>
   15460:	4509                	li	a0,2
   15462:	000a8023          	sb	zero,0(s5)
   15466:	f6a98fe3          	beq	s3,a0,153e4 <_ZN20complex_dynamic_type3app17h7dff995c84bc234bE+0xee>
   1546a:	459d                	li	a1,7
   1546c:	854a                	mv	a0,s2
   1546e:	4601                	li	a2,0
   15470:	4681                	li	a3,0
   15472:	874e                	mv	a4,s3
   15474:	00000073          	ecall
   15478:	b7b5                	j	153e4 <_ZN20complex_dynamic_type3app17h7dff995c84bc234bE+0xee>

0001547a <_ZN20complex_dynamic_type3app17h7ea4ffb1f9200b32E>:
   1547a:	7135                	addi	sp,sp,-160
   1547c:	cf06                	sw	ra,156(sp)
   1547e:	cd22                	sw	s0,152(sp)
   15480:	cb26                	sw	s1,148(sp)
   15482:	c94a                	sw	s2,144(sp)
   15484:	c74e                	sw	s3,140(sp)
   15486:	c552                	sw	s4,136(sp)
   15488:	8a2a                	mv	s4,a0
   1548a:	4409                	li	s0,2
   1548c:	008103a3          	sb	s0,7(sp)
   15490:	0024                	addi	s1,sp,8
   15492:	06100613          	li	a2,97
   15496:	8526                	mv	a0,s1
   15498:	00009097          	auipc	ra,0x9
   1549c:	07c080e7          	jalr	124(ra) # 1e514 <memcpy>
   154a0:	06a10993          	addi	s3,sp,106
   154a4:	4679                	li	a2,30
   154a6:	854e                	mv	a0,s3
   154a8:	4581                	li	a1,0
   154aa:	00009097          	auipc	ra,0x9
   154ae:	ffe080e7          	jalr	-2(ra) # 1e4a8 <memset>
   154b2:	8626                	mv	a2,s1
   154b4:	068104a3          	sb	s0,105(sp)
   154b8:	4791                	li	a5,4
   154ba:	18800513          	li	a0,392
   154be:	4591                	li	a1,4
   154c0:	06100693          	li	a3,97
   154c4:	4711                	li	a4,4
   154c6:	00000073          	ecall
   154ca:	00851863          	bne	a0,s0,154da <_ZN20complex_dynamic_type3app17h7ea4ffb1f9200b32E+0x60>
   154ce:	4505                	li	a0,1
   154d0:	00aa0023          	sb	a0,0(s4)
   154d4:	00ba2223          	sw	a1,4(s4)
   154d8:	a0ad                	j	15542 <_ZN20complex_dynamic_type3app17h7ea4ffb1f9200b32E+0xc8>
   154da:	864e                	mv	a2,s3
   154dc:	00f103a3          	sb	a5,7(sp)
   154e0:	478d                	li	a5,3
   154e2:	18800513          	li	a0,392
   154e6:	4599                	li	a1,6
   154e8:	46f9                	li	a3,30
   154ea:	470d                	li	a4,3
   154ec:	00000073          	ecall
   154f0:	00851d63          	bne	a0,s0,1550a <_ZN20complex_dynamic_type3app17h7ea4ffb1f9200b32E+0x90>
   154f4:	06914703          	lbu	a4,105(sp)
   154f8:	4505                	li	a0,1
   154fa:	4609                	li	a2,2
   154fc:	00aa0023          	sb	a0,0(s4)
   15500:	00ba2223          	sw	a1,4(s4)
   15504:	02c71863          	bne	a4,a2,15534 <_ZN20complex_dynamic_type3app17h7ea4ffb1f9200b32E+0xba>
   15508:	a82d                	j	15542 <_ZN20complex_dynamic_type3app17h7ea4ffb1f9200b32E+0xc8>
   1550a:	4681                	li	a3,0
   1550c:	06f104a3          	sb	a5,105(sp)
   15510:	18800513          	li	a0,392
   15514:	4591                	li	a1,4
   15516:	4619                	li	a2,6
   15518:	4709                	li	a4,2
   1551a:	08000793          	li	a5,128
   1551e:	00000073          	ecall
   15522:	4609                	li	a2,2
   15524:	04f57363          	bgeu	a0,a5,1556a <_ZN20complex_dynamic_type3app17h7ea4ffb1f9200b32E+0xf0>
   15528:	4505                	li	a0,1
   1552a:	00aa0023          	sb	a0,0(s4)
   1552e:	00ba2223          	sw	a1,4(s4)
   15532:	470d                	li	a4,3
   15534:	18800513          	li	a0,392
   15538:	4599                	li	a1,6
   1553a:	4601                	li	a2,0
   1553c:	4681                	li	a3,0
   1553e:	00000073          	ecall
   15542:	00714703          	lbu	a4,7(sp)
   15546:	4509                	li	a0,2
   15548:	00a70963          	beq	a4,a0,1555a <_ZN20complex_dynamic_type3app17h7ea4ffb1f9200b32E+0xe0>
   1554c:	18800513          	li	a0,392
   15550:	4591                	li	a1,4
   15552:	4601                	li	a2,0
   15554:	4681                	li	a3,0
   15556:	00000073          	ecall
   1555a:	40fa                	lw	ra,156(sp)
   1555c:	446a                	lw	s0,152(sp)
   1555e:	44da                	lw	s1,148(sp)
   15560:	494a                	lw	s2,144(sp)
   15562:	49ba                	lw	s3,140(sp)
   15564:	4a2a                	lw	s4,136(sp)
   15566:	610d                	addi	sp,sp,160
   15568:	8082                	ret
   1556a:	00714703          	lbu	a4,7(sp)
   1556e:	00c71463          	bne	a4,a2,15576 <_ZN20complex_dynamic_type3app17h7ea4ffb1f9200b32E+0xfc>
   15572:	470d                	li	a4,3
   15574:	a815                	j	155a8 <_ZN20complex_dynamic_type3app17h7ea4ffb1f9200b32E+0x12e>
   15576:	18800513          	li	a0,392
   1557a:	4591                	li	a1,4
   1557c:	4601                	li	a2,0
   1557e:	4681                	li	a3,0
   15580:	00000073          	ecall
   15584:	06914703          	lbu	a4,105(sp)
   15588:	4509                	li	a0,2
   1558a:	00a103a3          	sb	a0,7(sp)
   1558e:	00a71d63          	bne	a4,a0,155a8 <_ZN20complex_dynamic_type3app17h7ea4ffb1f9200b32E+0x12e>
   15592:	001a0513          	addi	a0,s4,1
   15596:	4679                	li	a2,30
   15598:	85ce                	mv	a1,s3
   1559a:	00009097          	auipc	ra,0x9
   1559e:	f7a080e7          	jalr	-134(ra) # 1e514 <memcpy>
   155a2:	000a0023          	sb	zero,0(s4)
   155a6:	bf55                	j	1555a <_ZN20complex_dynamic_type3app17h7ea4ffb1f9200b32E+0xe0>
   155a8:	18800513          	li	a0,392
   155ac:	4599                	li	a1,6
   155ae:	4601                	li	a2,0
   155b0:	4681                	li	a3,0
   155b2:	00000073          	ecall
   155b6:	00714903          	lbu	s2,7(sp)
   155ba:	001a0513          	addi	a0,s4,1
   155be:	4679                	li	a2,30
   155c0:	85ce                	mv	a1,s3
   155c2:	00009097          	auipc	ra,0x9
   155c6:	f52080e7          	jalr	-174(ra) # 1e514 <memcpy>
   155ca:	4509                	li	a0,2
   155cc:	000a0023          	sb	zero,0(s4)
   155d0:	f8a905e3          	beq	s2,a0,1555a <_ZN20complex_dynamic_type3app17h7ea4ffb1f9200b32E+0xe0>
   155d4:	18800513          	li	a0,392
   155d8:	4591                	li	a1,4
   155da:	4601                	li	a2,0
   155dc:	4681                	li	a3,0
   155de:	874a                	mv	a4,s2
   155e0:	00000073          	ecall
   155e4:	bf9d                	j	1555a <_ZN20complex_dynamic_type3app17h7ea4ffb1f9200b32E+0xe0>

000155e6 <_ZN20complex_dynamic_type3app17h819fd079c6e09b15E>:
   155e6:	7159                	addi	sp,sp,-112
   155e8:	d686                	sw	ra,108(sp)
   155ea:	d4a2                	sw	s0,104(sp)
   155ec:	d2a6                	sw	s1,100(sp)
   155ee:	d0ca                	sw	s2,96(sp)
   155f0:	cece                	sw	s3,92(sp)
   155f2:	ccd2                	sw	s4,88(sp)
   155f4:	cad6                	sw	s5,84(sp)
   155f6:	8aaa                	mv	s5,a0
   155f8:	4409                	li	s0,2
   155fa:	00810123          	sb	s0,2(sp)
   155fe:	00310493          	addi	s1,sp,3
   15602:	4645                	li	a2,17
   15604:	8526                	mv	a0,s1
   15606:	00009097          	auipc	ra,0x9
   1560a:	f0e080e7          	jalr	-242(ra) # 1e514 <memcpy>
   1560e:	01510a13          	addi	s4,sp,21
   15612:	03f00613          	li	a2,63
   15616:	8552                	mv	a0,s4
   15618:	4581                	li	a1,0
   1561a:	00009097          	auipc	ra,0x9
   1561e:	e8e080e7          	jalr	-370(ra) # 1e4a8 <memset>
   15622:	8626                	mv	a2,s1
   15624:	00810a23          	sb	s0,20(sp)
   15628:	6505                	lui	a0,0x1
   1562a:	4491                	li	s1,4
   1562c:	459d                	li	a1,7
   1562e:	cb050793          	addi	a5,a0,-848 # cb0 <.Lline_table_start1+0xa85>
   15632:	46c5                	li	a3,17
   15634:	4711                	li	a4,4
   15636:	853e                	mv	a0,a5
   15638:	00000073          	ecall
   1563c:	00851863          	bne	a0,s0,1564c <_ZN20complex_dynamic_type3app17h819fd079c6e09b15E+0x66>
   15640:	4505                	li	a0,1
   15642:	00aa8023          	sb	a0,0(s5)
   15646:	00baa223          	sw	a1,4(s5)
   1564a:	a0bd                	j	156b8 <_ZN20complex_dynamic_type3app17h819fd079c6e09b15E+0xd2>
   1564c:	853e                	mv	a0,a5
   1564e:	8652                	mv	a2,s4
   15650:	00910123          	sb	s1,2(sp)
   15654:	478d                	li	a5,3
   15656:	4591                	li	a1,4
   15658:	03f00693          	li	a3,63
   1565c:	470d                	li	a4,3
   1565e:	00000073          	ecall
   15662:	00851d63          	bne	a0,s0,1567c <_ZN20complex_dynamic_type3app17h819fd079c6e09b15E+0x96>
   15666:	01414703          	lbu	a4,20(sp)
   1566a:	4505                	li	a0,1
   1566c:	4609                	li	a2,2
   1566e:	00aa8023          	sb	a0,0(s5)
   15672:	00baa223          	sw	a1,4(s5)
   15676:	02c71963          	bne	a4,a2,156a8 <_ZN20complex_dynamic_type3app17h819fd079c6e09b15E+0xc2>
   1567a:	a83d                	j	156b8 <_ZN20complex_dynamic_type3app17h819fd079c6e09b15E+0xd2>
   1567c:	4681                	li	a3,0
   1567e:	00f10a23          	sb	a5,20(sp)
   15682:	6505                	lui	a0,0x1
   15684:	459d                	li	a1,7
   15686:	4611                	li	a2,4
   15688:	4709                	li	a4,2
   1568a:	cb050513          	addi	a0,a0,-848 # cb0 <.Lline_table_start1+0xa85>
   1568e:	08000793          	li	a5,128
   15692:	00000073          	ecall
   15696:	4609                	li	a2,2
   15698:	04f57663          	bgeu	a0,a5,156e4 <_ZN20complex_dynamic_type3app17h819fd079c6e09b15E+0xfe>
   1569c:	4505                	li	a0,1
   1569e:	00aa8023          	sb	a0,0(s5)
   156a2:	00baa223          	sw	a1,4(s5)
   156a6:	470d                	li	a4,3
   156a8:	6505                	lui	a0,0x1
   156aa:	cb050513          	addi	a0,a0,-848 # cb0 <.Lline_table_start1+0xa85>
   156ae:	4591                	li	a1,4
   156b0:	4601                	li	a2,0
   156b2:	4681                	li	a3,0
   156b4:	00000073          	ecall
   156b8:	00214703          	lbu	a4,2(sp)
   156bc:	4509                	li	a0,2
   156be:	00a70a63          	beq	a4,a0,156d2 <_ZN20complex_dynamic_type3app17h819fd079c6e09b15E+0xec>
   156c2:	6505                	lui	a0,0x1
   156c4:	cb050513          	addi	a0,a0,-848 # cb0 <.Lline_table_start1+0xa85>
   156c8:	459d                	li	a1,7
   156ca:	4601                	li	a2,0
   156cc:	4681                	li	a3,0
   156ce:	00000073          	ecall
   156d2:	50b6                	lw	ra,108(sp)
   156d4:	5426                	lw	s0,104(sp)
   156d6:	5496                	lw	s1,100(sp)
   156d8:	5906                	lw	s2,96(sp)
   156da:	49f6                	lw	s3,92(sp)
   156dc:	4a66                	lw	s4,88(sp)
   156de:	4ad6                	lw	s5,84(sp)
   156e0:	6165                	addi	sp,sp,112
   156e2:	8082                	ret
   156e4:	00214703          	lbu	a4,2(sp)
   156e8:	00c71463          	bne	a4,a2,156f0 <_ZN20complex_dynamic_type3app17h819fd079c6e09b15E+0x10a>
   156ec:	470d                	li	a4,3
   156ee:	a825                	j	15726 <_ZN20complex_dynamic_type3app17h819fd079c6e09b15E+0x140>
   156f0:	6505                	lui	a0,0x1
   156f2:	cb050513          	addi	a0,a0,-848 # cb0 <.Lline_table_start1+0xa85>
   156f6:	459d                	li	a1,7
   156f8:	4601                	li	a2,0
   156fa:	4681                	li	a3,0
   156fc:	00000073          	ecall
   15700:	01414703          	lbu	a4,20(sp)
   15704:	4509                	li	a0,2
   15706:	00a10123          	sb	a0,2(sp)
   1570a:	00a71e63          	bne	a4,a0,15726 <_ZN20complex_dynamic_type3app17h819fd079c6e09b15E+0x140>
   1570e:	001a8513          	addi	a0,s5,1
   15712:	03f00613          	li	a2,63
   15716:	85d2                	mv	a1,s4
   15718:	00009097          	auipc	ra,0x9
   1571c:	dfc080e7          	jalr	-516(ra) # 1e514 <memcpy>
   15720:	000a8023          	sb	zero,0(s5)
   15724:	b77d                	j	156d2 <_ZN20complex_dynamic_type3app17h819fd079c6e09b15E+0xec>
   15726:	6505                	lui	a0,0x1
   15728:	cb050913          	addi	s2,a0,-848 # cb0 <.Lline_table_start1+0xa85>
   1572c:	4591                	li	a1,4
   1572e:	854a                	mv	a0,s2
   15730:	4601                	li	a2,0
   15732:	4681                	li	a3,0
   15734:	00000073          	ecall
   15738:	00214983          	lbu	s3,2(sp)
   1573c:	001a8513          	addi	a0,s5,1
   15740:	03f00613          	li	a2,63
   15744:	85d2                	mv	a1,s4
   15746:	00009097          	auipc	ra,0x9
   1574a:	dce080e7          	jalr	-562(ra) # 1e514 <memcpy>
   1574e:	4509                	li	a0,2
   15750:	000a8023          	sb	zero,0(s5)
   15754:	f6a98fe3          	beq	s3,a0,156d2 <_ZN20complex_dynamic_type3app17h819fd079c6e09b15E+0xec>
   15758:	459d                	li	a1,7
   1575a:	854a                	mv	a0,s2
   1575c:	4601                	li	a2,0
   1575e:	4681                	li	a3,0
   15760:	874e                	mv	a4,s3
   15762:	00000073          	ecall
   15766:	b7b5                	j	156d2 <_ZN20complex_dynamic_type3app17h819fd079c6e09b15E+0xec>

00015768 <_ZN20complex_dynamic_type3app17h84556c3901432e43E>:
   15768:	7119                	addi	sp,sp,-128
   1576a:	de86                	sw	ra,124(sp)
   1576c:	dca2                	sw	s0,120(sp)
   1576e:	daa6                	sw	s1,116(sp)
   15770:	d8ca                	sw	s2,112(sp)
   15772:	d6ce                	sw	s3,108(sp)
   15774:	d4d2                	sw	s4,104(sp)
   15776:	d2d6                	sw	s5,100(sp)
   15778:	8aaa                	mv	s5,a0
   1577a:	4409                	li	s0,2
   1577c:	008107a3          	sb	s0,15(sp)
   15780:	0804                	addi	s1,sp,16
   15782:	02c00613          	li	a2,44
   15786:	8526                	mv	a0,s1
   15788:	00009097          	auipc	ra,0x9
   1578c:	d8c080e7          	jalr	-628(ra) # 1e514 <memcpy>
   15790:	03d10a13          	addi	s4,sp,61
   15794:	02700613          	li	a2,39
   15798:	8552                	mv	a0,s4
   1579a:	4581                	li	a1,0
   1579c:	00009097          	auipc	ra,0x9
   157a0:	d0c080e7          	jalr	-756(ra) # 1e4a8 <memset>
   157a4:	8626                	mv	a2,s1
   157a6:	02810e23          	sb	s0,60(sp)
   157aa:	6505                	lui	a0,0x1
   157ac:	4491                	li	s1,4
   157ae:	4591                	li	a1,4
   157b0:	1b550793          	addi	a5,a0,437 # 11b5 <.Lline_table_start1+0xf8a>
   157b4:	02c00693          	li	a3,44
   157b8:	4711                	li	a4,4
   157ba:	853e                	mv	a0,a5
   157bc:	00000073          	ecall
   157c0:	00851863          	bne	a0,s0,157d0 <_ZN20complex_dynamic_type3app17h84556c3901432e43E+0x68>
   157c4:	4505                	li	a0,1
   157c6:	00aa8023          	sb	a0,0(s5)
   157ca:	00baa223          	sw	a1,4(s5)
   157ce:	a0bd                	j	1583c <_ZN20complex_dynamic_type3app17h84556c3901432e43E+0xd4>
   157d0:	853e                	mv	a0,a5
   157d2:	8652                	mv	a2,s4
   157d4:	009107a3          	sb	s1,15(sp)
   157d8:	478d                	li	a5,3
   157da:	458d                	li	a1,3
   157dc:	02700693          	li	a3,39
   157e0:	470d                	li	a4,3
   157e2:	00000073          	ecall
   157e6:	00851d63          	bne	a0,s0,15800 <_ZN20complex_dynamic_type3app17h84556c3901432e43E+0x98>
   157ea:	03c14703          	lbu	a4,60(sp)
   157ee:	4505                	li	a0,1
   157f0:	4609                	li	a2,2
   157f2:	00aa8023          	sb	a0,0(s5)
   157f6:	00baa223          	sw	a1,4(s5)
   157fa:	02c71963          	bne	a4,a2,1582c <_ZN20complex_dynamic_type3app17h84556c3901432e43E+0xc4>
   157fe:	a83d                	j	1583c <_ZN20complex_dynamic_type3app17h84556c3901432e43E+0xd4>
   15800:	4681                	li	a3,0
   15802:	02f10e23          	sb	a5,60(sp)
   15806:	6505                	lui	a0,0x1
   15808:	4591                	li	a1,4
   1580a:	460d                	li	a2,3
   1580c:	4709                	li	a4,2
   1580e:	1b550513          	addi	a0,a0,437 # 11b5 <.Lline_table_start1+0xf8a>
   15812:	08000793          	li	a5,128
   15816:	00000073          	ecall
   1581a:	4609                	li	a2,2
   1581c:	04f57663          	bgeu	a0,a5,15868 <_ZN20complex_dynamic_type3app17h84556c3901432e43E+0x100>
   15820:	4505                	li	a0,1
   15822:	00aa8023          	sb	a0,0(s5)
   15826:	00baa223          	sw	a1,4(s5)
   1582a:	470d                	li	a4,3
   1582c:	6505                	lui	a0,0x1
   1582e:	1b550513          	addi	a0,a0,437 # 11b5 <.Lline_table_start1+0xf8a>
   15832:	458d                	li	a1,3
   15834:	4601                	li	a2,0
   15836:	4681                	li	a3,0
   15838:	00000073          	ecall
   1583c:	00f14703          	lbu	a4,15(sp)
   15840:	4509                	li	a0,2
   15842:	00a70a63          	beq	a4,a0,15856 <_ZN20complex_dynamic_type3app17h84556c3901432e43E+0xee>
   15846:	6505                	lui	a0,0x1
   15848:	1b550513          	addi	a0,a0,437 # 11b5 <.Lline_table_start1+0xf8a>
   1584c:	4591                	li	a1,4
   1584e:	4601                	li	a2,0
   15850:	4681                	li	a3,0
   15852:	00000073          	ecall
   15856:	50f6                	lw	ra,124(sp)
   15858:	5466                	lw	s0,120(sp)
   1585a:	54d6                	lw	s1,116(sp)
   1585c:	5946                	lw	s2,112(sp)
   1585e:	59b6                	lw	s3,108(sp)
   15860:	5a26                	lw	s4,104(sp)
   15862:	5a96                	lw	s5,100(sp)
   15864:	6109                	addi	sp,sp,128
   15866:	8082                	ret
   15868:	00f14703          	lbu	a4,15(sp)
   1586c:	00c71463          	bne	a4,a2,15874 <_ZN20complex_dynamic_type3app17h84556c3901432e43E+0x10c>
   15870:	470d                	li	a4,3
   15872:	a825                	j	158aa <_ZN20complex_dynamic_type3app17h84556c3901432e43E+0x142>
   15874:	6505                	lui	a0,0x1
   15876:	1b550513          	addi	a0,a0,437 # 11b5 <.Lline_table_start1+0xf8a>
   1587a:	4591                	li	a1,4
   1587c:	4601                	li	a2,0
   1587e:	4681                	li	a3,0
   15880:	00000073          	ecall
   15884:	03c14703          	lbu	a4,60(sp)
   15888:	4509                	li	a0,2
   1588a:	00a107a3          	sb	a0,15(sp)
   1588e:	00a71e63          	bne	a4,a0,158aa <_ZN20complex_dynamic_type3app17h84556c3901432e43E+0x142>
   15892:	001a8513          	addi	a0,s5,1
   15896:	02700613          	li	a2,39
   1589a:	85d2                	mv	a1,s4
   1589c:	00009097          	auipc	ra,0x9
   158a0:	c78080e7          	jalr	-904(ra) # 1e514 <memcpy>
   158a4:	000a8023          	sb	zero,0(s5)
   158a8:	b77d                	j	15856 <_ZN20complex_dynamic_type3app17h84556c3901432e43E+0xee>
   158aa:	6505                	lui	a0,0x1
   158ac:	1b550913          	addi	s2,a0,437 # 11b5 <.Lline_table_start1+0xf8a>
   158b0:	458d                	li	a1,3
   158b2:	854a                	mv	a0,s2
   158b4:	4601                	li	a2,0
   158b6:	4681                	li	a3,0
   158b8:	00000073          	ecall
   158bc:	00f14983          	lbu	s3,15(sp)
   158c0:	001a8513          	addi	a0,s5,1
   158c4:	02700613          	li	a2,39
   158c8:	85d2                	mv	a1,s4
   158ca:	00009097          	auipc	ra,0x9
   158ce:	c4a080e7          	jalr	-950(ra) # 1e514 <memcpy>
   158d2:	4509                	li	a0,2
   158d4:	000a8023          	sb	zero,0(s5)
   158d8:	f6a98fe3          	beq	s3,a0,15856 <_ZN20complex_dynamic_type3app17h84556c3901432e43E+0xee>
   158dc:	4591                	li	a1,4
   158de:	854a                	mv	a0,s2
   158e0:	4601                	li	a2,0
   158e2:	4681                	li	a3,0
   158e4:	874e                	mv	a4,s3
   158e6:	00000073          	ecall
   158ea:	b7b5                	j	15856 <_ZN20complex_dynamic_type3app17h84556c3901432e43E+0xee>

000158ec <_ZN20complex_dynamic_type3app17h8a0054fcd52e8bc9E>:
   158ec:	7135                	addi	sp,sp,-160
   158ee:	cf06                	sw	ra,156(sp)
   158f0:	cd22                	sw	s0,152(sp)
   158f2:	cb26                	sw	s1,148(sp)
   158f4:	c94a                	sw	s2,144(sp)
   158f6:	c74e                	sw	s3,140(sp)
   158f8:	c552                	sw	s4,136(sp)
   158fa:	c356                	sw	s5,132(sp)
   158fc:	8aaa                	mv	s5,a0
   158fe:	4409                	li	s0,2
   15900:	008104a3          	sb	s0,9(sp)
   15904:	00a10493          	addi	s1,sp,10
   15908:	03100613          	li	a2,49
   1590c:	8526                	mv	a0,s1
   1590e:	00009097          	auipc	ra,0x9
   15912:	c06080e7          	jalr	-1018(ra) # 1e514 <memcpy>
   15916:	03c10a13          	addi	s4,sp,60
   1591a:	04800613          	li	a2,72
   1591e:	8552                	mv	a0,s4
   15920:	4581                	li	a1,0
   15922:	00009097          	auipc	ra,0x9
   15926:	b86080e7          	jalr	-1146(ra) # 1e4a8 <memset>
   1592a:	8626                	mv	a2,s1
   1592c:	02810da3          	sb	s0,59(sp)
   15930:	6509                	lui	a0,0x2
   15932:	4491                	li	s1,4
   15934:	4591                	li	a1,4
   15936:	80e50793          	addi	a5,a0,-2034 # 180e <.Lline_table_start1+0x15e3>
   1593a:	03100693          	li	a3,49
   1593e:	4711                	li	a4,4
   15940:	853e                	mv	a0,a5
   15942:	00000073          	ecall
   15946:	00851863          	bne	a0,s0,15956 <_ZN20complex_dynamic_type3app17h8a0054fcd52e8bc9E+0x6a>
   1594a:	4505                	li	a0,1
   1594c:	00aa8023          	sb	a0,0(s5)
   15950:	00baa223          	sw	a1,4(s5)
   15954:	a0bd                	j	159c2 <_ZN20complex_dynamic_type3app17h8a0054fcd52e8bc9E+0xd6>
   15956:	853e                	mv	a0,a5
   15958:	8652                	mv	a2,s4
   1595a:	009104a3          	sb	s1,9(sp)
   1595e:	478d                	li	a5,3
   15960:	458d                	li	a1,3
   15962:	04800693          	li	a3,72
   15966:	470d                	li	a4,3
   15968:	00000073          	ecall
   1596c:	00851d63          	bne	a0,s0,15986 <_ZN20complex_dynamic_type3app17h8a0054fcd52e8bc9E+0x9a>
   15970:	03b14703          	lbu	a4,59(sp)
   15974:	4505                	li	a0,1
   15976:	4609                	li	a2,2
   15978:	00aa8023          	sb	a0,0(s5)
   1597c:	00baa223          	sw	a1,4(s5)
   15980:	02c71963          	bne	a4,a2,159b2 <_ZN20complex_dynamic_type3app17h8a0054fcd52e8bc9E+0xc6>
   15984:	a83d                	j	159c2 <_ZN20complex_dynamic_type3app17h8a0054fcd52e8bc9E+0xd6>
   15986:	4681                	li	a3,0
   15988:	02f10da3          	sb	a5,59(sp)
   1598c:	6509                	lui	a0,0x2
   1598e:	4591                	li	a1,4
   15990:	460d                	li	a2,3
   15992:	4709                	li	a4,2
   15994:	80e50513          	addi	a0,a0,-2034 # 180e <.Lline_table_start1+0x15e3>
   15998:	08000793          	li	a5,128
   1599c:	00000073          	ecall
   159a0:	4609                	li	a2,2
   159a2:	04f57663          	bgeu	a0,a5,159ee <_ZN20complex_dynamic_type3app17h8a0054fcd52e8bc9E+0x102>
   159a6:	4505                	li	a0,1
   159a8:	00aa8023          	sb	a0,0(s5)
   159ac:	00baa223          	sw	a1,4(s5)
   159b0:	470d                	li	a4,3
   159b2:	6509                	lui	a0,0x2
   159b4:	80e50513          	addi	a0,a0,-2034 # 180e <.Lline_table_start1+0x15e3>
   159b8:	458d                	li	a1,3
   159ba:	4601                	li	a2,0
   159bc:	4681                	li	a3,0
   159be:	00000073          	ecall
   159c2:	00914703          	lbu	a4,9(sp)
   159c6:	4509                	li	a0,2
   159c8:	00a70a63          	beq	a4,a0,159dc <_ZN20complex_dynamic_type3app17h8a0054fcd52e8bc9E+0xf0>
   159cc:	6509                	lui	a0,0x2
   159ce:	80e50513          	addi	a0,a0,-2034 # 180e <.Lline_table_start1+0x15e3>
   159d2:	4591                	li	a1,4
   159d4:	4601                	li	a2,0
   159d6:	4681                	li	a3,0
   159d8:	00000073          	ecall
   159dc:	40fa                	lw	ra,156(sp)
   159de:	446a                	lw	s0,152(sp)
   159e0:	44da                	lw	s1,148(sp)
   159e2:	494a                	lw	s2,144(sp)
   159e4:	49ba                	lw	s3,140(sp)
   159e6:	4a2a                	lw	s4,136(sp)
   159e8:	4a9a                	lw	s5,132(sp)
   159ea:	610d                	addi	sp,sp,160
   159ec:	8082                	ret
   159ee:	00914703          	lbu	a4,9(sp)
   159f2:	00c71463          	bne	a4,a2,159fa <_ZN20complex_dynamic_type3app17h8a0054fcd52e8bc9E+0x10e>
   159f6:	470d                	li	a4,3
   159f8:	a825                	j	15a30 <_ZN20complex_dynamic_type3app17h8a0054fcd52e8bc9E+0x144>
   159fa:	6509                	lui	a0,0x2
   159fc:	80e50513          	addi	a0,a0,-2034 # 180e <.Lline_table_start1+0x15e3>
   15a00:	4591                	li	a1,4
   15a02:	4601                	li	a2,0
   15a04:	4681                	li	a3,0
   15a06:	00000073          	ecall
   15a0a:	03b14703          	lbu	a4,59(sp)
   15a0e:	4509                	li	a0,2
   15a10:	00a104a3          	sb	a0,9(sp)
   15a14:	00a71e63          	bne	a4,a0,15a30 <_ZN20complex_dynamic_type3app17h8a0054fcd52e8bc9E+0x144>
   15a18:	001a8513          	addi	a0,s5,1
   15a1c:	04800613          	li	a2,72
   15a20:	85d2                	mv	a1,s4
   15a22:	00009097          	auipc	ra,0x9
   15a26:	af2080e7          	jalr	-1294(ra) # 1e514 <memcpy>
   15a2a:	000a8023          	sb	zero,0(s5)
   15a2e:	b77d                	j	159dc <_ZN20complex_dynamic_type3app17h8a0054fcd52e8bc9E+0xf0>
   15a30:	6509                	lui	a0,0x2
   15a32:	80e50913          	addi	s2,a0,-2034 # 180e <.Lline_table_start1+0x15e3>
   15a36:	458d                	li	a1,3
   15a38:	854a                	mv	a0,s2
   15a3a:	4601                	li	a2,0
   15a3c:	4681                	li	a3,0
   15a3e:	00000073          	ecall
   15a42:	00914983          	lbu	s3,9(sp)
   15a46:	001a8513          	addi	a0,s5,1
   15a4a:	04800613          	li	a2,72
   15a4e:	85d2                	mv	a1,s4
   15a50:	00009097          	auipc	ra,0x9
   15a54:	ac4080e7          	jalr	-1340(ra) # 1e514 <memcpy>
   15a58:	4509                	li	a0,2
   15a5a:	000a8023          	sb	zero,0(s5)
   15a5e:	f6a98fe3          	beq	s3,a0,159dc <_ZN20complex_dynamic_type3app17h8a0054fcd52e8bc9E+0xf0>
   15a62:	4591                	li	a1,4
   15a64:	854a                	mv	a0,s2
   15a66:	4601                	li	a2,0
   15a68:	4681                	li	a3,0
   15a6a:	874e                	mv	a4,s3
   15a6c:	00000073          	ecall
   15a70:	b7b5                	j	159dc <_ZN20complex_dynamic_type3app17h8a0054fcd52e8bc9E+0xf0>

00015a72 <_ZN20complex_dynamic_type3app17h8ae9bdb5b5b9e08bE>:
   15a72:	7171                	addi	sp,sp,-176
   15a74:	d706                	sw	ra,172(sp)
   15a76:	d522                	sw	s0,168(sp)
   15a78:	d326                	sw	s1,164(sp)
   15a7a:	d14a                	sw	s2,160(sp)
   15a7c:	cf4e                	sw	s3,156(sp)
   15a7e:	cd52                	sw	s4,152(sp)
   15a80:	cb56                	sw	s5,148(sp)
   15a82:	8aaa                	mv	s5,a0
   15a84:	4409                	li	s0,2
   15a86:	008102a3          	sb	s0,5(sp)
   15a8a:	00610493          	addi	s1,sp,6
   15a8e:	05300613          	li	a2,83
   15a92:	8526                	mv	a0,s1
   15a94:	00009097          	auipc	ra,0x9
   15a98:	a80080e7          	jalr	-1408(ra) # 1e514 <memcpy>
   15a9c:	05a10a13          	addi	s4,sp,90
   15aa0:	03a00613          	li	a2,58
   15aa4:	8552                	mv	a0,s4
   15aa6:	4581                	li	a1,0
   15aa8:	00009097          	auipc	ra,0x9
   15aac:	a00080e7          	jalr	-1536(ra) # 1e4a8 <memset>
   15ab0:	8626                	mv	a2,s1
   15ab2:	04810ca3          	sb	s0,89(sp)
   15ab6:	6509                	lui	a0,0x2
   15ab8:	4491                	li	s1,4
   15aba:	4599                	li	a1,6
   15abc:	64550793          	addi	a5,a0,1605 # 2645 <.Lline_table_start1+0x241a>
   15ac0:	05300693          	li	a3,83
   15ac4:	4711                	li	a4,4
   15ac6:	853e                	mv	a0,a5
   15ac8:	00000073          	ecall
   15acc:	00851863          	bne	a0,s0,15adc <_ZN20complex_dynamic_type3app17h8ae9bdb5b5b9e08bE+0x6a>
   15ad0:	4505                	li	a0,1
   15ad2:	00aa8023          	sb	a0,0(s5)
   15ad6:	00baa223          	sw	a1,4(s5)
   15ada:	a0bd                	j	15b48 <_ZN20complex_dynamic_type3app17h8ae9bdb5b5b9e08bE+0xd6>
   15adc:	853e                	mv	a0,a5
   15ade:	8652                	mv	a2,s4
   15ae0:	009102a3          	sb	s1,5(sp)
   15ae4:	478d                	li	a5,3
   15ae6:	459d                	li	a1,7
   15ae8:	03a00693          	li	a3,58
   15aec:	470d                	li	a4,3
   15aee:	00000073          	ecall
   15af2:	00851d63          	bne	a0,s0,15b0c <_ZN20complex_dynamic_type3app17h8ae9bdb5b5b9e08bE+0x9a>
   15af6:	05914703          	lbu	a4,89(sp)
   15afa:	4505                	li	a0,1
   15afc:	4609                	li	a2,2
   15afe:	00aa8023          	sb	a0,0(s5)
   15b02:	00baa223          	sw	a1,4(s5)
   15b06:	02c71963          	bne	a4,a2,15b38 <_ZN20complex_dynamic_type3app17h8ae9bdb5b5b9e08bE+0xc6>
   15b0a:	a83d                	j	15b48 <_ZN20complex_dynamic_type3app17h8ae9bdb5b5b9e08bE+0xd6>
   15b0c:	4681                	li	a3,0
   15b0e:	04f10ca3          	sb	a5,89(sp)
   15b12:	6509                	lui	a0,0x2
   15b14:	4599                	li	a1,6
   15b16:	461d                	li	a2,7
   15b18:	4709                	li	a4,2
   15b1a:	64550513          	addi	a0,a0,1605 # 2645 <.Lline_table_start1+0x241a>
   15b1e:	08000793          	li	a5,128
   15b22:	00000073          	ecall
   15b26:	4609                	li	a2,2
   15b28:	04f57663          	bgeu	a0,a5,15b74 <_ZN20complex_dynamic_type3app17h8ae9bdb5b5b9e08bE+0x102>
   15b2c:	4505                	li	a0,1
   15b2e:	00aa8023          	sb	a0,0(s5)
   15b32:	00baa223          	sw	a1,4(s5)
   15b36:	470d                	li	a4,3
   15b38:	6509                	lui	a0,0x2
   15b3a:	64550513          	addi	a0,a0,1605 # 2645 <.Lline_table_start1+0x241a>
   15b3e:	459d                	li	a1,7
   15b40:	4601                	li	a2,0
   15b42:	4681                	li	a3,0
   15b44:	00000073          	ecall
   15b48:	00514703          	lbu	a4,5(sp)
   15b4c:	4509                	li	a0,2
   15b4e:	00a70a63          	beq	a4,a0,15b62 <_ZN20complex_dynamic_type3app17h8ae9bdb5b5b9e08bE+0xf0>
   15b52:	6509                	lui	a0,0x2
   15b54:	64550513          	addi	a0,a0,1605 # 2645 <.Lline_table_start1+0x241a>
   15b58:	4599                	li	a1,6
   15b5a:	4601                	li	a2,0
   15b5c:	4681                	li	a3,0
   15b5e:	00000073          	ecall
   15b62:	50ba                	lw	ra,172(sp)
   15b64:	542a                	lw	s0,168(sp)
   15b66:	549a                	lw	s1,164(sp)
   15b68:	590a                	lw	s2,160(sp)
   15b6a:	49fa                	lw	s3,156(sp)
   15b6c:	4a6a                	lw	s4,152(sp)
   15b6e:	4ada                	lw	s5,148(sp)
   15b70:	614d                	addi	sp,sp,176
   15b72:	8082                	ret
   15b74:	00514703          	lbu	a4,5(sp)
   15b78:	00c71463          	bne	a4,a2,15b80 <_ZN20complex_dynamic_type3app17h8ae9bdb5b5b9e08bE+0x10e>
   15b7c:	470d                	li	a4,3
   15b7e:	a825                	j	15bb6 <_ZN20complex_dynamic_type3app17h8ae9bdb5b5b9e08bE+0x144>
   15b80:	6509                	lui	a0,0x2
   15b82:	64550513          	addi	a0,a0,1605 # 2645 <.Lline_table_start1+0x241a>
   15b86:	4599                	li	a1,6
   15b88:	4601                	li	a2,0
   15b8a:	4681                	li	a3,0
   15b8c:	00000073          	ecall
   15b90:	05914703          	lbu	a4,89(sp)
   15b94:	4509                	li	a0,2
   15b96:	00a102a3          	sb	a0,5(sp)
   15b9a:	00a71e63          	bne	a4,a0,15bb6 <_ZN20complex_dynamic_type3app17h8ae9bdb5b5b9e08bE+0x144>
   15b9e:	001a8513          	addi	a0,s5,1
   15ba2:	03a00613          	li	a2,58
   15ba6:	85d2                	mv	a1,s4
   15ba8:	00009097          	auipc	ra,0x9
   15bac:	96c080e7          	jalr	-1684(ra) # 1e514 <memcpy>
   15bb0:	000a8023          	sb	zero,0(s5)
   15bb4:	b77d                	j	15b62 <_ZN20complex_dynamic_type3app17h8ae9bdb5b5b9e08bE+0xf0>
   15bb6:	6509                	lui	a0,0x2
   15bb8:	64550913          	addi	s2,a0,1605 # 2645 <.Lline_table_start1+0x241a>
   15bbc:	459d                	li	a1,7
   15bbe:	854a                	mv	a0,s2
   15bc0:	4601                	li	a2,0
   15bc2:	4681                	li	a3,0
   15bc4:	00000073          	ecall
   15bc8:	00514983          	lbu	s3,5(sp)
   15bcc:	001a8513          	addi	a0,s5,1
   15bd0:	03a00613          	li	a2,58
   15bd4:	85d2                	mv	a1,s4
   15bd6:	00009097          	auipc	ra,0x9
   15bda:	93e080e7          	jalr	-1730(ra) # 1e514 <memcpy>
   15bde:	4509                	li	a0,2
   15be0:	000a8023          	sb	zero,0(s5)
   15be4:	f6a98fe3          	beq	s3,a0,15b62 <_ZN20complex_dynamic_type3app17h8ae9bdb5b5b9e08bE+0xf0>
   15be8:	4599                	li	a1,6
   15bea:	854a                	mv	a0,s2
   15bec:	4601                	li	a2,0
   15bee:	4681                	li	a3,0
   15bf0:	874e                	mv	a4,s3
   15bf2:	00000073          	ecall
   15bf6:	b7b5                	j	15b62 <_ZN20complex_dynamic_type3app17h8ae9bdb5b5b9e08bE+0xf0>

00015bf8 <_ZN20complex_dynamic_type3app17h8d4ef83c0b931dcbE>:
   15bf8:	7135                	addi	sp,sp,-160
   15bfa:	cf06                	sw	ra,156(sp)
   15bfc:	cd22                	sw	s0,152(sp)
   15bfe:	cb26                	sw	s1,148(sp)
   15c00:	c94a                	sw	s2,144(sp)
   15c02:	c74e                	sw	s3,140(sp)
   15c04:	c552                	sw	s4,136(sp)
   15c06:	c356                	sw	s5,132(sp)
   15c08:	8aaa                	mv	s5,a0
   15c0a:	4409                	li	s0,2
   15c0c:	00810223          	sb	s0,4(sp)
   15c10:	00510493          	addi	s1,sp,5
   15c14:	466d                	li	a2,27
   15c16:	8526                	mv	a0,s1
   15c18:	00009097          	auipc	ra,0x9
   15c1c:	8fc080e7          	jalr	-1796(ra) # 1e514 <memcpy>
   15c20:	02110a13          	addi	s4,sp,33
   15c24:	06300613          	li	a2,99
   15c28:	8552                	mv	a0,s4
   15c2a:	4581                	li	a1,0
   15c2c:	00009097          	auipc	ra,0x9
   15c30:	87c080e7          	jalr	-1924(ra) # 1e4a8 <memset>
   15c34:	8626                	mv	a2,s1
   15c36:	02810023          	sb	s0,32(sp)
   15c3a:	6509                	lui	a0,0x2
   15c3c:	4491                	li	s1,4
   15c3e:	458d                	li	a1,3
   15c40:	54850793          	addi	a5,a0,1352 # 2548 <.Lline_table_start1+0x231d>
   15c44:	46ed                	li	a3,27
   15c46:	4711                	li	a4,4
   15c48:	853e                	mv	a0,a5
   15c4a:	00000073          	ecall
   15c4e:	00851863          	bne	a0,s0,15c5e <_ZN20complex_dynamic_type3app17h8d4ef83c0b931dcbE+0x66>
   15c52:	4505                	li	a0,1
   15c54:	00aa8023          	sb	a0,0(s5)
   15c58:	00baa223          	sw	a1,4(s5)
   15c5c:	a0bd                	j	15cca <_ZN20complex_dynamic_type3app17h8d4ef83c0b931dcbE+0xd2>
   15c5e:	853e                	mv	a0,a5
   15c60:	8652                	mv	a2,s4
   15c62:	00910223          	sb	s1,4(sp)
   15c66:	478d                	li	a5,3
   15c68:	458d                	li	a1,3
   15c6a:	06300693          	li	a3,99
   15c6e:	470d                	li	a4,3
   15c70:	00000073          	ecall
   15c74:	00851d63          	bne	a0,s0,15c8e <_ZN20complex_dynamic_type3app17h8d4ef83c0b931dcbE+0x96>
   15c78:	02014703          	lbu	a4,32(sp)
   15c7c:	4505                	li	a0,1
   15c7e:	4609                	li	a2,2
   15c80:	00aa8023          	sb	a0,0(s5)
   15c84:	00baa223          	sw	a1,4(s5)
   15c88:	02c71963          	bne	a4,a2,15cba <_ZN20complex_dynamic_type3app17h8d4ef83c0b931dcbE+0xc2>
   15c8c:	a83d                	j	15cca <_ZN20complex_dynamic_type3app17h8d4ef83c0b931dcbE+0xd2>
   15c8e:	4681                	li	a3,0
   15c90:	02f10023          	sb	a5,32(sp)
   15c94:	6509                	lui	a0,0x2
   15c96:	458d                	li	a1,3
   15c98:	460d                	li	a2,3
   15c9a:	4709                	li	a4,2
   15c9c:	54850513          	addi	a0,a0,1352 # 2548 <.Lline_table_start1+0x231d>
   15ca0:	08000793          	li	a5,128
   15ca4:	00000073          	ecall
   15ca8:	4609                	li	a2,2
   15caa:	04f57663          	bgeu	a0,a5,15cf6 <_ZN20complex_dynamic_type3app17h8d4ef83c0b931dcbE+0xfe>
   15cae:	4505                	li	a0,1
   15cb0:	00aa8023          	sb	a0,0(s5)
   15cb4:	00baa223          	sw	a1,4(s5)
   15cb8:	470d                	li	a4,3
   15cba:	6509                	lui	a0,0x2
   15cbc:	54850513          	addi	a0,a0,1352 # 2548 <.Lline_table_start1+0x231d>
   15cc0:	458d                	li	a1,3
   15cc2:	4601                	li	a2,0
   15cc4:	4681                	li	a3,0
   15cc6:	00000073          	ecall
   15cca:	00414703          	lbu	a4,4(sp)
   15cce:	4509                	li	a0,2
   15cd0:	00a70a63          	beq	a4,a0,15ce4 <_ZN20complex_dynamic_type3app17h8d4ef83c0b931dcbE+0xec>
   15cd4:	6509                	lui	a0,0x2
   15cd6:	54850513          	addi	a0,a0,1352 # 2548 <.Lline_table_start1+0x231d>
   15cda:	458d                	li	a1,3
   15cdc:	4601                	li	a2,0
   15cde:	4681                	li	a3,0
   15ce0:	00000073          	ecall
   15ce4:	40fa                	lw	ra,156(sp)
   15ce6:	446a                	lw	s0,152(sp)
   15ce8:	44da                	lw	s1,148(sp)
   15cea:	494a                	lw	s2,144(sp)
   15cec:	49ba                	lw	s3,140(sp)
   15cee:	4a2a                	lw	s4,136(sp)
   15cf0:	4a9a                	lw	s5,132(sp)
   15cf2:	610d                	addi	sp,sp,160
   15cf4:	8082                	ret
   15cf6:	00414703          	lbu	a4,4(sp)
   15cfa:	00c71463          	bne	a4,a2,15d02 <_ZN20complex_dynamic_type3app17h8d4ef83c0b931dcbE+0x10a>
   15cfe:	470d                	li	a4,3
   15d00:	a825                	j	15d38 <_ZN20complex_dynamic_type3app17h8d4ef83c0b931dcbE+0x140>
   15d02:	6509                	lui	a0,0x2
   15d04:	54850513          	addi	a0,a0,1352 # 2548 <.Lline_table_start1+0x231d>
   15d08:	458d                	li	a1,3
   15d0a:	4601                	li	a2,0
   15d0c:	4681                	li	a3,0
   15d0e:	00000073          	ecall
   15d12:	02014703          	lbu	a4,32(sp)
   15d16:	4509                	li	a0,2
   15d18:	00a10223          	sb	a0,4(sp)
   15d1c:	00a71e63          	bne	a4,a0,15d38 <_ZN20complex_dynamic_type3app17h8d4ef83c0b931dcbE+0x140>
   15d20:	001a8513          	addi	a0,s5,1
   15d24:	06300613          	li	a2,99
   15d28:	85d2                	mv	a1,s4
   15d2a:	00008097          	auipc	ra,0x8
   15d2e:	7ea080e7          	jalr	2026(ra) # 1e514 <memcpy>
   15d32:	000a8023          	sb	zero,0(s5)
   15d36:	b77d                	j	15ce4 <_ZN20complex_dynamic_type3app17h8d4ef83c0b931dcbE+0xec>
   15d38:	6509                	lui	a0,0x2
   15d3a:	54850913          	addi	s2,a0,1352 # 2548 <.Lline_table_start1+0x231d>
   15d3e:	458d                	li	a1,3
   15d40:	854a                	mv	a0,s2
   15d42:	4601                	li	a2,0
   15d44:	4681                	li	a3,0
   15d46:	00000073          	ecall
   15d4a:	00414983          	lbu	s3,4(sp)
   15d4e:	001a8513          	addi	a0,s5,1
   15d52:	06300613          	li	a2,99
   15d56:	85d2                	mv	a1,s4
   15d58:	00008097          	auipc	ra,0x8
   15d5c:	7bc080e7          	jalr	1980(ra) # 1e514 <memcpy>
   15d60:	4509                	li	a0,2
   15d62:	000a8023          	sb	zero,0(s5)
   15d66:	f6a98fe3          	beq	s3,a0,15ce4 <_ZN20complex_dynamic_type3app17h8d4ef83c0b931dcbE+0xec>
   15d6a:	458d                	li	a1,3
   15d6c:	854a                	mv	a0,s2
   15d6e:	4601                	li	a2,0
   15d70:	4681                	li	a3,0
   15d72:	874e                	mv	a4,s3
   15d74:	00000073          	ecall
   15d78:	b7b5                	j	15ce4 <_ZN20complex_dynamic_type3app17h8d4ef83c0b931dcbE+0xec>

00015d7a <_ZN20complex_dynamic_type3app17h8dcf062a5268d4dbE>:
   15d7a:	711d                	addi	sp,sp,-96
   15d7c:	ce86                	sw	ra,92(sp)
   15d7e:	cca2                	sw	s0,88(sp)
   15d80:	caa6                	sw	s1,84(sp)
   15d82:	c8ca                	sw	s2,80(sp)
   15d84:	c6ce                	sw	s3,76(sp)
   15d86:	c4d2                	sw	s4,72(sp)
   15d88:	c2d6                	sw	s5,68(sp)
   15d8a:	8aaa                	mv	s5,a0
   15d8c:	4409                	li	s0,2
   15d8e:	008106a3          	sb	s0,13(sp)
   15d92:	00e10493          	addi	s1,sp,14
   15d96:	4669                	li	a2,26
   15d98:	8526                	mv	a0,s1
   15d9a:	00008097          	auipc	ra,0x8
   15d9e:	77a080e7          	jalr	1914(ra) # 1e514 <memcpy>
   15da2:	02910a13          	addi	s4,sp,41
   15da6:	466d                	li	a2,27
   15da8:	8552                	mv	a0,s4
   15daa:	4581                	li	a1,0
   15dac:	00008097          	auipc	ra,0x8
   15db0:	6fc080e7          	jalr	1788(ra) # 1e4a8 <memset>
   15db4:	8626                	mv	a2,s1
   15db6:	02810423          	sb	s0,40(sp)
   15dba:	6509                	lui	a0,0x2
   15dbc:	4491                	li	s1,4
   15dbe:	4595                	li	a1,5
   15dc0:	cce50793          	addi	a5,a0,-818 # 1cce <.Lline_table_start1+0x1aa3>
   15dc4:	46e9                	li	a3,26
   15dc6:	4711                	li	a4,4
   15dc8:	853e                	mv	a0,a5
   15dca:	00000073          	ecall
   15dce:	00851863          	bne	a0,s0,15dde <_ZN20complex_dynamic_type3app17h8dcf062a5268d4dbE+0x64>
   15dd2:	4505                	li	a0,1
   15dd4:	00aa8023          	sb	a0,0(s5)
   15dd8:	00baa223          	sw	a1,4(s5)
   15ddc:	a0b5                	j	15e48 <_ZN20complex_dynamic_type3app17h8dcf062a5268d4dbE+0xce>
   15dde:	853e                	mv	a0,a5
   15de0:	8652                	mv	a2,s4
   15de2:	009106a3          	sb	s1,13(sp)
   15de6:	478d                	li	a5,3
   15de8:	4589                	li	a1,2
   15dea:	46ed                	li	a3,27
   15dec:	470d                	li	a4,3
   15dee:	00000073          	ecall
   15df2:	00851d63          	bne	a0,s0,15e0c <_ZN20complex_dynamic_type3app17h8dcf062a5268d4dbE+0x92>
   15df6:	02814703          	lbu	a4,40(sp)
   15dfa:	4505                	li	a0,1
   15dfc:	4609                	li	a2,2
   15dfe:	00aa8023          	sb	a0,0(s5)
   15e02:	00baa223          	sw	a1,4(s5)
   15e06:	02c71963          	bne	a4,a2,15e38 <_ZN20complex_dynamic_type3app17h8dcf062a5268d4dbE+0xbe>
   15e0a:	a83d                	j	15e48 <_ZN20complex_dynamic_type3app17h8dcf062a5268d4dbE+0xce>
   15e0c:	4681                	li	a3,0
   15e0e:	02f10423          	sb	a5,40(sp)
   15e12:	6509                	lui	a0,0x2
   15e14:	4595                	li	a1,5
   15e16:	4609                	li	a2,2
   15e18:	4709                	li	a4,2
   15e1a:	cce50513          	addi	a0,a0,-818 # 1cce <.Lline_table_start1+0x1aa3>
   15e1e:	08000793          	li	a5,128
   15e22:	00000073          	ecall
   15e26:	4609                	li	a2,2
   15e28:	04f57663          	bgeu	a0,a5,15e74 <_ZN20complex_dynamic_type3app17h8dcf062a5268d4dbE+0xfa>
   15e2c:	4505                	li	a0,1
   15e2e:	00aa8023          	sb	a0,0(s5)
   15e32:	00baa223          	sw	a1,4(s5)
   15e36:	470d                	li	a4,3
   15e38:	6509                	lui	a0,0x2
   15e3a:	cce50513          	addi	a0,a0,-818 # 1cce <.Lline_table_start1+0x1aa3>
   15e3e:	4589                	li	a1,2
   15e40:	4601                	li	a2,0
   15e42:	4681                	li	a3,0
   15e44:	00000073          	ecall
   15e48:	00d14703          	lbu	a4,13(sp)
   15e4c:	4509                	li	a0,2
   15e4e:	00a70a63          	beq	a4,a0,15e62 <_ZN20complex_dynamic_type3app17h8dcf062a5268d4dbE+0xe8>
   15e52:	6509                	lui	a0,0x2
   15e54:	cce50513          	addi	a0,a0,-818 # 1cce <.Lline_table_start1+0x1aa3>
   15e58:	4595                	li	a1,5
   15e5a:	4601                	li	a2,0
   15e5c:	4681                	li	a3,0
   15e5e:	00000073          	ecall
   15e62:	40f6                	lw	ra,92(sp)
   15e64:	4466                	lw	s0,88(sp)
   15e66:	44d6                	lw	s1,84(sp)
   15e68:	4946                	lw	s2,80(sp)
   15e6a:	49b6                	lw	s3,76(sp)
   15e6c:	4a26                	lw	s4,72(sp)
   15e6e:	4a96                	lw	s5,68(sp)
   15e70:	6125                	addi	sp,sp,96
   15e72:	8082                	ret
   15e74:	00d14703          	lbu	a4,13(sp)
   15e78:	00c71463          	bne	a4,a2,15e80 <_ZN20complex_dynamic_type3app17h8dcf062a5268d4dbE+0x106>
   15e7c:	470d                	li	a4,3
   15e7e:	a81d                	j	15eb4 <_ZN20complex_dynamic_type3app17h8dcf062a5268d4dbE+0x13a>
   15e80:	6509                	lui	a0,0x2
   15e82:	cce50513          	addi	a0,a0,-818 # 1cce <.Lline_table_start1+0x1aa3>
   15e86:	4595                	li	a1,5
   15e88:	4601                	li	a2,0
   15e8a:	4681                	li	a3,0
   15e8c:	00000073          	ecall
   15e90:	02814703          	lbu	a4,40(sp)
   15e94:	4509                	li	a0,2
   15e96:	00a106a3          	sb	a0,13(sp)
   15e9a:	00a71d63          	bne	a4,a0,15eb4 <_ZN20complex_dynamic_type3app17h8dcf062a5268d4dbE+0x13a>
   15e9e:	001a8513          	addi	a0,s5,1
   15ea2:	466d                	li	a2,27
   15ea4:	85d2                	mv	a1,s4
   15ea6:	00008097          	auipc	ra,0x8
   15eaa:	66e080e7          	jalr	1646(ra) # 1e514 <memcpy>
   15eae:	000a8023          	sb	zero,0(s5)
   15eb2:	bf45                	j	15e62 <_ZN20complex_dynamic_type3app17h8dcf062a5268d4dbE+0xe8>
   15eb4:	4601                	li	a2,0
   15eb6:	4681                	li	a3,0
   15eb8:	6509                	lui	a0,0x2
   15eba:	cce50913          	addi	s2,a0,-818 # 1cce <.Lline_table_start1+0x1aa3>
   15ebe:	4589                	li	a1,2
   15ec0:	854a                	mv	a0,s2
   15ec2:	00000073          	ecall
   15ec6:	00d14983          	lbu	s3,13(sp)
   15eca:	4409                	li	s0,2
   15ecc:	001a8513          	addi	a0,s5,1
   15ed0:	466d                	li	a2,27
   15ed2:	85d2                	mv	a1,s4
   15ed4:	00008097          	auipc	ra,0x8
   15ed8:	640080e7          	jalr	1600(ra) # 1e514 <memcpy>
   15edc:	000a8023          	sb	zero,0(s5)
   15ee0:	f88981e3          	beq	s3,s0,15e62 <_ZN20complex_dynamic_type3app17h8dcf062a5268d4dbE+0xe8>
   15ee4:	4595                	li	a1,5
   15ee6:	854a                	mv	a0,s2
   15ee8:	4601                	li	a2,0
   15eea:	4681                	li	a3,0
   15eec:	874e                	mv	a4,s3
   15eee:	00000073          	ecall
   15ef2:	bf85                	j	15e62 <_ZN20complex_dynamic_type3app17h8dcf062a5268d4dbE+0xe8>

00015ef4 <_ZN20complex_dynamic_type3app17h8e76ff3186a319ddE>:
   15ef4:	711d                	addi	sp,sp,-96
   15ef6:	ce86                	sw	ra,92(sp)
   15ef8:	cca2                	sw	s0,88(sp)
   15efa:	caa6                	sw	s1,84(sp)
   15efc:	c8ca                	sw	s2,80(sp)
   15efe:	c6ce                	sw	s3,76(sp)
   15f00:	c4d2                	sw	s4,72(sp)
   15f02:	c2d6                	sw	s5,68(sp)
   15f04:	8aaa                	mv	s5,a0
   15f06:	4409                	li	s0,2
   15f08:	00810623          	sb	s0,12(sp)
   15f0c:	00d10493          	addi	s1,sp,13
   15f10:	4661                	li	a2,24
   15f12:	8526                	mv	a0,s1
   15f14:	00008097          	auipc	ra,0x8
   15f18:	600080e7          	jalr	1536(ra) # 1e514 <memcpy>
   15f1c:	02610a13          	addi	s4,sp,38
   15f20:	4679                	li	a2,30
   15f22:	8552                	mv	a0,s4
   15f24:	4581                	li	a1,0
   15f26:	00008097          	auipc	ra,0x8
   15f2a:	582080e7          	jalr	1410(ra) # 1e4a8 <memset>
   15f2e:	8626                	mv	a2,s1
   15f30:	028102a3          	sb	s0,37(sp)
   15f34:	6505                	lui	a0,0x1
   15f36:	4491                	li	s1,4
   15f38:	45a5                	li	a1,9
   15f3a:	cbb50793          	addi	a5,a0,-837 # cbb <.Lline_table_start1+0xa90>
   15f3e:	46e1                	li	a3,24
   15f40:	4711                	li	a4,4
   15f42:	853e                	mv	a0,a5
   15f44:	00000073          	ecall
   15f48:	00851863          	bne	a0,s0,15f58 <_ZN20complex_dynamic_type3app17h8e76ff3186a319ddE+0x64>
   15f4c:	4505                	li	a0,1
   15f4e:	00aa8023          	sb	a0,0(s5)
   15f52:	00baa223          	sw	a1,4(s5)
   15f56:	a0b5                	j	15fc2 <_ZN20complex_dynamic_type3app17h8e76ff3186a319ddE+0xce>
   15f58:	853e                	mv	a0,a5
   15f5a:	8652                	mv	a2,s4
   15f5c:	00910623          	sb	s1,12(sp)
   15f60:	478d                	li	a5,3
   15f62:	4595                	li	a1,5
   15f64:	46f9                	li	a3,30
   15f66:	470d                	li	a4,3
   15f68:	00000073          	ecall
   15f6c:	00851d63          	bne	a0,s0,15f86 <_ZN20complex_dynamic_type3app17h8e76ff3186a319ddE+0x92>
   15f70:	02514703          	lbu	a4,37(sp)
   15f74:	4505                	li	a0,1
   15f76:	4609                	li	a2,2
   15f78:	00aa8023          	sb	a0,0(s5)
   15f7c:	00baa223          	sw	a1,4(s5)
   15f80:	02c71963          	bne	a4,a2,15fb2 <_ZN20complex_dynamic_type3app17h8e76ff3186a319ddE+0xbe>
   15f84:	a83d                	j	15fc2 <_ZN20complex_dynamic_type3app17h8e76ff3186a319ddE+0xce>
   15f86:	4681                	li	a3,0
   15f88:	02f102a3          	sb	a5,37(sp)
   15f8c:	6505                	lui	a0,0x1
   15f8e:	45a5                	li	a1,9
   15f90:	4615                	li	a2,5
   15f92:	4709                	li	a4,2
   15f94:	cbb50513          	addi	a0,a0,-837 # cbb <.Lline_table_start1+0xa90>
   15f98:	08000793          	li	a5,128
   15f9c:	00000073          	ecall
   15fa0:	4609                	li	a2,2
   15fa2:	04f57663          	bgeu	a0,a5,15fee <_ZN20complex_dynamic_type3app17h8e76ff3186a319ddE+0xfa>
   15fa6:	4505                	li	a0,1
   15fa8:	00aa8023          	sb	a0,0(s5)
   15fac:	00baa223          	sw	a1,4(s5)
   15fb0:	470d                	li	a4,3
   15fb2:	6505                	lui	a0,0x1
   15fb4:	cbb50513          	addi	a0,a0,-837 # cbb <.Lline_table_start1+0xa90>
   15fb8:	4595                	li	a1,5
   15fba:	4601                	li	a2,0
   15fbc:	4681                	li	a3,0
   15fbe:	00000073          	ecall
   15fc2:	00c14703          	lbu	a4,12(sp)
   15fc6:	4509                	li	a0,2
   15fc8:	00a70a63          	beq	a4,a0,15fdc <_ZN20complex_dynamic_type3app17h8e76ff3186a319ddE+0xe8>
   15fcc:	6505                	lui	a0,0x1
   15fce:	cbb50513          	addi	a0,a0,-837 # cbb <.Lline_table_start1+0xa90>
   15fd2:	45a5                	li	a1,9
   15fd4:	4601                	li	a2,0
   15fd6:	4681                	li	a3,0
   15fd8:	00000073          	ecall
   15fdc:	40f6                	lw	ra,92(sp)
   15fde:	4466                	lw	s0,88(sp)
   15fe0:	44d6                	lw	s1,84(sp)
   15fe2:	4946                	lw	s2,80(sp)
   15fe4:	49b6                	lw	s3,76(sp)
   15fe6:	4a26                	lw	s4,72(sp)
   15fe8:	4a96                	lw	s5,68(sp)
   15fea:	6125                	addi	sp,sp,96
   15fec:	8082                	ret
   15fee:	00c14703          	lbu	a4,12(sp)
   15ff2:	00c71463          	bne	a4,a2,15ffa <_ZN20complex_dynamic_type3app17h8e76ff3186a319ddE+0x106>
   15ff6:	470d                	li	a4,3
   15ff8:	a81d                	j	1602e <_ZN20complex_dynamic_type3app17h8e76ff3186a319ddE+0x13a>
   15ffa:	6505                	lui	a0,0x1
   15ffc:	cbb50513          	addi	a0,a0,-837 # cbb <.Lline_table_start1+0xa90>
   16000:	45a5                	li	a1,9
   16002:	4601                	li	a2,0
   16004:	4681                	li	a3,0
   16006:	00000073          	ecall
   1600a:	02514703          	lbu	a4,37(sp)
   1600e:	4509                	li	a0,2
   16010:	00a10623          	sb	a0,12(sp)
   16014:	00a71d63          	bne	a4,a0,1602e <_ZN20complex_dynamic_type3app17h8e76ff3186a319ddE+0x13a>
   16018:	001a8513          	addi	a0,s5,1
   1601c:	4679                	li	a2,30
   1601e:	85d2                	mv	a1,s4
   16020:	00008097          	auipc	ra,0x8
   16024:	4f4080e7          	jalr	1268(ra) # 1e514 <memcpy>
   16028:	000a8023          	sb	zero,0(s5)
   1602c:	bf45                	j	15fdc <_ZN20complex_dynamic_type3app17h8e76ff3186a319ddE+0xe8>
   1602e:	6505                	lui	a0,0x1
   16030:	cbb50913          	addi	s2,a0,-837 # cbb <.Lline_table_start1+0xa90>
   16034:	4595                	li	a1,5
   16036:	854a                	mv	a0,s2
   16038:	4601                	li	a2,0
   1603a:	4681                	li	a3,0
   1603c:	00000073          	ecall
   16040:	00c14983          	lbu	s3,12(sp)
   16044:	001a8513          	addi	a0,s5,1
   16048:	4679                	li	a2,30
   1604a:	85d2                	mv	a1,s4
   1604c:	00008097          	auipc	ra,0x8
   16050:	4c8080e7          	jalr	1224(ra) # 1e514 <memcpy>
   16054:	4509                	li	a0,2
   16056:	000a8023          	sb	zero,0(s5)
   1605a:	f8a981e3          	beq	s3,a0,15fdc <_ZN20complex_dynamic_type3app17h8e76ff3186a319ddE+0xe8>
   1605e:	45a5                	li	a1,9
   16060:	854a                	mv	a0,s2
   16062:	4601                	li	a2,0
   16064:	4681                	li	a3,0
   16066:	874e                	mv	a4,s3
   16068:	00000073          	ecall
   1606c:	bf85                	j	15fdc <_ZN20complex_dynamic_type3app17h8e76ff3186a319ddE+0xe8>

0001606e <_ZN20complex_dynamic_type3app17h8f665e057583e8e9E>:
   1606e:	7135                	addi	sp,sp,-160
   16070:	cf06                	sw	ra,156(sp)
   16072:	cd22                	sw	s0,152(sp)
   16074:	cb26                	sw	s1,148(sp)
   16076:	c94a                	sw	s2,144(sp)
   16078:	c74e                	sw	s3,140(sp)
   1607a:	c552                	sw	s4,136(sp)
   1607c:	c356                	sw	s5,132(sp)
   1607e:	8aaa                	mv	s5,a0
   16080:	4409                	li	s0,2
   16082:	00810623          	sb	s0,12(sp)
   16086:	00d10493          	addi	s1,sp,13
   1608a:	02700613          	li	a2,39
   1608e:	8526                	mv	a0,s1
   16090:	00008097          	auipc	ra,0x8
   16094:	484080e7          	jalr	1156(ra) # 1e514 <memcpy>
   16098:	03510a13          	addi	s4,sp,53
   1609c:	04f00613          	li	a2,79
   160a0:	8552                	mv	a0,s4
   160a2:	4581                	li	a1,0
   160a4:	00008097          	auipc	ra,0x8
   160a8:	404080e7          	jalr	1028(ra) # 1e4a8 <memset>
   160ac:	8626                	mv	a2,s1
   160ae:	02810a23          	sb	s0,52(sp)
   160b2:	6505                	lui	a0,0x1
   160b4:	4491                	li	s1,4
   160b6:	45a5                	li	a1,9
   160b8:	b4c50793          	addi	a5,a0,-1204 # b4c <.Lline_table_start1+0x921>
   160bc:	02700693          	li	a3,39
   160c0:	4711                	li	a4,4
   160c2:	853e                	mv	a0,a5
   160c4:	00000073          	ecall
   160c8:	00851863          	bne	a0,s0,160d8 <_ZN20complex_dynamic_type3app17h8f665e057583e8e9E+0x6a>
   160cc:	4505                	li	a0,1
   160ce:	00aa8023          	sb	a0,0(s5)
   160d2:	00baa223          	sw	a1,4(s5)
   160d6:	a0bd                	j	16144 <_ZN20complex_dynamic_type3app17h8f665e057583e8e9E+0xd6>
   160d8:	853e                	mv	a0,a5
   160da:	4581                	li	a1,0
   160dc:	8652                	mv	a2,s4
   160de:	00910623          	sb	s1,12(sp)
   160e2:	478d                	li	a5,3
   160e4:	04f00693          	li	a3,79
   160e8:	470d                	li	a4,3
   160ea:	00000073          	ecall
   160ee:	00851d63          	bne	a0,s0,16108 <_ZN20complex_dynamic_type3app17h8f665e057583e8e9E+0x9a>
   160f2:	03414703          	lbu	a4,52(sp)
   160f6:	4505                	li	a0,1
   160f8:	4609                	li	a2,2
   160fa:	00aa8023          	sb	a0,0(s5)
   160fe:	00baa223          	sw	a1,4(s5)
   16102:	02c71963          	bne	a4,a2,16134 <_ZN20complex_dynamic_type3app17h8f665e057583e8e9E+0xc6>
   16106:	a83d                	j	16144 <_ZN20complex_dynamic_type3app17h8f665e057583e8e9E+0xd6>
   16108:	4601                	li	a2,0
   1610a:	4681                	li	a3,0
   1610c:	02f10a23          	sb	a5,52(sp)
   16110:	6505                	lui	a0,0x1
   16112:	45a5                	li	a1,9
   16114:	4709                	li	a4,2
   16116:	b4c50513          	addi	a0,a0,-1204 # b4c <.Lline_table_start1+0x921>
   1611a:	08000793          	li	a5,128
   1611e:	00000073          	ecall
   16122:	4609                	li	a2,2
   16124:	04f57663          	bgeu	a0,a5,16170 <_ZN20complex_dynamic_type3app17h8f665e057583e8e9E+0x102>
   16128:	4505                	li	a0,1
   1612a:	00aa8023          	sb	a0,0(s5)
   1612e:	00baa223          	sw	a1,4(s5)
   16132:	470d                	li	a4,3
   16134:	6505                	lui	a0,0x1
   16136:	b4c50513          	addi	a0,a0,-1204 # b4c <.Lline_table_start1+0x921>
   1613a:	4581                	li	a1,0
   1613c:	4601                	li	a2,0
   1613e:	4681                	li	a3,0
   16140:	00000073          	ecall
   16144:	00c14703          	lbu	a4,12(sp)
   16148:	4509                	li	a0,2
   1614a:	00a70a63          	beq	a4,a0,1615e <_ZN20complex_dynamic_type3app17h8f665e057583e8e9E+0xf0>
   1614e:	6505                	lui	a0,0x1
   16150:	b4c50513          	addi	a0,a0,-1204 # b4c <.Lline_table_start1+0x921>
   16154:	45a5                	li	a1,9
   16156:	4601                	li	a2,0
   16158:	4681                	li	a3,0
   1615a:	00000073          	ecall
   1615e:	40fa                	lw	ra,156(sp)
   16160:	446a                	lw	s0,152(sp)
   16162:	44da                	lw	s1,148(sp)
   16164:	494a                	lw	s2,144(sp)
   16166:	49ba                	lw	s3,140(sp)
   16168:	4a2a                	lw	s4,136(sp)
   1616a:	4a9a                	lw	s5,132(sp)
   1616c:	610d                	addi	sp,sp,160
   1616e:	8082                	ret
   16170:	00c14703          	lbu	a4,12(sp)
   16174:	00c71463          	bne	a4,a2,1617c <_ZN20complex_dynamic_type3app17h8f665e057583e8e9E+0x10e>
   16178:	470d                	li	a4,3
   1617a:	a825                	j	161b2 <_ZN20complex_dynamic_type3app17h8f665e057583e8e9E+0x144>
   1617c:	6505                	lui	a0,0x1
   1617e:	b4c50513          	addi	a0,a0,-1204 # b4c <.Lline_table_start1+0x921>
   16182:	45a5                	li	a1,9
   16184:	4601                	li	a2,0
   16186:	4681                	li	a3,0
   16188:	00000073          	ecall
   1618c:	03414703          	lbu	a4,52(sp)
   16190:	4509                	li	a0,2
   16192:	00a10623          	sb	a0,12(sp)
   16196:	00a71e63          	bne	a4,a0,161b2 <_ZN20complex_dynamic_type3app17h8f665e057583e8e9E+0x144>
   1619a:	001a8513          	addi	a0,s5,1
   1619e:	04f00613          	li	a2,79
   161a2:	85d2                	mv	a1,s4
   161a4:	00008097          	auipc	ra,0x8
   161a8:	370080e7          	jalr	880(ra) # 1e514 <memcpy>
   161ac:	000a8023          	sb	zero,0(s5)
   161b0:	b77d                	j	1615e <_ZN20complex_dynamic_type3app17h8f665e057583e8e9E+0xf0>
   161b2:	6505                	lui	a0,0x1
   161b4:	b4c50913          	addi	s2,a0,-1204 # b4c <.Lline_table_start1+0x921>
   161b8:	854a                	mv	a0,s2
   161ba:	4581                	li	a1,0
   161bc:	4601                	li	a2,0
   161be:	4681                	li	a3,0
   161c0:	00000073          	ecall
   161c4:	00c14983          	lbu	s3,12(sp)
   161c8:	001a8513          	addi	a0,s5,1
   161cc:	04f00613          	li	a2,79
   161d0:	85d2                	mv	a1,s4
   161d2:	00008097          	auipc	ra,0x8
   161d6:	342080e7          	jalr	834(ra) # 1e514 <memcpy>
   161da:	4509                	li	a0,2
   161dc:	000a8023          	sb	zero,0(s5)
   161e0:	f6a98fe3          	beq	s3,a0,1615e <_ZN20complex_dynamic_type3app17h8f665e057583e8e9E+0xf0>
   161e4:	45a5                	li	a1,9
   161e6:	854a                	mv	a0,s2
   161e8:	4601                	li	a2,0
   161ea:	4681                	li	a3,0
   161ec:	874e                	mv	a4,s3
   161ee:	00000073          	ecall
   161f2:	b7b5                	j	1615e <_ZN20complex_dynamic_type3app17h8f665e057583e8e9E+0xf0>

000161f4 <_ZN20complex_dynamic_type3app17h92d4c5f690b15731E>:
   161f4:	7171                	addi	sp,sp,-176
   161f6:	d706                	sw	ra,172(sp)
   161f8:	d522                	sw	s0,168(sp)
   161fa:	d326                	sw	s1,164(sp)
   161fc:	d14a                	sw	s2,160(sp)
   161fe:	cf4e                	sw	s3,156(sp)
   16200:	cd52                	sw	s4,152(sp)
   16202:	cb56                	sw	s5,148(sp)
   16204:	8aaa                	mv	s5,a0
   16206:	4409                	li	s0,2
   16208:	00810423          	sb	s0,8(sp)
   1620c:	00910493          	addi	s1,sp,9
   16210:	04f00613          	li	a2,79
   16214:	8526                	mv	a0,s1
   16216:	00008097          	auipc	ra,0x8
   1621a:	2fe080e7          	jalr	766(ra) # 1e514 <memcpy>
   1621e:	05910a13          	addi	s4,sp,89
   16222:	03b00613          	li	a2,59
   16226:	8552                	mv	a0,s4
   16228:	4581                	li	a1,0
   1622a:	00008097          	auipc	ra,0x8
   1622e:	27e080e7          	jalr	638(ra) # 1e4a8 <memset>
   16232:	8626                	mv	a2,s1
   16234:	04810c23          	sb	s0,88(sp)
   16238:	6505                	lui	a0,0x1
   1623a:	4491                	li	s1,4
   1623c:	45a1                	li	a1,8
   1623e:	a0650793          	addi	a5,a0,-1530 # a06 <.Lline_table_start1+0x7db>
   16242:	04f00693          	li	a3,79
   16246:	4711                	li	a4,4
   16248:	853e                	mv	a0,a5
   1624a:	00000073          	ecall
   1624e:	00851863          	bne	a0,s0,1625e <_ZN20complex_dynamic_type3app17h92d4c5f690b15731E+0x6a>
   16252:	4505                	li	a0,1
   16254:	00aa8023          	sb	a0,0(s5)
   16258:	00baa223          	sw	a1,4(s5)
   1625c:	a0bd                	j	162ca <_ZN20complex_dynamic_type3app17h92d4c5f690b15731E+0xd6>
   1625e:	853e                	mv	a0,a5
   16260:	8652                	mv	a2,s4
   16262:	00910423          	sb	s1,8(sp)
   16266:	478d                	li	a5,3
   16268:	4595                	li	a1,5
   1626a:	03b00693          	li	a3,59
   1626e:	470d                	li	a4,3
   16270:	00000073          	ecall
   16274:	00851d63          	bne	a0,s0,1628e <_ZN20complex_dynamic_type3app17h92d4c5f690b15731E+0x9a>
   16278:	05814703          	lbu	a4,88(sp)
   1627c:	4505                	li	a0,1
   1627e:	4609                	li	a2,2
   16280:	00aa8023          	sb	a0,0(s5)
   16284:	00baa223          	sw	a1,4(s5)
   16288:	02c71963          	bne	a4,a2,162ba <_ZN20complex_dynamic_type3app17h92d4c5f690b15731E+0xc6>
   1628c:	a83d                	j	162ca <_ZN20complex_dynamic_type3app17h92d4c5f690b15731E+0xd6>
   1628e:	4681                	li	a3,0
   16290:	04f10c23          	sb	a5,88(sp)
   16294:	6505                	lui	a0,0x1
   16296:	45a1                	li	a1,8
   16298:	4615                	li	a2,5
   1629a:	4709                	li	a4,2
   1629c:	a0650513          	addi	a0,a0,-1530 # a06 <.Lline_table_start1+0x7db>
   162a0:	08000793          	li	a5,128
   162a4:	00000073          	ecall
   162a8:	4609                	li	a2,2
   162aa:	04f57663          	bgeu	a0,a5,162f6 <_ZN20complex_dynamic_type3app17h92d4c5f690b15731E+0x102>
   162ae:	4505                	li	a0,1
   162b0:	00aa8023          	sb	a0,0(s5)
   162b4:	00baa223          	sw	a1,4(s5)
   162b8:	470d                	li	a4,3
   162ba:	6505                	lui	a0,0x1
   162bc:	a0650513          	addi	a0,a0,-1530 # a06 <.Lline_table_start1+0x7db>
   162c0:	4595                	li	a1,5
   162c2:	4601                	li	a2,0
   162c4:	4681                	li	a3,0
   162c6:	00000073          	ecall
   162ca:	00814703          	lbu	a4,8(sp)
   162ce:	4509                	li	a0,2
   162d0:	00a70a63          	beq	a4,a0,162e4 <_ZN20complex_dynamic_type3app17h92d4c5f690b15731E+0xf0>
   162d4:	6505                	lui	a0,0x1
   162d6:	a0650513          	addi	a0,a0,-1530 # a06 <.Lline_table_start1+0x7db>
   162da:	45a1                	li	a1,8
   162dc:	4601                	li	a2,0
   162de:	4681                	li	a3,0
   162e0:	00000073          	ecall
   162e4:	50ba                	lw	ra,172(sp)
   162e6:	542a                	lw	s0,168(sp)
   162e8:	549a                	lw	s1,164(sp)
   162ea:	590a                	lw	s2,160(sp)
   162ec:	49fa                	lw	s3,156(sp)
   162ee:	4a6a                	lw	s4,152(sp)
   162f0:	4ada                	lw	s5,148(sp)
   162f2:	614d                	addi	sp,sp,176
   162f4:	8082                	ret
   162f6:	00814703          	lbu	a4,8(sp)
   162fa:	00c71463          	bne	a4,a2,16302 <_ZN20complex_dynamic_type3app17h92d4c5f690b15731E+0x10e>
   162fe:	470d                	li	a4,3
   16300:	a825                	j	16338 <_ZN20complex_dynamic_type3app17h92d4c5f690b15731E+0x144>
   16302:	6505                	lui	a0,0x1
   16304:	a0650513          	addi	a0,a0,-1530 # a06 <.Lline_table_start1+0x7db>
   16308:	45a1                	li	a1,8
   1630a:	4601                	li	a2,0
   1630c:	4681                	li	a3,0
   1630e:	00000073          	ecall
   16312:	05814703          	lbu	a4,88(sp)
   16316:	4509                	li	a0,2
   16318:	00a10423          	sb	a0,8(sp)
   1631c:	00a71e63          	bne	a4,a0,16338 <_ZN20complex_dynamic_type3app17h92d4c5f690b15731E+0x144>
   16320:	001a8513          	addi	a0,s5,1
   16324:	03b00613          	li	a2,59
   16328:	85d2                	mv	a1,s4
   1632a:	00008097          	auipc	ra,0x8
   1632e:	1ea080e7          	jalr	490(ra) # 1e514 <memcpy>
   16332:	000a8023          	sb	zero,0(s5)
   16336:	b77d                	j	162e4 <_ZN20complex_dynamic_type3app17h92d4c5f690b15731E+0xf0>
   16338:	6505                	lui	a0,0x1
   1633a:	a0650913          	addi	s2,a0,-1530 # a06 <.Lline_table_start1+0x7db>
   1633e:	4595                	li	a1,5
   16340:	854a                	mv	a0,s2
   16342:	4601                	li	a2,0
   16344:	4681                	li	a3,0
   16346:	00000073          	ecall
   1634a:	00814983          	lbu	s3,8(sp)
   1634e:	001a8513          	addi	a0,s5,1
   16352:	03b00613          	li	a2,59
   16356:	85d2                	mv	a1,s4
   16358:	00008097          	auipc	ra,0x8
   1635c:	1bc080e7          	jalr	444(ra) # 1e514 <memcpy>
   16360:	4509                	li	a0,2
   16362:	000a8023          	sb	zero,0(s5)
   16366:	f6a98fe3          	beq	s3,a0,162e4 <_ZN20complex_dynamic_type3app17h92d4c5f690b15731E+0xf0>
   1636a:	45a1                	li	a1,8
   1636c:	854a                	mv	a0,s2
   1636e:	4601                	li	a2,0
   16370:	4681                	li	a3,0
   16372:	874e                	mv	a4,s3
   16374:	00000073          	ecall
   16378:	b7b5                	j	162e4 <_ZN20complex_dynamic_type3app17h92d4c5f690b15731E+0xf0>

0001637a <_ZN20complex_dynamic_type3app17h988b03453713ff5dE>:
   1637a:	7175                	addi	sp,sp,-144
   1637c:	c706                	sw	ra,140(sp)
   1637e:	c522                	sw	s0,136(sp)
   16380:	c326                	sw	s1,132(sp)
   16382:	c14a                	sw	s2,128(sp)
   16384:	dece                	sw	s3,124(sp)
   16386:	dcd2                	sw	s4,120(sp)
   16388:	8a2a                	mv	s4,a0
   1638a:	4409                	li	s0,2
   1638c:	00810723          	sb	s0,14(sp)
   16390:	00f10493          	addi	s1,sp,15
   16394:	464d                	li	a2,19
   16396:	8526                	mv	a0,s1
   16398:	00008097          	auipc	ra,0x8
   1639c:	17c080e7          	jalr	380(ra) # 1e514 <memcpy>
   163a0:	02310993          	addi	s3,sp,35
   163a4:	05500613          	li	a2,85
   163a8:	854e                	mv	a0,s3
   163aa:	4581                	li	a1,0
   163ac:	00008097          	auipc	ra,0x8
   163b0:	0fc080e7          	jalr	252(ra) # 1e4a8 <memset>
   163b4:	8626                	mv	a2,s1
   163b6:	02810123          	sb	s0,34(sp)
   163ba:	4791                	li	a5,4
   163bc:	32e00513          	li	a0,814
   163c0:	45a5                	li	a1,9
   163c2:	46cd                	li	a3,19
   163c4:	4711                	li	a4,4
   163c6:	00000073          	ecall
   163ca:	00851863          	bne	a0,s0,163da <_ZN20complex_dynamic_type3app17h988b03453713ff5dE+0x60>
   163ce:	4505                	li	a0,1
   163d0:	00aa0023          	sb	a0,0(s4)
   163d4:	00ba2223          	sw	a1,4(s4)
   163d8:	a0b5                	j	16444 <_ZN20complex_dynamic_type3app17h988b03453713ff5dE+0xca>
   163da:	864e                	mv	a2,s3
   163dc:	00f10723          	sb	a5,14(sp)
   163e0:	478d                	li	a5,3
   163e2:	32e00513          	li	a0,814
   163e6:	459d                	li	a1,7
   163e8:	05500693          	li	a3,85
   163ec:	470d                	li	a4,3
   163ee:	00000073          	ecall
   163f2:	00851d63          	bne	a0,s0,1640c <_ZN20complex_dynamic_type3app17h988b03453713ff5dE+0x92>
   163f6:	02214703          	lbu	a4,34(sp)
   163fa:	4505                	li	a0,1
   163fc:	4609                	li	a2,2
   163fe:	00aa0023          	sb	a0,0(s4)
   16402:	00ba2223          	sw	a1,4(s4)
   16406:	02c71863          	bne	a4,a2,16436 <_ZN20complex_dynamic_type3app17h988b03453713ff5dE+0xbc>
   1640a:	a82d                	j	16444 <_ZN20complex_dynamic_type3app17h988b03453713ff5dE+0xca>
   1640c:	4681                	li	a3,0
   1640e:	02f10123          	sb	a5,34(sp)
   16412:	32e00513          	li	a0,814
   16416:	45a5                	li	a1,9
   16418:	461d                	li	a2,7
   1641a:	4709                	li	a4,2
   1641c:	08000793          	li	a5,128
   16420:	00000073          	ecall
   16424:	4609                	li	a2,2
   16426:	04f57363          	bgeu	a0,a5,1646c <_ZN20complex_dynamic_type3app17h988b03453713ff5dE+0xf2>
   1642a:	4505                	li	a0,1
   1642c:	00aa0023          	sb	a0,0(s4)
   16430:	00ba2223          	sw	a1,4(s4)
   16434:	470d                	li	a4,3
   16436:	32e00513          	li	a0,814
   1643a:	459d                	li	a1,7
   1643c:	4601                	li	a2,0
   1643e:	4681                	li	a3,0
   16440:	00000073          	ecall
   16444:	00e14703          	lbu	a4,14(sp)
   16448:	4509                	li	a0,2
   1644a:	00a70963          	beq	a4,a0,1645c <_ZN20complex_dynamic_type3app17h988b03453713ff5dE+0xe2>
   1644e:	32e00513          	li	a0,814
   16452:	45a5                	li	a1,9
   16454:	4601                	li	a2,0
   16456:	4681                	li	a3,0
   16458:	00000073          	ecall
   1645c:	40ba                	lw	ra,140(sp)
   1645e:	442a                	lw	s0,136(sp)
   16460:	449a                	lw	s1,132(sp)
   16462:	490a                	lw	s2,128(sp)
   16464:	59f6                	lw	s3,124(sp)
   16466:	5a66                	lw	s4,120(sp)
   16468:	6149                	addi	sp,sp,144
   1646a:	8082                	ret
   1646c:	00e14703          	lbu	a4,14(sp)
   16470:	00c71463          	bne	a4,a2,16478 <_ZN20complex_dynamic_type3app17h988b03453713ff5dE+0xfe>
   16474:	470d                	li	a4,3
   16476:	a81d                	j	164ac <_ZN20complex_dynamic_type3app17h988b03453713ff5dE+0x132>
   16478:	32e00513          	li	a0,814
   1647c:	45a5                	li	a1,9
   1647e:	4601                	li	a2,0
   16480:	4681                	li	a3,0
   16482:	00000073          	ecall
   16486:	02214703          	lbu	a4,34(sp)
   1648a:	4509                	li	a0,2
   1648c:	00a10723          	sb	a0,14(sp)
   16490:	00a71e63          	bne	a4,a0,164ac <_ZN20complex_dynamic_type3app17h988b03453713ff5dE+0x132>
   16494:	001a0513          	addi	a0,s4,1
   16498:	05500613          	li	a2,85
   1649c:	85ce                	mv	a1,s3
   1649e:	00008097          	auipc	ra,0x8
   164a2:	076080e7          	jalr	118(ra) # 1e514 <memcpy>
   164a6:	000a0023          	sb	zero,0(s4)
   164aa:	bf4d                	j	1645c <_ZN20complex_dynamic_type3app17h988b03453713ff5dE+0xe2>
   164ac:	32e00513          	li	a0,814
   164b0:	459d                	li	a1,7
   164b2:	4601                	li	a2,0
   164b4:	4681                	li	a3,0
   164b6:	00000073          	ecall
   164ba:	00e14903          	lbu	s2,14(sp)
   164be:	001a0513          	addi	a0,s4,1
   164c2:	05500613          	li	a2,85
   164c6:	85ce                	mv	a1,s3
   164c8:	00008097          	auipc	ra,0x8
   164cc:	04c080e7          	jalr	76(ra) # 1e514 <memcpy>
   164d0:	4509                	li	a0,2
   164d2:	000a0023          	sb	zero,0(s4)
   164d6:	f8a903e3          	beq	s2,a0,1645c <_ZN20complex_dynamic_type3app17h988b03453713ff5dE+0xe2>
   164da:	32e00513          	li	a0,814
   164de:	45a5                	li	a1,9
   164e0:	4601                	li	a2,0
   164e2:	4681                	li	a3,0
   164e4:	874a                	mv	a4,s2
   164e6:	00000073          	ecall
   164ea:	bf8d                	j	1645c <_ZN20complex_dynamic_type3app17h988b03453713ff5dE+0xe2>

000164ec <_ZN20complex_dynamic_type3app17h9c3554fa4ff2d434E>:
   164ec:	7175                	addi	sp,sp,-144
   164ee:	c706                	sw	ra,140(sp)
   164f0:	c522                	sw	s0,136(sp)
   164f2:	c326                	sw	s1,132(sp)
   164f4:	c14a                	sw	s2,128(sp)
   164f6:	dece                	sw	s3,124(sp)
   164f8:	dcd2                	sw	s4,120(sp)
   164fa:	dad6                	sw	s5,116(sp)
   164fc:	8aaa                	mv	s5,a0
   164fe:	4409                	li	s0,2
   16500:	008101a3          	sb	s0,3(sp)
   16504:	0044                	addi	s1,sp,4
   16506:	05d00613          	li	a2,93
   1650a:	8526                	mv	a0,s1
   1650c:	00008097          	auipc	ra,0x8
   16510:	008080e7          	jalr	8(ra) # 1e514 <memcpy>
   16514:	06210a13          	addi	s4,sp,98
   16518:	4649                	li	a2,18
   1651a:	8552                	mv	a0,s4
   1651c:	4581                	li	a1,0
   1651e:	00008097          	auipc	ra,0x8
   16522:	f8a080e7          	jalr	-118(ra) # 1e4a8 <memset>
   16526:	4581                	li	a1,0
   16528:	8626                	mv	a2,s1
   1652a:	068100a3          	sb	s0,97(sp)
   1652e:	6505                	lui	a0,0x1
   16530:	4491                	li	s1,4
   16532:	5f150793          	addi	a5,a0,1521 # 15f1 <.Lline_table_start1+0x13c6>
   16536:	05d00693          	li	a3,93
   1653a:	4711                	li	a4,4
   1653c:	853e                	mv	a0,a5
   1653e:	00000073          	ecall
   16542:	00851863          	bne	a0,s0,16552 <_ZN20complex_dynamic_type3app17h9c3554fa4ff2d434E+0x66>
   16546:	4505                	li	a0,1
   16548:	00aa8023          	sb	a0,0(s5)
   1654c:	00baa223          	sw	a1,4(s5)
   16550:	a0b5                	j	165bc <_ZN20complex_dynamic_type3app17h9c3554fa4ff2d434E+0xd0>
   16552:	853e                	mv	a0,a5
   16554:	8652                	mv	a2,s4
   16556:	009101a3          	sb	s1,3(sp)
   1655a:	478d                	li	a5,3
   1655c:	4589                	li	a1,2
   1655e:	46c9                	li	a3,18
   16560:	470d                	li	a4,3
   16562:	00000073          	ecall
   16566:	00851d63          	bne	a0,s0,16580 <_ZN20complex_dynamic_type3app17h9c3554fa4ff2d434E+0x94>
   1656a:	06114703          	lbu	a4,97(sp)
   1656e:	4505                	li	a0,1
   16570:	4609                	li	a2,2
   16572:	00aa8023          	sb	a0,0(s5)
   16576:	00baa223          	sw	a1,4(s5)
   1657a:	02c71963          	bne	a4,a2,165ac <_ZN20complex_dynamic_type3app17h9c3554fa4ff2d434E+0xc0>
   1657e:	a83d                	j	165bc <_ZN20complex_dynamic_type3app17h9c3554fa4ff2d434E+0xd0>
   16580:	4581                	li	a1,0
   16582:	4681                	li	a3,0
   16584:	06f100a3          	sb	a5,97(sp)
   16588:	6505                	lui	a0,0x1
   1658a:	4609                	li	a2,2
   1658c:	4709                	li	a4,2
   1658e:	5f150513          	addi	a0,a0,1521 # 15f1 <.Lline_table_start1+0x13c6>
   16592:	08000793          	li	a5,128
   16596:	00000073          	ecall
   1659a:	4609                	li	a2,2
   1659c:	04f57663          	bgeu	a0,a5,165e8 <_ZN20complex_dynamic_type3app17h9c3554fa4ff2d434E+0xfc>
   165a0:	4505                	li	a0,1
   165a2:	00aa8023          	sb	a0,0(s5)
   165a6:	00baa223          	sw	a1,4(s5)
   165aa:	470d                	li	a4,3
   165ac:	6505                	lui	a0,0x1
   165ae:	5f150513          	addi	a0,a0,1521 # 15f1 <.Lline_table_start1+0x13c6>
   165b2:	4589                	li	a1,2
   165b4:	4601                	li	a2,0
   165b6:	4681                	li	a3,0
   165b8:	00000073          	ecall
   165bc:	00314703          	lbu	a4,3(sp)
   165c0:	4509                	li	a0,2
   165c2:	00a70a63          	beq	a4,a0,165d6 <_ZN20complex_dynamic_type3app17h9c3554fa4ff2d434E+0xea>
   165c6:	6505                	lui	a0,0x1
   165c8:	5f150513          	addi	a0,a0,1521 # 15f1 <.Lline_table_start1+0x13c6>
   165cc:	4581                	li	a1,0
   165ce:	4601                	li	a2,0
   165d0:	4681                	li	a3,0
   165d2:	00000073          	ecall
   165d6:	40ba                	lw	ra,140(sp)
   165d8:	442a                	lw	s0,136(sp)
   165da:	449a                	lw	s1,132(sp)
   165dc:	490a                	lw	s2,128(sp)
   165de:	59f6                	lw	s3,124(sp)
   165e0:	5a66                	lw	s4,120(sp)
   165e2:	5ad6                	lw	s5,116(sp)
   165e4:	6149                	addi	sp,sp,144
   165e6:	8082                	ret
   165e8:	00314703          	lbu	a4,3(sp)
   165ec:	00c71463          	bne	a4,a2,165f4 <_ZN20complex_dynamic_type3app17h9c3554fa4ff2d434E+0x108>
   165f0:	470d                	li	a4,3
   165f2:	a81d                	j	16628 <_ZN20complex_dynamic_type3app17h9c3554fa4ff2d434E+0x13c>
   165f4:	6505                	lui	a0,0x1
   165f6:	5f150513          	addi	a0,a0,1521 # 15f1 <.Lline_table_start1+0x13c6>
   165fa:	4581                	li	a1,0
   165fc:	4601                	li	a2,0
   165fe:	4681                	li	a3,0
   16600:	00000073          	ecall
   16604:	06114703          	lbu	a4,97(sp)
   16608:	4509                	li	a0,2
   1660a:	00a101a3          	sb	a0,3(sp)
   1660e:	00a71d63          	bne	a4,a0,16628 <_ZN20complex_dynamic_type3app17h9c3554fa4ff2d434E+0x13c>
   16612:	001a8513          	addi	a0,s5,1
   16616:	4649                	li	a2,18
   16618:	85d2                	mv	a1,s4
   1661a:	00008097          	auipc	ra,0x8
   1661e:	efa080e7          	jalr	-262(ra) # 1e514 <memcpy>
   16622:	000a8023          	sb	zero,0(s5)
   16626:	bf45                	j	165d6 <_ZN20complex_dynamic_type3app17h9c3554fa4ff2d434E+0xea>
   16628:	4601                	li	a2,0
   1662a:	4681                	li	a3,0
   1662c:	6505                	lui	a0,0x1
   1662e:	5f150913          	addi	s2,a0,1521 # 15f1 <.Lline_table_start1+0x13c6>
   16632:	4589                	li	a1,2
   16634:	854a                	mv	a0,s2
   16636:	00000073          	ecall
   1663a:	00314983          	lbu	s3,3(sp)
   1663e:	4409                	li	s0,2
   16640:	001a8513          	addi	a0,s5,1
   16644:	4649                	li	a2,18
   16646:	85d2                	mv	a1,s4
   16648:	00008097          	auipc	ra,0x8
   1664c:	ecc080e7          	jalr	-308(ra) # 1e514 <memcpy>
   16650:	000a8023          	sb	zero,0(s5)
   16654:	f88981e3          	beq	s3,s0,165d6 <_ZN20complex_dynamic_type3app17h9c3554fa4ff2d434E+0xea>
   16658:	854a                	mv	a0,s2
   1665a:	4581                	li	a1,0
   1665c:	4601                	li	a2,0
   1665e:	4681                	li	a3,0
   16660:	874e                	mv	a4,s3
   16662:	00000073          	ecall
   16666:	bf85                	j	165d6 <_ZN20complex_dynamic_type3app17h9c3554fa4ff2d434E+0xea>

00016668 <_ZN20complex_dynamic_type3app17h9e65fe14d038ce6fE>:
   16668:	7139                	addi	sp,sp,-64
   1666a:	de06                	sw	ra,60(sp)
   1666c:	dc22                	sw	s0,56(sp)
   1666e:	da26                	sw	s1,52(sp)
   16670:	d84a                	sw	s2,48(sp)
   16672:	d64e                	sw	s3,44(sp)
   16674:	d452                	sw	s4,40(sp)
   16676:	d256                	sw	s5,36(sp)
   16678:	8aaa                	mv	s5,a0
   1667a:	4409                	li	s0,2
   1667c:	00810023          	sb	s0,0(sp)
   16680:	00110493          	addi	s1,sp,1
   16684:	463d                	li	a2,15
   16686:	8526                	mv	a0,s1
   16688:	00008097          	auipc	ra,0x8
   1668c:	e8c080e7          	jalr	-372(ra) # 1e514 <memcpy>
   16690:	01110a13          	addi	s4,sp,17
   16694:	464d                	li	a2,19
   16696:	8552                	mv	a0,s4
   16698:	4581                	li	a1,0
   1669a:	00008097          	auipc	ra,0x8
   1669e:	e0e080e7          	jalr	-498(ra) # 1e4a8 <memset>
   166a2:	8626                	mv	a2,s1
   166a4:	00810823          	sb	s0,16(sp)
   166a8:	6509                	lui	a0,0x2
   166aa:	4491                	li	s1,4
   166ac:	458d                	li	a1,3
   166ae:	e4b50793          	addi	a5,a0,-437 # 1e4b <.Lline_table_start1+0x1c20>
   166b2:	46bd                	li	a3,15
   166b4:	4711                	li	a4,4
   166b6:	853e                	mv	a0,a5
   166b8:	00000073          	ecall
   166bc:	00851863          	bne	a0,s0,166cc <_ZN20complex_dynamic_type3app17h9e65fe14d038ce6fE+0x64>
   166c0:	4505                	li	a0,1
   166c2:	00aa8023          	sb	a0,0(s5)
   166c6:	00baa223          	sw	a1,4(s5)
   166ca:	a0b5                	j	16736 <_ZN20complex_dynamic_type3app17h9e65fe14d038ce6fE+0xce>
   166cc:	853e                	mv	a0,a5
   166ce:	4581                	li	a1,0
   166d0:	8652                	mv	a2,s4
   166d2:	00910023          	sb	s1,0(sp)
   166d6:	478d                	li	a5,3
   166d8:	46cd                	li	a3,19
   166da:	470d                	li	a4,3
   166dc:	00000073          	ecall
   166e0:	00851d63          	bne	a0,s0,166fa <_ZN20complex_dynamic_type3app17h9e65fe14d038ce6fE+0x92>
   166e4:	01014703          	lbu	a4,16(sp)
   166e8:	4505                	li	a0,1
   166ea:	4609                	li	a2,2
   166ec:	00aa8023          	sb	a0,0(s5)
   166f0:	00baa223          	sw	a1,4(s5)
   166f4:	02c71963          	bne	a4,a2,16726 <_ZN20complex_dynamic_type3app17h9e65fe14d038ce6fE+0xbe>
   166f8:	a83d                	j	16736 <_ZN20complex_dynamic_type3app17h9e65fe14d038ce6fE+0xce>
   166fa:	4601                	li	a2,0
   166fc:	4681                	li	a3,0
   166fe:	00f10823          	sb	a5,16(sp)
   16702:	6509                	lui	a0,0x2
   16704:	458d                	li	a1,3
   16706:	4709                	li	a4,2
   16708:	e4b50513          	addi	a0,a0,-437 # 1e4b <.Lline_table_start1+0x1c20>
   1670c:	08000793          	li	a5,128
   16710:	00000073          	ecall
   16714:	4609                	li	a2,2
   16716:	04f57663          	bgeu	a0,a5,16762 <_ZN20complex_dynamic_type3app17h9e65fe14d038ce6fE+0xfa>
   1671a:	4505                	li	a0,1
   1671c:	00aa8023          	sb	a0,0(s5)
   16720:	00baa223          	sw	a1,4(s5)
   16724:	470d                	li	a4,3
   16726:	6509                	lui	a0,0x2
   16728:	e4b50513          	addi	a0,a0,-437 # 1e4b <.Lline_table_start1+0x1c20>
   1672c:	4581                	li	a1,0
   1672e:	4601                	li	a2,0
   16730:	4681                	li	a3,0
   16732:	00000073          	ecall
   16736:	00014703          	lbu	a4,0(sp)
   1673a:	4509                	li	a0,2
   1673c:	00a70a63          	beq	a4,a0,16750 <_ZN20complex_dynamic_type3app17h9e65fe14d038ce6fE+0xe8>
   16740:	6509                	lui	a0,0x2
   16742:	e4b50513          	addi	a0,a0,-437 # 1e4b <.Lline_table_start1+0x1c20>
   16746:	458d                	li	a1,3
   16748:	4601                	li	a2,0
   1674a:	4681                	li	a3,0
   1674c:	00000073          	ecall
   16750:	50f2                	lw	ra,60(sp)
   16752:	5462                	lw	s0,56(sp)
   16754:	54d2                	lw	s1,52(sp)
   16756:	5942                	lw	s2,48(sp)
   16758:	59b2                	lw	s3,44(sp)
   1675a:	5a22                	lw	s4,40(sp)
   1675c:	5a92                	lw	s5,36(sp)
   1675e:	6121                	addi	sp,sp,64
   16760:	8082                	ret
   16762:	00014703          	lbu	a4,0(sp)
   16766:	00c71463          	bne	a4,a2,1676e <_ZN20complex_dynamic_type3app17h9e65fe14d038ce6fE+0x106>
   1676a:	470d                	li	a4,3
   1676c:	a81d                	j	167a2 <_ZN20complex_dynamic_type3app17h9e65fe14d038ce6fE+0x13a>
   1676e:	6509                	lui	a0,0x2
   16770:	e4b50513          	addi	a0,a0,-437 # 1e4b <.Lline_table_start1+0x1c20>
   16774:	458d                	li	a1,3
   16776:	4601                	li	a2,0
   16778:	4681                	li	a3,0
   1677a:	00000073          	ecall
   1677e:	01014703          	lbu	a4,16(sp)
   16782:	4509                	li	a0,2
   16784:	00a10023          	sb	a0,0(sp)
   16788:	00a71d63          	bne	a4,a0,167a2 <_ZN20complex_dynamic_type3app17h9e65fe14d038ce6fE+0x13a>
   1678c:	001a8513          	addi	a0,s5,1
   16790:	464d                	li	a2,19
   16792:	85d2                	mv	a1,s4
   16794:	00008097          	auipc	ra,0x8
   16798:	d80080e7          	jalr	-640(ra) # 1e514 <memcpy>
   1679c:	000a8023          	sb	zero,0(s5)
   167a0:	bf45                	j	16750 <_ZN20complex_dynamic_type3app17h9e65fe14d038ce6fE+0xe8>
   167a2:	6509                	lui	a0,0x2
   167a4:	e4b50913          	addi	s2,a0,-437 # 1e4b <.Lline_table_start1+0x1c20>
   167a8:	854a                	mv	a0,s2
   167aa:	4581                	li	a1,0
   167ac:	4601                	li	a2,0
   167ae:	4681                	li	a3,0
   167b0:	00000073          	ecall
   167b4:	00014983          	lbu	s3,0(sp)
   167b8:	001a8513          	addi	a0,s5,1
   167bc:	464d                	li	a2,19
   167be:	85d2                	mv	a1,s4
   167c0:	00008097          	auipc	ra,0x8
   167c4:	d54080e7          	jalr	-684(ra) # 1e514 <memcpy>
   167c8:	4509                	li	a0,2
   167ca:	000a8023          	sb	zero,0(s5)
   167ce:	f8a981e3          	beq	s3,a0,16750 <_ZN20complex_dynamic_type3app17h9e65fe14d038ce6fE+0xe8>
   167d2:	458d                	li	a1,3
   167d4:	854a                	mv	a0,s2
   167d6:	4601                	li	a2,0
   167d8:	4681                	li	a3,0
   167da:	874e                	mv	a4,s3
   167dc:	00000073          	ecall
   167e0:	bf85                	j	16750 <_ZN20complex_dynamic_type3app17h9e65fe14d038ce6fE+0xe8>

000167e2 <_ZN20complex_dynamic_type3app17ha02f509586aa5986E>:
   167e2:	7171                	addi	sp,sp,-176
   167e4:	d706                	sw	ra,172(sp)
   167e6:	d522                	sw	s0,168(sp)
   167e8:	d326                	sw	s1,164(sp)
   167ea:	d14a                	sw	s2,160(sp)
   167ec:	cf4e                	sw	s3,156(sp)
   167ee:	cd52                	sw	s4,152(sp)
   167f0:	cb56                	sw	s5,148(sp)
   167f2:	8aaa                	mv	s5,a0
   167f4:	4409                	li	s0,2
   167f6:	00810323          	sb	s0,6(sp)
   167fa:	00710493          	addi	s1,sp,7
   167fe:	05000613          	li	a2,80
   16802:	8526                	mv	a0,s1
   16804:	00008097          	auipc	ra,0x8
   16808:	d10080e7          	jalr	-752(ra) # 1e514 <memcpy>
   1680c:	05810a13          	addi	s4,sp,88
   16810:	03c00613          	li	a2,60
   16814:	8552                	mv	a0,s4
   16816:	4581                	li	a1,0
   16818:	00008097          	auipc	ra,0x8
   1681c:	c90080e7          	jalr	-880(ra) # 1e4a8 <memset>
   16820:	8626                	mv	a2,s1
   16822:	04810ba3          	sb	s0,87(sp)
   16826:	6505                	lui	a0,0x1
   16828:	4491                	li	s1,4
   1682a:	458d                	li	a1,3
   1682c:	d7a50793          	addi	a5,a0,-646 # d7a <.Lline_table_start1+0xb4f>
   16830:	05000693          	li	a3,80
   16834:	4711                	li	a4,4
   16836:	853e                	mv	a0,a5
   16838:	00000073          	ecall
   1683c:	00851863          	bne	a0,s0,1684c <_ZN20complex_dynamic_type3app17ha02f509586aa5986E+0x6a>
   16840:	4505                	li	a0,1
   16842:	00aa8023          	sb	a0,0(s5)
   16846:	00baa223          	sw	a1,4(s5)
   1684a:	a0bd                	j	168b8 <_ZN20complex_dynamic_type3app17ha02f509586aa5986E+0xd6>
   1684c:	853e                	mv	a0,a5
   1684e:	8652                	mv	a2,s4
   16850:	00910323          	sb	s1,6(sp)
   16854:	478d                	li	a5,3
   16856:	45a5                	li	a1,9
   16858:	03c00693          	li	a3,60
   1685c:	470d                	li	a4,3
   1685e:	00000073          	ecall
   16862:	00851d63          	bne	a0,s0,1687c <_ZN20complex_dynamic_type3app17ha02f509586aa5986E+0x9a>
   16866:	05714703          	lbu	a4,87(sp)
   1686a:	4505                	li	a0,1
   1686c:	4609                	li	a2,2
   1686e:	00aa8023          	sb	a0,0(s5)
   16872:	00baa223          	sw	a1,4(s5)
   16876:	02c71963          	bne	a4,a2,168a8 <_ZN20complex_dynamic_type3app17ha02f509586aa5986E+0xc6>
   1687a:	a83d                	j	168b8 <_ZN20complex_dynamic_type3app17ha02f509586aa5986E+0xd6>
   1687c:	4681                	li	a3,0
   1687e:	04f10ba3          	sb	a5,87(sp)
   16882:	6505                	lui	a0,0x1
   16884:	458d                	li	a1,3
   16886:	4625                	li	a2,9
   16888:	4709                	li	a4,2
   1688a:	d7a50513          	addi	a0,a0,-646 # d7a <.Lline_table_start1+0xb4f>
   1688e:	08000793          	li	a5,128
   16892:	00000073          	ecall
   16896:	4609                	li	a2,2
   16898:	04f57663          	bgeu	a0,a5,168e4 <_ZN20complex_dynamic_type3app17ha02f509586aa5986E+0x102>
   1689c:	4505                	li	a0,1
   1689e:	00aa8023          	sb	a0,0(s5)
   168a2:	00baa223          	sw	a1,4(s5)
   168a6:	470d                	li	a4,3
   168a8:	6505                	lui	a0,0x1
   168aa:	d7a50513          	addi	a0,a0,-646 # d7a <.Lline_table_start1+0xb4f>
   168ae:	45a5                	li	a1,9
   168b0:	4601                	li	a2,0
   168b2:	4681                	li	a3,0
   168b4:	00000073          	ecall
   168b8:	00614703          	lbu	a4,6(sp)
   168bc:	4509                	li	a0,2
   168be:	00a70a63          	beq	a4,a0,168d2 <_ZN20complex_dynamic_type3app17ha02f509586aa5986E+0xf0>
   168c2:	6505                	lui	a0,0x1
   168c4:	d7a50513          	addi	a0,a0,-646 # d7a <.Lline_table_start1+0xb4f>
   168c8:	458d                	li	a1,3
   168ca:	4601                	li	a2,0
   168cc:	4681                	li	a3,0
   168ce:	00000073          	ecall
   168d2:	50ba                	lw	ra,172(sp)
   168d4:	542a                	lw	s0,168(sp)
   168d6:	549a                	lw	s1,164(sp)
   168d8:	590a                	lw	s2,160(sp)
   168da:	49fa                	lw	s3,156(sp)
   168dc:	4a6a                	lw	s4,152(sp)
   168de:	4ada                	lw	s5,148(sp)
   168e0:	614d                	addi	sp,sp,176
   168e2:	8082                	ret
   168e4:	00614703          	lbu	a4,6(sp)
   168e8:	00c71463          	bne	a4,a2,168f0 <_ZN20complex_dynamic_type3app17ha02f509586aa5986E+0x10e>
   168ec:	470d                	li	a4,3
   168ee:	a825                	j	16926 <_ZN20complex_dynamic_type3app17ha02f509586aa5986E+0x144>
   168f0:	6505                	lui	a0,0x1
   168f2:	d7a50513          	addi	a0,a0,-646 # d7a <.Lline_table_start1+0xb4f>
   168f6:	458d                	li	a1,3
   168f8:	4601                	li	a2,0
   168fa:	4681                	li	a3,0
   168fc:	00000073          	ecall
   16900:	05714703          	lbu	a4,87(sp)
   16904:	4509                	li	a0,2
   16906:	00a10323          	sb	a0,6(sp)
   1690a:	00a71e63          	bne	a4,a0,16926 <_ZN20complex_dynamic_type3app17ha02f509586aa5986E+0x144>
   1690e:	001a8513          	addi	a0,s5,1
   16912:	03c00613          	li	a2,60
   16916:	85d2                	mv	a1,s4
   16918:	00008097          	auipc	ra,0x8
   1691c:	bfc080e7          	jalr	-1028(ra) # 1e514 <memcpy>
   16920:	000a8023          	sb	zero,0(s5)
   16924:	b77d                	j	168d2 <_ZN20complex_dynamic_type3app17ha02f509586aa5986E+0xf0>
   16926:	6505                	lui	a0,0x1
   16928:	d7a50913          	addi	s2,a0,-646 # d7a <.Lline_table_start1+0xb4f>
   1692c:	45a5                	li	a1,9
   1692e:	854a                	mv	a0,s2
   16930:	4601                	li	a2,0
   16932:	4681                	li	a3,0
   16934:	00000073          	ecall
   16938:	00614983          	lbu	s3,6(sp)
   1693c:	001a8513          	addi	a0,s5,1
   16940:	03c00613          	li	a2,60
   16944:	85d2                	mv	a1,s4
   16946:	00008097          	auipc	ra,0x8
   1694a:	bce080e7          	jalr	-1074(ra) # 1e514 <memcpy>
   1694e:	4509                	li	a0,2
   16950:	000a8023          	sb	zero,0(s5)
   16954:	f6a98fe3          	beq	s3,a0,168d2 <_ZN20complex_dynamic_type3app17ha02f509586aa5986E+0xf0>
   16958:	458d                	li	a1,3
   1695a:	854a                	mv	a0,s2
   1695c:	4601                	li	a2,0
   1695e:	4681                	li	a3,0
   16960:	874e                	mv	a4,s3
   16962:	00000073          	ecall
   16966:	b7b5                	j	168d2 <_ZN20complex_dynamic_type3app17ha02f509586aa5986E+0xf0>

00016968 <_ZN20complex_dynamic_type3app17ha04ca58a98d6ee0dE>:
   16968:	711d                	addi	sp,sp,-96
   1696a:	ce86                	sw	ra,92(sp)
   1696c:	cca2                	sw	s0,88(sp)
   1696e:	caa6                	sw	s1,84(sp)
   16970:	c8ca                	sw	s2,80(sp)
   16972:	c6ce                	sw	s3,76(sp)
   16974:	c4d2                	sw	s4,72(sp)
   16976:	c2d6                	sw	s5,68(sp)
   16978:	8aaa                	mv	s5,a0
   1697a:	4409                	li	s0,2
   1697c:	00810523          	sb	s0,10(sp)
   16980:	00b10493          	addi	s1,sp,11
   16984:	02b00613          	li	a2,43
   16988:	8526                	mv	a0,s1
   1698a:	00008097          	auipc	ra,0x8
   1698e:	b8a080e7          	jalr	-1142(ra) # 1e514 <memcpy>
   16992:	03710a13          	addi	s4,sp,55
   16996:	4635                	li	a2,13
   16998:	8552                	mv	a0,s4
   1699a:	4581                	li	a1,0
   1699c:	00008097          	auipc	ra,0x8
   169a0:	b0c080e7          	jalr	-1268(ra) # 1e4a8 <memset>
   169a4:	8626                	mv	a2,s1
   169a6:	02810b23          	sb	s0,54(sp)
   169aa:	6505                	lui	a0,0x1
   169ac:	4491                	li	s1,4
   169ae:	4599                	li	a1,6
   169b0:	46550793          	addi	a5,a0,1125 # 1465 <.Lline_table_start1+0x123a>
   169b4:	02b00693          	li	a3,43
   169b8:	4711                	li	a4,4
   169ba:	853e                	mv	a0,a5
   169bc:	00000073          	ecall
   169c0:	00851863          	bne	a0,s0,169d0 <_ZN20complex_dynamic_type3app17ha04ca58a98d6ee0dE+0x68>
   169c4:	4505                	li	a0,1
   169c6:	00aa8023          	sb	a0,0(s5)
   169ca:	00baa223          	sw	a1,4(s5)
   169ce:	a0b5                	j	16a3a <_ZN20complex_dynamic_type3app17ha04ca58a98d6ee0dE+0xd2>
   169d0:	853e                	mv	a0,a5
   169d2:	4581                	li	a1,0
   169d4:	8652                	mv	a2,s4
   169d6:	00910523          	sb	s1,10(sp)
   169da:	478d                	li	a5,3
   169dc:	46b5                	li	a3,13
   169de:	470d                	li	a4,3
   169e0:	00000073          	ecall
   169e4:	00851d63          	bne	a0,s0,169fe <_ZN20complex_dynamic_type3app17ha04ca58a98d6ee0dE+0x96>
   169e8:	03614703          	lbu	a4,54(sp)
   169ec:	4505                	li	a0,1
   169ee:	4609                	li	a2,2
   169f0:	00aa8023          	sb	a0,0(s5)
   169f4:	00baa223          	sw	a1,4(s5)
   169f8:	02c71963          	bne	a4,a2,16a2a <_ZN20complex_dynamic_type3app17ha04ca58a98d6ee0dE+0xc2>
   169fc:	a83d                	j	16a3a <_ZN20complex_dynamic_type3app17ha04ca58a98d6ee0dE+0xd2>
   169fe:	4601                	li	a2,0
   16a00:	4681                	li	a3,0
   16a02:	02f10b23          	sb	a5,54(sp)
   16a06:	6505                	lui	a0,0x1
   16a08:	4599                	li	a1,6
   16a0a:	4709                	li	a4,2
   16a0c:	46550513          	addi	a0,a0,1125 # 1465 <.Lline_table_start1+0x123a>
   16a10:	08000793          	li	a5,128
   16a14:	00000073          	ecall
   16a18:	4609                	li	a2,2
   16a1a:	04f57663          	bgeu	a0,a5,16a66 <_ZN20complex_dynamic_type3app17ha04ca58a98d6ee0dE+0xfe>
   16a1e:	4505                	li	a0,1
   16a20:	00aa8023          	sb	a0,0(s5)
   16a24:	00baa223          	sw	a1,4(s5)
   16a28:	470d                	li	a4,3
   16a2a:	6505                	lui	a0,0x1
   16a2c:	46550513          	addi	a0,a0,1125 # 1465 <.Lline_table_start1+0x123a>
   16a30:	4581                	li	a1,0
   16a32:	4601                	li	a2,0
   16a34:	4681                	li	a3,0
   16a36:	00000073          	ecall
   16a3a:	00a14703          	lbu	a4,10(sp)
   16a3e:	4509                	li	a0,2
   16a40:	00a70a63          	beq	a4,a0,16a54 <_ZN20complex_dynamic_type3app17ha04ca58a98d6ee0dE+0xec>
   16a44:	6505                	lui	a0,0x1
   16a46:	46550513          	addi	a0,a0,1125 # 1465 <.Lline_table_start1+0x123a>
   16a4a:	4599                	li	a1,6
   16a4c:	4601                	li	a2,0
   16a4e:	4681                	li	a3,0
   16a50:	00000073          	ecall
   16a54:	40f6                	lw	ra,92(sp)
   16a56:	4466                	lw	s0,88(sp)
   16a58:	44d6                	lw	s1,84(sp)
   16a5a:	4946                	lw	s2,80(sp)
   16a5c:	49b6                	lw	s3,76(sp)
   16a5e:	4a26                	lw	s4,72(sp)
   16a60:	4a96                	lw	s5,68(sp)
   16a62:	6125                	addi	sp,sp,96
   16a64:	8082                	ret
   16a66:	00a14703          	lbu	a4,10(sp)
   16a6a:	00c71463          	bne	a4,a2,16a72 <_ZN20complex_dynamic_type3app17ha04ca58a98d6ee0dE+0x10a>
   16a6e:	470d                	li	a4,3
   16a70:	a81d                	j	16aa6 <_ZN20complex_dynamic_type3app17ha04ca58a98d6ee0dE+0x13e>
   16a72:	6505                	lui	a0,0x1
   16a74:	46550513          	addi	a0,a0,1125 # 1465 <.Lline_table_start1+0x123a>
   16a78:	4599                	li	a1,6
   16a7a:	4601                	li	a2,0
   16a7c:	4681                	li	a3,0
   16a7e:	00000073          	ecall
   16a82:	03614703          	lbu	a4,54(sp)
   16a86:	4509                	li	a0,2
   16a88:	00a10523          	sb	a0,10(sp)
   16a8c:	00a71d63          	bne	a4,a0,16aa6 <_ZN20complex_dynamic_type3app17ha04ca58a98d6ee0dE+0x13e>
   16a90:	001a8513          	addi	a0,s5,1
   16a94:	4635                	li	a2,13
   16a96:	85d2                	mv	a1,s4
   16a98:	00008097          	auipc	ra,0x8
   16a9c:	a7c080e7          	jalr	-1412(ra) # 1e514 <memcpy>
   16aa0:	000a8023          	sb	zero,0(s5)
   16aa4:	bf45                	j	16a54 <_ZN20complex_dynamic_type3app17ha04ca58a98d6ee0dE+0xec>
   16aa6:	6505                	lui	a0,0x1
   16aa8:	46550913          	addi	s2,a0,1125 # 1465 <.Lline_table_start1+0x123a>
   16aac:	854a                	mv	a0,s2
   16aae:	4581                	li	a1,0
   16ab0:	4601                	li	a2,0
   16ab2:	4681                	li	a3,0
   16ab4:	00000073          	ecall
   16ab8:	00a14983          	lbu	s3,10(sp)
   16abc:	001a8513          	addi	a0,s5,1
   16ac0:	4635                	li	a2,13
   16ac2:	85d2                	mv	a1,s4
   16ac4:	00008097          	auipc	ra,0x8
   16ac8:	a50080e7          	jalr	-1456(ra) # 1e514 <memcpy>
   16acc:	4509                	li	a0,2
   16ace:	000a8023          	sb	zero,0(s5)
   16ad2:	f8a981e3          	beq	s3,a0,16a54 <_ZN20complex_dynamic_type3app17ha04ca58a98d6ee0dE+0xec>
   16ad6:	4599                	li	a1,6
   16ad8:	854a                	mv	a0,s2
   16ada:	4601                	li	a2,0
   16adc:	4681                	li	a3,0
   16ade:	874e                	mv	a4,s3
   16ae0:	00000073          	ecall
   16ae4:	bf85                	j	16a54 <_ZN20complex_dynamic_type3app17ha04ca58a98d6ee0dE+0xec>

00016ae6 <_ZN20complex_dynamic_type3app17ha537a485a922ad37E>:
   16ae6:	7171                	addi	sp,sp,-176
   16ae8:	d706                	sw	ra,172(sp)
   16aea:	d522                	sw	s0,168(sp)
   16aec:	d326                	sw	s1,164(sp)
   16aee:	d14a                	sw	s2,160(sp)
   16af0:	cf4e                	sw	s3,156(sp)
   16af2:	cd52                	sw	s4,152(sp)
   16af4:	cb56                	sw	s5,148(sp)
   16af6:	8aaa                	mv	s5,a0
   16af8:	4409                	li	s0,2
   16afa:	008107a3          	sb	s0,15(sp)
   16afe:	0804                	addi	s1,sp,16
   16b00:	02a00613          	li	a2,42
   16b04:	8526                	mv	a0,s1
   16b06:	00008097          	auipc	ra,0x8
   16b0a:	a0e080e7          	jalr	-1522(ra) # 1e514 <memcpy>
   16b0e:	03b10a13          	addi	s4,sp,59
   16b12:	05900613          	li	a2,89
   16b16:	8552                	mv	a0,s4
   16b18:	4581                	li	a1,0
   16b1a:	00008097          	auipc	ra,0x8
   16b1e:	98e080e7          	jalr	-1650(ra) # 1e4a8 <memset>
   16b22:	8626                	mv	a2,s1
   16b24:	02810d23          	sb	s0,58(sp)
   16b28:	6505                	lui	a0,0x1
   16b2a:	4805                	li	a6,1
   16b2c:	4491                	li	s1,4
   16b2e:	4585                	li	a1,1
   16b30:	ed250793          	addi	a5,a0,-302 # ed2 <.Lline_table_start1+0xca7>
   16b34:	02a00693          	li	a3,42
   16b38:	4711                	li	a4,4
   16b3a:	853e                	mv	a0,a5
   16b3c:	00000073          	ecall
   16b40:	00851763          	bne	a0,s0,16b4e <_ZN20complex_dynamic_type3app17ha537a485a922ad37E+0x68>
   16b44:	010a8023          	sb	a6,0(s5)
   16b48:	00baa223          	sw	a1,4(s5)
   16b4c:	a0bd                	j	16bba <_ZN20complex_dynamic_type3app17ha537a485a922ad37E+0xd4>
   16b4e:	853e                	mv	a0,a5
   16b50:	8652                	mv	a2,s4
   16b52:	009107a3          	sb	s1,15(sp)
   16b56:	478d                	li	a5,3
   16b58:	458d                	li	a1,3
   16b5a:	05900693          	li	a3,89
   16b5e:	470d                	li	a4,3
   16b60:	00000073          	ecall
   16b64:	00851d63          	bne	a0,s0,16b7e <_ZN20complex_dynamic_type3app17ha537a485a922ad37E+0x98>
   16b68:	03a14703          	lbu	a4,58(sp)
   16b6c:	4505                	li	a0,1
   16b6e:	4609                	li	a2,2
   16b70:	00aa8023          	sb	a0,0(s5)
   16b74:	00baa223          	sw	a1,4(s5)
   16b78:	02c71963          	bne	a4,a2,16baa <_ZN20complex_dynamic_type3app17ha537a485a922ad37E+0xc4>
   16b7c:	a83d                	j	16bba <_ZN20complex_dynamic_type3app17ha537a485a922ad37E+0xd4>
   16b7e:	4681                	li	a3,0
   16b80:	02f10d23          	sb	a5,58(sp)
   16b84:	6505                	lui	a0,0x1
   16b86:	4785                	li	a5,1
   16b88:	4585                	li	a1,1
   16b8a:	460d                	li	a2,3
   16b8c:	4709                	li	a4,2
   16b8e:	ed250513          	addi	a0,a0,-302 # ed2 <.Lline_table_start1+0xca7>
   16b92:	08000493          	li	s1,128
   16b96:	00000073          	ecall
   16b9a:	4609                	li	a2,2
   16b9c:	04957563          	bgeu	a0,s1,16be6 <_ZN20complex_dynamic_type3app17ha537a485a922ad37E+0x100>
   16ba0:	00fa8023          	sb	a5,0(s5)
   16ba4:	00baa223          	sw	a1,4(s5)
   16ba8:	470d                	li	a4,3
   16baa:	6505                	lui	a0,0x1
   16bac:	ed250513          	addi	a0,a0,-302 # ed2 <.Lline_table_start1+0xca7>
   16bb0:	458d                	li	a1,3
   16bb2:	4601                	li	a2,0
   16bb4:	4681                	li	a3,0
   16bb6:	00000073          	ecall
   16bba:	00f14703          	lbu	a4,15(sp)
   16bbe:	4509                	li	a0,2
   16bc0:	00a70a63          	beq	a4,a0,16bd4 <_ZN20complex_dynamic_type3app17ha537a485a922ad37E+0xee>
   16bc4:	6505                	lui	a0,0x1
   16bc6:	ed250513          	addi	a0,a0,-302 # ed2 <.Lline_table_start1+0xca7>
   16bca:	4585                	li	a1,1
   16bcc:	4601                	li	a2,0
   16bce:	4681                	li	a3,0
   16bd0:	00000073          	ecall
   16bd4:	50ba                	lw	ra,172(sp)
   16bd6:	542a                	lw	s0,168(sp)
   16bd8:	549a                	lw	s1,164(sp)
   16bda:	590a                	lw	s2,160(sp)
   16bdc:	49fa                	lw	s3,156(sp)
   16bde:	4a6a                	lw	s4,152(sp)
   16be0:	4ada                	lw	s5,148(sp)
   16be2:	614d                	addi	sp,sp,176
   16be4:	8082                	ret
   16be6:	00f14703          	lbu	a4,15(sp)
   16bea:	00c71463          	bne	a4,a2,16bf2 <_ZN20complex_dynamic_type3app17ha537a485a922ad37E+0x10c>
   16bee:	470d                	li	a4,3
   16bf0:	a825                	j	16c28 <_ZN20complex_dynamic_type3app17ha537a485a922ad37E+0x142>
   16bf2:	6505                	lui	a0,0x1
   16bf4:	ed250513          	addi	a0,a0,-302 # ed2 <.Lline_table_start1+0xca7>
   16bf8:	4585                	li	a1,1
   16bfa:	4601                	li	a2,0
   16bfc:	4681                	li	a3,0
   16bfe:	00000073          	ecall
   16c02:	03a14703          	lbu	a4,58(sp)
   16c06:	4509                	li	a0,2
   16c08:	00a107a3          	sb	a0,15(sp)
   16c0c:	00a71e63          	bne	a4,a0,16c28 <_ZN20complex_dynamic_type3app17ha537a485a922ad37E+0x142>
   16c10:	001a8513          	addi	a0,s5,1
   16c14:	05900613          	li	a2,89
   16c18:	85d2                	mv	a1,s4
   16c1a:	00008097          	auipc	ra,0x8
   16c1e:	8fa080e7          	jalr	-1798(ra) # 1e514 <memcpy>
   16c22:	000a8023          	sb	zero,0(s5)
   16c26:	b77d                	j	16bd4 <_ZN20complex_dynamic_type3app17ha537a485a922ad37E+0xee>
   16c28:	6505                	lui	a0,0x1
   16c2a:	ed250913          	addi	s2,a0,-302 # ed2 <.Lline_table_start1+0xca7>
   16c2e:	458d                	li	a1,3
   16c30:	854a                	mv	a0,s2
   16c32:	4601                	li	a2,0
   16c34:	4681                	li	a3,0
   16c36:	00000073          	ecall
   16c3a:	00f14983          	lbu	s3,15(sp)
   16c3e:	001a8513          	addi	a0,s5,1
   16c42:	05900613          	li	a2,89
   16c46:	85d2                	mv	a1,s4
   16c48:	00008097          	auipc	ra,0x8
   16c4c:	8cc080e7          	jalr	-1844(ra) # 1e514 <memcpy>
   16c50:	4509                	li	a0,2
   16c52:	000a8023          	sb	zero,0(s5)
   16c56:	f6a98fe3          	beq	s3,a0,16bd4 <_ZN20complex_dynamic_type3app17ha537a485a922ad37E+0xee>
   16c5a:	4585                	li	a1,1
   16c5c:	854a                	mv	a0,s2
   16c5e:	4601                	li	a2,0
   16c60:	4681                	li	a3,0
   16c62:	874e                	mv	a4,s3
   16c64:	00000073          	ecall
   16c68:	b7b5                	j	16bd4 <_ZN20complex_dynamic_type3app17ha537a485a922ad37E+0xee>

00016c6a <_ZN20complex_dynamic_type3app17ha7e698a9204c3c13E>:
   16c6a:	7175                	addi	sp,sp,-144
   16c6c:	c706                	sw	ra,140(sp)
   16c6e:	c522                	sw	s0,136(sp)
   16c70:	c326                	sw	s1,132(sp)
   16c72:	c14a                	sw	s2,128(sp)
   16c74:	dece                	sw	s3,124(sp)
   16c76:	dcd2                	sw	s4,120(sp)
   16c78:	dad6                	sw	s5,116(sp)
   16c7a:	8aaa                	mv	s5,a0
   16c7c:	4409                	li	s0,2
   16c7e:	00810723          	sb	s0,14(sp)
   16c82:	00f10493          	addi	s1,sp,15
   16c86:	03200613          	li	a2,50
   16c8a:	8526                	mv	a0,s1
   16c8c:	00008097          	auipc	ra,0x8
   16c90:	888080e7          	jalr	-1912(ra) # 1e514 <memcpy>
   16c94:	04210a13          	addi	s4,sp,66
   16c98:	03200613          	li	a2,50
   16c9c:	8552                	mv	a0,s4
   16c9e:	4581                	li	a1,0
   16ca0:	00008097          	auipc	ra,0x8
   16ca4:	808080e7          	jalr	-2040(ra) # 1e4a8 <memset>
   16ca8:	8626                	mv	a2,s1
   16caa:	048100a3          	sb	s0,65(sp)
   16cae:	6509                	lui	a0,0x2
   16cb0:	4491                	li	s1,4
   16cb2:	458d                	li	a1,3
   16cb4:	f0750793          	addi	a5,a0,-249 # 1f07 <.Lline_table_start1+0x1cdc>
   16cb8:	03200693          	li	a3,50
   16cbc:	4711                	li	a4,4
   16cbe:	853e                	mv	a0,a5
   16cc0:	00000073          	ecall
   16cc4:	00851863          	bne	a0,s0,16cd4 <_ZN20complex_dynamic_type3app17ha7e698a9204c3c13E+0x6a>
   16cc8:	4505                	li	a0,1
   16cca:	00aa8023          	sb	a0,0(s5)
   16cce:	00baa223          	sw	a1,4(s5)
   16cd2:	a0bd                	j	16d40 <_ZN20complex_dynamic_type3app17ha7e698a9204c3c13E+0xd6>
   16cd4:	853e                	mv	a0,a5
   16cd6:	8652                	mv	a2,s4
   16cd8:	00910723          	sb	s1,14(sp)
   16cdc:	4785                	li	a5,1
   16cde:	448d                	li	s1,3
   16ce0:	4585                	li	a1,1
   16ce2:	03200693          	li	a3,50
   16ce6:	470d                	li	a4,3
   16ce8:	00000073          	ecall
   16cec:	00851c63          	bne	a0,s0,16d04 <_ZN20complex_dynamic_type3app17ha7e698a9204c3c13E+0x9a>
   16cf0:	04114703          	lbu	a4,65(sp)
   16cf4:	4509                	li	a0,2
   16cf6:	00fa8023          	sb	a5,0(s5)
   16cfa:	00baa223          	sw	a1,4(s5)
   16cfe:	02a71963          	bne	a4,a0,16d30 <_ZN20complex_dynamic_type3app17ha7e698a9204c3c13E+0xc6>
   16d02:	a83d                	j	16d40 <_ZN20complex_dynamic_type3app17ha7e698a9204c3c13E+0xd6>
   16d04:	4681                	li	a3,0
   16d06:	049100a3          	sb	s1,65(sp)
   16d0a:	6509                	lui	a0,0x2
   16d0c:	4785                	li	a5,1
   16d0e:	458d                	li	a1,3
   16d10:	4605                	li	a2,1
   16d12:	4709                	li	a4,2
   16d14:	f0750513          	addi	a0,a0,-249 # 1f07 <.Lline_table_start1+0x1cdc>
   16d18:	08000493          	li	s1,128
   16d1c:	00000073          	ecall
   16d20:	4609                	li	a2,2
   16d22:	04957563          	bgeu	a0,s1,16d6c <_ZN20complex_dynamic_type3app17ha7e698a9204c3c13E+0x102>
   16d26:	00fa8023          	sb	a5,0(s5)
   16d2a:	00baa223          	sw	a1,4(s5)
   16d2e:	470d                	li	a4,3
   16d30:	6509                	lui	a0,0x2
   16d32:	f0750513          	addi	a0,a0,-249 # 1f07 <.Lline_table_start1+0x1cdc>
   16d36:	4585                	li	a1,1
   16d38:	4601                	li	a2,0
   16d3a:	4681                	li	a3,0
   16d3c:	00000073          	ecall
   16d40:	00e14703          	lbu	a4,14(sp)
   16d44:	4509                	li	a0,2
   16d46:	00a70a63          	beq	a4,a0,16d5a <_ZN20complex_dynamic_type3app17ha7e698a9204c3c13E+0xf0>
   16d4a:	6509                	lui	a0,0x2
   16d4c:	f0750513          	addi	a0,a0,-249 # 1f07 <.Lline_table_start1+0x1cdc>
   16d50:	458d                	li	a1,3
   16d52:	4601                	li	a2,0
   16d54:	4681                	li	a3,0
   16d56:	00000073          	ecall
   16d5a:	40ba                	lw	ra,140(sp)
   16d5c:	442a                	lw	s0,136(sp)
   16d5e:	449a                	lw	s1,132(sp)
   16d60:	490a                	lw	s2,128(sp)
   16d62:	59f6                	lw	s3,124(sp)
   16d64:	5a66                	lw	s4,120(sp)
   16d66:	5ad6                	lw	s5,116(sp)
   16d68:	6149                	addi	sp,sp,144
   16d6a:	8082                	ret
   16d6c:	00e14703          	lbu	a4,14(sp)
   16d70:	00c71463          	bne	a4,a2,16d78 <_ZN20complex_dynamic_type3app17ha7e698a9204c3c13E+0x10e>
   16d74:	470d                	li	a4,3
   16d76:	a825                	j	16dae <_ZN20complex_dynamic_type3app17ha7e698a9204c3c13E+0x144>
   16d78:	6509                	lui	a0,0x2
   16d7a:	f0750513          	addi	a0,a0,-249 # 1f07 <.Lline_table_start1+0x1cdc>
   16d7e:	458d                	li	a1,3
   16d80:	4601                	li	a2,0
   16d82:	4681                	li	a3,0
   16d84:	00000073          	ecall
   16d88:	04114703          	lbu	a4,65(sp)
   16d8c:	4509                	li	a0,2
   16d8e:	00a10723          	sb	a0,14(sp)
   16d92:	00a71e63          	bne	a4,a0,16dae <_ZN20complex_dynamic_type3app17ha7e698a9204c3c13E+0x144>
   16d96:	001a8513          	addi	a0,s5,1
   16d9a:	03200613          	li	a2,50
   16d9e:	85d2                	mv	a1,s4
   16da0:	00007097          	auipc	ra,0x7
   16da4:	774080e7          	jalr	1908(ra) # 1e514 <memcpy>
   16da8:	000a8023          	sb	zero,0(s5)
   16dac:	b77d                	j	16d5a <_ZN20complex_dynamic_type3app17ha7e698a9204c3c13E+0xf0>
   16dae:	6509                	lui	a0,0x2
   16db0:	f0750913          	addi	s2,a0,-249 # 1f07 <.Lline_table_start1+0x1cdc>
   16db4:	4585                	li	a1,1
   16db6:	854a                	mv	a0,s2
   16db8:	4601                	li	a2,0
   16dba:	4681                	li	a3,0
   16dbc:	00000073          	ecall
   16dc0:	00e14983          	lbu	s3,14(sp)
   16dc4:	001a8513          	addi	a0,s5,1
   16dc8:	03200613          	li	a2,50
   16dcc:	85d2                	mv	a1,s4
   16dce:	00007097          	auipc	ra,0x7
   16dd2:	746080e7          	jalr	1862(ra) # 1e514 <memcpy>
   16dd6:	4509                	li	a0,2
   16dd8:	000a8023          	sb	zero,0(s5)
   16ddc:	f6a98fe3          	beq	s3,a0,16d5a <_ZN20complex_dynamic_type3app17ha7e698a9204c3c13E+0xf0>
   16de0:	458d                	li	a1,3
   16de2:	854a                	mv	a0,s2
   16de4:	4601                	li	a2,0
   16de6:	4681                	li	a3,0
   16de8:	874e                	mv	a4,s3
   16dea:	00000073          	ecall
   16dee:	b7b5                	j	16d5a <_ZN20complex_dynamic_type3app17ha7e698a9204c3c13E+0xf0>

00016df0 <_ZN20complex_dynamic_type3app17haaa68c0d5e280327E>:
   16df0:	7159                	addi	sp,sp,-112
   16df2:	d686                	sw	ra,108(sp)
   16df4:	d4a2                	sw	s0,104(sp)
   16df6:	d2a6                	sw	s1,100(sp)
   16df8:	d0ca                	sw	s2,96(sp)
   16dfa:	cece                	sw	s3,92(sp)
   16dfc:	ccd2                	sw	s4,88(sp)
   16dfe:	8a2a                	mv	s4,a0
   16e00:	4409                	li	s0,2
   16e02:	00810623          	sb	s0,12(sp)
   16e06:	00d10493          	addi	s1,sp,13
   16e0a:	4679                	li	a2,30
   16e0c:	8526                	mv	a0,s1
   16e0e:	00007097          	auipc	ra,0x7
   16e12:	706080e7          	jalr	1798(ra) # 1e514 <memcpy>
   16e16:	02c10993          	addi	s3,sp,44
   16e1a:	02c00613          	li	a2,44
   16e1e:	854e                	mv	a0,s3
   16e20:	4581                	li	a1,0
   16e22:	00007097          	auipc	ra,0x7
   16e26:	686080e7          	jalr	1670(ra) # 1e4a8 <memset>
   16e2a:	8626                	mv	a2,s1
   16e2c:	028105a3          	sb	s0,43(sp)
   16e30:	4791                	li	a5,4
   16e32:	3fb00513          	li	a0,1019
   16e36:	459d                	li	a1,7
   16e38:	46f9                	li	a3,30
   16e3a:	4711                	li	a4,4
   16e3c:	00000073          	ecall
   16e40:	00851863          	bne	a0,s0,16e50 <_ZN20complex_dynamic_type3app17haaa68c0d5e280327E+0x60>
   16e44:	4505                	li	a0,1
   16e46:	00aa0023          	sb	a0,0(s4)
   16e4a:	00ba2223          	sw	a1,4(s4)
   16e4e:	a0b5                	j	16eba <_ZN20complex_dynamic_type3app17haaa68c0d5e280327E+0xca>
   16e50:	4581                	li	a1,0
   16e52:	864e                	mv	a2,s3
   16e54:	00f10623          	sb	a5,12(sp)
   16e58:	478d                	li	a5,3
   16e5a:	3fb00513          	li	a0,1019
   16e5e:	02c00693          	li	a3,44
   16e62:	470d                	li	a4,3
   16e64:	00000073          	ecall
   16e68:	00851d63          	bne	a0,s0,16e82 <_ZN20complex_dynamic_type3app17haaa68c0d5e280327E+0x92>
   16e6c:	02b14703          	lbu	a4,43(sp)
   16e70:	4505                	li	a0,1
   16e72:	4609                	li	a2,2
   16e74:	00aa0023          	sb	a0,0(s4)
   16e78:	00ba2223          	sw	a1,4(s4)
   16e7c:	02c71863          	bne	a4,a2,16eac <_ZN20complex_dynamic_type3app17haaa68c0d5e280327E+0xbc>
   16e80:	a82d                	j	16eba <_ZN20complex_dynamic_type3app17haaa68c0d5e280327E+0xca>
   16e82:	4601                	li	a2,0
   16e84:	4681                	li	a3,0
   16e86:	02f105a3          	sb	a5,43(sp)
   16e8a:	3fb00513          	li	a0,1019
   16e8e:	459d                	li	a1,7
   16e90:	4709                	li	a4,2
   16e92:	08000793          	li	a5,128
   16e96:	00000073          	ecall
   16e9a:	4609                	li	a2,2
   16e9c:	04f57363          	bgeu	a0,a5,16ee2 <_ZN20complex_dynamic_type3app17haaa68c0d5e280327E+0xf2>
   16ea0:	4505                	li	a0,1
   16ea2:	00aa0023          	sb	a0,0(s4)
   16ea6:	00ba2223          	sw	a1,4(s4)
   16eaa:	470d                	li	a4,3
   16eac:	3fb00513          	li	a0,1019
   16eb0:	4581                	li	a1,0
   16eb2:	4601                	li	a2,0
   16eb4:	4681                	li	a3,0
   16eb6:	00000073          	ecall
   16eba:	00c14703          	lbu	a4,12(sp)
   16ebe:	4509                	li	a0,2
   16ec0:	00a70963          	beq	a4,a0,16ed2 <_ZN20complex_dynamic_type3app17haaa68c0d5e280327E+0xe2>
   16ec4:	3fb00513          	li	a0,1019
   16ec8:	459d                	li	a1,7
   16eca:	4601                	li	a2,0
   16ecc:	4681                	li	a3,0
   16ece:	00000073          	ecall
   16ed2:	50b6                	lw	ra,108(sp)
   16ed4:	5426                	lw	s0,104(sp)
   16ed6:	5496                	lw	s1,100(sp)
   16ed8:	5906                	lw	s2,96(sp)
   16eda:	49f6                	lw	s3,92(sp)
   16edc:	4a66                	lw	s4,88(sp)
   16ede:	6165                	addi	sp,sp,112
   16ee0:	8082                	ret
   16ee2:	00c14703          	lbu	a4,12(sp)
   16ee6:	00c71463          	bne	a4,a2,16eee <_ZN20complex_dynamic_type3app17haaa68c0d5e280327E+0xfe>
   16eea:	470d                	li	a4,3
   16eec:	a81d                	j	16f22 <_ZN20complex_dynamic_type3app17haaa68c0d5e280327E+0x132>
   16eee:	3fb00513          	li	a0,1019
   16ef2:	459d                	li	a1,7
   16ef4:	4601                	li	a2,0
   16ef6:	4681                	li	a3,0
   16ef8:	00000073          	ecall
   16efc:	02b14703          	lbu	a4,43(sp)
   16f00:	4509                	li	a0,2
   16f02:	00a10623          	sb	a0,12(sp)
   16f06:	00a71e63          	bne	a4,a0,16f22 <_ZN20complex_dynamic_type3app17haaa68c0d5e280327E+0x132>
   16f0a:	001a0513          	addi	a0,s4,1
   16f0e:	02c00613          	li	a2,44
   16f12:	85ce                	mv	a1,s3
   16f14:	00007097          	auipc	ra,0x7
   16f18:	600080e7          	jalr	1536(ra) # 1e514 <memcpy>
   16f1c:	000a0023          	sb	zero,0(s4)
   16f20:	bf4d                	j	16ed2 <_ZN20complex_dynamic_type3app17haaa68c0d5e280327E+0xe2>
   16f22:	3fb00513          	li	a0,1019
   16f26:	4581                	li	a1,0
   16f28:	4601                	li	a2,0
   16f2a:	4681                	li	a3,0
   16f2c:	00000073          	ecall
   16f30:	00c14903          	lbu	s2,12(sp)
   16f34:	001a0513          	addi	a0,s4,1
   16f38:	02c00613          	li	a2,44
   16f3c:	85ce                	mv	a1,s3
   16f3e:	00007097          	auipc	ra,0x7
   16f42:	5d6080e7          	jalr	1494(ra) # 1e514 <memcpy>
   16f46:	4509                	li	a0,2
   16f48:	000a0023          	sb	zero,0(s4)
   16f4c:	f8a903e3          	beq	s2,a0,16ed2 <_ZN20complex_dynamic_type3app17haaa68c0d5e280327E+0xe2>
   16f50:	3fb00513          	li	a0,1019
   16f54:	459d                	li	a1,7
   16f56:	4601                	li	a2,0
   16f58:	4681                	li	a3,0
   16f5a:	874a                	mv	a4,s2
   16f5c:	00000073          	ecall
   16f60:	bf8d                	j	16ed2 <_ZN20complex_dynamic_type3app17haaa68c0d5e280327E+0xe2>

00016f62 <_ZN20complex_dynamic_type3app17hac28b02b68137eabE>:
   16f62:	7131                	addi	sp,sp,-192
   16f64:	df06                	sw	ra,188(sp)
   16f66:	dd22                	sw	s0,184(sp)
   16f68:	db26                	sw	s1,180(sp)
   16f6a:	d94a                	sw	s2,176(sp)
   16f6c:	d74e                	sw	s3,172(sp)
   16f6e:	d552                	sw	s4,168(sp)
   16f70:	d356                	sw	s5,164(sp)
   16f72:	8aaa                	mv	s5,a0
   16f74:	4409                	li	s0,2
   16f76:	00810323          	sb	s0,6(sp)
   16f7a:	00710493          	addi	s1,sp,7
   16f7e:	04600613          	li	a2,70
   16f82:	8526                	mv	a0,s1
   16f84:	00007097          	auipc	ra,0x7
   16f88:	590080e7          	jalr	1424(ra) # 1e514 <memcpy>
   16f8c:	04e10a13          	addi	s4,sp,78
   16f90:	05600613          	li	a2,86
   16f94:	8552                	mv	a0,s4
   16f96:	4581                	li	a1,0
   16f98:	00007097          	auipc	ra,0x7
   16f9c:	510080e7          	jalr	1296(ra) # 1e4a8 <memset>
   16fa0:	8626                	mv	a2,s1
   16fa2:	048106a3          	sb	s0,77(sp)
   16fa6:	6509                	lui	a0,0x2
   16fa8:	4491                	li	s1,4
   16faa:	459d                	li	a1,7
   16fac:	e5050793          	addi	a5,a0,-432 # 1e50 <.Lline_table_start1+0x1c25>
   16fb0:	04600693          	li	a3,70
   16fb4:	4711                	li	a4,4
   16fb6:	853e                	mv	a0,a5
   16fb8:	00000073          	ecall
   16fbc:	00851863          	bne	a0,s0,16fcc <_ZN20complex_dynamic_type3app17hac28b02b68137eabE+0x6a>
   16fc0:	4505                	li	a0,1
   16fc2:	00aa8023          	sb	a0,0(s5)
   16fc6:	00baa223          	sw	a1,4(s5)
   16fca:	a0bd                	j	17038 <_ZN20complex_dynamic_type3app17hac28b02b68137eabE+0xd6>
   16fcc:	853e                	mv	a0,a5
   16fce:	8652                	mv	a2,s4
   16fd0:	00910323          	sb	s1,6(sp)
   16fd4:	478d                	li	a5,3
   16fd6:	458d                	li	a1,3
   16fd8:	05600693          	li	a3,86
   16fdc:	470d                	li	a4,3
   16fde:	00000073          	ecall
   16fe2:	00851d63          	bne	a0,s0,16ffc <_ZN20complex_dynamic_type3app17hac28b02b68137eabE+0x9a>
   16fe6:	04d14703          	lbu	a4,77(sp)
   16fea:	4505                	li	a0,1
   16fec:	4609                	li	a2,2
   16fee:	00aa8023          	sb	a0,0(s5)
   16ff2:	00baa223          	sw	a1,4(s5)
   16ff6:	02c71963          	bne	a4,a2,17028 <_ZN20complex_dynamic_type3app17hac28b02b68137eabE+0xc6>
   16ffa:	a83d                	j	17038 <_ZN20complex_dynamic_type3app17hac28b02b68137eabE+0xd6>
   16ffc:	4681                	li	a3,0
   16ffe:	04f106a3          	sb	a5,77(sp)
   17002:	6509                	lui	a0,0x2
   17004:	459d                	li	a1,7
   17006:	460d                	li	a2,3
   17008:	4709                	li	a4,2
   1700a:	e5050513          	addi	a0,a0,-432 # 1e50 <.Lline_table_start1+0x1c25>
   1700e:	08000793          	li	a5,128
   17012:	00000073          	ecall
   17016:	4609                	li	a2,2
   17018:	04f57663          	bgeu	a0,a5,17064 <_ZN20complex_dynamic_type3app17hac28b02b68137eabE+0x102>
   1701c:	4505                	li	a0,1
   1701e:	00aa8023          	sb	a0,0(s5)
   17022:	00baa223          	sw	a1,4(s5)
   17026:	470d                	li	a4,3
   17028:	6509                	lui	a0,0x2
   1702a:	e5050513          	addi	a0,a0,-432 # 1e50 <.Lline_table_start1+0x1c25>
   1702e:	458d                	li	a1,3
   17030:	4601                	li	a2,0
   17032:	4681                	li	a3,0
   17034:	00000073          	ecall
   17038:	00614703          	lbu	a4,6(sp)
   1703c:	4509                	li	a0,2
   1703e:	00a70a63          	beq	a4,a0,17052 <_ZN20complex_dynamic_type3app17hac28b02b68137eabE+0xf0>
   17042:	6509                	lui	a0,0x2
   17044:	e5050513          	addi	a0,a0,-432 # 1e50 <.Lline_table_start1+0x1c25>
   17048:	459d                	li	a1,7
   1704a:	4601                	li	a2,0
   1704c:	4681                	li	a3,0
   1704e:	00000073          	ecall
   17052:	50fa                	lw	ra,188(sp)
   17054:	546a                	lw	s0,184(sp)
   17056:	54da                	lw	s1,180(sp)
   17058:	594a                	lw	s2,176(sp)
   1705a:	59ba                	lw	s3,172(sp)
   1705c:	5a2a                	lw	s4,168(sp)
   1705e:	5a9a                	lw	s5,164(sp)
   17060:	6129                	addi	sp,sp,192
   17062:	8082                	ret
   17064:	00614703          	lbu	a4,6(sp)
   17068:	00c71463          	bne	a4,a2,17070 <_ZN20complex_dynamic_type3app17hac28b02b68137eabE+0x10e>
   1706c:	470d                	li	a4,3
   1706e:	a825                	j	170a6 <_ZN20complex_dynamic_type3app17hac28b02b68137eabE+0x144>
   17070:	6509                	lui	a0,0x2
   17072:	e5050513          	addi	a0,a0,-432 # 1e50 <.Lline_table_start1+0x1c25>
   17076:	459d                	li	a1,7
   17078:	4601                	li	a2,0
   1707a:	4681                	li	a3,0
   1707c:	00000073          	ecall
   17080:	04d14703          	lbu	a4,77(sp)
   17084:	4509                	li	a0,2
   17086:	00a10323          	sb	a0,6(sp)
   1708a:	00a71e63          	bne	a4,a0,170a6 <_ZN20complex_dynamic_type3app17hac28b02b68137eabE+0x144>
   1708e:	001a8513          	addi	a0,s5,1
   17092:	05600613          	li	a2,86
   17096:	85d2                	mv	a1,s4
   17098:	00007097          	auipc	ra,0x7
   1709c:	47c080e7          	jalr	1148(ra) # 1e514 <memcpy>
   170a0:	000a8023          	sb	zero,0(s5)
   170a4:	b77d                	j	17052 <_ZN20complex_dynamic_type3app17hac28b02b68137eabE+0xf0>
   170a6:	6509                	lui	a0,0x2
   170a8:	e5050913          	addi	s2,a0,-432 # 1e50 <.Lline_table_start1+0x1c25>
   170ac:	458d                	li	a1,3
   170ae:	854a                	mv	a0,s2
   170b0:	4601                	li	a2,0
   170b2:	4681                	li	a3,0
   170b4:	00000073          	ecall
   170b8:	00614983          	lbu	s3,6(sp)
   170bc:	001a8513          	addi	a0,s5,1
   170c0:	05600613          	li	a2,86
   170c4:	85d2                	mv	a1,s4
   170c6:	00007097          	auipc	ra,0x7
   170ca:	44e080e7          	jalr	1102(ra) # 1e514 <memcpy>
   170ce:	4509                	li	a0,2
   170d0:	000a8023          	sb	zero,0(s5)
   170d4:	f6a98fe3          	beq	s3,a0,17052 <_ZN20complex_dynamic_type3app17hac28b02b68137eabE+0xf0>
   170d8:	459d                	li	a1,7
   170da:	854a                	mv	a0,s2
   170dc:	4601                	li	a2,0
   170de:	4681                	li	a3,0
   170e0:	874e                	mv	a4,s3
   170e2:	00000073          	ecall
   170e6:	b7b5                	j	17052 <_ZN20complex_dynamic_type3app17hac28b02b68137eabE+0xf0>

000170e8 <_ZN20complex_dynamic_type3app17haed2c6f068172331E>:
   170e8:	7175                	addi	sp,sp,-144
   170ea:	c706                	sw	ra,140(sp)
   170ec:	c522                	sw	s0,136(sp)
   170ee:	c326                	sw	s1,132(sp)
   170f0:	c14a                	sw	s2,128(sp)
   170f2:	dece                	sw	s3,124(sp)
   170f4:	dcd2                	sw	s4,120(sp)
   170f6:	8a2a                	mv	s4,a0
   170f8:	4409                	li	s0,2
   170fa:	00810523          	sb	s0,10(sp)
   170fe:	00b10493          	addi	s1,sp,11
   17102:	03800613          	li	a2,56
   17106:	8526                	mv	a0,s1
   17108:	00007097          	auipc	ra,0x7
   1710c:	40c080e7          	jalr	1036(ra) # 1e514 <memcpy>
   17110:	04410993          	addi	s3,sp,68
   17114:	03400613          	li	a2,52
   17118:	854e                	mv	a0,s3
   1711a:	4581                	li	a1,0
   1711c:	00007097          	auipc	ra,0x7
   17120:	38c080e7          	jalr	908(ra) # 1e4a8 <memset>
   17124:	8626                	mv	a2,s1
   17126:	048101a3          	sb	s0,67(sp)
   1712a:	4791                	li	a5,4
   1712c:	12e00513          	li	a0,302
   17130:	45a1                	li	a1,8
   17132:	03800693          	li	a3,56
   17136:	4711                	li	a4,4
   17138:	00000073          	ecall
   1713c:	00851863          	bne	a0,s0,1714c <_ZN20complex_dynamic_type3app17haed2c6f068172331E+0x64>
   17140:	4505                	li	a0,1
   17142:	00aa0023          	sb	a0,0(s4)
   17146:	00ba2223          	sw	a1,4(s4)
   1714a:	a0b5                	j	171b6 <_ZN20complex_dynamic_type3app17haed2c6f068172331E+0xce>
   1714c:	864e                	mv	a2,s3
   1714e:	00f10523          	sb	a5,10(sp)
   17152:	478d                	li	a5,3
   17154:	12e00513          	li	a0,302
   17158:	458d                	li	a1,3
   1715a:	03400693          	li	a3,52
   1715e:	470d                	li	a4,3
   17160:	00000073          	ecall
   17164:	00851d63          	bne	a0,s0,1717e <_ZN20complex_dynamic_type3app17haed2c6f068172331E+0x96>
   17168:	04314703          	lbu	a4,67(sp)
   1716c:	4505                	li	a0,1
   1716e:	4609                	li	a2,2
   17170:	00aa0023          	sb	a0,0(s4)
   17174:	00ba2223          	sw	a1,4(s4)
   17178:	02c71863          	bne	a4,a2,171a8 <_ZN20complex_dynamic_type3app17haed2c6f068172331E+0xc0>
   1717c:	a82d                	j	171b6 <_ZN20complex_dynamic_type3app17haed2c6f068172331E+0xce>
   1717e:	4681                	li	a3,0
   17180:	04f101a3          	sb	a5,67(sp)
   17184:	12e00513          	li	a0,302
   17188:	45a1                	li	a1,8
   1718a:	460d                	li	a2,3
   1718c:	4709                	li	a4,2
   1718e:	08000793          	li	a5,128
   17192:	00000073          	ecall
   17196:	4609                	li	a2,2
   17198:	04f57363          	bgeu	a0,a5,171de <_ZN20complex_dynamic_type3app17haed2c6f068172331E+0xf6>
   1719c:	4505                	li	a0,1
   1719e:	00aa0023          	sb	a0,0(s4)
   171a2:	00ba2223          	sw	a1,4(s4)
   171a6:	470d                	li	a4,3
   171a8:	12e00513          	li	a0,302
   171ac:	458d                	li	a1,3
   171ae:	4601                	li	a2,0
   171b0:	4681                	li	a3,0
   171b2:	00000073          	ecall
   171b6:	00a14703          	lbu	a4,10(sp)
   171ba:	4509                	li	a0,2
   171bc:	00a70963          	beq	a4,a0,171ce <_ZN20complex_dynamic_type3app17haed2c6f068172331E+0xe6>
   171c0:	12e00513          	li	a0,302
   171c4:	45a1                	li	a1,8
   171c6:	4601                	li	a2,0
   171c8:	4681                	li	a3,0
   171ca:	00000073          	ecall
   171ce:	40ba                	lw	ra,140(sp)
   171d0:	442a                	lw	s0,136(sp)
   171d2:	449a                	lw	s1,132(sp)
   171d4:	490a                	lw	s2,128(sp)
   171d6:	59f6                	lw	s3,124(sp)
   171d8:	5a66                	lw	s4,120(sp)
   171da:	6149                	addi	sp,sp,144
   171dc:	8082                	ret
   171de:	00a14703          	lbu	a4,10(sp)
   171e2:	00c71463          	bne	a4,a2,171ea <_ZN20complex_dynamic_type3app17haed2c6f068172331E+0x102>
   171e6:	470d                	li	a4,3
   171e8:	a81d                	j	1721e <_ZN20complex_dynamic_type3app17haed2c6f068172331E+0x136>
   171ea:	12e00513          	li	a0,302
   171ee:	45a1                	li	a1,8
   171f0:	4601                	li	a2,0
   171f2:	4681                	li	a3,0
   171f4:	00000073          	ecall
   171f8:	04314703          	lbu	a4,67(sp)
   171fc:	4509                	li	a0,2
   171fe:	00a10523          	sb	a0,10(sp)
   17202:	00a71e63          	bne	a4,a0,1721e <_ZN20complex_dynamic_type3app17haed2c6f068172331E+0x136>
   17206:	001a0513          	addi	a0,s4,1
   1720a:	03400613          	li	a2,52
   1720e:	85ce                	mv	a1,s3
   17210:	00007097          	auipc	ra,0x7
   17214:	304080e7          	jalr	772(ra) # 1e514 <memcpy>
   17218:	000a0023          	sb	zero,0(s4)
   1721c:	bf4d                	j	171ce <_ZN20complex_dynamic_type3app17haed2c6f068172331E+0xe6>
   1721e:	12e00513          	li	a0,302
   17222:	458d                	li	a1,3
   17224:	4601                	li	a2,0
   17226:	4681                	li	a3,0
   17228:	00000073          	ecall
   1722c:	00a14903          	lbu	s2,10(sp)
   17230:	001a0513          	addi	a0,s4,1
   17234:	03400613          	li	a2,52
   17238:	85ce                	mv	a1,s3
   1723a:	00007097          	auipc	ra,0x7
   1723e:	2da080e7          	jalr	730(ra) # 1e514 <memcpy>
   17242:	4509                	li	a0,2
   17244:	000a0023          	sb	zero,0(s4)
   17248:	f8a903e3          	beq	s2,a0,171ce <_ZN20complex_dynamic_type3app17haed2c6f068172331E+0xe6>
   1724c:	12e00513          	li	a0,302
   17250:	45a1                	li	a1,8
   17252:	4601                	li	a2,0
   17254:	4681                	li	a3,0
   17256:	874a                	mv	a4,s2
   17258:	00000073          	ecall
   1725c:	bf8d                	j	171ce <_ZN20complex_dynamic_type3app17haed2c6f068172331E+0xe6>

0001725e <_ZN20complex_dynamic_type3app17hb1bb560aedbef39eE>:
   1725e:	7135                	addi	sp,sp,-160
   17260:	cf06                	sw	ra,156(sp)
   17262:	cd22                	sw	s0,152(sp)
   17264:	cb26                	sw	s1,148(sp)
   17266:	c94a                	sw	s2,144(sp)
   17268:	c74e                	sw	s3,140(sp)
   1726a:	c552                	sw	s4,136(sp)
   1726c:	c356                	sw	s5,132(sp)
   1726e:	8aaa                	mv	s5,a0
   17270:	4409                	li	s0,2
   17272:	00810723          	sb	s0,14(sp)
   17276:	00f10493          	addi	s1,sp,15
   1727a:	03c00613          	li	a2,60
   1727e:	8526                	mv	a0,s1
   17280:	00007097          	auipc	ra,0x7
   17284:	294080e7          	jalr	660(ra) # 1e514 <memcpy>
   17288:	04c10a13          	addi	s4,sp,76
   1728c:	03800613          	li	a2,56
   17290:	8552                	mv	a0,s4
   17292:	4581                	li	a1,0
   17294:	00007097          	auipc	ra,0x7
   17298:	214080e7          	jalr	532(ra) # 1e4a8 <memset>
   1729c:	8626                	mv	a2,s1
   1729e:	048105a3          	sb	s0,75(sp)
   172a2:	6509                	lui	a0,0x2
   172a4:	4491                	li	s1,4
   172a6:	458d                	li	a1,3
   172a8:	d1950793          	addi	a5,a0,-743 # 1d19 <.Lline_table_start1+0x1aee>
   172ac:	03c00693          	li	a3,60
   172b0:	4711                	li	a4,4
   172b2:	853e                	mv	a0,a5
   172b4:	00000073          	ecall
   172b8:	00851863          	bne	a0,s0,172c8 <_ZN20complex_dynamic_type3app17hb1bb560aedbef39eE+0x6a>
   172bc:	4505                	li	a0,1
   172be:	00aa8023          	sb	a0,0(s5)
   172c2:	00baa223          	sw	a1,4(s5)
   172c6:	a0bd                	j	17334 <_ZN20complex_dynamic_type3app17hb1bb560aedbef39eE+0xd6>
   172c8:	853e                	mv	a0,a5
   172ca:	8652                	mv	a2,s4
   172cc:	00910723          	sb	s1,14(sp)
   172d0:	478d                	li	a5,3
   172d2:	458d                	li	a1,3
   172d4:	03800693          	li	a3,56
   172d8:	470d                	li	a4,3
   172da:	00000073          	ecall
   172de:	00851d63          	bne	a0,s0,172f8 <_ZN20complex_dynamic_type3app17hb1bb560aedbef39eE+0x9a>
   172e2:	04b14703          	lbu	a4,75(sp)
   172e6:	4505                	li	a0,1
   172e8:	4609                	li	a2,2
   172ea:	00aa8023          	sb	a0,0(s5)
   172ee:	00baa223          	sw	a1,4(s5)
   172f2:	02c71963          	bne	a4,a2,17324 <_ZN20complex_dynamic_type3app17hb1bb560aedbef39eE+0xc6>
   172f6:	a83d                	j	17334 <_ZN20complex_dynamic_type3app17hb1bb560aedbef39eE+0xd6>
   172f8:	4681                	li	a3,0
   172fa:	04f105a3          	sb	a5,75(sp)
   172fe:	6509                	lui	a0,0x2
   17300:	458d                	li	a1,3
   17302:	460d                	li	a2,3
   17304:	4709                	li	a4,2
   17306:	d1950513          	addi	a0,a0,-743 # 1d19 <.Lline_table_start1+0x1aee>
   1730a:	08000793          	li	a5,128
   1730e:	00000073          	ecall
   17312:	4609                	li	a2,2
   17314:	04f57663          	bgeu	a0,a5,17360 <_ZN20complex_dynamic_type3app17hb1bb560aedbef39eE+0x102>
   17318:	4505                	li	a0,1
   1731a:	00aa8023          	sb	a0,0(s5)
   1731e:	00baa223          	sw	a1,4(s5)
   17322:	470d                	li	a4,3
   17324:	6509                	lui	a0,0x2
   17326:	d1950513          	addi	a0,a0,-743 # 1d19 <.Lline_table_start1+0x1aee>
   1732a:	458d                	li	a1,3
   1732c:	4601                	li	a2,0
   1732e:	4681                	li	a3,0
   17330:	00000073          	ecall
   17334:	00e14703          	lbu	a4,14(sp)
   17338:	4509                	li	a0,2
   1733a:	00a70a63          	beq	a4,a0,1734e <_ZN20complex_dynamic_type3app17hb1bb560aedbef39eE+0xf0>
   1733e:	6509                	lui	a0,0x2
   17340:	d1950513          	addi	a0,a0,-743 # 1d19 <.Lline_table_start1+0x1aee>
   17344:	458d                	li	a1,3
   17346:	4601                	li	a2,0
   17348:	4681                	li	a3,0
   1734a:	00000073          	ecall
   1734e:	40fa                	lw	ra,156(sp)
   17350:	446a                	lw	s0,152(sp)
   17352:	44da                	lw	s1,148(sp)
   17354:	494a                	lw	s2,144(sp)
   17356:	49ba                	lw	s3,140(sp)
   17358:	4a2a                	lw	s4,136(sp)
   1735a:	4a9a                	lw	s5,132(sp)
   1735c:	610d                	addi	sp,sp,160
   1735e:	8082                	ret
   17360:	00e14703          	lbu	a4,14(sp)
   17364:	00c71463          	bne	a4,a2,1736c <_ZN20complex_dynamic_type3app17hb1bb560aedbef39eE+0x10e>
   17368:	470d                	li	a4,3
   1736a:	a825                	j	173a2 <_ZN20complex_dynamic_type3app17hb1bb560aedbef39eE+0x144>
   1736c:	6509                	lui	a0,0x2
   1736e:	d1950513          	addi	a0,a0,-743 # 1d19 <.Lline_table_start1+0x1aee>
   17372:	458d                	li	a1,3
   17374:	4601                	li	a2,0
   17376:	4681                	li	a3,0
   17378:	00000073          	ecall
   1737c:	04b14703          	lbu	a4,75(sp)
   17380:	4509                	li	a0,2
   17382:	00a10723          	sb	a0,14(sp)
   17386:	00a71e63          	bne	a4,a0,173a2 <_ZN20complex_dynamic_type3app17hb1bb560aedbef39eE+0x144>
   1738a:	001a8513          	addi	a0,s5,1
   1738e:	03800613          	li	a2,56
   17392:	85d2                	mv	a1,s4
   17394:	00007097          	auipc	ra,0x7
   17398:	180080e7          	jalr	384(ra) # 1e514 <memcpy>
   1739c:	000a8023          	sb	zero,0(s5)
   173a0:	b77d                	j	1734e <_ZN20complex_dynamic_type3app17hb1bb560aedbef39eE+0xf0>
   173a2:	6509                	lui	a0,0x2
   173a4:	d1950913          	addi	s2,a0,-743 # 1d19 <.Lline_table_start1+0x1aee>
   173a8:	458d                	li	a1,3
   173aa:	854a                	mv	a0,s2
   173ac:	4601                	li	a2,0
   173ae:	4681                	li	a3,0
   173b0:	00000073          	ecall
   173b4:	00e14983          	lbu	s3,14(sp)
   173b8:	001a8513          	addi	a0,s5,1
   173bc:	03800613          	li	a2,56
   173c0:	85d2                	mv	a1,s4
   173c2:	00007097          	auipc	ra,0x7
   173c6:	152080e7          	jalr	338(ra) # 1e514 <memcpy>
   173ca:	4509                	li	a0,2
   173cc:	000a8023          	sb	zero,0(s5)
   173d0:	f6a98fe3          	beq	s3,a0,1734e <_ZN20complex_dynamic_type3app17hb1bb560aedbef39eE+0xf0>
   173d4:	458d                	li	a1,3
   173d6:	854a                	mv	a0,s2
   173d8:	4601                	li	a2,0
   173da:	4681                	li	a3,0
   173dc:	874e                	mv	a4,s3
   173de:	00000073          	ecall
   173e2:	b7b5                	j	1734e <_ZN20complex_dynamic_type3app17hb1bb560aedbef39eE+0xf0>

000173e4 <_ZN20complex_dynamic_type3app17hb32bab99c356d53dE>:
   173e4:	7131                	addi	sp,sp,-192
   173e6:	df06                	sw	ra,188(sp)
   173e8:	dd22                	sw	s0,184(sp)
   173ea:	db26                	sw	s1,180(sp)
   173ec:	d94a                	sw	s2,176(sp)
   173ee:	d74e                	sw	s3,172(sp)
   173f0:	d552                	sw	s4,168(sp)
   173f2:	d356                	sw	s5,164(sp)
   173f4:	8aaa                	mv	s5,a0
   173f6:	4409                	li	s0,2
   173f8:	00810123          	sb	s0,2(sp)
   173fc:	00310493          	addi	s1,sp,3
   17400:	05300613          	li	a2,83
   17404:	8526                	mv	a0,s1
   17406:	00007097          	auipc	ra,0x7
   1740a:	10e080e7          	jalr	270(ra) # 1e514 <memcpy>
   1740e:	05710a13          	addi	s4,sp,87
   17412:	04d00613          	li	a2,77
   17416:	8552                	mv	a0,s4
   17418:	4581                	li	a1,0
   1741a:	00007097          	auipc	ra,0x7
   1741e:	08e080e7          	jalr	142(ra) # 1e4a8 <memset>
   17422:	8626                	mv	a2,s1
   17424:	04810b23          	sb	s0,86(sp)
   17428:	6505                	lui	a0,0x1
   1742a:	4491                	li	s1,4
   1742c:	45a5                	li	a1,9
   1742e:	6ba50793          	addi	a5,a0,1722 # 16ba <.Lline_table_start1+0x148f>
   17432:	05300693          	li	a3,83
   17436:	4711                	li	a4,4
   17438:	853e                	mv	a0,a5
   1743a:	00000073          	ecall
   1743e:	00851863          	bne	a0,s0,1744e <_ZN20complex_dynamic_type3app17hb32bab99c356d53dE+0x6a>
   17442:	4505                	li	a0,1
   17444:	00aa8023          	sb	a0,0(s5)
   17448:	00baa223          	sw	a1,4(s5)
   1744c:	a0bd                	j	174ba <_ZN20complex_dynamic_type3app17hb32bab99c356d53dE+0xd6>
   1744e:	853e                	mv	a0,a5
   17450:	8652                	mv	a2,s4
   17452:	00910123          	sb	s1,2(sp)
   17456:	478d                	li	a5,3
   17458:	4591                	li	a1,4
   1745a:	04d00693          	li	a3,77
   1745e:	470d                	li	a4,3
   17460:	00000073          	ecall
   17464:	00851d63          	bne	a0,s0,1747e <_ZN20complex_dynamic_type3app17hb32bab99c356d53dE+0x9a>
   17468:	05614703          	lbu	a4,86(sp)
   1746c:	4505                	li	a0,1
   1746e:	4609                	li	a2,2
   17470:	00aa8023          	sb	a0,0(s5)
   17474:	00baa223          	sw	a1,4(s5)
   17478:	02c71963          	bne	a4,a2,174aa <_ZN20complex_dynamic_type3app17hb32bab99c356d53dE+0xc6>
   1747c:	a83d                	j	174ba <_ZN20complex_dynamic_type3app17hb32bab99c356d53dE+0xd6>
   1747e:	4681                	li	a3,0
   17480:	04f10b23          	sb	a5,86(sp)
   17484:	6505                	lui	a0,0x1
   17486:	45a5                	li	a1,9
   17488:	4611                	li	a2,4
   1748a:	4709                	li	a4,2
   1748c:	6ba50513          	addi	a0,a0,1722 # 16ba <.Lline_table_start1+0x148f>
   17490:	08000793          	li	a5,128
   17494:	00000073          	ecall
   17498:	4609                	li	a2,2
   1749a:	04f57663          	bgeu	a0,a5,174e6 <_ZN20complex_dynamic_type3app17hb32bab99c356d53dE+0x102>
   1749e:	4505                	li	a0,1
   174a0:	00aa8023          	sb	a0,0(s5)
   174a4:	00baa223          	sw	a1,4(s5)
   174a8:	470d                	li	a4,3
   174aa:	6505                	lui	a0,0x1
   174ac:	6ba50513          	addi	a0,a0,1722 # 16ba <.Lline_table_start1+0x148f>
   174b0:	4591                	li	a1,4
   174b2:	4601                	li	a2,0
   174b4:	4681                	li	a3,0
   174b6:	00000073          	ecall
   174ba:	00214703          	lbu	a4,2(sp)
   174be:	4509                	li	a0,2
   174c0:	00a70a63          	beq	a4,a0,174d4 <_ZN20complex_dynamic_type3app17hb32bab99c356d53dE+0xf0>
   174c4:	6505                	lui	a0,0x1
   174c6:	6ba50513          	addi	a0,a0,1722 # 16ba <.Lline_table_start1+0x148f>
   174ca:	45a5                	li	a1,9
   174cc:	4601                	li	a2,0
   174ce:	4681                	li	a3,0
   174d0:	00000073          	ecall
   174d4:	50fa                	lw	ra,188(sp)
   174d6:	546a                	lw	s0,184(sp)
   174d8:	54da                	lw	s1,180(sp)
   174da:	594a                	lw	s2,176(sp)
   174dc:	59ba                	lw	s3,172(sp)
   174de:	5a2a                	lw	s4,168(sp)
   174e0:	5a9a                	lw	s5,164(sp)
   174e2:	6129                	addi	sp,sp,192
   174e4:	8082                	ret
   174e6:	00214703          	lbu	a4,2(sp)
   174ea:	00c71463          	bne	a4,a2,174f2 <_ZN20complex_dynamic_type3app17hb32bab99c356d53dE+0x10e>
   174ee:	470d                	li	a4,3
   174f0:	a825                	j	17528 <_ZN20complex_dynamic_type3app17hb32bab99c356d53dE+0x144>
   174f2:	6505                	lui	a0,0x1
   174f4:	6ba50513          	addi	a0,a0,1722 # 16ba <.Lline_table_start1+0x148f>
   174f8:	45a5                	li	a1,9
   174fa:	4601                	li	a2,0
   174fc:	4681                	li	a3,0
   174fe:	00000073          	ecall
   17502:	05614703          	lbu	a4,86(sp)
   17506:	4509                	li	a0,2
   17508:	00a10123          	sb	a0,2(sp)
   1750c:	00a71e63          	bne	a4,a0,17528 <_ZN20complex_dynamic_type3app17hb32bab99c356d53dE+0x144>
   17510:	001a8513          	addi	a0,s5,1
   17514:	04d00613          	li	a2,77
   17518:	85d2                	mv	a1,s4
   1751a:	00007097          	auipc	ra,0x7
   1751e:	ffa080e7          	jalr	-6(ra) # 1e514 <memcpy>
   17522:	000a8023          	sb	zero,0(s5)
   17526:	b77d                	j	174d4 <_ZN20complex_dynamic_type3app17hb32bab99c356d53dE+0xf0>
   17528:	6505                	lui	a0,0x1
   1752a:	6ba50913          	addi	s2,a0,1722 # 16ba <.Lline_table_start1+0x148f>
   1752e:	4591                	li	a1,4
   17530:	854a                	mv	a0,s2
   17532:	4601                	li	a2,0
   17534:	4681                	li	a3,0
   17536:	00000073          	ecall
   1753a:	00214983          	lbu	s3,2(sp)
   1753e:	001a8513          	addi	a0,s5,1
   17542:	04d00613          	li	a2,77
   17546:	85d2                	mv	a1,s4
   17548:	00007097          	auipc	ra,0x7
   1754c:	fcc080e7          	jalr	-52(ra) # 1e514 <memcpy>
   17550:	4509                	li	a0,2
   17552:	000a8023          	sb	zero,0(s5)
   17556:	f6a98fe3          	beq	s3,a0,174d4 <_ZN20complex_dynamic_type3app17hb32bab99c356d53dE+0xf0>
   1755a:	45a5                	li	a1,9
   1755c:	854a                	mv	a0,s2
   1755e:	4601                	li	a2,0
   17560:	4681                	li	a3,0
   17562:	874e                	mv	a4,s3
   17564:	00000073          	ecall
   17568:	b7b5                	j	174d4 <_ZN20complex_dynamic_type3app17hb32bab99c356d53dE+0xf0>

0001756a <_ZN20complex_dynamic_type3app17hb37eb83cac0e2e24E>:
   1756a:	7159                	addi	sp,sp,-112
   1756c:	d686                	sw	ra,108(sp)
   1756e:	d4a2                	sw	s0,104(sp)
   17570:	d2a6                	sw	s1,100(sp)
   17572:	d0ca                	sw	s2,96(sp)
   17574:	cece                	sw	s3,92(sp)
   17576:	ccd2                	sw	s4,88(sp)
   17578:	cad6                	sw	s5,84(sp)
   1757a:	8aaa                	mv	s5,a0
   1757c:	4409                	li	s0,2
   1757e:	008103a3          	sb	s0,7(sp)
   17582:	0024                	addi	s1,sp,8
   17584:	02100613          	li	a2,33
   17588:	8526                	mv	a0,s1
   1758a:	00007097          	auipc	ra,0x7
   1758e:	f8a080e7          	jalr	-118(ra) # 1e514 <memcpy>
   17592:	02a10a13          	addi	s4,sp,42
   17596:	02a00613          	li	a2,42
   1759a:	8552                	mv	a0,s4
   1759c:	4581                	li	a1,0
   1759e:	00007097          	auipc	ra,0x7
   175a2:	f0a080e7          	jalr	-246(ra) # 1e4a8 <memset>
   175a6:	8626                	mv	a2,s1
   175a8:	028104a3          	sb	s0,41(sp)
   175ac:	6505                	lui	a0,0x1
   175ae:	4805                	li	a6,1
   175b0:	4491                	li	s1,4
   175b2:	4585                	li	a1,1
   175b4:	5f350793          	addi	a5,a0,1523 # 15f3 <.Lline_table_start1+0x13c8>
   175b8:	02100693          	li	a3,33
   175bc:	4711                	li	a4,4
   175be:	853e                	mv	a0,a5
   175c0:	00000073          	ecall
   175c4:	00851763          	bne	a0,s0,175d2 <_ZN20complex_dynamic_type3app17hb37eb83cac0e2e24E+0x68>
   175c8:	010a8023          	sb	a6,0(s5)
   175cc:	00baa223          	sw	a1,4(s5)
   175d0:	a0bd                	j	1763e <_ZN20complex_dynamic_type3app17hb37eb83cac0e2e24E+0xd4>
   175d2:	853e                	mv	a0,a5
   175d4:	8652                	mv	a2,s4
   175d6:	009103a3          	sb	s1,7(sp)
   175da:	478d                	li	a5,3
   175dc:	458d                	li	a1,3
   175de:	02a00693          	li	a3,42
   175e2:	470d                	li	a4,3
   175e4:	00000073          	ecall
   175e8:	00851d63          	bne	a0,s0,17602 <_ZN20complex_dynamic_type3app17hb37eb83cac0e2e24E+0x98>
   175ec:	02914703          	lbu	a4,41(sp)
   175f0:	4505                	li	a0,1
   175f2:	4609                	li	a2,2
   175f4:	00aa8023          	sb	a0,0(s5)
   175f8:	00baa223          	sw	a1,4(s5)
   175fc:	02c71963          	bne	a4,a2,1762e <_ZN20complex_dynamic_type3app17hb37eb83cac0e2e24E+0xc4>
   17600:	a83d                	j	1763e <_ZN20complex_dynamic_type3app17hb37eb83cac0e2e24E+0xd4>
   17602:	4681                	li	a3,0
   17604:	02f104a3          	sb	a5,41(sp)
   17608:	6505                	lui	a0,0x1
   1760a:	4785                	li	a5,1
   1760c:	4585                	li	a1,1
   1760e:	460d                	li	a2,3
   17610:	4709                	li	a4,2
   17612:	5f350513          	addi	a0,a0,1523 # 15f3 <.Lline_table_start1+0x13c8>
   17616:	08000493          	li	s1,128
   1761a:	00000073          	ecall
   1761e:	4609                	li	a2,2
   17620:	04957563          	bgeu	a0,s1,1766a <_ZN20complex_dynamic_type3app17hb37eb83cac0e2e24E+0x100>
   17624:	00fa8023          	sb	a5,0(s5)
   17628:	00baa223          	sw	a1,4(s5)
   1762c:	470d                	li	a4,3
   1762e:	6505                	lui	a0,0x1
   17630:	5f350513          	addi	a0,a0,1523 # 15f3 <.Lline_table_start1+0x13c8>
   17634:	458d                	li	a1,3
   17636:	4601                	li	a2,0
   17638:	4681                	li	a3,0
   1763a:	00000073          	ecall
   1763e:	00714703          	lbu	a4,7(sp)
   17642:	4509                	li	a0,2
   17644:	00a70a63          	beq	a4,a0,17658 <_ZN20complex_dynamic_type3app17hb37eb83cac0e2e24E+0xee>
   17648:	6505                	lui	a0,0x1
   1764a:	5f350513          	addi	a0,a0,1523 # 15f3 <.Lline_table_start1+0x13c8>
   1764e:	4585                	li	a1,1
   17650:	4601                	li	a2,0
   17652:	4681                	li	a3,0
   17654:	00000073          	ecall
   17658:	50b6                	lw	ra,108(sp)
   1765a:	5426                	lw	s0,104(sp)
   1765c:	5496                	lw	s1,100(sp)
   1765e:	5906                	lw	s2,96(sp)
   17660:	49f6                	lw	s3,92(sp)
   17662:	4a66                	lw	s4,88(sp)
   17664:	4ad6                	lw	s5,84(sp)
   17666:	6165                	addi	sp,sp,112
   17668:	8082                	ret
   1766a:	00714703          	lbu	a4,7(sp)
   1766e:	00c71463          	bne	a4,a2,17676 <_ZN20complex_dynamic_type3app17hb37eb83cac0e2e24E+0x10c>
   17672:	470d                	li	a4,3
   17674:	a825                	j	176ac <_ZN20complex_dynamic_type3app17hb37eb83cac0e2e24E+0x142>
   17676:	6505                	lui	a0,0x1
   17678:	5f350513          	addi	a0,a0,1523 # 15f3 <.Lline_table_start1+0x13c8>
   1767c:	4585                	li	a1,1
   1767e:	4601                	li	a2,0
   17680:	4681                	li	a3,0
   17682:	00000073          	ecall
   17686:	02914703          	lbu	a4,41(sp)
   1768a:	4509                	li	a0,2
   1768c:	00a103a3          	sb	a0,7(sp)
   17690:	00a71e63          	bne	a4,a0,176ac <_ZN20complex_dynamic_type3app17hb37eb83cac0e2e24E+0x142>
   17694:	001a8513          	addi	a0,s5,1
   17698:	02a00613          	li	a2,42
   1769c:	85d2                	mv	a1,s4
   1769e:	00007097          	auipc	ra,0x7
   176a2:	e76080e7          	jalr	-394(ra) # 1e514 <memcpy>
   176a6:	000a8023          	sb	zero,0(s5)
   176aa:	b77d                	j	17658 <_ZN20complex_dynamic_type3app17hb37eb83cac0e2e24E+0xee>
   176ac:	6505                	lui	a0,0x1
   176ae:	5f350913          	addi	s2,a0,1523 # 15f3 <.Lline_table_start1+0x13c8>
   176b2:	458d                	li	a1,3
   176b4:	854a                	mv	a0,s2
   176b6:	4601                	li	a2,0
   176b8:	4681                	li	a3,0
   176ba:	00000073          	ecall
   176be:	00714983          	lbu	s3,7(sp)
   176c2:	001a8513          	addi	a0,s5,1
   176c6:	02a00613          	li	a2,42
   176ca:	85d2                	mv	a1,s4
   176cc:	00007097          	auipc	ra,0x7
   176d0:	e48080e7          	jalr	-440(ra) # 1e514 <memcpy>
   176d4:	4509                	li	a0,2
   176d6:	000a8023          	sb	zero,0(s5)
   176da:	f6a98fe3          	beq	s3,a0,17658 <_ZN20complex_dynamic_type3app17hb37eb83cac0e2e24E+0xee>
   176de:	4585                	li	a1,1
   176e0:	854a                	mv	a0,s2
   176e2:	4601                	li	a2,0
   176e4:	4681                	li	a3,0
   176e6:	874e                	mv	a4,s3
   176e8:	00000073          	ecall
   176ec:	b7b5                	j	17658 <_ZN20complex_dynamic_type3app17hb37eb83cac0e2e24E+0xee>

000176ee <_ZN20complex_dynamic_type3app17hb4cc529fd4bac5cdE>:
   176ee:	7131                	addi	sp,sp,-192
   176f0:	df06                	sw	ra,188(sp)
   176f2:	dd22                	sw	s0,184(sp)
   176f4:	db26                	sw	s1,180(sp)
   176f6:	d94a                	sw	s2,176(sp)
   176f8:	d74e                	sw	s3,172(sp)
   176fa:	d552                	sw	s4,168(sp)
   176fc:	d356                	sw	s5,164(sp)
   176fe:	8aaa                	mv	s5,a0
   17700:	4409                	li	s0,2
   17702:	00810123          	sb	s0,2(sp)
   17706:	00310493          	addi	s1,sp,3
   1770a:	05100613          	li	a2,81
   1770e:	8526                	mv	a0,s1
   17710:	00007097          	auipc	ra,0x7
   17714:	e04080e7          	jalr	-508(ra) # 1e514 <memcpy>
   17718:	05510a13          	addi	s4,sp,85
   1771c:	04f00613          	li	a2,79
   17720:	8552                	mv	a0,s4
   17722:	4581                	li	a1,0
   17724:	00007097          	auipc	ra,0x7
   17728:	d84080e7          	jalr	-636(ra) # 1e4a8 <memset>
   1772c:	8626                	mv	a2,s1
   1772e:	04810a23          	sb	s0,84(sp)
   17732:	6509                	lui	a0,0x2
   17734:	4491                	li	s1,4
   17736:	4591                	li	a1,4
   17738:	0ee50793          	addi	a5,a0,238 # 20ee <.Lline_table_start1+0x1ec3>
   1773c:	05100693          	li	a3,81
   17740:	4711                	li	a4,4
   17742:	853e                	mv	a0,a5
   17744:	00000073          	ecall
   17748:	00851863          	bne	a0,s0,17758 <_ZN20complex_dynamic_type3app17hb4cc529fd4bac5cdE+0x6a>
   1774c:	4505                	li	a0,1
   1774e:	00aa8023          	sb	a0,0(s5)
   17752:	00baa223          	sw	a1,4(s5)
   17756:	a0bd                	j	177c4 <_ZN20complex_dynamic_type3app17hb4cc529fd4bac5cdE+0xd6>
   17758:	853e                	mv	a0,a5
   1775a:	8652                	mv	a2,s4
   1775c:	00910123          	sb	s1,2(sp)
   17760:	478d                	li	a5,3
   17762:	45a5                	li	a1,9
   17764:	04f00693          	li	a3,79
   17768:	470d                	li	a4,3
   1776a:	00000073          	ecall
   1776e:	00851d63          	bne	a0,s0,17788 <_ZN20complex_dynamic_type3app17hb4cc529fd4bac5cdE+0x9a>
   17772:	05414703          	lbu	a4,84(sp)
   17776:	4505                	li	a0,1
   17778:	4609                	li	a2,2
   1777a:	00aa8023          	sb	a0,0(s5)
   1777e:	00baa223          	sw	a1,4(s5)
   17782:	02c71963          	bne	a4,a2,177b4 <_ZN20complex_dynamic_type3app17hb4cc529fd4bac5cdE+0xc6>
   17786:	a83d                	j	177c4 <_ZN20complex_dynamic_type3app17hb4cc529fd4bac5cdE+0xd6>
   17788:	4681                	li	a3,0
   1778a:	04f10a23          	sb	a5,84(sp)
   1778e:	6509                	lui	a0,0x2
   17790:	4591                	li	a1,4
   17792:	4625                	li	a2,9
   17794:	4709                	li	a4,2
   17796:	0ee50513          	addi	a0,a0,238 # 20ee <.Lline_table_start1+0x1ec3>
   1779a:	08000793          	li	a5,128
   1779e:	00000073          	ecall
   177a2:	4609                	li	a2,2
   177a4:	04f57663          	bgeu	a0,a5,177f0 <_ZN20complex_dynamic_type3app17hb4cc529fd4bac5cdE+0x102>
   177a8:	4505                	li	a0,1
   177aa:	00aa8023          	sb	a0,0(s5)
   177ae:	00baa223          	sw	a1,4(s5)
   177b2:	470d                	li	a4,3
   177b4:	6509                	lui	a0,0x2
   177b6:	0ee50513          	addi	a0,a0,238 # 20ee <.Lline_table_start1+0x1ec3>
   177ba:	45a5                	li	a1,9
   177bc:	4601                	li	a2,0
   177be:	4681                	li	a3,0
   177c0:	00000073          	ecall
   177c4:	00214703          	lbu	a4,2(sp)
   177c8:	4509                	li	a0,2
   177ca:	00a70a63          	beq	a4,a0,177de <_ZN20complex_dynamic_type3app17hb4cc529fd4bac5cdE+0xf0>
   177ce:	6509                	lui	a0,0x2
   177d0:	0ee50513          	addi	a0,a0,238 # 20ee <.Lline_table_start1+0x1ec3>
   177d4:	4591                	li	a1,4
   177d6:	4601                	li	a2,0
   177d8:	4681                	li	a3,0
   177da:	00000073          	ecall
   177de:	50fa                	lw	ra,188(sp)
   177e0:	546a                	lw	s0,184(sp)
   177e2:	54da                	lw	s1,180(sp)
   177e4:	594a                	lw	s2,176(sp)
   177e6:	59ba                	lw	s3,172(sp)
   177e8:	5a2a                	lw	s4,168(sp)
   177ea:	5a9a                	lw	s5,164(sp)
   177ec:	6129                	addi	sp,sp,192
   177ee:	8082                	ret
   177f0:	00214703          	lbu	a4,2(sp)
   177f4:	00c71463          	bne	a4,a2,177fc <_ZN20complex_dynamic_type3app17hb4cc529fd4bac5cdE+0x10e>
   177f8:	470d                	li	a4,3
   177fa:	a825                	j	17832 <_ZN20complex_dynamic_type3app17hb4cc529fd4bac5cdE+0x144>
   177fc:	6509                	lui	a0,0x2
   177fe:	0ee50513          	addi	a0,a0,238 # 20ee <.Lline_table_start1+0x1ec3>
   17802:	4591                	li	a1,4
   17804:	4601                	li	a2,0
   17806:	4681                	li	a3,0
   17808:	00000073          	ecall
   1780c:	05414703          	lbu	a4,84(sp)
   17810:	4509                	li	a0,2
   17812:	00a10123          	sb	a0,2(sp)
   17816:	00a71e63          	bne	a4,a0,17832 <_ZN20complex_dynamic_type3app17hb4cc529fd4bac5cdE+0x144>
   1781a:	001a8513          	addi	a0,s5,1
   1781e:	04f00613          	li	a2,79
   17822:	85d2                	mv	a1,s4
   17824:	00007097          	auipc	ra,0x7
   17828:	cf0080e7          	jalr	-784(ra) # 1e514 <memcpy>
   1782c:	000a8023          	sb	zero,0(s5)
   17830:	b77d                	j	177de <_ZN20complex_dynamic_type3app17hb4cc529fd4bac5cdE+0xf0>
   17832:	6509                	lui	a0,0x2
   17834:	0ee50913          	addi	s2,a0,238 # 20ee <.Lline_table_start1+0x1ec3>
   17838:	45a5                	li	a1,9
   1783a:	854a                	mv	a0,s2
   1783c:	4601                	li	a2,0
   1783e:	4681                	li	a3,0
   17840:	00000073          	ecall
   17844:	00214983          	lbu	s3,2(sp)
   17848:	001a8513          	addi	a0,s5,1
   1784c:	04f00613          	li	a2,79
   17850:	85d2                	mv	a1,s4
   17852:	00007097          	auipc	ra,0x7
   17856:	cc2080e7          	jalr	-830(ra) # 1e514 <memcpy>
   1785a:	4509                	li	a0,2
   1785c:	000a8023          	sb	zero,0(s5)
   17860:	f6a98fe3          	beq	s3,a0,177de <_ZN20complex_dynamic_type3app17hb4cc529fd4bac5cdE+0xf0>
   17864:	4591                	li	a1,4
   17866:	854a                	mv	a0,s2
   17868:	4601                	li	a2,0
   1786a:	4681                	li	a3,0
   1786c:	874e                	mv	a4,s3
   1786e:	00000073          	ecall
   17872:	b7b5                	j	177de <_ZN20complex_dynamic_type3app17hb4cc529fd4bac5cdE+0xf0>

00017874 <_ZN20complex_dynamic_type3app17hb625a8a9b57bca05E>:
   17874:	7175                	addi	sp,sp,-144
   17876:	c706                	sw	ra,140(sp)
   17878:	c522                	sw	s0,136(sp)
   1787a:	c326                	sw	s1,132(sp)
   1787c:	c14a                	sw	s2,128(sp)
   1787e:	dece                	sw	s3,124(sp)
   17880:	dcd2                	sw	s4,120(sp)
   17882:	8a2a                	mv	s4,a0
   17884:	4409                	li	s0,2
   17886:	008101a3          	sb	s0,3(sp)
   1788a:	0044                	addi	s1,sp,4
   1788c:	02200613          	li	a2,34
   17890:	8526                	mv	a0,s1
   17892:	00007097          	auipc	ra,0x7
   17896:	c82080e7          	jalr	-894(ra) # 1e514 <memcpy>
   1789a:	02710993          	addi	s3,sp,39
   1789e:	05100613          	li	a2,81
   178a2:	854e                	mv	a0,s3
   178a4:	4581                	li	a1,0
   178a6:	00007097          	auipc	ra,0x7
   178aa:	c02080e7          	jalr	-1022(ra) # 1e4a8 <memset>
   178ae:	8626                	mv	a2,s1
   178b0:	02810323          	sb	s0,38(sp)
   178b4:	4791                	li	a5,4
   178b6:	55e00513          	li	a0,1374
   178ba:	45a5                	li	a1,9
   178bc:	02200693          	li	a3,34
   178c0:	4711                	li	a4,4
   178c2:	00000073          	ecall
   178c6:	00851863          	bne	a0,s0,178d6 <_ZN20complex_dynamic_type3app17hb625a8a9b57bca05E+0x62>
   178ca:	4505                	li	a0,1
   178cc:	00aa0023          	sb	a0,0(s4)
   178d0:	00ba2223          	sw	a1,4(s4)
   178d4:	a0b5                	j	17940 <_ZN20complex_dynamic_type3app17hb625a8a9b57bca05E+0xcc>
   178d6:	864e                	mv	a2,s3
   178d8:	00f101a3          	sb	a5,3(sp)
   178dc:	478d                	li	a5,3
   178de:	55e00513          	li	a0,1374
   178e2:	45a5                	li	a1,9
   178e4:	05100693          	li	a3,81
   178e8:	470d                	li	a4,3
   178ea:	00000073          	ecall
   178ee:	00851d63          	bne	a0,s0,17908 <_ZN20complex_dynamic_type3app17hb625a8a9b57bca05E+0x94>
   178f2:	02614703          	lbu	a4,38(sp)
   178f6:	4505                	li	a0,1
   178f8:	4609                	li	a2,2
   178fa:	00aa0023          	sb	a0,0(s4)
   178fe:	00ba2223          	sw	a1,4(s4)
   17902:	02c71863          	bne	a4,a2,17932 <_ZN20complex_dynamic_type3app17hb625a8a9b57bca05E+0xbe>
   17906:	a82d                	j	17940 <_ZN20complex_dynamic_type3app17hb625a8a9b57bca05E+0xcc>
   17908:	4681                	li	a3,0
   1790a:	02f10323          	sb	a5,38(sp)
   1790e:	55e00513          	li	a0,1374
   17912:	45a5                	li	a1,9
   17914:	4625                	li	a2,9
   17916:	4709                	li	a4,2
   17918:	08000793          	li	a5,128
   1791c:	00000073          	ecall
   17920:	4609                	li	a2,2
   17922:	04f57363          	bgeu	a0,a5,17968 <_ZN20complex_dynamic_type3app17hb625a8a9b57bca05E+0xf4>
   17926:	4505                	li	a0,1
   17928:	00aa0023          	sb	a0,0(s4)
   1792c:	00ba2223          	sw	a1,4(s4)
   17930:	470d                	li	a4,3
   17932:	55e00513          	li	a0,1374
   17936:	45a5                	li	a1,9
   17938:	4601                	li	a2,0
   1793a:	4681                	li	a3,0
   1793c:	00000073          	ecall
   17940:	00314703          	lbu	a4,3(sp)
   17944:	4509                	li	a0,2
   17946:	00a70963          	beq	a4,a0,17958 <_ZN20complex_dynamic_type3app17hb625a8a9b57bca05E+0xe4>
   1794a:	55e00513          	li	a0,1374
   1794e:	45a5                	li	a1,9
   17950:	4601                	li	a2,0
   17952:	4681                	li	a3,0
   17954:	00000073          	ecall
   17958:	40ba                	lw	ra,140(sp)
   1795a:	442a                	lw	s0,136(sp)
   1795c:	449a                	lw	s1,132(sp)
   1795e:	490a                	lw	s2,128(sp)
   17960:	59f6                	lw	s3,124(sp)
   17962:	5a66                	lw	s4,120(sp)
   17964:	6149                	addi	sp,sp,144
   17966:	8082                	ret
   17968:	00314703          	lbu	a4,3(sp)
   1796c:	00c71463          	bne	a4,a2,17974 <_ZN20complex_dynamic_type3app17hb625a8a9b57bca05E+0x100>
   17970:	470d                	li	a4,3
   17972:	a81d                	j	179a8 <_ZN20complex_dynamic_type3app17hb625a8a9b57bca05E+0x134>
   17974:	55e00513          	li	a0,1374
   17978:	45a5                	li	a1,9
   1797a:	4601                	li	a2,0
   1797c:	4681                	li	a3,0
   1797e:	00000073          	ecall
   17982:	02614703          	lbu	a4,38(sp)
   17986:	4509                	li	a0,2
   17988:	00a101a3          	sb	a0,3(sp)
   1798c:	00a71e63          	bne	a4,a0,179a8 <_ZN20complex_dynamic_type3app17hb625a8a9b57bca05E+0x134>
   17990:	001a0513          	addi	a0,s4,1
   17994:	05100613          	li	a2,81
   17998:	85ce                	mv	a1,s3
   1799a:	00007097          	auipc	ra,0x7
   1799e:	b7a080e7          	jalr	-1158(ra) # 1e514 <memcpy>
   179a2:	000a0023          	sb	zero,0(s4)
   179a6:	bf4d                	j	17958 <_ZN20complex_dynamic_type3app17hb625a8a9b57bca05E+0xe4>
   179a8:	55e00513          	li	a0,1374
   179ac:	45a5                	li	a1,9
   179ae:	4601                	li	a2,0
   179b0:	4681                	li	a3,0
   179b2:	00000073          	ecall
   179b6:	00314903          	lbu	s2,3(sp)
   179ba:	001a0513          	addi	a0,s4,1
   179be:	05100613          	li	a2,81
   179c2:	85ce                	mv	a1,s3
   179c4:	00007097          	auipc	ra,0x7
   179c8:	b50080e7          	jalr	-1200(ra) # 1e514 <memcpy>
   179cc:	4509                	li	a0,2
   179ce:	000a0023          	sb	zero,0(s4)
   179d2:	f8a903e3          	beq	s2,a0,17958 <_ZN20complex_dynamic_type3app17hb625a8a9b57bca05E+0xe4>
   179d6:	55e00513          	li	a0,1374
   179da:	45a5                	li	a1,9
   179dc:	4601                	li	a2,0
   179de:	4681                	li	a3,0
   179e0:	874a                	mv	a4,s2
   179e2:	00000073          	ecall
   179e6:	bf8d                	j	17958 <_ZN20complex_dynamic_type3app17hb625a8a9b57bca05E+0xe4>

000179e8 <_ZN20complex_dynamic_type3app17hb65d3fafa9f5c04aE>:
   179e8:	7171                	addi	sp,sp,-176
   179ea:	d706                	sw	ra,172(sp)
   179ec:	d522                	sw	s0,168(sp)
   179ee:	d326                	sw	s1,164(sp)
   179f0:	d14a                	sw	s2,160(sp)
   179f2:	cf4e                	sw	s3,156(sp)
   179f4:	cd52                	sw	s4,152(sp)
   179f6:	8a2a                	mv	s4,a0
   179f8:	4409                	li	s0,2
   179fa:	008104a3          	sb	s0,9(sp)
   179fe:	00a10493          	addi	s1,sp,10
   17a02:	02f00613          	li	a2,47
   17a06:	8526                	mv	a0,s1
   17a08:	00007097          	auipc	ra,0x7
   17a0c:	b0c080e7          	jalr	-1268(ra) # 1e514 <memcpy>
   17a10:	03a10993          	addi	s3,sp,58
   17a14:	05e00613          	li	a2,94
   17a18:	854e                	mv	a0,s3
   17a1a:	4581                	li	a1,0
   17a1c:	00007097          	auipc	ra,0x7
   17a20:	a8c080e7          	jalr	-1396(ra) # 1e4a8 <memset>
   17a24:	8626                	mv	a2,s1
   17a26:	02810ca3          	sb	s0,57(sp)
   17a2a:	4791                	li	a5,4
   17a2c:	22b00513          	li	a0,555
   17a30:	4595                	li	a1,5
   17a32:	02f00693          	li	a3,47
   17a36:	4711                	li	a4,4
   17a38:	00000073          	ecall
   17a3c:	00851863          	bne	a0,s0,17a4c <_ZN20complex_dynamic_type3app17hb65d3fafa9f5c04aE+0x64>
   17a40:	4505                	li	a0,1
   17a42:	00aa0023          	sb	a0,0(s4)
   17a46:	00ba2223          	sw	a1,4(s4)
   17a4a:	a0b5                	j	17ab6 <_ZN20complex_dynamic_type3app17hb65d3fafa9f5c04aE+0xce>
   17a4c:	864e                	mv	a2,s3
   17a4e:	00f104a3          	sb	a5,9(sp)
   17a52:	478d                	li	a5,3
   17a54:	22b00513          	li	a0,555
   17a58:	4589                	li	a1,2
   17a5a:	05e00693          	li	a3,94
   17a5e:	470d                	li	a4,3
   17a60:	00000073          	ecall
   17a64:	00851d63          	bne	a0,s0,17a7e <_ZN20complex_dynamic_type3app17hb65d3fafa9f5c04aE+0x96>
   17a68:	03914703          	lbu	a4,57(sp)
   17a6c:	4505                	li	a0,1
   17a6e:	4609                	li	a2,2
   17a70:	00aa0023          	sb	a0,0(s4)
   17a74:	00ba2223          	sw	a1,4(s4)
   17a78:	02c71863          	bne	a4,a2,17aa8 <_ZN20complex_dynamic_type3app17hb65d3fafa9f5c04aE+0xc0>
   17a7c:	a82d                	j	17ab6 <_ZN20complex_dynamic_type3app17hb65d3fafa9f5c04aE+0xce>
   17a7e:	4681                	li	a3,0
   17a80:	02f10ca3          	sb	a5,57(sp)
   17a84:	22b00513          	li	a0,555
   17a88:	4595                	li	a1,5
   17a8a:	4609                	li	a2,2
   17a8c:	4709                	li	a4,2
   17a8e:	08000793          	li	a5,128
   17a92:	00000073          	ecall
   17a96:	4609                	li	a2,2
   17a98:	04f57363          	bgeu	a0,a5,17ade <_ZN20complex_dynamic_type3app17hb65d3fafa9f5c04aE+0xf6>
   17a9c:	4505                	li	a0,1
   17a9e:	00aa0023          	sb	a0,0(s4)
   17aa2:	00ba2223          	sw	a1,4(s4)
   17aa6:	470d                	li	a4,3
   17aa8:	22b00513          	li	a0,555
   17aac:	4589                	li	a1,2
   17aae:	4601                	li	a2,0
   17ab0:	4681                	li	a3,0
   17ab2:	00000073          	ecall
   17ab6:	00914703          	lbu	a4,9(sp)
   17aba:	4509                	li	a0,2
   17abc:	00a70963          	beq	a4,a0,17ace <_ZN20complex_dynamic_type3app17hb65d3fafa9f5c04aE+0xe6>
   17ac0:	22b00513          	li	a0,555
   17ac4:	4595                	li	a1,5
   17ac6:	4601                	li	a2,0
   17ac8:	4681                	li	a3,0
   17aca:	00000073          	ecall
   17ace:	50ba                	lw	ra,172(sp)
   17ad0:	542a                	lw	s0,168(sp)
   17ad2:	549a                	lw	s1,164(sp)
   17ad4:	590a                	lw	s2,160(sp)
   17ad6:	49fa                	lw	s3,156(sp)
   17ad8:	4a6a                	lw	s4,152(sp)
   17ada:	614d                	addi	sp,sp,176
   17adc:	8082                	ret
   17ade:	00914703          	lbu	a4,9(sp)
   17ae2:	00c71463          	bne	a4,a2,17aea <_ZN20complex_dynamic_type3app17hb65d3fafa9f5c04aE+0x102>
   17ae6:	470d                	li	a4,3
   17ae8:	a81d                	j	17b1e <_ZN20complex_dynamic_type3app17hb65d3fafa9f5c04aE+0x136>
   17aea:	22b00513          	li	a0,555
   17aee:	4595                	li	a1,5
   17af0:	4601                	li	a2,0
   17af2:	4681                	li	a3,0
   17af4:	00000073          	ecall
   17af8:	03914703          	lbu	a4,57(sp)
   17afc:	4509                	li	a0,2
   17afe:	00a104a3          	sb	a0,9(sp)
   17b02:	00a71e63          	bne	a4,a0,17b1e <_ZN20complex_dynamic_type3app17hb65d3fafa9f5c04aE+0x136>
   17b06:	001a0513          	addi	a0,s4,1
   17b0a:	05e00613          	li	a2,94
   17b0e:	85ce                	mv	a1,s3
   17b10:	00007097          	auipc	ra,0x7
   17b14:	a04080e7          	jalr	-1532(ra) # 1e514 <memcpy>
   17b18:	000a0023          	sb	zero,0(s4)
   17b1c:	bf4d                	j	17ace <_ZN20complex_dynamic_type3app17hb65d3fafa9f5c04aE+0xe6>
   17b1e:	4601                	li	a2,0
   17b20:	4681                	li	a3,0
   17b22:	22b00513          	li	a0,555
   17b26:	4589                	li	a1,2
   17b28:	00000073          	ecall
   17b2c:	00914903          	lbu	s2,9(sp)
   17b30:	4409                	li	s0,2
   17b32:	001a0513          	addi	a0,s4,1
   17b36:	05e00613          	li	a2,94
   17b3a:	85ce                	mv	a1,s3
   17b3c:	00007097          	auipc	ra,0x7
   17b40:	9d8080e7          	jalr	-1576(ra) # 1e514 <memcpy>
   17b44:	000a0023          	sb	zero,0(s4)
   17b48:	f88903e3          	beq	s2,s0,17ace <_ZN20complex_dynamic_type3app17hb65d3fafa9f5c04aE+0xe6>
   17b4c:	22b00513          	li	a0,555
   17b50:	4595                	li	a1,5
   17b52:	4601                	li	a2,0
   17b54:	4681                	li	a3,0
   17b56:	874a                	mv	a4,s2
   17b58:	00000073          	ecall
   17b5c:	bf8d                	j	17ace <_ZN20complex_dynamic_type3app17hb65d3fafa9f5c04aE+0xe6>

00017b5e <_ZN20complex_dynamic_type3app17hb87833dd1d011f75E>:
   17b5e:	7175                	addi	sp,sp,-144
   17b60:	c706                	sw	ra,140(sp)
   17b62:	c522                	sw	s0,136(sp)
   17b64:	c326                	sw	s1,132(sp)
   17b66:	c14a                	sw	s2,128(sp)
   17b68:	dece                	sw	s3,124(sp)
   17b6a:	dcd2                	sw	s4,120(sp)
   17b6c:	dad6                	sw	s5,116(sp)
   17b6e:	8aaa                	mv	s5,a0
   17b70:	4409                	li	s0,2
   17b72:	00810523          	sb	s0,10(sp)
   17b76:	00b10493          	addi	s1,sp,11
   17b7a:	03c00613          	li	a2,60
   17b7e:	8526                	mv	a0,s1
   17b80:	00007097          	auipc	ra,0x7
   17b84:	994080e7          	jalr	-1644(ra) # 1e514 <memcpy>
   17b88:	04810a13          	addi	s4,sp,72
   17b8c:	02c00613          	li	a2,44
   17b90:	8552                	mv	a0,s4
   17b92:	4581                	li	a1,0
   17b94:	00007097          	auipc	ra,0x7
   17b98:	914080e7          	jalr	-1772(ra) # 1e4a8 <memset>
   17b9c:	8626                	mv	a2,s1
   17b9e:	048103a3          	sb	s0,71(sp)
   17ba2:	6509                	lui	a0,0x2
   17ba4:	4491                	li	s1,4
   17ba6:	4595                	li	a1,5
   17ba8:	eac50793          	addi	a5,a0,-340 # 1eac <.Lline_table_start1+0x1c81>
   17bac:	03c00693          	li	a3,60
   17bb0:	4711                	li	a4,4
   17bb2:	853e                	mv	a0,a5
   17bb4:	00000073          	ecall
   17bb8:	00851863          	bne	a0,s0,17bc8 <_ZN20complex_dynamic_type3app17hb87833dd1d011f75E+0x6a>
   17bbc:	4505                	li	a0,1
   17bbe:	00aa8023          	sb	a0,0(s5)
   17bc2:	00baa223          	sw	a1,4(s5)
   17bc6:	a0bd                	j	17c34 <_ZN20complex_dynamic_type3app17hb87833dd1d011f75E+0xd6>
   17bc8:	853e                	mv	a0,a5
   17bca:	8652                	mv	a2,s4
   17bcc:	00910523          	sb	s1,10(sp)
   17bd0:	478d                	li	a5,3
   17bd2:	459d                	li	a1,7
   17bd4:	02c00693          	li	a3,44
   17bd8:	470d                	li	a4,3
   17bda:	00000073          	ecall
   17bde:	00851d63          	bne	a0,s0,17bf8 <_ZN20complex_dynamic_type3app17hb87833dd1d011f75E+0x9a>
   17be2:	04714703          	lbu	a4,71(sp)
   17be6:	4505                	li	a0,1
   17be8:	4609                	li	a2,2
   17bea:	00aa8023          	sb	a0,0(s5)
   17bee:	00baa223          	sw	a1,4(s5)
   17bf2:	02c71963          	bne	a4,a2,17c24 <_ZN20complex_dynamic_type3app17hb87833dd1d011f75E+0xc6>
   17bf6:	a83d                	j	17c34 <_ZN20complex_dynamic_type3app17hb87833dd1d011f75E+0xd6>
   17bf8:	4681                	li	a3,0
   17bfa:	04f103a3          	sb	a5,71(sp)
   17bfe:	6509                	lui	a0,0x2
   17c00:	4595                	li	a1,5
   17c02:	461d                	li	a2,7
   17c04:	4709                	li	a4,2
   17c06:	eac50513          	addi	a0,a0,-340 # 1eac <.Lline_table_start1+0x1c81>
   17c0a:	08000793          	li	a5,128
   17c0e:	00000073          	ecall
   17c12:	4609                	li	a2,2
   17c14:	04f57663          	bgeu	a0,a5,17c60 <_ZN20complex_dynamic_type3app17hb87833dd1d011f75E+0x102>
   17c18:	4505                	li	a0,1
   17c1a:	00aa8023          	sb	a0,0(s5)
   17c1e:	00baa223          	sw	a1,4(s5)
   17c22:	470d                	li	a4,3
   17c24:	6509                	lui	a0,0x2
   17c26:	eac50513          	addi	a0,a0,-340 # 1eac <.Lline_table_start1+0x1c81>
   17c2a:	459d                	li	a1,7
   17c2c:	4601                	li	a2,0
   17c2e:	4681                	li	a3,0
   17c30:	00000073          	ecall
   17c34:	00a14703          	lbu	a4,10(sp)
   17c38:	4509                	li	a0,2
   17c3a:	00a70a63          	beq	a4,a0,17c4e <_ZN20complex_dynamic_type3app17hb87833dd1d011f75E+0xf0>
   17c3e:	6509                	lui	a0,0x2
   17c40:	eac50513          	addi	a0,a0,-340 # 1eac <.Lline_table_start1+0x1c81>
   17c44:	4595                	li	a1,5
   17c46:	4601                	li	a2,0
   17c48:	4681                	li	a3,0
   17c4a:	00000073          	ecall
   17c4e:	40ba                	lw	ra,140(sp)
   17c50:	442a                	lw	s0,136(sp)
   17c52:	449a                	lw	s1,132(sp)
   17c54:	490a                	lw	s2,128(sp)
   17c56:	59f6                	lw	s3,124(sp)
   17c58:	5a66                	lw	s4,120(sp)
   17c5a:	5ad6                	lw	s5,116(sp)
   17c5c:	6149                	addi	sp,sp,144
   17c5e:	8082                	ret
   17c60:	00a14703          	lbu	a4,10(sp)
   17c64:	00c71463          	bne	a4,a2,17c6c <_ZN20complex_dynamic_type3app17hb87833dd1d011f75E+0x10e>
   17c68:	470d                	li	a4,3
   17c6a:	a825                	j	17ca2 <_ZN20complex_dynamic_type3app17hb87833dd1d011f75E+0x144>
   17c6c:	6509                	lui	a0,0x2
   17c6e:	eac50513          	addi	a0,a0,-340 # 1eac <.Lline_table_start1+0x1c81>
   17c72:	4595                	li	a1,5
   17c74:	4601                	li	a2,0
   17c76:	4681                	li	a3,0
   17c78:	00000073          	ecall
   17c7c:	04714703          	lbu	a4,71(sp)
   17c80:	4509                	li	a0,2
   17c82:	00a10523          	sb	a0,10(sp)
   17c86:	00a71e63          	bne	a4,a0,17ca2 <_ZN20complex_dynamic_type3app17hb87833dd1d011f75E+0x144>
   17c8a:	001a8513          	addi	a0,s5,1
   17c8e:	02c00613          	li	a2,44
   17c92:	85d2                	mv	a1,s4
   17c94:	00007097          	auipc	ra,0x7
   17c98:	880080e7          	jalr	-1920(ra) # 1e514 <memcpy>
   17c9c:	000a8023          	sb	zero,0(s5)
   17ca0:	b77d                	j	17c4e <_ZN20complex_dynamic_type3app17hb87833dd1d011f75E+0xf0>
   17ca2:	6509                	lui	a0,0x2
   17ca4:	eac50913          	addi	s2,a0,-340 # 1eac <.Lline_table_start1+0x1c81>
   17ca8:	459d                	li	a1,7
   17caa:	854a                	mv	a0,s2
   17cac:	4601                	li	a2,0
   17cae:	4681                	li	a3,0
   17cb0:	00000073          	ecall
   17cb4:	00a14983          	lbu	s3,10(sp)
   17cb8:	001a8513          	addi	a0,s5,1
   17cbc:	02c00613          	li	a2,44
   17cc0:	85d2                	mv	a1,s4
   17cc2:	00007097          	auipc	ra,0x7
   17cc6:	852080e7          	jalr	-1966(ra) # 1e514 <memcpy>
   17cca:	4509                	li	a0,2
   17ccc:	000a8023          	sb	zero,0(s5)
   17cd0:	f6a98fe3          	beq	s3,a0,17c4e <_ZN20complex_dynamic_type3app17hb87833dd1d011f75E+0xf0>
   17cd4:	4595                	li	a1,5
   17cd6:	854a                	mv	a0,s2
   17cd8:	4601                	li	a2,0
   17cda:	4681                	li	a3,0
   17cdc:	874e                	mv	a4,s3
   17cde:	00000073          	ecall
   17ce2:	b7b5                	j	17c4e <_ZN20complex_dynamic_type3app17hb87833dd1d011f75E+0xf0>

00017ce4 <_ZN20complex_dynamic_type3app17hb90e5e8a3405f570E>:
   17ce4:	7171                	addi	sp,sp,-176
   17ce6:	d706                	sw	ra,172(sp)
   17ce8:	d522                	sw	s0,168(sp)
   17cea:	d326                	sw	s1,164(sp)
   17cec:	d14a                	sw	s2,160(sp)
   17cee:	cf4e                	sw	s3,156(sp)
   17cf0:	cd52                	sw	s4,152(sp)
   17cf2:	cb56                	sw	s5,148(sp)
   17cf4:	8aaa                	mv	s5,a0
   17cf6:	4409                	li	s0,2
   17cf8:	008102a3          	sb	s0,5(sp)
   17cfc:	00610493          	addi	s1,sp,6
   17d00:	02a00613          	li	a2,42
   17d04:	8526                	mv	a0,s1
   17d06:	00007097          	auipc	ra,0x7
   17d0a:	80e080e7          	jalr	-2034(ra) # 1e514 <memcpy>
   17d0e:	03110a13          	addi	s4,sp,49
   17d12:	06300613          	li	a2,99
   17d16:	8552                	mv	a0,s4
   17d18:	4581                	li	a1,0
   17d1a:	00006097          	auipc	ra,0x6
   17d1e:	78e080e7          	jalr	1934(ra) # 1e4a8 <memset>
   17d22:	8626                	mv	a2,s1
   17d24:	02810823          	sb	s0,48(sp)
   17d28:	6509                	lui	a0,0x2
   17d2a:	4491                	li	s1,4
   17d2c:	4591                	li	a1,4
   17d2e:	c7c50793          	addi	a5,a0,-900 # 1c7c <.Lline_table_start1+0x1a51>
   17d32:	02a00693          	li	a3,42
   17d36:	4711                	li	a4,4
   17d38:	853e                	mv	a0,a5
   17d3a:	00000073          	ecall
   17d3e:	00851863          	bne	a0,s0,17d4e <_ZN20complex_dynamic_type3app17hb90e5e8a3405f570E+0x6a>
   17d42:	4505                	li	a0,1
   17d44:	00aa8023          	sb	a0,0(s5)
   17d48:	00baa223          	sw	a1,4(s5)
   17d4c:	a0bd                	j	17dba <_ZN20complex_dynamic_type3app17hb90e5e8a3405f570E+0xd6>
   17d4e:	853e                	mv	a0,a5
   17d50:	4581                	li	a1,0
   17d52:	8652                	mv	a2,s4
   17d54:	009102a3          	sb	s1,5(sp)
   17d58:	478d                	li	a5,3
   17d5a:	06300693          	li	a3,99
   17d5e:	470d                	li	a4,3
   17d60:	00000073          	ecall
   17d64:	00851d63          	bne	a0,s0,17d7e <_ZN20complex_dynamic_type3app17hb90e5e8a3405f570E+0x9a>
   17d68:	03014703          	lbu	a4,48(sp)
   17d6c:	4505                	li	a0,1
   17d6e:	4609                	li	a2,2
   17d70:	00aa8023          	sb	a0,0(s5)
   17d74:	00baa223          	sw	a1,4(s5)
   17d78:	02c71963          	bne	a4,a2,17daa <_ZN20complex_dynamic_type3app17hb90e5e8a3405f570E+0xc6>
   17d7c:	a83d                	j	17dba <_ZN20complex_dynamic_type3app17hb90e5e8a3405f570E+0xd6>
   17d7e:	4601                	li	a2,0
   17d80:	4681                	li	a3,0
   17d82:	02f10823          	sb	a5,48(sp)
   17d86:	6509                	lui	a0,0x2
   17d88:	4591                	li	a1,4
   17d8a:	4709                	li	a4,2
   17d8c:	c7c50513          	addi	a0,a0,-900 # 1c7c <.Lline_table_start1+0x1a51>
   17d90:	08000793          	li	a5,128
   17d94:	00000073          	ecall
   17d98:	4609                	li	a2,2
   17d9a:	04f57663          	bgeu	a0,a5,17de6 <_ZN20complex_dynamic_type3app17hb90e5e8a3405f570E+0x102>
   17d9e:	4505                	li	a0,1
   17da0:	00aa8023          	sb	a0,0(s5)
   17da4:	00baa223          	sw	a1,4(s5)
   17da8:	470d                	li	a4,3
   17daa:	6509                	lui	a0,0x2
   17dac:	c7c50513          	addi	a0,a0,-900 # 1c7c <.Lline_table_start1+0x1a51>
   17db0:	4581                	li	a1,0
   17db2:	4601                	li	a2,0
   17db4:	4681                	li	a3,0
   17db6:	00000073          	ecall
   17dba:	00514703          	lbu	a4,5(sp)
   17dbe:	4509                	li	a0,2
   17dc0:	00a70a63          	beq	a4,a0,17dd4 <_ZN20complex_dynamic_type3app17hb90e5e8a3405f570E+0xf0>
   17dc4:	6509                	lui	a0,0x2
   17dc6:	c7c50513          	addi	a0,a0,-900 # 1c7c <.Lline_table_start1+0x1a51>
   17dca:	4591                	li	a1,4
   17dcc:	4601                	li	a2,0
   17dce:	4681                	li	a3,0
   17dd0:	00000073          	ecall
   17dd4:	50ba                	lw	ra,172(sp)
   17dd6:	542a                	lw	s0,168(sp)
   17dd8:	549a                	lw	s1,164(sp)
   17dda:	590a                	lw	s2,160(sp)
   17ddc:	49fa                	lw	s3,156(sp)
   17dde:	4a6a                	lw	s4,152(sp)
   17de0:	4ada                	lw	s5,148(sp)
   17de2:	614d                	addi	sp,sp,176
   17de4:	8082                	ret
   17de6:	00514703          	lbu	a4,5(sp)
   17dea:	00c71463          	bne	a4,a2,17df2 <_ZN20complex_dynamic_type3app17hb90e5e8a3405f570E+0x10e>
   17dee:	470d                	li	a4,3
   17df0:	a825                	j	17e28 <_ZN20complex_dynamic_type3app17hb90e5e8a3405f570E+0x144>
   17df2:	6509                	lui	a0,0x2
   17df4:	c7c50513          	addi	a0,a0,-900 # 1c7c <.Lline_table_start1+0x1a51>
   17df8:	4591                	li	a1,4
   17dfa:	4601                	li	a2,0
   17dfc:	4681                	li	a3,0
   17dfe:	00000073          	ecall
   17e02:	03014703          	lbu	a4,48(sp)
   17e06:	4509                	li	a0,2
   17e08:	00a102a3          	sb	a0,5(sp)
   17e0c:	00a71e63          	bne	a4,a0,17e28 <_ZN20complex_dynamic_type3app17hb90e5e8a3405f570E+0x144>
   17e10:	001a8513          	addi	a0,s5,1
   17e14:	06300613          	li	a2,99
   17e18:	85d2                	mv	a1,s4
   17e1a:	00006097          	auipc	ra,0x6
   17e1e:	6fa080e7          	jalr	1786(ra) # 1e514 <memcpy>
   17e22:	000a8023          	sb	zero,0(s5)
   17e26:	b77d                	j	17dd4 <_ZN20complex_dynamic_type3app17hb90e5e8a3405f570E+0xf0>
   17e28:	6509                	lui	a0,0x2
   17e2a:	c7c50913          	addi	s2,a0,-900 # 1c7c <.Lline_table_start1+0x1a51>
   17e2e:	854a                	mv	a0,s2
   17e30:	4581                	li	a1,0
   17e32:	4601                	li	a2,0
   17e34:	4681                	li	a3,0
   17e36:	00000073          	ecall
   17e3a:	00514983          	lbu	s3,5(sp)
   17e3e:	001a8513          	addi	a0,s5,1
   17e42:	06300613          	li	a2,99
   17e46:	85d2                	mv	a1,s4
   17e48:	00006097          	auipc	ra,0x6
   17e4c:	6cc080e7          	jalr	1740(ra) # 1e514 <memcpy>
   17e50:	4509                	li	a0,2
   17e52:	000a8023          	sb	zero,0(s5)
   17e56:	f6a98fe3          	beq	s3,a0,17dd4 <_ZN20complex_dynamic_type3app17hb90e5e8a3405f570E+0xf0>
   17e5a:	4591                	li	a1,4
   17e5c:	854a                	mv	a0,s2
   17e5e:	4601                	li	a2,0
   17e60:	4681                	li	a3,0
   17e62:	874e                	mv	a4,s3
   17e64:	00000073          	ecall
   17e68:	b7b5                	j	17dd4 <_ZN20complex_dynamic_type3app17hb90e5e8a3405f570E+0xf0>

00017e6a <_ZN20complex_dynamic_type3app17hba691452b0922bccE>:
   17e6a:	7135                	addi	sp,sp,-160
   17e6c:	cf06                	sw	ra,156(sp)
   17e6e:	cd22                	sw	s0,152(sp)
   17e70:	cb26                	sw	s1,148(sp)
   17e72:	c94a                	sw	s2,144(sp)
   17e74:	c74e                	sw	s3,140(sp)
   17e76:	c552                	sw	s4,136(sp)
   17e78:	c356                	sw	s5,132(sp)
   17e7a:	8aaa                	mv	s5,a0
   17e7c:	4409                	li	s0,2
   17e7e:	00810523          	sb	s0,10(sp)
   17e82:	00b10493          	addi	s1,sp,11
   17e86:	02700613          	li	a2,39
   17e8a:	8526                	mv	a0,s1
   17e8c:	00006097          	auipc	ra,0x6
   17e90:	688080e7          	jalr	1672(ra) # 1e514 <memcpy>
   17e94:	03310a13          	addi	s4,sp,51
   17e98:	05100613          	li	a2,81
   17e9c:	8552                	mv	a0,s4
   17e9e:	4581                	li	a1,0
   17ea0:	00006097          	auipc	ra,0x6
   17ea4:	608080e7          	jalr	1544(ra) # 1e4a8 <memset>
   17ea8:	4581                	li	a1,0
   17eaa:	8626                	mv	a2,s1
   17eac:	02810923          	sb	s0,50(sp)
   17eb0:	6505                	lui	a0,0x1
   17eb2:	4491                	li	s1,4
   17eb4:	a3650793          	addi	a5,a0,-1482 # a36 <.Lline_table_start1+0x80b>
   17eb8:	02700693          	li	a3,39
   17ebc:	4711                	li	a4,4
   17ebe:	853e                	mv	a0,a5
   17ec0:	00000073          	ecall
   17ec4:	00851863          	bne	a0,s0,17ed4 <_ZN20complex_dynamic_type3app17hba691452b0922bccE+0x6a>
   17ec8:	4505                	li	a0,1
   17eca:	00aa8023          	sb	a0,0(s5)
   17ece:	00baa223          	sw	a1,4(s5)
   17ed2:	a0bd                	j	17f40 <_ZN20complex_dynamic_type3app17hba691452b0922bccE+0xd6>
   17ed4:	853e                	mv	a0,a5
   17ed6:	8652                	mv	a2,s4
   17ed8:	00910523          	sb	s1,10(sp)
   17edc:	478d                	li	a5,3
   17ede:	4591                	li	a1,4
   17ee0:	05100693          	li	a3,81
   17ee4:	470d                	li	a4,3
   17ee6:	00000073          	ecall
   17eea:	00851d63          	bne	a0,s0,17f04 <_ZN20complex_dynamic_type3app17hba691452b0922bccE+0x9a>
   17eee:	03214703          	lbu	a4,50(sp)
   17ef2:	4505                	li	a0,1
   17ef4:	4609                	li	a2,2
   17ef6:	00aa8023          	sb	a0,0(s5)
   17efa:	00baa223          	sw	a1,4(s5)
   17efe:	02c71963          	bne	a4,a2,17f30 <_ZN20complex_dynamic_type3app17hba691452b0922bccE+0xc6>
   17f02:	a83d                	j	17f40 <_ZN20complex_dynamic_type3app17hba691452b0922bccE+0xd6>
   17f04:	4581                	li	a1,0
   17f06:	4681                	li	a3,0
   17f08:	02f10923          	sb	a5,50(sp)
   17f0c:	6505                	lui	a0,0x1
   17f0e:	4611                	li	a2,4
   17f10:	4709                	li	a4,2
   17f12:	a3650513          	addi	a0,a0,-1482 # a36 <.Lline_table_start1+0x80b>
   17f16:	08000793          	li	a5,128
   17f1a:	00000073          	ecall
   17f1e:	4609                	li	a2,2
   17f20:	04f57663          	bgeu	a0,a5,17f6c <_ZN20complex_dynamic_type3app17hba691452b0922bccE+0x102>
   17f24:	4505                	li	a0,1
   17f26:	00aa8023          	sb	a0,0(s5)
   17f2a:	00baa223          	sw	a1,4(s5)
   17f2e:	470d                	li	a4,3
   17f30:	6505                	lui	a0,0x1
   17f32:	a3650513          	addi	a0,a0,-1482 # a36 <.Lline_table_start1+0x80b>
   17f36:	4591                	li	a1,4
   17f38:	4601                	li	a2,0
   17f3a:	4681                	li	a3,0
   17f3c:	00000073          	ecall
   17f40:	00a14703          	lbu	a4,10(sp)
   17f44:	4509                	li	a0,2
   17f46:	00a70a63          	beq	a4,a0,17f5a <_ZN20complex_dynamic_type3app17hba691452b0922bccE+0xf0>
   17f4a:	6505                	lui	a0,0x1
   17f4c:	a3650513          	addi	a0,a0,-1482 # a36 <.Lline_table_start1+0x80b>
   17f50:	4581                	li	a1,0
   17f52:	4601                	li	a2,0
   17f54:	4681                	li	a3,0
   17f56:	00000073          	ecall
   17f5a:	40fa                	lw	ra,156(sp)
   17f5c:	446a                	lw	s0,152(sp)
   17f5e:	44da                	lw	s1,148(sp)
   17f60:	494a                	lw	s2,144(sp)
   17f62:	49ba                	lw	s3,140(sp)
   17f64:	4a2a                	lw	s4,136(sp)
   17f66:	4a9a                	lw	s5,132(sp)
   17f68:	610d                	addi	sp,sp,160
   17f6a:	8082                	ret
   17f6c:	00a14703          	lbu	a4,10(sp)
   17f70:	00c71463          	bne	a4,a2,17f78 <_ZN20complex_dynamic_type3app17hba691452b0922bccE+0x10e>
   17f74:	470d                	li	a4,3
   17f76:	a825                	j	17fae <_ZN20complex_dynamic_type3app17hba691452b0922bccE+0x144>
   17f78:	6505                	lui	a0,0x1
   17f7a:	a3650513          	addi	a0,a0,-1482 # a36 <.Lline_table_start1+0x80b>
   17f7e:	4581                	li	a1,0
   17f80:	4601                	li	a2,0
   17f82:	4681                	li	a3,0
   17f84:	00000073          	ecall
   17f88:	03214703          	lbu	a4,50(sp)
   17f8c:	4509                	li	a0,2
   17f8e:	00a10523          	sb	a0,10(sp)
   17f92:	00a71e63          	bne	a4,a0,17fae <_ZN20complex_dynamic_type3app17hba691452b0922bccE+0x144>
   17f96:	001a8513          	addi	a0,s5,1
   17f9a:	05100613          	li	a2,81
   17f9e:	85d2                	mv	a1,s4
   17fa0:	00006097          	auipc	ra,0x6
   17fa4:	574080e7          	jalr	1396(ra) # 1e514 <memcpy>
   17fa8:	000a8023          	sb	zero,0(s5)
   17fac:	b77d                	j	17f5a <_ZN20complex_dynamic_type3app17hba691452b0922bccE+0xf0>
   17fae:	6505                	lui	a0,0x1
   17fb0:	a3650913          	addi	s2,a0,-1482 # a36 <.Lline_table_start1+0x80b>
   17fb4:	4591                	li	a1,4
   17fb6:	854a                	mv	a0,s2
   17fb8:	4601                	li	a2,0
   17fba:	4681                	li	a3,0
   17fbc:	00000073          	ecall
   17fc0:	00a14983          	lbu	s3,10(sp)
   17fc4:	001a8513          	addi	a0,s5,1
   17fc8:	05100613          	li	a2,81
   17fcc:	85d2                	mv	a1,s4
   17fce:	00006097          	auipc	ra,0x6
   17fd2:	546080e7          	jalr	1350(ra) # 1e514 <memcpy>
   17fd6:	4509                	li	a0,2
   17fd8:	000a8023          	sb	zero,0(s5)
   17fdc:	f6a98fe3          	beq	s3,a0,17f5a <_ZN20complex_dynamic_type3app17hba691452b0922bccE+0xf0>
   17fe0:	854a                	mv	a0,s2
   17fe2:	4581                	li	a1,0
   17fe4:	4601                	li	a2,0
   17fe6:	4681                	li	a3,0
   17fe8:	874e                	mv	a4,s3
   17fea:	00000073          	ecall
   17fee:	b7b5                	j	17f5a <_ZN20complex_dynamic_type3app17hba691452b0922bccE+0xf0>

00017ff0 <_ZN20complex_dynamic_type3app17hbf421d9b68dec704E>:
   17ff0:	7131                	addi	sp,sp,-192
   17ff2:	df06                	sw	ra,188(sp)
   17ff4:	dd22                	sw	s0,184(sp)
   17ff6:	db26                	sw	s1,180(sp)
   17ff8:	d94a                	sw	s2,176(sp)
   17ffa:	d74e                	sw	s3,172(sp)
   17ffc:	d552                	sw	s4,168(sp)
   17ffe:	d356                	sw	s5,164(sp)
   18000:	8aaa                	mv	s5,a0
   18002:	4409                	li	s0,2
   18004:	008105a3          	sb	s0,11(sp)
   18008:	0064                	addi	s1,sp,12
   1800a:	03a00613          	li	a2,58
   1800e:	8526                	mv	a0,s1
   18010:	00006097          	auipc	ra,0x6
   18014:	504080e7          	jalr	1284(ra) # 1e514 <memcpy>
   18018:	04710a13          	addi	s4,sp,71
   1801c:	05d00613          	li	a2,93
   18020:	8552                	mv	a0,s4
   18022:	4581                	li	a1,0
   18024:	00006097          	auipc	ra,0x6
   18028:	484080e7          	jalr	1156(ra) # 1e4a8 <memset>
   1802c:	4581                	li	a1,0
   1802e:	8626                	mv	a2,s1
   18030:	04810323          	sb	s0,70(sp)
   18034:	6505                	lui	a0,0x1
   18036:	4491                	li	s1,4
   18038:	4a450793          	addi	a5,a0,1188 # 14a4 <.Lline_table_start1+0x1279>
   1803c:	03a00693          	li	a3,58
   18040:	4711                	li	a4,4
   18042:	853e                	mv	a0,a5
   18044:	00000073          	ecall
   18048:	00851863          	bne	a0,s0,18058 <_ZN20complex_dynamic_type3app17hbf421d9b68dec704E+0x68>
   1804c:	4505                	li	a0,1
   1804e:	00aa8023          	sb	a0,0(s5)
   18052:	00baa223          	sw	a1,4(s5)
   18056:	a0bd                	j	180c4 <_ZN20complex_dynamic_type3app17hbf421d9b68dec704E+0xd4>
   18058:	853e                	mv	a0,a5
   1805a:	8652                	mv	a2,s4
   1805c:	009105a3          	sb	s1,11(sp)
   18060:	478d                	li	a5,3
   18062:	4595                	li	a1,5
   18064:	05d00693          	li	a3,93
   18068:	470d                	li	a4,3
   1806a:	00000073          	ecall
   1806e:	00851d63          	bne	a0,s0,18088 <_ZN20complex_dynamic_type3app17hbf421d9b68dec704E+0x98>
   18072:	04614703          	lbu	a4,70(sp)
   18076:	4505                	li	a0,1
   18078:	4609                	li	a2,2
   1807a:	00aa8023          	sb	a0,0(s5)
   1807e:	00baa223          	sw	a1,4(s5)
   18082:	02c71963          	bne	a4,a2,180b4 <_ZN20complex_dynamic_type3app17hbf421d9b68dec704E+0xc4>
   18086:	a83d                	j	180c4 <_ZN20complex_dynamic_type3app17hbf421d9b68dec704E+0xd4>
   18088:	4581                	li	a1,0
   1808a:	4681                	li	a3,0
   1808c:	04f10323          	sb	a5,70(sp)
   18090:	6505                	lui	a0,0x1
   18092:	4615                	li	a2,5
   18094:	4709                	li	a4,2
   18096:	4a450513          	addi	a0,a0,1188 # 14a4 <.Lline_table_start1+0x1279>
   1809a:	08000793          	li	a5,128
   1809e:	00000073          	ecall
   180a2:	4609                	li	a2,2
   180a4:	04f57663          	bgeu	a0,a5,180f0 <_ZN20complex_dynamic_type3app17hbf421d9b68dec704E+0x100>
   180a8:	4505                	li	a0,1
   180aa:	00aa8023          	sb	a0,0(s5)
   180ae:	00baa223          	sw	a1,4(s5)
   180b2:	470d                	li	a4,3
   180b4:	6505                	lui	a0,0x1
   180b6:	4a450513          	addi	a0,a0,1188 # 14a4 <.Lline_table_start1+0x1279>
   180ba:	4595                	li	a1,5
   180bc:	4601                	li	a2,0
   180be:	4681                	li	a3,0
   180c0:	00000073          	ecall
   180c4:	00b14703          	lbu	a4,11(sp)
   180c8:	4509                	li	a0,2
   180ca:	00a70a63          	beq	a4,a0,180de <_ZN20complex_dynamic_type3app17hbf421d9b68dec704E+0xee>
   180ce:	6505                	lui	a0,0x1
   180d0:	4a450513          	addi	a0,a0,1188 # 14a4 <.Lline_table_start1+0x1279>
   180d4:	4581                	li	a1,0
   180d6:	4601                	li	a2,0
   180d8:	4681                	li	a3,0
   180da:	00000073          	ecall
   180de:	50fa                	lw	ra,188(sp)
   180e0:	546a                	lw	s0,184(sp)
   180e2:	54da                	lw	s1,180(sp)
   180e4:	594a                	lw	s2,176(sp)
   180e6:	59ba                	lw	s3,172(sp)
   180e8:	5a2a                	lw	s4,168(sp)
   180ea:	5a9a                	lw	s5,164(sp)
   180ec:	6129                	addi	sp,sp,192
   180ee:	8082                	ret
   180f0:	00b14703          	lbu	a4,11(sp)
   180f4:	00c71463          	bne	a4,a2,180fc <_ZN20complex_dynamic_type3app17hbf421d9b68dec704E+0x10c>
   180f8:	470d                	li	a4,3
   180fa:	a825                	j	18132 <_ZN20complex_dynamic_type3app17hbf421d9b68dec704E+0x142>
   180fc:	6505                	lui	a0,0x1
   180fe:	4a450513          	addi	a0,a0,1188 # 14a4 <.Lline_table_start1+0x1279>
   18102:	4581                	li	a1,0
   18104:	4601                	li	a2,0
   18106:	4681                	li	a3,0
   18108:	00000073          	ecall
   1810c:	04614703          	lbu	a4,70(sp)
   18110:	4509                	li	a0,2
   18112:	00a105a3          	sb	a0,11(sp)
   18116:	00a71e63          	bne	a4,a0,18132 <_ZN20complex_dynamic_type3app17hbf421d9b68dec704E+0x142>
   1811a:	001a8513          	addi	a0,s5,1
   1811e:	05d00613          	li	a2,93
   18122:	85d2                	mv	a1,s4
   18124:	00006097          	auipc	ra,0x6
   18128:	3f0080e7          	jalr	1008(ra) # 1e514 <memcpy>
   1812c:	000a8023          	sb	zero,0(s5)
   18130:	b77d                	j	180de <_ZN20complex_dynamic_type3app17hbf421d9b68dec704E+0xee>
   18132:	6505                	lui	a0,0x1
   18134:	4a450913          	addi	s2,a0,1188 # 14a4 <.Lline_table_start1+0x1279>
   18138:	4595                	li	a1,5
   1813a:	854a                	mv	a0,s2
   1813c:	4601                	li	a2,0
   1813e:	4681                	li	a3,0
   18140:	00000073          	ecall
   18144:	00b14983          	lbu	s3,11(sp)
   18148:	001a8513          	addi	a0,s5,1
   1814c:	05d00613          	li	a2,93
   18150:	85d2                	mv	a1,s4
   18152:	00006097          	auipc	ra,0x6
   18156:	3c2080e7          	jalr	962(ra) # 1e514 <memcpy>
   1815a:	4509                	li	a0,2
   1815c:	000a8023          	sb	zero,0(s5)
   18160:	f6a98fe3          	beq	s3,a0,180de <_ZN20complex_dynamic_type3app17hbf421d9b68dec704E+0xee>
   18164:	854a                	mv	a0,s2
   18166:	4581                	li	a1,0
   18168:	4601                	li	a2,0
   1816a:	4681                	li	a3,0
   1816c:	874e                	mv	a4,s3
   1816e:	00000073          	ecall
   18172:	b7b5                	j	180de <_ZN20complex_dynamic_type3app17hbf421d9b68dec704E+0xee>

00018174 <_ZN20complex_dynamic_type3app17hc08c4b27931c423bE>:
   18174:	7175                	addi	sp,sp,-144
   18176:	c706                	sw	ra,140(sp)
   18178:	c522                	sw	s0,136(sp)
   1817a:	c326                	sw	s1,132(sp)
   1817c:	c14a                	sw	s2,128(sp)
   1817e:	dece                	sw	s3,124(sp)
   18180:	dcd2                	sw	s4,120(sp)
   18182:	dad6                	sw	s5,116(sp)
   18184:	8aaa                	mv	s5,a0
   18186:	4409                	li	s0,2
   18188:	00810423          	sb	s0,8(sp)
   1818c:	00910493          	addi	s1,sp,9
   18190:	4669                	li	a2,26
   18192:	8526                	mv	a0,s1
   18194:	00006097          	auipc	ra,0x6
   18198:	380080e7          	jalr	896(ra) # 1e514 <memcpy>
   1819c:	02410a13          	addi	s4,sp,36
   181a0:	05000613          	li	a2,80
   181a4:	8552                	mv	a0,s4
   181a6:	4581                	li	a1,0
   181a8:	00006097          	auipc	ra,0x6
   181ac:	300080e7          	jalr	768(ra) # 1e4a8 <memset>
   181b0:	8626                	mv	a2,s1
   181b2:	028101a3          	sb	s0,35(sp)
   181b6:	6505                	lui	a0,0x1
   181b8:	4491                	li	s1,4
   181ba:	459d                	li	a1,7
   181bc:	aee50793          	addi	a5,a0,-1298 # aee <.Lline_table_start1+0x8c3>
   181c0:	46e9                	li	a3,26
   181c2:	4711                	li	a4,4
   181c4:	853e                	mv	a0,a5
   181c6:	00000073          	ecall
   181ca:	00851863          	bne	a0,s0,181da <_ZN20complex_dynamic_type3app17hc08c4b27931c423bE+0x66>
   181ce:	4505                	li	a0,1
   181d0:	00aa8023          	sb	a0,0(s5)
   181d4:	00baa223          	sw	a1,4(s5)
   181d8:	a0bd                	j	18246 <_ZN20complex_dynamic_type3app17hc08c4b27931c423bE+0xd2>
   181da:	853e                	mv	a0,a5
   181dc:	8652                	mv	a2,s4
   181de:	00910423          	sb	s1,8(sp)
   181e2:	478d                	li	a5,3
   181e4:	4591                	li	a1,4
   181e6:	05000693          	li	a3,80
   181ea:	470d                	li	a4,3
   181ec:	00000073          	ecall
   181f0:	00851d63          	bne	a0,s0,1820a <_ZN20complex_dynamic_type3app17hc08c4b27931c423bE+0x96>
   181f4:	02314703          	lbu	a4,35(sp)
   181f8:	4505                	li	a0,1
   181fa:	4609                	li	a2,2
   181fc:	00aa8023          	sb	a0,0(s5)
   18200:	00baa223          	sw	a1,4(s5)
   18204:	02c71963          	bne	a4,a2,18236 <_ZN20complex_dynamic_type3app17hc08c4b27931c423bE+0xc2>
   18208:	a83d                	j	18246 <_ZN20complex_dynamic_type3app17hc08c4b27931c423bE+0xd2>
   1820a:	4681                	li	a3,0
   1820c:	02f101a3          	sb	a5,35(sp)
   18210:	6505                	lui	a0,0x1
   18212:	459d                	li	a1,7
   18214:	4611                	li	a2,4
   18216:	4709                	li	a4,2
   18218:	aee50513          	addi	a0,a0,-1298 # aee <.Lline_table_start1+0x8c3>
   1821c:	08000793          	li	a5,128
   18220:	00000073          	ecall
   18224:	4609                	li	a2,2
   18226:	04f57663          	bgeu	a0,a5,18272 <_ZN20complex_dynamic_type3app17hc08c4b27931c423bE+0xfe>
   1822a:	4505                	li	a0,1
   1822c:	00aa8023          	sb	a0,0(s5)
   18230:	00baa223          	sw	a1,4(s5)
   18234:	470d                	li	a4,3
   18236:	6505                	lui	a0,0x1
   18238:	aee50513          	addi	a0,a0,-1298 # aee <.Lline_table_start1+0x8c3>
   1823c:	4591                	li	a1,4
   1823e:	4601                	li	a2,0
   18240:	4681                	li	a3,0
   18242:	00000073          	ecall
   18246:	00814703          	lbu	a4,8(sp)
   1824a:	4509                	li	a0,2
   1824c:	00a70a63          	beq	a4,a0,18260 <_ZN20complex_dynamic_type3app17hc08c4b27931c423bE+0xec>
   18250:	6505                	lui	a0,0x1
   18252:	aee50513          	addi	a0,a0,-1298 # aee <.Lline_table_start1+0x8c3>
   18256:	459d                	li	a1,7
   18258:	4601                	li	a2,0
   1825a:	4681                	li	a3,0
   1825c:	00000073          	ecall
   18260:	40ba                	lw	ra,140(sp)
   18262:	442a                	lw	s0,136(sp)
   18264:	449a                	lw	s1,132(sp)
   18266:	490a                	lw	s2,128(sp)
   18268:	59f6                	lw	s3,124(sp)
   1826a:	5a66                	lw	s4,120(sp)
   1826c:	5ad6                	lw	s5,116(sp)
   1826e:	6149                	addi	sp,sp,144
   18270:	8082                	ret
   18272:	00814703          	lbu	a4,8(sp)
   18276:	00c71463          	bne	a4,a2,1827e <_ZN20complex_dynamic_type3app17hc08c4b27931c423bE+0x10a>
   1827a:	470d                	li	a4,3
   1827c:	a825                	j	182b4 <_ZN20complex_dynamic_type3app17hc08c4b27931c423bE+0x140>
   1827e:	6505                	lui	a0,0x1
   18280:	aee50513          	addi	a0,a0,-1298 # aee <.Lline_table_start1+0x8c3>
   18284:	459d                	li	a1,7
   18286:	4601                	li	a2,0
   18288:	4681                	li	a3,0
   1828a:	00000073          	ecall
   1828e:	02314703          	lbu	a4,35(sp)
   18292:	4509                	li	a0,2
   18294:	00a10423          	sb	a0,8(sp)
   18298:	00a71e63          	bne	a4,a0,182b4 <_ZN20complex_dynamic_type3app17hc08c4b27931c423bE+0x140>
   1829c:	001a8513          	addi	a0,s5,1
   182a0:	05000613          	li	a2,80
   182a4:	85d2                	mv	a1,s4
   182a6:	00006097          	auipc	ra,0x6
   182aa:	26e080e7          	jalr	622(ra) # 1e514 <memcpy>
   182ae:	000a8023          	sb	zero,0(s5)
   182b2:	b77d                	j	18260 <_ZN20complex_dynamic_type3app17hc08c4b27931c423bE+0xec>
   182b4:	6505                	lui	a0,0x1
   182b6:	aee50913          	addi	s2,a0,-1298 # aee <.Lline_table_start1+0x8c3>
   182ba:	4591                	li	a1,4
   182bc:	854a                	mv	a0,s2
   182be:	4601                	li	a2,0
   182c0:	4681                	li	a3,0
   182c2:	00000073          	ecall
   182c6:	00814983          	lbu	s3,8(sp)
   182ca:	001a8513          	addi	a0,s5,1
   182ce:	05000613          	li	a2,80
   182d2:	85d2                	mv	a1,s4
   182d4:	00006097          	auipc	ra,0x6
   182d8:	240080e7          	jalr	576(ra) # 1e514 <memcpy>
   182dc:	4509                	li	a0,2
   182de:	000a8023          	sb	zero,0(s5)
   182e2:	f6a98fe3          	beq	s3,a0,18260 <_ZN20complex_dynamic_type3app17hc08c4b27931c423bE+0xec>
   182e6:	459d                	li	a1,7
   182e8:	854a                	mv	a0,s2
   182ea:	4601                	li	a2,0
   182ec:	4681                	li	a3,0
   182ee:	874e                	mv	a4,s3
   182f0:	00000073          	ecall
   182f4:	b7b5                	j	18260 <_ZN20complex_dynamic_type3app17hc08c4b27931c423bE+0xec>

000182f6 <_ZN20complex_dynamic_type3app17hc8af08580a882d65E>:
   182f6:	7175                	addi	sp,sp,-144
   182f8:	c706                	sw	ra,140(sp)
   182fa:	c522                	sw	s0,136(sp)
   182fc:	c326                	sw	s1,132(sp)
   182fe:	c14a                	sw	s2,128(sp)
   18300:	dece                	sw	s3,124(sp)
   18302:	dcd2                	sw	s4,120(sp)
   18304:	dad6                	sw	s5,116(sp)
   18306:	8aaa                	mv	s5,a0
   18308:	4409                	li	s0,2
   1830a:	00810623          	sb	s0,12(sp)
   1830e:	00d10493          	addi	s1,sp,13
   18312:	02e00613          	li	a2,46
   18316:	8526                	mv	a0,s1
   18318:	00006097          	auipc	ra,0x6
   1831c:	1fc080e7          	jalr	508(ra) # 1e514 <memcpy>
   18320:	03c10a13          	addi	s4,sp,60
   18324:	03800613          	li	a2,56
   18328:	8552                	mv	a0,s4
   1832a:	4581                	li	a1,0
   1832c:	00006097          	auipc	ra,0x6
   18330:	17c080e7          	jalr	380(ra) # 1e4a8 <memset>
   18334:	8626                	mv	a2,s1
   18336:	02810da3          	sb	s0,59(sp)
   1833a:	6505                	lui	a0,0x1
   1833c:	4491                	li	s1,4
   1833e:	45a5                	li	a1,9
   18340:	a9d50793          	addi	a5,a0,-1379 # a9d <.Lline_table_start1+0x872>
   18344:	02e00693          	li	a3,46
   18348:	4711                	li	a4,4
   1834a:	853e                	mv	a0,a5
   1834c:	00000073          	ecall
   18350:	00851863          	bne	a0,s0,18360 <_ZN20complex_dynamic_type3app17hc8af08580a882d65E+0x6a>
   18354:	4505                	li	a0,1
   18356:	00aa8023          	sb	a0,0(s5)
   1835a:	00baa223          	sw	a1,4(s5)
   1835e:	a0bd                	j	183cc <_ZN20complex_dynamic_type3app17hc8af08580a882d65E+0xd6>
   18360:	853e                	mv	a0,a5
   18362:	8652                	mv	a2,s4
   18364:	00910623          	sb	s1,12(sp)
   18368:	478d                	li	a5,3
   1836a:	45a5                	li	a1,9
   1836c:	03800693          	li	a3,56
   18370:	470d                	li	a4,3
   18372:	00000073          	ecall
   18376:	00851d63          	bne	a0,s0,18390 <_ZN20complex_dynamic_type3app17hc8af08580a882d65E+0x9a>
   1837a:	03b14703          	lbu	a4,59(sp)
   1837e:	4505                	li	a0,1
   18380:	4609                	li	a2,2
   18382:	00aa8023          	sb	a0,0(s5)
   18386:	00baa223          	sw	a1,4(s5)
   1838a:	02c71963          	bne	a4,a2,183bc <_ZN20complex_dynamic_type3app17hc8af08580a882d65E+0xc6>
   1838e:	a83d                	j	183cc <_ZN20complex_dynamic_type3app17hc8af08580a882d65E+0xd6>
   18390:	4681                	li	a3,0
   18392:	02f10da3          	sb	a5,59(sp)
   18396:	6505                	lui	a0,0x1
   18398:	45a5                	li	a1,9
   1839a:	4625                	li	a2,9
   1839c:	4709                	li	a4,2
   1839e:	a9d50513          	addi	a0,a0,-1379 # a9d <.Lline_table_start1+0x872>
   183a2:	08000793          	li	a5,128
   183a6:	00000073          	ecall
   183aa:	4609                	li	a2,2
   183ac:	04f57663          	bgeu	a0,a5,183f8 <_ZN20complex_dynamic_type3app17hc8af08580a882d65E+0x102>
   183b0:	4505                	li	a0,1
   183b2:	00aa8023          	sb	a0,0(s5)
   183b6:	00baa223          	sw	a1,4(s5)
   183ba:	470d                	li	a4,3
   183bc:	6505                	lui	a0,0x1
   183be:	a9d50513          	addi	a0,a0,-1379 # a9d <.Lline_table_start1+0x872>
   183c2:	45a5                	li	a1,9
   183c4:	4601                	li	a2,0
   183c6:	4681                	li	a3,0
   183c8:	00000073          	ecall
   183cc:	00c14703          	lbu	a4,12(sp)
   183d0:	4509                	li	a0,2
   183d2:	00a70a63          	beq	a4,a0,183e6 <_ZN20complex_dynamic_type3app17hc8af08580a882d65E+0xf0>
   183d6:	6505                	lui	a0,0x1
   183d8:	a9d50513          	addi	a0,a0,-1379 # a9d <.Lline_table_start1+0x872>
   183dc:	45a5                	li	a1,9
   183de:	4601                	li	a2,0
   183e0:	4681                	li	a3,0
   183e2:	00000073          	ecall
   183e6:	40ba                	lw	ra,140(sp)
   183e8:	442a                	lw	s0,136(sp)
   183ea:	449a                	lw	s1,132(sp)
   183ec:	490a                	lw	s2,128(sp)
   183ee:	59f6                	lw	s3,124(sp)
   183f0:	5a66                	lw	s4,120(sp)
   183f2:	5ad6                	lw	s5,116(sp)
   183f4:	6149                	addi	sp,sp,144
   183f6:	8082                	ret
   183f8:	00c14703          	lbu	a4,12(sp)
   183fc:	00c71463          	bne	a4,a2,18404 <_ZN20complex_dynamic_type3app17hc8af08580a882d65E+0x10e>
   18400:	470d                	li	a4,3
   18402:	a825                	j	1843a <_ZN20complex_dynamic_type3app17hc8af08580a882d65E+0x144>
   18404:	6505                	lui	a0,0x1
   18406:	a9d50513          	addi	a0,a0,-1379 # a9d <.Lline_table_start1+0x872>
   1840a:	45a5                	li	a1,9
   1840c:	4601                	li	a2,0
   1840e:	4681                	li	a3,0
   18410:	00000073          	ecall
   18414:	03b14703          	lbu	a4,59(sp)
   18418:	4509                	li	a0,2
   1841a:	00a10623          	sb	a0,12(sp)
   1841e:	00a71e63          	bne	a4,a0,1843a <_ZN20complex_dynamic_type3app17hc8af08580a882d65E+0x144>
   18422:	001a8513          	addi	a0,s5,1
   18426:	03800613          	li	a2,56
   1842a:	85d2                	mv	a1,s4
   1842c:	00006097          	auipc	ra,0x6
   18430:	0e8080e7          	jalr	232(ra) # 1e514 <memcpy>
   18434:	000a8023          	sb	zero,0(s5)
   18438:	b77d                	j	183e6 <_ZN20complex_dynamic_type3app17hc8af08580a882d65E+0xf0>
   1843a:	6505                	lui	a0,0x1
   1843c:	a9d50913          	addi	s2,a0,-1379 # a9d <.Lline_table_start1+0x872>
   18440:	45a5                	li	a1,9
   18442:	854a                	mv	a0,s2
   18444:	4601                	li	a2,0
   18446:	4681                	li	a3,0
   18448:	00000073          	ecall
   1844c:	00c14983          	lbu	s3,12(sp)
   18450:	001a8513          	addi	a0,s5,1
   18454:	03800613          	li	a2,56
   18458:	85d2                	mv	a1,s4
   1845a:	00006097          	auipc	ra,0x6
   1845e:	0ba080e7          	jalr	186(ra) # 1e514 <memcpy>
   18462:	4509                	li	a0,2
   18464:	000a8023          	sb	zero,0(s5)
   18468:	f6a98fe3          	beq	s3,a0,183e6 <_ZN20complex_dynamic_type3app17hc8af08580a882d65E+0xf0>
   1846c:	45a5                	li	a1,9
   1846e:	854a                	mv	a0,s2
   18470:	4601                	li	a2,0
   18472:	4681                	li	a3,0
   18474:	874e                	mv	a4,s3
   18476:	00000073          	ecall
   1847a:	b7b5                	j	183e6 <_ZN20complex_dynamic_type3app17hc8af08580a882d65E+0xf0>

0001847c <_ZN20complex_dynamic_type3app17hc96fa1dccfda6259E>:
   1847c:	7171                	addi	sp,sp,-176
   1847e:	d706                	sw	ra,172(sp)
   18480:	d522                	sw	s0,168(sp)
   18482:	d326                	sw	s1,164(sp)
   18484:	d14a                	sw	s2,160(sp)
   18486:	cf4e                	sw	s3,156(sp)
   18488:	cd52                	sw	s4,152(sp)
   1848a:	cb56                	sw	s5,148(sp)
   1848c:	8aaa                	mv	s5,a0
   1848e:	4409                	li	s0,2
   18490:	00810423          	sb	s0,8(sp)
   18494:	00910493          	addi	s1,sp,9
   18498:	06300613          	li	a2,99
   1849c:	8526                	mv	a0,s1
   1849e:	00006097          	auipc	ra,0x6
   184a2:	076080e7          	jalr	118(ra) # 1e514 <memcpy>
   184a6:	06d10a13          	addi	s4,sp,109
   184aa:	02700613          	li	a2,39
   184ae:	8552                	mv	a0,s4
   184b0:	4581                	li	a1,0
   184b2:	00006097          	auipc	ra,0x6
   184b6:	ff6080e7          	jalr	-10(ra) # 1e4a8 <memset>
   184ba:	8626                	mv	a2,s1
   184bc:	06810623          	sb	s0,108(sp)
   184c0:	6509                	lui	a0,0x2
   184c2:	4491                	li	s1,4
   184c4:	459d                	li	a1,7
   184c6:	e5450793          	addi	a5,a0,-428 # 1e54 <.Lline_table_start1+0x1c29>
   184ca:	06300693          	li	a3,99
   184ce:	4711                	li	a4,4
   184d0:	853e                	mv	a0,a5
   184d2:	00000073          	ecall
   184d6:	00851863          	bne	a0,s0,184e6 <_ZN20complex_dynamic_type3app17hc96fa1dccfda6259E+0x6a>
   184da:	4505                	li	a0,1
   184dc:	00aa8023          	sb	a0,0(s5)
   184e0:	00baa223          	sw	a1,4(s5)
   184e4:	a0bd                	j	18552 <_ZN20complex_dynamic_type3app17hc96fa1dccfda6259E+0xd6>
   184e6:	853e                	mv	a0,a5
   184e8:	4581                	li	a1,0
   184ea:	8652                	mv	a2,s4
   184ec:	00910423          	sb	s1,8(sp)
   184f0:	478d                	li	a5,3
   184f2:	02700693          	li	a3,39
   184f6:	470d                	li	a4,3
   184f8:	00000073          	ecall
   184fc:	00851d63          	bne	a0,s0,18516 <_ZN20complex_dynamic_type3app17hc96fa1dccfda6259E+0x9a>
   18500:	06c14703          	lbu	a4,108(sp)
   18504:	4505                	li	a0,1
   18506:	4609                	li	a2,2
   18508:	00aa8023          	sb	a0,0(s5)
   1850c:	00baa223          	sw	a1,4(s5)
   18510:	02c71963          	bne	a4,a2,18542 <_ZN20complex_dynamic_type3app17hc96fa1dccfda6259E+0xc6>
   18514:	a83d                	j	18552 <_ZN20complex_dynamic_type3app17hc96fa1dccfda6259E+0xd6>
   18516:	4601                	li	a2,0
   18518:	4681                	li	a3,0
   1851a:	06f10623          	sb	a5,108(sp)
   1851e:	6509                	lui	a0,0x2
   18520:	459d                	li	a1,7
   18522:	4709                	li	a4,2
   18524:	e5450513          	addi	a0,a0,-428 # 1e54 <.Lline_table_start1+0x1c29>
   18528:	08000793          	li	a5,128
   1852c:	00000073          	ecall
   18530:	4609                	li	a2,2
   18532:	04f57663          	bgeu	a0,a5,1857e <_ZN20complex_dynamic_type3app17hc96fa1dccfda6259E+0x102>
   18536:	4505                	li	a0,1
   18538:	00aa8023          	sb	a0,0(s5)
   1853c:	00baa223          	sw	a1,4(s5)
   18540:	470d                	li	a4,3
   18542:	6509                	lui	a0,0x2
   18544:	e5450513          	addi	a0,a0,-428 # 1e54 <.Lline_table_start1+0x1c29>
   18548:	4581                	li	a1,0
   1854a:	4601                	li	a2,0
   1854c:	4681                	li	a3,0
   1854e:	00000073          	ecall
   18552:	00814703          	lbu	a4,8(sp)
   18556:	4509                	li	a0,2
   18558:	00a70a63          	beq	a4,a0,1856c <_ZN20complex_dynamic_type3app17hc96fa1dccfda6259E+0xf0>
   1855c:	6509                	lui	a0,0x2
   1855e:	e5450513          	addi	a0,a0,-428 # 1e54 <.Lline_table_start1+0x1c29>
   18562:	459d                	li	a1,7
   18564:	4601                	li	a2,0
   18566:	4681                	li	a3,0
   18568:	00000073          	ecall
   1856c:	50ba                	lw	ra,172(sp)
   1856e:	542a                	lw	s0,168(sp)
   18570:	549a                	lw	s1,164(sp)
   18572:	590a                	lw	s2,160(sp)
   18574:	49fa                	lw	s3,156(sp)
   18576:	4a6a                	lw	s4,152(sp)
   18578:	4ada                	lw	s5,148(sp)
   1857a:	614d                	addi	sp,sp,176
   1857c:	8082                	ret
   1857e:	00814703          	lbu	a4,8(sp)
   18582:	00c71463          	bne	a4,a2,1858a <_ZN20complex_dynamic_type3app17hc96fa1dccfda6259E+0x10e>
   18586:	470d                	li	a4,3
   18588:	a825                	j	185c0 <_ZN20complex_dynamic_type3app17hc96fa1dccfda6259E+0x144>
   1858a:	6509                	lui	a0,0x2
   1858c:	e5450513          	addi	a0,a0,-428 # 1e54 <.Lline_table_start1+0x1c29>
   18590:	459d                	li	a1,7
   18592:	4601                	li	a2,0
   18594:	4681                	li	a3,0
   18596:	00000073          	ecall
   1859a:	06c14703          	lbu	a4,108(sp)
   1859e:	4509                	li	a0,2
   185a0:	00a10423          	sb	a0,8(sp)
   185a4:	00a71e63          	bne	a4,a0,185c0 <_ZN20complex_dynamic_type3app17hc96fa1dccfda6259E+0x144>
   185a8:	001a8513          	addi	a0,s5,1
   185ac:	02700613          	li	a2,39
   185b0:	85d2                	mv	a1,s4
   185b2:	00006097          	auipc	ra,0x6
   185b6:	f62080e7          	jalr	-158(ra) # 1e514 <memcpy>
   185ba:	000a8023          	sb	zero,0(s5)
   185be:	b77d                	j	1856c <_ZN20complex_dynamic_type3app17hc96fa1dccfda6259E+0xf0>
   185c0:	6509                	lui	a0,0x2
   185c2:	e5450913          	addi	s2,a0,-428 # 1e54 <.Lline_table_start1+0x1c29>
   185c6:	854a                	mv	a0,s2
   185c8:	4581                	li	a1,0
   185ca:	4601                	li	a2,0
   185cc:	4681                	li	a3,0
   185ce:	00000073          	ecall
   185d2:	00814983          	lbu	s3,8(sp)
   185d6:	001a8513          	addi	a0,s5,1
   185da:	02700613          	li	a2,39
   185de:	85d2                	mv	a1,s4
   185e0:	00006097          	auipc	ra,0x6
   185e4:	f34080e7          	jalr	-204(ra) # 1e514 <memcpy>
   185e8:	4509                	li	a0,2
   185ea:	000a8023          	sb	zero,0(s5)
   185ee:	f6a98fe3          	beq	s3,a0,1856c <_ZN20complex_dynamic_type3app17hc96fa1dccfda6259E+0xf0>
   185f2:	459d                	li	a1,7
   185f4:	854a                	mv	a0,s2
   185f6:	4601                	li	a2,0
   185f8:	4681                	li	a3,0
   185fa:	874e                	mv	a4,s3
   185fc:	00000073          	ecall
   18600:	b7b5                	j	1856c <_ZN20complex_dynamic_type3app17hc96fa1dccfda6259E+0xf0>

00018602 <_ZN20complex_dynamic_type3app17hcee7e6816ab6f341E>:
   18602:	7171                	addi	sp,sp,-176
   18604:	d706                	sw	ra,172(sp)
   18606:	d522                	sw	s0,168(sp)
   18608:	d326                	sw	s1,164(sp)
   1860a:	d14a                	sw	s2,160(sp)
   1860c:	cf4e                	sw	s3,156(sp)
   1860e:	cd52                	sw	s4,152(sp)
   18610:	cb56                	sw	s5,148(sp)
   18612:	8aaa                	mv	s5,a0
   18614:	4409                	li	s0,2
   18616:	008104a3          	sb	s0,9(sp)
   1861a:	00a10493          	addi	s1,sp,10
   1861e:	04d00613          	li	a2,77
   18622:	8526                	mv	a0,s1
   18624:	00006097          	auipc	ra,0x6
   18628:	ef0080e7          	jalr	-272(ra) # 1e514 <memcpy>
   1862c:	05810a13          	addi	s4,sp,88
   18630:	03c00613          	li	a2,60
   18634:	8552                	mv	a0,s4
   18636:	4581                	li	a1,0
   18638:	00006097          	auipc	ra,0x6
   1863c:	e70080e7          	jalr	-400(ra) # 1e4a8 <memset>
   18640:	8626                	mv	a2,s1
   18642:	04810ba3          	sb	s0,87(sp)
   18646:	6509                	lui	a0,0x2
   18648:	4491                	li	s1,4
   1864a:	4591                	li	a1,4
   1864c:	1ab50793          	addi	a5,a0,427 # 21ab <.Lline_table_start1+0x1f80>
   18650:	04d00693          	li	a3,77
   18654:	4711                	li	a4,4
   18656:	853e                	mv	a0,a5
   18658:	00000073          	ecall
   1865c:	00851863          	bne	a0,s0,1866c <_ZN20complex_dynamic_type3app17hcee7e6816ab6f341E+0x6a>
   18660:	4505                	li	a0,1
   18662:	00aa8023          	sb	a0,0(s5)
   18666:	00baa223          	sw	a1,4(s5)
   1866a:	a0bd                	j	186d8 <_ZN20complex_dynamic_type3app17hcee7e6816ab6f341E+0xd6>
   1866c:	853e                	mv	a0,a5
   1866e:	8652                	mv	a2,s4
   18670:	009104a3          	sb	s1,9(sp)
   18674:	478d                	li	a5,3
   18676:	45a5                	li	a1,9
   18678:	03c00693          	li	a3,60
   1867c:	470d                	li	a4,3
   1867e:	00000073          	ecall
   18682:	00851d63          	bne	a0,s0,1869c <_ZN20complex_dynamic_type3app17hcee7e6816ab6f341E+0x9a>
   18686:	05714703          	lbu	a4,87(sp)
   1868a:	4505                	li	a0,1
   1868c:	4609                	li	a2,2
   1868e:	00aa8023          	sb	a0,0(s5)
   18692:	00baa223          	sw	a1,4(s5)
   18696:	02c71963          	bne	a4,a2,186c8 <_ZN20complex_dynamic_type3app17hcee7e6816ab6f341E+0xc6>
   1869a:	a83d                	j	186d8 <_ZN20complex_dynamic_type3app17hcee7e6816ab6f341E+0xd6>
   1869c:	4681                	li	a3,0
   1869e:	04f10ba3          	sb	a5,87(sp)
   186a2:	6509                	lui	a0,0x2
   186a4:	4591                	li	a1,4
   186a6:	4625                	li	a2,9
   186a8:	4709                	li	a4,2
   186aa:	1ab50513          	addi	a0,a0,427 # 21ab <.Lline_table_start1+0x1f80>
   186ae:	08000793          	li	a5,128
   186b2:	00000073          	ecall
   186b6:	4609                	li	a2,2
   186b8:	04f57663          	bgeu	a0,a5,18704 <_ZN20complex_dynamic_type3app17hcee7e6816ab6f341E+0x102>
   186bc:	4505                	li	a0,1
   186be:	00aa8023          	sb	a0,0(s5)
   186c2:	00baa223          	sw	a1,4(s5)
   186c6:	470d                	li	a4,3
   186c8:	6509                	lui	a0,0x2
   186ca:	1ab50513          	addi	a0,a0,427 # 21ab <.Lline_table_start1+0x1f80>
   186ce:	45a5                	li	a1,9
   186d0:	4601                	li	a2,0
   186d2:	4681                	li	a3,0
   186d4:	00000073          	ecall
   186d8:	00914703          	lbu	a4,9(sp)
   186dc:	4509                	li	a0,2
   186de:	00a70a63          	beq	a4,a0,186f2 <_ZN20complex_dynamic_type3app17hcee7e6816ab6f341E+0xf0>
   186e2:	6509                	lui	a0,0x2
   186e4:	1ab50513          	addi	a0,a0,427 # 21ab <.Lline_table_start1+0x1f80>
   186e8:	4591                	li	a1,4
   186ea:	4601                	li	a2,0
   186ec:	4681                	li	a3,0
   186ee:	00000073          	ecall
   186f2:	50ba                	lw	ra,172(sp)
   186f4:	542a                	lw	s0,168(sp)
   186f6:	549a                	lw	s1,164(sp)
   186f8:	590a                	lw	s2,160(sp)
   186fa:	49fa                	lw	s3,156(sp)
   186fc:	4a6a                	lw	s4,152(sp)
   186fe:	4ada                	lw	s5,148(sp)
   18700:	614d                	addi	sp,sp,176
   18702:	8082                	ret
   18704:	00914703          	lbu	a4,9(sp)
   18708:	00c71463          	bne	a4,a2,18710 <_ZN20complex_dynamic_type3app17hcee7e6816ab6f341E+0x10e>
   1870c:	470d                	li	a4,3
   1870e:	a825                	j	18746 <_ZN20complex_dynamic_type3app17hcee7e6816ab6f341E+0x144>
   18710:	6509                	lui	a0,0x2
   18712:	1ab50513          	addi	a0,a0,427 # 21ab <.Lline_table_start1+0x1f80>
   18716:	4591                	li	a1,4
   18718:	4601                	li	a2,0
   1871a:	4681                	li	a3,0
   1871c:	00000073          	ecall
   18720:	05714703          	lbu	a4,87(sp)
   18724:	4509                	li	a0,2
   18726:	00a104a3          	sb	a0,9(sp)
   1872a:	00a71e63          	bne	a4,a0,18746 <_ZN20complex_dynamic_type3app17hcee7e6816ab6f341E+0x144>
   1872e:	001a8513          	addi	a0,s5,1
   18732:	03c00613          	li	a2,60
   18736:	85d2                	mv	a1,s4
   18738:	00006097          	auipc	ra,0x6
   1873c:	ddc080e7          	jalr	-548(ra) # 1e514 <memcpy>
   18740:	000a8023          	sb	zero,0(s5)
   18744:	b77d                	j	186f2 <_ZN20complex_dynamic_type3app17hcee7e6816ab6f341E+0xf0>
   18746:	6509                	lui	a0,0x2
   18748:	1ab50913          	addi	s2,a0,427 # 21ab <.Lline_table_start1+0x1f80>
   1874c:	45a5                	li	a1,9
   1874e:	854a                	mv	a0,s2
   18750:	4601                	li	a2,0
   18752:	4681                	li	a3,0
   18754:	00000073          	ecall
   18758:	00914983          	lbu	s3,9(sp)
   1875c:	001a8513          	addi	a0,s5,1
   18760:	03c00613          	li	a2,60
   18764:	85d2                	mv	a1,s4
   18766:	00006097          	auipc	ra,0x6
   1876a:	dae080e7          	jalr	-594(ra) # 1e514 <memcpy>
   1876e:	4509                	li	a0,2
   18770:	000a8023          	sb	zero,0(s5)
   18774:	f6a98fe3          	beq	s3,a0,186f2 <_ZN20complex_dynamic_type3app17hcee7e6816ab6f341E+0xf0>
   18778:	4591                	li	a1,4
   1877a:	854a                	mv	a0,s2
   1877c:	4601                	li	a2,0
   1877e:	4681                	li	a3,0
   18780:	874e                	mv	a4,s3
   18782:	00000073          	ecall
   18786:	b7b5                	j	186f2 <_ZN20complex_dynamic_type3app17hcee7e6816ab6f341E+0xf0>

00018788 <_ZN20complex_dynamic_type3app17hd064d4f73dd7ba73E>:
   18788:	7135                	addi	sp,sp,-160
   1878a:	cf06                	sw	ra,156(sp)
   1878c:	cd22                	sw	s0,152(sp)
   1878e:	cb26                	sw	s1,148(sp)
   18790:	c94a                	sw	s2,144(sp)
   18792:	c74e                	sw	s3,140(sp)
   18794:	c552                	sw	s4,136(sp)
   18796:	c356                	sw	s5,132(sp)
   18798:	8aaa                	mv	s5,a0
   1879a:	4409                	li	s0,2
   1879c:	00810723          	sb	s0,14(sp)
   187a0:	00f10493          	addi	s1,sp,15
   187a4:	03500613          	li	a2,53
   187a8:	8526                	mv	a0,s1
   187aa:	00006097          	auipc	ra,0x6
   187ae:	d6a080e7          	jalr	-662(ra) # 1e514 <memcpy>
   187b2:	04510a13          	addi	s4,sp,69
   187b6:	03f00613          	li	a2,63
   187ba:	8552                	mv	a0,s4
   187bc:	4581                	li	a1,0
   187be:	00006097          	auipc	ra,0x6
   187c2:	cea080e7          	jalr	-790(ra) # 1e4a8 <memset>
   187c6:	4581                	li	a1,0
   187c8:	8626                	mv	a2,s1
   187ca:	04810223          	sb	s0,68(sp)
   187ce:	6505                	lui	a0,0x1
   187d0:	4491                	li	s1,4
   187d2:	e5750793          	addi	a5,a0,-425 # e57 <.Lline_table_start1+0xc2c>
   187d6:	03500693          	li	a3,53
   187da:	4711                	li	a4,4
   187dc:	853e                	mv	a0,a5
   187de:	00000073          	ecall
   187e2:	00851863          	bne	a0,s0,187f2 <_ZN20complex_dynamic_type3app17hd064d4f73dd7ba73E+0x6a>
   187e6:	4505                	li	a0,1
   187e8:	00aa8023          	sb	a0,0(s5)
   187ec:	00baa223          	sw	a1,4(s5)
   187f0:	a0bd                	j	1885e <_ZN20complex_dynamic_type3app17hd064d4f73dd7ba73E+0xd6>
   187f2:	853e                	mv	a0,a5
   187f4:	8652                	mv	a2,s4
   187f6:	00910723          	sb	s1,14(sp)
   187fa:	478d                	li	a5,3
   187fc:	458d                	li	a1,3
   187fe:	03f00693          	li	a3,63
   18802:	470d                	li	a4,3
   18804:	00000073          	ecall
   18808:	00851d63          	bne	a0,s0,18822 <_ZN20complex_dynamic_type3app17hd064d4f73dd7ba73E+0x9a>
   1880c:	04414703          	lbu	a4,68(sp)
   18810:	4505                	li	a0,1
   18812:	4609                	li	a2,2
   18814:	00aa8023          	sb	a0,0(s5)
   18818:	00baa223          	sw	a1,4(s5)
   1881c:	02c71963          	bne	a4,a2,1884e <_ZN20complex_dynamic_type3app17hd064d4f73dd7ba73E+0xc6>
   18820:	a83d                	j	1885e <_ZN20complex_dynamic_type3app17hd064d4f73dd7ba73E+0xd6>
   18822:	4581                	li	a1,0
   18824:	4681                	li	a3,0
   18826:	04f10223          	sb	a5,68(sp)
   1882a:	6505                	lui	a0,0x1
   1882c:	460d                	li	a2,3
   1882e:	4709                	li	a4,2
   18830:	e5750513          	addi	a0,a0,-425 # e57 <.Lline_table_start1+0xc2c>
   18834:	08000793          	li	a5,128
   18838:	00000073          	ecall
   1883c:	4609                	li	a2,2
   1883e:	04f57663          	bgeu	a0,a5,1888a <_ZN20complex_dynamic_type3app17hd064d4f73dd7ba73E+0x102>
   18842:	4505                	li	a0,1
   18844:	00aa8023          	sb	a0,0(s5)
   18848:	00baa223          	sw	a1,4(s5)
   1884c:	470d                	li	a4,3
   1884e:	6505                	lui	a0,0x1
   18850:	e5750513          	addi	a0,a0,-425 # e57 <.Lline_table_start1+0xc2c>
   18854:	458d                	li	a1,3
   18856:	4601                	li	a2,0
   18858:	4681                	li	a3,0
   1885a:	00000073          	ecall
   1885e:	00e14703          	lbu	a4,14(sp)
   18862:	4509                	li	a0,2
   18864:	00a70a63          	beq	a4,a0,18878 <_ZN20complex_dynamic_type3app17hd064d4f73dd7ba73E+0xf0>
   18868:	6505                	lui	a0,0x1
   1886a:	e5750513          	addi	a0,a0,-425 # e57 <.Lline_table_start1+0xc2c>
   1886e:	4581                	li	a1,0
   18870:	4601                	li	a2,0
   18872:	4681                	li	a3,0
   18874:	00000073          	ecall
   18878:	40fa                	lw	ra,156(sp)
   1887a:	446a                	lw	s0,152(sp)
   1887c:	44da                	lw	s1,148(sp)
   1887e:	494a                	lw	s2,144(sp)
   18880:	49ba                	lw	s3,140(sp)
   18882:	4a2a                	lw	s4,136(sp)
   18884:	4a9a                	lw	s5,132(sp)
   18886:	610d                	addi	sp,sp,160
   18888:	8082                	ret
   1888a:	00e14703          	lbu	a4,14(sp)
   1888e:	00c71463          	bne	a4,a2,18896 <_ZN20complex_dynamic_type3app17hd064d4f73dd7ba73E+0x10e>
   18892:	470d                	li	a4,3
   18894:	a825                	j	188cc <_ZN20complex_dynamic_type3app17hd064d4f73dd7ba73E+0x144>
   18896:	6505                	lui	a0,0x1
   18898:	e5750513          	addi	a0,a0,-425 # e57 <.Lline_table_start1+0xc2c>
   1889c:	4581                	li	a1,0
   1889e:	4601                	li	a2,0
   188a0:	4681                	li	a3,0
   188a2:	00000073          	ecall
   188a6:	04414703          	lbu	a4,68(sp)
   188aa:	4509                	li	a0,2
   188ac:	00a10723          	sb	a0,14(sp)
   188b0:	00a71e63          	bne	a4,a0,188cc <_ZN20complex_dynamic_type3app17hd064d4f73dd7ba73E+0x144>
   188b4:	001a8513          	addi	a0,s5,1
   188b8:	03f00613          	li	a2,63
   188bc:	85d2                	mv	a1,s4
   188be:	00006097          	auipc	ra,0x6
   188c2:	c56080e7          	jalr	-938(ra) # 1e514 <memcpy>
   188c6:	000a8023          	sb	zero,0(s5)
   188ca:	b77d                	j	18878 <_ZN20complex_dynamic_type3app17hd064d4f73dd7ba73E+0xf0>
   188cc:	6505                	lui	a0,0x1
   188ce:	e5750913          	addi	s2,a0,-425 # e57 <.Lline_table_start1+0xc2c>
   188d2:	458d                	li	a1,3
   188d4:	854a                	mv	a0,s2
   188d6:	4601                	li	a2,0
   188d8:	4681                	li	a3,0
   188da:	00000073          	ecall
   188de:	00e14983          	lbu	s3,14(sp)
   188e2:	001a8513          	addi	a0,s5,1
   188e6:	03f00613          	li	a2,63
   188ea:	85d2                	mv	a1,s4
   188ec:	00006097          	auipc	ra,0x6
   188f0:	c28080e7          	jalr	-984(ra) # 1e514 <memcpy>
   188f4:	4509                	li	a0,2
   188f6:	000a8023          	sb	zero,0(s5)
   188fa:	f6a98fe3          	beq	s3,a0,18878 <_ZN20complex_dynamic_type3app17hd064d4f73dd7ba73E+0xf0>
   188fe:	854a                	mv	a0,s2
   18900:	4581                	li	a1,0
   18902:	4601                	li	a2,0
   18904:	4681                	li	a3,0
   18906:	874e                	mv	a4,s3
   18908:	00000073          	ecall
   1890c:	b7b5                	j	18878 <_ZN20complex_dynamic_type3app17hd064d4f73dd7ba73E+0xf0>

0001890e <_ZN20complex_dynamic_type3app17hdc892b708df0982eE>:
   1890e:	7119                	addi	sp,sp,-128
   18910:	de86                	sw	ra,124(sp)
   18912:	dca2                	sw	s0,120(sp)
   18914:	daa6                	sw	s1,116(sp)
   18916:	d8ca                	sw	s2,112(sp)
   18918:	d6ce                	sw	s3,108(sp)
   1891a:	d4d2                	sw	s4,104(sp)
   1891c:	d2d6                	sw	s5,100(sp)
   1891e:	8aaa                	mv	s5,a0
   18920:	4409                	li	s0,2
   18922:	008107a3          	sb	s0,15(sp)
   18926:	0804                	addi	s1,sp,16
   18928:	02400613          	li	a2,36
   1892c:	8526                	mv	a0,s1
   1892e:	00006097          	auipc	ra,0x6
   18932:	be6080e7          	jalr	-1050(ra) # 1e514 <memcpy>
   18936:	03510a13          	addi	s4,sp,53
   1893a:	02f00613          	li	a2,47
   1893e:	8552                	mv	a0,s4
   18940:	4581                	li	a1,0
   18942:	00006097          	auipc	ra,0x6
   18946:	b66080e7          	jalr	-1178(ra) # 1e4a8 <memset>
   1894a:	8626                	mv	a2,s1
   1894c:	02810a23          	sb	s0,52(sp)
   18950:	6505                	lui	a0,0x1
   18952:	4491                	li	s1,4
   18954:	4599                	li	a1,6
   18956:	27350793          	addi	a5,a0,627 # 1273 <.Lline_table_start1+0x1048>
   1895a:	02400693          	li	a3,36
   1895e:	4711                	li	a4,4
   18960:	853e                	mv	a0,a5
   18962:	00000073          	ecall
   18966:	00851863          	bne	a0,s0,18976 <_ZN20complex_dynamic_type3app17hdc892b708df0982eE+0x68>
   1896a:	4505                	li	a0,1
   1896c:	00aa8023          	sb	a0,0(s5)
   18970:	00baa223          	sw	a1,4(s5)
   18974:	a0bd                	j	189e2 <_ZN20complex_dynamic_type3app17hdc892b708df0982eE+0xd4>
   18976:	853e                	mv	a0,a5
   18978:	8652                	mv	a2,s4
   1897a:	009107a3          	sb	s1,15(sp)
   1897e:	478d                	li	a5,3
   18980:	45a5                	li	a1,9
   18982:	02f00693          	li	a3,47
   18986:	470d                	li	a4,3
   18988:	00000073          	ecall
   1898c:	00851d63          	bne	a0,s0,189a6 <_ZN20complex_dynamic_type3app17hdc892b708df0982eE+0x98>
   18990:	03414703          	lbu	a4,52(sp)
   18994:	4505                	li	a0,1
   18996:	4609                	li	a2,2
   18998:	00aa8023          	sb	a0,0(s5)
   1899c:	00baa223          	sw	a1,4(s5)
   189a0:	02c71963          	bne	a4,a2,189d2 <_ZN20complex_dynamic_type3app17hdc892b708df0982eE+0xc4>
   189a4:	a83d                	j	189e2 <_ZN20complex_dynamic_type3app17hdc892b708df0982eE+0xd4>
   189a6:	4681                	li	a3,0
   189a8:	02f10a23          	sb	a5,52(sp)
   189ac:	6505                	lui	a0,0x1
   189ae:	4599                	li	a1,6
   189b0:	4625                	li	a2,9
   189b2:	4709                	li	a4,2
   189b4:	27350513          	addi	a0,a0,627 # 1273 <.Lline_table_start1+0x1048>
   189b8:	08000793          	li	a5,128
   189bc:	00000073          	ecall
   189c0:	4609                	li	a2,2
   189c2:	04f57663          	bgeu	a0,a5,18a0e <_ZN20complex_dynamic_type3app17hdc892b708df0982eE+0x100>
   189c6:	4505                	li	a0,1
   189c8:	00aa8023          	sb	a0,0(s5)
   189cc:	00baa223          	sw	a1,4(s5)
   189d0:	470d                	li	a4,3
   189d2:	6505                	lui	a0,0x1
   189d4:	27350513          	addi	a0,a0,627 # 1273 <.Lline_table_start1+0x1048>
   189d8:	45a5                	li	a1,9
   189da:	4601                	li	a2,0
   189dc:	4681                	li	a3,0
   189de:	00000073          	ecall
   189e2:	00f14703          	lbu	a4,15(sp)
   189e6:	4509                	li	a0,2
   189e8:	00a70a63          	beq	a4,a0,189fc <_ZN20complex_dynamic_type3app17hdc892b708df0982eE+0xee>
   189ec:	6505                	lui	a0,0x1
   189ee:	27350513          	addi	a0,a0,627 # 1273 <.Lline_table_start1+0x1048>
   189f2:	4599                	li	a1,6
   189f4:	4601                	li	a2,0
   189f6:	4681                	li	a3,0
   189f8:	00000073          	ecall
   189fc:	50f6                	lw	ra,124(sp)
   189fe:	5466                	lw	s0,120(sp)
   18a00:	54d6                	lw	s1,116(sp)
   18a02:	5946                	lw	s2,112(sp)
   18a04:	59b6                	lw	s3,108(sp)
   18a06:	5a26                	lw	s4,104(sp)
   18a08:	5a96                	lw	s5,100(sp)
   18a0a:	6109                	addi	sp,sp,128
   18a0c:	8082                	ret
   18a0e:	00f14703          	lbu	a4,15(sp)
   18a12:	00c71463          	bne	a4,a2,18a1a <_ZN20complex_dynamic_type3app17hdc892b708df0982eE+0x10c>
   18a16:	470d                	li	a4,3
   18a18:	a825                	j	18a50 <_ZN20complex_dynamic_type3app17hdc892b708df0982eE+0x142>
   18a1a:	6505                	lui	a0,0x1
   18a1c:	27350513          	addi	a0,a0,627 # 1273 <.Lline_table_start1+0x1048>
   18a20:	4599                	li	a1,6
   18a22:	4601                	li	a2,0
   18a24:	4681                	li	a3,0
   18a26:	00000073          	ecall
   18a2a:	03414703          	lbu	a4,52(sp)
   18a2e:	4509                	li	a0,2
   18a30:	00a107a3          	sb	a0,15(sp)
   18a34:	00a71e63          	bne	a4,a0,18a50 <_ZN20complex_dynamic_type3app17hdc892b708df0982eE+0x142>
   18a38:	001a8513          	addi	a0,s5,1
   18a3c:	02f00613          	li	a2,47
   18a40:	85d2                	mv	a1,s4
   18a42:	00006097          	auipc	ra,0x6
   18a46:	ad2080e7          	jalr	-1326(ra) # 1e514 <memcpy>
   18a4a:	000a8023          	sb	zero,0(s5)
   18a4e:	b77d                	j	189fc <_ZN20complex_dynamic_type3app17hdc892b708df0982eE+0xee>
   18a50:	6505                	lui	a0,0x1
   18a52:	27350913          	addi	s2,a0,627 # 1273 <.Lline_table_start1+0x1048>
   18a56:	45a5                	li	a1,9
   18a58:	854a                	mv	a0,s2
   18a5a:	4601                	li	a2,0
   18a5c:	4681                	li	a3,0
   18a5e:	00000073          	ecall
   18a62:	00f14983          	lbu	s3,15(sp)
   18a66:	001a8513          	addi	a0,s5,1
   18a6a:	02f00613          	li	a2,47
   18a6e:	85d2                	mv	a1,s4
   18a70:	00006097          	auipc	ra,0x6
   18a74:	aa4080e7          	jalr	-1372(ra) # 1e514 <memcpy>
   18a78:	4509                	li	a0,2
   18a7a:	000a8023          	sb	zero,0(s5)
   18a7e:	f6a98fe3          	beq	s3,a0,189fc <_ZN20complex_dynamic_type3app17hdc892b708df0982eE+0xee>
   18a82:	4599                	li	a1,6
   18a84:	854a                	mv	a0,s2
   18a86:	4601                	li	a2,0
   18a88:	4681                	li	a3,0
   18a8a:	874e                	mv	a4,s3
   18a8c:	00000073          	ecall
   18a90:	b7b5                	j	189fc <_ZN20complex_dynamic_type3app17hdc892b708df0982eE+0xee>

00018a92 <_ZN20complex_dynamic_type3app17hdccb1afaccbf8db5E>:
   18a92:	7159                	addi	sp,sp,-112
   18a94:	d686                	sw	ra,108(sp)
   18a96:	d4a2                	sw	s0,104(sp)
   18a98:	d2a6                	sw	s1,100(sp)
   18a9a:	d0ca                	sw	s2,96(sp)
   18a9c:	cece                	sw	s3,92(sp)
   18a9e:	ccd2                	sw	s4,88(sp)
   18aa0:	cad6                	sw	s5,84(sp)
   18aa2:	8aaa                	mv	s5,a0
   18aa4:	4409                	li	s0,2
   18aa6:	008101a3          	sb	s0,3(sp)
   18aaa:	0044                	addi	s1,sp,4
   18aac:	02500613          	li	a2,37
   18ab0:	8526                	mv	a0,s1
   18ab2:	00006097          	auipc	ra,0x6
   18ab6:	a62080e7          	jalr	-1438(ra) # 1e514 <memcpy>
   18aba:	02a10a13          	addi	s4,sp,42
   18abe:	02a00613          	li	a2,42
   18ac2:	8552                	mv	a0,s4
   18ac4:	4581                	li	a1,0
   18ac6:	00006097          	auipc	ra,0x6
   18aca:	9e2080e7          	jalr	-1566(ra) # 1e4a8 <memset>
   18ace:	4581                	li	a1,0
   18ad0:	8626                	mv	a2,s1
   18ad2:	028104a3          	sb	s0,41(sp)
   18ad6:	6505                	lui	a0,0x1
   18ad8:	4491                	li	s1,4
   18ada:	93c50793          	addi	a5,a0,-1732 # 93c <.Lline_table_start1+0x711>
   18ade:	02500693          	li	a3,37
   18ae2:	4711                	li	a4,4
   18ae4:	853e                	mv	a0,a5
   18ae6:	00000073          	ecall
   18aea:	00851863          	bne	a0,s0,18afa <_ZN20complex_dynamic_type3app17hdccb1afaccbf8db5E+0x68>
   18aee:	4505                	li	a0,1
   18af0:	00aa8023          	sb	a0,0(s5)
   18af4:	00baa223          	sw	a1,4(s5)
   18af8:	a0bd                	j	18b66 <_ZN20complex_dynamic_type3app17hdccb1afaccbf8db5E+0xd4>
   18afa:	853e                	mv	a0,a5
   18afc:	8652                	mv	a2,s4
   18afe:	009101a3          	sb	s1,3(sp)
   18b02:	478d                	li	a5,3
   18b04:	458d                	li	a1,3
   18b06:	02a00693          	li	a3,42
   18b0a:	470d                	li	a4,3
   18b0c:	00000073          	ecall
   18b10:	00851d63          	bne	a0,s0,18b2a <_ZN20complex_dynamic_type3app17hdccb1afaccbf8db5E+0x98>
   18b14:	02914703          	lbu	a4,41(sp)
   18b18:	4505                	li	a0,1
   18b1a:	4609                	li	a2,2
   18b1c:	00aa8023          	sb	a0,0(s5)
   18b20:	00baa223          	sw	a1,4(s5)
   18b24:	02c71963          	bne	a4,a2,18b56 <_ZN20complex_dynamic_type3app17hdccb1afaccbf8db5E+0xc4>
   18b28:	a83d                	j	18b66 <_ZN20complex_dynamic_type3app17hdccb1afaccbf8db5E+0xd4>
   18b2a:	4581                	li	a1,0
   18b2c:	4681                	li	a3,0
   18b2e:	02f104a3          	sb	a5,41(sp)
   18b32:	6505                	lui	a0,0x1
   18b34:	460d                	li	a2,3
   18b36:	4709                	li	a4,2
   18b38:	93c50513          	addi	a0,a0,-1732 # 93c <.Lline_table_start1+0x711>
   18b3c:	08000793          	li	a5,128
   18b40:	00000073          	ecall
   18b44:	4609                	li	a2,2
   18b46:	04f57663          	bgeu	a0,a5,18b92 <_ZN20complex_dynamic_type3app17hdccb1afaccbf8db5E+0x100>
   18b4a:	4505                	li	a0,1
   18b4c:	00aa8023          	sb	a0,0(s5)
   18b50:	00baa223          	sw	a1,4(s5)
   18b54:	470d                	li	a4,3
   18b56:	6505                	lui	a0,0x1
   18b58:	93c50513          	addi	a0,a0,-1732 # 93c <.Lline_table_start1+0x711>
   18b5c:	458d                	li	a1,3
   18b5e:	4601                	li	a2,0
   18b60:	4681                	li	a3,0
   18b62:	00000073          	ecall
   18b66:	00314703          	lbu	a4,3(sp)
   18b6a:	4509                	li	a0,2
   18b6c:	00a70a63          	beq	a4,a0,18b80 <_ZN20complex_dynamic_type3app17hdccb1afaccbf8db5E+0xee>
   18b70:	6505                	lui	a0,0x1
   18b72:	93c50513          	addi	a0,a0,-1732 # 93c <.Lline_table_start1+0x711>
   18b76:	4581                	li	a1,0
   18b78:	4601                	li	a2,0
   18b7a:	4681                	li	a3,0
   18b7c:	00000073          	ecall
   18b80:	50b6                	lw	ra,108(sp)
   18b82:	5426                	lw	s0,104(sp)
   18b84:	5496                	lw	s1,100(sp)
   18b86:	5906                	lw	s2,96(sp)
   18b88:	49f6                	lw	s3,92(sp)
   18b8a:	4a66                	lw	s4,88(sp)
   18b8c:	4ad6                	lw	s5,84(sp)
   18b8e:	6165                	addi	sp,sp,112
   18b90:	8082                	ret
   18b92:	00314703          	lbu	a4,3(sp)
   18b96:	00c71463          	bne	a4,a2,18b9e <_ZN20complex_dynamic_type3app17hdccb1afaccbf8db5E+0x10c>
   18b9a:	470d                	li	a4,3
   18b9c:	a825                	j	18bd4 <_ZN20complex_dynamic_type3app17hdccb1afaccbf8db5E+0x142>
   18b9e:	6505                	lui	a0,0x1
   18ba0:	93c50513          	addi	a0,a0,-1732 # 93c <.Lline_table_start1+0x711>
   18ba4:	4581                	li	a1,0
   18ba6:	4601                	li	a2,0
   18ba8:	4681                	li	a3,0
   18baa:	00000073          	ecall
   18bae:	02914703          	lbu	a4,41(sp)
   18bb2:	4509                	li	a0,2
   18bb4:	00a101a3          	sb	a0,3(sp)
   18bb8:	00a71e63          	bne	a4,a0,18bd4 <_ZN20complex_dynamic_type3app17hdccb1afaccbf8db5E+0x142>
   18bbc:	001a8513          	addi	a0,s5,1
   18bc0:	02a00613          	li	a2,42
   18bc4:	85d2                	mv	a1,s4
   18bc6:	00006097          	auipc	ra,0x6
   18bca:	94e080e7          	jalr	-1714(ra) # 1e514 <memcpy>
   18bce:	000a8023          	sb	zero,0(s5)
   18bd2:	b77d                	j	18b80 <_ZN20complex_dynamic_type3app17hdccb1afaccbf8db5E+0xee>
   18bd4:	6505                	lui	a0,0x1
   18bd6:	93c50913          	addi	s2,a0,-1732 # 93c <.Lline_table_start1+0x711>
   18bda:	458d                	li	a1,3
   18bdc:	854a                	mv	a0,s2
   18bde:	4601                	li	a2,0
   18be0:	4681                	li	a3,0
   18be2:	00000073          	ecall
   18be6:	00314983          	lbu	s3,3(sp)
   18bea:	001a8513          	addi	a0,s5,1
   18bee:	02a00613          	li	a2,42
   18bf2:	85d2                	mv	a1,s4
   18bf4:	00006097          	auipc	ra,0x6
   18bf8:	920080e7          	jalr	-1760(ra) # 1e514 <memcpy>
   18bfc:	4509                	li	a0,2
   18bfe:	000a8023          	sb	zero,0(s5)
   18c02:	f6a98fe3          	beq	s3,a0,18b80 <_ZN20complex_dynamic_type3app17hdccb1afaccbf8db5E+0xee>
   18c06:	854a                	mv	a0,s2
   18c08:	4581                	li	a1,0
   18c0a:	4601                	li	a2,0
   18c0c:	4681                	li	a3,0
   18c0e:	874e                	mv	a4,s3
   18c10:	00000073          	ecall
   18c14:	b7b5                	j	18b80 <_ZN20complex_dynamic_type3app17hdccb1afaccbf8db5E+0xee>

00018c16 <_ZN20complex_dynamic_type3app17he0db423540791047E>:
   18c16:	7131                	addi	sp,sp,-192
   18c18:	df06                	sw	ra,188(sp)
   18c1a:	dd22                	sw	s0,184(sp)
   18c1c:	db26                	sw	s1,180(sp)
   18c1e:	d94a                	sw	s2,176(sp)
   18c20:	d74e                	sw	s3,172(sp)
   18c22:	d552                	sw	s4,168(sp)
   18c24:	d356                	sw	s5,164(sp)
   18c26:	8aaa                	mv	s5,a0
   18c28:	4409                	li	s0,2
   18c2a:	00810123          	sb	s0,2(sp)
   18c2e:	00310493          	addi	s1,sp,3
   18c32:	05100613          	li	a2,81
   18c36:	8526                	mv	a0,s1
   18c38:	00006097          	auipc	ra,0x6
   18c3c:	8dc080e7          	jalr	-1828(ra) # 1e514 <memcpy>
   18c40:	05510a13          	addi	s4,sp,85
   18c44:	04f00613          	li	a2,79
   18c48:	8552                	mv	a0,s4
   18c4a:	4581                	li	a1,0
   18c4c:	00006097          	auipc	ra,0x6
   18c50:	85c080e7          	jalr	-1956(ra) # 1e4a8 <memset>
   18c54:	8626                	mv	a2,s1
   18c56:	04810a23          	sb	s0,84(sp)
   18c5a:	6505                	lui	a0,0x1
   18c5c:	4491                	li	s1,4
   18c5e:	4589                	li	a1,2
   18c60:	e1650793          	addi	a5,a0,-490 # e16 <.Lline_table_start1+0xbeb>
   18c64:	05100693          	li	a3,81
   18c68:	4711                	li	a4,4
   18c6a:	853e                	mv	a0,a5
   18c6c:	00000073          	ecall
   18c70:	00851863          	bne	a0,s0,18c80 <_ZN20complex_dynamic_type3app17he0db423540791047E+0x6a>
   18c74:	4505                	li	a0,1
   18c76:	00aa8023          	sb	a0,0(s5)
   18c7a:	00baa223          	sw	a1,4(s5)
   18c7e:	a0bd                	j	18cec <_ZN20complex_dynamic_type3app17he0db423540791047E+0xd6>
   18c80:	853e                	mv	a0,a5
   18c82:	8652                	mv	a2,s4
   18c84:	00910123          	sb	s1,2(sp)
   18c88:	478d                	li	a5,3
   18c8a:	4591                	li	a1,4
   18c8c:	04f00693          	li	a3,79
   18c90:	470d                	li	a4,3
   18c92:	00000073          	ecall
   18c96:	00851d63          	bne	a0,s0,18cb0 <_ZN20complex_dynamic_type3app17he0db423540791047E+0x9a>
   18c9a:	05414703          	lbu	a4,84(sp)
   18c9e:	4505                	li	a0,1
   18ca0:	4609                	li	a2,2
   18ca2:	00aa8023          	sb	a0,0(s5)
   18ca6:	00baa223          	sw	a1,4(s5)
   18caa:	02c71963          	bne	a4,a2,18cdc <_ZN20complex_dynamic_type3app17he0db423540791047E+0xc6>
   18cae:	a83d                	j	18cec <_ZN20complex_dynamic_type3app17he0db423540791047E+0xd6>
   18cb0:	4681                	li	a3,0
   18cb2:	04f10a23          	sb	a5,84(sp)
   18cb6:	6505                	lui	a0,0x1
   18cb8:	4589                	li	a1,2
   18cba:	4611                	li	a2,4
   18cbc:	4709                	li	a4,2
   18cbe:	e1650513          	addi	a0,a0,-490 # e16 <.Lline_table_start1+0xbeb>
   18cc2:	08000793          	li	a5,128
   18cc6:	00000073          	ecall
   18cca:	4609                	li	a2,2
   18ccc:	04f57663          	bgeu	a0,a5,18d18 <_ZN20complex_dynamic_type3app17he0db423540791047E+0x102>
   18cd0:	4505                	li	a0,1
   18cd2:	00aa8023          	sb	a0,0(s5)
   18cd6:	00baa223          	sw	a1,4(s5)
   18cda:	470d                	li	a4,3
   18cdc:	6505                	lui	a0,0x1
   18cde:	e1650513          	addi	a0,a0,-490 # e16 <.Lline_table_start1+0xbeb>
   18ce2:	4591                	li	a1,4
   18ce4:	4601                	li	a2,0
   18ce6:	4681                	li	a3,0
   18ce8:	00000073          	ecall
   18cec:	00214703          	lbu	a4,2(sp)
   18cf0:	4509                	li	a0,2
   18cf2:	00a70a63          	beq	a4,a0,18d06 <_ZN20complex_dynamic_type3app17he0db423540791047E+0xf0>
   18cf6:	6505                	lui	a0,0x1
   18cf8:	e1650513          	addi	a0,a0,-490 # e16 <.Lline_table_start1+0xbeb>
   18cfc:	4589                	li	a1,2
   18cfe:	4601                	li	a2,0
   18d00:	4681                	li	a3,0
   18d02:	00000073          	ecall
   18d06:	50fa                	lw	ra,188(sp)
   18d08:	546a                	lw	s0,184(sp)
   18d0a:	54da                	lw	s1,180(sp)
   18d0c:	594a                	lw	s2,176(sp)
   18d0e:	59ba                	lw	s3,172(sp)
   18d10:	5a2a                	lw	s4,168(sp)
   18d12:	5a9a                	lw	s5,164(sp)
   18d14:	6129                	addi	sp,sp,192
   18d16:	8082                	ret
   18d18:	00214703          	lbu	a4,2(sp)
   18d1c:	00c71463          	bne	a4,a2,18d24 <_ZN20complex_dynamic_type3app17he0db423540791047E+0x10e>
   18d20:	470d                	li	a4,3
   18d22:	a825                	j	18d5a <_ZN20complex_dynamic_type3app17he0db423540791047E+0x144>
   18d24:	6505                	lui	a0,0x1
   18d26:	e1650513          	addi	a0,a0,-490 # e16 <.Lline_table_start1+0xbeb>
   18d2a:	4589                	li	a1,2
   18d2c:	4601                	li	a2,0
   18d2e:	4681                	li	a3,0
   18d30:	00000073          	ecall
   18d34:	05414703          	lbu	a4,84(sp)
   18d38:	4509                	li	a0,2
   18d3a:	00a10123          	sb	a0,2(sp)
   18d3e:	00a71e63          	bne	a4,a0,18d5a <_ZN20complex_dynamic_type3app17he0db423540791047E+0x144>
   18d42:	001a8513          	addi	a0,s5,1
   18d46:	04f00613          	li	a2,79
   18d4a:	85d2                	mv	a1,s4
   18d4c:	00005097          	auipc	ra,0x5
   18d50:	7c8080e7          	jalr	1992(ra) # 1e514 <memcpy>
   18d54:	000a8023          	sb	zero,0(s5)
   18d58:	b77d                	j	18d06 <_ZN20complex_dynamic_type3app17he0db423540791047E+0xf0>
   18d5a:	6505                	lui	a0,0x1
   18d5c:	e1650913          	addi	s2,a0,-490 # e16 <.Lline_table_start1+0xbeb>
   18d60:	4591                	li	a1,4
   18d62:	854a                	mv	a0,s2
   18d64:	4601                	li	a2,0
   18d66:	4681                	li	a3,0
   18d68:	00000073          	ecall
   18d6c:	00214983          	lbu	s3,2(sp)
   18d70:	001a8513          	addi	a0,s5,1
   18d74:	04f00613          	li	a2,79
   18d78:	85d2                	mv	a1,s4
   18d7a:	00005097          	auipc	ra,0x5
   18d7e:	79a080e7          	jalr	1946(ra) # 1e514 <memcpy>
   18d82:	4509                	li	a0,2
   18d84:	000a8023          	sb	zero,0(s5)
   18d88:	f6a98fe3          	beq	s3,a0,18d06 <_ZN20complex_dynamic_type3app17he0db423540791047E+0xf0>
   18d8c:	4589                	li	a1,2
   18d8e:	854a                	mv	a0,s2
   18d90:	4601                	li	a2,0
   18d92:	4681                	li	a3,0
   18d94:	874e                	mv	a4,s3
   18d96:	00000073          	ecall
   18d9a:	b7b5                	j	18d06 <_ZN20complex_dynamic_type3app17he0db423540791047E+0xf0>

00018d9c <_ZN20complex_dynamic_type3app17he158de369fe3760aE>:
   18d9c:	7135                	addi	sp,sp,-160
   18d9e:	cf06                	sw	ra,156(sp)
   18da0:	cd22                	sw	s0,152(sp)
   18da2:	cb26                	sw	s1,148(sp)
   18da4:	c94a                	sw	s2,144(sp)
   18da6:	c74e                	sw	s3,140(sp)
   18da8:	c552                	sw	s4,136(sp)
   18daa:	c356                	sw	s5,132(sp)
   18dac:	8aaa                	mv	s5,a0
   18dae:	4409                	li	s0,2
   18db0:	008105a3          	sb	s0,11(sp)
   18db4:	0064                	addi	s1,sp,12
   18db6:	04a00613          	li	a2,74
   18dba:	8526                	mv	a0,s1
   18dbc:	00005097          	auipc	ra,0x5
   18dc0:	758080e7          	jalr	1880(ra) # 1e514 <memcpy>
   18dc4:	05710a13          	addi	s4,sp,87
   18dc8:	02d00613          	li	a2,45
   18dcc:	8552                	mv	a0,s4
   18dce:	4581                	li	a1,0
   18dd0:	00005097          	auipc	ra,0x5
   18dd4:	6d8080e7          	jalr	1752(ra) # 1e4a8 <memset>
   18dd8:	8626                	mv	a2,s1
   18dda:	04810b23          	sb	s0,86(sp)
   18dde:	6505                	lui	a0,0x1
   18de0:	4491                	li	s1,4
   18de2:	4589                	li	a1,2
   18de4:	e3d50793          	addi	a5,a0,-451 # e3d <.Lline_table_start1+0xc12>
   18de8:	04a00693          	li	a3,74
   18dec:	4711                	li	a4,4
   18dee:	853e                	mv	a0,a5
   18df0:	00000073          	ecall
   18df4:	00851863          	bne	a0,s0,18e04 <_ZN20complex_dynamic_type3app17he158de369fe3760aE+0x68>
   18df8:	4505                	li	a0,1
   18dfa:	00aa8023          	sb	a0,0(s5)
   18dfe:	00baa223          	sw	a1,4(s5)
   18e02:	a0bd                	j	18e70 <_ZN20complex_dynamic_type3app17he158de369fe3760aE+0xd4>
   18e04:	853e                	mv	a0,a5
   18e06:	8652                	mv	a2,s4
   18e08:	009105a3          	sb	s1,11(sp)
   18e0c:	478d                	li	a5,3
   18e0e:	458d                	li	a1,3
   18e10:	02d00693          	li	a3,45
   18e14:	470d                	li	a4,3
   18e16:	00000073          	ecall
   18e1a:	00851d63          	bne	a0,s0,18e34 <_ZN20complex_dynamic_type3app17he158de369fe3760aE+0x98>
   18e1e:	05614703          	lbu	a4,86(sp)
   18e22:	4505                	li	a0,1
   18e24:	4609                	li	a2,2
   18e26:	00aa8023          	sb	a0,0(s5)
   18e2a:	00baa223          	sw	a1,4(s5)
   18e2e:	02c71963          	bne	a4,a2,18e60 <_ZN20complex_dynamic_type3app17he158de369fe3760aE+0xc4>
   18e32:	a83d                	j	18e70 <_ZN20complex_dynamic_type3app17he158de369fe3760aE+0xd4>
   18e34:	4681                	li	a3,0
   18e36:	04f10b23          	sb	a5,86(sp)
   18e3a:	6505                	lui	a0,0x1
   18e3c:	4589                	li	a1,2
   18e3e:	460d                	li	a2,3
   18e40:	4709                	li	a4,2
   18e42:	e3d50513          	addi	a0,a0,-451 # e3d <.Lline_table_start1+0xc12>
   18e46:	08000793          	li	a5,128
   18e4a:	00000073          	ecall
   18e4e:	4609                	li	a2,2
   18e50:	04f57663          	bgeu	a0,a5,18e9c <_ZN20complex_dynamic_type3app17he158de369fe3760aE+0x100>
   18e54:	4505                	li	a0,1
   18e56:	00aa8023          	sb	a0,0(s5)
   18e5a:	00baa223          	sw	a1,4(s5)
   18e5e:	470d                	li	a4,3
   18e60:	6505                	lui	a0,0x1
   18e62:	e3d50513          	addi	a0,a0,-451 # e3d <.Lline_table_start1+0xc12>
   18e66:	458d                	li	a1,3
   18e68:	4601                	li	a2,0
   18e6a:	4681                	li	a3,0
   18e6c:	00000073          	ecall
   18e70:	00b14703          	lbu	a4,11(sp)
   18e74:	4509                	li	a0,2
   18e76:	00a70a63          	beq	a4,a0,18e8a <_ZN20complex_dynamic_type3app17he158de369fe3760aE+0xee>
   18e7a:	6505                	lui	a0,0x1
   18e7c:	e3d50513          	addi	a0,a0,-451 # e3d <.Lline_table_start1+0xc12>
   18e80:	4589                	li	a1,2
   18e82:	4601                	li	a2,0
   18e84:	4681                	li	a3,0
   18e86:	00000073          	ecall
   18e8a:	40fa                	lw	ra,156(sp)
   18e8c:	446a                	lw	s0,152(sp)
   18e8e:	44da                	lw	s1,148(sp)
   18e90:	494a                	lw	s2,144(sp)
   18e92:	49ba                	lw	s3,140(sp)
   18e94:	4a2a                	lw	s4,136(sp)
   18e96:	4a9a                	lw	s5,132(sp)
   18e98:	610d                	addi	sp,sp,160
   18e9a:	8082                	ret
   18e9c:	00b14703          	lbu	a4,11(sp)
   18ea0:	00c71463          	bne	a4,a2,18ea8 <_ZN20complex_dynamic_type3app17he158de369fe3760aE+0x10c>
   18ea4:	470d                	li	a4,3
   18ea6:	a825                	j	18ede <_ZN20complex_dynamic_type3app17he158de369fe3760aE+0x142>
   18ea8:	6505                	lui	a0,0x1
   18eaa:	e3d50513          	addi	a0,a0,-451 # e3d <.Lline_table_start1+0xc12>
   18eae:	4589                	li	a1,2
   18eb0:	4601                	li	a2,0
   18eb2:	4681                	li	a3,0
   18eb4:	00000073          	ecall
   18eb8:	05614703          	lbu	a4,86(sp)
   18ebc:	4509                	li	a0,2
   18ebe:	00a105a3          	sb	a0,11(sp)
   18ec2:	00a71e63          	bne	a4,a0,18ede <_ZN20complex_dynamic_type3app17he158de369fe3760aE+0x142>
   18ec6:	001a8513          	addi	a0,s5,1
   18eca:	02d00613          	li	a2,45
   18ece:	85d2                	mv	a1,s4
   18ed0:	00005097          	auipc	ra,0x5
   18ed4:	644080e7          	jalr	1604(ra) # 1e514 <memcpy>
   18ed8:	000a8023          	sb	zero,0(s5)
   18edc:	b77d                	j	18e8a <_ZN20complex_dynamic_type3app17he158de369fe3760aE+0xee>
   18ede:	6505                	lui	a0,0x1
   18ee0:	e3d50913          	addi	s2,a0,-451 # e3d <.Lline_table_start1+0xc12>
   18ee4:	458d                	li	a1,3
   18ee6:	854a                	mv	a0,s2
   18ee8:	4601                	li	a2,0
   18eea:	4681                	li	a3,0
   18eec:	00000073          	ecall
   18ef0:	00b14983          	lbu	s3,11(sp)
   18ef4:	001a8513          	addi	a0,s5,1
   18ef8:	02d00613          	li	a2,45
   18efc:	85d2                	mv	a1,s4
   18efe:	00005097          	auipc	ra,0x5
   18f02:	616080e7          	jalr	1558(ra) # 1e514 <memcpy>
   18f06:	4509                	li	a0,2
   18f08:	000a8023          	sb	zero,0(s5)
   18f0c:	f6a98fe3          	beq	s3,a0,18e8a <_ZN20complex_dynamic_type3app17he158de369fe3760aE+0xee>
   18f10:	4589                	li	a1,2
   18f12:	854a                	mv	a0,s2
   18f14:	4601                	li	a2,0
   18f16:	4681                	li	a3,0
   18f18:	874e                	mv	a4,s3
   18f1a:	00000073          	ecall
   18f1e:	b7b5                	j	18e8a <_ZN20complex_dynamic_type3app17he158de369fe3760aE+0xee>

00018f20 <_ZN20complex_dynamic_type3app17he1f9a4999c2257d2E>:
   18f20:	711d                	addi	sp,sp,-96
   18f22:	ce86                	sw	ra,92(sp)
   18f24:	cca2                	sw	s0,88(sp)
   18f26:	caa6                	sw	s1,84(sp)
   18f28:	c8ca                	sw	s2,80(sp)
   18f2a:	c6ce                	sw	s3,76(sp)
   18f2c:	c4d2                	sw	s4,72(sp)
   18f2e:	8a2a                	mv	s4,a0
   18f30:	4409                	li	s0,2
   18f32:	008100a3          	sb	s0,1(sp)
   18f36:	00210493          	addi	s1,sp,2
   18f3a:	03600613          	li	a2,54
   18f3e:	8526                	mv	a0,s1
   18f40:	00005097          	auipc	ra,0x5
   18f44:	5d4080e7          	jalr	1492(ra) # 1e514 <memcpy>
   18f48:	03910993          	addi	s3,sp,57
   18f4c:	463d                	li	a2,15
   18f4e:	854e                	mv	a0,s3
   18f50:	4581                	li	a1,0
   18f52:	00005097          	auipc	ra,0x5
   18f56:	556080e7          	jalr	1366(ra) # 1e4a8 <memset>
   18f5a:	8626                	mv	a2,s1
   18f5c:	02810c23          	sb	s0,56(sp)
   18f60:	4791                	li	a5,4
   18f62:	65300513          	li	a0,1619
   18f66:	4595                	li	a1,5
   18f68:	03600693          	li	a3,54
   18f6c:	4711                	li	a4,4
   18f6e:	00000073          	ecall
   18f72:	00851863          	bne	a0,s0,18f82 <_ZN20complex_dynamic_type3app17he1f9a4999c2257d2E+0x62>
   18f76:	4505                	li	a0,1
   18f78:	00aa0023          	sb	a0,0(s4)
   18f7c:	00ba2223          	sw	a1,4(s4)
   18f80:	a0ad                	j	18fea <_ZN20complex_dynamic_type3app17he1f9a4999c2257d2E+0xca>
   18f82:	864e                	mv	a2,s3
   18f84:	00f100a3          	sb	a5,1(sp)
   18f88:	478d                	li	a5,3
   18f8a:	65300513          	li	a0,1619
   18f8e:	458d                	li	a1,3
   18f90:	46bd                	li	a3,15
   18f92:	470d                	li	a4,3
   18f94:	00000073          	ecall
   18f98:	00851d63          	bne	a0,s0,18fb2 <_ZN20complex_dynamic_type3app17he1f9a4999c2257d2E+0x92>
   18f9c:	03814703          	lbu	a4,56(sp)
   18fa0:	4505                	li	a0,1
   18fa2:	4609                	li	a2,2
   18fa4:	00aa0023          	sb	a0,0(s4)
   18fa8:	00ba2223          	sw	a1,4(s4)
   18fac:	02c71863          	bne	a4,a2,18fdc <_ZN20complex_dynamic_type3app17he1f9a4999c2257d2E+0xbc>
   18fb0:	a82d                	j	18fea <_ZN20complex_dynamic_type3app17he1f9a4999c2257d2E+0xca>
   18fb2:	4681                	li	a3,0
   18fb4:	02f10c23          	sb	a5,56(sp)
   18fb8:	65300513          	li	a0,1619
   18fbc:	4595                	li	a1,5
   18fbe:	460d                	li	a2,3
   18fc0:	4709                	li	a4,2
   18fc2:	08000793          	li	a5,128
   18fc6:	00000073          	ecall
   18fca:	4609                	li	a2,2
   18fcc:	04f57363          	bgeu	a0,a5,19012 <_ZN20complex_dynamic_type3app17he1f9a4999c2257d2E+0xf2>
   18fd0:	4505                	li	a0,1
   18fd2:	00aa0023          	sb	a0,0(s4)
   18fd6:	00ba2223          	sw	a1,4(s4)
   18fda:	470d                	li	a4,3
   18fdc:	65300513          	li	a0,1619
   18fe0:	458d                	li	a1,3
   18fe2:	4601                	li	a2,0
   18fe4:	4681                	li	a3,0
   18fe6:	00000073          	ecall
   18fea:	00114703          	lbu	a4,1(sp)
   18fee:	4509                	li	a0,2
   18ff0:	00a70963          	beq	a4,a0,19002 <_ZN20complex_dynamic_type3app17he1f9a4999c2257d2E+0xe2>
   18ff4:	65300513          	li	a0,1619
   18ff8:	4595                	li	a1,5
   18ffa:	4601                	li	a2,0
   18ffc:	4681                	li	a3,0
   18ffe:	00000073          	ecall
   19002:	40f6                	lw	ra,92(sp)
   19004:	4466                	lw	s0,88(sp)
   19006:	44d6                	lw	s1,84(sp)
   19008:	4946                	lw	s2,80(sp)
   1900a:	49b6                	lw	s3,76(sp)
   1900c:	4a26                	lw	s4,72(sp)
   1900e:	6125                	addi	sp,sp,96
   19010:	8082                	ret
   19012:	00114703          	lbu	a4,1(sp)
   19016:	00c71463          	bne	a4,a2,1901e <_ZN20complex_dynamic_type3app17he1f9a4999c2257d2E+0xfe>
   1901a:	470d                	li	a4,3
   1901c:	a815                	j	19050 <_ZN20complex_dynamic_type3app17he1f9a4999c2257d2E+0x130>
   1901e:	65300513          	li	a0,1619
   19022:	4595                	li	a1,5
   19024:	4601                	li	a2,0
   19026:	4681                	li	a3,0
   19028:	00000073          	ecall
   1902c:	03814703          	lbu	a4,56(sp)
   19030:	4509                	li	a0,2
   19032:	00a100a3          	sb	a0,1(sp)
   19036:	00a71d63          	bne	a4,a0,19050 <_ZN20complex_dynamic_type3app17he1f9a4999c2257d2E+0x130>
   1903a:	001a0513          	addi	a0,s4,1
   1903e:	463d                	li	a2,15
   19040:	85ce                	mv	a1,s3
   19042:	00005097          	auipc	ra,0x5
   19046:	4d2080e7          	jalr	1234(ra) # 1e514 <memcpy>
   1904a:	000a0023          	sb	zero,0(s4)
   1904e:	bf55                	j	19002 <_ZN20complex_dynamic_type3app17he1f9a4999c2257d2E+0xe2>
   19050:	65300513          	li	a0,1619
   19054:	458d                	li	a1,3
   19056:	4601                	li	a2,0
   19058:	4681                	li	a3,0
   1905a:	00000073          	ecall
   1905e:	00114903          	lbu	s2,1(sp)
   19062:	001a0513          	addi	a0,s4,1
   19066:	463d                	li	a2,15
   19068:	85ce                	mv	a1,s3
   1906a:	00005097          	auipc	ra,0x5
   1906e:	4aa080e7          	jalr	1194(ra) # 1e514 <memcpy>
   19072:	4509                	li	a0,2
   19074:	000a0023          	sb	zero,0(s4)
   19078:	f8a905e3          	beq	s2,a0,19002 <_ZN20complex_dynamic_type3app17he1f9a4999c2257d2E+0xe2>
   1907c:	65300513          	li	a0,1619
   19080:	4595                	li	a1,5
   19082:	4601                	li	a2,0
   19084:	4681                	li	a3,0
   19086:	874a                	mv	a4,s2
   19088:	00000073          	ecall
   1908c:	bf9d                	j	19002 <_ZN20complex_dynamic_type3app17he1f9a4999c2257d2E+0xe2>

0001908e <_ZN20complex_dynamic_type3app17hee3a39033fc33392E>:
   1908e:	7119                	addi	sp,sp,-128
   19090:	de86                	sw	ra,124(sp)
   19092:	dca2                	sw	s0,120(sp)
   19094:	daa6                	sw	s1,116(sp)
   19096:	d8ca                	sw	s2,112(sp)
   19098:	d6ce                	sw	s3,108(sp)
   1909a:	d4d2                	sw	s4,104(sp)
   1909c:	d2d6                	sw	s5,100(sp)
   1909e:	8aaa                	mv	s5,a0
   190a0:	4409                	li	s0,2
   190a2:	008100a3          	sb	s0,1(sp)
   190a6:	00210493          	addi	s1,sp,2
   190aa:	4645                	li	a2,17
   190ac:	8526                	mv	a0,s1
   190ae:	00005097          	auipc	ra,0x5
   190b2:	466080e7          	jalr	1126(ra) # 1e514 <memcpy>
   190b6:	01410a13          	addi	s4,sp,20
   190ba:	05000613          	li	a2,80
   190be:	8552                	mv	a0,s4
   190c0:	4581                	li	a1,0
   190c2:	00005097          	auipc	ra,0x5
   190c6:	3e6080e7          	jalr	998(ra) # 1e4a8 <memset>
   190ca:	8626                	mv	a2,s1
   190cc:	008109a3          	sb	s0,19(sp)
   190d0:	6509                	lui	a0,0x2
   190d2:	4491                	li	s1,4
   190d4:	4599                	li	a1,6
   190d6:	aa950793          	addi	a5,a0,-1367 # 1aa9 <.Lline_table_start1+0x187e>
   190da:	46c5                	li	a3,17
   190dc:	4711                	li	a4,4
   190de:	853e                	mv	a0,a5
   190e0:	00000073          	ecall
   190e4:	00851863          	bne	a0,s0,190f4 <_ZN20complex_dynamic_type3app17hee3a39033fc33392E+0x66>
   190e8:	4505                	li	a0,1
   190ea:	00aa8023          	sb	a0,0(s5)
   190ee:	00baa223          	sw	a1,4(s5)
   190f2:	a0bd                	j	19160 <_ZN20complex_dynamic_type3app17hee3a39033fc33392E+0xd2>
   190f4:	853e                	mv	a0,a5
   190f6:	8652                	mv	a2,s4
   190f8:	009100a3          	sb	s1,1(sp)
   190fc:	478d                	li	a5,3
   190fe:	4595                	li	a1,5
   19100:	05000693          	li	a3,80
   19104:	470d                	li	a4,3
   19106:	00000073          	ecall
   1910a:	00851d63          	bne	a0,s0,19124 <_ZN20complex_dynamic_type3app17hee3a39033fc33392E+0x96>
   1910e:	01314703          	lbu	a4,19(sp)
   19112:	4505                	li	a0,1
   19114:	4609                	li	a2,2
   19116:	00aa8023          	sb	a0,0(s5)
   1911a:	00baa223          	sw	a1,4(s5)
   1911e:	02c71963          	bne	a4,a2,19150 <_ZN20complex_dynamic_type3app17hee3a39033fc33392E+0xc2>
   19122:	a83d                	j	19160 <_ZN20complex_dynamic_type3app17hee3a39033fc33392E+0xd2>
   19124:	4681                	li	a3,0
   19126:	00f109a3          	sb	a5,19(sp)
   1912a:	6509                	lui	a0,0x2
   1912c:	4599                	li	a1,6
   1912e:	4615                	li	a2,5
   19130:	4709                	li	a4,2
   19132:	aa950513          	addi	a0,a0,-1367 # 1aa9 <.Lline_table_start1+0x187e>
   19136:	08000793          	li	a5,128
   1913a:	00000073          	ecall
   1913e:	4609                	li	a2,2
   19140:	04f57663          	bgeu	a0,a5,1918c <_ZN20complex_dynamic_type3app17hee3a39033fc33392E+0xfe>
   19144:	4505                	li	a0,1
   19146:	00aa8023          	sb	a0,0(s5)
   1914a:	00baa223          	sw	a1,4(s5)
   1914e:	470d                	li	a4,3
   19150:	6509                	lui	a0,0x2
   19152:	aa950513          	addi	a0,a0,-1367 # 1aa9 <.Lline_table_start1+0x187e>
   19156:	4595                	li	a1,5
   19158:	4601                	li	a2,0
   1915a:	4681                	li	a3,0
   1915c:	00000073          	ecall
   19160:	00114703          	lbu	a4,1(sp)
   19164:	4509                	li	a0,2
   19166:	00a70a63          	beq	a4,a0,1917a <_ZN20complex_dynamic_type3app17hee3a39033fc33392E+0xec>
   1916a:	6509                	lui	a0,0x2
   1916c:	aa950513          	addi	a0,a0,-1367 # 1aa9 <.Lline_table_start1+0x187e>
   19170:	4599                	li	a1,6
   19172:	4601                	li	a2,0
   19174:	4681                	li	a3,0
   19176:	00000073          	ecall
   1917a:	50f6                	lw	ra,124(sp)
   1917c:	5466                	lw	s0,120(sp)
   1917e:	54d6                	lw	s1,116(sp)
   19180:	5946                	lw	s2,112(sp)
   19182:	59b6                	lw	s3,108(sp)
   19184:	5a26                	lw	s4,104(sp)
   19186:	5a96                	lw	s5,100(sp)
   19188:	6109                	addi	sp,sp,128
   1918a:	8082                	ret
   1918c:	00114703          	lbu	a4,1(sp)
   19190:	00c71463          	bne	a4,a2,19198 <_ZN20complex_dynamic_type3app17hee3a39033fc33392E+0x10a>
   19194:	470d                	li	a4,3
   19196:	a825                	j	191ce <_ZN20complex_dynamic_type3app17hee3a39033fc33392E+0x140>
   19198:	6509                	lui	a0,0x2
   1919a:	aa950513          	addi	a0,a0,-1367 # 1aa9 <.Lline_table_start1+0x187e>
   1919e:	4599                	li	a1,6
   191a0:	4601                	li	a2,0
   191a2:	4681                	li	a3,0
   191a4:	00000073          	ecall
   191a8:	01314703          	lbu	a4,19(sp)
   191ac:	4509                	li	a0,2
   191ae:	00a100a3          	sb	a0,1(sp)
   191b2:	00a71e63          	bne	a4,a0,191ce <_ZN20complex_dynamic_type3app17hee3a39033fc33392E+0x140>
   191b6:	001a8513          	addi	a0,s5,1
   191ba:	05000613          	li	a2,80
   191be:	85d2                	mv	a1,s4
   191c0:	00005097          	auipc	ra,0x5
   191c4:	354080e7          	jalr	852(ra) # 1e514 <memcpy>
   191c8:	000a8023          	sb	zero,0(s5)
   191cc:	b77d                	j	1917a <_ZN20complex_dynamic_type3app17hee3a39033fc33392E+0xec>
   191ce:	6509                	lui	a0,0x2
   191d0:	aa950913          	addi	s2,a0,-1367 # 1aa9 <.Lline_table_start1+0x187e>
   191d4:	4595                	li	a1,5
   191d6:	854a                	mv	a0,s2
   191d8:	4601                	li	a2,0
   191da:	4681                	li	a3,0
   191dc:	00000073          	ecall
   191e0:	00114983          	lbu	s3,1(sp)
   191e4:	001a8513          	addi	a0,s5,1
   191e8:	05000613          	li	a2,80
   191ec:	85d2                	mv	a1,s4
   191ee:	00005097          	auipc	ra,0x5
   191f2:	326080e7          	jalr	806(ra) # 1e514 <memcpy>
   191f6:	4509                	li	a0,2
   191f8:	000a8023          	sb	zero,0(s5)
   191fc:	f6a98fe3          	beq	s3,a0,1917a <_ZN20complex_dynamic_type3app17hee3a39033fc33392E+0xec>
   19200:	4599                	li	a1,6
   19202:	854a                	mv	a0,s2
   19204:	4601                	li	a2,0
   19206:	4681                	li	a3,0
   19208:	874e                	mv	a4,s3
   1920a:	00000073          	ecall
   1920e:	b7b5                	j	1917a <_ZN20complex_dynamic_type3app17hee3a39033fc33392E+0xec>

00019210 <_ZN20complex_dynamic_type3app17hf27ed10a0cb6d2b2E>:
   19210:	7155                	addi	sp,sp,-208
   19212:	c786                	sw	ra,204(sp)
   19214:	c5a2                	sw	s0,200(sp)
   19216:	c3a6                	sw	s1,196(sp)
   19218:	c1ca                	sw	s2,192(sp)
   1921a:	df4e                	sw	s3,188(sp)
   1921c:	dd52                	sw	s4,184(sp)
   1921e:	db56                	sw	s5,180(sp)
   19220:	8aaa                	mv	s5,a0
   19222:	4409                	li	s0,2
   19224:	008107a3          	sb	s0,15(sp)
   19228:	0804                	addi	s1,sp,16
   1922a:	05900613          	li	a2,89
   1922e:	8526                	mv	a0,s1
   19230:	00005097          	auipc	ra,0x5
   19234:	2e4080e7          	jalr	740(ra) # 1e514 <memcpy>
   19238:	06a10a13          	addi	s4,sp,106
   1923c:	04a00613          	li	a2,74
   19240:	8552                	mv	a0,s4
   19242:	4581                	li	a1,0
   19244:	00005097          	auipc	ra,0x5
   19248:	264080e7          	jalr	612(ra) # 1e4a8 <memset>
   1924c:	4581                	li	a1,0
   1924e:	8626                	mv	a2,s1
   19250:	068104a3          	sb	s0,105(sp)
   19254:	6505                	lui	a0,0x1
   19256:	4491                	li	s1,4
   19258:	48450793          	addi	a5,a0,1156 # 1484 <.Lline_table_start1+0x1259>
   1925c:	05900693          	li	a3,89
   19260:	4711                	li	a4,4
   19262:	853e                	mv	a0,a5
   19264:	00000073          	ecall
   19268:	00851863          	bne	a0,s0,19278 <_ZN20complex_dynamic_type3app17hf27ed10a0cb6d2b2E+0x68>
   1926c:	4505                	li	a0,1
   1926e:	00aa8023          	sb	a0,0(s5)
   19272:	00baa223          	sw	a1,4(s5)
   19276:	a0bd                	j	192e4 <_ZN20complex_dynamic_type3app17hf27ed10a0cb6d2b2E+0xd4>
   19278:	853e                	mv	a0,a5
   1927a:	8652                	mv	a2,s4
   1927c:	009107a3          	sb	s1,15(sp)
   19280:	478d                	li	a5,3
   19282:	4591                	li	a1,4
   19284:	04a00693          	li	a3,74
   19288:	470d                	li	a4,3
   1928a:	00000073          	ecall
   1928e:	00851d63          	bne	a0,s0,192a8 <_ZN20complex_dynamic_type3app17hf27ed10a0cb6d2b2E+0x98>
   19292:	06914703          	lbu	a4,105(sp)
   19296:	4505                	li	a0,1
   19298:	4609                	li	a2,2
   1929a:	00aa8023          	sb	a0,0(s5)
   1929e:	00baa223          	sw	a1,4(s5)
   192a2:	02c71963          	bne	a4,a2,192d4 <_ZN20complex_dynamic_type3app17hf27ed10a0cb6d2b2E+0xc4>
   192a6:	a83d                	j	192e4 <_ZN20complex_dynamic_type3app17hf27ed10a0cb6d2b2E+0xd4>
   192a8:	4581                	li	a1,0
   192aa:	4681                	li	a3,0
   192ac:	06f104a3          	sb	a5,105(sp)
   192b0:	6505                	lui	a0,0x1
   192b2:	4611                	li	a2,4
   192b4:	4709                	li	a4,2
   192b6:	48450513          	addi	a0,a0,1156 # 1484 <.Lline_table_start1+0x1259>
   192ba:	08000793          	li	a5,128
   192be:	00000073          	ecall
   192c2:	4609                	li	a2,2
   192c4:	04f57663          	bgeu	a0,a5,19310 <_ZN20complex_dynamic_type3app17hf27ed10a0cb6d2b2E+0x100>
   192c8:	4505                	li	a0,1
   192ca:	00aa8023          	sb	a0,0(s5)
   192ce:	00baa223          	sw	a1,4(s5)
   192d2:	470d                	li	a4,3
   192d4:	6505                	lui	a0,0x1
   192d6:	48450513          	addi	a0,a0,1156 # 1484 <.Lline_table_start1+0x1259>
   192da:	4591                	li	a1,4
   192dc:	4601                	li	a2,0
   192de:	4681                	li	a3,0
   192e0:	00000073          	ecall
   192e4:	00f14703          	lbu	a4,15(sp)
   192e8:	4509                	li	a0,2
   192ea:	00a70a63          	beq	a4,a0,192fe <_ZN20complex_dynamic_type3app17hf27ed10a0cb6d2b2E+0xee>
   192ee:	6505                	lui	a0,0x1
   192f0:	48450513          	addi	a0,a0,1156 # 1484 <.Lline_table_start1+0x1259>
   192f4:	4581                	li	a1,0
   192f6:	4601                	li	a2,0
   192f8:	4681                	li	a3,0
   192fa:	00000073          	ecall
   192fe:	40be                	lw	ra,204(sp)
   19300:	442e                	lw	s0,200(sp)
   19302:	449e                	lw	s1,196(sp)
   19304:	490e                	lw	s2,192(sp)
   19306:	59fa                	lw	s3,188(sp)
   19308:	5a6a                	lw	s4,184(sp)
   1930a:	5ada                	lw	s5,180(sp)
   1930c:	6169                	addi	sp,sp,208
   1930e:	8082                	ret
   19310:	00f14703          	lbu	a4,15(sp)
   19314:	00c71463          	bne	a4,a2,1931c <_ZN20complex_dynamic_type3app17hf27ed10a0cb6d2b2E+0x10c>
   19318:	470d                	li	a4,3
   1931a:	a825                	j	19352 <_ZN20complex_dynamic_type3app17hf27ed10a0cb6d2b2E+0x142>
   1931c:	6505                	lui	a0,0x1
   1931e:	48450513          	addi	a0,a0,1156 # 1484 <.Lline_table_start1+0x1259>
   19322:	4581                	li	a1,0
   19324:	4601                	li	a2,0
   19326:	4681                	li	a3,0
   19328:	00000073          	ecall
   1932c:	06914703          	lbu	a4,105(sp)
   19330:	4509                	li	a0,2
   19332:	00a107a3          	sb	a0,15(sp)
   19336:	00a71e63          	bne	a4,a0,19352 <_ZN20complex_dynamic_type3app17hf27ed10a0cb6d2b2E+0x142>
   1933a:	001a8513          	addi	a0,s5,1
   1933e:	04a00613          	li	a2,74
   19342:	85d2                	mv	a1,s4
   19344:	00005097          	auipc	ra,0x5
   19348:	1d0080e7          	jalr	464(ra) # 1e514 <memcpy>
   1934c:	000a8023          	sb	zero,0(s5)
   19350:	b77d                	j	192fe <_ZN20complex_dynamic_type3app17hf27ed10a0cb6d2b2E+0xee>
   19352:	6505                	lui	a0,0x1
   19354:	48450913          	addi	s2,a0,1156 # 1484 <.Lline_table_start1+0x1259>
   19358:	4591                	li	a1,4
   1935a:	854a                	mv	a0,s2
   1935c:	4601                	li	a2,0
   1935e:	4681                	li	a3,0
   19360:	00000073          	ecall
   19364:	00f14983          	lbu	s3,15(sp)
   19368:	001a8513          	addi	a0,s5,1
   1936c:	04a00613          	li	a2,74
   19370:	85d2                	mv	a1,s4
   19372:	00005097          	auipc	ra,0x5
   19376:	1a2080e7          	jalr	418(ra) # 1e514 <memcpy>
   1937a:	4509                	li	a0,2
   1937c:	000a8023          	sb	zero,0(s5)
   19380:	f6a98fe3          	beq	s3,a0,192fe <_ZN20complex_dynamic_type3app17hf27ed10a0cb6d2b2E+0xee>
   19384:	854a                	mv	a0,s2
   19386:	4581                	li	a1,0
   19388:	4601                	li	a2,0
   1938a:	4681                	li	a3,0
   1938c:	874e                	mv	a4,s3
   1938e:	00000073          	ecall
   19392:	b7b5                	j	192fe <_ZN20complex_dynamic_type3app17hf27ed10a0cb6d2b2E+0xee>

00019394 <_ZN20complex_dynamic_type3app17hf588d551c8a75cafE>:
   19394:	711d                	addi	sp,sp,-96
   19396:	ce86                	sw	ra,92(sp)
   19398:	cca2                	sw	s0,88(sp)
   1939a:	caa6                	sw	s1,84(sp)
   1939c:	c8ca                	sw	s2,80(sp)
   1939e:	c6ce                	sw	s3,76(sp)
   193a0:	c4d2                	sw	s4,72(sp)
   193a2:	c2d6                	sw	s5,68(sp)
   193a4:	8aaa                	mv	s5,a0
   193a6:	4409                	li	s0,2
   193a8:	00810023          	sb	s0,0(sp)
   193ac:	00110493          	addi	s1,sp,1
   193b0:	03200613          	li	a2,50
   193b4:	8526                	mv	a0,s1
   193b6:	00005097          	auipc	ra,0x5
   193ba:	15e080e7          	jalr	350(ra) # 1e514 <memcpy>
   193be:	03410a13          	addi	s4,sp,52
   193c2:	4641                	li	a2,16
   193c4:	8552                	mv	a0,s4
   193c6:	4581                	li	a1,0
   193c8:	00005097          	auipc	ra,0x5
   193cc:	0e0080e7          	jalr	224(ra) # 1e4a8 <memset>
   193d0:	8626                	mv	a2,s1
   193d2:	028109a3          	sb	s0,51(sp)
   193d6:	6509                	lui	a0,0x2
   193d8:	4491                	li	s1,4
   193da:	4591                	li	a1,4
   193dc:	9d650793          	addi	a5,a0,-1578 # 19d6 <.Lline_table_start1+0x17ab>
   193e0:	03200693          	li	a3,50
   193e4:	4711                	li	a4,4
   193e6:	853e                	mv	a0,a5
   193e8:	00000073          	ecall
   193ec:	00851863          	bne	a0,s0,193fc <_ZN20complex_dynamic_type3app17hf588d551c8a75cafE+0x68>
   193f0:	4505                	li	a0,1
   193f2:	00aa8023          	sb	a0,0(s5)
   193f6:	00baa223          	sw	a1,4(s5)
   193fa:	a0b5                	j	19466 <_ZN20complex_dynamic_type3app17hf588d551c8a75cafE+0xd2>
   193fc:	853e                	mv	a0,a5
   193fe:	8652                	mv	a2,s4
   19400:	00910023          	sb	s1,0(sp)
   19404:	478d                	li	a5,3
   19406:	45a5                	li	a1,9
   19408:	46c1                	li	a3,16
   1940a:	470d                	li	a4,3
   1940c:	00000073          	ecall
   19410:	00851d63          	bne	a0,s0,1942a <_ZN20complex_dynamic_type3app17hf588d551c8a75cafE+0x96>
   19414:	03314703          	lbu	a4,51(sp)
   19418:	4505                	li	a0,1
   1941a:	4609                	li	a2,2
   1941c:	00aa8023          	sb	a0,0(s5)
   19420:	00baa223          	sw	a1,4(s5)
   19424:	02c71963          	bne	a4,a2,19456 <_ZN20complex_dynamic_type3app17hf588d551c8a75cafE+0xc2>
   19428:	a83d                	j	19466 <_ZN20complex_dynamic_type3app17hf588d551c8a75cafE+0xd2>
   1942a:	4681                	li	a3,0
   1942c:	02f109a3          	sb	a5,51(sp)
   19430:	6509                	lui	a0,0x2
   19432:	4591                	li	a1,4
   19434:	4625                	li	a2,9
   19436:	4709                	li	a4,2
   19438:	9d650513          	addi	a0,a0,-1578 # 19d6 <.Lline_table_start1+0x17ab>
   1943c:	08000793          	li	a5,128
   19440:	00000073          	ecall
   19444:	4609                	li	a2,2
   19446:	04f57663          	bgeu	a0,a5,19492 <_ZN20complex_dynamic_type3app17hf588d551c8a75cafE+0xfe>
   1944a:	4505                	li	a0,1
   1944c:	00aa8023          	sb	a0,0(s5)
   19450:	00baa223          	sw	a1,4(s5)
   19454:	470d                	li	a4,3
   19456:	6509                	lui	a0,0x2
   19458:	9d650513          	addi	a0,a0,-1578 # 19d6 <.Lline_table_start1+0x17ab>
   1945c:	45a5                	li	a1,9
   1945e:	4601                	li	a2,0
   19460:	4681                	li	a3,0
   19462:	00000073          	ecall
   19466:	00014703          	lbu	a4,0(sp)
   1946a:	4509                	li	a0,2
   1946c:	00a70a63          	beq	a4,a0,19480 <_ZN20complex_dynamic_type3app17hf588d551c8a75cafE+0xec>
   19470:	6509                	lui	a0,0x2
   19472:	9d650513          	addi	a0,a0,-1578 # 19d6 <.Lline_table_start1+0x17ab>
   19476:	4591                	li	a1,4
   19478:	4601                	li	a2,0
   1947a:	4681                	li	a3,0
   1947c:	00000073          	ecall
   19480:	40f6                	lw	ra,92(sp)
   19482:	4466                	lw	s0,88(sp)
   19484:	44d6                	lw	s1,84(sp)
   19486:	4946                	lw	s2,80(sp)
   19488:	49b6                	lw	s3,76(sp)
   1948a:	4a26                	lw	s4,72(sp)
   1948c:	4a96                	lw	s5,68(sp)
   1948e:	6125                	addi	sp,sp,96
   19490:	8082                	ret
   19492:	00014703          	lbu	a4,0(sp)
   19496:	00c71463          	bne	a4,a2,1949e <_ZN20complex_dynamic_type3app17hf588d551c8a75cafE+0x10a>
   1949a:	470d                	li	a4,3
   1949c:	a81d                	j	194d2 <_ZN20complex_dynamic_type3app17hf588d551c8a75cafE+0x13e>
   1949e:	6509                	lui	a0,0x2
   194a0:	9d650513          	addi	a0,a0,-1578 # 19d6 <.Lline_table_start1+0x17ab>
   194a4:	4591                	li	a1,4
   194a6:	4601                	li	a2,0
   194a8:	4681                	li	a3,0
   194aa:	00000073          	ecall
   194ae:	03314703          	lbu	a4,51(sp)
   194b2:	4509                	li	a0,2
   194b4:	00a10023          	sb	a0,0(sp)
   194b8:	00a71d63          	bne	a4,a0,194d2 <_ZN20complex_dynamic_type3app17hf588d551c8a75cafE+0x13e>
   194bc:	001a8513          	addi	a0,s5,1
   194c0:	4641                	li	a2,16
   194c2:	85d2                	mv	a1,s4
   194c4:	00005097          	auipc	ra,0x5
   194c8:	050080e7          	jalr	80(ra) # 1e514 <memcpy>
   194cc:	000a8023          	sb	zero,0(s5)
   194d0:	bf45                	j	19480 <_ZN20complex_dynamic_type3app17hf588d551c8a75cafE+0xec>
   194d2:	6509                	lui	a0,0x2
   194d4:	9d650913          	addi	s2,a0,-1578 # 19d6 <.Lline_table_start1+0x17ab>
   194d8:	45a5                	li	a1,9
   194da:	854a                	mv	a0,s2
   194dc:	4601                	li	a2,0
   194de:	4681                	li	a3,0
   194e0:	00000073          	ecall
   194e4:	00014983          	lbu	s3,0(sp)
   194e8:	001a8513          	addi	a0,s5,1
   194ec:	4641                	li	a2,16
   194ee:	85d2                	mv	a1,s4
   194f0:	00005097          	auipc	ra,0x5
   194f4:	024080e7          	jalr	36(ra) # 1e514 <memcpy>
   194f8:	4509                	li	a0,2
   194fa:	000a8023          	sb	zero,0(s5)
   194fe:	f8a981e3          	beq	s3,a0,19480 <_ZN20complex_dynamic_type3app17hf588d551c8a75cafE+0xec>
   19502:	4591                	li	a1,4
   19504:	854a                	mv	a0,s2
   19506:	4601                	li	a2,0
   19508:	4681                	li	a3,0
   1950a:	874e                	mv	a4,s3
   1950c:	00000073          	ecall
   19510:	bf85                	j	19480 <_ZN20complex_dynamic_type3app17hf588d551c8a75cafE+0xec>

00019512 <_ZN20complex_dynamic_type3app17hf6a05ec78ca1df11E>:
   19512:	7119                	addi	sp,sp,-128
   19514:	de86                	sw	ra,124(sp)
   19516:	dca2                	sw	s0,120(sp)
   19518:	daa6                	sw	s1,116(sp)
   1951a:	d8ca                	sw	s2,112(sp)
   1951c:	d6ce                	sw	s3,108(sp)
   1951e:	d4d2                	sw	s4,104(sp)
   19520:	d2d6                	sw	s5,100(sp)
   19522:	8aaa                	mv	s5,a0
   19524:	4409                	li	s0,2
   19526:	008103a3          	sb	s0,7(sp)
   1952a:	0024                	addi	s1,sp,8
   1952c:	03f00613          	li	a2,63
   19530:	8526                	mv	a0,s1
   19532:	00005097          	auipc	ra,0x5
   19536:	fe2080e7          	jalr	-30(ra) # 1e514 <memcpy>
   1953a:	04810a13          	addi	s4,sp,72
   1953e:	4671                	li	a2,28
   19540:	8552                	mv	a0,s4
   19542:	4581                	li	a1,0
   19544:	00005097          	auipc	ra,0x5
   19548:	f64080e7          	jalr	-156(ra) # 1e4a8 <memset>
   1954c:	8626                	mv	a2,s1
   1954e:	048103a3          	sb	s0,71(sp)
   19552:	6505                	lui	a0,0x1
   19554:	4491                	li	s1,4
   19556:	4595                	li	a1,5
   19558:	69450793          	addi	a5,a0,1684 # 1694 <.Lline_table_start1+0x1469>
   1955c:	03f00693          	li	a3,63
   19560:	4711                	li	a4,4
   19562:	853e                	mv	a0,a5
   19564:	00000073          	ecall
   19568:	00851863          	bne	a0,s0,19578 <_ZN20complex_dynamic_type3app17hf6a05ec78ca1df11E+0x66>
   1956c:	4505                	li	a0,1
   1956e:	00aa8023          	sb	a0,0(s5)
   19572:	00baa223          	sw	a1,4(s5)
   19576:	a0b5                	j	195e2 <_ZN20complex_dynamic_type3app17hf6a05ec78ca1df11E+0xd0>
   19578:	853e                	mv	a0,a5
   1957a:	8652                	mv	a2,s4
   1957c:	009103a3          	sb	s1,7(sp)
   19580:	478d                	li	a5,3
   19582:	45a5                	li	a1,9
   19584:	46f1                	li	a3,28
   19586:	470d                	li	a4,3
   19588:	00000073          	ecall
   1958c:	00851d63          	bne	a0,s0,195a6 <_ZN20complex_dynamic_type3app17hf6a05ec78ca1df11E+0x94>
   19590:	04714703          	lbu	a4,71(sp)
   19594:	4505                	li	a0,1
   19596:	4609                	li	a2,2
   19598:	00aa8023          	sb	a0,0(s5)
   1959c:	00baa223          	sw	a1,4(s5)
   195a0:	02c71963          	bne	a4,a2,195d2 <_ZN20complex_dynamic_type3app17hf6a05ec78ca1df11E+0xc0>
   195a4:	a83d                	j	195e2 <_ZN20complex_dynamic_type3app17hf6a05ec78ca1df11E+0xd0>
   195a6:	4681                	li	a3,0
   195a8:	04f103a3          	sb	a5,71(sp)
   195ac:	6505                	lui	a0,0x1
   195ae:	4595                	li	a1,5
   195b0:	4625                	li	a2,9
   195b2:	4709                	li	a4,2
   195b4:	69450513          	addi	a0,a0,1684 # 1694 <.Lline_table_start1+0x1469>
   195b8:	08000793          	li	a5,128
   195bc:	00000073          	ecall
   195c0:	4609                	li	a2,2
   195c2:	04f57663          	bgeu	a0,a5,1960e <_ZN20complex_dynamic_type3app17hf6a05ec78ca1df11E+0xfc>
   195c6:	4505                	li	a0,1
   195c8:	00aa8023          	sb	a0,0(s5)
   195cc:	00baa223          	sw	a1,4(s5)
   195d0:	470d                	li	a4,3
   195d2:	6505                	lui	a0,0x1
   195d4:	69450513          	addi	a0,a0,1684 # 1694 <.Lline_table_start1+0x1469>
   195d8:	45a5                	li	a1,9
   195da:	4601                	li	a2,0
   195dc:	4681                	li	a3,0
   195de:	00000073          	ecall
   195e2:	00714703          	lbu	a4,7(sp)
   195e6:	4509                	li	a0,2
   195e8:	00a70a63          	beq	a4,a0,195fc <_ZN20complex_dynamic_type3app17hf6a05ec78ca1df11E+0xea>
   195ec:	6505                	lui	a0,0x1
   195ee:	69450513          	addi	a0,a0,1684 # 1694 <.Lline_table_start1+0x1469>
   195f2:	4595                	li	a1,5
   195f4:	4601                	li	a2,0
   195f6:	4681                	li	a3,0
   195f8:	00000073          	ecall
   195fc:	50f6                	lw	ra,124(sp)
   195fe:	5466                	lw	s0,120(sp)
   19600:	54d6                	lw	s1,116(sp)
   19602:	5946                	lw	s2,112(sp)
   19604:	59b6                	lw	s3,108(sp)
   19606:	5a26                	lw	s4,104(sp)
   19608:	5a96                	lw	s5,100(sp)
   1960a:	6109                	addi	sp,sp,128
   1960c:	8082                	ret
   1960e:	00714703          	lbu	a4,7(sp)
   19612:	00c71463          	bne	a4,a2,1961a <_ZN20complex_dynamic_type3app17hf6a05ec78ca1df11E+0x108>
   19616:	470d                	li	a4,3
   19618:	a81d                	j	1964e <_ZN20complex_dynamic_type3app17hf6a05ec78ca1df11E+0x13c>
   1961a:	6505                	lui	a0,0x1
   1961c:	69450513          	addi	a0,a0,1684 # 1694 <.Lline_table_start1+0x1469>
   19620:	4595                	li	a1,5
   19622:	4601                	li	a2,0
   19624:	4681                	li	a3,0
   19626:	00000073          	ecall
   1962a:	04714703          	lbu	a4,71(sp)
   1962e:	4509                	li	a0,2
   19630:	00a103a3          	sb	a0,7(sp)
   19634:	00a71d63          	bne	a4,a0,1964e <_ZN20complex_dynamic_type3app17hf6a05ec78ca1df11E+0x13c>
   19638:	001a8513          	addi	a0,s5,1
   1963c:	4671                	li	a2,28
   1963e:	85d2                	mv	a1,s4
   19640:	00005097          	auipc	ra,0x5
   19644:	ed4080e7          	jalr	-300(ra) # 1e514 <memcpy>
   19648:	000a8023          	sb	zero,0(s5)
   1964c:	bf45                	j	195fc <_ZN20complex_dynamic_type3app17hf6a05ec78ca1df11E+0xea>
   1964e:	6505                	lui	a0,0x1
   19650:	69450913          	addi	s2,a0,1684 # 1694 <.Lline_table_start1+0x1469>
   19654:	45a5                	li	a1,9
   19656:	854a                	mv	a0,s2
   19658:	4601                	li	a2,0
   1965a:	4681                	li	a3,0
   1965c:	00000073          	ecall
   19660:	00714983          	lbu	s3,7(sp)
   19664:	001a8513          	addi	a0,s5,1
   19668:	4671                	li	a2,28
   1966a:	85d2                	mv	a1,s4
   1966c:	00005097          	auipc	ra,0x5
   19670:	ea8080e7          	jalr	-344(ra) # 1e514 <memcpy>
   19674:	4509                	li	a0,2
   19676:	000a8023          	sb	zero,0(s5)
   1967a:	f8a981e3          	beq	s3,a0,195fc <_ZN20complex_dynamic_type3app17hf6a05ec78ca1df11E+0xea>
   1967e:	4595                	li	a1,5
   19680:	854a                	mv	a0,s2
   19682:	4601                	li	a2,0
   19684:	4681                	li	a3,0
   19686:	874e                	mv	a4,s3
   19688:	00000073          	ecall
   1968c:	bf85                	j	195fc <_ZN20complex_dynamic_type3app17hf6a05ec78ca1df11E+0xea>

0001968e <_ZN20complex_dynamic_type3app17hf8188cf7333554aaE>:
   1968e:	7175                	addi	sp,sp,-144
   19690:	c706                	sw	ra,140(sp)
   19692:	c522                	sw	s0,136(sp)
   19694:	c326                	sw	s1,132(sp)
   19696:	c14a                	sw	s2,128(sp)
   19698:	dece                	sw	s3,124(sp)
   1969a:	dcd2                	sw	s4,120(sp)
   1969c:	dad6                	sw	s5,116(sp)
   1969e:	8aaa                	mv	s5,a0
   196a0:	4409                	li	s0,2
   196a2:	008105a3          	sb	s0,11(sp)
   196a6:	0064                	addi	s1,sp,12
   196a8:	04400613          	li	a2,68
   196ac:	8526                	mv	a0,s1
   196ae:	00005097          	auipc	ra,0x5
   196b2:	e66080e7          	jalr	-410(ra) # 1e514 <memcpy>
   196b6:	05110a13          	addi	s4,sp,81
   196ba:	02300613          	li	a2,35
   196be:	8552                	mv	a0,s4
   196c0:	4581                	li	a1,0
   196c2:	00005097          	auipc	ra,0x5
   196c6:	de6080e7          	jalr	-538(ra) # 1e4a8 <memset>
   196ca:	8626                	mv	a2,s1
   196cc:	04810823          	sb	s0,80(sp)
   196d0:	6505                	lui	a0,0x1
   196d2:	4491                	li	s1,4
   196d4:	4599                	li	a1,6
   196d6:	9bf50793          	addi	a5,a0,-1601 # 9bf <.Lline_table_start1+0x794>
   196da:	04400693          	li	a3,68
   196de:	4711                	li	a4,4
   196e0:	853e                	mv	a0,a5
   196e2:	00000073          	ecall
   196e6:	00851863          	bne	a0,s0,196f6 <_ZN20complex_dynamic_type3app17hf8188cf7333554aaE+0x68>
   196ea:	4505                	li	a0,1
   196ec:	00aa8023          	sb	a0,0(s5)
   196f0:	00baa223          	sw	a1,4(s5)
   196f4:	a0bd                	j	19762 <_ZN20complex_dynamic_type3app17hf8188cf7333554aaE+0xd4>
   196f6:	853e                	mv	a0,a5
   196f8:	8652                	mv	a2,s4
   196fa:	009105a3          	sb	s1,11(sp)
   196fe:	478d                	li	a5,3
   19700:	458d                	li	a1,3
   19702:	02300693          	li	a3,35
   19706:	470d                	li	a4,3
   19708:	00000073          	ecall
   1970c:	00851d63          	bne	a0,s0,19726 <_ZN20complex_dynamic_type3app17hf8188cf7333554aaE+0x98>
   19710:	05014703          	lbu	a4,80(sp)
   19714:	4505                	li	a0,1
   19716:	4609                	li	a2,2
   19718:	00aa8023          	sb	a0,0(s5)
   1971c:	00baa223          	sw	a1,4(s5)
   19720:	02c71963          	bne	a4,a2,19752 <_ZN20complex_dynamic_type3app17hf8188cf7333554aaE+0xc4>
   19724:	a83d                	j	19762 <_ZN20complex_dynamic_type3app17hf8188cf7333554aaE+0xd4>
   19726:	4681                	li	a3,0
   19728:	04f10823          	sb	a5,80(sp)
   1972c:	6505                	lui	a0,0x1
   1972e:	4599                	li	a1,6
   19730:	460d                	li	a2,3
   19732:	4709                	li	a4,2
   19734:	9bf50513          	addi	a0,a0,-1601 # 9bf <.Lline_table_start1+0x794>
   19738:	08000793          	li	a5,128
   1973c:	00000073          	ecall
   19740:	4609                	li	a2,2
   19742:	04f57663          	bgeu	a0,a5,1978e <_ZN20complex_dynamic_type3app17hf8188cf7333554aaE+0x100>
   19746:	4505                	li	a0,1
   19748:	00aa8023          	sb	a0,0(s5)
   1974c:	00baa223          	sw	a1,4(s5)
   19750:	470d                	li	a4,3
   19752:	6505                	lui	a0,0x1
   19754:	9bf50513          	addi	a0,a0,-1601 # 9bf <.Lline_table_start1+0x794>
   19758:	458d                	li	a1,3
   1975a:	4601                	li	a2,0
   1975c:	4681                	li	a3,0
   1975e:	00000073          	ecall
   19762:	00b14703          	lbu	a4,11(sp)
   19766:	4509                	li	a0,2
   19768:	00a70a63          	beq	a4,a0,1977c <_ZN20complex_dynamic_type3app17hf8188cf7333554aaE+0xee>
   1976c:	6505                	lui	a0,0x1
   1976e:	9bf50513          	addi	a0,a0,-1601 # 9bf <.Lline_table_start1+0x794>
   19772:	4599                	li	a1,6
   19774:	4601                	li	a2,0
   19776:	4681                	li	a3,0
   19778:	00000073          	ecall
   1977c:	40ba                	lw	ra,140(sp)
   1977e:	442a                	lw	s0,136(sp)
   19780:	449a                	lw	s1,132(sp)
   19782:	490a                	lw	s2,128(sp)
   19784:	59f6                	lw	s3,124(sp)
   19786:	5a66                	lw	s4,120(sp)
   19788:	5ad6                	lw	s5,116(sp)
   1978a:	6149                	addi	sp,sp,144
   1978c:	8082                	ret
   1978e:	00b14703          	lbu	a4,11(sp)
   19792:	00c71463          	bne	a4,a2,1979a <_ZN20complex_dynamic_type3app17hf8188cf7333554aaE+0x10c>
   19796:	470d                	li	a4,3
   19798:	a825                	j	197d0 <_ZN20complex_dynamic_type3app17hf8188cf7333554aaE+0x142>
   1979a:	6505                	lui	a0,0x1
   1979c:	9bf50513          	addi	a0,a0,-1601 # 9bf <.Lline_table_start1+0x794>
   197a0:	4599                	li	a1,6
   197a2:	4601                	li	a2,0
   197a4:	4681                	li	a3,0
   197a6:	00000073          	ecall
   197aa:	05014703          	lbu	a4,80(sp)
   197ae:	4509                	li	a0,2
   197b0:	00a105a3          	sb	a0,11(sp)
   197b4:	00a71e63          	bne	a4,a0,197d0 <_ZN20complex_dynamic_type3app17hf8188cf7333554aaE+0x142>
   197b8:	001a8513          	addi	a0,s5,1
   197bc:	02300613          	li	a2,35
   197c0:	85d2                	mv	a1,s4
   197c2:	00005097          	auipc	ra,0x5
   197c6:	d52080e7          	jalr	-686(ra) # 1e514 <memcpy>
   197ca:	000a8023          	sb	zero,0(s5)
   197ce:	b77d                	j	1977c <_ZN20complex_dynamic_type3app17hf8188cf7333554aaE+0xee>
   197d0:	6505                	lui	a0,0x1
   197d2:	9bf50913          	addi	s2,a0,-1601 # 9bf <.Lline_table_start1+0x794>
   197d6:	458d                	li	a1,3
   197d8:	854a                	mv	a0,s2
   197da:	4601                	li	a2,0
   197dc:	4681                	li	a3,0
   197de:	00000073          	ecall
   197e2:	00b14983          	lbu	s3,11(sp)
   197e6:	001a8513          	addi	a0,s5,1
   197ea:	02300613          	li	a2,35
   197ee:	85d2                	mv	a1,s4
   197f0:	00005097          	auipc	ra,0x5
   197f4:	d24080e7          	jalr	-732(ra) # 1e514 <memcpy>
   197f8:	4509                	li	a0,2
   197fa:	000a8023          	sb	zero,0(s5)
   197fe:	f6a98fe3          	beq	s3,a0,1977c <_ZN20complex_dynamic_type3app17hf8188cf7333554aaE+0xee>
   19802:	4599                	li	a1,6
   19804:	854a                	mv	a0,s2
   19806:	4601                	li	a2,0
   19808:	4681                	li	a3,0
   1980a:	874e                	mv	a4,s3
   1980c:	00000073          	ecall
   19810:	b7b5                	j	1977c <_ZN20complex_dynamic_type3app17hf8188cf7333554aaE+0xee>

00019812 <_ZN20complex_dynamic_type3app17hf9da9c1ffd99ffceE>:
   19812:	7135                	addi	sp,sp,-160
   19814:	cf06                	sw	ra,156(sp)
   19816:	cd22                	sw	s0,152(sp)
   19818:	cb26                	sw	s1,148(sp)
   1981a:	c94a                	sw	s2,144(sp)
   1981c:	c74e                	sw	s3,140(sp)
   1981e:	c552                	sw	s4,136(sp)
   19820:	c356                	sw	s5,132(sp)
   19822:	8aaa                	mv	s5,a0
   19824:	4409                	li	s0,2
   19826:	00810123          	sb	s0,2(sp)
   1982a:	00310493          	addi	s1,sp,3
   1982e:	02d00613          	li	a2,45
   19832:	8526                	mv	a0,s1
   19834:	00005097          	auipc	ra,0x5
   19838:	ce0080e7          	jalr	-800(ra) # 1e514 <memcpy>
   1983c:	03110a13          	addi	s4,sp,49
   19840:	05300613          	li	a2,83
   19844:	8552                	mv	a0,s4
   19846:	4581                	li	a1,0
   19848:	00005097          	auipc	ra,0x5
   1984c:	c60080e7          	jalr	-928(ra) # 1e4a8 <memset>
   19850:	8626                	mv	a2,s1
   19852:	02810823          	sb	s0,48(sp)
   19856:	6505                	lui	a0,0x1
   19858:	4491                	li	s1,4
   1985a:	4589                	li	a1,2
   1985c:	ec350793          	addi	a5,a0,-317 # ec3 <.Lline_table_start1+0xc98>
   19860:	02d00693          	li	a3,45
   19864:	4711                	li	a4,4
   19866:	853e                	mv	a0,a5
   19868:	00000073          	ecall
   1986c:	00851863          	bne	a0,s0,1987c <_ZN20complex_dynamic_type3app17hf9da9c1ffd99ffceE+0x6a>
   19870:	4505                	li	a0,1
   19872:	00aa8023          	sb	a0,0(s5)
   19876:	00baa223          	sw	a1,4(s5)
   1987a:	a0bd                	j	198e8 <_ZN20complex_dynamic_type3app17hf9da9c1ffd99ffceE+0xd6>
   1987c:	853e                	mv	a0,a5
   1987e:	8652                	mv	a2,s4
   19880:	00910123          	sb	s1,2(sp)
   19884:	478d                	li	a5,3
   19886:	459d                	li	a1,7
   19888:	05300693          	li	a3,83
   1988c:	470d                	li	a4,3
   1988e:	00000073          	ecall
   19892:	00851d63          	bne	a0,s0,198ac <_ZN20complex_dynamic_type3app17hf9da9c1ffd99ffceE+0x9a>
   19896:	03014703          	lbu	a4,48(sp)
   1989a:	4505                	li	a0,1
   1989c:	4609                	li	a2,2
   1989e:	00aa8023          	sb	a0,0(s5)
   198a2:	00baa223          	sw	a1,4(s5)
   198a6:	02c71963          	bne	a4,a2,198d8 <_ZN20complex_dynamic_type3app17hf9da9c1ffd99ffceE+0xc6>
   198aa:	a83d                	j	198e8 <_ZN20complex_dynamic_type3app17hf9da9c1ffd99ffceE+0xd6>
   198ac:	4681                	li	a3,0
   198ae:	02f10823          	sb	a5,48(sp)
   198b2:	6505                	lui	a0,0x1
   198b4:	4589                	li	a1,2
   198b6:	461d                	li	a2,7
   198b8:	4709                	li	a4,2
   198ba:	ec350513          	addi	a0,a0,-317 # ec3 <.Lline_table_start1+0xc98>
   198be:	08000793          	li	a5,128
   198c2:	00000073          	ecall
   198c6:	4609                	li	a2,2
   198c8:	04f57663          	bgeu	a0,a5,19914 <_ZN20complex_dynamic_type3app17hf9da9c1ffd99ffceE+0x102>
   198cc:	4505                	li	a0,1
   198ce:	00aa8023          	sb	a0,0(s5)
   198d2:	00baa223          	sw	a1,4(s5)
   198d6:	470d                	li	a4,3
   198d8:	6505                	lui	a0,0x1
   198da:	ec350513          	addi	a0,a0,-317 # ec3 <.Lline_table_start1+0xc98>
   198de:	459d                	li	a1,7
   198e0:	4601                	li	a2,0
   198e2:	4681                	li	a3,0
   198e4:	00000073          	ecall
   198e8:	00214703          	lbu	a4,2(sp)
   198ec:	4509                	li	a0,2
   198ee:	00a70a63          	beq	a4,a0,19902 <_ZN20complex_dynamic_type3app17hf9da9c1ffd99ffceE+0xf0>
   198f2:	6505                	lui	a0,0x1
   198f4:	ec350513          	addi	a0,a0,-317 # ec3 <.Lline_table_start1+0xc98>
   198f8:	4589                	li	a1,2
   198fa:	4601                	li	a2,0
   198fc:	4681                	li	a3,0
   198fe:	00000073          	ecall
   19902:	40fa                	lw	ra,156(sp)
   19904:	446a                	lw	s0,152(sp)
   19906:	44da                	lw	s1,148(sp)
   19908:	494a                	lw	s2,144(sp)
   1990a:	49ba                	lw	s3,140(sp)
   1990c:	4a2a                	lw	s4,136(sp)
   1990e:	4a9a                	lw	s5,132(sp)
   19910:	610d                	addi	sp,sp,160
   19912:	8082                	ret
   19914:	00214703          	lbu	a4,2(sp)
   19918:	00c71463          	bne	a4,a2,19920 <_ZN20complex_dynamic_type3app17hf9da9c1ffd99ffceE+0x10e>
   1991c:	470d                	li	a4,3
   1991e:	a825                	j	19956 <_ZN20complex_dynamic_type3app17hf9da9c1ffd99ffceE+0x144>
   19920:	6505                	lui	a0,0x1
   19922:	ec350513          	addi	a0,a0,-317 # ec3 <.Lline_table_start1+0xc98>
   19926:	4589                	li	a1,2
   19928:	4601                	li	a2,0
   1992a:	4681                	li	a3,0
   1992c:	00000073          	ecall
   19930:	03014703          	lbu	a4,48(sp)
   19934:	4509                	li	a0,2
   19936:	00a10123          	sb	a0,2(sp)
   1993a:	00a71e63          	bne	a4,a0,19956 <_ZN20complex_dynamic_type3app17hf9da9c1ffd99ffceE+0x144>
   1993e:	001a8513          	addi	a0,s5,1
   19942:	05300613          	li	a2,83
   19946:	85d2                	mv	a1,s4
   19948:	00005097          	auipc	ra,0x5
   1994c:	bcc080e7          	jalr	-1076(ra) # 1e514 <memcpy>
   19950:	000a8023          	sb	zero,0(s5)
   19954:	b77d                	j	19902 <_ZN20complex_dynamic_type3app17hf9da9c1ffd99ffceE+0xf0>
   19956:	6505                	lui	a0,0x1
   19958:	ec350913          	addi	s2,a0,-317 # ec3 <.Lline_table_start1+0xc98>
   1995c:	459d                	li	a1,7
   1995e:	854a                	mv	a0,s2
   19960:	4601                	li	a2,0
   19962:	4681                	li	a3,0
   19964:	00000073          	ecall
   19968:	00214983          	lbu	s3,2(sp)
   1996c:	001a8513          	addi	a0,s5,1
   19970:	05300613          	li	a2,83
   19974:	85d2                	mv	a1,s4
   19976:	00005097          	auipc	ra,0x5
   1997a:	b9e080e7          	jalr	-1122(ra) # 1e514 <memcpy>
   1997e:	4509                	li	a0,2
   19980:	000a8023          	sb	zero,0(s5)
   19984:	f6a98fe3          	beq	s3,a0,19902 <_ZN20complex_dynamic_type3app17hf9da9c1ffd99ffceE+0xf0>
   19988:	4589                	li	a1,2
   1998a:	854a                	mv	a0,s2
   1998c:	4601                	li	a2,0
   1998e:	4681                	li	a3,0
   19990:	874e                	mv	a4,s3
   19992:	00000073          	ecall
   19996:	b7b5                	j	19902 <_ZN20complex_dynamic_type3app17hf9da9c1ffd99ffceE+0xf0>

00019998 <_ZN20complex_dynamic_type3app17hfa070aca755f3055E>:
   19998:	7119                	addi	sp,sp,-128
   1999a:	de86                	sw	ra,124(sp)
   1999c:	dca2                	sw	s0,120(sp)
   1999e:	daa6                	sw	s1,116(sp)
   199a0:	d8ca                	sw	s2,112(sp)
   199a2:	d6ce                	sw	s3,108(sp)
   199a4:	d4d2                	sw	s4,104(sp)
   199a6:	d2d6                	sw	s5,100(sp)
   199a8:	8aaa                	mv	s5,a0
   199aa:	4409                	li	s0,2
   199ac:	00810123          	sb	s0,2(sp)
   199b0:	00310493          	addi	s1,sp,3
   199b4:	05100613          	li	a2,81
   199b8:	8526                	mv	a0,s1
   199ba:	00005097          	auipc	ra,0x5
   199be:	b5a080e7          	jalr	-1190(ra) # 1e514 <memcpy>
   199c2:	05510a13          	addi	s4,sp,85
   199c6:	463d                	li	a2,15
   199c8:	8552                	mv	a0,s4
   199ca:	4581                	li	a1,0
   199cc:	00005097          	auipc	ra,0x5
   199d0:	adc080e7          	jalr	-1316(ra) # 1e4a8 <memset>
   199d4:	4581                	li	a1,0
   199d6:	8626                	mv	a2,s1
   199d8:	04810a23          	sb	s0,84(sp)
   199dc:	6505                	lui	a0,0x1
   199de:	4491                	li	s1,4
   199e0:	3bf50793          	addi	a5,a0,959 # 13bf <.Lline_table_start1+0x1194>
   199e4:	05100693          	li	a3,81
   199e8:	4711                	li	a4,4
   199ea:	853e                	mv	a0,a5
   199ec:	00000073          	ecall
   199f0:	00851863          	bne	a0,s0,19a00 <_ZN20complex_dynamic_type3app17hfa070aca755f3055E+0x68>
   199f4:	4505                	li	a0,1
   199f6:	00aa8023          	sb	a0,0(s5)
   199fa:	00baa223          	sw	a1,4(s5)
   199fe:	a0b5                	j	19a6a <_ZN20complex_dynamic_type3app17hfa070aca755f3055E+0xd2>
   19a00:	853e                	mv	a0,a5
   19a02:	8652                	mv	a2,s4
   19a04:	00910123          	sb	s1,2(sp)
   19a08:	478d                	li	a5,3
   19a0a:	458d                	li	a1,3
   19a0c:	46bd                	li	a3,15
   19a0e:	470d                	li	a4,3
   19a10:	00000073          	ecall
   19a14:	00851d63          	bne	a0,s0,19a2e <_ZN20complex_dynamic_type3app17hfa070aca755f3055E+0x96>
   19a18:	05414703          	lbu	a4,84(sp)
   19a1c:	4505                	li	a0,1
   19a1e:	4609                	li	a2,2
   19a20:	00aa8023          	sb	a0,0(s5)
   19a24:	00baa223          	sw	a1,4(s5)
   19a28:	02c71963          	bne	a4,a2,19a5a <_ZN20complex_dynamic_type3app17hfa070aca755f3055E+0xc2>
   19a2c:	a83d                	j	19a6a <_ZN20complex_dynamic_type3app17hfa070aca755f3055E+0xd2>
   19a2e:	4581                	li	a1,0
   19a30:	4681                	li	a3,0
   19a32:	04f10a23          	sb	a5,84(sp)
   19a36:	6505                	lui	a0,0x1
   19a38:	460d                	li	a2,3
   19a3a:	4709                	li	a4,2
   19a3c:	3bf50513          	addi	a0,a0,959 # 13bf <.Lline_table_start1+0x1194>
   19a40:	08000793          	li	a5,128
   19a44:	00000073          	ecall
   19a48:	4609                	li	a2,2
   19a4a:	04f57663          	bgeu	a0,a5,19a96 <_ZN20complex_dynamic_type3app17hfa070aca755f3055E+0xfe>
   19a4e:	4505                	li	a0,1
   19a50:	00aa8023          	sb	a0,0(s5)
   19a54:	00baa223          	sw	a1,4(s5)
   19a58:	470d                	li	a4,3
   19a5a:	6505                	lui	a0,0x1
   19a5c:	3bf50513          	addi	a0,a0,959 # 13bf <.Lline_table_start1+0x1194>
   19a60:	458d                	li	a1,3
   19a62:	4601                	li	a2,0
   19a64:	4681                	li	a3,0
   19a66:	00000073          	ecall
   19a6a:	00214703          	lbu	a4,2(sp)
   19a6e:	4509                	li	a0,2
   19a70:	00a70a63          	beq	a4,a0,19a84 <_ZN20complex_dynamic_type3app17hfa070aca755f3055E+0xec>
   19a74:	6505                	lui	a0,0x1
   19a76:	3bf50513          	addi	a0,a0,959 # 13bf <.Lline_table_start1+0x1194>
   19a7a:	4581                	li	a1,0
   19a7c:	4601                	li	a2,0
   19a7e:	4681                	li	a3,0
   19a80:	00000073          	ecall
   19a84:	50f6                	lw	ra,124(sp)
   19a86:	5466                	lw	s0,120(sp)
   19a88:	54d6                	lw	s1,116(sp)
   19a8a:	5946                	lw	s2,112(sp)
   19a8c:	59b6                	lw	s3,108(sp)
   19a8e:	5a26                	lw	s4,104(sp)
   19a90:	5a96                	lw	s5,100(sp)
   19a92:	6109                	addi	sp,sp,128
   19a94:	8082                	ret
   19a96:	00214703          	lbu	a4,2(sp)
   19a9a:	00c71463          	bne	a4,a2,19aa2 <_ZN20complex_dynamic_type3app17hfa070aca755f3055E+0x10a>
   19a9e:	470d                	li	a4,3
   19aa0:	a81d                	j	19ad6 <_ZN20complex_dynamic_type3app17hfa070aca755f3055E+0x13e>
   19aa2:	6505                	lui	a0,0x1
   19aa4:	3bf50513          	addi	a0,a0,959 # 13bf <.Lline_table_start1+0x1194>
   19aa8:	4581                	li	a1,0
   19aaa:	4601                	li	a2,0
   19aac:	4681                	li	a3,0
   19aae:	00000073          	ecall
   19ab2:	05414703          	lbu	a4,84(sp)
   19ab6:	4509                	li	a0,2
   19ab8:	00a10123          	sb	a0,2(sp)
   19abc:	00a71d63          	bne	a4,a0,19ad6 <_ZN20complex_dynamic_type3app17hfa070aca755f3055E+0x13e>
   19ac0:	001a8513          	addi	a0,s5,1
   19ac4:	463d                	li	a2,15
   19ac6:	85d2                	mv	a1,s4
   19ac8:	00005097          	auipc	ra,0x5
   19acc:	a4c080e7          	jalr	-1460(ra) # 1e514 <memcpy>
   19ad0:	000a8023          	sb	zero,0(s5)
   19ad4:	bf45                	j	19a84 <_ZN20complex_dynamic_type3app17hfa070aca755f3055E+0xec>
   19ad6:	6505                	lui	a0,0x1
   19ad8:	3bf50913          	addi	s2,a0,959 # 13bf <.Lline_table_start1+0x1194>
   19adc:	458d                	li	a1,3
   19ade:	854a                	mv	a0,s2
   19ae0:	4601                	li	a2,0
   19ae2:	4681                	li	a3,0
   19ae4:	00000073          	ecall
   19ae8:	00214983          	lbu	s3,2(sp)
   19aec:	001a8513          	addi	a0,s5,1
   19af0:	463d                	li	a2,15
   19af2:	85d2                	mv	a1,s4
   19af4:	00005097          	auipc	ra,0x5
   19af8:	a20080e7          	jalr	-1504(ra) # 1e514 <memcpy>
   19afc:	4509                	li	a0,2
   19afe:	000a8023          	sb	zero,0(s5)
   19b02:	f8a981e3          	beq	s3,a0,19a84 <_ZN20complex_dynamic_type3app17hfa070aca755f3055E+0xec>
   19b06:	854a                	mv	a0,s2
   19b08:	4581                	li	a1,0
   19b0a:	4601                	li	a2,0
   19b0c:	4681                	li	a3,0
   19b0e:	874e                	mv	a4,s3
   19b10:	00000073          	ecall
   19b14:	bf85                	j	19a84 <_ZN20complex_dynamic_type3app17hfa070aca755f3055E+0xec>

00019b16 <_ZN20complex_dynamic_type3app17hfd5e3df47db799f4E>:
   19b16:	7175                	addi	sp,sp,-144
   19b18:	c706                	sw	ra,140(sp)
   19b1a:	c522                	sw	s0,136(sp)
   19b1c:	c326                	sw	s1,132(sp)
   19b1e:	c14a                	sw	s2,128(sp)
   19b20:	dece                	sw	s3,124(sp)
   19b22:	dcd2                	sw	s4,120(sp)
   19b24:	dad6                	sw	s5,116(sp)
   19b26:	8aaa                	mv	s5,a0
   19b28:	4409                	li	s0,2
   19b2a:	00810423          	sb	s0,8(sp)
   19b2e:	00910493          	addi	s1,sp,9
   19b32:	03600613          	li	a2,54
   19b36:	8526                	mv	a0,s1
   19b38:	00005097          	auipc	ra,0x5
   19b3c:	9dc080e7          	jalr	-1572(ra) # 1e514 <memcpy>
   19b40:	04010a13          	addi	s4,sp,64
   19b44:	03400613          	li	a2,52
   19b48:	8552                	mv	a0,s4
   19b4a:	4581                	li	a1,0
   19b4c:	00005097          	auipc	ra,0x5
   19b50:	95c080e7          	jalr	-1700(ra) # 1e4a8 <memset>
   19b54:	8626                	mv	a2,s1
   19b56:	02810fa3          	sb	s0,63(sp)
   19b5a:	6509                	lui	a0,0x2
   19b5c:	4491                	li	s1,4
   19b5e:	4591                	li	a1,4
   19b60:	3c650793          	addi	a5,a0,966 # 23c6 <.Lline_table_start1+0x219b>
   19b64:	03600693          	li	a3,54
   19b68:	4711                	li	a4,4
   19b6a:	853e                	mv	a0,a5
   19b6c:	00000073          	ecall
   19b70:	00851863          	bne	a0,s0,19b80 <_ZN20complex_dynamic_type3app17hfd5e3df47db799f4E+0x6a>
   19b74:	4505                	li	a0,1
   19b76:	00aa8023          	sb	a0,0(s5)
   19b7a:	00baa223          	sw	a1,4(s5)
   19b7e:	a0bd                	j	19bec <_ZN20complex_dynamic_type3app17hfd5e3df47db799f4E+0xd6>
   19b80:	853e                	mv	a0,a5
   19b82:	8652                	mv	a2,s4
   19b84:	00910423          	sb	s1,8(sp)
   19b88:	478d                	li	a5,3
   19b8a:	4589                	li	a1,2
   19b8c:	03400693          	li	a3,52
   19b90:	470d                	li	a4,3
   19b92:	00000073          	ecall
   19b96:	00851d63          	bne	a0,s0,19bb0 <_ZN20complex_dynamic_type3app17hfd5e3df47db799f4E+0x9a>
   19b9a:	03f14703          	lbu	a4,63(sp)
   19b9e:	4505                	li	a0,1
   19ba0:	4609                	li	a2,2
   19ba2:	00aa8023          	sb	a0,0(s5)
   19ba6:	00baa223          	sw	a1,4(s5)
   19baa:	02c71963          	bne	a4,a2,19bdc <_ZN20complex_dynamic_type3app17hfd5e3df47db799f4E+0xc6>
   19bae:	a83d                	j	19bec <_ZN20complex_dynamic_type3app17hfd5e3df47db799f4E+0xd6>
   19bb0:	4681                	li	a3,0
   19bb2:	02f10fa3          	sb	a5,63(sp)
   19bb6:	6509                	lui	a0,0x2
   19bb8:	4591                	li	a1,4
   19bba:	4609                	li	a2,2
   19bbc:	4709                	li	a4,2
   19bbe:	3c650513          	addi	a0,a0,966 # 23c6 <.Lline_table_start1+0x219b>
   19bc2:	08000793          	li	a5,128
   19bc6:	00000073          	ecall
   19bca:	4609                	li	a2,2
   19bcc:	04f57663          	bgeu	a0,a5,19c18 <_ZN20complex_dynamic_type3app17hfd5e3df47db799f4E+0x102>
   19bd0:	4505                	li	a0,1
   19bd2:	00aa8023          	sb	a0,0(s5)
   19bd6:	00baa223          	sw	a1,4(s5)
   19bda:	470d                	li	a4,3
   19bdc:	6509                	lui	a0,0x2
   19bde:	3c650513          	addi	a0,a0,966 # 23c6 <.Lline_table_start1+0x219b>
   19be2:	4589                	li	a1,2
   19be4:	4601                	li	a2,0
   19be6:	4681                	li	a3,0
   19be8:	00000073          	ecall
   19bec:	00814703          	lbu	a4,8(sp)
   19bf0:	4509                	li	a0,2
   19bf2:	00a70a63          	beq	a4,a0,19c06 <_ZN20complex_dynamic_type3app17hfd5e3df47db799f4E+0xf0>
   19bf6:	6509                	lui	a0,0x2
   19bf8:	3c650513          	addi	a0,a0,966 # 23c6 <.Lline_table_start1+0x219b>
   19bfc:	4591                	li	a1,4
   19bfe:	4601                	li	a2,0
   19c00:	4681                	li	a3,0
   19c02:	00000073          	ecall
   19c06:	40ba                	lw	ra,140(sp)
   19c08:	442a                	lw	s0,136(sp)
   19c0a:	449a                	lw	s1,132(sp)
   19c0c:	490a                	lw	s2,128(sp)
   19c0e:	59f6                	lw	s3,124(sp)
   19c10:	5a66                	lw	s4,120(sp)
   19c12:	5ad6                	lw	s5,116(sp)
   19c14:	6149                	addi	sp,sp,144
   19c16:	8082                	ret
   19c18:	00814703          	lbu	a4,8(sp)
   19c1c:	00c71463          	bne	a4,a2,19c24 <_ZN20complex_dynamic_type3app17hfd5e3df47db799f4E+0x10e>
   19c20:	470d                	li	a4,3
   19c22:	a825                	j	19c5a <_ZN20complex_dynamic_type3app17hfd5e3df47db799f4E+0x144>
   19c24:	6509                	lui	a0,0x2
   19c26:	3c650513          	addi	a0,a0,966 # 23c6 <.Lline_table_start1+0x219b>
   19c2a:	4591                	li	a1,4
   19c2c:	4601                	li	a2,0
   19c2e:	4681                	li	a3,0
   19c30:	00000073          	ecall
   19c34:	03f14703          	lbu	a4,63(sp)
   19c38:	4509                	li	a0,2
   19c3a:	00a10423          	sb	a0,8(sp)
   19c3e:	00a71e63          	bne	a4,a0,19c5a <_ZN20complex_dynamic_type3app17hfd5e3df47db799f4E+0x144>
   19c42:	001a8513          	addi	a0,s5,1
   19c46:	03400613          	li	a2,52
   19c4a:	85d2                	mv	a1,s4
   19c4c:	00005097          	auipc	ra,0x5
   19c50:	8c8080e7          	jalr	-1848(ra) # 1e514 <memcpy>
   19c54:	000a8023          	sb	zero,0(s5)
   19c58:	b77d                	j	19c06 <_ZN20complex_dynamic_type3app17hfd5e3df47db799f4E+0xf0>
   19c5a:	4601                	li	a2,0
   19c5c:	4681                	li	a3,0
   19c5e:	6509                	lui	a0,0x2
   19c60:	3c650913          	addi	s2,a0,966 # 23c6 <.Lline_table_start1+0x219b>
   19c64:	4589                	li	a1,2
   19c66:	854a                	mv	a0,s2
   19c68:	00000073          	ecall
   19c6c:	00814983          	lbu	s3,8(sp)
   19c70:	4409                	li	s0,2
   19c72:	001a8513          	addi	a0,s5,1
   19c76:	03400613          	li	a2,52
   19c7a:	85d2                	mv	a1,s4
   19c7c:	00005097          	auipc	ra,0x5
   19c80:	898080e7          	jalr	-1896(ra) # 1e514 <memcpy>
   19c84:	000a8023          	sb	zero,0(s5)
   19c88:	f6898fe3          	beq	s3,s0,19c06 <_ZN20complex_dynamic_type3app17hfd5e3df47db799f4E+0xf0>
   19c8c:	4591                	li	a1,4
   19c8e:	854a                	mv	a0,s2
   19c90:	4601                	li	a2,0
   19c92:	4681                	li	a3,0
   19c94:	874e                	mv	a4,s3
   19c96:	00000073          	ecall
   19c9a:	b7b5                	j	19c06 <_ZN20complex_dynamic_type3app17hfd5e3df47db799f4E+0xf0>

00019c9c <_ZN20complex_dynamic_type3app17hfdc0e0930c226c12E>:
   19c9c:	7159                	addi	sp,sp,-112
   19c9e:	d686                	sw	ra,108(sp)
   19ca0:	d4a2                	sw	s0,104(sp)
   19ca2:	d2a6                	sw	s1,100(sp)
   19ca4:	d0ca                	sw	s2,96(sp)
   19ca6:	cece                	sw	s3,92(sp)
   19ca8:	ccd2                	sw	s4,88(sp)
   19caa:	cad6                	sw	s5,84(sp)
   19cac:	8aaa                	mv	s5,a0
   19cae:	4409                	li	s0,2
   19cb0:	008105a3          	sb	s0,11(sp)
   19cb4:	0064                	addi	s1,sp,12
   19cb6:	02300613          	li	a2,35
   19cba:	8526                	mv	a0,s1
   19cbc:	00005097          	auipc	ra,0x5
   19cc0:	858080e7          	jalr	-1960(ra) # 1e514 <memcpy>
   19cc4:	03010a13          	addi	s4,sp,48
   19cc8:	02400613          	li	a2,36
   19ccc:	8552                	mv	a0,s4
   19cce:	4581                	li	a1,0
   19cd0:	00004097          	auipc	ra,0x4
   19cd4:	7d8080e7          	jalr	2008(ra) # 1e4a8 <memset>
   19cd8:	8626                	mv	a2,s1
   19cda:	028107a3          	sb	s0,47(sp)
   19cde:	6509                	lui	a0,0x2
   19ce0:	4491                	li	s1,4
   19ce2:	4591                	li	a1,4
   19ce4:	bd650793          	addi	a5,a0,-1066 # 1bd6 <.Lline_table_start1+0x19ab>
   19ce8:	02300693          	li	a3,35
   19cec:	4711                	li	a4,4
   19cee:	853e                	mv	a0,a5
   19cf0:	00000073          	ecall
   19cf4:	00851863          	bne	a0,s0,19d04 <_ZN20complex_dynamic_type3app17hfdc0e0930c226c12E+0x68>
   19cf8:	4505                	li	a0,1
   19cfa:	00aa8023          	sb	a0,0(s5)
   19cfe:	00baa223          	sw	a1,4(s5)
   19d02:	a0bd                	j	19d70 <_ZN20complex_dynamic_type3app17hfdc0e0930c226c12E+0xd4>
   19d04:	853e                	mv	a0,a5
   19d06:	8652                	mv	a2,s4
   19d08:	009105a3          	sb	s1,11(sp)
   19d0c:	478d                	li	a5,3
   19d0e:	45a1                	li	a1,8
   19d10:	02400693          	li	a3,36
   19d14:	470d                	li	a4,3
   19d16:	00000073          	ecall
   19d1a:	00851d63          	bne	a0,s0,19d34 <_ZN20complex_dynamic_type3app17hfdc0e0930c226c12E+0x98>
   19d1e:	02f14703          	lbu	a4,47(sp)
   19d22:	4505                	li	a0,1
   19d24:	4609                	li	a2,2
   19d26:	00aa8023          	sb	a0,0(s5)
   19d2a:	00baa223          	sw	a1,4(s5)
   19d2e:	02c71963          	bne	a4,a2,19d60 <_ZN20complex_dynamic_type3app17hfdc0e0930c226c12E+0xc4>
   19d32:	a83d                	j	19d70 <_ZN20complex_dynamic_type3app17hfdc0e0930c226c12E+0xd4>
   19d34:	4681                	li	a3,0
   19d36:	02f107a3          	sb	a5,47(sp)
   19d3a:	6509                	lui	a0,0x2
   19d3c:	4591                	li	a1,4
   19d3e:	4621                	li	a2,8
   19d40:	4709                	li	a4,2
   19d42:	bd650513          	addi	a0,a0,-1066 # 1bd6 <.Lline_table_start1+0x19ab>
   19d46:	08000793          	li	a5,128
   19d4a:	00000073          	ecall
   19d4e:	4609                	li	a2,2
   19d50:	04f57663          	bgeu	a0,a5,19d9c <_ZN20complex_dynamic_type3app17hfdc0e0930c226c12E+0x100>
   19d54:	4505                	li	a0,1
   19d56:	00aa8023          	sb	a0,0(s5)
   19d5a:	00baa223          	sw	a1,4(s5)
   19d5e:	470d                	li	a4,3
   19d60:	6509                	lui	a0,0x2
   19d62:	bd650513          	addi	a0,a0,-1066 # 1bd6 <.Lline_table_start1+0x19ab>
   19d66:	45a1                	li	a1,8
   19d68:	4601                	li	a2,0
   19d6a:	4681                	li	a3,0
   19d6c:	00000073          	ecall
   19d70:	00b14703          	lbu	a4,11(sp)
   19d74:	4509                	li	a0,2
   19d76:	00a70a63          	beq	a4,a0,19d8a <_ZN20complex_dynamic_type3app17hfdc0e0930c226c12E+0xee>
   19d7a:	6509                	lui	a0,0x2
   19d7c:	bd650513          	addi	a0,a0,-1066 # 1bd6 <.Lline_table_start1+0x19ab>
   19d80:	4591                	li	a1,4
   19d82:	4601                	li	a2,0
   19d84:	4681                	li	a3,0
   19d86:	00000073          	ecall
   19d8a:	50b6                	lw	ra,108(sp)
   19d8c:	5426                	lw	s0,104(sp)
   19d8e:	5496                	lw	s1,100(sp)
   19d90:	5906                	lw	s2,96(sp)
   19d92:	49f6                	lw	s3,92(sp)
   19d94:	4a66                	lw	s4,88(sp)
   19d96:	4ad6                	lw	s5,84(sp)
   19d98:	6165                	addi	sp,sp,112
   19d9a:	8082                	ret
   19d9c:	00b14703          	lbu	a4,11(sp)
   19da0:	00c71463          	bne	a4,a2,19da8 <_ZN20complex_dynamic_type3app17hfdc0e0930c226c12E+0x10c>
   19da4:	470d                	li	a4,3
   19da6:	a825                	j	19dde <_ZN20complex_dynamic_type3app17hfdc0e0930c226c12E+0x142>
   19da8:	6509                	lui	a0,0x2
   19daa:	bd650513          	addi	a0,a0,-1066 # 1bd6 <.Lline_table_start1+0x19ab>
   19dae:	4591                	li	a1,4
   19db0:	4601                	li	a2,0
   19db2:	4681                	li	a3,0
   19db4:	00000073          	ecall
   19db8:	02f14703          	lbu	a4,47(sp)
   19dbc:	4509                	li	a0,2
   19dbe:	00a105a3          	sb	a0,11(sp)
   19dc2:	00a71e63          	bne	a4,a0,19dde <_ZN20complex_dynamic_type3app17hfdc0e0930c226c12E+0x142>
   19dc6:	001a8513          	addi	a0,s5,1
   19dca:	02400613          	li	a2,36
   19dce:	85d2                	mv	a1,s4
   19dd0:	00004097          	auipc	ra,0x4
   19dd4:	744080e7          	jalr	1860(ra) # 1e514 <memcpy>
   19dd8:	000a8023          	sb	zero,0(s5)
   19ddc:	b77d                	j	19d8a <_ZN20complex_dynamic_type3app17hfdc0e0930c226c12E+0xee>
   19dde:	6509                	lui	a0,0x2
   19de0:	bd650913          	addi	s2,a0,-1066 # 1bd6 <.Lline_table_start1+0x19ab>
   19de4:	45a1                	li	a1,8
   19de6:	854a                	mv	a0,s2
   19de8:	4601                	li	a2,0
   19dea:	4681                	li	a3,0
   19dec:	00000073          	ecall
   19df0:	00b14983          	lbu	s3,11(sp)
   19df4:	001a8513          	addi	a0,s5,1
   19df8:	02400613          	li	a2,36
   19dfc:	85d2                	mv	a1,s4
   19dfe:	00004097          	auipc	ra,0x4
   19e02:	716080e7          	jalr	1814(ra) # 1e514 <memcpy>
   19e06:	4509                	li	a0,2
   19e08:	000a8023          	sb	zero,0(s5)
   19e0c:	f6a98fe3          	beq	s3,a0,19d8a <_ZN20complex_dynamic_type3app17hfdc0e0930c226c12E+0xee>
   19e10:	4591                	li	a1,4
   19e12:	854a                	mv	a0,s2
   19e14:	4601                	li	a2,0
   19e16:	4681                	li	a3,0
   19e18:	874e                	mv	a4,s3
   19e1a:	00000073          	ecall
   19e1e:	b7b5                	j	19d8a <_ZN20complex_dynamic_type3app17hfdc0e0930c226c12E+0xee>

00019e20 <_start>:
   19e20:	81010113          	addi	sp,sp,-2032
   19e24:	7e112623          	sw	ra,2028(sp)
   19e28:	7e812423          	sw	s0,2024(sp)
   19e2c:	7e912223          	sw	s1,2020(sp)
   19e30:	7f212023          	sw	s2,2016(sp)
   19e34:	7d312e23          	sw	s3,2012(sp)
   19e38:	7d412c23          	sw	s4,2008(sp)
   19e3c:	7d512a23          	sw	s5,2004(sp)
   19e40:	7d612823          	sw	s6,2000(sp)
   19e44:	7d712623          	sw	s7,1996(sp)
   19e48:	7d812423          	sw	s8,1992(sp)
   19e4c:	7d912223          	sw	s9,1988(sp)
   19e50:	7da12023          	sw	s10,1984(sp)
   19e54:	7bb12e23          	sw	s11,1980(sp)
   19e58:	80010113          	addi	sp,sp,-2048
   19e5c:	b1010113          	addi	sp,sp,-1264
   19e60:	7ff10993          	addi	s3,sp,2047
   19e64:	7a198993          	addi	s3,s3,1953
   19e68:	06110493          	addi	s1,sp,97
   19e6c:	02800613          	li	a2,40
   19e70:	8526                	mv	a0,s1
   19e72:	4581                	li	a1,0
   19e74:	00004097          	auipc	ra,0x4
   19e78:	634080e7          	jalr	1588(ra) # 1e4a8 <memset>
   19e7c:	4409                	li	s0,2
   19e7e:	06810023          	sb	s0,96(sp)
   19e82:	6505                	lui	a0,0x1
   19e84:	38d50513          	addi	a0,a0,909 # 138d <.Lline_table_start1+0x1162>
   19e88:	00a10a33          	add	s4,sp,a0
   19e8c:	05100613          	li	a2,81
   19e90:	8552                	mv	a0,s4
   19e92:	4581                	li	a1,0
   19e94:	00004097          	auipc	ra,0x4
   19e98:	614080e7          	jalr	1556(ra) # 1e4a8 <memset>
   19e9c:	8626                	mv	a2,s1
   19e9e:	3e898623          	sb	s0,1004(s3)
   19ea2:	6789                	lui	a5,0x2
   19ea4:	4491                	li	s1,4
   19ea6:	45a5                	li	a1,9
   19ea8:	0799                	addi	a5,a5,6 # 2006 <.Lline_table_start1+0x1ddb>
   19eaa:	02800693          	li	a3,40
   19eae:	4711                	li	a4,4
   19eb0:	853e                	mv	a0,a5
   19eb2:	00000073          	ecall
   19eb6:	04850e63          	beq	a0,s0,19f12 <_start+0xf2>
   19eba:	853e                	mv	a0,a5
   19ebc:	8652                	mv	a2,s4
   19ebe:	06910023          	sb	s1,96(sp)
   19ec2:	478d                	li	a5,3
   19ec4:	45a5                	li	a1,9
   19ec6:	05100693          	li	a3,81
   19eca:	470d                	li	a4,3
   19ecc:	00000073          	ecall
   19ed0:	00851863          	bne	a0,s0,19ee0 <_start+0xc0>
   19ed4:	3ec9c703          	lbu	a4,1004(s3)
   19ed8:	4509                	li	a0,2
   19eda:	02a71363          	bne	a4,a0,19f00 <_start+0xe0>
   19ede:	a815                	j	19f12 <_start+0xf2>
   19ee0:	4681                	li	a3,0
   19ee2:	3ef98623          	sb	a5,1004(s3)
   19ee6:	6509                	lui	a0,0x2
   19ee8:	45a5                	li	a1,9
   19eea:	4625                	li	a2,9
   19eec:	4709                	li	a4,2
   19eee:	0519                	addi	a0,a0,6 # 2006 <.Lline_table_start1+0x1ddb>
   19ef0:	08000793          	li	a5,128
   19ef4:	00000073          	ecall
   19ef8:	4609                	li	a2,2
   19efa:	06f57c63          	bgeu	a0,a5,19f72 <_start+0x152>
   19efe:	470d                	li	a4,3
   19f00:	6509                	lui	a0,0x2
   19f02:	0519                	addi	a0,a0,6 # 2006 <.Lline_table_start1+0x1ddb>
   19f04:	87ae                	mv	a5,a1
   19f06:	45a5                	li	a1,9
   19f08:	4601                	li	a2,0
   19f0a:	4681                	li	a3,0
   19f0c:	00000073          	ecall
   19f10:	85be                	mv	a1,a5
   19f12:	06014703          	lbu	a4,96(sp)
   19f16:	4509                	li	a0,2
   19f18:	00a70b63          	beq	a4,a0,19f2e <_start+0x10e>
   19f1c:	6509                	lui	a0,0x2
   19f1e:	0519                	addi	a0,a0,6 # 2006 <.Lline_table_start1+0x1ddb>
   19f20:	87ae                	mv	a5,a1
   19f22:	45a5                	li	a1,9
   19f24:	4601                	li	a2,0
   19f26:	4681                	li	a3,0
   19f28:	00000073          	ecall
   19f2c:	85be                	mv	a1,a5
   19f2e:	4505                	li	a0,1
   19f30:	7f010113          	addi	sp,sp,2032
   19f34:	50010113          	addi	sp,sp,1280
   19f38:	7ec12083          	lw	ra,2028(sp)
   19f3c:	7e812403          	lw	s0,2024(sp)
   19f40:	7e412483          	lw	s1,2020(sp)
   19f44:	7e012903          	lw	s2,2016(sp)
   19f48:	7dc12983          	lw	s3,2012(sp)
   19f4c:	7d812a03          	lw	s4,2008(sp)
   19f50:	7d412a83          	lw	s5,2004(sp)
   19f54:	7d012b03          	lw	s6,2000(sp)
   19f58:	7cc12b83          	lw	s7,1996(sp)
   19f5c:	7c812c03          	lw	s8,1992(sp)
   19f60:	7c412c83          	lw	s9,1988(sp)
   19f64:	7c012d03          	lw	s10,1984(sp)
   19f68:	7bc12d83          	lw	s11,1980(sp)
   19f6c:	7f010113          	addi	sp,sp,2032
   19f70:	8082                	ret
   19f72:	06014703          	lbu	a4,96(sp)
   19f76:	00c71463          	bne	a4,a2,19f7e <_start+0x15e>
   19f7a:	470d                	li	a4,3
   19f7c:	a0bd                	j	19fea <_start+0x1ca>
   19f7e:	6509                	lui	a0,0x2
   19f80:	0519                	addi	a0,a0,6 # 2006 <.Lline_table_start1+0x1ddb>
   19f82:	45a5                	li	a1,9
   19f84:	4601                	li	a2,0
   19f86:	4681                	li	a3,0
   19f88:	00000073          	ecall
   19f8c:	3ec9c703          	lbu	a4,1004(s3)
   19f90:	4509                	li	a0,2
   19f92:	06a10023          	sb	a0,96(sp)
   19f96:	04a71a63          	bne	a4,a0,19fea <_start+0x1ca>
   19f9a:	001a4503          	lbu	a0,1(s4)
   19f9e:	000a4583          	lbu	a1,0(s4)
   19fa2:	002a4603          	lbu	a2,2(s4)
   19fa6:	0522                	slli	a0,a0,0x8
   19fa8:	3f09c683          	lbu	a3,1008(s3)
   19fac:	3f19c703          	lbu	a4,1009(s3)
   19fb0:	8d4d                	or	a0,a0,a1
   19fb2:	3f29c583          	lbu	a1,1010(s3)
   19fb6:	3f39c783          	lbu	a5,1011(s3)
   19fba:	0722                	slli	a4,a4,0x8
   19fbc:	8ed9                	or	a3,a3,a4
   19fbe:	05c2                	slli	a1,a1,0x10
   19fc0:	07e2                	slli	a5,a5,0x18
   19fc2:	8ddd                	or	a1,a1,a5
   19fc4:	0aa11023          	sh	a0,160(sp)
   19fc8:	0ac10123          	sb	a2,162(sp)
   19fcc:	00d5e4b3          	or	s1,a1,a3
   19fd0:	6505                	lui	a0,0x1
   19fd2:	39450513          	addi	a0,a0,916 # 1394 <.Lline_table_start1+0x1169>
   19fd6:	00a105b3          	add	a1,sp,a0
   19fda:	0848                	addi	a0,sp,20
   19fdc:	04a00613          	li	a2,74
   19fe0:	00004097          	auipc	ra,0x4
   19fe4:	534080e7          	jalr	1332(ra) # 1e514 <memcpy>
   19fe8:	a8a5                	j	1a060 <_start+0x240>
   19fea:	4601                	li	a2,0
   19fec:	4681                	li	a3,0
   19fee:	6909                	lui	s2,0x2
   19ff0:	0919                	addi	s2,s2,6 # 2006 <.Lline_table_start1+0x1ddb>
   19ff2:	45a5                	li	a1,9
   19ff4:	854a                	mv	a0,s2
   19ff6:	00000073          	ecall
   19ffa:	001a4503          	lbu	a0,1(s4)
   19ffe:	000a4583          	lbu	a1,0(s4)
   1a002:	002a4603          	lbu	a2,2(s4)
   1a006:	0522                	slli	a0,a0,0x8
   1a008:	3f09c683          	lbu	a3,1008(s3)
   1a00c:	3f19c703          	lbu	a4,1009(s3)
   1a010:	8d4d                	or	a0,a0,a1
   1a012:	3f29c583          	lbu	a1,1010(s3)
   1a016:	3f39c783          	lbu	a5,1011(s3)
   1a01a:	0722                	slli	a4,a4,0x8
   1a01c:	8ed9                	or	a3,a3,a4
   1a01e:	06014403          	lbu	s0,96(sp)
   1a022:	05c2                	slli	a1,a1,0x10
   1a024:	07e2                	slli	a5,a5,0x18
   1a026:	8ddd                	or	a1,a1,a5
   1a028:	0aa11023          	sh	a0,160(sp)
   1a02c:	0ac10123          	sb	a2,162(sp)
   1a030:	00d5e4b3          	or	s1,a1,a3
   1a034:	6505                	lui	a0,0x1
   1a036:	39450513          	addi	a0,a0,916 # 1394 <.Lline_table_start1+0x1169>
   1a03a:	00a105b3          	add	a1,sp,a0
   1a03e:	0848                	addi	a0,sp,20
   1a040:	04a00613          	li	a2,74
   1a044:	00004097          	auipc	ra,0x4
   1a048:	4d0080e7          	jalr	1232(ra) # 1e514 <memcpy>
   1a04c:	4509                	li	a0,2
   1a04e:	00a40963          	beq	s0,a0,1a060 <_start+0x240>
   1a052:	45a5                	li	a1,9
   1a054:	854a                	mv	a0,s2
   1a056:	4601                	li	a2,0
   1a058:	4681                	li	a3,0
   1a05a:	8722                	mv	a4,s0
   1a05c:	00000073          	ecall
   1a060:	0a014503          	lbu	a0,160(sp)
   1a064:	0a114583          	lbu	a1,161(sp)
   1a068:	0a214603          	lbu	a2,162(sp)
   1a06c:	6685                	lui	a3,0x1
   1a06e:	38d68693          	addi	a3,a3,909 # 138d <.Lline_table_start1+0x1162>
   1a072:	00d10a33          	add	s4,sp,a3
   1a076:	3ea986a3          	sb	a0,1005(s3)
   1a07a:	3eb98723          	sb	a1,1006(s3)
   1a07e:	3ec987a3          	sb	a2,1007(s3)
   1a082:	6505                	lui	a0,0x1
   1a084:	33050513          	addi	a0,a0,816 # 1330 <.Lline_table_start1+0x1105>
   1a088:	950a                	add	a0,a0,sp
   1a08a:	084c                	addi	a1,sp,20
   1a08c:	04a00613          	li	a2,74
   1a090:	00004097          	auipc	ra,0x4
   1a094:	484080e7          	jalr	1156(ra) # 1e514 <memcpy>
   1a098:	6505                	lui	a0,0x1
   1a09a:	39450513          	addi	a0,a0,916 # 1394 <.Lline_table_start1+0x1169>
   1a09e:	950a                	add	a0,a0,sp
   1a0a0:	6585                	lui	a1,0x1
   1a0a2:	33058593          	addi	a1,a1,816 # 1330 <.Lline_table_start1+0x1105>
   1a0a6:	958a                	add	a1,a1,sp
   1a0a8:	04a00613          	li	a2,74
   1a0ac:	00004097          	auipc	ra,0x4
   1a0b0:	468080e7          	jalr	1128(ra) # 1e514 <memcpy>
   1a0b4:	4409                	li	s0,2
   1a0b6:	0184d513          	srli	a0,s1,0x18
   1a0ba:	0104d593          	srli	a1,s1,0x10
   1a0be:	3ea989a3          	sb	a0,1011(s3)
   1a0c2:	0084d513          	srli	a0,s1,0x8
   1a0c6:	3e898623          	sb	s0,1004(s3)
   1a0ca:	3e998823          	sb	s1,1008(s3)
   1a0ce:	3ea988a3          	sb	a0,1009(s3)
   1a0d2:	3eb98923          	sb	a1,1010(s3)
   1a0d6:	6505                	lui	a0,0x1
   1a0d8:	33150513          	addi	a0,a0,817 # 1331 <.Lline_table_start1+0x1106>
   1a0dc:	00a10933          	add	s2,sp,a0
   1a0e0:	04600613          	li	a2,70
   1a0e4:	854a                	mv	a0,s2
   1a0e6:	4581                	li	a1,0
   1a0e8:	00004097          	auipc	ra,0x4
   1a0ec:	3c0080e7          	jalr	960(ra) # 1e4a8 <memset>
   1a0f0:	8652                	mv	a2,s4
   1a0f2:	38898823          	sb	s0,912(s3)
   1a0f6:	6509                	lui	a0,0x2
   1a0f8:	4491                	li	s1,4
   1a0fa:	459d                	li	a1,7
   1a0fc:	0c450793          	addi	a5,a0,196 # 20c4 <.Lline_table_start1+0x1e99>
   1a100:	05100693          	li	a3,81
   1a104:	4711                	li	a4,4
   1a106:	853e                	mv	a0,a5
   1a108:	00000073          	ecall
   1a10c:	06850063          	beq	a0,s0,1a16c <_start+0x34c>
   1a110:	853e                	mv	a0,a5
   1a112:	4581                	li	a1,0
   1a114:	864a                	mv	a2,s2
   1a116:	3e998623          	sb	s1,1004(s3)
   1a11a:	478d                	li	a5,3
   1a11c:	04600693          	li	a3,70
   1a120:	470d                	li	a4,3
   1a122:	00000073          	ecall
   1a126:	00851863          	bne	a0,s0,1a136 <_start+0x316>
   1a12a:	3909c703          	lbu	a4,912(s3)
   1a12e:	4509                	li	a0,2
   1a130:	02a71463          	bne	a4,a0,1a158 <_start+0x338>
   1a134:	a825                	j	1a16c <_start+0x34c>
   1a136:	4601                	li	a2,0
   1a138:	4681                	li	a3,0
   1a13a:	38f98823          	sb	a5,912(s3)
   1a13e:	6509                	lui	a0,0x2
   1a140:	459d                	li	a1,7
   1a142:	4709                	li	a4,2
   1a144:	0c450513          	addi	a0,a0,196 # 20c4 <.Lline_table_start1+0x1e99>
   1a148:	08000793          	li	a5,128
   1a14c:	00000073          	ecall
   1a150:	4609                	li	a2,2
   1a152:	02f57c63          	bgeu	a0,a5,1a18a <_start+0x36a>
   1a156:	470d                	li	a4,3
   1a158:	6509                	lui	a0,0x2
   1a15a:	0c450513          	addi	a0,a0,196 # 20c4 <.Lline_table_start1+0x1e99>
   1a15e:	87ae                	mv	a5,a1
   1a160:	4581                	li	a1,0
   1a162:	4601                	li	a2,0
   1a164:	4681                	li	a3,0
   1a166:	00000073          	ecall
   1a16a:	85be                	mv	a1,a5
   1a16c:	3ec9c703          	lbu	a4,1004(s3)
   1a170:	4509                	li	a0,2
   1a172:	daa70ee3          	beq	a4,a0,19f2e <_start+0x10e>
   1a176:	6509                	lui	a0,0x2
   1a178:	0c450513          	addi	a0,a0,196 # 20c4 <.Lline_table_start1+0x1e99>
   1a17c:	87ae                	mv	a5,a1
   1a17e:	459d                	li	a1,7
   1a180:	4601                	li	a2,0
   1a182:	4681                	li	a3,0
   1a184:	00000073          	ecall
   1a188:	b355                	j	19f2c <_start+0x10c>
   1a18a:	3ec9c703          	lbu	a4,1004(s3)
   1a18e:	00c71463          	bne	a4,a2,1a196 <_start+0x376>
   1a192:	470d                	li	a4,3
   1a194:	a885                	j	1a204 <_start+0x3e4>
   1a196:	6509                	lui	a0,0x2
   1a198:	0c450513          	addi	a0,a0,196 # 20c4 <.Lline_table_start1+0x1e99>
   1a19c:	459d                	li	a1,7
   1a19e:	4601                	li	a2,0
   1a1a0:	4681                	li	a3,0
   1a1a2:	00000073          	ecall
   1a1a6:	3909c703          	lbu	a4,912(s3)
   1a1aa:	4509                	li	a0,2
   1a1ac:	3ea98623          	sb	a0,1004(s3)
   1a1b0:	04a71a63          	bne	a4,a0,1a204 <_start+0x3e4>
   1a1b4:	00194503          	lbu	a0,1(s2)
   1a1b8:	00094583          	lbu	a1,0(s2)
   1a1bc:	00294603          	lbu	a2,2(s2)
   1a1c0:	0522                	slli	a0,a0,0x8
   1a1c2:	3949c683          	lbu	a3,916(s3)
   1a1c6:	3959c703          	lbu	a4,917(s3)
   1a1ca:	8d4d                	or	a0,a0,a1
   1a1cc:	3969c583          	lbu	a1,918(s3)
   1a1d0:	3979c783          	lbu	a5,919(s3)
   1a1d4:	0722                	slli	a4,a4,0x8
   1a1d6:	8ed9                	or	a3,a3,a4
   1a1d8:	05c2                	slli	a1,a1,0x10
   1a1da:	07e2                	slli	a5,a5,0x18
   1a1dc:	8ddd                	or	a1,a1,a5
   1a1de:	0aa11023          	sh	a0,160(sp)
   1a1e2:	0ac10123          	sb	a2,162(sp)
   1a1e6:	00d5e4b3          	or	s1,a1,a3
   1a1ea:	6505                	lui	a0,0x1
   1a1ec:	33850513          	addi	a0,a0,824 # 1338 <.Lline_table_start1+0x110d>
   1a1f0:	00a105b3          	add	a1,sp,a0
   1a1f4:	1088                	addi	a0,sp,96
   1a1f6:	03f00613          	li	a2,63
   1a1fa:	00004097          	auipc	ra,0x4
   1a1fe:	31a080e7          	jalr	794(ra) # 1e514 <memcpy>
   1a202:	a8ad                	j	1a27c <_start+0x45c>
   1a204:	4581                	li	a1,0
   1a206:	4601                	li	a2,0
   1a208:	4681                	li	a3,0
   1a20a:	6509                	lui	a0,0x2
   1a20c:	0c450a13          	addi	s4,a0,196 # 20c4 <.Lline_table_start1+0x1e99>
   1a210:	8552                	mv	a0,s4
   1a212:	00000073          	ecall
   1a216:	00194503          	lbu	a0,1(s2)
   1a21a:	00094583          	lbu	a1,0(s2)
   1a21e:	00294603          	lbu	a2,2(s2)
   1a222:	0522                	slli	a0,a0,0x8
   1a224:	3949c683          	lbu	a3,916(s3)
   1a228:	3959c703          	lbu	a4,917(s3)
   1a22c:	8d4d                	or	a0,a0,a1
   1a22e:	3969c583          	lbu	a1,918(s3)
   1a232:	3979c783          	lbu	a5,919(s3)
   1a236:	0722                	slli	a4,a4,0x8
   1a238:	8ed9                	or	a3,a3,a4
   1a23a:	05c2                	slli	a1,a1,0x10
   1a23c:	07e2                	slli	a5,a5,0x18
   1a23e:	8ddd                	or	a1,a1,a5
   1a240:	3ec9c403          	lbu	s0,1004(s3)
   1a244:	0aa11023          	sh	a0,160(sp)
   1a248:	0ac10123          	sb	a2,162(sp)
   1a24c:	00d5e4b3          	or	s1,a1,a3
   1a250:	6505                	lui	a0,0x1
   1a252:	33850513          	addi	a0,a0,824 # 1338 <.Lline_table_start1+0x110d>
   1a256:	00a105b3          	add	a1,sp,a0
   1a25a:	1088                	addi	a0,sp,96
   1a25c:	03f00613          	li	a2,63
   1a260:	00004097          	auipc	ra,0x4
   1a264:	2b4080e7          	jalr	692(ra) # 1e514 <memcpy>
   1a268:	4509                	li	a0,2
   1a26a:	00a40963          	beq	s0,a0,1a27c <_start+0x45c>
   1a26e:	459d                	li	a1,7
   1a270:	8552                	mv	a0,s4
   1a272:	4601                	li	a2,0
   1a274:	4681                	li	a3,0
   1a276:	8722                	mv	a4,s0
   1a278:	00000073          	ecall
   1a27c:	0a014503          	lbu	a0,160(sp)
   1a280:	0a114583          	lbu	a1,161(sp)
   1a284:	0a214603          	lbu	a2,162(sp)
   1a288:	6685                	lui	a3,0x1
   1a28a:	38d68693          	addi	a3,a3,909 # 138d <.Lline_table_start1+0x1162>
   1a28e:	00d10a33          	add	s4,sp,a3
   1a292:	3ea986a3          	sb	a0,1005(s3)
   1a296:	3eb98723          	sb	a1,1006(s3)
   1a29a:	3ec987a3          	sb	a2,1007(s3)
   1a29e:	0848                	addi	a0,sp,20
   1a2a0:	108c                	addi	a1,sp,96
   1a2a2:	03f00613          	li	a2,63
   1a2a6:	00004097          	auipc	ra,0x4
   1a2aa:	26e080e7          	jalr	622(ra) # 1e514 <memcpy>
   1a2ae:	6505                	lui	a0,0x1
   1a2b0:	39450513          	addi	a0,a0,916 # 1394 <.Lline_table_start1+0x1169>
   1a2b4:	950a                	add	a0,a0,sp
   1a2b6:	084c                	addi	a1,sp,20
   1a2b8:	03f00613          	li	a2,63
   1a2bc:	00004097          	auipc	ra,0x4
   1a2c0:	258080e7          	jalr	600(ra) # 1e514 <memcpy>
   1a2c4:	4409                	li	s0,2
   1a2c6:	0184d513          	srli	a0,s1,0x18
   1a2ca:	0104d593          	srli	a1,s1,0x10
   1a2ce:	3ea989a3          	sb	a0,1011(s3)
   1a2d2:	0084d513          	srli	a0,s1,0x8
   1a2d6:	3e898623          	sb	s0,1004(s3)
   1a2da:	3e998823          	sb	s1,1008(s3)
   1a2de:	3ea988a3          	sb	a0,1009(s3)
   1a2e2:	3eb98923          	sb	a1,1010(s3)
   1a2e6:	4661                	li	a2,24
   1a2e8:	854a                	mv	a0,s2
   1a2ea:	4581                	li	a1,0
   1a2ec:	00004097          	auipc	ra,0x4
   1a2f0:	1bc080e7          	jalr	444(ra) # 1e4a8 <memset>
   1a2f4:	8652                	mv	a2,s4
   1a2f6:	38898823          	sb	s0,912(s3)
   1a2fa:	6509                	lui	a0,0x2
   1a2fc:	4491                	li	s1,4
   1a2fe:	458d                	li	a1,3
   1a300:	3cf50793          	addi	a5,a0,975 # 23cf <.Lline_table_start1+0x21a4>
   1a304:	04600693          	li	a3,70
   1a308:	4711                	li	a4,4
   1a30a:	853e                	mv	a0,a5
   1a30c:	00000073          	ecall
   1a310:	04850f63          	beq	a0,s0,1a36e <_start+0x54e>
   1a314:	853e                	mv	a0,a5
   1a316:	864a                	mv	a2,s2
   1a318:	3e998623          	sb	s1,1004(s3)
   1a31c:	478d                	li	a5,3
   1a31e:	4589                	li	a1,2
   1a320:	46e1                	li	a3,24
   1a322:	470d                	li	a4,3
   1a324:	00000073          	ecall
   1a328:	00851863          	bne	a0,s0,1a338 <_start+0x518>
   1a32c:	3909c703          	lbu	a4,912(s3)
   1a330:	4509                	li	a0,2
   1a332:	02a71463          	bne	a4,a0,1a35a <_start+0x53a>
   1a336:	a825                	j	1a36e <_start+0x54e>
   1a338:	4681                	li	a3,0
   1a33a:	38f98823          	sb	a5,912(s3)
   1a33e:	6509                	lui	a0,0x2
   1a340:	458d                	li	a1,3
   1a342:	4609                	li	a2,2
   1a344:	4709                	li	a4,2
   1a346:	3cf50513          	addi	a0,a0,975 # 23cf <.Lline_table_start1+0x21a4>
   1a34a:	08000793          	li	a5,128
   1a34e:	00000073          	ecall
   1a352:	4609                	li	a2,2
   1a354:	02f57c63          	bgeu	a0,a5,1a38c <_start+0x56c>
   1a358:	470d                	li	a4,3
   1a35a:	6509                	lui	a0,0x2
   1a35c:	3cf50513          	addi	a0,a0,975 # 23cf <.Lline_table_start1+0x21a4>
   1a360:	87ae                	mv	a5,a1
   1a362:	4589                	li	a1,2
   1a364:	4601                	li	a2,0
   1a366:	4681                	li	a3,0
   1a368:	00000073          	ecall
   1a36c:	85be                	mv	a1,a5
   1a36e:	3ec9c703          	lbu	a4,1004(s3)
   1a372:	4509                	li	a0,2
   1a374:	baa70de3          	beq	a4,a0,19f2e <_start+0x10e>
   1a378:	6509                	lui	a0,0x2
   1a37a:	3cf50513          	addi	a0,a0,975 # 23cf <.Lline_table_start1+0x21a4>
   1a37e:	87ae                	mv	a5,a1
   1a380:	458d                	li	a1,3
   1a382:	4601                	li	a2,0
   1a384:	4681                	li	a3,0
   1a386:	00000073          	ecall
   1a38a:	b64d                	j	19f2c <_start+0x10c>
   1a38c:	3ec9c703          	lbu	a4,1004(s3)
   1a390:	00c71463          	bne	a4,a2,1a398 <_start+0x578>
   1a394:	470d                	li	a4,3
   1a396:	a0dd                	j	1a47c <_start+0x65c>
   1a398:	6509                	lui	a0,0x2
   1a39a:	3cf50513          	addi	a0,a0,975 # 23cf <.Lline_table_start1+0x21a4>
   1a39e:	458d                	li	a1,3
   1a3a0:	4601                	li	a2,0
   1a3a2:	4681                	li	a3,0
   1a3a4:	00000073          	ecall
   1a3a8:	3909c703          	lbu	a4,912(s3)
   1a3ac:	4509                	li	a0,2
   1a3ae:	3ea98623          	sb	a0,1004(s3)
   1a3b2:	0ca71563          	bne	a4,a0,1a47c <_start+0x65c>
   1a3b6:	00094583          	lbu	a1,0(s2)
   1a3ba:	00194603          	lbu	a2,1(s2)
   1a3be:	00294803          	lbu	a6,2(s2)
   1a3c2:	3949c883          	lbu	a7,916(s3)
   1a3c6:	3959c283          	lbu	t0,917(s3)
   1a3ca:	3969c303          	lbu	t1,918(s3)
   1a3ce:	3979c483          	lbu	s1,919(s3)
   1a3d2:	3a89c403          	lbu	s0,936(s3)
   1a3d6:	3989c503          	lbu	a0,920(s3)
   1a3da:	3999c683          	lbu	a3,921(s3)
   1a3de:	39a9c703          	lbu	a4,922(s3)
   1a3e2:	39b9c783          	lbu	a5,923(s3)
   1a3e6:	0622                	slli	a2,a2,0x8
   1a3e8:	0a810823          	sb	s0,176(sp)
   1a3ec:	00b663b3          	or	t2,a2,a1
   1a3f0:	39c9ce03          	lbu	t3,924(s3)
   1a3f4:	39d9c403          	lbu	s0,925(s3)
   1a3f8:	39e9c583          	lbu	a1,926(s3)
   1a3fc:	39f9c603          	lbu	a2,927(s3)
   1a400:	02a2                	slli	t0,t0,0x8
   1a402:	0342                	slli	t1,t1,0x10
   1a404:	04e2                	slli	s1,s1,0x18
   1a406:	06a2                	slli	a3,a3,0x8
   1a408:	0742                	slli	a4,a4,0x10
   1a40a:	07e2                	slli	a5,a5,0x18
   1a40c:	0112e8b3          	or	a7,t0,a7
   1a410:	0064e333          	or	t1,s1,t1
   1a414:	00a6e2b3          	or	t0,a3,a0
   1a418:	00e7eeb3          	or	t4,a5,a4
   1a41c:	3a09c683          	lbu	a3,928(s3)
   1a420:	3a19c783          	lbu	a5,929(s3)
   1a424:	3a29c503          	lbu	a0,930(s3)
   1a428:	3a39c483          	lbu	s1,931(s3)
   1a42c:	0422                	slli	s0,s0,0x8
   1a42e:	05c2                	slli	a1,a1,0x10
   1a430:	0662                	slli	a2,a2,0x18
   1a432:	07a2                	slli	a5,a5,0x8
   1a434:	0542                	slli	a0,a0,0x10
   1a436:	04e2                	slli	s1,s1,0x18
   1a438:	01c46433          	or	s0,s0,t3
   1a43c:	8dd1                	or	a1,a1,a2
   1a43e:	8edd                	or	a3,a3,a5
   1a440:	3a49c603          	lbu	a2,932(s3)
   1a444:	3a59c783          	lbu	a5,933(s3)
   1a448:	8d45                	or	a0,a0,s1
   1a44a:	3a69c483          	lbu	s1,934(s3)
   1a44e:	3a79c703          	lbu	a4,935(s3)
   1a452:	07a2                	slli	a5,a5,0x8
   1a454:	8e5d                	or	a2,a2,a5
   1a456:	04c2                	slli	s1,s1,0x10
   1a458:	0762                	slli	a4,a4,0x18
   1a45a:	8f45                	or	a4,a4,s1
   1a45c:	0a711a23          	sh	t2,180(sp)
   1a460:	0b010b23          	sb	a6,182(sp)
   1a464:	011364b3          	or	s1,t1,a7
   1a468:	005ee7b3          	or	a5,t4,t0
   1a46c:	8dc1                	or	a1,a1,s0
   1a46e:	8d55                	or	a0,a0,a3
   1a470:	8e59                	or	a2,a2,a4
   1a472:	d13e                	sw	a5,160(sp)
   1a474:	d32e                	sw	a1,164(sp)
   1a476:	d52a                	sw	a0,168(sp)
   1a478:	d732                	sw	a2,172(sp)
   1a47a:	a0fd                	j	1a568 <_start+0x748>
   1a47c:	4601                	li	a2,0
   1a47e:	4681                	li	a3,0
   1a480:	6509                	lui	a0,0x2
   1a482:	3cf50813          	addi	a6,a0,975 # 23cf <.Lline_table_start1+0x21a4>
   1a486:	4589                	li	a1,2
   1a488:	8542                	mv	a0,a6
   1a48a:	00000073          	ecall
   1a48e:	00094583          	lbu	a1,0(s2)
   1a492:	00194603          	lbu	a2,1(s2)
   1a496:	00294883          	lbu	a7,2(s2)
   1a49a:	3949c283          	lbu	t0,916(s3)
   1a49e:	3959c303          	lbu	t1,917(s3)
   1a4a2:	3969c383          	lbu	t2,918(s3)
   1a4a6:	3979c403          	lbu	s0,919(s3)
   1a4aa:	3a89c783          	lbu	a5,936(s3)
   1a4ae:	3989c503          	lbu	a0,920(s3)
   1a4b2:	3999c683          	lbu	a3,921(s3)
   1a4b6:	39a9c703          	lbu	a4,922(s3)
   1a4ba:	39b9c483          	lbu	s1,923(s3)
   1a4be:	0622                	slli	a2,a2,0x8
   1a4c0:	0af10823          	sb	a5,176(sp)
   1a4c4:	00b66e33          	or	t3,a2,a1
   1a4c8:	39c9ce83          	lbu	t4,924(s3)
   1a4cc:	39d9c783          	lbu	a5,925(s3)
   1a4d0:	39e9c583          	lbu	a1,926(s3)
   1a4d4:	39f9c603          	lbu	a2,927(s3)
   1a4d8:	0322                	slli	t1,t1,0x8
   1a4da:	03c2                	slli	t2,t2,0x10
   1a4dc:	0462                	slli	s0,s0,0x18
   1a4de:	06a2                	slli	a3,a3,0x8
   1a4e0:	0742                	slli	a4,a4,0x10
   1a4e2:	04e2                	slli	s1,s1,0x18
   1a4e4:	005362b3          	or	t0,t1,t0
   1a4e8:	007463b3          	or	t2,s0,t2
   1a4ec:	00a6e333          	or	t1,a3,a0
   1a4f0:	00e4ef33          	or	t5,s1,a4
   1a4f4:	3a09c683          	lbu	a3,928(s3)
   1a4f8:	3a19c483          	lbu	s1,929(s3)
   1a4fc:	3a29c503          	lbu	a0,930(s3)
   1a500:	3a39c403          	lbu	s0,931(s3)
   1a504:	07a2                	slli	a5,a5,0x8
   1a506:	05c2                	slli	a1,a1,0x10
   1a508:	0662                	slli	a2,a2,0x18
   1a50a:	04a2                	slli	s1,s1,0x8
   1a50c:	0542                	slli	a0,a0,0x10
   1a50e:	0462                	slli	s0,s0,0x18
   1a510:	01d7e7b3          	or	a5,a5,t4
   1a514:	8dd1                	or	a1,a1,a2
   1a516:	8ec5                	or	a3,a3,s1
   1a518:	3a49c603          	lbu	a2,932(s3)
   1a51c:	3a59c483          	lbu	s1,933(s3)
   1a520:	8d41                	or	a0,a0,s0
   1a522:	3a69c403          	lbu	s0,934(s3)
   1a526:	3a79c703          	lbu	a4,935(s3)
   1a52a:	04a2                	slli	s1,s1,0x8
   1a52c:	8e45                	or	a2,a2,s1
   1a52e:	0442                	slli	s0,s0,0x10
   1a530:	0762                	slli	a4,a4,0x18
   1a532:	8f41                	or	a4,a4,s0
   1a534:	0bc11a23          	sh	t3,180(sp)
   1a538:	0b110b23          	sb	a7,182(sp)
   1a53c:	0053e4b3          	or	s1,t2,t0
   1a540:	006f6433          	or	s0,t5,t1
   1a544:	8ddd                	or	a1,a1,a5
   1a546:	8d55                	or	a0,a0,a3
   1a548:	4689                	li	a3,2
   1a54a:	8e59                	or	a2,a2,a4
   1a54c:	3ec9c703          	lbu	a4,1004(s3)
   1a550:	d122                	sw	s0,160(sp)
   1a552:	d32e                	sw	a1,164(sp)
   1a554:	d52a                	sw	a0,168(sp)
   1a556:	d732                	sw	a2,172(sp)
   1a558:	00d70863          	beq	a4,a3,1a568 <_start+0x748>
   1a55c:	458d                	li	a1,3
   1a55e:	8542                	mv	a0,a6
   1a560:	4601                	li	a2,0
   1a562:	4681                	li	a3,0
   1a564:	00000073          	ecall
   1a568:	0b414503          	lbu	a0,180(sp)
   1a56c:	0b514583          	lbu	a1,181(sp)
   1a570:	0b614603          	lbu	a2,182(sp)
   1a574:	568a                	lw	a3,160(sp)
   1a576:	571a                	lw	a4,164(sp)
   1a578:	57aa                	lw	a5,168(sp)
   1a57a:	543a                	lw	s0,172(sp)
   1a57c:	06a100a3          	sb	a0,97(sp)
   1a580:	06b10123          	sb	a1,98(sp)
   1a584:	06c101a3          	sb	a2,99(sp)
   1a588:	0b014503          	lbu	a0,176(sp)
   1a58c:	ca36                	sw	a3,20(sp)
   1a58e:	cc3a                	sw	a4,24(sp)
   1a590:	ce3e                	sw	a5,28(sp)
   1a592:	d022                	sw	s0,32(sp)
   1a594:	06110a93          	addi	s5,sp,97
   1a598:	02a10223          	sb	a0,36(sp)
   1a59c:	10a8                	addi	a0,sp,104
   1a59e:	084c                	addi	a1,sp,20
   1a5a0:	4645                	li	a2,17
   1a5a2:	00004097          	auipc	ra,0x4
   1a5a6:	f72080e7          	jalr	-142(ra) # 1e514 <memcpy>
   1a5aa:	4409                	li	s0,2
   1a5ac:	0184d513          	srli	a0,s1,0x18
   1a5b0:	0104d593          	srli	a1,s1,0x10
   1a5b4:	06a103a3          	sb	a0,103(sp)
   1a5b8:	0084d513          	srli	a0,s1,0x8
   1a5bc:	06810023          	sb	s0,96(sp)
   1a5c0:	06910223          	sb	s1,100(sp)
   1a5c4:	06a102a3          	sb	a0,101(sp)
   1a5c8:	06b10323          	sb	a1,102(sp)
   1a5cc:	03600613          	li	a2,54
   1a5d0:	8552                	mv	a0,s4
   1a5d2:	4581                	li	a1,0
   1a5d4:	00004097          	auipc	ra,0x4
   1a5d8:	ed4080e7          	jalr	-300(ra) # 1e4a8 <memset>
   1a5dc:	4581                	li	a1,0
   1a5de:	8656                	mv	a2,s5
   1a5e0:	3e898623          	sb	s0,1004(s3)
   1a5e4:	4791                	li	a5,4
   1a5e6:	21f00513          	li	a0,543
   1a5ea:	46e1                	li	a3,24
   1a5ec:	4711                	li	a4,4
   1a5ee:	00000073          	ecall
   1a5f2:	04850f63          	beq	a0,s0,1a650 <_start+0x830>
   1a5f6:	8652                	mv	a2,s4
   1a5f8:	06f10023          	sb	a5,96(sp)
   1a5fc:	478d                	li	a5,3
   1a5fe:	21f00513          	li	a0,543
   1a602:	459d                	li	a1,7
   1a604:	03600693          	li	a3,54
   1a608:	470d                	li	a4,3
   1a60a:	00000073          	ecall
   1a60e:	00851863          	bne	a0,s0,1a61e <_start+0x7fe>
   1a612:	3ec9c703          	lbu	a4,1004(s3)
   1a616:	4509                	li	a0,2
   1a618:	02a71363          	bne	a4,a0,1a63e <_start+0x81e>
   1a61c:	a815                	j	1a650 <_start+0x830>
   1a61e:	4581                	li	a1,0
   1a620:	4681                	li	a3,0
   1a622:	3ef98623          	sb	a5,1004(s3)
   1a626:	21f00513          	li	a0,543
   1a62a:	461d                	li	a2,7
   1a62c:	4709                	li	a4,2
   1a62e:	08000793          	li	a5,128
   1a632:	00000073          	ecall
   1a636:	4609                	li	a2,2
   1a638:	02f57a63          	bgeu	a0,a5,1a66c <_start+0x84c>
   1a63c:	470d                	li	a4,3
   1a63e:	21f00513          	li	a0,543
   1a642:	87ae                	mv	a5,a1
   1a644:	459d                	li	a1,7
   1a646:	4601                	li	a2,0
   1a648:	4681                	li	a3,0
   1a64a:	00000073          	ecall
   1a64e:	85be                	mv	a1,a5
   1a650:	06014703          	lbu	a4,96(sp)
   1a654:	4509                	li	a0,2
   1a656:	8ca70ce3          	beq	a4,a0,19f2e <_start+0x10e>
   1a65a:	21f00513          	li	a0,543
   1a65e:	87ae                	mv	a5,a1
   1a660:	4581                	li	a1,0
   1a662:	4601                	li	a2,0
   1a664:	4681                	li	a3,0
   1a666:	00000073          	ecall
   1a66a:	b0c9                	j	19f2c <_start+0x10c>
   1a66c:	06014703          	lbu	a4,96(sp)
   1a670:	00c71463          	bne	a4,a2,1a678 <_start+0x858>
   1a674:	470d                	li	a4,3
   1a676:	a0bd                	j	1a6e4 <_start+0x8c4>
   1a678:	21f00513          	li	a0,543
   1a67c:	4581                	li	a1,0
   1a67e:	4601                	li	a2,0
   1a680:	4681                	li	a3,0
   1a682:	00000073          	ecall
   1a686:	3ec9c703          	lbu	a4,1004(s3)
   1a68a:	4509                	li	a0,2
   1a68c:	06a10023          	sb	a0,96(sp)
   1a690:	04a71a63          	bne	a4,a0,1a6e4 <_start+0x8c4>
   1a694:	001a4503          	lbu	a0,1(s4)
   1a698:	000a4583          	lbu	a1,0(s4)
   1a69c:	002a4603          	lbu	a2,2(s4)
   1a6a0:	0522                	slli	a0,a0,0x8
   1a6a2:	3f09c683          	lbu	a3,1008(s3)
   1a6a6:	3f19c703          	lbu	a4,1009(s3)
   1a6aa:	8d4d                	or	a0,a0,a1
   1a6ac:	3f29c583          	lbu	a1,1010(s3)
   1a6b0:	3f39c783          	lbu	a5,1011(s3)
   1a6b4:	0722                	slli	a4,a4,0x8
   1a6b6:	8ed9                	or	a3,a3,a4
   1a6b8:	05c2                	slli	a1,a1,0x10
   1a6ba:	07e2                	slli	a5,a5,0x18
   1a6bc:	8ddd                	or	a1,a1,a5
   1a6be:	0aa11023          	sh	a0,160(sp)
   1a6c2:	0ac10123          	sb	a2,162(sp)
   1a6c6:	00d5e433          	or	s0,a1,a3
   1a6ca:	6505                	lui	a0,0x1
   1a6cc:	39450513          	addi	a0,a0,916 # 1394 <.Lline_table_start1+0x1169>
   1a6d0:	00a105b3          	add	a1,sp,a0
   1a6d4:	0848                	addi	a0,sp,20
   1a6d6:	02f00613          	li	a2,47
   1a6da:	00004097          	auipc	ra,0x4
   1a6de:	e3a080e7          	jalr	-454(ra) # 1e514 <memcpy>
   1a6e2:	a8a5                	j	1a75a <_start+0x93a>
   1a6e4:	4601                	li	a2,0
   1a6e6:	4681                	li	a3,0
   1a6e8:	21f00513          	li	a0,543
   1a6ec:	459d                	li	a1,7
   1a6ee:	00000073          	ecall
   1a6f2:	001a4503          	lbu	a0,1(s4)
   1a6f6:	000a4583          	lbu	a1,0(s4)
   1a6fa:	002a4603          	lbu	a2,2(s4)
   1a6fe:	0522                	slli	a0,a0,0x8
   1a700:	3f09c683          	lbu	a3,1008(s3)
   1a704:	3f19c703          	lbu	a4,1009(s3)
   1a708:	8d4d                	or	a0,a0,a1
   1a70a:	3f29c583          	lbu	a1,1010(s3)
   1a70e:	3f39c783          	lbu	a5,1011(s3)
   1a712:	0722                	slli	a4,a4,0x8
   1a714:	8ed9                	or	a3,a3,a4
   1a716:	06014483          	lbu	s1,96(sp)
   1a71a:	05c2                	slli	a1,a1,0x10
   1a71c:	07e2                	slli	a5,a5,0x18
   1a71e:	8ddd                	or	a1,a1,a5
   1a720:	0aa11023          	sh	a0,160(sp)
   1a724:	0ac10123          	sb	a2,162(sp)
   1a728:	00d5e433          	or	s0,a1,a3
   1a72c:	6505                	lui	a0,0x1
   1a72e:	39450513          	addi	a0,a0,916 # 1394 <.Lline_table_start1+0x1169>
   1a732:	00a105b3          	add	a1,sp,a0
   1a736:	0848                	addi	a0,sp,20
   1a738:	02f00613          	li	a2,47
   1a73c:	00004097          	auipc	ra,0x4
   1a740:	dd8080e7          	jalr	-552(ra) # 1e514 <memcpy>
   1a744:	4509                	li	a0,2
   1a746:	00a48a63          	beq	s1,a0,1a75a <_start+0x93a>
   1a74a:	21f00513          	li	a0,543
   1a74e:	4581                	li	a1,0
   1a750:	4601                	li	a2,0
   1a752:	4681                	li	a3,0
   1a754:	8726                	mv	a4,s1
   1a756:	00000073          	ecall
   1a75a:	0a014503          	lbu	a0,160(sp)
   1a75e:	0a114583          	lbu	a1,161(sp)
   1a762:	0a214603          	lbu	a2,162(sp)
   1a766:	6685                	lui	a3,0x1
   1a768:	38d68693          	addi	a3,a3,909 # 138d <.Lline_table_start1+0x1162>
   1a76c:	00d10a33          	add	s4,sp,a3
   1a770:	3ea986a3          	sb	a0,1005(s3)
   1a774:	3eb98723          	sb	a1,1006(s3)
   1a778:	3ec987a3          	sb	a2,1007(s3)
   1a77c:	6505                	lui	a0,0x1
   1a77e:	33050513          	addi	a0,a0,816 # 1330 <.Lline_table_start1+0x1105>
   1a782:	950a                	add	a0,a0,sp
   1a784:	084c                	addi	a1,sp,20
   1a786:	02f00613          	li	a2,47
   1a78a:	00004097          	auipc	ra,0x4
   1a78e:	d8a080e7          	jalr	-630(ra) # 1e514 <memcpy>
   1a792:	6505                	lui	a0,0x1
   1a794:	39450513          	addi	a0,a0,916 # 1394 <.Lline_table_start1+0x1169>
   1a798:	950a                	add	a0,a0,sp
   1a79a:	6585                	lui	a1,0x1
   1a79c:	33058593          	addi	a1,a1,816 # 1330 <.Lline_table_start1+0x1105>
   1a7a0:	958a                	add	a1,a1,sp
   1a7a2:	02f00613          	li	a2,47
   1a7a6:	00004097          	auipc	ra,0x4
   1a7aa:	d6e080e7          	jalr	-658(ra) # 1e514 <memcpy>
   1a7ae:	4489                	li	s1,2
   1a7b0:	01845513          	srli	a0,s0,0x18
   1a7b4:	01045593          	srli	a1,s0,0x10
   1a7b8:	3ea989a3          	sb	a0,1011(s3)
   1a7bc:	00845513          	srli	a0,s0,0x8
   1a7c0:	3e998623          	sb	s1,1004(s3)
   1a7c4:	3e898823          	sb	s0,1008(s3)
   1a7c8:	3ea988a3          	sb	a0,1009(s3)
   1a7cc:	3eb98923          	sb	a1,1010(s3)
   1a7d0:	02500613          	li	a2,37
   1a7d4:	854a                	mv	a0,s2
   1a7d6:	4581                	li	a1,0
   1a7d8:	00004097          	auipc	ra,0x4
   1a7dc:	cd0080e7          	jalr	-816(ra) # 1e4a8 <memset>
   1a7e0:	8652                	mv	a2,s4
   1a7e2:	38998823          	sb	s1,912(s3)
   1a7e6:	6505                	lui	a0,0x1
   1a7e8:	4411                	li	s0,4
   1a7ea:	459d                	li	a1,7
   1a7ec:	59750793          	addi	a5,a0,1431 # 1597 <.Lline_table_start1+0x136c>
   1a7f0:	03600693          	li	a3,54
   1a7f4:	4711                	li	a4,4
   1a7f6:	853e                	mv	a0,a5
   1a7f8:	00000073          	ecall
   1a7fc:	06950063          	beq	a0,s1,1a85c <_start+0xa3c>
   1a800:	853e                	mv	a0,a5
   1a802:	4581                	li	a1,0
   1a804:	864a                	mv	a2,s2
   1a806:	3e898623          	sb	s0,1004(s3)
   1a80a:	478d                	li	a5,3
   1a80c:	02500693          	li	a3,37
   1a810:	470d                	li	a4,3
   1a812:	00000073          	ecall
   1a816:	00951863          	bne	a0,s1,1a826 <_start+0xa06>
   1a81a:	3909c703          	lbu	a4,912(s3)
   1a81e:	4509                	li	a0,2
   1a820:	02a71463          	bne	a4,a0,1a848 <_start+0xa28>
   1a824:	a825                	j	1a85c <_start+0xa3c>
   1a826:	4601                	li	a2,0
   1a828:	4681                	li	a3,0
   1a82a:	38f98823          	sb	a5,912(s3)
   1a82e:	6505                	lui	a0,0x1
   1a830:	459d                	li	a1,7
   1a832:	4709                	li	a4,2
   1a834:	59750513          	addi	a0,a0,1431 # 1597 <.Lline_table_start1+0x136c>
   1a838:	08000793          	li	a5,128
   1a83c:	00000073          	ecall
   1a840:	4609                	li	a2,2
   1a842:	02f57d63          	bgeu	a0,a5,1a87c <_start+0xa5c>
   1a846:	470d                	li	a4,3
   1a848:	6505                	lui	a0,0x1
   1a84a:	59750513          	addi	a0,a0,1431 # 1597 <.Lline_table_start1+0x136c>
   1a84e:	87ae                	mv	a5,a1
   1a850:	4581                	li	a1,0
   1a852:	4601                	li	a2,0
   1a854:	4681                	li	a3,0
   1a856:	00000073          	ecall
   1a85a:	85be                	mv	a1,a5
   1a85c:	3ec9c703          	lbu	a4,1004(s3)
   1a860:	4509                	li	a0,2
   1a862:	eca70663          	beq	a4,a0,19f2e <_start+0x10e>
   1a866:	6505                	lui	a0,0x1
   1a868:	59750513          	addi	a0,a0,1431 # 1597 <.Lline_table_start1+0x136c>
   1a86c:	87ae                	mv	a5,a1
   1a86e:	459d                	li	a1,7
   1a870:	4601                	li	a2,0
   1a872:	4681                	li	a3,0
   1a874:	00000073          	ecall
   1a878:	eb4ff06f          	j	19f2c <_start+0x10c>
   1a87c:	3ec9c703          	lbu	a4,1004(s3)
   1a880:	00c71463          	bne	a4,a2,1a888 <_start+0xa68>
   1a884:	470d                	li	a4,3
   1a886:	aa8d                	j	1a9f8 <_start+0xbd8>
   1a888:	6505                	lui	a0,0x1
   1a88a:	59750513          	addi	a0,a0,1431 # 1597 <.Lline_table_start1+0x136c>
   1a88e:	459d                	li	a1,7
   1a890:	4601                	li	a2,0
   1a892:	4681                	li	a3,0
   1a894:	00000073          	ecall
   1a898:	3909c703          	lbu	a4,912(s3)
   1a89c:	4509                	li	a0,2
   1a89e:	3ea98623          	sb	a0,1004(s3)
   1a8a2:	14a71b63          	bne	a4,a0,1a9f8 <_start+0xbd8>
   1a8a6:	00094883          	lbu	a7,0(s2)
   1a8aa:	00194303          	lbu	t1,1(s2)
   1a8ae:	00294503          	lbu	a0,2(s2)
   1a8b2:	c82a                	sw	a0,16(sp)
   1a8b4:	3949c383          	lbu	t2,916(s3)
   1a8b8:	3959cf83          	lbu	t6,917(s3)
   1a8bc:	3969c783          	lbu	a5,918(s3)
   1a8c0:	3979c483          	lbu	s1,919(s3)
   1a8c4:	3b49c403          	lbu	s0,948(s3)
   1a8c8:	3b59c503          	lbu	a0,949(s3)
   1a8cc:	3989c283          	lbu	t0,920(s3)
   1a8d0:	3999ce03          	lbu	t3,921(s3)
   1a8d4:	39a9ce83          	lbu	t4,922(s3)
   1a8d8:	39b9cf03          	lbu	t5,923(s3)
   1a8dc:	39c9cb83          	lbu	s7,924(s3)
   1a8e0:	39d9c583          	lbu	a1,925(s3)
   1a8e4:	39e9c603          	lbu	a2,926(s3)
   1a8e8:	39f9c683          	lbu	a3,927(s3)
   1a8ec:	3a09ca03          	lbu	s4,928(s3)
   1a8f0:	3a19ca83          	lbu	s5,929(s3)
   1a8f4:	3a29cb03          	lbu	s6,930(s3)
   1a8f8:	3a39cc03          	lbu	s8,931(s3)
   1a8fc:	0322                	slli	t1,t1,0x8
   1a8fe:	008f9713          	slli	a4,t6,0x8
   1a902:	07c2                	slli	a5,a5,0x10
   1a904:	04e2                	slli	s1,s1,0x18
   1a906:	0522                	slli	a0,a0,0x8
   1a908:	01136fb3          	or	t6,t1,a7
   1a90c:	00776333          	or	t1,a4,t2
   1a910:	00f4e3b3          	or	t2,s1,a5
   1a914:	008568b3          	or	a7,a0,s0
   1a918:	3a49c703          	lbu	a4,932(s3)
   1a91c:	3a59c403          	lbu	s0,933(s3)
   1a920:	3a69c783          	lbu	a5,934(s3)
   1a924:	3a79c483          	lbu	s1,935(s3)
   1a928:	0e22                	slli	t3,t3,0x8
   1a92a:	0ec2                	slli	t4,t4,0x10
   1a92c:	0f62                	slli	t5,t5,0x18
   1a92e:	05a2                	slli	a1,a1,0x8
   1a930:	0642                	slli	a2,a2,0x10
   1a932:	01869513          	slli	a0,a3,0x18
   1a936:	005e62b3          	or	t0,t3,t0
   1a93a:	01df6e33          	or	t3,t5,t4
   1a93e:	0175eeb3          	or	t4,a1,s7
   1a942:	00c56f33          	or	t5,a0,a2
   1a946:	3a89c583          	lbu	a1,936(s3)
   1a94a:	3a99c603          	lbu	a2,937(s3)
   1a94e:	3aa9c683          	lbu	a3,938(s3)
   1a952:	3ab9c503          	lbu	a0,939(s3)
   1a956:	0aa2                	slli	s5,s5,0x8
   1a958:	0b42                	slli	s6,s6,0x10
   1a95a:	0c62                	slli	s8,s8,0x18
   1a95c:	0422                	slli	s0,s0,0x8
   1a95e:	07c2                	slli	a5,a5,0x10
   1a960:	04e2                	slli	s1,s1,0x18
   1a962:	014aea33          	or	s4,s5,s4
   1a966:	016c6833          	or	a6,s8,s6
   1a96a:	00e46b33          	or	s6,s0,a4
   1a96e:	00f4ebb3          	or	s7,s1,a5
   1a972:	3ac9c403          	lbu	s0,940(s3)
   1a976:	3ad9c483          	lbu	s1,941(s3)
   1a97a:	3ae9c703          	lbu	a4,942(s3)
   1a97e:	3af9c783          	lbu	a5,943(s3)
   1a982:	0622                	slli	a2,a2,0x8
   1a984:	06c2                	slli	a3,a3,0x10
   1a986:	0562                	slli	a0,a0,0x18
   1a988:	04a2                	slli	s1,s1,0x8
   1a98a:	0742                	slli	a4,a4,0x10
   1a98c:	07e2                	slli	a5,a5,0x18
   1a98e:	00b66c33          	or	s8,a2,a1
   1a992:	00d56cb3          	or	s9,a0,a3
   1a996:	0084ed33          	or	s10,s1,s0
   1a99a:	3b09c603          	lbu	a2,944(s3)
   1a99e:	3b19c683          	lbu	a3,945(s3)
   1a9a2:	00e7edb3          	or	s11,a5,a4
   1a9a6:	3b29c783          	lbu	a5,946(s3)
   1a9aa:	3b39c403          	lbu	s0,947(s3)
   1a9ae:	06a2                	slli	a3,a3,0x8
   1a9b0:	00c6e0b3          	or	ra,a3,a2
   1a9b4:	07c2                	slli	a5,a5,0x10
   1a9b6:	0462                	slli	s0,s0,0x18
   1a9b8:	8fc1                	or	a5,a5,s0
   1a9ba:	0bf11023          	sh	t6,160(sp)
   1a9be:	4542                	lw	a0,16(sp)
   1a9c0:	0aa10123          	sb	a0,162(sp)
   1a9c4:	0063eab3          	or	s5,t2,t1
   1a9c8:	005e66b3          	or	a3,t3,t0
   1a9cc:	01df65b3          	or	a1,t5,t4
   1a9d0:	01486533          	or	a0,a6,s4
   1a9d4:	016be4b3          	or	s1,s7,s6
   1a9d8:	018ce733          	or	a4,s9,s8
   1a9dc:	01ade633          	or	a2,s11,s10
   1a9e0:	0017e7b3          	or	a5,a5,ra
   1a9e4:	d8ba                	sw	a4,112(sp)
   1a9e6:	dab2                	sw	a2,116(sp)
   1a9e8:	dcbe                	sw	a5,120(sp)
   1a9ea:	07111e23          	sh	a7,124(sp)
   1a9ee:	d0b6                	sw	a3,96(sp)
   1a9f0:	d2ae                	sw	a1,100(sp)
   1a9f2:	d4aa                	sw	a0,104(sp)
   1a9f4:	d6a6                	sw	s1,108(sp)
   1a9f6:	aa8d                	j	1ab68 <_start+0xd48>
   1a9f8:	4581                	li	a1,0
   1a9fa:	4601                	li	a2,0
   1a9fc:	4681                	li	a3,0
   1a9fe:	6505                	lui	a0,0x1
   1aa00:	59750813          	addi	a6,a0,1431 # 1597 <.Lline_table_start1+0x136c>
   1aa04:	8542                	mv	a0,a6
   1aa06:	00000073          	ecall
   1aa0a:	3b49c283          	lbu	t0,948(s3)
   1aa0e:	3b59cf83          	lbu	t6,949(s3)
   1aa12:	3ec9c703          	lbu	a4,1004(s3)
   1aa16:	00094a03          	lbu	s4,0(s2)
   1aa1a:	00194783          	lbu	a5,1(s2)
   1aa1e:	00294883          	lbu	a7,2(s2)
   1aa22:	3949ca83          	lbu	s5,916(s3)
   1aa26:	3959c403          	lbu	s0,917(s3)
   1aa2a:	3969c503          	lbu	a0,918(s3)
   1aa2e:	3979c583          	lbu	a1,919(s3)
   1aa32:	3989c303          	lbu	t1,920(s3)
   1aa36:	3999c383          	lbu	t2,921(s3)
   1aa3a:	39a9ce03          	lbu	t3,922(s3)
   1aa3e:	39b9ce83          	lbu	t4,923(s3)
   1aa42:	39c9cf03          	lbu	t5,924(s3)
   1aa46:	39d9cd03          	lbu	s10,925(s3)
   1aa4a:	39e9c683          	lbu	a3,926(s3)
   1aa4e:	39f9c483          	lbu	s1,927(s3)
   1aa52:	3a09cb03          	lbu	s6,928(s3)
   1aa56:	3a19cb83          	lbu	s7,929(s3)
   1aa5a:	3a29cc03          	lbu	s8,930(s3)
   1aa5e:	3a39cc83          	lbu	s9,931(s3)
   1aa62:	07a2                	slli	a5,a5,0x8
   1aa64:	0422                	slli	s0,s0,0x8
   1aa66:	0542                	slli	a0,a0,0x10
   1aa68:	05e2                	slli	a1,a1,0x18
   1aa6a:	008f9613          	slli	a2,t6,0x8
   1aa6e:	0147ea33          	or	s4,a5,s4
   1aa72:	01546fb3          	or	t6,s0,s5
   1aa76:	00a5eab3          	or	s5,a1,a0
   1aa7a:	005662b3          	or	t0,a2,t0
   1aa7e:	3a49cd83          	lbu	s11,932(s3)
   1aa82:	3a59c403          	lbu	s0,933(s3)
   1aa86:	3a69c503          	lbu	a0,934(s3)
   1aa8a:	3a79c783          	lbu	a5,935(s3)
   1aa8e:	03a2                	slli	t2,t2,0x8
   1aa90:	0e42                	slli	t3,t3,0x10
   1aa92:	0ee2                	slli	t4,t4,0x18
   1aa94:	0d22                	slli	s10,s10,0x8
   1aa96:	06c2                	slli	a3,a3,0x10
   1aa98:	01849593          	slli	a1,s1,0x18
   1aa9c:	0063e333          	or	t1,t2,t1
   1aaa0:	01ceee33          	or	t3,t4,t3
   1aaa4:	01ed63b3          	or	t2,s10,t5
   1aaa8:	00d5eeb3          	or	t4,a1,a3
   1aaac:	3a89cd03          	lbu	s10,936(s3)
   1aab0:	3a99c483          	lbu	s1,937(s3)
   1aab4:	3aa9c583          	lbu	a1,938(s3)
   1aab8:	3ab9c603          	lbu	a2,939(s3)
   1aabc:	0ba2                	slli	s7,s7,0x8
   1aabe:	0c42                	slli	s8,s8,0x10
   1aac0:	0ce2                	slli	s9,s9,0x18
   1aac2:	0422                	slli	s0,s0,0x8
   1aac4:	0542                	slli	a0,a0,0x10
   1aac6:	07e2                	slli	a5,a5,0x18
   1aac8:	016bef33          	or	t5,s7,s6
   1aacc:	018ceb33          	or	s6,s9,s8
   1aad0:	01b46bb3          	or	s7,s0,s11
   1aad4:	00a7ec33          	or	s8,a5,a0
   1aad8:	3ac9c783          	lbu	a5,940(s3)
   1aadc:	3ad9c403          	lbu	s0,941(s3)
   1aae0:	3ae9c503          	lbu	a0,942(s3)
   1aae4:	3af9c683          	lbu	a3,943(s3)
   1aae8:	04a2                	slli	s1,s1,0x8
   1aaea:	05c2                	slli	a1,a1,0x10
   1aaec:	0662                	slli	a2,a2,0x18
   1aaee:	0422                	slli	s0,s0,0x8
   1aaf0:	0542                	slli	a0,a0,0x10
   1aaf2:	06e2                	slli	a3,a3,0x18
   1aaf4:	01a4ecb3          	or	s9,s1,s10
   1aaf8:	00b66d33          	or	s10,a2,a1
   1aafc:	00f46db3          	or	s11,s0,a5
   1ab00:	3b09c603          	lbu	a2,944(s3)
   1ab04:	3b19c403          	lbu	s0,945(s3)
   1ab08:	00a6e0b3          	or	ra,a3,a0
   1ab0c:	3b29c683          	lbu	a3,946(s3)
   1ab10:	3b39c483          	lbu	s1,947(s3)
   1ab14:	0422                	slli	s0,s0,0x8
   1ab16:	8e41                	or	a2,a2,s0
   1ab18:	06c2                	slli	a3,a3,0x10
   1ab1a:	04e2                	slli	s1,s1,0x18
   1ab1c:	8ec5                	or	a3,a3,s1
   1ab1e:	0b411023          	sh	s4,160(sp)
   1ab22:	0b110123          	sb	a7,162(sp)
   1ab26:	01faeab3          	or	s5,s5,t6
   1ab2a:	006e64b3          	or	s1,t3,t1
   1ab2e:	007ee5b3          	or	a1,t4,t2
   1ab32:	01eb67b3          	or	a5,s6,t5
   1ab36:	017c68b3          	or	a7,s8,s7
   1ab3a:	019d6433          	or	s0,s10,s9
   1ab3e:	01b0e533          	or	a0,ra,s11
   1ab42:	8e55                	or	a2,a2,a3
   1ab44:	d8a2                	sw	s0,112(sp)
   1ab46:	daaa                	sw	a0,116(sp)
   1ab48:	dcb2                	sw	a2,120(sp)
   1ab4a:	06511e23          	sh	t0,124(sp)
   1ab4e:	4509                	li	a0,2
   1ab50:	d0a6                	sw	s1,96(sp)
   1ab52:	d2ae                	sw	a1,100(sp)
   1ab54:	d4be                	sw	a5,104(sp)
   1ab56:	d6c6                	sw	a7,108(sp)
   1ab58:	00a70863          	beq	a4,a0,1ab68 <_start+0xd48>
   1ab5c:	459d                	li	a1,7
   1ab5e:	8542                	mv	a0,a6
   1ab60:	4601                	li	a2,0
   1ab62:	4681                	li	a3,0
   1ab64:	00000073          	ecall
   1ab68:	0a014503          	lbu	a0,160(sp)
   1ab6c:	0a114583          	lbu	a1,161(sp)
   1ab70:	0a214603          	lbu	a2,162(sp)
   1ab74:	6685                	lui	a3,0x1
   1ab76:	38d68693          	addi	a3,a3,909 # 138d <.Lline_table_start1+0x1162>
   1ab7a:	00d10a33          	add	s4,sp,a3
   1ab7e:	3ea986a3          	sb	a0,1005(s3)
   1ab82:	3eb98723          	sb	a1,1006(s3)
   1ab86:	3ec987a3          	sb	a2,1007(s3)
   1ab8a:	5506                	lw	a0,96(sp)
   1ab8c:	5596                	lw	a1,100(sp)
   1ab8e:	5626                	lw	a2,104(sp)
   1ab90:	56b6                	lw	a3,108(sp)
   1ab92:	ca2a                	sw	a0,20(sp)
   1ab94:	cc2e                	sw	a1,24(sp)
   1ab96:	ce32                	sw	a2,28(sp)
   1ab98:	d036                	sw	a3,32(sp)
   1ab9a:	5546                	lw	a0,112(sp)
   1ab9c:	55d6                	lw	a1,116(sp)
   1ab9e:	5666                	lw	a2,120(sp)
   1aba0:	07c11683          	lh	a3,124(sp)
   1aba4:	d22a                	sw	a0,36(sp)
   1aba6:	d42e                	sw	a1,40(sp)
   1aba8:	d632                	sw	a2,44(sp)
   1abaa:	02d11823          	sh	a3,48(sp)
   1abae:	6505                	lui	a0,0x1
   1abb0:	39450513          	addi	a0,a0,916 # 1394 <.Lline_table_start1+0x1169>
   1abb4:	950a                	add	a0,a0,sp
   1abb6:	084c                	addi	a1,sp,20
   1abb8:	4679                	li	a2,30
   1abba:	00004097          	auipc	ra,0x4
   1abbe:	95a080e7          	jalr	-1702(ra) # 1e514 <memcpy>
   1abc2:	4489                	li	s1,2
   1abc4:	018ad513          	srli	a0,s5,0x18
   1abc8:	010ad593          	srli	a1,s5,0x10
   1abcc:	3ea989a3          	sb	a0,1011(s3)
   1abd0:	008ad513          	srli	a0,s5,0x8
   1abd4:	3e998623          	sb	s1,1004(s3)
   1abd8:	3f598823          	sb	s5,1008(s3)
   1abdc:	3ea988a3          	sb	a0,1009(s3)
   1abe0:	3eb98923          	sb	a1,1010(s3)
   1abe4:	4639                	li	a2,14
   1abe6:	854a                	mv	a0,s2
   1abe8:	4581                	li	a1,0
   1abea:	00004097          	auipc	ra,0x4
   1abee:	8be080e7          	jalr	-1858(ra) # 1e4a8 <memset>
   1abf2:	8652                	mv	a2,s4
   1abf4:	38998823          	sb	s1,912(s3)
   1abf8:	4411                	li	s0,4
   1abfa:	66700513          	li	a0,1639
   1abfe:	4589                	li	a1,2
   1ac00:	02500693          	li	a3,37
   1ac04:	4711                	li	a4,4
   1ac06:	00000073          	ecall
   1ac0a:	00951463          	bne	a0,s1,1ac12 <_start+0xdf2>
   1ac0e:	87ae                	mv	a5,a1
   1ac10:	a8a9                	j	1ac6a <_start+0xe4a>
   1ac12:	864a                	mv	a2,s2
   1ac14:	3e898623          	sb	s0,1004(s3)
   1ac18:	440d                	li	s0,3
   1ac1a:	66700513          	li	a0,1639
   1ac1e:	45a1                	li	a1,8
   1ac20:	46b9                	li	a3,14
   1ac22:	470d                	li	a4,3
   1ac24:	00000073          	ecall
   1ac28:	00951963          	bne	a0,s1,1ac3a <_start+0xe1a>
   1ac2c:	87ae                	mv	a5,a1
   1ac2e:	3909c703          	lbu	a4,912(s3)
   1ac32:	4509                	li	a0,2
   1ac34:	02a71463          	bne	a4,a0,1ac5c <_start+0xe3c>
   1ac38:	a80d                	j	1ac6a <_start+0xe4a>
   1ac3a:	4681                	li	a3,0
   1ac3c:	38898823          	sb	s0,912(s3)
   1ac40:	66700513          	li	a0,1639
   1ac44:	4589                	li	a1,2
   1ac46:	4621                	li	a2,8
   1ac48:	4709                	li	a4,2
   1ac4a:	08000493          	li	s1,128
   1ac4e:	00000073          	ecall
   1ac52:	87ae                	mv	a5,a1
   1ac54:	4589                	li	a1,2
   1ac56:	02957a63          	bgeu	a0,s1,1ac8a <_start+0xe6a>
   1ac5a:	470d                	li	a4,3
   1ac5c:	66700513          	li	a0,1639
   1ac60:	45a1                	li	a1,8
   1ac62:	4601                	li	a2,0
   1ac64:	4681                	li	a3,0
   1ac66:	00000073          	ecall
   1ac6a:	3ec9c703          	lbu	a4,1004(s3)
   1ac6e:	4509                	li	a0,2
   1ac70:	00a70963          	beq	a4,a0,1ac82 <_start+0xe62>
   1ac74:	66700513          	li	a0,1639
   1ac78:	4589                	li	a1,2
   1ac7a:	4601                	li	a2,0
   1ac7c:	4681                	li	a3,0
   1ac7e:	00000073          	ecall
   1ac82:	4505                	li	a0,1
   1ac84:	85be                	mv	a1,a5
   1ac86:	aaaff06f          	j	19f30 <_start+0x110>
   1ac8a:	3ec9c703          	lbu	a4,1004(s3)
   1ac8e:	00b71463          	bne	a4,a1,1ac96 <_start+0xe76>
   1ac92:	470d                	li	a4,3
   1ac94:	a069                	j	1ad1e <_start+0xefe>
   1ac96:	66700513          	li	a0,1639
   1ac9a:	4589                	li	a1,2
   1ac9c:	4601                	li	a2,0
   1ac9e:	4681                	li	a3,0
   1aca0:	00000073          	ecall
   1aca4:	3909c703          	lbu	a4,912(s3)
   1aca8:	4509                	li	a0,2
   1acaa:	3ea98623          	sb	a0,1004(s3)
   1acae:	06a71863          	bne	a4,a0,1ad1e <_start+0xefe>
   1acb2:	00094503          	lbu	a0,0(s2)
   1acb6:	00194583          	lbu	a1,1(s2)
   1acba:	00294803          	lbu	a6,2(s2)
   1acbe:	3949c683          	lbu	a3,916(s3)
   1acc2:	3959c703          	lbu	a4,917(s3)
   1acc6:	3969c783          	lbu	a5,918(s3)
   1acca:	3979c483          	lbu	s1,919(s3)
   1acce:	39c9c403          	lbu	s0,924(s3)
   1acd2:	39d9c603          	lbu	a2,925(s3)
   1acd6:	39e9c883          	lbu	a7,926(s3)
   1acda:	05a2                	slli	a1,a1,0x8
   1acdc:	0722                	slli	a4,a4,0x8
   1acde:	07c2                	slli	a5,a5,0x10
   1ace0:	04e2                	slli	s1,s1,0x18
   1ace2:	0622                	slli	a2,a2,0x8
   1ace4:	8d4d                	or	a0,a0,a1
   1ace6:	8ed9                	or	a3,a3,a4
   1ace8:	8fc5                	or	a5,a5,s1
   1acea:	3989c583          	lbu	a1,920(s3)
   1acee:	3999c703          	lbu	a4,921(s3)
   1acf2:	8e41                	or	a2,a2,s0
   1acf4:	39a9c483          	lbu	s1,922(s3)
   1acf8:	39b9c403          	lbu	s0,923(s3)
   1acfc:	0722                	slli	a4,a4,0x8
   1acfe:	8dd9                	or	a1,a1,a4
   1ad00:	04c2                	slli	s1,s1,0x10
   1ad02:	0462                	slli	s0,s0,0x18
   1ad04:	8c45                	or	s0,s0,s1
   1ad06:	0aa11023          	sh	a0,160(sp)
   1ad0a:	0b010123          	sb	a6,162(sp)
   1ad0e:	8fd5                	or	a5,a5,a3
   1ad10:	8dc1                	or	a1,a1,s0
   1ad12:	d0ae                	sw	a1,96(sp)
   1ad14:	06c11223          	sh	a2,100(sp)
   1ad18:	07110323          	sb	a7,102(sp)
   1ad1c:	a849                	j	1adae <_start+0xf8e>
   1ad1e:	4601                	li	a2,0
   1ad20:	4681                	li	a3,0
   1ad22:	66700513          	li	a0,1639
   1ad26:	45a1                	li	a1,8
   1ad28:	00000073          	ecall
   1ad2c:	00094503          	lbu	a0,0(s2)
   1ad30:	00194583          	lbu	a1,1(s2)
   1ad34:	00294803          	lbu	a6,2(s2)
   1ad38:	3949c683          	lbu	a3,916(s3)
   1ad3c:	3959c703          	lbu	a4,917(s3)
   1ad40:	3969c783          	lbu	a5,918(s3)
   1ad44:	3979c483          	lbu	s1,919(s3)
   1ad48:	39c9c403          	lbu	s0,924(s3)
   1ad4c:	39d9c603          	lbu	a2,925(s3)
   1ad50:	39e9c883          	lbu	a7,926(s3)
   1ad54:	05a2                	slli	a1,a1,0x8
   1ad56:	0722                	slli	a4,a4,0x8
   1ad58:	07c2                	slli	a5,a5,0x10
   1ad5a:	04e2                	slli	s1,s1,0x18
   1ad5c:	0622                	slli	a2,a2,0x8
   1ad5e:	8d4d                	or	a0,a0,a1
   1ad60:	8ed9                	or	a3,a3,a4
   1ad62:	8fc5                	or	a5,a5,s1
   1ad64:	3989c583          	lbu	a1,920(s3)
   1ad68:	3999c703          	lbu	a4,921(s3)
   1ad6c:	8e41                	or	a2,a2,s0
   1ad6e:	39a9c483          	lbu	s1,922(s3)
   1ad72:	39b9c403          	lbu	s0,923(s3)
   1ad76:	0722                	slli	a4,a4,0x8
   1ad78:	8dd9                	or	a1,a1,a4
   1ad7a:	04c2                	slli	s1,s1,0x10
   1ad7c:	0462                	slli	s0,s0,0x18
   1ad7e:	8c45                	or	s0,s0,s1
   1ad80:	0aa11023          	sh	a0,160(sp)
   1ad84:	0b010123          	sb	a6,162(sp)
   1ad88:	8fd5                	or	a5,a5,a3
   1ad8a:	3ec9c703          	lbu	a4,1004(s3)
   1ad8e:	8dc1                	or	a1,a1,s0
   1ad90:	4509                	li	a0,2
   1ad92:	d0ae                	sw	a1,96(sp)
   1ad94:	06c11223          	sh	a2,100(sp)
   1ad98:	07110323          	sb	a7,102(sp)
   1ad9c:	00a70963          	beq	a4,a0,1adae <_start+0xf8e>
   1ada0:	66700513          	li	a0,1639
   1ada4:	4589                	li	a1,2
   1ada6:	4601                	li	a2,0
   1ada8:	4681                	li	a3,0
   1adaa:	00000073          	ecall
   1adae:	0a011503          	lh	a0,160(sp)
   1adb2:	0a214583          	lbu	a1,162(sp)
   1adb6:	5606                	lw	a2,96(sp)
   1adb8:	06411683          	lh	a3,100(sp)
   1adbc:	06614703          	lbu	a4,102(sp)
   1adc0:	0187d493          	srli	s1,a5,0x18
   1adc4:	0107d413          	srli	s0,a5,0x10
   1adc8:	ca32                	sw	a2,20(sp)
   1adca:	00d11c23          	sh	a3,24(sp)
   1adce:	0087d693          	srli	a3,a5,0x8
   1add2:	0aa11c23          	sh	a0,184(sp)
   1add6:	0ab10d23          	sb	a1,186(sp)
   1adda:	0af10da3          	sb	a5,187(sp)
   1adde:	0ad10e23          	sb	a3,188(sp)
   1ade2:	0ce102a3          	sb	a4,197(sp)
   1ade6:	01514503          	lbu	a0,21(sp)
   1adea:	01614583          	lbu	a1,22(sp)
   1adee:	01714683          	lbu	a3,23(sp)
   1adf2:	01814703          	lbu	a4,24(sp)
   1adf6:	0a810ea3          	sb	s0,189(sp)
   1adfa:	0a910f23          	sb	s1,190(sp)
   1adfe:	0ac10fa3          	sb	a2,191(sp)
   1ae02:	0ca10023          	sb	a0,192(sp)
   1ae06:	01914503          	lbu	a0,25(sp)
   1ae0a:	0cb100a3          	sb	a1,193(sp)
   1ae0e:	0cd10123          	sb	a3,194(sp)
   1ae12:	0ce101a3          	sb	a4,195(sp)
   1ae16:	0ca10223          	sb	a0,196(sp)
   1ae1a:	6505                	lui	a0,0x1
   1ae1c:	38c50513          	addi	a0,a0,908 # 138c <.Lline_table_start1+0x1161>
   1ae20:	950a                	add	a0,a0,sp
   1ae22:	192c                	addi	a1,sp,184
   1ae24:	ffff7097          	auipc	ra,0xffff7
   1ae28:	d88080e7          	jalr	-632(ra) # 11bac <_ZN20complex_dynamic_type3app17h15311da362d0d59aE>
   1ae2c:	3ec9c503          	lbu	a0,1004(s3)
   1ae30:	c119                	beqz	a0,1ae36 <_start+0x1016>
   1ae32:	5d80306f          	j	1e40a <_start+0x45ea>
   1ae36:	3ee9c503          	lbu	a0,1006(s3)
   1ae3a:	3ed9c583          	lbu	a1,1005(s3)
   1ae3e:	3ef9c603          	lbu	a2,1007(s3)
   1ae42:	3f09a403          	lw	s0,1008(s3)
   1ae46:	0522                	slli	a0,a0,0x8
   1ae48:	8d4d                	or	a0,a0,a1
   1ae4a:	0ca11323          	sh	a0,198(sp)
   1ae4e:	0cc10423          	sb	a2,200(sp)
   1ae52:	6505                	lui	a0,0x1
   1ae54:	39450513          	addi	a0,a0,916 # 1394 <.Lline_table_start1+0x1169>
   1ae58:	00a105b3          	add	a1,sp,a0
   1ae5c:	6505                	lui	a0,0x1
   1ae5e:	33050513          	addi	a0,a0,816 # 1330 <.Lline_table_start1+0x1105>
   1ae62:	950a                	add	a0,a0,sp
   1ae64:	04100613          	li	a2,65
   1ae68:	00003097          	auipc	ra,0x3
   1ae6c:	6ac080e7          	jalr	1708(ra) # 1e514 <memcpy>
   1ae70:	01845513          	srli	a0,s0,0x18
   1ae74:	01045593          	srli	a1,s0,0x10
   1ae78:	00845613          	srli	a2,s0,0x8
   1ae7c:	0c8104a3          	sb	s0,201(sp)
   1ae80:	0cc10523          	sb	a2,202(sp)
   1ae84:	0cb105a3          	sb	a1,203(sp)
   1ae88:	0ca10623          	sb	a0,204(sp)
   1ae8c:	0cd10513          	addi	a0,sp,205
   1ae90:	6585                	lui	a1,0x1
   1ae92:	33058593          	addi	a1,a1,816 # 1330 <.Lline_table_start1+0x1105>
   1ae96:	958a                	add	a1,a1,sp
   1ae98:	04100613          	li	a2,65
   1ae9c:	00003097          	auipc	ra,0x3
   1aea0:	678080e7          	jalr	1656(ra) # 1e514 <memcpy>
   1aea4:	6505                	lui	a0,0x1
   1aea6:	38c50513          	addi	a0,a0,908 # 138c <.Lline_table_start1+0x1161>
   1aeaa:	950a                	add	a0,a0,sp
   1aeac:	0c610593          	addi	a1,sp,198
   1aeb0:	ffff7097          	auipc	ra,0xffff7
   1aeb4:	77a080e7          	jalr	1914(ra) # 1262a <_ZN20complex_dynamic_type3app17h28f7c16d8b7ea423E>
   1aeb8:	3ec9c503          	lbu	a0,1004(s3)
   1aebc:	c119                	beqz	a0,1aec2 <_start+0x10a2>
   1aebe:	54c0306f          	j	1e40a <_start+0x45ea>
   1aec2:	3ed9c503          	lbu	a0,1005(s3)
   1aec6:	3ee9c583          	lbu	a1,1006(s3)
   1aeca:	3ef9c803          	lbu	a6,1007(s3)
   1aece:	3f09a683          	lw	a3,1008(s3)
   1aed2:	3f49a703          	lw	a4,1012(s3)
   1aed6:	3f89a783          	lw	a5,1016(s3)
   1aeda:	05a2                	slli	a1,a1,0x8
   1aedc:	0186d893          	srli	a7,a3,0x18
   1aee0:	0106d293          	srli	t0,a3,0x10
   1aee4:	0187d613          	srli	a2,a5,0x18
   1aee8:	0107d493          	srli	s1,a5,0x10
   1aeec:	0087d413          	srli	s0,a5,0x8
   1aef0:	8d4d                	or	a0,a0,a1
   1aef2:	01875593          	srli	a1,a4,0x18
   1aef6:	10910da3          	sb	s1,283(sp)
   1aefa:	10c10e23          	sb	a2,284(sp)
   1aefe:	01075613          	srli	a2,a4,0x10
   1af02:	10c10ba3          	sb	a2,279(sp)
   1af06:	10b10c23          	sb	a1,280(sp)
   1af0a:	10f10ca3          	sb	a5,281(sp)
   1af0e:	10810d23          	sb	s0,282(sp)
   1af12:	0086d593          	srli	a1,a3,0x8
   1af16:	10a11723          	sh	a0,270(sp)
   1af1a:	11010823          	sb	a6,272(sp)
   1af1e:	10d108a3          	sb	a3,273(sp)
   1af22:	10b10923          	sb	a1,274(sp)
   1af26:	00875513          	srli	a0,a4,0x8
   1af2a:	105109a3          	sb	t0,275(sp)
   1af2e:	11110a23          	sb	a7,276(sp)
   1af32:	10e10aa3          	sb	a4,277(sp)
   1af36:	10a10b23          	sb	a0,278(sp)
   1af3a:	6505                	lui	a0,0x1
   1af3c:	38c50513          	addi	a0,a0,908 # 138c <.Lline_table_start1+0x1161>
   1af40:	950a                	add	a0,a0,sp
   1af42:	10e10593          	addi	a1,sp,270
   1af46:	ffff6097          	auipc	ra,0xffff6
   1af4a:	7fa080e7          	jalr	2042(ra) # 11740 <_ZN20complex_dynamic_type3app17h0b8862d57272ce7eE>
   1af4e:	3ec9c503          	lbu	a0,1004(s3)
   1af52:	c119                	beqz	a0,1af58 <_start+0x1138>
   1af54:	4b60306f          	j	1e40a <_start+0x45ea>
   1af58:	3ed9c503          	lbu	a0,1005(s3)
   1af5c:	3ee9c583          	lbu	a1,1006(s3)
   1af60:	3ef9c603          	lbu	a2,1007(s3)
   1af64:	3f09a683          	lw	a3,1008(s3)
   1af68:	3f49a703          	lw	a4,1012(s3)
   1af6c:	3f89a783          	lw	a5,1016(s3)
   1af70:	3fc9a483          	lw	s1,1020(s3)
   1af74:	4009a403          	lw	s0,1024(s3)
   1af78:	38e9a823          	sw	a4,912(s3)
   1af7c:	38f9aa23          	sw	a5,916(s3)
   1af80:	3899ac23          	sw	s1,920(s3)
   1af84:	3889ae23          	sw	s0,924(s3)
   1af88:	4049a703          	lw	a4,1028(s3)
   1af8c:	4089a783          	lw	a5,1032(s3)
   1af90:	40c9a483          	lw	s1,1036(s3)
   1af94:	41099403          	lh	s0,1040(s3)
   1af98:	05a2                	slli	a1,a1,0x8
   1af9a:	3ae9a023          	sw	a4,928(s3)
   1af9e:	3af9a223          	sw	a5,932(s3)
   1afa2:	3a99a423          	sw	s1,936(s3)
   1afa6:	3a899623          	sh	s0,940(s3)
   1afaa:	0186d713          	srli	a4,a3,0x18
   1afae:	8d4d                	or	a0,a0,a1
   1afb0:	0106d593          	srli	a1,a3,0x10
   1afb4:	12b101a3          	sb	a1,291(sp)
   1afb8:	12e10223          	sb	a4,292(sp)
   1afbc:	0086d593          	srli	a1,a3,0x8
   1afc0:	10a11f23          	sh	a0,286(sp)
   1afc4:	12c10023          	sb	a2,288(sp)
   1afc8:	12d100a3          	sb	a3,289(sp)
   1afcc:	12b10123          	sb	a1,290(sp)
   1afd0:	12510513          	addi	a0,sp,293
   1afd4:	6585                	lui	a1,0x1
   1afd6:	33058593          	addi	a1,a1,816 # 1330 <.Lline_table_start1+0x1105>
   1afda:	958a                	add	a1,a1,sp
   1afdc:	4679                	li	a2,30
   1afde:	00003097          	auipc	ra,0x3
   1afe2:	536080e7          	jalr	1334(ra) # 1e514 <memcpy>
   1afe6:	6505                	lui	a0,0x1
   1afe8:	38c50513          	addi	a0,a0,908 # 138c <.Lline_table_start1+0x1161>
   1afec:	950a                	add	a0,a0,sp
   1afee:	11e10593          	addi	a1,sp,286
   1aff2:	ffffe097          	auipc	ra,0xffffe
   1aff6:	aa0080e7          	jalr	-1376(ra) # 18a92 <_ZN20complex_dynamic_type3app17hdccb1afaccbf8db5E>
   1affa:	3ec9c503          	lbu	a0,1004(s3)
   1affe:	c119                	beqz	a0,1b004 <_start+0x11e4>
   1b000:	40a0306f          	j	1e40a <_start+0x45ea>
   1b004:	3ee9c503          	lbu	a0,1006(s3)
   1b008:	3ed9c583          	lbu	a1,1005(s3)
   1b00c:	3ef9c603          	lbu	a2,1007(s3)
   1b010:	3f09a403          	lw	s0,1008(s3)
   1b014:	0522                	slli	a0,a0,0x8
   1b016:	8d4d                	or	a0,a0,a1
   1b018:	14a11223          	sh	a0,324(sp)
   1b01c:	14c10323          	sb	a2,326(sp)
   1b020:	6505                	lui	a0,0x1
   1b022:	39450513          	addi	a0,a0,916 # 1394 <.Lline_table_start1+0x1169>
   1b026:	00a105b3          	add	a1,sp,a0
   1b02a:	6505                	lui	a0,0x1
   1b02c:	33050513          	addi	a0,a0,816 # 1330 <.Lline_table_start1+0x1105>
   1b030:	950a                	add	a0,a0,sp
   1b032:	02300613          	li	a2,35
   1b036:	00003097          	auipc	ra,0x3
   1b03a:	4de080e7          	jalr	1246(ra) # 1e514 <memcpy>
   1b03e:	01845513          	srli	a0,s0,0x18
   1b042:	01045593          	srli	a1,s0,0x10
   1b046:	00845613          	srli	a2,s0,0x8
   1b04a:	148103a3          	sb	s0,327(sp)
   1b04e:	14c10423          	sb	a2,328(sp)
   1b052:	14b104a3          	sb	a1,329(sp)
   1b056:	14a10523          	sb	a0,330(sp)
   1b05a:	14b10513          	addi	a0,sp,331
   1b05e:	6585                	lui	a1,0x1
   1b060:	33058593          	addi	a1,a1,816 # 1330 <.Lline_table_start1+0x1105>
   1b064:	958a                	add	a1,a1,sp
   1b066:	02300613          	li	a2,35
   1b06a:	00003097          	auipc	ra,0x3
   1b06e:	4aa080e7          	jalr	1194(ra) # 1e514 <memcpy>
   1b072:	6505                	lui	a0,0x1
   1b074:	38c50513          	addi	a0,a0,908 # 138c <.Lline_table_start1+0x1161>
   1b078:	950a                	add	a0,a0,sp
   1b07a:	02cc                	addi	a1,sp,324
   1b07c:	ffffd097          	auipc	ra,0xffffd
   1b080:	c68080e7          	jalr	-920(ra) # 17ce4 <_ZN20complex_dynamic_type3app17hb90e5e8a3405f570E>
   1b084:	3ec9c503          	lbu	a0,1004(s3)
   1b088:	c119                	beqz	a0,1b08e <_start+0x126e>
   1b08a:	3800306f          	j	1e40a <_start+0x45ea>
   1b08e:	3ee9c503          	lbu	a0,1006(s3)
   1b092:	3ed9c583          	lbu	a1,1005(s3)
   1b096:	3ef9c603          	lbu	a2,1007(s3)
   1b09a:	3f09a403          	lw	s0,1008(s3)
   1b09e:	0522                	slli	a0,a0,0x8
   1b0a0:	8d4d                	or	a0,a0,a1
   1b0a2:	16a11723          	sh	a0,366(sp)
   1b0a6:	16c10823          	sb	a2,368(sp)
   1b0aa:	6505                	lui	a0,0x1
   1b0ac:	39450513          	addi	a0,a0,916 # 1394 <.Lline_table_start1+0x1169>
   1b0b0:	00a105b3          	add	a1,sp,a0
   1b0b4:	6505                	lui	a0,0x1
   1b0b6:	33050513          	addi	a0,a0,816 # 1330 <.Lline_table_start1+0x1105>
   1b0ba:	950a                	add	a0,a0,sp
   1b0bc:	05c00613          	li	a2,92
   1b0c0:	00003097          	auipc	ra,0x3
   1b0c4:	454080e7          	jalr	1108(ra) # 1e514 <memcpy>
   1b0c8:	01845513          	srli	a0,s0,0x18
   1b0cc:	01045593          	srli	a1,s0,0x10
   1b0d0:	00845613          	srli	a2,s0,0x8
   1b0d4:	168108a3          	sb	s0,369(sp)
   1b0d8:	16c10923          	sb	a2,370(sp)
   1b0dc:	16b109a3          	sb	a1,371(sp)
   1b0e0:	16a10a23          	sb	a0,372(sp)
   1b0e4:	17510513          	addi	a0,sp,373
   1b0e8:	6585                	lui	a1,0x1
   1b0ea:	33058593          	addi	a1,a1,816 # 1330 <.Lline_table_start1+0x1105>
   1b0ee:	958a                	add	a1,a1,sp
   1b0f0:	05c00613          	li	a2,92
   1b0f4:	00003097          	auipc	ra,0x3
   1b0f8:	420080e7          	jalr	1056(ra) # 1e514 <memcpy>
   1b0fc:	6505                	lui	a0,0x1
   1b0fe:	38c50513          	addi	a0,a0,908 # 138c <.Lline_table_start1+0x1161>
   1b102:	950a                	add	a0,a0,sp
   1b104:	16e10593          	addi	a1,sp,366
   1b108:	ffffd097          	auipc	ra,0xffffd
   1b10c:	374080e7          	jalr	884(ra) # 1847c <_ZN20complex_dynamic_type3app17hc96fa1dccfda6259E>
   1b110:	3ec9c503          	lbu	a0,1004(s3)
   1b114:	c119                	beqz	a0,1b11a <_start+0x12fa>
   1b116:	2f40306f          	j	1e40a <_start+0x45ea>
   1b11a:	3ed9c503          	lbu	a0,1005(s3)
   1b11e:	3ee9c583          	lbu	a1,1006(s3)
   1b122:	3ef9c603          	lbu	a2,1007(s3)
   1b126:	3f09a683          	lw	a3,1008(s3)
   1b12a:	3f49a703          	lw	a4,1012(s3)
   1b12e:	3f89a783          	lw	a5,1016(s3)
   1b132:	3fc9a483          	lw	s1,1020(s3)
   1b136:	4009a403          	lw	s0,1024(s3)
   1b13a:	38e9a823          	sw	a4,912(s3)
   1b13e:	38f9aa23          	sw	a5,916(s3)
   1b142:	3899ac23          	sw	s1,920(s3)
   1b146:	3889ae23          	sw	s0,924(s3)
   1b14a:	4049a703          	lw	a4,1028(s3)
   1b14e:	4089a783          	lw	a5,1032(s3)
   1b152:	40c9a483          	lw	s1,1036(s3)
   1b156:	4109a403          	lw	s0,1040(s3)
   1b15a:	05a2                	slli	a1,a1,0x8
   1b15c:	3ae9a023          	sw	a4,928(s3)
   1b160:	3af9a223          	sw	a5,932(s3)
   1b164:	3a99a423          	sw	s1,936(s3)
   1b168:	3a89a623          	sw	s0,940(s3)
   1b16c:	0186d713          	srli	a4,a3,0x18
   1b170:	8d4d                	or	a0,a0,a1
   1b172:	0106d593          	srli	a1,a3,0x10
   1b176:	1cb10ba3          	sb	a1,471(sp)
   1b17a:	1ce10c23          	sb	a4,472(sp)
   1b17e:	0086d593          	srli	a1,a3,0x8
   1b182:	1ca11923          	sh	a0,466(sp)
   1b186:	1cc10a23          	sb	a2,468(sp)
   1b18a:	1cd10aa3          	sb	a3,469(sp)
   1b18e:	1cb10b23          	sb	a1,470(sp)
   1b192:	1d910513          	addi	a0,sp,473
   1b196:	6585                	lui	a1,0x1
   1b198:	33058593          	addi	a1,a1,816 # 1330 <.Lline_table_start1+0x1105>
   1b19c:	958a                	add	a1,a1,sp
   1b19e:	02000613          	li	a2,32
   1b1a2:	00003097          	auipc	ra,0x3
   1b1a6:	372080e7          	jalr	882(ra) # 1e514 <memcpy>
   1b1aa:	6505                	lui	a0,0x1
   1b1ac:	38c50513          	addi	a0,a0,908 # 138c <.Lline_table_start1+0x1161>
   1b1b0:	950a                	add	a0,a0,sp
   1b1b2:	1d210593          	addi	a1,sp,466
   1b1b6:	ffff8097          	auipc	ra,0xffff8
   1b1ba:	8ee080e7          	jalr	-1810(ra) # 12aa4 <_ZN20complex_dynamic_type3app17h343321349fb146f4E>
   1b1be:	3ec9c503          	lbu	a0,1004(s3)
   1b1c2:	c119                	beqz	a0,1b1c8 <_start+0x13a8>
   1b1c4:	2460306f          	j	1e40a <_start+0x45ea>
   1b1c8:	3ed9c503          	lbu	a0,1005(s3)
   1b1cc:	3ee9c583          	lbu	a1,1006(s3)
   1b1d0:	3ef9c603          	lbu	a2,1007(s3)
   1b1d4:	3f09a683          	lw	a3,1008(s3)
   1b1d8:	3f49a703          	lw	a4,1012(s3)
   1b1dc:	3f89a783          	lw	a5,1016(s3)
   1b1e0:	3fc9a483          	lw	s1,1020(s3)
   1b1e4:	4009a403          	lw	s0,1024(s3)
   1b1e8:	38e9a823          	sw	a4,912(s3)
   1b1ec:	38f9aa23          	sw	a5,916(s3)
   1b1f0:	3899ac23          	sw	s1,920(s3)
   1b1f4:	3889ae23          	sw	s0,924(s3)
   1b1f8:	4049a703          	lw	a4,1028(s3)
   1b1fc:	40899783          	lh	a5,1032(s3)
   1b200:	40a9c483          	lbu	s1,1034(s3)
   1b204:	05a2                	slli	a1,a1,0x8
   1b206:	3ae9a023          	sw	a4,928(s3)
   1b20a:	3af99223          	sh	a5,932(s3)
   1b20e:	3a998323          	sb	s1,934(s3)
   1b212:	0186d713          	srli	a4,a3,0x18
   1b216:	8d4d                	or	a0,a0,a1
   1b218:	0106d593          	srli	a1,a3,0x10
   1b21c:	1eb10fa3          	sb	a1,511(sp)
   1b220:	20e10023          	sb	a4,512(sp)
   1b224:	0086d593          	srli	a1,a3,0x8
   1b228:	1ea11d23          	sh	a0,506(sp)
   1b22c:	1ec10e23          	sb	a2,508(sp)
   1b230:	1ed10ea3          	sb	a3,509(sp)
   1b234:	1eb10f23          	sb	a1,510(sp)
   1b238:	20110513          	addi	a0,sp,513
   1b23c:	6585                	lui	a1,0x1
   1b23e:	33058593          	addi	a1,a1,816 # 1330 <.Lline_table_start1+0x1105>
   1b242:	958a                	add	a1,a1,sp
   1b244:	465d                	li	a2,23
   1b246:	00003097          	auipc	ra,0x3
   1b24a:	2ce080e7          	jalr	718(ra) # 1e514 <memcpy>
   1b24e:	6505                	lui	a0,0x1
   1b250:	38c50513          	addi	a0,a0,908 # 138c <.Lline_table_start1+0x1161>
   1b254:	950a                	add	a0,a0,sp
   1b256:	1fa10593          	addi	a1,sp,506
   1b25a:	ffffc097          	auipc	ra,0xffffc
   1b25e:	b96080e7          	jalr	-1130(ra) # 16df0 <_ZN20complex_dynamic_type3app17haaa68c0d5e280327E>
   1b262:	3ec9c503          	lbu	a0,1004(s3)
   1b266:	c119                	beqz	a0,1b26c <_start+0x144c>
   1b268:	1a20306f          	j	1e40a <_start+0x45ea>
   1b26c:	3ee9c503          	lbu	a0,1006(s3)
   1b270:	3ed9c583          	lbu	a1,1005(s3)
   1b274:	3ef9c603          	lbu	a2,1007(s3)
   1b278:	3f09a403          	lw	s0,1008(s3)
   1b27c:	0522                	slli	a0,a0,0x8
   1b27e:	8d4d                	or	a0,a0,a1
   1b280:	20a11c23          	sh	a0,536(sp)
   1b284:	20c10d23          	sb	a2,538(sp)
   1b288:	6505                	lui	a0,0x1
   1b28a:	39450513          	addi	a0,a0,916 # 1394 <.Lline_table_start1+0x1169>
   1b28e:	00a105b3          	add	a1,sp,a0
   1b292:	6505                	lui	a0,0x1
   1b294:	33050513          	addi	a0,a0,816 # 1330 <.Lline_table_start1+0x1105>
   1b298:	950a                	add	a0,a0,sp
   1b29a:	02500613          	li	a2,37
   1b29e:	00003097          	auipc	ra,0x3
   1b2a2:	276080e7          	jalr	630(ra) # 1e514 <memcpy>
   1b2a6:	01845513          	srli	a0,s0,0x18
   1b2aa:	01045593          	srli	a1,s0,0x10
   1b2ae:	00845613          	srli	a2,s0,0x8
   1b2b2:	20810da3          	sb	s0,539(sp)
   1b2b6:	20c10e23          	sb	a2,540(sp)
   1b2ba:	20b10ea3          	sb	a1,541(sp)
   1b2be:	20a10f23          	sb	a0,542(sp)
   1b2c2:	21f10513          	addi	a0,sp,543
   1b2c6:	6585                	lui	a1,0x1
   1b2c8:	33058593          	addi	a1,a1,816 # 1330 <.Lline_table_start1+0x1105>
   1b2cc:	958a                	add	a1,a1,sp
   1b2ce:	02500613          	li	a2,37
   1b2d2:	00003097          	auipc	ra,0x3
   1b2d6:	242080e7          	jalr	578(ra) # 1e514 <memcpy>
   1b2da:	6505                	lui	a0,0x1
   1b2dc:	38c50513          	addi	a0,a0,908 # 138c <.Lline_table_start1+0x1161>
   1b2e0:	950a                	add	a0,a0,sp
   1b2e2:	0c2c                	addi	a1,sp,536
   1b2e4:	ffff9097          	auipc	ra,0xffff9
   1b2e8:	134080e7          	jalr	308(ra) # 14418 <_ZN20complex_dynamic_type3app17h6a05aec672b5e5a1E>
   1b2ec:	3ec9c503          	lbu	a0,1004(s3)
   1b2f0:	c119                	beqz	a0,1b2f6 <_start+0x14d6>
   1b2f2:	1180306f          	j	1e40a <_start+0x45ea>
   1b2f6:	3ed9c503          	lbu	a0,1005(s3)
   1b2fa:	3ee9c583          	lbu	a1,1006(s3)
   1b2fe:	3ef9c603          	lbu	a2,1007(s3)
   1b302:	3f09a683          	lw	a3,1008(s3)
   1b306:	3f49a703          	lw	a4,1012(s3)
   1b30a:	3f89a783          	lw	a5,1016(s3)
   1b30e:	3fc9a483          	lw	s1,1020(s3)
   1b312:	4009a403          	lw	s0,1024(s3)
   1b316:	38e9a823          	sw	a4,912(s3)
   1b31a:	38f9aa23          	sw	a5,916(s3)
   1b31e:	3899ac23          	sw	s1,920(s3)
   1b322:	3889ae23          	sw	s0,924(s3)
   1b326:	4049a703          	lw	a4,1028(s3)
   1b32a:	4089a783          	lw	a5,1032(s3)
   1b32e:	40c9a483          	lw	s1,1036(s3)
   1b332:	41099403          	lh	s0,1040(s3)
   1b336:	05a2                	slli	a1,a1,0x8
   1b338:	3ae9a023          	sw	a4,928(s3)
   1b33c:	3af9a223          	sw	a5,932(s3)
   1b340:	3a99a423          	sw	s1,936(s3)
   1b344:	3a899623          	sh	s0,940(s3)
   1b348:	0186d713          	srli	a4,a3,0x18
   1b34c:	8d4d                	or	a0,a0,a1
   1b34e:	0106d593          	srli	a1,a3,0x10
   1b352:	24b104a3          	sb	a1,585(sp)
   1b356:	24e10523          	sb	a4,586(sp)
   1b35a:	0086d593          	srli	a1,a3,0x8
   1b35e:	24a11223          	sh	a0,580(sp)
   1b362:	24c10323          	sb	a2,582(sp)
   1b366:	24d103a3          	sb	a3,583(sp)
   1b36a:	24b10423          	sb	a1,584(sp)
   1b36e:	24b10513          	addi	a0,sp,587
   1b372:	6585                	lui	a1,0x1
   1b374:	33058593          	addi	a1,a1,816 # 1330 <.Lline_table_start1+0x1105>
   1b378:	958a                	add	a1,a1,sp
   1b37a:	4679                	li	a2,30
   1b37c:	00003097          	auipc	ra,0x3
   1b380:	198080e7          	jalr	408(ra) # 1e514 <memcpy>
   1b384:	6505                	lui	a0,0x1
   1b386:	38c50513          	addi	a0,a0,908 # 138c <.Lline_table_start1+0x1161>
   1b38a:	950a                	add	a0,a0,sp
   1b38c:	04cc                	addi	a1,sp,580
   1b38e:	ffff6097          	auipc	ra,0xffff6
   1b392:	f28080e7          	jalr	-216(ra) # 112b6 <_ZN20complex_dynamic_type3app17h0630b7b40d1b4902E>
   1b396:	3ec9c503          	lbu	a0,1004(s3)
   1b39a:	c119                	beqz	a0,1b3a0 <_start+0x1580>
   1b39c:	06e0306f          	j	1e40a <_start+0x45ea>
   1b3a0:	3ed9c503          	lbu	a0,1005(s3)
   1b3a4:	3ee9c583          	lbu	a1,1006(s3)
   1b3a8:	3ef9c803          	lbu	a6,1007(s3)
   1b3ac:	3f09a683          	lw	a3,1008(s3)
   1b3b0:	3f49a703          	lw	a4,1012(s3)
   1b3b4:	3f89a783          	lw	a5,1016(s3)
   1b3b8:	3fc9a483          	lw	s1,1020(s3)
   1b3bc:	4009a403          	lw	s0,1024(s3)
   1b3c0:	4049c603          	lbu	a2,1028(s3)
   1b3c4:	38e9a823          	sw	a4,912(s3)
   1b3c8:	38f9aa23          	sw	a5,916(s3)
   1b3cc:	3899ac23          	sw	s1,920(s3)
   1b3d0:	3889ae23          	sw	s0,924(s3)
   1b3d4:	05a2                	slli	a1,a1,0x8
   1b3d6:	3ac98023          	sb	a2,928(s3)
   1b3da:	0186d613          	srli	a2,a3,0x18
   1b3de:	8d4d                	or	a0,a0,a1
   1b3e0:	0106d593          	srli	a1,a3,0x10
   1b3e4:	26b107a3          	sb	a1,623(sp)
   1b3e8:	26c10823          	sb	a2,624(sp)
   1b3ec:	0086d593          	srli	a1,a3,0x8
   1b3f0:	26a11523          	sh	a0,618(sp)
   1b3f4:	27010623          	sb	a6,620(sp)
   1b3f8:	26d106a3          	sb	a3,621(sp)
   1b3fc:	26b10723          	sb	a1,622(sp)
   1b400:	27110513          	addi	a0,sp,625
   1b404:	6585                	lui	a1,0x1
   1b406:	33058593          	addi	a1,a1,816 # 1330 <.Lline_table_start1+0x1105>
   1b40a:	958a                	add	a1,a1,sp
   1b40c:	4645                	li	a2,17
   1b40e:	00003097          	auipc	ra,0x3
   1b412:	106080e7          	jalr	262(ra) # 1e514 <memcpy>
   1b416:	6505                	lui	a0,0x1
   1b418:	38c50513          	addi	a0,a0,908 # 138c <.Lline_table_start1+0x1161>
   1b41c:	950a                	add	a0,a0,sp
   1b41e:	26a10593          	addi	a1,sp,618
   1b422:	ffff9097          	auipc	ra,0xffff9
   1b426:	5f2080e7          	jalr	1522(ra) # 14a14 <_ZN20complex_dynamic_type3app17h734e01f565f2de15E>
   1b42a:	3ec9c503          	lbu	a0,1004(s3)
   1b42e:	c119                	beqz	a0,1b434 <_start+0x1614>
   1b430:	7db0206f          	j	1e40a <_start+0x45ea>
   1b434:	3ee9c503          	lbu	a0,1006(s3)
   1b438:	3ed9c583          	lbu	a1,1005(s3)
   1b43c:	3ef9c603          	lbu	a2,1007(s3)
   1b440:	3f09a403          	lw	s0,1008(s3)
   1b444:	0522                	slli	a0,a0,0x8
   1b446:	8d4d                	or	a0,a0,a1
   1b448:	28a11123          	sh	a0,642(sp)
   1b44c:	28c10223          	sb	a2,644(sp)
   1b450:	6505                	lui	a0,0x1
   1b452:	39450513          	addi	a0,a0,916 # 1394 <.Lline_table_start1+0x1169>
   1b456:	00a105b3          	add	a1,sp,a0
   1b45a:	6505                	lui	a0,0x1
   1b45c:	33050513          	addi	a0,a0,816 # 1330 <.Lline_table_start1+0x1105>
   1b460:	950a                	add	a0,a0,sp
   1b462:	02f00613          	li	a2,47
   1b466:	00003097          	auipc	ra,0x3
   1b46a:	0ae080e7          	jalr	174(ra) # 1e514 <memcpy>
   1b46e:	01845513          	srli	a0,s0,0x18
   1b472:	01045593          	srli	a1,s0,0x10
   1b476:	00845613          	srli	a2,s0,0x8
   1b47a:	288102a3          	sb	s0,645(sp)
   1b47e:	28c10323          	sb	a2,646(sp)
   1b482:	28b103a3          	sb	a1,647(sp)
   1b486:	28a10423          	sb	a0,648(sp)
   1b48a:	28910513          	addi	a0,sp,649
   1b48e:	6585                	lui	a1,0x1
   1b490:	33058593          	addi	a1,a1,816 # 1330 <.Lline_table_start1+0x1105>
   1b494:	958a                	add	a1,a1,sp
   1b496:	02f00613          	li	a2,47
   1b49a:	00003097          	auipc	ra,0x3
   1b49e:	07a080e7          	jalr	122(ra) # 1e514 <memcpy>
   1b4a2:	6505                	lui	a0,0x1
   1b4a4:	38c50513          	addi	a0,a0,908 # 138c <.Lline_table_start1+0x1161>
   1b4a8:	950a                	add	a0,a0,sp
   1b4aa:	28210593          	addi	a1,sp,642
   1b4ae:	ffffe097          	auipc	ra,0xffffe
   1b4b2:	668080e7          	jalr	1640(ra) # 19b16 <_ZN20complex_dynamic_type3app17hfd5e3df47db799f4E>
   1b4b6:	3ec9c503          	lbu	a0,1004(s3)
   1b4ba:	c119                	beqz	a0,1b4c0 <_start+0x16a0>
   1b4bc:	74f0206f          	j	1e40a <_start+0x45ea>
   1b4c0:	3ee9c503          	lbu	a0,1006(s3)
   1b4c4:	3ed9c583          	lbu	a1,1005(s3)
   1b4c8:	3ef9c603          	lbu	a2,1007(s3)
   1b4cc:	3f09a403          	lw	s0,1008(s3)
   1b4d0:	0522                	slli	a0,a0,0x8
   1b4d2:	8d4d                	or	a0,a0,a1
   1b4d4:	2aa11c23          	sh	a0,696(sp)
   1b4d8:	2ac10d23          	sb	a2,698(sp)
   1b4dc:	6505                	lui	a0,0x1
   1b4de:	39450513          	addi	a0,a0,916 # 1394 <.Lline_table_start1+0x1169>
   1b4e2:	00a105b3          	add	a1,sp,a0
   1b4e6:	6505                	lui	a0,0x1
   1b4e8:	33050513          	addi	a0,a0,816 # 1330 <.Lline_table_start1+0x1105>
   1b4ec:	950a                	add	a0,a0,sp
   1b4ee:	02d00613          	li	a2,45
   1b4f2:	00003097          	auipc	ra,0x3
   1b4f6:	022080e7          	jalr	34(ra) # 1e514 <memcpy>
   1b4fa:	01845513          	srli	a0,s0,0x18
   1b4fe:	01045593          	srli	a1,s0,0x10
   1b502:	00845613          	srli	a2,s0,0x8
   1b506:	2a810da3          	sb	s0,699(sp)
   1b50a:	2ac10e23          	sb	a2,700(sp)
   1b50e:	2ab10ea3          	sb	a1,701(sp)
   1b512:	2aa10f23          	sb	a0,702(sp)
   1b516:	2bf10513          	addi	a0,sp,703
   1b51a:	6585                	lui	a1,0x1
   1b51c:	33058593          	addi	a1,a1,816 # 1330 <.Lline_table_start1+0x1105>
   1b520:	958a                	add	a1,a1,sp
   1b522:	02d00613          	li	a2,45
   1b526:	00003097          	auipc	ra,0x3
   1b52a:	fee080e7          	jalr	-18(ra) # 1e514 <memcpy>
   1b52e:	6505                	lui	a0,0x1
   1b530:	38c50513          	addi	a0,a0,908 # 138c <.Lline_table_start1+0x1161>
   1b534:	950a                	add	a0,a0,sp
   1b536:	1d2c                	addi	a1,sp,696
   1b538:	ffff6097          	auipc	ra,0xffff6
   1b53c:	37a080e7          	jalr	890(ra) # 118b2 <_ZN20complex_dynamic_type3app17h0d08cc1fd474aecdE>
   1b540:	3ec9c503          	lbu	a0,1004(s3)
   1b544:	c119                	beqz	a0,1b54a <_start+0x172a>
   1b546:	6c50206f          	j	1e40a <_start+0x45ea>
   1b54a:	3ee9c503          	lbu	a0,1006(s3)
   1b54e:	3ed9c583          	lbu	a1,1005(s3)
   1b552:	3ef9c603          	lbu	a2,1007(s3)
   1b556:	3f09a403          	lw	s0,1008(s3)
   1b55a:	0522                	slli	a0,a0,0x8
   1b55c:	8d4d                	or	a0,a0,a1
   1b55e:	2ea11623          	sh	a0,748(sp)
   1b562:	2ec10723          	sb	a2,750(sp)
   1b566:	6505                	lui	a0,0x1
   1b568:	39450513          	addi	a0,a0,916 # 1394 <.Lline_table_start1+0x1169>
   1b56c:	00a105b3          	add	a1,sp,a0
   1b570:	6505                	lui	a0,0x1
   1b572:	33050513          	addi	a0,a0,816 # 1330 <.Lline_table_start1+0x1105>
   1b576:	950a                	add	a0,a0,sp
   1b578:	02700613          	li	a2,39
   1b57c:	00003097          	auipc	ra,0x3
   1b580:	f98080e7          	jalr	-104(ra) # 1e514 <memcpy>
   1b584:	01845513          	srli	a0,s0,0x18
   1b588:	01045593          	srli	a1,s0,0x10
   1b58c:	00845613          	srli	a2,s0,0x8
   1b590:	2e8107a3          	sb	s0,751(sp)
   1b594:	2ec10823          	sb	a2,752(sp)
   1b598:	2eb108a3          	sb	a1,753(sp)
   1b59c:	2ea10923          	sb	a0,754(sp)
   1b5a0:	2f310513          	addi	a0,sp,755
   1b5a4:	6585                	lui	a1,0x1
   1b5a6:	33058593          	addi	a1,a1,816 # 1330 <.Lline_table_start1+0x1105>
   1b5aa:	958a                	add	a1,a1,sp
   1b5ac:	02700613          	li	a2,39
   1b5b0:	00003097          	auipc	ra,0x3
   1b5b4:	f64080e7          	jalr	-156(ra) # 1e514 <memcpy>
   1b5b8:	6505                	lui	a0,0x1
   1b5ba:	38c50513          	addi	a0,a0,908 # 138c <.Lline_table_start1+0x1161>
   1b5be:	950a                	add	a0,a0,sp
   1b5c0:	15ec                	addi	a1,sp,748
   1b5c2:	ffffd097          	auipc	ra,0xffffd
   1b5c6:	d34080e7          	jalr	-716(ra) # 182f6 <_ZN20complex_dynamic_type3app17hc8af08580a882d65E>
   1b5ca:	3ec9c503          	lbu	a0,1004(s3)
   1b5ce:	c119                	beqz	a0,1b5d4 <_start+0x17b4>
   1b5d0:	63b0206f          	j	1e40a <_start+0x45ea>
   1b5d4:	3ee9c503          	lbu	a0,1006(s3)
   1b5d8:	3ed9c583          	lbu	a1,1005(s3)
   1b5dc:	3ef9c603          	lbu	a2,1007(s3)
   1b5e0:	3f09a403          	lw	s0,1008(s3)
   1b5e4:	0522                	slli	a0,a0,0x8
   1b5e6:	8d4d                	or	a0,a0,a1
   1b5e8:	30a11d23          	sh	a0,794(sp)
   1b5ec:	30c10e23          	sb	a2,796(sp)
   1b5f0:	6505                	lui	a0,0x1
   1b5f2:	39450513          	addi	a0,a0,916 # 1394 <.Lline_table_start1+0x1169>
   1b5f6:	00a105b3          	add	a1,sp,a0
   1b5fa:	6505                	lui	a0,0x1
   1b5fc:	33050513          	addi	a0,a0,816 # 1330 <.Lline_table_start1+0x1105>
   1b600:	950a                	add	a0,a0,sp
   1b602:	03100613          	li	a2,49
   1b606:	00003097          	auipc	ra,0x3
   1b60a:	f0e080e7          	jalr	-242(ra) # 1e514 <memcpy>
   1b60e:	01845513          	srli	a0,s0,0x18
   1b612:	01045593          	srli	a1,s0,0x10
   1b616:	00845613          	srli	a2,s0,0x8
   1b61a:	30810ea3          	sb	s0,797(sp)
   1b61e:	30c10f23          	sb	a2,798(sp)
   1b622:	30b10fa3          	sb	a1,799(sp)
   1b626:	32a10023          	sb	a0,800(sp)
   1b62a:	32110513          	addi	a0,sp,801
   1b62e:	6585                	lui	a1,0x1
   1b630:	33058593          	addi	a1,a1,816 # 1330 <.Lline_table_start1+0x1105>
   1b634:	958a                	add	a1,a1,sp
   1b636:	03100613          	li	a2,49
   1b63a:	00003097          	auipc	ra,0x3
   1b63e:	eda080e7          	jalr	-294(ra) # 1e514 <memcpy>
   1b642:	6505                	lui	a0,0x1
   1b644:	38c50513          	addi	a0,a0,908 # 138c <.Lline_table_start1+0x1161>
   1b648:	950a                	add	a0,a0,sp
   1b64a:	31a10593          	addi	a1,sp,794
   1b64e:	ffffc097          	auipc	ra,0xffffc
   1b652:	a9a080e7          	jalr	-1382(ra) # 170e8 <_ZN20complex_dynamic_type3app17haed2c6f068172331E>
   1b656:	3ec9c503          	lbu	a0,1004(s3)
   1b65a:	c119                	beqz	a0,1b660 <_start+0x1840>
   1b65c:	5af0206f          	j	1e40a <_start+0x45ea>
   1b660:	3ee9c503          	lbu	a0,1006(s3)
   1b664:	3ed9c583          	lbu	a1,1005(s3)
   1b668:	3ef9c603          	lbu	a2,1007(s3)
   1b66c:	3f09a403          	lw	s0,1008(s3)
   1b670:	0522                	slli	a0,a0,0x8
   1b672:	8d4d                	or	a0,a0,a1
   1b674:	34a11923          	sh	a0,850(sp)
   1b678:	34c10a23          	sb	a2,852(sp)
   1b67c:	6505                	lui	a0,0x1
   1b67e:	39450513          	addi	a0,a0,916 # 1394 <.Lline_table_start1+0x1169>
   1b682:	00a105b3          	add	a1,sp,a0
   1b686:	6505                	lui	a0,0x1
   1b688:	33050513          	addi	a0,a0,816 # 1330 <.Lline_table_start1+0x1105>
   1b68c:	950a                	add	a0,a0,sp
   1b68e:	02d00613          	li	a2,45
   1b692:	00003097          	auipc	ra,0x3
   1b696:	e82080e7          	jalr	-382(ra) # 1e514 <memcpy>
   1b69a:	01845513          	srli	a0,s0,0x18
   1b69e:	01045593          	srli	a1,s0,0x10
   1b6a2:	00845613          	srli	a2,s0,0x8
   1b6a6:	34810aa3          	sb	s0,853(sp)
   1b6aa:	34c10b23          	sb	a2,854(sp)
   1b6ae:	34b10ba3          	sb	a1,855(sp)
   1b6b2:	34a10c23          	sb	a0,856(sp)
   1b6b6:	35910513          	addi	a0,sp,857
   1b6ba:	6585                	lui	a1,0x1
   1b6bc:	33058593          	addi	a1,a1,816 # 1330 <.Lline_table_start1+0x1105>
   1b6c0:	958a                	add	a1,a1,sp
   1b6c2:	02d00613          	li	a2,45
   1b6c6:	00003097          	auipc	ra,0x3
   1b6ca:	e4e080e7          	jalr	-434(ra) # 1e514 <memcpy>
   1b6ce:	6505                	lui	a0,0x1
   1b6d0:	38c50513          	addi	a0,a0,908 # 138c <.Lline_table_start1+0x1161>
   1b6d4:	950a                	add	a0,a0,sp
   1b6d6:	35210593          	addi	a1,sp,850
   1b6da:	ffff8097          	auipc	ra,0xffff8
   1b6de:	752080e7          	jalr	1874(ra) # 13e2c <_ZN20complex_dynamic_type3app17h491c0600687b68f2E>
   1b6e2:	3ec9c503          	lbu	a0,1004(s3)
   1b6e6:	c119                	beqz	a0,1b6ec <_start+0x18cc>
   1b6e8:	5230206f          	j	1e40a <_start+0x45ea>
   1b6ec:	3ed9c503          	lbu	a0,1005(s3)
   1b6f0:	3ee9c583          	lbu	a1,1006(s3)
   1b6f4:	3f49a603          	lw	a2,1012(s3)
   1b6f8:	3f89a683          	lw	a3,1016(s3)
   1b6fc:	3fc9a703          	lw	a4,1020(s3)
   1b700:	4009a783          	lw	a5,1024(s3)
   1b704:	40499483          	lh	s1,1028(s3)
   1b708:	4069c403          	lbu	s0,1030(s3)
   1b70c:	38c9a823          	sw	a2,912(s3)
   1b710:	38d9aa23          	sw	a3,916(s3)
   1b714:	38e9ac23          	sw	a4,920(s3)
   1b718:	38f9ae23          	sw	a5,924(s3)
   1b71c:	3ef9c603          	lbu	a2,1007(s3)
   1b720:	3f09a683          	lw	a3,1008(s3)
   1b724:	05a2                	slli	a1,a1,0x8
   1b726:	3a999023          	sh	s1,928(s3)
   1b72a:	3a898123          	sb	s0,930(s3)
   1b72e:	0186d713          	srli	a4,a3,0x18
   1b732:	8d4d                	or	a0,a0,a1
   1b734:	0106d593          	srli	a1,a3,0x10
   1b738:	38b105a3          	sb	a1,907(sp)
   1b73c:	38e10623          	sb	a4,908(sp)
   1b740:	0086d593          	srli	a1,a3,0x8
   1b744:	38a11323          	sh	a0,902(sp)
   1b748:	38c10423          	sb	a2,904(sp)
   1b74c:	38d104a3          	sb	a3,905(sp)
   1b750:	38b10523          	sb	a1,906(sp)
   1b754:	38d10513          	addi	a0,sp,909
   1b758:	6585                	lui	a1,0x1
   1b75a:	33058593          	addi	a1,a1,816 # 1330 <.Lline_table_start1+0x1105>
   1b75e:	958a                	add	a1,a1,sp
   1b760:	464d                	li	a2,19
   1b762:	00003097          	auipc	ra,0x3
   1b766:	db2080e7          	jalr	-590(ra) # 1e514 <memcpy>
   1b76a:	6505                	lui	a0,0x1
   1b76c:	38c50513          	addi	a0,a0,908 # 138c <.Lline_table_start1+0x1161>
   1b770:	950a                	add	a0,a0,sp
   1b772:	38610593          	addi	a1,sp,902
   1b776:	ffffd097          	auipc	ra,0xffffd
   1b77a:	9fe080e7          	jalr	-1538(ra) # 18174 <_ZN20complex_dynamic_type3app17hc08c4b27931c423bE>
   1b77e:	3ec9c503          	lbu	a0,1004(s3)
   1b782:	c119                	beqz	a0,1b788 <_start+0x1968>
   1b784:	4870206f          	j	1e40a <_start+0x45ea>
   1b788:	3ee9c503          	lbu	a0,1006(s3)
   1b78c:	3ed9c583          	lbu	a1,1005(s3)
   1b790:	3ef9c603          	lbu	a2,1007(s3)
   1b794:	3f09a403          	lw	s0,1008(s3)
   1b798:	0522                	slli	a0,a0,0x8
   1b79a:	8d4d                	or	a0,a0,a1
   1b79c:	3aa11023          	sh	a0,928(sp)
   1b7a0:	3ac10123          	sb	a2,930(sp)
   1b7a4:	6505                	lui	a0,0x1
   1b7a6:	39450513          	addi	a0,a0,916 # 1394 <.Lline_table_start1+0x1169>
   1b7aa:	00a105b3          	add	a1,sp,a0
   1b7ae:	6505                	lui	a0,0x1
   1b7b0:	33050513          	addi	a0,a0,816 # 1330 <.Lline_table_start1+0x1105>
   1b7b4:	950a                	add	a0,a0,sp
   1b7b6:	04900613          	li	a2,73
   1b7ba:	00003097          	auipc	ra,0x3
   1b7be:	d5a080e7          	jalr	-678(ra) # 1e514 <memcpy>
   1b7c2:	01845513          	srli	a0,s0,0x18
   1b7c6:	01045593          	srli	a1,s0,0x10
   1b7ca:	00845613          	srli	a2,s0,0x8
   1b7ce:	3a8101a3          	sb	s0,931(sp)
   1b7d2:	3ac10223          	sb	a2,932(sp)
   1b7d6:	3ab102a3          	sb	a1,933(sp)
   1b7da:	3aa10323          	sb	a0,934(sp)
   1b7de:	3a710513          	addi	a0,sp,935
   1b7e2:	6585                	lui	a1,0x1
   1b7e4:	33058593          	addi	a1,a1,816 # 1330 <.Lline_table_start1+0x1105>
   1b7e8:	958a                	add	a1,a1,sp
   1b7ea:	04900613          	li	a2,73
   1b7ee:	00003097          	auipc	ra,0x3
   1b7f2:	d26080e7          	jalr	-730(ra) # 1e514 <memcpy>
   1b7f6:	6505                	lui	a0,0x1
   1b7f8:	38c50513          	addi	a0,a0,908 # 138c <.Lline_table_start1+0x1161>
   1b7fc:	950a                	add	a0,a0,sp
   1b7fe:	170c                	addi	a1,sp,928
   1b800:	ffffb097          	auipc	ra,0xffffb
   1b804:	fe2080e7          	jalr	-30(ra) # 167e2 <_ZN20complex_dynamic_type3app17ha02f509586aa5986E>
   1b808:	3ec9c503          	lbu	a0,1004(s3)
   1b80c:	c119                	beqz	a0,1b812 <_start+0x19f2>
   1b80e:	3fd0206f          	j	1e40a <_start+0x45ea>
   1b812:	3ee9c503          	lbu	a0,1006(s3)
   1b816:	3ed9c583          	lbu	a1,1005(s3)
   1b81a:	3ef9c603          	lbu	a2,1007(s3)
   1b81e:	3f09a403          	lw	s0,1008(s3)
   1b822:	0522                	slli	a0,a0,0x8
   1b824:	8d4d                	or	a0,a0,a1
   1b826:	3ea11823          	sh	a0,1008(sp)
   1b82a:	3ec10923          	sb	a2,1010(sp)
   1b82e:	6505                	lui	a0,0x1
   1b830:	39450513          	addi	a0,a0,916 # 1394 <.Lline_table_start1+0x1169>
   1b834:	00a105b3          	add	a1,sp,a0
   1b838:	6505                	lui	a0,0x1
   1b83a:	33050513          	addi	a0,a0,816 # 1330 <.Lline_table_start1+0x1105>
   1b83e:	950a                	add	a0,a0,sp
   1b840:	03500613          	li	a2,53
   1b844:	00003097          	auipc	ra,0x3
   1b848:	cd0080e7          	jalr	-816(ra) # 1e514 <memcpy>
   1b84c:	01845513          	srli	a0,s0,0x18
   1b850:	01045593          	srli	a1,s0,0x10
   1b854:	00845613          	srli	a2,s0,0x8
   1b858:	3e8109a3          	sb	s0,1011(sp)
   1b85c:	3ec10a23          	sb	a2,1012(sp)
   1b860:	3eb10aa3          	sb	a1,1013(sp)
   1b864:	3ea10b23          	sb	a0,1014(sp)
   1b868:	3f710513          	addi	a0,sp,1015
   1b86c:	6585                	lui	a1,0x1
   1b86e:	33058593          	addi	a1,a1,816 # 1330 <.Lline_table_start1+0x1105>
   1b872:	958a                	add	a1,a1,sp
   1b874:	03500613          	li	a2,53
   1b878:	00003097          	auipc	ra,0x3
   1b87c:	c9c080e7          	jalr	-868(ra) # 1e514 <memcpy>
   1b880:	6505                	lui	a0,0x1
   1b882:	38c50513          	addi	a0,a0,908 # 138c <.Lline_table_start1+0x1161>
   1b886:	950a                	add	a0,a0,sp
   1b888:	1f8c                	addi	a1,sp,1008
   1b88a:	ffff8097          	auipc	ra,0xffff8
   1b88e:	9a2080e7          	jalr	-1630(ra) # 1322c <_ZN20complex_dynamic_type3app17h3e4838f1a06b573cE>
   1b892:	3ec9c503          	lbu	a0,1004(s3)
   1b896:	c119                	beqz	a0,1b89c <_start+0x1a7c>
   1b898:	3730206f          	j	1e40a <_start+0x45ea>
   1b89c:	3ee9c503          	lbu	a0,1006(s3)
   1b8a0:	3ed9c583          	lbu	a1,1005(s3)
   1b8a4:	3ef9c603          	lbu	a2,1007(s3)
   1b8a8:	3f09a403          	lw	s0,1008(s3)
   1b8ac:	0522                	slli	a0,a0,0x8
   1b8ae:	8d4d                	or	a0,a0,a1
   1b8b0:	42a11623          	sh	a0,1068(sp)
   1b8b4:	42c10723          	sb	a2,1070(sp)
   1b8b8:	6505                	lui	a0,0x1
   1b8ba:	39450513          	addi	a0,a0,916 # 1394 <.Lline_table_start1+0x1169>
   1b8be:	00a105b3          	add	a1,sp,a0
   1b8c2:	6505                	lui	a0,0x1
   1b8c4:	33050513          	addi	a0,a0,816 # 1330 <.Lline_table_start1+0x1105>
   1b8c8:	950a                	add	a0,a0,sp
   1b8ca:	02b00613          	li	a2,43
   1b8ce:	00003097          	auipc	ra,0x3
   1b8d2:	c46080e7          	jalr	-954(ra) # 1e514 <memcpy>
   1b8d6:	01845513          	srli	a0,s0,0x18
   1b8da:	01045593          	srli	a1,s0,0x10
   1b8de:	00845613          	srli	a2,s0,0x8
   1b8e2:	428107a3          	sb	s0,1071(sp)
   1b8e6:	42c10823          	sb	a2,1072(sp)
   1b8ea:	42b108a3          	sb	a1,1073(sp)
   1b8ee:	42a10923          	sb	a0,1074(sp)
   1b8f2:	43310513          	addi	a0,sp,1075
   1b8f6:	6585                	lui	a1,0x1
   1b8f8:	33058593          	addi	a1,a1,816 # 1330 <.Lline_table_start1+0x1105>
   1b8fc:	958a                	add	a1,a1,sp
   1b8fe:	02b00613          	li	a2,43
   1b902:	00003097          	auipc	ra,0x3
   1b906:	c12080e7          	jalr	-1006(ra) # 1e514 <memcpy>
   1b90a:	6505                	lui	a0,0x1
   1b90c:	38c50513          	addi	a0,a0,908 # 138c <.Lline_table_start1+0x1161>
   1b910:	950a                	add	a0,a0,sp
   1b912:	42c10593          	addi	a1,sp,1068
   1b916:	ffffb097          	auipc	ra,0xffffb
   1b91a:	354080e7          	jalr	852(ra) # 16c6a <_ZN20complex_dynamic_type3app17ha7e698a9204c3c13E>
   1b91e:	3ec9c503          	lbu	a0,1004(s3)
   1b922:	c119                	beqz	a0,1b928 <_start+0x1b08>
   1b924:	2e70206f          	j	1e40a <_start+0x45ea>
   1b928:	3ee9c503          	lbu	a0,1006(s3)
   1b92c:	3ed9c583          	lbu	a1,1005(s3)
   1b930:	3ef9c603          	lbu	a2,1007(s3)
   1b934:	3f09a403          	lw	s0,1008(s3)
   1b938:	0522                	slli	a0,a0,0x8
   1b93a:	8d4d                	or	a0,a0,a1
   1b93c:	44a11f23          	sh	a0,1118(sp)
   1b940:	46c10023          	sb	a2,1120(sp)
   1b944:	6505                	lui	a0,0x1
   1b946:	39450513          	addi	a0,a0,916 # 1394 <.Lline_table_start1+0x1169>
   1b94a:	00a105b3          	add	a1,sp,a0
   1b94e:	6505                	lui	a0,0x1
   1b950:	33050513          	addi	a0,a0,816 # 1330 <.Lline_table_start1+0x1105>
   1b954:	950a                	add	a0,a0,sp
   1b956:	02b00613          	li	a2,43
   1b95a:	00003097          	auipc	ra,0x3
   1b95e:	bba080e7          	jalr	-1094(ra) # 1e514 <memcpy>
   1b962:	01845513          	srli	a0,s0,0x18
   1b966:	01045593          	srli	a1,s0,0x10
   1b96a:	00845613          	srli	a2,s0,0x8
   1b96e:	468100a3          	sb	s0,1121(sp)
   1b972:	46c10123          	sb	a2,1122(sp)
   1b976:	46b101a3          	sb	a1,1123(sp)
   1b97a:	46a10223          	sb	a0,1124(sp)
   1b97e:	46510513          	addi	a0,sp,1125
   1b982:	6585                	lui	a1,0x1
   1b984:	33058593          	addi	a1,a1,816 # 1330 <.Lline_table_start1+0x1105>
   1b988:	958a                	add	a1,a1,sp
   1b98a:	02b00613          	li	a2,43
   1b98e:	00003097          	auipc	ra,0x3
   1b992:	b86080e7          	jalr	-1146(ra) # 1e514 <memcpy>
   1b996:	6505                	lui	a0,0x1
   1b998:	38c50513          	addi	a0,a0,908 # 138c <.Lline_table_start1+0x1161>
   1b99c:	950a                	add	a0,a0,sp
   1b99e:	45e10593          	addi	a1,sp,1118
   1b9a2:	ffffe097          	auipc	ra,0xffffe
   1b9a6:	9f2080e7          	jalr	-1550(ra) # 19394 <_ZN20complex_dynamic_type3app17hf588d551c8a75cafE>
   1b9aa:	3ec9c503          	lbu	a0,1004(s3)
   1b9ae:	c119                	beqz	a0,1b9b4 <_start+0x1b94>
   1b9b0:	25b0206f          	j	1e40a <_start+0x45ea>
   1b9b4:	3ed9c503          	lbu	a0,1005(s3)
   1b9b8:	3ee9c583          	lbu	a1,1006(s3)
   1b9bc:	3ef9c603          	lbu	a2,1007(s3)
   1b9c0:	3f09a683          	lw	a3,1008(s3)
   1b9c4:	3f49a703          	lw	a4,1012(s3)
   1b9c8:	3f89a783          	lw	a5,1016(s3)
   1b9cc:	3fc9c483          	lbu	s1,1020(s3)
   1b9d0:	05a2                	slli	a1,a1,0x8
   1b9d2:	38e9a823          	sw	a4,912(s3)
   1b9d6:	38f9aa23          	sw	a5,916(s3)
   1b9da:	38998c23          	sb	s1,920(s3)
   1b9de:	0186d713          	srli	a4,a3,0x18
   1b9e2:	8d4d                	or	a0,a0,a1
   1b9e4:	0106d593          	srli	a1,a3,0x10
   1b9e8:	48b10aa3          	sb	a1,1173(sp)
   1b9ec:	48e10b23          	sb	a4,1174(sp)
   1b9f0:	0086d593          	srli	a1,a3,0x8
   1b9f4:	48a11823          	sh	a0,1168(sp)
   1b9f8:	48c10923          	sb	a2,1170(sp)
   1b9fc:	48d109a3          	sb	a3,1171(sp)
   1ba00:	48b10a23          	sb	a1,1172(sp)
   1ba04:	49710513          	addi	a0,sp,1175
   1ba08:	6585                	lui	a1,0x1
   1ba0a:	33058593          	addi	a1,a1,816 # 1330 <.Lline_table_start1+0x1105>
   1ba0e:	958a                	add	a1,a1,sp
   1ba10:	4625                	li	a2,9
   1ba12:	00003097          	auipc	ra,0x3
   1ba16:	b02080e7          	jalr	-1278(ra) # 1e514 <memcpy>
   1ba1a:	6505                	lui	a0,0x1
   1ba1c:	38c50513          	addi	a0,a0,908 # 138c <.Lline_table_start1+0x1161>
   1ba20:	950a                	add	a0,a0,sp
   1ba22:	49010593          	addi	a1,sp,1168
   1ba26:	ffff7097          	auipc	ra,0xffff7
   1ba2a:	efc080e7          	jalr	-260(ra) # 12922 <_ZN20complex_dynamic_type3app17h3207e0628ebad019E>
   1ba2e:	3ec9c503          	lbu	a0,1004(s3)
   1ba32:	c119                	beqz	a0,1ba38 <_start+0x1c18>
   1ba34:	1d70206f          	j	1e40a <_start+0x45ea>
   1ba38:	3ee9c503          	lbu	a0,1006(s3)
   1ba3c:	3ed9c583          	lbu	a1,1005(s3)
   1ba40:	3ef9c603          	lbu	a2,1007(s3)
   1ba44:	3f09a403          	lw	s0,1008(s3)
   1ba48:	0522                	slli	a0,a0,0x8
   1ba4a:	8d4d                	or	a0,a0,a1
   1ba4c:	4aa11023          	sh	a0,1184(sp)
   1ba50:	4ac10123          	sb	a2,1186(sp)
   1ba54:	6505                	lui	a0,0x1
   1ba56:	39450513          	addi	a0,a0,916 # 1394 <.Lline_table_start1+0x1169>
   1ba5a:	00a105b3          	add	a1,sp,a0
   1ba5e:	6505                	lui	a0,0x1
   1ba60:	33050513          	addi	a0,a0,816 # 1330 <.Lline_table_start1+0x1105>
   1ba64:	950a                	add	a0,a0,sp
   1ba66:	02f00613          	li	a2,47
   1ba6a:	00003097          	auipc	ra,0x3
   1ba6e:	aaa080e7          	jalr	-1366(ra) # 1e514 <memcpy>
   1ba72:	01845513          	srli	a0,s0,0x18
   1ba76:	01045593          	srli	a1,s0,0x10
   1ba7a:	00845613          	srli	a2,s0,0x8
   1ba7e:	4a8101a3          	sb	s0,1187(sp)
   1ba82:	4ac10223          	sb	a2,1188(sp)
   1ba86:	4ab102a3          	sb	a1,1189(sp)
   1ba8a:	4aa10323          	sb	a0,1190(sp)
   1ba8e:	4a710513          	addi	a0,sp,1191
   1ba92:	6585                	lui	a1,0x1
   1ba94:	33058593          	addi	a1,a1,816 # 1330 <.Lline_table_start1+0x1105>
   1ba98:	958a                	add	a1,a1,sp
   1ba9a:	02f00613          	li	a2,47
   1ba9e:	00003097          	auipc	ra,0x3
   1baa2:	a76080e7          	jalr	-1418(ra) # 1e514 <memcpy>
   1baa6:	6505                	lui	a0,0x1
   1baa8:	38c50513          	addi	a0,a0,908 # 138c <.Lline_table_start1+0x1161>
   1baac:	950a                	add	a0,a0,sp
   1baae:	4a010593          	addi	a1,sp,1184
   1bab2:	ffffd097          	auipc	ra,0xffffd
   1bab6:	46e080e7          	jalr	1134(ra) # 18f20 <_ZN20complex_dynamic_type3app17he1f9a4999c2257d2E>
   1baba:	3ec9c503          	lbu	a0,1004(s3)
   1babe:	c119                	beqz	a0,1bac4 <_start+0x1ca4>
   1bac0:	14b0206f          	j	1e40a <_start+0x45ea>
   1bac4:	3ed9c503          	lbu	a0,1005(s3)
   1bac8:	3ee9c583          	lbu	a1,1006(s3)
   1bacc:	3ef9c803          	lbu	a6,1007(s3)
   1bad0:	3f09a683          	lw	a3,1008(s3)
   1bad4:	3f49a703          	lw	a4,1012(s3)
   1bad8:	3f89a783          	lw	a5,1016(s3)
   1badc:	05a2                	slli	a1,a1,0x8
   1bade:	0186d893          	srli	a7,a3,0x18
   1bae2:	0106d293          	srli	t0,a3,0x10
   1bae6:	0187d613          	srli	a2,a5,0x18
   1baea:	0107d493          	srli	s1,a5,0x10
   1baee:	0087d413          	srli	s0,a5,0x8
   1baf2:	8d4d                	or	a0,a0,a1
   1baf4:	01875593          	srli	a1,a4,0x18
   1baf8:	4e9101a3          	sb	s1,1251(sp)
   1bafc:	4ec10223          	sb	a2,1252(sp)
   1bb00:	01075613          	srli	a2,a4,0x10
   1bb04:	4cc10fa3          	sb	a2,1247(sp)
   1bb08:	4eb10023          	sb	a1,1248(sp)
   1bb0c:	4ef100a3          	sb	a5,1249(sp)
   1bb10:	4e810123          	sb	s0,1250(sp)
   1bb14:	0086d593          	srli	a1,a3,0x8
   1bb18:	4ca11b23          	sh	a0,1238(sp)
   1bb1c:	4d010c23          	sb	a6,1240(sp)
   1bb20:	4cd10ca3          	sb	a3,1241(sp)
   1bb24:	4cb10d23          	sb	a1,1242(sp)
   1bb28:	00875513          	srli	a0,a4,0x8
   1bb2c:	4c510da3          	sb	t0,1243(sp)
   1bb30:	4d110e23          	sb	a7,1244(sp)
   1bb34:	4ce10ea3          	sb	a4,1245(sp)
   1bb38:	4ca10f23          	sb	a0,1246(sp)
   1bb3c:	6505                	lui	a0,0x1
   1bb3e:	38c50513          	addi	a0,a0,908 # 138c <.Lline_table_start1+0x1161>
   1bb42:	950a                	add	a0,a0,sp
   1bb44:	4d610593          	addi	a1,sp,1238
   1bb48:	ffffb097          	auipc	ra,0xffffb
   1bb4c:	b20080e7          	jalr	-1248(ra) # 16668 <_ZN20complex_dynamic_type3app17h9e65fe14d038ce6fE>
   1bb50:	3ec9c503          	lbu	a0,1004(s3)
   1bb54:	c119                	beqz	a0,1bb5a <_start+0x1d3a>
   1bb56:	0b50206f          	j	1e40a <_start+0x45ea>
   1bb5a:	3ed9c503          	lbu	a0,1005(s3)
   1bb5e:	3ee9c583          	lbu	a1,1006(s3)
   1bb62:	3ef9c603          	lbu	a2,1007(s3)
   1bb66:	3f09a683          	lw	a3,1008(s3)
   1bb6a:	3f49a703          	lw	a4,1012(s3)
   1bb6e:	3f89a783          	lw	a5,1016(s3)
   1bb72:	3fc9a483          	lw	s1,1020(s3)
   1bb76:	05a2                	slli	a1,a1,0x8
   1bb78:	38e9a823          	sw	a4,912(s3)
   1bb7c:	38f9aa23          	sw	a5,916(s3)
   1bb80:	3899ac23          	sw	s1,920(s3)
   1bb84:	0186d713          	srli	a4,a3,0x18
   1bb88:	8d4d                	or	a0,a0,a1
   1bb8a:	0106d593          	srli	a1,a3,0x10
   1bb8e:	4eb105a3          	sb	a1,1259(sp)
   1bb92:	4ee10623          	sb	a4,1260(sp)
   1bb96:	0086d593          	srli	a1,a3,0x8
   1bb9a:	4ea11323          	sh	a0,1254(sp)
   1bb9e:	4ec10423          	sb	a2,1256(sp)
   1bba2:	4ed104a3          	sb	a3,1257(sp)
   1bba6:	4eb10523          	sb	a1,1258(sp)
   1bbaa:	4ed10513          	addi	a0,sp,1261
   1bbae:	6585                	lui	a1,0x1
   1bbb0:	33058593          	addi	a1,a1,816 # 1330 <.Lline_table_start1+0x1105>
   1bbb4:	958a                	add	a1,a1,sp
   1bbb6:	4631                	li	a2,12
   1bbb8:	00003097          	auipc	ra,0x3
   1bbbc:	95c080e7          	jalr	-1700(ra) # 1e514 <memcpy>
   1bbc0:	6505                	lui	a0,0x1
   1bbc2:	38c50513          	addi	a0,a0,908 # 138c <.Lline_table_start1+0x1161>
   1bbc6:	950a                	add	a0,a0,sp
   1bbc8:	4e610593          	addi	a1,sp,1254
   1bbcc:	ffffa097          	auipc	ra,0xffffa
   1bbd0:	7ae080e7          	jalr	1966(ra) # 1637a <_ZN20complex_dynamic_type3app17h988b03453713ff5dE>
   1bbd4:	3ec9c503          	lbu	a0,1004(s3)
   1bbd8:	c119                	beqz	a0,1bbde <_start+0x1dbe>
   1bbda:	0310206f          	j	1e40a <_start+0x45ea>
   1bbde:	3ee9c503          	lbu	a0,1006(s3)
   1bbe2:	3ed9c583          	lbu	a1,1005(s3)
   1bbe6:	3ef9c603          	lbu	a2,1007(s3)
   1bbea:	3f09a403          	lw	s0,1008(s3)
   1bbee:	0522                	slli	a0,a0,0x8
   1bbf0:	8d4d                	or	a0,a0,a1
   1bbf2:	4ea11d23          	sh	a0,1274(sp)
   1bbf6:	4ec10e23          	sb	a2,1276(sp)
   1bbfa:	6505                	lui	a0,0x1
   1bbfc:	39450513          	addi	a0,a0,916 # 1394 <.Lline_table_start1+0x1169>
   1bc00:	00a105b3          	add	a1,sp,a0
   1bc04:	6505                	lui	a0,0x1
   1bc06:	33050513          	addi	a0,a0,816 # 1330 <.Lline_table_start1+0x1105>
   1bc0a:	950a                	add	a0,a0,sp
   1bc0c:	04e00613          	li	a2,78
   1bc10:	00003097          	auipc	ra,0x3
   1bc14:	904080e7          	jalr	-1788(ra) # 1e514 <memcpy>
   1bc18:	01845513          	srli	a0,s0,0x18
   1bc1c:	01045593          	srli	a1,s0,0x10
   1bc20:	00845613          	srli	a2,s0,0x8
   1bc24:	4e810ea3          	sb	s0,1277(sp)
   1bc28:	4ec10f23          	sb	a2,1278(sp)
   1bc2c:	4eb10fa3          	sb	a1,1279(sp)
   1bc30:	50a10023          	sb	a0,1280(sp)
   1bc34:	50110513          	addi	a0,sp,1281
   1bc38:	6585                	lui	a1,0x1
   1bc3a:	33058593          	addi	a1,a1,816 # 1330 <.Lline_table_start1+0x1105>
   1bc3e:	958a                	add	a1,a1,sp
   1bc40:	04e00613          	li	a2,78
   1bc44:	00003097          	auipc	ra,0x3
   1bc48:	8d0080e7          	jalr	-1840(ra) # 1e514 <memcpy>
   1bc4c:	6505                	lui	a0,0x1
   1bc4e:	38c50513          	addi	a0,a0,908 # 138c <.Lline_table_start1+0x1161>
   1bc52:	950a                	add	a0,a0,sp
   1bc54:	4fa10593          	addi	a1,sp,1274
   1bc58:	ffff6097          	auipc	ra,0xffff6
   1bc5c:	dd0080e7          	jalr	-560(ra) # 11a28 <_ZN20complex_dynamic_type3app17h134371b8964890bdE>
   1bc60:	3ec9c503          	lbu	a0,1004(s3)
   1bc64:	c119                	beqz	a0,1bc6a <_start+0x1e4a>
   1bc66:	7a40206f          	j	1e40a <_start+0x45ea>
   1bc6a:	3ee9c503          	lbu	a0,1006(s3)
   1bc6e:	3ed9c583          	lbu	a1,1005(s3)
   1bc72:	3ef9c603          	lbu	a2,1007(s3)
   1bc76:	3f09a403          	lw	s0,1008(s3)
   1bc7a:	0522                	slli	a0,a0,0x8
   1bc7c:	8d4d                	or	a0,a0,a1
   1bc7e:	54a11823          	sh	a0,1360(sp)
   1bc82:	54c10923          	sb	a2,1362(sp)
   1bc86:	6505                	lui	a0,0x1
   1bc88:	39450513          	addi	a0,a0,916 # 1394 <.Lline_table_start1+0x1169>
   1bc8c:	00a105b3          	add	a1,sp,a0
   1bc90:	6505                	lui	a0,0x1
   1bc92:	33050513          	addi	a0,a0,816 # 1330 <.Lline_table_start1+0x1105>
   1bc96:	950a                	add	a0,a0,sp
   1bc98:	02b00613          	li	a2,43
   1bc9c:	00003097          	auipc	ra,0x3
   1bca0:	878080e7          	jalr	-1928(ra) # 1e514 <memcpy>
   1bca4:	01845513          	srli	a0,s0,0x18
   1bca8:	01045593          	srli	a1,s0,0x10
   1bcac:	00845613          	srli	a2,s0,0x8
   1bcb0:	548109a3          	sb	s0,1363(sp)
   1bcb4:	54c10a23          	sb	a2,1364(sp)
   1bcb8:	54b10aa3          	sb	a1,1365(sp)
   1bcbc:	54a10b23          	sb	a0,1366(sp)
   1bcc0:	55710513          	addi	a0,sp,1367
   1bcc4:	6585                	lui	a1,0x1
   1bcc6:	33058593          	addi	a1,a1,816 # 1330 <.Lline_table_start1+0x1105>
   1bcca:	958a                	add	a1,a1,sp
   1bccc:	02b00613          	li	a2,43
   1bcd0:	00003097          	auipc	ra,0x3
   1bcd4:	844080e7          	jalr	-1980(ra) # 1e514 <memcpy>
   1bcd8:	6505                	lui	a0,0x1
   1bcda:	38c50513          	addi	a0,a0,908 # 138c <.Lline_table_start1+0x1161>
   1bcde:	950a                	add	a0,a0,sp
   1bce0:	55010593          	addi	a1,sp,1360
   1bce4:	ffff9097          	auipc	ra,0xffff9
   1bce8:	bac080e7          	jalr	-1108(ra) # 14890 <_ZN20complex_dynamic_type3app17h71cf3ef02fb93b3dE>
   1bcec:	3ec9c503          	lbu	a0,1004(s3)
   1bcf0:	c119                	beqz	a0,1bcf6 <_start+0x1ed6>
   1bcf2:	7180206f          	j	1e40a <_start+0x45ea>
   1bcf6:	3ee9c503          	lbu	a0,1006(s3)
   1bcfa:	3ed9c583          	lbu	a1,1005(s3)
   1bcfe:	3ef9c603          	lbu	a2,1007(s3)
   1bd02:	3f09a403          	lw	s0,1008(s3)
   1bd06:	0522                	slli	a0,a0,0x8
   1bd08:	8d4d                	or	a0,a0,a1
   1bd0a:	58a11123          	sh	a0,1410(sp)
   1bd0e:	58c10223          	sb	a2,1412(sp)
   1bd12:	6505                	lui	a0,0x1
   1bd14:	39450513          	addi	a0,a0,916 # 1394 <.Lline_table_start1+0x1169>
   1bd18:	00a105b3          	add	a1,sp,a0
   1bd1c:	6505                	lui	a0,0x1
   1bd1e:	33050513          	addi	a0,a0,816 # 1330 <.Lline_table_start1+0x1105>
   1bd22:	950a                	add	a0,a0,sp
   1bd24:	03a00613          	li	a2,58
   1bd28:	00002097          	auipc	ra,0x2
   1bd2c:	7ec080e7          	jalr	2028(ra) # 1e514 <memcpy>
   1bd30:	01845513          	srli	a0,s0,0x18
   1bd34:	01045593          	srli	a1,s0,0x10
   1bd38:	00845613          	srli	a2,s0,0x8
   1bd3c:	588102a3          	sb	s0,1413(sp)
   1bd40:	58c10323          	sb	a2,1414(sp)
   1bd44:	58b103a3          	sb	a1,1415(sp)
   1bd48:	58a10423          	sb	a0,1416(sp)
   1bd4c:	58910513          	addi	a0,sp,1417
   1bd50:	6585                	lui	a1,0x1
   1bd52:	33058593          	addi	a1,a1,816 # 1330 <.Lline_table_start1+0x1105>
   1bd56:	958a                	add	a1,a1,sp
   1bd58:	03a00613          	li	a2,58
   1bd5c:	00002097          	auipc	ra,0x2
   1bd60:	7b8080e7          	jalr	1976(ra) # 1e514 <memcpy>
   1bd64:	6505                	lui	a0,0x1
   1bd66:	38c50513          	addi	a0,a0,908 # 138c <.Lline_table_start1+0x1161>
   1bd6a:	950a                	add	a0,a0,sp
   1bd6c:	58210593          	addi	a1,sp,1410
   1bd70:	ffff9097          	auipc	ra,0xffff9
   1bd74:	114080e7          	jalr	276(ra) # 14e84 <_ZN20complex_dynamic_type3app17h7590d44c197ef84fE>
   1bd78:	3ec9c503          	lbu	a0,1004(s3)
   1bd7c:	c119                	beqz	a0,1bd82 <_start+0x1f62>
   1bd7e:	68c0206f          	j	1e40a <_start+0x45ea>
   1bd82:	3ed9c503          	lbu	a0,1005(s3)
   1bd86:	3ee9c583          	lbu	a1,1006(s3)
   1bd8a:	3ef9c603          	lbu	a2,1007(s3)
   1bd8e:	3f09a683          	lw	a3,1008(s3)
   1bd92:	3f49a703          	lw	a4,1012(s3)
   1bd96:	3f89a783          	lw	a5,1016(s3)
   1bd9a:	3fc9a483          	lw	s1,1020(s3)
   1bd9e:	4009a403          	lw	s0,1024(s3)
   1bda2:	38e9a823          	sw	a4,912(s3)
   1bda6:	38f9aa23          	sw	a5,916(s3)
   1bdaa:	3899ac23          	sw	s1,920(s3)
   1bdae:	3889ae23          	sw	s0,924(s3)
   1bdb2:	4049a703          	lw	a4,1028(s3)
   1bdb6:	4089a783          	lw	a5,1032(s3)
   1bdba:	40c99483          	lh	s1,1036(s3)
   1bdbe:	40e9c403          	lbu	s0,1038(s3)
   1bdc2:	05a2                	slli	a1,a1,0x8
   1bdc4:	3ae9a023          	sw	a4,928(s3)
   1bdc8:	3af9a223          	sw	a5,932(s3)
   1bdcc:	3a999423          	sh	s1,936(s3)
   1bdd0:	3a898523          	sb	s0,938(s3)
   1bdd4:	0186d713          	srli	a4,a3,0x18
   1bdd8:	8d4d                	or	a0,a0,a1
   1bdda:	0106d593          	srli	a1,a3,0x10
   1bdde:	5cb104a3          	sb	a1,1481(sp)
   1bde2:	5ce10523          	sb	a4,1482(sp)
   1bde6:	0086d593          	srli	a1,a3,0x8
   1bdea:	5ca11223          	sh	a0,1476(sp)
   1bdee:	5cc10323          	sb	a2,1478(sp)
   1bdf2:	5cd103a3          	sb	a3,1479(sp)
   1bdf6:	5cb10423          	sb	a1,1480(sp)
   1bdfa:	5cb10513          	addi	a0,sp,1483
   1bdfe:	6585                	lui	a1,0x1
   1be00:	33058593          	addi	a1,a1,816 # 1330 <.Lline_table_start1+0x1105>
   1be04:	958a                	add	a1,a1,sp
   1be06:	466d                	li	a2,27
   1be08:	00002097          	auipc	ra,0x2
   1be0c:	70c080e7          	jalr	1804(ra) # 1e514 <memcpy>
   1be10:	6505                	lui	a0,0x1
   1be12:	38c50513          	addi	a0,a0,908 # 138c <.Lline_table_start1+0x1161>
   1be16:	950a                	add	a0,a0,sp
   1be18:	5c410593          	addi	a1,sp,1476
   1be1c:	ffffc097          	auipc	ra,0xffffc
   1be20:	a58080e7          	jalr	-1448(ra) # 17874 <_ZN20complex_dynamic_type3app17hb625a8a9b57bca05E>
   1be24:	3ec9c503          	lbu	a0,1004(s3)
   1be28:	c119                	beqz	a0,1be2e <_start+0x200e>
   1be2a:	5e00206f          	j	1e40a <_start+0x45ea>
   1be2e:	3ee9c503          	lbu	a0,1006(s3)
   1be32:	3ed9c583          	lbu	a1,1005(s3)
   1be36:	3ef9c603          	lbu	a2,1007(s3)
   1be3a:	3f09a403          	lw	s0,1008(s3)
   1be3e:	0522                	slli	a0,a0,0x8
   1be40:	8d4d                	or	a0,a0,a1
   1be42:	5ea11323          	sh	a0,1510(sp)
   1be46:	5ec10423          	sb	a2,1512(sp)
   1be4a:	6505                	lui	a0,0x1
   1be4c:	39450513          	addi	a0,a0,916 # 1394 <.Lline_table_start1+0x1169>
   1be50:	00a105b3          	add	a1,sp,a0
   1be54:	6505                	lui	a0,0x1
   1be56:	33050513          	addi	a0,a0,816 # 1330 <.Lline_table_start1+0x1105>
   1be5a:	950a                	add	a0,a0,sp
   1be5c:	04a00613          	li	a2,74
   1be60:	00002097          	auipc	ra,0x2
   1be64:	6b4080e7          	jalr	1716(ra) # 1e514 <memcpy>
   1be68:	01845513          	srli	a0,s0,0x18
   1be6c:	01045593          	srli	a1,s0,0x10
   1be70:	00845613          	srli	a2,s0,0x8
   1be74:	5e8104a3          	sb	s0,1513(sp)
   1be78:	5ec10523          	sb	a2,1514(sp)
   1be7c:	5eb105a3          	sb	a1,1515(sp)
   1be80:	5ea10623          	sb	a0,1516(sp)
   1be84:	5ed10513          	addi	a0,sp,1517
   1be88:	6585                	lui	a1,0x1
   1be8a:	33058593          	addi	a1,a1,816 # 1330 <.Lline_table_start1+0x1105>
   1be8e:	958a                	add	a1,a1,sp
   1be90:	04a00613          	li	a2,74
   1be94:	00002097          	auipc	ra,0x2
   1be98:	680080e7          	jalr	1664(ra) # 1e514 <memcpy>
   1be9c:	6505                	lui	a0,0x1
   1be9e:	38c50513          	addi	a0,a0,908 # 138c <.Lline_table_start1+0x1161>
   1bea2:	950a                	add	a0,a0,sp
   1bea4:	5e610593          	addi	a1,sp,1510
   1bea8:	ffffd097          	auipc	ra,0xffffd
   1beac:	d6e080e7          	jalr	-658(ra) # 18c16 <_ZN20complex_dynamic_type3app17he0db423540791047E>
   1beb0:	3ec9c503          	lbu	a0,1004(s3)
   1beb4:	c119                	beqz	a0,1beba <_start+0x209a>
   1beb6:	5540206f          	j	1e40a <_start+0x45ea>
   1beba:	3ee9c503          	lbu	a0,1006(s3)
   1bebe:	3ed9c583          	lbu	a1,1005(s3)
   1bec2:	3ef9c603          	lbu	a2,1007(s3)
   1bec6:	3f09a403          	lw	s0,1008(s3)
   1beca:	0522                	slli	a0,a0,0x8
   1becc:	8d4d                	or	a0,a0,a1
   1bece:	62a11c23          	sh	a0,1592(sp)
   1bed2:	62c10d23          	sb	a2,1594(sp)
   1bed6:	6505                	lui	a0,0x1
   1bed8:	39450513          	addi	a0,a0,916 # 1394 <.Lline_table_start1+0x1169>
   1bedc:	00a105b3          	add	a1,sp,a0
   1bee0:	6505                	lui	a0,0x1
   1bee2:	33050513          	addi	a0,a0,816 # 1330 <.Lline_table_start1+0x1105>
   1bee6:	950a                	add	a0,a0,sp
   1bee8:	04800613          	li	a2,72
   1beec:	00002097          	auipc	ra,0x2
   1bef0:	628080e7          	jalr	1576(ra) # 1e514 <memcpy>
   1bef4:	01845513          	srli	a0,s0,0x18
   1bef8:	01045593          	srli	a1,s0,0x10
   1befc:	00845613          	srli	a2,s0,0x8
   1bf00:	62810da3          	sb	s0,1595(sp)
   1bf04:	62c10e23          	sb	a2,1596(sp)
   1bf08:	62b10ea3          	sb	a1,1597(sp)
   1bf0c:	62a10f23          	sb	a0,1598(sp)
   1bf10:	63f10513          	addi	a0,sp,1599
   1bf14:	6585                	lui	a1,0x1
   1bf16:	33058593          	addi	a1,a1,816 # 1330 <.Lline_table_start1+0x1105>
   1bf1a:	958a                	add	a1,a1,sp
   1bf1c:	04800613          	li	a2,72
   1bf20:	00002097          	auipc	ra,0x2
   1bf24:	5f4080e7          	jalr	1524(ra) # 1e514 <memcpy>
   1bf28:	6505                	lui	a0,0x1
   1bf2a:	38c50513          	addi	a0,a0,908 # 138c <.Lline_table_start1+0x1161>
   1bf2e:	950a                	add	a0,a0,sp
   1bf30:	63810593          	addi	a1,sp,1592
   1bf34:	ffffa097          	auipc	ra,0xffffa
   1bf38:	2c0080e7          	jalr	704(ra) # 161f4 <_ZN20complex_dynamic_type3app17h92d4c5f690b15731E>
   1bf3c:	3ec9c503          	lbu	a0,1004(s3)
   1bf40:	c119                	beqz	a0,1bf46 <_start+0x2126>
   1bf42:	4c80206f          	j	1e40a <_start+0x45ea>
   1bf46:	3ee9c503          	lbu	a0,1006(s3)
   1bf4a:	3ed9c583          	lbu	a1,1005(s3)
   1bf4e:	3ef9c603          	lbu	a2,1007(s3)
   1bf52:	3f09a403          	lw	s0,1008(s3)
   1bf56:	0522                	slli	a0,a0,0x8
   1bf58:	8d4d                	or	a0,a0,a1
   1bf5a:	68a11423          	sh	a0,1672(sp)
   1bf5e:	68c10523          	sb	a2,1674(sp)
   1bf62:	6505                	lui	a0,0x1
   1bf64:	39450513          	addi	a0,a0,916 # 1394 <.Lline_table_start1+0x1169>
   1bf68:	00a105b3          	add	a1,sp,a0
   1bf6c:	6505                	lui	a0,0x1
   1bf6e:	33050513          	addi	a0,a0,816 # 1330 <.Lline_table_start1+0x1105>
   1bf72:	950a                	add	a0,a0,sp
   1bf74:	03400613          	li	a2,52
   1bf78:	00002097          	auipc	ra,0x2
   1bf7c:	59c080e7          	jalr	1436(ra) # 1e514 <memcpy>
   1bf80:	01845513          	srli	a0,s0,0x18
   1bf84:	01045593          	srli	a1,s0,0x10
   1bf88:	00845613          	srli	a2,s0,0x8
   1bf8c:	688105a3          	sb	s0,1675(sp)
   1bf90:	68c10623          	sb	a2,1676(sp)
   1bf94:	68b106a3          	sb	a1,1677(sp)
   1bf98:	68a10723          	sb	a0,1678(sp)
   1bf9c:	68f10513          	addi	a0,sp,1679
   1bfa0:	6585                	lui	a1,0x1
   1bfa2:	33058593          	addi	a1,a1,816 # 1330 <.Lline_table_start1+0x1105>
   1bfa6:	958a                	add	a1,a1,sp
   1bfa8:	03400613          	li	a2,52
   1bfac:	00002097          	auipc	ra,0x2
   1bfb0:	568080e7          	jalr	1384(ra) # 1e514 <memcpy>
   1bfb4:	6505                	lui	a0,0x1
   1bfb6:	38c50513          	addi	a0,a0,908 # 138c <.Lline_table_start1+0x1161>
   1bfba:	950a                	add	a0,a0,sp
   1bfbc:	68810593          	addi	a1,sp,1672
   1bfc0:	ffff5097          	auipc	ra,0xffff5
   1bfc4:	474080e7          	jalr	1140(ra) # 11434 <_ZN20complex_dynamic_type3app17h0656d1ef36d80701E>
   1bfc8:	3ec9c503          	lbu	a0,1004(s3)
   1bfcc:	c119                	beqz	a0,1bfd2 <_start+0x21b2>
   1bfce:	43c0206f          	j	1e40a <_start+0x45ea>
   1bfd2:	3ed9c503          	lbu	a0,1005(s3)
   1bfd6:	3ee9c583          	lbu	a1,1006(s3)
   1bfda:	3ef9c603          	lbu	a2,1007(s3)
   1bfde:	3f09a683          	lw	a3,1008(s3)
   1bfe2:	3f49a703          	lw	a4,1012(s3)
   1bfe6:	3f89a783          	lw	a5,1016(s3)
   1bfea:	3fc9a483          	lw	s1,1020(s3)
   1bfee:	4009a403          	lw	s0,1024(s3)
   1bff2:	38e9a823          	sw	a4,912(s3)
   1bff6:	38f9aa23          	sw	a5,916(s3)
   1bffa:	3899ac23          	sw	s1,920(s3)
   1bffe:	3889ae23          	sw	s0,924(s3)
   1c002:	4049a703          	lw	a4,1028(s3)
   1c006:	4089a783          	lw	a5,1032(s3)
   1c00a:	40c9a483          	lw	s1,1036(s3)
   1c00e:	4109a403          	lw	s0,1040(s3)
   1c012:	05a2                	slli	a1,a1,0x8
   1c014:	3ae9a023          	sw	a4,928(s3)
   1c018:	3af9a223          	sw	a5,932(s3)
   1c01c:	3a99a423          	sw	s1,936(s3)
   1c020:	3a89a623          	sw	s0,940(s3)
   1c024:	0186d713          	srli	a4,a3,0x18
   1c028:	8d4d                	or	a0,a0,a1
   1c02a:	0106d593          	srli	a1,a3,0x10
   1c02e:	6cb104a3          	sb	a1,1737(sp)
   1c032:	6ce10523          	sb	a4,1738(sp)
   1c036:	0086d593          	srli	a1,a3,0x8
   1c03a:	6ca11223          	sh	a0,1732(sp)
   1c03e:	6cc10323          	sb	a2,1734(sp)
   1c042:	6cd103a3          	sb	a3,1735(sp)
   1c046:	6cb10423          	sb	a1,1736(sp)
   1c04a:	6cb10513          	addi	a0,sp,1739
   1c04e:	6585                	lui	a1,0x1
   1c050:	33058593          	addi	a1,a1,816 # 1330 <.Lline_table_start1+0x1105>
   1c054:	958a                	add	a1,a1,sp
   1c056:	02000613          	li	a2,32
   1c05a:	00002097          	auipc	ra,0x2
   1c05e:	4ba080e7          	jalr	1210(ra) # 1e514 <memcpy>
   1c062:	6505                	lui	a0,0x1
   1c064:	38c50513          	addi	a0,a0,908 # 138c <.Lline_table_start1+0x1161>
   1c068:	950a                	add	a0,a0,sp
   1c06a:	6c410593          	addi	a1,sp,1732
   1c06e:	ffff9097          	auipc	ra,0xffff9
   1c072:	b18080e7          	jalr	-1256(ra) # 14b86 <_ZN20complex_dynamic_type3app17h73fb014b4f814c14E>
   1c076:	3ec9c503          	lbu	a0,1004(s3)
   1c07a:	c119                	beqz	a0,1c080 <_start+0x2260>
   1c07c:	38e0206f          	j	1e40a <_start+0x45ea>
   1c080:	3ed9c503          	lbu	a0,1005(s3)
   1c084:	3ee9c583          	lbu	a1,1006(s3)
   1c088:	3ef9c603          	lbu	a2,1007(s3)
   1c08c:	3f09a683          	lw	a3,1008(s3)
   1c090:	3f49a703          	lw	a4,1012(s3)
   1c094:	3f89a783          	lw	a5,1016(s3)
   1c098:	3fc9a483          	lw	s1,1020(s3)
   1c09c:	4009c403          	lbu	s0,1024(s3)
   1c0a0:	05a2                	slli	a1,a1,0x8
   1c0a2:	38e9a823          	sw	a4,912(s3)
   1c0a6:	38f9aa23          	sw	a5,916(s3)
   1c0aa:	3899ac23          	sw	s1,920(s3)
   1c0ae:	38898e23          	sb	s0,924(s3)
   1c0b2:	0186d713          	srli	a4,a3,0x18
   1c0b6:	8d4d                	or	a0,a0,a1
   1c0b8:	0106d593          	srli	a1,a3,0x10
   1c0bc:	6eb108a3          	sb	a1,1777(sp)
   1c0c0:	6ee10923          	sb	a4,1778(sp)
   1c0c4:	0086d593          	srli	a1,a3,0x8
   1c0c8:	6ea11623          	sh	a0,1772(sp)
   1c0cc:	6ec10723          	sb	a2,1774(sp)
   1c0d0:	6ed107a3          	sb	a3,1775(sp)
   1c0d4:	6eb10823          	sb	a1,1776(sp)
   1c0d8:	6f310513          	addi	a0,sp,1779
   1c0dc:	6585                	lui	a1,0x1
   1c0de:	33058593          	addi	a1,a1,816 # 1330 <.Lline_table_start1+0x1105>
   1c0e2:	958a                	add	a1,a1,sp
   1c0e4:	4635                	li	a2,13
   1c0e6:	00002097          	auipc	ra,0x2
   1c0ea:	42e080e7          	jalr	1070(ra) # 1e514 <memcpy>
   1c0ee:	6505                	lui	a0,0x1
   1c0f0:	38c50513          	addi	a0,a0,908 # 138c <.Lline_table_start1+0x1161>
   1c0f4:	950a                	add	a0,a0,sp
   1c0f6:	6ec10593          	addi	a1,sp,1772
   1c0fa:	ffff9097          	auipc	ra,0xffff9
   1c0fe:	07c080e7          	jalr	124(ra) # 15176 <_ZN20complex_dynamic_type3app17h79e1004b7011b048E>
   1c102:	3ec9c503          	lbu	a0,1004(s3)
   1c106:	c119                	beqz	a0,1c10c <_start+0x22ec>
   1c108:	3020206f          	j	1e40a <_start+0x45ea>
   1c10c:	3ee9c503          	lbu	a0,1006(s3)
   1c110:	3ed9c583          	lbu	a1,1005(s3)
   1c114:	3ef9c603          	lbu	a2,1007(s3)
   1c118:	3f09a403          	lw	s0,1008(s3)
   1c11c:	0522                	slli	a0,a0,0x8
   1c11e:	8d4d                	or	a0,a0,a1
   1c120:	70a11023          	sh	a0,1792(sp)
   1c124:	70c10123          	sb	a2,1794(sp)
   1c128:	6505                	lui	a0,0x1
   1c12a:	39450513          	addi	a0,a0,916 # 1394 <.Lline_table_start1+0x1169>
   1c12e:	00a105b3          	add	a1,sp,a0
   1c132:	6505                	lui	a0,0x1
   1c134:	33050513          	addi	a0,a0,816 # 1330 <.Lline_table_start1+0x1105>
   1c138:	950a                	add	a0,a0,sp
   1c13a:	02400613          	li	a2,36
   1c13e:	00002097          	auipc	ra,0x2
   1c142:	3d6080e7          	jalr	982(ra) # 1e514 <memcpy>
   1c146:	01845513          	srli	a0,s0,0x18
   1c14a:	01045593          	srli	a1,s0,0x10
   1c14e:	00845613          	srli	a2,s0,0x8
   1c152:	708101a3          	sb	s0,1795(sp)
   1c156:	70c10223          	sb	a2,1796(sp)
   1c15a:	70b102a3          	sb	a1,1797(sp)
   1c15e:	70a10323          	sb	a0,1798(sp)
   1c162:	70710513          	addi	a0,sp,1799
   1c166:	6585                	lui	a1,0x1
   1c168:	33058593          	addi	a1,a1,816 # 1330 <.Lline_table_start1+0x1105>
   1c16c:	958a                	add	a1,a1,sp
   1c16e:	02400613          	li	a2,36
   1c172:	00002097          	auipc	ra,0x2
   1c176:	3a2080e7          	jalr	930(ra) # 1e514 <memcpy>
   1c17a:	6505                	lui	a0,0x1
   1c17c:	38c50513          	addi	a0,a0,908 # 138c <.Lline_table_start1+0x1161>
   1c180:	950a                	add	a0,a0,sp
   1c182:	70010593          	addi	a1,sp,1792
   1c186:	ffff9097          	auipc	ra,0xffff9
   1c18a:	e82080e7          	jalr	-382(ra) # 15008 <_ZN20complex_dynamic_type3app17h778ed7f5694907afE>
   1c18e:	3ec9c503          	lbu	a0,1004(s3)
   1c192:	c119                	beqz	a0,1c198 <_start+0x2378>
   1c194:	2760206f          	j	1e40a <_start+0x45ea>
   1c198:	3ed9c503          	lbu	a0,1005(s3)
   1c19c:	3ee9c583          	lbu	a1,1006(s3)
   1c1a0:	3ef9c603          	lbu	a2,1007(s3)
   1c1a4:	3f09a683          	lw	a3,1008(s3)
   1c1a8:	3f49a703          	lw	a4,1012(s3)
   1c1ac:	3f89a783          	lw	a5,1016(s3)
   1c1b0:	3fc9a483          	lw	s1,1020(s3)
   1c1b4:	4009a403          	lw	s0,1024(s3)
   1c1b8:	38e9a823          	sw	a4,912(s3)
   1c1bc:	38f9aa23          	sw	a5,916(s3)
   1c1c0:	3899ac23          	sw	s1,920(s3)
   1c1c4:	3889ae23          	sw	s0,924(s3)
   1c1c8:	4049a703          	lw	a4,1028(s3)
   1c1cc:	40899783          	lh	a5,1032(s3)
   1c1d0:	40a9c483          	lbu	s1,1034(s3)
   1c1d4:	05a2                	slli	a1,a1,0x8
   1c1d6:	3ae9a023          	sw	a4,928(s3)
   1c1da:	3af99223          	sh	a5,932(s3)
   1c1de:	3a998323          	sb	s1,934(s3)
   1c1e2:	0186d713          	srli	a4,a3,0x18
   1c1e6:	8d4d                	or	a0,a0,a1
   1c1e8:	0106d593          	srli	a1,a3,0x10
   1c1ec:	72b108a3          	sb	a1,1841(sp)
   1c1f0:	72e10923          	sb	a4,1842(sp)
   1c1f4:	0086d593          	srli	a1,a3,0x8
   1c1f8:	72a11623          	sh	a0,1836(sp)
   1c1fc:	72c10723          	sb	a2,1838(sp)
   1c200:	72d107a3          	sb	a3,1839(sp)
   1c204:	72b10823          	sb	a1,1840(sp)
   1c208:	73310513          	addi	a0,sp,1843
   1c20c:	6585                	lui	a1,0x1
   1c20e:	33058593          	addi	a1,a1,816 # 1330 <.Lline_table_start1+0x1105>
   1c212:	958a                	add	a1,a1,sp
   1c214:	465d                	li	a2,23
   1c216:	00002097          	auipc	ra,0x2
   1c21a:	2fe080e7          	jalr	766(ra) # 1e514 <memcpy>
   1c21e:	6505                	lui	a0,0x1
   1c220:	38c50513          	addi	a0,a0,908 # 138c <.Lline_table_start1+0x1161>
   1c224:	950a                	add	a0,a0,sp
   1c226:	72c10593          	addi	a1,sp,1836
   1c22a:	ffff8097          	auipc	ra,0xffff8
   1c22e:	4e6080e7          	jalr	1254(ra) # 14710 <_ZN20complex_dynamic_type3app17h6dab2450788c2651E>
   1c232:	3ec9c503          	lbu	a0,1004(s3)
   1c236:	c119                	beqz	a0,1c23c <_start+0x241c>
   1c238:	1d20206f          	j	1e40a <_start+0x45ea>
   1c23c:	3ee9c503          	lbu	a0,1006(s3)
   1c240:	3ed9c583          	lbu	a1,1005(s3)
   1c244:	3ef9c603          	lbu	a2,1007(s3)
   1c248:	3f09a403          	lw	s0,1008(s3)
   1c24c:	0522                	slli	a0,a0,0x8
   1c24e:	8d4d                	or	a0,a0,a1
   1c250:	74a11523          	sh	a0,1866(sp)
   1c254:	74c10623          	sb	a2,1868(sp)
   1c258:	6505                	lui	a0,0x1
   1c25a:	39450513          	addi	a0,a0,916 # 1394 <.Lline_table_start1+0x1169>
   1c25e:	00a105b3          	add	a1,sp,a0
   1c262:	6505                	lui	a0,0x1
   1c264:	33050513          	addi	a0,a0,816 # 1330 <.Lline_table_start1+0x1105>
   1c268:	950a                	add	a0,a0,sp
   1c26a:	04a00613          	li	a2,74
   1c26e:	00002097          	auipc	ra,0x2
   1c272:	2a6080e7          	jalr	678(ra) # 1e514 <memcpy>
   1c276:	01845513          	srli	a0,s0,0x18
   1c27a:	01045593          	srli	a1,s0,0x10
   1c27e:	00845613          	srli	a2,s0,0x8
   1c282:	748106a3          	sb	s0,1869(sp)
   1c286:	74c10723          	sb	a2,1870(sp)
   1c28a:	74b107a3          	sb	a1,1871(sp)
   1c28e:	74a10823          	sb	a0,1872(sp)
   1c292:	75110513          	addi	a0,sp,1873
   1c296:	6585                	lui	a1,0x1
   1c298:	33058593          	addi	a1,a1,816 # 1330 <.Lline_table_start1+0x1105>
   1c29c:	958a                	add	a1,a1,sp
   1c29e:	04a00613          	li	a2,74
   1c2a2:	00002097          	auipc	ra,0x2
   1c2a6:	272080e7          	jalr	626(ra) # 1e514 <memcpy>
   1c2aa:	6505                	lui	a0,0x1
   1c2ac:	38c50513          	addi	a0,a0,908 # 138c <.Lline_table_start1+0x1161>
   1c2b0:	950a                	add	a0,a0,sp
   1c2b2:	74a10593          	addi	a1,sp,1866
   1c2b6:	ffffd097          	auipc	ra,0xffffd
   1c2ba:	6e2080e7          	jalr	1762(ra) # 19998 <_ZN20complex_dynamic_type3app17hfa070aca755f3055E>
   1c2be:	3ec9c503          	lbu	a0,1004(s3)
   1c2c2:	c119                	beqz	a0,1c2c8 <_start+0x24a8>
   1c2c4:	1460206f          	j	1e40a <_start+0x45ea>
   1c2c8:	79e10413          	addi	s0,sp,1950
   1c2cc:	3ed9c303          	lbu	t1,1005(s3)
   1c2d0:	3ee9c583          	lbu	a1,1006(s3)
   1c2d4:	3ef9c803          	lbu	a6,1007(s3)
   1c2d8:	3f09a683          	lw	a3,1008(s3)
   1c2dc:	3f49a703          	lw	a4,1012(s3)
   1c2e0:	3f89a783          	lw	a5,1016(s3)
   1c2e4:	05a2                	slli	a1,a1,0x8
   1c2e6:	0186d893          	srli	a7,a3,0x18
   1c2ea:	0106d293          	srli	t0,a3,0x10
   1c2ee:	0187d493          	srli	s1,a5,0x18
   1c2f2:	0107d613          	srli	a2,a5,0x10
   1c2f6:	0087d513          	srli	a0,a5,0x8
   1c2fa:	0065e333          	or	t1,a1,t1
   1c2fe:	01875593          	srli	a1,a4,0x18
   1c302:	00c405a3          	sb	a2,11(s0)
   1c306:	00940623          	sb	s1,12(s0)
   1c30a:	01075613          	srli	a2,a4,0x10
   1c30e:	00c403a3          	sb	a2,7(s0)
   1c312:	00b40423          	sb	a1,8(s0)
   1c316:	00f404a3          	sb	a5,9(s0)
   1c31a:	00a40523          	sb	a0,10(s0)
   1c31e:	0086d513          	srli	a0,a3,0x8
   1c322:	fe641f23          	sh	t1,-2(s0)
   1c326:	01040023          	sb	a6,0(s0)
   1c32a:	00d400a3          	sb	a3,1(s0)
   1c32e:	00a40123          	sb	a0,2(s0)
   1c332:	00875513          	srli	a0,a4,0x8
   1c336:	005401a3          	sb	t0,3(s0)
   1c33a:	01140223          	sb	a7,4(s0)
   1c33e:	00e402a3          	sb	a4,5(s0)
   1c342:	00a40323          	sb	a0,6(s0)
   1c346:	6505                	lui	a0,0x1
   1c348:	38c50513          	addi	a0,a0,908 # 138c <.Lline_table_start1+0x1161>
   1c34c:	950a                	add	a0,a0,sp
   1c34e:	79c10593          	addi	a1,sp,1948
   1c352:	ffff5097          	auipc	ra,0xffff5
   1c356:	de2080e7          	jalr	-542(ra) # 11134 <_ZN20complex_dynamic_type3app17h019e5089ef3bcfedE>
   1c35a:	3ec9c503          	lbu	a0,1004(s3)
   1c35e:	c119                	beqz	a0,1c364 <_start+0x2544>
   1c360:	0aa0206f          	j	1e40a <_start+0x45ea>
   1c364:	3ee9c503          	lbu	a0,1006(s3)
   1c368:	3ed9c583          	lbu	a1,1005(s3)
   1c36c:	3ef9c603          	lbu	a2,1007(s3)
   1c370:	3f09a483          	lw	s1,1008(s3)
   1c374:	0522                	slli	a0,a0,0x8
   1c376:	8d4d                	or	a0,a0,a1
   1c378:	00a41723          	sh	a0,14(s0)
   1c37c:	00c40823          	sb	a2,16(s0)
   1c380:	6505                	lui	a0,0x1
   1c382:	39450513          	addi	a0,a0,916 # 1394 <.Lline_table_start1+0x1169>
   1c386:	00a105b3          	add	a1,sp,a0
   1c38a:	6505                	lui	a0,0x1
   1c38c:	33050513          	addi	a0,a0,816 # 1330 <.Lline_table_start1+0x1105>
   1c390:	950a                	add	a0,a0,sp
   1c392:	03f00613          	li	a2,63
   1c396:	00002097          	auipc	ra,0x2
   1c39a:	17e080e7          	jalr	382(ra) # 1e514 <memcpy>
   1c39e:	0184d513          	srli	a0,s1,0x18
   1c3a2:	0104d593          	srli	a1,s1,0x10
   1c3a6:	0084d613          	srli	a2,s1,0x8
   1c3aa:	009408a3          	sb	s1,17(s0)
   1c3ae:	00c40923          	sb	a2,18(s0)
   1c3b2:	00b409a3          	sb	a1,19(s0)
   1c3b6:	00a40a23          	sb	a0,20(s0)
   1c3ba:	7b310513          	addi	a0,sp,1971
   1c3be:	6585                	lui	a1,0x1
   1c3c0:	33058593          	addi	a1,a1,816 # 1330 <.Lline_table_start1+0x1105>
   1c3c4:	958a                	add	a1,a1,sp
   1c3c6:	03f00613          	li	a2,63
   1c3ca:	00002097          	auipc	ra,0x2
   1c3ce:	14a080e7          	jalr	330(ra) # 1e514 <memcpy>
   1c3d2:	6505                	lui	a0,0x1
   1c3d4:	38c50513          	addi	a0,a0,908 # 138c <.Lline_table_start1+0x1161>
   1c3d8:	950a                	add	a0,a0,sp
   1c3da:	7ac10593          	addi	a1,sp,1964
   1c3de:	ffffb097          	auipc	ra,0xffffb
   1c3e2:	b84080e7          	jalr	-1148(ra) # 16f62 <_ZN20complex_dynamic_type3app17hac28b02b68137eabE>
   1c3e6:	3ec9c503          	lbu	a0,1004(s3)
   1c3ea:	c119                	beqz	a0,1c3f0 <_start+0x25d0>
   1c3ec:	01e0206f          	j	1e40a <_start+0x45ea>
   1c3f0:	3ee9c503          	lbu	a0,1006(s3)
   1c3f4:	3ed9c583          	lbu	a1,1005(s3)
   1c3f8:	3ef9c603          	lbu	a2,1007(s3)
   1c3fc:	3f09a483          	lw	s1,1008(s3)
   1c400:	0522                	slli	a0,a0,0x8
   1c402:	8d4d                	or	a0,a0,a1
   1c404:	04a41a23          	sh	a0,84(s0)
   1c408:	04c40b23          	sb	a2,86(s0)
   1c40c:	6505                	lui	a0,0x1
   1c40e:	39450513          	addi	a0,a0,916 # 1394 <.Lline_table_start1+0x1169>
   1c412:	00a105b3          	add	a1,sp,a0
   1c416:	6505                	lui	a0,0x1
   1c418:	33050513          	addi	a0,a0,816 # 1330 <.Lline_table_start1+0x1105>
   1c41c:	950a                	add	a0,a0,sp
   1c41e:	04f00613          	li	a2,79
   1c422:	00002097          	auipc	ra,0x2
   1c426:	0f2080e7          	jalr	242(ra) # 1e514 <memcpy>
   1c42a:	0184d513          	srli	a0,s1,0x18
   1c42e:	0104d593          	srli	a1,s1,0x10
   1c432:	0084d613          	srli	a2,s1,0x8
   1c436:	04940ba3          	sb	s1,87(s0)
   1c43a:	04c40c23          	sb	a2,88(s0)
   1c43e:	04b40ca3          	sb	a1,89(s0)
   1c442:	04a40d23          	sb	a0,90(s0)
   1c446:	7f910513          	addi	a0,sp,2041
   1c44a:	6585                	lui	a1,0x1
   1c44c:	33058593          	addi	a1,a1,816 # 1330 <.Lline_table_start1+0x1105>
   1c450:	958a                	add	a1,a1,sp
   1c452:	04f00613          	li	a2,79
   1c456:	00002097          	auipc	ra,0x2
   1c45a:	0be080e7          	jalr	190(ra) # 1e514 <memcpy>
   1c45e:	6505                	lui	a0,0x1
   1c460:	38c50513          	addi	a0,a0,908 # 138c <.Lline_table_start1+0x1161>
   1c464:	950a                	add	a0,a0,sp
   1c466:	7f210593          	addi	a1,sp,2034
   1c46a:	ffff8097          	auipc	ra,0xffff8
   1c46e:	b40080e7          	jalr	-1216(ra) # 13faa <_ZN20complex_dynamic_type3app17h52f2b80f03f5e511E>
   1c472:	3ec9c503          	lbu	a0,1004(s3)
   1c476:	c119                	beqz	a0,1c47c <_start+0x265c>
   1c478:	7930106f          	j	1e40a <_start+0x45ea>
   1c47c:	3ee9c503          	lbu	a0,1006(s3)
   1c480:	3ed9c583          	lbu	a1,1005(s3)
   1c484:	3ef9c603          	lbu	a2,1007(s3)
   1c488:	3f09a483          	lw	s1,1008(s3)
   1c48c:	0522                	slli	a0,a0,0x8
   1c48e:	8d4d                	or	a0,a0,a1
   1c490:	0aa41523          	sh	a0,170(s0)
   1c494:	0ac40623          	sb	a2,172(s0)
   1c498:	6505                	lui	a0,0x1
   1c49a:	39450513          	addi	a0,a0,916 # 1394 <.Lline_table_start1+0x1169>
   1c49e:	00a105b3          	add	a1,sp,a0
   1c4a2:	6505                	lui	a0,0x1
   1c4a4:	33050513          	addi	a0,a0,816 # 1330 <.Lline_table_start1+0x1105>
   1c4a8:	950a                	add	a0,a0,sp
   1c4aa:	04200613          	li	a2,66
   1c4ae:	00002097          	auipc	ra,0x2
   1c4b2:	066080e7          	jalr	102(ra) # 1e514 <memcpy>
   1c4b6:	0184d513          	srli	a0,s1,0x18
   1c4ba:	0104d593          	srli	a1,s1,0x10
   1c4be:	0084d613          	srli	a2,s1,0x8
   1c4c2:	0a9406a3          	sb	s1,173(s0)
   1c4c6:	0ac40723          	sb	a2,174(s0)
   1c4ca:	0ab407a3          	sb	a1,175(s0)
   1c4ce:	0aa40823          	sb	a0,176(s0)
   1c4d2:	7ff10513          	addi	a0,sp,2047
   1c4d6:	05050513          	addi	a0,a0,80
   1c4da:	6585                	lui	a1,0x1
   1c4dc:	33058593          	addi	a1,a1,816 # 1330 <.Lline_table_start1+0x1105>
   1c4e0:	958a                	add	a1,a1,sp
   1c4e2:	04200613          	li	a2,66
   1c4e6:	00002097          	auipc	ra,0x2
   1c4ea:	02e080e7          	jalr	46(ra) # 1e514 <memcpy>
   1c4ee:	6505                	lui	a0,0x1
   1c4f0:	38c50513          	addi	a0,a0,908 # 138c <.Lline_table_start1+0x1161>
   1c4f4:	950a                	add	a0,a0,sp
   1c4f6:	7ff10593          	addi	a1,sp,2047
   1c4fa:	04958593          	addi	a1,a1,73
   1c4fe:	ffff7097          	auipc	ra,0xffff7
   1c502:	eb4080e7          	jalr	-332(ra) # 133b2 <_ZN20complex_dynamic_type3app17h3f5dc15ff8ba05beE>
   1c506:	3ec9c503          	lbu	a0,1004(s3)
   1c50a:	c119                	beqz	a0,1c510 <_start+0x26f0>
   1c50c:	6ff0106f          	j	1e40a <_start+0x45ea>
   1c510:	3ed9c503          	lbu	a0,1005(s3)
   1c514:	3ee9c583          	lbu	a1,1006(s3)
   1c518:	3ef9c803          	lbu	a6,1007(s3)
   1c51c:	3f09a683          	lw	a3,1008(s3)
   1c520:	3f49a703          	lw	a4,1012(s3)
   1c524:	3f89a783          	lw	a5,1016(s3)
   1c528:	3fc9a483          	lw	s1,1020(s3)
   1c52c:	4009a603          	lw	a2,1024(s3)
   1c530:	38e9a823          	sw	a4,912(s3)
   1c534:	38f9aa23          	sw	a5,916(s3)
   1c538:	3899ac23          	sw	s1,920(s3)
   1c53c:	38c9ae23          	sw	a2,924(s3)
   1c540:	4049a603          	lw	a2,1028(s3)
   1c544:	4089a703          	lw	a4,1032(s3)
   1c548:	40c9a783          	lw	a5,1036(s3)
   1c54c:	05a2                	slli	a1,a1,0x8
   1c54e:	3ac9a023          	sw	a2,928(s3)
   1c552:	3ae9a223          	sw	a4,932(s3)
   1c556:	3af9a423          	sw	a5,936(s3)
   1c55a:	0186d613          	srli	a2,a3,0x18
   1c55e:	8d4d                	or	a0,a0,a1
   1c560:	0106d593          	srli	a1,a3,0x10
   1c564:	0eb40ca3          	sb	a1,249(s0)
   1c568:	0ec40d23          	sb	a2,250(s0)
   1c56c:	0086d593          	srli	a1,a3,0x8
   1c570:	0ea41a23          	sh	a0,244(s0)
   1c574:	0f040b23          	sb	a6,246(s0)
   1c578:	0ed40ba3          	sb	a3,247(s0)
   1c57c:	0eb40c23          	sb	a1,248(s0)
   1c580:	7ff10513          	addi	a0,sp,2047
   1c584:	09a50513          	addi	a0,a0,154
   1c588:	6585                	lui	a1,0x1
   1c58a:	33058593          	addi	a1,a1,816 # 1330 <.Lline_table_start1+0x1105>
   1c58e:	958a                	add	a1,a1,sp
   1c590:	4671                	li	a2,28
   1c592:	00002097          	auipc	ra,0x2
   1c596:	f82080e7          	jalr	-126(ra) # 1e514 <memcpy>
   1c59a:	6505                	lui	a0,0x1
   1c59c:	38c50513          	addi	a0,a0,908 # 138c <.Lline_table_start1+0x1161>
   1c5a0:	950a                	add	a0,a0,sp
   1c5a2:	7ff10593          	addi	a1,sp,2047
   1c5a6:	09358593          	addi	a1,a1,147
   1c5aa:	ffff7097          	auipc	ra,0xffff7
   1c5ae:	6fc080e7          	jalr	1788(ra) # 13ca6 <_ZN20complex_dynamic_type3app17h473b4399235cf610E>
   1c5b2:	3ec9c503          	lbu	a0,1004(s3)
   1c5b6:	c119                	beqz	a0,1c5bc <_start+0x279c>
   1c5b8:	6530106f          	j	1e40a <_start+0x45ea>
   1c5bc:	3ee9c503          	lbu	a0,1006(s3)
   1c5c0:	3ed9c583          	lbu	a1,1005(s3)
   1c5c4:	3ef9c603          	lbu	a2,1007(s3)
   1c5c8:	3f09a483          	lw	s1,1008(s3)
   1c5cc:	0522                	slli	a0,a0,0x8
   1c5ce:	8d4d                	or	a0,a0,a1
   1c5d0:	10a41c23          	sh	a0,280(s0)
   1c5d4:	10c40d23          	sb	a2,282(s0)
   1c5d8:	6505                	lui	a0,0x1
   1c5da:	39450513          	addi	a0,a0,916 # 1394 <.Lline_table_start1+0x1169>
   1c5de:	00a105b3          	add	a1,sp,a0
   1c5e2:	6505                	lui	a0,0x1
   1c5e4:	33050513          	addi	a0,a0,816 # 1330 <.Lline_table_start1+0x1105>
   1c5e8:	950a                	add	a0,a0,sp
   1c5ea:	02400613          	li	a2,36
   1c5ee:	00002097          	auipc	ra,0x2
   1c5f2:	f26080e7          	jalr	-218(ra) # 1e514 <memcpy>
   1c5f6:	0184d513          	srli	a0,s1,0x18
   1c5fa:	0104d593          	srli	a1,s1,0x10
   1c5fe:	0084d613          	srli	a2,s1,0x8
   1c602:	10940da3          	sb	s1,283(s0)
   1c606:	10c40e23          	sb	a2,284(s0)
   1c60a:	10b40ea3          	sb	a1,285(s0)
   1c60e:	10a40f23          	sb	a0,286(s0)
   1c612:	7ff10513          	addi	a0,sp,2047
   1c616:	0be50513          	addi	a0,a0,190
   1c61a:	6585                	lui	a1,0x1
   1c61c:	33058593          	addi	a1,a1,816 # 1330 <.Lline_table_start1+0x1105>
   1c620:	958a                	add	a1,a1,sp
   1c622:	02400613          	li	a2,36
   1c626:	00002097          	auipc	ra,0x2
   1c62a:	eee080e7          	jalr	-274(ra) # 1e514 <memcpy>
   1c62e:	6505                	lui	a0,0x1
   1c630:	38c50513          	addi	a0,a0,908 # 138c <.Lline_table_start1+0x1161>
   1c634:	950a                	add	a0,a0,sp
   1c636:	7ff10593          	addi	a1,sp,2047
   1c63a:	0b758593          	addi	a1,a1,183
   1c63e:	ffffa097          	auipc	ra,0xffffa
   1c642:	32a080e7          	jalr	810(ra) # 16968 <_ZN20complex_dynamic_type3app17ha04ca58a98d6ee0dE>
   1c646:	3ec9c503          	lbu	a0,1004(s3)
   1c64a:	c119                	beqz	a0,1c650 <_start+0x2830>
   1c64c:	5bf0106f          	j	1e40a <_start+0x45ea>
   1c650:	3ed9c503          	lbu	a0,1005(s3)
   1c654:	3ee9c583          	lbu	a1,1006(s3)
   1c658:	3f49a603          	lw	a2,1012(s3)
   1c65c:	3f899683          	lh	a3,1016(s3)
   1c660:	3ef9c703          	lbu	a4,1007(s3)
   1c664:	3f09a783          	lw	a5,1008(s3)
   1c668:	05a2                	slli	a1,a1,0x8
   1c66a:	38c9a823          	sw	a2,912(s3)
   1c66e:	38d99a23          	sh	a3,916(s3)
   1c672:	0187d693          	srli	a3,a5,0x18
   1c676:	0107d493          	srli	s1,a5,0x10
   1c67a:	8d4d                	or	a0,a0,a1
   1c67c:	0087d593          	srli	a1,a5,0x8
   1c680:	14a41223          	sh	a0,324(s0)
   1c684:	14e40323          	sb	a4,326(s0)
   1c688:	14f403a3          	sb	a5,327(s0)
   1c68c:	14b40423          	sb	a1,328(s0)
   1c690:	3919c503          	lbu	a0,913(s3)
   1c694:	3929c583          	lbu	a1,914(s3)
   1c698:	3939c703          	lbu	a4,915(s3)
   1c69c:	3949c783          	lbu	a5,916(s3)
   1c6a0:	149404a3          	sb	s1,329(s0)
   1c6a4:	14d40523          	sb	a3,330(s0)
   1c6a8:	14c405a3          	sb	a2,331(s0)
   1c6ac:	14a40623          	sb	a0,332(s0)
   1c6b0:	3959c503          	lbu	a0,917(s3)
   1c6b4:	14b406a3          	sb	a1,333(s0)
   1c6b8:	14e40723          	sb	a4,334(s0)
   1c6bc:	14f407a3          	sb	a5,335(s0)
   1c6c0:	14a40823          	sb	a0,336(s0)
   1c6c4:	6505                	lui	a0,0x1
   1c6c6:	38c50513          	addi	a0,a0,908 # 138c <.Lline_table_start1+0x1161>
   1c6ca:	950a                	add	a0,a0,sp
   1c6cc:	7ff10593          	addi	a1,sp,2047
   1c6d0:	0e358593          	addi	a1,a1,227
   1c6d4:	ffff8097          	auipc	ra,0xffff8
   1c6d8:	62e080e7          	jalr	1582(ra) # 14d02 <_ZN20complex_dynamic_type3app17h7560b516f4b4ad9aE>
   1c6dc:	3ec9c503          	lbu	a0,1004(s3)
   1c6e0:	c119                	beqz	a0,1c6e6 <_start+0x28c6>
   1c6e2:	5290106f          	j	1e40a <_start+0x45ea>
   1c6e6:	3ed9c503          	lbu	a0,1005(s3)
   1c6ea:	3ee9c583          	lbu	a1,1006(s3)
   1c6ee:	3ef9c803          	lbu	a6,1007(s3)
   1c6f2:	3f09a683          	lw	a3,1008(s3)
   1c6f6:	3f49a703          	lw	a4,1012(s3)
   1c6fa:	3f89a783          	lw	a5,1016(s3)
   1c6fe:	3fc9a483          	lw	s1,1020(s3)
   1c702:	4009a603          	lw	a2,1024(s3)
   1c706:	38e9a823          	sw	a4,912(s3)
   1c70a:	38f9aa23          	sw	a5,916(s3)
   1c70e:	3899ac23          	sw	s1,920(s3)
   1c712:	38c9ae23          	sw	a2,924(s3)
   1c716:	4049a603          	lw	a2,1028(s3)
   1c71a:	4089a703          	lw	a4,1032(s3)
   1c71e:	40c99783          	lh	a5,1036(s3)
   1c722:	05a2                	slli	a1,a1,0x8
   1c724:	3ac9a023          	sw	a2,928(s3)
   1c728:	3ae9a223          	sw	a4,932(s3)
   1c72c:	3af99423          	sh	a5,936(s3)
   1c730:	0186d613          	srli	a2,a3,0x18
   1c734:	8d4d                	or	a0,a0,a1
   1c736:	0106d593          	srli	a1,a3,0x10
   1c73a:	14b40ba3          	sb	a1,343(s0)
   1c73e:	14c40c23          	sb	a2,344(s0)
   1c742:	0086d593          	srli	a1,a3,0x8
   1c746:	14a41923          	sh	a0,338(s0)
   1c74a:	15040a23          	sb	a6,340(s0)
   1c74e:	14d40aa3          	sb	a3,341(s0)
   1c752:	14b40b23          	sb	a1,342(s0)
   1c756:	7ff10513          	addi	a0,sp,2047
   1c75a:	0f850513          	addi	a0,a0,248
   1c75e:	6585                	lui	a1,0x1
   1c760:	33058593          	addi	a1,a1,816 # 1330 <.Lline_table_start1+0x1105>
   1c764:	958a                	add	a1,a1,sp
   1c766:	4669                	li	a2,26
   1c768:	00002097          	auipc	ra,0x2
   1c76c:	dac080e7          	jalr	-596(ra) # 1e514 <memcpy>
   1c770:	6505                	lui	a0,0x1
   1c772:	38c50513          	addi	a0,a0,908 # 138c <.Lline_table_start1+0x1161>
   1c776:	950a                	add	a0,a0,sp
   1c778:	7ff10593          	addi	a1,sp,2047
   1c77c:	0f158593          	addi	a1,a1,241
   1c780:	ffff5097          	auipc	ra,0xffff5
   1c784:	e3a080e7          	jalr	-454(ra) # 115ba <_ZN20complex_dynamic_type3app17h0959470f00de4928E>
   1c788:	3ec9c503          	lbu	a0,1004(s3)
   1c78c:	c119                	beqz	a0,1c792 <_start+0x2972>
   1c78e:	47d0106f          	j	1e40a <_start+0x45ea>
   1c792:	3ee9c503          	lbu	a0,1006(s3)
   1c796:	3ed9c583          	lbu	a1,1005(s3)
   1c79a:	3ef9c603          	lbu	a2,1007(s3)
   1c79e:	3f09a483          	lw	s1,1008(s3)
   1c7a2:	0522                	slli	a0,a0,0x8
   1c7a4:	8d4d                	or	a0,a0,a1
   1c7a6:	16a41a23          	sh	a0,372(s0)
   1c7aa:	16c40b23          	sb	a2,374(s0)
   1c7ae:	6505                	lui	a0,0x1
   1c7b0:	39450513          	addi	a0,a0,916 # 1394 <.Lline_table_start1+0x1169>
   1c7b4:	00a105b3          	add	a1,sp,a0
   1c7b8:	6505                	lui	a0,0x1
   1c7ba:	33050513          	addi	a0,a0,816 # 1330 <.Lline_table_start1+0x1105>
   1c7be:	950a                	add	a0,a0,sp
   1c7c0:	04c00613          	li	a2,76
   1c7c4:	00002097          	auipc	ra,0x2
   1c7c8:	d50080e7          	jalr	-688(ra) # 1e514 <memcpy>
   1c7cc:	0184d513          	srli	a0,s1,0x18
   1c7d0:	0104d593          	srli	a1,s1,0x10
   1c7d4:	0084d613          	srli	a2,s1,0x8
   1c7d8:	16940ba3          	sb	s1,375(s0)
   1c7dc:	16c40c23          	sb	a2,376(s0)
   1c7e0:	16b40ca3          	sb	a1,377(s0)
   1c7e4:	16a40d23          	sb	a0,378(s0)
   1c7e8:	7ff10513          	addi	a0,sp,2047
   1c7ec:	11a50513          	addi	a0,a0,282
   1c7f0:	6585                	lui	a1,0x1
   1c7f2:	33058593          	addi	a1,a1,816 # 1330 <.Lline_table_start1+0x1105>
   1c7f6:	958a                	add	a1,a1,sp
   1c7f8:	04c00613          	li	a2,76
   1c7fc:	00002097          	auipc	ra,0x2
   1c800:	d18080e7          	jalr	-744(ra) # 1e514 <memcpy>
   1c804:	6505                	lui	a0,0x1
   1c806:	38c50513          	addi	a0,a0,908 # 138c <.Lline_table_start1+0x1161>
   1c80a:	950a                	add	a0,a0,sp
   1c80c:	7ff10593          	addi	a1,sp,2047
   1c810:	11358593          	addi	a1,a1,275
   1c814:	ffffb097          	auipc	ra,0xffffb
   1c818:	bd0080e7          	jalr	-1072(ra) # 173e4 <_ZN20complex_dynamic_type3app17hb32bab99c356d53dE>
   1c81c:	3ec9c503          	lbu	a0,1004(s3)
   1c820:	c119                	beqz	a0,1c826 <_start+0x2a06>
   1c822:	3e90106f          	j	1e40a <_start+0x45ea>
   1c826:	3ee9c503          	lbu	a0,1006(s3)
   1c82a:	3ed9c583          	lbu	a1,1005(s3)
   1c82e:	3ef9c603          	lbu	a2,1007(s3)
   1c832:	3f09a483          	lw	s1,1008(s3)
   1c836:	0522                	slli	a0,a0,0x8
   1c838:	8d4d                	or	a0,a0,a1
   1c83a:	1ca41423          	sh	a0,456(s0)
   1c83e:	1cc40523          	sb	a2,458(s0)
   1c842:	6505                	lui	a0,0x1
   1c844:	39450513          	addi	a0,a0,916 # 1394 <.Lline_table_start1+0x1169>
   1c848:	00a105b3          	add	a1,sp,a0
   1c84c:	6505                	lui	a0,0x1
   1c84e:	33050513          	addi	a0,a0,816 # 1330 <.Lline_table_start1+0x1105>
   1c852:	950a                	add	a0,a0,sp
   1c854:	04600613          	li	a2,70
   1c858:	00002097          	auipc	ra,0x2
   1c85c:	cbc080e7          	jalr	-836(ra) # 1e514 <memcpy>
   1c860:	0184d513          	srli	a0,s1,0x18
   1c864:	0104d593          	srli	a1,s1,0x10
   1c868:	0084d613          	srli	a2,s1,0x8
   1c86c:	1c9405a3          	sb	s1,459(s0)
   1c870:	1cc40623          	sb	a2,460(s0)
   1c874:	1cb406a3          	sb	a1,461(s0)
   1c878:	1ca40723          	sb	a0,462(s0)
   1c87c:	7ff10513          	addi	a0,sp,2047
   1c880:	16e50513          	addi	a0,a0,366
   1c884:	6585                	lui	a1,0x1
   1c886:	33058593          	addi	a1,a1,816 # 1330 <.Lline_table_start1+0x1105>
   1c88a:	958a                	add	a1,a1,sp
   1c88c:	04600613          	li	a2,70
   1c890:	00002097          	auipc	ra,0x2
   1c894:	c84080e7          	jalr	-892(ra) # 1e514 <memcpy>
   1c898:	6505                	lui	a0,0x1
   1c89a:	38c50513          	addi	a0,a0,908 # 138c <.Lline_table_start1+0x1161>
   1c89e:	950a                	add	a0,a0,sp
   1c8a0:	7ff10593          	addi	a1,sp,2047
   1c8a4:	16758593          	addi	a1,a1,359
   1c8a8:	ffffc097          	auipc	ra,0xffffc
   1c8ac:	d5a080e7          	jalr	-678(ra) # 18602 <_ZN20complex_dynamic_type3app17hcee7e6816ab6f341E>
   1c8b0:	3ec9c503          	lbu	a0,1004(s3)
   1c8b4:	c119                	beqz	a0,1c8ba <_start+0x2a9a>
   1c8b6:	3550106f          	j	1e40a <_start+0x45ea>
   1c8ba:	3ee9c503          	lbu	a0,1006(s3)
   1c8be:	3ed9c583          	lbu	a1,1005(s3)
   1c8c2:	3ef9c603          	lbu	a2,1007(s3)
   1c8c6:	3f09a483          	lw	s1,1008(s3)
   1c8ca:	0522                	slli	a0,a0,0x8
   1c8cc:	8d4d                	or	a0,a0,a1
   1c8ce:	20a41b23          	sh	a0,534(s0)
   1c8d2:	20c40c23          	sb	a2,536(s0)
   1c8d6:	6505                	lui	a0,0x1
   1c8d8:	39450513          	addi	a0,a0,916 # 1394 <.Lline_table_start1+0x1169>
   1c8dc:	00a105b3          	add	a1,sp,a0
   1c8e0:	6505                	lui	a0,0x1
   1c8e2:	33050513          	addi	a0,a0,816 # 1330 <.Lline_table_start1+0x1105>
   1c8e6:	950a                	add	a0,a0,sp
   1c8e8:	03500613          	li	a2,53
   1c8ec:	00002097          	auipc	ra,0x2
   1c8f0:	c28080e7          	jalr	-984(ra) # 1e514 <memcpy>
   1c8f4:	0184d513          	srli	a0,s1,0x18
   1c8f8:	0104d593          	srli	a1,s1,0x10
   1c8fc:	0084d613          	srli	a2,s1,0x8
   1c900:	20940ca3          	sb	s1,537(s0)
   1c904:	20c40d23          	sb	a2,538(s0)
   1c908:	20b40da3          	sb	a1,539(s0)
   1c90c:	20a40e23          	sb	a0,540(s0)
   1c910:	7ff10513          	addi	a0,sp,2047
   1c914:	1bc50513          	addi	a0,a0,444
   1c918:	6585                	lui	a1,0x1
   1c91a:	33058593          	addi	a1,a1,816 # 1330 <.Lline_table_start1+0x1105>
   1c91e:	958a                	add	a1,a1,sp
   1c920:	03500613          	li	a2,53
   1c924:	00002097          	auipc	ra,0x2
   1c928:	bf0080e7          	jalr	-1040(ra) # 1e514 <memcpy>
   1c92c:	6505                	lui	a0,0x1
   1c92e:	38c50513          	addi	a0,a0,908 # 138c <.Lline_table_start1+0x1161>
   1c932:	950a                	add	a0,a0,sp
   1c934:	7ff10593          	addi	a1,sp,2047
   1c938:	1b558593          	addi	a1,a1,437
   1c93c:	ffffb097          	auipc	ra,0xffffb
   1c940:	922080e7          	jalr	-1758(ra) # 1725e <_ZN20complex_dynamic_type3app17hb1bb560aedbef39eE>
   1c944:	3ec9c503          	lbu	a0,1004(s3)
   1c948:	c119                	beqz	a0,1c94e <_start+0x2b2e>
   1c94a:	2c10106f          	j	1e40a <_start+0x45ea>
   1c94e:	3ee9c503          	lbu	a0,1006(s3)
   1c952:	3ed9c583          	lbu	a1,1005(s3)
   1c956:	3ef9c603          	lbu	a2,1007(s3)
   1c95a:	3f09a483          	lw	s1,1008(s3)
   1c95e:	0522                	slli	a0,a0,0x8
   1c960:	8d4d                	or	a0,a0,a1
   1c962:	24a41923          	sh	a0,594(s0)
   1c966:	24c40a23          	sb	a2,596(s0)
   1c96a:	6505                	lui	a0,0x1
   1c96c:	39450513          	addi	a0,a0,916 # 1394 <.Lline_table_start1+0x1169>
   1c970:	00a105b3          	add	a1,sp,a0
   1c974:	6505                	lui	a0,0x1
   1c976:	33050513          	addi	a0,a0,816 # 1330 <.Lline_table_start1+0x1105>
   1c97a:	950a                	add	a0,a0,sp
   1c97c:	03100613          	li	a2,49
   1c980:	00002097          	auipc	ra,0x2
   1c984:	b94080e7          	jalr	-1132(ra) # 1e514 <memcpy>
   1c988:	0184d513          	srli	a0,s1,0x18
   1c98c:	0104d593          	srli	a1,s1,0x10
   1c990:	0084d613          	srli	a2,s1,0x8
   1c994:	24940aa3          	sb	s1,597(s0)
   1c998:	24c40b23          	sb	a2,598(s0)
   1c99c:	24b40ba3          	sb	a1,599(s0)
   1c9a0:	24a40c23          	sb	a0,600(s0)
   1c9a4:	7ff10513          	addi	a0,sp,2047
   1c9a8:	1f850513          	addi	a0,a0,504
   1c9ac:	6585                	lui	a1,0x1
   1c9ae:	33058593          	addi	a1,a1,816 # 1330 <.Lline_table_start1+0x1105>
   1c9b2:	958a                	add	a1,a1,sp
   1c9b4:	03100613          	li	a2,49
   1c9b8:	00002097          	auipc	ra,0x2
   1c9bc:	b5c080e7          	jalr	-1188(ra) # 1e514 <memcpy>
   1c9c0:	6505                	lui	a0,0x1
   1c9c2:	38c50513          	addi	a0,a0,908 # 138c <.Lline_table_start1+0x1161>
   1c9c6:	950a                	add	a0,a0,sp
   1c9c8:	7ff10593          	addi	a1,sp,2047
   1c9cc:	1f158593          	addi	a1,a1,497
   1c9d0:	ffff7097          	auipc	ra,0xffff7
   1c9d4:	b68080e7          	jalr	-1176(ra) # 13538 <_ZN20complex_dynamic_type3app17h3fe7772a9af396c2E>
   1c9d8:	3ec9c503          	lbu	a0,1004(s3)
   1c9dc:	c119                	beqz	a0,1c9e2 <_start+0x2bc2>
   1c9de:	22d0106f          	j	1e40a <_start+0x45ea>
   1c9e2:	3ed9c503          	lbu	a0,1005(s3)
   1c9e6:	3ee9c583          	lbu	a1,1006(s3)
   1c9ea:	3ef9c803          	lbu	a6,1007(s3)
   1c9ee:	3f09a683          	lw	a3,1008(s3)
   1c9f2:	3f49a703          	lw	a4,1012(s3)
   1c9f6:	3f89a783          	lw	a5,1016(s3)
   1c9fa:	3fc9a483          	lw	s1,1020(s3)
   1c9fe:	4009a603          	lw	a2,1024(s3)
   1ca02:	38e9a823          	sw	a4,912(s3)
   1ca06:	38f9aa23          	sw	a5,916(s3)
   1ca0a:	3899ac23          	sw	s1,920(s3)
   1ca0e:	38c9ae23          	sw	a2,924(s3)
   1ca12:	4049a603          	lw	a2,1028(s3)
   1ca16:	4089a703          	lw	a4,1032(s3)
   1ca1a:	40c9a783          	lw	a5,1036(s3)
   1ca1e:	4109a483          	lw	s1,1040(s3)
   1ca22:	05a2                	slli	a1,a1,0x8
   1ca24:	3ac9a023          	sw	a2,928(s3)
   1ca28:	3ae9a223          	sw	a4,932(s3)
   1ca2c:	3af9a423          	sw	a5,936(s3)
   1ca30:	3a99a623          	sw	s1,940(s3)
   1ca34:	0186d613          	srli	a2,a3,0x18
   1ca38:	8d4d                	or	a0,a0,a1
   1ca3a:	0106d593          	srli	a1,a3,0x10
   1ca3e:	28b407a3          	sb	a1,655(s0)
   1ca42:	28c40823          	sb	a2,656(s0)
   1ca46:	0086d593          	srli	a1,a3,0x8
   1ca4a:	28a41523          	sh	a0,650(s0)
   1ca4e:	29040623          	sb	a6,652(s0)
   1ca52:	28d406a3          	sb	a3,653(s0)
   1ca56:	28b40723          	sb	a1,654(s0)
   1ca5a:	7ff10513          	addi	a0,sp,2047
   1ca5e:	23050513          	addi	a0,a0,560
   1ca62:	6585                	lui	a1,0x1
   1ca64:	33058593          	addi	a1,a1,816 # 1330 <.Lline_table_start1+0x1105>
   1ca68:	958a                	add	a1,a1,sp
   1ca6a:	02000613          	li	a2,32
   1ca6e:	00002097          	auipc	ra,0x2
   1ca72:	aa6080e7          	jalr	-1370(ra) # 1e514 <memcpy>
   1ca76:	6505                	lui	a0,0x1
   1ca78:	38c50513          	addi	a0,a0,908 # 138c <.Lline_table_start1+0x1161>
   1ca7c:	950a                	add	a0,a0,sp
   1ca7e:	7ff10593          	addi	a1,sp,2047
   1ca82:	22958593          	addi	a1,a1,553
   1ca86:	ffffb097          	auipc	ra,0xffffb
   1ca8a:	3e4080e7          	jalr	996(ra) # 17e6a <_ZN20complex_dynamic_type3app17hba691452b0922bccE>
   1ca8e:	3ec9c503          	lbu	a0,1004(s3)
   1ca92:	c119                	beqz	a0,1ca98 <_start+0x2c78>
   1ca94:	1770106f          	j	1e40a <_start+0x45ea>
   1ca98:	3ee9c503          	lbu	a0,1006(s3)
   1ca9c:	3ed9c583          	lbu	a1,1005(s3)
   1caa0:	3ef9c603          	lbu	a2,1007(s3)
   1caa4:	3f09a483          	lw	s1,1008(s3)
   1caa8:	0522                	slli	a0,a0,0x8
   1caaa:	8d4d                	or	a0,a0,a1
   1caac:	2aa41923          	sh	a0,690(s0)
   1cab0:	2ac40a23          	sb	a2,692(s0)
   1cab4:	6505                	lui	a0,0x1
   1cab6:	39450513          	addi	a0,a0,916 # 1394 <.Lline_table_start1+0x1169>
   1caba:	00a105b3          	add	a1,sp,a0
   1cabe:	6505                	lui	a0,0x1
   1cac0:	33050513          	addi	a0,a0,816 # 1330 <.Lline_table_start1+0x1105>
   1cac4:	950a                	add	a0,a0,sp
   1cac6:	04a00613          	li	a2,74
   1caca:	00002097          	auipc	ra,0x2
   1cace:	a4a080e7          	jalr	-1462(ra) # 1e514 <memcpy>
   1cad2:	0184d513          	srli	a0,s1,0x18
   1cad6:	0104d593          	srli	a1,s1,0x10
   1cada:	0084d613          	srli	a2,s1,0x8
   1cade:	2a940aa3          	sb	s1,693(s0)
   1cae2:	2ac40b23          	sb	a2,694(s0)
   1cae6:	2ab40ba3          	sb	a1,695(s0)
   1caea:	2aa40c23          	sb	a0,696(s0)
   1caee:	7ff10513          	addi	a0,sp,2047
   1caf2:	25850513          	addi	a0,a0,600
   1caf6:	6585                	lui	a1,0x1
   1caf8:	33058593          	addi	a1,a1,816 # 1330 <.Lline_table_start1+0x1105>
   1cafc:	958a                	add	a1,a1,sp
   1cafe:	04a00613          	li	a2,74
   1cb02:	00002097          	auipc	ra,0x2
   1cb06:	a12080e7          	jalr	-1518(ra) # 1e514 <memcpy>
   1cb0a:	6505                	lui	a0,0x1
   1cb0c:	38c50513          	addi	a0,a0,908 # 138c <.Lline_table_start1+0x1161>
   1cb10:	950a                	add	a0,a0,sp
   1cb12:	7ff10593          	addi	a1,sp,2047
   1cb16:	25158593          	addi	a1,a1,593
   1cb1a:	ffffb097          	auipc	ra,0xffffb
   1cb1e:	bd4080e7          	jalr	-1068(ra) # 176ee <_ZN20complex_dynamic_type3app17hb4cc529fd4bac5cdE>
   1cb22:	3ec9c503          	lbu	a0,1004(s3)
   1cb26:	c119                	beqz	a0,1cb2c <_start+0x2d0c>
   1cb28:	0e30106f          	j	1e40a <_start+0x45ea>
   1cb2c:	3ee9c503          	lbu	a0,1006(s3)
   1cb30:	3ed9c583          	lbu	a1,1005(s3)
   1cb34:	3ef9c603          	lbu	a2,1007(s3)
   1cb38:	3f09a483          	lw	s1,1008(s3)
   1cb3c:	0522                	slli	a0,a0,0x8
   1cb3e:	8d4d                	or	a0,a0,a1
   1cb40:	30a41223          	sh	a0,772(s0)
   1cb44:	30c40323          	sb	a2,774(s0)
   1cb48:	6505                	lui	a0,0x1
   1cb4a:	39450513          	addi	a0,a0,916 # 1394 <.Lline_table_start1+0x1169>
   1cb4e:	00a105b3          	add	a1,sp,a0
   1cb52:	6505                	lui	a0,0x1
   1cb54:	33050513          	addi	a0,a0,816 # 1330 <.Lline_table_start1+0x1105>
   1cb58:	950a                	add	a0,a0,sp
   1cb5a:	04800613          	li	a2,72
   1cb5e:	00002097          	auipc	ra,0x2
   1cb62:	9b6080e7          	jalr	-1610(ra) # 1e514 <memcpy>
   1cb66:	0184d513          	srli	a0,s1,0x18
   1cb6a:	0104d593          	srli	a1,s1,0x10
   1cb6e:	0084d613          	srli	a2,s1,0x8
   1cb72:	309403a3          	sb	s1,775(s0)
   1cb76:	30c40423          	sb	a2,776(s0)
   1cb7a:	30b404a3          	sb	a1,777(s0)
   1cb7e:	30a40523          	sb	a0,778(s0)
   1cb82:	7ff10513          	addi	a0,sp,2047
   1cb86:	2aa50513          	addi	a0,a0,682
   1cb8a:	6585                	lui	a1,0x1
   1cb8c:	33058593          	addi	a1,a1,816 # 1330 <.Lline_table_start1+0x1105>
   1cb90:	958a                	add	a1,a1,sp
   1cb92:	04800613          	li	a2,72
   1cb96:	00002097          	auipc	ra,0x2
   1cb9a:	97e080e7          	jalr	-1666(ra) # 1e514 <memcpy>
   1cb9e:	6505                	lui	a0,0x1
   1cba0:	38c50513          	addi	a0,a0,908 # 138c <.Lline_table_start1+0x1161>
   1cba4:	950a                	add	a0,a0,sp
   1cba6:	7ff10593          	addi	a1,sp,2047
   1cbaa:	2a358593          	addi	a1,a1,675
   1cbae:	ffff7097          	auipc	ra,0xffff7
   1cbb2:	c94080e7          	jalr	-876(ra) # 13842 <_ZN20complex_dynamic_type3app17h453a1411b464ab40E>
   1cbb6:	3ec9c503          	lbu	a0,1004(s3)
   1cbba:	c119                	beqz	a0,1cbc0 <_start+0x2da0>
   1cbbc:	04f0106f          	j	1e40a <_start+0x45ea>
   1cbc0:	3ee9c503          	lbu	a0,1006(s3)
   1cbc4:	3ed9c583          	lbu	a1,1005(s3)
   1cbc8:	3ef9c603          	lbu	a2,1007(s3)
   1cbcc:	3f09a483          	lw	s1,1008(s3)
   1cbd0:	0522                	slli	a0,a0,0x8
   1cbd2:	8d4d                	or	a0,a0,a1
   1cbd4:	34a41a23          	sh	a0,852(s0)
   1cbd8:	34c40b23          	sb	a2,854(s0)
   1cbdc:	6505                	lui	a0,0x1
   1cbde:	39450513          	addi	a0,a0,916 # 1394 <.Lline_table_start1+0x1169>
   1cbe2:	00a105b3          	add	a1,sp,a0
   1cbe6:	6505                	lui	a0,0x1
   1cbe8:	33050513          	addi	a0,a0,816 # 1330 <.Lline_table_start1+0x1105>
   1cbec:	950a                	add	a0,a0,sp
   1cbee:	05a00613          	li	a2,90
   1cbf2:	00002097          	auipc	ra,0x2
   1cbf6:	922080e7          	jalr	-1758(ra) # 1e514 <memcpy>
   1cbfa:	0184d513          	srli	a0,s1,0x18
   1cbfe:	0104d593          	srli	a1,s1,0x10
   1cc02:	0084d613          	srli	a2,s1,0x8
   1cc06:	34940ba3          	sb	s1,855(s0)
   1cc0a:	34c40c23          	sb	a2,856(s0)
   1cc0e:	34b40ca3          	sb	a1,857(s0)
   1cc12:	34a40d23          	sb	a0,858(s0)
   1cc16:	7ff10513          	addi	a0,sp,2047
   1cc1a:	2fa50513          	addi	a0,a0,762
   1cc1e:	6585                	lui	a1,0x1
   1cc20:	33058593          	addi	a1,a1,816 # 1330 <.Lline_table_start1+0x1105>
   1cc24:	958a                	add	a1,a1,sp
   1cc26:	05a00613          	li	a2,90
   1cc2a:	00002097          	auipc	ra,0x2
   1cc2e:	8ea080e7          	jalr	-1814(ra) # 1e514 <memcpy>
   1cc32:	6505                	lui	a0,0x1
   1cc34:	38c50513          	addi	a0,a0,908 # 138c <.Lline_table_start1+0x1161>
   1cc38:	950a                	add	a0,a0,sp
   1cc3a:	7ff10593          	addi	a1,sp,2047
   1cc3e:	2f358593          	addi	a1,a1,755
   1cc42:	ffff9097          	auipc	ra,0xffff9
   1cc46:	838080e7          	jalr	-1992(ra) # 1547a <_ZN20complex_dynamic_type3app17h7ea4ffb1f9200b32E>
   1cc4a:	3ec9c503          	lbu	a0,1004(s3)
   1cc4e:	c119                	beqz	a0,1cc54 <_start+0x2e34>
   1cc50:	7ba0106f          	j	1e40a <_start+0x45ea>
   1cc54:	3ed9c503          	lbu	a0,1005(s3)
   1cc58:	3ee9c583          	lbu	a1,1006(s3)
   1cc5c:	3ef9c803          	lbu	a6,1007(s3)
   1cc60:	3f09a683          	lw	a3,1008(s3)
   1cc64:	3f49a703          	lw	a4,1012(s3)
   1cc68:	3f89a783          	lw	a5,1016(s3)
   1cc6c:	3fc9a483          	lw	s1,1020(s3)
   1cc70:	4009a603          	lw	a2,1024(s3)
   1cc74:	38e9a823          	sw	a4,912(s3)
   1cc78:	38f9aa23          	sw	a5,916(s3)
   1cc7c:	3899ac23          	sw	s1,920(s3)
   1cc80:	38c9ae23          	sw	a2,924(s3)
   1cc84:	4049a603          	lw	a2,1028(s3)
   1cc88:	40899703          	lh	a4,1032(s3)
   1cc8c:	40a9c783          	lbu	a5,1034(s3)
   1cc90:	05a2                	slli	a1,a1,0x8
   1cc92:	3ac9a023          	sw	a2,928(s3)
   1cc96:	3ae99223          	sh	a4,932(s3)
   1cc9a:	3af98323          	sb	a5,934(s3)
   1cc9e:	0186d613          	srli	a2,a3,0x18
   1cca2:	8d4d                	or	a0,a0,a1
   1cca4:	0106d593          	srli	a1,a3,0x10
   1cca8:	3ab40da3          	sb	a1,955(s0)
   1ccac:	3ac40e23          	sb	a2,956(s0)
   1ccb0:	0086d593          	srli	a1,a3,0x8
   1ccb4:	3aa41b23          	sh	a0,950(s0)
   1ccb8:	3b040c23          	sb	a6,952(s0)
   1ccbc:	3ad40ca3          	sb	a3,953(s0)
   1ccc0:	3ab40d23          	sb	a1,954(s0)
   1ccc4:	7ff10513          	addi	a0,sp,2047
   1ccc8:	35c50513          	addi	a0,a0,860
   1cccc:	6585                	lui	a1,0x1
   1ccce:	33058593          	addi	a1,a1,816 # 1330 <.Lline_table_start1+0x1105>
   1ccd2:	958a                	add	a1,a1,sp
   1ccd4:	465d                	li	a2,23
   1ccd6:	00002097          	auipc	ra,0x2
   1ccda:	83e080e7          	jalr	-1986(ra) # 1e514 <memcpy>
   1ccde:	6505                	lui	a0,0x1
   1cce0:	38c50513          	addi	a0,a0,908 # 138c <.Lline_table_start1+0x1161>
   1cce4:	950a                	add	a0,a0,sp
   1cce6:	7ff10593          	addi	a1,sp,2047
   1ccea:	35558593          	addi	a1,a1,853
   1ccee:	ffff6097          	auipc	ra,0xffff6
   1ccf2:	238080e7          	jalr	568(ra) # 12f26 <_ZN20complex_dynamic_type3app17h39766873f2545fd3E>
   1ccf6:	3ec9c503          	lbu	a0,1004(s3)
   1ccfa:	c119                	beqz	a0,1cd00 <_start+0x2ee0>
   1ccfc:	70e0106f          	j	1e40a <_start+0x45ea>
   1cd00:	3ed9c503          	lbu	a0,1005(s3)
   1cd04:	3ee9c583          	lbu	a1,1006(s3)
   1cd08:	3ef9c803          	lbu	a6,1007(s3)
   1cd0c:	3f09a683          	lw	a3,1008(s3)
   1cd10:	3f49a703          	lw	a4,1012(s3)
   1cd14:	3f89a783          	lw	a5,1016(s3)
   1cd18:	3fc9a483          	lw	s1,1020(s3)
   1cd1c:	4009a603          	lw	a2,1024(s3)
   1cd20:	38e9a823          	sw	a4,912(s3)
   1cd24:	38f9aa23          	sw	a5,916(s3)
   1cd28:	3899ac23          	sw	s1,920(s3)
   1cd2c:	38c9ae23          	sw	a2,924(s3)
   1cd30:	4049a603          	lw	a2,1028(s3)
   1cd34:	4089a703          	lw	a4,1032(s3)
   1cd38:	40c99783          	lh	a5,1036(s3)
   1cd3c:	05a2                	slli	a1,a1,0x8
   1cd3e:	3ac9a023          	sw	a2,928(s3)
   1cd42:	3ae9a223          	sw	a4,932(s3)
   1cd46:	3af99423          	sh	a5,936(s3)
   1cd4a:	0186d613          	srli	a2,a3,0x18
   1cd4e:	8d4d                	or	a0,a0,a1
   1cd50:	0106d593          	srli	a1,a3,0x10
   1cd54:	3cb40ca3          	sb	a1,985(s0)
   1cd58:	3cc40d23          	sb	a2,986(s0)
   1cd5c:	0086d593          	srli	a1,a3,0x8
   1cd60:	3ca41a23          	sh	a0,980(s0)
   1cd64:	3d040b23          	sb	a6,982(s0)
   1cd68:	3cd40ba3          	sb	a3,983(s0)
   1cd6c:	3cb40c23          	sb	a1,984(s0)
   1cd70:	7ff10513          	addi	a0,sp,2047
   1cd74:	37a50513          	addi	a0,a0,890
   1cd78:	6585                	lui	a1,0x1
   1cd7a:	33058593          	addi	a1,a1,816 # 1330 <.Lline_table_start1+0x1105>
   1cd7e:	958a                	add	a1,a1,sp
   1cd80:	4669                	li	a2,26
   1cd82:	00001097          	auipc	ra,0x1
   1cd86:	792080e7          	jalr	1938(ra) # 1e514 <memcpy>
   1cd8a:	6505                	lui	a0,0x1
   1cd8c:	38c50513          	addi	a0,a0,908 # 138c <.Lline_table_start1+0x1161>
   1cd90:	950a                	add	a0,a0,sp
   1cd92:	7ff10593          	addi	a1,sp,2047
   1cd96:	37358593          	addi	a1,a1,883
   1cd9a:	ffffa097          	auipc	ra,0xffffa
   1cd9e:	7d0080e7          	jalr	2000(ra) # 1756a <_ZN20complex_dynamic_type3app17hb37eb83cac0e2e24E>
   1cda2:	3ec9c503          	lbu	a0,1004(s3)
   1cda6:	c119                	beqz	a0,1cdac <_start+0x2f8c>
   1cda8:	6620106f          	j	1e40a <_start+0x45ea>
   1cdac:	3ee9c503          	lbu	a0,1006(s3)
   1cdb0:	3ed9c583          	lbu	a1,1005(s3)
   1cdb4:	3ef9c603          	lbu	a2,1007(s3)
   1cdb8:	3f09a483          	lw	s1,1008(s3)
   1cdbc:	0522                	slli	a0,a0,0x8
   1cdbe:	8d4d                	or	a0,a0,a1
   1cdc0:	3ea41b23          	sh	a0,1014(s0)
   1cdc4:	3ec40c23          	sb	a2,1016(s0)
   1cdc8:	6505                	lui	a0,0x1
   1cdca:	39450513          	addi	a0,a0,916 # 1394 <.Lline_table_start1+0x1169>
   1cdce:	00a105b3          	add	a1,sp,a0
   1cdd2:	6505                	lui	a0,0x1
   1cdd4:	33050513          	addi	a0,a0,816 # 1330 <.Lline_table_start1+0x1105>
   1cdd8:	950a                	add	a0,a0,sp
   1cdda:	02300613          	li	a2,35
   1cdde:	00001097          	auipc	ra,0x1
   1cde2:	736080e7          	jalr	1846(ra) # 1e514 <memcpy>
   1cde6:	0184d513          	srli	a0,s1,0x18
   1cdea:	0104d593          	srli	a1,s1,0x10
   1cdee:	0084d613          	srli	a2,s1,0x8
   1cdf2:	3e940ca3          	sb	s1,1017(s0)
   1cdf6:	3ec40d23          	sb	a2,1018(s0)
   1cdfa:	3eb40da3          	sb	a1,1019(s0)
   1cdfe:	3ea40e23          	sb	a0,1020(s0)
   1ce02:	7ff10513          	addi	a0,sp,2047
   1ce06:	39c50513          	addi	a0,a0,924
   1ce0a:	6585                	lui	a1,0x1
   1ce0c:	33058593          	addi	a1,a1,816 # 1330 <.Lline_table_start1+0x1105>
   1ce10:	958a                	add	a1,a1,sp
   1ce12:	02300613          	li	a2,35
   1ce16:	00001097          	auipc	ra,0x1
   1ce1a:	6fe080e7          	jalr	1790(ra) # 1e514 <memcpy>
   1ce1e:	6505                	lui	a0,0x1
   1ce20:	38c50513          	addi	a0,a0,908 # 138c <.Lline_table_start1+0x1161>
   1ce24:	950a                	add	a0,a0,sp
   1ce26:	7ff10593          	addi	a1,sp,2047
   1ce2a:	39558593          	addi	a1,a1,917
   1ce2e:	ffffa097          	auipc	ra,0xffffa
   1ce32:	cb8080e7          	jalr	-840(ra) # 16ae6 <_ZN20complex_dynamic_type3app17ha537a485a922ad37E>
   1ce36:	3ec9c503          	lbu	a0,1004(s3)
   1ce3a:	c119                	beqz	a0,1ce40 <_start+0x3020>
   1ce3c:	5ce0106f          	j	1e40a <_start+0x45ea>
   1ce40:	3ee9c503          	lbu	a0,1006(s3)
   1ce44:	3ed9c583          	lbu	a1,1005(s3)
   1ce48:	3ef9c603          	lbu	a2,1007(s3)
   1ce4c:	3f09a483          	lw	s1,1008(s3)
   1ce50:	0522                	slli	a0,a0,0x8
   1ce52:	8d4d                	or	a0,a0,a1
   1ce54:	42a41023          	sh	a0,1056(s0)
   1ce58:	42c40123          	sb	a2,1058(s0)
   1ce5c:	6505                	lui	a0,0x1
   1ce5e:	39450513          	addi	a0,a0,916 # 1394 <.Lline_table_start1+0x1169>
   1ce62:	00a105b3          	add	a1,sp,a0
   1ce66:	6505                	lui	a0,0x1
   1ce68:	33050513          	addi	a0,a0,816 # 1330 <.Lline_table_start1+0x1105>
   1ce6c:	950a                	add	a0,a0,sp
   1ce6e:	05200613          	li	a2,82
   1ce72:	00001097          	auipc	ra,0x1
   1ce76:	6a2080e7          	jalr	1698(ra) # 1e514 <memcpy>
   1ce7a:	0184d513          	srli	a0,s1,0x18
   1ce7e:	0104d593          	srli	a1,s1,0x10
   1ce82:	0084d613          	srli	a2,s1,0x8
   1ce86:	429401a3          	sb	s1,1059(s0)
   1ce8a:	42c40223          	sb	a2,1060(s0)
   1ce8e:	42b402a3          	sb	a1,1061(s0)
   1ce92:	42a40323          	sb	a0,1062(s0)
   1ce96:	7ff10513          	addi	a0,sp,2047
   1ce9a:	3c650513          	addi	a0,a0,966
   1ce9e:	6585                	lui	a1,0x1
   1cea0:	33058593          	addi	a1,a1,816 # 1330 <.Lline_table_start1+0x1105>
   1cea4:	958a                	add	a1,a1,sp
   1cea6:	05200613          	li	a2,82
   1ceaa:	00001097          	auipc	ra,0x1
   1ceae:	66a080e7          	jalr	1642(ra) # 1e514 <memcpy>
   1ceb2:	6505                	lui	a0,0x1
   1ceb4:	38c50513          	addi	a0,a0,908 # 138c <.Lline_table_start1+0x1161>
   1ceb8:	950a                	add	a0,a0,sp
   1ceba:	7ff10593          	addi	a1,sp,2047
   1cebe:	3bf58593          	addi	a1,a1,959
   1cec2:	ffffc097          	auipc	ra,0xffffc
   1cec6:	34e080e7          	jalr	846(ra) # 19210 <_ZN20complex_dynamic_type3app17hf27ed10a0cb6d2b2E>
   1ceca:	3ec9c503          	lbu	a0,1004(s3)
   1cece:	c119                	beqz	a0,1ced4 <_start+0x30b4>
   1ced0:	53a0106f          	j	1e40a <_start+0x45ea>
   1ced4:	3ee9c503          	lbu	a0,1006(s3)
   1ced8:	3ed9c583          	lbu	a1,1005(s3)
   1cedc:	3ef9c603          	lbu	a2,1007(s3)
   1cee0:	3f09a483          	lw	s1,1008(s3)
   1cee4:	0522                	slli	a0,a0,0x8
   1cee6:	8d4d                	or	a0,a0,a1
   1cee8:	46a41d23          	sh	a0,1146(s0)
   1ceec:	46c40e23          	sb	a2,1148(s0)
   1cef0:	6505                	lui	a0,0x1
   1cef2:	39450513          	addi	a0,a0,916 # 1394 <.Lline_table_start1+0x1169>
   1cef6:	00a105b3          	add	a1,sp,a0
   1cefa:	6505                	lui	a0,0x1
   1cefc:	33050513          	addi	a0,a0,816 # 1330 <.Lline_table_start1+0x1105>
   1cf00:	950a                	add	a0,a0,sp
   1cf02:	04300613          	li	a2,67
   1cf06:	00001097          	auipc	ra,0x1
   1cf0a:	60e080e7          	jalr	1550(ra) # 1e514 <memcpy>
   1cf0e:	0184d513          	srli	a0,s1,0x18
   1cf12:	0104d593          	srli	a1,s1,0x10
   1cf16:	0084d613          	srli	a2,s1,0x8
   1cf1a:	46940ea3          	sb	s1,1149(s0)
   1cf1e:	46c40f23          	sb	a2,1150(s0)
   1cf22:	46b40fa3          	sb	a1,1151(s0)
   1cf26:	48a40023          	sb	a0,1152(s0)
   1cf2a:	7ff10513          	addi	a0,sp,2047
   1cf2e:	42050513          	addi	a0,a0,1056
   1cf32:	6585                	lui	a1,0x1
   1cf34:	33058593          	addi	a1,a1,816 # 1330 <.Lline_table_start1+0x1105>
   1cf38:	958a                	add	a1,a1,sp
   1cf3a:	04300613          	li	a2,67
   1cf3e:	00001097          	auipc	ra,0x1
   1cf42:	5d6080e7          	jalr	1494(ra) # 1e514 <memcpy>
   1cf46:	6505                	lui	a0,0x1
   1cf48:	38c50513          	addi	a0,a0,908 # 138c <.Lline_table_start1+0x1161>
   1cf4c:	950a                	add	a0,a0,sp
   1cf4e:	7ff10593          	addi	a1,sp,2047
   1cf52:	41958593          	addi	a1,a1,1049
   1cf56:	ffffc097          	auipc	ra,0xffffc
   1cf5a:	e46080e7          	jalr	-442(ra) # 18d9c <_ZN20complex_dynamic_type3app17he158de369fe3760aE>
   1cf5e:	3ec9c503          	lbu	a0,1004(s3)
   1cf62:	c119                	beqz	a0,1cf68 <_start+0x3148>
   1cf64:	4a60106f          	j	1e40a <_start+0x45ea>
   1cf68:	3ee9c503          	lbu	a0,1006(s3)
   1cf6c:	3ed9c583          	lbu	a1,1005(s3)
   1cf70:	3ef9c603          	lbu	a2,1007(s3)
   1cf74:	3f09a483          	lw	s1,1008(s3)
   1cf78:	0522                	slli	a0,a0,0x8
   1cf7a:	8d4d                	or	a0,a0,a1
   1cf7c:	4ca41223          	sh	a0,1220(s0)
   1cf80:	4cc40323          	sb	a2,1222(s0)
   1cf84:	6505                	lui	a0,0x1
   1cf86:	39450513          	addi	a0,a0,916 # 1394 <.Lline_table_start1+0x1169>
   1cf8a:	00a105b3          	add	a1,sp,a0
   1cf8e:	6505                	lui	a0,0x1
   1cf90:	33050513          	addi	a0,a0,816 # 1330 <.Lline_table_start1+0x1105>
   1cf94:	950a                	add	a0,a0,sp
   1cf96:	02600613          	li	a2,38
   1cf9a:	00001097          	auipc	ra,0x1
   1cf9e:	57a080e7          	jalr	1402(ra) # 1e514 <memcpy>
   1cfa2:	0184d513          	srli	a0,s1,0x18
   1cfa6:	0104d593          	srli	a1,s1,0x10
   1cfaa:	0084d613          	srli	a2,s1,0x8
   1cfae:	4c9403a3          	sb	s1,1223(s0)
   1cfb2:	4cc40423          	sb	a2,1224(s0)
   1cfb6:	4cb404a3          	sb	a1,1225(s0)
   1cfba:	4ca40523          	sb	a0,1226(s0)
   1cfbe:	7ff10513          	addi	a0,sp,2047
   1cfc2:	46a50513          	addi	a0,a0,1130
   1cfc6:	6585                	lui	a1,0x1
   1cfc8:	33058593          	addi	a1,a1,816 # 1330 <.Lline_table_start1+0x1105>
   1cfcc:	958a                	add	a1,a1,sp
   1cfce:	02600613          	li	a2,38
   1cfd2:	00001097          	auipc	ra,0x1
   1cfd6:	542080e7          	jalr	1346(ra) # 1e514 <memcpy>
   1cfda:	6505                	lui	a0,0x1
   1cfdc:	38c50513          	addi	a0,a0,908 # 138c <.Lline_table_start1+0x1161>
   1cfe0:	950a                	add	a0,a0,sp
   1cfe2:	7ff10593          	addi	a1,sp,2047
   1cfe6:	46358593          	addi	a1,a1,1123
   1cfea:	ffffd097          	auipc	ra,0xffffd
   1cfee:	828080e7          	jalr	-2008(ra) # 19812 <_ZN20complex_dynamic_type3app17hf9da9c1ffd99ffceE>
   1cff2:	3ec9c503          	lbu	a0,1004(s3)
   1cff6:	c119                	beqz	a0,1cffc <_start+0x31dc>
   1cff8:	4120106f          	j	1e40a <_start+0x45ea>
   1cffc:	3ee9c503          	lbu	a0,1006(s3)
   1d000:	3ed9c583          	lbu	a1,1005(s3)
   1d004:	3ef9c603          	lbu	a2,1007(s3)
   1d008:	3f09a483          	lw	s1,1008(s3)
   1d00c:	0522                	slli	a0,a0,0x8
   1d00e:	8d4d                	or	a0,a0,a1
   1d010:	4ea41923          	sh	a0,1266(s0)
   1d014:	4ec40a23          	sb	a2,1268(s0)
   1d018:	6505                	lui	a0,0x1
   1d01a:	39450513          	addi	a0,a0,916 # 1394 <.Lline_table_start1+0x1169>
   1d01e:	00a105b3          	add	a1,sp,a0
   1d022:	6505                	lui	a0,0x1
   1d024:	33050513          	addi	a0,a0,816 # 1330 <.Lline_table_start1+0x1105>
   1d028:	950a                	add	a0,a0,sp
   1d02a:	04c00613          	li	a2,76
   1d02e:	00001097          	auipc	ra,0x1
   1d032:	4e6080e7          	jalr	1254(ra) # 1e514 <memcpy>
   1d036:	0184d513          	srli	a0,s1,0x18
   1d03a:	0104d593          	srli	a1,s1,0x10
   1d03e:	0084d613          	srli	a2,s1,0x8
   1d042:	4e940aa3          	sb	s1,1269(s0)
   1d046:	4ec40b23          	sb	a2,1270(s0)
   1d04a:	4eb40ba3          	sb	a1,1271(s0)
   1d04e:	4ea40c23          	sb	a0,1272(s0)
   1d052:	7ff10513          	addi	a0,sp,2047
   1d056:	49850513          	addi	a0,a0,1176
   1d05a:	6585                	lui	a1,0x1
   1d05c:	33058593          	addi	a1,a1,816 # 1330 <.Lline_table_start1+0x1105>
   1d060:	958a                	add	a1,a1,sp
   1d062:	04c00613          	li	a2,76
   1d066:	00001097          	auipc	ra,0x1
   1d06a:	4ae080e7          	jalr	1198(ra) # 1e514 <memcpy>
   1d06e:	6505                	lui	a0,0x1
   1d070:	38c50513          	addi	a0,a0,908 # 138c <.Lline_table_start1+0x1161>
   1d074:	950a                	add	a0,a0,sp
   1d076:	7ff10593          	addi	a1,sp,2047
   1d07a:	49158593          	addi	a1,a1,1169
   1d07e:	ffff9097          	auipc	ra,0xffff9
   1d082:	9f4080e7          	jalr	-1548(ra) # 15a72 <_ZN20complex_dynamic_type3app17h8ae9bdb5b5b9e08bE>
   1d086:	3ec9c503          	lbu	a0,1004(s3)
   1d08a:	c119                	beqz	a0,1d090 <_start+0x3270>
   1d08c:	37e0106f          	j	1e40a <_start+0x45ea>
   1d090:	3ee9c503          	lbu	a0,1006(s3)
   1d094:	3ed9c583          	lbu	a1,1005(s3)
   1d098:	3ef9c603          	lbu	a2,1007(s3)
   1d09c:	3f09a483          	lw	s1,1008(s3)
   1d0a0:	0522                	slli	a0,a0,0x8
   1d0a2:	8d4d                	or	a0,a0,a1
   1d0a4:	54a41323          	sh	a0,1350(s0)
   1d0a8:	54c40423          	sb	a2,1352(s0)
   1d0ac:	6505                	lui	a0,0x1
   1d0ae:	39450513          	addi	a0,a0,916 # 1394 <.Lline_table_start1+0x1169>
   1d0b2:	00a105b3          	add	a1,sp,a0
   1d0b6:	6505                	lui	a0,0x1
   1d0b8:	33050513          	addi	a0,a0,816 # 1330 <.Lline_table_start1+0x1105>
   1d0bc:	950a                	add	a0,a0,sp
   1d0be:	03300613          	li	a2,51
   1d0c2:	00001097          	auipc	ra,0x1
   1d0c6:	452080e7          	jalr	1106(ra) # 1e514 <memcpy>
   1d0ca:	0184d513          	srli	a0,s1,0x18
   1d0ce:	0104d593          	srli	a1,s1,0x10
   1d0d2:	0084d613          	srli	a2,s1,0x8
   1d0d6:	549404a3          	sb	s1,1353(s0)
   1d0da:	54c40523          	sb	a2,1354(s0)
   1d0de:	54b405a3          	sb	a1,1355(s0)
   1d0e2:	54a40623          	sb	a0,1356(s0)
   1d0e6:	7ff10513          	addi	a0,sp,2047
   1d0ea:	4ec50513          	addi	a0,a0,1260
   1d0ee:	6585                	lui	a1,0x1
   1d0f0:	33058593          	addi	a1,a1,816 # 1330 <.Lline_table_start1+0x1105>
   1d0f4:	958a                	add	a1,a1,sp
   1d0f6:	03300613          	li	a2,51
   1d0fa:	00001097          	auipc	ra,0x1
   1d0fe:	41a080e7          	jalr	1050(ra) # 1e514 <memcpy>
   1d102:	6505                	lui	a0,0x1
   1d104:	38c50513          	addi	a0,a0,908 # 138c <.Lline_table_start1+0x1161>
   1d108:	950a                	add	a0,a0,sp
   1d10a:	7ff10593          	addi	a1,sp,2047
   1d10e:	4e558593          	addi	a1,a1,1253
   1d112:	ffffb097          	auipc	ra,0xffffb
   1d116:	ede080e7          	jalr	-290(ra) # 17ff0 <_ZN20complex_dynamic_type3app17hbf421d9b68dec704E>
   1d11a:	3ec9c503          	lbu	a0,1004(s3)
   1d11e:	c119                	beqz	a0,1d124 <_start+0x3304>
   1d120:	2ea0106f          	j	1e40a <_start+0x45ea>
   1d124:	3ee9c503          	lbu	a0,1006(s3)
   1d128:	3ed9c583          	lbu	a1,1005(s3)
   1d12c:	3ef9c603          	lbu	a2,1007(s3)
   1d130:	3f09a483          	lw	s1,1008(s3)
   1d134:	0522                	slli	a0,a0,0x8
   1d136:	8d4d                	or	a0,a0,a1
   1d138:	58a41023          	sh	a0,1408(s0)
   1d13c:	58c40123          	sb	a2,1410(s0)
   1d140:	6505                	lui	a0,0x1
   1d142:	39450513          	addi	a0,a0,916 # 1394 <.Lline_table_start1+0x1169>
   1d146:	00a105b3          	add	a1,sp,a0
   1d14a:	6505                	lui	a0,0x1
   1d14c:	33050513          	addi	a0,a0,816 # 1330 <.Lline_table_start1+0x1105>
   1d150:	950a                	add	a0,a0,sp
   1d152:	05600613          	li	a2,86
   1d156:	00001097          	auipc	ra,0x1
   1d15a:	3be080e7          	jalr	958(ra) # 1e514 <memcpy>
   1d15e:	0184d513          	srli	a0,s1,0x18
   1d162:	0104d593          	srli	a1,s1,0x10
   1d166:	0084d613          	srli	a2,s1,0x8
   1d16a:	589401a3          	sb	s1,1411(s0)
   1d16e:	58c40223          	sb	a2,1412(s0)
   1d172:	58b402a3          	sb	a1,1413(s0)
   1d176:	58a40323          	sb	a0,1414(s0)
   1d17a:	7ff10513          	addi	a0,sp,2047
   1d17e:	52650513          	addi	a0,a0,1318
   1d182:	6585                	lui	a1,0x1
   1d184:	33058593          	addi	a1,a1,816 # 1330 <.Lline_table_start1+0x1105>
   1d188:	958a                	add	a1,a1,sp
   1d18a:	05600613          	li	a2,86
   1d18e:	00001097          	auipc	ra,0x1
   1d192:	386080e7          	jalr	902(ra) # 1e514 <memcpy>
   1d196:	6505                	lui	a0,0x1
   1d198:	38c50513          	addi	a0,a0,908 # 138c <.Lline_table_start1+0x1161>
   1d19c:	950a                	add	a0,a0,sp
   1d19e:	7ff10593          	addi	a1,sp,2047
   1d1a2:	51f58593          	addi	a1,a1,1311
   1d1a6:	ffff7097          	auipc	ra,0xffff7
   1d1aa:	0ec080e7          	jalr	236(ra) # 14292 <_ZN20complex_dynamic_type3app17h5670ae6f079cf73eE>
   1d1ae:	3ec9c503          	lbu	a0,1004(s3)
   1d1b2:	c119                	beqz	a0,1d1b8 <_start+0x3398>
   1d1b4:	2560106f          	j	1e40a <_start+0x45ea>
   1d1b8:	3ee9c503          	lbu	a0,1006(s3)
   1d1bc:	3ed9c583          	lbu	a1,1005(s3)
   1d1c0:	3ef9c603          	lbu	a2,1007(s3)
   1d1c4:	3f09a483          	lw	s1,1008(s3)
   1d1c8:	0522                	slli	a0,a0,0x8
   1d1ca:	8d4d                	or	a0,a0,a1
   1d1cc:	5ca41f23          	sh	a0,1502(s0)
   1d1d0:	5ec40023          	sb	a2,1504(s0)
   1d1d4:	6505                	lui	a0,0x1
   1d1d6:	39450513          	addi	a0,a0,916 # 1394 <.Lline_table_start1+0x1169>
   1d1da:	00a105b3          	add	a1,sp,a0
   1d1de:	6505                	lui	a0,0x1
   1d1e0:	33050513          	addi	a0,a0,816 # 1330 <.Lline_table_start1+0x1105>
   1d1e4:	950a                	add	a0,a0,sp
   1d1e6:	03900613          	li	a2,57
   1d1ea:	00001097          	auipc	ra,0x1
   1d1ee:	32a080e7          	jalr	810(ra) # 1e514 <memcpy>
   1d1f2:	0184d513          	srli	a0,s1,0x18
   1d1f6:	0104d593          	srli	a1,s1,0x10
   1d1fa:	0084d613          	srli	a2,s1,0x8
   1d1fe:	5e9400a3          	sb	s1,1505(s0)
   1d202:	5ec40123          	sb	a2,1506(s0)
   1d206:	5eb401a3          	sb	a1,1507(s0)
   1d20a:	5ea40223          	sb	a0,1508(s0)
   1d20e:	7ff10513          	addi	a0,sp,2047
   1d212:	58450513          	addi	a0,a0,1412
   1d216:	6585                	lui	a1,0x1
   1d218:	33058593          	addi	a1,a1,816 # 1330 <.Lline_table_start1+0x1105>
   1d21c:	958a                	add	a1,a1,sp
   1d21e:	03900613          	li	a2,57
   1d222:	00001097          	auipc	ra,0x1
   1d226:	2f2080e7          	jalr	754(ra) # 1e514 <memcpy>
   1d22a:	6505                	lui	a0,0x1
   1d22c:	38c50513          	addi	a0,a0,908 # 138c <.Lline_table_start1+0x1161>
   1d230:	950a                	add	a0,a0,sp
   1d232:	7ff10593          	addi	a1,sp,2047
   1d236:	57d58593          	addi	a1,a1,1405
   1d23a:	ffff6097          	auipc	ra,0xffff6
   1d23e:	e6c080e7          	jalr	-404(ra) # 130a6 <_ZN20complex_dynamic_type3app17h3bb3fc4ba2defa9cE>
   1d242:	3ec9c503          	lbu	a0,1004(s3)
   1d246:	c119                	beqz	a0,1d24c <_start+0x342c>
   1d248:	1c20106f          	j	1e40a <_start+0x45ea>
   1d24c:	3ee9c503          	lbu	a0,1006(s3)
   1d250:	3ed9c583          	lbu	a1,1005(s3)
   1d254:	3ef9c603          	lbu	a2,1007(s3)
   1d258:	3f09a483          	lw	s1,1008(s3)
   1d25c:	0522                	slli	a0,a0,0x8
   1d25e:	8d4d                	or	a0,a0,a1
   1d260:	60a41f23          	sh	a0,1566(s0)
   1d264:	62c40023          	sb	a2,1568(s0)
   1d268:	6505                	lui	a0,0x1
   1d26a:	39450513          	addi	a0,a0,916 # 1394 <.Lline_table_start1+0x1169>
   1d26e:	00a105b3          	add	a1,sp,a0
   1d272:	6505                	lui	a0,0x1
   1d274:	33050513          	addi	a0,a0,816 # 1330 <.Lline_table_start1+0x1105>
   1d278:	950a                	add	a0,a0,sp
   1d27a:	02a00613          	li	a2,42
   1d27e:	00001097          	auipc	ra,0x1
   1d282:	296080e7          	jalr	662(ra) # 1e514 <memcpy>
   1d286:	0184d513          	srli	a0,s1,0x18
   1d28a:	0104d593          	srli	a1,s1,0x10
   1d28e:	0084d613          	srli	a2,s1,0x8
   1d292:	629400a3          	sb	s1,1569(s0)
   1d296:	62c40123          	sb	a2,1570(s0)
   1d29a:	62b401a3          	sb	a1,1571(s0)
   1d29e:	62a40223          	sb	a0,1572(s0)
   1d2a2:	7ff10513          	addi	a0,sp,2047
   1d2a6:	5c450513          	addi	a0,a0,1476
   1d2aa:	6585                	lui	a1,0x1
   1d2ac:	33058593          	addi	a1,a1,816 # 1330 <.Lline_table_start1+0x1105>
   1d2b0:	958a                	add	a1,a1,sp
   1d2b2:	02a00613          	li	a2,42
   1d2b6:	00001097          	auipc	ra,0x1
   1d2ba:	25e080e7          	jalr	606(ra) # 1e514 <memcpy>
   1d2be:	6505                	lui	a0,0x1
   1d2c0:	38c50513          	addi	a0,a0,908 # 138c <.Lline_table_start1+0x1161>
   1d2c4:	950a                	add	a0,a0,sp
   1d2c6:	7ff10593          	addi	a1,sp,2047
   1d2ca:	5bd58593          	addi	a1,a1,1469
   1d2ce:	ffff8097          	auipc	ra,0xffff8
   1d2d2:	61e080e7          	jalr	1566(ra) # 158ec <_ZN20complex_dynamic_type3app17h8a0054fcd52e8bc9E>
   1d2d6:	3ec9c503          	lbu	a0,1004(s3)
   1d2da:	c119                	beqz	a0,1d2e0 <_start+0x34c0>
   1d2dc:	12e0106f          	j	1e40a <_start+0x45ea>
   1d2e0:	3ee9c503          	lbu	a0,1006(s3)
   1d2e4:	3ed9c583          	lbu	a1,1005(s3)
   1d2e8:	3ef9c603          	lbu	a2,1007(s3)
   1d2ec:	3f09a483          	lw	s1,1008(s3)
   1d2f0:	0522                	slli	a0,a0,0x8
   1d2f2:	8d4d                	or	a0,a0,a1
   1d2f4:	64a41823          	sh	a0,1616(s0)
   1d2f8:	64c40923          	sb	a2,1618(s0)
   1d2fc:	6505                	lui	a0,0x1
   1d2fe:	39450513          	addi	a0,a0,916 # 1394 <.Lline_table_start1+0x1169>
   1d302:	00a105b3          	add	a1,sp,a0
   1d306:	6505                	lui	a0,0x1
   1d308:	33050513          	addi	a0,a0,816 # 1330 <.Lline_table_start1+0x1105>
   1d30c:	950a                	add	a0,a0,sp
   1d30e:	04100613          	li	a2,65
   1d312:	00001097          	auipc	ra,0x1
   1d316:	202080e7          	jalr	514(ra) # 1e514 <memcpy>
   1d31a:	0184d513          	srli	a0,s1,0x18
   1d31e:	0104d593          	srli	a1,s1,0x10
   1d322:	0084d613          	srli	a2,s1,0x8
   1d326:	649409a3          	sb	s1,1619(s0)
   1d32a:	64c40a23          	sb	a2,1620(s0)
   1d32e:	64b40aa3          	sb	a1,1621(s0)
   1d332:	64a40b23          	sb	a0,1622(s0)
   1d336:	7ff10513          	addi	a0,sp,2047
   1d33a:	5f650513          	addi	a0,a0,1526
   1d33e:	6585                	lui	a1,0x1
   1d340:	33058593          	addi	a1,a1,816 # 1330 <.Lline_table_start1+0x1105>
   1d344:	958a                	add	a1,a1,sp
   1d346:	04100613          	li	a2,65
   1d34a:	00001097          	auipc	ra,0x1
   1d34e:	1ca080e7          	jalr	458(ra) # 1e514 <memcpy>
   1d352:	6505                	lui	a0,0x1
   1d354:	38c50513          	addi	a0,a0,908 # 138c <.Lline_table_start1+0x1161>
   1d358:	950a                	add	a0,a0,sp
   1d35a:	7ff10593          	addi	a1,sp,2047
   1d35e:	5ef58593          	addi	a1,a1,1519
   1d362:	ffff5097          	auipc	ra,0xffff5
   1d366:	142080e7          	jalr	322(ra) # 124a4 <_ZN20complex_dynamic_type3app17h23ceaa8d10c95411E>
   1d36a:	3ec9c503          	lbu	a0,1004(s3)
   1d36e:	c119                	beqz	a0,1d374 <_start+0x3554>
   1d370:	09a0106f          	j	1e40a <_start+0x45ea>
   1d374:	3ee9c503          	lbu	a0,1006(s3)
   1d378:	3ed9c583          	lbu	a1,1005(s3)
   1d37c:	3ef9c603          	lbu	a2,1007(s3)
   1d380:	3f09a483          	lw	s1,1008(s3)
   1d384:	0522                	slli	a0,a0,0x8
   1d386:	8d4d                	or	a0,a0,a1
   1d388:	68a41c23          	sh	a0,1688(s0)
   1d38c:	68c40d23          	sb	a2,1690(s0)
   1d390:	6505                	lui	a0,0x1
   1d392:	39450513          	addi	a0,a0,916 # 1394 <.Lline_table_start1+0x1169>
   1d396:	00a105b3          	add	a1,sp,a0
   1d39a:	6505                	lui	a0,0x1
   1d39c:	33050513          	addi	a0,a0,816 # 1330 <.Lline_table_start1+0x1105>
   1d3a0:	950a                	add	a0,a0,sp
   1d3a2:	02200613          	li	a2,34
   1d3a6:	00001097          	auipc	ra,0x1
   1d3aa:	16e080e7          	jalr	366(ra) # 1e514 <memcpy>
   1d3ae:	0184d513          	srli	a0,s1,0x18
   1d3b2:	0104d593          	srli	a1,s1,0x10
   1d3b6:	0084d613          	srli	a2,s1,0x8
   1d3ba:	68940da3          	sb	s1,1691(s0)
   1d3be:	68c40e23          	sb	a2,1692(s0)
   1d3c2:	68b40ea3          	sb	a1,1693(s0)
   1d3c6:	68a40f23          	sb	a0,1694(s0)
   1d3ca:	7ff10513          	addi	a0,sp,2047
   1d3ce:	63e50513          	addi	a0,a0,1598
   1d3d2:	6585                	lui	a1,0x1
   1d3d4:	33058593          	addi	a1,a1,816 # 1330 <.Lline_table_start1+0x1105>
   1d3d8:	958a                	add	a1,a1,sp
   1d3da:	02200613          	li	a2,34
   1d3de:	00001097          	auipc	ra,0x1
   1d3e2:	136080e7          	jalr	310(ra) # 1e514 <memcpy>
   1d3e6:	6505                	lui	a0,0x1
   1d3e8:	38c50513          	addi	a0,a0,908 # 138c <.Lline_table_start1+0x1161>
   1d3ec:	950a                	add	a0,a0,sp
   1d3ee:	7ff10593          	addi	a1,sp,2047
   1d3f2:	63758593          	addi	a1,a1,1591
   1d3f6:	ffff5097          	auipc	ra,0xffff5
   1d3fa:	3b0080e7          	jalr	944(ra) # 127a6 <_ZN20complex_dynamic_type3app17h2c704c8b9a13f084E>
   1d3fe:	3ec9c503          	lbu	a0,1004(s3)
   1d402:	c119                	beqz	a0,1d408 <_start+0x35e8>
   1d404:	0060106f          	j	1e40a <_start+0x45ea>
   1d408:	3ed9c803          	lbu	a6,1005(s3)
   1d40c:	3ee9c583          	lbu	a1,1006(s3)
   1d410:	3f49a603          	lw	a2,1012(s3)
   1d414:	3f89a683          	lw	a3,1016(s3)
   1d418:	3fc9a703          	lw	a4,1020(s3)
   1d41c:	4009a783          	lw	a5,1024(s3)
   1d420:	40499483          	lh	s1,1028(s3)
   1d424:	4069c503          	lbu	a0,1030(s3)
   1d428:	38c9a823          	sw	a2,912(s3)
   1d42c:	38d9aa23          	sw	a3,916(s3)
   1d430:	38e9ac23          	sw	a4,920(s3)
   1d434:	38f9ae23          	sw	a5,924(s3)
   1d438:	3ef9c603          	lbu	a2,1007(s3)
   1d43c:	3f09a683          	lw	a3,1008(s3)
   1d440:	05a2                	slli	a1,a1,0x8
   1d442:	3a999023          	sh	s1,928(s3)
   1d446:	3aa98123          	sb	a0,930(s3)
   1d44a:	0186d513          	srli	a0,a3,0x18
   1d44e:	0105e5b3          	or	a1,a1,a6
   1d452:	0106d713          	srli	a4,a3,0x10
   1d456:	6ce403a3          	sb	a4,1735(s0)
   1d45a:	6ca40423          	sb	a0,1736(s0)
   1d45e:	0086d513          	srli	a0,a3,0x8
   1d462:	6cb41123          	sh	a1,1730(s0)
   1d466:	6cc40223          	sb	a2,1732(s0)
   1d46a:	6cd402a3          	sb	a3,1733(s0)
   1d46e:	6ca40323          	sb	a0,1734(s0)
   1d472:	7ff10513          	addi	a0,sp,2047
   1d476:	66850513          	addi	a0,a0,1640
   1d47a:	6585                	lui	a1,0x1
   1d47c:	33058593          	addi	a1,a1,816 # 1330 <.Lline_table_start1+0x1105>
   1d480:	958a                	add	a1,a1,sp
   1d482:	464d                	li	a2,19
   1d484:	00001097          	auipc	ra,0x1
   1d488:	090080e7          	jalr	144(ra) # 1e514 <memcpy>
   1d48c:	6505                	lui	a0,0x1
   1d48e:	38c50513          	addi	a0,a0,908 # 138c <.Lline_table_start1+0x1161>
   1d492:	950a                	add	a0,a0,sp
   1d494:	7ff10593          	addi	a1,sp,2047
   1d498:	66158593          	addi	a1,a1,1633
   1d49c:	ffff9097          	auipc	ra,0xffff9
   1d4a0:	8de080e7          	jalr	-1826(ra) # 15d7a <_ZN20complex_dynamic_type3app17h8dcf062a5268d4dbE>
   1d4a4:	3ec9c503          	lbu	a0,1004(s3)
   1d4a8:	760511e3          	bnez	a0,1e40a <_start+0x45ea>
   1d4ac:	3ed9c883          	lbu	a7,1005(s3)
   1d4b0:	3ee9c583          	lbu	a1,1006(s3)
   1d4b4:	3ef9c803          	lbu	a6,1007(s3)
   1d4b8:	3f09a683          	lw	a3,1008(s3)
   1d4bc:	3f49a703          	lw	a4,1012(s3)
   1d4c0:	3f89a783          	lw	a5,1016(s3)
   1d4c4:	3fc9a483          	lw	s1,1020(s3)
   1d4c8:	4009a603          	lw	a2,1024(s3)
   1d4cc:	4049a503          	lw	a0,1028(s3)
   1d4d0:	38e9a823          	sw	a4,912(s3)
   1d4d4:	38f9aa23          	sw	a5,916(s3)
   1d4d8:	3899ac23          	sw	s1,920(s3)
   1d4dc:	38c9ae23          	sw	a2,924(s3)
   1d4e0:	05a2                	slli	a1,a1,0x8
   1d4e2:	3aa9a023          	sw	a0,928(s3)
   1d4e6:	0186d513          	srli	a0,a3,0x18
   1d4ea:	0115e5b3          	or	a1,a1,a7
   1d4ee:	0106d613          	srli	a2,a3,0x10
   1d4f2:	6ec400a3          	sb	a2,1761(s0)
   1d4f6:	6ea40123          	sb	a0,1762(s0)
   1d4fa:	0086d513          	srli	a0,a3,0x8
   1d4fe:	6cb41e23          	sh	a1,1756(s0)
   1d502:	6d040f23          	sb	a6,1758(s0)
   1d506:	6cd40fa3          	sb	a3,1759(s0)
   1d50a:	6ea40023          	sb	a0,1760(s0)
   1d50e:	7ff10513          	addi	a0,sp,2047
   1d512:	68250513          	addi	a0,a0,1666
   1d516:	6585                	lui	a1,0x1
   1d518:	33058593          	addi	a1,a1,816 # 1330 <.Lline_table_start1+0x1105>
   1d51c:	958a                	add	a1,a1,sp
   1d51e:	4651                	li	a2,20
   1d520:	00001097          	auipc	ra,0x1
   1d524:	ff4080e7          	jalr	-12(ra) # 1e514 <memcpy>
   1d528:	6505                	lui	a0,0x1
   1d52a:	38c50513          	addi	a0,a0,908 # 138c <.Lline_table_start1+0x1161>
   1d52e:	950a                	add	a0,a0,sp
   1d530:	7ff10593          	addi	a1,sp,2047
   1d534:	67b58593          	addi	a1,a1,1659
   1d538:	ffff5097          	auipc	ra,0xffff5
   1d53c:	c7c080e7          	jalr	-900(ra) # 121b4 <_ZN20complex_dynamic_type3app17h1dc261f9faa89b8eE>
   1d540:	3ec9c503          	lbu	a0,1004(s3)
   1d544:	6c0513e3          	bnez	a0,1e40a <_start+0x45ea>
   1d548:	3ee9c503          	lbu	a0,1006(s3)
   1d54c:	3ed9c583          	lbu	a1,1005(s3)
   1d550:	3ef9c603          	lbu	a2,1007(s3)
   1d554:	3f09a483          	lw	s1,1008(s3)
   1d558:	0522                	slli	a0,a0,0x8
   1d55a:	8d4d                	or	a0,a0,a1
   1d55c:	6ea41c23          	sh	a0,1784(s0)
   1d560:	6ec40d23          	sb	a2,1786(s0)
   1d564:	6505                	lui	a0,0x1
   1d566:	39450513          	addi	a0,a0,916 # 1394 <.Lline_table_start1+0x1169>
   1d56a:	00a105b3          	add	a1,sp,a0
   1d56e:	6505                	lui	a0,0x1
   1d570:	33050513          	addi	a0,a0,816 # 1330 <.Lline_table_start1+0x1105>
   1d574:	950a                	add	a0,a0,sp
   1d576:	03a00613          	li	a2,58
   1d57a:	00001097          	auipc	ra,0x1
   1d57e:	f9a080e7          	jalr	-102(ra) # 1e514 <memcpy>
   1d582:	0184d513          	srli	a0,s1,0x18
   1d586:	0104d593          	srli	a1,s1,0x10
   1d58a:	0084d613          	srli	a2,s1,0x8
   1d58e:	6e940da3          	sb	s1,1787(s0)
   1d592:	6ec40e23          	sb	a2,1788(s0)
   1d596:	6eb40ea3          	sb	a1,1789(s0)
   1d59a:	6ea40f23          	sb	a0,1790(s0)
   1d59e:	7ff10513          	addi	a0,sp,2047
   1d5a2:	69e50513          	addi	a0,a0,1694
   1d5a6:	6585                	lui	a1,0x1
   1d5a8:	33058593          	addi	a1,a1,816 # 1330 <.Lline_table_start1+0x1105>
   1d5ac:	958a                	add	a1,a1,sp
   1d5ae:	03a00613          	li	a2,58
   1d5b2:	00001097          	auipc	ra,0x1
   1d5b6:	f62080e7          	jalr	-158(ra) # 1e514 <memcpy>
   1d5ba:	6505                	lui	a0,0x1
   1d5bc:	38c50513          	addi	a0,a0,908 # 138c <.Lline_table_start1+0x1161>
   1d5c0:	950a                	add	a0,a0,sp
   1d5c2:	7ff10593          	addi	a1,sp,2047
   1d5c6:	69758593          	addi	a1,a1,1687
   1d5ca:	ffff5097          	auipc	ra,0xffff5
   1d5ce:	8e6080e7          	jalr	-1818(ra) # 11eb0 <_ZN20complex_dynamic_type3app17h1a58d52394a69be3E>
   1d5d2:	3ec9c503          	lbu	a0,1004(s3)
   1d5d6:	62051ae3          	bnez	a0,1e40a <_start+0x45ea>
   1d5da:	3ed9c883          	lbu	a7,1005(s3)
   1d5de:	3ee9c583          	lbu	a1,1006(s3)
   1d5e2:	3ef9c803          	lbu	a6,1007(s3)
   1d5e6:	3f09a683          	lw	a3,1008(s3)
   1d5ea:	3f49a703          	lw	a4,1012(s3)
   1d5ee:	3f89a783          	lw	a5,1016(s3)
   1d5f2:	3fc9a483          	lw	s1,1020(s3)
   1d5f6:	4009a603          	lw	a2,1024(s3)
   1d5fa:	4049c503          	lbu	a0,1028(s3)
   1d5fe:	38e9a823          	sw	a4,912(s3)
   1d602:	38f9aa23          	sw	a5,916(s3)
   1d606:	3899ac23          	sw	s1,920(s3)
   1d60a:	38c9ae23          	sw	a2,924(s3)
   1d60e:	05a2                	slli	a1,a1,0x8
   1d610:	3aa98023          	sb	a0,928(s3)
   1d614:	0186d513          	srli	a0,a3,0x18
   1d618:	0115e5b3          	or	a1,a1,a7
   1d61c:	0106d613          	srli	a2,a3,0x10
   1d620:	72c40fa3          	sb	a2,1855(s0)
   1d624:	74a40023          	sb	a0,1856(s0)
   1d628:	0086d513          	srli	a0,a3,0x8
   1d62c:	72b41d23          	sh	a1,1850(s0)
   1d630:	73040e23          	sb	a6,1852(s0)
   1d634:	72d40ea3          	sb	a3,1853(s0)
   1d638:	72a40f23          	sb	a0,1854(s0)
   1d63c:	7ff10513          	addi	a0,sp,2047
   1d640:	6e050513          	addi	a0,a0,1760
   1d644:	6585                	lui	a1,0x1
   1d646:	33058593          	addi	a1,a1,816 # 1330 <.Lline_table_start1+0x1105>
   1d64a:	958a                	add	a1,a1,sp
   1d64c:	4645                	li	a2,17
   1d64e:	00001097          	auipc	ra,0x1
   1d652:	ec6080e7          	jalr	-314(ra) # 1e514 <memcpy>
   1d656:	6505                	lui	a0,0x1
   1d658:	38c50513          	addi	a0,a0,908 # 138c <.Lline_table_start1+0x1161>
   1d65c:	950a                	add	a0,a0,sp
   1d65e:	7ff10593          	addi	a1,sp,2047
   1d662:	6d958593          	addi	a1,a1,1753
   1d666:	ffff9097          	auipc	ra,0xffff9
   1d66a:	88e080e7          	jalr	-1906(ra) # 15ef4 <_ZN20complex_dynamic_type3app17h8e76ff3186a319ddE>
   1d66e:	3ec9c503          	lbu	a0,1004(s3)
   1d672:	58051ce3          	bnez	a0,1e40a <_start+0x45ea>
   1d676:	3ed9c503          	lbu	a0,1005(s3)
   1d67a:	3ee9c583          	lbu	a1,1006(s3)
   1d67e:	3ef9c803          	lbu	a6,1007(s3)
   1d682:	3f09a683          	lw	a3,1008(s3)
   1d686:	3f49a703          	lw	a4,1012(s3)
   1d68a:	3f89a783          	lw	a5,1016(s3)
   1d68e:	3fc9a483          	lw	s1,1020(s3)
   1d692:	4009a603          	lw	a2,1024(s3)
   1d696:	38e9a823          	sw	a4,912(s3)
   1d69a:	38f9aa23          	sw	a5,916(s3)
   1d69e:	3899ac23          	sw	s1,920(s3)
   1d6a2:	38c9ae23          	sw	a2,924(s3)
   1d6a6:	4049a603          	lw	a2,1028(s3)
   1d6aa:	40899703          	lh	a4,1032(s3)
   1d6ae:	40a9c783          	lbu	a5,1034(s3)
   1d6b2:	05a2                	slli	a1,a1,0x8
   1d6b4:	3ac9a023          	sw	a2,928(s3)
   1d6b8:	3ae99223          	sh	a4,932(s3)
   1d6bc:	3af98323          	sb	a5,934(s3)
   1d6c0:	0186d613          	srli	a2,a3,0x18
   1d6c4:	8d4d                	or	a0,a0,a1
   1d6c6:	0106d593          	srli	a1,a3,0x10
   1d6ca:	74b40ba3          	sb	a1,1879(s0)
   1d6ce:	74c40c23          	sb	a2,1880(s0)
   1d6d2:	0086d593          	srli	a1,a3,0x8
   1d6d6:	74a41923          	sh	a0,1874(s0)
   1d6da:	75040a23          	sb	a6,1876(s0)
   1d6de:	74d40aa3          	sb	a3,1877(s0)
   1d6e2:	74b40b23          	sb	a1,1878(s0)
   1d6e6:	7ff10513          	addi	a0,sp,2047
   1d6ea:	6f850513          	addi	a0,a0,1784
   1d6ee:	6585                	lui	a1,0x1
   1d6f0:	33058593          	addi	a1,a1,816 # 1330 <.Lline_table_start1+0x1105>
   1d6f4:	958a                	add	a1,a1,sp
   1d6f6:	465d                	li	a2,23
   1d6f8:	00001097          	auipc	ra,0x1
   1d6fc:	e1c080e7          	jalr	-484(ra) # 1e514 <memcpy>
   1d700:	6505                	lui	a0,0x1
   1d702:	38c50513          	addi	a0,a0,908 # 138c <.Lline_table_start1+0x1161>
   1d706:	950a                	add	a0,a0,sp
   1d708:	7ff10593          	addi	a1,sp,2047
   1d70c:	6f158593          	addi	a1,a1,1777
   1d710:	ffff7097          	auipc	ra,0xffff7
   1d714:	e7e080e7          	jalr	-386(ra) # 1458e <_ZN20complex_dynamic_type3app17h6ac29e6ecff3d811E>
   1d718:	3ec9c503          	lbu	a0,1004(s3)
   1d71c:	4e0517e3          	bnez	a0,1e40a <_start+0x45ea>
   1d720:	3ee9c503          	lbu	a0,1006(s3)
   1d724:	3ed9c583          	lbu	a1,1005(s3)
   1d728:	3ef9c603          	lbu	a2,1007(s3)
   1d72c:	3f09a483          	lw	s1,1008(s3)
   1d730:	0522                	slli	a0,a0,0x8
   1d732:	8d4d                	or	a0,a0,a1
   1d734:	76a41823          	sh	a0,1904(s0)
   1d738:	76c40923          	sb	a2,1906(s0)
   1d73c:	6505                	lui	a0,0x1
   1d73e:	39450513          	addi	a0,a0,916 # 1394 <.Lline_table_start1+0x1169>
   1d742:	00a105b3          	add	a1,sp,a0
   1d746:	6505                	lui	a0,0x1
   1d748:	33050513          	addi	a0,a0,816 # 1330 <.Lline_table_start1+0x1105>
   1d74c:	950a                	add	a0,a0,sp
   1d74e:	03500613          	li	a2,53
   1d752:	00001097          	auipc	ra,0x1
   1d756:	dc2080e7          	jalr	-574(ra) # 1e514 <memcpy>
   1d75a:	0184d513          	srli	a0,s1,0x18
   1d75e:	0104d593          	srli	a1,s1,0x10
   1d762:	0084d613          	srli	a2,s1,0x8
   1d766:	769409a3          	sb	s1,1907(s0)
   1d76a:	76c40a23          	sb	a2,1908(s0)
   1d76e:	76b40aa3          	sb	a1,1909(s0)
   1d772:	76a40b23          	sb	a0,1910(s0)
   1d776:	7ff10513          	addi	a0,sp,2047
   1d77a:	71650513          	addi	a0,a0,1814
   1d77e:	6585                	lui	a1,0x1
   1d780:	33058593          	addi	a1,a1,816 # 1330 <.Lline_table_start1+0x1105>
   1d784:	958a                	add	a1,a1,sp
   1d786:	03500613          	li	a2,53
   1d78a:	00001097          	auipc	ra,0x1
   1d78e:	d8a080e7          	jalr	-630(ra) # 1e514 <memcpy>
   1d792:	6505                	lui	a0,0x1
   1d794:	38c50513          	addi	a0,a0,908 # 138c <.Lline_table_start1+0x1161>
   1d798:	950a                	add	a0,a0,sp
   1d79a:	7ff10593          	addi	a1,sp,2047
   1d79e:	70f58593          	addi	a1,a1,1807
   1d7a2:	ffffa097          	auipc	ra,0xffffa
   1d7a6:	3bc080e7          	jalr	956(ra) # 17b5e <_ZN20complex_dynamic_type3app17hb87833dd1d011f75E>
   1d7aa:	3ec9c503          	lbu	a0,1004(s3)
   1d7ae:	44051ee3          	bnez	a0,1e40a <_start+0x45ea>
   1d7b2:	3ee9c503          	lbu	a0,1006(s3)
   1d7b6:	3ed9c583          	lbu	a1,1005(s3)
   1d7ba:	3ef9c603          	lbu	a2,1007(s3)
   1d7be:	3f09a483          	lw	s1,1008(s3)
   1d7c2:	0522                	slli	a0,a0,0x8
   1d7c4:	8d4d                	or	a0,a0,a1
   1d7c6:	7aa41623          	sh	a0,1964(s0)
   1d7ca:	7ac40723          	sb	a2,1966(s0)
   1d7ce:	6505                	lui	a0,0x1
   1d7d0:	39450513          	addi	a0,a0,916 # 1394 <.Lline_table_start1+0x1169>
   1d7d4:	00a105b3          	add	a1,sp,a0
   1d7d8:	6505                	lui	a0,0x1
   1d7da:	33050513          	addi	a0,a0,816 # 1330 <.Lline_table_start1+0x1105>
   1d7de:	950a                	add	a0,a0,sp
   1d7e0:	02500613          	li	a2,37
   1d7e4:	00001097          	auipc	ra,0x1
   1d7e8:	d30080e7          	jalr	-720(ra) # 1e514 <memcpy>
   1d7ec:	0184d513          	srli	a0,s1,0x18
   1d7f0:	0104d593          	srli	a1,s1,0x10
   1d7f4:	0084d613          	srli	a2,s1,0x8
   1d7f8:	7a9407a3          	sb	s1,1967(s0)
   1d7fc:	7ac40823          	sb	a2,1968(s0)
   1d800:	7ab408a3          	sb	a1,1969(s0)
   1d804:	7aa40923          	sb	a0,1970(s0)
   1d808:	7ff10513          	addi	a0,sp,2047
   1d80c:	75250513          	addi	a0,a0,1874
   1d810:	6585                	lui	a1,0x1
   1d812:	33058593          	addi	a1,a1,816 # 1330 <.Lline_table_start1+0x1105>
   1d816:	958a                	add	a1,a1,sp
   1d818:	02500613          	li	a2,37
   1d81c:	00001097          	auipc	ra,0x1
   1d820:	cf8080e7          	jalr	-776(ra) # 1e514 <memcpy>
   1d824:	6505                	lui	a0,0x1
   1d826:	38c50513          	addi	a0,a0,908 # 138c <.Lline_table_start1+0x1161>
   1d82a:	950a                	add	a0,a0,sp
   1d82c:	7ff10593          	addi	a1,sp,2047
   1d830:	74b58593          	addi	a1,a1,1867
   1d834:	ffff8097          	auipc	ra,0xffff8
   1d838:	f34080e7          	jalr	-204(ra) # 15768 <_ZN20complex_dynamic_type3app17h84556c3901432e43E>
   1d83c:	3ec9c503          	lbu	a0,1004(s3)
   1d840:	3c0515e3          	bnez	a0,1e40a <_start+0x45ea>
   1d844:	3ed9c503          	lbu	a0,1005(s3)
   1d848:	3ee9c583          	lbu	a1,1006(s3)
   1d84c:	3ef9c803          	lbu	a6,1007(s3)
   1d850:	3f09a683          	lw	a3,1008(s3)
   1d854:	3f49a703          	lw	a4,1012(s3)
   1d858:	3f89a783          	lw	a5,1016(s3)
   1d85c:	3fc9a483          	lw	s1,1020(s3)
   1d860:	4009a603          	lw	a2,1024(s3)
   1d864:	38e9a823          	sw	a4,912(s3)
   1d868:	38f9aa23          	sw	a5,916(s3)
   1d86c:	3899ac23          	sw	s1,920(s3)
   1d870:	38c9ae23          	sw	a2,924(s3)
   1d874:	4049a603          	lw	a2,1028(s3)
   1d878:	4089a703          	lw	a4,1032(s3)
   1d87c:	40c9a783          	lw	a5,1036(s3)
   1d880:	4109a483          	lw	s1,1040(s3)
   1d884:	05a2                	slli	a1,a1,0x8
   1d886:	3ac9a023          	sw	a2,928(s3)
   1d88a:	3ae9a223          	sw	a4,932(s3)
   1d88e:	3af9a423          	sw	a5,936(s3)
   1d892:	3a99a623          	sw	s1,940(s3)
   1d896:	0186d613          	srli	a2,a3,0x18
   1d89a:	8d4d                	or	a0,a0,a1
   1d89c:	0106d593          	srli	a1,a3,0x10
   1d8a0:	7cb40ea3          	sb	a1,2013(s0)
   1d8a4:	7cc40f23          	sb	a2,2014(s0)
   1d8a8:	0086d593          	srli	a1,a3,0x8
   1d8ac:	7ca41c23          	sh	a0,2008(s0)
   1d8b0:	7d040d23          	sb	a6,2010(s0)
   1d8b4:	7cd40da3          	sb	a3,2011(s0)
   1d8b8:	7cb40e23          	sb	a1,2012(s0)
   1d8bc:	7ff10513          	addi	a0,sp,2047
   1d8c0:	77e50513          	addi	a0,a0,1918
   1d8c4:	6585                	lui	a1,0x1
   1d8c6:	33058593          	addi	a1,a1,816 # 1330 <.Lline_table_start1+0x1105>
   1d8ca:	958a                	add	a1,a1,sp
   1d8cc:	02000613          	li	a2,32
   1d8d0:	00001097          	auipc	ra,0x1
   1d8d4:	c44080e7          	jalr	-956(ra) # 1e514 <memcpy>
   1d8d8:	6505                	lui	a0,0x1
   1d8da:	38c50513          	addi	a0,a0,908 # 138c <.Lline_table_start1+0x1161>
   1d8de:	950a                	add	a0,a0,sp
   1d8e0:	7ff10593          	addi	a1,sp,2047
   1d8e4:	77758593          	addi	a1,a1,1911
   1d8e8:	ffff8097          	auipc	ra,0xffff8
   1d8ec:	786080e7          	jalr	1926(ra) # 1606e <_ZN20complex_dynamic_type3app17h8f665e057583e8e9E>
   1d8f0:	3ec9c503          	lbu	a0,1004(s3)
   1d8f4:	30051be3          	bnez	a0,1e40a <_start+0x45ea>
   1d8f8:	3ee9c503          	lbu	a0,1006(s3)
   1d8fc:	3ed9c583          	lbu	a1,1005(s3)
   1d900:	3ef9c603          	lbu	a2,1007(s3)
   1d904:	3f09a403          	lw	s0,1008(s3)
   1d908:	0522                	slli	a0,a0,0x8
   1d90a:	8d4d                	or	a0,a0,a1
   1d90c:	fea99f23          	sh	a0,-2(s3)
   1d910:	00c98023          	sb	a2,0(s3)
   1d914:	6505                	lui	a0,0x1
   1d916:	39450513          	addi	a0,a0,916 # 1394 <.Lline_table_start1+0x1169>
   1d91a:	00a105b3          	add	a1,sp,a0
   1d91e:	6505                	lui	a0,0x1
   1d920:	33050513          	addi	a0,a0,816 # 1330 <.Lline_table_start1+0x1105>
   1d924:	950a                	add	a0,a0,sp
   1d926:	04800613          	li	a2,72
   1d92a:	00001097          	auipc	ra,0x1
   1d92e:	bea080e7          	jalr	-1046(ra) # 1e514 <memcpy>
   1d932:	01845513          	srli	a0,s0,0x18
   1d936:	01045593          	srli	a1,s0,0x10
   1d93a:	00845613          	srli	a2,s0,0x8
   1d93e:	008980a3          	sb	s0,1(s3)
   1d942:	00c98123          	sb	a2,2(s3)
   1d946:	00b981a3          	sb	a1,3(s3)
   1d94a:	00a98223          	sb	a0,4(s3)
   1d94e:	7ff10513          	addi	a0,sp,2047
   1d952:	7a650513          	addi	a0,a0,1958
   1d956:	6585                	lui	a1,0x1
   1d958:	33058593          	addi	a1,a1,816 # 1330 <.Lline_table_start1+0x1105>
   1d95c:	958a                	add	a1,a1,sp
   1d95e:	04800613          	li	a2,72
   1d962:	00001097          	auipc	ra,0x1
   1d966:	bb2080e7          	jalr	-1102(ra) # 1e514 <memcpy>
   1d96a:	6505                	lui	a0,0x1
   1d96c:	38c50513          	addi	a0,a0,908 # 138c <.Lline_table_start1+0x1161>
   1d970:	950a                	add	a0,a0,sp
   1d972:	7ff10593          	addi	a1,sp,2047
   1d976:	79f58593          	addi	a1,a1,1951
   1d97a:	ffff5097          	auipc	ra,0xffff5
   1d97e:	2a8080e7          	jalr	680(ra) # 12c22 <_ZN20complex_dynamic_type3app17h351d5eaf8fe8e240E>
   1d982:	3ec9c503          	lbu	a0,1004(s3)
   1d986:	280512e3          	bnez	a0,1e40a <_start+0x45ea>
   1d98a:	3ee9c503          	lbu	a0,1006(s3)
   1d98e:	3ed9c583          	lbu	a1,1005(s3)
   1d992:	3ef9c603          	lbu	a2,1007(s3)
   1d996:	3f09a403          	lw	s0,1008(s3)
   1d99a:	0522                	slli	a0,a0,0x8
   1d99c:	8d4d                	or	a0,a0,a1
   1d99e:	04a99723          	sh	a0,78(s3)
   1d9a2:	04c98823          	sb	a2,80(s3)
   1d9a6:	6505                	lui	a0,0x1
   1d9a8:	39450513          	addi	a0,a0,916 # 1394 <.Lline_table_start1+0x1169>
   1d9ac:	00a105b3          	add	a1,sp,a0
   1d9b0:	6505                	lui	a0,0x1
   1d9b2:	33050513          	addi	a0,a0,816 # 1330 <.Lline_table_start1+0x1105>
   1d9b6:	950a                	add	a0,a0,sp
   1d9b8:	02e00613          	li	a2,46
   1d9bc:	00001097          	auipc	ra,0x1
   1d9c0:	b58080e7          	jalr	-1192(ra) # 1e514 <memcpy>
   1d9c4:	01845513          	srli	a0,s0,0x18
   1d9c8:	01045593          	srli	a1,s0,0x10
   1d9cc:	00845613          	srli	a2,s0,0x8
   1d9d0:	048988a3          	sb	s0,81(s3)
   1d9d4:	04c98923          	sb	a2,82(s3)
   1d9d8:	04b989a3          	sb	a1,83(s3)
   1d9dc:	04a98a23          	sb	a0,84(s3)
   1d9e0:	7ff10513          	addi	a0,sp,2047
   1d9e4:	7f650513          	addi	a0,a0,2038
   1d9e8:	6585                	lui	a1,0x1
   1d9ea:	33058593          	addi	a1,a1,816 # 1330 <.Lline_table_start1+0x1105>
   1d9ee:	958a                	add	a1,a1,sp
   1d9f0:	02e00613          	li	a2,46
   1d9f4:	00001097          	auipc	ra,0x1
   1d9f8:	b20080e7          	jalr	-1248(ra) # 1e514 <memcpy>
   1d9fc:	6505                	lui	a0,0x1
   1d9fe:	38c50513          	addi	a0,a0,908 # 138c <.Lline_table_start1+0x1161>
   1da02:	950a                	add	a0,a0,sp
   1da04:	7ff10593          	addi	a1,sp,2047
   1da08:	7ef58593          	addi	a1,a1,2031
   1da0c:	ffffb097          	auipc	ra,0xffffb
   1da10:	d7c080e7          	jalr	-644(ra) # 18788 <_ZN20complex_dynamic_type3app17hd064d4f73dd7ba73E>
   1da14:	3ec9c503          	lbu	a0,1004(s3)
   1da18:	1e0519e3          	bnez	a0,1e40a <_start+0x45ea>
   1da1c:	3ee9c503          	lbu	a0,1006(s3)
   1da20:	3ed9c583          	lbu	a1,1005(s3)
   1da24:	3ef9c603          	lbu	a2,1007(s3)
   1da28:	3f09a403          	lw	s0,1008(s3)
   1da2c:	0522                	slli	a0,a0,0x8
   1da2e:	8d4d                	or	a0,a0,a1
   1da30:	08a99223          	sh	a0,132(s3)
   1da34:	08c98323          	sb	a2,134(s3)
   1da38:	6505                	lui	a0,0x1
   1da3a:	39450513          	addi	a0,a0,916 # 1394 <.Lline_table_start1+0x1169>
   1da3e:	00a105b3          	add	a1,sp,a0
   1da42:	6505                	lui	a0,0x1
   1da44:	33050513          	addi	a0,a0,816 # 1330 <.Lline_table_start1+0x1105>
   1da48:	950a                	add	a0,a0,sp
   1da4a:	03800613          	li	a2,56
   1da4e:	00001097          	auipc	ra,0x1
   1da52:	ac6080e7          	jalr	-1338(ra) # 1e514 <memcpy>
   1da56:	01845513          	srli	a0,s0,0x18
   1da5a:	01045593          	srli	a1,s0,0x10
   1da5e:	00845613          	srli	a2,s0,0x8
   1da62:	088983a3          	sb	s0,135(s3)
   1da66:	08c98423          	sb	a2,136(s3)
   1da6a:	08b984a3          	sb	a1,137(s3)
   1da6e:	08a98523          	sb	a0,138(s3)
   1da72:	6505                	lui	a0,0x1
   1da74:	02b50513          	addi	a0,a0,43 # 102b <.Lline_table_start1+0xe00>
   1da78:	950a                	add	a0,a0,sp
   1da7a:	6585                	lui	a1,0x1
   1da7c:	33058593          	addi	a1,a1,816 # 1330 <.Lline_table_start1+0x1105>
   1da80:	958a                	add	a1,a1,sp
   1da82:	03800613          	li	a2,56
   1da86:	00001097          	auipc	ra,0x1
   1da8a:	a8e080e7          	jalr	-1394(ra) # 1e514 <memcpy>
   1da8e:	6505                	lui	a0,0x1
   1da90:	38c50513          	addi	a0,a0,908 # 138c <.Lline_table_start1+0x1161>
   1da94:	950a                	add	a0,a0,sp
   1da96:	6585                	lui	a1,0x1
   1da98:	02458593          	addi	a1,a1,36 # 1024 <.Lline_table_start1+0xdf9>
   1da9c:	958a                	add	a1,a1,sp
   1da9e:	ffff5097          	auipc	ra,0xffff5
   1daa2:	30a080e7          	jalr	778(ra) # 12da8 <_ZN20complex_dynamic_type3app17h36e5ca44a4abbc06E>
   1daa6:	3ec9c503          	lbu	a0,1004(s3)
   1daaa:	160510e3          	bnez	a0,1e40a <_start+0x45ea>
   1daae:	3ed9c503          	lbu	a0,1005(s3)
   1dab2:	3ee9c583          	lbu	a1,1006(s3)
   1dab6:	3ef9c603          	lbu	a2,1007(s3)
   1daba:	3f09a683          	lw	a3,1008(s3)
   1dabe:	3f49a703          	lw	a4,1012(s3)
   1dac2:	3f89a783          	lw	a5,1016(s3)
   1dac6:	3fc99483          	lh	s1,1020(s3)
   1daca:	05a2                	slli	a1,a1,0x8
   1dacc:	38e9a823          	sw	a4,912(s3)
   1dad0:	38f9aa23          	sw	a5,916(s3)
   1dad4:	38999c23          	sh	s1,920(s3)
   1dad8:	0186d713          	srli	a4,a3,0x18
   1dadc:	8d4d                	or	a0,a0,a1
   1dade:	0106d593          	srli	a1,a3,0x10
   1dae2:	0cb984a3          	sb	a1,201(s3)
   1dae6:	0ce98523          	sb	a4,202(s3)
   1daea:	0086d593          	srli	a1,a3,0x8
   1daee:	0ca99223          	sh	a0,196(s3)
   1daf2:	0cc98323          	sb	a2,198(s3)
   1daf6:	0cd983a3          	sb	a3,199(s3)
   1dafa:	0cb98423          	sb	a1,200(s3)
   1dafe:	6505                	lui	a0,0x1
   1db00:	06b50513          	addi	a0,a0,107 # 106b <.Lline_table_start1+0xe40>
   1db04:	950a                	add	a0,a0,sp
   1db06:	6585                	lui	a1,0x1
   1db08:	33058593          	addi	a1,a1,816 # 1330 <.Lline_table_start1+0x1105>
   1db0c:	958a                	add	a1,a1,sp
   1db0e:	4629                	li	a2,10
   1db10:	00001097          	auipc	ra,0x1
   1db14:	a04080e7          	jalr	-1532(ra) # 1e514 <memcpy>
   1db18:	6505                	lui	a0,0x1
   1db1a:	38c50513          	addi	a0,a0,908 # 138c <.Lline_table_start1+0x1161>
   1db1e:	950a                	add	a0,a0,sp
   1db20:	6585                	lui	a1,0x1
   1db22:	06458593          	addi	a1,a1,100 # 1064 <.Lline_table_start1+0xe39>
   1db26:	958a                	add	a1,a1,sp
   1db28:	ffff8097          	auipc	ra,0xffff8
   1db2c:	abe080e7          	jalr	-1346(ra) # 155e6 <_ZN20complex_dynamic_type3app17h819fd079c6e09b15E>
   1db30:	3ec9c503          	lbu	a0,1004(s3)
   1db34:	0c051be3          	bnez	a0,1e40a <_start+0x45ea>
   1db38:	3ee9c503          	lbu	a0,1006(s3)
   1db3c:	3ed9c583          	lbu	a1,1005(s3)
   1db40:	3ef9c603          	lbu	a2,1007(s3)
   1db44:	3f09a403          	lw	s0,1008(s3)
   1db48:	0522                	slli	a0,a0,0x8
   1db4a:	8d4d                	or	a0,a0,a1
   1db4c:	0ca99b23          	sh	a0,214(s3)
   1db50:	0cc98c23          	sb	a2,216(s3)
   1db54:	6505                	lui	a0,0x1
   1db56:	39450513          	addi	a0,a0,916 # 1394 <.Lline_table_start1+0x1169>
   1db5a:	00a105b3          	add	a1,sp,a0
   1db5e:	6505                	lui	a0,0x1
   1db60:	33050513          	addi	a0,a0,816 # 1330 <.Lline_table_start1+0x1105>
   1db64:	950a                	add	a0,a0,sp
   1db66:	03800613          	li	a2,56
   1db6a:	00001097          	auipc	ra,0x1
   1db6e:	9aa080e7          	jalr	-1622(ra) # 1e514 <memcpy>
   1db72:	01845513          	srli	a0,s0,0x18
   1db76:	01045593          	srli	a1,s0,0x10
   1db7a:	00845613          	srli	a2,s0,0x8
   1db7e:	0c898ca3          	sb	s0,217(s3)
   1db82:	0cc98d23          	sb	a2,218(s3)
   1db86:	0cb98da3          	sb	a1,219(s3)
   1db8a:	0ca98e23          	sb	a0,220(s3)
   1db8e:	6505                	lui	a0,0x1
   1db90:	07d50513          	addi	a0,a0,125 # 107d <.Lline_table_start1+0xe52>
   1db94:	950a                	add	a0,a0,sp
   1db96:	6585                	lui	a1,0x1
   1db98:	33058593          	addi	a1,a1,816 # 1330 <.Lline_table_start1+0x1105>
   1db9c:	958a                	add	a1,a1,sp
   1db9e:	03800613          	li	a2,56
   1dba2:	00001097          	auipc	ra,0x1
   1dba6:	972080e7          	jalr	-1678(ra) # 1e514 <memcpy>
   1dbaa:	6505                	lui	a0,0x1
   1dbac:	38c50513          	addi	a0,a0,908 # 138c <.Lline_table_start1+0x1161>
   1dbb0:	950a                	add	a0,a0,sp
   1dbb2:	6585                	lui	a1,0x1
   1dbb4:	07658593          	addi	a1,a1,118 # 1076 <.Lline_table_start1+0xe4b>
   1dbb8:	958a                	add	a1,a1,sp
   1dbba:	ffffc097          	auipc	ra,0xffffc
   1dbbe:	958080e7          	jalr	-1704(ra) # 19512 <_ZN20complex_dynamic_type3app17hf6a05ec78ca1df11E>
   1dbc2:	3ec9c503          	lbu	a0,1004(s3)
   1dbc6:	040512e3          	bnez	a0,1e40a <_start+0x45ea>
   1dbca:	3ed9c503          	lbu	a0,1005(s3)
   1dbce:	3ee9c583          	lbu	a1,1006(s3)
   1dbd2:	3f49a603          	lw	a2,1012(s3)
   1dbd6:	3f89a683          	lw	a3,1016(s3)
   1dbda:	3fc9a703          	lw	a4,1020(s3)
   1dbde:	4009a783          	lw	a5,1024(s3)
   1dbe2:	4049a483          	lw	s1,1028(s3)
   1dbe6:	4089c403          	lbu	s0,1032(s3)
   1dbea:	38c9a823          	sw	a2,912(s3)
   1dbee:	38d9aa23          	sw	a3,916(s3)
   1dbf2:	38e9ac23          	sw	a4,920(s3)
   1dbf6:	38f9ae23          	sw	a5,924(s3)
   1dbfa:	3ef9c603          	lbu	a2,1007(s3)
   1dbfe:	3f09a683          	lw	a3,1008(s3)
   1dc02:	05a2                	slli	a1,a1,0x8
   1dc04:	3a99a023          	sw	s1,928(s3)
   1dc08:	3a898223          	sb	s0,932(s3)
   1dc0c:	0186d713          	srli	a4,a3,0x18
   1dc10:	8d4d                	or	a0,a0,a1
   1dc12:	0106d593          	srli	a1,a3,0x10
   1dc16:	10b98da3          	sb	a1,283(s3)
   1dc1a:	10e98e23          	sb	a4,284(s3)
   1dc1e:	0086d593          	srli	a1,a3,0x8
   1dc22:	10a99b23          	sh	a0,278(s3)
   1dc26:	10c98c23          	sb	a2,280(s3)
   1dc2a:	10d98ca3          	sb	a3,281(s3)
   1dc2e:	10b98d23          	sb	a1,282(s3)
   1dc32:	6505                	lui	a0,0x1
   1dc34:	0bd50513          	addi	a0,a0,189 # 10bd <.Lline_table_start1+0xe92>
   1dc38:	950a                	add	a0,a0,sp
   1dc3a:	6585                	lui	a1,0x1
   1dc3c:	33058593          	addi	a1,a1,816 # 1330 <.Lline_table_start1+0x1105>
   1dc40:	958a                	add	a1,a1,sp
   1dc42:	4655                	li	a2,21
   1dc44:	00001097          	auipc	ra,0x1
   1dc48:	8d0080e7          	jalr	-1840(ra) # 1e514 <memcpy>
   1dc4c:	6505                	lui	a0,0x1
   1dc4e:	38c50513          	addi	a0,a0,908 # 138c <.Lline_table_start1+0x1161>
   1dc52:	950a                	add	a0,a0,sp
   1dc54:	6585                	lui	a1,0x1
   1dc56:	0b658593          	addi	a1,a1,182 # 10b6 <.Lline_table_start1+0xe8b>
   1dc5a:	958a                	add	a1,a1,sp
   1dc5c:	ffff6097          	auipc	ra,0xffff6
   1dc60:	ec8080e7          	jalr	-312(ra) # 13b24 <_ZN20complex_dynamic_type3app17h463f04da8d76f28aE>
   1dc64:	3ec9c503          	lbu	a0,1004(s3)
   1dc68:	7a051163          	bnez	a0,1e40a <_start+0x45ea>
   1dc6c:	3ee9c503          	lbu	a0,1006(s3)
   1dc70:	3ed9c583          	lbu	a1,1005(s3)
   1dc74:	3ef9c603          	lbu	a2,1007(s3)
   1dc78:	3f09a403          	lw	s0,1008(s3)
   1dc7c:	0522                	slli	a0,a0,0x8
   1dc7e:	8d4d                	or	a0,a0,a1
   1dc80:	12a99923          	sh	a0,306(s3)
   1dc84:	12c98a23          	sb	a2,308(s3)
   1dc88:	6505                	lui	a0,0x1
   1dc8a:	39450513          	addi	a0,a0,916 # 1394 <.Lline_table_start1+0x1169>
   1dc8e:	00a105b3          	add	a1,sp,a0
   1dc92:	6505                	lui	a0,0x1
   1dc94:	33050513          	addi	a0,a0,816 # 1330 <.Lline_table_start1+0x1105>
   1dc98:	950a                	add	a0,a0,sp
   1dc9a:	05600613          	li	a2,86
   1dc9e:	00001097          	auipc	ra,0x1
   1dca2:	876080e7          	jalr	-1930(ra) # 1e514 <memcpy>
   1dca6:	01845513          	srli	a0,s0,0x18
   1dcaa:	01045593          	srli	a1,s0,0x10
   1dcae:	00845613          	srli	a2,s0,0x8
   1dcb2:	12898aa3          	sb	s0,309(s3)
   1dcb6:	12c98b23          	sb	a2,310(s3)
   1dcba:	12b98ba3          	sb	a1,311(s3)
   1dcbe:	12a98c23          	sb	a0,312(s3)
   1dcc2:	6505                	lui	a0,0x1
   1dcc4:	0d950513          	addi	a0,a0,217 # 10d9 <.Lline_table_start1+0xeae>
   1dcc8:	950a                	add	a0,a0,sp
   1dcca:	6585                	lui	a1,0x1
   1dccc:	33058593          	addi	a1,a1,816 # 1330 <.Lline_table_start1+0x1105>
   1dcd0:	958a                	add	a1,a1,sp
   1dcd2:	05600613          	li	a2,86
   1dcd6:	00001097          	auipc	ra,0x1
   1dcda:	83e080e7          	jalr	-1986(ra) # 1e514 <memcpy>
   1dcde:	6505                	lui	a0,0x1
   1dce0:	38c50513          	addi	a0,a0,908 # 138c <.Lline_table_start1+0x1161>
   1dce4:	950a                	add	a0,a0,sp
   1dce6:	6585                	lui	a1,0x1
   1dce8:	0d258593          	addi	a1,a1,210 # 10d2 <.Lline_table_start1+0xea7>
   1dcec:	958a                	add	a1,a1,sp
   1dcee:	ffff8097          	auipc	ra,0xffff8
   1dcf2:	7fe080e7          	jalr	2046(ra) # 164ec <_ZN20complex_dynamic_type3app17h9c3554fa4ff2d434E>
   1dcf6:	3ec9c503          	lbu	a0,1004(s3)
   1dcfa:	70051863          	bnez	a0,1e40a <_start+0x45ea>
   1dcfe:	3ed9c503          	lbu	a0,1005(s3)
   1dd02:	3ee9c583          	lbu	a1,1006(s3)
   1dd06:	3ef9c603          	lbu	a2,1007(s3)
   1dd0a:	3f09a683          	lw	a3,1008(s3)
   1dd0e:	3f49a703          	lw	a4,1012(s3)
   1dd12:	3f89a783          	lw	a5,1016(s3)
   1dd16:	3fc99483          	lh	s1,1020(s3)
   1dd1a:	3fe9c403          	lbu	s0,1022(s3)
   1dd1e:	05a2                	slli	a1,a1,0x8
   1dd20:	38e9a823          	sw	a4,912(s3)
   1dd24:	38f9aa23          	sw	a5,916(s3)
   1dd28:	38999c23          	sh	s1,920(s3)
   1dd2c:	38898d23          	sb	s0,922(s3)
   1dd30:	0186d713          	srli	a4,a3,0x18
   1dd34:	8d4d                	or	a0,a0,a1
   1dd36:	0106d593          	srli	a1,a3,0x10
   1dd3a:	18b98aa3          	sb	a1,405(s3)
   1dd3e:	18e98b23          	sb	a4,406(s3)
   1dd42:	0086d593          	srli	a1,a3,0x8
   1dd46:	18a99823          	sh	a0,400(s3)
   1dd4a:	18c98923          	sb	a2,402(s3)
   1dd4e:	18d989a3          	sb	a3,403(s3)
   1dd52:	18b98a23          	sb	a1,404(s3)
   1dd56:	6505                	lui	a0,0x1
   1dd58:	13750513          	addi	a0,a0,311 # 1137 <.Lline_table_start1+0xf0c>
   1dd5c:	950a                	add	a0,a0,sp
   1dd5e:	6585                	lui	a1,0x1
   1dd60:	33058593          	addi	a1,a1,816 # 1330 <.Lline_table_start1+0x1105>
   1dd64:	958a                	add	a1,a1,sp
   1dd66:	462d                	li	a2,11
   1dd68:	00000097          	auipc	ra,0x0
   1dd6c:	7ac080e7          	jalr	1964(ra) # 1e514 <memcpy>
   1dd70:	6505                	lui	a0,0x1
   1dd72:	38c50513          	addi	a0,a0,908 # 138c <.Lline_table_start1+0x1161>
   1dd76:	950a                	add	a0,a0,sp
   1dd78:	6585                	lui	a1,0x1
   1dd7a:	13058593          	addi	a1,a1,304 # 1130 <.Lline_table_start1+0xf05>
   1dd7e:	958a                	add	a1,a1,sp
   1dd80:	ffff4097          	auipc	ra,0xffff4
   1dd84:	fae080e7          	jalr	-82(ra) # 11d2e <_ZN20complex_dynamic_type3app17h19d89e10befb24d0E>
   1dd88:	3ec9c503          	lbu	a0,1004(s3)
   1dd8c:	66051f63          	bnez	a0,1e40a <_start+0x45ea>
   1dd90:	3ee9c503          	lbu	a0,1006(s3)
   1dd94:	3ed9c583          	lbu	a1,1005(s3)
   1dd98:	3ef9c603          	lbu	a2,1007(s3)
   1dd9c:	3f09a403          	lw	s0,1008(s3)
   1dda0:	0522                	slli	a0,a0,0x8
   1dda2:	8d4d                	or	a0,a0,a1
   1dda4:	1aa99123          	sh	a0,418(s3)
   1dda8:	1ac98223          	sb	a2,420(s3)
   1ddac:	6505                	lui	a0,0x1
   1ddae:	39450513          	addi	a0,a0,916 # 1394 <.Lline_table_start1+0x1169>
   1ddb2:	00a105b3          	add	a1,sp,a0
   1ddb6:	6505                	lui	a0,0x1
   1ddb8:	33050513          	addi	a0,a0,816 # 1330 <.Lline_table_start1+0x1105>
   1ddbc:	950a                	add	a0,a0,sp
   1ddbe:	03d00613          	li	a2,61
   1ddc2:	00000097          	auipc	ra,0x0
   1ddc6:	752080e7          	jalr	1874(ra) # 1e514 <memcpy>
   1ddca:	01845513          	srli	a0,s0,0x18
   1ddce:	01045593          	srli	a1,s0,0x10
   1ddd2:	00845613          	srli	a2,s0,0x8
   1ddd6:	1a8982a3          	sb	s0,421(s3)
   1ddda:	1ac98323          	sb	a2,422(s3)
   1ddde:	1ab983a3          	sb	a1,423(s3)
   1dde2:	1aa98423          	sb	a0,424(s3)
   1dde6:	6505                	lui	a0,0x1
   1dde8:	14950513          	addi	a0,a0,329 # 1149 <.Lline_table_start1+0xf1e>
   1ddec:	950a                	add	a0,a0,sp
   1ddee:	6585                	lui	a1,0x1
   1ddf0:	33058593          	addi	a1,a1,816 # 1330 <.Lline_table_start1+0x1105>
   1ddf4:	958a                	add	a1,a1,sp
   1ddf6:	03d00613          	li	a2,61
   1ddfa:	00000097          	auipc	ra,0x0
   1ddfe:	71a080e7          	jalr	1818(ra) # 1e514 <memcpy>
   1de02:	6505                	lui	a0,0x1
   1de04:	38c50513          	addi	a0,a0,908 # 138c <.Lline_table_start1+0x1161>
   1de08:	950a                	add	a0,a0,sp
   1de0a:	6585                	lui	a1,0x1
   1de0c:	14258593          	addi	a1,a1,322 # 1142 <.Lline_table_start1+0xf17>
   1de10:	958a                	add	a1,a1,sp
   1de12:	ffffc097          	auipc	ra,0xffffc
   1de16:	87c080e7          	jalr	-1924(ra) # 1968e <_ZN20complex_dynamic_type3app17hf8188cf7333554aaE>
   1de1a:	3ec9c503          	lbu	a0,1004(s3)
   1de1e:	5e051663          	bnez	a0,1e40a <_start+0x45ea>
   1de22:	3ed9c503          	lbu	a0,1005(s3)
   1de26:	3ee9c583          	lbu	a1,1006(s3)
   1de2a:	3ef9c603          	lbu	a2,1007(s3)
   1de2e:	3f09a683          	lw	a3,1008(s3)
   1de32:	3f49a703          	lw	a4,1012(s3)
   1de36:	3f89a783          	lw	a5,1016(s3)
   1de3a:	3fc9a483          	lw	s1,1020(s3)
   1de3e:	4009a403          	lw	s0,1024(s3)
   1de42:	38e9a823          	sw	a4,912(s3)
   1de46:	38f9aa23          	sw	a5,916(s3)
   1de4a:	3899ac23          	sw	s1,920(s3)
   1de4e:	3889ae23          	sw	s0,924(s3)
   1de52:	4049a703          	lw	a4,1028(s3)
   1de56:	4089a783          	lw	a5,1032(s3)
   1de5a:	40c9a483          	lw	s1,1036(s3)
   1de5e:	05a2                	slli	a1,a1,0x8
   1de60:	3ae9a023          	sw	a4,928(s3)
   1de64:	3af9a223          	sw	a5,932(s3)
   1de68:	3a99a423          	sw	s1,936(s3)
   1de6c:	0186d713          	srli	a4,a3,0x18
   1de70:	8d4d                	or	a0,a0,a1
   1de72:	0106d593          	srli	a1,a3,0x10
   1de76:	1eb985a3          	sb	a1,491(s3)
   1de7a:	1ee98623          	sb	a4,492(s3)
   1de7e:	0086d593          	srli	a1,a3,0x8
   1de82:	1ea99323          	sh	a0,486(s3)
   1de86:	1ec98423          	sb	a2,488(s3)
   1de8a:	1ed984a3          	sb	a3,489(s3)
   1de8e:	1eb98523          	sb	a1,490(s3)
   1de92:	6505                	lui	a0,0x1
   1de94:	18d50513          	addi	a0,a0,397 # 118d <.Lline_table_start1+0xf62>
   1de98:	950a                	add	a0,a0,sp
   1de9a:	6585                	lui	a1,0x1
   1de9c:	33058593          	addi	a1,a1,816 # 1330 <.Lline_table_start1+0x1105>
   1dea0:	958a                	add	a1,a1,sp
   1dea2:	4671                	li	a2,28
   1dea4:	00000097          	auipc	ra,0x0
   1dea8:	670080e7          	jalr	1648(ra) # 1e514 <memcpy>
   1deac:	6505                	lui	a0,0x1
   1deae:	38c50513          	addi	a0,a0,908 # 138c <.Lline_table_start1+0x1161>
   1deb2:	950a                	add	a0,a0,sp
   1deb4:	6585                	lui	a1,0x1
   1deb6:	18658593          	addi	a1,a1,390 # 1186 <.Lline_table_start1+0xf5b>
   1deba:	958a                	add	a1,a1,sp
   1debc:	ffffc097          	auipc	ra,0xffffc
   1dec0:	de0080e7          	jalr	-544(ra) # 19c9c <_ZN20complex_dynamic_type3app17hfdc0e0930c226c12E>
   1dec4:	3ec9c503          	lbu	a0,1004(s3)
   1dec8:	54051163          	bnez	a0,1e40a <_start+0x45ea>
   1decc:	3ed9c503          	lbu	a0,1005(s3)
   1ded0:	3ee9c583          	lbu	a1,1006(s3)
   1ded4:	3ef9c603          	lbu	a2,1007(s3)
   1ded8:	3f09a683          	lw	a3,1008(s3)
   1dedc:	3f49a703          	lw	a4,1012(s3)
   1dee0:	3f89a783          	lw	a5,1016(s3)
   1dee4:	3fc9a483          	lw	s1,1020(s3)
   1dee8:	4009a403          	lw	s0,1024(s3)
   1deec:	38e9a823          	sw	a4,912(s3)
   1def0:	38f9aa23          	sw	a5,916(s3)
   1def4:	3899ac23          	sw	s1,920(s3)
   1def8:	3889ae23          	sw	s0,924(s3)
   1defc:	4049a703          	lw	a4,1028(s3)
   1df00:	4089a783          	lw	a5,1032(s3)
   1df04:	40c9a483          	lw	s1,1036(s3)
   1df08:	4109c403          	lbu	s0,1040(s3)
   1df0c:	05a2                	slli	a1,a1,0x8
   1df0e:	3ae9a023          	sw	a4,928(s3)
   1df12:	3af9a223          	sw	a5,932(s3)
   1df16:	3a99a423          	sw	s1,936(s3)
   1df1a:	3a898623          	sb	s0,940(s3)
   1df1e:	0186d713          	srli	a4,a3,0x18
   1df22:	8d4d                	or	a0,a0,a1
   1df24:	0106d593          	srli	a1,a3,0x10
   1df28:	20b987a3          	sb	a1,527(s3)
   1df2c:	20e98823          	sb	a4,528(s3)
   1df30:	0086d593          	srli	a1,a3,0x8
   1df34:	20a99523          	sh	a0,522(s3)
   1df38:	20c98623          	sb	a2,524(s3)
   1df3c:	20d986a3          	sb	a3,525(s3)
   1df40:	20b98723          	sb	a1,526(s3)
   1df44:	6505                	lui	a0,0x1
   1df46:	1b150513          	addi	a0,a0,433 # 11b1 <.Lline_table_start1+0xf86>
   1df4a:	950a                	add	a0,a0,sp
   1df4c:	6585                	lui	a1,0x1
   1df4e:	33058593          	addi	a1,a1,816 # 1330 <.Lline_table_start1+0x1105>
   1df52:	958a                	add	a1,a1,sp
   1df54:	4675                	li	a2,29
   1df56:	00000097          	auipc	ra,0x0
   1df5a:	5be080e7          	jalr	1470(ra) # 1e514 <memcpy>
   1df5e:	6505                	lui	a0,0x1
   1df60:	38c50513          	addi	a0,a0,908 # 138c <.Lline_table_start1+0x1161>
   1df64:	950a                	add	a0,a0,sp
   1df66:	6585                	lui	a1,0x1
   1df68:	1aa58593          	addi	a1,a1,426 # 11aa <.Lline_table_start1+0xf7f>
   1df6c:	958a                	add	a1,a1,sp
   1df6e:	ffffb097          	auipc	ra,0xffffb
   1df72:	9a0080e7          	jalr	-1632(ra) # 1890e <_ZN20complex_dynamic_type3app17hdc892b708df0982eE>
   1df76:	3ec9c503          	lbu	a0,1004(s3)
   1df7a:	48051863          	bnez	a0,1e40a <_start+0x45ea>
   1df7e:	3ee9c503          	lbu	a0,1006(s3)
   1df82:	3ed9c583          	lbu	a1,1005(s3)
   1df86:	3ef9c603          	lbu	a2,1007(s3)
   1df8a:	3f09a403          	lw	s0,1008(s3)
   1df8e:	0522                	slli	a0,a0,0x8
   1df90:	8d4d                	or	a0,a0,a1
   1df92:	22a99723          	sh	a0,558(s3)
   1df96:	22c98823          	sb	a2,560(s3)
   1df9a:	6505                	lui	a0,0x1
   1df9c:	39450513          	addi	a0,a0,916 # 1394 <.Lline_table_start1+0x1169>
   1dfa0:	00a105b3          	add	a1,sp,a0
   1dfa4:	6505                	lui	a0,0x1
   1dfa6:	33050513          	addi	a0,a0,816 # 1330 <.Lline_table_start1+0x1105>
   1dfaa:	950a                	add	a0,a0,sp
   1dfac:	02800613          	li	a2,40
   1dfb0:	00000097          	auipc	ra,0x0
   1dfb4:	564080e7          	jalr	1380(ra) # 1e514 <memcpy>
   1dfb8:	01845513          	srli	a0,s0,0x18
   1dfbc:	01045593          	srli	a1,s0,0x10
   1dfc0:	00845613          	srli	a2,s0,0x8
   1dfc4:	228988a3          	sb	s0,561(s3)
   1dfc8:	22c98923          	sb	a2,562(s3)
   1dfcc:	22b989a3          	sb	a1,563(s3)
   1dfd0:	22a98a23          	sb	a0,564(s3)
   1dfd4:	6505                	lui	a0,0x1
   1dfd6:	1d550513          	addi	a0,a0,469 # 11d5 <.Lline_table_start1+0xfaa>
   1dfda:	950a                	add	a0,a0,sp
   1dfdc:	6585                	lui	a1,0x1
   1dfde:	33058593          	addi	a1,a1,816 # 1330 <.Lline_table_start1+0x1105>
   1dfe2:	958a                	add	a1,a1,sp
   1dfe4:	02800613          	li	a2,40
   1dfe8:	00000097          	auipc	ra,0x0
   1dfec:	52c080e7          	jalr	1324(ra) # 1e514 <memcpy>
   1dff0:	6505                	lui	a0,0x1
   1dff2:	38c50513          	addi	a0,a0,908 # 138c <.Lline_table_start1+0x1161>
   1dff6:	950a                	add	a0,a0,sp
   1dff8:	6585                	lui	a1,0x1
   1dffa:	1ce58593          	addi	a1,a1,462 # 11ce <.Lline_table_start1+0xfa3>
   1dffe:	958a                	add	a1,a1,sp
   1e000:	ffffa097          	auipc	ra,0xffffa
   1e004:	9e8080e7          	jalr	-1560(ra) # 179e8 <_ZN20complex_dynamic_type3app17hb65d3fafa9f5c04aE>
   1e008:	3ec9c503          	lbu	a0,1004(s3)
   1e00c:	3e051f63          	bnez	a0,1e40a <_start+0x45ea>
   1e010:	3ee9c503          	lbu	a0,1006(s3)
   1e014:	3ed9c583          	lbu	a1,1005(s3)
   1e018:	3ef9c603          	lbu	a2,1007(s3)
   1e01c:	3f09a403          	lw	s0,1008(s3)
   1e020:	0522                	slli	a0,a0,0x8
   1e022:	8d4d                	or	a0,a0,a1
   1e024:	24a99f23          	sh	a0,606(s3)
   1e028:	26c98023          	sb	a2,608(s3)
   1e02c:	6505                	lui	a0,0x1
   1e02e:	39450513          	addi	a0,a0,916 # 1394 <.Lline_table_start1+0x1169>
   1e032:	00a105b3          	add	a1,sp,a0
   1e036:	6505                	lui	a0,0x1
   1e038:	33050513          	addi	a0,a0,816 # 1330 <.Lline_table_start1+0x1105>
   1e03c:	950a                	add	a0,a0,sp
   1e03e:	05700613          	li	a2,87
   1e042:	00000097          	auipc	ra,0x0
   1e046:	4d2080e7          	jalr	1234(ra) # 1e514 <memcpy>
   1e04a:	01845513          	srli	a0,s0,0x18
   1e04e:	01045593          	srli	a1,s0,0x10
   1e052:	00845613          	srli	a2,s0,0x8
   1e056:	268980a3          	sb	s0,609(s3)
   1e05a:	26c98123          	sb	a2,610(s3)
   1e05e:	26b981a3          	sb	a1,611(s3)
   1e062:	26a98223          	sb	a0,612(s3)
   1e066:	6505                	lui	a0,0x1
   1e068:	20550513          	addi	a0,a0,517 # 1205 <.Lline_table_start1+0xfda>
   1e06c:	950a                	add	a0,a0,sp
   1e06e:	6585                	lui	a1,0x1
   1e070:	33058593          	addi	a1,a1,816 # 1330 <.Lline_table_start1+0x1105>
   1e074:	958a                	add	a1,a1,sp
   1e076:	05700613          	li	a2,87
   1e07a:	00000097          	auipc	ra,0x0
   1e07e:	49a080e7          	jalr	1178(ra) # 1e514 <memcpy>
   1e082:	6505                	lui	a0,0x1
   1e084:	38c50513          	addi	a0,a0,908 # 138c <.Lline_table_start1+0x1161>
   1e088:	950a                	add	a0,a0,sp
   1e08a:	6585                	lui	a1,0x1
   1e08c:	1fe58593          	addi	a1,a1,510 # 11fe <.Lline_table_start1+0xfd3>
   1e090:	958a                	add	a1,a1,sp
   1e092:	ffff7097          	auipc	ra,0xffff7
   1e096:	264080e7          	jalr	612(ra) # 152f6 <_ZN20complex_dynamic_type3app17h7dff995c84bc234bE>
   1e09a:	3ec9c503          	lbu	a0,1004(s3)
   1e09e:	36051663          	bnez	a0,1e40a <_start+0x45ea>
   1e0a2:	3ee9c503          	lbu	a0,1006(s3)
   1e0a6:	3ed9c583          	lbu	a1,1005(s3)
   1e0aa:	3ef9c603          	lbu	a2,1007(s3)
   1e0ae:	3f09a403          	lw	s0,1008(s3)
   1e0b2:	0522                	slli	a0,a0,0x8
   1e0b4:	8d4d                	or	a0,a0,a1
   1e0b6:	2aa99e23          	sh	a0,700(s3)
   1e0ba:	2ac98f23          	sb	a2,702(s3)
   1e0be:	6505                	lui	a0,0x1
   1e0c0:	39450513          	addi	a0,a0,916 # 1394 <.Lline_table_start1+0x1169>
   1e0c4:	00a105b3          	add	a1,sp,a0
   1e0c8:	6505                	lui	a0,0x1
   1e0ca:	33050513          	addi	a0,a0,816 # 1330 <.Lline_table_start1+0x1105>
   1e0ce:	950a                	add	a0,a0,sp
   1e0d0:	04e00613          	li	a2,78
   1e0d4:	00000097          	auipc	ra,0x0
   1e0d8:	440080e7          	jalr	1088(ra) # 1e514 <memcpy>
   1e0dc:	01845513          	srli	a0,s0,0x18
   1e0e0:	01045593          	srli	a1,s0,0x10
   1e0e4:	00845613          	srli	a2,s0,0x8
   1e0e8:	2a898fa3          	sb	s0,703(s3)
   1e0ec:	2cc98023          	sb	a2,704(s3)
   1e0f0:	2cb980a3          	sb	a1,705(s3)
   1e0f4:	2ca98123          	sb	a0,706(s3)
   1e0f8:	6505                	lui	a0,0x1
   1e0fa:	26350513          	addi	a0,a0,611 # 1263 <.Lline_table_start1+0x1038>
   1e0fe:	950a                	add	a0,a0,sp
   1e100:	6585                	lui	a1,0x1
   1e102:	33058593          	addi	a1,a1,816 # 1330 <.Lline_table_start1+0x1105>
   1e106:	958a                	add	a1,a1,sp
   1e108:	04e00613          	li	a2,78
   1e10c:	00000097          	auipc	ra,0x0
   1e110:	408080e7          	jalr	1032(ra) # 1e514 <memcpy>
   1e114:	6505                	lui	a0,0x1
   1e116:	38c50513          	addi	a0,a0,908 # 138c <.Lline_table_start1+0x1161>
   1e11a:	950a                	add	a0,a0,sp
   1e11c:	6585                	lui	a1,0x1
   1e11e:	25c58593          	addi	a1,a1,604 # 125c <.Lline_table_start1+0x1031>
   1e122:	958a                	add	a1,a1,sp
   1e124:	ffff4097          	auipc	ra,0xffff4
   1e128:	202080e7          	jalr	514(ra) # 12326 <_ZN20complex_dynamic_type3app17h1e14f9b9f47f36e3E>
   1e12c:	3ec9c503          	lbu	a0,1004(s3)
   1e130:	2c051d63          	bnez	a0,1e40a <_start+0x45ea>
   1e134:	3ed9c503          	lbu	a0,1005(s3)
   1e138:	3ee9c583          	lbu	a1,1006(s3)
   1e13c:	3ef9c603          	lbu	a2,1007(s3)
   1e140:	3f09a683          	lw	a3,1008(s3)
   1e144:	3f49a703          	lw	a4,1012(s3)
   1e148:	3f89a783          	lw	a5,1016(s3)
   1e14c:	3fc99483          	lh	s1,1020(s3)
   1e150:	05a2                	slli	a1,a1,0x8
   1e152:	38e9a823          	sw	a4,912(s3)
   1e156:	38f9aa23          	sw	a5,916(s3)
   1e15a:	38999c23          	sh	s1,920(s3)
   1e15e:	0186d713          	srli	a4,a3,0x18
   1e162:	8d4d                	or	a0,a0,a1
   1e164:	0106d593          	srli	a1,a3,0x10
   1e168:	30b98ba3          	sb	a1,791(s3)
   1e16c:	30e98c23          	sb	a4,792(s3)
   1e170:	0086d593          	srli	a1,a3,0x8
   1e174:	30a99923          	sh	a0,786(s3)
   1e178:	30c98a23          	sb	a2,788(s3)
   1e17c:	30d98aa3          	sb	a3,789(s3)
   1e180:	30b98b23          	sb	a1,790(s3)
   1e184:	6505                	lui	a0,0x1
   1e186:	2b950513          	addi	a0,a0,697 # 12b9 <.Lline_table_start1+0x108e>
   1e18a:	950a                	add	a0,a0,sp
   1e18c:	6585                	lui	a1,0x1
   1e18e:	33058593          	addi	a1,a1,816 # 1330 <.Lline_table_start1+0x1105>
   1e192:	958a                	add	a1,a1,sp
   1e194:	4629                	li	a2,10
   1e196:	00000097          	auipc	ra,0x0
   1e19a:	37e080e7          	jalr	894(ra) # 1e514 <memcpy>
   1e19e:	6505                	lui	a0,0x1
   1e1a0:	38c50513          	addi	a0,a0,908 # 138c <.Lline_table_start1+0x1161>
   1e1a4:	950a                	add	a0,a0,sp
   1e1a6:	6585                	lui	a1,0x1
   1e1a8:	2b258593          	addi	a1,a1,690 # 12b2 <.Lline_table_start1+0x1087>
   1e1ac:	958a                	add	a1,a1,sp
   1e1ae:	ffffb097          	auipc	ra,0xffffb
   1e1b2:	ee0080e7          	jalr	-288(ra) # 1908e <_ZN20complex_dynamic_type3app17hee3a39033fc33392E>
   1e1b6:	3ec9c503          	lbu	a0,1004(s3)
   1e1ba:	24051863          	bnez	a0,1e40a <_start+0x45ea>
   1e1be:	3ee9c503          	lbu	a0,1006(s3)
   1e1c2:	3ed9c583          	lbu	a1,1005(s3)
   1e1c6:	3ef9c603          	lbu	a2,1007(s3)
   1e1ca:	3f09a403          	lw	s0,1008(s3)
   1e1ce:	0522                	slli	a0,a0,0x8
   1e1d0:	8d4d                	or	a0,a0,a1
   1e1d2:	32a99223          	sh	a0,804(s3)
   1e1d6:	32c98323          	sb	a2,806(s3)
   1e1da:	6505                	lui	a0,0x1
   1e1dc:	39450513          	addi	a0,a0,916 # 1394 <.Lline_table_start1+0x1169>
   1e1e0:	00a105b3          	add	a1,sp,a0
   1e1e4:	6505                	lui	a0,0x1
   1e1e6:	33050513          	addi	a0,a0,816 # 1330 <.Lline_table_start1+0x1105>
   1e1ea:	950a                	add	a0,a0,sp
   1e1ec:	04900613          	li	a2,73
   1e1f0:	00000097          	auipc	ra,0x0
   1e1f4:	324080e7          	jalr	804(ra) # 1e514 <memcpy>
   1e1f8:	01845513          	srli	a0,s0,0x18
   1e1fc:	01045593          	srli	a1,s0,0x10
   1e200:	00845613          	srli	a2,s0,0x8
   1e204:	328983a3          	sb	s0,807(s3)
   1e208:	32c98423          	sb	a2,808(s3)
   1e20c:	32b984a3          	sb	a1,809(s3)
   1e210:	32a98523          	sb	a0,810(s3)
   1e214:	6505                	lui	a0,0x1
   1e216:	2cb50513          	addi	a0,a0,715 # 12cb <.Lline_table_start1+0x10a0>
   1e21a:	950a                	add	a0,a0,sp
   1e21c:	6585                	lui	a1,0x1
   1e21e:	33058593          	addi	a1,a1,816 # 1330 <.Lline_table_start1+0x1105>
   1e222:	958a                	add	a1,a1,sp
   1e224:	04900613          	li	a2,73
   1e228:	00000097          	auipc	ra,0x0
   1e22c:	2ec080e7          	jalr	748(ra) # 1e514 <memcpy>
   1e230:	6505                	lui	a0,0x1
   1e232:	38c50513          	addi	a0,a0,908 # 138c <.Lline_table_start1+0x1161>
   1e236:	950a                	add	a0,a0,sp
   1e238:	6585                	lui	a1,0x1
   1e23a:	2c458593          	addi	a1,a1,708 # 12c4 <.Lline_table_start1+0x1099>
   1e23e:	958a                	add	a1,a1,sp
   1e240:	ffff5097          	auipc	ra,0xffff5
   1e244:	778080e7          	jalr	1912(ra) # 139b8 <_ZN20complex_dynamic_type3app17h456f80f47a8551daE>
   1e248:	3ec9c503          	lbu	a0,1004(s3)
   1e24c:	1a051f63          	bnez	a0,1e40a <_start+0x45ea>
   1e250:	3ed9c503          	lbu	a0,1005(s3)
   1e254:	3ee9c583          	lbu	a1,1006(s3)
   1e258:	3ef9c803          	lbu	a6,1007(s3)
   1e25c:	3f09a683          	lw	a3,1008(s3)
   1e260:	3f49a703          	lw	a4,1012(s3)
   1e264:	3f89a783          	lw	a5,1016(s3)
   1e268:	3fc9a483          	lw	s1,1020(s3)
   1e26c:	4009a403          	lw	s0,1024(s3)
   1e270:	4049a603          	lw	a2,1028(s3)
   1e274:	05a2                	slli	a1,a1,0x8
   1e276:	3899ac23          	sw	s1,920(s3)
   1e27a:	3889ae23          	sw	s0,924(s3)
   1e27e:	3ac9a023          	sw	a2,928(s3)
   1e282:	0186d613          	srli	a2,a3,0x18
   1e286:	8d4d                	or	a0,a0,a1
   1e288:	0106d593          	srli	a1,a3,0x10
   1e28c:	36b98ca3          	sb	a1,889(s3)
   1e290:	36c98d23          	sb	a2,890(s3)
   1e294:	38e9a823          	sw	a4,912(s3)
   1e298:	38f9aa23          	sw	a5,916(s3)
   1e29c:	0086d593          	srli	a1,a3,0x8
   1e2a0:	36a99a23          	sh	a0,884(s3)
   1e2a4:	37098b23          	sb	a6,886(s3)
   1e2a8:	36d98ba3          	sb	a3,887(s3)
   1e2ac:	36b98c23          	sb	a1,888(s3)
   1e2b0:	6505                	lui	a0,0x1
   1e2b2:	31b50513          	addi	a0,a0,795 # 131b <.Lline_table_start1+0x10f0>
   1e2b6:	950a                	add	a0,a0,sp
   1e2b8:	6585                	lui	a1,0x1
   1e2ba:	33058593          	addi	a1,a1,816 # 1330 <.Lline_table_start1+0x1105>
   1e2be:	958a                	add	a1,a1,sp
   1e2c0:	4651                	li	a2,20
   1e2c2:	00000097          	auipc	ra,0x0
   1e2c6:	252080e7          	jalr	594(ra) # 1e514 <memcpy>
   1e2ca:	6505                	lui	a0,0x1
   1e2cc:	38c50513          	addi	a0,a0,908 # 138c <.Lline_table_start1+0x1161>
   1e2d0:	950a                	add	a0,a0,sp
   1e2d2:	6585                	lui	a1,0x1
   1e2d4:	31458593          	addi	a1,a1,788 # 1314 <.Lline_table_start1+0x10e9>
   1e2d8:	958a                	add	a1,a1,sp
   1e2da:	ffff8097          	auipc	ra,0xffff8
   1e2de:	91e080e7          	jalr	-1762(ra) # 15bf8 <_ZN20complex_dynamic_type3app17h8d4ef83c0b931dcbE>
   1e2e2:	3ec9c503          	lbu	a0,1004(s3)
   1e2e6:	12051263          	bnez	a0,1e40a <_start+0x45ea>
   1e2ea:	3ee9c503          	lbu	a0,1006(s3)
   1e2ee:	3ed9c583          	lbu	a1,1005(s3)
   1e2f2:	3ef9c603          	lbu	a2,1007(s3)
   1e2f6:	3f09a403          	lw	s0,1008(s3)
   1e2fa:	0522                	slli	a0,a0,0x8
   1e2fc:	8d4d                	or	a0,a0,a1
   1e2fe:	44a99923          	sh	a0,1106(s3)
   1e302:	44c98a23          	sb	a2,1108(s3)
   1e306:	6505                	lui	a0,0x1
   1e308:	39450513          	addi	a0,a0,916 # 1394 <.Lline_table_start1+0x1169>
   1e30c:	00a105b3          	add	a1,sp,a0
   1e310:	6505                	lui	a0,0x1
   1e312:	33050513          	addi	a0,a0,816 # 1330 <.Lline_table_start1+0x1105>
   1e316:	950a                	add	a0,a0,sp
   1e318:	05c00613          	li	a2,92
   1e31c:	00000097          	auipc	ra,0x0
   1e320:	1f8080e7          	jalr	504(ra) # 1e514 <memcpy>
   1e324:	01845513          	srli	a0,s0,0x18
   1e328:	01045593          	srli	a1,s0,0x10
   1e32c:	00845613          	srli	a2,s0,0x8
   1e330:	44898aa3          	sb	s0,1109(s3)
   1e334:	44c98b23          	sb	a2,1110(s3)
   1e338:	44b98ba3          	sb	a1,1111(s3)
   1e33c:	44a98c23          	sb	a0,1112(s3)
   1e340:	6505                	lui	a0,0x1
   1e342:	3f950513          	addi	a0,a0,1017 # 13f9 <.Lline_table_start1+0x11ce>
   1e346:	950a                	add	a0,a0,sp
   1e348:	6585                	lui	a1,0x1
   1e34a:	33058593          	addi	a1,a1,816 # 1330 <.Lline_table_start1+0x1105>
   1e34e:	958a                	add	a1,a1,sp
   1e350:	05c00613          	li	a2,92
   1e354:	00000097          	auipc	ra,0x0
   1e358:	1c0080e7          	jalr	448(ra) # 1e514 <memcpy>
   1e35c:	6505                	lui	a0,0x1
   1e35e:	38c50513          	addi	a0,a0,908 # 138c <.Lline_table_start1+0x1161>
   1e362:	950a                	add	a0,a0,sp
   1e364:	6585                	lui	a1,0x1
   1e366:	3f258593          	addi	a1,a1,1010 # 13f2 <.Lline_table_start1+0x11c7>
   1e36a:	958a                	add	a1,a1,sp
   1e36c:	ffff6097          	auipc	ra,0xffff6
   1e370:	dc2080e7          	jalr	-574(ra) # 1412e <_ZN20complex_dynamic_type3app17h557785aecf30d752E>
   1e374:	3ec9c503          	lbu	a0,1004(s3)
   1e378:	e949                	bnez	a0,1e40a <_start+0x45ea>
   1e37a:	3ee9c503          	lbu	a0,1006(s3)
   1e37e:	3ed9c583          	lbu	a1,1005(s3)
   1e382:	3ef9c603          	lbu	a2,1007(s3)
   1e386:	3f09a403          	lw	s0,1008(s3)
   1e38a:	0522                	slli	a0,a0,0x8
   1e38c:	8d4d                	or	a0,a0,a1
   1e38e:	4aa99b23          	sh	a0,1206(s3)
   1e392:	4ac98c23          	sb	a2,1208(s3)
   1e396:	6505                	lui	a0,0x1
   1e398:	39450513          	addi	a0,a0,916 # 1394 <.Lline_table_start1+0x1169>
   1e39c:	00a105b3          	add	a1,sp,a0
   1e3a0:	6505                	lui	a0,0x1
   1e3a2:	33050513          	addi	a0,a0,816 # 1330 <.Lline_table_start1+0x1105>
   1e3a6:	950a                	add	a0,a0,sp
   1e3a8:	02500613          	li	a2,37
   1e3ac:	00000097          	auipc	ra,0x0
   1e3b0:	168080e7          	jalr	360(ra) # 1e514 <memcpy>
   1e3b4:	01845513          	srli	a0,s0,0x18
   1e3b8:	01045593          	srli	a1,s0,0x10
   1e3bc:	00845613          	srli	a2,s0,0x8
   1e3c0:	4a898ca3          	sb	s0,1209(s3)
   1e3c4:	4ac98d23          	sb	a2,1210(s3)
   1e3c8:	4ab98da3          	sb	a1,1211(s3)
   1e3cc:	4aa98e23          	sb	a0,1212(s3)
   1e3d0:	6505                	lui	a0,0x1
   1e3d2:	45d50513          	addi	a0,a0,1117 # 145d <.Lline_table_start1+0x1232>
   1e3d6:	950a                	add	a0,a0,sp
   1e3d8:	6585                	lui	a1,0x1
   1e3da:	33058593          	addi	a1,a1,816 # 1330 <.Lline_table_start1+0x1105>
   1e3de:	958a                	add	a1,a1,sp
   1e3e0:	02500613          	li	a2,37
   1e3e4:	00000097          	auipc	ra,0x0
   1e3e8:	130080e7          	jalr	304(ra) # 1e514 <memcpy>
   1e3ec:	6505                	lui	a0,0x1
   1e3ee:	38c50513          	addi	a0,a0,908 # 138c <.Lline_table_start1+0x1161>
   1e3f2:	950a                	add	a0,a0,sp
   1e3f4:	6585                	lui	a1,0x1
   1e3f6:	45658593          	addi	a1,a1,1110 # 1456 <.Lline_table_start1+0x122b>
   1e3fa:	958a                	add	a1,a1,sp
   1e3fc:	ffff5097          	auipc	ra,0xffff5
   1e400:	2c0080e7          	jalr	704(ra) # 136bc <_ZN20complex_dynamic_type3app17h45083a3eb275194eE>
   1e404:	3ec9c503          	lbu	a0,1004(s3)
   1e408:	c509                	beqz	a0,1e412 <_start+0x45f2>
   1e40a:	3f09a583          	lw	a1,1008(s3)
   1e40e:	b21fb06f          	j	19f2e <_start+0x10e>
   1e412:	3ee9c503          	lbu	a0,1006(s3)
   1e416:	3ed9c583          	lbu	a1,1005(s3)
   1e41a:	3ef9c603          	lbu	a2,1007(s3)
   1e41e:	3f09a403          	lw	s0,1008(s3)
   1e422:	0522                	slli	a0,a0,0x8
   1e424:	8d4d                	or	a0,a0,a1
   1e426:	4ea99123          	sh	a0,1250(s3)
   1e42a:	4ec98223          	sb	a2,1252(s3)
   1e42e:	6505                	lui	a0,0x1
   1e430:	39450513          	addi	a0,a0,916 # 1394 <.Lline_table_start1+0x1169>
   1e434:	00a105b3          	add	a1,sp,a0
   1e438:	6505                	lui	a0,0x1
   1e43a:	33050513          	addi	a0,a0,816 # 1330 <.Lline_table_start1+0x1105>
   1e43e:	950a                	add	a0,a0,sp
   1e440:	02300613          	li	a2,35
   1e444:	00000097          	auipc	ra,0x0
   1e448:	0d0080e7          	jalr	208(ra) # 1e514 <memcpy>
   1e44c:	01845513          	srli	a0,s0,0x18
   1e450:	01045593          	srli	a1,s0,0x10
   1e454:	00845613          	srli	a2,s0,0x8
   1e458:	4e8982a3          	sb	s0,1253(s3)
   1e45c:	4ec98323          	sb	a2,1254(s3)
   1e460:	4eb983a3          	sb	a1,1255(s3)
   1e464:	4ea98423          	sb	a0,1256(s3)
   1e468:	6505                	lui	a0,0x1
   1e46a:	48950513          	addi	a0,a0,1161 # 1489 <.Lline_table_start1+0x125e>
   1e46e:	950a                	add	a0,a0,sp
   1e470:	6585                	lui	a1,0x1
   1e472:	33058593          	addi	a1,a1,816 # 1330 <.Lline_table_start1+0x1105>
   1e476:	958a                	add	a1,a1,sp
   1e478:	02300613          	li	a2,35
   1e47c:	00000097          	auipc	ra,0x0
   1e480:	098080e7          	jalr	152(ra) # 1e514 <memcpy>
   1e484:	6505                	lui	a0,0x1
   1e486:	38c50513          	addi	a0,a0,908 # 138c <.Lline_table_start1+0x1161>
   1e48a:	950a                	add	a0,a0,sp
   1e48c:	6585                	lui	a1,0x1
   1e48e:	48258593          	addi	a1,a1,1154 # 1482 <.Lline_table_start1+0x1257>
   1e492:	958a                	add	a1,a1,sp
   1e494:	ffff4097          	auipc	ra,0xffff4
   1e498:	b9a080e7          	jalr	-1126(ra) # 1202e <_ZN20complex_dynamic_type3app17h1d6bb1472ff079d4E>
   1e49c:	3ec9c503          	lbu	a0,1004(s3)
   1e4a0:	3f09a583          	lw	a1,1008(s3)
   1e4a4:	a8dfb06f          	j	19f30 <_start+0x110>

0001e4a8 <memset>:
   1e4a8:	46c1                	li	a3,16
   1e4aa:	04d66f63          	bltu	a2,a3,1e508 <memset+0x60>
   1e4ae:	40a006b3          	neg	a3,a0
   1e4b2:	0036f813          	andi	a6,a3,3
   1e4b6:	01050733          	add	a4,a0,a6
   1e4ba:	00e57963          	bgeu	a0,a4,1e4cc <memset+0x24>
   1e4be:	87c2                	mv	a5,a6
   1e4c0:	86aa                	mv	a3,a0
   1e4c2:	00b68023          	sb	a1,0(a3)
   1e4c6:	17fd                	addi	a5,a5,-1
   1e4c8:	0685                	addi	a3,a3,1
   1e4ca:	ffe5                	bnez	a5,1e4c2 <memset+0x1a>
   1e4cc:	41060633          	sub	a2,a2,a6
   1e4d0:	ffc67693          	andi	a3,a2,-4
   1e4d4:	96ba                	add	a3,a3,a4
   1e4d6:	00d77e63          	bgeu	a4,a3,1e4f2 <memset+0x4a>
   1e4da:	0ff5f813          	zext.b	a6,a1
   1e4de:	010107b7          	lui	a5,0x1010
   1e4e2:	10178793          	addi	a5,a5,257 # 1010101 <_ZN17compiler_builtins3mem6memcpy17h90d0c987d2ef5a79E+0xff1be5>
   1e4e6:	02f807b3          	mul	a5,a6,a5
   1e4ea:	c31c                	sw	a5,0(a4)
   1e4ec:	0711                	addi	a4,a4,4
   1e4ee:	fed76ee3          	bltu	a4,a3,1e4ea <memset+0x42>
   1e4f2:	8a0d                	andi	a2,a2,3
   1e4f4:	00c68733          	add	a4,a3,a2
   1e4f8:	00e6f763          	bgeu	a3,a4,1e506 <memset+0x5e>
   1e4fc:	00b68023          	sb	a1,0(a3)
   1e500:	167d                	addi	a2,a2,-1
   1e502:	0685                	addi	a3,a3,1
   1e504:	fe65                	bnez	a2,1e4fc <memset+0x54>
   1e506:	8082                	ret
   1e508:	86aa                	mv	a3,a0
   1e50a:	00c50733          	add	a4,a0,a2
   1e50e:	fee567e3          	bltu	a0,a4,1e4fc <memset+0x54>
   1e512:	bfd5                	j	1e506 <memset+0x5e>

0001e514 <memcpy>:
   1e514:	00000317          	auipc	t1,0x0
   1e518:	00830067          	jr	8(t1) # 1e51c <_ZN17compiler_builtins3mem6memcpy17h90d0c987d2ef5a79E>

0001e51c <_ZN17compiler_builtins3mem6memcpy17h90d0c987d2ef5a79E>:
   1e51c:	1141                	addi	sp,sp,-16
   1e51e:	c622                	sw	s0,12(sp)
   1e520:	46c1                	li	a3,16
   1e522:	06d66363          	bltu	a2,a3,1e588 <_ZN17compiler_builtins3mem6memcpy17h90d0c987d2ef5a79E+0x6c>
   1e526:	40a006b3          	neg	a3,a0
   1e52a:	0036f813          	andi	a6,a3,3
   1e52e:	01050fb3          	add	t6,a0,a6
   1e532:	01f57d63          	bgeu	a0,t6,1e54c <_ZN17compiler_builtins3mem6memcpy17h90d0c987d2ef5a79E+0x30>
   1e536:	8742                	mv	a4,a6
   1e538:	86aa                	mv	a3,a0
   1e53a:	87ae                	mv	a5,a1
   1e53c:	0007c883          	lbu	a7,0(a5)
   1e540:	177d                	addi	a4,a4,-1
   1e542:	01168023          	sb	a7,0(a3)
   1e546:	0685                	addi	a3,a3,1
   1e548:	0785                	addi	a5,a5,1
   1e54a:	fb6d                	bnez	a4,1e53c <_ZN17compiler_builtins3mem6memcpy17h90d0c987d2ef5a79E+0x20>
   1e54c:	01058433          	add	s0,a1,a6
   1e550:	410608b3          	sub	a7,a2,a6
   1e554:	ffc8f713          	andi	a4,a7,-4
   1e558:	00347613          	andi	a2,s0,3
   1e55c:	00ef86b3          	add	a3,t6,a4
   1e560:	e621                	bnez	a2,1e5a8 <_ZN17compiler_builtins3mem6memcpy17h90d0c987d2ef5a79E+0x8c>
   1e562:	00dffa63          	bgeu	t6,a3,1e576 <_ZN17compiler_builtins3mem6memcpy17h90d0c987d2ef5a79E+0x5a>
   1e566:	8622                	mv	a2,s0
   1e568:	421c                	lw	a5,0(a2)
   1e56a:	00ffa023          	sw	a5,0(t6)
   1e56e:	0f91                	addi	t6,t6,4
   1e570:	0611                	addi	a2,a2,4
   1e572:	fedfebe3          	bltu	t6,a3,1e568 <_ZN17compiler_builtins3mem6memcpy17h90d0c987d2ef5a79E+0x4c>
   1e576:	00e405b3          	add	a1,s0,a4
   1e57a:	0038f613          	andi	a2,a7,3
   1e57e:	00c68733          	add	a4,a3,a2
   1e582:	00e6e863          	bltu	a3,a4,1e592 <_ZN17compiler_builtins3mem6memcpy17h90d0c987d2ef5a79E+0x76>
   1e586:	a831                	j	1e5a2 <_ZN17compiler_builtins3mem6memcpy17h90d0c987d2ef5a79E+0x86>
   1e588:	86aa                	mv	a3,a0
   1e58a:	00c50733          	add	a4,a0,a2
   1e58e:	00e57a63          	bgeu	a0,a4,1e5a2 <_ZN17compiler_builtins3mem6memcpy17h90d0c987d2ef5a79E+0x86>
   1e592:	0005c703          	lbu	a4,0(a1)
   1e596:	167d                	addi	a2,a2,-1
   1e598:	00e68023          	sb	a4,0(a3)
   1e59c:	0685                	addi	a3,a3,1
   1e59e:	0585                	addi	a1,a1,1
   1e5a0:	fa6d                	bnez	a2,1e592 <_ZN17compiler_builtins3mem6memcpy17h90d0c987d2ef5a79E+0x76>
   1e5a2:	4432                	lw	s0,12(sp)
   1e5a4:	0141                	addi	sp,sp,16
   1e5a6:	8082                	ret
   1e5a8:	4801                	li	a6,0
   1e5aa:	4791                	li	a5,4
   1e5ac:	c402                	sw	zero,8(sp)
   1e5ae:	40c783b3          	sub	t2,a5,a2
   1e5b2:	00810293          	addi	t0,sp,8
   1e5b6:	0013f313          	andi	t1,t2,1
   1e5ba:	00c2e2b3          	or	t0,t0,a2
   1e5be:	04031763          	bnez	t1,1e60c <_ZN17compiler_builtins3mem6memcpy17h90d0c987d2ef5a79E+0xf0>
   1e5c2:	0023f793          	andi	a5,t2,2
   1e5c6:	ebb9                	bnez	a5,1e61c <_ZN17compiler_builtins3mem6memcpy17h90d0c987d2ef5a79E+0x100>
   1e5c8:	4ea2                	lw	t4,8(sp)
   1e5ca:	00361813          	slli	a6,a2,0x3
   1e5ce:	004f8793          	addi	a5,t6,4
   1e5d2:	40c40f33          	sub	t5,s0,a2
   1e5d6:	06d7f363          	bgeu	a5,a3,1e63c <_ZN17compiler_builtins3mem6memcpy17h90d0c987d2ef5a79E+0x120>
   1e5da:	410007b3          	neg	a5,a6
   1e5de:	0187fe13          	andi	t3,a5,24
   1e5e2:	004f2283          	lw	t0,4(t5)
   1e5e6:	004f0393          	addi	t2,t5,4
   1e5ea:	010ed5b3          	srl	a1,t4,a6
   1e5ee:	004f8313          	addi	t1,t6,4
   1e5f2:	01c297b3          	sll	a5,t0,t3
   1e5f6:	8ddd                	or	a1,a1,a5
   1e5f8:	008f8793          	addi	a5,t6,8
   1e5fc:	00bfa023          	sw	a1,0(t6)
   1e600:	8f9a                	mv	t6,t1
   1e602:	8f1e                	mv	t5,t2
   1e604:	8e96                	mv	t4,t0
   1e606:	fcd7eee3          	bltu	a5,a3,1e5e2 <_ZN17compiler_builtins3mem6memcpy17h90d0c987d2ef5a79E+0xc6>
   1e60a:	a825                	j	1e642 <_ZN17compiler_builtins3mem6memcpy17h90d0c987d2ef5a79E+0x126>
   1e60c:	00044783          	lbu	a5,0(s0)
   1e610:	00f28023          	sb	a5,0(t0)
   1e614:	4805                	li	a6,1
   1e616:	0023f793          	andi	a5,t2,2
   1e61a:	d7dd                	beqz	a5,1e5c8 <_ZN17compiler_builtins3mem6memcpy17h90d0c987d2ef5a79E+0xac>
   1e61c:	010407b3          	add	a5,s0,a6
   1e620:	00079783          	lh	a5,0(a5)
   1e624:	9816                	add	a6,a6,t0
   1e626:	00f81023          	sh	a5,0(a6)
   1e62a:	4ea2                	lw	t4,8(sp)
   1e62c:	00361813          	slli	a6,a2,0x3
   1e630:	004f8793          	addi	a5,t6,4
   1e634:	40c40f33          	sub	t5,s0,a2
   1e638:	fad7e1e3          	bltu	a5,a3,1e5da <_ZN17compiler_builtins3mem6memcpy17h90d0c987d2ef5a79E+0xbe>
   1e63c:	82f6                	mv	t0,t4
   1e63e:	83fa                	mv	t2,t5
   1e640:	837e                	mv	t1,t6
   1e642:	00010223          	sb	zero,4(sp)
   1e646:	4785                	li	a5,1
   1e648:	00010123          	sb	zero,2(sp)
   1e64c:	00f61763          	bne	a2,a5,1e65a <_ZN17compiler_builtins3mem6memcpy17h90d0c987d2ef5a79E+0x13e>
   1e650:	4781                	li	a5,0
   1e652:	4e01                	li	t3,0
   1e654:	4e81                	li	t4,0
   1e656:	0050                	addi	a2,sp,4
   1e658:	a819                	j	1e66e <_ZN17compiler_builtins3mem6memcpy17h90d0c987d2ef5a79E+0x152>
   1e65a:	0043c783          	lbu	a5,4(t2)
   1e65e:	0053ce03          	lbu	t3,5(t2)
   1e662:	4e89                	li	t4,2
   1e664:	00f10223          	sb	a5,4(sp)
   1e668:	0e22                	slli	t3,t3,0x8
   1e66a:	00210613          	addi	a2,sp,2
   1e66e:	00147593          	andi	a1,s0,1
   1e672:	e199                	bnez	a1,1e678 <_ZN17compiler_builtins3mem6memcpy17h90d0c987d2ef5a79E+0x15c>
   1e674:	4601                	li	a2,0
   1e676:	a821                	j	1e68e <_ZN17compiler_builtins3mem6memcpy17h90d0c987d2ef5a79E+0x172>
   1e678:	0391                	addi	t2,t2,4
   1e67a:	93f6                	add	t2,t2,t4
   1e67c:	0003c583          	lbu	a1,0(t2)
   1e680:	00b60023          	sb	a1,0(a2)
   1e684:	00214603          	lbu	a2,2(sp)
   1e688:	00414783          	lbu	a5,4(sp)
   1e68c:	0642                	slli	a2,a2,0x10
   1e68e:	8e5d                	or	a2,a2,a5
   1e690:	0102d5b3          	srl	a1,t0,a6
   1e694:	410007b3          	neg	a5,a6
   1e698:	00ce6633          	or	a2,t3,a2
   1e69c:	8be1                	andi	a5,a5,24
   1e69e:	00f61633          	sll	a2,a2,a5
   1e6a2:	8dd1                	or	a1,a1,a2
   1e6a4:	00b32023          	sw	a1,0(t1)
   1e6a8:	00e405b3          	add	a1,s0,a4
   1e6ac:	0038f613          	andi	a2,a7,3
   1e6b0:	00c68733          	add	a4,a3,a2
   1e6b4:	ece6efe3          	bltu	a3,a4,1e592 <_ZN17compiler_builtins3mem6memcpy17h90d0c987d2ef5a79E+0x76>
   1e6b8:	b5ed                	j	1e5a2 <_ZN17compiler_builtins3mem6memcpy17h90d0c987d2ef5a79E+0x86>
