
target/thumbv6m-none-eabi/opt-3/examples/complex_full_dynamic:     file format elf32-littlearm

Sections:
Idx Name          Size      VMA       LMA       File off  Algn
  0 .ARM.exidx    00000010  000100d4  000100d4  000000d4  2**2
                  CONTENTS, ALLOC, LOAD, READONLY, DATA
  1 .text         000071c0  000200e4  000200e4  000000e4  2**2
                  CONTENTS, ALLOC, LOAD, READONLY, CODE
  2 .comment      0000008b  00000000  00000000  000072a4  2**0
                  CONTENTS, READONLY
  3 .ARM.attributes 00000032  00000000  00000000  0000732f  2**0
                  CONTENTS, READONLY

Disassembly of section .text:

000200e4 <_ZN20complex_full_dynamic3app17h0061623660f4e45dE>:
   200e4:	b5f0      	push	{r4, r5, r6, r7, lr}
   200e6:	af03      	add	r7, sp, #12
   200e8:	b0ad      	sub	sp, #180	@ 0xb4
   200ea:	9003      	str	r0, [sp, #12]
   200ec:	ac04      	add	r4, sp, #16
   200ee:	2002      	movs	r0, #2
   200f0:	9002      	str	r0, [sp, #8]
   200f2:	7220      	strb	r0, [r4, #8]
   200f4:	340c      	adds	r4, #12
   200f6:	224f      	movs	r2, #79	@ 0x4f
   200f8:	9201      	str	r2, [sp, #4]
   200fa:	4620      	mov	r0, r4
   200fc:	f007 f8cd 	bl	2729a <__aeabi_memcpy>
   20100:	ae1b      	add	r6, sp, #108	@ 0x6c
   20102:	4635      	mov	r5, r6
   20104:	350c      	adds	r5, #12
   20106:	213b      	movs	r1, #59	@ 0x3b
   20108:	4628      	mov	r0, r5
   2010a:	f006 ff19 	bl	26f40 <__aeabi_memclr4>
   2010e:	9802      	ldr	r0, [sp, #8]
   20110:	7230      	strb	r0, [r6, #8]
   20112:	4820      	ldr	r0, [pc, #128]	@ (20194 <_ZN20complex_full_dynamic3app17h0061623660f4e45dE+0xb0>)
   20114:	2608      	movs	r6, #8
   20116:	4631      	mov	r1, r6
   20118:	4622      	mov	r2, r4
   2011a:	9b01      	ldr	r3, [sp, #4]
   2011c:	df04      	svc	4
   2011e:	2802      	cmp	r0, #2
   20120:	d01a      	beq.n	20158 <_ZN20complex_full_dynamic3app17h0061623660f4e45dE+0x74>
   20122:	a804      	add	r0, sp, #16
   20124:	2104      	movs	r1, #4
   20126:	7201      	strb	r1, [r0, #8]
   20128:	9605      	str	r6, [sp, #20]
   2012a:	4e1a      	ldr	r6, [pc, #104]	@ (20194 <_ZN20complex_full_dynamic3app17h0061623660f4e45dE+0xb0>)
   2012c:	9604      	str	r6, [sp, #16]
   2012e:	2405      	movs	r4, #5
   20130:	233b      	movs	r3, #59	@ 0x3b
   20132:	4630      	mov	r0, r6
   20134:	4621      	mov	r1, r4
   20136:	462a      	mov	r2, r5
   20138:	df03      	svc	3
   2013a:	2802      	cmp	r0, #2
   2013c:	d00c      	beq.n	20158 <_ZN20complex_full_dynamic3app17h0061623660f4e45dE+0x74>
   2013e:	a81b      	add	r0, sp, #108	@ 0x6c
   20140:	2103      	movs	r1, #3
   20142:	7201      	strb	r1, [r0, #8]
   20144:	961b      	str	r6, [sp, #108]	@ 0x6c
   20146:	941c      	str	r4, [sp, #112]	@ 0x70
   20148:	4812      	ldr	r0, [pc, #72]	@ (20194 <_ZN20complex_full_dynamic3app17h0061623660f4e45dE+0xb0>)
   2014a:	2108      	movs	r1, #8
   2014c:	2600      	movs	r6, #0
   2014e:	4622      	mov	r2, r4
   20150:	4633      	mov	r3, r6
   20152:	df02      	svc	2
   20154:	287f      	cmp	r0, #127	@ 0x7f
   20156:	d80b      	bhi.n	20170 <_ZN20complex_full_dynamic3app17h0061623660f4e45dE+0x8c>
   20158:	9c03      	ldr	r4, [sp, #12]
   2015a:	6061      	str	r1, [r4, #4]
   2015c:	2601      	movs	r6, #1
   2015e:	7026      	strb	r6, [r4, #0]
   20160:	a81b      	add	r0, sp, #108	@ 0x6c
   20162:	f006 fed9 	bl	26f18 <_ZN9allow_pin12full_dynamic17unshare_if_shared17h34fb2a9288def0c2E>
   20166:	a804      	add	r0, sp, #16
   20168:	f006 fed6 	bl	26f18 <_ZN9allow_pin12full_dynamic17unshare_if_shared17h34fb2a9288def0c2E>
   2016c:	b02d      	add	sp, #180	@ 0xb4
   2016e:	bdf0      	pop	{r4, r5, r6, r7, pc}
   20170:	a804      	add	r0, sp, #16
   20172:	f006 fed1 	bl	26f18 <_ZN9allow_pin12full_dynamic17unshare_if_shared17h34fb2a9288def0c2E>
   20176:	ac1b      	add	r4, sp, #108	@ 0x6c
   20178:	4620      	mov	r0, r4
   2017a:	f006 fecd 	bl	26f18 <_ZN9allow_pin12full_dynamic17unshare_if_shared17h34fb2a9288def0c2E>
   2017e:	4620      	mov	r0, r4
   20180:	f006 feca 	bl	26f18 <_ZN9allow_pin12full_dynamic17unshare_if_shared17h34fb2a9288def0c2E>
   20184:	9c03      	ldr	r4, [sp, #12]
   20186:	1c60      	adds	r0, r4, #1
   20188:	223b      	movs	r2, #59	@ 0x3b
   2018a:	4629      	mov	r1, r5
   2018c:	f007 f885 	bl	2729a <__aeabi_memcpy>
   20190:	e7e5      	b.n	2015e <_ZN20complex_full_dynamic3app17h0061623660f4e45dE+0x7a>
   20192:	46c0      	nop			@ (mov r8, r8)
   20194:	00000a06 	.word	0x00000a06

00020198 <_ZN20complex_full_dynamic3app17h0118d1d0addf5875E>:
   20198:	b5f0      	push	{r4, r5, r6, r7, lr}
   2019a:	af03      	add	r7, sp, #12
   2019c:	b09f      	sub	sp, #124	@ 0x7c
   2019e:	9003      	str	r0, [sp, #12]
   201a0:	ac04      	add	r4, sp, #16
   201a2:	2002      	movs	r0, #2
   201a4:	9002      	str	r0, [sp, #8]
   201a6:	7220      	strb	r0, [r4, #8]
   201a8:	340c      	adds	r4, #12
   201aa:	2225      	movs	r2, #37	@ 0x25
   201ac:	9201      	str	r2, [sp, #4]
   201ae:	4620      	mov	r0, r4
   201b0:	f007 f873 	bl	2729a <__aeabi_memcpy>
   201b4:	ae11      	add	r6, sp, #68	@ 0x44
   201b6:	4635      	mov	r5, r6
   201b8:	350c      	adds	r5, #12
   201ba:	212a      	movs	r1, #42	@ 0x2a
   201bc:	4628      	mov	r0, r5
   201be:	f006 febf 	bl	26f40 <__aeabi_memclr4>
   201c2:	9802      	ldr	r0, [sp, #8]
   201c4:	7230      	strb	r0, [r6, #8]
   201c6:	481f      	ldr	r0, [pc, #124]	@ (20244 <_ZN20complex_full_dynamic3app17h0118d1d0addf5875E+0xac>)
   201c8:	2600      	movs	r6, #0
   201ca:	4631      	mov	r1, r6
   201cc:	4622      	mov	r2, r4
   201ce:	9b01      	ldr	r3, [sp, #4]
   201d0:	df04      	svc	4
   201d2:	2802      	cmp	r0, #2
   201d4:	d019      	beq.n	2020a <_ZN20complex_full_dynamic3app17h0118d1d0addf5875E+0x72>
   201d6:	a804      	add	r0, sp, #16
   201d8:	2104      	movs	r1, #4
   201da:	7201      	strb	r1, [r0, #8]
   201dc:	9605      	str	r6, [sp, #20]
   201de:	4e19      	ldr	r6, [pc, #100]	@ (20244 <_ZN20complex_full_dynamic3app17h0118d1d0addf5875E+0xac>)
   201e0:	9604      	str	r6, [sp, #16]
   201e2:	2403      	movs	r4, #3
   201e4:	232a      	movs	r3, #42	@ 0x2a
   201e6:	4630      	mov	r0, r6
   201e8:	4621      	mov	r1, r4
   201ea:	462a      	mov	r2, r5
   201ec:	df03      	svc	3
   201ee:	2802      	cmp	r0, #2
   201f0:	d00b      	beq.n	2020a <_ZN20complex_full_dynamic3app17h0118d1d0addf5875E+0x72>
   201f2:	a811      	add	r0, sp, #68	@ 0x44
   201f4:	7204      	strb	r4, [r0, #8]
   201f6:	9412      	str	r4, [sp, #72]	@ 0x48
   201f8:	9611      	str	r6, [sp, #68]	@ 0x44
   201fa:	4812      	ldr	r0, [pc, #72]	@ (20244 <_ZN20complex_full_dynamic3app17h0118d1d0addf5875E+0xac>)
   201fc:	2600      	movs	r6, #0
   201fe:	4631      	mov	r1, r6
   20200:	4622      	mov	r2, r4
   20202:	4633      	mov	r3, r6
   20204:	df02      	svc	2
   20206:	287f      	cmp	r0, #127	@ 0x7f
   20208:	d80b      	bhi.n	20222 <_ZN20complex_full_dynamic3app17h0118d1d0addf5875E+0x8a>
   2020a:	9c03      	ldr	r4, [sp, #12]
   2020c:	6061      	str	r1, [r4, #4]
   2020e:	2601      	movs	r6, #1
   20210:	7026      	strb	r6, [r4, #0]
   20212:	a811      	add	r0, sp, #68	@ 0x44
   20214:	f006 fe80 	bl	26f18 <_ZN9allow_pin12full_dynamic17unshare_if_shared17h34fb2a9288def0c2E>
   20218:	a804      	add	r0, sp, #16
   2021a:	f006 fe7d 	bl	26f18 <_ZN9allow_pin12full_dynamic17unshare_if_shared17h34fb2a9288def0c2E>
   2021e:	b01f      	add	sp, #124	@ 0x7c
   20220:	bdf0      	pop	{r4, r5, r6, r7, pc}
   20222:	a804      	add	r0, sp, #16
   20224:	f006 fe78 	bl	26f18 <_ZN9allow_pin12full_dynamic17unshare_if_shared17h34fb2a9288def0c2E>
   20228:	ac11      	add	r4, sp, #68	@ 0x44
   2022a:	4620      	mov	r0, r4
   2022c:	f006 fe74 	bl	26f18 <_ZN9allow_pin12full_dynamic17unshare_if_shared17h34fb2a9288def0c2E>
   20230:	4620      	mov	r0, r4
   20232:	f006 fe71 	bl	26f18 <_ZN9allow_pin12full_dynamic17unshare_if_shared17h34fb2a9288def0c2E>
   20236:	9c03      	ldr	r4, [sp, #12]
   20238:	1c60      	adds	r0, r4, #1
   2023a:	222a      	movs	r2, #42	@ 0x2a
   2023c:	4629      	mov	r1, r5
   2023e:	f007 f82c 	bl	2729a <__aeabi_memcpy>
   20242:	e7e5      	b.n	20210 <_ZN20complex_full_dynamic3app17h0118d1d0addf5875E+0x78>
   20244:	0000093c 	.word	0x0000093c

00020248 <_ZN20complex_full_dynamic3app17h02435da38f0d3df3E>:
   20248:	b5f0      	push	{r4, r5, r6, r7, lr}
   2024a:	af03      	add	r7, sp, #12
   2024c:	b09f      	sub	sp, #124	@ 0x7c
   2024e:	9002      	str	r0, [sp, #8]
   20250:	ae03      	add	r6, sp, #12
   20252:	2002      	movs	r0, #2
   20254:	9001      	str	r0, [sp, #4]
   20256:	7230      	strb	r0, [r6, #8]
   20258:	360c      	adds	r6, #12
   2025a:	220e      	movs	r2, #14
   2025c:	9200      	str	r2, [sp, #0]
   2025e:	4630      	mov	r0, r6
   20260:	f007 f81b 	bl	2729a <__aeabi_memcpy>
   20264:	ad0a      	add	r5, sp, #40	@ 0x28
   20266:	462c      	mov	r4, r5
   20268:	340c      	adds	r4, #12
   2026a:	2148      	movs	r1, #72	@ 0x48
   2026c:	4620      	mov	r0, r4
   2026e:	f006 fe67 	bl	26f40 <__aeabi_memclr4>
   20272:	9801      	ldr	r0, [sp, #4]
   20274:	7228      	strb	r0, [r5, #8]
   20276:	4820      	ldr	r0, [pc, #128]	@ (202f8 <_ZN20complex_full_dynamic3app17h02435da38f0d3df3E+0xb0>)
   20278:	2503      	movs	r5, #3
   2027a:	4629      	mov	r1, r5
   2027c:	4632      	mov	r2, r6
   2027e:	9b00      	ldr	r3, [sp, #0]
   20280:	df04      	svc	4
   20282:	2802      	cmp	r0, #2
   20284:	d01a      	beq.n	202bc <_ZN20complex_full_dynamic3app17h02435da38f0d3df3E+0x74>
   20286:	a803      	add	r0, sp, #12
   20288:	2104      	movs	r1, #4
   2028a:	7201      	strb	r1, [r0, #8]
   2028c:	9504      	str	r5, [sp, #16]
   2028e:	4e1a      	ldr	r6, [pc, #104]	@ (202f8 <_ZN20complex_full_dynamic3app17h02435da38f0d3df3E+0xb0>)
   20290:	9603      	str	r6, [sp, #12]
   20292:	2108      	movs	r1, #8
   20294:	2348      	movs	r3, #72	@ 0x48
   20296:	4630      	mov	r0, r6
   20298:	9101      	str	r1, [sp, #4]
   2029a:	4622      	mov	r2, r4
   2029c:	df03      	svc	3
   2029e:	2802      	cmp	r0, #2
   202a0:	d00c      	beq.n	202bc <_ZN20complex_full_dynamic3app17h02435da38f0d3df3E+0x74>
   202a2:	9400      	str	r4, [sp, #0]
   202a4:	a80a      	add	r0, sp, #40	@ 0x28
   202a6:	7205      	strb	r5, [r0, #8]
   202a8:	960a      	str	r6, [sp, #40]	@ 0x28
   202aa:	9a01      	ldr	r2, [sp, #4]
   202ac:	920b      	str	r2, [sp, #44]	@ 0x2c
   202ae:	4812      	ldr	r0, [pc, #72]	@ (202f8 <_ZN20complex_full_dynamic3app17h02435da38f0d3df3E+0xb0>)
   202b0:	2600      	movs	r6, #0
   202b2:	4629      	mov	r1, r5
   202b4:	4633      	mov	r3, r6
   202b6:	df02      	svc	2
   202b8:	287f      	cmp	r0, #127	@ 0x7f
   202ba:	d80b      	bhi.n	202d4 <_ZN20complex_full_dynamic3app17h02435da38f0d3df3E+0x8c>
   202bc:	9c02      	ldr	r4, [sp, #8]
   202be:	6061      	str	r1, [r4, #4]
   202c0:	2601      	movs	r6, #1
   202c2:	7026      	strb	r6, [r4, #0]
   202c4:	a80a      	add	r0, sp, #40	@ 0x28
   202c6:	f006 fe27 	bl	26f18 <_ZN9allow_pin12full_dynamic17unshare_if_shared17h34fb2a9288def0c2E>
   202ca:	a803      	add	r0, sp, #12
   202cc:	f006 fe24 	bl	26f18 <_ZN9allow_pin12full_dynamic17unshare_if_shared17h34fb2a9288def0c2E>
   202d0:	b01f      	add	sp, #124	@ 0x7c
   202d2:	bdf0      	pop	{r4, r5, r6, r7, pc}
   202d4:	a803      	add	r0, sp, #12
   202d6:	f006 fe1f 	bl	26f18 <_ZN9allow_pin12full_dynamic17unshare_if_shared17h34fb2a9288def0c2E>
   202da:	ac0a      	add	r4, sp, #40	@ 0x28
   202dc:	4620      	mov	r0, r4
   202de:	f006 fe1b 	bl	26f18 <_ZN9allow_pin12full_dynamic17unshare_if_shared17h34fb2a9288def0c2E>
   202e2:	4620      	mov	r0, r4
   202e4:	f006 fe18 	bl	26f18 <_ZN9allow_pin12full_dynamic17unshare_if_shared17h34fb2a9288def0c2E>
   202e8:	9c02      	ldr	r4, [sp, #8]
   202ea:	1c60      	adds	r0, r4, #1
   202ec:	2248      	movs	r2, #72	@ 0x48
   202ee:	9900      	ldr	r1, [sp, #0]
   202f0:	f006 ffd3 	bl	2729a <__aeabi_memcpy>
   202f4:	e7e5      	b.n	202c2 <_ZN20complex_full_dynamic3app17h02435da38f0d3df3E+0x7a>
   202f6:	46c0      	nop			@ (mov r8, r8)
   202f8:	000012d1 	.word	0x000012d1

000202fc <_ZN20complex_full_dynamic3app17h04aa947276565358E>:
   202fc:	b5f0      	push	{r4, r5, r6, r7, lr}
   202fe:	af03      	add	r7, sp, #12
   20300:	b09d      	sub	sp, #116	@ 0x74
   20302:	9002      	str	r0, [sp, #8]
   20304:	ac03      	add	r4, sp, #12
   20306:	2602      	movs	r6, #2
   20308:	7226      	strb	r6, [r4, #8]
   2030a:	340c      	adds	r4, #12
   2030c:	2223      	movs	r2, #35	@ 0x23
   2030e:	9201      	str	r2, [sp, #4]
   20310:	4620      	mov	r0, r4
   20312:	f006 ffc2 	bl	2729a <__aeabi_memcpy>
   20316:	ad0f      	add	r5, sp, #60	@ 0x3c
   20318:	4628      	mov	r0, r5
   2031a:	300c      	adds	r0, #12
   2031c:	212b      	movs	r1, #43	@ 0x2b
   2031e:	9000      	str	r0, [sp, #0]
   20320:	f006 fe0e 	bl	26f40 <__aeabi_memclr4>
   20324:	722e      	strb	r6, [r5, #8]
   20326:	4635      	mov	r5, r6
   20328:	4e1f      	ldr	r6, [pc, #124]	@ (203a8 <_ZN20complex_full_dynamic3app17h04aa947276565358E+0xac>)
   2032a:	4630      	mov	r0, r6
   2032c:	4629      	mov	r1, r5
   2032e:	4622      	mov	r2, r4
   20330:	9b01      	ldr	r3, [sp, #4]
   20332:	df04      	svc	4
   20334:	2802      	cmp	r0, #2
   20336:	d01a      	beq.n	2036e <_ZN20complex_full_dynamic3app17h04aa947276565358E+0x72>
   20338:	a803      	add	r0, sp, #12
   2033a:	2104      	movs	r1, #4
   2033c:	7201      	strb	r1, [r0, #8]
   2033e:	9504      	str	r5, [sp, #16]
   20340:	9603      	str	r6, [sp, #12]
   20342:	2500      	movs	r5, #0
   20344:	232b      	movs	r3, #43	@ 0x2b
   20346:	4634      	mov	r4, r6
   20348:	4630      	mov	r0, r6
   2034a:	4629      	mov	r1, r5
   2034c:	9e00      	ldr	r6, [sp, #0]
   2034e:	4632      	mov	r2, r6
   20350:	df03      	svc	3
   20352:	2802      	cmp	r0, #2
   20354:	d00b      	beq.n	2036e <_ZN20complex_full_dynamic3app17h04aa947276565358E+0x72>
   20356:	a80f      	add	r0, sp, #60	@ 0x3c
   20358:	2103      	movs	r1, #3
   2035a:	7201      	strb	r1, [r0, #8]
   2035c:	940f      	str	r4, [sp, #60]	@ 0x3c
   2035e:	9510      	str	r5, [sp, #64]	@ 0x40
   20360:	4811      	ldr	r0, [pc, #68]	@ (203a8 <_ZN20complex_full_dynamic3app17h04aa947276565358E+0xac>)
   20362:	2102      	movs	r1, #2
   20364:	462a      	mov	r2, r5
   20366:	462b      	mov	r3, r5
   20368:	df02      	svc	2
   2036a:	287f      	cmp	r0, #127	@ 0x7f
   2036c:	d80b      	bhi.n	20386 <_ZN20complex_full_dynamic3app17h04aa947276565358E+0x8a>
   2036e:	9c02      	ldr	r4, [sp, #8]
   20370:	6061      	str	r1, [r4, #4]
   20372:	2501      	movs	r5, #1
   20374:	7025      	strb	r5, [r4, #0]
   20376:	a80f      	add	r0, sp, #60	@ 0x3c
   20378:	f006 fdce 	bl	26f18 <_ZN9allow_pin12full_dynamic17unshare_if_shared17h34fb2a9288def0c2E>
   2037c:	a803      	add	r0, sp, #12
   2037e:	f006 fdcb 	bl	26f18 <_ZN9allow_pin12full_dynamic17unshare_if_shared17h34fb2a9288def0c2E>
   20382:	b01d      	add	sp, #116	@ 0x74
   20384:	bdf0      	pop	{r4, r5, r6, r7, pc}
   20386:	a803      	add	r0, sp, #12
   20388:	f006 fdc6 	bl	26f18 <_ZN9allow_pin12full_dynamic17unshare_if_shared17h34fb2a9288def0c2E>
   2038c:	ac0f      	add	r4, sp, #60	@ 0x3c
   2038e:	4620      	mov	r0, r4
   20390:	f006 fdc2 	bl	26f18 <_ZN9allow_pin12full_dynamic17unshare_if_shared17h34fb2a9288def0c2E>
   20394:	4620      	mov	r0, r4
   20396:	f006 fdbf 	bl	26f18 <_ZN9allow_pin12full_dynamic17unshare_if_shared17h34fb2a9288def0c2E>
   2039a:	9c02      	ldr	r4, [sp, #8]
   2039c:	1c60      	adds	r0, r4, #1
   2039e:	222b      	movs	r2, #43	@ 0x2b
   203a0:	4631      	mov	r1, r6
   203a2:	f006 ff7a 	bl	2729a <__aeabi_memcpy>
   203a6:	e7e5      	b.n	20374 <_ZN20complex_full_dynamic3app17h04aa947276565358E+0x78>
   203a8:	00000d5d 	.word	0x00000d5d

000203ac <_ZN20complex_full_dynamic3app17h073b2299e17188eeE>:
   203ac:	b5f0      	push	{r4, r5, r6, r7, lr}
   203ae:	af03      	add	r7, sp, #12
   203b0:	b0a9      	sub	sp, #164	@ 0xa4
   203b2:	9003      	str	r0, [sp, #12]
   203b4:	ac04      	add	r4, sp, #16
   203b6:	2002      	movs	r0, #2
   203b8:	9002      	str	r0, [sp, #8]
   203ba:	7220      	strb	r0, [r4, #8]
   203bc:	340c      	adds	r4, #12
   203be:	2227      	movs	r2, #39	@ 0x27
   203c0:	9201      	str	r2, [sp, #4]
   203c2:	4620      	mov	r0, r4
   203c4:	f006 ff69 	bl	2729a <__aeabi_memcpy>
   203c8:	ae11      	add	r6, sp, #68	@ 0x44
   203ca:	4635      	mov	r5, r6
   203cc:	350c      	adds	r5, #12
   203ce:	2151      	movs	r1, #81	@ 0x51
   203d0:	4628      	mov	r0, r5
   203d2:	f006 fdb5 	bl	26f40 <__aeabi_memclr4>
   203d6:	9802      	ldr	r0, [sp, #8]
   203d8:	7230      	strb	r0, [r6, #8]
   203da:	481f      	ldr	r0, [pc, #124]	@ (20458 <_ZN20complex_full_dynamic3app17h073b2299e17188eeE+0xac>)
   203dc:	2600      	movs	r6, #0
   203de:	4631      	mov	r1, r6
   203e0:	4622      	mov	r2, r4
   203e2:	9b01      	ldr	r3, [sp, #4]
   203e4:	df04      	svc	4
   203e6:	2802      	cmp	r0, #2
   203e8:	d019      	beq.n	2041e <_ZN20complex_full_dynamic3app17h073b2299e17188eeE+0x72>
   203ea:	a804      	add	r0, sp, #16
   203ec:	2404      	movs	r4, #4
   203ee:	7204      	strb	r4, [r0, #8]
   203f0:	9605      	str	r6, [sp, #20]
   203f2:	4e19      	ldr	r6, [pc, #100]	@ (20458 <_ZN20complex_full_dynamic3app17h073b2299e17188eeE+0xac>)
   203f4:	9604      	str	r6, [sp, #16]
   203f6:	2351      	movs	r3, #81	@ 0x51
   203f8:	4630      	mov	r0, r6
   203fa:	4621      	mov	r1, r4
   203fc:	462a      	mov	r2, r5
   203fe:	df03      	svc	3
   20400:	2802      	cmp	r0, #2
   20402:	d00c      	beq.n	2041e <_ZN20complex_full_dynamic3app17h073b2299e17188eeE+0x72>
   20404:	a811      	add	r0, sp, #68	@ 0x44
   20406:	2103      	movs	r1, #3
   20408:	7201      	strb	r1, [r0, #8]
   2040a:	9611      	str	r6, [sp, #68]	@ 0x44
   2040c:	9412      	str	r4, [sp, #72]	@ 0x48
   2040e:	4812      	ldr	r0, [pc, #72]	@ (20458 <_ZN20complex_full_dynamic3app17h073b2299e17188eeE+0xac>)
   20410:	2600      	movs	r6, #0
   20412:	4631      	mov	r1, r6
   20414:	4622      	mov	r2, r4
   20416:	4633      	mov	r3, r6
   20418:	df02      	svc	2
   2041a:	287f      	cmp	r0, #127	@ 0x7f
   2041c:	d80b      	bhi.n	20436 <_ZN20complex_full_dynamic3app17h073b2299e17188eeE+0x8a>
   2041e:	9c03      	ldr	r4, [sp, #12]
   20420:	6061      	str	r1, [r4, #4]
   20422:	2601      	movs	r6, #1
   20424:	7026      	strb	r6, [r4, #0]
   20426:	a811      	add	r0, sp, #68	@ 0x44
   20428:	f006 fd76 	bl	26f18 <_ZN9allow_pin12full_dynamic17unshare_if_shared17h34fb2a9288def0c2E>
   2042c:	a804      	add	r0, sp, #16
   2042e:	f006 fd73 	bl	26f18 <_ZN9allow_pin12full_dynamic17unshare_if_shared17h34fb2a9288def0c2E>
   20432:	b029      	add	sp, #164	@ 0xa4
   20434:	bdf0      	pop	{r4, r5, r6, r7, pc}
   20436:	a804      	add	r0, sp, #16
   20438:	f006 fd6e 	bl	26f18 <_ZN9allow_pin12full_dynamic17unshare_if_shared17h34fb2a9288def0c2E>
   2043c:	ac11      	add	r4, sp, #68	@ 0x44
   2043e:	4620      	mov	r0, r4
   20440:	f006 fd6a 	bl	26f18 <_ZN9allow_pin12full_dynamic17unshare_if_shared17h34fb2a9288def0c2E>
   20444:	4620      	mov	r0, r4
   20446:	f006 fd67 	bl	26f18 <_ZN9allow_pin12full_dynamic17unshare_if_shared17h34fb2a9288def0c2E>
   2044a:	9c03      	ldr	r4, [sp, #12]
   2044c:	1c60      	adds	r0, r4, #1
   2044e:	2251      	movs	r2, #81	@ 0x51
   20450:	4629      	mov	r1, r5
   20452:	f006 ff22 	bl	2729a <__aeabi_memcpy>
   20456:	e7e5      	b.n	20424 <_ZN20complex_full_dynamic3app17h073b2299e17188eeE+0x78>
   20458:	00000a36 	.word	0x00000a36

0002045c <_ZN20complex_full_dynamic3app17h0e27cf2ff5915f53E>:
   2045c:	b5f0      	push	{r4, r5, r6, r7, lr}
   2045e:	af03      	add	r7, sp, #12
   20460:	b0a5      	sub	sp, #148	@ 0x94
   20462:	9003      	str	r0, [sp, #12]
   20464:	ac04      	add	r4, sp, #16
   20466:	2002      	movs	r0, #2
   20468:	9002      	str	r0, [sp, #8]
   2046a:	7220      	strb	r0, [r4, #8]
   2046c:	340c      	adds	r4, #12
   2046e:	2213      	movs	r2, #19
   20470:	9201      	str	r2, [sp, #4]
   20472:	4620      	mov	r0, r4
   20474:	f006 ff11 	bl	2729a <__aeabi_memcpy>
   20478:	ae0c      	add	r6, sp, #48	@ 0x30
   2047a:	4635      	mov	r5, r6
   2047c:	350c      	adds	r5, #12
   2047e:	2155      	movs	r1, #85	@ 0x55
   20480:	4628      	mov	r0, r5
   20482:	f006 fd5d 	bl	26f40 <__aeabi_memclr4>
   20486:	9802      	ldr	r0, [sp, #8]
   20488:	7230      	strb	r0, [r6, #8]
   2048a:	4820      	ldr	r0, [pc, #128]	@ (2050c <_ZN20complex_full_dynamic3app17h0e27cf2ff5915f53E+0xb0>)
   2048c:	2609      	movs	r6, #9
   2048e:	4631      	mov	r1, r6
   20490:	4622      	mov	r2, r4
   20492:	9b01      	ldr	r3, [sp, #4]
   20494:	df04      	svc	4
   20496:	2802      	cmp	r0, #2
   20498:	d01a      	beq.n	204d0 <_ZN20complex_full_dynamic3app17h0e27cf2ff5915f53E+0x74>
   2049a:	a804      	add	r0, sp, #16
   2049c:	2104      	movs	r1, #4
   2049e:	7201      	strb	r1, [r0, #8]
   204a0:	9605      	str	r6, [sp, #20]
   204a2:	4e1a      	ldr	r6, [pc, #104]	@ (2050c <_ZN20complex_full_dynamic3app17h0e27cf2ff5915f53E+0xb0>)
   204a4:	9604      	str	r6, [sp, #16]
   204a6:	2407      	movs	r4, #7
   204a8:	2355      	movs	r3, #85	@ 0x55
   204aa:	4630      	mov	r0, r6
   204ac:	4621      	mov	r1, r4
   204ae:	462a      	mov	r2, r5
   204b0:	df03      	svc	3
   204b2:	2802      	cmp	r0, #2
   204b4:	d00c      	beq.n	204d0 <_ZN20complex_full_dynamic3app17h0e27cf2ff5915f53E+0x74>
   204b6:	a80c      	add	r0, sp, #48	@ 0x30
   204b8:	2103      	movs	r1, #3
   204ba:	7201      	strb	r1, [r0, #8]
   204bc:	960c      	str	r6, [sp, #48]	@ 0x30
   204be:	940d      	str	r4, [sp, #52]	@ 0x34
   204c0:	4812      	ldr	r0, [pc, #72]	@ (2050c <_ZN20complex_full_dynamic3app17h0e27cf2ff5915f53E+0xb0>)
   204c2:	2109      	movs	r1, #9
   204c4:	2600      	movs	r6, #0
   204c6:	4622      	mov	r2, r4
   204c8:	4633      	mov	r3, r6
   204ca:	df02      	svc	2
   204cc:	287f      	cmp	r0, #127	@ 0x7f
   204ce:	d80b      	bhi.n	204e8 <_ZN20complex_full_dynamic3app17h0e27cf2ff5915f53E+0x8c>
   204d0:	9c03      	ldr	r4, [sp, #12]
   204d2:	6061      	str	r1, [r4, #4]
   204d4:	2601      	movs	r6, #1
   204d6:	7026      	strb	r6, [r4, #0]
   204d8:	a80c      	add	r0, sp, #48	@ 0x30
   204da:	f006 fd1d 	bl	26f18 <_ZN9allow_pin12full_dynamic17unshare_if_shared17h34fb2a9288def0c2E>
   204de:	a804      	add	r0, sp, #16
   204e0:	f006 fd1a 	bl	26f18 <_ZN9allow_pin12full_dynamic17unshare_if_shared17h34fb2a9288def0c2E>
   204e4:	b025      	add	sp, #148	@ 0x94
   204e6:	bdf0      	pop	{r4, r5, r6, r7, pc}
   204e8:	a804      	add	r0, sp, #16
   204ea:	f006 fd15 	bl	26f18 <_ZN9allow_pin12full_dynamic17unshare_if_shared17h34fb2a9288def0c2E>
   204ee:	ac0c      	add	r4, sp, #48	@ 0x30
   204f0:	4620      	mov	r0, r4
   204f2:	f006 fd11 	bl	26f18 <_ZN9allow_pin12full_dynamic17unshare_if_shared17h34fb2a9288def0c2E>
   204f6:	4620      	mov	r0, r4
   204f8:	f006 fd0e 	bl	26f18 <_ZN9allow_pin12full_dynamic17unshare_if_shared17h34fb2a9288def0c2E>
   204fc:	9c03      	ldr	r4, [sp, #12]
   204fe:	1c60      	adds	r0, r4, #1
   20500:	2255      	movs	r2, #85	@ 0x55
   20502:	4629      	mov	r1, r5
   20504:	f006 fec9 	bl	2729a <__aeabi_memcpy>
   20508:	e7e5      	b.n	204d6 <_ZN20complex_full_dynamic3app17h0e27cf2ff5915f53E+0x7a>
   2050a:	46c0      	nop			@ (mov r8, r8)
   2050c:	0000032e 	.word	0x0000032e

00020510 <_ZN20complex_full_dynamic3app17h0fa66cda0d3fc9a1E>:
   20510:	b5f0      	push	{r4, r5, r6, r7, lr}
   20512:	af03      	add	r7, sp, #12
   20514:	b0b3      	sub	sp, #204	@ 0xcc
   20516:	9003      	str	r0, [sp, #12]
   20518:	ac04      	add	r4, sp, #16
   2051a:	2602      	movs	r6, #2
   2051c:	7226      	strb	r6, [r4, #8]
   2051e:	340c      	adds	r4, #12
   20520:	2251      	movs	r2, #81	@ 0x51
   20522:	9202      	str	r2, [sp, #8]
   20524:	4620      	mov	r0, r4
   20526:	f006 feb8 	bl	2729a <__aeabi_memcpy>
   2052a:	ad1c      	add	r5, sp, #112	@ 0x70
   2052c:	4628      	mov	r0, r5
   2052e:	300c      	adds	r0, #12
   20530:	214f      	movs	r1, #79	@ 0x4f
   20532:	9001      	str	r0, [sp, #4]
   20534:	f006 fd04 	bl	26f40 <__aeabi_memclr4>
   20538:	722e      	strb	r6, [r5, #8]
   2053a:	4635      	mov	r5, r6
   2053c:	4e1f      	ldr	r6, [pc, #124]	@ (205bc <_ZN20complex_full_dynamic3app17h0fa66cda0d3fc9a1E+0xac>)
   2053e:	4630      	mov	r0, r6
   20540:	4629      	mov	r1, r5
   20542:	4622      	mov	r2, r4
   20544:	9b02      	ldr	r3, [sp, #8]
   20546:	df04      	svc	4
   20548:	2802      	cmp	r0, #2
   2054a:	d019      	beq.n	20580 <_ZN20complex_full_dynamic3app17h0fa66cda0d3fc9a1E+0x70>
   2054c:	a804      	add	r0, sp, #16
   2054e:	2404      	movs	r4, #4
   20550:	7204      	strb	r4, [r0, #8]
   20552:	9505      	str	r5, [sp, #20]
   20554:	9604      	str	r6, [sp, #16]
   20556:	234f      	movs	r3, #79	@ 0x4f
   20558:	4630      	mov	r0, r6
   2055a:	4621      	mov	r1, r4
   2055c:	9d01      	ldr	r5, [sp, #4]
   2055e:	462a      	mov	r2, r5
   20560:	df03      	svc	3
   20562:	2802      	cmp	r0, #2
   20564:	d00c      	beq.n	20580 <_ZN20complex_full_dynamic3app17h0fa66cda0d3fc9a1E+0x70>
   20566:	a81c      	add	r0, sp, #112	@ 0x70
   20568:	2103      	movs	r1, #3
   2056a:	7201      	strb	r1, [r0, #8]
   2056c:	961c      	str	r6, [sp, #112]	@ 0x70
   2056e:	941d      	str	r4, [sp, #116]	@ 0x74
   20570:	4812      	ldr	r0, [pc, #72]	@ (205bc <_ZN20complex_full_dynamic3app17h0fa66cda0d3fc9a1E+0xac>)
   20572:	2102      	movs	r1, #2
   20574:	2600      	movs	r6, #0
   20576:	4622      	mov	r2, r4
   20578:	4633      	mov	r3, r6
   2057a:	df02      	svc	2
   2057c:	287f      	cmp	r0, #127	@ 0x7f
   2057e:	d80b      	bhi.n	20598 <_ZN20complex_full_dynamic3app17h0fa66cda0d3fc9a1E+0x88>
   20580:	9c03      	ldr	r4, [sp, #12]
   20582:	6061      	str	r1, [r4, #4]
   20584:	2601      	movs	r6, #1
   20586:	7026      	strb	r6, [r4, #0]
   20588:	a81c      	add	r0, sp, #112	@ 0x70
   2058a:	f006 fcc5 	bl	26f18 <_ZN9allow_pin12full_dynamic17unshare_if_shared17h34fb2a9288def0c2E>
   2058e:	a804      	add	r0, sp, #16
   20590:	f006 fcc2 	bl	26f18 <_ZN9allow_pin12full_dynamic17unshare_if_shared17h34fb2a9288def0c2E>
   20594:	b033      	add	sp, #204	@ 0xcc
   20596:	bdf0      	pop	{r4, r5, r6, r7, pc}
   20598:	a804      	add	r0, sp, #16
   2059a:	f006 fcbd 	bl	26f18 <_ZN9allow_pin12full_dynamic17unshare_if_shared17h34fb2a9288def0c2E>
   2059e:	ac1c      	add	r4, sp, #112	@ 0x70
   205a0:	4620      	mov	r0, r4
   205a2:	f006 fcb9 	bl	26f18 <_ZN9allow_pin12full_dynamic17unshare_if_shared17h34fb2a9288def0c2E>
   205a6:	4620      	mov	r0, r4
   205a8:	f006 fcb6 	bl	26f18 <_ZN9allow_pin12full_dynamic17unshare_if_shared17h34fb2a9288def0c2E>
   205ac:	9c03      	ldr	r4, [sp, #12]
   205ae:	1c60      	adds	r0, r4, #1
   205b0:	224f      	movs	r2, #79	@ 0x4f
   205b2:	4629      	mov	r1, r5
   205b4:	f006 fe71 	bl	2729a <__aeabi_memcpy>
   205b8:	e7e5      	b.n	20586 <_ZN20complex_full_dynamic3app17h0fa66cda0d3fc9a1E+0x76>
   205ba:	46c0      	nop			@ (mov r8, r8)
   205bc:	00000e16 	.word	0x00000e16

000205c0 <_ZN20complex_full_dynamic3app17h101bd52716059e3cE>:
   205c0:	b5f0      	push	{r4, r5, r6, r7, lr}
   205c2:	af03      	add	r7, sp, #12
   205c4:	b0a1      	sub	sp, #132	@ 0x84
   205c6:	9001      	str	r0, [sp, #4]
   205c8:	ae02      	add	r6, sp, #8
   205ca:	2502      	movs	r5, #2
   205cc:	7235      	strb	r5, [r6, #8]
   205ce:	360c      	adds	r6, #12
   205d0:	2251      	movs	r2, #81	@ 0x51
   205d2:	9200      	str	r2, [sp, #0]
   205d4:	4630      	mov	r0, r6
   205d6:	f006 fe60 	bl	2729a <__aeabi_memcpy>
   205da:	a81a      	add	r0, sp, #104	@ 0x68
   205dc:	2400      	movs	r4, #0
   205de:	7684      	strb	r4, [r0, #26]
   205e0:	8304      	strh	r4, [r0, #24]
   205e2:	7205      	strb	r5, [r0, #8]
   205e4:	4605      	mov	r5, r0
   205e6:	941f      	str	r4, [sp, #124]	@ 0x7c
   205e8:	941e      	str	r4, [sp, #120]	@ 0x78
   205ea:	941d      	str	r4, [sp, #116]	@ 0x74
   205ec:	481f      	ldr	r0, [pc, #124]	@ (2066c <_ZN20complex_full_dynamic3app17h101bd52716059e3cE+0xac>)
   205ee:	4621      	mov	r1, r4
   205f0:	4632      	mov	r2, r6
   205f2:	9b00      	ldr	r3, [sp, #0]
   205f4:	df04      	svc	4
   205f6:	2802      	cmp	r0, #2
   205f8:	d01a      	beq.n	20630 <_ZN20complex_full_dynamic3app17h101bd52716059e3cE+0x70>
   205fa:	350c      	adds	r5, #12
   205fc:	a802      	add	r0, sp, #8
   205fe:	2104      	movs	r1, #4
   20600:	7201      	strb	r1, [r0, #8]
   20602:	9403      	str	r4, [sp, #12]
   20604:	4e19      	ldr	r6, [pc, #100]	@ (2066c <_ZN20complex_full_dynamic3app17h101bd52716059e3cE+0xac>)
   20606:	9602      	str	r6, [sp, #8]
   20608:	2403      	movs	r4, #3
   2060a:	230f      	movs	r3, #15
   2060c:	4630      	mov	r0, r6
   2060e:	4621      	mov	r1, r4
   20610:	462a      	mov	r2, r5
   20612:	df03      	svc	3
   20614:	2802      	cmp	r0, #2
   20616:	d00b      	beq.n	20630 <_ZN20complex_full_dynamic3app17h101bd52716059e3cE+0x70>
   20618:	a81a      	add	r0, sp, #104	@ 0x68
   2061a:	7204      	strb	r4, [r0, #8]
   2061c:	941b      	str	r4, [sp, #108]	@ 0x6c
   2061e:	961a      	str	r6, [sp, #104]	@ 0x68
   20620:	4812      	ldr	r0, [pc, #72]	@ (2066c <_ZN20complex_full_dynamic3app17h101bd52716059e3cE+0xac>)
   20622:	2600      	movs	r6, #0
   20624:	4631      	mov	r1, r6
   20626:	4622      	mov	r2, r4
   20628:	4633      	mov	r3, r6
   2062a:	df02      	svc	2
   2062c:	287f      	cmp	r0, #127	@ 0x7f
   2062e:	d80b      	bhi.n	20648 <_ZN20complex_full_dynamic3app17h101bd52716059e3cE+0x88>
   20630:	9c01      	ldr	r4, [sp, #4]
   20632:	6061      	str	r1, [r4, #4]
   20634:	2601      	movs	r6, #1
   20636:	7026      	strb	r6, [r4, #0]
   20638:	a81a      	add	r0, sp, #104	@ 0x68
   2063a:	f006 fc6d 	bl	26f18 <_ZN9allow_pin12full_dynamic17unshare_if_shared17h34fb2a9288def0c2E>
   2063e:	a802      	add	r0, sp, #8
   20640:	f006 fc6a 	bl	26f18 <_ZN9allow_pin12full_dynamic17unshare_if_shared17h34fb2a9288def0c2E>
   20644:	b021      	add	sp, #132	@ 0x84
   20646:	bdf0      	pop	{r4, r5, r6, r7, pc}
   20648:	a802      	add	r0, sp, #8
   2064a:	f006 fc65 	bl	26f18 <_ZN9allow_pin12full_dynamic17unshare_if_shared17h34fb2a9288def0c2E>
   2064e:	ac1a      	add	r4, sp, #104	@ 0x68
   20650:	4620      	mov	r0, r4
   20652:	f006 fc61 	bl	26f18 <_ZN9allow_pin12full_dynamic17unshare_if_shared17h34fb2a9288def0c2E>
   20656:	4620      	mov	r0, r4
   20658:	f006 fc5e 	bl	26f18 <_ZN9allow_pin12full_dynamic17unshare_if_shared17h34fb2a9288def0c2E>
   2065c:	9c01      	ldr	r4, [sp, #4]
   2065e:	1c60      	adds	r0, r4, #1
   20660:	220f      	movs	r2, #15
   20662:	4629      	mov	r1, r5
   20664:	f006 fe19 	bl	2729a <__aeabi_memcpy>
   20668:	e7e5      	b.n	20636 <_ZN20complex_full_dynamic3app17h101bd52716059e3cE+0x76>
   2066a:	46c0      	nop			@ (mov r8, r8)
   2066c:	000013bf 	.word	0x000013bf

00020670 <_ZN20complex_full_dynamic3app17h1083b4402e71d716E>:
   20670:	b5f0      	push	{r4, r5, r6, r7, lr}
   20672:	af03      	add	r7, sp, #12
   20674:	b0a7      	sub	sp, #156	@ 0x9c
   20676:	9002      	str	r0, [sp, #8]
   20678:	ac03      	add	r4, sp, #12
   2067a:	2602      	movs	r6, #2
   2067c:	7226      	strb	r6, [r4, #8]
   2067e:	340c      	adds	r4, #12
   20680:	2221      	movs	r2, #33	@ 0x21
   20682:	9201      	str	r2, [sp, #4]
   20684:	4620      	mov	r0, r4
   20686:	f006 fe08 	bl	2729a <__aeabi_memcpy>
   2068a:	ad0f      	add	r5, sp, #60	@ 0x3c
   2068c:	4628      	mov	r0, r5
   2068e:	300c      	adds	r0, #12
   20690:	2153      	movs	r1, #83	@ 0x53
   20692:	9000      	str	r0, [sp, #0]
   20694:	f006 fc54 	bl	26f40 <__aeabi_memclr4>
   20698:	722e      	strb	r6, [r5, #8]
   2069a:	4635      	mov	r5, r6
   2069c:	4e1f      	ldr	r6, [pc, #124]	@ (2071c <_ZN20complex_full_dynamic3app17h1083b4402e71d716E+0xac>)
   2069e:	4630      	mov	r0, r6
   206a0:	4629      	mov	r1, r5
   206a2:	4622      	mov	r2, r4
   206a4:	9b01      	ldr	r3, [sp, #4]
   206a6:	df04      	svc	4
   206a8:	2802      	cmp	r0, #2
   206aa:	d01a      	beq.n	206e2 <_ZN20complex_full_dynamic3app17h1083b4402e71d716E+0x72>
   206ac:	a803      	add	r0, sp, #12
   206ae:	2104      	movs	r1, #4
   206b0:	7201      	strb	r1, [r0, #8]
   206b2:	9504      	str	r5, [sp, #16]
   206b4:	9603      	str	r6, [sp, #12]
   206b6:	2408      	movs	r4, #8
   206b8:	2353      	movs	r3, #83	@ 0x53
   206ba:	4630      	mov	r0, r6
   206bc:	4621      	mov	r1, r4
   206be:	9d00      	ldr	r5, [sp, #0]
   206c0:	462a      	mov	r2, r5
   206c2:	df03      	svc	3
   206c4:	2802      	cmp	r0, #2
   206c6:	d00c      	beq.n	206e2 <_ZN20complex_full_dynamic3app17h1083b4402e71d716E+0x72>
   206c8:	a80f      	add	r0, sp, #60	@ 0x3c
   206ca:	2103      	movs	r1, #3
   206cc:	7201      	strb	r1, [r0, #8]
   206ce:	960f      	str	r6, [sp, #60]	@ 0x3c
   206d0:	9410      	str	r4, [sp, #64]	@ 0x40
   206d2:	4812      	ldr	r0, [pc, #72]	@ (2071c <_ZN20complex_full_dynamic3app17h1083b4402e71d716E+0xac>)
   206d4:	2102      	movs	r1, #2
   206d6:	2600      	movs	r6, #0
   206d8:	4622      	mov	r2, r4
   206da:	4633      	mov	r3, r6
   206dc:	df02      	svc	2
   206de:	287f      	cmp	r0, #127	@ 0x7f
   206e0:	d80b      	bhi.n	206fa <_ZN20complex_full_dynamic3app17h1083b4402e71d716E+0x8a>
   206e2:	9c02      	ldr	r4, [sp, #8]
   206e4:	6061      	str	r1, [r4, #4]
   206e6:	2601      	movs	r6, #1
   206e8:	7026      	strb	r6, [r4, #0]
   206ea:	a80f      	add	r0, sp, #60	@ 0x3c
   206ec:	f006 fc14 	bl	26f18 <_ZN9allow_pin12full_dynamic17unshare_if_shared17h34fb2a9288def0c2E>
   206f0:	a803      	add	r0, sp, #12
   206f2:	f006 fc11 	bl	26f18 <_ZN9allow_pin12full_dynamic17unshare_if_shared17h34fb2a9288def0c2E>
   206f6:	b027      	add	sp, #156	@ 0x9c
   206f8:	bdf0      	pop	{r4, r5, r6, r7, pc}
   206fa:	a803      	add	r0, sp, #12
   206fc:	f006 fc0c 	bl	26f18 <_ZN9allow_pin12full_dynamic17unshare_if_shared17h34fb2a9288def0c2E>
   20700:	ac0f      	add	r4, sp, #60	@ 0x3c
   20702:	4620      	mov	r0, r4
   20704:	f006 fc08 	bl	26f18 <_ZN9allow_pin12full_dynamic17unshare_if_shared17h34fb2a9288def0c2E>
   20708:	4620      	mov	r0, r4
   2070a:	f006 fc05 	bl	26f18 <_ZN9allow_pin12full_dynamic17unshare_if_shared17h34fb2a9288def0c2E>
   2070e:	9c02      	ldr	r4, [sp, #8]
   20710:	1c60      	adds	r0, r4, #1
   20712:	2253      	movs	r2, #83	@ 0x53
   20714:	4629      	mov	r1, r5
   20716:	f006 fdc0 	bl	2729a <__aeabi_memcpy>
   2071a:	e7e5      	b.n	206e8 <_ZN20complex_full_dynamic3app17h1083b4402e71d716E+0x78>
   2071c:	0000253e 	.word	0x0000253e

00020720 <_ZN20complex_full_dynamic3app17h15099d5d86ebaaddE>:
   20720:	b5f0      	push	{r4, r5, r6, r7, lr}
   20722:	af03      	add	r7, sp, #12
   20724:	b0ad      	sub	sp, #180	@ 0xb4
   20726:	9003      	str	r0, [sp, #12]
   20728:	ae04      	add	r6, sp, #16
   2072a:	2002      	movs	r0, #2
   2072c:	9002      	str	r0, [sp, #8]
   2072e:	7230      	strb	r0, [r6, #8]
   20730:	360c      	adds	r6, #12
   20732:	2250      	movs	r2, #80	@ 0x50
   20734:	9201      	str	r2, [sp, #4]
   20736:	4630      	mov	r0, r6
   20738:	f006 fdaf 	bl	2729a <__aeabi_memcpy>
   2073c:	ad1b      	add	r5, sp, #108	@ 0x6c
   2073e:	462c      	mov	r4, r5
   20740:	340c      	adds	r4, #12
   20742:	213c      	movs	r1, #60	@ 0x3c
   20744:	4620      	mov	r0, r4
   20746:	f006 fbfb 	bl	26f40 <__aeabi_memclr4>
   2074a:	9802      	ldr	r0, [sp, #8]
   2074c:	7228      	strb	r0, [r5, #8]
   2074e:	4820      	ldr	r0, [pc, #128]	@ (207d0 <_ZN20complex_full_dynamic3app17h15099d5d86ebaaddE+0xb0>)
   20750:	2503      	movs	r5, #3
   20752:	4629      	mov	r1, r5
   20754:	4632      	mov	r2, r6
   20756:	9b01      	ldr	r3, [sp, #4]
   20758:	df04      	svc	4
   2075a:	2802      	cmp	r0, #2
   2075c:	d01a      	beq.n	20794 <_ZN20complex_full_dynamic3app17h15099d5d86ebaaddE+0x74>
   2075e:	a804      	add	r0, sp, #16
   20760:	2104      	movs	r1, #4
   20762:	7201      	strb	r1, [r0, #8]
   20764:	9505      	str	r5, [sp, #20]
   20766:	4e1a      	ldr	r6, [pc, #104]	@ (207d0 <_ZN20complex_full_dynamic3app17h15099d5d86ebaaddE+0xb0>)
   20768:	9604      	str	r6, [sp, #16]
   2076a:	2109      	movs	r1, #9
   2076c:	233c      	movs	r3, #60	@ 0x3c
   2076e:	4630      	mov	r0, r6
   20770:	9102      	str	r1, [sp, #8]
   20772:	4622      	mov	r2, r4
   20774:	df03      	svc	3
   20776:	2802      	cmp	r0, #2
   20778:	d00c      	beq.n	20794 <_ZN20complex_full_dynamic3app17h15099d5d86ebaaddE+0x74>
   2077a:	9401      	str	r4, [sp, #4]
   2077c:	a81b      	add	r0, sp, #108	@ 0x6c
   2077e:	7205      	strb	r5, [r0, #8]
   20780:	961b      	str	r6, [sp, #108]	@ 0x6c
   20782:	9a02      	ldr	r2, [sp, #8]
   20784:	921c      	str	r2, [sp, #112]	@ 0x70
   20786:	4812      	ldr	r0, [pc, #72]	@ (207d0 <_ZN20complex_full_dynamic3app17h15099d5d86ebaaddE+0xb0>)
   20788:	2600      	movs	r6, #0
   2078a:	4629      	mov	r1, r5
   2078c:	4633      	mov	r3, r6
   2078e:	df02      	svc	2
   20790:	287f      	cmp	r0, #127	@ 0x7f
   20792:	d80b      	bhi.n	207ac <_ZN20complex_full_dynamic3app17h15099d5d86ebaaddE+0x8c>
   20794:	9c03      	ldr	r4, [sp, #12]
   20796:	6061      	str	r1, [r4, #4]
   20798:	2601      	movs	r6, #1
   2079a:	7026      	strb	r6, [r4, #0]
   2079c:	a81b      	add	r0, sp, #108	@ 0x6c
   2079e:	f006 fbbb 	bl	26f18 <_ZN9allow_pin12full_dynamic17unshare_if_shared17h34fb2a9288def0c2E>
   207a2:	a804      	add	r0, sp, #16
   207a4:	f006 fbb8 	bl	26f18 <_ZN9allow_pin12full_dynamic17unshare_if_shared17h34fb2a9288def0c2E>
   207a8:	b02d      	add	sp, #180	@ 0xb4
   207aa:	bdf0      	pop	{r4, r5, r6, r7, pc}
   207ac:	a804      	add	r0, sp, #16
   207ae:	f006 fbb3 	bl	26f18 <_ZN9allow_pin12full_dynamic17unshare_if_shared17h34fb2a9288def0c2E>
   207b2:	ac1b      	add	r4, sp, #108	@ 0x6c
   207b4:	4620      	mov	r0, r4
   207b6:	f006 fbaf 	bl	26f18 <_ZN9allow_pin12full_dynamic17unshare_if_shared17h34fb2a9288def0c2E>
   207ba:	4620      	mov	r0, r4
   207bc:	f006 fbac 	bl	26f18 <_ZN9allow_pin12full_dynamic17unshare_if_shared17h34fb2a9288def0c2E>
   207c0:	9c03      	ldr	r4, [sp, #12]
   207c2:	1c60      	adds	r0, r4, #1
   207c4:	223c      	movs	r2, #60	@ 0x3c
   207c6:	9901      	ldr	r1, [sp, #4]
   207c8:	f006 fd67 	bl	2729a <__aeabi_memcpy>
   207cc:	e7e5      	b.n	2079a <_ZN20complex_full_dynamic3app17h15099d5d86ebaaddE+0x7a>
   207ce:	46c0      	nop			@ (mov r8, r8)
   207d0:	00000d7a 	.word	0x00000d7a

000207d4 <_ZN20complex_full_dynamic3app17h15a592e10a02dbc6E>:
   207d4:	b5f0      	push	{r4, r5, r6, r7, lr}
   207d6:	af03      	add	r7, sp, #12
   207d8:	b09f      	sub	sp, #124	@ 0x7c
   207da:	9002      	str	r0, [sp, #8]
   207dc:	ac03      	add	r4, sp, #12
   207de:	2602      	movs	r6, #2
   207e0:	7226      	strb	r6, [r4, #8]
   207e2:	340c      	adds	r4, #12
   207e4:	2212      	movs	r2, #18
   207e6:	9201      	str	r2, [sp, #4]
   207e8:	4620      	mov	r0, r4
   207ea:	f006 fd56 	bl	2729a <__aeabi_memcpy>
   207ee:	ad0b      	add	r5, sp, #44	@ 0x2c
   207f0:	4628      	mov	r0, r5
   207f2:	300c      	adds	r0, #12
   207f4:	2144      	movs	r1, #68	@ 0x44
   207f6:	9000      	str	r0, [sp, #0]
   207f8:	f006 fba2 	bl	26f40 <__aeabi_memclr4>
   207fc:	722e      	strb	r6, [r5, #8]
   207fe:	4635      	mov	r5, r6
   20800:	4e1f      	ldr	r6, [pc, #124]	@ (20880 <_ZN20complex_full_dynamic3app17h15a592e10a02dbc6E+0xac>)
   20802:	4630      	mov	r0, r6
   20804:	4629      	mov	r1, r5
   20806:	4622      	mov	r2, r4
   20808:	9b01      	ldr	r3, [sp, #4]
   2080a:	df04      	svc	4
   2080c:	2802      	cmp	r0, #2
   2080e:	d01a      	beq.n	20846 <_ZN20complex_full_dynamic3app17h15a592e10a02dbc6E+0x72>
   20810:	a803      	add	r0, sp, #12
   20812:	2104      	movs	r1, #4
   20814:	7201      	strb	r1, [r0, #8]
   20816:	9504      	str	r5, [sp, #16]
   20818:	9603      	str	r6, [sp, #12]
   2081a:	2409      	movs	r4, #9
   2081c:	2344      	movs	r3, #68	@ 0x44
   2081e:	4630      	mov	r0, r6
   20820:	4621      	mov	r1, r4
   20822:	9d00      	ldr	r5, [sp, #0]
   20824:	462a      	mov	r2, r5
   20826:	df03      	svc	3
   20828:	2802      	cmp	r0, #2
   2082a:	d00c      	beq.n	20846 <_ZN20complex_full_dynamic3app17h15a592e10a02dbc6E+0x72>
   2082c:	a80b      	add	r0, sp, #44	@ 0x2c
   2082e:	2103      	movs	r1, #3
   20830:	7201      	strb	r1, [r0, #8]
   20832:	960b      	str	r6, [sp, #44]	@ 0x2c
   20834:	940c      	str	r4, [sp, #48]	@ 0x30
   20836:	4812      	ldr	r0, [pc, #72]	@ (20880 <_ZN20complex_full_dynamic3app17h15a592e10a02dbc6E+0xac>)
   20838:	2102      	movs	r1, #2
   2083a:	2600      	movs	r6, #0
   2083c:	4622      	mov	r2, r4
   2083e:	4633      	mov	r3, r6
   20840:	df02      	svc	2
   20842:	287f      	cmp	r0, #127	@ 0x7f
   20844:	d80b      	bhi.n	2085e <_ZN20complex_full_dynamic3app17h15a592e10a02dbc6E+0x8a>
   20846:	9c02      	ldr	r4, [sp, #8]
   20848:	6061      	str	r1, [r4, #4]
   2084a:	2601      	movs	r6, #1
   2084c:	7026      	strb	r6, [r4, #0]
   2084e:	a80b      	add	r0, sp, #44	@ 0x2c
   20850:	f006 fb62 	bl	26f18 <_ZN9allow_pin12full_dynamic17unshare_if_shared17h34fb2a9288def0c2E>
   20854:	a803      	add	r0, sp, #12
   20856:	f006 fb5f 	bl	26f18 <_ZN9allow_pin12full_dynamic17unshare_if_shared17h34fb2a9288def0c2E>
   2085a:	b01f      	add	sp, #124	@ 0x7c
   2085c:	bdf0      	pop	{r4, r5, r6, r7, pc}
   2085e:	a803      	add	r0, sp, #12
   20860:	f006 fb5a 	bl	26f18 <_ZN9allow_pin12full_dynamic17unshare_if_shared17h34fb2a9288def0c2E>
   20864:	ac0b      	add	r4, sp, #44	@ 0x2c
   20866:	4620      	mov	r0, r4
   20868:	f006 fb56 	bl	26f18 <_ZN9allow_pin12full_dynamic17unshare_if_shared17h34fb2a9288def0c2E>
   2086c:	4620      	mov	r0, r4
   2086e:	f006 fb53 	bl	26f18 <_ZN9allow_pin12full_dynamic17unshare_if_shared17h34fb2a9288def0c2E>
   20872:	9c02      	ldr	r4, [sp, #8]
   20874:	1c60      	adds	r0, r4, #1
   20876:	2244      	movs	r2, #68	@ 0x44
   20878:	4629      	mov	r1, r5
   2087a:	f006 fd0e 	bl	2729a <__aeabi_memcpy>
   2087e:	e7e5      	b.n	2084c <_ZN20complex_full_dynamic3app17h15a592e10a02dbc6E+0x78>
   20880:	00002432 	.word	0x00002432

00020884 <_ZN20complex_full_dynamic3app17h1d5d08a8496a20e3E>:
   20884:	b5f0      	push	{r4, r5, r6, r7, lr}
   20886:	af03      	add	r7, sp, #12
   20888:	b0a3      	sub	sp, #140	@ 0x8c
   2088a:	9003      	str	r0, [sp, #12]
   2088c:	ac04      	add	r4, sp, #16
   2088e:	2002      	movs	r0, #2
   20890:	9002      	str	r0, [sp, #8]
   20892:	7220      	strb	r0, [r4, #8]
   20894:	340c      	adds	r4, #12
   20896:	223b      	movs	r2, #59	@ 0x3b
   20898:	9201      	str	r2, [sp, #4]
   2089a:	4620      	mov	r0, r4
   2089c:	f006 fcfd 	bl	2729a <__aeabi_memcpy>
   208a0:	ae16      	add	r6, sp, #88	@ 0x58
   208a2:	4635      	mov	r5, r6
   208a4:	350c      	adds	r5, #12
   208a6:	2127      	movs	r1, #39	@ 0x27
   208a8:	4628      	mov	r0, r5
   208aa:	f006 fb49 	bl	26f40 <__aeabi_memclr4>
   208ae:	9802      	ldr	r0, [sp, #8]
   208b0:	7230      	strb	r0, [r6, #8]
   208b2:	481f      	ldr	r0, [pc, #124]	@ (20930 <_ZN20complex_full_dynamic3app17h1d5d08a8496a20e3E+0xac>)
   208b4:	2605      	movs	r6, #5
   208b6:	4631      	mov	r1, r6
   208b8:	4622      	mov	r2, r4
   208ba:	9b01      	ldr	r3, [sp, #4]
   208bc:	df04      	svc	4
   208be:	2802      	cmp	r0, #2
   208c0:	d019      	beq.n	208f6 <_ZN20complex_full_dynamic3app17h1d5d08a8496a20e3E+0x72>
   208c2:	a804      	add	r0, sp, #16
   208c4:	2104      	movs	r1, #4
   208c6:	7201      	strb	r1, [r0, #8]
   208c8:	9605      	str	r6, [sp, #20]
   208ca:	4e19      	ldr	r6, [pc, #100]	@ (20930 <_ZN20complex_full_dynamic3app17h1d5d08a8496a20e3E+0xac>)
   208cc:	9604      	str	r6, [sp, #16]
   208ce:	2403      	movs	r4, #3
   208d0:	2327      	movs	r3, #39	@ 0x27
   208d2:	4630      	mov	r0, r6
   208d4:	4621      	mov	r1, r4
   208d6:	462a      	mov	r2, r5
   208d8:	df03      	svc	3
   208da:	2802      	cmp	r0, #2
   208dc:	d00b      	beq.n	208f6 <_ZN20complex_full_dynamic3app17h1d5d08a8496a20e3E+0x72>
   208de:	a816      	add	r0, sp, #88	@ 0x58
   208e0:	7204      	strb	r4, [r0, #8]
   208e2:	9417      	str	r4, [sp, #92]	@ 0x5c
   208e4:	9616      	str	r6, [sp, #88]	@ 0x58
   208e6:	4812      	ldr	r0, [pc, #72]	@ (20930 <_ZN20complex_full_dynamic3app17h1d5d08a8496a20e3E+0xac>)
   208e8:	2105      	movs	r1, #5
   208ea:	2600      	movs	r6, #0
   208ec:	4622      	mov	r2, r4
   208ee:	4633      	mov	r3, r6
   208f0:	df02      	svc	2
   208f2:	287f      	cmp	r0, #127	@ 0x7f
   208f4:	d80b      	bhi.n	2090e <_ZN20complex_full_dynamic3app17h1d5d08a8496a20e3E+0x8a>
   208f6:	9c03      	ldr	r4, [sp, #12]
   208f8:	6061      	str	r1, [r4, #4]
   208fa:	2601      	movs	r6, #1
   208fc:	7026      	strb	r6, [r4, #0]
   208fe:	a816      	add	r0, sp, #88	@ 0x58
   20900:	f006 fb0a 	bl	26f18 <_ZN9allow_pin12full_dynamic17unshare_if_shared17h34fb2a9288def0c2E>
   20904:	a804      	add	r0, sp, #16
   20906:	f006 fb07 	bl	26f18 <_ZN9allow_pin12full_dynamic17unshare_if_shared17h34fb2a9288def0c2E>
   2090a:	b023      	add	sp, #140	@ 0x8c
   2090c:	bdf0      	pop	{r4, r5, r6, r7, pc}
   2090e:	a804      	add	r0, sp, #16
   20910:	f006 fb02 	bl	26f18 <_ZN9allow_pin12full_dynamic17unshare_if_shared17h34fb2a9288def0c2E>
   20914:	ac16      	add	r4, sp, #88	@ 0x58
   20916:	4620      	mov	r0, r4
   20918:	f006 fafe 	bl	26f18 <_ZN9allow_pin12full_dynamic17unshare_if_shared17h34fb2a9288def0c2E>
   2091c:	4620      	mov	r0, r4
   2091e:	f006 fafb 	bl	26f18 <_ZN9allow_pin12full_dynamic17unshare_if_shared17h34fb2a9288def0c2E>
   20922:	9c03      	ldr	r4, [sp, #12]
   20924:	1c60      	adds	r0, r4, #1
   20926:	2227      	movs	r2, #39	@ 0x27
   20928:	4629      	mov	r1, r5
   2092a:	f006 fcb6 	bl	2729a <__aeabi_memcpy>
   2092e:	e7e5      	b.n	208fc <_ZN20complex_full_dynamic3app17h1d5d08a8496a20e3E+0x78>
   20930:	00000bd3 	.word	0x00000bd3

00020934 <_ZN20complex_full_dynamic3app17h1f0f6603bedc3d37E>:
   20934:	b5f0      	push	{r4, r5, r6, r7, lr}
   20936:	af03      	add	r7, sp, #12
   20938:	b0a9      	sub	sp, #164	@ 0xa4
   2093a:	9003      	str	r0, [sp, #12]
   2093c:	ac04      	add	r4, sp, #16
   2093e:	2602      	movs	r6, #2
   20940:	7226      	strb	r6, [r4, #8]
   20942:	340c      	adds	r4, #12
   20944:	224a      	movs	r2, #74	@ 0x4a
   20946:	9202      	str	r2, [sp, #8]
   20948:	4620      	mov	r0, r4
   2094a:	f006 fca6 	bl	2729a <__aeabi_memcpy>
   2094e:	ad1a      	add	r5, sp, #104	@ 0x68
   20950:	4628      	mov	r0, r5
   20952:	300c      	adds	r0, #12
   20954:	212d      	movs	r1, #45	@ 0x2d
   20956:	9001      	str	r0, [sp, #4]
   20958:	f006 faf2 	bl	26f40 <__aeabi_memclr4>
   2095c:	722e      	strb	r6, [r5, #8]
   2095e:	4635      	mov	r5, r6
   20960:	4e1f      	ldr	r6, [pc, #124]	@ (209e0 <_ZN20complex_full_dynamic3app17h1f0f6603bedc3d37E+0xac>)
   20962:	4630      	mov	r0, r6
   20964:	4629      	mov	r1, r5
   20966:	4622      	mov	r2, r4
   20968:	9b02      	ldr	r3, [sp, #8]
   2096a:	df04      	svc	4
   2096c:	2802      	cmp	r0, #2
   2096e:	d019      	beq.n	209a4 <_ZN20complex_full_dynamic3app17h1f0f6603bedc3d37E+0x70>
   20970:	a804      	add	r0, sp, #16
   20972:	2104      	movs	r1, #4
   20974:	7201      	strb	r1, [r0, #8]
   20976:	9505      	str	r5, [sp, #20]
   20978:	9604      	str	r6, [sp, #16]
   2097a:	2403      	movs	r4, #3
   2097c:	232d      	movs	r3, #45	@ 0x2d
   2097e:	4630      	mov	r0, r6
   20980:	4621      	mov	r1, r4
   20982:	9d01      	ldr	r5, [sp, #4]
   20984:	462a      	mov	r2, r5
   20986:	df03      	svc	3
   20988:	2802      	cmp	r0, #2
   2098a:	d00b      	beq.n	209a4 <_ZN20complex_full_dynamic3app17h1f0f6603bedc3d37E+0x70>
   2098c:	a81a      	add	r0, sp, #104	@ 0x68
   2098e:	7204      	strb	r4, [r0, #8]
   20990:	941b      	str	r4, [sp, #108]	@ 0x6c
   20992:	961a      	str	r6, [sp, #104]	@ 0x68
   20994:	4812      	ldr	r0, [pc, #72]	@ (209e0 <_ZN20complex_full_dynamic3app17h1f0f6603bedc3d37E+0xac>)
   20996:	2102      	movs	r1, #2
   20998:	2600      	movs	r6, #0
   2099a:	4622      	mov	r2, r4
   2099c:	4633      	mov	r3, r6
   2099e:	df02      	svc	2
   209a0:	287f      	cmp	r0, #127	@ 0x7f
   209a2:	d80b      	bhi.n	209bc <_ZN20complex_full_dynamic3app17h1f0f6603bedc3d37E+0x88>
   209a4:	9c03      	ldr	r4, [sp, #12]
   209a6:	6061      	str	r1, [r4, #4]
   209a8:	2601      	movs	r6, #1
   209aa:	7026      	strb	r6, [r4, #0]
   209ac:	a81a      	add	r0, sp, #104	@ 0x68
   209ae:	f006 fab3 	bl	26f18 <_ZN9allow_pin12full_dynamic17unshare_if_shared17h34fb2a9288def0c2E>
   209b2:	a804      	add	r0, sp, #16
   209b4:	f006 fab0 	bl	26f18 <_ZN9allow_pin12full_dynamic17unshare_if_shared17h34fb2a9288def0c2E>
   209b8:	b029      	add	sp, #164	@ 0xa4
   209ba:	bdf0      	pop	{r4, r5, r6, r7, pc}
   209bc:	a804      	add	r0, sp, #16
   209be:	f006 faab 	bl	26f18 <_ZN9allow_pin12full_dynamic17unshare_if_shared17h34fb2a9288def0c2E>
   209c2:	ac1a      	add	r4, sp, #104	@ 0x68
   209c4:	4620      	mov	r0, r4
   209c6:	f006 faa7 	bl	26f18 <_ZN9allow_pin12full_dynamic17unshare_if_shared17h34fb2a9288def0c2E>
   209ca:	4620      	mov	r0, r4
   209cc:	f006 faa4 	bl	26f18 <_ZN9allow_pin12full_dynamic17unshare_if_shared17h34fb2a9288def0c2E>
   209d0:	9c03      	ldr	r4, [sp, #12]
   209d2:	1c60      	adds	r0, r4, #1
   209d4:	222d      	movs	r2, #45	@ 0x2d
   209d6:	4629      	mov	r1, r5
   209d8:	f006 fc5f 	bl	2729a <__aeabi_memcpy>
   209dc:	e7e5      	b.n	209aa <_ZN20complex_full_dynamic3app17h1f0f6603bedc3d37E+0x76>
   209de:	46c0      	nop			@ (mov r8, r8)
   209e0:	00000e3d 	.word	0x00000e3d

000209e4 <_ZN20complex_full_dynamic3app17h2438056c6254a65eE>:
   209e4:	b5f0      	push	{r4, r5, r6, r7, lr}
   209e6:	af03      	add	r7, sp, #12
   209e8:	b0ad      	sub	sp, #180	@ 0xb4
   209ea:	9002      	str	r0, [sp, #8]
   209ec:	ac03      	add	r4, sp, #12
   209ee:	2002      	movs	r0, #2
   209f0:	9001      	str	r0, [sp, #4]
   209f2:	7220      	strb	r0, [r4, #8]
   209f4:	340c      	adds	r4, #12
   209f6:	222f      	movs	r2, #47	@ 0x2f
   209f8:	9200      	str	r2, [sp, #0]
   209fa:	4620      	mov	r0, r4
   209fc:	f006 fc4d 	bl	2729a <__aeabi_memcpy>
   20a00:	ae12      	add	r6, sp, #72	@ 0x48
   20a02:	4635      	mov	r5, r6
   20a04:	350c      	adds	r5, #12
   20a06:	215e      	movs	r1, #94	@ 0x5e
   20a08:	4628      	mov	r0, r5
   20a0a:	f006 fa99 	bl	26f40 <__aeabi_memclr4>
   20a0e:	9801      	ldr	r0, [sp, #4]
   20a10:	7230      	strb	r0, [r6, #8]
   20a12:	4820      	ldr	r0, [pc, #128]	@ (20a94 <_ZN20complex_full_dynamic3app17h2438056c6254a65eE+0xb0>)
   20a14:	2605      	movs	r6, #5
   20a16:	4631      	mov	r1, r6
   20a18:	4622      	mov	r2, r4
   20a1a:	9b00      	ldr	r3, [sp, #0]
   20a1c:	df04      	svc	4
   20a1e:	2802      	cmp	r0, #2
   20a20:	d01a      	beq.n	20a58 <_ZN20complex_full_dynamic3app17h2438056c6254a65eE+0x74>
   20a22:	a803      	add	r0, sp, #12
   20a24:	2104      	movs	r1, #4
   20a26:	7201      	strb	r1, [r0, #8]
   20a28:	9604      	str	r6, [sp, #16]
   20a2a:	4e1a      	ldr	r6, [pc, #104]	@ (20a94 <_ZN20complex_full_dynamic3app17h2438056c6254a65eE+0xb0>)
   20a2c:	9603      	str	r6, [sp, #12]
   20a2e:	2402      	movs	r4, #2
   20a30:	235e      	movs	r3, #94	@ 0x5e
   20a32:	4630      	mov	r0, r6
   20a34:	4621      	mov	r1, r4
   20a36:	462a      	mov	r2, r5
   20a38:	df03      	svc	3
   20a3a:	2802      	cmp	r0, #2
   20a3c:	d00c      	beq.n	20a58 <_ZN20complex_full_dynamic3app17h2438056c6254a65eE+0x74>
   20a3e:	a812      	add	r0, sp, #72	@ 0x48
   20a40:	2103      	movs	r1, #3
   20a42:	7201      	strb	r1, [r0, #8]
   20a44:	9612      	str	r6, [sp, #72]	@ 0x48
   20a46:	9413      	str	r4, [sp, #76]	@ 0x4c
   20a48:	4812      	ldr	r0, [pc, #72]	@ (20a94 <_ZN20complex_full_dynamic3app17h2438056c6254a65eE+0xb0>)
   20a4a:	2105      	movs	r1, #5
   20a4c:	2600      	movs	r6, #0
   20a4e:	4622      	mov	r2, r4
   20a50:	4633      	mov	r3, r6
   20a52:	df02      	svc	2
   20a54:	287f      	cmp	r0, #127	@ 0x7f
   20a56:	d80b      	bhi.n	20a70 <_ZN20complex_full_dynamic3app17h2438056c6254a65eE+0x8c>
   20a58:	9c02      	ldr	r4, [sp, #8]
   20a5a:	6061      	str	r1, [r4, #4]
   20a5c:	2601      	movs	r6, #1
   20a5e:	7026      	strb	r6, [r4, #0]
   20a60:	a812      	add	r0, sp, #72	@ 0x48
   20a62:	f006 fa59 	bl	26f18 <_ZN9allow_pin12full_dynamic17unshare_if_shared17h34fb2a9288def0c2E>
   20a66:	a803      	add	r0, sp, #12
   20a68:	f006 fa56 	bl	26f18 <_ZN9allow_pin12full_dynamic17unshare_if_shared17h34fb2a9288def0c2E>
   20a6c:	b02d      	add	sp, #180	@ 0xb4
   20a6e:	bdf0      	pop	{r4, r5, r6, r7, pc}
   20a70:	a803      	add	r0, sp, #12
   20a72:	f006 fa51 	bl	26f18 <_ZN9allow_pin12full_dynamic17unshare_if_shared17h34fb2a9288def0c2E>
   20a76:	ac12      	add	r4, sp, #72	@ 0x48
   20a78:	4620      	mov	r0, r4
   20a7a:	f006 fa4d 	bl	26f18 <_ZN9allow_pin12full_dynamic17unshare_if_shared17h34fb2a9288def0c2E>
   20a7e:	4620      	mov	r0, r4
   20a80:	f006 fa4a 	bl	26f18 <_ZN9allow_pin12full_dynamic17unshare_if_shared17h34fb2a9288def0c2E>
   20a84:	9c02      	ldr	r4, [sp, #8]
   20a86:	1c60      	adds	r0, r4, #1
   20a88:	225e      	movs	r2, #94	@ 0x5e
   20a8a:	4629      	mov	r1, r5
   20a8c:	f006 fc05 	bl	2729a <__aeabi_memcpy>
   20a90:	e7e5      	b.n	20a5e <_ZN20complex_full_dynamic3app17h2438056c6254a65eE+0x7a>
   20a92:	46c0      	nop			@ (mov r8, r8)
   20a94:	0000022b 	.word	0x0000022b

00020a98 <_ZN20complex_full_dynamic3app17h26b0d3101ff09588E>:
   20a98:	b5f0      	push	{r4, r5, r6, r7, lr}
   20a9a:	af03      	add	r7, sp, #12
   20a9c:	b0b7      	sub	sp, #220	@ 0xdc
   20a9e:	9002      	str	r0, [sp, #8]
   20aa0:	ac03      	add	r4, sp, #12
   20aa2:	2002      	movs	r0, #2
   20aa4:	9001      	str	r0, [sp, #4]
   20aa6:	7220      	strb	r0, [r4, #8]
   20aa8:	340c      	adds	r4, #12
   20aaa:	225e      	movs	r2, #94	@ 0x5e
   20aac:	9200      	str	r2, [sp, #0]
   20aae:	4620      	mov	r0, r4
   20ab0:	f006 fbf3 	bl	2729a <__aeabi_memcpy>
   20ab4:	ae1e      	add	r6, sp, #120	@ 0x78
   20ab6:	4635      	mov	r5, r6
   20ab8:	350c      	adds	r5, #12
   20aba:	2155      	movs	r1, #85	@ 0x55
   20abc:	4628      	mov	r0, r5
   20abe:	f006 fa3f 	bl	26f40 <__aeabi_memclr4>
   20ac2:	9801      	ldr	r0, [sp, #4]
   20ac4:	7230      	strb	r0, [r6, #8]
   20ac6:	481f      	ldr	r0, [pc, #124]	@ (20b44 <_ZN20complex_full_dynamic3app17h26b0d3101ff09588E+0xac>)
   20ac8:	2607      	movs	r6, #7
   20aca:	4631      	mov	r1, r6
   20acc:	4622      	mov	r2, r4
   20ace:	9b00      	ldr	r3, [sp, #0]
   20ad0:	df04      	svc	4
   20ad2:	2802      	cmp	r0, #2
   20ad4:	d019      	beq.n	20b0a <_ZN20complex_full_dynamic3app17h26b0d3101ff09588E+0x72>
   20ad6:	a803      	add	r0, sp, #12
   20ad8:	2104      	movs	r1, #4
   20ada:	7201      	strb	r1, [r0, #8]
   20adc:	9604      	str	r6, [sp, #16]
   20ade:	4e19      	ldr	r6, [pc, #100]	@ (20b44 <_ZN20complex_full_dynamic3app17h26b0d3101ff09588E+0xac>)
   20ae0:	9603      	str	r6, [sp, #12]
   20ae2:	2403      	movs	r4, #3
   20ae4:	2355      	movs	r3, #85	@ 0x55
   20ae6:	4630      	mov	r0, r6
   20ae8:	4621      	mov	r1, r4
   20aea:	462a      	mov	r2, r5
   20aec:	df03      	svc	3
   20aee:	2802      	cmp	r0, #2
   20af0:	d00b      	beq.n	20b0a <_ZN20complex_full_dynamic3app17h26b0d3101ff09588E+0x72>
   20af2:	a81e      	add	r0, sp, #120	@ 0x78
   20af4:	7204      	strb	r4, [r0, #8]
   20af6:	941f      	str	r4, [sp, #124]	@ 0x7c
   20af8:	961e      	str	r6, [sp, #120]	@ 0x78
   20afa:	4812      	ldr	r0, [pc, #72]	@ (20b44 <_ZN20complex_full_dynamic3app17h26b0d3101ff09588E+0xac>)
   20afc:	2107      	movs	r1, #7
   20afe:	2600      	movs	r6, #0
   20b00:	4622      	mov	r2, r4
   20b02:	4633      	mov	r3, r6
   20b04:	df02      	svc	2
   20b06:	287f      	cmp	r0, #127	@ 0x7f
   20b08:	d80b      	bhi.n	20b22 <_ZN20complex_full_dynamic3app17h26b0d3101ff09588E+0x8a>
   20b0a:	9c02      	ldr	r4, [sp, #8]
   20b0c:	6061      	str	r1, [r4, #4]
   20b0e:	2601      	movs	r6, #1
   20b10:	7026      	strb	r6, [r4, #0]
   20b12:	a81e      	add	r0, sp, #120	@ 0x78
   20b14:	f006 fa00 	bl	26f18 <_ZN9allow_pin12full_dynamic17unshare_if_shared17h34fb2a9288def0c2E>
   20b18:	a803      	add	r0, sp, #12
   20b1a:	f006 f9fd 	bl	26f18 <_ZN9allow_pin12full_dynamic17unshare_if_shared17h34fb2a9288def0c2E>
   20b1e:	b037      	add	sp, #220	@ 0xdc
   20b20:	bdf0      	pop	{r4, r5, r6, r7, pc}
   20b22:	a803      	add	r0, sp, #12
   20b24:	f006 f9f8 	bl	26f18 <_ZN9allow_pin12full_dynamic17unshare_if_shared17h34fb2a9288def0c2E>
   20b28:	ac1e      	add	r4, sp, #120	@ 0x78
   20b2a:	4620      	mov	r0, r4
   20b2c:	f006 f9f4 	bl	26f18 <_ZN9allow_pin12full_dynamic17unshare_if_shared17h34fb2a9288def0c2E>
   20b30:	4620      	mov	r0, r4
   20b32:	f006 f9f1 	bl	26f18 <_ZN9allow_pin12full_dynamic17unshare_if_shared17h34fb2a9288def0c2E>
   20b36:	9c02      	ldr	r4, [sp, #8]
   20b38:	1c60      	adds	r0, r4, #1
   20b3a:	2255      	movs	r2, #85	@ 0x55
   20b3c:	4629      	mov	r1, r5
   20b3e:	f006 fbac 	bl	2729a <__aeabi_memcpy>
   20b42:	e7e5      	b.n	20b10 <_ZN20complex_full_dynamic3app17h26b0d3101ff09588E+0x78>
   20b44:	0000178a 	.word	0x0000178a

00020b48 <_ZN20complex_full_dynamic3app17h28e8f68e90b6aeffE>:
   20b48:	b5f0      	push	{r4, r5, r6, r7, lr}
   20b4a:	af03      	add	r7, sp, #12
   20b4c:	b0a5      	sub	sp, #148	@ 0x94
   20b4e:	9003      	str	r0, [sp, #12]
   20b50:	ac04      	add	r4, sp, #16
   20b52:	2502      	movs	r5, #2
   20b54:	7225      	strb	r5, [r4, #8]
   20b56:	340c      	adds	r4, #12
   20b58:	2255      	movs	r2, #85	@ 0x55
   20b5a:	9202      	str	r2, [sp, #8]
   20b5c:	4620      	mov	r0, r4
   20b5e:	f006 fb9c 	bl	2729a <__aeabi_memcpy>
   20b62:	ae1d      	add	r6, sp, #116	@ 0x74
   20b64:	2000      	movs	r0, #0
   20b66:	7730      	strb	r0, [r6, #28]
   20b68:	7235      	strb	r5, [r6, #8]
   20b6a:	9023      	str	r0, [sp, #140]	@ 0x8c
   20b6c:	9022      	str	r0, [sp, #136]	@ 0x88
   20b6e:	9021      	str	r0, [sp, #132]	@ 0x84
   20b70:	9020      	str	r0, [sp, #128]	@ 0x80
   20b72:	4820      	ldr	r0, [pc, #128]	@ (20bf4 <_ZN20complex_full_dynamic3app17h28e8f68e90b6aeffE+0xac>)
   20b74:	9501      	str	r5, [sp, #4]
   20b76:	4629      	mov	r1, r5
   20b78:	4622      	mov	r2, r4
   20b7a:	9b02      	ldr	r3, [sp, #8]
   20b7c:	df04      	svc	4
   20b7e:	2802      	cmp	r0, #2
   20b80:	d01b      	beq.n	20bba <_ZN20complex_full_dynamic3app17h28e8f68e90b6aeffE+0x72>
   20b82:	360c      	adds	r6, #12
   20b84:	a804      	add	r0, sp, #16
   20b86:	2104      	movs	r1, #4
   20b88:	7201      	strb	r1, [r0, #8]
   20b8a:	4c1a      	ldr	r4, [pc, #104]	@ (20bf4 <_ZN20complex_full_dynamic3app17h28e8f68e90b6aeffE+0xac>)
   20b8c:	9404      	str	r4, [sp, #16]
   20b8e:	9d01      	ldr	r5, [sp, #4]
   20b90:	9505      	str	r5, [sp, #20]
   20b92:	2311      	movs	r3, #17
   20b94:	4620      	mov	r0, r4
   20b96:	4629      	mov	r1, r5
   20b98:	4632      	mov	r2, r6
   20b9a:	df03      	svc	3
   20b9c:	2802      	cmp	r0, #2
   20b9e:	d00c      	beq.n	20bba <_ZN20complex_full_dynamic3app17h28e8f68e90b6aeffE+0x72>
   20ba0:	a81d      	add	r0, sp, #116	@ 0x74
   20ba2:	2103      	movs	r1, #3
   20ba4:	7201      	strb	r1, [r0, #8]
   20ba6:	941d      	str	r4, [sp, #116]	@ 0x74
   20ba8:	951e      	str	r5, [sp, #120]	@ 0x78
   20baa:	4812      	ldr	r0, [pc, #72]	@ (20bf4 <_ZN20complex_full_dynamic3app17h28e8f68e90b6aeffE+0xac>)
   20bac:	2400      	movs	r4, #0
   20bae:	4629      	mov	r1, r5
   20bb0:	462a      	mov	r2, r5
   20bb2:	4623      	mov	r3, r4
   20bb4:	df02      	svc	2
   20bb6:	287f      	cmp	r0, #127	@ 0x7f
   20bb8:	d80b      	bhi.n	20bd2 <_ZN20complex_full_dynamic3app17h28e8f68e90b6aeffE+0x8a>
   20bba:	9d03      	ldr	r5, [sp, #12]
   20bbc:	6069      	str	r1, [r5, #4]
   20bbe:	2401      	movs	r4, #1
   20bc0:	702c      	strb	r4, [r5, #0]
   20bc2:	a81d      	add	r0, sp, #116	@ 0x74
   20bc4:	f006 f9a8 	bl	26f18 <_ZN9allow_pin12full_dynamic17unshare_if_shared17h34fb2a9288def0c2E>
   20bc8:	a804      	add	r0, sp, #16
   20bca:	f006 f9a5 	bl	26f18 <_ZN9allow_pin12full_dynamic17unshare_if_shared17h34fb2a9288def0c2E>
   20bce:	b025      	add	sp, #148	@ 0x94
   20bd0:	bdf0      	pop	{r4, r5, r6, r7, pc}
   20bd2:	a804      	add	r0, sp, #16
   20bd4:	f006 f9a0 	bl	26f18 <_ZN9allow_pin12full_dynamic17unshare_if_shared17h34fb2a9288def0c2E>
   20bd8:	ad1d      	add	r5, sp, #116	@ 0x74
   20bda:	4628      	mov	r0, r5
   20bdc:	f006 f99c 	bl	26f18 <_ZN9allow_pin12full_dynamic17unshare_if_shared17h34fb2a9288def0c2E>
   20be0:	4628      	mov	r0, r5
   20be2:	f006 f999 	bl	26f18 <_ZN9allow_pin12full_dynamic17unshare_if_shared17h34fb2a9288def0c2E>
   20be6:	9d03      	ldr	r5, [sp, #12]
   20be8:	1c68      	adds	r0, r5, #1
   20bea:	2211      	movs	r2, #17
   20bec:	4631      	mov	r1, r6
   20bee:	f006 fb54 	bl	2729a <__aeabi_memcpy>
   20bf2:	e7e5      	b.n	20bc0 <_ZN20complex_full_dynamic3app17h28e8f68e90b6aeffE+0x78>
   20bf4:	00000c89 	.word	0x00000c89

00020bf8 <_ZN20complex_full_dynamic3app17h292a4b3e2a9d79eaE>:
   20bf8:	b5f0      	push	{r4, r5, r6, r7, lr}
   20bfa:	af03      	add	r7, sp, #12
   20bfc:	b0b3      	sub	sp, #204	@ 0xcc
   20bfe:	9003      	str	r0, [sp, #12]
   20c00:	ac04      	add	r4, sp, #16
   20c02:	2002      	movs	r0, #2
   20c04:	9002      	str	r0, [sp, #8]
   20c06:	7220      	strb	r0, [r4, #8]
   20c08:	340c      	adds	r4, #12
   20c0a:	2253      	movs	r2, #83	@ 0x53
   20c0c:	9201      	str	r2, [sp, #4]
   20c0e:	4620      	mov	r0, r4
   20c10:	f006 fb43 	bl	2729a <__aeabi_memcpy>
   20c14:	ae1c      	add	r6, sp, #112	@ 0x70
   20c16:	4635      	mov	r5, r6
   20c18:	350c      	adds	r5, #12
   20c1a:	214d      	movs	r1, #77	@ 0x4d
   20c1c:	4628      	mov	r0, r5
   20c1e:	f006 f98f 	bl	26f40 <__aeabi_memclr4>
   20c22:	9802      	ldr	r0, [sp, #8]
   20c24:	7230      	strb	r0, [r6, #8]
   20c26:	481f      	ldr	r0, [pc, #124]	@ (20ca4 <_ZN20complex_full_dynamic3app17h292a4b3e2a9d79eaE+0xac>)
   20c28:	2609      	movs	r6, #9
   20c2a:	4631      	mov	r1, r6
   20c2c:	4622      	mov	r2, r4
   20c2e:	9b01      	ldr	r3, [sp, #4]
   20c30:	df04      	svc	4
   20c32:	2802      	cmp	r0, #2
   20c34:	d019      	beq.n	20c6a <_ZN20complex_full_dynamic3app17h292a4b3e2a9d79eaE+0x72>
   20c36:	a804      	add	r0, sp, #16
   20c38:	2404      	movs	r4, #4
   20c3a:	7204      	strb	r4, [r0, #8]
   20c3c:	9605      	str	r6, [sp, #20]
   20c3e:	4e19      	ldr	r6, [pc, #100]	@ (20ca4 <_ZN20complex_full_dynamic3app17h292a4b3e2a9d79eaE+0xac>)
   20c40:	9604      	str	r6, [sp, #16]
   20c42:	234d      	movs	r3, #77	@ 0x4d
   20c44:	4630      	mov	r0, r6
   20c46:	4621      	mov	r1, r4
   20c48:	462a      	mov	r2, r5
   20c4a:	df03      	svc	3
   20c4c:	2802      	cmp	r0, #2
   20c4e:	d00c      	beq.n	20c6a <_ZN20complex_full_dynamic3app17h292a4b3e2a9d79eaE+0x72>
   20c50:	a81c      	add	r0, sp, #112	@ 0x70
   20c52:	2103      	movs	r1, #3
   20c54:	7201      	strb	r1, [r0, #8]
   20c56:	961c      	str	r6, [sp, #112]	@ 0x70
   20c58:	941d      	str	r4, [sp, #116]	@ 0x74
   20c5a:	4812      	ldr	r0, [pc, #72]	@ (20ca4 <_ZN20complex_full_dynamic3app17h292a4b3e2a9d79eaE+0xac>)
   20c5c:	2109      	movs	r1, #9
   20c5e:	2600      	movs	r6, #0
   20c60:	4622      	mov	r2, r4
   20c62:	4633      	mov	r3, r6
   20c64:	df02      	svc	2
   20c66:	287f      	cmp	r0, #127	@ 0x7f
   20c68:	d80b      	bhi.n	20c82 <_ZN20complex_full_dynamic3app17h292a4b3e2a9d79eaE+0x8a>
   20c6a:	9c03      	ldr	r4, [sp, #12]
   20c6c:	6061      	str	r1, [r4, #4]
   20c6e:	2601      	movs	r6, #1
   20c70:	7026      	strb	r6, [r4, #0]
   20c72:	a81c      	add	r0, sp, #112	@ 0x70
   20c74:	f006 f950 	bl	26f18 <_ZN9allow_pin12full_dynamic17unshare_if_shared17h34fb2a9288def0c2E>
   20c78:	a804      	add	r0, sp, #16
   20c7a:	f006 f94d 	bl	26f18 <_ZN9allow_pin12full_dynamic17unshare_if_shared17h34fb2a9288def0c2E>
   20c7e:	b033      	add	sp, #204	@ 0xcc
   20c80:	bdf0      	pop	{r4, r5, r6, r7, pc}
   20c82:	a804      	add	r0, sp, #16
   20c84:	f006 f948 	bl	26f18 <_ZN9allow_pin12full_dynamic17unshare_if_shared17h34fb2a9288def0c2E>
   20c88:	ac1c      	add	r4, sp, #112	@ 0x70
   20c8a:	4620      	mov	r0, r4
   20c8c:	f006 f944 	bl	26f18 <_ZN9allow_pin12full_dynamic17unshare_if_shared17h34fb2a9288def0c2E>
   20c90:	4620      	mov	r0, r4
   20c92:	f006 f941 	bl	26f18 <_ZN9allow_pin12full_dynamic17unshare_if_shared17h34fb2a9288def0c2E>
   20c96:	9c03      	ldr	r4, [sp, #12]
   20c98:	1c60      	adds	r0, r4, #1
   20c9a:	224d      	movs	r2, #77	@ 0x4d
   20c9c:	4629      	mov	r1, r5
   20c9e:	f006 fafc 	bl	2729a <__aeabi_memcpy>
   20ca2:	e7e5      	b.n	20c70 <_ZN20complex_full_dynamic3app17h292a4b3e2a9d79eaE+0x78>
   20ca4:	000016ba 	.word	0x000016ba

00020ca8 <_ZN20complex_full_dynamic3app17h2c15c0e753d7b2fcE>:
   20ca8:	b5f0      	push	{r4, r5, r6, r7, lr}
   20caa:	af03      	add	r7, sp, #12
   20cac:	b0a5      	sub	sp, #148	@ 0x94
   20cae:	9002      	str	r0, [sp, #8]
   20cb0:	ac03      	add	r4, sp, #12
   20cb2:	2002      	movs	r0, #2
   20cb4:	9001      	str	r0, [sp, #4]
   20cb6:	7220      	strb	r0, [r4, #8]
   20cb8:	340c      	adds	r4, #12
   20cba:	2249      	movs	r2, #73	@ 0x49
   20cbc:	9200      	str	r2, [sp, #0]
   20cbe:	4620      	mov	r0, r4
   20cc0:	f006 faeb 	bl	2729a <__aeabi_memcpy>
   20cc4:	ae19      	add	r6, sp, #100	@ 0x64
   20cc6:	4635      	mov	r5, r6
   20cc8:	350c      	adds	r5, #12
   20cca:	2123      	movs	r1, #35	@ 0x23
   20ccc:	4628      	mov	r0, r5
   20cce:	f006 f937 	bl	26f40 <__aeabi_memclr4>
   20cd2:	9801      	ldr	r0, [sp, #4]
   20cd4:	7230      	strb	r0, [r6, #8]
   20cd6:	4820      	ldr	r0, [pc, #128]	@ (20d58 <_ZN20complex_full_dynamic3app17h2c15c0e753d7b2fcE+0xb0>)
   20cd8:	2607      	movs	r6, #7
   20cda:	4631      	mov	r1, r6
   20cdc:	4622      	mov	r2, r4
   20cde:	9b00      	ldr	r3, [sp, #0]
   20ce0:	df04      	svc	4
   20ce2:	2802      	cmp	r0, #2
   20ce4:	d01a      	beq.n	20d1c <_ZN20complex_full_dynamic3app17h2c15c0e753d7b2fcE+0x74>
   20ce6:	a803      	add	r0, sp, #12
   20ce8:	2104      	movs	r1, #4
   20cea:	7201      	strb	r1, [r0, #8]
   20cec:	9604      	str	r6, [sp, #16]
   20cee:	4e1a      	ldr	r6, [pc, #104]	@ (20d58 <_ZN20complex_full_dynamic3app17h2c15c0e753d7b2fcE+0xb0>)
   20cf0:	9603      	str	r6, [sp, #12]
   20cf2:	2401      	movs	r4, #1
   20cf4:	2323      	movs	r3, #35	@ 0x23
   20cf6:	4630      	mov	r0, r6
   20cf8:	4621      	mov	r1, r4
   20cfa:	462a      	mov	r2, r5
   20cfc:	df03      	svc	3
   20cfe:	2802      	cmp	r0, #2
   20d00:	d00c      	beq.n	20d1c <_ZN20complex_full_dynamic3app17h2c15c0e753d7b2fcE+0x74>
   20d02:	a819      	add	r0, sp, #100	@ 0x64
   20d04:	2103      	movs	r1, #3
   20d06:	7201      	strb	r1, [r0, #8]
   20d08:	9619      	str	r6, [sp, #100]	@ 0x64
   20d0a:	941a      	str	r4, [sp, #104]	@ 0x68
   20d0c:	4812      	ldr	r0, [pc, #72]	@ (20d58 <_ZN20complex_full_dynamic3app17h2c15c0e753d7b2fcE+0xb0>)
   20d0e:	2107      	movs	r1, #7
   20d10:	2600      	movs	r6, #0
   20d12:	4622      	mov	r2, r4
   20d14:	4633      	mov	r3, r6
   20d16:	df02      	svc	2
   20d18:	287f      	cmp	r0, #127	@ 0x7f
   20d1a:	d80b      	bhi.n	20d34 <_ZN20complex_full_dynamic3app17h2c15c0e753d7b2fcE+0x8c>
   20d1c:	9c02      	ldr	r4, [sp, #8]
   20d1e:	6061      	str	r1, [r4, #4]
   20d20:	2601      	movs	r6, #1
   20d22:	7026      	strb	r6, [r4, #0]
   20d24:	a819      	add	r0, sp, #100	@ 0x64
   20d26:	f006 f8f7 	bl	26f18 <_ZN9allow_pin12full_dynamic17unshare_if_shared17h34fb2a9288def0c2E>
   20d2a:	a803      	add	r0, sp, #12
   20d2c:	f006 f8f4 	bl	26f18 <_ZN9allow_pin12full_dynamic17unshare_if_shared17h34fb2a9288def0c2E>
   20d30:	b025      	add	sp, #148	@ 0x94
   20d32:	bdf0      	pop	{r4, r5, r6, r7, pc}
   20d34:	a803      	add	r0, sp, #12
   20d36:	f006 f8ef 	bl	26f18 <_ZN9allow_pin12full_dynamic17unshare_if_shared17h34fb2a9288def0c2E>
   20d3a:	ac19      	add	r4, sp, #100	@ 0x64
   20d3c:	4620      	mov	r0, r4
   20d3e:	f006 f8eb 	bl	26f18 <_ZN9allow_pin12full_dynamic17unshare_if_shared17h34fb2a9288def0c2E>
   20d42:	4620      	mov	r0, r4
   20d44:	f006 f8e8 	bl	26f18 <_ZN9allow_pin12full_dynamic17unshare_if_shared17h34fb2a9288def0c2E>
   20d48:	9c02      	ldr	r4, [sp, #8]
   20d4a:	1c60      	adds	r0, r4, #1
   20d4c:	2223      	movs	r2, #35	@ 0x23
   20d4e:	4629      	mov	r1, r5
   20d50:	f006 faa3 	bl	2729a <__aeabi_memcpy>
   20d54:	e7e5      	b.n	20d22 <_ZN20complex_full_dynamic3app17h2c15c0e753d7b2fcE+0x7a>
   20d56:	46c0      	nop			@ (mov r8, r8)
   20d58:	00001551 	.word	0x00001551

00020d5c <_ZN20complex_full_dynamic3app17h2deccd60857b2b17E>:
   20d5c:	b5f0      	push	{r4, r5, r6, r7, lr}
   20d5e:	af03      	add	r7, sp, #12
   20d60:	b0a3      	sub	sp, #140	@ 0x8c
   20d62:	9002      	str	r0, [sp, #8]
   20d64:	ae03      	add	r6, sp, #12
   20d66:	2002      	movs	r0, #2
   20d68:	9001      	str	r0, [sp, #4]
   20d6a:	7230      	strb	r0, [r6, #8]
   20d6c:	360c      	adds	r6, #12
   20d6e:	2532      	movs	r5, #50	@ 0x32
   20d70:	4630      	mov	r0, r6
   20d72:	462a      	mov	r2, r5
   20d74:	f006 fa91 	bl	2729a <__aeabi_memcpy>
   20d78:	ac13      	add	r4, sp, #76	@ 0x4c
   20d7a:	4620      	mov	r0, r4
   20d7c:	300c      	adds	r0, #12
   20d7e:	9000      	str	r0, [sp, #0]
   20d80:	4629      	mov	r1, r5
   20d82:	f006 f8dd 	bl	26f40 <__aeabi_memclr4>
   20d86:	9801      	ldr	r0, [sp, #4]
   20d88:	7220      	strb	r0, [r4, #8]
   20d8a:	4820      	ldr	r0, [pc, #128]	@ (20e0c <_ZN20complex_full_dynamic3app17h2deccd60857b2b17E+0xb0>)
   20d8c:	2403      	movs	r4, #3
   20d8e:	4621      	mov	r1, r4
   20d90:	4632      	mov	r2, r6
   20d92:	462b      	mov	r3, r5
   20d94:	df04      	svc	4
   20d96:	2802      	cmp	r0, #2
   20d98:	d01a      	beq.n	20dd0 <_ZN20complex_full_dynamic3app17h2deccd60857b2b17E+0x74>
   20d9a:	a803      	add	r0, sp, #12
   20d9c:	2104      	movs	r1, #4
   20d9e:	7201      	strb	r1, [r0, #8]
   20da0:	9404      	str	r4, [sp, #16]
   20da2:	4e1a      	ldr	r6, [pc, #104]	@ (20e0c <_ZN20complex_full_dynamic3app17h2deccd60857b2b17E+0xb0>)
   20da4:	9603      	str	r6, [sp, #12]
   20da6:	2101      	movs	r1, #1
   20da8:	2332      	movs	r3, #50	@ 0x32
   20daa:	4630      	mov	r0, r6
   20dac:	9101      	str	r1, [sp, #4]
   20dae:	9d00      	ldr	r5, [sp, #0]
   20db0:	462a      	mov	r2, r5
   20db2:	df03      	svc	3
   20db4:	2802      	cmp	r0, #2
   20db6:	d00b      	beq.n	20dd0 <_ZN20complex_full_dynamic3app17h2deccd60857b2b17E+0x74>
   20db8:	a813      	add	r0, sp, #76	@ 0x4c
   20dba:	7204      	strb	r4, [r0, #8]
   20dbc:	9613      	str	r6, [sp, #76]	@ 0x4c
   20dbe:	9a01      	ldr	r2, [sp, #4]
   20dc0:	9214      	str	r2, [sp, #80]	@ 0x50
   20dc2:	4812      	ldr	r0, [pc, #72]	@ (20e0c <_ZN20complex_full_dynamic3app17h2deccd60857b2b17E+0xb0>)
   20dc4:	2600      	movs	r6, #0
   20dc6:	4621      	mov	r1, r4
   20dc8:	4633      	mov	r3, r6
   20dca:	df02      	svc	2
   20dcc:	287f      	cmp	r0, #127	@ 0x7f
   20dce:	d80b      	bhi.n	20de8 <_ZN20complex_full_dynamic3app17h2deccd60857b2b17E+0x8c>
   20dd0:	9c02      	ldr	r4, [sp, #8]
   20dd2:	6061      	str	r1, [r4, #4]
   20dd4:	2601      	movs	r6, #1
   20dd6:	7026      	strb	r6, [r4, #0]
   20dd8:	a813      	add	r0, sp, #76	@ 0x4c
   20dda:	f006 f89d 	bl	26f18 <_ZN9allow_pin12full_dynamic17unshare_if_shared17h34fb2a9288def0c2E>
   20dde:	a803      	add	r0, sp, #12
   20de0:	f006 f89a 	bl	26f18 <_ZN9allow_pin12full_dynamic17unshare_if_shared17h34fb2a9288def0c2E>
   20de4:	b023      	add	sp, #140	@ 0x8c
   20de6:	bdf0      	pop	{r4, r5, r6, r7, pc}
   20de8:	a803      	add	r0, sp, #12
   20dea:	f006 f895 	bl	26f18 <_ZN9allow_pin12full_dynamic17unshare_if_shared17h34fb2a9288def0c2E>
   20dee:	ac13      	add	r4, sp, #76	@ 0x4c
   20df0:	4620      	mov	r0, r4
   20df2:	f006 f891 	bl	26f18 <_ZN9allow_pin12full_dynamic17unshare_if_shared17h34fb2a9288def0c2E>
   20df6:	4620      	mov	r0, r4
   20df8:	f006 f88e 	bl	26f18 <_ZN9allow_pin12full_dynamic17unshare_if_shared17h34fb2a9288def0c2E>
   20dfc:	9c02      	ldr	r4, [sp, #8]
   20dfe:	1c60      	adds	r0, r4, #1
   20e00:	2232      	movs	r2, #50	@ 0x32
   20e02:	4629      	mov	r1, r5
   20e04:	f006 fa49 	bl	2729a <__aeabi_memcpy>
   20e08:	e7e5      	b.n	20dd6 <_ZN20complex_full_dynamic3app17h2deccd60857b2b17E+0x7a>
   20e0a:	46c0      	nop			@ (mov r8, r8)
   20e0c:	00001f07 	.word	0x00001f07

00020e10 <_ZN20complex_full_dynamic3app17h2e206dd72a1d9f20E>:
   20e10:	b5f0      	push	{r4, r5, r6, r7, lr}
   20e12:	af03      	add	r7, sp, #12
   20e14:	b0a9      	sub	sp, #164	@ 0xa4
   20e16:	9003      	str	r0, [sp, #12]
   20e18:	ac04      	add	r4, sp, #16
   20e1a:	2002      	movs	r0, #2
   20e1c:	9002      	str	r0, [sp, #8]
   20e1e:	7220      	strb	r0, [r4, #8]
   20e20:	340c      	adds	r4, #12
   20e22:	221c      	movs	r2, #28
   20e24:	9201      	str	r2, [sp, #4]
   20e26:	4620      	mov	r0, r4
   20e28:	f006 fa37 	bl	2729a <__aeabi_memcpy>
   20e2c:	ae0e      	add	r6, sp, #56	@ 0x38
   20e2e:	4635      	mov	r5, r6
   20e30:	350c      	adds	r5, #12
   20e32:	215d      	movs	r1, #93	@ 0x5d
   20e34:	4628      	mov	r0, r5
   20e36:	f006 f883 	bl	26f40 <__aeabi_memclr4>
   20e3a:	9802      	ldr	r0, [sp, #8]
   20e3c:	7230      	strb	r0, [r6, #8]
   20e3e:	4820      	ldr	r0, [pc, #128]	@ (20ec0 <_ZN20complex_full_dynamic3app17h2e206dd72a1d9f20E+0xb0>)
   20e40:	2608      	movs	r6, #8
   20e42:	4631      	mov	r1, r6
   20e44:	4622      	mov	r2, r4
   20e46:	9b01      	ldr	r3, [sp, #4]
   20e48:	df04      	svc	4
   20e4a:	2802      	cmp	r0, #2
   20e4c:	d01a      	beq.n	20e84 <_ZN20complex_full_dynamic3app17h2e206dd72a1d9f20E+0x74>
   20e4e:	a804      	add	r0, sp, #16
   20e50:	2104      	movs	r1, #4
   20e52:	7201      	strb	r1, [r0, #8]
   20e54:	9605      	str	r6, [sp, #20]
   20e56:	4e1a      	ldr	r6, [pc, #104]	@ (20ec0 <_ZN20complex_full_dynamic3app17h2e206dd72a1d9f20E+0xb0>)
   20e58:	9604      	str	r6, [sp, #16]
   20e5a:	2405      	movs	r4, #5
   20e5c:	235d      	movs	r3, #93	@ 0x5d
   20e5e:	4630      	mov	r0, r6
   20e60:	4621      	mov	r1, r4
   20e62:	462a      	mov	r2, r5
   20e64:	df03      	svc	3
   20e66:	2802      	cmp	r0, #2
   20e68:	d00c      	beq.n	20e84 <_ZN20complex_full_dynamic3app17h2e206dd72a1d9f20E+0x74>
   20e6a:	a80e      	add	r0, sp, #56	@ 0x38
   20e6c:	2103      	movs	r1, #3
   20e6e:	7201      	strb	r1, [r0, #8]
   20e70:	960e      	str	r6, [sp, #56]	@ 0x38
   20e72:	940f      	str	r4, [sp, #60]	@ 0x3c
   20e74:	4812      	ldr	r0, [pc, #72]	@ (20ec0 <_ZN20complex_full_dynamic3app17h2e206dd72a1d9f20E+0xb0>)
   20e76:	2108      	movs	r1, #8
   20e78:	2600      	movs	r6, #0
   20e7a:	4622      	mov	r2, r4
   20e7c:	4633      	mov	r3, r6
   20e7e:	df02      	svc	2
   20e80:	287f      	cmp	r0, #127	@ 0x7f
   20e82:	d80b      	bhi.n	20e9c <_ZN20complex_full_dynamic3app17h2e206dd72a1d9f20E+0x8c>
   20e84:	9c03      	ldr	r4, [sp, #12]
   20e86:	6061      	str	r1, [r4, #4]
   20e88:	2601      	movs	r6, #1
   20e8a:	7026      	strb	r6, [r4, #0]
   20e8c:	a80e      	add	r0, sp, #56	@ 0x38
   20e8e:	f006 f843 	bl	26f18 <_ZN9allow_pin12full_dynamic17unshare_if_shared17h34fb2a9288def0c2E>
   20e92:	a804      	add	r0, sp, #16
   20e94:	f006 f840 	bl	26f18 <_ZN9allow_pin12full_dynamic17unshare_if_shared17h34fb2a9288def0c2E>
   20e98:	b029      	add	sp, #164	@ 0xa4
   20e9a:	bdf0      	pop	{r4, r5, r6, r7, pc}
   20e9c:	a804      	add	r0, sp, #16
   20e9e:	f006 f83b 	bl	26f18 <_ZN9allow_pin12full_dynamic17unshare_if_shared17h34fb2a9288def0c2E>
   20ea2:	ac0e      	add	r4, sp, #56	@ 0x38
   20ea4:	4620      	mov	r0, r4
   20ea6:	f006 f837 	bl	26f18 <_ZN9allow_pin12full_dynamic17unshare_if_shared17h34fb2a9288def0c2E>
   20eaa:	4620      	mov	r0, r4
   20eac:	f006 f834 	bl	26f18 <_ZN9allow_pin12full_dynamic17unshare_if_shared17h34fb2a9288def0c2E>
   20eb0:	9c03      	ldr	r4, [sp, #12]
   20eb2:	1c60      	adds	r0, r4, #1
   20eb4:	225d      	movs	r2, #93	@ 0x5d
   20eb6:	4629      	mov	r1, r5
   20eb8:	f006 f9ef 	bl	2729a <__aeabi_memcpy>
   20ebc:	e7e5      	b.n	20e8a <_ZN20complex_full_dynamic3app17h2e206dd72a1d9f20E+0x7a>
   20ebe:	46c0      	nop			@ (mov r8, r8)
   20ec0:	00000c3e 	.word	0x00000c3e

00020ec4 <_ZN20complex_full_dynamic3app17h30134a15d0ef910eE>:
   20ec4:	b5f0      	push	{r4, r5, r6, r7, lr}
   20ec6:	af03      	add	r7, sp, #12
   20ec8:	b09f      	sub	sp, #124	@ 0x7c
   20eca:	9003      	str	r0, [sp, #12]
   20ecc:	ac04      	add	r4, sp, #16
   20ece:	2002      	movs	r0, #2
   20ed0:	9002      	str	r0, [sp, #8]
   20ed2:	7220      	strb	r0, [r4, #8]
   20ed4:	340c      	adds	r4, #12
   20ed6:	222a      	movs	r2, #42	@ 0x2a
   20ed8:	9201      	str	r2, [sp, #4]
   20eda:	4620      	mov	r0, r4
   20edc:	f006 f9dd 	bl	2729a <__aeabi_memcpy>
   20ee0:	ae12      	add	r6, sp, #72	@ 0x48
   20ee2:	4635      	mov	r5, r6
   20ee4:	350c      	adds	r5, #12
   20ee6:	2128      	movs	r1, #40	@ 0x28
   20ee8:	4628      	mov	r0, r5
   20eea:	f006 f829 	bl	26f40 <__aeabi_memclr4>
   20eee:	9802      	ldr	r0, [sp, #8]
   20ef0:	7230      	strb	r0, [r6, #8]
   20ef2:	481f      	ldr	r0, [pc, #124]	@ (20f70 <_ZN20complex_full_dynamic3app17h30134a15d0ef910eE+0xac>)
   20ef4:	2604      	movs	r6, #4
   20ef6:	4631      	mov	r1, r6
   20ef8:	4622      	mov	r2, r4
   20efa:	9b01      	ldr	r3, [sp, #4]
   20efc:	df04      	svc	4
   20efe:	2802      	cmp	r0, #2
   20f00:	d019      	beq.n	20f36 <_ZN20complex_full_dynamic3app17h30134a15d0ef910eE+0x72>
   20f02:	a804      	add	r0, sp, #16
   20f04:	7206      	strb	r6, [r0, #8]
   20f06:	9605      	str	r6, [sp, #20]
   20f08:	4e19      	ldr	r6, [pc, #100]	@ (20f70 <_ZN20complex_full_dynamic3app17h30134a15d0ef910eE+0xac>)
   20f0a:	9604      	str	r6, [sp, #16]
   20f0c:	2408      	movs	r4, #8
   20f0e:	2328      	movs	r3, #40	@ 0x28
   20f10:	4630      	mov	r0, r6
   20f12:	4621      	mov	r1, r4
   20f14:	462a      	mov	r2, r5
   20f16:	df03      	svc	3
   20f18:	2802      	cmp	r0, #2
   20f1a:	d00c      	beq.n	20f36 <_ZN20complex_full_dynamic3app17h30134a15d0ef910eE+0x72>
   20f1c:	a812      	add	r0, sp, #72	@ 0x48
   20f1e:	2103      	movs	r1, #3
   20f20:	7201      	strb	r1, [r0, #8]
   20f22:	9612      	str	r6, [sp, #72]	@ 0x48
   20f24:	9413      	str	r4, [sp, #76]	@ 0x4c
   20f26:	4812      	ldr	r0, [pc, #72]	@ (20f70 <_ZN20complex_full_dynamic3app17h30134a15d0ef910eE+0xac>)
   20f28:	2104      	movs	r1, #4
   20f2a:	2600      	movs	r6, #0
   20f2c:	4622      	mov	r2, r4
   20f2e:	4633      	mov	r3, r6
   20f30:	df02      	svc	2
   20f32:	287f      	cmp	r0, #127	@ 0x7f
   20f34:	d80b      	bhi.n	20f4e <_ZN20complex_full_dynamic3app17h30134a15d0ef910eE+0x8a>
   20f36:	9c03      	ldr	r4, [sp, #12]
   20f38:	6061      	str	r1, [r4, #4]
   20f3a:	2601      	movs	r6, #1
   20f3c:	7026      	strb	r6, [r4, #0]
   20f3e:	a812      	add	r0, sp, #72	@ 0x48
   20f40:	f005 ffea 	bl	26f18 <_ZN9allow_pin12full_dynamic17unshare_if_shared17h34fb2a9288def0c2E>
   20f44:	a804      	add	r0, sp, #16
   20f46:	f005 ffe7 	bl	26f18 <_ZN9allow_pin12full_dynamic17unshare_if_shared17h34fb2a9288def0c2E>
   20f4a:	b01f      	add	sp, #124	@ 0x7c
   20f4c:	bdf0      	pop	{r4, r5, r6, r7, pc}
   20f4e:	a804      	add	r0, sp, #16
   20f50:	f005 ffe2 	bl	26f18 <_ZN9allow_pin12full_dynamic17unshare_if_shared17h34fb2a9288def0c2E>
   20f54:	ac12      	add	r4, sp, #72	@ 0x48
   20f56:	4620      	mov	r0, r4
   20f58:	f005 ffde 	bl	26f18 <_ZN9allow_pin12full_dynamic17unshare_if_shared17h34fb2a9288def0c2E>
   20f5c:	4620      	mov	r0, r4
   20f5e:	f005 ffdb 	bl	26f18 <_ZN9allow_pin12full_dynamic17unshare_if_shared17h34fb2a9288def0c2E>
   20f62:	9c03      	ldr	r4, [sp, #12]
   20f64:	1c60      	adds	r0, r4, #1
   20f66:	2228      	movs	r2, #40	@ 0x28
   20f68:	4629      	mov	r1, r5
   20f6a:	f006 f996 	bl	2729a <__aeabi_memcpy>
   20f6e:	e7e5      	b.n	20f3c <_ZN20complex_full_dynamic3app17h30134a15d0ef910eE+0x78>
   20f70:	00001efa 	.word	0x00001efa

00020f74 <_ZN20complex_full_dynamic3app17h30f5a12baa836dc4E>:
   20f74:	b5f0      	push	{r4, r5, r6, r7, lr}
   20f76:	af03      	add	r7, sp, #12
   20f78:	b0ad      	sub	sp, #180	@ 0xb4
   20f7a:	9003      	str	r0, [sp, #12]
   20f7c:	ae04      	add	r6, sp, #16
   20f7e:	2002      	movs	r0, #2
   20f80:	9002      	str	r0, [sp, #8]
   20f82:	7230      	strb	r0, [r6, #8]
   20f84:	360c      	adds	r6, #12
   20f86:	2255      	movs	r2, #85	@ 0x55
   20f88:	9201      	str	r2, [sp, #4]
   20f8a:	4630      	mov	r0, r6
   20f8c:	f006 f985 	bl	2729a <__aeabi_memcpy>
   20f90:	ad1d      	add	r5, sp, #116	@ 0x74
   20f92:	462c      	mov	r4, r5
   20f94:	340c      	adds	r4, #12
   20f96:	2132      	movs	r1, #50	@ 0x32
   20f98:	4620      	mov	r0, r4
   20f9a:	f005 ffd1 	bl	26f40 <__aeabi_memclr4>
   20f9e:	9802      	ldr	r0, [sp, #8]
   20fa0:	7228      	strb	r0, [r5, #8]
   20fa2:	4820      	ldr	r0, [pc, #128]	@ (21024 <_ZN20complex_full_dynamic3app17h30f5a12baa836dc4E+0xb0>)
   20fa4:	2508      	movs	r5, #8
   20fa6:	4629      	mov	r1, r5
   20fa8:	4632      	mov	r2, r6
   20faa:	9b01      	ldr	r3, [sp, #4]
   20fac:	df04      	svc	4
   20fae:	2802      	cmp	r0, #2
   20fb0:	d019      	beq.n	20fe6 <_ZN20complex_full_dynamic3app17h30f5a12baa836dc4E+0x72>
   20fb2:	a804      	add	r0, sp, #16
   20fb4:	2104      	movs	r1, #4
   20fb6:	7201      	strb	r1, [r0, #8]
   20fb8:	4e1a      	ldr	r6, [pc, #104]	@ (21024 <_ZN20complex_full_dynamic3app17h30f5a12baa836dc4E+0xb0>)
   20fba:	9604      	str	r6, [sp, #16]
   20fbc:	9505      	str	r5, [sp, #20]
   20fbe:	2332      	movs	r3, #50	@ 0x32
   20fc0:	4630      	mov	r0, r6
   20fc2:	4629      	mov	r1, r5
   20fc4:	4622      	mov	r2, r4
   20fc6:	df03      	svc	3
   20fc8:	2802      	cmp	r0, #2
   20fca:	d00c      	beq.n	20fe6 <_ZN20complex_full_dynamic3app17h30f5a12baa836dc4E+0x72>
   20fcc:	a81d      	add	r0, sp, #116	@ 0x74
   20fce:	2103      	movs	r1, #3
   20fd0:	7201      	strb	r1, [r0, #8]
   20fd2:	961d      	str	r6, [sp, #116]	@ 0x74
   20fd4:	951e      	str	r5, [sp, #120]	@ 0x78
   20fd6:	4813      	ldr	r0, [pc, #76]	@ (21024 <_ZN20complex_full_dynamic3app17h30f5a12baa836dc4E+0xb0>)
   20fd8:	2600      	movs	r6, #0
   20fda:	4629      	mov	r1, r5
   20fdc:	462a      	mov	r2, r5
   20fde:	4633      	mov	r3, r6
   20fe0:	df02      	svc	2
   20fe2:	287f      	cmp	r0, #127	@ 0x7f
   20fe4:	d80b      	bhi.n	20ffe <_ZN20complex_full_dynamic3app17h30f5a12baa836dc4E+0x8a>
   20fe6:	9c03      	ldr	r4, [sp, #12]
   20fe8:	6061      	str	r1, [r4, #4]
   20fea:	2601      	movs	r6, #1
   20fec:	7026      	strb	r6, [r4, #0]
   20fee:	a81d      	add	r0, sp, #116	@ 0x74
   20ff0:	f005 ff92 	bl	26f18 <_ZN9allow_pin12full_dynamic17unshare_if_shared17h34fb2a9288def0c2E>
   20ff4:	a804      	add	r0, sp, #16
   20ff6:	f005 ff8f 	bl	26f18 <_ZN9allow_pin12full_dynamic17unshare_if_shared17h34fb2a9288def0c2E>
   20ffa:	b02d      	add	sp, #180	@ 0xb4
   20ffc:	bdf0      	pop	{r4, r5, r6, r7, pc}
   20ffe:	a804      	add	r0, sp, #16
   21000:	f005 ff8a 	bl	26f18 <_ZN9allow_pin12full_dynamic17unshare_if_shared17h34fb2a9288def0c2E>
   21004:	4625      	mov	r5, r4
   21006:	ac1d      	add	r4, sp, #116	@ 0x74
   21008:	4620      	mov	r0, r4
   2100a:	f005 ff85 	bl	26f18 <_ZN9allow_pin12full_dynamic17unshare_if_shared17h34fb2a9288def0c2E>
   2100e:	4620      	mov	r0, r4
   21010:	f005 ff82 	bl	26f18 <_ZN9allow_pin12full_dynamic17unshare_if_shared17h34fb2a9288def0c2E>
   21014:	9c03      	ldr	r4, [sp, #12]
   21016:	1c60      	adds	r0, r4, #1
   21018:	2232      	movs	r2, #50	@ 0x32
   2101a:	4629      	mov	r1, r5
   2101c:	f006 f93d 	bl	2729a <__aeabi_memcpy>
   21020:	e7e4      	b.n	20fec <_ZN20complex_full_dynamic3app17h30f5a12baa836dc4E+0x78>
   21022:	46c0      	nop			@ (mov r8, r8)
   21024:	00002095 	.word	0x00002095

00021028 <_ZN20complex_full_dynamic3app17h3435eb8f031b724cE>:
   21028:	b5f0      	push	{r4, r5, r6, r7, lr}
   2102a:	af03      	add	r7, sp, #12
   2102c:	b0ad      	sub	sp, #180	@ 0xb4
   2102e:	9003      	str	r0, [sp, #12]
   21030:	ae04      	add	r6, sp, #16
   21032:	2002      	movs	r0, #2
   21034:	9002      	str	r0, [sp, #8]
   21036:	7230      	strb	r0, [r6, #8]
   21038:	360c      	adds	r6, #12
   2103a:	2263      	movs	r2, #99	@ 0x63
   2103c:	9201      	str	r2, [sp, #4]
   2103e:	4630      	mov	r0, r6
   21040:	f006 f92b 	bl	2729a <__aeabi_memcpy>
   21044:	ac20      	add	r4, sp, #128	@ 0x80
   21046:	4625      	mov	r5, r4
   21048:	350c      	adds	r5, #12
   2104a:	2127      	movs	r1, #39	@ 0x27
   2104c:	4628      	mov	r0, r5
   2104e:	f005 ff77 	bl	26f40 <__aeabi_memclr4>
   21052:	9802      	ldr	r0, [sp, #8]
   21054:	7220      	strb	r0, [r4, #8]
   21056:	481f      	ldr	r0, [pc, #124]	@ (210d4 <_ZN20complex_full_dynamic3app17h3435eb8f031b724cE+0xac>)
   21058:	2407      	movs	r4, #7
   2105a:	4621      	mov	r1, r4
   2105c:	4632      	mov	r2, r6
   2105e:	9b01      	ldr	r3, [sp, #4]
   21060:	df04      	svc	4
   21062:	2802      	cmp	r0, #2
   21064:	d019      	beq.n	2109a <_ZN20complex_full_dynamic3app17h3435eb8f031b724cE+0x72>
   21066:	a804      	add	r0, sp, #16
   21068:	2104      	movs	r1, #4
   2106a:	7201      	strb	r1, [r0, #8]
   2106c:	9405      	str	r4, [sp, #20]
   2106e:	4c19      	ldr	r4, [pc, #100]	@ (210d4 <_ZN20complex_full_dynamic3app17h3435eb8f031b724cE+0xac>)
   21070:	9404      	str	r4, [sp, #16]
   21072:	2600      	movs	r6, #0
   21074:	2327      	movs	r3, #39	@ 0x27
   21076:	4620      	mov	r0, r4
   21078:	4631      	mov	r1, r6
   2107a:	462a      	mov	r2, r5
   2107c:	df03      	svc	3
   2107e:	2802      	cmp	r0, #2
   21080:	d00b      	beq.n	2109a <_ZN20complex_full_dynamic3app17h3435eb8f031b724cE+0x72>
   21082:	a820      	add	r0, sp, #128	@ 0x80
   21084:	2103      	movs	r1, #3
   21086:	7201      	strb	r1, [r0, #8]
   21088:	9420      	str	r4, [sp, #128]	@ 0x80
   2108a:	9621      	str	r6, [sp, #132]	@ 0x84
   2108c:	4811      	ldr	r0, [pc, #68]	@ (210d4 <_ZN20complex_full_dynamic3app17h3435eb8f031b724cE+0xac>)
   2108e:	2107      	movs	r1, #7
   21090:	4632      	mov	r2, r6
   21092:	4633      	mov	r3, r6
   21094:	df02      	svc	2
   21096:	287f      	cmp	r0, #127	@ 0x7f
   21098:	d80b      	bhi.n	210b2 <_ZN20complex_full_dynamic3app17h3435eb8f031b724cE+0x8a>
   2109a:	9c03      	ldr	r4, [sp, #12]
   2109c:	6061      	str	r1, [r4, #4]
   2109e:	2601      	movs	r6, #1
   210a0:	7026      	strb	r6, [r4, #0]
   210a2:	a820      	add	r0, sp, #128	@ 0x80
   210a4:	f005 ff38 	bl	26f18 <_ZN9allow_pin12full_dynamic17unshare_if_shared17h34fb2a9288def0c2E>
   210a8:	a804      	add	r0, sp, #16
   210aa:	f005 ff35 	bl	26f18 <_ZN9allow_pin12full_dynamic17unshare_if_shared17h34fb2a9288def0c2E>
   210ae:	b02d      	add	sp, #180	@ 0xb4
   210b0:	bdf0      	pop	{r4, r5, r6, r7, pc}
   210b2:	a804      	add	r0, sp, #16
   210b4:	f005 ff30 	bl	26f18 <_ZN9allow_pin12full_dynamic17unshare_if_shared17h34fb2a9288def0c2E>
   210b8:	ac20      	add	r4, sp, #128	@ 0x80
   210ba:	4620      	mov	r0, r4
   210bc:	f005 ff2c 	bl	26f18 <_ZN9allow_pin12full_dynamic17unshare_if_shared17h34fb2a9288def0c2E>
   210c0:	4620      	mov	r0, r4
   210c2:	f005 ff29 	bl	26f18 <_ZN9allow_pin12full_dynamic17unshare_if_shared17h34fb2a9288def0c2E>
   210c6:	9c03      	ldr	r4, [sp, #12]
   210c8:	1c60      	adds	r0, r4, #1
   210ca:	2227      	movs	r2, #39	@ 0x27
   210cc:	4629      	mov	r1, r5
   210ce:	f006 f8e4 	bl	2729a <__aeabi_memcpy>
   210d2:	e7e5      	b.n	210a0 <_ZN20complex_full_dynamic3app17h3435eb8f031b724cE+0x78>
   210d4:	00001e54 	.word	0x00001e54

000210d8 <_ZN20complex_full_dynamic3app17h3c0dc4887aa96b09E>:
   210d8:	b5f0      	push	{r4, r5, r6, r7, lr}
   210da:	af03      	add	r7, sp, #12
   210dc:	b091      	sub	sp, #68	@ 0x44
   210de:	9001      	str	r0, [sp, #4]
   210e0:	ae02      	add	r6, sp, #8
   210e2:	2502      	movs	r5, #2
   210e4:	7235      	strb	r5, [r6, #8]
   210e6:	360c      	adds	r6, #12
   210e8:	240f      	movs	r4, #15
   210ea:	4630      	mov	r0, r6
   210ec:	4622      	mov	r2, r4
   210ee:	f006 f8d4 	bl	2729a <__aeabi_memcpy>
   210f2:	a909      	add	r1, sp, #36	@ 0x24
   210f4:	9100      	str	r1, [sp, #0]
   210f6:	2000      	movs	r0, #0
   210f8:	7788      	strb	r0, [r1, #30]
   210fa:	8388      	strh	r0, [r1, #28]
   210fc:	720d      	strb	r5, [r1, #8]
   210fe:	900f      	str	r0, [sp, #60]	@ 0x3c
   21100:	900e      	str	r0, [sp, #56]	@ 0x38
   21102:	900d      	str	r0, [sp, #52]	@ 0x34
   21104:	900c      	str	r0, [sp, #48]	@ 0x30
   21106:	4820      	ldr	r0, [pc, #128]	@ (21188 <_ZN20complex_full_dynamic3app17h3c0dc4887aa96b09E+0xb0>)
   21108:	2103      	movs	r1, #3
   2110a:	460d      	mov	r5, r1
   2110c:	4632      	mov	r2, r6
   2110e:	4623      	mov	r3, r4
   21110:	df04      	svc	4
   21112:	2802      	cmp	r0, #2
   21114:	d01a      	beq.n	2114c <_ZN20complex_full_dynamic3app17h3c0dc4887aa96b09E+0x74>
   21116:	9a00      	ldr	r2, [sp, #0]
   21118:	320c      	adds	r2, #12
   2111a:	a802      	add	r0, sp, #8
   2111c:	2104      	movs	r1, #4
   2111e:	7201      	strb	r1, [r0, #8]
   21120:	462c      	mov	r4, r5
   21122:	9503      	str	r5, [sp, #12]
   21124:	4818      	ldr	r0, [pc, #96]	@ (21188 <_ZN20complex_full_dynamic3app17h3c0dc4887aa96b09E+0xb0>)
   21126:	9002      	str	r0, [sp, #8]
   21128:	2600      	movs	r6, #0
   2112a:	2313      	movs	r3, #19
   2112c:	4631      	mov	r1, r6
   2112e:	4615      	mov	r5, r2
   21130:	df03      	svc	3
   21132:	2802      	cmp	r0, #2
   21134:	d00a      	beq.n	2114c <_ZN20complex_full_dynamic3app17h3c0dc4887aa96b09E+0x74>
   21136:	a809      	add	r0, sp, #36	@ 0x24
   21138:	7204      	strb	r4, [r0, #8]
   2113a:	4813      	ldr	r0, [pc, #76]	@ (21188 <_ZN20complex_full_dynamic3app17h3c0dc4887aa96b09E+0xb0>)
   2113c:	9009      	str	r0, [sp, #36]	@ 0x24
   2113e:	960a      	str	r6, [sp, #40]	@ 0x28
   21140:	4621      	mov	r1, r4
   21142:	4632      	mov	r2, r6
   21144:	4633      	mov	r3, r6
   21146:	df02      	svc	2
   21148:	287f      	cmp	r0, #127	@ 0x7f
   2114a:	d80b      	bhi.n	21164 <_ZN20complex_full_dynamic3app17h3c0dc4887aa96b09E+0x8c>
   2114c:	9c01      	ldr	r4, [sp, #4]
   2114e:	6061      	str	r1, [r4, #4]
   21150:	2601      	movs	r6, #1
   21152:	7026      	strb	r6, [r4, #0]
   21154:	a809      	add	r0, sp, #36	@ 0x24
   21156:	f005 fedf 	bl	26f18 <_ZN9allow_pin12full_dynamic17unshare_if_shared17h34fb2a9288def0c2E>
   2115a:	a802      	add	r0, sp, #8
   2115c:	f005 fedc 	bl	26f18 <_ZN9allow_pin12full_dynamic17unshare_if_shared17h34fb2a9288def0c2E>
   21160:	b011      	add	sp, #68	@ 0x44
   21162:	bdf0      	pop	{r4, r5, r6, r7, pc}
   21164:	a802      	add	r0, sp, #8
   21166:	f005 fed7 	bl	26f18 <_ZN9allow_pin12full_dynamic17unshare_if_shared17h34fb2a9288def0c2E>
   2116a:	ac09      	add	r4, sp, #36	@ 0x24
   2116c:	4620      	mov	r0, r4
   2116e:	f005 fed3 	bl	26f18 <_ZN9allow_pin12full_dynamic17unshare_if_shared17h34fb2a9288def0c2E>
   21172:	4620      	mov	r0, r4
   21174:	f005 fed0 	bl	26f18 <_ZN9allow_pin12full_dynamic17unshare_if_shared17h34fb2a9288def0c2E>
   21178:	9c01      	ldr	r4, [sp, #4]
   2117a:	1c60      	adds	r0, r4, #1
   2117c:	2213      	movs	r2, #19
   2117e:	4629      	mov	r1, r5
   21180:	f006 f88b 	bl	2729a <__aeabi_memcpy>
   21184:	e7e5      	b.n	21152 <_ZN20complex_full_dynamic3app17h3c0dc4887aa96b09E+0x7a>
   21186:	46c0      	nop			@ (mov r8, r8)
   21188:	00001e4b 	.word	0x00001e4b

0002118c <_ZN20complex_full_dynamic3app17h3f2c119eed11edfbE>:
   2118c:	b5f0      	push	{r4, r5, r6, r7, lr}
   2118e:	af03      	add	r7, sp, #12
   21190:	b097      	sub	sp, #92	@ 0x5c
   21192:	9003      	str	r0, [sp, #12]
   21194:	ac04      	add	r4, sp, #16
   21196:	2002      	movs	r0, #2
   21198:	9002      	str	r0, [sp, #8]
   2119a:	7220      	strb	r0, [r4, #8]
   2119c:	340c      	adds	r4, #12
   2119e:	220d      	movs	r2, #13
   211a0:	9201      	str	r2, [sp, #4]
   211a2:	4620      	mov	r0, r4
   211a4:	f006 f879 	bl	2729a <__aeabi_memcpy>
   211a8:	ae0b      	add	r6, sp, #44	@ 0x2c
   211aa:	4635      	mov	r5, r6
   211ac:	350c      	adds	r5, #12
   211ae:	2121      	movs	r1, #33	@ 0x21
   211b0:	4628      	mov	r0, r5
   211b2:	f005 fec5 	bl	26f40 <__aeabi_memclr4>
   211b6:	9802      	ldr	r0, [sp, #8]
   211b8:	7230      	strb	r0, [r6, #8]
   211ba:	481f      	ldr	r0, [pc, #124]	@ (21238 <_ZN20complex_full_dynamic3app17h3f2c119eed11edfbE+0xac>)
   211bc:	2600      	movs	r6, #0
   211be:	4631      	mov	r1, r6
   211c0:	4622      	mov	r2, r4
   211c2:	9b01      	ldr	r3, [sp, #4]
   211c4:	df04      	svc	4
   211c6:	2802      	cmp	r0, #2
   211c8:	d018      	beq.n	211fc <_ZN20complex_full_dynamic3app17h3f2c119eed11edfbE+0x70>
   211ca:	a804      	add	r0, sp, #16
   211cc:	2104      	movs	r1, #4
   211ce:	7201      	strb	r1, [r0, #8]
   211d0:	4c19      	ldr	r4, [pc, #100]	@ (21238 <_ZN20complex_full_dynamic3app17h3f2c119eed11edfbE+0xac>)
   211d2:	9404      	str	r4, [sp, #16]
   211d4:	9605      	str	r6, [sp, #20]
   211d6:	2321      	movs	r3, #33	@ 0x21
   211d8:	4620      	mov	r0, r4
   211da:	4631      	mov	r1, r6
   211dc:	462a      	mov	r2, r5
   211de:	df03      	svc	3
   211e0:	2802      	cmp	r0, #2
   211e2:	d00b      	beq.n	211fc <_ZN20complex_full_dynamic3app17h3f2c119eed11edfbE+0x70>
   211e4:	a80b      	add	r0, sp, #44	@ 0x2c
   211e6:	2103      	movs	r1, #3
   211e8:	7201      	strb	r1, [r0, #8]
   211ea:	940b      	str	r4, [sp, #44]	@ 0x2c
   211ec:	960c      	str	r6, [sp, #48]	@ 0x30
   211ee:	4812      	ldr	r0, [pc, #72]	@ (21238 <_ZN20complex_full_dynamic3app17h3f2c119eed11edfbE+0xac>)
   211f0:	4631      	mov	r1, r6
   211f2:	4632      	mov	r2, r6
   211f4:	4633      	mov	r3, r6
   211f6:	df02      	svc	2
   211f8:	287f      	cmp	r0, #127	@ 0x7f
   211fa:	d80b      	bhi.n	21214 <_ZN20complex_full_dynamic3app17h3f2c119eed11edfbE+0x88>
   211fc:	9c03      	ldr	r4, [sp, #12]
   211fe:	6061      	str	r1, [r4, #4]
   21200:	2601      	movs	r6, #1
   21202:	7026      	strb	r6, [r4, #0]
   21204:	a80b      	add	r0, sp, #44	@ 0x2c
   21206:	f005 fe87 	bl	26f18 <_ZN9allow_pin12full_dynamic17unshare_if_shared17h34fb2a9288def0c2E>
   2120a:	a804      	add	r0, sp, #16
   2120c:	f005 fe84 	bl	26f18 <_ZN9allow_pin12full_dynamic17unshare_if_shared17h34fb2a9288def0c2E>
   21210:	b017      	add	sp, #92	@ 0x5c
   21212:	bdf0      	pop	{r4, r5, r6, r7, pc}
   21214:	a804      	add	r0, sp, #16
   21216:	f005 fe7f 	bl	26f18 <_ZN9allow_pin12full_dynamic17unshare_if_shared17h34fb2a9288def0c2E>
   2121a:	ac0b      	add	r4, sp, #44	@ 0x2c
   2121c:	4620      	mov	r0, r4
   2121e:	f005 fe7b 	bl	26f18 <_ZN9allow_pin12full_dynamic17unshare_if_shared17h34fb2a9288def0c2E>
   21222:	4620      	mov	r0, r4
   21224:	f005 fe78 	bl	26f18 <_ZN9allow_pin12full_dynamic17unshare_if_shared17h34fb2a9288def0c2E>
   21228:	9c03      	ldr	r4, [sp, #12]
   2122a:	1c60      	adds	r0, r4, #1
   2122c:	2221      	movs	r2, #33	@ 0x21
   2122e:	4629      	mov	r1, r5
   21230:	f006 f833 	bl	2729a <__aeabi_memcpy>
   21234:	e7e5      	b.n	21202 <_ZN20complex_full_dynamic3app17h3f2c119eed11edfbE+0x76>
   21236:	46c0      	nop			@ (mov r8, r8)
   21238:	000016b0 	.word	0x000016b0

0002123c <_ZN20complex_full_dynamic3app17h410a2f870df67597E>:
   2123c:	b5f0      	push	{r4, r5, r6, r7, lr}
   2123e:	af03      	add	r7, sp, #12
   21240:	b097      	sub	sp, #92	@ 0x5c
   21242:	9001      	str	r0, [sp, #4]
   21244:	ac02      	add	r4, sp, #8
   21246:	2502      	movs	r5, #2
   21248:	7225      	strb	r5, [r4, #8]
   2124a:	340c      	adds	r4, #12
   2124c:	2627      	movs	r6, #39	@ 0x27
   2124e:	4620      	mov	r0, r4
   21250:	4632      	mov	r2, r6
   21252:	f006 f822 	bl	2729a <__aeabi_memcpy>
   21256:	a80f      	add	r0, sp, #60	@ 0x3c
   21258:	9000      	str	r0, [sp, #0]
   2125a:	7205      	strb	r5, [r0, #8]
   2125c:	2000      	movs	r0, #0
   2125e:	9016      	str	r0, [sp, #88]	@ 0x58
   21260:	9015      	str	r0, [sp, #84]	@ 0x54
   21262:	9014      	str	r0, [sp, #80]	@ 0x50
   21264:	9013      	str	r0, [sp, #76]	@ 0x4c
   21266:	9012      	str	r0, [sp, #72]	@ 0x48
   21268:	4820      	ldr	r0, [pc, #128]	@ (212ec <_ZN20complex_full_dynamic3app17h410a2f870df67597E+0xb0>)
   2126a:	2506      	movs	r5, #6
   2126c:	4629      	mov	r1, r5
   2126e:	4622      	mov	r2, r4
   21270:	4633      	mov	r3, r6
   21272:	df04      	svc	4
   21274:	2802      	cmp	r0, #2
   21276:	d01c      	beq.n	212b2 <_ZN20complex_full_dynamic3app17h410a2f870df67597E+0x76>
   21278:	9e00      	ldr	r6, [sp, #0]
   2127a:	360c      	adds	r6, #12
   2127c:	a802      	add	r0, sp, #8
   2127e:	2104      	movs	r1, #4
   21280:	7201      	strb	r1, [r0, #8]
   21282:	9503      	str	r5, [sp, #12]
   21284:	4819      	ldr	r0, [pc, #100]	@ (212ec <_ZN20complex_full_dynamic3app17h410a2f870df67597E+0xb0>)
   21286:	9002      	str	r0, [sp, #8]
   21288:	2405      	movs	r4, #5
   2128a:	2314      	movs	r3, #20
   2128c:	4621      	mov	r1, r4
   2128e:	4632      	mov	r2, r6
   21290:	df03      	svc	3
   21292:	2802      	cmp	r0, #2
   21294:	d00d      	beq.n	212b2 <_ZN20complex_full_dynamic3app17h410a2f870df67597E+0x76>
   21296:	4635      	mov	r5, r6
   21298:	a80f      	add	r0, sp, #60	@ 0x3c
   2129a:	2103      	movs	r1, #3
   2129c:	7201      	strb	r1, [r0, #8]
   2129e:	4813      	ldr	r0, [pc, #76]	@ (212ec <_ZN20complex_full_dynamic3app17h410a2f870df67597E+0xb0>)
   212a0:	900f      	str	r0, [sp, #60]	@ 0x3c
   212a2:	9410      	str	r4, [sp, #64]	@ 0x40
   212a4:	2106      	movs	r1, #6
   212a6:	2600      	movs	r6, #0
   212a8:	4622      	mov	r2, r4
   212aa:	4633      	mov	r3, r6
   212ac:	df02      	svc	2
   212ae:	287f      	cmp	r0, #127	@ 0x7f
   212b0:	d80b      	bhi.n	212ca <_ZN20complex_full_dynamic3app17h410a2f870df67597E+0x8e>
   212b2:	9c01      	ldr	r4, [sp, #4]
   212b4:	6061      	str	r1, [r4, #4]
   212b6:	2601      	movs	r6, #1
   212b8:	7026      	strb	r6, [r4, #0]
   212ba:	a80f      	add	r0, sp, #60	@ 0x3c
   212bc:	f005 fe2c 	bl	26f18 <_ZN9allow_pin12full_dynamic17unshare_if_shared17h34fb2a9288def0c2E>
   212c0:	a802      	add	r0, sp, #8
   212c2:	f005 fe29 	bl	26f18 <_ZN9allow_pin12full_dynamic17unshare_if_shared17h34fb2a9288def0c2E>
   212c6:	b017      	add	sp, #92	@ 0x5c
   212c8:	bdf0      	pop	{r4, r5, r6, r7, pc}
   212ca:	a802      	add	r0, sp, #8
   212cc:	f005 fe24 	bl	26f18 <_ZN9allow_pin12full_dynamic17unshare_if_shared17h34fb2a9288def0c2E>
   212d0:	ac0f      	add	r4, sp, #60	@ 0x3c
   212d2:	4620      	mov	r0, r4
   212d4:	f005 fe20 	bl	26f18 <_ZN9allow_pin12full_dynamic17unshare_if_shared17h34fb2a9288def0c2E>
   212d8:	4620      	mov	r0, r4
   212da:	f005 fe1d 	bl	26f18 <_ZN9allow_pin12full_dynamic17unshare_if_shared17h34fb2a9288def0c2E>
   212de:	9c01      	ldr	r4, [sp, #4]
   212e0:	1c60      	adds	r0, r4, #1
   212e2:	2214      	movs	r2, #20
   212e4:	4629      	mov	r1, r5
   212e6:	f005 ffd8 	bl	2729a <__aeabi_memcpy>
   212ea:	e7e5      	b.n	212b8 <_ZN20complex_full_dynamic3app17h410a2f870df67597E+0x7c>
   212ec:	000022c9 	.word	0x000022c9

000212f0 <_ZN20complex_full_dynamic3app17h41482490f54aaf35E>:
   212f0:	b5f0      	push	{r4, r5, r6, r7, lr}
   212f2:	af03      	add	r7, sp, #12
   212f4:	b099      	sub	sp, #100	@ 0x64
   212f6:	9001      	str	r0, [sp, #4]
   212f8:	ac02      	add	r4, sp, #8
   212fa:	2502      	movs	r5, #2
   212fc:	7225      	strb	r5, [r4, #8]
   212fe:	340c      	adds	r4, #12
   21300:	2632      	movs	r6, #50	@ 0x32
   21302:	4620      	mov	r0, r4
   21304:	4632      	mov	r2, r6
   21306:	f005 ffc8 	bl	2729a <__aeabi_memcpy>
   2130a:	a812      	add	r0, sp, #72	@ 0x48
   2130c:	9000      	str	r0, [sp, #0]
   2130e:	7205      	strb	r5, [r0, #8]
   21310:	2000      	movs	r0, #0
   21312:	9018      	str	r0, [sp, #96]	@ 0x60
   21314:	9017      	str	r0, [sp, #92]	@ 0x5c
   21316:	9016      	str	r0, [sp, #88]	@ 0x58
   21318:	9015      	str	r0, [sp, #84]	@ 0x54
   2131a:	4820      	ldr	r0, [pc, #128]	@ (2139c <_ZN20complex_full_dynamic3app17h41482490f54aaf35E+0xac>)
   2131c:	2504      	movs	r5, #4
   2131e:	4629      	mov	r1, r5
   21320:	4622      	mov	r2, r4
   21322:	4633      	mov	r3, r6
   21324:	df04      	svc	4
   21326:	2802      	cmp	r0, #2
   21328:	d01b      	beq.n	21362 <_ZN20complex_full_dynamic3app17h41482490f54aaf35E+0x72>
   2132a:	9e00      	ldr	r6, [sp, #0]
   2132c:	360c      	adds	r6, #12
   2132e:	a802      	add	r0, sp, #8
   21330:	7205      	strb	r5, [r0, #8]
   21332:	9503      	str	r5, [sp, #12]
   21334:	4819      	ldr	r0, [pc, #100]	@ (2139c <_ZN20complex_full_dynamic3app17h41482490f54aaf35E+0xac>)
   21336:	9002      	str	r0, [sp, #8]
   21338:	2409      	movs	r4, #9
   2133a:	2310      	movs	r3, #16
   2133c:	4621      	mov	r1, r4
   2133e:	4632      	mov	r2, r6
   21340:	df03      	svc	3
   21342:	2802      	cmp	r0, #2
   21344:	d00d      	beq.n	21362 <_ZN20complex_full_dynamic3app17h41482490f54aaf35E+0x72>
   21346:	4635      	mov	r5, r6
   21348:	a812      	add	r0, sp, #72	@ 0x48
   2134a:	2103      	movs	r1, #3
   2134c:	7201      	strb	r1, [r0, #8]
   2134e:	4813      	ldr	r0, [pc, #76]	@ (2139c <_ZN20complex_full_dynamic3app17h41482490f54aaf35E+0xac>)
   21350:	9012      	str	r0, [sp, #72]	@ 0x48
   21352:	9413      	str	r4, [sp, #76]	@ 0x4c
   21354:	2104      	movs	r1, #4
   21356:	2600      	movs	r6, #0
   21358:	4622      	mov	r2, r4
   2135a:	4633      	mov	r3, r6
   2135c:	df02      	svc	2
   2135e:	287f      	cmp	r0, #127	@ 0x7f
   21360:	d80b      	bhi.n	2137a <_ZN20complex_full_dynamic3app17h41482490f54aaf35E+0x8a>
   21362:	9c01      	ldr	r4, [sp, #4]
   21364:	6061      	str	r1, [r4, #4]
   21366:	2601      	movs	r6, #1
   21368:	7026      	strb	r6, [r4, #0]
   2136a:	a812      	add	r0, sp, #72	@ 0x48
   2136c:	f005 fdd4 	bl	26f18 <_ZN9allow_pin12full_dynamic17unshare_if_shared17h34fb2a9288def0c2E>
   21370:	a802      	add	r0, sp, #8
   21372:	f005 fdd1 	bl	26f18 <_ZN9allow_pin12full_dynamic17unshare_if_shared17h34fb2a9288def0c2E>
   21376:	b019      	add	sp, #100	@ 0x64
   21378:	bdf0      	pop	{r4, r5, r6, r7, pc}
   2137a:	a802      	add	r0, sp, #8
   2137c:	f005 fdcc 	bl	26f18 <_ZN9allow_pin12full_dynamic17unshare_if_shared17h34fb2a9288def0c2E>
   21380:	ac12      	add	r4, sp, #72	@ 0x48
   21382:	4620      	mov	r0, r4
   21384:	f005 fdc8 	bl	26f18 <_ZN9allow_pin12full_dynamic17unshare_if_shared17h34fb2a9288def0c2E>
   21388:	4620      	mov	r0, r4
   2138a:	f005 fdc5 	bl	26f18 <_ZN9allow_pin12full_dynamic17unshare_if_shared17h34fb2a9288def0c2E>
   2138e:	9c01      	ldr	r4, [sp, #4]
   21390:	1c60      	adds	r0, r4, #1
   21392:	2210      	movs	r2, #16
   21394:	4629      	mov	r1, r5
   21396:	f005 ff80 	bl	2729a <__aeabi_memcpy>
   2139a:	e7e5      	b.n	21368 <_ZN20complex_full_dynamic3app17h41482490f54aaf35E+0x78>
   2139c:	000019d6 	.word	0x000019d6

000213a0 <_ZN20complex_full_dynamic3app17h436819abd303daf9E>:
   213a0:	b5f0      	push	{r4, r5, r6, r7, lr}
   213a2:	af03      	add	r7, sp, #12
   213a4:	b09f      	sub	sp, #124	@ 0x7c
   213a6:	9003      	str	r0, [sp, #12]
   213a8:	ac04      	add	r4, sp, #16
   213aa:	2002      	movs	r0, #2
   213ac:	9002      	str	r0, [sp, #8]
   213ae:	7220      	strb	r0, [r4, #8]
   213b0:	340c      	adds	r4, #12
   213b2:	2224      	movs	r2, #36	@ 0x24
   213b4:	9201      	str	r2, [sp, #4]
   213b6:	4620      	mov	r0, r4
   213b8:	f005 ff6f 	bl	2729a <__aeabi_memcpy>
   213bc:	ae10      	add	r6, sp, #64	@ 0x40
   213be:	4635      	mov	r5, r6
   213c0:	350c      	adds	r5, #12
   213c2:	212f      	movs	r1, #47	@ 0x2f
   213c4:	4628      	mov	r0, r5
   213c6:	f005 fdbb 	bl	26f40 <__aeabi_memclr4>
   213ca:	9802      	ldr	r0, [sp, #8]
   213cc:	7230      	strb	r0, [r6, #8]
   213ce:	4820      	ldr	r0, [pc, #128]	@ (21450 <_ZN20complex_full_dynamic3app17h436819abd303daf9E+0xb0>)
   213d0:	2606      	movs	r6, #6
   213d2:	4631      	mov	r1, r6
   213d4:	4622      	mov	r2, r4
   213d6:	9b01      	ldr	r3, [sp, #4]
   213d8:	df04      	svc	4
   213da:	2802      	cmp	r0, #2
   213dc:	d01a      	beq.n	21414 <_ZN20complex_full_dynamic3app17h436819abd303daf9E+0x74>
   213de:	a804      	add	r0, sp, #16
   213e0:	2104      	movs	r1, #4
   213e2:	7201      	strb	r1, [r0, #8]
   213e4:	9605      	str	r6, [sp, #20]
   213e6:	4e1a      	ldr	r6, [pc, #104]	@ (21450 <_ZN20complex_full_dynamic3app17h436819abd303daf9E+0xb0>)
   213e8:	9604      	str	r6, [sp, #16]
   213ea:	2409      	movs	r4, #9
   213ec:	232f      	movs	r3, #47	@ 0x2f
   213ee:	4630      	mov	r0, r6
   213f0:	4621      	mov	r1, r4
   213f2:	462a      	mov	r2, r5
   213f4:	df03      	svc	3
   213f6:	2802      	cmp	r0, #2
   213f8:	d00c      	beq.n	21414 <_ZN20complex_full_dynamic3app17h436819abd303daf9E+0x74>
   213fa:	a810      	add	r0, sp, #64	@ 0x40
   213fc:	2103      	movs	r1, #3
   213fe:	7201      	strb	r1, [r0, #8]
   21400:	9610      	str	r6, [sp, #64]	@ 0x40
   21402:	9411      	str	r4, [sp, #68]	@ 0x44
   21404:	4812      	ldr	r0, [pc, #72]	@ (21450 <_ZN20complex_full_dynamic3app17h436819abd303daf9E+0xb0>)
   21406:	2106      	movs	r1, #6
   21408:	2600      	movs	r6, #0
   2140a:	4622      	mov	r2, r4
   2140c:	4633      	mov	r3, r6
   2140e:	df02      	svc	2
   21410:	287f      	cmp	r0, #127	@ 0x7f
   21412:	d80b      	bhi.n	2142c <_ZN20complex_full_dynamic3app17h436819abd303daf9E+0x8c>
   21414:	9c03      	ldr	r4, [sp, #12]
   21416:	6061      	str	r1, [r4, #4]
   21418:	2601      	movs	r6, #1
   2141a:	7026      	strb	r6, [r4, #0]
   2141c:	a810      	add	r0, sp, #64	@ 0x40
   2141e:	f005 fd7b 	bl	26f18 <_ZN9allow_pin12full_dynamic17unshare_if_shared17h34fb2a9288def0c2E>
   21422:	a804      	add	r0, sp, #16
   21424:	f005 fd78 	bl	26f18 <_ZN9allow_pin12full_dynamic17unshare_if_shared17h34fb2a9288def0c2E>
   21428:	b01f      	add	sp, #124	@ 0x7c
   2142a:	bdf0      	pop	{r4, r5, r6, r7, pc}
   2142c:	a804      	add	r0, sp, #16
   2142e:	f005 fd73 	bl	26f18 <_ZN9allow_pin12full_dynamic17unshare_if_shared17h34fb2a9288def0c2E>
   21432:	ac10      	add	r4, sp, #64	@ 0x40
   21434:	4620      	mov	r0, r4
   21436:	f005 fd6f 	bl	26f18 <_ZN9allow_pin12full_dynamic17unshare_if_shared17h34fb2a9288def0c2E>
   2143a:	4620      	mov	r0, r4
   2143c:	f005 fd6c 	bl	26f18 <_ZN9allow_pin12full_dynamic17unshare_if_shared17h34fb2a9288def0c2E>
   21440:	9c03      	ldr	r4, [sp, #12]
   21442:	1c60      	adds	r0, r4, #1
   21444:	222f      	movs	r2, #47	@ 0x2f
   21446:	4629      	mov	r1, r5
   21448:	f005 ff27 	bl	2729a <__aeabi_memcpy>
   2144c:	e7e5      	b.n	2141a <_ZN20complex_full_dynamic3app17h436819abd303daf9E+0x7a>
   2144e:	46c0      	nop			@ (mov r8, r8)
   21450:	00001273 	.word	0x00001273

00021454 <_ZN20complex_full_dynamic3app17h445ef1e265790455E>:
   21454:	b5f0      	push	{r4, r5, r6, r7, lr}
   21456:	af03      	add	r7, sp, #12
   21458:	b097      	sub	sp, #92	@ 0x5c
   2145a:	9001      	str	r0, [sp, #4]
   2145c:	ae02      	add	r6, sp, #8
   2145e:	2502      	movs	r5, #2
   21460:	7235      	strb	r5, [r6, #8]
   21462:	360c      	adds	r6, #12
   21464:	222b      	movs	r2, #43	@ 0x2b
   21466:	9200      	str	r2, [sp, #0]
   21468:	4630      	mov	r0, r6
   2146a:	f005 ff16 	bl	2729a <__aeabi_memcpy>
   2146e:	ac10      	add	r4, sp, #64	@ 0x40
   21470:	2000      	movs	r0, #0
   21472:	7620      	strb	r0, [r4, #24]
   21474:	7225      	strb	r5, [r4, #8]
   21476:	9015      	str	r0, [sp, #84]	@ 0x54
   21478:	9014      	str	r0, [sp, #80]	@ 0x50
   2147a:	9013      	str	r0, [sp, #76]	@ 0x4c
   2147c:	4820      	ldr	r0, [pc, #128]	@ (21500 <_ZN20complex_full_dynamic3app17h445ef1e265790455E+0xac>)
   2147e:	2506      	movs	r5, #6
   21480:	4629      	mov	r1, r5
   21482:	4632      	mov	r2, r6
   21484:	9b00      	ldr	r3, [sp, #0]
   21486:	df04      	svc	4
   21488:	2802      	cmp	r0, #2
   2148a:	d01a      	beq.n	214c2 <_ZN20complex_full_dynamic3app17h445ef1e265790455E+0x6e>
   2148c:	340c      	adds	r4, #12
   2148e:	a802      	add	r0, sp, #8
   21490:	2104      	movs	r1, #4
   21492:	7201      	strb	r1, [r0, #8]
   21494:	9503      	str	r5, [sp, #12]
   21496:	4d1a      	ldr	r5, [pc, #104]	@ (21500 <_ZN20complex_full_dynamic3app17h445ef1e265790455E+0xac>)
   21498:	9502      	str	r5, [sp, #8]
   2149a:	2600      	movs	r6, #0
   2149c:	230d      	movs	r3, #13
   2149e:	4628      	mov	r0, r5
   214a0:	4631      	mov	r1, r6
   214a2:	4622      	mov	r2, r4
   214a4:	df03      	svc	3
   214a6:	2802      	cmp	r0, #2
   214a8:	d00b      	beq.n	214c2 <_ZN20complex_full_dynamic3app17h445ef1e265790455E+0x6e>
   214aa:	a810      	add	r0, sp, #64	@ 0x40
   214ac:	2103      	movs	r1, #3
   214ae:	7201      	strb	r1, [r0, #8]
   214b0:	9510      	str	r5, [sp, #64]	@ 0x40
   214b2:	9611      	str	r6, [sp, #68]	@ 0x44
   214b4:	4812      	ldr	r0, [pc, #72]	@ (21500 <_ZN20complex_full_dynamic3app17h445ef1e265790455E+0xac>)
   214b6:	2106      	movs	r1, #6
   214b8:	4632      	mov	r2, r6
   214ba:	4633      	mov	r3, r6
   214bc:	df02      	svc	2
   214be:	287f      	cmp	r0, #127	@ 0x7f
   214c0:	d80b      	bhi.n	214da <_ZN20complex_full_dynamic3app17h445ef1e265790455E+0x86>
   214c2:	9c01      	ldr	r4, [sp, #4]
   214c4:	6061      	str	r1, [r4, #4]
   214c6:	2601      	movs	r6, #1
   214c8:	7026      	strb	r6, [r4, #0]
   214ca:	a810      	add	r0, sp, #64	@ 0x40
   214cc:	f005 fd24 	bl	26f18 <_ZN9allow_pin12full_dynamic17unshare_if_shared17h34fb2a9288def0c2E>
   214d0:	a802      	add	r0, sp, #8
   214d2:	f005 fd21 	bl	26f18 <_ZN9allow_pin12full_dynamic17unshare_if_shared17h34fb2a9288def0c2E>
   214d6:	b017      	add	sp, #92	@ 0x5c
   214d8:	bdf0      	pop	{r4, r5, r6, r7, pc}
   214da:	a802      	add	r0, sp, #8
   214dc:	f005 fd1c 	bl	26f18 <_ZN9allow_pin12full_dynamic17unshare_if_shared17h34fb2a9288def0c2E>
   214e0:	4625      	mov	r5, r4
   214e2:	ac10      	add	r4, sp, #64	@ 0x40
   214e4:	4620      	mov	r0, r4
   214e6:	f005 fd17 	bl	26f18 <_ZN9allow_pin12full_dynamic17unshare_if_shared17h34fb2a9288def0c2E>
   214ea:	4620      	mov	r0, r4
   214ec:	f005 fd14 	bl	26f18 <_ZN9allow_pin12full_dynamic17unshare_if_shared17h34fb2a9288def0c2E>
   214f0:	9c01      	ldr	r4, [sp, #4]
   214f2:	1c60      	adds	r0, r4, #1
   214f4:	220d      	movs	r2, #13
   214f6:	4629      	mov	r1, r5
   214f8:	f005 fecf 	bl	2729a <__aeabi_memcpy>
   214fc:	e7e4      	b.n	214c8 <_ZN20complex_full_dynamic3app17h445ef1e265790455E+0x74>
   214fe:	46c0      	nop			@ (mov r8, r8)
   21500:	00001465 	.word	0x00001465

00021504 <_ZN20complex_full_dynamic3app17h4518e405632255cfE>:
   21504:	b5f0      	push	{r4, r5, r6, r7, lr}
   21506:	af03      	add	r7, sp, #12
   21508:	b09b      	sub	sp, #108	@ 0x6c
   2150a:	9001      	str	r0, [sp, #4]
   2150c:	ac02      	add	r4, sp, #8
   2150e:	2502      	movs	r5, #2
   21510:	7225      	strb	r5, [r4, #8]
   21512:	340c      	adds	r4, #12
   21514:	222b      	movs	r2, #43	@ 0x2b
   21516:	9200      	str	r2, [sp, #0]
   21518:	4620      	mov	r0, r4
   2151a:	f005 febe 	bl	2729a <__aeabi_memcpy>
   2151e:	ae10      	add	r6, sp, #64	@ 0x40
   21520:	2000      	movs	r0, #0
   21522:	8530      	strh	r0, [r6, #40]	@ 0x28
   21524:	7235      	strb	r5, [r6, #8]
   21526:	9019      	str	r0, [sp, #100]	@ 0x64
   21528:	9018      	str	r0, [sp, #96]	@ 0x60
   2152a:	9017      	str	r0, [sp, #92]	@ 0x5c
   2152c:	9016      	str	r0, [sp, #88]	@ 0x58
   2152e:	9015      	str	r0, [sp, #84]	@ 0x54
   21530:	9014      	str	r0, [sp, #80]	@ 0x50
   21532:	9013      	str	r0, [sp, #76]	@ 0x4c
   21534:	4820      	ldr	r0, [pc, #128]	@ (215b8 <_ZN20complex_full_dynamic3app17h4518e405632255cfE+0xb4>)
   21536:	2507      	movs	r5, #7
   21538:	4629      	mov	r1, r5
   2153a:	4622      	mov	r2, r4
   2153c:	9b00      	ldr	r3, [sp, #0]
   2153e:	df04      	svc	4
   21540:	2802      	cmp	r0, #2
   21542:	d01b      	beq.n	2157c <_ZN20complex_full_dynamic3app17h4518e405632255cfE+0x78>
   21544:	360c      	adds	r6, #12
   21546:	a802      	add	r0, sp, #8
   21548:	2104      	movs	r1, #4
   2154a:	7201      	strb	r1, [r0, #8]
   2154c:	9503      	str	r5, [sp, #12]
   2154e:	481a      	ldr	r0, [pc, #104]	@ (215b8 <_ZN20complex_full_dynamic3app17h4518e405632255cfE+0xb4>)
   21550:	9002      	str	r0, [sp, #8]
   21552:	2408      	movs	r4, #8
   21554:	231e      	movs	r3, #30
   21556:	4621      	mov	r1, r4
   21558:	4632      	mov	r2, r6
   2155a:	df03      	svc	3
   2155c:	2802      	cmp	r0, #2
   2155e:	d00d      	beq.n	2157c <_ZN20complex_full_dynamic3app17h4518e405632255cfE+0x78>
   21560:	4635      	mov	r5, r6
   21562:	a810      	add	r0, sp, #64	@ 0x40
   21564:	2103      	movs	r1, #3
   21566:	7201      	strb	r1, [r0, #8]
   21568:	4813      	ldr	r0, [pc, #76]	@ (215b8 <_ZN20complex_full_dynamic3app17h4518e405632255cfE+0xb4>)
   2156a:	9010      	str	r0, [sp, #64]	@ 0x40
   2156c:	9411      	str	r4, [sp, #68]	@ 0x44
   2156e:	2107      	movs	r1, #7
   21570:	2600      	movs	r6, #0
   21572:	4622      	mov	r2, r4
   21574:	4633      	mov	r3, r6
   21576:	df02      	svc	2
   21578:	287f      	cmp	r0, #127	@ 0x7f
   2157a:	d80b      	bhi.n	21594 <_ZN20complex_full_dynamic3app17h4518e405632255cfE+0x90>
   2157c:	9c01      	ldr	r4, [sp, #4]
   2157e:	6061      	str	r1, [r4, #4]
   21580:	2601      	movs	r6, #1
   21582:	7026      	strb	r6, [r4, #0]
   21584:	a810      	add	r0, sp, #64	@ 0x40
   21586:	f005 fcc7 	bl	26f18 <_ZN9allow_pin12full_dynamic17unshare_if_shared17h34fb2a9288def0c2E>
   2158a:	a802      	add	r0, sp, #8
   2158c:	f005 fcc4 	bl	26f18 <_ZN9allow_pin12full_dynamic17unshare_if_shared17h34fb2a9288def0c2E>
   21590:	b01b      	add	sp, #108	@ 0x6c
   21592:	bdf0      	pop	{r4, r5, r6, r7, pc}
   21594:	a802      	add	r0, sp, #8
   21596:	f005 fcbf 	bl	26f18 <_ZN9allow_pin12full_dynamic17unshare_if_shared17h34fb2a9288def0c2E>
   2159a:	ac10      	add	r4, sp, #64	@ 0x40
   2159c:	4620      	mov	r0, r4
   2159e:	f005 fcbb 	bl	26f18 <_ZN9allow_pin12full_dynamic17unshare_if_shared17h34fb2a9288def0c2E>
   215a2:	4620      	mov	r0, r4
   215a4:	f005 fcb8 	bl	26f18 <_ZN9allow_pin12full_dynamic17unshare_if_shared17h34fb2a9288def0c2E>
   215a8:	9c01      	ldr	r4, [sp, #4]
   215aa:	1c60      	adds	r0, r4, #1
   215ac:	221e      	movs	r2, #30
   215ae:	4629      	mov	r1, r5
   215b0:	f005 fe73 	bl	2729a <__aeabi_memcpy>
   215b4:	e7e5      	b.n	21582 <_ZN20complex_full_dynamic3app17h4518e405632255cfE+0x7e>
   215b6:	46c0      	nop			@ (mov r8, r8)
   215b8:	000007e3 	.word	0x000007e3

000215bc <_ZN20complex_full_dynamic3app17h459aeedfedd6cd82E>:
   215bc:	b5f0      	push	{r4, r5, r6, r7, lr}
   215be:	af03      	add	r7, sp, #12
   215c0:	b0a5      	sub	sp, #148	@ 0x94
   215c2:	9003      	str	r0, [sp, #12]
   215c4:	ae04      	add	r6, sp, #16
   215c6:	2002      	movs	r0, #2
   215c8:	9001      	str	r0, [sp, #4]
   215ca:	7230      	strb	r0, [r6, #8]
   215cc:	360c      	adds	r6, #12
   215ce:	2238      	movs	r2, #56	@ 0x38
   215d0:	9202      	str	r2, [sp, #8]
   215d2:	4630      	mov	r0, r6
   215d4:	f005 fe61 	bl	2729a <__aeabi_memcpy>
   215d8:	ad15      	add	r5, sp, #84	@ 0x54
   215da:	462c      	mov	r4, r5
   215dc:	340c      	adds	r4, #12
   215de:	2134      	movs	r1, #52	@ 0x34
   215e0:	4620      	mov	r0, r4
   215e2:	f005 fcad 	bl	26f40 <__aeabi_memclr4>
   215e6:	9801      	ldr	r0, [sp, #4]
   215e8:	7228      	strb	r0, [r5, #8]
   215ea:	2097      	movs	r0, #151	@ 0x97
   215ec:	0040      	lsls	r0, r0, #1
   215ee:	2508      	movs	r5, #8
   215f0:	9001      	str	r0, [sp, #4]
   215f2:	4629      	mov	r1, r5
   215f4:	4632      	mov	r2, r6
   215f6:	9b02      	ldr	r3, [sp, #8]
   215f8:	df04      	svc	4
   215fa:	2802      	cmp	r0, #2
   215fc:	d018      	beq.n	21630 <_ZN20complex_full_dynamic3app17h459aeedfedd6cd82E+0x74>
   215fe:	a804      	add	r0, sp, #16
   21600:	2104      	movs	r1, #4
   21602:	7201      	strb	r1, [r0, #8]
   21604:	9505      	str	r5, [sp, #20]
   21606:	9801      	ldr	r0, [sp, #4]
   21608:	9004      	str	r0, [sp, #16]
   2160a:	2503      	movs	r5, #3
   2160c:	2334      	movs	r3, #52	@ 0x34
   2160e:	4629      	mov	r1, r5
   21610:	4622      	mov	r2, r4
   21612:	df03      	svc	3
   21614:	2802      	cmp	r0, #2
   21616:	d00b      	beq.n	21630 <_ZN20complex_full_dynamic3app17h459aeedfedd6cd82E+0x74>
   21618:	a815      	add	r0, sp, #84	@ 0x54
   2161a:	7205      	strb	r5, [r0, #8]
   2161c:	9516      	str	r5, [sp, #88]	@ 0x58
   2161e:	9801      	ldr	r0, [sp, #4]
   21620:	9015      	str	r0, [sp, #84]	@ 0x54
   21622:	2108      	movs	r1, #8
   21624:	2600      	movs	r6, #0
   21626:	462a      	mov	r2, r5
   21628:	4633      	mov	r3, r6
   2162a:	df02      	svc	2
   2162c:	287f      	cmp	r0, #127	@ 0x7f
   2162e:	d80b      	bhi.n	21648 <_ZN20complex_full_dynamic3app17h459aeedfedd6cd82E+0x8c>
   21630:	9c03      	ldr	r4, [sp, #12]
   21632:	6061      	str	r1, [r4, #4]
   21634:	2601      	movs	r6, #1
   21636:	7026      	strb	r6, [r4, #0]
   21638:	a815      	add	r0, sp, #84	@ 0x54
   2163a:	f005 fc6d 	bl	26f18 <_ZN9allow_pin12full_dynamic17unshare_if_shared17h34fb2a9288def0c2E>
   2163e:	a804      	add	r0, sp, #16
   21640:	f005 fc6a 	bl	26f18 <_ZN9allow_pin12full_dynamic17unshare_if_shared17h34fb2a9288def0c2E>
   21644:	b025      	add	sp, #148	@ 0x94
   21646:	bdf0      	pop	{r4, r5, r6, r7, pc}
   21648:	a804      	add	r0, sp, #16
   2164a:	f005 fc65 	bl	26f18 <_ZN9allow_pin12full_dynamic17unshare_if_shared17h34fb2a9288def0c2E>
   2164e:	4625      	mov	r5, r4
   21650:	ac15      	add	r4, sp, #84	@ 0x54
   21652:	4620      	mov	r0, r4
   21654:	f005 fc60 	bl	26f18 <_ZN9allow_pin12full_dynamic17unshare_if_shared17h34fb2a9288def0c2E>
   21658:	4620      	mov	r0, r4
   2165a:	f005 fc5d 	bl	26f18 <_ZN9allow_pin12full_dynamic17unshare_if_shared17h34fb2a9288def0c2E>
   2165e:	9c03      	ldr	r4, [sp, #12]
   21660:	1c60      	adds	r0, r4, #1
   21662:	2234      	movs	r2, #52	@ 0x34
   21664:	4629      	mov	r1, r5
   21666:	f005 fe18 	bl	2729a <__aeabi_memcpy>
   2166a:	e7e4      	b.n	21636 <_ZN20complex_full_dynamic3app17h459aeedfedd6cd82E+0x7a>

0002166c <_ZN20complex_full_dynamic3app17h4b93e042eb449a81E>:
   2166c:	b5f0      	push	{r4, r5, r6, r7, lr}
   2166e:	af03      	add	r7, sp, #12
   21670:	b09b      	sub	sp, #108	@ 0x6c
   21672:	9002      	str	r0, [sp, #8]
   21674:	ac03      	add	r4, sp, #12
   21676:	2002      	movs	r0, #2
   21678:	9001      	str	r0, [sp, #4]
   2167a:	7220      	strb	r0, [r4, #8]
   2167c:	340c      	adds	r4, #12
   2167e:	2210      	movs	r2, #16
   21680:	9200      	str	r2, [sp, #0]
   21682:	4620      	mov	r0, r4
   21684:	f005 fe09 	bl	2729a <__aeabi_memcpy>
   21688:	ae0a      	add	r6, sp, #40	@ 0x28
   2168a:	4635      	mov	r5, r6
   2168c:	350c      	adds	r5, #12
   2168e:	2136      	movs	r1, #54	@ 0x36
   21690:	4628      	mov	r0, r5
   21692:	f005 fc55 	bl	26f40 <__aeabi_memclr4>
   21696:	9801      	ldr	r0, [sp, #4]
   21698:	7230      	strb	r0, [r6, #8]
   2169a:	481f      	ldr	r0, [pc, #124]	@ (21718 <_ZN20complex_full_dynamic3app17h4b93e042eb449a81E+0xac>)
   2169c:	2601      	movs	r6, #1
   2169e:	4631      	mov	r1, r6
   216a0:	4622      	mov	r2, r4
   216a2:	9b00      	ldr	r3, [sp, #0]
   216a4:	df04      	svc	4
   216a6:	2802      	cmp	r0, #2
   216a8:	d019      	beq.n	216de <_ZN20complex_full_dynamic3app17h4b93e042eb449a81E+0x72>
   216aa:	a803      	add	r0, sp, #12
   216ac:	2104      	movs	r1, #4
   216ae:	7201      	strb	r1, [r0, #8]
   216b0:	9604      	str	r6, [sp, #16]
   216b2:	4819      	ldr	r0, [pc, #100]	@ (21718 <_ZN20complex_full_dynamic3app17h4b93e042eb449a81E+0xac>)
   216b4:	9003      	str	r0, [sp, #12]
   216b6:	2407      	movs	r4, #7
   216b8:	2336      	movs	r3, #54	@ 0x36
   216ba:	4621      	mov	r1, r4
   216bc:	462a      	mov	r2, r5
   216be:	df03      	svc	3
   216c0:	2802      	cmp	r0, #2
   216c2:	d00c      	beq.n	216de <_ZN20complex_full_dynamic3app17h4b93e042eb449a81E+0x72>
   216c4:	a80a      	add	r0, sp, #40	@ 0x28
   216c6:	2103      	movs	r1, #3
   216c8:	7201      	strb	r1, [r0, #8]
   216ca:	4813      	ldr	r0, [pc, #76]	@ (21718 <_ZN20complex_full_dynamic3app17h4b93e042eb449a81E+0xac>)
   216cc:	900a      	str	r0, [sp, #40]	@ 0x28
   216ce:	940b      	str	r4, [sp, #44]	@ 0x2c
   216d0:	2101      	movs	r1, #1
   216d2:	2300      	movs	r3, #0
   216d4:	4622      	mov	r2, r4
   216d6:	9301      	str	r3, [sp, #4]
   216d8:	df02      	svc	2
   216da:	287f      	cmp	r0, #127	@ 0x7f
   216dc:	d80a      	bhi.n	216f4 <_ZN20complex_full_dynamic3app17h4b93e042eb449a81E+0x88>
   216de:	9c02      	ldr	r4, [sp, #8]
   216e0:	6061      	str	r1, [r4, #4]
   216e2:	7026      	strb	r6, [r4, #0]
   216e4:	a80a      	add	r0, sp, #40	@ 0x28
   216e6:	f005 fc17 	bl	26f18 <_ZN9allow_pin12full_dynamic17unshare_if_shared17h34fb2a9288def0c2E>
   216ea:	a803      	add	r0, sp, #12
   216ec:	f005 fc14 	bl	26f18 <_ZN9allow_pin12full_dynamic17unshare_if_shared17h34fb2a9288def0c2E>
   216f0:	b01b      	add	sp, #108	@ 0x6c
   216f2:	bdf0      	pop	{r4, r5, r6, r7, pc}
   216f4:	a803      	add	r0, sp, #12
   216f6:	f005 fc0f 	bl	26f18 <_ZN9allow_pin12full_dynamic17unshare_if_shared17h34fb2a9288def0c2E>
   216fa:	ac0a      	add	r4, sp, #40	@ 0x28
   216fc:	4620      	mov	r0, r4
   216fe:	f005 fc0b 	bl	26f18 <_ZN9allow_pin12full_dynamic17unshare_if_shared17h34fb2a9288def0c2E>
   21702:	4620      	mov	r0, r4
   21704:	f005 fc08 	bl	26f18 <_ZN9allow_pin12full_dynamic17unshare_if_shared17h34fb2a9288def0c2E>
   21708:	9c02      	ldr	r4, [sp, #8]
   2170a:	1c60      	adds	r0, r4, #1
   2170c:	2236      	movs	r2, #54	@ 0x36
   2170e:	4629      	mov	r1, r5
   21710:	f005 fdc3 	bl	2729a <__aeabi_memcpy>
   21714:	9e01      	ldr	r6, [sp, #4]
   21716:	e7e4      	b.n	216e2 <_ZN20complex_full_dynamic3app17h4b93e042eb449a81E+0x76>
   21718:	00001989 	.word	0x00001989

0002171c <_ZN20complex_full_dynamic3app17h4e1b81f200e6650dE>:
   2171c:	b5f0      	push	{r4, r5, r6, r7, lr}
   2171e:	af03      	add	r7, sp, #12
   21720:	b09b      	sub	sp, #108	@ 0x6c
   21722:	9003      	str	r0, [sp, #12]
   21724:	ac04      	add	r4, sp, #16
   21726:	2002      	movs	r0, #2
   21728:	9002      	str	r0, [sp, #8]
   2172a:	7220      	strb	r0, [r4, #8]
   2172c:	340c      	adds	r4, #12
   2172e:	221e      	movs	r2, #30
   21730:	9201      	str	r2, [sp, #4]
   21732:	4620      	mov	r0, r4
   21734:	f005 fdb1 	bl	2729a <__aeabi_memcpy>
   21738:	ae0f      	add	r6, sp, #60	@ 0x3c
   2173a:	4635      	mov	r5, r6
   2173c:	350c      	adds	r5, #12
   2173e:	2121      	movs	r1, #33	@ 0x21
   21740:	4628      	mov	r0, r5
   21742:	f005 fbfd 	bl	26f40 <__aeabi_memclr4>
   21746:	9802      	ldr	r0, [sp, #8]
   21748:	7230      	strb	r0, [r6, #8]
   2174a:	4820      	ldr	r0, [pc, #128]	@ (217cc <_ZN20complex_full_dynamic3app17h4e1b81f200e6650dE+0xb0>)
   2174c:	2606      	movs	r6, #6
   2174e:	4631      	mov	r1, r6
   21750:	4622      	mov	r2, r4
   21752:	9b01      	ldr	r3, [sp, #4]
   21754:	df04      	svc	4
   21756:	2802      	cmp	r0, #2
   21758:	d01a      	beq.n	21790 <_ZN20complex_full_dynamic3app17h4e1b81f200e6650dE+0x74>
   2175a:	a804      	add	r0, sp, #16
   2175c:	2104      	movs	r1, #4
   2175e:	7201      	strb	r1, [r0, #8]
   21760:	9605      	str	r6, [sp, #20]
   21762:	4e1a      	ldr	r6, [pc, #104]	@ (217cc <_ZN20complex_full_dynamic3app17h4e1b81f200e6650dE+0xb0>)
   21764:	9604      	str	r6, [sp, #16]
   21766:	2409      	movs	r4, #9
   21768:	2321      	movs	r3, #33	@ 0x21
   2176a:	4630      	mov	r0, r6
   2176c:	4621      	mov	r1, r4
   2176e:	462a      	mov	r2, r5
   21770:	df03      	svc	3
   21772:	2802      	cmp	r0, #2
   21774:	d00c      	beq.n	21790 <_ZN20complex_full_dynamic3app17h4e1b81f200e6650dE+0x74>
   21776:	a80f      	add	r0, sp, #60	@ 0x3c
   21778:	2103      	movs	r1, #3
   2177a:	7201      	strb	r1, [r0, #8]
   2177c:	960f      	str	r6, [sp, #60]	@ 0x3c
   2177e:	9410      	str	r4, [sp, #64]	@ 0x40
   21780:	4812      	ldr	r0, [pc, #72]	@ (217cc <_ZN20complex_full_dynamic3app17h4e1b81f200e6650dE+0xb0>)
   21782:	2106      	movs	r1, #6
   21784:	2600      	movs	r6, #0
   21786:	4622      	mov	r2, r4
   21788:	4633      	mov	r3, r6
   2178a:	df02      	svc	2
   2178c:	287f      	cmp	r0, #127	@ 0x7f
   2178e:	d80b      	bhi.n	217a8 <_ZN20complex_full_dynamic3app17h4e1b81f200e6650dE+0x8c>
   21790:	9c03      	ldr	r4, [sp, #12]
   21792:	6061      	str	r1, [r4, #4]
   21794:	2601      	movs	r6, #1
   21796:	7026      	strb	r6, [r4, #0]
   21798:	a80f      	add	r0, sp, #60	@ 0x3c
   2179a:	f005 fbbd 	bl	26f18 <_ZN9allow_pin12full_dynamic17unshare_if_shared17h34fb2a9288def0c2E>
   2179e:	a804      	add	r0, sp, #16
   217a0:	f005 fbba 	bl	26f18 <_ZN9allow_pin12full_dynamic17unshare_if_shared17h34fb2a9288def0c2E>
   217a4:	b01b      	add	sp, #108	@ 0x6c
   217a6:	bdf0      	pop	{r4, r5, r6, r7, pc}
   217a8:	a804      	add	r0, sp, #16
   217aa:	f005 fbb5 	bl	26f18 <_ZN9allow_pin12full_dynamic17unshare_if_shared17h34fb2a9288def0c2E>
   217ae:	ac0f      	add	r4, sp, #60	@ 0x3c
   217b0:	4620      	mov	r0, r4
   217b2:	f005 fbb1 	bl	26f18 <_ZN9allow_pin12full_dynamic17unshare_if_shared17h34fb2a9288def0c2E>
   217b6:	4620      	mov	r0, r4
   217b8:	f005 fbae 	bl	26f18 <_ZN9allow_pin12full_dynamic17unshare_if_shared17h34fb2a9288def0c2E>
   217bc:	9c03      	ldr	r4, [sp, #12]
   217be:	1c60      	adds	r0, r4, #1
   217c0:	2221      	movs	r2, #33	@ 0x21
   217c2:	4629      	mov	r1, r5
   217c4:	f005 fd69 	bl	2729a <__aeabi_memcpy>
   217c8:	e7e5      	b.n	21796 <_ZN20complex_full_dynamic3app17h4e1b81f200e6650dE+0x7a>
   217ca:	46c0      	nop			@ (mov r8, r8)
   217cc:	000019b5 	.word	0x000019b5

000217d0 <_ZN20complex_full_dynamic3app17h5227381bda777873E>:
   217d0:	b5f0      	push	{r4, r5, r6, r7, lr}
   217d2:	af03      	add	r7, sp, #12
   217d4:	b0a5      	sub	sp, #148	@ 0x94
   217d6:	9001      	str	r0, [sp, #4]
   217d8:	ae02      	add	r6, sp, #8
   217da:	2502      	movs	r5, #2
   217dc:	7235      	strb	r5, [r6, #8]
   217de:	360c      	adds	r6, #12
   217e0:	225d      	movs	r2, #93	@ 0x5d
   217e2:	9200      	str	r2, [sp, #0]
   217e4:	4630      	mov	r0, r6
   217e6:	f005 fd58 	bl	2729a <__aeabi_memcpy>
   217ea:	a81d      	add	r0, sp, #116	@ 0x74
   217ec:	2400      	movs	r4, #0
   217ee:	8384      	strh	r4, [r0, #28]
   217f0:	7205      	strb	r5, [r0, #8]
   217f2:	4605      	mov	r5, r0
   217f4:	9423      	str	r4, [sp, #140]	@ 0x8c
   217f6:	9422      	str	r4, [sp, #136]	@ 0x88
   217f8:	9421      	str	r4, [sp, #132]	@ 0x84
   217fa:	9420      	str	r4, [sp, #128]	@ 0x80
   217fc:	481f      	ldr	r0, [pc, #124]	@ (2187c <_ZN20complex_full_dynamic3app17h5227381bda777873E+0xac>)
   217fe:	4621      	mov	r1, r4
   21800:	4632      	mov	r2, r6
   21802:	9b00      	ldr	r3, [sp, #0]
   21804:	df04      	svc	4
   21806:	2802      	cmp	r0, #2
   21808:	d01b      	beq.n	21842 <_ZN20complex_full_dynamic3app17h5227381bda777873E+0x72>
   2180a:	350c      	adds	r5, #12
   2180c:	a802      	add	r0, sp, #8
   2180e:	2104      	movs	r1, #4
   21810:	7201      	strb	r1, [r0, #8]
   21812:	9403      	str	r4, [sp, #12]
   21814:	4e19      	ldr	r6, [pc, #100]	@ (2187c <_ZN20complex_full_dynamic3app17h5227381bda777873E+0xac>)
   21816:	9602      	str	r6, [sp, #8]
   21818:	2402      	movs	r4, #2
   2181a:	2312      	movs	r3, #18
   2181c:	4630      	mov	r0, r6
   2181e:	4621      	mov	r1, r4
   21820:	462a      	mov	r2, r5
   21822:	df03      	svc	3
   21824:	2802      	cmp	r0, #2
   21826:	d00c      	beq.n	21842 <_ZN20complex_full_dynamic3app17h5227381bda777873E+0x72>
   21828:	a81d      	add	r0, sp, #116	@ 0x74
   2182a:	2103      	movs	r1, #3
   2182c:	7201      	strb	r1, [r0, #8]
   2182e:	961d      	str	r6, [sp, #116]	@ 0x74
   21830:	941e      	str	r4, [sp, #120]	@ 0x78
   21832:	4812      	ldr	r0, [pc, #72]	@ (2187c <_ZN20complex_full_dynamic3app17h5227381bda777873E+0xac>)
   21834:	2600      	movs	r6, #0
   21836:	4631      	mov	r1, r6
   21838:	4622      	mov	r2, r4
   2183a:	4633      	mov	r3, r6
   2183c:	df02      	svc	2
   2183e:	287f      	cmp	r0, #127	@ 0x7f
   21840:	d80b      	bhi.n	2185a <_ZN20complex_full_dynamic3app17h5227381bda777873E+0x8a>
   21842:	9c01      	ldr	r4, [sp, #4]
   21844:	6061      	str	r1, [r4, #4]
   21846:	2601      	movs	r6, #1
   21848:	7026      	strb	r6, [r4, #0]
   2184a:	a81d      	add	r0, sp, #116	@ 0x74
   2184c:	f005 fb64 	bl	26f18 <_ZN9allow_pin12full_dynamic17unshare_if_shared17h34fb2a9288def0c2E>
   21850:	a802      	add	r0, sp, #8
   21852:	f005 fb61 	bl	26f18 <_ZN9allow_pin12full_dynamic17unshare_if_shared17h34fb2a9288def0c2E>
   21856:	b025      	add	sp, #148	@ 0x94
   21858:	bdf0      	pop	{r4, r5, r6, r7, pc}
   2185a:	a802      	add	r0, sp, #8
   2185c:	f005 fb5c 	bl	26f18 <_ZN9allow_pin12full_dynamic17unshare_if_shared17h34fb2a9288def0c2E>
   21860:	ac1d      	add	r4, sp, #116	@ 0x74
   21862:	4620      	mov	r0, r4
   21864:	f005 fb58 	bl	26f18 <_ZN9allow_pin12full_dynamic17unshare_if_shared17h34fb2a9288def0c2E>
   21868:	4620      	mov	r0, r4
   2186a:	f005 fb55 	bl	26f18 <_ZN9allow_pin12full_dynamic17unshare_if_shared17h34fb2a9288def0c2E>
   2186e:	9c01      	ldr	r4, [sp, #4]
   21870:	1c60      	adds	r0, r4, #1
   21872:	2212      	movs	r2, #18
   21874:	4629      	mov	r1, r5
   21876:	f005 fd10 	bl	2729a <__aeabi_memcpy>
   2187a:	e7e5      	b.n	21848 <_ZN20complex_full_dynamic3app17h5227381bda777873E+0x78>
   2187c:	000015f1 	.word	0x000015f1

00021880 <_ZN20complex_full_dynamic3app17h5380d8bd394b1473E>:
   21880:	b5f0      	push	{r4, r5, r6, r7, lr}
   21882:	af03      	add	r7, sp, #12
   21884:	b09d      	sub	sp, #116	@ 0x74
   21886:	9001      	str	r0, [sp, #4]
   21888:	ac02      	add	r4, sp, #8
   2188a:	2502      	movs	r5, #2
   2188c:	7225      	strb	r5, [r4, #8]
   2188e:	340c      	adds	r4, #12
   21890:	223f      	movs	r2, #63	@ 0x3f
   21892:	9200      	str	r2, [sp, #0]
   21894:	4620      	mov	r0, r4
   21896:	f005 fd00 	bl	2729a <__aeabi_memcpy>
   2189a:	ae15      	add	r6, sp, #84	@ 0x54
   2189c:	2000      	movs	r0, #0
   2189e:	7730      	strb	r0, [r6, #28]
   218a0:	7235      	strb	r5, [r6, #8]
   218a2:	901b      	str	r0, [sp, #108]	@ 0x6c
   218a4:	901a      	str	r0, [sp, #104]	@ 0x68
   218a6:	9019      	str	r0, [sp, #100]	@ 0x64
   218a8:	9018      	str	r0, [sp, #96]	@ 0x60
   218aa:	481f      	ldr	r0, [pc, #124]	@ (21928 <_ZN20complex_full_dynamic3app17h5380d8bd394b1473E+0xa8>)
   218ac:	2504      	movs	r5, #4
   218ae:	4629      	mov	r1, r5
   218b0:	4622      	mov	r2, r4
   218b2:	9b00      	ldr	r3, [sp, #0]
   218b4:	df04      	svc	4
   218b6:	2802      	cmp	r0, #2
   218b8:	d019      	beq.n	218ee <_ZN20complex_full_dynamic3app17h5380d8bd394b1473E+0x6e>
   218ba:	360c      	adds	r6, #12
   218bc:	a802      	add	r0, sp, #8
   218be:	7205      	strb	r5, [r0, #8]
   218c0:	9503      	str	r5, [sp, #12]
   218c2:	4819      	ldr	r0, [pc, #100]	@ (21928 <_ZN20complex_full_dynamic3app17h5380d8bd394b1473E+0xa8>)
   218c4:	9002      	str	r0, [sp, #8]
   218c6:	2403      	movs	r4, #3
   218c8:	2311      	movs	r3, #17
   218ca:	4621      	mov	r1, r4
   218cc:	4632      	mov	r2, r6
   218ce:	df03      	svc	3
   218d0:	2802      	cmp	r0, #2
   218d2:	d00c      	beq.n	218ee <_ZN20complex_full_dynamic3app17h5380d8bd394b1473E+0x6e>
   218d4:	4635      	mov	r5, r6
   218d6:	a815      	add	r0, sp, #84	@ 0x54
   218d8:	7204      	strb	r4, [r0, #8]
   218da:	9416      	str	r4, [sp, #88]	@ 0x58
   218dc:	4812      	ldr	r0, [pc, #72]	@ (21928 <_ZN20complex_full_dynamic3app17h5380d8bd394b1473E+0xa8>)
   218de:	9015      	str	r0, [sp, #84]	@ 0x54
   218e0:	2104      	movs	r1, #4
   218e2:	2600      	movs	r6, #0
   218e4:	4622      	mov	r2, r4
   218e6:	4633      	mov	r3, r6
   218e8:	df02      	svc	2
   218ea:	287f      	cmp	r0, #127	@ 0x7f
   218ec:	d80b      	bhi.n	21906 <_ZN20complex_full_dynamic3app17h5380d8bd394b1473E+0x86>
   218ee:	9c01      	ldr	r4, [sp, #4]
   218f0:	6061      	str	r1, [r4, #4]
   218f2:	2601      	movs	r6, #1
   218f4:	7026      	strb	r6, [r4, #0]
   218f6:	a815      	add	r0, sp, #84	@ 0x54
   218f8:	f005 fb0e 	bl	26f18 <_ZN9allow_pin12full_dynamic17unshare_if_shared17h34fb2a9288def0c2E>
   218fc:	a802      	add	r0, sp, #8
   218fe:	f005 fb0b 	bl	26f18 <_ZN9allow_pin12full_dynamic17unshare_if_shared17h34fb2a9288def0c2E>
   21902:	b01d      	add	sp, #116	@ 0x74
   21904:	bdf0      	pop	{r4, r5, r6, r7, pc}
   21906:	a802      	add	r0, sp, #8
   21908:	f005 fb06 	bl	26f18 <_ZN9allow_pin12full_dynamic17unshare_if_shared17h34fb2a9288def0c2E>
   2190c:	ac15      	add	r4, sp, #84	@ 0x54
   2190e:	4620      	mov	r0, r4
   21910:	f005 fb02 	bl	26f18 <_ZN9allow_pin12full_dynamic17unshare_if_shared17h34fb2a9288def0c2E>
   21914:	4620      	mov	r0, r4
   21916:	f005 faff 	bl	26f18 <_ZN9allow_pin12full_dynamic17unshare_if_shared17h34fb2a9288def0c2E>
   2191a:	9c01      	ldr	r4, [sp, #4]
   2191c:	1c60      	adds	r0, r4, #1
   2191e:	2211      	movs	r2, #17
   21920:	4629      	mov	r1, r5
   21922:	f005 fcba 	bl	2729a <__aeabi_memcpy>
   21926:	e7e5      	b.n	218f4 <_ZN20complex_full_dynamic3app17h5380d8bd394b1473E+0x74>
   21928:	000014d7 	.word	0x000014d7

0002192c <_ZN20complex_full_dynamic3app17h56ae4a017ef4c800E>:
   2192c:	b5f0      	push	{r4, r5, r6, r7, lr}
   2192e:	af03      	add	r7, sp, #12
   21930:	b09d      	sub	sp, #116	@ 0x74
   21932:	9002      	str	r0, [sp, #8]
   21934:	ac03      	add	r4, sp, #12
   21936:	2002      	movs	r0, #2
   21938:	9001      	str	r0, [sp, #4]
   2193a:	7220      	strb	r0, [r4, #8]
   2193c:	340c      	adds	r4, #12
   2193e:	2221      	movs	r2, #33	@ 0x21
   21940:	9200      	str	r2, [sp, #0]
   21942:	4620      	mov	r0, r4
   21944:	f005 fca9 	bl	2729a <__aeabi_memcpy>
   21948:	ae0f      	add	r6, sp, #60	@ 0x3c
   2194a:	4635      	mov	r5, r6
   2194c:	350c      	adds	r5, #12
   2194e:	212a      	movs	r1, #42	@ 0x2a
   21950:	4628      	mov	r0, r5
   21952:	f005 faf5 	bl	26f40 <__aeabi_memclr4>
   21956:	9801      	ldr	r0, [sp, #4]
   21958:	7230      	strb	r0, [r6, #8]
   2195a:	481f      	ldr	r0, [pc, #124]	@ (219d8 <_ZN20complex_full_dynamic3app17h56ae4a017ef4c800E+0xac>)
   2195c:	2601      	movs	r6, #1
   2195e:	4631      	mov	r1, r6
   21960:	4622      	mov	r2, r4
   21962:	9b00      	ldr	r3, [sp, #0]
   21964:	df04      	svc	4
   21966:	2802      	cmp	r0, #2
   21968:	d018      	beq.n	2199c <_ZN20complex_full_dynamic3app17h56ae4a017ef4c800E+0x70>
   2196a:	a803      	add	r0, sp, #12
   2196c:	2104      	movs	r1, #4
   2196e:	7201      	strb	r1, [r0, #8]
   21970:	9604      	str	r6, [sp, #16]
   21972:	4819      	ldr	r0, [pc, #100]	@ (219d8 <_ZN20complex_full_dynamic3app17h56ae4a017ef4c800E+0xac>)
   21974:	9003      	str	r0, [sp, #12]
   21976:	2403      	movs	r4, #3
   21978:	232a      	movs	r3, #42	@ 0x2a
   2197a:	4621      	mov	r1, r4
   2197c:	462a      	mov	r2, r5
   2197e:	df03      	svc	3
   21980:	2802      	cmp	r0, #2
   21982:	d00b      	beq.n	2199c <_ZN20complex_full_dynamic3app17h56ae4a017ef4c800E+0x70>
   21984:	a80f      	add	r0, sp, #60	@ 0x3c
   21986:	7204      	strb	r4, [r0, #8]
   21988:	9410      	str	r4, [sp, #64]	@ 0x40
   2198a:	4813      	ldr	r0, [pc, #76]	@ (219d8 <_ZN20complex_full_dynamic3app17h56ae4a017ef4c800E+0xac>)
   2198c:	900f      	str	r0, [sp, #60]	@ 0x3c
   2198e:	2101      	movs	r1, #1
   21990:	2300      	movs	r3, #0
   21992:	4622      	mov	r2, r4
   21994:	9301      	str	r3, [sp, #4]
   21996:	df02      	svc	2
   21998:	287f      	cmp	r0, #127	@ 0x7f
   2199a:	d80a      	bhi.n	219b2 <_ZN20complex_full_dynamic3app17h56ae4a017ef4c800E+0x86>
   2199c:	9c02      	ldr	r4, [sp, #8]
   2199e:	6061      	str	r1, [r4, #4]
   219a0:	7026      	strb	r6, [r4, #0]
   219a2:	a80f      	add	r0, sp, #60	@ 0x3c
   219a4:	f005 fab8 	bl	26f18 <_ZN9allow_pin12full_dynamic17unshare_if_shared17h34fb2a9288def0c2E>
   219a8:	a803      	add	r0, sp, #12
   219aa:	f005 fab5 	bl	26f18 <_ZN9allow_pin12full_dynamic17unshare_if_shared17h34fb2a9288def0c2E>
   219ae:	b01d      	add	sp, #116	@ 0x74
   219b0:	bdf0      	pop	{r4, r5, r6, r7, pc}
   219b2:	a803      	add	r0, sp, #12
   219b4:	f005 fab0 	bl	26f18 <_ZN9allow_pin12full_dynamic17unshare_if_shared17h34fb2a9288def0c2E>
   219b8:	ac0f      	add	r4, sp, #60	@ 0x3c
   219ba:	4620      	mov	r0, r4
   219bc:	f005 faac 	bl	26f18 <_ZN9allow_pin12full_dynamic17unshare_if_shared17h34fb2a9288def0c2E>
   219c0:	4620      	mov	r0, r4
   219c2:	f005 faa9 	bl	26f18 <_ZN9allow_pin12full_dynamic17unshare_if_shared17h34fb2a9288def0c2E>
   219c6:	9c02      	ldr	r4, [sp, #8]
   219c8:	1c60      	adds	r0, r4, #1
   219ca:	222a      	movs	r2, #42	@ 0x2a
   219cc:	4629      	mov	r1, r5
   219ce:	f005 fc64 	bl	2729a <__aeabi_memcpy>
   219d2:	9e01      	ldr	r6, [sp, #4]
   219d4:	e7e4      	b.n	219a0 <_ZN20complex_full_dynamic3app17h56ae4a017ef4c800E+0x74>
   219d6:	46c0      	nop			@ (mov r8, r8)
   219d8:	000015f3 	.word	0x000015f3

000219dc <_ZN20complex_full_dynamic3app17h576b4c466efcf2a0E>:
   219dc:	b5f0      	push	{r4, r5, r6, r7, lr}
   219de:	af03      	add	r7, sp, #12
   219e0:	b0a3      	sub	sp, #140	@ 0x8c
   219e2:	9003      	str	r0, [sp, #12]
   219e4:	ac04      	add	r4, sp, #16
   219e6:	2602      	movs	r6, #2
   219e8:	7226      	strb	r6, [r4, #8]
   219ea:	340c      	adds	r4, #12
   219ec:	2234      	movs	r2, #52	@ 0x34
   219ee:	9202      	str	r2, [sp, #8]
   219f0:	4620      	mov	r0, r4
   219f2:	f005 fc52 	bl	2729a <__aeabi_memcpy>
   219f6:	ad14      	add	r5, sp, #80	@ 0x50
   219f8:	4628      	mov	r0, r5
   219fa:	300c      	adds	r0, #12
   219fc:	212e      	movs	r1, #46	@ 0x2e
   219fe:	9001      	str	r0, [sp, #4]
   21a00:	f005 fa9e 	bl	26f40 <__aeabi_memclr4>
   21a04:	722e      	strb	r6, [r5, #8]
   21a06:	4635      	mov	r5, r6
   21a08:	4e1f      	ldr	r6, [pc, #124]	@ (21a88 <_ZN20complex_full_dynamic3app17h576b4c466efcf2a0E+0xac>)
   21a0a:	4630      	mov	r0, r6
   21a0c:	4629      	mov	r1, r5
   21a0e:	4622      	mov	r2, r4
   21a10:	9b02      	ldr	r3, [sp, #8]
   21a12:	df04      	svc	4
   21a14:	2802      	cmp	r0, #2
   21a16:	d01a      	beq.n	21a4e <_ZN20complex_full_dynamic3app17h576b4c466efcf2a0E+0x72>
   21a18:	a804      	add	r0, sp, #16
   21a1a:	2104      	movs	r1, #4
   21a1c:	7201      	strb	r1, [r0, #8]
   21a1e:	9505      	str	r5, [sp, #20]
   21a20:	9604      	str	r6, [sp, #16]
   21a22:	2408      	movs	r4, #8
   21a24:	232e      	movs	r3, #46	@ 0x2e
   21a26:	4630      	mov	r0, r6
   21a28:	4621      	mov	r1, r4
   21a2a:	9d01      	ldr	r5, [sp, #4]
   21a2c:	462a      	mov	r2, r5
   21a2e:	df03      	svc	3
   21a30:	2802      	cmp	r0, #2
   21a32:	d00c      	beq.n	21a4e <_ZN20complex_full_dynamic3app17h576b4c466efcf2a0E+0x72>
   21a34:	a814      	add	r0, sp, #80	@ 0x50
   21a36:	2103      	movs	r1, #3
   21a38:	7201      	strb	r1, [r0, #8]
   21a3a:	9614      	str	r6, [sp, #80]	@ 0x50
   21a3c:	9415      	str	r4, [sp, #84]	@ 0x54
   21a3e:	4812      	ldr	r0, [pc, #72]	@ (21a88 <_ZN20complex_full_dynamic3app17h576b4c466efcf2a0E+0xac>)
   21a40:	2102      	movs	r1, #2
   21a42:	2600      	movs	r6, #0
   21a44:	4622      	mov	r2, r4
   21a46:	4633      	mov	r3, r6
   21a48:	df02      	svc	2
   21a4a:	287f      	cmp	r0, #127	@ 0x7f
   21a4c:	d80b      	bhi.n	21a66 <_ZN20complex_full_dynamic3app17h576b4c466efcf2a0E+0x8a>
   21a4e:	9c03      	ldr	r4, [sp, #12]
   21a50:	6061      	str	r1, [r4, #4]
   21a52:	2601      	movs	r6, #1
   21a54:	7026      	strb	r6, [r4, #0]
   21a56:	a814      	add	r0, sp, #80	@ 0x50
   21a58:	f005 fa5e 	bl	26f18 <_ZN9allow_pin12full_dynamic17unshare_if_shared17h34fb2a9288def0c2E>
   21a5c:	a804      	add	r0, sp, #16
   21a5e:	f005 fa5b 	bl	26f18 <_ZN9allow_pin12full_dynamic17unshare_if_shared17h34fb2a9288def0c2E>
   21a62:	b023      	add	sp, #140	@ 0x8c
   21a64:	bdf0      	pop	{r4, r5, r6, r7, pc}
   21a66:	a804      	add	r0, sp, #16
   21a68:	f005 fa56 	bl	26f18 <_ZN9allow_pin12full_dynamic17unshare_if_shared17h34fb2a9288def0c2E>
   21a6c:	ac14      	add	r4, sp, #80	@ 0x50
   21a6e:	4620      	mov	r0, r4
   21a70:	f005 fa52 	bl	26f18 <_ZN9allow_pin12full_dynamic17unshare_if_shared17h34fb2a9288def0c2E>
   21a74:	4620      	mov	r0, r4
   21a76:	f005 fa4f 	bl	26f18 <_ZN9allow_pin12full_dynamic17unshare_if_shared17h34fb2a9288def0c2E>
   21a7a:	9c03      	ldr	r4, [sp, #12]
   21a7c:	1c60      	adds	r0, r4, #1
   21a7e:	222e      	movs	r2, #46	@ 0x2e
   21a80:	4629      	mov	r1, r5
   21a82:	f005 fc0a 	bl	2729a <__aeabi_memcpy>
   21a86:	e7e5      	b.n	21a54 <_ZN20complex_full_dynamic3app17h576b4c466efcf2a0E+0x78>
   21a88:	00000209 	.word	0x00000209

00021a8c <_ZN20complex_full_dynamic3app17h57cdab96618ebed7E>:
   21a8c:	b5f0      	push	{r4, r5, r6, r7, lr}
   21a8e:	af03      	add	r7, sp, #12
   21a90:	b0a1      	sub	sp, #132	@ 0x84
   21a92:	9002      	str	r0, [sp, #8]
   21a94:	ae03      	add	r6, sp, #12
   21a96:	2002      	movs	r0, #2
   21a98:	9000      	str	r0, [sp, #0]
   21a9a:	7230      	strb	r0, [r6, #8]
   21a9c:	360c      	adds	r6, #12
   21a9e:	221b      	movs	r2, #27
   21aa0:	9201      	str	r2, [sp, #4]
   21aa2:	4630      	mov	r0, r6
   21aa4:	f005 fbf9 	bl	2729a <__aeabi_memcpy>
   21aa8:	ad0d      	add	r5, sp, #52	@ 0x34
   21aaa:	462c      	mov	r4, r5
   21aac:	340c      	adds	r4, #12
   21aae:	2141      	movs	r1, #65	@ 0x41
   21ab0:	4620      	mov	r0, r4
   21ab2:	f005 fa45 	bl	26f40 <__aeabi_memclr4>
   21ab6:	9800      	ldr	r0, [sp, #0]
   21ab8:	7228      	strb	r0, [r5, #8]
   21aba:	2005      	movs	r0, #5
   21abc:	0180      	lsls	r0, r0, #6
   21abe:	2508      	movs	r5, #8
   21ac0:	9000      	str	r0, [sp, #0]
   21ac2:	4629      	mov	r1, r5
   21ac4:	4632      	mov	r2, r6
   21ac6:	9b01      	ldr	r3, [sp, #4]
   21ac8:	df04      	svc	4
   21aca:	2802      	cmp	r0, #2
   21acc:	d019      	beq.n	21b02 <_ZN20complex_full_dynamic3app17h57cdab96618ebed7E+0x76>
   21ace:	a803      	add	r0, sp, #12
   21ad0:	2104      	movs	r1, #4
   21ad2:	7201      	strb	r1, [r0, #8]
   21ad4:	9504      	str	r5, [sp, #16]
   21ad6:	9800      	ldr	r0, [sp, #0]
   21ad8:	9003      	str	r0, [sp, #12]
   21ada:	2509      	movs	r5, #9
   21adc:	2341      	movs	r3, #65	@ 0x41
   21ade:	4629      	mov	r1, r5
   21ae0:	4622      	mov	r2, r4
   21ae2:	df03      	svc	3
   21ae4:	2802      	cmp	r0, #2
   21ae6:	d00c      	beq.n	21b02 <_ZN20complex_full_dynamic3app17h57cdab96618ebed7E+0x76>
   21ae8:	a80d      	add	r0, sp, #52	@ 0x34
   21aea:	2103      	movs	r1, #3
   21aec:	7201      	strb	r1, [r0, #8]
   21aee:	9800      	ldr	r0, [sp, #0]
   21af0:	900d      	str	r0, [sp, #52]	@ 0x34
   21af2:	950e      	str	r5, [sp, #56]	@ 0x38
   21af4:	2108      	movs	r1, #8
   21af6:	2600      	movs	r6, #0
   21af8:	462a      	mov	r2, r5
   21afa:	4633      	mov	r3, r6
   21afc:	df02      	svc	2
   21afe:	287f      	cmp	r0, #127	@ 0x7f
   21b00:	d80b      	bhi.n	21b1a <_ZN20complex_full_dynamic3app17h57cdab96618ebed7E+0x8e>
   21b02:	9c02      	ldr	r4, [sp, #8]
   21b04:	6061      	str	r1, [r4, #4]
   21b06:	2601      	movs	r6, #1
   21b08:	7026      	strb	r6, [r4, #0]
   21b0a:	a80d      	add	r0, sp, #52	@ 0x34
   21b0c:	f005 fa04 	bl	26f18 <_ZN9allow_pin12full_dynamic17unshare_if_shared17h34fb2a9288def0c2E>
   21b10:	a803      	add	r0, sp, #12
   21b12:	f005 fa01 	bl	26f18 <_ZN9allow_pin12full_dynamic17unshare_if_shared17h34fb2a9288def0c2E>
   21b16:	b021      	add	sp, #132	@ 0x84
   21b18:	bdf0      	pop	{r4, r5, r6, r7, pc}
   21b1a:	a803      	add	r0, sp, #12
   21b1c:	f005 f9fc 	bl	26f18 <_ZN9allow_pin12full_dynamic17unshare_if_shared17h34fb2a9288def0c2E>
   21b20:	4625      	mov	r5, r4
   21b22:	ac0d      	add	r4, sp, #52	@ 0x34
   21b24:	4620      	mov	r0, r4
   21b26:	f005 f9f7 	bl	26f18 <_ZN9allow_pin12full_dynamic17unshare_if_shared17h34fb2a9288def0c2E>
   21b2a:	4620      	mov	r0, r4
   21b2c:	f005 f9f4 	bl	26f18 <_ZN9allow_pin12full_dynamic17unshare_if_shared17h34fb2a9288def0c2E>
   21b30:	9c02      	ldr	r4, [sp, #8]
   21b32:	1c60      	adds	r0, r4, #1
   21b34:	2241      	movs	r2, #65	@ 0x41
   21b36:	4629      	mov	r1, r5
   21b38:	f005 fbaf 	bl	2729a <__aeabi_memcpy>
   21b3c:	e7e4      	b.n	21b08 <_ZN20complex_full_dynamic3app17h57cdab96618ebed7E+0x7c>
   21b3e:	d4d4      	bmi.n	21aea <_ZN20complex_full_dynamic3app17h57cdab96618ebed7E+0x5e>

00021b40 <_ZN20complex_full_dynamic3app17h59d3d79599368273E>:
   21b40:	b5f0      	push	{r4, r5, r6, r7, lr}
   21b42:	af03      	add	r7, sp, #12
   21b44:	b0b3      	sub	sp, #204	@ 0xcc
   21b46:	9003      	str	r0, [sp, #12]
   21b48:	ae04      	add	r6, sp, #16
   21b4a:	2002      	movs	r0, #2
   21b4c:	9002      	str	r0, [sp, #8]
   21b4e:	7230      	strb	r0, [r6, #8]
   21b50:	360c      	adds	r6, #12
   21b52:	2256      	movs	r2, #86	@ 0x56
   21b54:	9201      	str	r2, [sp, #4]
   21b56:	4630      	mov	r0, r6
   21b58:	f005 fb9f 	bl	2729a <__aeabi_memcpy>
   21b5c:	ad1d      	add	r5, sp, #116	@ 0x74
   21b5e:	462c      	mov	r4, r5
   21b60:	340c      	adds	r4, #12
   21b62:	2149      	movs	r1, #73	@ 0x49
   21b64:	4620      	mov	r0, r4
   21b66:	f005 f9eb 	bl	26f40 <__aeabi_memclr4>
   21b6a:	9802      	ldr	r0, [sp, #8]
   21b6c:	7228      	strb	r0, [r5, #8]
   21b6e:	4820      	ldr	r0, [pc, #128]	@ (21bf0 <_ZN20complex_full_dynamic3app17h59d3d79599368273E+0xb0>)
   21b70:	2506      	movs	r5, #6
   21b72:	4629      	mov	r1, r5
   21b74:	4632      	mov	r2, r6
   21b76:	9b01      	ldr	r3, [sp, #4]
   21b78:	df04      	svc	4
   21b7a:	2802      	cmp	r0, #2
   21b7c:	d019      	beq.n	21bb2 <_ZN20complex_full_dynamic3app17h59d3d79599368273E+0x72>
   21b7e:	a804      	add	r0, sp, #16
   21b80:	2104      	movs	r1, #4
   21b82:	7201      	strb	r1, [r0, #8]
   21b84:	4e1a      	ldr	r6, [pc, #104]	@ (21bf0 <_ZN20complex_full_dynamic3app17h59d3d79599368273E+0xb0>)
   21b86:	9604      	str	r6, [sp, #16]
   21b88:	9505      	str	r5, [sp, #20]
   21b8a:	2349      	movs	r3, #73	@ 0x49
   21b8c:	4630      	mov	r0, r6
   21b8e:	4629      	mov	r1, r5
   21b90:	4622      	mov	r2, r4
   21b92:	df03      	svc	3
   21b94:	2802      	cmp	r0, #2
   21b96:	d00c      	beq.n	21bb2 <_ZN20complex_full_dynamic3app17h59d3d79599368273E+0x72>
   21b98:	a81d      	add	r0, sp, #116	@ 0x74
   21b9a:	2103      	movs	r1, #3
   21b9c:	7201      	strb	r1, [r0, #8]
   21b9e:	961d      	str	r6, [sp, #116]	@ 0x74
   21ba0:	951e      	str	r5, [sp, #120]	@ 0x78
   21ba2:	4813      	ldr	r0, [pc, #76]	@ (21bf0 <_ZN20complex_full_dynamic3app17h59d3d79599368273E+0xb0>)
   21ba4:	2600      	movs	r6, #0
   21ba6:	4629      	mov	r1, r5
   21ba8:	462a      	mov	r2, r5
   21baa:	4633      	mov	r3, r6
   21bac:	df02      	svc	2
   21bae:	287f      	cmp	r0, #127	@ 0x7f
   21bb0:	d80b      	bhi.n	21bca <_ZN20complex_full_dynamic3app17h59d3d79599368273E+0x8a>
   21bb2:	9c03      	ldr	r4, [sp, #12]
   21bb4:	6061      	str	r1, [r4, #4]
   21bb6:	2601      	movs	r6, #1
   21bb8:	7026      	strb	r6, [r4, #0]
   21bba:	a81d      	add	r0, sp, #116	@ 0x74
   21bbc:	f005 f9ac 	bl	26f18 <_ZN9allow_pin12full_dynamic17unshare_if_shared17h34fb2a9288def0c2E>
   21bc0:	a804      	add	r0, sp, #16
   21bc2:	f005 f9a9 	bl	26f18 <_ZN9allow_pin12full_dynamic17unshare_if_shared17h34fb2a9288def0c2E>
   21bc6:	b033      	add	sp, #204	@ 0xcc
   21bc8:	bdf0      	pop	{r4, r5, r6, r7, pc}
   21bca:	a804      	add	r0, sp, #16
   21bcc:	f005 f9a4 	bl	26f18 <_ZN9allow_pin12full_dynamic17unshare_if_shared17h34fb2a9288def0c2E>
   21bd0:	4625      	mov	r5, r4
   21bd2:	ac1d      	add	r4, sp, #116	@ 0x74
   21bd4:	4620      	mov	r0, r4
   21bd6:	f005 f99f 	bl	26f18 <_ZN9allow_pin12full_dynamic17unshare_if_shared17h34fb2a9288def0c2E>
   21bda:	4620      	mov	r0, r4
   21bdc:	f005 f99c 	bl	26f18 <_ZN9allow_pin12full_dynamic17unshare_if_shared17h34fb2a9288def0c2E>
   21be0:	9c03      	ldr	r4, [sp, #12]
   21be2:	1c60      	adds	r0, r4, #1
   21be4:	2249      	movs	r2, #73	@ 0x49
   21be6:	4629      	mov	r1, r5
   21be8:	f005 fb57 	bl	2729a <__aeabi_memcpy>
   21bec:	e7e4      	b.n	21bb8 <_ZN20complex_full_dynamic3app17h59d3d79599368273E+0x78>
   21bee:	46c0      	nop			@ (mov r8, r8)
   21bf0:	00001c6b 	.word	0x00001c6b

00021bf4 <_ZN20complex_full_dynamic3app17h6a801c8c71aa835eE>:
   21bf4:	b5f0      	push	{r4, r5, r6, r7, lr}
   21bf6:	af03      	add	r7, sp, #12
   21bf8:	b0a5      	sub	sp, #148	@ 0x94
   21bfa:	9003      	str	r0, [sp, #12]
   21bfc:	ac04      	add	r4, sp, #16
   21bfe:	2002      	movs	r0, #2
   21c00:	9002      	str	r0, [sp, #8]
   21c02:	7220      	strb	r0, [r4, #8]
   21c04:	340c      	adds	r4, #12
   21c06:	221a      	movs	r2, #26
   21c08:	9201      	str	r2, [sp, #4]
   21c0a:	4620      	mov	r0, r4
   21c0c:	f005 fb45 	bl	2729a <__aeabi_memcpy>
   21c10:	ae0e      	add	r6, sp, #56	@ 0x38
   21c12:	4635      	mov	r5, r6
   21c14:	350c      	adds	r5, #12
   21c16:	2150      	movs	r1, #80	@ 0x50
   21c18:	4628      	mov	r0, r5
   21c1a:	f005 f991 	bl	26f40 <__aeabi_memclr4>
   21c1e:	9802      	ldr	r0, [sp, #8]
   21c20:	7230      	strb	r0, [r6, #8]
   21c22:	481f      	ldr	r0, [pc, #124]	@ (21ca0 <_ZN20complex_full_dynamic3app17h6a801c8c71aa835eE+0xac>)
   21c24:	2607      	movs	r6, #7
   21c26:	4631      	mov	r1, r6
   21c28:	4622      	mov	r2, r4
   21c2a:	9b01      	ldr	r3, [sp, #4]
   21c2c:	df04      	svc	4
   21c2e:	2802      	cmp	r0, #2
   21c30:	d019      	beq.n	21c66 <_ZN20complex_full_dynamic3app17h6a801c8c71aa835eE+0x72>
   21c32:	a804      	add	r0, sp, #16
   21c34:	2404      	movs	r4, #4
   21c36:	7204      	strb	r4, [r0, #8]
   21c38:	9605      	str	r6, [sp, #20]
   21c3a:	4e19      	ldr	r6, [pc, #100]	@ (21ca0 <_ZN20complex_full_dynamic3app17h6a801c8c71aa835eE+0xac>)
   21c3c:	9604      	str	r6, [sp, #16]
   21c3e:	2350      	movs	r3, #80	@ 0x50
   21c40:	4630      	mov	r0, r6
   21c42:	4621      	mov	r1, r4
   21c44:	462a      	mov	r2, r5
   21c46:	df03      	svc	3
   21c48:	2802      	cmp	r0, #2
   21c4a:	d00c      	beq.n	21c66 <_ZN20complex_full_dynamic3app17h6a801c8c71aa835eE+0x72>
   21c4c:	a80e      	add	r0, sp, #56	@ 0x38
   21c4e:	2103      	movs	r1, #3
   21c50:	7201      	strb	r1, [r0, #8]
   21c52:	960e      	str	r6, [sp, #56]	@ 0x38
   21c54:	940f      	str	r4, [sp, #60]	@ 0x3c
   21c56:	4812      	ldr	r0, [pc, #72]	@ (21ca0 <_ZN20complex_full_dynamic3app17h6a801c8c71aa835eE+0xac>)
   21c58:	2107      	movs	r1, #7
   21c5a:	2600      	movs	r6, #0
   21c5c:	4622      	mov	r2, r4
   21c5e:	4633      	mov	r3, r6
   21c60:	df02      	svc	2
   21c62:	287f      	cmp	r0, #127	@ 0x7f
   21c64:	d80b      	bhi.n	21c7e <_ZN20complex_full_dynamic3app17h6a801c8c71aa835eE+0x8a>
   21c66:	9c03      	ldr	r4, [sp, #12]
   21c68:	6061      	str	r1, [r4, #4]
   21c6a:	2601      	movs	r6, #1
   21c6c:	7026      	strb	r6, [r4, #0]
   21c6e:	a80e      	add	r0, sp, #56	@ 0x38
   21c70:	f005 f952 	bl	26f18 <_ZN9allow_pin12full_dynamic17unshare_if_shared17h34fb2a9288def0c2E>
   21c74:	a804      	add	r0, sp, #16
   21c76:	f005 f94f 	bl	26f18 <_ZN9allow_pin12full_dynamic17unshare_if_shared17h34fb2a9288def0c2E>
   21c7a:	b025      	add	sp, #148	@ 0x94
   21c7c:	bdf0      	pop	{r4, r5, r6, r7, pc}
   21c7e:	a804      	add	r0, sp, #16
   21c80:	f005 f94a 	bl	26f18 <_ZN9allow_pin12full_dynamic17unshare_if_shared17h34fb2a9288def0c2E>
   21c84:	ac0e      	add	r4, sp, #56	@ 0x38
   21c86:	4620      	mov	r0, r4
   21c88:	f005 f946 	bl	26f18 <_ZN9allow_pin12full_dynamic17unshare_if_shared17h34fb2a9288def0c2E>
   21c8c:	4620      	mov	r0, r4
   21c8e:	f005 f943 	bl	26f18 <_ZN9allow_pin12full_dynamic17unshare_if_shared17h34fb2a9288def0c2E>
   21c92:	9c03      	ldr	r4, [sp, #12]
   21c94:	1c60      	adds	r0, r4, #1
   21c96:	2250      	movs	r2, #80	@ 0x50
   21c98:	4629      	mov	r1, r5
   21c9a:	f005 fafe 	bl	2729a <__aeabi_memcpy>
   21c9e:	e7e5      	b.n	21c6c <_ZN20complex_full_dynamic3app17h6a801c8c71aa835eE+0x78>
   21ca0:	00000aee 	.word	0x00000aee

00021ca4 <_ZN20complex_full_dynamic3app17h6ff1d5884b4b8c0cE>:
   21ca4:	b5f0      	push	{r4, r5, r6, r7, lr}
   21ca6:	af03      	add	r7, sp, #12
   21ca8:	b09d      	sub	sp, #116	@ 0x74
   21caa:	9003      	str	r0, [sp, #12]
   21cac:	ae04      	add	r6, sp, #16
   21cae:	2002      	movs	r0, #2
   21cb0:	9002      	str	r0, [sp, #8]
   21cb2:	7230      	strb	r0, [r6, #8]
   21cb4:	360c      	adds	r6, #12
   21cb6:	221e      	movs	r2, #30
   21cb8:	9201      	str	r2, [sp, #4]
   21cba:	4630      	mov	r0, r6
   21cbc:	f005 faed 	bl	2729a <__aeabi_memcpy>
   21cc0:	ac0f      	add	r4, sp, #60	@ 0x3c
   21cc2:	4625      	mov	r5, r4
   21cc4:	350c      	adds	r5, #12
   21cc6:	212c      	movs	r1, #44	@ 0x2c
   21cc8:	4628      	mov	r0, r5
   21cca:	f005 f939 	bl	26f40 <__aeabi_memclr4>
   21cce:	9802      	ldr	r0, [sp, #8]
   21cd0:	7220      	strb	r0, [r4, #8]
   21cd2:	481f      	ldr	r0, [pc, #124]	@ (21d50 <_ZN20complex_full_dynamic3app17h6ff1d5884b4b8c0cE+0xac>)
   21cd4:	2407      	movs	r4, #7
   21cd6:	4621      	mov	r1, r4
   21cd8:	4632      	mov	r2, r6
   21cda:	9b01      	ldr	r3, [sp, #4]
   21cdc:	df04      	svc	4
   21cde:	2802      	cmp	r0, #2
   21ce0:	d019      	beq.n	21d16 <_ZN20complex_full_dynamic3app17h6ff1d5884b4b8c0cE+0x72>
   21ce2:	a804      	add	r0, sp, #16
   21ce4:	2104      	movs	r1, #4
   21ce6:	7201      	strb	r1, [r0, #8]
   21ce8:	9405      	str	r4, [sp, #20]
   21cea:	4c19      	ldr	r4, [pc, #100]	@ (21d50 <_ZN20complex_full_dynamic3app17h6ff1d5884b4b8c0cE+0xac>)
   21cec:	9404      	str	r4, [sp, #16]
   21cee:	2600      	movs	r6, #0
   21cf0:	232c      	movs	r3, #44	@ 0x2c
   21cf2:	4620      	mov	r0, r4
   21cf4:	4631      	mov	r1, r6
   21cf6:	462a      	mov	r2, r5
   21cf8:	df03      	svc	3
   21cfa:	2802      	cmp	r0, #2
   21cfc:	d00b      	beq.n	21d16 <_ZN20complex_full_dynamic3app17h6ff1d5884b4b8c0cE+0x72>
   21cfe:	a80f      	add	r0, sp, #60	@ 0x3c
   21d00:	2103      	movs	r1, #3
   21d02:	7201      	strb	r1, [r0, #8]
   21d04:	940f      	str	r4, [sp, #60]	@ 0x3c
   21d06:	9610      	str	r6, [sp, #64]	@ 0x40
   21d08:	4811      	ldr	r0, [pc, #68]	@ (21d50 <_ZN20complex_full_dynamic3app17h6ff1d5884b4b8c0cE+0xac>)
   21d0a:	2107      	movs	r1, #7
   21d0c:	4632      	mov	r2, r6
   21d0e:	4633      	mov	r3, r6
   21d10:	df02      	svc	2
   21d12:	287f      	cmp	r0, #127	@ 0x7f
   21d14:	d80b      	bhi.n	21d2e <_ZN20complex_full_dynamic3app17h6ff1d5884b4b8c0cE+0x8a>
   21d16:	9c03      	ldr	r4, [sp, #12]
   21d18:	6061      	str	r1, [r4, #4]
   21d1a:	2601      	movs	r6, #1
   21d1c:	7026      	strb	r6, [r4, #0]
   21d1e:	a80f      	add	r0, sp, #60	@ 0x3c
   21d20:	f005 f8fa 	bl	26f18 <_ZN9allow_pin12full_dynamic17unshare_if_shared17h34fb2a9288def0c2E>
   21d24:	a804      	add	r0, sp, #16
   21d26:	f005 f8f7 	bl	26f18 <_ZN9allow_pin12full_dynamic17unshare_if_shared17h34fb2a9288def0c2E>
   21d2a:	b01d      	add	sp, #116	@ 0x74
   21d2c:	bdf0      	pop	{r4, r5, r6, r7, pc}
   21d2e:	a804      	add	r0, sp, #16
   21d30:	f005 f8f2 	bl	26f18 <_ZN9allow_pin12full_dynamic17unshare_if_shared17h34fb2a9288def0c2E>
   21d34:	ac0f      	add	r4, sp, #60	@ 0x3c
   21d36:	4620      	mov	r0, r4
   21d38:	f005 f8ee 	bl	26f18 <_ZN9allow_pin12full_dynamic17unshare_if_shared17h34fb2a9288def0c2E>
   21d3c:	4620      	mov	r0, r4
   21d3e:	f005 f8eb 	bl	26f18 <_ZN9allow_pin12full_dynamic17unshare_if_shared17h34fb2a9288def0c2E>
   21d42:	9c03      	ldr	r4, [sp, #12]
   21d44:	1c60      	adds	r0, r4, #1
   21d46:	222c      	movs	r2, #44	@ 0x2c
   21d48:	4629      	mov	r1, r5
   21d4a:	f005 faa6 	bl	2729a <__aeabi_memcpy>
   21d4e:	e7e5      	b.n	21d1c <_ZN20complex_full_dynamic3app17h6ff1d5884b4b8c0cE+0x78>
   21d50:	000003fb 	.word	0x000003fb

00021d54 <_ZN20complex_full_dynamic3app17h755c7e30ecc82b4fE>:
   21d54:	b5f0      	push	{r4, r5, r6, r7, lr}
   21d56:	af03      	add	r7, sp, #12
   21d58:	b09b      	sub	sp, #108	@ 0x6c
   21d5a:	9002      	str	r0, [sp, #8]
   21d5c:	ac03      	add	r4, sp, #12
   21d5e:	2002      	movs	r0, #2
   21d60:	9001      	str	r0, [sp, #4]
   21d62:	7220      	strb	r0, [r4, #8]
   21d64:	340c      	adds	r4, #12
   21d66:	2223      	movs	r2, #35	@ 0x23
   21d68:	9200      	str	r2, [sp, #0]
   21d6a:	4620      	mov	r0, r4
   21d6c:	f005 fa95 	bl	2729a <__aeabi_memcpy>
   21d70:	ae0f      	add	r6, sp, #60	@ 0x3c
   21d72:	4635      	mov	r5, r6
   21d74:	350c      	adds	r5, #12
   21d76:	2124      	movs	r1, #36	@ 0x24
   21d78:	4628      	mov	r0, r5
   21d7a:	f005 f8e1 	bl	26f40 <__aeabi_memclr4>
   21d7e:	9801      	ldr	r0, [sp, #4]
   21d80:	7230      	strb	r0, [r6, #8]
   21d82:	481f      	ldr	r0, [pc, #124]	@ (21e00 <_ZN20complex_full_dynamic3app17h755c7e30ecc82b4fE+0xac>)
   21d84:	2604      	movs	r6, #4
   21d86:	4631      	mov	r1, r6
   21d88:	4622      	mov	r2, r4
   21d8a:	9b00      	ldr	r3, [sp, #0]
   21d8c:	df04      	svc	4
   21d8e:	2802      	cmp	r0, #2
   21d90:	d019      	beq.n	21dc6 <_ZN20complex_full_dynamic3app17h755c7e30ecc82b4fE+0x72>
   21d92:	a803      	add	r0, sp, #12
   21d94:	7206      	strb	r6, [r0, #8]
   21d96:	9604      	str	r6, [sp, #16]
   21d98:	4e19      	ldr	r6, [pc, #100]	@ (21e00 <_ZN20complex_full_dynamic3app17h755c7e30ecc82b4fE+0xac>)
   21d9a:	9603      	str	r6, [sp, #12]
   21d9c:	2408      	movs	r4, #8
   21d9e:	2324      	movs	r3, #36	@ 0x24
   21da0:	4630      	mov	r0, r6
   21da2:	4621      	mov	r1, r4
   21da4:	462a      	mov	r2, r5
   21da6:	df03      	svc	3
   21da8:	2802      	cmp	r0, #2
   21daa:	d00c      	beq.n	21dc6 <_ZN20complex_full_dynamic3app17h755c7e30ecc82b4fE+0x72>
   21dac:	a80f      	add	r0, sp, #60	@ 0x3c
   21dae:	2103      	movs	r1, #3
   21db0:	7201      	strb	r1, [r0, #8]
   21db2:	960f      	str	r6, [sp, #60]	@ 0x3c
   21db4:	9410      	str	r4, [sp, #64]	@ 0x40
   21db6:	4812      	ldr	r0, [pc, #72]	@ (21e00 <_ZN20complex_full_dynamic3app17h755c7e30ecc82b4fE+0xac>)
   21db8:	2104      	movs	r1, #4
   21dba:	2600      	movs	r6, #0
   21dbc:	4622      	mov	r2, r4
   21dbe:	4633      	mov	r3, r6
   21dc0:	df02      	svc	2
   21dc2:	287f      	cmp	r0, #127	@ 0x7f
   21dc4:	d80b      	bhi.n	21dde <_ZN20complex_full_dynamic3app17h755c7e30ecc82b4fE+0x8a>
   21dc6:	9c02      	ldr	r4, [sp, #8]
   21dc8:	6061      	str	r1, [r4, #4]
   21dca:	2601      	movs	r6, #1
   21dcc:	7026      	strb	r6, [r4, #0]
   21dce:	a80f      	add	r0, sp, #60	@ 0x3c
   21dd0:	f005 f8a2 	bl	26f18 <_ZN9allow_pin12full_dynamic17unshare_if_shared17h34fb2a9288def0c2E>
   21dd4:	a803      	add	r0, sp, #12
   21dd6:	f005 f89f 	bl	26f18 <_ZN9allow_pin12full_dynamic17unshare_if_shared17h34fb2a9288def0c2E>
   21dda:	b01b      	add	sp, #108	@ 0x6c
   21ddc:	bdf0      	pop	{r4, r5, r6, r7, pc}
   21dde:	a803      	add	r0, sp, #12
   21de0:	f005 f89a 	bl	26f18 <_ZN9allow_pin12full_dynamic17unshare_if_shared17h34fb2a9288def0c2E>
   21de4:	ac0f      	add	r4, sp, #60	@ 0x3c
   21de6:	4620      	mov	r0, r4
   21de8:	f005 f896 	bl	26f18 <_ZN9allow_pin12full_dynamic17unshare_if_shared17h34fb2a9288def0c2E>
   21dec:	4620      	mov	r0, r4
   21dee:	f005 f893 	bl	26f18 <_ZN9allow_pin12full_dynamic17unshare_if_shared17h34fb2a9288def0c2E>
   21df2:	9c02      	ldr	r4, [sp, #8]
   21df4:	1c60      	adds	r0, r4, #1
   21df6:	2224      	movs	r2, #36	@ 0x24
   21df8:	4629      	mov	r1, r5
   21dfa:	f005 fa4e 	bl	2729a <__aeabi_memcpy>
   21dfe:	e7e5      	b.n	21dcc <_ZN20complex_full_dynamic3app17h755c7e30ecc82b4fE+0x78>
   21e00:	00001bd6 	.word	0x00001bd6

00021e04 <_ZN20complex_full_dynamic3app17h7ac25c48f72de3c9E>:
   21e04:	b5f0      	push	{r4, r5, r6, r7, lr}
   21e06:	af03      	add	r7, sp, #12
   21e08:	b0a3      	sub	sp, #140	@ 0x8c
   21e0a:	9003      	str	r0, [sp, #12]
   21e0c:	ac04      	add	r4, sp, #16
   21e0e:	2002      	movs	r0, #2
   21e10:	9002      	str	r0, [sp, #8]
   21e12:	7220      	strb	r0, [r4, #8]
   21e14:	340c      	adds	r4, #12
   21e16:	2211      	movs	r2, #17
   21e18:	9201      	str	r2, [sp, #4]
   21e1a:	4620      	mov	r0, r4
   21e1c:	f005 fa3d 	bl	2729a <__aeabi_memcpy>
   21e20:	ae0c      	add	r6, sp, #48	@ 0x30
   21e22:	4635      	mov	r5, r6
   21e24:	350c      	adds	r5, #12
   21e26:	2150      	movs	r1, #80	@ 0x50
   21e28:	4628      	mov	r0, r5
   21e2a:	f005 f889 	bl	26f40 <__aeabi_memclr4>
   21e2e:	9802      	ldr	r0, [sp, #8]
   21e30:	7230      	strb	r0, [r6, #8]
   21e32:	4820      	ldr	r0, [pc, #128]	@ (21eb4 <_ZN20complex_full_dynamic3app17h7ac25c48f72de3c9E+0xb0>)
   21e34:	2606      	movs	r6, #6
   21e36:	4631      	mov	r1, r6
   21e38:	4622      	mov	r2, r4
   21e3a:	9b01      	ldr	r3, [sp, #4]
   21e3c:	df04      	svc	4
   21e3e:	2802      	cmp	r0, #2
   21e40:	d01a      	beq.n	21e78 <_ZN20complex_full_dynamic3app17h7ac25c48f72de3c9E+0x74>
   21e42:	a804      	add	r0, sp, #16
   21e44:	2104      	movs	r1, #4
   21e46:	7201      	strb	r1, [r0, #8]
   21e48:	9605      	str	r6, [sp, #20]
   21e4a:	4e1a      	ldr	r6, [pc, #104]	@ (21eb4 <_ZN20complex_full_dynamic3app17h7ac25c48f72de3c9E+0xb0>)
   21e4c:	9604      	str	r6, [sp, #16]
   21e4e:	2405      	movs	r4, #5
   21e50:	2350      	movs	r3, #80	@ 0x50
   21e52:	4630      	mov	r0, r6
   21e54:	4621      	mov	r1, r4
   21e56:	462a      	mov	r2, r5
   21e58:	df03      	svc	3
   21e5a:	2802      	cmp	r0, #2
   21e5c:	d00c      	beq.n	21e78 <_ZN20complex_full_dynamic3app17h7ac25c48f72de3c9E+0x74>
   21e5e:	a80c      	add	r0, sp, #48	@ 0x30
   21e60:	2103      	movs	r1, #3
   21e62:	7201      	strb	r1, [r0, #8]
   21e64:	960c      	str	r6, [sp, #48]	@ 0x30
   21e66:	940d      	str	r4, [sp, #52]	@ 0x34
   21e68:	4812      	ldr	r0, [pc, #72]	@ (21eb4 <_ZN20complex_full_dynamic3app17h7ac25c48f72de3c9E+0xb0>)
   21e6a:	2106      	movs	r1, #6
   21e6c:	2600      	movs	r6, #0
   21e6e:	4622      	mov	r2, r4
   21e70:	4633      	mov	r3, r6
   21e72:	df02      	svc	2
   21e74:	287f      	cmp	r0, #127	@ 0x7f
   21e76:	d80b      	bhi.n	21e90 <_ZN20complex_full_dynamic3app17h7ac25c48f72de3c9E+0x8c>
   21e78:	9c03      	ldr	r4, [sp, #12]
   21e7a:	6061      	str	r1, [r4, #4]
   21e7c:	2601      	movs	r6, #1
   21e7e:	7026      	strb	r6, [r4, #0]
   21e80:	a80c      	add	r0, sp, #48	@ 0x30
   21e82:	f005 f849 	bl	26f18 <_ZN9allow_pin12full_dynamic17unshare_if_shared17h34fb2a9288def0c2E>
   21e86:	a804      	add	r0, sp, #16
   21e88:	f005 f846 	bl	26f18 <_ZN9allow_pin12full_dynamic17unshare_if_shared17h34fb2a9288def0c2E>
   21e8c:	b023      	add	sp, #140	@ 0x8c
   21e8e:	bdf0      	pop	{r4, r5, r6, r7, pc}
   21e90:	a804      	add	r0, sp, #16
   21e92:	f005 f841 	bl	26f18 <_ZN9allow_pin12full_dynamic17unshare_if_shared17h34fb2a9288def0c2E>
   21e96:	ac0c      	add	r4, sp, #48	@ 0x30
   21e98:	4620      	mov	r0, r4
   21e9a:	f005 f83d 	bl	26f18 <_ZN9allow_pin12full_dynamic17unshare_if_shared17h34fb2a9288def0c2E>
   21e9e:	4620      	mov	r0, r4
   21ea0:	f005 f83a 	bl	26f18 <_ZN9allow_pin12full_dynamic17unshare_if_shared17h34fb2a9288def0c2E>
   21ea4:	9c03      	ldr	r4, [sp, #12]
   21ea6:	1c60      	adds	r0, r4, #1
   21ea8:	2250      	movs	r2, #80	@ 0x50
   21eaa:	4629      	mov	r1, r5
   21eac:	f005 f9f5 	bl	2729a <__aeabi_memcpy>
   21eb0:	e7e5      	b.n	21e7e <_ZN20complex_full_dynamic3app17h7ac25c48f72de3c9E+0x7a>
   21eb2:	46c0      	nop			@ (mov r8, r8)
   21eb4:	00001aa9 	.word	0x00001aa9

00021eb8 <_ZN20complex_full_dynamic3app17h7d41d9bcbf2d9e49E>:
   21eb8:	b5f0      	push	{r4, r5, r6, r7, lr}
   21eba:	af03      	add	r7, sp, #12
   21ebc:	b0a5      	sub	sp, #148	@ 0x94
   21ebe:	9002      	str	r0, [sp, #8]
   21ec0:	ac03      	add	r4, sp, #12
   21ec2:	2002      	movs	r0, #2
   21ec4:	9001      	str	r0, [sp, #4]
   21ec6:	7220      	strb	r0, [r4, #8]
   21ec8:	340c      	adds	r4, #12
   21eca:	223c      	movs	r2, #60	@ 0x3c
   21ecc:	9200      	str	r2, [sp, #0]
   21ece:	4620      	mov	r0, r4
   21ed0:	f005 f9e3 	bl	2729a <__aeabi_memcpy>
   21ed4:	ae15      	add	r6, sp, #84	@ 0x54
   21ed6:	4635      	mov	r5, r6
   21ed8:	350c      	adds	r5, #12
   21eda:	2132      	movs	r1, #50	@ 0x32
   21edc:	4628      	mov	r0, r5
   21ede:	f005 f82f 	bl	26f40 <__aeabi_memclr4>
   21ee2:	9801      	ldr	r0, [sp, #4]
   21ee4:	7230      	strb	r0, [r6, #8]
   21ee6:	4820      	ldr	r0, [pc, #128]	@ (21f68 <_ZN20complex_full_dynamic3app17h7d41d9bcbf2d9e49E+0xb0>)
   21ee8:	2606      	movs	r6, #6
   21eea:	4631      	mov	r1, r6
   21eec:	4622      	mov	r2, r4
   21eee:	9b00      	ldr	r3, [sp, #0]
   21ef0:	df04      	svc	4
   21ef2:	2802      	cmp	r0, #2
   21ef4:	d01a      	beq.n	21f2c <_ZN20complex_full_dynamic3app17h7d41d9bcbf2d9e49E+0x74>
   21ef6:	a803      	add	r0, sp, #12
   21ef8:	2104      	movs	r1, #4
   21efa:	7201      	strb	r1, [r0, #8]
   21efc:	9604      	str	r6, [sp, #16]
   21efe:	4e1a      	ldr	r6, [pc, #104]	@ (21f68 <_ZN20complex_full_dynamic3app17h7d41d9bcbf2d9e49E+0xb0>)
   21f00:	9603      	str	r6, [sp, #12]
   21f02:	2408      	movs	r4, #8
   21f04:	2332      	movs	r3, #50	@ 0x32
   21f06:	4630      	mov	r0, r6
   21f08:	4621      	mov	r1, r4
   21f0a:	462a      	mov	r2, r5
   21f0c:	df03      	svc	3
   21f0e:	2802      	cmp	r0, #2
   21f10:	d00c      	beq.n	21f2c <_ZN20complex_full_dynamic3app17h7d41d9bcbf2d9e49E+0x74>
   21f12:	a815      	add	r0, sp, #84	@ 0x54
   21f14:	2103      	movs	r1, #3
   21f16:	7201      	strb	r1, [r0, #8]
   21f18:	9615      	str	r6, [sp, #84]	@ 0x54
   21f1a:	9416      	str	r4, [sp, #88]	@ 0x58
   21f1c:	4812      	ldr	r0, [pc, #72]	@ (21f68 <_ZN20complex_full_dynamic3app17h7d41d9bcbf2d9e49E+0xb0>)
   21f1e:	2106      	movs	r1, #6
   21f20:	2600      	movs	r6, #0
   21f22:	4622      	mov	r2, r4
   21f24:	4633      	mov	r3, r6
   21f26:	df02      	svc	2
   21f28:	287f      	cmp	r0, #127	@ 0x7f
   21f2a:	d80b      	bhi.n	21f44 <_ZN20complex_full_dynamic3app17h7d41d9bcbf2d9e49E+0x8c>
   21f2c:	9c02      	ldr	r4, [sp, #8]
   21f2e:	6061      	str	r1, [r4, #4]
   21f30:	2601      	movs	r6, #1
   21f32:	7026      	strb	r6, [r4, #0]
   21f34:	a815      	add	r0, sp, #84	@ 0x54
   21f36:	f004 ffef 	bl	26f18 <_ZN9allow_pin12full_dynamic17unshare_if_shared17h34fb2a9288def0c2E>
   21f3a:	a803      	add	r0, sp, #12
   21f3c:	f004 ffec 	bl	26f18 <_ZN9allow_pin12full_dynamic17unshare_if_shared17h34fb2a9288def0c2E>
   21f40:	b025      	add	sp, #148	@ 0x94
   21f42:	bdf0      	pop	{r4, r5, r6, r7, pc}
   21f44:	a803      	add	r0, sp, #12
   21f46:	f004 ffe7 	bl	26f18 <_ZN9allow_pin12full_dynamic17unshare_if_shared17h34fb2a9288def0c2E>
   21f4a:	ac15      	add	r4, sp, #84	@ 0x54
   21f4c:	4620      	mov	r0, r4
   21f4e:	f004 ffe3 	bl	26f18 <_ZN9allow_pin12full_dynamic17unshare_if_shared17h34fb2a9288def0c2E>
   21f52:	4620      	mov	r0, r4
   21f54:	f004 ffe0 	bl	26f18 <_ZN9allow_pin12full_dynamic17unshare_if_shared17h34fb2a9288def0c2E>
   21f58:	9c02      	ldr	r4, [sp, #8]
   21f5a:	1c60      	adds	r0, r4, #1
   21f5c:	2232      	movs	r2, #50	@ 0x32
   21f5e:	4629      	mov	r1, r5
   21f60:	f005 f99b 	bl	2729a <__aeabi_memcpy>
   21f64:	e7e5      	b.n	21f32 <_ZN20complex_full_dynamic3app17h7d41d9bcbf2d9e49E+0x7a>
   21f66:	46c0      	nop			@ (mov r8, r8)
   21f68:	00001b1e 	.word	0x00001b1e

00021f6c <_ZN20complex_full_dynamic3app17h7e350972ca59ab96E>:
   21f6c:	b5f0      	push	{r4, r5, r6, r7, lr}
   21f6e:	af03      	add	r7, sp, #12
   21f70:	b0b1      	sub	sp, #196	@ 0xc4
   21f72:	9002      	str	r0, [sp, #8]
   21f74:	ac03      	add	r4, sp, #12
   21f76:	2002      	movs	r0, #2
   21f78:	9001      	str	r0, [sp, #4]
   21f7a:	7220      	strb	r0, [r4, #8]
   21f7c:	340c      	adds	r4, #12
   21f7e:	2246      	movs	r2, #70	@ 0x46
   21f80:	9200      	str	r2, [sp, #0]
   21f82:	4620      	mov	r0, r4
   21f84:	f005 f989 	bl	2729a <__aeabi_memcpy>
   21f88:	ae18      	add	r6, sp, #96	@ 0x60
   21f8a:	4635      	mov	r5, r6
   21f8c:	350c      	adds	r5, #12
   21f8e:	2156      	movs	r1, #86	@ 0x56
   21f90:	4628      	mov	r0, r5
   21f92:	f004 ffd5 	bl	26f40 <__aeabi_memclr4>
   21f96:	9801      	ldr	r0, [sp, #4]
   21f98:	7230      	strb	r0, [r6, #8]
   21f9a:	481f      	ldr	r0, [pc, #124]	@ (22018 <_ZN20complex_full_dynamic3app17h7e350972ca59ab96E+0xac>)
   21f9c:	2607      	movs	r6, #7
   21f9e:	4631      	mov	r1, r6
   21fa0:	4622      	mov	r2, r4
   21fa2:	9b00      	ldr	r3, [sp, #0]
   21fa4:	df04      	svc	4
   21fa6:	2802      	cmp	r0, #2
   21fa8:	d019      	beq.n	21fde <_ZN20complex_full_dynamic3app17h7e350972ca59ab96E+0x72>
   21faa:	a803      	add	r0, sp, #12
   21fac:	2104      	movs	r1, #4
   21fae:	7201      	strb	r1, [r0, #8]
   21fb0:	9604      	str	r6, [sp, #16]
   21fb2:	4e19      	ldr	r6, [pc, #100]	@ (22018 <_ZN20complex_full_dynamic3app17h7e350972ca59ab96E+0xac>)
   21fb4:	9603      	str	r6, [sp, #12]
   21fb6:	2403      	movs	r4, #3
   21fb8:	2356      	movs	r3, #86	@ 0x56
   21fba:	4630      	mov	r0, r6
   21fbc:	4621      	mov	r1, r4
   21fbe:	462a      	mov	r2, r5
   21fc0:	df03      	svc	3
   21fc2:	2802      	cmp	r0, #2
   21fc4:	d00b      	beq.n	21fde <_ZN20complex_full_dynamic3app17h7e350972ca59ab96E+0x72>
   21fc6:	a818      	add	r0, sp, #96	@ 0x60
   21fc8:	7204      	strb	r4, [r0, #8]
   21fca:	9419      	str	r4, [sp, #100]	@ 0x64
   21fcc:	9618      	str	r6, [sp, #96]	@ 0x60
   21fce:	4812      	ldr	r0, [pc, #72]	@ (22018 <_ZN20complex_full_dynamic3app17h7e350972ca59ab96E+0xac>)
   21fd0:	2107      	movs	r1, #7
   21fd2:	2600      	movs	r6, #0
   21fd4:	4622      	mov	r2, r4
   21fd6:	4633      	mov	r3, r6
   21fd8:	df02      	svc	2
   21fda:	287f      	cmp	r0, #127	@ 0x7f
   21fdc:	d80b      	bhi.n	21ff6 <_ZN20complex_full_dynamic3app17h7e350972ca59ab96E+0x8a>
   21fde:	9c02      	ldr	r4, [sp, #8]
   21fe0:	6061      	str	r1, [r4, #4]
   21fe2:	2601      	movs	r6, #1
   21fe4:	7026      	strb	r6, [r4, #0]
   21fe6:	a818      	add	r0, sp, #96	@ 0x60
   21fe8:	f004 ff96 	bl	26f18 <_ZN9allow_pin12full_dynamic17unshare_if_shared17h34fb2a9288def0c2E>
   21fec:	a803      	add	r0, sp, #12
   21fee:	f004 ff93 	bl	26f18 <_ZN9allow_pin12full_dynamic17unshare_if_shared17h34fb2a9288def0c2E>
   21ff2:	b031      	add	sp, #196	@ 0xc4
   21ff4:	bdf0      	pop	{r4, r5, r6, r7, pc}
   21ff6:	a803      	add	r0, sp, #12
   21ff8:	f004 ff8e 	bl	26f18 <_ZN9allow_pin12full_dynamic17unshare_if_shared17h34fb2a9288def0c2E>
   21ffc:	ac18      	add	r4, sp, #96	@ 0x60
   21ffe:	4620      	mov	r0, r4
   22000:	f004 ff8a 	bl	26f18 <_ZN9allow_pin12full_dynamic17unshare_if_shared17h34fb2a9288def0c2E>
   22004:	4620      	mov	r0, r4
   22006:	f004 ff87 	bl	26f18 <_ZN9allow_pin12full_dynamic17unshare_if_shared17h34fb2a9288def0c2E>
   2200a:	9c02      	ldr	r4, [sp, #8]
   2200c:	1c60      	adds	r0, r4, #1
   2200e:	2256      	movs	r2, #86	@ 0x56
   22010:	4629      	mov	r1, r5
   22012:	f005 f942 	bl	2729a <__aeabi_memcpy>
   22016:	e7e5      	b.n	21fe4 <_ZN20complex_full_dynamic3app17h7e350972ca59ab96E+0x78>
   22018:	00001e50 	.word	0x00001e50

0002201c <_ZN20complex_full_dynamic3app17h7f13f77faa90536aE>:
   2201c:	b5f0      	push	{r4, r5, r6, r7, lr}
   2201e:	af03      	add	r7, sp, #12
   22020:	b0a1      	sub	sp, #132	@ 0x84
   22022:	9002      	str	r0, [sp, #8]
   22024:	ac03      	add	r4, sp, #12
   22026:	2602      	movs	r6, #2
   22028:	7226      	strb	r6, [r4, #8]
   2202a:	340c      	adds	r4, #12
   2202c:	2238      	movs	r2, #56	@ 0x38
   2202e:	9201      	str	r2, [sp, #4]
   22030:	4620      	mov	r0, r4
   22032:	f005 f932 	bl	2729a <__aeabi_memcpy>
   22036:	ad14      	add	r5, sp, #80	@ 0x50
   22038:	4628      	mov	r0, r5
   2203a:	300c      	adds	r0, #12
   2203c:	2127      	movs	r1, #39	@ 0x27
   2203e:	9000      	str	r0, [sp, #0]
   22040:	f004 ff7e 	bl	26f40 <__aeabi_memclr4>
   22044:	722e      	strb	r6, [r5, #8]
   22046:	4635      	mov	r5, r6
   22048:	4e1f      	ldr	r6, [pc, #124]	@ (220c8 <_ZN20complex_full_dynamic3app17h7f13f77faa90536aE+0xac>)
   2204a:	4630      	mov	r0, r6
   2204c:	4629      	mov	r1, r5
   2204e:	4622      	mov	r2, r4
   22050:	9b01      	ldr	r3, [sp, #4]
   22052:	df04      	svc	4
   22054:	2802      	cmp	r0, #2
   22056:	d01a      	beq.n	2208e <_ZN20complex_full_dynamic3app17h7f13f77faa90536aE+0x72>
   22058:	a803      	add	r0, sp, #12
   2205a:	2104      	movs	r1, #4
   2205c:	7201      	strb	r1, [r0, #8]
   2205e:	9504      	str	r5, [sp, #16]
   22060:	9603      	str	r6, [sp, #12]
   22062:	2408      	movs	r4, #8
   22064:	2327      	movs	r3, #39	@ 0x27
   22066:	4630      	mov	r0, r6
   22068:	4621      	mov	r1, r4
   2206a:	9d00      	ldr	r5, [sp, #0]
   2206c:	462a      	mov	r2, r5
   2206e:	df03      	svc	3
   22070:	2802      	cmp	r0, #2
   22072:	d00c      	beq.n	2208e <_ZN20complex_full_dynamic3app17h7f13f77faa90536aE+0x72>
   22074:	a814      	add	r0, sp, #80	@ 0x50
   22076:	2103      	movs	r1, #3
   22078:	7201      	strb	r1, [r0, #8]
   2207a:	9614      	str	r6, [sp, #80]	@ 0x50
   2207c:	9415      	str	r4, [sp, #84]	@ 0x54
   2207e:	4812      	ldr	r0, [pc, #72]	@ (220c8 <_ZN20complex_full_dynamic3app17h7f13f77faa90536aE+0xac>)
   22080:	2102      	movs	r1, #2
   22082:	2600      	movs	r6, #0
   22084:	4622      	mov	r2, r4
   22086:	4633      	mov	r3, r6
   22088:	df02      	svc	2
   2208a:	287f      	cmp	r0, #127	@ 0x7f
   2208c:	d80b      	bhi.n	220a6 <_ZN20complex_full_dynamic3app17h7f13f77faa90536aE+0x8a>
   2208e:	9c02      	ldr	r4, [sp, #8]
   22090:	6061      	str	r1, [r4, #4]
   22092:	2601      	movs	r6, #1
   22094:	7026      	strb	r6, [r4, #0]
   22096:	a814      	add	r0, sp, #80	@ 0x50
   22098:	f004 ff3e 	bl	26f18 <_ZN9allow_pin12full_dynamic17unshare_if_shared17h34fb2a9288def0c2E>
   2209c:	a803      	add	r0, sp, #12
   2209e:	f004 ff3b 	bl	26f18 <_ZN9allow_pin12full_dynamic17unshare_if_shared17h34fb2a9288def0c2E>
   220a2:	b021      	add	sp, #132	@ 0x84
   220a4:	bdf0      	pop	{r4, r5, r6, r7, pc}
   220a6:	a803      	add	r0, sp, #12
   220a8:	f004 ff36 	bl	26f18 <_ZN9allow_pin12full_dynamic17unshare_if_shared17h34fb2a9288def0c2E>
   220ac:	ac14      	add	r4, sp, #80	@ 0x50
   220ae:	4620      	mov	r0, r4
   220b0:	f004 ff32 	bl	26f18 <_ZN9allow_pin12full_dynamic17unshare_if_shared17h34fb2a9288def0c2E>
   220b4:	4620      	mov	r0, r4
   220b6:	f004 ff2f 	bl	26f18 <_ZN9allow_pin12full_dynamic17unshare_if_shared17h34fb2a9288def0c2E>
   220ba:	9c02      	ldr	r4, [sp, #8]
   220bc:	1c60      	adds	r0, r4, #1
   220be:	2227      	movs	r2, #39	@ 0x27
   220c0:	4629      	mov	r1, r5
   220c2:	f005 f8ea 	bl	2729a <__aeabi_memcpy>
   220c6:	e7e5      	b.n	22094 <_ZN20complex_full_dynamic3app17h7f13f77faa90536aE+0x78>
   220c8:	00000e2b 	.word	0x00000e2b

000220cc <_ZN20complex_full_dynamic3app17h81e52bb3dc2b002fE>:
   220cc:	b5f0      	push	{r4, r5, r6, r7, lr}
   220ce:	af03      	add	r7, sp, #12
   220d0:	b0a7      	sub	sp, #156	@ 0x9c
   220d2:	9003      	str	r0, [sp, #12]
   220d4:	ac04      	add	r4, sp, #16
   220d6:	2002      	movs	r0, #2
   220d8:	9002      	str	r0, [sp, #8]
   220da:	7220      	strb	r0, [r4, #8]
   220dc:	340c      	adds	r4, #12
   220de:	2240      	movs	r2, #64	@ 0x40
   220e0:	9201      	str	r2, [sp, #4]
   220e2:	4620      	mov	r0, r4
   220e4:	f005 f8d9 	bl	2729a <__aeabi_memcpy>
   220e8:	ae17      	add	r6, sp, #92	@ 0x5c
   220ea:	4635      	mov	r5, r6
   220ec:	350c      	adds	r5, #12
   220ee:	2131      	movs	r1, #49	@ 0x31
   220f0:	4628      	mov	r0, r5
   220f2:	f004 ff25 	bl	26f40 <__aeabi_memclr4>
   220f6:	9802      	ldr	r0, [sp, #8]
   220f8:	7230      	strb	r0, [r6, #8]
   220fa:	4820      	ldr	r0, [pc, #128]	@ (2217c <_ZN20complex_full_dynamic3app17h81e52bb3dc2b002fE+0xb0>)
   220fc:	2608      	movs	r6, #8
   220fe:	4631      	mov	r1, r6
   22100:	4622      	mov	r2, r4
   22102:	9b01      	ldr	r3, [sp, #4]
   22104:	df04      	svc	4
   22106:	2802      	cmp	r0, #2
   22108:	d01a      	beq.n	22140 <_ZN20complex_full_dynamic3app17h81e52bb3dc2b002fE+0x74>
   2210a:	a804      	add	r0, sp, #16
   2210c:	2104      	movs	r1, #4
   2210e:	7201      	strb	r1, [r0, #8]
   22110:	9605      	str	r6, [sp, #20]
   22112:	4e1a      	ldr	r6, [pc, #104]	@ (2217c <_ZN20complex_full_dynamic3app17h81e52bb3dc2b002fE+0xb0>)
   22114:	9604      	str	r6, [sp, #16]
   22116:	2405      	movs	r4, #5
   22118:	2331      	movs	r3, #49	@ 0x31
   2211a:	4630      	mov	r0, r6
   2211c:	4621      	mov	r1, r4
   2211e:	462a      	mov	r2, r5
   22120:	df03      	svc	3
   22122:	2802      	cmp	r0, #2
   22124:	d00c      	beq.n	22140 <_ZN20complex_full_dynamic3app17h81e52bb3dc2b002fE+0x74>
   22126:	a817      	add	r0, sp, #92	@ 0x5c
   22128:	2103      	movs	r1, #3
   2212a:	7201      	strb	r1, [r0, #8]
   2212c:	9617      	str	r6, [sp, #92]	@ 0x5c
   2212e:	9418      	str	r4, [sp, #96]	@ 0x60
   22130:	4812      	ldr	r0, [pc, #72]	@ (2217c <_ZN20complex_full_dynamic3app17h81e52bb3dc2b002fE+0xb0>)
   22132:	2108      	movs	r1, #8
   22134:	2600      	movs	r6, #0
   22136:	4622      	mov	r2, r4
   22138:	4633      	mov	r3, r6
   2213a:	df02      	svc	2
   2213c:	287f      	cmp	r0, #127	@ 0x7f
   2213e:	d80b      	bhi.n	22158 <_ZN20complex_full_dynamic3app17h81e52bb3dc2b002fE+0x8c>
   22140:	9c03      	ldr	r4, [sp, #12]
   22142:	6061      	str	r1, [r4, #4]
   22144:	2601      	movs	r6, #1
   22146:	7026      	strb	r6, [r4, #0]
   22148:	a817      	add	r0, sp, #92	@ 0x5c
   2214a:	f004 fee5 	bl	26f18 <_ZN9allow_pin12full_dynamic17unshare_if_shared17h34fb2a9288def0c2E>
   2214e:	a804      	add	r0, sp, #16
   22150:	f004 fee2 	bl	26f18 <_ZN9allow_pin12full_dynamic17unshare_if_shared17h34fb2a9288def0c2E>
   22154:	b027      	add	sp, #156	@ 0x9c
   22156:	bdf0      	pop	{r4, r5, r6, r7, pc}
   22158:	a804      	add	r0, sp, #16
   2215a:	f004 fedd 	bl	26f18 <_ZN9allow_pin12full_dynamic17unshare_if_shared17h34fb2a9288def0c2E>
   2215e:	ac17      	add	r4, sp, #92	@ 0x5c
   22160:	4620      	mov	r0, r4
   22162:	f004 fed9 	bl	26f18 <_ZN9allow_pin12full_dynamic17unshare_if_shared17h34fb2a9288def0c2E>
   22166:	4620      	mov	r0, r4
   22168:	f004 fed6 	bl	26f18 <_ZN9allow_pin12full_dynamic17unshare_if_shared17h34fb2a9288def0c2E>
   2216c:	9c03      	ldr	r4, [sp, #12]
   2216e:	1c60      	adds	r0, r4, #1
   22170:	2231      	movs	r2, #49	@ 0x31
   22172:	4629      	mov	r1, r5
   22174:	f005 f891 	bl	2729a <__aeabi_memcpy>
   22178:	e7e5      	b.n	22146 <_ZN20complex_full_dynamic3app17h81e52bb3dc2b002fE+0x7a>
   2217a:	46c0      	nop			@ (mov r8, r8)
   2217c:	00000fce 	.word	0x00000fce

00022180 <_ZN20complex_full_dynamic3app17h838685b3a48d3d8dE>:
   22180:	b5f0      	push	{r4, r5, r6, r7, lr}
   22182:	af03      	add	r7, sp, #12
   22184:	b09d      	sub	sp, #116	@ 0x74
   22186:	9002      	str	r0, [sp, #8]
   22188:	ae03      	add	r6, sp, #12
   2218a:	2502      	movs	r5, #2
   2218c:	7235      	strb	r5, [r6, #8]
   2218e:	360c      	adds	r6, #12
   22190:	2234      	movs	r2, #52	@ 0x34
   22192:	9201      	str	r2, [sp, #4]
   22194:	4630      	mov	r0, r6
   22196:	f005 f880 	bl	2729a <__aeabi_memcpy>
   2219a:	a813      	add	r0, sp, #76	@ 0x4c
   2219c:	2400      	movs	r4, #0
   2219e:	8484      	strh	r4, [r0, #36]	@ 0x24
   221a0:	7205      	strb	r5, [r0, #8]
   221a2:	4605      	mov	r5, r0
   221a4:	941b      	str	r4, [sp, #108]	@ 0x6c
   221a6:	941a      	str	r4, [sp, #104]	@ 0x68
   221a8:	9419      	str	r4, [sp, #100]	@ 0x64
   221aa:	9418      	str	r4, [sp, #96]	@ 0x60
   221ac:	9417      	str	r4, [sp, #92]	@ 0x5c
   221ae:	9416      	str	r4, [sp, #88]	@ 0x58
   221b0:	481f      	ldr	r0, [pc, #124]	@ (22230 <_ZN20complex_full_dynamic3app17h838685b3a48d3d8dE+0xb0>)
   221b2:	4621      	mov	r1, r4
   221b4:	4632      	mov	r2, r6
   221b6:	9b01      	ldr	r3, [sp, #4]
   221b8:	df04      	svc	4
   221ba:	2802      	cmp	r0, #2
   221bc:	d01b      	beq.n	221f6 <_ZN20complex_full_dynamic3app17h838685b3a48d3d8dE+0x76>
   221be:	350c      	adds	r5, #12
   221c0:	a803      	add	r0, sp, #12
   221c2:	2104      	movs	r1, #4
   221c4:	7201      	strb	r1, [r0, #8]
   221c6:	9404      	str	r4, [sp, #16]
   221c8:	4e19      	ldr	r6, [pc, #100]	@ (22230 <_ZN20complex_full_dynamic3app17h838685b3a48d3d8dE+0xb0>)
   221ca:	9603      	str	r6, [sp, #12]
   221cc:	2405      	movs	r4, #5
   221ce:	231a      	movs	r3, #26
   221d0:	4630      	mov	r0, r6
   221d2:	4621      	mov	r1, r4
   221d4:	462a      	mov	r2, r5
   221d6:	df03      	svc	3
   221d8:	2802      	cmp	r0, #2
   221da:	d00c      	beq.n	221f6 <_ZN20complex_full_dynamic3app17h838685b3a48d3d8dE+0x76>
   221dc:	a813      	add	r0, sp, #76	@ 0x4c
   221de:	2103      	movs	r1, #3
   221e0:	7201      	strb	r1, [r0, #8]
   221e2:	9613      	str	r6, [sp, #76]	@ 0x4c
   221e4:	9414      	str	r4, [sp, #80]	@ 0x50
   221e6:	4812      	ldr	r0, [pc, #72]	@ (22230 <_ZN20complex_full_dynamic3app17h838685b3a48d3d8dE+0xb0>)
   221e8:	2600      	movs	r6, #0
   221ea:	4631      	mov	r1, r6
   221ec:	4622      	mov	r2, r4
   221ee:	4633      	mov	r3, r6
   221f0:	df02      	svc	2
   221f2:	287f      	cmp	r0, #127	@ 0x7f
   221f4:	d80b      	bhi.n	2220e <_ZN20complex_full_dynamic3app17h838685b3a48d3d8dE+0x8e>
   221f6:	9c02      	ldr	r4, [sp, #8]
   221f8:	6061      	str	r1, [r4, #4]
   221fa:	2601      	movs	r6, #1
   221fc:	7026      	strb	r6, [r4, #0]
   221fe:	a813      	add	r0, sp, #76	@ 0x4c
   22200:	f004 fe8a 	bl	26f18 <_ZN9allow_pin12full_dynamic17unshare_if_shared17h34fb2a9288def0c2E>
   22204:	a803      	add	r0, sp, #12
   22206:	f004 fe87 	bl	26f18 <_ZN9allow_pin12full_dynamic17unshare_if_shared17h34fb2a9288def0c2E>
   2220a:	b01d      	add	sp, #116	@ 0x74
   2220c:	bdf0      	pop	{r4, r5, r6, r7, pc}
   2220e:	a803      	add	r0, sp, #12
   22210:	f004 fe82 	bl	26f18 <_ZN9allow_pin12full_dynamic17unshare_if_shared17h34fb2a9288def0c2E>
   22214:	ac13      	add	r4, sp, #76	@ 0x4c
   22216:	4620      	mov	r0, r4
   22218:	f004 fe7e 	bl	26f18 <_ZN9allow_pin12full_dynamic17unshare_if_shared17h34fb2a9288def0c2E>
   2221c:	4620      	mov	r0, r4
   2221e:	f004 fe7b 	bl	26f18 <_ZN9allow_pin12full_dynamic17unshare_if_shared17h34fb2a9288def0c2E>
   22222:	9c02      	ldr	r4, [sp, #8]
   22224:	1c60      	adds	r0, r4, #1
   22226:	221a      	movs	r2, #26
   22228:	4629      	mov	r1, r5
   2222a:	f005 f836 	bl	2729a <__aeabi_memcpy>
   2222e:	e7e5      	b.n	221fc <_ZN20complex_full_dynamic3app17h838685b3a48d3d8dE+0x7c>
   22230:	000012cc 	.word	0x000012cc

00022234 <_ZN20complex_full_dynamic3app17h84d892537fcda72fE>:
   22234:	b5f0      	push	{r4, r5, r6, r7, lr}
   22236:	af03      	add	r7, sp, #12
   22238:	b0a3      	sub	sp, #140	@ 0x8c
   2223a:	9002      	str	r0, [sp, #8]
   2223c:	ae03      	add	r6, sp, #12
   2223e:	2002      	movs	r0, #2
   22240:	9001      	str	r0, [sp, #4]
   22242:	7230      	strb	r0, [r6, #8]
   22244:	360c      	adds	r6, #12
   22246:	222e      	movs	r2, #46	@ 0x2e
   22248:	9200      	str	r2, [sp, #0]
   2224a:	4630      	mov	r0, r6
   2224c:	f005 f825 	bl	2729a <__aeabi_memcpy>
   22250:	ad12      	add	r5, sp, #72	@ 0x48
   22252:	462c      	mov	r4, r5
   22254:	340c      	adds	r4, #12
   22256:	2138      	movs	r1, #56	@ 0x38
   22258:	4620      	mov	r0, r4
   2225a:	f004 fe71 	bl	26f40 <__aeabi_memclr4>
   2225e:	9801      	ldr	r0, [sp, #4]
   22260:	7228      	strb	r0, [r5, #8]
   22262:	4820      	ldr	r0, [pc, #128]	@ (222e4 <_ZN20complex_full_dynamic3app17h84d892537fcda72fE+0xb0>)
   22264:	2509      	movs	r5, #9
   22266:	4629      	mov	r1, r5
   22268:	4632      	mov	r2, r6
   2226a:	9b00      	ldr	r3, [sp, #0]
   2226c:	df04      	svc	4
   2226e:	2802      	cmp	r0, #2
   22270:	d019      	beq.n	222a6 <_ZN20complex_full_dynamic3app17h84d892537fcda72fE+0x72>
   22272:	a803      	add	r0, sp, #12
   22274:	2104      	movs	r1, #4
   22276:	7201      	strb	r1, [r0, #8]
   22278:	4e1a      	ldr	r6, [pc, #104]	@ (222e4 <_ZN20complex_full_dynamic3app17h84d892537fcda72fE+0xb0>)
   2227a:	9603      	str	r6, [sp, #12]
   2227c:	9504      	str	r5, [sp, #16]
   2227e:	2338      	movs	r3, #56	@ 0x38
   22280:	4630      	mov	r0, r6
   22282:	4629      	mov	r1, r5
   22284:	4622      	mov	r2, r4
   22286:	df03      	svc	3
   22288:	2802      	cmp	r0, #2
   2228a:	d00c      	beq.n	222a6 <_ZN20complex_full_dynamic3app17h84d892537fcda72fE+0x72>
   2228c:	a812      	add	r0, sp, #72	@ 0x48
   2228e:	2103      	movs	r1, #3
   22290:	7201      	strb	r1, [r0, #8]
   22292:	9612      	str	r6, [sp, #72]	@ 0x48
   22294:	9513      	str	r5, [sp, #76]	@ 0x4c
   22296:	4813      	ldr	r0, [pc, #76]	@ (222e4 <_ZN20complex_full_dynamic3app17h84d892537fcda72fE+0xb0>)
   22298:	2600      	movs	r6, #0
   2229a:	4629      	mov	r1, r5
   2229c:	462a      	mov	r2, r5
   2229e:	4633      	mov	r3, r6
   222a0:	df02      	svc	2
   222a2:	287f      	cmp	r0, #127	@ 0x7f
   222a4:	d80b      	bhi.n	222be <_ZN20complex_full_dynamic3app17h84d892537fcda72fE+0x8a>
   222a6:	9c02      	ldr	r4, [sp, #8]
   222a8:	6061      	str	r1, [r4, #4]
   222aa:	2601      	movs	r6, #1
   222ac:	7026      	strb	r6, [r4, #0]
   222ae:	a812      	add	r0, sp, #72	@ 0x48
   222b0:	f004 fe32 	bl	26f18 <_ZN9allow_pin12full_dynamic17unshare_if_shared17h34fb2a9288def0c2E>
   222b4:	a803      	add	r0, sp, #12
   222b6:	f004 fe2f 	bl	26f18 <_ZN9allow_pin12full_dynamic17unshare_if_shared17h34fb2a9288def0c2E>
   222ba:	b023      	add	sp, #140	@ 0x8c
   222bc:	bdf0      	pop	{r4, r5, r6, r7, pc}
   222be:	a803      	add	r0, sp, #12
   222c0:	f004 fe2a 	bl	26f18 <_ZN9allow_pin12full_dynamic17unshare_if_shared17h34fb2a9288def0c2E>
   222c4:	4625      	mov	r5, r4
   222c6:	ac12      	add	r4, sp, #72	@ 0x48
   222c8:	4620      	mov	r0, r4
   222ca:	f004 fe25 	bl	26f18 <_ZN9allow_pin12full_dynamic17unshare_if_shared17h34fb2a9288def0c2E>
   222ce:	4620      	mov	r0, r4
   222d0:	f004 fe22 	bl	26f18 <_ZN9allow_pin12full_dynamic17unshare_if_shared17h34fb2a9288def0c2E>
   222d4:	9c02      	ldr	r4, [sp, #8]
   222d6:	1c60      	adds	r0, r4, #1
   222d8:	2238      	movs	r2, #56	@ 0x38
   222da:	4629      	mov	r1, r5
   222dc:	f004 ffdd 	bl	2729a <__aeabi_memcpy>
   222e0:	e7e4      	b.n	222ac <_ZN20complex_full_dynamic3app17h84d892537fcda72fE+0x78>
   222e2:	46c0      	nop			@ (mov r8, r8)
   222e4:	00000a9d 	.word	0x00000a9d

000222e8 <_ZN20complex_full_dynamic3app17h8820b63f3b38cb7fE>:
   222e8:	b5f0      	push	{r4, r5, r6, r7, lr}
   222ea:	af03      	add	r7, sp, #12
   222ec:	b09f      	sub	sp, #124	@ 0x7c
   222ee:	9003      	str	r0, [sp, #12]
   222f0:	ae04      	add	r6, sp, #16
   222f2:	2002      	movs	r0, #2
   222f4:	9001      	str	r0, [sp, #4]
   222f6:	7230      	strb	r0, [r6, #8]
   222f8:	360c      	adds	r6, #12
   222fa:	2211      	movs	r2, #17
   222fc:	9202      	str	r2, [sp, #8]
   222fe:	4630      	mov	r0, r6
   22300:	f004 ffcb 	bl	2729a <__aeabi_memcpy>
   22304:	ad0c      	add	r5, sp, #48	@ 0x30
   22306:	462c      	mov	r4, r5
   22308:	340c      	adds	r4, #12
   2230a:	213f      	movs	r1, #63	@ 0x3f
   2230c:	4620      	mov	r0, r4
   2230e:	f004 fe17 	bl	26f40 <__aeabi_memclr4>
   22312:	9801      	ldr	r0, [sp, #4]
   22314:	7228      	strb	r0, [r5, #8]
   22316:	20cb      	movs	r0, #203	@ 0xcb
   22318:	0100      	lsls	r0, r0, #4
   2231a:	2507      	movs	r5, #7
   2231c:	9001      	str	r0, [sp, #4]
   2231e:	4629      	mov	r1, r5
   22320:	4632      	mov	r2, r6
   22322:	9b02      	ldr	r3, [sp, #8]
   22324:	df04      	svc	4
   22326:	2802      	cmp	r0, #2
   22328:	d018      	beq.n	2235c <_ZN20complex_full_dynamic3app17h8820b63f3b38cb7fE+0x74>
   2232a:	a804      	add	r0, sp, #16
   2232c:	2604      	movs	r6, #4
   2232e:	7206      	strb	r6, [r0, #8]
   22330:	9505      	str	r5, [sp, #20]
   22332:	9801      	ldr	r0, [sp, #4]
   22334:	9004      	str	r0, [sp, #16]
   22336:	233f      	movs	r3, #63	@ 0x3f
   22338:	4631      	mov	r1, r6
   2233a:	4622      	mov	r2, r4
   2233c:	df03      	svc	3
   2233e:	2802      	cmp	r0, #2
   22340:	d00c      	beq.n	2235c <_ZN20complex_full_dynamic3app17h8820b63f3b38cb7fE+0x74>
   22342:	a80c      	add	r0, sp, #48	@ 0x30
   22344:	2103      	movs	r1, #3
   22346:	7201      	strb	r1, [r0, #8]
   22348:	9801      	ldr	r0, [sp, #4]
   2234a:	900c      	str	r0, [sp, #48]	@ 0x30
   2234c:	960d      	str	r6, [sp, #52]	@ 0x34
   2234e:	2107      	movs	r1, #7
   22350:	2300      	movs	r3, #0
   22352:	4632      	mov	r2, r6
   22354:	461e      	mov	r6, r3
   22356:	df02      	svc	2
   22358:	287f      	cmp	r0, #127	@ 0x7f
   2235a:	d80b      	bhi.n	22374 <_ZN20complex_full_dynamic3app17h8820b63f3b38cb7fE+0x8c>
   2235c:	9c03      	ldr	r4, [sp, #12]
   2235e:	6061      	str	r1, [r4, #4]
   22360:	2601      	movs	r6, #1
   22362:	7026      	strb	r6, [r4, #0]
   22364:	a80c      	add	r0, sp, #48	@ 0x30
   22366:	f004 fdd7 	bl	26f18 <_ZN9allow_pin12full_dynamic17unshare_if_shared17h34fb2a9288def0c2E>
   2236a:	a804      	add	r0, sp, #16
   2236c:	f004 fdd4 	bl	26f18 <_ZN9allow_pin12full_dynamic17unshare_if_shared17h34fb2a9288def0c2E>
   22370:	b01f      	add	sp, #124	@ 0x7c
   22372:	bdf0      	pop	{r4, r5, r6, r7, pc}
   22374:	4625      	mov	r5, r4
   22376:	a804      	add	r0, sp, #16
   22378:	f004 fdce 	bl	26f18 <_ZN9allow_pin12full_dynamic17unshare_if_shared17h34fb2a9288def0c2E>
   2237c:	ac0c      	add	r4, sp, #48	@ 0x30
   2237e:	4620      	mov	r0, r4
   22380:	f004 fdca 	bl	26f18 <_ZN9allow_pin12full_dynamic17unshare_if_shared17h34fb2a9288def0c2E>
   22384:	4620      	mov	r0, r4
   22386:	f004 fdc7 	bl	26f18 <_ZN9allow_pin12full_dynamic17unshare_if_shared17h34fb2a9288def0c2E>
   2238a:	9c03      	ldr	r4, [sp, #12]
   2238c:	1c60      	adds	r0, r4, #1
   2238e:	223f      	movs	r2, #63	@ 0x3f
   22390:	4629      	mov	r1, r5
   22392:	f004 ff82 	bl	2729a <__aeabi_memcpy>
   22396:	e7e4      	b.n	22362 <_ZN20complex_full_dynamic3app17h8820b63f3b38cb7fE+0x7a>

00022398 <_ZN20complex_full_dynamic3app17h9302f4e6681d03fdE>:
   22398:	b5f0      	push	{r4, r5, r6, r7, lr}
   2239a:	af03      	add	r7, sp, #12
   2239c:	b0a7      	sub	sp, #156	@ 0x9c
   2239e:	9002      	str	r0, [sp, #8]
   223a0:	ac03      	add	r4, sp, #12
   223a2:	2002      	movs	r0, #2
   223a4:	9001      	str	r0, [sp, #4]
   223a6:	7220      	strb	r0, [r4, #8]
   223a8:	340c      	adds	r4, #12
   223aa:	2232      	movs	r2, #50	@ 0x32
   223ac:	9200      	str	r2, [sp, #0]
   223ae:	4620      	mov	r0, r4
   223b0:	f004 ff73 	bl	2729a <__aeabi_memcpy>
   223b4:	ae13      	add	r6, sp, #76	@ 0x4c
   223b6:	4635      	mov	r5, r6
   223b8:	350c      	adds	r5, #12
   223ba:	2141      	movs	r1, #65	@ 0x41
   223bc:	4628      	mov	r0, r5
   223be:	f004 fdbf 	bl	26f40 <__aeabi_memclr4>
   223c2:	9801      	ldr	r0, [sp, #4]
   223c4:	7230      	strb	r0, [r6, #8]
   223c6:	4820      	ldr	r0, [pc, #128]	@ (22448 <_ZN20complex_full_dynamic3app17h9302f4e6681d03fdE+0xb0>)
   223c8:	2607      	movs	r6, #7
   223ca:	4631      	mov	r1, r6
   223cc:	4622      	mov	r2, r4
   223ce:	9b00      	ldr	r3, [sp, #0]
   223d0:	df04      	svc	4
   223d2:	2802      	cmp	r0, #2
   223d4:	d01a      	beq.n	2240c <_ZN20complex_full_dynamic3app17h9302f4e6681d03fdE+0x74>
   223d6:	a803      	add	r0, sp, #12
   223d8:	2104      	movs	r1, #4
   223da:	7201      	strb	r1, [r0, #8]
   223dc:	9604      	str	r6, [sp, #16]
   223de:	4e1a      	ldr	r6, [pc, #104]	@ (22448 <_ZN20complex_full_dynamic3app17h9302f4e6681d03fdE+0xb0>)
   223e0:	9603      	str	r6, [sp, #12]
   223e2:	2405      	movs	r4, #5
   223e4:	2341      	movs	r3, #65	@ 0x41
   223e6:	4630      	mov	r0, r6
   223e8:	4621      	mov	r1, r4
   223ea:	462a      	mov	r2, r5
   223ec:	df03      	svc	3
   223ee:	2802      	cmp	r0, #2
   223f0:	d00c      	beq.n	2240c <_ZN20complex_full_dynamic3app17h9302f4e6681d03fdE+0x74>
   223f2:	a813      	add	r0, sp, #76	@ 0x4c
   223f4:	2103      	movs	r1, #3
   223f6:	7201      	strb	r1, [r0, #8]
   223f8:	9613      	str	r6, [sp, #76]	@ 0x4c
   223fa:	9414      	str	r4, [sp, #80]	@ 0x50
   223fc:	4812      	ldr	r0, [pc, #72]	@ (22448 <_ZN20complex_full_dynamic3app17h9302f4e6681d03fdE+0xb0>)
   223fe:	2107      	movs	r1, #7
   22400:	2600      	movs	r6, #0
   22402:	4622      	mov	r2, r4
   22404:	4633      	mov	r3, r6
   22406:	df02      	svc	2
   22408:	287f      	cmp	r0, #127	@ 0x7f
   2240a:	d80b      	bhi.n	22424 <_ZN20complex_full_dynamic3app17h9302f4e6681d03fdE+0x8c>
   2240c:	9c02      	ldr	r4, [sp, #8]
   2240e:	6061      	str	r1, [r4, #4]
   22410:	2601      	movs	r6, #1
   22412:	7026      	strb	r6, [r4, #0]
   22414:	a813      	add	r0, sp, #76	@ 0x4c
   22416:	f004 fd7f 	bl	26f18 <_ZN9allow_pin12full_dynamic17unshare_if_shared17h34fb2a9288def0c2E>
   2241a:	a803      	add	r0, sp, #12
   2241c:	f004 fd7c 	bl	26f18 <_ZN9allow_pin12full_dynamic17unshare_if_shared17h34fb2a9288def0c2E>
   22420:	b027      	add	sp, #156	@ 0x9c
   22422:	bdf0      	pop	{r4, r5, r6, r7, pc}
   22424:	a803      	add	r0, sp, #12
   22426:	f004 fd77 	bl	26f18 <_ZN9allow_pin12full_dynamic17unshare_if_shared17h34fb2a9288def0c2E>
   2242a:	ac13      	add	r4, sp, #76	@ 0x4c
   2242c:	4620      	mov	r0, r4
   2242e:	f004 fd73 	bl	26f18 <_ZN9allow_pin12full_dynamic17unshare_if_shared17h34fb2a9288def0c2E>
   22432:	4620      	mov	r0, r4
   22434:	f004 fd70 	bl	26f18 <_ZN9allow_pin12full_dynamic17unshare_if_shared17h34fb2a9288def0c2E>
   22438:	9c02      	ldr	r4, [sp, #8]
   2243a:	1c60      	adds	r0, r4, #1
   2243c:	2241      	movs	r2, #65	@ 0x41
   2243e:	4629      	mov	r1, r5
   22440:	f004 ff2b 	bl	2729a <__aeabi_memcpy>
   22444:	e7e5      	b.n	22412 <_ZN20complex_full_dynamic3app17h9302f4e6681d03fdE+0x7a>
   22446:	46c0      	nop			@ (mov r8, r8)
   22448:	0000091d 	.word	0x0000091d

0002244c <_ZN20complex_full_dynamic3app17h960205ef2764b5daE>:
   2244c:	b5f0      	push	{r4, r5, r6, r7, lr}
   2244e:	af03      	add	r7, sp, #12
   22450:	b099      	sub	sp, #100	@ 0x64
   22452:	9002      	str	r0, [sp, #8]
   22454:	ac03      	add	r4, sp, #12
   22456:	2602      	movs	r6, #2
   22458:	7226      	strb	r6, [r4, #8]
   2245a:	340c      	adds	r4, #12
   2245c:	2525      	movs	r5, #37	@ 0x25
   2245e:	4620      	mov	r0, r4
   22460:	462a      	mov	r2, r5
   22462:	f004 ff1a 	bl	2729a <__aeabi_memcpy>
   22466:	a810      	add	r0, sp, #64	@ 0x40
   22468:	9001      	str	r0, [sp, #4]
   2246a:	7206      	strb	r6, [r0, #8]
   2246c:	2000      	movs	r0, #0
   2246e:	9018      	str	r0, [sp, #96]	@ 0x60
   22470:	9017      	str	r0, [sp, #92]	@ 0x5c
   22472:	9016      	str	r0, [sp, #88]	@ 0x58
   22474:	9015      	str	r0, [sp, #84]	@ 0x54
   22476:	9014      	str	r0, [sp, #80]	@ 0x50
   22478:	9013      	str	r0, [sp, #76]	@ 0x4c
   2247a:	20a7      	movs	r0, #167	@ 0xa7
   2247c:	0100      	lsls	r0, r0, #4
   2247e:	2609      	movs	r6, #9
   22480:	9000      	str	r0, [sp, #0]
   22482:	4631      	mov	r1, r6
   22484:	4622      	mov	r2, r4
   22486:	462b      	mov	r3, r5
   22488:	df04      	svc	4
   2248a:	2802      	cmp	r0, #2
   2248c:	d01d      	beq.n	224ca <_ZN20complex_full_dynamic3app17h960205ef2764b5daE+0x7e>
   2248e:	9c01      	ldr	r4, [sp, #4]
   22490:	340c      	adds	r4, #12
   22492:	a803      	add	r0, sp, #12
   22494:	2104      	movs	r1, #4
   22496:	7201      	strb	r1, [r0, #8]
   22498:	9604      	str	r6, [sp, #16]
   2249a:	9d00      	ldr	r5, [sp, #0]
   2249c:	9503      	str	r5, [sp, #12]
   2249e:	2108      	movs	r1, #8
   224a0:	2318      	movs	r3, #24
   224a2:	4628      	mov	r0, r5
   224a4:	460e      	mov	r6, r1
   224a6:	4622      	mov	r2, r4
   224a8:	df03      	svc	3
   224aa:	2802      	cmp	r0, #2
   224ac:	d00d      	beq.n	224ca <_ZN20complex_full_dynamic3app17h960205ef2764b5daE+0x7e>
   224ae:	9401      	str	r4, [sp, #4]
   224b0:	a810      	add	r0, sp, #64	@ 0x40
   224b2:	2103      	movs	r1, #3
   224b4:	7201      	strb	r1, [r0, #8]
   224b6:	9510      	str	r5, [sp, #64]	@ 0x40
   224b8:	9611      	str	r6, [sp, #68]	@ 0x44
   224ba:	2109      	movs	r1, #9
   224bc:	2400      	movs	r4, #0
   224be:	4628      	mov	r0, r5
   224c0:	4632      	mov	r2, r6
   224c2:	4623      	mov	r3, r4
   224c4:	df02      	svc	2
   224c6:	287f      	cmp	r0, #127	@ 0x7f
   224c8:	d80b      	bhi.n	224e2 <_ZN20complex_full_dynamic3app17h960205ef2764b5daE+0x96>
   224ca:	9d02      	ldr	r5, [sp, #8]
   224cc:	6069      	str	r1, [r5, #4]
   224ce:	2401      	movs	r4, #1
   224d0:	702c      	strb	r4, [r5, #0]
   224d2:	a810      	add	r0, sp, #64	@ 0x40
   224d4:	f004 fd20 	bl	26f18 <_ZN9allow_pin12full_dynamic17unshare_if_shared17h34fb2a9288def0c2E>
   224d8:	a803      	add	r0, sp, #12
   224da:	f004 fd1d 	bl	26f18 <_ZN9allow_pin12full_dynamic17unshare_if_shared17h34fb2a9288def0c2E>
   224de:	b019      	add	sp, #100	@ 0x64
   224e0:	bdf0      	pop	{r4, r5, r6, r7, pc}
   224e2:	a803      	add	r0, sp, #12
   224e4:	f004 fd18 	bl	26f18 <_ZN9allow_pin12full_dynamic17unshare_if_shared17h34fb2a9288def0c2E>
   224e8:	ad10      	add	r5, sp, #64	@ 0x40
   224ea:	4628      	mov	r0, r5
   224ec:	f004 fd14 	bl	26f18 <_ZN9allow_pin12full_dynamic17unshare_if_shared17h34fb2a9288def0c2E>
   224f0:	4628      	mov	r0, r5
   224f2:	f004 fd11 	bl	26f18 <_ZN9allow_pin12full_dynamic17unshare_if_shared17h34fb2a9288def0c2E>
   224f6:	9d02      	ldr	r5, [sp, #8]
   224f8:	1c68      	adds	r0, r5, #1
   224fa:	2218      	movs	r2, #24
   224fc:	9901      	ldr	r1, [sp, #4]
   224fe:	f004 fecc 	bl	2729a <__aeabi_memcpy>
   22502:	e7e5      	b.n	224d0 <_ZN20complex_full_dynamic3app17h960205ef2764b5daE+0x84>

00022504 <_ZN20complex_full_dynamic3app17h972ba27634c7eb32E>:
   22504:	b5f0      	push	{r4, r5, r6, r7, lr}
   22506:	af03      	add	r7, sp, #12
   22508:	b09b      	sub	sp, #108	@ 0x6c
   2250a:	9002      	str	r0, [sp, #8]
   2250c:	ac03      	add	r4, sp, #12
   2250e:	2502      	movs	r5, #2
   22510:	7225      	strb	r5, [r4, #8]
   22512:	340c      	adds	r4, #12
   22514:	2229      	movs	r2, #41	@ 0x29
   22516:	9201      	str	r2, [sp, #4]
   22518:	4620      	mov	r0, r4
   2251a:	f004 febe 	bl	2729a <__aeabi_memcpy>
   2251e:	ae11      	add	r6, sp, #68	@ 0x44
   22520:	2000      	movs	r0, #0
   22522:	84b0      	strh	r0, [r6, #36]	@ 0x24
   22524:	7235      	strb	r5, [r6, #8]
   22526:	9019      	str	r0, [sp, #100]	@ 0x64
   22528:	9018      	str	r0, [sp, #96]	@ 0x60
   2252a:	9017      	str	r0, [sp, #92]	@ 0x5c
   2252c:	9016      	str	r0, [sp, #88]	@ 0x58
   2252e:	9015      	str	r0, [sp, #84]	@ 0x54
   22530:	9014      	str	r0, [sp, #80]	@ 0x50
   22532:	4820      	ldr	r0, [pc, #128]	@ (225b4 <_ZN20complex_full_dynamic3app17h972ba27634c7eb32E+0xb0>)
   22534:	2505      	movs	r5, #5
   22536:	4629      	mov	r1, r5
   22538:	4622      	mov	r2, r4
   2253a:	9b01      	ldr	r3, [sp, #4]
   2253c:	df04      	svc	4
   2253e:	2802      	cmp	r0, #2
   22540:	d01a      	beq.n	22578 <_ZN20complex_full_dynamic3app17h972ba27634c7eb32E+0x74>
   22542:	360c      	adds	r6, #12
   22544:	a803      	add	r0, sp, #12
   22546:	2104      	movs	r1, #4
   22548:	7201      	strb	r1, [r0, #8]
   2254a:	9504      	str	r5, [sp, #16]
   2254c:	4819      	ldr	r0, [pc, #100]	@ (225b4 <_ZN20complex_full_dynamic3app17h972ba27634c7eb32E+0xb0>)
   2254e:	9003      	str	r0, [sp, #12]
   22550:	2403      	movs	r4, #3
   22552:	231a      	movs	r3, #26
   22554:	4621      	mov	r1, r4
   22556:	4632      	mov	r2, r6
   22558:	df03      	svc	3
   2255a:	2802      	cmp	r0, #2
   2255c:	d00c      	beq.n	22578 <_ZN20complex_full_dynamic3app17h972ba27634c7eb32E+0x74>
   2255e:	4635      	mov	r5, r6
   22560:	a811      	add	r0, sp, #68	@ 0x44
   22562:	7204      	strb	r4, [r0, #8]
   22564:	9412      	str	r4, [sp, #72]	@ 0x48
   22566:	4813      	ldr	r0, [pc, #76]	@ (225b4 <_ZN20complex_full_dynamic3app17h972ba27634c7eb32E+0xb0>)
   22568:	9011      	str	r0, [sp, #68]	@ 0x44
   2256a:	2105      	movs	r1, #5
   2256c:	2600      	movs	r6, #0
   2256e:	4622      	mov	r2, r4
   22570:	4633      	mov	r3, r6
   22572:	df02      	svc	2
   22574:	287f      	cmp	r0, #127	@ 0x7f
   22576:	d80b      	bhi.n	22590 <_ZN20complex_full_dynamic3app17h972ba27634c7eb32E+0x8c>
   22578:	9c02      	ldr	r4, [sp, #8]
   2257a:	6061      	str	r1, [r4, #4]
   2257c:	2601      	movs	r6, #1
   2257e:	7026      	strb	r6, [r4, #0]
   22580:	a811      	add	r0, sp, #68	@ 0x44
   22582:	f004 fcc9 	bl	26f18 <_ZN9allow_pin12full_dynamic17unshare_if_shared17h34fb2a9288def0c2E>
   22586:	a803      	add	r0, sp, #12
   22588:	f004 fcc6 	bl	26f18 <_ZN9allow_pin12full_dynamic17unshare_if_shared17h34fb2a9288def0c2E>
   2258c:	b01b      	add	sp, #108	@ 0x6c
   2258e:	bdf0      	pop	{r4, r5, r6, r7, pc}
   22590:	a803      	add	r0, sp, #12
   22592:	f004 fcc1 	bl	26f18 <_ZN9allow_pin12full_dynamic17unshare_if_shared17h34fb2a9288def0c2E>
   22596:	ac11      	add	r4, sp, #68	@ 0x44
   22598:	4620      	mov	r0, r4
   2259a:	f004 fcbd 	bl	26f18 <_ZN9allow_pin12full_dynamic17unshare_if_shared17h34fb2a9288def0c2E>
   2259e:	4620      	mov	r0, r4
   225a0:	f004 fcba 	bl	26f18 <_ZN9allow_pin12full_dynamic17unshare_if_shared17h34fb2a9288def0c2E>
   225a4:	9c02      	ldr	r4, [sp, #8]
   225a6:	1c60      	adds	r0, r4, #1
   225a8:	221a      	movs	r2, #26
   225aa:	4629      	mov	r1, r5
   225ac:	f004 fe75 	bl	2729a <__aeabi_memcpy>
   225b0:	e7e5      	b.n	2257e <_ZN20complex_full_dynamic3app17h972ba27634c7eb32E+0x7a>
   225b2:	46c0      	nop			@ (mov r8, r8)
   225b4:	00002048 	.word	0x00002048

000225b8 <_ZN20complex_full_dynamic3app17h9842061aba2b7cbaE>:
   225b8:	b5f0      	push	{r4, r5, r6, r7, lr}
   225ba:	af03      	add	r7, sp, #12
   225bc:	b0b7      	sub	sp, #220	@ 0xdc
   225be:	9003      	str	r0, [sp, #12]
   225c0:	ad04      	add	r5, sp, #16
   225c2:	2602      	movs	r6, #2
   225c4:	722e      	strb	r6, [r5, #8]
   225c6:	350c      	adds	r5, #12
   225c8:	224f      	movs	r2, #79	@ 0x4f
   225ca:	9202      	str	r2, [sp, #8]
   225cc:	4628      	mov	r0, r5
   225ce:	f004 fe64 	bl	2729a <__aeabi_memcpy>
   225d2:	ac1b      	add	r4, sp, #108	@ 0x6c
   225d4:	4620      	mov	r0, r4
   225d6:	300c      	adds	r0, #12
   225d8:	2161      	movs	r1, #97	@ 0x61
   225da:	9001      	str	r0, [sp, #4]
   225dc:	f004 fcb0 	bl	26f40 <__aeabi_memclr4>
   225e0:	7226      	strb	r6, [r4, #8]
   225e2:	4634      	mov	r4, r6
   225e4:	20db      	movs	r0, #219	@ 0xdb
   225e6:	0046      	lsls	r6, r0, #1
   225e8:	4630      	mov	r0, r6
   225ea:	4621      	mov	r1, r4
   225ec:	462a      	mov	r2, r5
   225ee:	9b02      	ldr	r3, [sp, #8]
   225f0:	df04      	svc	4
   225f2:	2802      	cmp	r0, #2
   225f4:	d01a      	beq.n	2262c <_ZN20complex_full_dynamic3app17h9842061aba2b7cbaE+0x74>
   225f6:	a804      	add	r0, sp, #16
   225f8:	2104      	movs	r1, #4
   225fa:	7201      	strb	r1, [r0, #8]
   225fc:	9405      	str	r4, [sp, #20]
   225fe:	9604      	str	r6, [sp, #16]
   22600:	2508      	movs	r5, #8
   22602:	2361      	movs	r3, #97	@ 0x61
   22604:	4630      	mov	r0, r6
   22606:	4629      	mov	r1, r5
   22608:	9c01      	ldr	r4, [sp, #4]
   2260a:	4622      	mov	r2, r4
   2260c:	df03      	svc	3
   2260e:	2802      	cmp	r0, #2
   22610:	d00c      	beq.n	2262c <_ZN20complex_full_dynamic3app17h9842061aba2b7cbaE+0x74>
   22612:	a81b      	add	r0, sp, #108	@ 0x6c
   22614:	2103      	movs	r1, #3
   22616:	7201      	strb	r1, [r0, #8]
   22618:	961b      	str	r6, [sp, #108]	@ 0x6c
   2261a:	951c      	str	r5, [sp, #112]	@ 0x70
   2261c:	2102      	movs	r1, #2
   2261e:	4630      	mov	r0, r6
   22620:	2600      	movs	r6, #0
   22622:	462a      	mov	r2, r5
   22624:	4633      	mov	r3, r6
   22626:	df02      	svc	2
   22628:	287f      	cmp	r0, #127	@ 0x7f
   2262a:	d80b      	bhi.n	22644 <_ZN20complex_full_dynamic3app17h9842061aba2b7cbaE+0x8c>
   2262c:	9c03      	ldr	r4, [sp, #12]
   2262e:	6061      	str	r1, [r4, #4]
   22630:	2601      	movs	r6, #1
   22632:	7026      	strb	r6, [r4, #0]
   22634:	a81b      	add	r0, sp, #108	@ 0x6c
   22636:	f004 fc6f 	bl	26f18 <_ZN9allow_pin12full_dynamic17unshare_if_shared17h34fb2a9288def0c2E>
   2263a:	a804      	add	r0, sp, #16
   2263c:	f004 fc6c 	bl	26f18 <_ZN9allow_pin12full_dynamic17unshare_if_shared17h34fb2a9288def0c2E>
   22640:	b037      	add	sp, #220	@ 0xdc
   22642:	bdf0      	pop	{r4, r5, r6, r7, pc}
   22644:	a804      	add	r0, sp, #16
   22646:	f004 fc67 	bl	26f18 <_ZN9allow_pin12full_dynamic17unshare_if_shared17h34fb2a9288def0c2E>
   2264a:	4625      	mov	r5, r4
   2264c:	ac1b      	add	r4, sp, #108	@ 0x6c
   2264e:	4620      	mov	r0, r4
   22650:	f004 fc62 	bl	26f18 <_ZN9allow_pin12full_dynamic17unshare_if_shared17h34fb2a9288def0c2E>
   22654:	4620      	mov	r0, r4
   22656:	f004 fc5f 	bl	26f18 <_ZN9allow_pin12full_dynamic17unshare_if_shared17h34fb2a9288def0c2E>
   2265a:	9c03      	ldr	r4, [sp, #12]
   2265c:	1c60      	adds	r0, r4, #1
   2265e:	2261      	movs	r2, #97	@ 0x61
   22660:	4629      	mov	r1, r5
   22662:	f004 fe1a 	bl	2729a <__aeabi_memcpy>
   22666:	e7e4      	b.n	22632 <_ZN20complex_full_dynamic3app17h9842061aba2b7cbaE+0x7a>

00022668 <_ZN20complex_full_dynamic3app17h9ffc9ed1fc98c700E>:
   22668:	b5f0      	push	{r4, r5, r6, r7, lr}
   2266a:	af03      	add	r7, sp, #12
   2266c:	b09f      	sub	sp, #124	@ 0x7c
   2266e:	9002      	str	r0, [sp, #8]
   22670:	ac03      	add	r4, sp, #12
   22672:	2002      	movs	r0, #2
   22674:	9001      	str	r0, [sp, #4]
   22676:	7220      	strb	r0, [r4, #8]
   22678:	340c      	adds	r4, #12
   2267a:	220f      	movs	r2, #15
   2267c:	9200      	str	r2, [sp, #0]
   2267e:	4620      	mov	r0, r4
   22680:	f004 fe0b 	bl	2729a <__aeabi_memcpy>
   22684:	ae0a      	add	r6, sp, #40	@ 0x28
   22686:	4635      	mov	r5, r6
   22688:	350c      	adds	r5, #12
   2268a:	2146      	movs	r1, #70	@ 0x46
   2268c:	4628      	mov	r0, r5
   2268e:	f004 fc57 	bl	26f40 <__aeabi_memclr4>
   22692:	9801      	ldr	r0, [sp, #4]
   22694:	7230      	strb	r0, [r6, #8]
   22696:	4820      	ldr	r0, [pc, #128]	@ (22718 <_ZN20complex_full_dynamic3app17h9ffc9ed1fc98c700E+0xb0>)
   22698:	2609      	movs	r6, #9
   2269a:	4631      	mov	r1, r6
   2269c:	4622      	mov	r2, r4
   2269e:	9b00      	ldr	r3, [sp, #0]
   226a0:	df04      	svc	4
   226a2:	2802      	cmp	r0, #2
   226a4:	d01a      	beq.n	226dc <_ZN20complex_full_dynamic3app17h9ffc9ed1fc98c700E+0x74>
   226a6:	a803      	add	r0, sp, #12
   226a8:	2104      	movs	r1, #4
   226aa:	7201      	strb	r1, [r0, #8]
   226ac:	9604      	str	r6, [sp, #16]
   226ae:	4e1a      	ldr	r6, [pc, #104]	@ (22718 <_ZN20complex_full_dynamic3app17h9ffc9ed1fc98c700E+0xb0>)
   226b0:	9603      	str	r6, [sp, #12]
   226b2:	2402      	movs	r4, #2
   226b4:	2346      	movs	r3, #70	@ 0x46
   226b6:	4630      	mov	r0, r6
   226b8:	4621      	mov	r1, r4
   226ba:	462a      	mov	r2, r5
   226bc:	df03      	svc	3
   226be:	2802      	cmp	r0, #2
   226c0:	d00c      	beq.n	226dc <_ZN20complex_full_dynamic3app17h9ffc9ed1fc98c700E+0x74>
   226c2:	a80a      	add	r0, sp, #40	@ 0x28
   226c4:	2103      	movs	r1, #3
   226c6:	7201      	strb	r1, [r0, #8]
   226c8:	960a      	str	r6, [sp, #40]	@ 0x28
   226ca:	940b      	str	r4, [sp, #44]	@ 0x2c
   226cc:	4812      	ldr	r0, [pc, #72]	@ (22718 <_ZN20complex_full_dynamic3app17h9ffc9ed1fc98c700E+0xb0>)
   226ce:	2109      	movs	r1, #9
   226d0:	2600      	movs	r6, #0
   226d2:	4622      	mov	r2, r4
   226d4:	4633      	mov	r3, r6
   226d6:	df02      	svc	2
   226d8:	287f      	cmp	r0, #127	@ 0x7f
   226da:	d80b      	bhi.n	226f4 <_ZN20complex_full_dynamic3app17h9ffc9ed1fc98c700E+0x8c>
   226dc:	9c02      	ldr	r4, [sp, #8]
   226de:	6061      	str	r1, [r4, #4]
   226e0:	2601      	movs	r6, #1
   226e2:	7026      	strb	r6, [r4, #0]
   226e4:	a80a      	add	r0, sp, #40	@ 0x28
   226e6:	f004 fc17 	bl	26f18 <_ZN9allow_pin12full_dynamic17unshare_if_shared17h34fb2a9288def0c2E>
   226ea:	a803      	add	r0, sp, #12
   226ec:	f004 fc14 	bl	26f18 <_ZN9allow_pin12full_dynamic17unshare_if_shared17h34fb2a9288def0c2E>
   226f0:	b01f      	add	sp, #124	@ 0x7c
   226f2:	bdf0      	pop	{r4, r5, r6, r7, pc}
   226f4:	a803      	add	r0, sp, #12
   226f6:	f004 fc0f 	bl	26f18 <_ZN9allow_pin12full_dynamic17unshare_if_shared17h34fb2a9288def0c2E>
   226fa:	ac0a      	add	r4, sp, #40	@ 0x28
   226fc:	4620      	mov	r0, r4
   226fe:	f004 fc0b 	bl	26f18 <_ZN9allow_pin12full_dynamic17unshare_if_shared17h34fb2a9288def0c2E>
   22702:	4620      	mov	r0, r4
   22704:	f004 fc08 	bl	26f18 <_ZN9allow_pin12full_dynamic17unshare_if_shared17h34fb2a9288def0c2E>
   22708:	9c02      	ldr	r4, [sp, #8]
   2270a:	1c60      	adds	r0, r4, #1
   2270c:	2246      	movs	r2, #70	@ 0x46
   2270e:	4629      	mov	r1, r5
   22710:	f004 fdc3 	bl	2729a <__aeabi_memcpy>
   22714:	e7e5      	b.n	226e2 <_ZN20complex_full_dynamic3app17h9ffc9ed1fc98c700E+0x7a>
   22716:	46c0      	nop			@ (mov r8, r8)
   22718:	00001d7e 	.word	0x00001d7e

0002271c <_ZN20complex_full_dynamic3app17ha08771ef4f665807E>:
   2271c:	b5f0      	push	{r4, r5, r6, r7, lr}
   2271e:	af03      	add	r7, sp, #12
   22720:	b0a1      	sub	sp, #132	@ 0x84
   22722:	9003      	str	r0, [sp, #12]
   22724:	ac04      	add	r4, sp, #16
   22726:	2602      	movs	r6, #2
   22728:	7226      	strb	r6, [r4, #8]
   2272a:	340c      	adds	r4, #12
   2272c:	221e      	movs	r2, #30
   2272e:	9202      	str	r2, [sp, #8]
   22730:	4620      	mov	r0, r4
   22732:	f004 fdb2 	bl	2729a <__aeabi_memcpy>
   22736:	ad0f      	add	r5, sp, #60	@ 0x3c
   22738:	4628      	mov	r0, r5
   2273a:	300c      	adds	r0, #12
   2273c:	213c      	movs	r1, #60	@ 0x3c
   2273e:	9001      	str	r0, [sp, #4]
   22740:	f004 fbfe 	bl	26f40 <__aeabi_memclr4>
   22744:	722e      	strb	r6, [r5, #8]
   22746:	4635      	mov	r5, r6
   22748:	4e1f      	ldr	r6, [pc, #124]	@ (227c8 <_ZN20complex_full_dynamic3app17ha08771ef4f665807E+0xac>)
   2274a:	4630      	mov	r0, r6
   2274c:	4629      	mov	r1, r5
   2274e:	4622      	mov	r2, r4
   22750:	9b02      	ldr	r3, [sp, #8]
   22752:	df04      	svc	4
   22754:	2802      	cmp	r0, #2
   22756:	d019      	beq.n	2278c <_ZN20complex_full_dynamic3app17ha08771ef4f665807E+0x70>
   22758:	a804      	add	r0, sp, #16
   2275a:	2104      	movs	r1, #4
   2275c:	7201      	strb	r1, [r0, #8]
   2275e:	9505      	str	r5, [sp, #20]
   22760:	9604      	str	r6, [sp, #16]
   22762:	2403      	movs	r4, #3
   22764:	233c      	movs	r3, #60	@ 0x3c
   22766:	4630      	mov	r0, r6
   22768:	4621      	mov	r1, r4
   2276a:	9d01      	ldr	r5, [sp, #4]
   2276c:	462a      	mov	r2, r5
   2276e:	df03      	svc	3
   22770:	2802      	cmp	r0, #2
   22772:	d00b      	beq.n	2278c <_ZN20complex_full_dynamic3app17ha08771ef4f665807E+0x70>
   22774:	a80f      	add	r0, sp, #60	@ 0x3c
   22776:	7204      	strb	r4, [r0, #8]
   22778:	9410      	str	r4, [sp, #64]	@ 0x40
   2277a:	960f      	str	r6, [sp, #60]	@ 0x3c
   2277c:	4812      	ldr	r0, [pc, #72]	@ (227c8 <_ZN20complex_full_dynamic3app17ha08771ef4f665807E+0xac>)
   2277e:	2102      	movs	r1, #2
   22780:	2600      	movs	r6, #0
   22782:	4622      	mov	r2, r4
   22784:	4633      	mov	r3, r6
   22786:	df02      	svc	2
   22788:	287f      	cmp	r0, #127	@ 0x7f
   2278a:	d80b      	bhi.n	227a4 <_ZN20complex_full_dynamic3app17ha08771ef4f665807E+0x88>
   2278c:	9c03      	ldr	r4, [sp, #12]
   2278e:	6061      	str	r1, [r4, #4]
   22790:	2601      	movs	r6, #1
   22792:	7026      	strb	r6, [r4, #0]
   22794:	a80f      	add	r0, sp, #60	@ 0x3c
   22796:	f004 fbbf 	bl	26f18 <_ZN9allow_pin12full_dynamic17unshare_if_shared17h34fb2a9288def0c2E>
   2279a:	a804      	add	r0, sp, #16
   2279c:	f004 fbbc 	bl	26f18 <_ZN9allow_pin12full_dynamic17unshare_if_shared17h34fb2a9288def0c2E>
   227a0:	b021      	add	sp, #132	@ 0x84
   227a2:	bdf0      	pop	{r4, r5, r6, r7, pc}
   227a4:	a804      	add	r0, sp, #16
   227a6:	f004 fbb7 	bl	26f18 <_ZN9allow_pin12full_dynamic17unshare_if_shared17h34fb2a9288def0c2E>
   227aa:	ac0f      	add	r4, sp, #60	@ 0x3c
   227ac:	4620      	mov	r0, r4
   227ae:	f004 fbb3 	bl	26f18 <_ZN9allow_pin12full_dynamic17unshare_if_shared17h34fb2a9288def0c2E>
   227b2:	4620      	mov	r0, r4
   227b4:	f004 fbb0 	bl	26f18 <_ZN9allow_pin12full_dynamic17unshare_if_shared17h34fb2a9288def0c2E>
   227b8:	9c03      	ldr	r4, [sp, #12]
   227ba:	1c60      	adds	r0, r4, #1
   227bc:	223c      	movs	r2, #60	@ 0x3c
   227be:	4629      	mov	r1, r5
   227c0:	f004 fd6b 	bl	2729a <__aeabi_memcpy>
   227c4:	e7e5      	b.n	22792 <_ZN20complex_full_dynamic3app17ha08771ef4f665807E+0x76>
   227c6:	46c0      	nop			@ (mov r8, r8)
   227c8:	00000b3c 	.word	0x00000b3c

000227cc <_ZN20complex_full_dynamic3app17ha10a0c38e7b9e24aE>:
   227cc:	b5f0      	push	{r4, r5, r6, r7, lr}
   227ce:	af03      	add	r7, sp, #12
   227d0:	b0ab      	sub	sp, #172	@ 0xac
   227d2:	9002      	str	r0, [sp, #8]
   227d4:	ac03      	add	r4, sp, #12
   227d6:	2002      	movs	r0, #2
   227d8:	9001      	str	r0, [sp, #4]
   227da:	7220      	strb	r0, [r4, #8]
   227dc:	340c      	adds	r4, #12
   227de:	222a      	movs	r2, #42	@ 0x2a
   227e0:	9200      	str	r2, [sp, #0]
   227e2:	4620      	mov	r0, r4
   227e4:	f004 fd59 	bl	2729a <__aeabi_memcpy>
   227e8:	ae11      	add	r6, sp, #68	@ 0x44
   227ea:	4635      	mov	r5, r6
   227ec:	350c      	adds	r5, #12
   227ee:	2159      	movs	r1, #89	@ 0x59
   227f0:	4628      	mov	r0, r5
   227f2:	f004 fba5 	bl	26f40 <__aeabi_memclr4>
   227f6:	9801      	ldr	r0, [sp, #4]
   227f8:	7230      	strb	r0, [r6, #8]
   227fa:	481f      	ldr	r0, [pc, #124]	@ (22878 <_ZN20complex_full_dynamic3app17ha10a0c38e7b9e24aE+0xac>)
   227fc:	2601      	movs	r6, #1
   227fe:	4631      	mov	r1, r6
   22800:	4622      	mov	r2, r4
   22802:	9b00      	ldr	r3, [sp, #0]
   22804:	df04      	svc	4
   22806:	2802      	cmp	r0, #2
   22808:	d018      	beq.n	2283c <_ZN20complex_full_dynamic3app17ha10a0c38e7b9e24aE+0x70>
   2280a:	a803      	add	r0, sp, #12
   2280c:	2104      	movs	r1, #4
   2280e:	7201      	strb	r1, [r0, #8]
   22810:	9604      	str	r6, [sp, #16]
   22812:	4819      	ldr	r0, [pc, #100]	@ (22878 <_ZN20complex_full_dynamic3app17ha10a0c38e7b9e24aE+0xac>)
   22814:	9003      	str	r0, [sp, #12]
   22816:	2403      	movs	r4, #3
   22818:	2359      	movs	r3, #89	@ 0x59
   2281a:	4621      	mov	r1, r4
   2281c:	462a      	mov	r2, r5
   2281e:	df03      	svc	3
   22820:	2802      	cmp	r0, #2
   22822:	d00b      	beq.n	2283c <_ZN20complex_full_dynamic3app17ha10a0c38e7b9e24aE+0x70>
   22824:	a811      	add	r0, sp, #68	@ 0x44
   22826:	7204      	strb	r4, [r0, #8]
   22828:	9412      	str	r4, [sp, #72]	@ 0x48
   2282a:	4813      	ldr	r0, [pc, #76]	@ (22878 <_ZN20complex_full_dynamic3app17ha10a0c38e7b9e24aE+0xac>)
   2282c:	9011      	str	r0, [sp, #68]	@ 0x44
   2282e:	2101      	movs	r1, #1
   22830:	2300      	movs	r3, #0
   22832:	4622      	mov	r2, r4
   22834:	9301      	str	r3, [sp, #4]
   22836:	df02      	svc	2
   22838:	287f      	cmp	r0, #127	@ 0x7f
   2283a:	d80a      	bhi.n	22852 <_ZN20complex_full_dynamic3app17ha10a0c38e7b9e24aE+0x86>
   2283c:	9c02      	ldr	r4, [sp, #8]
   2283e:	6061      	str	r1, [r4, #4]
   22840:	7026      	strb	r6, [r4, #0]
   22842:	a811      	add	r0, sp, #68	@ 0x44
   22844:	f004 fb68 	bl	26f18 <_ZN9allow_pin12full_dynamic17unshare_if_shared17h34fb2a9288def0c2E>
   22848:	a803      	add	r0, sp, #12
   2284a:	f004 fb65 	bl	26f18 <_ZN9allow_pin12full_dynamic17unshare_if_shared17h34fb2a9288def0c2E>
   2284e:	b02b      	add	sp, #172	@ 0xac
   22850:	bdf0      	pop	{r4, r5, r6, r7, pc}
   22852:	a803      	add	r0, sp, #12
   22854:	f004 fb60 	bl	26f18 <_ZN9allow_pin12full_dynamic17unshare_if_shared17h34fb2a9288def0c2E>
   22858:	ac11      	add	r4, sp, #68	@ 0x44
   2285a:	4620      	mov	r0, r4
   2285c:	f004 fb5c 	bl	26f18 <_ZN9allow_pin12full_dynamic17unshare_if_shared17h34fb2a9288def0c2E>
   22860:	4620      	mov	r0, r4
   22862:	f004 fb59 	bl	26f18 <_ZN9allow_pin12full_dynamic17unshare_if_shared17h34fb2a9288def0c2E>
   22866:	9c02      	ldr	r4, [sp, #8]
   22868:	1c60      	adds	r0, r4, #1
   2286a:	2259      	movs	r2, #89	@ 0x59
   2286c:	4629      	mov	r1, r5
   2286e:	f004 fd14 	bl	2729a <__aeabi_memcpy>
   22872:	9e01      	ldr	r6, [sp, #4]
   22874:	e7e4      	b.n	22840 <_ZN20complex_full_dynamic3app17ha10a0c38e7b9e24aE+0x74>
   22876:	46c0      	nop			@ (mov r8, r8)
   22878:	00000ed2 	.word	0x00000ed2

0002287c <_ZN20complex_full_dynamic3app17ha28591b0b3fa2e36E>:
   2287c:	b5f0      	push	{r4, r5, r6, r7, lr}
   2287e:	af03      	add	r7, sp, #12
   22880:	b0a3      	sub	sp, #140	@ 0x8c
   22882:	9001      	str	r0, [sp, #4]
   22884:	ac02      	add	r4, sp, #8
   22886:	2502      	movs	r5, #2
   22888:	7225      	strb	r5, [r4, #8]
   2288a:	340c      	adds	r4, #12
   2288c:	2250      	movs	r2, #80	@ 0x50
   2288e:	9200      	str	r2, [sp, #0]
   22890:	4620      	mov	r0, r4
   22892:	f004 fd02 	bl	2729a <__aeabi_memcpy>
   22896:	a819      	add	r0, sp, #100	@ 0x64
   22898:	4606      	mov	r6, r0
   2289a:	360c      	adds	r6, #12
   2289c:	2100      	movs	r1, #0
   2289e:	76b1      	strb	r1, [r6, #26]
   228a0:	8481      	strh	r1, [r0, #36]	@ 0x24
   228a2:	7205      	strb	r5, [r0, #8]
   228a4:	9121      	str	r1, [sp, #132]	@ 0x84
   228a6:	9120      	str	r1, [sp, #128]	@ 0x80
   228a8:	911f      	str	r1, [sp, #124]	@ 0x7c
   228aa:	911e      	str	r1, [sp, #120]	@ 0x78
   228ac:	911d      	str	r1, [sp, #116]	@ 0x74
   228ae:	911c      	str	r1, [sp, #112]	@ 0x70
   228b0:	4823      	ldr	r0, [pc, #140]	@ (22940 <_ZN20complex_full_dynamic3app17ha28591b0b3fa2e36E+0xc4>)
   228b2:	2501      	movs	r5, #1
   228b4:	4629      	mov	r1, r5
   228b6:	4622      	mov	r2, r4
   228b8:	9b00      	ldr	r3, [sp, #0]
   228ba:	df04      	svc	4
   228bc:	2802      	cmp	r0, #2
   228be:	d103      	bne.n	228c8 <_ZN20complex_full_dynamic3app17ha28591b0b3fa2e36E+0x4c>
   228c0:	462c      	mov	r4, r5
   228c2:	9d01      	ldr	r5, [sp, #4]
   228c4:	6069      	str	r1, [r5, #4]
   228c6:	e031      	b.n	2292c <_ZN20complex_full_dynamic3app17ha28591b0b3fa2e36E+0xb0>
   228c8:	a802      	add	r0, sp, #8
   228ca:	2104      	movs	r1, #4
   228cc:	7201      	strb	r1, [r0, #8]
   228ce:	462c      	mov	r4, r5
   228d0:	9503      	str	r5, [sp, #12]
   228d2:	481b      	ldr	r0, [pc, #108]	@ (22940 <_ZN20complex_full_dynamic3app17ha28591b0b3fa2e36E+0xc4>)
   228d4:	9002      	str	r0, [sp, #8]
   228d6:	2502      	movs	r5, #2
   228d8:	231b      	movs	r3, #27
   228da:	4629      	mov	r1, r5
   228dc:	4632      	mov	r2, r6
   228de:	df03      	svc	3
   228e0:	2802      	cmp	r0, #2
   228e2:	d102      	bne.n	228ea <_ZN20complex_full_dynamic3app17ha28591b0b3fa2e36E+0x6e>
   228e4:	9d01      	ldr	r5, [sp, #4]
   228e6:	6069      	str	r1, [r5, #4]
   228e8:	e020      	b.n	2292c <_ZN20complex_full_dynamic3app17ha28591b0b3fa2e36E+0xb0>
   228ea:	9600      	str	r6, [sp, #0]
   228ec:	a819      	add	r0, sp, #100	@ 0x64
   228ee:	2103      	movs	r1, #3
   228f0:	7201      	strb	r1, [r0, #8]
   228f2:	4813      	ldr	r0, [pc, #76]	@ (22940 <_ZN20complex_full_dynamic3app17ha28591b0b3fa2e36E+0xc4>)
   228f4:	9019      	str	r0, [sp, #100]	@ 0x64
   228f6:	951a      	str	r5, [sp, #104]	@ 0x68
   228f8:	2101      	movs	r1, #1
   228fa:	2600      	movs	r6, #0
   228fc:	462a      	mov	r2, r5
   228fe:	4633      	mov	r3, r6
   22900:	df02      	svc	2
   22902:	287f      	cmp	r0, #127	@ 0x7f
   22904:	9d01      	ldr	r5, [sp, #4]
   22906:	d801      	bhi.n	2290c <_ZN20complex_full_dynamic3app17ha28591b0b3fa2e36E+0x90>
   22908:	6069      	str	r1, [r5, #4]
   2290a:	e00f      	b.n	2292c <_ZN20complex_full_dynamic3app17ha28591b0b3fa2e36E+0xb0>
   2290c:	a802      	add	r0, sp, #8
   2290e:	f004 fb03 	bl	26f18 <_ZN9allow_pin12full_dynamic17unshare_if_shared17h34fb2a9288def0c2E>
   22912:	4634      	mov	r4, r6
   22914:	ae19      	add	r6, sp, #100	@ 0x64
   22916:	4630      	mov	r0, r6
   22918:	f004 fafe 	bl	26f18 <_ZN9allow_pin12full_dynamic17unshare_if_shared17h34fb2a9288def0c2E>
   2291c:	4630      	mov	r0, r6
   2291e:	f004 fafb 	bl	26f18 <_ZN9allow_pin12full_dynamic17unshare_if_shared17h34fb2a9288def0c2E>
   22922:	1c68      	adds	r0, r5, #1
   22924:	221b      	movs	r2, #27
   22926:	9900      	ldr	r1, [sp, #0]
   22928:	f004 fcb7 	bl	2729a <__aeabi_memcpy>
   2292c:	702c      	strb	r4, [r5, #0]
   2292e:	a819      	add	r0, sp, #100	@ 0x64
   22930:	f004 faf2 	bl	26f18 <_ZN9allow_pin12full_dynamic17unshare_if_shared17h34fb2a9288def0c2E>
   22934:	a802      	add	r0, sp, #8
   22936:	f004 faef 	bl	26f18 <_ZN9allow_pin12full_dynamic17unshare_if_shared17h34fb2a9288def0c2E>
   2293a:	b023      	add	sp, #140	@ 0x8c
   2293c:	bdf0      	pop	{r4, r5, r6, r7, pc}
   2293e:	46c0      	nop			@ (mov r8, r8)
   22940:	000003d9 	.word	0x000003d9

00022944 <_ZN20complex_full_dynamic3app17ha3741751c1b9e062E>:
   22944:	b5f0      	push	{r4, r5, r6, r7, lr}
   22946:	af03      	add	r7, sp, #12
   22948:	b09f      	sub	sp, #124	@ 0x7c
   2294a:	9002      	str	r0, [sp, #8]
   2294c:	ac03      	add	r4, sp, #12
   2294e:	2502      	movs	r5, #2
   22950:	7225      	strb	r5, [r4, #8]
   22952:	340c      	adds	r4, #12
   22954:	2248      	movs	r2, #72	@ 0x48
   22956:	9201      	str	r2, [sp, #4]
   22958:	4620      	mov	r0, r4
   2295a:	f004 fc9e 	bl	2729a <__aeabi_memcpy>
   2295e:	ae18      	add	r6, sp, #96	@ 0x60
   22960:	2000      	movs	r0, #0
   22962:	76b0      	strb	r0, [r6, #26]
   22964:	8330      	strh	r0, [r6, #24]
   22966:	7235      	strb	r5, [r6, #8]
   22968:	901d      	str	r0, [sp, #116]	@ 0x74
   2296a:	901c      	str	r0, [sp, #112]	@ 0x70
   2296c:	901b      	str	r0, [sp, #108]	@ 0x6c
   2296e:	4820      	ldr	r0, [pc, #128]	@ (229f0 <_ZN20complex_full_dynamic3app17ha3741751c1b9e062E+0xac>)
   22970:	2508      	movs	r5, #8
   22972:	4629      	mov	r1, r5
   22974:	4622      	mov	r2, r4
   22976:	9b01      	ldr	r3, [sp, #4]
   22978:	df04      	svc	4
   2297a:	2802      	cmp	r0, #2
   2297c:	d01b      	beq.n	229b6 <_ZN20complex_full_dynamic3app17ha3741751c1b9e062E+0x72>
   2297e:	360c      	adds	r6, #12
   22980:	a803      	add	r0, sp, #12
   22982:	2104      	movs	r1, #4
   22984:	7201      	strb	r1, [r0, #8]
   22986:	9504      	str	r5, [sp, #16]
   22988:	4819      	ldr	r0, [pc, #100]	@ (229f0 <_ZN20complex_full_dynamic3app17ha3741751c1b9e062E+0xac>)
   2298a:	9003      	str	r0, [sp, #12]
   2298c:	2409      	movs	r4, #9
   2298e:	230f      	movs	r3, #15
   22990:	4621      	mov	r1, r4
   22992:	4632      	mov	r2, r6
   22994:	df03      	svc	3
   22996:	2802      	cmp	r0, #2
   22998:	d00d      	beq.n	229b6 <_ZN20complex_full_dynamic3app17ha3741751c1b9e062E+0x72>
   2299a:	4635      	mov	r5, r6
   2299c:	a818      	add	r0, sp, #96	@ 0x60
   2299e:	2103      	movs	r1, #3
   229a0:	7201      	strb	r1, [r0, #8]
   229a2:	4813      	ldr	r0, [pc, #76]	@ (229f0 <_ZN20complex_full_dynamic3app17ha3741751c1b9e062E+0xac>)
   229a4:	9018      	str	r0, [sp, #96]	@ 0x60
   229a6:	9419      	str	r4, [sp, #100]	@ 0x64
   229a8:	2108      	movs	r1, #8
   229aa:	2600      	movs	r6, #0
   229ac:	4622      	mov	r2, r4
   229ae:	4633      	mov	r3, r6
   229b0:	df02      	svc	2
   229b2:	287f      	cmp	r0, #127	@ 0x7f
   229b4:	d80b      	bhi.n	229ce <_ZN20complex_full_dynamic3app17ha3741751c1b9e062E+0x8a>
   229b6:	9c02      	ldr	r4, [sp, #8]
   229b8:	6061      	str	r1, [r4, #4]
   229ba:	2601      	movs	r6, #1
   229bc:	7026      	strb	r6, [r4, #0]
   229be:	a818      	add	r0, sp, #96	@ 0x60
   229c0:	f004 faaa 	bl	26f18 <_ZN9allow_pin12full_dynamic17unshare_if_shared17h34fb2a9288def0c2E>
   229c4:	a803      	add	r0, sp, #12
   229c6:	f004 faa7 	bl	26f18 <_ZN9allow_pin12full_dynamic17unshare_if_shared17h34fb2a9288def0c2E>
   229ca:	b01f      	add	sp, #124	@ 0x7c
   229cc:	bdf0      	pop	{r4, r5, r6, r7, pc}
   229ce:	a803      	add	r0, sp, #12
   229d0:	f004 faa2 	bl	26f18 <_ZN9allow_pin12full_dynamic17unshare_if_shared17h34fb2a9288def0c2E>
   229d4:	ac18      	add	r4, sp, #96	@ 0x60
   229d6:	4620      	mov	r0, r4
   229d8:	f004 fa9e 	bl	26f18 <_ZN9allow_pin12full_dynamic17unshare_if_shared17h34fb2a9288def0c2E>
   229dc:	4620      	mov	r0, r4
   229de:	f004 fa9b 	bl	26f18 <_ZN9allow_pin12full_dynamic17unshare_if_shared17h34fb2a9288def0c2E>
   229e2:	9c02      	ldr	r4, [sp, #8]
   229e4:	1c60      	adds	r0, r4, #1
   229e6:	220f      	movs	r2, #15
   229e8:	4629      	mov	r1, r5
   229ea:	f004 fc56 	bl	2729a <__aeabi_memcpy>
   229ee:	e7e5      	b.n	229bc <_ZN20complex_full_dynamic3app17ha3741751c1b9e062E+0x78>
   229f0:	0000111d 	.word	0x0000111d

000229f4 <_ZN20complex_full_dynamic3app17ha8371a4b094b0cc4E>:
   229f4:	b5f0      	push	{r4, r5, r6, r7, lr}
   229f6:	af03      	add	r7, sp, #12
   229f8:	b09b      	sub	sp, #108	@ 0x6c
   229fa:	9002      	str	r0, [sp, #8]
   229fc:	ae03      	add	r6, sp, #12
   229fe:	2402      	movs	r4, #2
   22a00:	7234      	strb	r4, [r6, #8]
   22a02:	360c      	adds	r6, #12
   22a04:	2227      	movs	r2, #39	@ 0x27
   22a06:	9201      	str	r2, [sp, #4]
   22a08:	4630      	mov	r0, r6
   22a0a:	f004 fc46 	bl	2729a <__aeabi_memcpy>
   22a0e:	ad10      	add	r5, sp, #64	@ 0x40
   22a10:	2000      	movs	r0, #0
   22a12:	8528      	strh	r0, [r5, #40]	@ 0x28
   22a14:	722c      	strb	r4, [r5, #8]
   22a16:	9019      	str	r0, [sp, #100]	@ 0x64
   22a18:	9018      	str	r0, [sp, #96]	@ 0x60
   22a1a:	9017      	str	r0, [sp, #92]	@ 0x5c
   22a1c:	9016      	str	r0, [sp, #88]	@ 0x58
   22a1e:	9015      	str	r0, [sp, #84]	@ 0x54
   22a20:	9014      	str	r0, [sp, #80]	@ 0x50
   22a22:	9013      	str	r0, [sp, #76]	@ 0x4c
   22a24:	481f      	ldr	r0, [pc, #124]	@ (22aa4 <_ZN20complex_full_dynamic3app17ha8371a4b094b0cc4E+0xb0>)
   22a26:	2403      	movs	r4, #3
   22a28:	4621      	mov	r1, r4
   22a2a:	4632      	mov	r2, r6
   22a2c:	9b01      	ldr	r3, [sp, #4]
   22a2e:	df04      	svc	4
   22a30:	2802      	cmp	r0, #2
   22a32:	d019      	beq.n	22a68 <_ZN20complex_full_dynamic3app17ha8371a4b094b0cc4E+0x74>
   22a34:	350c      	adds	r5, #12
   22a36:	a803      	add	r0, sp, #12
   22a38:	2104      	movs	r1, #4
   22a3a:	7201      	strb	r1, [r0, #8]
   22a3c:	4e19      	ldr	r6, [pc, #100]	@ (22aa4 <_ZN20complex_full_dynamic3app17ha8371a4b094b0cc4E+0xb0>)
   22a3e:	9603      	str	r6, [sp, #12]
   22a40:	9404      	str	r4, [sp, #16]
   22a42:	231e      	movs	r3, #30
   22a44:	4630      	mov	r0, r6
   22a46:	4621      	mov	r1, r4
   22a48:	462a      	mov	r2, r5
   22a4a:	df03      	svc	3
   22a4c:	2802      	cmp	r0, #2
   22a4e:	d00b      	beq.n	22a68 <_ZN20complex_full_dynamic3app17ha8371a4b094b0cc4E+0x74>
   22a50:	a810      	add	r0, sp, #64	@ 0x40
   22a52:	7204      	strb	r4, [r0, #8]
   22a54:	9411      	str	r4, [sp, #68]	@ 0x44
   22a56:	9610      	str	r6, [sp, #64]	@ 0x40
   22a58:	4812      	ldr	r0, [pc, #72]	@ (22aa4 <_ZN20complex_full_dynamic3app17ha8371a4b094b0cc4E+0xb0>)
   22a5a:	2600      	movs	r6, #0
   22a5c:	4621      	mov	r1, r4
   22a5e:	4622      	mov	r2, r4
   22a60:	4633      	mov	r3, r6
   22a62:	df02      	svc	2
   22a64:	287f      	cmp	r0, #127	@ 0x7f
   22a66:	d80b      	bhi.n	22a80 <_ZN20complex_full_dynamic3app17ha8371a4b094b0cc4E+0x8c>
   22a68:	9c02      	ldr	r4, [sp, #8]
   22a6a:	6061      	str	r1, [r4, #4]
   22a6c:	2601      	movs	r6, #1
   22a6e:	7026      	strb	r6, [r4, #0]
   22a70:	a810      	add	r0, sp, #64	@ 0x40
   22a72:	f004 fa51 	bl	26f18 <_ZN9allow_pin12full_dynamic17unshare_if_shared17h34fb2a9288def0c2E>
   22a76:	a803      	add	r0, sp, #12
   22a78:	f004 fa4e 	bl	26f18 <_ZN9allow_pin12full_dynamic17unshare_if_shared17h34fb2a9288def0c2E>
   22a7c:	b01b      	add	sp, #108	@ 0x6c
   22a7e:	bdf0      	pop	{r4, r5, r6, r7, pc}
   22a80:	a803      	add	r0, sp, #12
   22a82:	f004 fa49 	bl	26f18 <_ZN9allow_pin12full_dynamic17unshare_if_shared17h34fb2a9288def0c2E>
   22a86:	ac10      	add	r4, sp, #64	@ 0x40
   22a88:	4620      	mov	r0, r4
   22a8a:	f004 fa45 	bl	26f18 <_ZN9allow_pin12full_dynamic17unshare_if_shared17h34fb2a9288def0c2E>
   22a8e:	4620      	mov	r0, r4
   22a90:	f004 fa42 	bl	26f18 <_ZN9allow_pin12full_dynamic17unshare_if_shared17h34fb2a9288def0c2E>
   22a94:	9c02      	ldr	r4, [sp, #8]
   22a96:	1c60      	adds	r0, r4, #1
   22a98:	221e      	movs	r2, #30
   22a9a:	4629      	mov	r1, r5
   22a9c:	f004 fbfd 	bl	2729a <__aeabi_memcpy>
   22aa0:	e7e5      	b.n	22a6e <_ZN20complex_full_dynamic3app17ha8371a4b094b0cc4E+0x7a>
   22aa2:	46c0      	nop			@ (mov r8, r8)
   22aa4:	000010e2 	.word	0x000010e2

00022aa8 <_ZN20complex_full_dynamic3app17ha97452271c4fce67E>:
   22aa8:	b5f0      	push	{r4, r5, r6, r7, lr}
   22aaa:	af03      	add	r7, sp, #12
   22aac:	b0a7      	sub	sp, #156	@ 0x9c
   22aae:	9003      	str	r0, [sp, #12]
   22ab0:	ac04      	add	r4, sp, #16
   22ab2:	2602      	movs	r6, #2
   22ab4:	7226      	strb	r6, [r4, #8]
   22ab6:	340c      	adds	r4, #12
   22ab8:	221e      	movs	r2, #30
   22aba:	9202      	str	r2, [sp, #8]
   22abc:	4620      	mov	r0, r4
   22abe:	f004 fbec 	bl	2729a <__aeabi_memcpy>
   22ac2:	ad0f      	add	r5, sp, #60	@ 0x3c
   22ac4:	4628      	mov	r0, r5
   22ac6:	300c      	adds	r0, #12
   22ac8:	2151      	movs	r1, #81	@ 0x51
   22aca:	9001      	str	r0, [sp, #4]
   22acc:	f004 fa38 	bl	26f40 <__aeabi_memclr4>
   22ad0:	722e      	strb	r6, [r5, #8]
   22ad2:	4635      	mov	r5, r6
   22ad4:	4e1f      	ldr	r6, [pc, #124]	@ (22b54 <_ZN20complex_full_dynamic3app17ha97452271c4fce67E+0xac>)
   22ad6:	4630      	mov	r0, r6
   22ad8:	4629      	mov	r1, r5
   22ada:	4622      	mov	r2, r4
   22adc:	9b02      	ldr	r3, [sp, #8]
   22ade:	df04      	svc	4
   22ae0:	2802      	cmp	r0, #2
   22ae2:	d01a      	beq.n	22b1a <_ZN20complex_full_dynamic3app17ha97452271c4fce67E+0x72>
   22ae4:	a804      	add	r0, sp, #16
   22ae6:	2104      	movs	r1, #4
   22ae8:	7201      	strb	r1, [r0, #8]
   22aea:	9505      	str	r5, [sp, #20]
   22aec:	9604      	str	r6, [sp, #16]
   22aee:	2500      	movs	r5, #0
   22af0:	2351      	movs	r3, #81	@ 0x51
   22af2:	4634      	mov	r4, r6
   22af4:	4630      	mov	r0, r6
   22af6:	4629      	mov	r1, r5
   22af8:	9e01      	ldr	r6, [sp, #4]
   22afa:	4632      	mov	r2, r6
   22afc:	df03      	svc	3
   22afe:	2802      	cmp	r0, #2
   22b00:	d00b      	beq.n	22b1a <_ZN20complex_full_dynamic3app17ha97452271c4fce67E+0x72>
   22b02:	a80f      	add	r0, sp, #60	@ 0x3c
   22b04:	2103      	movs	r1, #3
   22b06:	7201      	strb	r1, [r0, #8]
   22b08:	940f      	str	r4, [sp, #60]	@ 0x3c
   22b0a:	9510      	str	r5, [sp, #64]	@ 0x40
   22b0c:	4811      	ldr	r0, [pc, #68]	@ (22b54 <_ZN20complex_full_dynamic3app17ha97452271c4fce67E+0xac>)
   22b0e:	2102      	movs	r1, #2
   22b10:	462a      	mov	r2, r5
   22b12:	462b      	mov	r3, r5
   22b14:	df02      	svc	2
   22b16:	287f      	cmp	r0, #127	@ 0x7f
   22b18:	d80b      	bhi.n	22b32 <_ZN20complex_full_dynamic3app17ha97452271c4fce67E+0x8a>
   22b1a:	9c03      	ldr	r4, [sp, #12]
   22b1c:	6061      	str	r1, [r4, #4]
   22b1e:	2501      	movs	r5, #1
   22b20:	7025      	strb	r5, [r4, #0]
   22b22:	a80f      	add	r0, sp, #60	@ 0x3c
   22b24:	f004 f9f8 	bl	26f18 <_ZN9allow_pin12full_dynamic17unshare_if_shared17h34fb2a9288def0c2E>
   22b28:	a804      	add	r0, sp, #16
   22b2a:	f004 f9f5 	bl	26f18 <_ZN9allow_pin12full_dynamic17unshare_if_shared17h34fb2a9288def0c2E>
   22b2e:	b027      	add	sp, #156	@ 0x9c
   22b30:	bdf0      	pop	{r4, r5, r6, r7, pc}
   22b32:	a804      	add	r0, sp, #16
   22b34:	f004 f9f0 	bl	26f18 <_ZN9allow_pin12full_dynamic17unshare_if_shared17h34fb2a9288def0c2E>
   22b38:	ac0f      	add	r4, sp, #60	@ 0x3c
   22b3a:	4620      	mov	r0, r4
   22b3c:	f004 f9ec 	bl	26f18 <_ZN9allow_pin12full_dynamic17unshare_if_shared17h34fb2a9288def0c2E>
   22b40:	4620      	mov	r0, r4
   22b42:	f004 f9e9 	bl	26f18 <_ZN9allow_pin12full_dynamic17unshare_if_shared17h34fb2a9288def0c2E>
   22b46:	9c03      	ldr	r4, [sp, #12]
   22b48:	1c60      	adds	r0, r4, #1
   22b4a:	2251      	movs	r2, #81	@ 0x51
   22b4c:	4631      	mov	r1, r6
   22b4e:	f004 fba4 	bl	2729a <__aeabi_memcpy>
   22b52:	e7e5      	b.n	22b20 <_ZN20complex_full_dynamic3app17ha97452271c4fce67E+0x78>
   22b54:	0000196b 	.word	0x0000196b

00022b58 <_ZN20complex_full_dynamic3app17hadd40f441141f6a0E>:
   22b58:	b5f0      	push	{r4, r5, r6, r7, lr}
   22b5a:	af03      	add	r7, sp, #12
   22b5c:	b0a7      	sub	sp, #156	@ 0x9c
   22b5e:	9002      	str	r0, [sp, #8]
   22b60:	ae03      	add	r6, sp, #12
   22b62:	2002      	movs	r0, #2
   22b64:	9001      	str	r0, [sp, #4]
   22b66:	7230      	strb	r0, [r6, #8]
   22b68:	360c      	adds	r6, #12
   22b6a:	2222      	movs	r2, #34	@ 0x22
   22b6c:	9200      	str	r2, [sp, #0]
   22b6e:	4630      	mov	r0, r6
   22b70:	f004 fb93 	bl	2729a <__aeabi_memcpy>
   22b74:	ad0f      	add	r5, sp, #60	@ 0x3c
   22b76:	462c      	mov	r4, r5
   22b78:	340c      	adds	r4, #12
   22b7a:	2151      	movs	r1, #81	@ 0x51
   22b7c:	4620      	mov	r0, r4
   22b7e:	f004 f9df 	bl	26f40 <__aeabi_memclr4>
   22b82:	9801      	ldr	r0, [sp, #4]
   22b84:	7228      	strb	r0, [r5, #8]
   22b86:	4820      	ldr	r0, [pc, #128]	@ (22c08 <_ZN20complex_full_dynamic3app17hadd40f441141f6a0E+0xb0>)
   22b88:	2509      	movs	r5, #9
   22b8a:	4629      	mov	r1, r5
   22b8c:	4632      	mov	r2, r6
   22b8e:	9b00      	ldr	r3, [sp, #0]
   22b90:	df04      	svc	4
   22b92:	2802      	cmp	r0, #2
   22b94:	d019      	beq.n	22bca <_ZN20complex_full_dynamic3app17hadd40f441141f6a0E+0x72>
   22b96:	a803      	add	r0, sp, #12
   22b98:	2104      	movs	r1, #4
   22b9a:	7201      	strb	r1, [r0, #8]
   22b9c:	4e1a      	ldr	r6, [pc, #104]	@ (22c08 <_ZN20complex_full_dynamic3app17hadd40f441141f6a0E+0xb0>)
   22b9e:	9603      	str	r6, [sp, #12]
   22ba0:	9504      	str	r5, [sp, #16]
   22ba2:	2351      	movs	r3, #81	@ 0x51
   22ba4:	4630      	mov	r0, r6
   22ba6:	4629      	mov	r1, r5
   22ba8:	4622      	mov	r2, r4
   22baa:	df03      	svc	3
   22bac:	2802      	cmp	r0, #2
   22bae:	d00c      	beq.n	22bca <_ZN20complex_full_dynamic3app17hadd40f441141f6a0E+0x72>
   22bb0:	a80f      	add	r0, sp, #60	@ 0x3c
   22bb2:	2103      	movs	r1, #3
   22bb4:	7201      	strb	r1, [r0, #8]
   22bb6:	960f      	str	r6, [sp, #60]	@ 0x3c
   22bb8:	9510      	str	r5, [sp, #64]	@ 0x40
   22bba:	4813      	ldr	r0, [pc, #76]	@ (22c08 <_ZN20complex_full_dynamic3app17hadd40f441141f6a0E+0xb0>)
   22bbc:	2600      	movs	r6, #0
   22bbe:	4629      	mov	r1, r5
   22bc0:	462a      	mov	r2, r5
   22bc2:	4633      	mov	r3, r6
   22bc4:	df02      	svc	2
   22bc6:	287f      	cmp	r0, #127	@ 0x7f
   22bc8:	d80b      	bhi.n	22be2 <_ZN20complex_full_dynamic3app17hadd40f441141f6a0E+0x8a>
   22bca:	9c02      	ldr	r4, [sp, #8]
   22bcc:	6061      	str	r1, [r4, #4]
   22bce:	2601      	movs	r6, #1
   22bd0:	7026      	strb	r6, [r4, #0]
   22bd2:	a80f      	add	r0, sp, #60	@ 0x3c
   22bd4:	f004 f9a0 	bl	26f18 <_ZN9allow_pin12full_dynamic17unshare_if_shared17h34fb2a9288def0c2E>
   22bd8:	a803      	add	r0, sp, #12
   22bda:	f004 f99d 	bl	26f18 <_ZN9allow_pin12full_dynamic17unshare_if_shared17h34fb2a9288def0c2E>
   22bde:	b027      	add	sp, #156	@ 0x9c
   22be0:	bdf0      	pop	{r4, r5, r6, r7, pc}
   22be2:	a803      	add	r0, sp, #12
   22be4:	f004 f998 	bl	26f18 <_ZN9allow_pin12full_dynamic17unshare_if_shared17h34fb2a9288def0c2E>
   22be8:	4625      	mov	r5, r4
   22bea:	ac0f      	add	r4, sp, #60	@ 0x3c
   22bec:	4620      	mov	r0, r4
   22bee:	f004 f993 	bl	26f18 <_ZN9allow_pin12full_dynamic17unshare_if_shared17h34fb2a9288def0c2E>
   22bf2:	4620      	mov	r0, r4
   22bf4:	f004 f990 	bl	26f18 <_ZN9allow_pin12full_dynamic17unshare_if_shared17h34fb2a9288def0c2E>
   22bf8:	9c02      	ldr	r4, [sp, #8]
   22bfa:	1c60      	adds	r0, r4, #1
   22bfc:	2251      	movs	r2, #81	@ 0x51
   22bfe:	4629      	mov	r1, r5
   22c00:	f004 fb4b 	bl	2729a <__aeabi_memcpy>
   22c04:	e7e4      	b.n	22bd0 <_ZN20complex_full_dynamic3app17hadd40f441141f6a0E+0x78>
   22c06:	46c0      	nop			@ (mov r8, r8)
   22c08:	0000055e 	.word	0x0000055e

00022c0c <_ZN20complex_full_dynamic3app17haf2b2ea679e2fa83E>:
   22c0c:	b5f0      	push	{r4, r5, r6, r7, lr}
   22c0e:	af03      	add	r7, sp, #12
   22c10:	b0ad      	sub	sp, #180	@ 0xb4
   22c12:	9002      	str	r0, [sp, #8]
   22c14:	ac03      	add	r4, sp, #12
   22c16:	2002      	movs	r0, #2
   22c18:	9001      	str	r0, [sp, #4]
   22c1a:	7220      	strb	r0, [r4, #8]
   22c1c:	340c      	adds	r4, #12
   22c1e:	2253      	movs	r2, #83	@ 0x53
   22c20:	9200      	str	r2, [sp, #0]
   22c22:	4620      	mov	r0, r4
   22c24:	f004 fb39 	bl	2729a <__aeabi_memcpy>
   22c28:	ae1b      	add	r6, sp, #108	@ 0x6c
   22c2a:	4635      	mov	r5, r6
   22c2c:	350c      	adds	r5, #12
   22c2e:	213a      	movs	r1, #58	@ 0x3a
   22c30:	4628      	mov	r0, r5
   22c32:	f004 f985 	bl	26f40 <__aeabi_memclr4>
   22c36:	9801      	ldr	r0, [sp, #4]
   22c38:	7230      	strb	r0, [r6, #8]
   22c3a:	4820      	ldr	r0, [pc, #128]	@ (22cbc <_ZN20complex_full_dynamic3app17haf2b2ea679e2fa83E+0xb0>)
   22c3c:	2606      	movs	r6, #6
   22c3e:	4631      	mov	r1, r6
   22c40:	4622      	mov	r2, r4
   22c42:	9b00      	ldr	r3, [sp, #0]
   22c44:	df04      	svc	4
   22c46:	2802      	cmp	r0, #2
   22c48:	d01a      	beq.n	22c80 <_ZN20complex_full_dynamic3app17haf2b2ea679e2fa83E+0x74>
   22c4a:	a803      	add	r0, sp, #12
   22c4c:	2104      	movs	r1, #4
   22c4e:	7201      	strb	r1, [r0, #8]
   22c50:	9604      	str	r6, [sp, #16]
   22c52:	4e1a      	ldr	r6, [pc, #104]	@ (22cbc <_ZN20complex_full_dynamic3app17haf2b2ea679e2fa83E+0xb0>)
   22c54:	9603      	str	r6, [sp, #12]
   22c56:	2407      	movs	r4, #7
   22c58:	233a      	movs	r3, #58	@ 0x3a
   22c5a:	4630      	mov	r0, r6
   22c5c:	4621      	mov	r1, r4
   22c5e:	462a      	mov	r2, r5
   22c60:	df03      	svc	3
   22c62:	2802      	cmp	r0, #2
   22c64:	d00c      	beq.n	22c80 <_ZN20complex_full_dynamic3app17haf2b2ea679e2fa83E+0x74>
   22c66:	a81b      	add	r0, sp, #108	@ 0x6c
   22c68:	2103      	movs	r1, #3
   22c6a:	7201      	strb	r1, [r0, #8]
   22c6c:	961b      	str	r6, [sp, #108]	@ 0x6c
   22c6e:	941c      	str	r4, [sp, #112]	@ 0x70
   22c70:	4812      	ldr	r0, [pc, #72]	@ (22cbc <_ZN20complex_full_dynamic3app17haf2b2ea679e2fa83E+0xb0>)
   22c72:	2106      	movs	r1, #6
   22c74:	2600      	movs	r6, #0
   22c76:	4622      	mov	r2, r4
   22c78:	4633      	mov	r3, r6
   22c7a:	df02      	svc	2
   22c7c:	287f      	cmp	r0, #127	@ 0x7f
   22c7e:	d80b      	bhi.n	22c98 <_ZN20complex_full_dynamic3app17haf2b2ea679e2fa83E+0x8c>
   22c80:	9c02      	ldr	r4, [sp, #8]
   22c82:	6061      	str	r1, [r4, #4]
   22c84:	2601      	movs	r6, #1
   22c86:	7026      	strb	r6, [r4, #0]
   22c88:	a81b      	add	r0, sp, #108	@ 0x6c
   22c8a:	f004 f945 	bl	26f18 <_ZN9allow_pin12full_dynamic17unshare_if_shared17h34fb2a9288def0c2E>
   22c8e:	a803      	add	r0, sp, #12
   22c90:	f004 f942 	bl	26f18 <_ZN9allow_pin12full_dynamic17unshare_if_shared17h34fb2a9288def0c2E>
   22c94:	b02d      	add	sp, #180	@ 0xb4
   22c96:	bdf0      	pop	{r4, r5, r6, r7, pc}
   22c98:	a803      	add	r0, sp, #12
   22c9a:	f004 f93d 	bl	26f18 <_ZN9allow_pin12full_dynamic17unshare_if_shared17h34fb2a9288def0c2E>
   22c9e:	ac1b      	add	r4, sp, #108	@ 0x6c
   22ca0:	4620      	mov	r0, r4
   22ca2:	f004 f939 	bl	26f18 <_ZN9allow_pin12full_dynamic17unshare_if_shared17h34fb2a9288def0c2E>
   22ca6:	4620      	mov	r0, r4
   22ca8:	f004 f936 	bl	26f18 <_ZN9allow_pin12full_dynamic17unshare_if_shared17h34fb2a9288def0c2E>
   22cac:	9c02      	ldr	r4, [sp, #8]
   22cae:	1c60      	adds	r0, r4, #1
   22cb0:	223a      	movs	r2, #58	@ 0x3a
   22cb2:	4629      	mov	r1, r5
   22cb4:	f004 faf1 	bl	2729a <__aeabi_memcpy>
   22cb8:	e7e5      	b.n	22c86 <_ZN20complex_full_dynamic3app17haf2b2ea679e2fa83E+0x7a>
   22cba:	46c0      	nop			@ (mov r8, r8)
   22cbc:	00002645 	.word	0x00002645

00022cc0 <_ZN20complex_full_dynamic3app17hb0f3beade2c79df5E>:
   22cc0:	b5f0      	push	{r4, r5, r6, r7, lr}
   22cc2:	af03      	add	r7, sp, #12
   22cc4:	b0ad      	sub	sp, #180	@ 0xb4
   22cc6:	9003      	str	r0, [sp, #12]
   22cc8:	ac04      	add	r4, sp, #16
   22cca:	2002      	movs	r0, #2
   22ccc:	9002      	str	r0, [sp, #8]
   22cce:	7220      	strb	r0, [r4, #8]
   22cd0:	340c      	adds	r4, #12
   22cd2:	224d      	movs	r2, #77	@ 0x4d
   22cd4:	9201      	str	r2, [sp, #4]
   22cd6:	4620      	mov	r0, r4
   22cd8:	f004 fadf 	bl	2729a <__aeabi_memcpy>
   22cdc:	ae1b      	add	r6, sp, #108	@ 0x6c
   22cde:	4635      	mov	r5, r6
   22ce0:	350c      	adds	r5, #12
   22ce2:	213c      	movs	r1, #60	@ 0x3c
   22ce4:	4628      	mov	r0, r5
   22ce6:	f004 f92b 	bl	26f40 <__aeabi_memclr4>
   22cea:	9802      	ldr	r0, [sp, #8]
   22cec:	7230      	strb	r0, [r6, #8]
   22cee:	481f      	ldr	r0, [pc, #124]	@ (22d6c <_ZN20complex_full_dynamic3app17hb0f3beade2c79df5E+0xac>)
   22cf0:	2604      	movs	r6, #4
   22cf2:	4631      	mov	r1, r6
   22cf4:	4622      	mov	r2, r4
   22cf6:	9b01      	ldr	r3, [sp, #4]
   22cf8:	df04      	svc	4
   22cfa:	2802      	cmp	r0, #2
   22cfc:	d019      	beq.n	22d32 <_ZN20complex_full_dynamic3app17hb0f3beade2c79df5E+0x72>
   22cfe:	a804      	add	r0, sp, #16
   22d00:	7206      	strb	r6, [r0, #8]
   22d02:	9605      	str	r6, [sp, #20]
   22d04:	4e19      	ldr	r6, [pc, #100]	@ (22d6c <_ZN20complex_full_dynamic3app17hb0f3beade2c79df5E+0xac>)
   22d06:	9604      	str	r6, [sp, #16]
   22d08:	2409      	movs	r4, #9
   22d0a:	233c      	movs	r3, #60	@ 0x3c
   22d0c:	4630      	mov	r0, r6
   22d0e:	4621      	mov	r1, r4
   22d10:	462a      	mov	r2, r5
   22d12:	df03      	svc	3
   22d14:	2802      	cmp	r0, #2
   22d16:	d00c      	beq.n	22d32 <_ZN20complex_full_dynamic3app17hb0f3beade2c79df5E+0x72>
   22d18:	a81b      	add	r0, sp, #108	@ 0x6c
   22d1a:	2103      	movs	r1, #3
   22d1c:	7201      	strb	r1, [r0, #8]
   22d1e:	961b      	str	r6, [sp, #108]	@ 0x6c
   22d20:	941c      	str	r4, [sp, #112]	@ 0x70
   22d22:	4812      	ldr	r0, [pc, #72]	@ (22d6c <_ZN20complex_full_dynamic3app17hb0f3beade2c79df5E+0xac>)
   22d24:	2104      	movs	r1, #4
   22d26:	2600      	movs	r6, #0
   22d28:	4622      	mov	r2, r4
   22d2a:	4633      	mov	r3, r6
   22d2c:	df02      	svc	2
   22d2e:	287f      	cmp	r0, #127	@ 0x7f
   22d30:	d80b      	bhi.n	22d4a <_ZN20complex_full_dynamic3app17hb0f3beade2c79df5E+0x8a>
   22d32:	9c03      	ldr	r4, [sp, #12]
   22d34:	6061      	str	r1, [r4, #4]
   22d36:	2601      	movs	r6, #1
   22d38:	7026      	strb	r6, [r4, #0]
   22d3a:	a81b      	add	r0, sp, #108	@ 0x6c
   22d3c:	f004 f8ec 	bl	26f18 <_ZN9allow_pin12full_dynamic17unshare_if_shared17h34fb2a9288def0c2E>
   22d40:	a804      	add	r0, sp, #16
   22d42:	f004 f8e9 	bl	26f18 <_ZN9allow_pin12full_dynamic17unshare_if_shared17h34fb2a9288def0c2E>
   22d46:	b02d      	add	sp, #180	@ 0xb4
   22d48:	bdf0      	pop	{r4, r5, r6, r7, pc}
   22d4a:	a804      	add	r0, sp, #16
   22d4c:	f004 f8e4 	bl	26f18 <_ZN9allow_pin12full_dynamic17unshare_if_shared17h34fb2a9288def0c2E>
   22d50:	ac1b      	add	r4, sp, #108	@ 0x6c
   22d52:	4620      	mov	r0, r4
   22d54:	f004 f8e0 	bl	26f18 <_ZN9allow_pin12full_dynamic17unshare_if_shared17h34fb2a9288def0c2E>
   22d58:	4620      	mov	r0, r4
   22d5a:	f004 f8dd 	bl	26f18 <_ZN9allow_pin12full_dynamic17unshare_if_shared17h34fb2a9288def0c2E>
   22d5e:	9c03      	ldr	r4, [sp, #12]
   22d60:	1c60      	adds	r0, r4, #1
   22d62:	223c      	movs	r2, #60	@ 0x3c
   22d64:	4629      	mov	r1, r5
   22d66:	f004 fa98 	bl	2729a <__aeabi_memcpy>
   22d6a:	e7e5      	b.n	22d38 <_ZN20complex_full_dynamic3app17hb0f3beade2c79df5E+0x78>
   22d6c:	000021ab 	.word	0x000021ab

00022d70 <_ZN20complex_full_dynamic3app17hb3bafaf10fa3bc04E>:
   22d70:	b5f0      	push	{r4, r5, r6, r7, lr}
   22d72:	af03      	add	r7, sp, #12
   22d74:	b0a7      	sub	sp, #156	@ 0x9c
   22d76:	9002      	str	r0, [sp, #8]
   22d78:	ae03      	add	r6, sp, #12
   22d7a:	2002      	movs	r0, #2
   22d7c:	9001      	str	r0, [sp, #4]
   22d7e:	7230      	strb	r0, [r6, #8]
   22d80:	360c      	adds	r6, #12
   22d82:	2227      	movs	r2, #39	@ 0x27
   22d84:	9200      	str	r2, [sp, #0]
   22d86:	4630      	mov	r0, r6
   22d88:	f004 fa87 	bl	2729a <__aeabi_memcpy>
   22d8c:	ac10      	add	r4, sp, #64	@ 0x40
   22d8e:	4625      	mov	r5, r4
   22d90:	350c      	adds	r5, #12
   22d92:	214f      	movs	r1, #79	@ 0x4f
   22d94:	4628      	mov	r0, r5
   22d96:	f004 f8d3 	bl	26f40 <__aeabi_memclr4>
   22d9a:	9801      	ldr	r0, [sp, #4]
   22d9c:	7220      	strb	r0, [r4, #8]
   22d9e:	481f      	ldr	r0, [pc, #124]	@ (22e1c <_ZN20complex_full_dynamic3app17hb3bafaf10fa3bc04E+0xac>)
   22da0:	2409      	movs	r4, #9
   22da2:	4621      	mov	r1, r4
   22da4:	4632      	mov	r2, r6
   22da6:	9b00      	ldr	r3, [sp, #0]
   22da8:	df04      	svc	4
   22daa:	2802      	cmp	r0, #2
   22dac:	d019      	beq.n	22de2 <_ZN20complex_full_dynamic3app17hb3bafaf10fa3bc04E+0x72>
   22dae:	a803      	add	r0, sp, #12
   22db0:	2104      	movs	r1, #4
   22db2:	7201      	strb	r1, [r0, #8]
   22db4:	9404      	str	r4, [sp, #16]
   22db6:	4c19      	ldr	r4, [pc, #100]	@ (22e1c <_ZN20complex_full_dynamic3app17hb3bafaf10fa3bc04E+0xac>)
   22db8:	9403      	str	r4, [sp, #12]
   22dba:	2600      	movs	r6, #0
   22dbc:	234f      	movs	r3, #79	@ 0x4f
   22dbe:	4620      	mov	r0, r4
   22dc0:	4631      	mov	r1, r6
   22dc2:	462a      	mov	r2, r5
   22dc4:	df03      	svc	3
   22dc6:	2802      	cmp	r0, #2
   22dc8:	d00b      	beq.n	22de2 <_ZN20complex_full_dynamic3app17hb3bafaf10fa3bc04E+0x72>
   22dca:	a810      	add	r0, sp, #64	@ 0x40
   22dcc:	2103      	movs	r1, #3
   22dce:	7201      	strb	r1, [r0, #8]
   22dd0:	9410      	str	r4, [sp, #64]	@ 0x40
   22dd2:	9611      	str	r6, [sp, #68]	@ 0x44
   22dd4:	4811      	ldr	r0, [pc, #68]	@ (22e1c <_ZN20complex_full_dynamic3app17hb3bafaf10fa3bc04E+0xac>)
   22dd6:	2109      	movs	r1, #9
   22dd8:	4632      	mov	r2, r6
   22dda:	4633      	mov	r3, r6
   22ddc:	df02      	svc	2
   22dde:	287f      	cmp	r0, #127	@ 0x7f
   22de0:	d80b      	bhi.n	22dfa <_ZN20complex_full_dynamic3app17hb3bafaf10fa3bc04E+0x8a>
   22de2:	9c02      	ldr	r4, [sp, #8]
   22de4:	6061      	str	r1, [r4, #4]
   22de6:	2601      	movs	r6, #1
   22de8:	7026      	strb	r6, [r4, #0]
   22dea:	a810      	add	r0, sp, #64	@ 0x40
   22dec:	f004 f894 	bl	26f18 <_ZN9allow_pin12full_dynamic17unshare_if_shared17h34fb2a9288def0c2E>
   22df0:	a803      	add	r0, sp, #12
   22df2:	f004 f891 	bl	26f18 <_ZN9allow_pin12full_dynamic17unshare_if_shared17h34fb2a9288def0c2E>
   22df6:	b027      	add	sp, #156	@ 0x9c
   22df8:	bdf0      	pop	{r4, r5, r6, r7, pc}
   22dfa:	a803      	add	r0, sp, #12
   22dfc:	f004 f88c 	bl	26f18 <_ZN9allow_pin12full_dynamic17unshare_if_shared17h34fb2a9288def0c2E>
   22e00:	ac10      	add	r4, sp, #64	@ 0x40
   22e02:	4620      	mov	r0, r4
   22e04:	f004 f888 	bl	26f18 <_ZN9allow_pin12full_dynamic17unshare_if_shared17h34fb2a9288def0c2E>
   22e08:	4620      	mov	r0, r4
   22e0a:	f004 f885 	bl	26f18 <_ZN9allow_pin12full_dynamic17unshare_if_shared17h34fb2a9288def0c2E>
   22e0e:	9c02      	ldr	r4, [sp, #8]
   22e10:	1c60      	adds	r0, r4, #1
   22e12:	224f      	movs	r2, #79	@ 0x4f
   22e14:	4629      	mov	r1, r5
   22e16:	f004 fa40 	bl	2729a <__aeabi_memcpy>
   22e1a:	e7e5      	b.n	22de8 <_ZN20complex_full_dynamic3app17hb3bafaf10fa3bc04E+0x78>
   22e1c:	00000b4c 	.word	0x00000b4c

00022e20 <_ZN20complex_full_dynamic3app17hb9b1596eb1490ab1E>:
   22e20:	b5f0      	push	{r4, r5, r6, r7, lr}
   22e22:	af03      	add	r7, sp, #12
   22e24:	b0a3      	sub	sp, #140	@ 0x8c
   22e26:	9002      	str	r0, [sp, #8]
   22e28:	ac03      	add	r4, sp, #12
   22e2a:	2002      	movs	r0, #2
   22e2c:	9001      	str	r0, [sp, #4]
   22e2e:	7220      	strb	r0, [r4, #8]
   22e30:	340c      	adds	r4, #12
   22e32:	223c      	movs	r2, #60	@ 0x3c
   22e34:	9200      	str	r2, [sp, #0]
   22e36:	4620      	mov	r0, r4
   22e38:	f004 fa2f 	bl	2729a <__aeabi_memcpy>
   22e3c:	ae15      	add	r6, sp, #84	@ 0x54
   22e3e:	4635      	mov	r5, r6
   22e40:	350c      	adds	r5, #12
   22e42:	212c      	movs	r1, #44	@ 0x2c
   22e44:	4628      	mov	r0, r5
   22e46:	f004 f87b 	bl	26f40 <__aeabi_memclr4>
   22e4a:	9801      	ldr	r0, [sp, #4]
   22e4c:	7230      	strb	r0, [r6, #8]
   22e4e:	4820      	ldr	r0, [pc, #128]	@ (22ed0 <_ZN20complex_full_dynamic3app17hb9b1596eb1490ab1E+0xb0>)
   22e50:	2605      	movs	r6, #5
   22e52:	4631      	mov	r1, r6
   22e54:	4622      	mov	r2, r4
   22e56:	9b00      	ldr	r3, [sp, #0]
   22e58:	df04      	svc	4
   22e5a:	2802      	cmp	r0, #2
   22e5c:	d01a      	beq.n	22e94 <_ZN20complex_full_dynamic3app17hb9b1596eb1490ab1E+0x74>
   22e5e:	a803      	add	r0, sp, #12
   22e60:	2104      	movs	r1, #4
   22e62:	7201      	strb	r1, [r0, #8]
   22e64:	9604      	str	r6, [sp, #16]
   22e66:	4e1a      	ldr	r6, [pc, #104]	@ (22ed0 <_ZN20complex_full_dynamic3app17hb9b1596eb1490ab1E+0xb0>)
   22e68:	9603      	str	r6, [sp, #12]
   22e6a:	2407      	movs	r4, #7
   22e6c:	232c      	movs	r3, #44	@ 0x2c
   22e6e:	4630      	mov	r0, r6
   22e70:	4621      	mov	r1, r4
   22e72:	462a      	mov	r2, r5
   22e74:	df03      	svc	3
   22e76:	2802      	cmp	r0, #2
   22e78:	d00c      	beq.n	22e94 <_ZN20complex_full_dynamic3app17hb9b1596eb1490ab1E+0x74>
   22e7a:	a815      	add	r0, sp, #84	@ 0x54
   22e7c:	2103      	movs	r1, #3
   22e7e:	7201      	strb	r1, [r0, #8]
   22e80:	9615      	str	r6, [sp, #84]	@ 0x54
   22e82:	9416      	str	r4, [sp, #88]	@ 0x58
   22e84:	4812      	ldr	r0, [pc, #72]	@ (22ed0 <_ZN20complex_full_dynamic3app17hb9b1596eb1490ab1E+0xb0>)
   22e86:	2105      	movs	r1, #5
   22e88:	2600      	movs	r6, #0
   22e8a:	4622      	mov	r2, r4
   22e8c:	4633      	mov	r3, r6
   22e8e:	df02      	svc	2
   22e90:	287f      	cmp	r0, #127	@ 0x7f
   22e92:	d80b      	bhi.n	22eac <_ZN20complex_full_dynamic3app17hb9b1596eb1490ab1E+0x8c>
   22e94:	9c02      	ldr	r4, [sp, #8]
   22e96:	6061      	str	r1, [r4, #4]
   22e98:	2601      	movs	r6, #1
   22e9a:	7026      	strb	r6, [r4, #0]
   22e9c:	a815      	add	r0, sp, #84	@ 0x54
   22e9e:	f004 f83b 	bl	26f18 <_ZN9allow_pin12full_dynamic17unshare_if_shared17h34fb2a9288def0c2E>
   22ea2:	a803      	add	r0, sp, #12
   22ea4:	f004 f838 	bl	26f18 <_ZN9allow_pin12full_dynamic17unshare_if_shared17h34fb2a9288def0c2E>
   22ea8:	b023      	add	sp, #140	@ 0x8c
   22eaa:	bdf0      	pop	{r4, r5, r6, r7, pc}
   22eac:	a803      	add	r0, sp, #12
   22eae:	f004 f833 	bl	26f18 <_ZN9allow_pin12full_dynamic17unshare_if_shared17h34fb2a9288def0c2E>
   22eb2:	ac15      	add	r4, sp, #84	@ 0x54
   22eb4:	4620      	mov	r0, r4
   22eb6:	f004 f82f 	bl	26f18 <_ZN9allow_pin12full_dynamic17unshare_if_shared17h34fb2a9288def0c2E>
   22eba:	4620      	mov	r0, r4
   22ebc:	f004 f82c 	bl	26f18 <_ZN9allow_pin12full_dynamic17unshare_if_shared17h34fb2a9288def0c2E>
   22ec0:	9c02      	ldr	r4, [sp, #8]
   22ec2:	1c60      	adds	r0, r4, #1
   22ec4:	222c      	movs	r2, #44	@ 0x2c
   22ec6:	4629      	mov	r1, r5
   22ec8:	f004 f9e7 	bl	2729a <__aeabi_memcpy>
   22ecc:	e7e5      	b.n	22e9a <_ZN20complex_full_dynamic3app17hb9b1596eb1490ab1E+0x7a>
   22ece:	46c0      	nop			@ (mov r8, r8)
   22ed0:	00001eac 	.word	0x00001eac

00022ed4 <_ZN20complex_full_dynamic3app17hb9b665255904185dE>:
   22ed4:	b5f0      	push	{r4, r5, r6, r7, lr}
   22ed6:	af03      	add	r7, sp, #12
   22ed8:	b0a3      	sub	sp, #140	@ 0x8c
   22eda:	9002      	str	r0, [sp, #8]
   22edc:	ac03      	add	r4, sp, #12
   22ede:	2002      	movs	r0, #2
   22ee0:	9001      	str	r0, [sp, #4]
   22ee2:	7220      	strb	r0, [r4, #8]
   22ee4:	340c      	adds	r4, #12
   22ee6:	2241      	movs	r2, #65	@ 0x41
   22ee8:	9200      	str	r2, [sp, #0]
   22eea:	4620      	mov	r0, r4
   22eec:	f004 f9d5 	bl	2729a <__aeabi_memcpy>
   22ef0:	ae17      	add	r6, sp, #92	@ 0x5c
   22ef2:	4635      	mov	r5, r6
   22ef4:	350c      	adds	r5, #12
   22ef6:	2122      	movs	r1, #34	@ 0x22
   22ef8:	4628      	mov	r0, r5
   22efa:	f004 f821 	bl	26f40 <__aeabi_memclr4>
   22efe:	9801      	ldr	r0, [sp, #4]
   22f00:	7230      	strb	r0, [r6, #8]
   22f02:	481f      	ldr	r0, [pc, #124]	@ (22f80 <_ZN20complex_full_dynamic3app17hb9b665255904185dE+0xac>)
   22f04:	2601      	movs	r6, #1
   22f06:	4631      	mov	r1, r6
   22f08:	4622      	mov	r2, r4
   22f0a:	9b00      	ldr	r3, [sp, #0]
   22f0c:	df04      	svc	4
   22f0e:	2802      	cmp	r0, #2
   22f10:	d018      	beq.n	22f44 <_ZN20complex_full_dynamic3app17hb9b665255904185dE+0x70>
   22f12:	a803      	add	r0, sp, #12
   22f14:	2104      	movs	r1, #4
   22f16:	7201      	strb	r1, [r0, #8]
   22f18:	9604      	str	r6, [sp, #16]
   22f1a:	4819      	ldr	r0, [pc, #100]	@ (22f80 <_ZN20complex_full_dynamic3app17hb9b665255904185dE+0xac>)
   22f1c:	9003      	str	r0, [sp, #12]
   22f1e:	2400      	movs	r4, #0
   22f20:	2322      	movs	r3, #34	@ 0x22
   22f22:	4621      	mov	r1, r4
   22f24:	462a      	mov	r2, r5
   22f26:	df03      	svc	3
   22f28:	2802      	cmp	r0, #2
   22f2a:	d00b      	beq.n	22f44 <_ZN20complex_full_dynamic3app17hb9b665255904185dE+0x70>
   22f2c:	a817      	add	r0, sp, #92	@ 0x5c
   22f2e:	2103      	movs	r1, #3
   22f30:	7201      	strb	r1, [r0, #8]
   22f32:	4813      	ldr	r0, [pc, #76]	@ (22f80 <_ZN20complex_full_dynamic3app17hb9b665255904185dE+0xac>)
   22f34:	9017      	str	r0, [sp, #92]	@ 0x5c
   22f36:	9418      	str	r4, [sp, #96]	@ 0x60
   22f38:	2101      	movs	r1, #1
   22f3a:	4622      	mov	r2, r4
   22f3c:	4623      	mov	r3, r4
   22f3e:	df02      	svc	2
   22f40:	287f      	cmp	r0, #127	@ 0x7f
   22f42:	d80a      	bhi.n	22f5a <_ZN20complex_full_dynamic3app17hb9b665255904185dE+0x86>
   22f44:	9c02      	ldr	r4, [sp, #8]
   22f46:	6061      	str	r1, [r4, #4]
   22f48:	7026      	strb	r6, [r4, #0]
   22f4a:	a817      	add	r0, sp, #92	@ 0x5c
   22f4c:	f003 ffe4 	bl	26f18 <_ZN9allow_pin12full_dynamic17unshare_if_shared17h34fb2a9288def0c2E>
   22f50:	a803      	add	r0, sp, #12
   22f52:	f003 ffe1 	bl	26f18 <_ZN9allow_pin12full_dynamic17unshare_if_shared17h34fb2a9288def0c2E>
   22f56:	b023      	add	sp, #140	@ 0x8c
   22f58:	bdf0      	pop	{r4, r5, r6, r7, pc}
   22f5a:	a803      	add	r0, sp, #12
   22f5c:	f003 ffdc 	bl	26f18 <_ZN9allow_pin12full_dynamic17unshare_if_shared17h34fb2a9288def0c2E>
   22f60:	4626      	mov	r6, r4
   22f62:	ac17      	add	r4, sp, #92	@ 0x5c
   22f64:	4620      	mov	r0, r4
   22f66:	f003 ffd7 	bl	26f18 <_ZN9allow_pin12full_dynamic17unshare_if_shared17h34fb2a9288def0c2E>
   22f6a:	4620      	mov	r0, r4
   22f6c:	f003 ffd4 	bl	26f18 <_ZN9allow_pin12full_dynamic17unshare_if_shared17h34fb2a9288def0c2E>
   22f70:	9c02      	ldr	r4, [sp, #8]
   22f72:	1c60      	adds	r0, r4, #1
   22f74:	2222      	movs	r2, #34	@ 0x22
   22f76:	4629      	mov	r1, r5
   22f78:	f004 f98f 	bl	2729a <__aeabi_memcpy>
   22f7c:	e7e4      	b.n	22f48 <_ZN20complex_full_dynamic3app17hb9b665255904185dE+0x74>
   22f7e:	46c0      	nop			@ (mov r8, r8)
   22f80:	0000247c 	.word	0x0000247c

00022f84 <_ZN20complex_full_dynamic3app17hba1bcf0ae931b73eE>:
   22f84:	b5f0      	push	{r4, r5, r6, r7, lr}
   22f86:	af03      	add	r7, sp, #12
   22f88:	b09f      	sub	sp, #124	@ 0x7c
   22f8a:	9003      	str	r0, [sp, #12]
   22f8c:	ac04      	add	r4, sp, #16
   22f8e:	2002      	movs	r0, #2
   22f90:	9002      	str	r0, [sp, #8]
   22f92:	7220      	strb	r0, [r4, #8]
   22f94:	340c      	adds	r4, #12
   22f96:	222c      	movs	r2, #44	@ 0x2c
   22f98:	9201      	str	r2, [sp, #4]
   22f9a:	4620      	mov	r0, r4
   22f9c:	f004 f97d 	bl	2729a <__aeabi_memcpy>
   22fa0:	ae12      	add	r6, sp, #72	@ 0x48
   22fa2:	4635      	mov	r5, r6
   22fa4:	350c      	adds	r5, #12
   22fa6:	2127      	movs	r1, #39	@ 0x27
   22fa8:	4628      	mov	r0, r5
   22faa:	f003 ffc9 	bl	26f40 <__aeabi_memclr4>
   22fae:	9802      	ldr	r0, [sp, #8]
   22fb0:	7230      	strb	r0, [r6, #8]
   22fb2:	481f      	ldr	r0, [pc, #124]	@ (23030 <_ZN20complex_full_dynamic3app17hba1bcf0ae931b73eE+0xac>)
   22fb4:	2604      	movs	r6, #4
   22fb6:	4631      	mov	r1, r6
   22fb8:	4622      	mov	r2, r4
   22fba:	9b01      	ldr	r3, [sp, #4]
   22fbc:	df04      	svc	4
   22fbe:	2802      	cmp	r0, #2
   22fc0:	d018      	beq.n	22ff4 <_ZN20complex_full_dynamic3app17hba1bcf0ae931b73eE+0x70>
   22fc2:	a804      	add	r0, sp, #16
   22fc4:	7206      	strb	r6, [r0, #8]
   22fc6:	9605      	str	r6, [sp, #20]
   22fc8:	4e19      	ldr	r6, [pc, #100]	@ (23030 <_ZN20complex_full_dynamic3app17hba1bcf0ae931b73eE+0xac>)
   22fca:	9604      	str	r6, [sp, #16]
   22fcc:	2403      	movs	r4, #3
   22fce:	2327      	movs	r3, #39	@ 0x27
   22fd0:	4630      	mov	r0, r6
   22fd2:	4621      	mov	r1, r4
   22fd4:	462a      	mov	r2, r5
   22fd6:	df03      	svc	3
   22fd8:	2802      	cmp	r0, #2
   22fda:	d00b      	beq.n	22ff4 <_ZN20complex_full_dynamic3app17hba1bcf0ae931b73eE+0x70>
   22fdc:	a812      	add	r0, sp, #72	@ 0x48
   22fde:	7204      	strb	r4, [r0, #8]
   22fe0:	9413      	str	r4, [sp, #76]	@ 0x4c
   22fe2:	9612      	str	r6, [sp, #72]	@ 0x48
   22fe4:	4812      	ldr	r0, [pc, #72]	@ (23030 <_ZN20complex_full_dynamic3app17hba1bcf0ae931b73eE+0xac>)
   22fe6:	2104      	movs	r1, #4
   22fe8:	2600      	movs	r6, #0
   22fea:	4622      	mov	r2, r4
   22fec:	4633      	mov	r3, r6
   22fee:	df02      	svc	2
   22ff0:	287f      	cmp	r0, #127	@ 0x7f
   22ff2:	d80b      	bhi.n	2300c <_ZN20complex_full_dynamic3app17hba1bcf0ae931b73eE+0x88>
   22ff4:	9c03      	ldr	r4, [sp, #12]
   22ff6:	6061      	str	r1, [r4, #4]
   22ff8:	2601      	movs	r6, #1
   22ffa:	7026      	strb	r6, [r4, #0]
   22ffc:	a812      	add	r0, sp, #72	@ 0x48
   22ffe:	f003 ff8b 	bl	26f18 <_ZN9allow_pin12full_dynamic17unshare_if_shared17h34fb2a9288def0c2E>
   23002:	a804      	add	r0, sp, #16
   23004:	f003 ff88 	bl	26f18 <_ZN9allow_pin12full_dynamic17unshare_if_shared17h34fb2a9288def0c2E>
   23008:	b01f      	add	sp, #124	@ 0x7c
   2300a:	bdf0      	pop	{r4, r5, r6, r7, pc}
   2300c:	a804      	add	r0, sp, #16
   2300e:	f003 ff83 	bl	26f18 <_ZN9allow_pin12full_dynamic17unshare_if_shared17h34fb2a9288def0c2E>
   23012:	ac12      	add	r4, sp, #72	@ 0x48
   23014:	4620      	mov	r0, r4
   23016:	f003 ff7f 	bl	26f18 <_ZN9allow_pin12full_dynamic17unshare_if_shared17h34fb2a9288def0c2E>
   2301a:	4620      	mov	r0, r4
   2301c:	f003 ff7c 	bl	26f18 <_ZN9allow_pin12full_dynamic17unshare_if_shared17h34fb2a9288def0c2E>
   23020:	9c03      	ldr	r4, [sp, #12]
   23022:	1c60      	adds	r0, r4, #1
   23024:	2227      	movs	r2, #39	@ 0x27
   23026:	4629      	mov	r1, r5
   23028:	f004 f937 	bl	2729a <__aeabi_memcpy>
   2302c:	e7e5      	b.n	22ffa <_ZN20complex_full_dynamic3app17hba1bcf0ae931b73eE+0x76>
   2302e:	46c0      	nop			@ (mov r8, r8)
   23030:	000011b5 	.word	0x000011b5

00023034 <_ZN20complex_full_dynamic3app17hbacd71eefe908e1aE>:
   23034:	b5f0      	push	{r4, r5, r6, r7, lr}
   23036:	af03      	add	r7, sp, #12
   23038:	b0a3      	sub	sp, #140	@ 0x8c
   2303a:	9002      	str	r0, [sp, #8]
   2303c:	ac03      	add	r4, sp, #12
   2303e:	2002      	movs	r0, #2
   23040:	9001      	str	r0, [sp, #4]
   23042:	7220      	strb	r0, [r4, #8]
   23044:	340c      	adds	r4, #12
   23046:	2244      	movs	r2, #68	@ 0x44
   23048:	9200      	str	r2, [sp, #0]
   2304a:	4620      	mov	r0, r4
   2304c:	f004 f925 	bl	2729a <__aeabi_memcpy>
   23050:	ae17      	add	r6, sp, #92	@ 0x5c
   23052:	4635      	mov	r5, r6
   23054:	350c      	adds	r5, #12
   23056:	2123      	movs	r1, #35	@ 0x23
   23058:	4628      	mov	r0, r5
   2305a:	f003 ff71 	bl	26f40 <__aeabi_memclr4>
   2305e:	9801      	ldr	r0, [sp, #4]
   23060:	7230      	strb	r0, [r6, #8]
   23062:	481f      	ldr	r0, [pc, #124]	@ (230e0 <_ZN20complex_full_dynamic3app17hbacd71eefe908e1aE+0xac>)
   23064:	2606      	movs	r6, #6
   23066:	4631      	mov	r1, r6
   23068:	4622      	mov	r2, r4
   2306a:	9b00      	ldr	r3, [sp, #0]
   2306c:	df04      	svc	4
   2306e:	2802      	cmp	r0, #2
   23070:	d019      	beq.n	230a6 <_ZN20complex_full_dynamic3app17hbacd71eefe908e1aE+0x72>
   23072:	a803      	add	r0, sp, #12
   23074:	2104      	movs	r1, #4
   23076:	7201      	strb	r1, [r0, #8]
   23078:	9604      	str	r6, [sp, #16]
   2307a:	4e19      	ldr	r6, [pc, #100]	@ (230e0 <_ZN20complex_full_dynamic3app17hbacd71eefe908e1aE+0xac>)
   2307c:	9603      	str	r6, [sp, #12]
   2307e:	2403      	movs	r4, #3
   23080:	2323      	movs	r3, #35	@ 0x23
   23082:	4630      	mov	r0, r6
   23084:	4621      	mov	r1, r4
   23086:	462a      	mov	r2, r5
   23088:	df03      	svc	3
   2308a:	2802      	cmp	r0, #2
   2308c:	d00b      	beq.n	230a6 <_ZN20complex_full_dynamic3app17hbacd71eefe908e1aE+0x72>
   2308e:	a817      	add	r0, sp, #92	@ 0x5c
   23090:	7204      	strb	r4, [r0, #8]
   23092:	9418      	str	r4, [sp, #96]	@ 0x60
   23094:	9617      	str	r6, [sp, #92]	@ 0x5c
   23096:	4812      	ldr	r0, [pc, #72]	@ (230e0 <_ZN20complex_full_dynamic3app17hbacd71eefe908e1aE+0xac>)
   23098:	2106      	movs	r1, #6
   2309a:	2600      	movs	r6, #0
   2309c:	4622      	mov	r2, r4
   2309e:	4633      	mov	r3, r6
   230a0:	df02      	svc	2
   230a2:	287f      	cmp	r0, #127	@ 0x7f
   230a4:	d80b      	bhi.n	230be <_ZN20complex_full_dynamic3app17hbacd71eefe908e1aE+0x8a>
   230a6:	9c02      	ldr	r4, [sp, #8]
   230a8:	6061      	str	r1, [r4, #4]
   230aa:	2601      	movs	r6, #1
   230ac:	7026      	strb	r6, [r4, #0]
   230ae:	a817      	add	r0, sp, #92	@ 0x5c
   230b0:	f003 ff32 	bl	26f18 <_ZN9allow_pin12full_dynamic17unshare_if_shared17h34fb2a9288def0c2E>
   230b4:	a803      	add	r0, sp, #12
   230b6:	f003 ff2f 	bl	26f18 <_ZN9allow_pin12full_dynamic17unshare_if_shared17h34fb2a9288def0c2E>
   230ba:	b023      	add	sp, #140	@ 0x8c
   230bc:	bdf0      	pop	{r4, r5, r6, r7, pc}
   230be:	a803      	add	r0, sp, #12
   230c0:	f003 ff2a 	bl	26f18 <_ZN9allow_pin12full_dynamic17unshare_if_shared17h34fb2a9288def0c2E>
   230c4:	ac17      	add	r4, sp, #92	@ 0x5c
   230c6:	4620      	mov	r0, r4
   230c8:	f003 ff26 	bl	26f18 <_ZN9allow_pin12full_dynamic17unshare_if_shared17h34fb2a9288def0c2E>
   230cc:	4620      	mov	r0, r4
   230ce:	f003 ff23 	bl	26f18 <_ZN9allow_pin12full_dynamic17unshare_if_shared17h34fb2a9288def0c2E>
   230d2:	9c02      	ldr	r4, [sp, #8]
   230d4:	1c60      	adds	r0, r4, #1
   230d6:	2223      	movs	r2, #35	@ 0x23
   230d8:	4629      	mov	r1, r5
   230da:	f004 f8de 	bl	2729a <__aeabi_memcpy>
   230de:	e7e5      	b.n	230ac <_ZN20complex_full_dynamic3app17hbacd71eefe908e1aE+0x78>
   230e0:	000009bf 	.word	0x000009bf

000230e4 <_ZN20complex_full_dynamic3app17hbc3f560f743b246bE>:
   230e4:	b5f0      	push	{r4, r5, r6, r7, lr}
   230e6:	af03      	add	r7, sp, #12
   230e8:	b0b3      	sub	sp, #204	@ 0xcc
   230ea:	9003      	str	r0, [sp, #12]
   230ec:	ac04      	add	r4, sp, #16
   230ee:	2002      	movs	r0, #2
   230f0:	9002      	str	r0, [sp, #8]
   230f2:	7220      	strb	r0, [r4, #8]
   230f4:	340c      	adds	r4, #12
   230f6:	2251      	movs	r2, #81	@ 0x51
   230f8:	9201      	str	r2, [sp, #4]
   230fa:	4620      	mov	r0, r4
   230fc:	f004 f8cd 	bl	2729a <__aeabi_memcpy>
   23100:	ae1c      	add	r6, sp, #112	@ 0x70
   23102:	4635      	mov	r5, r6
   23104:	350c      	adds	r5, #12
   23106:	214f      	movs	r1, #79	@ 0x4f
   23108:	4628      	mov	r0, r5
   2310a:	f003 ff19 	bl	26f40 <__aeabi_memclr4>
   2310e:	9802      	ldr	r0, [sp, #8]
   23110:	7230      	strb	r0, [r6, #8]
   23112:	481f      	ldr	r0, [pc, #124]	@ (23190 <_ZN20complex_full_dynamic3app17hbc3f560f743b246bE+0xac>)
   23114:	2604      	movs	r6, #4
   23116:	4631      	mov	r1, r6
   23118:	4622      	mov	r2, r4
   2311a:	9b01      	ldr	r3, [sp, #4]
   2311c:	df04      	svc	4
   2311e:	2802      	cmp	r0, #2
   23120:	d019      	beq.n	23156 <_ZN20complex_full_dynamic3app17hbc3f560f743b246bE+0x72>
   23122:	a804      	add	r0, sp, #16
   23124:	7206      	strb	r6, [r0, #8]
   23126:	9605      	str	r6, [sp, #20]
   23128:	4e19      	ldr	r6, [pc, #100]	@ (23190 <_ZN20complex_full_dynamic3app17hbc3f560f743b246bE+0xac>)
   2312a:	9604      	str	r6, [sp, #16]
   2312c:	2409      	movs	r4, #9
   2312e:	234f      	movs	r3, #79	@ 0x4f
   23130:	4630      	mov	r0, r6
   23132:	4621      	mov	r1, r4
   23134:	462a      	mov	r2, r5
   23136:	df03      	svc	3
   23138:	2802      	cmp	r0, #2
   2313a:	d00c      	beq.n	23156 <_ZN20complex_full_dynamic3app17hbc3f560f743b246bE+0x72>
   2313c:	a81c      	add	r0, sp, #112	@ 0x70
   2313e:	2103      	movs	r1, #3
   23140:	7201      	strb	r1, [r0, #8]
   23142:	961c      	str	r6, [sp, #112]	@ 0x70
   23144:	941d      	str	r4, [sp, #116]	@ 0x74
   23146:	4812      	ldr	r0, [pc, #72]	@ (23190 <_ZN20complex_full_dynamic3app17hbc3f560f743b246bE+0xac>)
   23148:	2104      	movs	r1, #4
   2314a:	2600      	movs	r6, #0
   2314c:	4622      	mov	r2, r4
   2314e:	4633      	mov	r3, r6
   23150:	df02      	svc	2
   23152:	287f      	cmp	r0, #127	@ 0x7f
   23154:	d80b      	bhi.n	2316e <_ZN20complex_full_dynamic3app17hbc3f560f743b246bE+0x8a>
   23156:	9c03      	ldr	r4, [sp, #12]
   23158:	6061      	str	r1, [r4, #4]
   2315a:	2601      	movs	r6, #1
   2315c:	7026      	strb	r6, [r4, #0]
   2315e:	a81c      	add	r0, sp, #112	@ 0x70
   23160:	f003 feda 	bl	26f18 <_ZN9allow_pin12full_dynamic17unshare_if_shared17h34fb2a9288def0c2E>
   23164:	a804      	add	r0, sp, #16
   23166:	f003 fed7 	bl	26f18 <_ZN9allow_pin12full_dynamic17unshare_if_shared17h34fb2a9288def0c2E>
   2316a:	b033      	add	sp, #204	@ 0xcc
   2316c:	bdf0      	pop	{r4, r5, r6, r7, pc}
   2316e:	a804      	add	r0, sp, #16
   23170:	f003 fed2 	bl	26f18 <_ZN9allow_pin12full_dynamic17unshare_if_shared17h34fb2a9288def0c2E>
   23174:	ac1c      	add	r4, sp, #112	@ 0x70
   23176:	4620      	mov	r0, r4
   23178:	f003 fece 	bl	26f18 <_ZN9allow_pin12full_dynamic17unshare_if_shared17h34fb2a9288def0c2E>
   2317c:	4620      	mov	r0, r4
   2317e:	f003 fecb 	bl	26f18 <_ZN9allow_pin12full_dynamic17unshare_if_shared17h34fb2a9288def0c2E>
   23182:	9c03      	ldr	r4, [sp, #12]
   23184:	1c60      	adds	r0, r4, #1
   23186:	224f      	movs	r2, #79	@ 0x4f
   23188:	4629      	mov	r1, r5
   2318a:	f004 f886 	bl	2729a <__aeabi_memcpy>
   2318e:	e7e5      	b.n	2315c <_ZN20complex_full_dynamic3app17hbc3f560f743b246bE+0x78>
   23190:	000020ee 	.word	0x000020ee

00023194 <_ZN20complex_full_dynamic3app17hbc9477476c4b6840E>:
   23194:	b5f0      	push	{r4, r5, r6, r7, lr}
   23196:	af03      	add	r7, sp, #12
   23198:	b09f      	sub	sp, #124	@ 0x7c
   2319a:	9001      	str	r0, [sp, #4]
   2319c:	ac02      	add	r4, sp, #8
   2319e:	2502      	movs	r5, #2
   231a0:	7225      	strb	r5, [r4, #8]
   231a2:	340c      	adds	r4, #12
   231a4:	263f      	movs	r6, #63	@ 0x3f
   231a6:	4620      	mov	r0, r4
   231a8:	4632      	mov	r2, r6
   231aa:	f004 f876 	bl	2729a <__aeabi_memcpy>
   231ae:	a815      	add	r0, sp, #84	@ 0x54
   231b0:	9000      	str	r0, [sp, #0]
   231b2:	7205      	strb	r5, [r0, #8]
   231b4:	2000      	movs	r0, #0
   231b6:	901e      	str	r0, [sp, #120]	@ 0x78
   231b8:	901d      	str	r0, [sp, #116]	@ 0x74
   231ba:	901c      	str	r0, [sp, #112]	@ 0x70
   231bc:	901b      	str	r0, [sp, #108]	@ 0x6c
   231be:	901a      	str	r0, [sp, #104]	@ 0x68
   231c0:	9019      	str	r0, [sp, #100]	@ 0x64
   231c2:	9018      	str	r0, [sp, #96]	@ 0x60
   231c4:	4820      	ldr	r0, [pc, #128]	@ (23248 <_ZN20complex_full_dynamic3app17hbc9477476c4b6840E+0xb4>)
   231c6:	2505      	movs	r5, #5
   231c8:	4629      	mov	r1, r5
   231ca:	4622      	mov	r2, r4
   231cc:	4633      	mov	r3, r6
   231ce:	df04      	svc	4
   231d0:	2802      	cmp	r0, #2
   231d2:	d01c      	beq.n	2320e <_ZN20complex_full_dynamic3app17hbc9477476c4b6840E+0x7a>
   231d4:	9e00      	ldr	r6, [sp, #0]
   231d6:	360c      	adds	r6, #12
   231d8:	a802      	add	r0, sp, #8
   231da:	2104      	movs	r1, #4
   231dc:	7201      	strb	r1, [r0, #8]
   231de:	9503      	str	r5, [sp, #12]
   231e0:	4819      	ldr	r0, [pc, #100]	@ (23248 <_ZN20complex_full_dynamic3app17hbc9477476c4b6840E+0xb4>)
   231e2:	9002      	str	r0, [sp, #8]
   231e4:	2409      	movs	r4, #9
   231e6:	231c      	movs	r3, #28
   231e8:	4621      	mov	r1, r4
   231ea:	4632      	mov	r2, r6
   231ec:	df03      	svc	3
   231ee:	2802      	cmp	r0, #2
   231f0:	d00d      	beq.n	2320e <_ZN20complex_full_dynamic3app17hbc9477476c4b6840E+0x7a>
   231f2:	4635      	mov	r5, r6
   231f4:	a815      	add	r0, sp, #84	@ 0x54
   231f6:	2103      	movs	r1, #3
   231f8:	7201      	strb	r1, [r0, #8]
   231fa:	4813      	ldr	r0, [pc, #76]	@ (23248 <_ZN20complex_full_dynamic3app17hbc9477476c4b6840E+0xb4>)
   231fc:	9015      	str	r0, [sp, #84]	@ 0x54
   231fe:	9416      	str	r4, [sp, #88]	@ 0x58
   23200:	2105      	movs	r1, #5
   23202:	2600      	movs	r6, #0
   23204:	4622      	mov	r2, r4
   23206:	4633      	mov	r3, r6
   23208:	df02      	svc	2
   2320a:	287f      	cmp	r0, #127	@ 0x7f
   2320c:	d80b      	bhi.n	23226 <_ZN20complex_full_dynamic3app17hbc9477476c4b6840E+0x92>
   2320e:	9c01      	ldr	r4, [sp, #4]
   23210:	6061      	str	r1, [r4, #4]
   23212:	2601      	movs	r6, #1
   23214:	7026      	strb	r6, [r4, #0]
   23216:	a815      	add	r0, sp, #84	@ 0x54
   23218:	f003 fe7e 	bl	26f18 <_ZN9allow_pin12full_dynamic17unshare_if_shared17h34fb2a9288def0c2E>
   2321c:	a802      	add	r0, sp, #8
   2321e:	f003 fe7b 	bl	26f18 <_ZN9allow_pin12full_dynamic17unshare_if_shared17h34fb2a9288def0c2E>
   23222:	b01f      	add	sp, #124	@ 0x7c
   23224:	bdf0      	pop	{r4, r5, r6, r7, pc}
   23226:	a802      	add	r0, sp, #8
   23228:	f003 fe76 	bl	26f18 <_ZN9allow_pin12full_dynamic17unshare_if_shared17h34fb2a9288def0c2E>
   2322c:	ac15      	add	r4, sp, #84	@ 0x54
   2322e:	4620      	mov	r0, r4
   23230:	f003 fe72 	bl	26f18 <_ZN9allow_pin12full_dynamic17unshare_if_shared17h34fb2a9288def0c2E>
   23234:	4620      	mov	r0, r4
   23236:	f003 fe6f 	bl	26f18 <_ZN9allow_pin12full_dynamic17unshare_if_shared17h34fb2a9288def0c2E>
   2323a:	9c01      	ldr	r4, [sp, #4]
   2323c:	1c60      	adds	r0, r4, #1
   2323e:	221c      	movs	r2, #28
   23240:	4629      	mov	r1, r5
   23242:	f004 f82a 	bl	2729a <__aeabi_memcpy>
   23246:	e7e5      	b.n	23214 <_ZN20complex_full_dynamic3app17hbc9477476c4b6840E+0x80>
   23248:	00001694 	.word	0x00001694

0002324c <_ZN20complex_full_dynamic3app17hc1b86dfe3bf4d118E>:
   2324c:	b5f0      	push	{r4, r5, r6, r7, lr}
   2324e:	af03      	add	r7, sp, #12
   23250:	b097      	sub	sp, #92	@ 0x5c
   23252:	9002      	str	r0, [sp, #8]
   23254:	ac03      	add	r4, sp, #12
   23256:	2502      	movs	r5, #2
   23258:	7225      	strb	r5, [r4, #8]
   2325a:	340c      	adds	r4, #12
   2325c:	2218      	movs	r2, #24
   2325e:	9201      	str	r2, [sp, #4]
   23260:	4620      	mov	r0, r4
   23262:	f004 f81a 	bl	2729a <__aeabi_memcpy>
   23266:	ae0c      	add	r6, sp, #48	@ 0x30
   23268:	2000      	movs	r0, #0
   2326a:	8530      	strh	r0, [r6, #40]	@ 0x28
   2326c:	7235      	strb	r5, [r6, #8]
   2326e:	9015      	str	r0, [sp, #84]	@ 0x54
   23270:	9014      	str	r0, [sp, #80]	@ 0x50
   23272:	9013      	str	r0, [sp, #76]	@ 0x4c
   23274:	9012      	str	r0, [sp, #72]	@ 0x48
   23276:	9011      	str	r0, [sp, #68]	@ 0x44
   23278:	9010      	str	r0, [sp, #64]	@ 0x40
   2327a:	900f      	str	r0, [sp, #60]	@ 0x3c
   2327c:	4820      	ldr	r0, [pc, #128]	@ (23300 <_ZN20complex_full_dynamic3app17hc1b86dfe3bf4d118E+0xb4>)
   2327e:	2509      	movs	r5, #9
   23280:	4629      	mov	r1, r5
   23282:	4622      	mov	r2, r4
   23284:	9b01      	ldr	r3, [sp, #4]
   23286:	df04      	svc	4
   23288:	2802      	cmp	r0, #2
   2328a:	d01b      	beq.n	232c4 <_ZN20complex_full_dynamic3app17hc1b86dfe3bf4d118E+0x78>
   2328c:	360c      	adds	r6, #12
   2328e:	a803      	add	r0, sp, #12
   23290:	2104      	movs	r1, #4
   23292:	7201      	strb	r1, [r0, #8]
   23294:	9504      	str	r5, [sp, #16]
   23296:	481a      	ldr	r0, [pc, #104]	@ (23300 <_ZN20complex_full_dynamic3app17hc1b86dfe3bf4d118E+0xb4>)
   23298:	9003      	str	r0, [sp, #12]
   2329a:	2405      	movs	r4, #5
   2329c:	231e      	movs	r3, #30
   2329e:	4621      	mov	r1, r4
   232a0:	4632      	mov	r2, r6
   232a2:	df03      	svc	3
   232a4:	2802      	cmp	r0, #2
   232a6:	d00d      	beq.n	232c4 <_ZN20complex_full_dynamic3app17hc1b86dfe3bf4d118E+0x78>
   232a8:	4635      	mov	r5, r6
   232aa:	a80c      	add	r0, sp, #48	@ 0x30
   232ac:	2103      	movs	r1, #3
   232ae:	7201      	strb	r1, [r0, #8]
   232b0:	4813      	ldr	r0, [pc, #76]	@ (23300 <_ZN20complex_full_dynamic3app17hc1b86dfe3bf4d118E+0xb4>)
   232b2:	900c      	str	r0, [sp, #48]	@ 0x30
   232b4:	940d      	str	r4, [sp, #52]	@ 0x34
   232b6:	2109      	movs	r1, #9
   232b8:	2600      	movs	r6, #0
   232ba:	4622      	mov	r2, r4
   232bc:	4633      	mov	r3, r6
   232be:	df02      	svc	2
   232c0:	287f      	cmp	r0, #127	@ 0x7f
   232c2:	d80b      	bhi.n	232dc <_ZN20complex_full_dynamic3app17hc1b86dfe3bf4d118E+0x90>
   232c4:	9c02      	ldr	r4, [sp, #8]
   232c6:	6061      	str	r1, [r4, #4]
   232c8:	2601      	movs	r6, #1
   232ca:	7026      	strb	r6, [r4, #0]
   232cc:	a80c      	add	r0, sp, #48	@ 0x30
   232ce:	f003 fe23 	bl	26f18 <_ZN9allow_pin12full_dynamic17unshare_if_shared17h34fb2a9288def0c2E>
   232d2:	a803      	add	r0, sp, #12
   232d4:	f003 fe20 	bl	26f18 <_ZN9allow_pin12full_dynamic17unshare_if_shared17h34fb2a9288def0c2E>
   232d8:	b017      	add	sp, #92	@ 0x5c
   232da:	bdf0      	pop	{r4, r5, r6, r7, pc}
   232dc:	a803      	add	r0, sp, #12
   232de:	f003 fe1b 	bl	26f18 <_ZN9allow_pin12full_dynamic17unshare_if_shared17h34fb2a9288def0c2E>
   232e2:	ac0c      	add	r4, sp, #48	@ 0x30
   232e4:	4620      	mov	r0, r4
   232e6:	f003 fe17 	bl	26f18 <_ZN9allow_pin12full_dynamic17unshare_if_shared17h34fb2a9288def0c2E>
   232ea:	4620      	mov	r0, r4
   232ec:	f003 fe14 	bl	26f18 <_ZN9allow_pin12full_dynamic17unshare_if_shared17h34fb2a9288def0c2E>
   232f0:	9c02      	ldr	r4, [sp, #8]
   232f2:	1c60      	adds	r0, r4, #1
   232f4:	221e      	movs	r2, #30
   232f6:	4629      	mov	r1, r5
   232f8:	f003 ffcf 	bl	2729a <__aeabi_memcpy>
   232fc:	e7e5      	b.n	232ca <_ZN20complex_full_dynamic3app17hc1b86dfe3bf4d118E+0x7e>
   232fe:	46c0      	nop			@ (mov r8, r8)
   23300:	00000cbb 	.word	0x00000cbb

00023304 <_ZN20complex_full_dynamic3app17hc27610031d958d0cE>:
   23304:	b5f0      	push	{r4, r5, r6, r7, lr}
   23306:	af03      	add	r7, sp, #12
   23308:	b09b      	sub	sp, #108	@ 0x6c
   2330a:	9002      	str	r0, [sp, #8]
   2330c:	ac03      	add	r4, sp, #12
   2330e:	2502      	movs	r5, #2
   23310:	7225      	strb	r5, [r4, #8]
   23312:	340c      	adds	r4, #12
   23314:	2236      	movs	r2, #54	@ 0x36
   23316:	9201      	str	r2, [sp, #4]
   23318:	4620      	mov	r0, r4
   2331a:	f003 ffbe 	bl	2729a <__aeabi_memcpy>
   2331e:	ae14      	add	r6, sp, #80	@ 0x50
   23320:	2000      	movs	r0, #0
   23322:	76b0      	strb	r0, [r6, #26]
   23324:	8330      	strh	r0, [r6, #24]
   23326:	7235      	strb	r5, [r6, #8]
   23328:	9019      	str	r0, [sp, #100]	@ 0x64
   2332a:	9018      	str	r0, [sp, #96]	@ 0x60
   2332c:	9017      	str	r0, [sp, #92]	@ 0x5c
   2332e:	4820      	ldr	r0, [pc, #128]	@ (233b0 <_ZN20complex_full_dynamic3app17hc27610031d958d0cE+0xac>)
   23330:	2505      	movs	r5, #5
   23332:	4629      	mov	r1, r5
   23334:	4622      	mov	r2, r4
   23336:	9b01      	ldr	r3, [sp, #4]
   23338:	df04      	svc	4
   2333a:	2802      	cmp	r0, #2
   2333c:	d01a      	beq.n	23374 <_ZN20complex_full_dynamic3app17hc27610031d958d0cE+0x70>
   2333e:	360c      	adds	r6, #12
   23340:	a803      	add	r0, sp, #12
   23342:	2104      	movs	r1, #4
   23344:	7201      	strb	r1, [r0, #8]
   23346:	9504      	str	r5, [sp, #16]
   23348:	4819      	ldr	r0, [pc, #100]	@ (233b0 <_ZN20complex_full_dynamic3app17hc27610031d958d0cE+0xac>)
   2334a:	9003      	str	r0, [sp, #12]
   2334c:	2403      	movs	r4, #3
   2334e:	230f      	movs	r3, #15
   23350:	4621      	mov	r1, r4
   23352:	4632      	mov	r2, r6
   23354:	df03      	svc	3
   23356:	2802      	cmp	r0, #2
   23358:	d00c      	beq.n	23374 <_ZN20complex_full_dynamic3app17hc27610031d958d0cE+0x70>
   2335a:	4635      	mov	r5, r6
   2335c:	a814      	add	r0, sp, #80	@ 0x50
   2335e:	7204      	strb	r4, [r0, #8]
   23360:	9415      	str	r4, [sp, #84]	@ 0x54
   23362:	4813      	ldr	r0, [pc, #76]	@ (233b0 <_ZN20complex_full_dynamic3app17hc27610031d958d0cE+0xac>)
   23364:	9014      	str	r0, [sp, #80]	@ 0x50
   23366:	2105      	movs	r1, #5
   23368:	2600      	movs	r6, #0
   2336a:	4622      	mov	r2, r4
   2336c:	4633      	mov	r3, r6
   2336e:	df02      	svc	2
   23370:	287f      	cmp	r0, #127	@ 0x7f
   23372:	d80b      	bhi.n	2338c <_ZN20complex_full_dynamic3app17hc27610031d958d0cE+0x88>
   23374:	9c02      	ldr	r4, [sp, #8]
   23376:	6061      	str	r1, [r4, #4]
   23378:	2601      	movs	r6, #1
   2337a:	7026      	strb	r6, [r4, #0]
   2337c:	a814      	add	r0, sp, #80	@ 0x50
   2337e:	f003 fdcb 	bl	26f18 <_ZN9allow_pin12full_dynamic17unshare_if_shared17h34fb2a9288def0c2E>
   23382:	a803      	add	r0, sp, #12
   23384:	f003 fdc8 	bl	26f18 <_ZN9allow_pin12full_dynamic17unshare_if_shared17h34fb2a9288def0c2E>
   23388:	b01b      	add	sp, #108	@ 0x6c
   2338a:	bdf0      	pop	{r4, r5, r6, r7, pc}
   2338c:	a803      	add	r0, sp, #12
   2338e:	f003 fdc3 	bl	26f18 <_ZN9allow_pin12full_dynamic17unshare_if_shared17h34fb2a9288def0c2E>
   23392:	ac14      	add	r4, sp, #80	@ 0x50
   23394:	4620      	mov	r0, r4
   23396:	f003 fdbf 	bl	26f18 <_ZN9allow_pin12full_dynamic17unshare_if_shared17h34fb2a9288def0c2E>
   2339a:	4620      	mov	r0, r4
   2339c:	f003 fdbc 	bl	26f18 <_ZN9allow_pin12full_dynamic17unshare_if_shared17h34fb2a9288def0c2E>
   233a0:	9c02      	ldr	r4, [sp, #8]
   233a2:	1c60      	adds	r0, r4, #1
   233a4:	220f      	movs	r2, #15
   233a6:	4629      	mov	r1, r5
   233a8:	f003 ff77 	bl	2729a <__aeabi_memcpy>
   233ac:	e7e5      	b.n	2337a <_ZN20complex_full_dynamic3app17hc27610031d958d0cE+0x76>
   233ae:	46c0      	nop			@ (mov r8, r8)
   233b0:	00000653 	.word	0x00000653

000233b4 <_ZN20complex_full_dynamic3app17hc2ffe445f50b01f4E>:
   233b4:	b5f0      	push	{r4, r5, r6, r7, lr}
   233b6:	af03      	add	r7, sp, #12
   233b8:	b0a7      	sub	sp, #156	@ 0x9c
   233ba:	9003      	str	r0, [sp, #12]
   233bc:	ae04      	add	r6, sp, #16
   233be:	2002      	movs	r0, #2
   233c0:	9002      	str	r0, [sp, #8]
   233c2:	7230      	strb	r0, [r6, #8]
   233c4:	360c      	adds	r6, #12
   233c6:	2248      	movs	r2, #72	@ 0x48
   233c8:	9201      	str	r2, [sp, #4]
   233ca:	4630      	mov	r0, r6
   233cc:	f003 ff65 	bl	2729a <__aeabi_memcpy>
   233d0:	ad19      	add	r5, sp, #100	@ 0x64
   233d2:	462c      	mov	r4, r5
   233d4:	340c      	adds	r4, #12
   233d6:	2129      	movs	r1, #41	@ 0x29
   233d8:	4620      	mov	r0, r4
   233da:	f003 fdb1 	bl	26f40 <__aeabi_memclr4>
   233de:	9802      	ldr	r0, [sp, #8]
   233e0:	7228      	strb	r0, [r5, #8]
   233e2:	481f      	ldr	r0, [pc, #124]	@ (23460 <_ZN20complex_full_dynamic3app17hc2ffe445f50b01f4E+0xac>)
   233e4:	2503      	movs	r5, #3
   233e6:	4629      	mov	r1, r5
   233e8:	4632      	mov	r2, r6
   233ea:	9b01      	ldr	r3, [sp, #4]
   233ec:	df04      	svc	4
   233ee:	2802      	cmp	r0, #2
   233f0:	d018      	beq.n	23424 <_ZN20complex_full_dynamic3app17hc2ffe445f50b01f4E+0x70>
   233f2:	a804      	add	r0, sp, #16
   233f4:	2604      	movs	r6, #4
   233f6:	7206      	strb	r6, [r0, #8]
   233f8:	9505      	str	r5, [sp, #20]
   233fa:	4819      	ldr	r0, [pc, #100]	@ (23460 <_ZN20complex_full_dynamic3app17hc2ffe445f50b01f4E+0xac>)
   233fc:	9004      	str	r0, [sp, #16]
   233fe:	2329      	movs	r3, #41	@ 0x29
   23400:	4631      	mov	r1, r6
   23402:	4622      	mov	r2, r4
   23404:	df03      	svc	3
   23406:	2802      	cmp	r0, #2
   23408:	d00c      	beq.n	23424 <_ZN20complex_full_dynamic3app17hc2ffe445f50b01f4E+0x70>
   2340a:	a819      	add	r0, sp, #100	@ 0x64
   2340c:	7205      	strb	r5, [r0, #8]
   2340e:	4814      	ldr	r0, [pc, #80]	@ (23460 <_ZN20complex_full_dynamic3app17hc2ffe445f50b01f4E+0xac>)
   23410:	9019      	str	r0, [sp, #100]	@ 0x64
   23412:	961a      	str	r6, [sp, #104]	@ 0x68
   23414:	2200      	movs	r2, #0
   23416:	4629      	mov	r1, r5
   23418:	4615      	mov	r5, r2
   2341a:	4632      	mov	r2, r6
   2341c:	462b      	mov	r3, r5
   2341e:	df02      	svc	2
   23420:	287f      	cmp	r0, #127	@ 0x7f
   23422:	d80b      	bhi.n	2343c <_ZN20complex_full_dynamic3app17hc2ffe445f50b01f4E+0x88>
   23424:	9c03      	ldr	r4, [sp, #12]
   23426:	6061      	str	r1, [r4, #4]
   23428:	2501      	movs	r5, #1
   2342a:	7025      	strb	r5, [r4, #0]
   2342c:	a819      	add	r0, sp, #100	@ 0x64
   2342e:	f003 fd73 	bl	26f18 <_ZN9allow_pin12full_dynamic17unshare_if_shared17h34fb2a9288def0c2E>
   23432:	a804      	add	r0, sp, #16
   23434:	f003 fd70 	bl	26f18 <_ZN9allow_pin12full_dynamic17unshare_if_shared17h34fb2a9288def0c2E>
   23438:	b027      	add	sp, #156	@ 0x9c
   2343a:	bdf0      	pop	{r4, r5, r6, r7, pc}
   2343c:	a804      	add	r0, sp, #16
   2343e:	f003 fd6b 	bl	26f18 <_ZN9allow_pin12full_dynamic17unshare_if_shared17h34fb2a9288def0c2E>
   23442:	4626      	mov	r6, r4
   23444:	ac19      	add	r4, sp, #100	@ 0x64
   23446:	4620      	mov	r0, r4
   23448:	f003 fd66 	bl	26f18 <_ZN9allow_pin12full_dynamic17unshare_if_shared17h34fb2a9288def0c2E>
   2344c:	4620      	mov	r0, r4
   2344e:	f003 fd63 	bl	26f18 <_ZN9allow_pin12full_dynamic17unshare_if_shared17h34fb2a9288def0c2E>
   23452:	9c03      	ldr	r4, [sp, #12]
   23454:	1c60      	adds	r0, r4, #1
   23456:	2229      	movs	r2, #41	@ 0x29
   23458:	4631      	mov	r1, r6
   2345a:	f003 ff1e 	bl	2729a <__aeabi_memcpy>
   2345e:	e7e4      	b.n	2342a <_ZN20complex_full_dynamic3app17hc2ffe445f50b01f4E+0x76>
   23460:	000026a4 	.word	0x000026a4

00023464 <_ZN20complex_full_dynamic3app17hc6343df2688d91cbE>:
   23464:	b5f0      	push	{r4, r5, r6, r7, lr}
   23466:	af03      	add	r7, sp, #12
   23468:	b09d      	sub	sp, #116	@ 0x74
   2346a:	9002      	str	r0, [sp, #8]
   2346c:	ae03      	add	r6, sp, #12
   2346e:	2002      	movs	r0, #2
   23470:	9001      	str	r0, [sp, #4]
   23472:	7230      	strb	r0, [r6, #8]
   23474:	360c      	adds	r6, #12
   23476:	2218      	movs	r2, #24
   23478:	9200      	str	r2, [sp, #0]
   2347a:	4630      	mov	r0, r6
   2347c:	f003 ff0d 	bl	2729a <__aeabi_memcpy>
   23480:	ad0c      	add	r5, sp, #48	@ 0x30
   23482:	462c      	mov	r4, r5
   23484:	340c      	adds	r4, #12
   23486:	2136      	movs	r1, #54	@ 0x36
   23488:	4620      	mov	r0, r4
   2348a:	f003 fd59 	bl	26f40 <__aeabi_memclr4>
   2348e:	9801      	ldr	r0, [sp, #4]
   23490:	7228      	strb	r0, [r5, #8]
   23492:	20f3      	movs	r0, #243	@ 0xf3
   23494:	2508      	movs	r5, #8
   23496:	9001      	str	r0, [sp, #4]
   23498:	4629      	mov	r1, r5
   2349a:	4632      	mov	r2, r6
   2349c:	9b00      	ldr	r3, [sp, #0]
   2349e:	df04      	svc	4
   234a0:	2802      	cmp	r0, #2
   234a2:	d018      	beq.n	234d6 <_ZN20complex_full_dynamic3app17hc6343df2688d91cbE+0x72>
   234a4:	a803      	add	r0, sp, #12
   234a6:	2604      	movs	r6, #4
   234a8:	7206      	strb	r6, [r0, #8]
   234aa:	9504      	str	r5, [sp, #16]
   234ac:	9801      	ldr	r0, [sp, #4]
   234ae:	9003      	str	r0, [sp, #12]
   234b0:	2336      	movs	r3, #54	@ 0x36
   234b2:	4631      	mov	r1, r6
   234b4:	4622      	mov	r2, r4
   234b6:	df03      	svc	3
   234b8:	2802      	cmp	r0, #2
   234ba:	d00c      	beq.n	234d6 <_ZN20complex_full_dynamic3app17hc6343df2688d91cbE+0x72>
   234bc:	a80c      	add	r0, sp, #48	@ 0x30
   234be:	2103      	movs	r1, #3
   234c0:	7201      	strb	r1, [r0, #8]
   234c2:	960d      	str	r6, [sp, #52]	@ 0x34
   234c4:	9801      	ldr	r0, [sp, #4]
   234c6:	900c      	str	r0, [sp, #48]	@ 0x30
   234c8:	2108      	movs	r1, #8
   234ca:	2300      	movs	r3, #0
   234cc:	4632      	mov	r2, r6
   234ce:	461e      	mov	r6, r3
   234d0:	df02      	svc	2
   234d2:	287f      	cmp	r0, #127	@ 0x7f
   234d4:	d80b      	bhi.n	234ee <_ZN20complex_full_dynamic3app17hc6343df2688d91cbE+0x8a>
   234d6:	9c02      	ldr	r4, [sp, #8]
   234d8:	6061      	str	r1, [r4, #4]
   234da:	2601      	movs	r6, #1
   234dc:	7026      	strb	r6, [r4, #0]
   234de:	a80c      	add	r0, sp, #48	@ 0x30
   234e0:	f003 fd1a 	bl	26f18 <_ZN9allow_pin12full_dynamic17unshare_if_shared17h34fb2a9288def0c2E>
   234e4:	a803      	add	r0, sp, #12
   234e6:	f003 fd17 	bl	26f18 <_ZN9allow_pin12full_dynamic17unshare_if_shared17h34fb2a9288def0c2E>
   234ea:	b01d      	add	sp, #116	@ 0x74
   234ec:	bdf0      	pop	{r4, r5, r6, r7, pc}
   234ee:	4625      	mov	r5, r4
   234f0:	a803      	add	r0, sp, #12
   234f2:	f003 fd11 	bl	26f18 <_ZN9allow_pin12full_dynamic17unshare_if_shared17h34fb2a9288def0c2E>
   234f6:	ac0c      	add	r4, sp, #48	@ 0x30
   234f8:	4620      	mov	r0, r4
   234fa:	f003 fd0d 	bl	26f18 <_ZN9allow_pin12full_dynamic17unshare_if_shared17h34fb2a9288def0c2E>
   234fe:	4620      	mov	r0, r4
   23500:	f003 fd0a 	bl	26f18 <_ZN9allow_pin12full_dynamic17unshare_if_shared17h34fb2a9288def0c2E>
   23504:	9c02      	ldr	r4, [sp, #8]
   23506:	1c60      	adds	r0, r4, #1
   23508:	2236      	movs	r2, #54	@ 0x36
   2350a:	4629      	mov	r1, r5
   2350c:	f003 fec5 	bl	2729a <__aeabi_memcpy>
   23510:	e7e4      	b.n	234dc <_ZN20complex_full_dynamic3app17hc6343df2688d91cbE+0x78>
   23512:	d4d4      	bmi.n	234be <_ZN20complex_full_dynamic3app17hc6343df2688d91cbE+0x5a>

00023514 <_ZN20complex_full_dynamic3app17hc95a4953946f6019E>:
   23514:	b5f0      	push	{r4, r5, r6, r7, lr}
   23516:	af03      	add	r7, sp, #12
   23518:	b0a5      	sub	sp, #148	@ 0x94
   2351a:	9003      	str	r0, [sp, #12]
   2351c:	ac04      	add	r4, sp, #16
   2351e:	2002      	movs	r0, #2
   23520:	9002      	str	r0, [sp, #8]
   23522:	7220      	strb	r0, [r4, #8]
   23524:	340c      	adds	r4, #12
   23526:	2236      	movs	r2, #54	@ 0x36
   23528:	9201      	str	r2, [sp, #4]
   2352a:	4620      	mov	r0, r4
   2352c:	f003 feb5 	bl	2729a <__aeabi_memcpy>
   23530:	ae15      	add	r6, sp, #84	@ 0x54
   23532:	4635      	mov	r5, r6
   23534:	350c      	adds	r5, #12
   23536:	2134      	movs	r1, #52	@ 0x34
   23538:	4628      	mov	r0, r5
   2353a:	f003 fd01 	bl	26f40 <__aeabi_memclr4>
   2353e:	9802      	ldr	r0, [sp, #8]
   23540:	7230      	strb	r0, [r6, #8]
   23542:	481f      	ldr	r0, [pc, #124]	@ (235c0 <_ZN20complex_full_dynamic3app17hc95a4953946f6019E+0xac>)
   23544:	2604      	movs	r6, #4
   23546:	4631      	mov	r1, r6
   23548:	4622      	mov	r2, r4
   2354a:	9b01      	ldr	r3, [sp, #4]
   2354c:	df04      	svc	4
   2354e:	2802      	cmp	r0, #2
   23550:	d019      	beq.n	23586 <_ZN20complex_full_dynamic3app17hc95a4953946f6019E+0x72>
   23552:	a804      	add	r0, sp, #16
   23554:	7206      	strb	r6, [r0, #8]
   23556:	9605      	str	r6, [sp, #20]
   23558:	4e19      	ldr	r6, [pc, #100]	@ (235c0 <_ZN20complex_full_dynamic3app17hc95a4953946f6019E+0xac>)
   2355a:	9604      	str	r6, [sp, #16]
   2355c:	2402      	movs	r4, #2
   2355e:	2334      	movs	r3, #52	@ 0x34
   23560:	4630      	mov	r0, r6
   23562:	4621      	mov	r1, r4
   23564:	462a      	mov	r2, r5
   23566:	df03      	svc	3
   23568:	2802      	cmp	r0, #2
   2356a:	d00c      	beq.n	23586 <_ZN20complex_full_dynamic3app17hc95a4953946f6019E+0x72>
   2356c:	a815      	add	r0, sp, #84	@ 0x54
   2356e:	2103      	movs	r1, #3
   23570:	7201      	strb	r1, [r0, #8]
   23572:	9615      	str	r6, [sp, #84]	@ 0x54
   23574:	9416      	str	r4, [sp, #88]	@ 0x58
   23576:	4812      	ldr	r0, [pc, #72]	@ (235c0 <_ZN20complex_full_dynamic3app17hc95a4953946f6019E+0xac>)
   23578:	2104      	movs	r1, #4
   2357a:	2600      	movs	r6, #0
   2357c:	4622      	mov	r2, r4
   2357e:	4633      	mov	r3, r6
   23580:	df02      	svc	2
   23582:	287f      	cmp	r0, #127	@ 0x7f
   23584:	d80b      	bhi.n	2359e <_ZN20complex_full_dynamic3app17hc95a4953946f6019E+0x8a>
   23586:	9c03      	ldr	r4, [sp, #12]
   23588:	6061      	str	r1, [r4, #4]
   2358a:	2601      	movs	r6, #1
   2358c:	7026      	strb	r6, [r4, #0]
   2358e:	a815      	add	r0, sp, #84	@ 0x54
   23590:	f003 fcc2 	bl	26f18 <_ZN9allow_pin12full_dynamic17unshare_if_shared17h34fb2a9288def0c2E>
   23594:	a804      	add	r0, sp, #16
   23596:	f003 fcbf 	bl	26f18 <_ZN9allow_pin12full_dynamic17unshare_if_shared17h34fb2a9288def0c2E>
   2359a:	b025      	add	sp, #148	@ 0x94
   2359c:	bdf0      	pop	{r4, r5, r6, r7, pc}
   2359e:	a804      	add	r0, sp, #16
   235a0:	f003 fcba 	bl	26f18 <_ZN9allow_pin12full_dynamic17unshare_if_shared17h34fb2a9288def0c2E>
   235a4:	ac15      	add	r4, sp, #84	@ 0x54
   235a6:	4620      	mov	r0, r4
   235a8:	f003 fcb6 	bl	26f18 <_ZN9allow_pin12full_dynamic17unshare_if_shared17h34fb2a9288def0c2E>
   235ac:	4620      	mov	r0, r4
   235ae:	f003 fcb3 	bl	26f18 <_ZN9allow_pin12full_dynamic17unshare_if_shared17h34fb2a9288def0c2E>
   235b2:	9c03      	ldr	r4, [sp, #12]
   235b4:	1c60      	adds	r0, r4, #1
   235b6:	2234      	movs	r2, #52	@ 0x34
   235b8:	4629      	mov	r1, r5
   235ba:	f003 fe6e 	bl	2729a <__aeabi_memcpy>
   235be:	e7e5      	b.n	2358c <_ZN20complex_full_dynamic3app17hc95a4953946f6019E+0x78>
   235c0:	000023c6 	.word	0x000023c6

000235c4 <_ZN20complex_full_dynamic3app17hd1643a609cbdbd4eE>:
   235c4:	b5f0      	push	{r4, r5, r6, r7, lr}
   235c6:	af03      	add	r7, sp, #12
   235c8:	b09f      	sub	sp, #124	@ 0x7c
   235ca:	9001      	str	r0, [sp, #4]
   235cc:	ac02      	add	r4, sp, #8
   235ce:	2602      	movs	r6, #2
   235d0:	7226      	strb	r6, [r4, #8]
   235d2:	340c      	adds	r4, #12
   235d4:	2541      	movs	r5, #65	@ 0x41
   235d6:	4620      	mov	r0, r4
   235d8:	462a      	mov	r2, r5
   235da:	f003 fe5e 	bl	2729a <__aeabi_memcpy>
   235de:	a816      	add	r0, sp, #88	@ 0x58
   235e0:	9000      	str	r0, [sp, #0]
   235e2:	7206      	strb	r6, [r0, #8]
   235e4:	2000      	movs	r0, #0
   235e6:	901e      	str	r0, [sp, #120]	@ 0x78
   235e8:	901d      	str	r0, [sp, #116]	@ 0x74
   235ea:	901c      	str	r0, [sp, #112]	@ 0x70
   235ec:	901b      	str	r0, [sp, #108]	@ 0x6c
   235ee:	901a      	str	r0, [sp, #104]	@ 0x68
   235f0:	9019      	str	r0, [sp, #100]	@ 0x64
   235f2:	4820      	ldr	r0, [pc, #128]	@ (23674 <_ZN20complex_full_dynamic3app17hd1643a609cbdbd4eE+0xb0>)
   235f4:	2601      	movs	r6, #1
   235f6:	4631      	mov	r1, r6
   235f8:	4622      	mov	r2, r4
   235fa:	462b      	mov	r3, r5
   235fc:	df04      	svc	4
   235fe:	2802      	cmp	r0, #2
   23600:	d01b      	beq.n	2363a <_ZN20complex_full_dynamic3app17hd1643a609cbdbd4eE+0x76>
   23602:	9d00      	ldr	r5, [sp, #0]
   23604:	350c      	adds	r5, #12
   23606:	a802      	add	r0, sp, #8
   23608:	2104      	movs	r1, #4
   2360a:	7201      	strb	r1, [r0, #8]
   2360c:	9603      	str	r6, [sp, #12]
   2360e:	4819      	ldr	r0, [pc, #100]	@ (23674 <_ZN20complex_full_dynamic3app17hd1643a609cbdbd4eE+0xb0>)
   23610:	9002      	str	r0, [sp, #8]
   23612:	2409      	movs	r4, #9
   23614:	2318      	movs	r3, #24
   23616:	4621      	mov	r1, r4
   23618:	462a      	mov	r2, r5
   2361a:	df03      	svc	3
   2361c:	2802      	cmp	r0, #2
   2361e:	d00c      	beq.n	2363a <_ZN20complex_full_dynamic3app17hd1643a609cbdbd4eE+0x76>
   23620:	a816      	add	r0, sp, #88	@ 0x58
   23622:	2103      	movs	r1, #3
   23624:	7201      	strb	r1, [r0, #8]
   23626:	4813      	ldr	r0, [pc, #76]	@ (23674 <_ZN20complex_full_dynamic3app17hd1643a609cbdbd4eE+0xb0>)
   23628:	9016      	str	r0, [sp, #88]	@ 0x58
   2362a:	9417      	str	r4, [sp, #92]	@ 0x5c
   2362c:	2101      	movs	r1, #1
   2362e:	2300      	movs	r3, #0
   23630:	4622      	mov	r2, r4
   23632:	9300      	str	r3, [sp, #0]
   23634:	df02      	svc	2
   23636:	287f      	cmp	r0, #127	@ 0x7f
   23638:	d80a      	bhi.n	23650 <_ZN20complex_full_dynamic3app17hd1643a609cbdbd4eE+0x8c>
   2363a:	9c01      	ldr	r4, [sp, #4]
   2363c:	6061      	str	r1, [r4, #4]
   2363e:	7026      	strb	r6, [r4, #0]
   23640:	a816      	add	r0, sp, #88	@ 0x58
   23642:	f003 fc69 	bl	26f18 <_ZN9allow_pin12full_dynamic17unshare_if_shared17h34fb2a9288def0c2E>
   23646:	a802      	add	r0, sp, #8
   23648:	f003 fc66 	bl	26f18 <_ZN9allow_pin12full_dynamic17unshare_if_shared17h34fb2a9288def0c2E>
   2364c:	b01f      	add	sp, #124	@ 0x7c
   2364e:	bdf0      	pop	{r4, r5, r6, r7, pc}
   23650:	a802      	add	r0, sp, #8
   23652:	f003 fc61 	bl	26f18 <_ZN9allow_pin12full_dynamic17unshare_if_shared17h34fb2a9288def0c2E>
   23656:	ac16      	add	r4, sp, #88	@ 0x58
   23658:	4620      	mov	r0, r4
   2365a:	f003 fc5d 	bl	26f18 <_ZN9allow_pin12full_dynamic17unshare_if_shared17h34fb2a9288def0c2E>
   2365e:	4620      	mov	r0, r4
   23660:	f003 fc5a 	bl	26f18 <_ZN9allow_pin12full_dynamic17unshare_if_shared17h34fb2a9288def0c2E>
   23664:	9c01      	ldr	r4, [sp, #4]
   23666:	1c60      	adds	r0, r4, #1
   23668:	2218      	movs	r2, #24
   2366a:	4629      	mov	r1, r5
   2366c:	f003 fe15 	bl	2729a <__aeabi_memcpy>
   23670:	9e00      	ldr	r6, [sp, #0]
   23672:	e7e4      	b.n	2363e <_ZN20complex_full_dynamic3app17hd1643a609cbdbd4eE+0x7a>
   23674:	00002156 	.word	0x00002156

00023678 <_ZN20complex_full_dynamic3app17hd2e4762c9b92bb9eE>:
   23678:	b5f0      	push	{r4, r5, r6, r7, lr}
   2367a:	af03      	add	r7, sp, #12
   2367c:	b0a7      	sub	sp, #156	@ 0x9c
   2367e:	9003      	str	r0, [sp, #12]
   23680:	ae04      	add	r6, sp, #16
   23682:	2002      	movs	r0, #2
   23684:	9002      	str	r0, [sp, #8]
   23686:	7230      	strb	r0, [r6, #8]
   23688:	360c      	adds	r6, #12
   2368a:	223c      	movs	r2, #60	@ 0x3c
   2368c:	9201      	str	r2, [sp, #4]
   2368e:	4630      	mov	r0, r6
   23690:	f003 fe03 	bl	2729a <__aeabi_memcpy>
   23694:	ad16      	add	r5, sp, #88	@ 0x58
   23696:	462c      	mov	r4, r5
   23698:	340c      	adds	r4, #12
   2369a:	2138      	movs	r1, #56	@ 0x38
   2369c:	4620      	mov	r0, r4
   2369e:	f003 fc4f 	bl	26f40 <__aeabi_memclr4>
   236a2:	9802      	ldr	r0, [sp, #8]
   236a4:	7228      	strb	r0, [r5, #8]
   236a6:	481f      	ldr	r0, [pc, #124]	@ (23724 <_ZN20complex_full_dynamic3app17hd2e4762c9b92bb9eE+0xac>)
   236a8:	2503      	movs	r5, #3
   236aa:	4629      	mov	r1, r5
   236ac:	4632      	mov	r2, r6
   236ae:	9b01      	ldr	r3, [sp, #4]
   236b0:	df04      	svc	4
   236b2:	2802      	cmp	r0, #2
   236b4:	d018      	beq.n	236e8 <_ZN20complex_full_dynamic3app17hd2e4762c9b92bb9eE+0x70>
   236b6:	a804      	add	r0, sp, #16
   236b8:	2104      	movs	r1, #4
   236ba:	7201      	strb	r1, [r0, #8]
   236bc:	4e19      	ldr	r6, [pc, #100]	@ (23724 <_ZN20complex_full_dynamic3app17hd2e4762c9b92bb9eE+0xac>)
   236be:	9604      	str	r6, [sp, #16]
   236c0:	9505      	str	r5, [sp, #20]
   236c2:	2338      	movs	r3, #56	@ 0x38
   236c4:	4630      	mov	r0, r6
   236c6:	4629      	mov	r1, r5
   236c8:	4622      	mov	r2, r4
   236ca:	df03      	svc	3
   236cc:	2802      	cmp	r0, #2
   236ce:	d00b      	beq.n	236e8 <_ZN20complex_full_dynamic3app17hd2e4762c9b92bb9eE+0x70>
   236d0:	a816      	add	r0, sp, #88	@ 0x58
   236d2:	7205      	strb	r5, [r0, #8]
   236d4:	9517      	str	r5, [sp, #92]	@ 0x5c
   236d6:	9616      	str	r6, [sp, #88]	@ 0x58
   236d8:	4812      	ldr	r0, [pc, #72]	@ (23724 <_ZN20complex_full_dynamic3app17hd2e4762c9b92bb9eE+0xac>)
   236da:	2600      	movs	r6, #0
   236dc:	4629      	mov	r1, r5
   236de:	462a      	mov	r2, r5
   236e0:	4633      	mov	r3, r6
   236e2:	df02      	svc	2
   236e4:	287f      	cmp	r0, #127	@ 0x7f
   236e6:	d80b      	bhi.n	23700 <_ZN20complex_full_dynamic3app17hd2e4762c9b92bb9eE+0x88>
   236e8:	9c03      	ldr	r4, [sp, #12]
   236ea:	6061      	str	r1, [r4, #4]
   236ec:	2601      	movs	r6, #1
   236ee:	7026      	strb	r6, [r4, #0]
   236f0:	a816      	add	r0, sp, #88	@ 0x58
   236f2:	f003 fc11 	bl	26f18 <_ZN9allow_pin12full_dynamic17unshare_if_shared17h34fb2a9288def0c2E>
   236f6:	a804      	add	r0, sp, #16
   236f8:	f003 fc0e 	bl	26f18 <_ZN9allow_pin12full_dynamic17unshare_if_shared17h34fb2a9288def0c2E>
   236fc:	b027      	add	sp, #156	@ 0x9c
   236fe:	bdf0      	pop	{r4, r5, r6, r7, pc}
   23700:	a804      	add	r0, sp, #16
   23702:	f003 fc09 	bl	26f18 <_ZN9allow_pin12full_dynamic17unshare_if_shared17h34fb2a9288def0c2E>
   23706:	4625      	mov	r5, r4
   23708:	ac16      	add	r4, sp, #88	@ 0x58
   2370a:	4620      	mov	r0, r4
   2370c:	f003 fc04 	bl	26f18 <_ZN9allow_pin12full_dynamic17unshare_if_shared17h34fb2a9288def0c2E>
   23710:	4620      	mov	r0, r4
   23712:	f003 fc01 	bl	26f18 <_ZN9allow_pin12full_dynamic17unshare_if_shared17h34fb2a9288def0c2E>
   23716:	9c03      	ldr	r4, [sp, #12]
   23718:	1c60      	adds	r0, r4, #1
   2371a:	2238      	movs	r2, #56	@ 0x38
   2371c:	4629      	mov	r1, r5
   2371e:	f003 fdbc 	bl	2729a <__aeabi_memcpy>
   23722:	e7e4      	b.n	236ee <_ZN20complex_full_dynamic3app17hd2e4762c9b92bb9eE+0x76>
   23724:	00001d19 	.word	0x00001d19

00023728 <_ZN20complex_full_dynamic3app17hd5eaa8b11431e1daE>:
   23728:	b5f0      	push	{r4, r5, r6, r7, lr}
   2372a:	af03      	add	r7, sp, #12
   2372c:	b09f      	sub	sp, #124	@ 0x7c
   2372e:	9003      	str	r0, [sp, #12]
   23730:	ae04      	add	r6, sp, #16
   23732:	2002      	movs	r0, #2
   23734:	9002      	str	r0, [sp, #8]
   23736:	7230      	strb	r0, [r6, #8]
   23738:	360c      	adds	r6, #12
   2373a:	222c      	movs	r2, #44	@ 0x2c
   2373c:	9201      	str	r2, [sp, #4]
   2373e:	4630      	mov	r0, r6
   23740:	f003 fdab 	bl	2729a <__aeabi_memcpy>
   23744:	ad12      	add	r5, sp, #72	@ 0x48
   23746:	462c      	mov	r4, r5
   23748:	340c      	adds	r4, #12
   2374a:	2125      	movs	r1, #37	@ 0x25
   2374c:	4620      	mov	r0, r4
   2374e:	f003 fbf7 	bl	26f40 <__aeabi_memclr4>
   23752:	9802      	ldr	r0, [sp, #8]
   23754:	7228      	strb	r0, [r5, #8]
   23756:	481f      	ldr	r0, [pc, #124]	@ (237d4 <_ZN20complex_full_dynamic3app17hd5eaa8b11431e1daE+0xac>)
   23758:	2503      	movs	r5, #3
   2375a:	4629      	mov	r1, r5
   2375c:	4632      	mov	r2, r6
   2375e:	9b01      	ldr	r3, [sp, #4]
   23760:	df04      	svc	4
   23762:	2802      	cmp	r0, #2
   23764:	d017      	beq.n	23796 <_ZN20complex_full_dynamic3app17hd5eaa8b11431e1daE+0x6e>
   23766:	a804      	add	r0, sp, #16
   23768:	2104      	movs	r1, #4
   2376a:	7201      	strb	r1, [r0, #8]
   2376c:	9505      	str	r5, [sp, #20]
   2376e:	4819      	ldr	r0, [pc, #100]	@ (237d4 <_ZN20complex_full_dynamic3app17hd5eaa8b11431e1daE+0xac>)
   23770:	9004      	str	r0, [sp, #16]
   23772:	2600      	movs	r6, #0
   23774:	2325      	movs	r3, #37	@ 0x25
   23776:	4631      	mov	r1, r6
   23778:	4622      	mov	r2, r4
   2377a:	df03      	svc	3
   2377c:	2802      	cmp	r0, #2
   2377e:	d00a      	beq.n	23796 <_ZN20complex_full_dynamic3app17hd5eaa8b11431e1daE+0x6e>
   23780:	a812      	add	r0, sp, #72	@ 0x48
   23782:	7205      	strb	r5, [r0, #8]
   23784:	4813      	ldr	r0, [pc, #76]	@ (237d4 <_ZN20complex_full_dynamic3app17hd5eaa8b11431e1daE+0xac>)
   23786:	9012      	str	r0, [sp, #72]	@ 0x48
   23788:	9613      	str	r6, [sp, #76]	@ 0x4c
   2378a:	4629      	mov	r1, r5
   2378c:	4632      	mov	r2, r6
   2378e:	4633      	mov	r3, r6
   23790:	df02      	svc	2
   23792:	287f      	cmp	r0, #127	@ 0x7f
   23794:	d80b      	bhi.n	237ae <_ZN20complex_full_dynamic3app17hd5eaa8b11431e1daE+0x86>
   23796:	9c03      	ldr	r4, [sp, #12]
   23798:	6061      	str	r1, [r4, #4]
   2379a:	2601      	movs	r6, #1
   2379c:	7026      	strb	r6, [r4, #0]
   2379e:	a812      	add	r0, sp, #72	@ 0x48
   237a0:	f003 fbba 	bl	26f18 <_ZN9allow_pin12full_dynamic17unshare_if_shared17h34fb2a9288def0c2E>
   237a4:	a804      	add	r0, sp, #16
   237a6:	f003 fbb7 	bl	26f18 <_ZN9allow_pin12full_dynamic17unshare_if_shared17h34fb2a9288def0c2E>
   237aa:	b01f      	add	sp, #124	@ 0x7c
   237ac:	bdf0      	pop	{r4, r5, r6, r7, pc}
   237ae:	a804      	add	r0, sp, #16
   237b0:	f003 fbb2 	bl	26f18 <_ZN9allow_pin12full_dynamic17unshare_if_shared17h34fb2a9288def0c2E>
   237b4:	4625      	mov	r5, r4
   237b6:	ac12      	add	r4, sp, #72	@ 0x48
   237b8:	4620      	mov	r0, r4
   237ba:	f003 fbad 	bl	26f18 <_ZN9allow_pin12full_dynamic17unshare_if_shared17h34fb2a9288def0c2E>
   237be:	4620      	mov	r0, r4
   237c0:	f003 fbaa 	bl	26f18 <_ZN9allow_pin12full_dynamic17unshare_if_shared17h34fb2a9288def0c2E>
   237c4:	9c03      	ldr	r4, [sp, #12]
   237c6:	1c60      	adds	r0, r4, #1
   237c8:	2225      	movs	r2, #37	@ 0x25
   237ca:	4629      	mov	r1, r5
   237cc:	f003 fd65 	bl	2729a <__aeabi_memcpy>
   237d0:	e7e4      	b.n	2379c <_ZN20complex_full_dynamic3app17hd5eaa8b11431e1daE+0x74>
   237d2:	46c0      	nop			@ (mov r8, r8)
   237d4:	0000077f 	.word	0x0000077f

000237d8 <_ZN20complex_full_dynamic3app17hdbd1ba89f5e390deE>:
   237d8:	b5f0      	push	{r4, r5, r6, r7, lr}
   237da:	af03      	add	r7, sp, #12
   237dc:	b0a7      	sub	sp, #156	@ 0x9c
   237de:	9002      	str	r0, [sp, #8]
   237e0:	ac03      	add	r4, sp, #12
   237e2:	2002      	movs	r0, #2
   237e4:	9001      	str	r0, [sp, #4]
   237e6:	7220      	strb	r0, [r4, #8]
   237e8:	340c      	adds	r4, #12
   237ea:	2235      	movs	r2, #53	@ 0x35
   237ec:	9200      	str	r2, [sp, #0]
   237ee:	4620      	mov	r0, r4
   237f0:	f003 fd53 	bl	2729a <__aeabi_memcpy>
   237f4:	ae14      	add	r6, sp, #80	@ 0x50
   237f6:	4635      	mov	r5, r6
   237f8:	350c      	adds	r5, #12
   237fa:	213f      	movs	r1, #63	@ 0x3f
   237fc:	4628      	mov	r0, r5
   237fe:	f003 fb9f 	bl	26f40 <__aeabi_memclr4>
   23802:	9801      	ldr	r0, [sp, #4]
   23804:	7230      	strb	r0, [r6, #8]
   23806:	481f      	ldr	r0, [pc, #124]	@ (23884 <_ZN20complex_full_dynamic3app17hdbd1ba89f5e390deE+0xac>)
   23808:	2600      	movs	r6, #0
   2380a:	4631      	mov	r1, r6
   2380c:	4622      	mov	r2, r4
   2380e:	9b00      	ldr	r3, [sp, #0]
   23810:	df04      	svc	4
   23812:	2802      	cmp	r0, #2
   23814:	d019      	beq.n	2384a <_ZN20complex_full_dynamic3app17hdbd1ba89f5e390deE+0x72>
   23816:	a803      	add	r0, sp, #12
   23818:	2104      	movs	r1, #4
   2381a:	7201      	strb	r1, [r0, #8]
   2381c:	9604      	str	r6, [sp, #16]
   2381e:	4e19      	ldr	r6, [pc, #100]	@ (23884 <_ZN20complex_full_dynamic3app17hdbd1ba89f5e390deE+0xac>)
   23820:	9603      	str	r6, [sp, #12]
   23822:	2403      	movs	r4, #3
   23824:	233f      	movs	r3, #63	@ 0x3f
   23826:	4630      	mov	r0, r6
   23828:	4621      	mov	r1, r4
   2382a:	462a      	mov	r2, r5
   2382c:	df03      	svc	3
   2382e:	2802      	cmp	r0, #2
   23830:	d00b      	beq.n	2384a <_ZN20complex_full_dynamic3app17hdbd1ba89f5e390deE+0x72>
   23832:	a814      	add	r0, sp, #80	@ 0x50
   23834:	7204      	strb	r4, [r0, #8]
   23836:	9415      	str	r4, [sp, #84]	@ 0x54
   23838:	9614      	str	r6, [sp, #80]	@ 0x50
   2383a:	4812      	ldr	r0, [pc, #72]	@ (23884 <_ZN20complex_full_dynamic3app17hdbd1ba89f5e390deE+0xac>)
   2383c:	2600      	movs	r6, #0
   2383e:	4631      	mov	r1, r6
   23840:	4622      	mov	r2, r4
   23842:	4633      	mov	r3, r6
   23844:	df02      	svc	2
   23846:	287f      	cmp	r0, #127	@ 0x7f
   23848:	d80b      	bhi.n	23862 <_ZN20complex_full_dynamic3app17hdbd1ba89f5e390deE+0x8a>
   2384a:	9c02      	ldr	r4, [sp, #8]
   2384c:	6061      	str	r1, [r4, #4]
   2384e:	2601      	movs	r6, #1
   23850:	7026      	strb	r6, [r4, #0]
   23852:	a814      	add	r0, sp, #80	@ 0x50
   23854:	f003 fb60 	bl	26f18 <_ZN9allow_pin12full_dynamic17unshare_if_shared17h34fb2a9288def0c2E>
   23858:	a803      	add	r0, sp, #12
   2385a:	f003 fb5d 	bl	26f18 <_ZN9allow_pin12full_dynamic17unshare_if_shared17h34fb2a9288def0c2E>
   2385e:	b027      	add	sp, #156	@ 0x9c
   23860:	bdf0      	pop	{r4, r5, r6, r7, pc}
   23862:	a803      	add	r0, sp, #12
   23864:	f003 fb58 	bl	26f18 <_ZN9allow_pin12full_dynamic17unshare_if_shared17h34fb2a9288def0c2E>
   23868:	ac14      	add	r4, sp, #80	@ 0x50
   2386a:	4620      	mov	r0, r4
   2386c:	f003 fb54 	bl	26f18 <_ZN9allow_pin12full_dynamic17unshare_if_shared17h34fb2a9288def0c2E>
   23870:	4620      	mov	r0, r4
   23872:	f003 fb51 	bl	26f18 <_ZN9allow_pin12full_dynamic17unshare_if_shared17h34fb2a9288def0c2E>
   23876:	9c02      	ldr	r4, [sp, #8]
   23878:	1c60      	adds	r0, r4, #1
   2387a:	223f      	movs	r2, #63	@ 0x3f
   2387c:	4629      	mov	r1, r5
   2387e:	f003 fd0c 	bl	2729a <__aeabi_memcpy>
   23882:	e7e5      	b.n	23850 <_ZN20complex_full_dynamic3app17hdbd1ba89f5e390deE+0x78>
   23884:	00000e57 	.word	0x00000e57

00023888 <_ZN20complex_full_dynamic3app17hde41d891777e0de0E>:
   23888:	b5f0      	push	{r4, r5, r6, r7, lr}
   2388a:	af03      	add	r7, sp, #12
   2388c:	b0b3      	sub	sp, #204	@ 0xcc
   2388e:	9002      	str	r0, [sp, #8]
   23890:	ac03      	add	r4, sp, #12
   23892:	2002      	movs	r0, #2
   23894:	9001      	str	r0, [sp, #4]
   23896:	7220      	strb	r0, [r4, #8]
   23898:	340c      	adds	r4, #12
   2389a:	2259      	movs	r2, #89	@ 0x59
   2389c:	9200      	str	r2, [sp, #0]
   2389e:	4620      	mov	r0, r4
   238a0:	f003 fcfb 	bl	2729a <__aeabi_memcpy>
   238a4:	ae1d      	add	r6, sp, #116	@ 0x74
   238a6:	4635      	mov	r5, r6
   238a8:	350c      	adds	r5, #12
   238aa:	214a      	movs	r1, #74	@ 0x4a
   238ac:	4628      	mov	r0, r5
   238ae:	f003 fb47 	bl	26f40 <__aeabi_memclr4>
   238b2:	9801      	ldr	r0, [sp, #4]
   238b4:	7230      	strb	r0, [r6, #8]
   238b6:	481f      	ldr	r0, [pc, #124]	@ (23934 <_ZN20complex_full_dynamic3app17hde41d891777e0de0E+0xac>)
   238b8:	2600      	movs	r6, #0
   238ba:	4631      	mov	r1, r6
   238bc:	4622      	mov	r2, r4
   238be:	9b00      	ldr	r3, [sp, #0]
   238c0:	df04      	svc	4
   238c2:	2802      	cmp	r0, #2
   238c4:	d019      	beq.n	238fa <_ZN20complex_full_dynamic3app17hde41d891777e0de0E+0x72>
   238c6:	a803      	add	r0, sp, #12
   238c8:	2404      	movs	r4, #4
   238ca:	7204      	strb	r4, [r0, #8]
   238cc:	9604      	str	r6, [sp, #16]
   238ce:	4e19      	ldr	r6, [pc, #100]	@ (23934 <_ZN20complex_full_dynamic3app17hde41d891777e0de0E+0xac>)
   238d0:	9603      	str	r6, [sp, #12]
   238d2:	234a      	movs	r3, #74	@ 0x4a
   238d4:	4630      	mov	r0, r6
   238d6:	4621      	mov	r1, r4
   238d8:	462a      	mov	r2, r5
   238da:	df03      	svc	3
   238dc:	2802      	cmp	r0, #2
   238de:	d00c      	beq.n	238fa <_ZN20complex_full_dynamic3app17hde41d891777e0de0E+0x72>
   238e0:	a81d      	add	r0, sp, #116	@ 0x74
   238e2:	2103      	movs	r1, #3
   238e4:	7201      	strb	r1, [r0, #8]
   238e6:	961d      	str	r6, [sp, #116]	@ 0x74
   238e8:	941e      	str	r4, [sp, #120]	@ 0x78
   238ea:	4812      	ldr	r0, [pc, #72]	@ (23934 <_ZN20complex_full_dynamic3app17hde41d891777e0de0E+0xac>)
   238ec:	2600      	movs	r6, #0
   238ee:	4631      	mov	r1, r6
   238f0:	4622      	mov	r2, r4
   238f2:	4633      	mov	r3, r6
   238f4:	df02      	svc	2
   238f6:	287f      	cmp	r0, #127	@ 0x7f
   238f8:	d80b      	bhi.n	23912 <_ZN20complex_full_dynamic3app17hde41d891777e0de0E+0x8a>
   238fa:	9c02      	ldr	r4, [sp, #8]
   238fc:	6061      	str	r1, [r4, #4]
   238fe:	2601      	movs	r6, #1
   23900:	7026      	strb	r6, [r4, #0]
   23902:	a81d      	add	r0, sp, #116	@ 0x74
   23904:	f003 fb08 	bl	26f18 <_ZN9allow_pin12full_dynamic17unshare_if_shared17h34fb2a9288def0c2E>
   23908:	a803      	add	r0, sp, #12
   2390a:	f003 fb05 	bl	26f18 <_ZN9allow_pin12full_dynamic17unshare_if_shared17h34fb2a9288def0c2E>
   2390e:	b033      	add	sp, #204	@ 0xcc
   23910:	bdf0      	pop	{r4, r5, r6, r7, pc}
   23912:	a803      	add	r0, sp, #12
   23914:	f003 fb00 	bl	26f18 <_ZN9allow_pin12full_dynamic17unshare_if_shared17h34fb2a9288def0c2E>
   23918:	ac1d      	add	r4, sp, #116	@ 0x74
   2391a:	4620      	mov	r0, r4
   2391c:	f003 fafc 	bl	26f18 <_ZN9allow_pin12full_dynamic17unshare_if_shared17h34fb2a9288def0c2E>
   23920:	4620      	mov	r0, r4
   23922:	f003 faf9 	bl	26f18 <_ZN9allow_pin12full_dynamic17unshare_if_shared17h34fb2a9288def0c2E>
   23926:	9c02      	ldr	r4, [sp, #8]
   23928:	1c60      	adds	r0, r4, #1
   2392a:	224a      	movs	r2, #74	@ 0x4a
   2392c:	4629      	mov	r1, r5
   2392e:	f003 fcb4 	bl	2729a <__aeabi_memcpy>
   23932:	e7e5      	b.n	23900 <_ZN20complex_full_dynamic3app17hde41d891777e0de0E+0x78>
   23934:	00001484 	.word	0x00001484

00023938 <_ZN20complex_full_dynamic3app17hdf5ca4489d94592cE>:
   23938:	b5f0      	push	{r4, r5, r6, r7, lr}
   2393a:	af03      	add	r7, sp, #12
   2393c:	b0ab      	sub	sp, #172	@ 0xac
   2393e:	9002      	str	r0, [sp, #8]
   23940:	ac03      	add	r4, sp, #12
   23942:	2002      	movs	r0, #2
   23944:	9001      	str	r0, [sp, #4]
   23946:	7220      	strb	r0, [r4, #8]
   23948:	340c      	adds	r4, #12
   2394a:	224f      	movs	r2, #79	@ 0x4f
   2394c:	9200      	str	r2, [sp, #0]
   2394e:	4620      	mov	r0, r4
   23950:	f003 fca3 	bl	2729a <__aeabi_memcpy>
   23954:	ae1a      	add	r6, sp, #104	@ 0x68
   23956:	4635      	mov	r5, r6
   23958:	350c      	adds	r5, #12
   2395a:	2135      	movs	r1, #53	@ 0x35
   2395c:	4628      	mov	r0, r5
   2395e:	f003 faef 	bl	26f40 <__aeabi_memclr4>
   23962:	9801      	ldr	r0, [sp, #4]
   23964:	7230      	strb	r0, [r6, #8]
   23966:	4820      	ldr	r0, [pc, #128]	@ (239e8 <_ZN20complex_full_dynamic3app17hdf5ca4489d94592cE+0xb0>)
   23968:	2607      	movs	r6, #7
   2396a:	4631      	mov	r1, r6
   2396c:	4622      	mov	r2, r4
   2396e:	9b00      	ldr	r3, [sp, #0]
   23970:	df04      	svc	4
   23972:	2802      	cmp	r0, #2
   23974:	d01a      	beq.n	239ac <_ZN20complex_full_dynamic3app17hdf5ca4489d94592cE+0x74>
   23976:	a803      	add	r0, sp, #12
   23978:	2104      	movs	r1, #4
   2397a:	7201      	strb	r1, [r0, #8]
   2397c:	9604      	str	r6, [sp, #16]
   2397e:	4e1a      	ldr	r6, [pc, #104]	@ (239e8 <_ZN20complex_full_dynamic3app17hdf5ca4489d94592cE+0xb0>)
   23980:	9603      	str	r6, [sp, #12]
   23982:	2401      	movs	r4, #1
   23984:	2335      	movs	r3, #53	@ 0x35
   23986:	4630      	mov	r0, r6
   23988:	4621      	mov	r1, r4
   2398a:	462a      	mov	r2, r5
   2398c:	df03      	svc	3
   2398e:	2802      	cmp	r0, #2
   23990:	d00c      	beq.n	239ac <_ZN20complex_full_dynamic3app17hdf5ca4489d94592cE+0x74>
   23992:	a81a      	add	r0, sp, #104	@ 0x68
   23994:	2103      	movs	r1, #3
   23996:	7201      	strb	r1, [r0, #8]
   23998:	961a      	str	r6, [sp, #104]	@ 0x68
   2399a:	941b      	str	r4, [sp, #108]	@ 0x6c
   2399c:	4812      	ldr	r0, [pc, #72]	@ (239e8 <_ZN20complex_full_dynamic3app17hdf5ca4489d94592cE+0xb0>)
   2399e:	2107      	movs	r1, #7
   239a0:	2600      	movs	r6, #0
   239a2:	4622      	mov	r2, r4
   239a4:	4633      	mov	r3, r6
   239a6:	df02      	svc	2
   239a8:	287f      	cmp	r0, #127	@ 0x7f
   239aa:	d80b      	bhi.n	239c4 <_ZN20complex_full_dynamic3app17hdf5ca4489d94592cE+0x8c>
   239ac:	9c02      	ldr	r4, [sp, #8]
   239ae:	6061      	str	r1, [r4, #4]
   239b0:	2601      	movs	r6, #1
   239b2:	7026      	strb	r6, [r4, #0]
   239b4:	a81a      	add	r0, sp, #104	@ 0x68
   239b6:	f003 faaf 	bl	26f18 <_ZN9allow_pin12full_dynamic17unshare_if_shared17h34fb2a9288def0c2E>
   239ba:	a803      	add	r0, sp, #12
   239bc:	f003 faac 	bl	26f18 <_ZN9allow_pin12full_dynamic17unshare_if_shared17h34fb2a9288def0c2E>
   239c0:	b02b      	add	sp, #172	@ 0xac
   239c2:	bdf0      	pop	{r4, r5, r6, r7, pc}
   239c4:	a803      	add	r0, sp, #12
   239c6:	f003 faa7 	bl	26f18 <_ZN9allow_pin12full_dynamic17unshare_if_shared17h34fb2a9288def0c2E>
   239ca:	ac1a      	add	r4, sp, #104	@ 0x68
   239cc:	4620      	mov	r0, r4
   239ce:	f003 faa3 	bl	26f18 <_ZN9allow_pin12full_dynamic17unshare_if_shared17h34fb2a9288def0c2E>
   239d2:	4620      	mov	r0, r4
   239d4:	f003 faa0 	bl	26f18 <_ZN9allow_pin12full_dynamic17unshare_if_shared17h34fb2a9288def0c2E>
   239d8:	9c02      	ldr	r4, [sp, #8]
   239da:	1c60      	adds	r0, r4, #1
   239dc:	2235      	movs	r2, #53	@ 0x35
   239de:	4629      	mov	r1, r5
   239e0:	f003 fc5b 	bl	2729a <__aeabi_memcpy>
   239e4:	e7e5      	b.n	239b2 <_ZN20complex_full_dynamic3app17hdf5ca4489d94592cE+0x7a>
   239e6:	46c0      	nop			@ (mov r8, r8)
   239e8:	000016d7 	.word	0x000016d7

000239ec <_ZN20complex_full_dynamic3app17he108823a1b5e9d88E>:
   239ec:	b5f0      	push	{r4, r5, r6, r7, lr}
   239ee:	af03      	add	r7, sp, #12
   239f0:	b0ad      	sub	sp, #180	@ 0xb4
   239f2:	9002      	str	r0, [sp, #8]
   239f4:	ae03      	add	r6, sp, #12
   239f6:	2002      	movs	r0, #2
   239f8:	9001      	str	r0, [sp, #4]
   239fa:	7230      	strb	r0, [r6, #8]
   239fc:	360c      	adds	r6, #12
   239fe:	222a      	movs	r2, #42	@ 0x2a
   23a00:	9200      	str	r2, [sp, #0]
   23a02:	4630      	mov	r0, r6
   23a04:	f003 fc49 	bl	2729a <__aeabi_memcpy>
   23a08:	ac11      	add	r4, sp, #68	@ 0x44
   23a0a:	4625      	mov	r5, r4
   23a0c:	350c      	adds	r5, #12
   23a0e:	2163      	movs	r1, #99	@ 0x63
   23a10:	4628      	mov	r0, r5
   23a12:	f003 fa95 	bl	26f40 <__aeabi_memclr4>
   23a16:	9801      	ldr	r0, [sp, #4]
   23a18:	7220      	strb	r0, [r4, #8]
   23a1a:	481f      	ldr	r0, [pc, #124]	@ (23a98 <_ZN20complex_full_dynamic3app17he108823a1b5e9d88E+0xac>)
   23a1c:	2404      	movs	r4, #4
   23a1e:	4621      	mov	r1, r4
   23a20:	4632      	mov	r2, r6
   23a22:	9b00      	ldr	r3, [sp, #0]
   23a24:	df04      	svc	4
   23a26:	2802      	cmp	r0, #2
   23a28:	d018      	beq.n	23a5c <_ZN20complex_full_dynamic3app17he108823a1b5e9d88E+0x70>
   23a2a:	a803      	add	r0, sp, #12
   23a2c:	7204      	strb	r4, [r0, #8]
   23a2e:	9404      	str	r4, [sp, #16]
   23a30:	4c19      	ldr	r4, [pc, #100]	@ (23a98 <_ZN20complex_full_dynamic3app17he108823a1b5e9d88E+0xac>)
   23a32:	9403      	str	r4, [sp, #12]
   23a34:	2600      	movs	r6, #0
   23a36:	2363      	movs	r3, #99	@ 0x63
   23a38:	4620      	mov	r0, r4
   23a3a:	4631      	mov	r1, r6
   23a3c:	462a      	mov	r2, r5
   23a3e:	df03      	svc	3
   23a40:	2802      	cmp	r0, #2
   23a42:	d00b      	beq.n	23a5c <_ZN20complex_full_dynamic3app17he108823a1b5e9d88E+0x70>
   23a44:	a811      	add	r0, sp, #68	@ 0x44
   23a46:	2103      	movs	r1, #3
   23a48:	7201      	strb	r1, [r0, #8]
   23a4a:	9411      	str	r4, [sp, #68]	@ 0x44
   23a4c:	9612      	str	r6, [sp, #72]	@ 0x48
   23a4e:	4812      	ldr	r0, [pc, #72]	@ (23a98 <_ZN20complex_full_dynamic3app17he108823a1b5e9d88E+0xac>)
   23a50:	2104      	movs	r1, #4
   23a52:	4632      	mov	r2, r6
   23a54:	4633      	mov	r3, r6
   23a56:	df02      	svc	2
   23a58:	287f      	cmp	r0, #127	@ 0x7f
   23a5a:	d80b      	bhi.n	23a74 <_ZN20complex_full_dynamic3app17he108823a1b5e9d88E+0x88>
   23a5c:	9c02      	ldr	r4, [sp, #8]
   23a5e:	6061      	str	r1, [r4, #4]
   23a60:	2601      	movs	r6, #1
   23a62:	7026      	strb	r6, [r4, #0]
   23a64:	a811      	add	r0, sp, #68	@ 0x44
   23a66:	f003 fa57 	bl	26f18 <_ZN9allow_pin12full_dynamic17unshare_if_shared17h34fb2a9288def0c2E>
   23a6a:	a803      	add	r0, sp, #12
   23a6c:	f003 fa54 	bl	26f18 <_ZN9allow_pin12full_dynamic17unshare_if_shared17h34fb2a9288def0c2E>
   23a70:	b02d      	add	sp, #180	@ 0xb4
   23a72:	bdf0      	pop	{r4, r5, r6, r7, pc}
   23a74:	a803      	add	r0, sp, #12
   23a76:	f003 fa4f 	bl	26f18 <_ZN9allow_pin12full_dynamic17unshare_if_shared17h34fb2a9288def0c2E>
   23a7a:	ac11      	add	r4, sp, #68	@ 0x44
   23a7c:	4620      	mov	r0, r4
   23a7e:	f003 fa4b 	bl	26f18 <_ZN9allow_pin12full_dynamic17unshare_if_shared17h34fb2a9288def0c2E>
   23a82:	4620      	mov	r0, r4
   23a84:	f003 fa48 	bl	26f18 <_ZN9allow_pin12full_dynamic17unshare_if_shared17h34fb2a9288def0c2E>
   23a88:	9c02      	ldr	r4, [sp, #8]
   23a8a:	1c60      	adds	r0, r4, #1
   23a8c:	2263      	movs	r2, #99	@ 0x63
   23a8e:	4629      	mov	r1, r5
   23a90:	f003 fc03 	bl	2729a <__aeabi_memcpy>
   23a94:	e7e5      	b.n	23a62 <_ZN20complex_full_dynamic3app17he108823a1b5e9d88E+0x76>
   23a96:	46c0      	nop			@ (mov r8, r8)
   23a98:	00001c7c 	.word	0x00001c7c

00023a9c <_ZN20complex_full_dynamic3app17he39496730f9c46afE>:
   23a9c:	b5f0      	push	{r4, r5, r6, r7, lr}
   23a9e:	af03      	add	r7, sp, #12
   23aa0:	b097      	sub	sp, #92	@ 0x5c
   23aa2:	9002      	str	r0, [sp, #8]
   23aa4:	ae03      	add	r6, sp, #12
   23aa6:	2002      	movs	r0, #2
   23aa8:	9001      	str	r0, [sp, #4]
   23aaa:	7230      	strb	r0, [r6, #8]
   23aac:	360c      	adds	r6, #12
   23aae:	220f      	movs	r2, #15
   23ab0:	9200      	str	r2, [sp, #0]
   23ab2:	4630      	mov	r0, r6
   23ab4:	f003 fbf1 	bl	2729a <__aeabi_memcpy>
   23ab8:	ad0a      	add	r5, sp, #40	@ 0x28
   23aba:	462c      	mov	r4, r5
   23abc:	340c      	adds	r4, #12
   23abe:	2125      	movs	r1, #37	@ 0x25
   23ac0:	4620      	mov	r0, r4
   23ac2:	f003 fa3d 	bl	26f40 <__aeabi_memclr4>
   23ac6:	9801      	ldr	r0, [sp, #4]
   23ac8:	7228      	strb	r0, [r5, #8]
   23aca:	20a2      	movs	r0, #162	@ 0xa2
   23acc:	2508      	movs	r5, #8
   23ace:	9001      	str	r0, [sp, #4]
   23ad0:	4629      	mov	r1, r5
   23ad2:	4632      	mov	r2, r6
   23ad4:	9b00      	ldr	r3, [sp, #0]
   23ad6:	df04      	svc	4
   23ad8:	2802      	cmp	r0, #2
   23ada:	d018      	beq.n	23b0e <_ZN20complex_full_dynamic3app17he39496730f9c46afE+0x72>
   23adc:	a803      	add	r0, sp, #12
   23ade:	2104      	movs	r1, #4
   23ae0:	7201      	strb	r1, [r0, #8]
   23ae2:	9504      	str	r5, [sp, #16]
   23ae4:	9801      	ldr	r0, [sp, #4]
   23ae6:	9003      	str	r0, [sp, #12]
   23ae8:	2600      	movs	r6, #0
   23aea:	2325      	movs	r3, #37	@ 0x25
   23aec:	4631      	mov	r1, r6
   23aee:	4622      	mov	r2, r4
   23af0:	df03      	svc	3
   23af2:	2802      	cmp	r0, #2
   23af4:	d00b      	beq.n	23b0e <_ZN20complex_full_dynamic3app17he39496730f9c46afE+0x72>
   23af6:	a80a      	add	r0, sp, #40	@ 0x28
   23af8:	2103      	movs	r1, #3
   23afa:	7201      	strb	r1, [r0, #8]
   23afc:	960b      	str	r6, [sp, #44]	@ 0x2c
   23afe:	9801      	ldr	r0, [sp, #4]
   23b00:	900a      	str	r0, [sp, #40]	@ 0x28
   23b02:	2108      	movs	r1, #8
   23b04:	4632      	mov	r2, r6
   23b06:	4633      	mov	r3, r6
   23b08:	df02      	svc	2
   23b0a:	287f      	cmp	r0, #127	@ 0x7f
   23b0c:	d80b      	bhi.n	23b26 <_ZN20complex_full_dynamic3app17he39496730f9c46afE+0x8a>
   23b0e:	9c02      	ldr	r4, [sp, #8]
   23b10:	6061      	str	r1, [r4, #4]
   23b12:	2601      	movs	r6, #1
   23b14:	7026      	strb	r6, [r4, #0]
   23b16:	a80a      	add	r0, sp, #40	@ 0x28
   23b18:	f003 f9fe 	bl	26f18 <_ZN9allow_pin12full_dynamic17unshare_if_shared17h34fb2a9288def0c2E>
   23b1c:	a803      	add	r0, sp, #12
   23b1e:	f003 f9fb 	bl	26f18 <_ZN9allow_pin12full_dynamic17unshare_if_shared17h34fb2a9288def0c2E>
   23b22:	b017      	add	sp, #92	@ 0x5c
   23b24:	bdf0      	pop	{r4, r5, r6, r7, pc}
   23b26:	4625      	mov	r5, r4
   23b28:	a803      	add	r0, sp, #12
   23b2a:	f003 f9f5 	bl	26f18 <_ZN9allow_pin12full_dynamic17unshare_if_shared17h34fb2a9288def0c2E>
   23b2e:	ac0a      	add	r4, sp, #40	@ 0x28
   23b30:	4620      	mov	r0, r4
   23b32:	f003 f9f1 	bl	26f18 <_ZN9allow_pin12full_dynamic17unshare_if_shared17h34fb2a9288def0c2E>
   23b36:	4620      	mov	r0, r4
   23b38:	f003 f9ee 	bl	26f18 <_ZN9allow_pin12full_dynamic17unshare_if_shared17h34fb2a9288def0c2E>
   23b3c:	9c02      	ldr	r4, [sp, #8]
   23b3e:	1c60      	adds	r0, r4, #1
   23b40:	2225      	movs	r2, #37	@ 0x25
   23b42:	4629      	mov	r1, r5
   23b44:	f003 fba9 	bl	2729a <__aeabi_memcpy>
   23b48:	e7e4      	b.n	23b14 <_ZN20complex_full_dynamic3app17he39496730f9c46afE+0x78>

00023b4a <_ZN20complex_full_dynamic3app17he49536e90ee2143aE>:
   23b4a:	b5f0      	push	{r4, r5, r6, r7, lr}
   23b4c:	af03      	add	r7, sp, #12
   23b4e:	b0ad      	sub	sp, #180	@ 0xb4
   23b50:	9002      	str	r0, [sp, #8]
   23b52:	ae03      	add	r6, sp, #12
   23b54:	2002      	movs	r0, #2
   23b56:	9001      	str	r0, [sp, #4]
   23b58:	7230      	strb	r0, [r6, #8]
   23b5a:	360c      	adds	r6, #12
   23b5c:	2263      	movs	r2, #99	@ 0x63
   23b5e:	9200      	str	r2, [sp, #0]
   23b60:	4630      	mov	r0, r6
   23b62:	f003 fb9a 	bl	2729a <__aeabi_memcpy>
   23b66:	ad1f      	add	r5, sp, #124	@ 0x7c
   23b68:	462c      	mov	r4, r5
   23b6a:	340c      	adds	r4, #12
   23b6c:	212c      	movs	r1, #44	@ 0x2c
   23b6e:	4620      	mov	r0, r4
   23b70:	f003 f9e6 	bl	26f40 <__aeabi_memclr4>
   23b74:	9801      	ldr	r0, [sp, #4]
   23b76:	7228      	strb	r0, [r5, #8]
   23b78:	2018      	movs	r0, #24
   23b7a:	2505      	movs	r5, #5
   23b7c:	9001      	str	r0, [sp, #4]
   23b7e:	4629      	mov	r1, r5
   23b80:	4632      	mov	r2, r6
   23b82:	9b00      	ldr	r3, [sp, #0]
   23b84:	df04      	svc	4
   23b86:	2802      	cmp	r0, #2
   23b88:	d018      	beq.n	23bbc <_ZN20complex_full_dynamic3app17he49536e90ee2143aE+0x72>
   23b8a:	a803      	add	r0, sp, #12
   23b8c:	2104      	movs	r1, #4
   23b8e:	7201      	strb	r1, [r0, #8]
   23b90:	9504      	str	r5, [sp, #16]
   23b92:	9801      	ldr	r0, [sp, #4]
   23b94:	9003      	str	r0, [sp, #12]
   23b96:	2503      	movs	r5, #3
   23b98:	232c      	movs	r3, #44	@ 0x2c
   23b9a:	4629      	mov	r1, r5
   23b9c:	4622      	mov	r2, r4
   23b9e:	df03      	svc	3
   23ba0:	2802      	cmp	r0, #2
   23ba2:	d00b      	beq.n	23bbc <_ZN20complex_full_dynamic3app17he49536e90ee2143aE+0x72>
   23ba4:	a81f      	add	r0, sp, #124	@ 0x7c
   23ba6:	7205      	strb	r5, [r0, #8]
   23ba8:	9520      	str	r5, [sp, #128]	@ 0x80
   23baa:	9801      	ldr	r0, [sp, #4]
   23bac:	901f      	str	r0, [sp, #124]	@ 0x7c
   23bae:	2105      	movs	r1, #5
   23bb0:	2600      	movs	r6, #0
   23bb2:	462a      	mov	r2, r5
   23bb4:	4633      	mov	r3, r6
   23bb6:	df02      	svc	2
   23bb8:	287f      	cmp	r0, #127	@ 0x7f
   23bba:	d80b      	bhi.n	23bd4 <_ZN20complex_full_dynamic3app17he49536e90ee2143aE+0x8a>
   23bbc:	9c02      	ldr	r4, [sp, #8]
   23bbe:	6061      	str	r1, [r4, #4]
   23bc0:	2601      	movs	r6, #1
   23bc2:	7026      	strb	r6, [r4, #0]
   23bc4:	a81f      	add	r0, sp, #124	@ 0x7c
   23bc6:	f003 f9a7 	bl	26f18 <_ZN9allow_pin12full_dynamic17unshare_if_shared17h34fb2a9288def0c2E>
   23bca:	a803      	add	r0, sp, #12
   23bcc:	f003 f9a4 	bl	26f18 <_ZN9allow_pin12full_dynamic17unshare_if_shared17h34fb2a9288def0c2E>
   23bd0:	b02d      	add	sp, #180	@ 0xb4
   23bd2:	bdf0      	pop	{r4, r5, r6, r7, pc}
   23bd4:	a803      	add	r0, sp, #12
   23bd6:	f003 f99f 	bl	26f18 <_ZN9allow_pin12full_dynamic17unshare_if_shared17h34fb2a9288def0c2E>
   23bda:	4625      	mov	r5, r4
   23bdc:	ac1f      	add	r4, sp, #124	@ 0x7c
   23bde:	4620      	mov	r0, r4
   23be0:	f003 f99a 	bl	26f18 <_ZN9allow_pin12full_dynamic17unshare_if_shared17h34fb2a9288def0c2E>
   23be4:	4620      	mov	r0, r4
   23be6:	f003 f997 	bl	26f18 <_ZN9allow_pin12full_dynamic17unshare_if_shared17h34fb2a9288def0c2E>
   23bea:	9c02      	ldr	r4, [sp, #8]
   23bec:	1c60      	adds	r0, r4, #1
   23bee:	222c      	movs	r2, #44	@ 0x2c
   23bf0:	4629      	mov	r1, r5
   23bf2:	f003 fb52 	bl	2729a <__aeabi_memcpy>
   23bf6:	e7e4      	b.n	23bc2 <_ZN20complex_full_dynamic3app17he49536e90ee2143aE+0x78>

00023bf8 <_ZN20complex_full_dynamic3app17he60de6198e3865cbE>:
   23bf8:	b5f0      	push	{r4, r5, r6, r7, lr}
   23bfa:	af03      	add	r7, sp, #12
   23bfc:	b0b1      	sub	sp, #196	@ 0xc4
   23bfe:	9002      	str	r0, [sp, #8]
   23c00:	ac03      	add	r4, sp, #12
   23c02:	2002      	movs	r0, #2
   23c04:	9001      	str	r0, [sp, #4]
   23c06:	7220      	strb	r0, [r4, #8]
   23c08:	340c      	adds	r4, #12
   23c0a:	225d      	movs	r2, #93	@ 0x5d
   23c0c:	9200      	str	r2, [sp, #0]
   23c0e:	4620      	mov	r0, r4
   23c10:	f003 fb43 	bl	2729a <__aeabi_memcpy>
   23c14:	ae1e      	add	r6, sp, #120	@ 0x78
   23c16:	4635      	mov	r5, r6
   23c18:	350c      	adds	r5, #12
   23c1a:	2140      	movs	r1, #64	@ 0x40
   23c1c:	4628      	mov	r0, r5
   23c1e:	f003 f98f 	bl	26f40 <__aeabi_memclr4>
   23c22:	9801      	ldr	r0, [sp, #4]
   23c24:	7230      	strb	r0, [r6, #8]
   23c26:	481f      	ldr	r0, [pc, #124]	@ (23ca4 <_ZN20complex_full_dynamic3app17he60de6198e3865cbE+0xac>)
   23c28:	2608      	movs	r6, #8
   23c2a:	4631      	mov	r1, r6
   23c2c:	4622      	mov	r2, r4
   23c2e:	9b00      	ldr	r3, [sp, #0]
   23c30:	df04      	svc	4
   23c32:	2802      	cmp	r0, #2
   23c34:	d019      	beq.n	23c6a <_ZN20complex_full_dynamic3app17he60de6198e3865cbE+0x72>
   23c36:	a803      	add	r0, sp, #12
   23c38:	2404      	movs	r4, #4
   23c3a:	7204      	strb	r4, [r0, #8]
   23c3c:	9604      	str	r6, [sp, #16]
   23c3e:	4e19      	ldr	r6, [pc, #100]	@ (23ca4 <_ZN20complex_full_dynamic3app17he60de6198e3865cbE+0xac>)
   23c40:	9603      	str	r6, [sp, #12]
   23c42:	2340      	movs	r3, #64	@ 0x40
   23c44:	4630      	mov	r0, r6
   23c46:	4621      	mov	r1, r4
   23c48:	462a      	mov	r2, r5
   23c4a:	df03      	svc	3
   23c4c:	2802      	cmp	r0, #2
   23c4e:	d00c      	beq.n	23c6a <_ZN20complex_full_dynamic3app17he60de6198e3865cbE+0x72>
   23c50:	a81e      	add	r0, sp, #120	@ 0x78
   23c52:	2103      	movs	r1, #3
   23c54:	7201      	strb	r1, [r0, #8]
   23c56:	961e      	str	r6, [sp, #120]	@ 0x78
   23c58:	941f      	str	r4, [sp, #124]	@ 0x7c
   23c5a:	4812      	ldr	r0, [pc, #72]	@ (23ca4 <_ZN20complex_full_dynamic3app17he60de6198e3865cbE+0xac>)
   23c5c:	2108      	movs	r1, #8
   23c5e:	2600      	movs	r6, #0
   23c60:	4622      	mov	r2, r4
   23c62:	4633      	mov	r3, r6
   23c64:	df02      	svc	2
   23c66:	287f      	cmp	r0, #127	@ 0x7f
   23c68:	d80b      	bhi.n	23c82 <_ZN20complex_full_dynamic3app17he60de6198e3865cbE+0x8a>
   23c6a:	9c02      	ldr	r4, [sp, #8]
   23c6c:	6061      	str	r1, [r4, #4]
   23c6e:	2601      	movs	r6, #1
   23c70:	7026      	strb	r6, [r4, #0]
   23c72:	a81e      	add	r0, sp, #120	@ 0x78
   23c74:	f003 f950 	bl	26f18 <_ZN9allow_pin12full_dynamic17unshare_if_shared17h34fb2a9288def0c2E>
   23c78:	a803      	add	r0, sp, #12
   23c7a:	f003 f94d 	bl	26f18 <_ZN9allow_pin12full_dynamic17unshare_if_shared17h34fb2a9288def0c2E>
   23c7e:	b031      	add	sp, #196	@ 0xc4
   23c80:	bdf0      	pop	{r4, r5, r6, r7, pc}
   23c82:	a803      	add	r0, sp, #12
   23c84:	f003 f948 	bl	26f18 <_ZN9allow_pin12full_dynamic17unshare_if_shared17h34fb2a9288def0c2E>
   23c88:	ac1e      	add	r4, sp, #120	@ 0x78
   23c8a:	4620      	mov	r0, r4
   23c8c:	f003 f944 	bl	26f18 <_ZN9allow_pin12full_dynamic17unshare_if_shared17h34fb2a9288def0c2E>
   23c90:	4620      	mov	r0, r4
   23c92:	f003 f941 	bl	26f18 <_ZN9allow_pin12full_dynamic17unshare_if_shared17h34fb2a9288def0c2E>
   23c96:	9c02      	ldr	r4, [sp, #8]
   23c98:	1c60      	adds	r0, r4, #1
   23c9a:	2240      	movs	r2, #64	@ 0x40
   23c9c:	4629      	mov	r1, r5
   23c9e:	f003 fafc 	bl	2729a <__aeabi_memcpy>
   23ca2:	e7e5      	b.n	23c70 <_ZN20complex_full_dynamic3app17he60de6198e3865cbE+0x78>
   23ca4:	00001028 	.word	0x00001028

00023ca8 <_ZN20complex_full_dynamic3app17he848ce500d7f7053E>:
   23ca8:	b5f0      	push	{r4, r5, r6, r7, lr}
   23caa:	af03      	add	r7, sp, #12
   23cac:	b097      	sub	sp, #92	@ 0x5c
   23cae:	9002      	str	r0, [sp, #8]
   23cb0:	ac03      	add	r4, sp, #12
   23cb2:	2602      	movs	r6, #2
   23cb4:	7226      	strb	r6, [r4, #8]
   23cb6:	340c      	adds	r4, #12
   23cb8:	221a      	movs	r2, #26
   23cba:	9201      	str	r2, [sp, #4]
   23cbc:	4620      	mov	r0, r4
   23cbe:	f003 faec 	bl	2729a <__aeabi_memcpy>
   23cc2:	a80d      	add	r0, sp, #52	@ 0x34
   23cc4:	4605      	mov	r5, r0
   23cc6:	350c      	adds	r5, #12
   23cc8:	2100      	movs	r1, #0
   23cca:	76a9      	strb	r1, [r5, #26]
   23ccc:	8481      	strh	r1, [r0, #36]	@ 0x24
   23cce:	7206      	strb	r6, [r0, #8]
   23cd0:	9115      	str	r1, [sp, #84]	@ 0x54
   23cd2:	9114      	str	r1, [sp, #80]	@ 0x50
   23cd4:	9113      	str	r1, [sp, #76]	@ 0x4c
   23cd6:	9112      	str	r1, [sp, #72]	@ 0x48
   23cd8:	9111      	str	r1, [sp, #68]	@ 0x44
   23cda:	9110      	str	r1, [sp, #64]	@ 0x40
   23cdc:	481f      	ldr	r0, [pc, #124]	@ (23d5c <_ZN20complex_full_dynamic3app17he848ce500d7f7053E+0xb4>)
   23cde:	2605      	movs	r6, #5
   23ce0:	4631      	mov	r1, r6
   23ce2:	4622      	mov	r2, r4
   23ce4:	9b01      	ldr	r3, [sp, #4]
   23ce6:	df04      	svc	4
   23ce8:	2802      	cmp	r0, #2
   23cea:	d01a      	beq.n	23d22 <_ZN20complex_full_dynamic3app17he848ce500d7f7053E+0x7a>
   23cec:	a803      	add	r0, sp, #12
   23cee:	2104      	movs	r1, #4
   23cf0:	7201      	strb	r1, [r0, #8]
   23cf2:	9604      	str	r6, [sp, #16]
   23cf4:	4e19      	ldr	r6, [pc, #100]	@ (23d5c <_ZN20complex_full_dynamic3app17he848ce500d7f7053E+0xb4>)
   23cf6:	9603      	str	r6, [sp, #12]
   23cf8:	2402      	movs	r4, #2
   23cfa:	231b      	movs	r3, #27
   23cfc:	4630      	mov	r0, r6
   23cfe:	4621      	mov	r1, r4
   23d00:	462a      	mov	r2, r5
   23d02:	df03      	svc	3
   23d04:	2802      	cmp	r0, #2
   23d06:	d00c      	beq.n	23d22 <_ZN20complex_full_dynamic3app17he848ce500d7f7053E+0x7a>
   23d08:	a80d      	add	r0, sp, #52	@ 0x34
   23d0a:	2103      	movs	r1, #3
   23d0c:	7201      	strb	r1, [r0, #8]
   23d0e:	960d      	str	r6, [sp, #52]	@ 0x34
   23d10:	940e      	str	r4, [sp, #56]	@ 0x38
   23d12:	4812      	ldr	r0, [pc, #72]	@ (23d5c <_ZN20complex_full_dynamic3app17he848ce500d7f7053E+0xb4>)
   23d14:	2105      	movs	r1, #5
   23d16:	2600      	movs	r6, #0
   23d18:	4622      	mov	r2, r4
   23d1a:	4633      	mov	r3, r6
   23d1c:	df02      	svc	2
   23d1e:	287f      	cmp	r0, #127	@ 0x7f
   23d20:	d80b      	bhi.n	23d3a <_ZN20complex_full_dynamic3app17he848ce500d7f7053E+0x92>
   23d22:	9c02      	ldr	r4, [sp, #8]
   23d24:	6061      	str	r1, [r4, #4]
   23d26:	2601      	movs	r6, #1
   23d28:	7026      	strb	r6, [r4, #0]
   23d2a:	a80d      	add	r0, sp, #52	@ 0x34
   23d2c:	f003 f8f4 	bl	26f18 <_ZN9allow_pin12full_dynamic17unshare_if_shared17h34fb2a9288def0c2E>
   23d30:	a803      	add	r0, sp, #12
   23d32:	f003 f8f1 	bl	26f18 <_ZN9allow_pin12full_dynamic17unshare_if_shared17h34fb2a9288def0c2E>
   23d36:	b017      	add	sp, #92	@ 0x5c
   23d38:	bdf0      	pop	{r4, r5, r6, r7, pc}
   23d3a:	a803      	add	r0, sp, #12
   23d3c:	f003 f8ec 	bl	26f18 <_ZN9allow_pin12full_dynamic17unshare_if_shared17h34fb2a9288def0c2E>
   23d40:	ac0d      	add	r4, sp, #52	@ 0x34
   23d42:	4620      	mov	r0, r4
   23d44:	f003 f8e8 	bl	26f18 <_ZN9allow_pin12full_dynamic17unshare_if_shared17h34fb2a9288def0c2E>
   23d48:	4620      	mov	r0, r4
   23d4a:	f003 f8e5 	bl	26f18 <_ZN9allow_pin12full_dynamic17unshare_if_shared17h34fb2a9288def0c2E>
   23d4e:	9c02      	ldr	r4, [sp, #8]
   23d50:	1c60      	adds	r0, r4, #1
   23d52:	221b      	movs	r2, #27
   23d54:	4629      	mov	r1, r5
   23d56:	f003 faa0 	bl	2729a <__aeabi_memcpy>
   23d5a:	e7e5      	b.n	23d28 <_ZN20complex_full_dynamic3app17he848ce500d7f7053E+0x80>
   23d5c:	00001cce 	.word	0x00001cce

00023d60 <_ZN20complex_full_dynamic3app17he849ea37a29d3a65E>:
   23d60:	b5f0      	push	{r4, r5, r6, r7, lr}
   23d62:	af03      	add	r7, sp, #12
   23d64:	b09f      	sub	sp, #124	@ 0x7c
   23d66:	9002      	str	r0, [sp, #8]
   23d68:	ae03      	add	r6, sp, #12
   23d6a:	2002      	movs	r0, #2
   23d6c:	9001      	str	r0, [sp, #4]
   23d6e:	7230      	strb	r0, [r6, #8]
   23d70:	360c      	adds	r6, #12
   23d72:	222c      	movs	r2, #44	@ 0x2c
   23d74:	9200      	str	r2, [sp, #0]
   23d76:	4630      	mov	r0, r6
   23d78:	f003 fa8f 	bl	2729a <__aeabi_memcpy>
   23d7c:	ad11      	add	r5, sp, #68	@ 0x44
   23d7e:	462c      	mov	r4, r5
   23d80:	340c      	adds	r4, #12
   23d82:	212a      	movs	r1, #42	@ 0x2a
   23d84:	4620      	mov	r0, r4
   23d86:	f003 f8db 	bl	26f40 <__aeabi_memclr4>
   23d8a:	9801      	ldr	r0, [sp, #4]
   23d8c:	7228      	strb	r0, [r5, #8]
   23d8e:	481f      	ldr	r0, [pc, #124]	@ (23e0c <_ZN20complex_full_dynamic3app17he849ea37a29d3a65E+0xac>)
   23d90:	2503      	movs	r5, #3
   23d92:	4629      	mov	r1, r5
   23d94:	4632      	mov	r2, r6
   23d96:	9b00      	ldr	r3, [sp, #0]
   23d98:	df04      	svc	4
   23d9a:	2802      	cmp	r0, #2
   23d9c:	d017      	beq.n	23dce <_ZN20complex_full_dynamic3app17he849ea37a29d3a65E+0x6e>
   23d9e:	a803      	add	r0, sp, #12
   23da0:	2104      	movs	r1, #4
   23da2:	7201      	strb	r1, [r0, #8]
   23da4:	9504      	str	r5, [sp, #16]
   23da6:	4819      	ldr	r0, [pc, #100]	@ (23e0c <_ZN20complex_full_dynamic3app17he849ea37a29d3a65E+0xac>)
   23da8:	9003      	str	r0, [sp, #12]
   23daa:	2600      	movs	r6, #0
   23dac:	232a      	movs	r3, #42	@ 0x2a
   23dae:	4631      	mov	r1, r6
   23db0:	4622      	mov	r2, r4
   23db2:	df03      	svc	3
   23db4:	2802      	cmp	r0, #2
   23db6:	d00a      	beq.n	23dce <_ZN20complex_full_dynamic3app17he849ea37a29d3a65E+0x6e>
   23db8:	a811      	add	r0, sp, #68	@ 0x44
   23dba:	7205      	strb	r5, [r0, #8]
   23dbc:	4813      	ldr	r0, [pc, #76]	@ (23e0c <_ZN20complex_full_dynamic3app17he849ea37a29d3a65E+0xac>)
   23dbe:	9011      	str	r0, [sp, #68]	@ 0x44
   23dc0:	9612      	str	r6, [sp, #72]	@ 0x48
   23dc2:	4629      	mov	r1, r5
   23dc4:	4632      	mov	r2, r6
   23dc6:	4633      	mov	r3, r6
   23dc8:	df02      	svc	2
   23dca:	287f      	cmp	r0, #127	@ 0x7f
   23dcc:	d80b      	bhi.n	23de6 <_ZN20complex_full_dynamic3app17he849ea37a29d3a65E+0x86>
   23dce:	9c02      	ldr	r4, [sp, #8]
   23dd0:	6061      	str	r1, [r4, #4]
   23dd2:	2601      	movs	r6, #1
   23dd4:	7026      	strb	r6, [r4, #0]
   23dd6:	a811      	add	r0, sp, #68	@ 0x44
   23dd8:	f003 f89e 	bl	26f18 <_ZN9allow_pin12full_dynamic17unshare_if_shared17h34fb2a9288def0c2E>
   23ddc:	a803      	add	r0, sp, #12
   23dde:	f003 f89b 	bl	26f18 <_ZN9allow_pin12full_dynamic17unshare_if_shared17h34fb2a9288def0c2E>
   23de2:	b01f      	add	sp, #124	@ 0x7c
   23de4:	bdf0      	pop	{r4, r5, r6, r7, pc}
   23de6:	a803      	add	r0, sp, #12
   23de8:	f003 f896 	bl	26f18 <_ZN9allow_pin12full_dynamic17unshare_if_shared17h34fb2a9288def0c2E>
   23dec:	4625      	mov	r5, r4
   23dee:	ac11      	add	r4, sp, #68	@ 0x44
   23df0:	4620      	mov	r0, r4
   23df2:	f003 f891 	bl	26f18 <_ZN9allow_pin12full_dynamic17unshare_if_shared17h34fb2a9288def0c2E>
   23df6:	4620      	mov	r0, r4
   23df8:	f003 f88e 	bl	26f18 <_ZN9allow_pin12full_dynamic17unshare_if_shared17h34fb2a9288def0c2E>
   23dfc:	9c02      	ldr	r4, [sp, #8]
   23dfe:	1c60      	adds	r0, r4, #1
   23e00:	222a      	movs	r2, #42	@ 0x2a
   23e02:	4629      	mov	r1, r5
   23e04:	f003 fa49 	bl	2729a <__aeabi_memcpy>
   23e08:	e7e4      	b.n	23dd4 <_ZN20complex_full_dynamic3app17he849ea37a29d3a65E+0x74>
   23e0a:	46c0      	nop			@ (mov r8, r8)
   23e0c:	000024f0 	.word	0x000024f0

00023e10 <_ZN20complex_full_dynamic3app17hf2f0e2fcd7aa9f29E>:
   23e10:	b5f0      	push	{r4, r5, r6, r7, lr}
   23e12:	af03      	add	r7, sp, #12
   23e14:	b0a9      	sub	sp, #164	@ 0xa4
   23e16:	9003      	str	r0, [sp, #12]
   23e18:	ac04      	add	r4, sp, #16
   23e1a:	2002      	movs	r0, #2
   23e1c:	9002      	str	r0, [sp, #8]
   23e1e:	7220      	strb	r0, [r4, #8]
   23e20:	340c      	adds	r4, #12
   23e22:	2231      	movs	r2, #49	@ 0x31
   23e24:	9201      	str	r2, [sp, #4]
   23e26:	4620      	mov	r0, r4
   23e28:	f003 fa37 	bl	2729a <__aeabi_memcpy>
   23e2c:	ae14      	add	r6, sp, #80	@ 0x50
   23e2e:	4635      	mov	r5, r6
   23e30:	350c      	adds	r5, #12
   23e32:	2148      	movs	r1, #72	@ 0x48
   23e34:	4628      	mov	r0, r5
   23e36:	f003 f883 	bl	26f40 <__aeabi_memclr4>
   23e3a:	9802      	ldr	r0, [sp, #8]
   23e3c:	7230      	strb	r0, [r6, #8]
   23e3e:	481f      	ldr	r0, [pc, #124]	@ (23ebc <_ZN20complex_full_dynamic3app17hf2f0e2fcd7aa9f29E+0xac>)
   23e40:	2604      	movs	r6, #4
   23e42:	4631      	mov	r1, r6
   23e44:	4622      	mov	r2, r4
   23e46:	9b01      	ldr	r3, [sp, #4]
   23e48:	df04      	svc	4
   23e4a:	2802      	cmp	r0, #2
   23e4c:	d018      	beq.n	23e80 <_ZN20complex_full_dynamic3app17hf2f0e2fcd7aa9f29E+0x70>
   23e4e:	a804      	add	r0, sp, #16
   23e50:	7206      	strb	r6, [r0, #8]
   23e52:	9605      	str	r6, [sp, #20]
   23e54:	4e19      	ldr	r6, [pc, #100]	@ (23ebc <_ZN20complex_full_dynamic3app17hf2f0e2fcd7aa9f29E+0xac>)
   23e56:	9604      	str	r6, [sp, #16]
   23e58:	2403      	movs	r4, #3
   23e5a:	2348      	movs	r3, #72	@ 0x48
   23e5c:	4630      	mov	r0, r6
   23e5e:	4621      	mov	r1, r4
   23e60:	462a      	mov	r2, r5
   23e62:	df03      	svc	3
   23e64:	2802      	cmp	r0, #2
   23e66:	d00b      	beq.n	23e80 <_ZN20complex_full_dynamic3app17hf2f0e2fcd7aa9f29E+0x70>
   23e68:	a814      	add	r0, sp, #80	@ 0x50
   23e6a:	7204      	strb	r4, [r0, #8]
   23e6c:	9415      	str	r4, [sp, #84]	@ 0x54
   23e6e:	9614      	str	r6, [sp, #80]	@ 0x50
   23e70:	4812      	ldr	r0, [pc, #72]	@ (23ebc <_ZN20complex_full_dynamic3app17hf2f0e2fcd7aa9f29E+0xac>)
   23e72:	2104      	movs	r1, #4
   23e74:	2600      	movs	r6, #0
   23e76:	4622      	mov	r2, r4
   23e78:	4633      	mov	r3, r6
   23e7a:	df02      	svc	2
   23e7c:	287f      	cmp	r0, #127	@ 0x7f
   23e7e:	d80b      	bhi.n	23e98 <_ZN20complex_full_dynamic3app17hf2f0e2fcd7aa9f29E+0x88>
   23e80:	9c03      	ldr	r4, [sp, #12]
   23e82:	6061      	str	r1, [r4, #4]
   23e84:	2601      	movs	r6, #1
   23e86:	7026      	strb	r6, [r4, #0]
   23e88:	a814      	add	r0, sp, #80	@ 0x50
   23e8a:	f003 f845 	bl	26f18 <_ZN9allow_pin12full_dynamic17unshare_if_shared17h34fb2a9288def0c2E>
   23e8e:	a804      	add	r0, sp, #16
   23e90:	f003 f842 	bl	26f18 <_ZN9allow_pin12full_dynamic17unshare_if_shared17h34fb2a9288def0c2E>
   23e94:	b029      	add	sp, #164	@ 0xa4
   23e96:	bdf0      	pop	{r4, r5, r6, r7, pc}
   23e98:	a804      	add	r0, sp, #16
   23e9a:	f003 f83d 	bl	26f18 <_ZN9allow_pin12full_dynamic17unshare_if_shared17h34fb2a9288def0c2E>
   23e9e:	ac14      	add	r4, sp, #80	@ 0x50
   23ea0:	4620      	mov	r0, r4
   23ea2:	f003 f839 	bl	26f18 <_ZN9allow_pin12full_dynamic17unshare_if_shared17h34fb2a9288def0c2E>
   23ea6:	4620      	mov	r0, r4
   23ea8:	f003 f836 	bl	26f18 <_ZN9allow_pin12full_dynamic17unshare_if_shared17h34fb2a9288def0c2E>
   23eac:	9c03      	ldr	r4, [sp, #12]
   23eae:	1c60      	adds	r0, r4, #1
   23eb0:	2248      	movs	r2, #72	@ 0x48
   23eb2:	4629      	mov	r1, r5
   23eb4:	f003 f9f1 	bl	2729a <__aeabi_memcpy>
   23eb8:	e7e5      	b.n	23e86 <_ZN20complex_full_dynamic3app17hf2f0e2fcd7aa9f29E+0x76>
   23eba:	46c0      	nop			@ (mov r8, r8)
   23ebc:	0000180e 	.word	0x0000180e

00023ec0 <_ZN20complex_full_dynamic3app17hf37c473e6c1713ecE>:
   23ec0:	b5f0      	push	{r4, r5, r6, r7, lr}
   23ec2:	af03      	add	r7, sp, #12
   23ec4:	b0ab      	sub	sp, #172	@ 0xac
   23ec6:	9003      	str	r0, [sp, #12]
   23ec8:	ac04      	add	r4, sp, #16
   23eca:	2602      	movs	r6, #2
   23ecc:	7226      	strb	r6, [r4, #8]
   23ece:	340c      	adds	r4, #12
   23ed0:	222d      	movs	r2, #45	@ 0x2d
   23ed2:	9202      	str	r2, [sp, #8]
   23ed4:	4620      	mov	r0, r4
   23ed6:	f003 f9e0 	bl	2729a <__aeabi_memcpy>
   23eda:	ad13      	add	r5, sp, #76	@ 0x4c
   23edc:	4628      	mov	r0, r5
   23ede:	300c      	adds	r0, #12
   23ee0:	2153      	movs	r1, #83	@ 0x53
   23ee2:	9001      	str	r0, [sp, #4]
   23ee4:	f003 f82c 	bl	26f40 <__aeabi_memclr4>
   23ee8:	722e      	strb	r6, [r5, #8]
   23eea:	4635      	mov	r5, r6
   23eec:	4e1f      	ldr	r6, [pc, #124]	@ (23f6c <_ZN20complex_full_dynamic3app17hf37c473e6c1713ecE+0xac>)
   23eee:	4630      	mov	r0, r6
   23ef0:	4629      	mov	r1, r5
   23ef2:	4622      	mov	r2, r4
   23ef4:	9b02      	ldr	r3, [sp, #8]
   23ef6:	df04      	svc	4
   23ef8:	2802      	cmp	r0, #2
   23efa:	d01a      	beq.n	23f32 <_ZN20complex_full_dynamic3app17hf37c473e6c1713ecE+0x72>
   23efc:	a804      	add	r0, sp, #16
   23efe:	2104      	movs	r1, #4
   23f00:	7201      	strb	r1, [r0, #8]
   23f02:	9505      	str	r5, [sp, #20]
   23f04:	9604      	str	r6, [sp, #16]
   23f06:	2407      	movs	r4, #7
   23f08:	2353      	movs	r3, #83	@ 0x53
   23f0a:	4630      	mov	r0, r6
   23f0c:	4621      	mov	r1, r4
   23f0e:	9d01      	ldr	r5, [sp, #4]
   23f10:	462a      	mov	r2, r5
   23f12:	df03      	svc	3
   23f14:	2802      	cmp	r0, #2
   23f16:	d00c      	beq.n	23f32 <_ZN20complex_full_dynamic3app17hf37c473e6c1713ecE+0x72>
   23f18:	a813      	add	r0, sp, #76	@ 0x4c
   23f1a:	2103      	movs	r1, #3
   23f1c:	7201      	strb	r1, [r0, #8]
   23f1e:	9613      	str	r6, [sp, #76]	@ 0x4c
   23f20:	9414      	str	r4, [sp, #80]	@ 0x50
   23f22:	4812      	ldr	r0, [pc, #72]	@ (23f6c <_ZN20complex_full_dynamic3app17hf37c473e6c1713ecE+0xac>)
   23f24:	2102      	movs	r1, #2
   23f26:	2600      	movs	r6, #0
   23f28:	4622      	mov	r2, r4
   23f2a:	4633      	mov	r3, r6
   23f2c:	df02      	svc	2
   23f2e:	287f      	cmp	r0, #127	@ 0x7f
   23f30:	d80b      	bhi.n	23f4a <_ZN20complex_full_dynamic3app17hf37c473e6c1713ecE+0x8a>
   23f32:	9c03      	ldr	r4, [sp, #12]
   23f34:	6061      	str	r1, [r4, #4]
   23f36:	2601      	movs	r6, #1
   23f38:	7026      	strb	r6, [r4, #0]
   23f3a:	a813      	add	r0, sp, #76	@ 0x4c
   23f3c:	f002 ffec 	bl	26f18 <_ZN9allow_pin12full_dynamic17unshare_if_shared17h34fb2a9288def0c2E>
   23f40:	a804      	add	r0, sp, #16
   23f42:	f002 ffe9 	bl	26f18 <_ZN9allow_pin12full_dynamic17unshare_if_shared17h34fb2a9288def0c2E>
   23f46:	b02b      	add	sp, #172	@ 0xac
   23f48:	bdf0      	pop	{r4, r5, r6, r7, pc}
   23f4a:	a804      	add	r0, sp, #16
   23f4c:	f002 ffe4 	bl	26f18 <_ZN9allow_pin12full_dynamic17unshare_if_shared17h34fb2a9288def0c2E>
   23f50:	ac13      	add	r4, sp, #76	@ 0x4c
   23f52:	4620      	mov	r0, r4
   23f54:	f002 ffe0 	bl	26f18 <_ZN9allow_pin12full_dynamic17unshare_if_shared17h34fb2a9288def0c2E>
   23f58:	4620      	mov	r0, r4
   23f5a:	f002 ffdd 	bl	26f18 <_ZN9allow_pin12full_dynamic17unshare_if_shared17h34fb2a9288def0c2E>
   23f5e:	9c03      	ldr	r4, [sp, #12]
   23f60:	1c60      	adds	r0, r4, #1
   23f62:	2253      	movs	r2, #83	@ 0x53
   23f64:	4629      	mov	r1, r5
   23f66:	f003 f998 	bl	2729a <__aeabi_memcpy>
   23f6a:	e7e5      	b.n	23f38 <_ZN20complex_full_dynamic3app17hf37c473e6c1713ecE+0x78>
   23f6c:	00000ec3 	.word	0x00000ec3

00023f70 <_ZN20complex_full_dynamic3app17hf61e34e2439e08b7E>:
   23f70:	b5f0      	push	{r4, r5, r6, r7, lr}
   23f72:	af03      	add	r7, sp, #12
   23f74:	b0a9      	sub	sp, #164	@ 0xa4
   23f76:	9002      	str	r0, [sp, #8]
   23f78:	ae03      	add	r6, sp, #12
   23f7a:	2002      	movs	r0, #2
   23f7c:	9001      	str	r0, [sp, #4]
   23f7e:	7230      	strb	r0, [r6, #8]
   23f80:	360c      	adds	r6, #12
   23f82:	221b      	movs	r2, #27
   23f84:	9200      	str	r2, [sp, #0]
   23f86:	4630      	mov	r0, r6
   23f88:	f003 f987 	bl	2729a <__aeabi_memcpy>
   23f8c:	ad0d      	add	r5, sp, #52	@ 0x34
   23f8e:	462c      	mov	r4, r5
   23f90:	340c      	adds	r4, #12
   23f92:	2163      	movs	r1, #99	@ 0x63
   23f94:	4620      	mov	r0, r4
   23f96:	f002 ffd3 	bl	26f40 <__aeabi_memclr4>
   23f9a:	9801      	ldr	r0, [sp, #4]
   23f9c:	7228      	strb	r0, [r5, #8]
   23f9e:	481f      	ldr	r0, [pc, #124]	@ (2401c <_ZN20complex_full_dynamic3app17hf61e34e2439e08b7E+0xac>)
   23fa0:	2503      	movs	r5, #3
   23fa2:	4629      	mov	r1, r5
   23fa4:	4632      	mov	r2, r6
   23fa6:	9b00      	ldr	r3, [sp, #0]
   23fa8:	df04      	svc	4
   23faa:	2802      	cmp	r0, #2
   23fac:	d018      	beq.n	23fe0 <_ZN20complex_full_dynamic3app17hf61e34e2439e08b7E+0x70>
   23fae:	a803      	add	r0, sp, #12
   23fb0:	2104      	movs	r1, #4
   23fb2:	7201      	strb	r1, [r0, #8]
   23fb4:	4e19      	ldr	r6, [pc, #100]	@ (2401c <_ZN20complex_full_dynamic3app17hf61e34e2439e08b7E+0xac>)
   23fb6:	9603      	str	r6, [sp, #12]
   23fb8:	9504      	str	r5, [sp, #16]
   23fba:	2363      	movs	r3, #99	@ 0x63
   23fbc:	4630      	mov	r0, r6
   23fbe:	4629      	mov	r1, r5
   23fc0:	4622      	mov	r2, r4
   23fc2:	df03      	svc	3
   23fc4:	2802      	cmp	r0, #2
   23fc6:	d00b      	beq.n	23fe0 <_ZN20complex_full_dynamic3app17hf61e34e2439e08b7E+0x70>
   23fc8:	a80d      	add	r0, sp, #52	@ 0x34
   23fca:	7205      	strb	r5, [r0, #8]
   23fcc:	950e      	str	r5, [sp, #56]	@ 0x38
   23fce:	960d      	str	r6, [sp, #52]	@ 0x34
   23fd0:	4812      	ldr	r0, [pc, #72]	@ (2401c <_ZN20complex_full_dynamic3app17hf61e34e2439e08b7E+0xac>)
   23fd2:	2600      	movs	r6, #0
   23fd4:	4629      	mov	r1, r5
   23fd6:	462a      	mov	r2, r5
   23fd8:	4633      	mov	r3, r6
   23fda:	df02      	svc	2
   23fdc:	287f      	cmp	r0, #127	@ 0x7f
   23fde:	d80b      	bhi.n	23ff8 <_ZN20complex_full_dynamic3app17hf61e34e2439e08b7E+0x88>
   23fe0:	9c02      	ldr	r4, [sp, #8]
   23fe2:	6061      	str	r1, [r4, #4]
   23fe4:	2601      	movs	r6, #1
   23fe6:	7026      	strb	r6, [r4, #0]
   23fe8:	a80d      	add	r0, sp, #52	@ 0x34
   23fea:	f002 ff95 	bl	26f18 <_ZN9allow_pin12full_dynamic17unshare_if_shared17h34fb2a9288def0c2E>
   23fee:	a803      	add	r0, sp, #12
   23ff0:	f002 ff92 	bl	26f18 <_ZN9allow_pin12full_dynamic17unshare_if_shared17h34fb2a9288def0c2E>
   23ff4:	b029      	add	sp, #164	@ 0xa4
   23ff6:	bdf0      	pop	{r4, r5, r6, r7, pc}
   23ff8:	a803      	add	r0, sp, #12
   23ffa:	f002 ff8d 	bl	26f18 <_ZN9allow_pin12full_dynamic17unshare_if_shared17h34fb2a9288def0c2E>
   23ffe:	4625      	mov	r5, r4
   24000:	ac0d      	add	r4, sp, #52	@ 0x34
   24002:	4620      	mov	r0, r4
   24004:	f002 ff88 	bl	26f18 <_ZN9allow_pin12full_dynamic17unshare_if_shared17h34fb2a9288def0c2E>
   24008:	4620      	mov	r0, r4
   2400a:	f002 ff85 	bl	26f18 <_ZN9allow_pin12full_dynamic17unshare_if_shared17h34fb2a9288def0c2E>
   2400e:	9c02      	ldr	r4, [sp, #8]
   24010:	1c60      	adds	r0, r4, #1
   24012:	2263      	movs	r2, #99	@ 0x63
   24014:	4629      	mov	r1, r5
   24016:	f003 f940 	bl	2729a <__aeabi_memcpy>
   2401a:	e7e4      	b.n	23fe6 <_ZN20complex_full_dynamic3app17hf61e34e2439e08b7E+0x76>
   2401c:	00002548 	.word	0x00002548

00024020 <_ZN20complex_full_dynamic3app17hf86486c9f96ecb65E>:
   24020:	b5f0      	push	{r4, r5, r6, r7, lr}
   24022:	af03      	add	r7, sp, #12
   24024:	b099      	sub	sp, #100	@ 0x64
   24026:	9002      	str	r0, [sp, #8]
   24028:	ac03      	add	r4, sp, #12
   2402a:	2002      	movs	r0, #2
   2402c:	9001      	str	r0, [sp, #4]
   2402e:	7220      	strb	r0, [r4, #8]
   24030:	340c      	adds	r4, #12
   24032:	2214      	movs	r2, #20
   24034:	9200      	str	r2, [sp, #0]
   24036:	4620      	mov	r0, r4
   24038:	f003 f92f 	bl	2729a <__aeabi_memcpy>
   2403c:	ae0b      	add	r6, sp, #44	@ 0x2c
   2403e:	4635      	mov	r5, r6
   24040:	350c      	adds	r5, #12
   24042:	212b      	movs	r1, #43	@ 0x2b
   24044:	4628      	mov	r0, r5
   24046:	f002 ff7b 	bl	26f40 <__aeabi_memclr4>
   2404a:	9801      	ldr	r0, [sp, #4]
   2404c:	7230      	strb	r0, [r6, #8]
   2404e:	481f      	ldr	r0, [pc, #124]	@ (240cc <_ZN20complex_full_dynamic3app17hf86486c9f96ecb65E+0xac>)
   24050:	2608      	movs	r6, #8
   24052:	4631      	mov	r1, r6
   24054:	4622      	mov	r2, r4
   24056:	9b00      	ldr	r3, [sp, #0]
   24058:	df04      	svc	4
   2405a:	2802      	cmp	r0, #2
   2405c:	d019      	beq.n	24092 <_ZN20complex_full_dynamic3app17hf86486c9f96ecb65E+0x72>
   2405e:	a803      	add	r0, sp, #12
   24060:	2404      	movs	r4, #4
   24062:	7204      	strb	r4, [r0, #8]
   24064:	9604      	str	r6, [sp, #16]
   24066:	4e19      	ldr	r6, [pc, #100]	@ (240cc <_ZN20complex_full_dynamic3app17hf86486c9f96ecb65E+0xac>)
   24068:	9603      	str	r6, [sp, #12]
   2406a:	232b      	movs	r3, #43	@ 0x2b
   2406c:	4630      	mov	r0, r6
   2406e:	4621      	mov	r1, r4
   24070:	462a      	mov	r2, r5
   24072:	df03      	svc	3
   24074:	2802      	cmp	r0, #2
   24076:	d00c      	beq.n	24092 <_ZN20complex_full_dynamic3app17hf86486c9f96ecb65E+0x72>
   24078:	a80b      	add	r0, sp, #44	@ 0x2c
   2407a:	2103      	movs	r1, #3
   2407c:	7201      	strb	r1, [r0, #8]
   2407e:	960b      	str	r6, [sp, #44]	@ 0x2c
   24080:	940c      	str	r4, [sp, #48]	@ 0x30
   24082:	4812      	ldr	r0, [pc, #72]	@ (240cc <_ZN20complex_full_dynamic3app17hf86486c9f96ecb65E+0xac>)
   24084:	2108      	movs	r1, #8
   24086:	2600      	movs	r6, #0
   24088:	4622      	mov	r2, r4
   2408a:	4633      	mov	r3, r6
   2408c:	df02      	svc	2
   2408e:	287f      	cmp	r0, #127	@ 0x7f
   24090:	d80b      	bhi.n	240aa <_ZN20complex_full_dynamic3app17hf86486c9f96ecb65E+0x8a>
   24092:	9c02      	ldr	r4, [sp, #8]
   24094:	6061      	str	r1, [r4, #4]
   24096:	2601      	movs	r6, #1
   24098:	7026      	strb	r6, [r4, #0]
   2409a:	a80b      	add	r0, sp, #44	@ 0x2c
   2409c:	f002 ff3c 	bl	26f18 <_ZN9allow_pin12full_dynamic17unshare_if_shared17h34fb2a9288def0c2E>
   240a0:	a803      	add	r0, sp, #12
   240a2:	f002 ff39 	bl	26f18 <_ZN9allow_pin12full_dynamic17unshare_if_shared17h34fb2a9288def0c2E>
   240a6:	b019      	add	sp, #100	@ 0x64
   240a8:	bdf0      	pop	{r4, r5, r6, r7, pc}
   240aa:	a803      	add	r0, sp, #12
   240ac:	f002 ff34 	bl	26f18 <_ZN9allow_pin12full_dynamic17unshare_if_shared17h34fb2a9288def0c2E>
   240b0:	ac0b      	add	r4, sp, #44	@ 0x2c
   240b2:	4620      	mov	r0, r4
   240b4:	f002 ff30 	bl	26f18 <_ZN9allow_pin12full_dynamic17unshare_if_shared17h34fb2a9288def0c2E>
   240b8:	4620      	mov	r0, r4
   240ba:	f002 ff2d 	bl	26f18 <_ZN9allow_pin12full_dynamic17unshare_if_shared17h34fb2a9288def0c2E>
   240be:	9c02      	ldr	r4, [sp, #8]
   240c0:	1c60      	adds	r0, r4, #1
   240c2:	222b      	movs	r2, #43	@ 0x2b
   240c4:	4629      	mov	r1, r5
   240c6:	f003 f8e8 	bl	2729a <__aeabi_memcpy>
   240ca:	e7e5      	b.n	24098 <_ZN20complex_full_dynamic3app17hf86486c9f96ecb65E+0x78>
   240cc:	0000239f 	.word	0x0000239f

000240d0 <_ZN20complex_full_dynamic3app17hfead65042ae0b20aE>:
   240d0:	b5f0      	push	{r4, r5, r6, r7, lr}
   240d2:	af03      	add	r7, sp, #12
   240d4:	b0b1      	sub	sp, #196	@ 0xc4
   240d6:	9003      	str	r0, [sp, #12]
   240d8:	ac04      	add	r4, sp, #16
   240da:	2002      	movs	r0, #2
   240dc:	9002      	str	r0, [sp, #8]
   240de:	7220      	strb	r0, [r4, #8]
   240e0:	340c      	adds	r4, #12
   240e2:	223a      	movs	r2, #58	@ 0x3a
   240e4:	9201      	str	r2, [sp, #4]
   240e6:	4620      	mov	r0, r4
   240e8:	f003 f8d7 	bl	2729a <__aeabi_memcpy>
   240ec:	ae16      	add	r6, sp, #88	@ 0x58
   240ee:	4635      	mov	r5, r6
   240f0:	350c      	adds	r5, #12
   240f2:	215d      	movs	r1, #93	@ 0x5d
   240f4:	4628      	mov	r0, r5
   240f6:	f002 ff23 	bl	26f40 <__aeabi_memclr4>
   240fa:	9802      	ldr	r0, [sp, #8]
   240fc:	7230      	strb	r0, [r6, #8]
   240fe:	4820      	ldr	r0, [pc, #128]	@ (24180 <_ZN20complex_full_dynamic3app17hfead65042ae0b20aE+0xb0>)
   24100:	2600      	movs	r6, #0
   24102:	4631      	mov	r1, r6
   24104:	4622      	mov	r2, r4
   24106:	9b01      	ldr	r3, [sp, #4]
   24108:	df04      	svc	4
   2410a:	2802      	cmp	r0, #2
   2410c:	d01a      	beq.n	24144 <_ZN20complex_full_dynamic3app17hfead65042ae0b20aE+0x74>
   2410e:	a804      	add	r0, sp, #16
   24110:	2104      	movs	r1, #4
   24112:	7201      	strb	r1, [r0, #8]
   24114:	9605      	str	r6, [sp, #20]
   24116:	4e1a      	ldr	r6, [pc, #104]	@ (24180 <_ZN20complex_full_dynamic3app17hfead65042ae0b20aE+0xb0>)
   24118:	9604      	str	r6, [sp, #16]
   2411a:	2405      	movs	r4, #5
   2411c:	235d      	movs	r3, #93	@ 0x5d
   2411e:	4630      	mov	r0, r6
   24120:	4621      	mov	r1, r4
   24122:	462a      	mov	r2, r5
   24124:	df03      	svc	3
   24126:	2802      	cmp	r0, #2
   24128:	d00c      	beq.n	24144 <_ZN20complex_full_dynamic3app17hfead65042ae0b20aE+0x74>
   2412a:	a816      	add	r0, sp, #88	@ 0x58
   2412c:	2103      	movs	r1, #3
   2412e:	7201      	strb	r1, [r0, #8]
   24130:	9616      	str	r6, [sp, #88]	@ 0x58
   24132:	9417      	str	r4, [sp, #92]	@ 0x5c
   24134:	4812      	ldr	r0, [pc, #72]	@ (24180 <_ZN20complex_full_dynamic3app17hfead65042ae0b20aE+0xb0>)
   24136:	2600      	movs	r6, #0
   24138:	4631      	mov	r1, r6
   2413a:	4622      	mov	r2, r4
   2413c:	4633      	mov	r3, r6
   2413e:	df02      	svc	2
   24140:	287f      	cmp	r0, #127	@ 0x7f
   24142:	d80b      	bhi.n	2415c <_ZN20complex_full_dynamic3app17hfead65042ae0b20aE+0x8c>
   24144:	9c03      	ldr	r4, [sp, #12]
   24146:	6061      	str	r1, [r4, #4]
   24148:	2601      	movs	r6, #1
   2414a:	7026      	strb	r6, [r4, #0]
   2414c:	a816      	add	r0, sp, #88	@ 0x58
   2414e:	f002 fee3 	bl	26f18 <_ZN9allow_pin12full_dynamic17unshare_if_shared17h34fb2a9288def0c2E>
   24152:	a804      	add	r0, sp, #16
   24154:	f002 fee0 	bl	26f18 <_ZN9allow_pin12full_dynamic17unshare_if_shared17h34fb2a9288def0c2E>
   24158:	b031      	add	sp, #196	@ 0xc4
   2415a:	bdf0      	pop	{r4, r5, r6, r7, pc}
   2415c:	a804      	add	r0, sp, #16
   2415e:	f002 fedb 	bl	26f18 <_ZN9allow_pin12full_dynamic17unshare_if_shared17h34fb2a9288def0c2E>
   24162:	ac16      	add	r4, sp, #88	@ 0x58
   24164:	4620      	mov	r0, r4
   24166:	f002 fed7 	bl	26f18 <_ZN9allow_pin12full_dynamic17unshare_if_shared17h34fb2a9288def0c2E>
   2416a:	4620      	mov	r0, r4
   2416c:	f002 fed4 	bl	26f18 <_ZN9allow_pin12full_dynamic17unshare_if_shared17h34fb2a9288def0c2E>
   24170:	9c03      	ldr	r4, [sp, #12]
   24172:	1c60      	adds	r0, r4, #1
   24174:	225d      	movs	r2, #93	@ 0x5d
   24176:	4629      	mov	r1, r5
   24178:	f003 f88f 	bl	2729a <__aeabi_memcpy>
   2417c:	e7e5      	b.n	2414a <_ZN20complex_full_dynamic3app17hfead65042ae0b20aE+0x7a>
   2417e:	46c0      	nop			@ (mov r8, r8)
   24180:	000014a4 	.word	0x000014a4

00024184 <_ZN20complex_full_dynamic3app17hfed1d6ed1fd962a6E>:
   24184:	b5f0      	push	{r4, r5, r6, r7, lr}
   24186:	af03      	add	r7, sp, #12
   24188:	b0ab      	sub	sp, #172	@ 0xac
   2418a:	9003      	str	r0, [sp, #12]
   2418c:	ae04      	add	r6, sp, #16
   2418e:	2402      	movs	r4, #2
   24190:	7234      	strb	r4, [r6, #8]
   24192:	360c      	adds	r6, #12
   24194:	2261      	movs	r2, #97	@ 0x61
   24196:	9202      	str	r2, [sp, #8]
   24198:	4630      	mov	r0, r6
   2419a:	f003 f87e 	bl	2729a <__aeabi_memcpy>
   2419e:	ad20      	add	r5, sp, #128	@ 0x80
   241a0:	2000      	movs	r0, #0
   241a2:	8528      	strh	r0, [r5, #40]	@ 0x28
   241a4:	722c      	strb	r4, [r5, #8]
   241a6:	9029      	str	r0, [sp, #164]	@ 0xa4
   241a8:	9028      	str	r0, [sp, #160]	@ 0xa0
   241aa:	9027      	str	r0, [sp, #156]	@ 0x9c
   241ac:	9026      	str	r0, [sp, #152]	@ 0x98
   241ae:	9025      	str	r0, [sp, #148]	@ 0x94
   241b0:	9024      	str	r0, [sp, #144]	@ 0x90
   241b2:	9023      	str	r0, [sp, #140]	@ 0x8c
   241b4:	2031      	movs	r0, #49	@ 0x31
   241b6:	00c0      	lsls	r0, r0, #3
   241b8:	2404      	movs	r4, #4
   241ba:	9001      	str	r0, [sp, #4]
   241bc:	4621      	mov	r1, r4
   241be:	4632      	mov	r2, r6
   241c0:	9b02      	ldr	r3, [sp, #8]
   241c2:	df04      	svc	4
   241c4:	2802      	cmp	r0, #2
   241c6:	d019      	beq.n	241fc <_ZN20complex_full_dynamic3app17hfed1d6ed1fd962a6E+0x78>
   241c8:	350c      	adds	r5, #12
   241ca:	a804      	add	r0, sp, #16
   241cc:	7204      	strb	r4, [r0, #8]
   241ce:	9405      	str	r4, [sp, #20]
   241d0:	9801      	ldr	r0, [sp, #4]
   241d2:	9004      	str	r0, [sp, #16]
   241d4:	2406      	movs	r4, #6
   241d6:	231e      	movs	r3, #30
   241d8:	4621      	mov	r1, r4
   241da:	462a      	mov	r2, r5
   241dc:	df03      	svc	3
   241de:	2802      	cmp	r0, #2
   241e0:	d00c      	beq.n	241fc <_ZN20complex_full_dynamic3app17hfed1d6ed1fd962a6E+0x78>
   241e2:	a820      	add	r0, sp, #128	@ 0x80
   241e4:	2103      	movs	r1, #3
   241e6:	7201      	strb	r1, [r0, #8]
   241e8:	9801      	ldr	r0, [sp, #4]
   241ea:	9020      	str	r0, [sp, #128]	@ 0x80
   241ec:	9421      	str	r4, [sp, #132]	@ 0x84
   241ee:	2104      	movs	r1, #4
   241f0:	2600      	movs	r6, #0
   241f2:	4622      	mov	r2, r4
   241f4:	4633      	mov	r3, r6
   241f6:	df02      	svc	2
   241f8:	287f      	cmp	r0, #127	@ 0x7f
   241fa:	d80b      	bhi.n	24214 <_ZN20complex_full_dynamic3app17hfed1d6ed1fd962a6E+0x90>
   241fc:	9c03      	ldr	r4, [sp, #12]
   241fe:	6061      	str	r1, [r4, #4]
   24200:	2601      	movs	r6, #1
   24202:	7026      	strb	r6, [r4, #0]
   24204:	a820      	add	r0, sp, #128	@ 0x80
   24206:	f002 fe87 	bl	26f18 <_ZN9allow_pin12full_dynamic17unshare_if_shared17h34fb2a9288def0c2E>
   2420a:	a804      	add	r0, sp, #16
   2420c:	f002 fe84 	bl	26f18 <_ZN9allow_pin12full_dynamic17unshare_if_shared17h34fb2a9288def0c2E>
   24210:	b02b      	add	sp, #172	@ 0xac
   24212:	bdf0      	pop	{r4, r5, r6, r7, pc}
   24214:	a804      	add	r0, sp, #16
   24216:	f002 fe7f 	bl	26f18 <_ZN9allow_pin12full_dynamic17unshare_if_shared17h34fb2a9288def0c2E>
   2421a:	ac20      	add	r4, sp, #128	@ 0x80
   2421c:	4620      	mov	r0, r4
   2421e:	f002 fe7b 	bl	26f18 <_ZN9allow_pin12full_dynamic17unshare_if_shared17h34fb2a9288def0c2E>
   24222:	4620      	mov	r0, r4
   24224:	f002 fe78 	bl	26f18 <_ZN9allow_pin12full_dynamic17unshare_if_shared17h34fb2a9288def0c2E>
   24228:	9c03      	ldr	r4, [sp, #12]
   2422a:	1c60      	adds	r0, r4, #1
   2422c:	221e      	movs	r2, #30
   2422e:	4629      	mov	r1, r5
   24230:	f003 f833 	bl	2729a <__aeabi_memcpy>
   24234:	e7e5      	b.n	24202 <_ZN20complex_full_dynamic3app17hfed1d6ed1fd962a6E+0x7e>
   24236:	d4d4      	bmi.n	241e2 <_ZN20complex_full_dynamic3app17hfed1d6ed1fd962a6E+0x5e>

00024238 <_start>:
   24238:	b5f0      	push	{r4, r5, r6, r7, lr}
   2423a:	af03      	add	r7, sp, #12
   2423c:	4e27      	ldr	r6, [pc, #156]	@ (242dc <_start+0xa4>)
   2423e:	44b5      	add	sp, r6
   24240:	4827      	ldr	r0, [pc, #156]	@ (242e0 <_start+0xa8>)
   24242:	4468      	add	r0, sp
   24244:	9008      	str	r0, [sp, #32]
   24246:	ae1f      	add	r6, sp, #124	@ 0x7c
   24248:	4635      	mov	r5, r6
   2424a:	350c      	adds	r5, #12
   2424c:	2128      	movs	r1, #40	@ 0x28
   2424e:	910b      	str	r1, [sp, #44]	@ 0x2c
   24250:	4628      	mov	r0, r5
   24252:	f002 fe75 	bl	26f40 <__aeabi_memclr4>
   24256:	2402      	movs	r4, #2
   24258:	7234      	strb	r4, [r6, #8]
   2425a:	4e22      	ldr	r6, [pc, #136]	@ (242e4 <_start+0xac>)
   2425c:	446e      	add	r6, sp
   2425e:	4630      	mov	r0, r6
   24260:	300c      	adds	r0, #12
   24262:	2151      	movs	r1, #81	@ 0x51
   24264:	9007      	str	r0, [sp, #28]
   24266:	f002 fe6b 	bl	26f40 <__aeabi_memclr4>
   2426a:	940a      	str	r4, [sp, #40]	@ 0x28
   2426c:	7234      	strb	r4, [r6, #8]
   2426e:	4c1e      	ldr	r4, [pc, #120]	@ (242e8 <_start+0xb0>)
   24270:	2609      	movs	r6, #9
   24272:	4620      	mov	r0, r4
   24274:	4631      	mov	r1, r6
   24276:	462a      	mov	r2, r5
   24278:	9b0b      	ldr	r3, [sp, #44]	@ 0x2c
   2427a:	df04      	svc	4
   2427c:	460a      	mov	r2, r1
   2427e:	a94b      	add	r1, sp, #300	@ 0x12c
   24280:	9106      	str	r1, [sp, #24]
   24282:	491a      	ldr	r1, [pc, #104]	@ (242ec <_start+0xb4>)
   24284:	4469      	add	r1, sp
   24286:	9104      	str	r1, [sp, #16]
   24288:	4919      	ldr	r1, [pc, #100]	@ (242f0 <_start+0xb8>)
   2428a:	4469      	add	r1, sp
   2428c:	9105      	str	r1, [sp, #20]
   2428e:	2501      	movs	r5, #1
   24290:	2802      	cmp	r0, #2
   24292:	9509      	str	r5, [sp, #36]	@ 0x24
   24294:	d101      	bne.n	2429a <_start+0x62>
   24296:	920b      	str	r2, [sp, #44]	@ 0x2c
   24298:	e05a      	b.n	24350 <_start+0x118>
   2429a:	a81f      	add	r0, sp, #124	@ 0x7c
   2429c:	2104      	movs	r1, #4
   2429e:	7201      	strb	r1, [r0, #8]
   242a0:	941f      	str	r4, [sp, #124]	@ 0x7c
   242a2:	9620      	str	r6, [sp, #128]	@ 0x80
   242a4:	2351      	movs	r3, #81	@ 0x51
   242a6:	4620      	mov	r0, r4
   242a8:	4631      	mov	r1, r6
   242aa:	9a07      	ldr	r2, [sp, #28]
   242ac:	df03      	svc	3
   242ae:	2802      	cmp	r0, #2
   242b0:	d101      	bne.n	242b6 <_start+0x7e>
   242b2:	910b      	str	r1, [sp, #44]	@ 0x2c
   242b4:	e04c      	b.n	24350 <_start+0x118>
   242b6:	480b      	ldr	r0, [pc, #44]	@ (242e4 <_start+0xac>)
   242b8:	4468      	add	r0, sp
   242ba:	2103      	movs	r1, #3
   242bc:	7201      	strb	r1, [r0, #8]
   242be:	9808      	ldr	r0, [sp, #32]
   242c0:	65c4      	str	r4, [r0, #92]	@ 0x5c
   242c2:	6606      	str	r6, [r0, #96]	@ 0x60
   242c4:	4808      	ldr	r0, [pc, #32]	@ (242e8 <_start+0xb0>)
   242c6:	2500      	movs	r5, #0
   242c8:	4631      	mov	r1, r6
   242ca:	4632      	mov	r2, r6
   242cc:	462b      	mov	r3, r5
   242ce:	df02      	svc	2
   242d0:	287f      	cmp	r0, #127	@ 0x7f
   242d2:	d80f      	bhi.n	242f4 <_start+0xbc>
   242d4:	910b      	str	r1, [sp, #44]	@ 0x2c
   242d6:	9d09      	ldr	r5, [sp, #36]	@ 0x24
   242d8:	e03a      	b.n	24350 <_start+0x118>
   242da:	46c0      	nop			@ (mov r8, r8)
   242dc:	ffffeadc 	.word	0xffffeadc
   242e0:	000013a8 	.word	0x000013a8
   242e4:	00001404 	.word	0x00001404
   242e8:	00002006 	.word	0x00002006
   242ec:	00000508 	.word	0x00000508
   242f0:	000007dc 	.word	0x000007dc
   242f4:	a81f      	add	r0, sp, #124	@ 0x7c
   242f6:	f002 fe0f 	bl	26f18 <_ZN9allow_pin12full_dynamic17unshare_if_shared17h34fb2a9288def0c2E>
   242fa:	4e14      	ldr	r6, [pc, #80]	@ (2434c <_start+0x114>)
   242fc:	446e      	add	r6, sp
   242fe:	4630      	mov	r0, r6
   24300:	f002 fe0a 	bl	26f18 <_ZN9allow_pin12full_dynamic17unshare_if_shared17h34fb2a9288def0c2E>
   24304:	4630      	mov	r0, r6
   24306:	f002 fe07 	bl	26f18 <_ZN9allow_pin12full_dynamic17unshare_if_shared17h34fb2a9288def0c2E>
   2430a:	9a07      	ldr	r2, [sp, #28]
   2430c:	7890      	ldrb	r0, [r2, #2]
   2430e:	a92f      	add	r1, sp, #188	@ 0xbc
   24310:	7088      	strb	r0, [r1, #2]
   24312:	7810      	ldrb	r0, [r2, #0]
   24314:	7852      	ldrb	r2, [r2, #1]
   24316:	0212      	lsls	r2, r2, #8
   24318:	1810      	adds	r0, r2, r0
   2431a:	8008      	strh	r0, [r1, #0]
   2431c:	7cb0      	ldrb	r0, [r6, #18]
   2431e:	900b      	str	r0, [sp, #44]	@ 0x2c
   24320:	7c70      	ldrb	r0, [r6, #17]
   24322:	9007      	str	r0, [sp, #28]
   24324:	7bf0      	ldrb	r0, [r6, #15]
   24326:	9003      	str	r0, [sp, #12]
   24328:	7c34      	ldrb	r4, [r6, #16]
   2432a:	3613      	adds	r6, #19
   2432c:	a80c      	add	r0, sp, #48	@ 0x30
   2432e:	224a      	movs	r2, #74	@ 0x4a
   24330:	4631      	mov	r1, r6
   24332:	f002 ffb2 	bl	2729a <__aeabi_memcpy>
   24336:	0220      	lsls	r0, r4, #8
   24338:	9903      	ldr	r1, [sp, #12]
   2433a:	1840      	adds	r0, r0, r1
   2433c:	9907      	ldr	r1, [sp, #28]
   2433e:	0409      	lsls	r1, r1, #16
   24340:	9a0b      	ldr	r2, [sp, #44]	@ 0x2c
   24342:	0612      	lsls	r2, r2, #24
   24344:	1851      	adds	r1, r2, r1
   24346:	1808      	adds	r0, r1, r0
   24348:	900b      	str	r0, [sp, #44]	@ 0x2c
   2434a:	e001      	b.n	24350 <_start+0x118>
   2434c:	00001404 	.word	0x00001404
   24350:	4804      	ldr	r0, [pc, #16]	@ (24364 <_start+0x12c>)
   24352:	4468      	add	r0, sp
   24354:	f002 fde0 	bl	26f18 <_ZN9allow_pin12full_dynamic17unshare_if_shared17h34fb2a9288def0c2E>
   24358:	a81f      	add	r0, sp, #124	@ 0x7c
   2435a:	f002 fddd 	bl	26f18 <_ZN9allow_pin12full_dynamic17unshare_if_shared17h34fb2a9288def0c2E>
   2435e:	2d00      	cmp	r5, #0
   24360:	d002      	beq.n	24368 <_start+0x130>
   24362:	e241      	b.n	247e8 <_start+0x5b0>
   24364:	00001404 	.word	0x00001404
   24368:	4d18      	ldr	r5, [pc, #96]	@ (243cc <_start+0x194>)
   2436a:	446d      	add	r5, sp
   2436c:	982f      	ldr	r0, [sp, #188]	@ 0xbc
   2436e:	81a8      	strh	r0, [r5, #12]
   24370:	a82f      	add	r0, sp, #188	@ 0xbc
   24372:	7880      	ldrb	r0, [r0, #2]
   24374:	73a8      	strb	r0, [r5, #14]
   24376:	4c16      	ldr	r4, [pc, #88]	@ (243d0 <_start+0x198>)
   24378:	446c      	add	r4, sp
   2437a:	a90c      	add	r1, sp, #48	@ 0x30
   2437c:	264a      	movs	r6, #74	@ 0x4a
   2437e:	4620      	mov	r0, r4
   24380:	4632      	mov	r2, r6
   24382:	f002 fe2a 	bl	26fda <__aeabi_memcpy4>
   24386:	4628      	mov	r0, r5
   24388:	3013      	adds	r0, #19
   2438a:	4621      	mov	r1, r4
   2438c:	4632      	mov	r2, r6
   2438e:	f002 ff84 	bl	2729a <__aeabi_memcpy>
   24392:	990b      	ldr	r1, [sp, #44]	@ 0x2c
   24394:	0e08      	lsrs	r0, r1, #24
   24396:	74a8      	strb	r0, [r5, #18]
   24398:	0c08      	lsrs	r0, r1, #16
   2439a:	7468      	strb	r0, [r5, #17]
   2439c:	0a08      	lsrs	r0, r1, #8
   2439e:	7428      	strb	r0, [r5, #16]
   243a0:	73e9      	strb	r1, [r5, #15]
   243a2:	9c0a      	ldr	r4, [sp, #40]	@ 0x28
   243a4:	722c      	strb	r4, [r5, #8]
   243a6:	4e0a      	ldr	r6, [pc, #40]	@ (243d0 <_start+0x198>)
   243a8:	446e      	add	r6, sp
   243aa:	4630      	mov	r0, r6
   243ac:	300c      	adds	r0, #12
   243ae:	2146      	movs	r1, #70	@ 0x46
   243b0:	900b      	str	r0, [sp, #44]	@ 0x2c
   243b2:	f002 fdc5 	bl	26f40 <__aeabi_memclr4>
   243b6:	7234      	strb	r4, [r6, #8]
   243b8:	350c      	adds	r5, #12
   243ba:	4806      	ldr	r0, [pc, #24]	@ (243d4 <_start+0x19c>)
   243bc:	2607      	movs	r6, #7
   243be:	2351      	movs	r3, #81	@ 0x51
   243c0:	4631      	mov	r1, r6
   243c2:	462a      	mov	r2, r5
   243c4:	df04      	svc	4
   243c6:	2802      	cmp	r0, #2
   243c8:	d030      	beq.n	2442c <_start+0x1f4>
   243ca:	e005      	b.n	243d8 <_start+0x1a0>
   243cc:	00001404 	.word	0x00001404
   243d0:	000013a8 	.word	0x000013a8
   243d4:	000020c4 	.word	0x000020c4
   243d8:	4808      	ldr	r0, [pc, #32]	@ (243fc <_start+0x1c4>)
   243da:	4468      	add	r0, sp
   243dc:	2104      	movs	r1, #4
   243de:	7201      	strb	r1, [r0, #8]
   243e0:	4c07      	ldr	r4, [pc, #28]	@ (24400 <_start+0x1c8>)
   243e2:	34be      	adds	r4, #190	@ 0xbe
   243e4:	9d08      	ldr	r5, [sp, #32]
   243e6:	65ec      	str	r4, [r5, #92]	@ 0x5c
   243e8:	662e      	str	r6, [r5, #96]	@ 0x60
   243ea:	4806      	ldr	r0, [pc, #24]	@ (24404 <_start+0x1cc>)
   243ec:	2600      	movs	r6, #0
   243ee:	2346      	movs	r3, #70	@ 0x46
   243f0:	4631      	mov	r1, r6
   243f2:	9a0b      	ldr	r2, [sp, #44]	@ 0x2c
   243f4:	df03      	svc	3
   243f6:	2802      	cmp	r0, #2
   243f8:	d018      	beq.n	2442c <_start+0x1f4>
   243fa:	e005      	b.n	24408 <_start+0x1d0>
   243fc:	00001404 	.word	0x00001404
   24400:	00002006 	.word	0x00002006
   24404:	000020c4 	.word	0x000020c4
   24408:	4806      	ldr	r0, [pc, #24]	@ (24424 <_start+0x1ec>)
   2440a:	4468      	add	r0, sp
   2440c:	2103      	movs	r1, #3
   2440e:	7201      	strb	r1, [r0, #8]
   24410:	c550      	stmia	r5!, {r4, r6}
   24412:	4805      	ldr	r0, [pc, #20]	@ (24428 <_start+0x1f0>)
   24414:	2107      	movs	r1, #7
   24416:	4632      	mov	r2, r6
   24418:	4633      	mov	r3, r6
   2441a:	df02      	svc	2
   2441c:	287f      	cmp	r0, #127	@ 0x7f
   2441e:	d905      	bls.n	2442c <_start+0x1f4>
   24420:	e1f4      	b.n	2480c <_start+0x5d4>
   24422:	46c0      	nop			@ (mov r8, r8)
   24424:	000013a8 	.word	0x000013a8
   24428:	000020c4 	.word	0x000020c4
   2442c:	910b      	str	r1, [sp, #44]	@ 0x2c
   2442e:	9e09      	ldr	r6, [sp, #36]	@ 0x24
   24430:	48f0      	ldr	r0, [pc, #960]	@ (247f4 <_start+0x5bc>)
   24432:	4468      	add	r0, sp
   24434:	f002 fd70 	bl	26f18 <_ZN9allow_pin12full_dynamic17unshare_if_shared17h34fb2a9288def0c2E>
   24438:	48ef      	ldr	r0, [pc, #956]	@ (247f8 <_start+0x5c0>)
   2443a:	4468      	add	r0, sp
   2443c:	f002 fd6c 	bl	26f18 <_ZN9allow_pin12full_dynamic17unshare_if_shared17h34fb2a9288def0c2E>
   24440:	2e00      	cmp	r6, #0
   24442:	d000      	beq.n	24446 <_start+0x20e>
   24444:	e1d0      	b.n	247e8 <_start+0x5b0>
   24446:	49ec      	ldr	r1, [pc, #944]	@ (247f8 <_start+0x5c0>)
   24448:	4469      	add	r1, sp
   2444a:	9107      	str	r1, [sp, #28]
   2444c:	982f      	ldr	r0, [sp, #188]	@ 0xbc
   2444e:	8188      	strh	r0, [r1, #12]
   24450:	a82f      	add	r0, sp, #188	@ 0xbc
   24452:	7880      	ldrb	r0, [r0, #2]
   24454:	7388      	strb	r0, [r1, #14]
   24456:	a81f      	add	r0, sp, #124	@ 0x7c
   24458:	a90c      	add	r1, sp, #48	@ 0x30
   2445a:	460a      	mov	r2, r1
   2445c:	c858      	ldmia	r0!, {r3, r4, r6}
   2445e:	c258      	stmia	r2!, {r3, r4, r6}
   24460:	c878      	ldmia	r0!, {r3, r4, r5, r6}
   24462:	c278      	stmia	r2!, {r3, r4, r5, r6}
   24464:	c878      	ldmia	r0!, {r3, r4, r5, r6}
   24466:	c278      	stmia	r2!, {r3, r4, r5, r6}
   24468:	c878      	ldmia	r0!, {r3, r4, r5, r6}
   2446a:	c278      	stmia	r2!, {r3, r4, r5, r6}
   2446c:	8803      	ldrh	r3, [r0, #0]
   2446e:	8013      	strh	r3, [r2, #0]
   24470:	7880      	ldrb	r0, [r0, #2]
   24472:	7090      	strb	r0, [r2, #2]
   24474:	9c07      	ldr	r4, [sp, #28]
   24476:	4620      	mov	r0, r4
   24478:	3013      	adds	r0, #19
   2447a:	223f      	movs	r2, #63	@ 0x3f
   2447c:	f002 ff0d 	bl	2729a <__aeabi_memcpy>
   24480:	990b      	ldr	r1, [sp, #44]	@ 0x2c
   24482:	0e08      	lsrs	r0, r1, #24
   24484:	4622      	mov	r2, r4
   24486:	74a0      	strb	r0, [r4, #18]
   24488:	0c08      	lsrs	r0, r1, #16
   2448a:	7460      	strb	r0, [r4, #17]
   2448c:	0a08      	lsrs	r0, r1, #8
   2448e:	7420      	strb	r0, [r4, #16]
   24490:	73e1      	strb	r1, [r4, #15]
   24492:	980a      	ldr	r0, [sp, #40]	@ 0x28
   24494:	7220      	strb	r0, [r4, #8]
   24496:	4cd7      	ldr	r4, [pc, #860]	@ (247f4 <_start+0x5bc>)
   24498:	446c      	add	r4, sp
   2449a:	7220      	strb	r0, [r4, #8]
   2449c:	2000      	movs	r0, #0
   2449e:	9d08      	ldr	r5, [sp, #32]
   244a0:	60e8      	str	r0, [r5, #12]
   244a2:	6128      	str	r0, [r5, #16]
   244a4:	6168      	str	r0, [r5, #20]
   244a6:	61a8      	str	r0, [r5, #24]
   244a8:	61e8      	str	r0, [r5, #28]
   244aa:	6228      	str	r0, [r5, #32]
   244ac:	320c      	adds	r2, #12
   244ae:	48d3      	ldr	r0, [pc, #844]	@ (247fc <_start+0x5c4>)
   244b0:	2603      	movs	r6, #3
   244b2:	2346      	movs	r3, #70	@ 0x46
   244b4:	4631      	mov	r1, r6
   244b6:	df04      	svc	4
   244b8:	2802      	cmp	r0, #2
   244ba:	9607      	str	r6, [sp, #28]
   244bc:	d01c      	beq.n	244f8 <_start+0x2c0>
   244be:	340c      	adds	r4, #12
   244c0:	48cd      	ldr	r0, [pc, #820]	@ (247f8 <_start+0x5c0>)
   244c2:	4468      	add	r0, sp
   244c4:	2104      	movs	r1, #4
   244c6:	7201      	strb	r1, [r0, #8]
   244c8:	48cc      	ldr	r0, [pc, #816]	@ (247fc <_start+0x5c4>)
   244ca:	65e8      	str	r0, [r5, #92]	@ 0x5c
   244cc:	662e      	str	r6, [r5, #96]	@ 0x60
   244ce:	2502      	movs	r5, #2
   244d0:	2318      	movs	r3, #24
   244d2:	4629      	mov	r1, r5
   244d4:	4622      	mov	r2, r4
   244d6:	df03      	svc	3
   244d8:	2802      	cmp	r0, #2
   244da:	d00d      	beq.n	244f8 <_start+0x2c0>
   244dc:	48c5      	ldr	r0, [pc, #788]	@ (247f4 <_start+0x5bc>)
   244de:	4468      	add	r0, sp
   244e0:	7206      	strb	r6, [r0, #8]
   244e2:	48c6      	ldr	r0, [pc, #792]	@ (247fc <_start+0x5c4>)
   244e4:	9908      	ldr	r1, [sp, #32]
   244e6:	c121      	stmia	r1!, {r0, r5}
   244e8:	2300      	movs	r3, #0
   244ea:	4631      	mov	r1, r6
   244ec:	462a      	mov	r2, r5
   244ee:	9303      	str	r3, [sp, #12]
   244f0:	df02      	svc	2
   244f2:	287f      	cmp	r0, #127	@ 0x7f
   244f4:	d900      	bls.n	244f8 <_start+0x2c0>
   244f6:	e1b6      	b.n	24866 <_start+0x62e>
   244f8:	910b      	str	r1, [sp, #44]	@ 0x2c
   244fa:	9c09      	ldr	r4, [sp, #36]	@ 0x24
   244fc:	48bd      	ldr	r0, [pc, #756]	@ (247f4 <_start+0x5bc>)
   244fe:	4468      	add	r0, sp
   24500:	f002 fd0a 	bl	26f18 <_ZN9allow_pin12full_dynamic17unshare_if_shared17h34fb2a9288def0c2E>
   24504:	48bc      	ldr	r0, [pc, #752]	@ (247f8 <_start+0x5c0>)
   24506:	4468      	add	r0, sp
   24508:	f002 fd06 	bl	26f18 <_ZN9allow_pin12full_dynamic17unshare_if_shared17h34fb2a9288def0c2E>
   2450c:	2c00      	cmp	r4, #0
   2450e:	d000      	beq.n	24512 <_start+0x2da>
   24510:	e16a      	b.n	247e8 <_start+0x5b0>
   24512:	ad1f      	add	r5, sp, #124	@ 0x7c
   24514:	9834      	ldr	r0, [sp, #208]	@ 0xd0
   24516:	81a8      	strh	r0, [r5, #12]
   24518:	a834      	add	r0, sp, #208	@ 0xd0
   2451a:	7880      	ldrb	r0, [r0, #2]
   2451c:	73a8      	strb	r0, [r5, #14]
   2451e:	a92f      	add	r1, sp, #188	@ 0xbc
   24520:	aa0c      	add	r2, sp, #48	@ 0x30
   24522:	9203      	str	r2, [sp, #12]
   24524:	c959      	ldmia	r1!, {r0, r3, r4, r6}
   24526:	c259      	stmia	r2!, {r0, r3, r4, r6}
   24528:	7808      	ldrb	r0, [r1, #0]
   2452a:	7010      	strb	r0, [r2, #0]
   2452c:	4628      	mov	r0, r5
   2452e:	3013      	adds	r0, #19
   24530:	2211      	movs	r2, #17
   24532:	9903      	ldr	r1, [sp, #12]
   24534:	f002 feb1 	bl	2729a <__aeabi_memcpy>
   24538:	990b      	ldr	r1, [sp, #44]	@ 0x2c
   2453a:	0e08      	lsrs	r0, r1, #24
   2453c:	74a8      	strb	r0, [r5, #18]
   2453e:	0c08      	lsrs	r0, r1, #16
   24540:	7468      	strb	r0, [r5, #17]
   24542:	0a08      	lsrs	r0, r1, #8
   24544:	7428      	strb	r0, [r5, #16]
   24546:	73e9      	strb	r1, [r5, #15]
   24548:	980a      	ldr	r0, [sp, #40]	@ 0x28
   2454a:	7228      	strb	r0, [r5, #8]
   2454c:	4eaa      	ldr	r6, [pc, #680]	@ (247f8 <_start+0x5c0>)
   2454e:	446e      	add	r6, sp
   24550:	4634      	mov	r4, r6
   24552:	340c      	adds	r4, #12
   24554:	2136      	movs	r1, #54	@ 0x36
   24556:	4620      	mov	r0, r4
   24558:	f002 fcf2 	bl	26f40 <__aeabi_memclr4>
   2455c:	980a      	ldr	r0, [sp, #40]	@ 0x28
   2455e:	7230      	strb	r0, [r6, #8]
   24560:	350c      	adds	r5, #12
   24562:	48a7      	ldr	r0, [pc, #668]	@ (24800 <_start+0x5c8>)
   24564:	2600      	movs	r6, #0
   24566:	2318      	movs	r3, #24
   24568:	4631      	mov	r1, r6
   2456a:	462a      	mov	r2, r5
   2456c:	df04      	svc	4
   2456e:	2802      	cmp	r0, #2
   24570:	9603      	str	r6, [sp, #12]
   24572:	d01e      	beq.n	245b2 <_start+0x37a>
   24574:	a81f      	add	r0, sp, #124	@ 0x7c
   24576:	2104      	movs	r1, #4
   24578:	7201      	strb	r1, [r0, #8]
   2457a:	9620      	str	r6, [sp, #128]	@ 0x80
   2457c:	4ea0      	ldr	r6, [pc, #640]	@ (24800 <_start+0x5c8>)
   2457e:	961f      	str	r6, [sp, #124]	@ 0x7c
   24580:	2507      	movs	r5, #7
   24582:	2336      	movs	r3, #54	@ 0x36
   24584:	4630      	mov	r0, r6
   24586:	4629      	mov	r1, r5
   24588:	940b      	str	r4, [sp, #44]	@ 0x2c
   2458a:	4622      	mov	r2, r4
   2458c:	df03      	svc	3
   2458e:	2802      	cmp	r0, #2
   24590:	d00f      	beq.n	245b2 <_start+0x37a>
   24592:	4899      	ldr	r0, [pc, #612]	@ (247f8 <_start+0x5c0>)
   24594:	4468      	add	r0, sp
   24596:	9907      	ldr	r1, [sp, #28]
   24598:	7201      	strb	r1, [r0, #8]
   2459a:	9808      	ldr	r0, [sp, #32]
   2459c:	65c6      	str	r6, [r0, #92]	@ 0x5c
   2459e:	6605      	str	r5, [r0, #96]	@ 0x60
   245a0:	4897      	ldr	r0, [pc, #604]	@ (24800 <_start+0x5c8>)
   245a2:	2400      	movs	r4, #0
   245a4:	4621      	mov	r1, r4
   245a6:	462a      	mov	r2, r5
   245a8:	4623      	mov	r3, r4
   245aa:	df02      	svc	2
   245ac:	287f      	cmp	r0, #127	@ 0x7f
   245ae:	d900      	bls.n	245b2 <_start+0x37a>
   245b0:	e184      	b.n	248bc <_start+0x684>
   245b2:	910b      	str	r1, [sp, #44]	@ 0x2c
   245b4:	9c09      	ldr	r4, [sp, #36]	@ 0x24
   245b6:	4890      	ldr	r0, [pc, #576]	@ (247f8 <_start+0x5c0>)
   245b8:	4468      	add	r0, sp
   245ba:	f002 fcad 	bl	26f18 <_ZN9allow_pin12full_dynamic17unshare_if_shared17h34fb2a9288def0c2E>
   245be:	a81f      	add	r0, sp, #124	@ 0x7c
   245c0:	f002 fcaa 	bl	26f18 <_ZN9allow_pin12full_dynamic17unshare_if_shared17h34fb2a9288def0c2E>
   245c4:	2c00      	cmp	r4, #0
   245c6:	d000      	beq.n	245ca <_start+0x392>
   245c8:	e10e      	b.n	247e8 <_start+0x5b0>
   245ca:	498b      	ldr	r1, [pc, #556]	@ (247f8 <_start+0x5c0>)
   245cc:	4469      	add	r1, sp
   245ce:	9102      	str	r1, [sp, #8]
   245d0:	982f      	ldr	r0, [sp, #188]	@ 0xbc
   245d2:	8188      	strh	r0, [r1, #12]
   245d4:	a82f      	add	r0, sp, #188	@ 0xbc
   245d6:	7880      	ldrb	r0, [r0, #2]
   245d8:	7388      	strb	r0, [r1, #14]
   245da:	a80c      	add	r0, sp, #48	@ 0x30
   245dc:	4985      	ldr	r1, [pc, #532]	@ (247f4 <_start+0x5bc>)
   245de:	4469      	add	r1, sp
   245e0:	460a      	mov	r2, r1
   245e2:	c858      	ldmia	r0!, {r3, r4, r6}
   245e4:	c258      	stmia	r2!, {r3, r4, r6}
   245e6:	c878      	ldmia	r0!, {r3, r4, r5, r6}
   245e8:	c278      	stmia	r2!, {r3, r4, r5, r6}
   245ea:	c878      	ldmia	r0!, {r3, r4, r5, r6}
   245ec:	c278      	stmia	r2!, {r3, r4, r5, r6}
   245ee:	8803      	ldrh	r3, [r0, #0]
   245f0:	8013      	strh	r3, [r2, #0]
   245f2:	7880      	ldrb	r0, [r0, #2]
   245f4:	7090      	strb	r0, [r2, #2]
   245f6:	9c02      	ldr	r4, [sp, #8]
   245f8:	4620      	mov	r0, r4
   245fa:	3013      	adds	r0, #19
   245fc:	222f      	movs	r2, #47	@ 0x2f
   245fe:	f002 fe4c 	bl	2729a <__aeabi_memcpy>
   24602:	990b      	ldr	r1, [sp, #44]	@ 0x2c
   24604:	0e08      	lsrs	r0, r1, #24
   24606:	74a0      	strb	r0, [r4, #18]
   24608:	0c08      	lsrs	r0, r1, #16
   2460a:	7460      	strb	r0, [r4, #17]
   2460c:	0a08      	lsrs	r0, r1, #8
   2460e:	7420      	strb	r0, [r4, #16]
   24610:	73e1      	strb	r1, [r4, #15]
   24612:	9e0a      	ldr	r6, [sp, #40]	@ 0x28
   24614:	7226      	strb	r6, [r4, #8]
   24616:	4d77      	ldr	r5, [pc, #476]	@ (247f4 <_start+0x5bc>)
   24618:	446d      	add	r5, sp
   2461a:	4628      	mov	r0, r5
   2461c:	300c      	adds	r0, #12
   2461e:	2125      	movs	r1, #37	@ 0x25
   24620:	900b      	str	r0, [sp, #44]	@ 0x2c
   24622:	f002 fc8d 	bl	26f40 <__aeabi_memclr4>
   24626:	722e      	strb	r6, [r5, #8]
   24628:	340c      	adds	r4, #12
   2462a:	4876      	ldr	r0, [pc, #472]	@ (24804 <_start+0x5cc>)
   2462c:	2607      	movs	r6, #7
   2462e:	2336      	movs	r3, #54	@ 0x36
   24630:	4631      	mov	r1, r6
   24632:	4622      	mov	r2, r4
   24634:	df04      	svc	4
   24636:	2802      	cmp	r0, #2
   24638:	d01c      	beq.n	24674 <_start+0x43c>
   2463a:	486f      	ldr	r0, [pc, #444]	@ (247f8 <_start+0x5c0>)
   2463c:	4468      	add	r0, sp
   2463e:	2104      	movs	r1, #4
   24640:	7201      	strb	r1, [r0, #8]
   24642:	9d08      	ldr	r5, [sp, #32]
   24644:	486f      	ldr	r0, [pc, #444]	@ (24804 <_start+0x5cc>)
   24646:	65e8      	str	r0, [r5, #92]	@ 0x5c
   24648:	662e      	str	r6, [r5, #96]	@ 0x60
   2464a:	2600      	movs	r6, #0
   2464c:	2325      	movs	r3, #37	@ 0x25
   2464e:	4631      	mov	r1, r6
   24650:	9c0b      	ldr	r4, [sp, #44]	@ 0x2c
   24652:	4622      	mov	r2, r4
   24654:	df03      	svc	3
   24656:	2802      	cmp	r0, #2
   24658:	d00c      	beq.n	24674 <_start+0x43c>
   2465a:	4866      	ldr	r0, [pc, #408]	@ (247f4 <_start+0x5bc>)
   2465c:	4468      	add	r0, sp
   2465e:	9907      	ldr	r1, [sp, #28]
   24660:	7201      	strb	r1, [r0, #8]
   24662:	4868      	ldr	r0, [pc, #416]	@ (24804 <_start+0x5cc>)
   24664:	c541      	stmia	r5!, {r0, r6}
   24666:	2107      	movs	r1, #7
   24668:	4632      	mov	r2, r6
   2466a:	4633      	mov	r3, r6
   2466c:	df02      	svc	2
   2466e:	287f      	cmp	r0, #127	@ 0x7f
   24670:	d900      	bls.n	24674 <_start+0x43c>
   24672:	e14f      	b.n	24914 <_start+0x6dc>
   24674:	910b      	str	r1, [sp, #44]	@ 0x2c
   24676:	9e09      	ldr	r6, [sp, #36]	@ 0x24
   24678:	485e      	ldr	r0, [pc, #376]	@ (247f4 <_start+0x5bc>)
   2467a:	4468      	add	r0, sp
   2467c:	f002 fc4c 	bl	26f18 <_ZN9allow_pin12full_dynamic17unshare_if_shared17h34fb2a9288def0c2E>
   24680:	485d      	ldr	r0, [pc, #372]	@ (247f8 <_start+0x5c0>)
   24682:	4468      	add	r0, sp
   24684:	f002 fc48 	bl	26f18 <_ZN9allow_pin12full_dynamic17unshare_if_shared17h34fb2a9288def0c2E>
   24688:	2e00      	cmp	r6, #0
   2468a:	d000      	beq.n	2468e <_start+0x456>
   2468c:	e0ac      	b.n	247e8 <_start+0x5b0>
   2468e:	495a      	ldr	r1, [pc, #360]	@ (247f8 <_start+0x5c0>)
   24690:	4469      	add	r1, sp
   24692:	9102      	str	r1, [sp, #8]
   24694:	982f      	ldr	r0, [sp, #188]	@ 0xbc
   24696:	8188      	strh	r0, [r1, #12]
   24698:	a82f      	add	r0, sp, #188	@ 0xbc
   2469a:	7880      	ldrb	r0, [r0, #2]
   2469c:	7388      	strb	r0, [r1, #14]
   2469e:	a81f      	add	r0, sp, #124	@ 0x7c
   246a0:	a90c      	add	r1, sp, #48	@ 0x30
   246a2:	460a      	mov	r2, r1
   246a4:	c858      	ldmia	r0!, {r3, r4, r6}
   246a6:	c258      	stmia	r2!, {r3, r4, r6}
   246a8:	c878      	ldmia	r0!, {r3, r4, r5, r6}
   246aa:	c278      	stmia	r2!, {r3, r4, r5, r6}
   246ac:	8800      	ldrh	r0, [r0, #0]
   246ae:	8010      	strh	r0, [r2, #0]
   246b0:	9c02      	ldr	r4, [sp, #8]
   246b2:	4620      	mov	r0, r4
   246b4:	3013      	adds	r0, #19
   246b6:	221e      	movs	r2, #30
   246b8:	f002 fdef 	bl	2729a <__aeabi_memcpy>
   246bc:	990b      	ldr	r1, [sp, #44]	@ 0x2c
   246be:	0e08      	lsrs	r0, r1, #24
   246c0:	4622      	mov	r2, r4
   246c2:	74a0      	strb	r0, [r4, #18]
   246c4:	0c08      	lsrs	r0, r1, #16
   246c6:	7460      	strb	r0, [r4, #17]
   246c8:	0a08      	lsrs	r0, r1, #8
   246ca:	7420      	strb	r0, [r4, #16]
   246cc:	73e1      	strb	r1, [r4, #15]
   246ce:	990a      	ldr	r1, [sp, #40]	@ 0x28
   246d0:	7221      	strb	r1, [r4, #8]
   246d2:	4c48      	ldr	r4, [pc, #288]	@ (247f4 <_start+0x5bc>)
   246d4:	446c      	add	r4, sp
   246d6:	9803      	ldr	r0, [sp, #12]
   246d8:	8320      	strh	r0, [r4, #24]
   246da:	7221      	strb	r1, [r4, #8]
   246dc:	9d08      	ldr	r5, [sp, #32]
   246de:	60e8      	str	r0, [r5, #12]
   246e0:	6128      	str	r0, [r5, #16]
   246e2:	6168      	str	r0, [r5, #20]
   246e4:	320c      	adds	r2, #12
   246e6:	4848      	ldr	r0, [pc, #288]	@ (24808 <_start+0x5d0>)
   246e8:	2325      	movs	r3, #37	@ 0x25
   246ea:	460e      	mov	r6, r1
   246ec:	df04      	svc	4
   246ee:	2802      	cmp	r0, #2
   246f0:	d01e      	beq.n	24730 <_start+0x4f8>
   246f2:	340c      	adds	r4, #12
   246f4:	4840      	ldr	r0, [pc, #256]	@ (247f8 <_start+0x5c0>)
   246f6:	4468      	add	r0, sp
   246f8:	2104      	movs	r1, #4
   246fa:	7201      	strb	r1, [r0, #8]
   246fc:	4842      	ldr	r0, [pc, #264]	@ (24808 <_start+0x5d0>)
   246fe:	65e8      	str	r0, [r5, #92]	@ 0x5c
   24700:	662e      	str	r6, [r5, #96]	@ 0x60
   24702:	2508      	movs	r5, #8
   24704:	230e      	movs	r3, #14
   24706:	4629      	mov	r1, r5
   24708:	4622      	mov	r2, r4
   2470a:	df03      	svc	3
   2470c:	2802      	cmp	r0, #2
   2470e:	d00f      	beq.n	24730 <_start+0x4f8>
   24710:	4838      	ldr	r0, [pc, #224]	@ (247f4 <_start+0x5bc>)
   24712:	4468      	add	r0, sp
   24714:	9907      	ldr	r1, [sp, #28]
   24716:	7201      	strb	r1, [r0, #8]
   24718:	9808      	ldr	r0, [sp, #32]
   2471a:	493b      	ldr	r1, [pc, #236]	@ (24808 <_start+0x5d0>)
   2471c:	c022      	stmia	r0!, {r1, r5}
   2471e:	483a      	ldr	r0, [pc, #232]	@ (24808 <_start+0x5d0>)
   24720:	2102      	movs	r1, #2
   24722:	2300      	movs	r3, #0
   24724:	462a      	mov	r2, r5
   24726:	461d      	mov	r5, r3
   24728:	df02      	svc	2
   2472a:	287f      	cmp	r0, #127	@ 0x7f
   2472c:	d900      	bls.n	24730 <_start+0x4f8>
   2472e:	e11d      	b.n	2496c <_start+0x734>
   24730:	910b      	str	r1, [sp, #44]	@ 0x2c
   24732:	9d09      	ldr	r5, [sp, #36]	@ 0x24
   24734:	482f      	ldr	r0, [pc, #188]	@ (247f4 <_start+0x5bc>)
   24736:	4468      	add	r0, sp
   24738:	f002 fbee 	bl	26f18 <_ZN9allow_pin12full_dynamic17unshare_if_shared17h34fb2a9288def0c2E>
   2473c:	482e      	ldr	r0, [pc, #184]	@ (247f8 <_start+0x5c0>)
   2473e:	4468      	add	r0, sp
   24740:	f002 fbea 	bl	26f18 <_ZN9allow_pin12full_dynamic17unshare_if_shared17h34fb2a9288def0c2E>
   24744:	2d00      	cmp	r5, #0
   24746:	d14f      	bne.n	247e8 <_start+0x5b0>
   24748:	ac35      	add	r4, sp, #212	@ 0xd4
   2474a:	982f      	ldr	r0, [sp, #188]	@ 0xbc
   2474c:	8020      	strh	r0, [r4, #0]
   2474e:	a90c      	add	r1, sp, #48	@ 0x30
   24750:	9820      	ldr	r0, [sp, #128]	@ 0x80
   24752:	8088      	strh	r0, [r1, #4]
   24754:	a82f      	add	r0, sp, #188	@ 0xbc
   24756:	7880      	ldrb	r0, [r0, #2]
   24758:	70a0      	strb	r0, [r4, #2]
   2475a:	a81f      	add	r0, sp, #124	@ 0x7c
   2475c:	7980      	ldrb	r0, [r0, #6]
   2475e:	7188      	strb	r0, [r1, #6]
   24760:	9a0b      	ldr	r2, [sp, #44]	@ 0x2c
   24762:	70e2      	strb	r2, [r4, #3]
   24764:	0e10      	lsrs	r0, r2, #24
   24766:	71a0      	strb	r0, [r4, #6]
   24768:	0c10      	lsrs	r0, r2, #16
   2476a:	7160      	strb	r0, [r4, #5]
   2476c:	0a10      	lsrs	r0, r2, #8
   2476e:	7120      	strb	r0, [r4, #4]
   24770:	981f      	ldr	r0, [sp, #124]	@ 0x7c
   24772:	900c      	str	r0, [sp, #48]	@ 0x30
   24774:	1de0      	adds	r0, r4, #7
   24776:	2207      	movs	r2, #7
   24778:	f002 fd8f 	bl	2729a <__aeabi_memcpy>
   2477c:	4d1e      	ldr	r5, [pc, #120]	@ (247f8 <_start+0x5c0>)
   2477e:	446d      	add	r5, sp
   24780:	4628      	mov	r0, r5
   24782:	4621      	mov	r1, r4
   24784:	f7fb fd60 	bl	20248 <_ZN20complex_full_dynamic3app17h02435da38f0d3df3E>
   24788:	7828      	ldrb	r0, [r5, #0]
   2478a:	2801      	cmp	r0, #1
   2478c:	d029      	beq.n	247e2 <_start+0x5aa>
   2478e:	491a      	ldr	r1, [pc, #104]	@ (247f8 <_start+0x5c0>)
   24790:	4469      	add	r1, sp
   24792:	78c8      	ldrb	r0, [r1, #3]
   24794:	ac39      	add	r4, sp, #228	@ 0xe4
   24796:	70a0      	strb	r0, [r4, #2]
   24798:	7848      	ldrb	r0, [r1, #1]
   2479a:	788a      	ldrb	r2, [r1, #2]
   2479c:	0212      	lsls	r2, r2, #8
   2479e:	1810      	adds	r0, r2, r0
   247a0:	8020      	strh	r0, [r4, #0]
   247a2:	9808      	ldr	r0, [sp, #32]
   247a4:	6e05      	ldr	r5, [r0, #96]	@ 0x60
   247a6:	3108      	adds	r1, #8
   247a8:	4812      	ldr	r0, [pc, #72]	@ (247f4 <_start+0x5bc>)
   247aa:	4468      	add	r0, sp
   247ac:	900b      	str	r0, [sp, #44]	@ 0x2c
   247ae:	2641      	movs	r6, #65	@ 0x41
   247b0:	4632      	mov	r2, r6
   247b2:	f002 fc12 	bl	26fda <__aeabi_memcpy4>
   247b6:	0e28      	lsrs	r0, r5, #24
   247b8:	71a0      	strb	r0, [r4, #6]
   247ba:	0c28      	lsrs	r0, r5, #16
   247bc:	7160      	strb	r0, [r4, #5]
   247be:	0a28      	lsrs	r0, r5, #8
   247c0:	7120      	strb	r0, [r4, #4]
   247c2:	70e5      	strb	r5, [r4, #3]
   247c4:	1de0      	adds	r0, r4, #7
   247c6:	990b      	ldr	r1, [sp, #44]	@ 0x2c
   247c8:	4632      	mov	r2, r6
   247ca:	f002 fd66 	bl	2729a <__aeabi_memcpy>
   247ce:	4d0a      	ldr	r5, [pc, #40]	@ (247f8 <_start+0x5c0>)
   247d0:	446d      	add	r5, sp
   247d2:	4628      	mov	r0, r5
   247d4:	4621      	mov	r1, r4
   247d6:	f7fe f8b5 	bl	22944 <_ZN20complex_full_dynamic3app17ha3741751c1b9e062E>
   247da:	7828      	ldrb	r0, [r5, #0]
   247dc:	2801      	cmp	r0, #1
   247de:	d000      	beq.n	247e2 <_start+0x5aa>
   247e0:	e0f8      	b.n	249d4 <_start+0x79c>
   247e2:	9808      	ldr	r0, [sp, #32]
   247e4:	6e00      	ldr	r0, [r0, #96]	@ 0x60
   247e6:	900b      	str	r0, [sp, #44]	@ 0x2c
   247e8:	2001      	movs	r0, #1
   247ea:	990b      	ldr	r1, [sp, #44]	@ 0x2c
   247ec:	1ffe      	subs	r6, r7, #7
   247ee:	3e05      	subs	r6, #5
   247f0:	46b5      	mov	sp, r6
   247f2:	bdf0      	pop	{r4, r5, r6, r7, pc}
   247f4:	000013a8 	.word	0x000013a8
   247f8:	00001404 	.word	0x00001404
   247fc:	000023cf 	.word	0x000023cf
   24800:	0000021f 	.word	0x0000021f
   24804:	00001597 	.word	0x00001597
   24808:	00000667 	.word	0x00000667
   2480c:	4889      	ldr	r0, [pc, #548]	@ (24a34 <_start+0x7fc>)
   2480e:	4468      	add	r0, sp
   24810:	f002 fb82 	bl	26f18 <_ZN9allow_pin12full_dynamic17unshare_if_shared17h34fb2a9288def0c2E>
   24814:	4d88      	ldr	r5, [pc, #544]	@ (24a38 <_start+0x800>)
   24816:	446d      	add	r5, sp
   24818:	4628      	mov	r0, r5
   2481a:	f002 fb7d 	bl	26f18 <_ZN9allow_pin12full_dynamic17unshare_if_shared17h34fb2a9288def0c2E>
   2481e:	4628      	mov	r0, r5
   24820:	f002 fb7a 	bl	26f18 <_ZN9allow_pin12full_dynamic17unshare_if_shared17h34fb2a9288def0c2E>
   24824:	9a0b      	ldr	r2, [sp, #44]	@ 0x2c
   24826:	7890      	ldrb	r0, [r2, #2]
   24828:	a92f      	add	r1, sp, #188	@ 0xbc
   2482a:	7088      	strb	r0, [r1, #2]
   2482c:	7810      	ldrb	r0, [r2, #0]
   2482e:	7852      	ldrb	r2, [r2, #1]
   24830:	0212      	lsls	r2, r2, #8
   24832:	1810      	adds	r0, r2, r0
   24834:	8008      	strh	r0, [r1, #0]
   24836:	7ca8      	ldrb	r0, [r5, #18]
   24838:	900b      	str	r0, [sp, #44]	@ 0x2c
   2483a:	7c68      	ldrb	r0, [r5, #17]
   2483c:	9007      	str	r0, [sp, #28]
   2483e:	7be8      	ldrb	r0, [r5, #15]
   24840:	9003      	str	r0, [sp, #12]
   24842:	7c2c      	ldrb	r4, [r5, #16]
   24844:	3513      	adds	r5, #19
   24846:	a81f      	add	r0, sp, #124	@ 0x7c
   24848:	223f      	movs	r2, #63	@ 0x3f
   2484a:	4629      	mov	r1, r5
   2484c:	f002 fd25 	bl	2729a <__aeabi_memcpy>
   24850:	0220      	lsls	r0, r4, #8
   24852:	9903      	ldr	r1, [sp, #12]
   24854:	1840      	adds	r0, r0, r1
   24856:	9907      	ldr	r1, [sp, #28]
   24858:	0409      	lsls	r1, r1, #16
   2485a:	9a0b      	ldr	r2, [sp, #44]	@ 0x2c
   2485c:	0612      	lsls	r2, r2, #24
   2485e:	1851      	adds	r1, r2, r1
   24860:	1808      	adds	r0, r1, r0
   24862:	900b      	str	r0, [sp, #44]	@ 0x2c
   24864:	e5e4      	b.n	24430 <_start+0x1f8>
   24866:	4873      	ldr	r0, [pc, #460]	@ (24a34 <_start+0x7fc>)
   24868:	4468      	add	r0, sp
   2486a:	f002 fb55 	bl	26f18 <_ZN9allow_pin12full_dynamic17unshare_if_shared17h34fb2a9288def0c2E>
   2486e:	4e72      	ldr	r6, [pc, #456]	@ (24a38 <_start+0x800>)
   24870:	446e      	add	r6, sp
   24872:	4630      	mov	r0, r6
   24874:	f002 fb50 	bl	26f18 <_ZN9allow_pin12full_dynamic17unshare_if_shared17h34fb2a9288def0c2E>
   24878:	4630      	mov	r0, r6
   2487a:	f002 fb4d 	bl	26f18 <_ZN9allow_pin12full_dynamic17unshare_if_shared17h34fb2a9288def0c2E>
   2487e:	78a0      	ldrb	r0, [r4, #2]
   24880:	a934      	add	r1, sp, #208	@ 0xd0
   24882:	7088      	strb	r0, [r1, #2]
   24884:	7820      	ldrb	r0, [r4, #0]
   24886:	7862      	ldrb	r2, [r4, #1]
   24888:	0212      	lsls	r2, r2, #8
   2488a:	1810      	adds	r0, r2, r0
   2488c:	8008      	strh	r0, [r1, #0]
   2488e:	7cb0      	ldrb	r0, [r6, #18]
   24890:	900b      	str	r0, [sp, #44]	@ 0x2c
   24892:	7c70      	ldrb	r0, [r6, #17]
   24894:	9002      	str	r0, [sp, #8]
   24896:	7bf4      	ldrb	r4, [r6, #15]
   24898:	7c35      	ldrb	r5, [r6, #16]
   2489a:	3613      	adds	r6, #19
   2489c:	a82f      	add	r0, sp, #188	@ 0xbc
   2489e:	2211      	movs	r2, #17
   248a0:	4631      	mov	r1, r6
   248a2:	f002 fcfa 	bl	2729a <__aeabi_memcpy>
   248a6:	0228      	lsls	r0, r5, #8
   248a8:	1900      	adds	r0, r0, r4
   248aa:	9902      	ldr	r1, [sp, #8]
   248ac:	0409      	lsls	r1, r1, #16
   248ae:	9a0b      	ldr	r2, [sp, #44]	@ 0x2c
   248b0:	0612      	lsls	r2, r2, #24
   248b2:	1851      	adds	r1, r2, r1
   248b4:	1808      	adds	r0, r1, r0
   248b6:	900b      	str	r0, [sp, #44]	@ 0x2c
   248b8:	9c03      	ldr	r4, [sp, #12]
   248ba:	e61f      	b.n	244fc <_start+0x2c4>
   248bc:	a81f      	add	r0, sp, #124	@ 0x7c
   248be:	f002 fb2b 	bl	26f18 <_ZN9allow_pin12full_dynamic17unshare_if_shared17h34fb2a9288def0c2E>
   248c2:	4d5c      	ldr	r5, [pc, #368]	@ (24a34 <_start+0x7fc>)
   248c4:	446d      	add	r5, sp
   248c6:	4628      	mov	r0, r5
   248c8:	f002 fb26 	bl	26f18 <_ZN9allow_pin12full_dynamic17unshare_if_shared17h34fb2a9288def0c2E>
   248cc:	4628      	mov	r0, r5
   248ce:	f002 fb23 	bl	26f18 <_ZN9allow_pin12full_dynamic17unshare_if_shared17h34fb2a9288def0c2E>
   248d2:	9a0b      	ldr	r2, [sp, #44]	@ 0x2c
   248d4:	7890      	ldrb	r0, [r2, #2]
   248d6:	a92f      	add	r1, sp, #188	@ 0xbc
   248d8:	7088      	strb	r0, [r1, #2]
   248da:	7810      	ldrb	r0, [r2, #0]
   248dc:	7852      	ldrb	r2, [r2, #1]
   248de:	0212      	lsls	r2, r2, #8
   248e0:	1810      	adds	r0, r2, r0
   248e2:	8008      	strh	r0, [r1, #0]
   248e4:	7ca8      	ldrb	r0, [r5, #18]
   248e6:	900b      	str	r0, [sp, #44]	@ 0x2c
   248e8:	7c68      	ldrb	r0, [r5, #17]
   248ea:	9002      	str	r0, [sp, #8]
   248ec:	7be8      	ldrb	r0, [r5, #15]
   248ee:	9001      	str	r0, [sp, #4]
   248f0:	7c2e      	ldrb	r6, [r5, #16]
   248f2:	3513      	adds	r5, #19
   248f4:	a80c      	add	r0, sp, #48	@ 0x30
   248f6:	222f      	movs	r2, #47	@ 0x2f
   248f8:	4629      	mov	r1, r5
   248fa:	f002 fcce 	bl	2729a <__aeabi_memcpy>
   248fe:	0230      	lsls	r0, r6, #8
   24900:	9901      	ldr	r1, [sp, #4]
   24902:	1840      	adds	r0, r0, r1
   24904:	9902      	ldr	r1, [sp, #8]
   24906:	0409      	lsls	r1, r1, #16
   24908:	9a0b      	ldr	r2, [sp, #44]	@ 0x2c
   2490a:	0612      	lsls	r2, r2, #24
   2490c:	1851      	adds	r1, r2, r1
   2490e:	1808      	adds	r0, r1, r0
   24910:	900b      	str	r0, [sp, #44]	@ 0x2c
   24912:	e650      	b.n	245b6 <_start+0x37e>
   24914:	4847      	ldr	r0, [pc, #284]	@ (24a34 <_start+0x7fc>)
   24916:	4468      	add	r0, sp
   24918:	f002 fafe 	bl	26f18 <_ZN9allow_pin12full_dynamic17unshare_if_shared17h34fb2a9288def0c2E>
   2491c:	4d46      	ldr	r5, [pc, #280]	@ (24a38 <_start+0x800>)
   2491e:	446d      	add	r5, sp
   24920:	4628      	mov	r0, r5
   24922:	f002 faf9 	bl	26f18 <_ZN9allow_pin12full_dynamic17unshare_if_shared17h34fb2a9288def0c2E>
   24926:	4628      	mov	r0, r5
   24928:	f002 faf6 	bl	26f18 <_ZN9allow_pin12full_dynamic17unshare_if_shared17h34fb2a9288def0c2E>
   2492c:	78a0      	ldrb	r0, [r4, #2]
   2492e:	a92f      	add	r1, sp, #188	@ 0xbc
   24930:	7088      	strb	r0, [r1, #2]
   24932:	7820      	ldrb	r0, [r4, #0]
   24934:	7862      	ldrb	r2, [r4, #1]
   24936:	0212      	lsls	r2, r2, #8
   24938:	1810      	adds	r0, r2, r0
   2493a:	8008      	strh	r0, [r1, #0]
   2493c:	7ca8      	ldrb	r0, [r5, #18]
   2493e:	900b      	str	r0, [sp, #44]	@ 0x2c
   24940:	7c68      	ldrb	r0, [r5, #17]
   24942:	9002      	str	r0, [sp, #8]
   24944:	7be8      	ldrb	r0, [r5, #15]
   24946:	9001      	str	r0, [sp, #4]
   24948:	7c2c      	ldrb	r4, [r5, #16]
   2494a:	3513      	adds	r5, #19
   2494c:	a81f      	add	r0, sp, #124	@ 0x7c
   2494e:	221e      	movs	r2, #30
   24950:	4629      	mov	r1, r5
   24952:	f002 fca2 	bl	2729a <__aeabi_memcpy>
   24956:	0220      	lsls	r0, r4, #8
   24958:	9901      	ldr	r1, [sp, #4]
   2495a:	1840      	adds	r0, r0, r1
   2495c:	9902      	ldr	r1, [sp, #8]
   2495e:	0409      	lsls	r1, r1, #16
   24960:	9a0b      	ldr	r2, [sp, #44]	@ 0x2c
   24962:	0612      	lsls	r2, r2, #24
   24964:	1851      	adds	r1, r2, r1
   24966:	1808      	adds	r0, r1, r0
   24968:	900b      	str	r0, [sp, #44]	@ 0x2c
   2496a:	e685      	b.n	24678 <_start+0x440>
   2496c:	4831      	ldr	r0, [pc, #196]	@ (24a34 <_start+0x7fc>)
   2496e:	4468      	add	r0, sp
   24970:	f002 fad2 	bl	26f18 <_ZN9allow_pin12full_dynamic17unshare_if_shared17h34fb2a9288def0c2E>
   24974:	4e30      	ldr	r6, [pc, #192]	@ (24a38 <_start+0x800>)
   24976:	446e      	add	r6, sp
   24978:	4630      	mov	r0, r6
   2497a:	f002 facd 	bl	26f18 <_ZN9allow_pin12full_dynamic17unshare_if_shared17h34fb2a9288def0c2E>
   2497e:	4630      	mov	r0, r6
   24980:	f002 faca 	bl	26f18 <_ZN9allow_pin12full_dynamic17unshare_if_shared17h34fb2a9288def0c2E>
   24984:	78a0      	ldrb	r0, [r4, #2]
   24986:	a92f      	add	r1, sp, #188	@ 0xbc
   24988:	7088      	strb	r0, [r1, #2]
   2498a:	7e70      	ldrb	r0, [r6, #25]
   2498c:	aa1f      	add	r2, sp, #124	@ 0x7c
   2498e:	7190      	strb	r0, [r2, #6]
   24990:	7820      	ldrb	r0, [r4, #0]
   24992:	7863      	ldrb	r3, [r4, #1]
   24994:	021b      	lsls	r3, r3, #8
   24996:	1818      	adds	r0, r3, r0
   24998:	8008      	strh	r0, [r1, #0]
   2499a:	7df0      	ldrb	r0, [r6, #23]
   2499c:	9908      	ldr	r1, [sp, #32]
   2499e:	6989      	ldr	r1, [r1, #24]
   249a0:	0209      	lsls	r1, r1, #8
   249a2:	1808      	adds	r0, r1, r0
   249a4:	8090      	strh	r0, [r2, #4]
   249a6:	7cf0      	ldrb	r0, [r6, #19]
   249a8:	7d31      	ldrb	r1, [r6, #20]
   249aa:	0209      	lsls	r1, r1, #8
   249ac:	1808      	adds	r0, r1, r0
   249ae:	7d71      	ldrb	r1, [r6, #21]
   249b0:	0409      	lsls	r1, r1, #16
   249b2:	7db2      	ldrb	r2, [r6, #22]
   249b4:	0612      	lsls	r2, r2, #24
   249b6:	1851      	adds	r1, r2, r1
   249b8:	1808      	adds	r0, r1, r0
   249ba:	901f      	str	r0, [sp, #124]	@ 0x7c
   249bc:	7bf0      	ldrb	r0, [r6, #15]
   249be:	7c31      	ldrb	r1, [r6, #16]
   249c0:	0209      	lsls	r1, r1, #8
   249c2:	1808      	adds	r0, r1, r0
   249c4:	7c71      	ldrb	r1, [r6, #17]
   249c6:	0409      	lsls	r1, r1, #16
   249c8:	7cb2      	ldrb	r2, [r6, #18]
   249ca:	0612      	lsls	r2, r2, #24
   249cc:	1851      	adds	r1, r2, r1
   249ce:	1808      	adds	r0, r1, r0
   249d0:	900b      	str	r0, [sp, #44]	@ 0x2c
   249d2:	e6af      	b.n	24734 <_start+0x4fc>
   249d4:	9806      	ldr	r0, [sp, #24]
   249d6:	1cc0      	adds	r0, r0, #3
   249d8:	4a16      	ldr	r2, [pc, #88]	@ (24a34 <_start+0x7fc>)
   249da:	446a      	add	r2, sp
   249dc:	78d3      	ldrb	r3, [r2, #3]
   249de:	a94b      	add	r1, sp, #300	@ 0x12c
   249e0:	708b      	strb	r3, [r1, #2]
   249e2:	7853      	ldrb	r3, [r2, #1]
   249e4:	7892      	ldrb	r2, [r2, #2]
   249e6:	0212      	lsls	r2, r2, #8
   249e8:	18d2      	adds	r2, r2, r3
   249ea:	800a      	strh	r2, [r1, #0]
   249ec:	9e08      	ldr	r6, [sp, #32]
   249ee:	4634      	mov	r4, r6
   249f0:	3460      	adds	r4, #96	@ 0x60
   249f2:	cc1c      	ldmia	r4, {r2, r3, r4}
   249f4:	0e25      	lsrs	r5, r4, #24
   249f6:	72c5      	strb	r5, [r0, #11]
   249f8:	0c25      	lsrs	r5, r4, #16
   249fa:	7285      	strb	r5, [r0, #10]
   249fc:	0a25      	lsrs	r5, r4, #8
   249fe:	7245      	strb	r5, [r0, #9]
   24a00:	7204      	strb	r4, [r0, #8]
   24a02:	0e1c      	lsrs	r4, r3, #24
   24a04:	71c4      	strb	r4, [r0, #7]
   24a06:	0c1c      	lsrs	r4, r3, #16
   24a08:	7184      	strb	r4, [r0, #6]
   24a0a:	0a1c      	lsrs	r4, r3, #8
   24a0c:	7144      	strb	r4, [r0, #5]
   24a0e:	7103      	strb	r3, [r0, #4]
   24a10:	0e13      	lsrs	r3, r2, #24
   24a12:	70c3      	strb	r3, [r0, #3]
   24a14:	0c13      	lsrs	r3, r2, #16
   24a16:	7083      	strb	r3, [r0, #2]
   24a18:	0a13      	lsrs	r3, r2, #8
   24a1a:	7043      	strb	r3, [r0, #1]
   24a1c:	7002      	strb	r2, [r0, #0]
   24a1e:	4c05      	ldr	r4, [pc, #20]	@ (24a34 <_start+0x7fc>)
   24a20:	446c      	add	r4, sp
   24a22:	4620      	mov	r0, r4
   24a24:	f7ff f83a 	bl	23a9c <_ZN20complex_full_dynamic3app17he39496730f9c46afE>
   24a28:	7820      	ldrb	r0, [r4, #0]
   24a2a:	2801      	cmp	r0, #1
   24a2c:	d106      	bne.n	24a3c <_start+0x804>
   24a2e:	6e30      	ldr	r0, [r6, #96]	@ 0x60
   24a30:	e6d9      	b.n	247e6 <_start+0x5ae>
   24a32:	46c0      	nop			@ (mov r8, r8)
   24a34:	00001404 	.word	0x00001404
   24a38:	000013a8 	.word	0x000013a8
   24a3c:	4816      	ldr	r0, [pc, #88]	@ (24a98 <_start+0x860>)
   24a3e:	4468      	add	r0, sp
   24a40:	78c1      	ldrb	r1, [r0, #3]
   24a42:	ac4f      	add	r4, sp, #316	@ 0x13c
   24a44:	70a1      	strb	r1, [r4, #2]
   24a46:	7841      	ldrb	r1, [r0, #1]
   24a48:	7882      	ldrb	r2, [r0, #2]
   24a4a:	0212      	lsls	r2, r2, #8
   24a4c:	1851      	adds	r1, r2, r1
   24a4e:	8021      	strh	r1, [r4, #0]
   24a50:	3008      	adds	r0, #8
   24a52:	6e31      	ldr	r1, [r6, #96]	@ 0x60
   24a54:	910a      	str	r1, [sp, #40]	@ 0x28
   24a56:	4b11      	ldr	r3, [pc, #68]	@ (24a9c <_start+0x864>)
   24a58:	446b      	add	r3, sp
   24a5a:	930b      	str	r3, [sp, #44]	@ 0x2c
   24a5c:	c864      	ldmia	r0!, {r2, r5, r6}
   24a5e:	c364      	stmia	r3!, {r2, r5, r6}
   24a60:	c866      	ldmia	r0!, {r1, r2, r5, r6}
   24a62:	c366      	stmia	r3!, {r1, r2, r5, r6}
   24a64:	8800      	ldrh	r0, [r0, #0]
   24a66:	8018      	strh	r0, [r3, #0]
   24a68:	990a      	ldr	r1, [sp, #40]	@ 0x28
   24a6a:	0e08      	lsrs	r0, r1, #24
   24a6c:	71a0      	strb	r0, [r4, #6]
   24a6e:	0c08      	lsrs	r0, r1, #16
   24a70:	7160      	strb	r0, [r4, #5]
   24a72:	0a08      	lsrs	r0, r1, #8
   24a74:	7120      	strb	r0, [r4, #4]
   24a76:	70e1      	strb	r1, [r4, #3]
   24a78:	1de0      	adds	r0, r4, #7
   24a7a:	221e      	movs	r2, #30
   24a7c:	990b      	ldr	r1, [sp, #44]	@ 0x2c
   24a7e:	f002 fc0c 	bl	2729a <__aeabi_memcpy>
   24a82:	4d05      	ldr	r5, [pc, #20]	@ (24a98 <_start+0x860>)
   24a84:	446d      	add	r5, sp
   24a86:	4628      	mov	r0, r5
   24a88:	4621      	mov	r1, r4
   24a8a:	f7fb fb85 	bl	20198 <_ZN20complex_full_dynamic3app17h0118d1d0addf5875E>
   24a8e:	7828      	ldrb	r0, [r5, #0]
   24a90:	2801      	cmp	r0, #1
   24a92:	d105      	bne.n	24aa0 <_start+0x868>
   24a94:	e6a5      	b.n	247e2 <_start+0x5aa>
   24a96:	46c0      	nop			@ (mov r8, r8)
   24a98:	00001404 	.word	0x00001404
   24a9c:	000013a8 	.word	0x000013a8
   24aa0:	4817      	ldr	r0, [pc, #92]	@ (24b00 <_start+0x8c8>)
   24aa2:	4468      	add	r0, sp
   24aa4:	78c1      	ldrb	r1, [r0, #3]
   24aa6:	ac59      	add	r4, sp, #356	@ 0x164
   24aa8:	70a1      	strb	r1, [r4, #2]
   24aaa:	7841      	ldrb	r1, [r0, #1]
   24aac:	7882      	ldrb	r2, [r0, #2]
   24aae:	0212      	lsls	r2, r2, #8
   24ab0:	1851      	adds	r1, r2, r1
   24ab2:	8021      	strh	r1, [r4, #0]
   24ab4:	3008      	adds	r0, #8
   24ab6:	9908      	ldr	r1, [sp, #32]
   24ab8:	6e09      	ldr	r1, [r1, #96]	@ 0x60
   24aba:	910a      	str	r1, [sp, #40]	@ 0x28
   24abc:	4b11      	ldr	r3, [pc, #68]	@ (24b04 <_start+0x8cc>)
   24abe:	446b      	add	r3, sp
   24ac0:	930b      	str	r3, [sp, #44]	@ 0x2c
   24ac2:	c866      	ldmia	r0!, {r1, r2, r5, r6}
   24ac4:	c366      	stmia	r3!, {r1, r2, r5, r6}
   24ac6:	c866      	ldmia	r0!, {r1, r2, r5, r6}
   24ac8:	c366      	stmia	r3!, {r1, r2, r5, r6}
   24aca:	8801      	ldrh	r1, [r0, #0]
   24acc:	8019      	strh	r1, [r3, #0]
   24ace:	7880      	ldrb	r0, [r0, #2]
   24ad0:	7098      	strb	r0, [r3, #2]
   24ad2:	990a      	ldr	r1, [sp, #40]	@ 0x28
   24ad4:	0e08      	lsrs	r0, r1, #24
   24ad6:	71a0      	strb	r0, [r4, #6]
   24ad8:	0c08      	lsrs	r0, r1, #16
   24ada:	7160      	strb	r0, [r4, #5]
   24adc:	0a08      	lsrs	r0, r1, #8
   24ade:	7120      	strb	r0, [r4, #4]
   24ae0:	70e1      	strb	r1, [r4, #3]
   24ae2:	1de0      	adds	r0, r4, #7
   24ae4:	2223      	movs	r2, #35	@ 0x23
   24ae6:	990b      	ldr	r1, [sp, #44]	@ 0x2c
   24ae8:	f002 fbd7 	bl	2729a <__aeabi_memcpy>
   24aec:	4d04      	ldr	r5, [pc, #16]	@ (24b00 <_start+0x8c8>)
   24aee:	446d      	add	r5, sp
   24af0:	4628      	mov	r0, r5
   24af2:	4621      	mov	r1, r4
   24af4:	f7fe ff7a 	bl	239ec <_ZN20complex_full_dynamic3app17he108823a1b5e9d88E>
   24af8:	7828      	ldrb	r0, [r5, #0]
   24afa:	2801      	cmp	r0, #1
   24afc:	d104      	bne.n	24b08 <_start+0x8d0>
   24afe:	e670      	b.n	247e2 <_start+0x5aa>
   24b00:	00001404 	.word	0x00001404
   24b04:	000013a8 	.word	0x000013a8
   24b08:	4914      	ldr	r1, [pc, #80]	@ (24b5c <_start+0x924>)
   24b0a:	4469      	add	r1, sp
   24b0c:	78c8      	ldrb	r0, [r1, #3]
   24b0e:	ac64      	add	r4, sp, #400	@ 0x190
   24b10:	70a0      	strb	r0, [r4, #2]
   24b12:	7848      	ldrb	r0, [r1, #1]
   24b14:	788a      	ldrb	r2, [r1, #2]
   24b16:	0212      	lsls	r2, r2, #8
   24b18:	1810      	adds	r0, r2, r0
   24b1a:	8020      	strh	r0, [r4, #0]
   24b1c:	9808      	ldr	r0, [sp, #32]
   24b1e:	6e05      	ldr	r5, [r0, #96]	@ 0x60
   24b20:	3108      	adds	r1, #8
   24b22:	480f      	ldr	r0, [pc, #60]	@ (24b60 <_start+0x928>)
   24b24:	4468      	add	r0, sp
   24b26:	900b      	str	r0, [sp, #44]	@ 0x2c
   24b28:	265c      	movs	r6, #92	@ 0x5c
   24b2a:	4632      	mov	r2, r6
   24b2c:	f002 fa55 	bl	26fda <__aeabi_memcpy4>
   24b30:	0e28      	lsrs	r0, r5, #24
   24b32:	71a0      	strb	r0, [r4, #6]
   24b34:	0c28      	lsrs	r0, r5, #16
   24b36:	7160      	strb	r0, [r4, #5]
   24b38:	0a28      	lsrs	r0, r5, #8
   24b3a:	7120      	strb	r0, [r4, #4]
   24b3c:	70e5      	strb	r5, [r4, #3]
   24b3e:	1de0      	adds	r0, r4, #7
   24b40:	990b      	ldr	r1, [sp, #44]	@ 0x2c
   24b42:	4632      	mov	r2, r6
   24b44:	f002 fba9 	bl	2729a <__aeabi_memcpy>
   24b48:	4d04      	ldr	r5, [pc, #16]	@ (24b5c <_start+0x924>)
   24b4a:	446d      	add	r5, sp
   24b4c:	4628      	mov	r0, r5
   24b4e:	4621      	mov	r1, r4
   24b50:	f7fc fa6a 	bl	21028 <_ZN20complex_full_dynamic3app17h3435eb8f031b724cE>
   24b54:	7828      	ldrb	r0, [r5, #0]
   24b56:	2801      	cmp	r0, #1
   24b58:	d104      	bne.n	24b64 <_start+0x92c>
   24b5a:	e642      	b.n	247e2 <_start+0x5aa>
   24b5c:	00001404 	.word	0x00001404
   24b60:	000013a8 	.word	0x000013a8
   24b64:	4815      	ldr	r0, [pc, #84]	@ (24bbc <_start+0x984>)
   24b66:	4468      	add	r0, sp
   24b68:	78c1      	ldrb	r1, [r0, #3]
   24b6a:	ac7d      	add	r4, sp, #500	@ 0x1f4
   24b6c:	70a1      	strb	r1, [r4, #2]
   24b6e:	7841      	ldrb	r1, [r0, #1]
   24b70:	7882      	ldrb	r2, [r0, #2]
   24b72:	0212      	lsls	r2, r2, #8
   24b74:	1851      	adds	r1, r2, r1
   24b76:	8021      	strh	r1, [r4, #0]
   24b78:	3008      	adds	r0, #8
   24b7a:	9908      	ldr	r1, [sp, #32]
   24b7c:	6e09      	ldr	r1, [r1, #96]	@ 0x60
   24b7e:	910a      	str	r1, [sp, #40]	@ 0x28
   24b80:	4b0f      	ldr	r3, [pc, #60]	@ (24bc0 <_start+0x988>)
   24b82:	446b      	add	r3, sp
   24b84:	930b      	str	r3, [sp, #44]	@ 0x2c
   24b86:	c866      	ldmia	r0!, {r1, r2, r5, r6}
   24b88:	c366      	stmia	r3!, {r1, r2, r5, r6}
   24b8a:	c866      	ldmia	r0!, {r1, r2, r5, r6}
   24b8c:	c366      	stmia	r3!, {r1, r2, r5, r6}
   24b8e:	990a      	ldr	r1, [sp, #40]	@ 0x28
   24b90:	0e08      	lsrs	r0, r1, #24
   24b92:	71a0      	strb	r0, [r4, #6]
   24b94:	0c08      	lsrs	r0, r1, #16
   24b96:	7160      	strb	r0, [r4, #5]
   24b98:	0a08      	lsrs	r0, r1, #8
   24b9a:	7120      	strb	r0, [r4, #4]
   24b9c:	70e1      	strb	r1, [r4, #3]
   24b9e:	1de0      	adds	r0, r4, #7
   24ba0:	2220      	movs	r2, #32
   24ba2:	990b      	ldr	r1, [sp, #44]	@ 0x2c
   24ba4:	f002 fb79 	bl	2729a <__aeabi_memcpy>
   24ba8:	4d04      	ldr	r5, [pc, #16]	@ (24bbc <_start+0x984>)
   24baa:	446d      	add	r5, sp
   24bac:	4628      	mov	r0, r5
   24bae:	4621      	mov	r1, r4
   24bb0:	f7fd ff20 	bl	229f4 <_ZN20complex_full_dynamic3app17ha8371a4b094b0cc4E>
   24bb4:	7828      	ldrb	r0, [r5, #0]
   24bb6:	2801      	cmp	r0, #1
   24bb8:	d104      	bne.n	24bc4 <_start+0x98c>
   24bba:	e612      	b.n	247e2 <_start+0x5aa>
   24bbc:	00001404 	.word	0x00001404
   24bc0:	000013a8 	.word	0x000013a8
   24bc4:	4816      	ldr	r0, [pc, #88]	@ (24c20 <_start+0x9e8>)
   24bc6:	4468      	add	r0, sp
   24bc8:	78c1      	ldrb	r1, [r0, #3]
   24bca:	ac87      	add	r4, sp, #540	@ 0x21c
   24bcc:	70a1      	strb	r1, [r4, #2]
   24bce:	7841      	ldrb	r1, [r0, #1]
   24bd0:	7882      	ldrb	r2, [r0, #2]
   24bd2:	0212      	lsls	r2, r2, #8
   24bd4:	1851      	adds	r1, r2, r1
   24bd6:	8021      	strh	r1, [r4, #0]
   24bd8:	3008      	adds	r0, #8
   24bda:	9908      	ldr	r1, [sp, #32]
   24bdc:	6e09      	ldr	r1, [r1, #96]	@ 0x60
   24bde:	4b11      	ldr	r3, [pc, #68]	@ (24c24 <_start+0x9ec>)
   24be0:	446b      	add	r3, sp
   24be2:	930b      	str	r3, [sp, #44]	@ 0x2c
   24be4:	c860      	ldmia	r0!, {r5, r6}
   24be6:	c360      	stmia	r3!, {r5, r6}
   24be8:	c864      	ldmia	r0!, {r2, r5, r6}
   24bea:	c364      	stmia	r3!, {r2, r5, r6}
   24bec:	8802      	ldrh	r2, [r0, #0]
   24bee:	801a      	strh	r2, [r3, #0]
   24bf0:	7880      	ldrb	r0, [r0, #2]
   24bf2:	7098      	strb	r0, [r3, #2]
   24bf4:	0e08      	lsrs	r0, r1, #24
   24bf6:	71a0      	strb	r0, [r4, #6]
   24bf8:	0c08      	lsrs	r0, r1, #16
   24bfa:	7160      	strb	r0, [r4, #5]
   24bfc:	0a08      	lsrs	r0, r1, #8
   24bfe:	7120      	strb	r0, [r4, #4]
   24c00:	70e1      	strb	r1, [r4, #3]
   24c02:	1de0      	adds	r0, r4, #7
   24c04:	2217      	movs	r2, #23
   24c06:	990b      	ldr	r1, [sp, #44]	@ 0x2c
   24c08:	f002 fb47 	bl	2729a <__aeabi_memcpy>
   24c0c:	4d04      	ldr	r5, [pc, #16]	@ (24c20 <_start+0x9e8>)
   24c0e:	446d      	add	r5, sp
   24c10:	4628      	mov	r0, r5
   24c12:	4621      	mov	r1, r4
   24c14:	f7fd f846 	bl	21ca4 <_ZN20complex_full_dynamic3app17h6ff1d5884b4b8c0cE>
   24c18:	7828      	ldrb	r0, [r5, #0]
   24c1a:	2801      	cmp	r0, #1
   24c1c:	d104      	bne.n	24c28 <_start+0x9f0>
   24c1e:	e5e0      	b.n	247e2 <_start+0x5aa>
   24c20:	00001404 	.word	0x00001404
   24c24:	000013a8 	.word	0x000013a8
   24c28:	4816      	ldr	r0, [pc, #88]	@ (24c84 <_start+0xa4c>)
   24c2a:	4468      	add	r0, sp
   24c2c:	78c1      	ldrb	r1, [r0, #3]
   24c2e:	ac8f      	add	r4, sp, #572	@ 0x23c
   24c30:	70a1      	strb	r1, [r4, #2]
   24c32:	7841      	ldrb	r1, [r0, #1]
   24c34:	7882      	ldrb	r2, [r0, #2]
   24c36:	0212      	lsls	r2, r2, #8
   24c38:	1851      	adds	r1, r2, r1
   24c3a:	8021      	strh	r1, [r4, #0]
   24c3c:	3008      	adds	r0, #8
   24c3e:	9908      	ldr	r1, [sp, #32]
   24c40:	6e09      	ldr	r1, [r1, #96]	@ 0x60
   24c42:	4b11      	ldr	r3, [pc, #68]	@ (24c88 <_start+0xa50>)
   24c44:	446b      	add	r3, sp
   24c46:	930b      	str	r3, [sp, #44]	@ 0x2c
   24c48:	c864      	ldmia	r0!, {r2, r5, r6}
   24c4a:	c364      	stmia	r3!, {r2, r5, r6}
   24c4c:	c864      	ldmia	r0!, {r2, r5, r6}
   24c4e:	c364      	stmia	r3!, {r2, r5, r6}
   24c50:	c864      	ldmia	r0!, {r2, r5, r6}
   24c52:	c364      	stmia	r3!, {r2, r5, r6}
   24c54:	7800      	ldrb	r0, [r0, #0]
   24c56:	7018      	strb	r0, [r3, #0]
   24c58:	0e08      	lsrs	r0, r1, #24
   24c5a:	71a0      	strb	r0, [r4, #6]
   24c5c:	0c08      	lsrs	r0, r1, #16
   24c5e:	7160      	strb	r0, [r4, #5]
   24c60:	0a08      	lsrs	r0, r1, #8
   24c62:	7120      	strb	r0, [r4, #4]
   24c64:	70e1      	strb	r1, [r4, #3]
   24c66:	1de0      	adds	r0, r4, #7
   24c68:	2225      	movs	r2, #37	@ 0x25
   24c6a:	990b      	ldr	r1, [sp, #44]	@ 0x2c
   24c6c:	f002 fb15 	bl	2729a <__aeabi_memcpy>
   24c70:	4d04      	ldr	r5, [pc, #16]	@ (24c84 <_start+0xa4c>)
   24c72:	446d      	add	r5, sp
   24c74:	4628      	mov	r0, r5
   24c76:	4621      	mov	r1, r4
   24c78:	f7fe fd56 	bl	23728 <_ZN20complex_full_dynamic3app17hd5eaa8b11431e1daE>
   24c7c:	7828      	ldrb	r0, [r5, #0]
   24c7e:	2801      	cmp	r0, #1
   24c80:	d104      	bne.n	24c8c <_start+0xa54>
   24c82:	e5ae      	b.n	247e2 <_start+0x5aa>
   24c84:	00001404 	.word	0x00001404
   24c88:	000013a8 	.word	0x000013a8
   24c8c:	4816      	ldr	r0, [pc, #88]	@ (24ce8 <_start+0xab0>)
   24c8e:	4468      	add	r0, sp
   24c90:	78c1      	ldrb	r1, [r0, #3]
   24c92:	ac9a      	add	r4, sp, #616	@ 0x268
   24c94:	70a1      	strb	r1, [r4, #2]
   24c96:	7841      	ldrb	r1, [r0, #1]
   24c98:	7882      	ldrb	r2, [r0, #2]
   24c9a:	0212      	lsls	r2, r2, #8
   24c9c:	1851      	adds	r1, r2, r1
   24c9e:	8021      	strh	r1, [r4, #0]
   24ca0:	3008      	adds	r0, #8
   24ca2:	9908      	ldr	r1, [sp, #32]
   24ca4:	6e09      	ldr	r1, [r1, #96]	@ 0x60
   24ca6:	910a      	str	r1, [sp, #40]	@ 0x28
   24ca8:	4b10      	ldr	r3, [pc, #64]	@ (24cec <_start+0xab4>)
   24caa:	446b      	add	r3, sp
   24cac:	930b      	str	r3, [sp, #44]	@ 0x2c
   24cae:	c864      	ldmia	r0!, {r2, r5, r6}
   24cb0:	c364      	stmia	r3!, {r2, r5, r6}
   24cb2:	c866      	ldmia	r0!, {r1, r2, r5, r6}
   24cb4:	c366      	stmia	r3!, {r1, r2, r5, r6}
   24cb6:	8800      	ldrh	r0, [r0, #0]
   24cb8:	8018      	strh	r0, [r3, #0]
   24cba:	990a      	ldr	r1, [sp, #40]	@ 0x28
   24cbc:	0e08      	lsrs	r0, r1, #24
   24cbe:	71a0      	strb	r0, [r4, #6]
   24cc0:	0c08      	lsrs	r0, r1, #16
   24cc2:	7160      	strb	r0, [r4, #5]
   24cc4:	0a08      	lsrs	r0, r1, #8
   24cc6:	7120      	strb	r0, [r4, #4]
   24cc8:	70e1      	strb	r1, [r4, #3]
   24cca:	1de0      	adds	r0, r4, #7
   24ccc:	221e      	movs	r2, #30
   24cce:	990b      	ldr	r1, [sp, #44]	@ 0x2c
   24cd0:	f002 fae3 	bl	2729a <__aeabi_memcpy>
   24cd4:	4d04      	ldr	r5, [pc, #16]	@ (24ce8 <_start+0xab0>)
   24cd6:	446d      	add	r5, sp
   24cd8:	4628      	mov	r0, r5
   24cda:	4621      	mov	r1, r4
   24cdc:	f7fd fbb6 	bl	2244c <_ZN20complex_full_dynamic3app17h960205ef2764b5daE>
   24ce0:	7828      	ldrb	r0, [r5, #0]
   24ce2:	2801      	cmp	r0, #1
   24ce4:	d104      	bne.n	24cf0 <_start+0xab8>
   24ce6:	e57c      	b.n	247e2 <_start+0x5aa>
   24ce8:	00001404 	.word	0x00001404
   24cec:	000013a8 	.word	0x000013a8
   24cf0:	4815      	ldr	r0, [pc, #84]	@ (24d48 <_start+0xb10>)
   24cf2:	4468      	add	r0, sp
   24cf4:	78c1      	ldrb	r1, [r0, #3]
   24cf6:	aca4      	add	r4, sp, #656	@ 0x290
   24cf8:	70a1      	strb	r1, [r4, #2]
   24cfa:	7841      	ldrb	r1, [r0, #1]
   24cfc:	7882      	ldrb	r2, [r0, #2]
   24cfe:	0212      	lsls	r2, r2, #8
   24d00:	1851      	adds	r1, r2, r1
   24d02:	8021      	strh	r1, [r4, #0]
   24d04:	3008      	adds	r0, #8
   24d06:	9908      	ldr	r1, [sp, #32]
   24d08:	6e09      	ldr	r1, [r1, #96]	@ 0x60
   24d0a:	910a      	str	r1, [sp, #40]	@ 0x28
   24d0c:	4b0f      	ldr	r3, [pc, #60]	@ (24d4c <_start+0xb14>)
   24d0e:	446b      	add	r3, sp
   24d10:	930b      	str	r3, [sp, #44]	@ 0x2c
   24d12:	c866      	ldmia	r0!, {r1, r2, r5, r6}
   24d14:	c366      	stmia	r3!, {r1, r2, r5, r6}
   24d16:	7800      	ldrb	r0, [r0, #0]
   24d18:	7018      	strb	r0, [r3, #0]
   24d1a:	990a      	ldr	r1, [sp, #40]	@ 0x28
   24d1c:	0e08      	lsrs	r0, r1, #24
   24d1e:	71a0      	strb	r0, [r4, #6]
   24d20:	0c08      	lsrs	r0, r1, #16
   24d22:	7160      	strb	r0, [r4, #5]
   24d24:	0a08      	lsrs	r0, r1, #8
   24d26:	7120      	strb	r0, [r4, #4]
   24d28:	70e1      	strb	r1, [r4, #3]
   24d2a:	1de0      	adds	r0, r4, #7
   24d2c:	2211      	movs	r2, #17
   24d2e:	990b      	ldr	r1, [sp, #44]	@ 0x2c
   24d30:	f002 fab3 	bl	2729a <__aeabi_memcpy>
   24d34:	4d04      	ldr	r5, [pc, #16]	@ (24d48 <_start+0xb10>)
   24d36:	446d      	add	r5, sp
   24d38:	4628      	mov	r0, r5
   24d3a:	4621      	mov	r1, r4
   24d3c:	f7fe fb92 	bl	23464 <_ZN20complex_full_dynamic3app17hc6343df2688d91cbE>
   24d40:	7828      	ldrb	r0, [r5, #0]
   24d42:	2801      	cmp	r0, #1
   24d44:	d104      	bne.n	24d50 <_start+0xb18>
   24d46:	e54c      	b.n	247e2 <_start+0x5aa>
   24d48:	00001404 	.word	0x00001404
   24d4c:	000013a8 	.word	0x000013a8
   24d50:	4818      	ldr	r0, [pc, #96]	@ (24db4 <_start+0xb7c>)
   24d52:	4468      	add	r0, sp
   24d54:	78c1      	ldrb	r1, [r0, #3]
   24d56:	acaa      	add	r4, sp, #680	@ 0x2a8
   24d58:	70a1      	strb	r1, [r4, #2]
   24d5a:	7841      	ldrb	r1, [r0, #1]
   24d5c:	7882      	ldrb	r2, [r0, #2]
   24d5e:	0212      	lsls	r2, r2, #8
   24d60:	1851      	adds	r1, r2, r1
   24d62:	8021      	strh	r1, [r4, #0]
   24d64:	3008      	adds	r0, #8
   24d66:	9908      	ldr	r1, [sp, #32]
   24d68:	6e09      	ldr	r1, [r1, #96]	@ 0x60
   24d6a:	910a      	str	r1, [sp, #40]	@ 0x28
   24d6c:	4b12      	ldr	r3, [pc, #72]	@ (24db8 <_start+0xb80>)
   24d6e:	446b      	add	r3, sp
   24d70:	930b      	str	r3, [sp, #44]	@ 0x2c
   24d72:	c864      	ldmia	r0!, {r2, r5, r6}
   24d74:	c364      	stmia	r3!, {r2, r5, r6}
   24d76:	c866      	ldmia	r0!, {r1, r2, r5, r6}
   24d78:	c366      	stmia	r3!, {r1, r2, r5, r6}
   24d7a:	c866      	ldmia	r0!, {r1, r2, r5, r6}
   24d7c:	c366      	stmia	r3!, {r1, r2, r5, r6}
   24d7e:	8801      	ldrh	r1, [r0, #0]
   24d80:	8019      	strh	r1, [r3, #0]
   24d82:	7880      	ldrb	r0, [r0, #2]
   24d84:	7098      	strb	r0, [r3, #2]
   24d86:	990a      	ldr	r1, [sp, #40]	@ 0x28
   24d88:	0e08      	lsrs	r0, r1, #24
   24d8a:	71a0      	strb	r0, [r4, #6]
   24d8c:	0c08      	lsrs	r0, r1, #16
   24d8e:	7160      	strb	r0, [r4, #5]
   24d90:	0a08      	lsrs	r0, r1, #8
   24d92:	7120      	strb	r0, [r4, #4]
   24d94:	70e1      	strb	r1, [r4, #3]
   24d96:	1de0      	adds	r0, r4, #7
   24d98:	222f      	movs	r2, #47	@ 0x2f
   24d9a:	990b      	ldr	r1, [sp, #44]	@ 0x2c
   24d9c:	f002 fa7d 	bl	2729a <__aeabi_memcpy>
   24da0:	4d04      	ldr	r5, [pc, #16]	@ (24db4 <_start+0xb7c>)
   24da2:	446d      	add	r5, sp
   24da4:	4628      	mov	r0, r5
   24da6:	4621      	mov	r1, r4
   24da8:	f7fe fbb4 	bl	23514 <_ZN20complex_full_dynamic3app17hc95a4953946f6019E>
   24dac:	7828      	ldrb	r0, [r5, #0]
   24dae:	2801      	cmp	r0, #1
   24db0:	d104      	bne.n	24dbc <_start+0xb84>
   24db2:	e516      	b.n	247e2 <_start+0x5aa>
   24db4:	00001404 	.word	0x00001404
   24db8:	000013a8 	.word	0x000013a8
   24dbc:	4817      	ldr	r0, [pc, #92]	@ (24e1c <_start+0xbe4>)
   24dbe:	4468      	add	r0, sp
   24dc0:	78c1      	ldrb	r1, [r0, #3]
   24dc2:	acb8      	add	r4, sp, #736	@ 0x2e0
   24dc4:	70a1      	strb	r1, [r4, #2]
   24dc6:	7841      	ldrb	r1, [r0, #1]
   24dc8:	7882      	ldrb	r2, [r0, #2]
   24dca:	0212      	lsls	r2, r2, #8
   24dcc:	1851      	adds	r1, r2, r1
   24dce:	8021      	strh	r1, [r4, #0]
   24dd0:	3008      	adds	r0, #8
   24dd2:	9908      	ldr	r1, [sp, #32]
   24dd4:	6e09      	ldr	r1, [r1, #96]	@ 0x60
   24dd6:	910a      	str	r1, [sp, #40]	@ 0x28
   24dd8:	4b11      	ldr	r3, [pc, #68]	@ (24e20 <_start+0xbe8>)
   24dda:	446b      	add	r3, sp
   24ddc:	930b      	str	r3, [sp, #44]	@ 0x2c
   24dde:	c864      	ldmia	r0!, {r2, r5, r6}
   24de0:	c364      	stmia	r3!, {r2, r5, r6}
   24de2:	c866      	ldmia	r0!, {r1, r2, r5, r6}
   24de4:	c366      	stmia	r3!, {r1, r2, r5, r6}
   24de6:	c866      	ldmia	r0!, {r1, r2, r5, r6}
   24de8:	c366      	stmia	r3!, {r1, r2, r5, r6}
   24dea:	7800      	ldrb	r0, [r0, #0]
   24dec:	7018      	strb	r0, [r3, #0]
   24dee:	990a      	ldr	r1, [sp, #40]	@ 0x28
   24df0:	0e08      	lsrs	r0, r1, #24
   24df2:	71a0      	strb	r0, [r4, #6]
   24df4:	0c08      	lsrs	r0, r1, #16
   24df6:	7160      	strb	r0, [r4, #5]
   24df8:	0a08      	lsrs	r0, r1, #8
   24dfa:	7120      	strb	r0, [r4, #4]
   24dfc:	70e1      	strb	r1, [r4, #3]
   24dfe:	1de0      	adds	r0, r4, #7
   24e00:	222d      	movs	r2, #45	@ 0x2d
   24e02:	990b      	ldr	r1, [sp, #44]	@ 0x2c
   24e04:	f002 fa49 	bl	2729a <__aeabi_memcpy>
   24e08:	4d04      	ldr	r5, [pc, #16]	@ (24e1c <_start+0xbe4>)
   24e0a:	446d      	add	r5, sp
   24e0c:	4628      	mov	r0, r5
   24e0e:	4621      	mov	r1, r4
   24e10:	f7fc fde4 	bl	219dc <_ZN20complex_full_dynamic3app17h576b4c466efcf2a0E>
   24e14:	7828      	ldrb	r0, [r5, #0]
   24e16:	2801      	cmp	r0, #1
   24e18:	d104      	bne.n	24e24 <_start+0xbec>
   24e1a:	e4e2      	b.n	247e2 <_start+0x5aa>
   24e1c:	00001404 	.word	0x00001404
   24e20:	000013a8 	.word	0x000013a8
   24e24:	4817      	ldr	r0, [pc, #92]	@ (24e84 <_start+0xc4c>)
   24e26:	4468      	add	r0, sp
   24e28:	78c1      	ldrb	r1, [r0, #3]
   24e2a:	acc5      	add	r4, sp, #788	@ 0x314
   24e2c:	70a1      	strb	r1, [r4, #2]
   24e2e:	7841      	ldrb	r1, [r0, #1]
   24e30:	7882      	ldrb	r2, [r0, #2]
   24e32:	0212      	lsls	r2, r2, #8
   24e34:	1851      	adds	r1, r2, r1
   24e36:	8021      	strh	r1, [r4, #0]
   24e38:	3008      	adds	r0, #8
   24e3a:	9908      	ldr	r1, [sp, #32]
   24e3c:	6e09      	ldr	r1, [r1, #96]	@ 0x60
   24e3e:	4b12      	ldr	r3, [pc, #72]	@ (24e88 <_start+0xc50>)
   24e40:	446b      	add	r3, sp
   24e42:	930b      	str	r3, [sp, #44]	@ 0x2c
   24e44:	c864      	ldmia	r0!, {r2, r5, r6}
   24e46:	c364      	stmia	r3!, {r2, r5, r6}
   24e48:	c864      	ldmia	r0!, {r2, r5, r6}
   24e4a:	c364      	stmia	r3!, {r2, r5, r6}
   24e4c:	c864      	ldmia	r0!, {r2, r5, r6}
   24e4e:	c364      	stmia	r3!, {r2, r5, r6}
   24e50:	8802      	ldrh	r2, [r0, #0]
   24e52:	801a      	strh	r2, [r3, #0]
   24e54:	7880      	ldrb	r0, [r0, #2]
   24e56:	7098      	strb	r0, [r3, #2]
   24e58:	0e08      	lsrs	r0, r1, #24
   24e5a:	71a0      	strb	r0, [r4, #6]
   24e5c:	0c08      	lsrs	r0, r1, #16
   24e5e:	7160      	strb	r0, [r4, #5]
   24e60:	0a08      	lsrs	r0, r1, #8
   24e62:	7120      	strb	r0, [r4, #4]
   24e64:	70e1      	strb	r1, [r4, #3]
   24e66:	1de0      	adds	r0, r4, #7
   24e68:	2227      	movs	r2, #39	@ 0x27
   24e6a:	990b      	ldr	r1, [sp, #44]	@ 0x2c
   24e6c:	f002 fa15 	bl	2729a <__aeabi_memcpy>
   24e70:	4d04      	ldr	r5, [pc, #16]	@ (24e84 <_start+0xc4c>)
   24e72:	446d      	add	r5, sp
   24e74:	4628      	mov	r0, r5
   24e76:	4621      	mov	r1, r4
   24e78:	f7fd f9dc 	bl	22234 <_ZN20complex_full_dynamic3app17h84d892537fcda72fE>
   24e7c:	7828      	ldrb	r0, [r5, #0]
   24e7e:	2801      	cmp	r0, #1
   24e80:	d104      	bne.n	24e8c <_start+0xc54>
   24e82:	e4ae      	b.n	247e2 <_start+0x5aa>
   24e84:	00001404 	.word	0x00001404
   24e88:	000013a8 	.word	0x000013a8
   24e8c:	4817      	ldr	r0, [pc, #92]	@ (24eec <_start+0xcb4>)
   24e8e:	4468      	add	r0, sp
   24e90:	78c1      	ldrb	r1, [r0, #3]
   24e92:	acd1      	add	r4, sp, #836	@ 0x344
   24e94:	70a1      	strb	r1, [r4, #2]
   24e96:	7841      	ldrb	r1, [r0, #1]
   24e98:	7882      	ldrb	r2, [r0, #2]
   24e9a:	0212      	lsls	r2, r2, #8
   24e9c:	1851      	adds	r1, r2, r1
   24e9e:	8021      	strh	r1, [r4, #0]
   24ea0:	3008      	adds	r0, #8
   24ea2:	9908      	ldr	r1, [sp, #32]
   24ea4:	6e09      	ldr	r1, [r1, #96]	@ 0x60
   24ea6:	910a      	str	r1, [sp, #40]	@ 0x28
   24ea8:	4b11      	ldr	r3, [pc, #68]	@ (24ef0 <_start+0xcb8>)
   24eaa:	446b      	add	r3, sp
   24eac:	930b      	str	r3, [sp, #44]	@ 0x2c
   24eae:	c866      	ldmia	r0!, {r1, r2, r5, r6}
   24eb0:	c366      	stmia	r3!, {r1, r2, r5, r6}
   24eb2:	c866      	ldmia	r0!, {r1, r2, r5, r6}
   24eb4:	c366      	stmia	r3!, {r1, r2, r5, r6}
   24eb6:	c866      	ldmia	r0!, {r1, r2, r5, r6}
   24eb8:	c366      	stmia	r3!, {r1, r2, r5, r6}
   24eba:	7800      	ldrb	r0, [r0, #0]
   24ebc:	7018      	strb	r0, [r3, #0]
   24ebe:	990a      	ldr	r1, [sp, #40]	@ 0x28
   24ec0:	0e08      	lsrs	r0, r1, #24
   24ec2:	71a0      	strb	r0, [r4, #6]
   24ec4:	0c08      	lsrs	r0, r1, #16
   24ec6:	7160      	strb	r0, [r4, #5]
   24ec8:	0a08      	lsrs	r0, r1, #8
   24eca:	7120      	strb	r0, [r4, #4]
   24ecc:	70e1      	strb	r1, [r4, #3]
   24ece:	1de0      	adds	r0, r4, #7
   24ed0:	2231      	movs	r2, #49	@ 0x31
   24ed2:	990b      	ldr	r1, [sp, #44]	@ 0x2c
   24ed4:	f002 f9e1 	bl	2729a <__aeabi_memcpy>
   24ed8:	4d04      	ldr	r5, [pc, #16]	@ (24eec <_start+0xcb4>)
   24eda:	446d      	add	r5, sp
   24edc:	4628      	mov	r0, r5
   24ede:	4621      	mov	r1, r4
   24ee0:	f7fc fb6c 	bl	215bc <_ZN20complex_full_dynamic3app17h459aeedfedd6cd82E>
   24ee4:	7828      	ldrb	r0, [r5, #0]
   24ee6:	2801      	cmp	r0, #1
   24ee8:	d104      	bne.n	24ef4 <_start+0xcbc>
   24eea:	e47a      	b.n	247e2 <_start+0x5aa>
   24eec:	00001404 	.word	0x00001404
   24ef0:	000013a8 	.word	0x000013a8
   24ef4:	4817      	ldr	r0, [pc, #92]	@ (24f54 <_start+0xd1c>)
   24ef6:	4468      	add	r0, sp
   24ef8:	78c1      	ldrb	r1, [r0, #3]
   24efa:	acdf      	add	r4, sp, #892	@ 0x37c
   24efc:	70a1      	strb	r1, [r4, #2]
   24efe:	7841      	ldrb	r1, [r0, #1]
   24f00:	7882      	ldrb	r2, [r0, #2]
   24f02:	0212      	lsls	r2, r2, #8
   24f04:	1851      	adds	r1, r2, r1
   24f06:	8021      	strh	r1, [r4, #0]
   24f08:	3008      	adds	r0, #8
   24f0a:	9908      	ldr	r1, [sp, #32]
   24f0c:	6e09      	ldr	r1, [r1, #96]	@ 0x60
   24f0e:	910a      	str	r1, [sp, #40]	@ 0x28
   24f10:	4b11      	ldr	r3, [pc, #68]	@ (24f58 <_start+0xd20>)
   24f12:	446b      	add	r3, sp
   24f14:	930b      	str	r3, [sp, #44]	@ 0x2c
   24f16:	c864      	ldmia	r0!, {r2, r5, r6}
   24f18:	c364      	stmia	r3!, {r2, r5, r6}
   24f1a:	c866      	ldmia	r0!, {r1, r2, r5, r6}
   24f1c:	c366      	stmia	r3!, {r1, r2, r5, r6}
   24f1e:	c866      	ldmia	r0!, {r1, r2, r5, r6}
   24f20:	c366      	stmia	r3!, {r1, r2, r5, r6}
   24f22:	7800      	ldrb	r0, [r0, #0]
   24f24:	7018      	strb	r0, [r3, #0]
   24f26:	990a      	ldr	r1, [sp, #40]	@ 0x28
   24f28:	0e08      	lsrs	r0, r1, #24
   24f2a:	71a0      	strb	r0, [r4, #6]
   24f2c:	0c08      	lsrs	r0, r1, #16
   24f2e:	7160      	strb	r0, [r4, #5]
   24f30:	0a08      	lsrs	r0, r1, #8
   24f32:	7120      	strb	r0, [r4, #4]
   24f34:	70e1      	strb	r1, [r4, #3]
   24f36:	1de0      	adds	r0, r4, #7
   24f38:	222d      	movs	r2, #45	@ 0x2d
   24f3a:	990b      	ldr	r1, [sp, #44]	@ 0x2c
   24f3c:	f002 f9ad 	bl	2729a <__aeabi_memcpy>
   24f40:	4d04      	ldr	r5, [pc, #16]	@ (24f54 <_start+0xd1c>)
   24f42:	446d      	add	r5, sp
   24f44:	4628      	mov	r0, r5
   24f46:	4621      	mov	r1, r4
   24f48:	f7fd f91a 	bl	22180 <_ZN20complex_full_dynamic3app17h838685b3a48d3d8dE>
   24f4c:	7828      	ldrb	r0, [r5, #0]
   24f4e:	2801      	cmp	r0, #1
   24f50:	d104      	bne.n	24f5c <_start+0xd24>
   24f52:	e446      	b.n	247e2 <_start+0x5aa>
   24f54:	00001404 	.word	0x00001404
   24f58:	000013a8 	.word	0x000013a8
   24f5c:	4816      	ldr	r0, [pc, #88]	@ (24fb8 <_start+0xd80>)
   24f5e:	4468      	add	r0, sp
   24f60:	78c1      	ldrb	r1, [r0, #3]
   24f62:	acec      	add	r4, sp, #944	@ 0x3b0
   24f64:	70a1      	strb	r1, [r4, #2]
   24f66:	7841      	ldrb	r1, [r0, #1]
   24f68:	7882      	ldrb	r2, [r0, #2]
   24f6a:	0212      	lsls	r2, r2, #8
   24f6c:	1851      	adds	r1, r2, r1
   24f6e:	8021      	strh	r1, [r4, #0]
   24f70:	3008      	adds	r0, #8
   24f72:	9908      	ldr	r1, [sp, #32]
   24f74:	6e09      	ldr	r1, [r1, #96]	@ 0x60
   24f76:	910a      	str	r1, [sp, #40]	@ 0x28
   24f78:	4b10      	ldr	r3, [pc, #64]	@ (24fbc <_start+0xd84>)
   24f7a:	446b      	add	r3, sp
   24f7c:	930b      	str	r3, [sp, #44]	@ 0x2c
   24f7e:	c866      	ldmia	r0!, {r1, r2, r5, r6}
   24f80:	c366      	stmia	r3!, {r1, r2, r5, r6}
   24f82:	8801      	ldrh	r1, [r0, #0]
   24f84:	8019      	strh	r1, [r3, #0]
   24f86:	7880      	ldrb	r0, [r0, #2]
   24f88:	7098      	strb	r0, [r3, #2]
   24f8a:	990a      	ldr	r1, [sp, #40]	@ 0x28
   24f8c:	0e08      	lsrs	r0, r1, #24
   24f8e:	71a0      	strb	r0, [r4, #6]
   24f90:	0c08      	lsrs	r0, r1, #16
   24f92:	7160      	strb	r0, [r4, #5]
   24f94:	0a08      	lsrs	r0, r1, #8
   24f96:	7120      	strb	r0, [r4, #4]
   24f98:	70e1      	strb	r1, [r4, #3]
   24f9a:	1de0      	adds	r0, r4, #7
   24f9c:	2213      	movs	r2, #19
   24f9e:	990b      	ldr	r1, [sp, #44]	@ 0x2c
   24fa0:	f002 f97b 	bl	2729a <__aeabi_memcpy>
   24fa4:	4d04      	ldr	r5, [pc, #16]	@ (24fb8 <_start+0xd80>)
   24fa6:	446d      	add	r5, sp
   24fa8:	4628      	mov	r0, r5
   24faa:	4621      	mov	r1, r4
   24fac:	f7fc fe22 	bl	21bf4 <_ZN20complex_full_dynamic3app17h6a801c8c71aa835eE>
   24fb0:	7828      	ldrb	r0, [r5, #0]
   24fb2:	2801      	cmp	r0, #1
   24fb4:	d104      	bne.n	24fc0 <_start+0xd88>
   24fb6:	e414      	b.n	247e2 <_start+0x5aa>
   24fb8:	00001404 	.word	0x00001404
   24fbc:	000013a8 	.word	0x000013a8
   24fc0:	4915      	ldr	r1, [pc, #84]	@ (25018 <_start+0xde0>)
   24fc2:	4469      	add	r1, sp
   24fc4:	78c8      	ldrb	r0, [r1, #3]
   24fc6:	acf3      	add	r4, sp, #972	@ 0x3cc
   24fc8:	70a0      	strb	r0, [r4, #2]
   24fca:	7848      	ldrb	r0, [r1, #1]
   24fcc:	788a      	ldrb	r2, [r1, #2]
   24fce:	0212      	lsls	r2, r2, #8
   24fd0:	1810      	adds	r0, r2, r0
   24fd2:	8020      	strh	r0, [r4, #0]
   24fd4:	9808      	ldr	r0, [sp, #32]
   24fd6:	6e05      	ldr	r5, [r0, #96]	@ 0x60
   24fd8:	3108      	adds	r1, #8
   24fda:	4810      	ldr	r0, [pc, #64]	@ (2501c <_start+0xde4>)
   24fdc:	4468      	add	r0, sp
   24fde:	900b      	str	r0, [sp, #44]	@ 0x2c
   24fe0:	2649      	movs	r6, #73	@ 0x49
   24fe2:	4632      	mov	r2, r6
   24fe4:	f001 fff9 	bl	26fda <__aeabi_memcpy4>
   24fe8:	0e28      	lsrs	r0, r5, #24
   24fea:	71a0      	strb	r0, [r4, #6]
   24fec:	0c28      	lsrs	r0, r5, #16
   24fee:	7160      	strb	r0, [r4, #5]
   24ff0:	0a28      	lsrs	r0, r5, #8
   24ff2:	7120      	strb	r0, [r4, #4]
   24ff4:	70e5      	strb	r5, [r4, #3]
   24ff6:	1de0      	adds	r0, r4, #7
   24ff8:	990b      	ldr	r1, [sp, #44]	@ 0x2c
   24ffa:	4632      	mov	r2, r6
   24ffc:	f002 f94d 	bl	2729a <__aeabi_memcpy>
   25000:	4d05      	ldr	r5, [pc, #20]	@ (25018 <_start+0xde0>)
   25002:	446d      	add	r5, sp
   25004:	4628      	mov	r0, r5
   25006:	4621      	mov	r1, r4
   25008:	f7fb fb8a 	bl	20720 <_ZN20complex_full_dynamic3app17h15099d5d86ebaaddE>
   2500c:	7828      	ldrb	r0, [r5, #0]
   2500e:	2801      	cmp	r0, #1
   25010:	d106      	bne.n	25020 <_start+0xde8>
   25012:	f7ff fbe6 	bl	247e2 <_start+0x5aa>
   25016:	46c0      	nop			@ (mov r8, r8)
   25018:	00001404 	.word	0x00001404
   2501c:	000013a8 	.word	0x000013a8
   25020:	4819      	ldr	r0, [pc, #100]	@ (25088 <_start+0xe50>)
   25022:	4468      	add	r0, sp
   25024:	78c1      	ldrb	r1, [r0, #3]
   25026:	acff      	add	r4, sp, #1020	@ 0x3fc
   25028:	3420      	adds	r4, #32
   2502a:	70a1      	strb	r1, [r4, #2]
   2502c:	7841      	ldrb	r1, [r0, #1]
   2502e:	7882      	ldrb	r2, [r0, #2]
   25030:	0212      	lsls	r2, r2, #8
   25032:	1851      	adds	r1, r2, r1
   25034:	8021      	strh	r1, [r4, #0]
   25036:	3008      	adds	r0, #8
   25038:	9908      	ldr	r1, [sp, #32]
   2503a:	6e09      	ldr	r1, [r1, #96]	@ 0x60
   2503c:	910a      	str	r1, [sp, #40]	@ 0x28
   2503e:	4b13      	ldr	r3, [pc, #76]	@ (2508c <_start+0xe54>)
   25040:	446b      	add	r3, sp
   25042:	930b      	str	r3, [sp, #44]	@ 0x2c
   25044:	c864      	ldmia	r0!, {r2, r5, r6}
   25046:	c364      	stmia	r3!, {r2, r5, r6}
   25048:	c864      	ldmia	r0!, {r2, r5, r6}
   2504a:	c364      	stmia	r3!, {r2, r5, r6}
   2504c:	c864      	ldmia	r0!, {r2, r5, r6}
   2504e:	c364      	stmia	r3!, {r2, r5, r6}
   25050:	c866      	ldmia	r0!, {r1, r2, r5, r6}
   25052:	c366      	stmia	r3!, {r1, r2, r5, r6}
   25054:	7800      	ldrb	r0, [r0, #0]
   25056:	7018      	strb	r0, [r3, #0]
   25058:	990a      	ldr	r1, [sp, #40]	@ 0x28
   2505a:	0e08      	lsrs	r0, r1, #24
   2505c:	71a0      	strb	r0, [r4, #6]
   2505e:	0c08      	lsrs	r0, r1, #16
   25060:	7160      	strb	r0, [r4, #5]
   25062:	0a08      	lsrs	r0, r1, #8
   25064:	7120      	strb	r0, [r4, #4]
   25066:	70e1      	strb	r1, [r4, #3]
   25068:	1de0      	adds	r0, r4, #7
   2506a:	2235      	movs	r2, #53	@ 0x35
   2506c:	990b      	ldr	r1, [sp, #44]	@ 0x2c
   2506e:	f002 f914 	bl	2729a <__aeabi_memcpy>
   25072:	4d05      	ldr	r5, [pc, #20]	@ (25088 <_start+0xe50>)
   25074:	446d      	add	r5, sp
   25076:	4628      	mov	r0, r5
   25078:	4621      	mov	r1, r4
   2507a:	f7fc ff1d 	bl	21eb8 <_ZN20complex_full_dynamic3app17h7d41d9bcbf2d9e49E>
   2507e:	7828      	ldrb	r0, [r5, #0]
   25080:	2801      	cmp	r0, #1
   25082:	d105      	bne.n	25090 <_start+0xe58>
   25084:	f7ff fbad 	bl	247e2 <_start+0x5aa>
   25088:	00001404 	.word	0x00001404
   2508c:	000013a8 	.word	0x000013a8
   25090:	4819      	ldr	r0, [pc, #100]	@ (250f8 <_start+0xec0>)
   25092:	4468      	add	r0, sp
   25094:	78c1      	ldrb	r1, [r0, #3]
   25096:	acff      	add	r4, sp, #1020	@ 0x3fc
   25098:	345c      	adds	r4, #92	@ 0x5c
   2509a:	70a1      	strb	r1, [r4, #2]
   2509c:	7841      	ldrb	r1, [r0, #1]
   2509e:	7882      	ldrb	r2, [r0, #2]
   250a0:	0212      	lsls	r2, r2, #8
   250a2:	1851      	adds	r1, r2, r1
   250a4:	8021      	strh	r1, [r4, #0]
   250a6:	3008      	adds	r0, #8
   250a8:	9908      	ldr	r1, [sp, #32]
   250aa:	6e09      	ldr	r1, [r1, #96]	@ 0x60
   250ac:	910a      	str	r1, [sp, #40]	@ 0x28
   250ae:	4b13      	ldr	r3, [pc, #76]	@ (250fc <_start+0xec4>)
   250b0:	446b      	add	r3, sp
   250b2:	930b      	str	r3, [sp, #44]	@ 0x2c
   250b4:	c864      	ldmia	r0!, {r2, r5, r6}
   250b6:	c364      	stmia	r3!, {r2, r5, r6}
   250b8:	c864      	ldmia	r0!, {r2, r5, r6}
   250ba:	c364      	stmia	r3!, {r2, r5, r6}
   250bc:	c866      	ldmia	r0!, {r1, r2, r5, r6}
   250be:	c366      	stmia	r3!, {r1, r2, r5, r6}
   250c0:	8801      	ldrh	r1, [r0, #0]
   250c2:	8019      	strh	r1, [r3, #0]
   250c4:	7880      	ldrb	r0, [r0, #2]
   250c6:	7098      	strb	r0, [r3, #2]
   250c8:	990a      	ldr	r1, [sp, #40]	@ 0x28
   250ca:	0e08      	lsrs	r0, r1, #24
   250cc:	71a0      	strb	r0, [r4, #6]
   250ce:	0c08      	lsrs	r0, r1, #16
   250d0:	7160      	strb	r0, [r4, #5]
   250d2:	0a08      	lsrs	r0, r1, #8
   250d4:	7120      	strb	r0, [r4, #4]
   250d6:	70e1      	strb	r1, [r4, #3]
   250d8:	1de0      	adds	r0, r4, #7
   250da:	222b      	movs	r2, #43	@ 0x2b
   250dc:	990b      	ldr	r1, [sp, #44]	@ 0x2c
   250de:	f002 f8dc 	bl	2729a <__aeabi_memcpy>
   250e2:	4d05      	ldr	r5, [pc, #20]	@ (250f8 <_start+0xec0>)
   250e4:	446d      	add	r5, sp
   250e6:	4628      	mov	r0, r5
   250e8:	4621      	mov	r1, r4
   250ea:	f7fb fe37 	bl	20d5c <_ZN20complex_full_dynamic3app17h2deccd60857b2b17E>
   250ee:	7828      	ldrb	r0, [r5, #0]
   250f0:	2801      	cmp	r0, #1
   250f2:	d105      	bne.n	25100 <_start+0xec8>
   250f4:	f7ff fb75 	bl	247e2 <_start+0x5aa>
   250f8:	00001404 	.word	0x00001404
   250fc:	000013a8 	.word	0x000013a8
   25100:	4819      	ldr	r0, [pc, #100]	@ (25168 <_start+0xf30>)
   25102:	4468      	add	r0, sp
   25104:	78c1      	ldrb	r1, [r0, #3]
   25106:	acff      	add	r4, sp, #1020	@ 0x3fc
   25108:	3490      	adds	r4, #144	@ 0x90
   2510a:	70a1      	strb	r1, [r4, #2]
   2510c:	7841      	ldrb	r1, [r0, #1]
   2510e:	7882      	ldrb	r2, [r0, #2]
   25110:	0212      	lsls	r2, r2, #8
   25112:	1851      	adds	r1, r2, r1
   25114:	8021      	strh	r1, [r4, #0]
   25116:	3008      	adds	r0, #8
   25118:	9908      	ldr	r1, [sp, #32]
   2511a:	6e09      	ldr	r1, [r1, #96]	@ 0x60
   2511c:	910a      	str	r1, [sp, #40]	@ 0x28
   2511e:	4b13      	ldr	r3, [pc, #76]	@ (2516c <_start+0xf34>)
   25120:	446b      	add	r3, sp
   25122:	930b      	str	r3, [sp, #44]	@ 0x2c
   25124:	c864      	ldmia	r0!, {r2, r5, r6}
   25126:	c364      	stmia	r3!, {r2, r5, r6}
   25128:	c864      	ldmia	r0!, {r2, r5, r6}
   2512a:	c364      	stmia	r3!, {r2, r5, r6}
   2512c:	c866      	ldmia	r0!, {r1, r2, r5, r6}
   2512e:	c366      	stmia	r3!, {r1, r2, r5, r6}
   25130:	8801      	ldrh	r1, [r0, #0]
   25132:	8019      	strh	r1, [r3, #0]
   25134:	7880      	ldrb	r0, [r0, #2]
   25136:	7098      	strb	r0, [r3, #2]
   25138:	990a      	ldr	r1, [sp, #40]	@ 0x28
   2513a:	0e08      	lsrs	r0, r1, #24
   2513c:	71a0      	strb	r0, [r4, #6]
   2513e:	0c08      	lsrs	r0, r1, #16
   25140:	7160      	strb	r0, [r4, #5]
   25142:	0a08      	lsrs	r0, r1, #8
   25144:	7120      	strb	r0, [r4, #4]
   25146:	70e1      	strb	r1, [r4, #3]
   25148:	1de0      	adds	r0, r4, #7
   2514a:	222b      	movs	r2, #43	@ 0x2b
   2514c:	990b      	ldr	r1, [sp, #44]	@ 0x2c
   2514e:	f002 f8a4 	bl	2729a <__aeabi_memcpy>
   25152:	4d05      	ldr	r5, [pc, #20]	@ (25168 <_start+0xf30>)
   25154:	446d      	add	r5, sp
   25156:	4628      	mov	r0, r5
   25158:	4621      	mov	r1, r4
   2515a:	f7fc f8c9 	bl	212f0 <_ZN20complex_full_dynamic3app17h41482490f54aaf35E>
   2515e:	7828      	ldrb	r0, [r5, #0]
   25160:	2801      	cmp	r0, #1
   25162:	d105      	bne.n	25170 <_start+0xf38>
   25164:	f7ff fb3d 	bl	247e2 <_start+0x5aa>
   25168:	00001404 	.word	0x00001404
   2516c:	000013a8 	.word	0x000013a8
   25170:	4914      	ldr	r1, [pc, #80]	@ (251c4 <_start+0xf8c>)
   25172:	4469      	add	r1, sp
   25174:	9b08      	ldr	r3, [sp, #32]
   25176:	6ed8      	ldr	r0, [r3, #108]	@ 0x6c
   25178:	7208      	strb	r0, [r1, #8]
   2517a:	4813      	ldr	r0, [pc, #76]	@ (251c8 <_start+0xf90>)
   2517c:	4468      	add	r0, sp
   2517e:	78c2      	ldrb	r2, [r0, #3]
   25180:	acff      	add	r4, sp, #1020	@ 0x3fc
   25182:	34c4      	adds	r4, #196	@ 0xc4
   25184:	70a2      	strb	r2, [r4, #2]
   25186:	7842      	ldrb	r2, [r0, #1]
   25188:	7880      	ldrb	r0, [r0, #2]
   2518a:	0200      	lsls	r0, r0, #8
   2518c:	1880      	adds	r0, r0, r2
   2518e:	8020      	strh	r0, [r4, #0]
   25190:	6e18      	ldr	r0, [r3, #96]	@ 0x60
   25192:	70e0      	strb	r0, [r4, #3]
   25194:	0e02      	lsrs	r2, r0, #24
   25196:	71a2      	strb	r2, [r4, #6]
   25198:	0c02      	lsrs	r2, r0, #16
   2519a:	7162      	strb	r2, [r4, #5]
   2519c:	0a00      	lsrs	r0, r0, #8
   2519e:	7120      	strb	r0, [r4, #4]
   251a0:	6e58      	ldr	r0, [r3, #100]	@ 0x64
   251a2:	6e9a      	ldr	r2, [r3, #104]	@ 0x68
   251a4:	c305      	stmia	r3!, {r0, r2}
   251a6:	1de0      	adds	r0, r4, #7
   251a8:	2209      	movs	r2, #9
   251aa:	f002 f876 	bl	2729a <__aeabi_memcpy>
   251ae:	4d06      	ldr	r5, [pc, #24]	@ (251c8 <_start+0xf90>)
   251b0:	446d      	add	r5, sp
   251b2:	4628      	mov	r0, r5
   251b4:	4621      	mov	r1, r4
   251b6:	f7fc fa59 	bl	2166c <_ZN20complex_full_dynamic3app17h4b93e042eb449a81E>
   251ba:	7828      	ldrb	r0, [r5, #0]
   251bc:	2801      	cmp	r0, #1
   251be:	d105      	bne.n	251cc <_start+0xf94>
   251c0:	f7ff fb0f 	bl	247e2 <_start+0x5aa>
   251c4:	000013a8 	.word	0x000013a8
   251c8:	00001404 	.word	0x00001404
   251cc:	4819      	ldr	r0, [pc, #100]	@ (25234 <_start+0xffc>)
   251ce:	4468      	add	r0, sp
   251d0:	78c1      	ldrb	r1, [r0, #3]
   251d2:	acff      	add	r4, sp, #1020	@ 0x3fc
   251d4:	34d4      	adds	r4, #212	@ 0xd4
   251d6:	70a1      	strb	r1, [r4, #2]
   251d8:	7841      	ldrb	r1, [r0, #1]
   251da:	7882      	ldrb	r2, [r0, #2]
   251dc:	0212      	lsls	r2, r2, #8
   251de:	1851      	adds	r1, r2, r1
   251e0:	8021      	strh	r1, [r4, #0]
   251e2:	3008      	adds	r0, #8
   251e4:	9908      	ldr	r1, [sp, #32]
   251e6:	6e09      	ldr	r1, [r1, #96]	@ 0x60
   251e8:	910a      	str	r1, [sp, #40]	@ 0x28
   251ea:	4b13      	ldr	r3, [pc, #76]	@ (25238 <_start+0x1000>)
   251ec:	446b      	add	r3, sp
   251ee:	930b      	str	r3, [sp, #44]	@ 0x2c
   251f0:	c864      	ldmia	r0!, {r2, r5, r6}
   251f2:	c364      	stmia	r3!, {r2, r5, r6}
   251f4:	c866      	ldmia	r0!, {r1, r2, r5, r6}
   251f6:	c366      	stmia	r3!, {r1, r2, r5, r6}
   251f8:	c866      	ldmia	r0!, {r1, r2, r5, r6}
   251fa:	c366      	stmia	r3!, {r1, r2, r5, r6}
   251fc:	8801      	ldrh	r1, [r0, #0]
   251fe:	8019      	strh	r1, [r3, #0]
   25200:	7880      	ldrb	r0, [r0, #2]
   25202:	7098      	strb	r0, [r3, #2]
   25204:	990a      	ldr	r1, [sp, #40]	@ 0x28
   25206:	0e08      	lsrs	r0, r1, #24
   25208:	71a0      	strb	r0, [r4, #6]
   2520a:	0c08      	lsrs	r0, r1, #16
   2520c:	7160      	strb	r0, [r4, #5]
   2520e:	0a08      	lsrs	r0, r1, #8
   25210:	7120      	strb	r0, [r4, #4]
   25212:	70e1      	strb	r1, [r4, #3]
   25214:	1de0      	adds	r0, r4, #7
   25216:	222f      	movs	r2, #47	@ 0x2f
   25218:	990b      	ldr	r1, [sp, #44]	@ 0x2c
   2521a:	f002 f83e 	bl	2729a <__aeabi_memcpy>
   2521e:	4d05      	ldr	r5, [pc, #20]	@ (25234 <_start+0xffc>)
   25220:	446d      	add	r5, sp
   25222:	4628      	mov	r0, r5
   25224:	4621      	mov	r1, r4
   25226:	f7fe f86d 	bl	23304 <_ZN20complex_full_dynamic3app17hc27610031d958d0cE>
   2522a:	7828      	ldrb	r0, [r5, #0]
   2522c:	2801      	cmp	r0, #1
   2522e:	d105      	bne.n	2523c <_start+0x1004>
   25230:	f7ff fad7 	bl	247e2 <_start+0x5aa>
   25234:	00001404 	.word	0x00001404
   25238:	000013a8 	.word	0x000013a8
   2523c:	9804      	ldr	r0, [sp, #16]
   2523e:	1cc0      	adds	r0, r0, #3
   25240:	4a16      	ldr	r2, [pc, #88]	@ (2529c <_start+0x1064>)
   25242:	446a      	add	r2, sp
   25244:	78d3      	ldrb	r3, [r2, #3]
   25246:	4916      	ldr	r1, [pc, #88]	@ (252a0 <_start+0x1068>)
   25248:	4469      	add	r1, sp
   2524a:	708b      	strb	r3, [r1, #2]
   2524c:	7853      	ldrb	r3, [r2, #1]
   2524e:	7892      	ldrb	r2, [r2, #2]
   25250:	0212      	lsls	r2, r2, #8
   25252:	18d2      	adds	r2, r2, r3
   25254:	800a      	strh	r2, [r1, #0]
   25256:	9c08      	ldr	r4, [sp, #32]
   25258:	3460      	adds	r4, #96	@ 0x60
   2525a:	cc1c      	ldmia	r4, {r2, r3, r4}
   2525c:	0e25      	lsrs	r5, r4, #24
   2525e:	72c5      	strb	r5, [r0, #11]
   25260:	0c25      	lsrs	r5, r4, #16
   25262:	7285      	strb	r5, [r0, #10]
   25264:	0a25      	lsrs	r5, r4, #8
   25266:	7245      	strb	r5, [r0, #9]
   25268:	7204      	strb	r4, [r0, #8]
   2526a:	0e1c      	lsrs	r4, r3, #24
   2526c:	71c4      	strb	r4, [r0, #7]
   2526e:	0c1c      	lsrs	r4, r3, #16
   25270:	7184      	strb	r4, [r0, #6]
   25272:	0a1c      	lsrs	r4, r3, #8
   25274:	7144      	strb	r4, [r0, #5]
   25276:	7103      	strb	r3, [r0, #4]
   25278:	0e13      	lsrs	r3, r2, #24
   2527a:	70c3      	strb	r3, [r0, #3]
   2527c:	0c13      	lsrs	r3, r2, #16
   2527e:	7083      	strb	r3, [r0, #2]
   25280:	0a13      	lsrs	r3, r2, #8
   25282:	7043      	strb	r3, [r0, #1]
   25284:	7002      	strb	r2, [r0, #0]
   25286:	4c05      	ldr	r4, [pc, #20]	@ (2529c <_start+0x1064>)
   25288:	446c      	add	r4, sp
   2528a:	4620      	mov	r0, r4
   2528c:	f7fb ff24 	bl	210d8 <_ZN20complex_full_dynamic3app17h3c0dc4887aa96b09E>
   25290:	7820      	ldrb	r0, [r4, #0]
   25292:	2801      	cmp	r0, #1
   25294:	d106      	bne.n	252a4 <_start+0x106c>
   25296:	f7ff faa4 	bl	247e2 <_start+0x5aa>
   2529a:	46c0      	nop			@ (mov r8, r8)
   2529c:	00001404 	.word	0x00001404
   252a0:	00000508 	.word	0x00000508
   252a4:	4813      	ldr	r0, [pc, #76]	@ (252f4 <_start+0x10bc>)
   252a6:	4468      	add	r0, sp
   252a8:	78c1      	ldrb	r1, [r0, #3]
   252aa:	4c13      	ldr	r4, [pc, #76]	@ (252f8 <_start+0x10c0>)
   252ac:	446c      	add	r4, sp
   252ae:	70a1      	strb	r1, [r4, #2]
   252b0:	7841      	ldrb	r1, [r0, #1]
   252b2:	7880      	ldrb	r0, [r0, #2]
   252b4:	0200      	lsls	r0, r0, #8
   252b6:	1840      	adds	r0, r0, r1
   252b8:	8020      	strh	r0, [r4, #0]
   252ba:	9e08      	ldr	r6, [sp, #32]
   252bc:	4633      	mov	r3, r6
   252be:	3360      	adds	r3, #96	@ 0x60
   252c0:	cb0f      	ldmia	r3, {r0, r1, r2, r3}
   252c2:	70e0      	strb	r0, [r4, #3]
   252c4:	0e05      	lsrs	r5, r0, #24
   252c6:	71a5      	strb	r5, [r4, #6]
   252c8:	0c05      	lsrs	r5, r0, #16
   252ca:	7165      	strb	r5, [r4, #5]
   252cc:	0a00      	lsrs	r0, r0, #8
   252ce:	7120      	strb	r0, [r4, #4]
   252d0:	c60e      	stmia	r6!, {r1, r2, r3}
   252d2:	1de0      	adds	r0, r4, #7
   252d4:	4909      	ldr	r1, [pc, #36]	@ (252fc <_start+0x10c4>)
   252d6:	4469      	add	r1, sp
   252d8:	220c      	movs	r2, #12
   252da:	f001 ffde 	bl	2729a <__aeabi_memcpy>
   252de:	4d05      	ldr	r5, [pc, #20]	@ (252f4 <_start+0x10bc>)
   252e0:	446d      	add	r5, sp
   252e2:	4628      	mov	r0, r5
   252e4:	4621      	mov	r1, r4
   252e6:	f7fb f8b9 	bl	2045c <_ZN20complex_full_dynamic3app17h0e27cf2ff5915f53E>
   252ea:	7828      	ldrb	r0, [r5, #0]
   252ec:	2801      	cmp	r0, #1
   252ee:	d107      	bne.n	25300 <_start+0x10c8>
   252f0:	f7ff fa77 	bl	247e2 <_start+0x5aa>
   252f4:	00001404 	.word	0x00001404
   252f8:	00000518 	.word	0x00000518
   252fc:	000013a8 	.word	0x000013a8
   25300:	4915      	ldr	r1, [pc, #84]	@ (25358 <_start+0x1120>)
   25302:	4469      	add	r1, sp
   25304:	78c8      	ldrb	r0, [r1, #3]
   25306:	4c15      	ldr	r4, [pc, #84]	@ (2535c <_start+0x1124>)
   25308:	446c      	add	r4, sp
   2530a:	70a0      	strb	r0, [r4, #2]
   2530c:	7848      	ldrb	r0, [r1, #1]
   2530e:	788a      	ldrb	r2, [r1, #2]
   25310:	0212      	lsls	r2, r2, #8
   25312:	1810      	adds	r0, r2, r0
   25314:	8020      	strh	r0, [r4, #0]
   25316:	9808      	ldr	r0, [sp, #32]
   25318:	6e05      	ldr	r5, [r0, #96]	@ 0x60
   2531a:	3108      	adds	r1, #8
   2531c:	4810      	ldr	r0, [pc, #64]	@ (25360 <_start+0x1128>)
   2531e:	4468      	add	r0, sp
   25320:	900b      	str	r0, [sp, #44]	@ 0x2c
   25322:	264e      	movs	r6, #78	@ 0x4e
   25324:	4632      	mov	r2, r6
   25326:	f001 fe58 	bl	26fda <__aeabi_memcpy4>
   2532a:	0e28      	lsrs	r0, r5, #24
   2532c:	71a0      	strb	r0, [r4, #6]
   2532e:	0c28      	lsrs	r0, r5, #16
   25330:	7160      	strb	r0, [r4, #5]
   25332:	0a28      	lsrs	r0, r5, #8
   25334:	7120      	strb	r0, [r4, #4]
   25336:	70e5      	strb	r5, [r4, #3]
   25338:	1de0      	adds	r0, r4, #7
   2533a:	990b      	ldr	r1, [sp, #44]	@ 0x2c
   2533c:	4632      	mov	r2, r6
   2533e:	f001 ffac 	bl	2729a <__aeabi_memcpy>
   25342:	4d05      	ldr	r5, [pc, #20]	@ (25358 <_start+0x1120>)
   25344:	446d      	add	r5, sp
   25346:	4628      	mov	r0, r5
   25348:	4621      	mov	r1, r4
   2534a:	f7fb fe13 	bl	20f74 <_ZN20complex_full_dynamic3app17h30f5a12baa836dc4E>
   2534e:	7828      	ldrb	r0, [r5, #0]
   25350:	2801      	cmp	r0, #1
   25352:	d107      	bne.n	25364 <_start+0x112c>
   25354:	f7ff fa45 	bl	247e2 <_start+0x5aa>
   25358:	00001404 	.word	0x00001404
   2535c:	0000052c 	.word	0x0000052c
   25360:	000013a8 	.word	0x000013a8
   25364:	4819      	ldr	r0, [pc, #100]	@ (253cc <_start+0x1194>)
   25366:	4468      	add	r0, sp
   25368:	78c1      	ldrb	r1, [r0, #3]
   2536a:	4c19      	ldr	r4, [pc, #100]	@ (253d0 <_start+0x1198>)
   2536c:	446c      	add	r4, sp
   2536e:	70a1      	strb	r1, [r4, #2]
   25370:	7841      	ldrb	r1, [r0, #1]
   25372:	7882      	ldrb	r2, [r0, #2]
   25374:	0212      	lsls	r2, r2, #8
   25376:	1851      	adds	r1, r2, r1
   25378:	8021      	strh	r1, [r4, #0]
   2537a:	3008      	adds	r0, #8
   2537c:	9908      	ldr	r1, [sp, #32]
   2537e:	6e09      	ldr	r1, [r1, #96]	@ 0x60
   25380:	910a      	str	r1, [sp, #40]	@ 0x28
   25382:	4b14      	ldr	r3, [pc, #80]	@ (253d4 <_start+0x119c>)
   25384:	446b      	add	r3, sp
   25386:	930b      	str	r3, [sp, #44]	@ 0x2c
   25388:	c864      	ldmia	r0!, {r2, r5, r6}
   2538a:	c364      	stmia	r3!, {r2, r5, r6}
   2538c:	c864      	ldmia	r0!, {r2, r5, r6}
   2538e:	c364      	stmia	r3!, {r2, r5, r6}
   25390:	c866      	ldmia	r0!, {r1, r2, r5, r6}
   25392:	c366      	stmia	r3!, {r1, r2, r5, r6}
   25394:	8801      	ldrh	r1, [r0, #0]
   25396:	8019      	strh	r1, [r3, #0]
   25398:	7880      	ldrb	r0, [r0, #2]
   2539a:	7098      	strb	r0, [r3, #2]
   2539c:	990a      	ldr	r1, [sp, #40]	@ 0x28
   2539e:	0e08      	lsrs	r0, r1, #24
   253a0:	71a0      	strb	r0, [r4, #6]
   253a2:	0c08      	lsrs	r0, r1, #16
   253a4:	7160      	strb	r0, [r4, #5]
   253a6:	0a08      	lsrs	r0, r1, #8
   253a8:	7120      	strb	r0, [r4, #4]
   253aa:	70e1      	strb	r1, [r4, #3]
   253ac:	1de0      	adds	r0, r4, #7
   253ae:	222b      	movs	r2, #43	@ 0x2b
   253b0:	990b      	ldr	r1, [sp, #44]	@ 0x2c
   253b2:	f001 ff72 	bl	2729a <__aeabi_memcpy>
   253b6:	4d05      	ldr	r5, [pc, #20]	@ (253cc <_start+0x1194>)
   253b8:	446d      	add	r5, sp
   253ba:	4628      	mov	r0, r5
   253bc:	4621      	mov	r1, r4
   253be:	f7fc ffeb 	bl	22398 <_ZN20complex_full_dynamic3app17h9302f4e6681d03fdE>
   253c2:	7828      	ldrb	r0, [r5, #0]
   253c4:	2801      	cmp	r0, #1
   253c6:	d107      	bne.n	253d8 <_start+0x11a0>
   253c8:	f7ff fa0b 	bl	247e2 <_start+0x5aa>
   253cc:	00001404 	.word	0x00001404
   253d0:	00000584 	.word	0x00000584
   253d4:	000013a8 	.word	0x000013a8
   253d8:	4819      	ldr	r0, [pc, #100]	@ (25440 <_start+0x1208>)
   253da:	4468      	add	r0, sp
   253dc:	78c1      	ldrb	r1, [r0, #3]
   253de:	4c19      	ldr	r4, [pc, #100]	@ (25444 <_start+0x120c>)
   253e0:	446c      	add	r4, sp
   253e2:	70a1      	strb	r1, [r4, #2]
   253e4:	7841      	ldrb	r1, [r0, #1]
   253e6:	7882      	ldrb	r2, [r0, #2]
   253e8:	0212      	lsls	r2, r2, #8
   253ea:	1851      	adds	r1, r2, r1
   253ec:	8021      	strh	r1, [r4, #0]
   253ee:	3008      	adds	r0, #8
   253f0:	9908      	ldr	r1, [sp, #32]
   253f2:	6e09      	ldr	r1, [r1, #96]	@ 0x60
   253f4:	910a      	str	r1, [sp, #40]	@ 0x28
   253f6:	4b14      	ldr	r3, [pc, #80]	@ (25448 <_start+0x1210>)
   253f8:	446b      	add	r3, sp
   253fa:	930b      	str	r3, [sp, #44]	@ 0x2c
   253fc:	c864      	ldmia	r0!, {r2, r5, r6}
   253fe:	c364      	stmia	r3!, {r2, r5, r6}
   25400:	c866      	ldmia	r0!, {r1, r2, r5, r6}
   25402:	c366      	stmia	r3!, {r1, r2, r5, r6}
   25404:	c826      	ldmia	r0!, {r1, r2, r5}
   25406:	c326      	stmia	r3!, {r1, r2, r5}
   25408:	c866      	ldmia	r0!, {r1, r2, r5, r6}
   2540a:	c366      	stmia	r3!, {r1, r2, r5, r6}
   2540c:	8800      	ldrh	r0, [r0, #0]
   2540e:	8018      	strh	r0, [r3, #0]
   25410:	990a      	ldr	r1, [sp, #40]	@ 0x28
   25412:	0e08      	lsrs	r0, r1, #24
   25414:	71a0      	strb	r0, [r4, #6]
   25416:	0c08      	lsrs	r0, r1, #16
   25418:	7160      	strb	r0, [r4, #5]
   2541a:	0a08      	lsrs	r0, r1, #8
   2541c:	7120      	strb	r0, [r4, #4]
   2541e:	70e1      	strb	r1, [r4, #3]
   25420:	1de0      	adds	r0, r4, #7
   25422:	223a      	movs	r2, #58	@ 0x3a
   25424:	990b      	ldr	r1, [sp, #44]	@ 0x2c
   25426:	f001 ff38 	bl	2729a <__aeabi_memcpy>
   2542a:	4d05      	ldr	r5, [pc, #20]	@ (25440 <_start+0x1208>)
   2542c:	446d      	add	r5, sp
   2542e:	4628      	mov	r0, r5
   25430:	4621      	mov	r1, r4
   25432:	f7fd fd4f 	bl	22ed4 <_ZN20complex_full_dynamic3app17hb9b665255904185dE>
   25436:	7828      	ldrb	r0, [r5, #0]
   25438:	2801      	cmp	r0, #1
   2543a:	d107      	bne.n	2544c <_start+0x1214>
   2543c:	f7ff f9d1 	bl	247e2 <_start+0x5aa>
   25440:	00001404 	.word	0x00001404
   25444:	000005b8 	.word	0x000005b8
   25448:	000013a8 	.word	0x000013a8
   2544c:	4817      	ldr	r0, [pc, #92]	@ (254ac <_start+0x1274>)
   2544e:	4468      	add	r0, sp
   25450:	78c1      	ldrb	r1, [r0, #3]
   25452:	4c17      	ldr	r4, [pc, #92]	@ (254b0 <_start+0x1278>)
   25454:	446c      	add	r4, sp
   25456:	70a1      	strb	r1, [r4, #2]
   25458:	7841      	ldrb	r1, [r0, #1]
   2545a:	7882      	ldrb	r2, [r0, #2]
   2545c:	0212      	lsls	r2, r2, #8
   2545e:	1851      	adds	r1, r2, r1
   25460:	8021      	strh	r1, [r4, #0]
   25462:	3008      	adds	r0, #8
   25464:	9908      	ldr	r1, [sp, #32]
   25466:	6e09      	ldr	r1, [r1, #96]	@ 0x60
   25468:	4b12      	ldr	r3, [pc, #72]	@ (254b4 <_start+0x127c>)
   2546a:	446b      	add	r3, sp
   2546c:	930b      	str	r3, [sp, #44]	@ 0x2c
   2546e:	c864      	ldmia	r0!, {r2, r5, r6}
   25470:	c364      	stmia	r3!, {r2, r5, r6}
   25472:	c864      	ldmia	r0!, {r2, r5, r6}
   25474:	c364      	stmia	r3!, {r2, r5, r6}
   25476:	8802      	ldrh	r2, [r0, #0]
   25478:	801a      	strh	r2, [r3, #0]
   2547a:	7880      	ldrb	r0, [r0, #2]
   2547c:	7098      	strb	r0, [r3, #2]
   2547e:	0e08      	lsrs	r0, r1, #24
   25480:	71a0      	strb	r0, [r4, #6]
   25482:	0c08      	lsrs	r0, r1, #16
   25484:	7160      	strb	r0, [r4, #5]
   25486:	0a08      	lsrs	r0, r1, #8
   25488:	7120      	strb	r0, [r4, #4]
   2548a:	70e1      	strb	r1, [r4, #3]
   2548c:	1de0      	adds	r0, r4, #7
   2548e:	221b      	movs	r2, #27
   25490:	990b      	ldr	r1, [sp, #44]	@ 0x2c
   25492:	f001 ff02 	bl	2729a <__aeabi_memcpy>
   25496:	4d05      	ldr	r5, [pc, #20]	@ (254ac <_start+0x1274>)
   25498:	446d      	add	r5, sp
   2549a:	4628      	mov	r0, r5
   2549c:	4621      	mov	r1, r4
   2549e:	f7fd fb5b 	bl	22b58 <_ZN20complex_full_dynamic3app17hadd40f441141f6a0E>
   254a2:	7828      	ldrb	r0, [r5, #0]
   254a4:	2801      	cmp	r0, #1
   254a6:	d107      	bne.n	254b8 <_start+0x1280>
   254a8:	f7ff f99b 	bl	247e2 <_start+0x5aa>
   254ac:	00001404 	.word	0x00001404
   254b0:	000005fc 	.word	0x000005fc
   254b4:	000013a8 	.word	0x000013a8
   254b8:	4915      	ldr	r1, [pc, #84]	@ (25510 <_start+0x12d8>)
   254ba:	4469      	add	r1, sp
   254bc:	78c8      	ldrb	r0, [r1, #3]
   254be:	4c15      	ldr	r4, [pc, #84]	@ (25514 <_start+0x12dc>)
   254c0:	446c      	add	r4, sp
   254c2:	70a0      	strb	r0, [r4, #2]
   254c4:	7848      	ldrb	r0, [r1, #1]
   254c6:	788a      	ldrb	r2, [r1, #2]
   254c8:	0212      	lsls	r2, r2, #8
   254ca:	1810      	adds	r0, r2, r0
   254cc:	8020      	strh	r0, [r4, #0]
   254ce:	9808      	ldr	r0, [sp, #32]
   254d0:	6e05      	ldr	r5, [r0, #96]	@ 0x60
   254d2:	3108      	adds	r1, #8
   254d4:	4810      	ldr	r0, [pc, #64]	@ (25518 <_start+0x12e0>)
   254d6:	4468      	add	r0, sp
   254d8:	900b      	str	r0, [sp, #44]	@ 0x2c
   254da:	264a      	movs	r6, #74	@ 0x4a
   254dc:	4632      	mov	r2, r6
   254de:	f001 fd7c 	bl	26fda <__aeabi_memcpy4>
   254e2:	0e28      	lsrs	r0, r5, #24
   254e4:	71a0      	strb	r0, [r4, #6]
   254e6:	0c28      	lsrs	r0, r5, #16
   254e8:	7160      	strb	r0, [r4, #5]
   254ea:	0a28      	lsrs	r0, r5, #8
   254ec:	7120      	strb	r0, [r4, #4]
   254ee:	70e5      	strb	r5, [r4, #3]
   254f0:	1de0      	adds	r0, r4, #7
   254f2:	990b      	ldr	r1, [sp, #44]	@ 0x2c
   254f4:	4632      	mov	r2, r6
   254f6:	f001 fed0 	bl	2729a <__aeabi_memcpy>
   254fa:	4d05      	ldr	r5, [pc, #20]	@ (25510 <_start+0x12d8>)
   254fc:	446d      	add	r5, sp
   254fe:	4628      	mov	r0, r5
   25500:	4621      	mov	r1, r4
   25502:	f7fb f805 	bl	20510 <_ZN20complex_full_dynamic3app17h0fa66cda0d3fc9a1E>
   25506:	7828      	ldrb	r0, [r5, #0]
   25508:	2801      	cmp	r0, #1
   2550a:	d107      	bne.n	2551c <_start+0x12e4>
   2550c:	f7ff f969 	bl	247e2 <_start+0x5aa>
   25510:	00001404 	.word	0x00001404
   25514:	00000620 	.word	0x00000620
   25518:	000013a8 	.word	0x000013a8
   2551c:	4915      	ldr	r1, [pc, #84]	@ (25574 <_start+0x133c>)
   2551e:	4469      	add	r1, sp
   25520:	78c8      	ldrb	r0, [r1, #3]
   25522:	4c15      	ldr	r4, [pc, #84]	@ (25578 <_start+0x1340>)
   25524:	446c      	add	r4, sp
   25526:	70a0      	strb	r0, [r4, #2]
   25528:	7848      	ldrb	r0, [r1, #1]
   2552a:	788a      	ldrb	r2, [r1, #2]
   2552c:	0212      	lsls	r2, r2, #8
   2552e:	1810      	adds	r0, r2, r0
   25530:	8020      	strh	r0, [r4, #0]
   25532:	9808      	ldr	r0, [sp, #32]
   25534:	6e05      	ldr	r5, [r0, #96]	@ 0x60
   25536:	3108      	adds	r1, #8
   25538:	4810      	ldr	r0, [pc, #64]	@ (2557c <_start+0x1344>)
   2553a:	4468      	add	r0, sp
   2553c:	900b      	str	r0, [sp, #44]	@ 0x2c
   2553e:	2648      	movs	r6, #72	@ 0x48
   25540:	4632      	mov	r2, r6
   25542:	f001 fd4a 	bl	26fda <__aeabi_memcpy4>
   25546:	0e28      	lsrs	r0, r5, #24
   25548:	71a0      	strb	r0, [r4, #6]
   2554a:	0c28      	lsrs	r0, r5, #16
   2554c:	7160      	strb	r0, [r4, #5]
   2554e:	0a28      	lsrs	r0, r5, #8
   25550:	7120      	strb	r0, [r4, #4]
   25552:	70e5      	strb	r5, [r4, #3]
   25554:	1de0      	adds	r0, r4, #7
   25556:	990b      	ldr	r1, [sp, #44]	@ 0x2c
   25558:	4632      	mov	r2, r6
   2555a:	f001 fe9e 	bl	2729a <__aeabi_memcpy>
   2555e:	4d05      	ldr	r5, [pc, #20]	@ (25574 <_start+0x133c>)
   25560:	446d      	add	r5, sp
   25562:	4628      	mov	r0, r5
   25564:	4621      	mov	r1, r4
   25566:	f7fa fdbd 	bl	200e4 <_ZN20complex_full_dynamic3app17h0061623660f4e45dE>
   2556a:	7828      	ldrb	r0, [r5, #0]
   2556c:	2801      	cmp	r0, #1
   2556e:	d107      	bne.n	25580 <_start+0x1348>
   25570:	f7ff f937 	bl	247e2 <_start+0x5aa>
   25574:	00001404 	.word	0x00001404
   25578:	00000674 	.word	0x00000674
   2557c:	000013a8 	.word	0x000013a8
   25580:	4818      	ldr	r0, [pc, #96]	@ (255e4 <_start+0x13ac>)
   25582:	4468      	add	r0, sp
   25584:	78c1      	ldrb	r1, [r0, #3]
   25586:	4c18      	ldr	r4, [pc, #96]	@ (255e8 <_start+0x13b0>)
   25588:	446c      	add	r4, sp
   2558a:	70a1      	strb	r1, [r4, #2]
   2558c:	7841      	ldrb	r1, [r0, #1]
   2558e:	7882      	ldrb	r2, [r0, #2]
   25590:	0212      	lsls	r2, r2, #8
   25592:	1851      	adds	r1, r2, r1
   25594:	8021      	strh	r1, [r4, #0]
   25596:	3008      	adds	r0, #8
   25598:	9908      	ldr	r1, [sp, #32]
   2559a:	6e09      	ldr	r1, [r1, #96]	@ 0x60
   2559c:	910a      	str	r1, [sp, #40]	@ 0x28
   2559e:	4b13      	ldr	r3, [pc, #76]	@ (255ec <_start+0x13b4>)
   255a0:	446b      	add	r3, sp
   255a2:	930b      	str	r3, [sp, #44]	@ 0x2c
   255a4:	c864      	ldmia	r0!, {r2, r5, r6}
   255a6:	c364      	stmia	r3!, {r2, r5, r6}
   255a8:	c864      	ldmia	r0!, {r2, r5, r6}
   255aa:	c364      	stmia	r3!, {r2, r5, r6}
   255ac:	c864      	ldmia	r0!, {r2, r5, r6}
   255ae:	c364      	stmia	r3!, {r2, r5, r6}
   255b0:	c866      	ldmia	r0!, {r1, r2, r5, r6}
   255b2:	c366      	stmia	r3!, {r1, r2, r5, r6}
   255b4:	990a      	ldr	r1, [sp, #40]	@ 0x28
   255b6:	0e08      	lsrs	r0, r1, #24
   255b8:	71a0      	strb	r0, [r4, #6]
   255ba:	0c08      	lsrs	r0, r1, #16
   255bc:	7160      	strb	r0, [r4, #5]
   255be:	0a08      	lsrs	r0, r1, #8
   255c0:	7120      	strb	r0, [r4, #4]
   255c2:	70e1      	strb	r1, [r4, #3]
   255c4:	1de0      	adds	r0, r4, #7
   255c6:	2234      	movs	r2, #52	@ 0x34
   255c8:	990b      	ldr	r1, [sp, #44]	@ 0x2c
   255ca:	f001 fe66 	bl	2729a <__aeabi_memcpy>
   255ce:	4d05      	ldr	r5, [pc, #20]	@ (255e4 <_start+0x13ac>)
   255d0:	446d      	add	r5, sp
   255d2:	4628      	mov	r0, r5
   255d4:	4621      	mov	r1, r4
   255d6:	f7fb f955 	bl	20884 <_ZN20complex_full_dynamic3app17h1d5d08a8496a20e3E>
   255da:	7828      	ldrb	r0, [r5, #0]
   255dc:	2801      	cmp	r0, #1
   255de:	d107      	bne.n	255f0 <_start+0x13b8>
   255e0:	f7ff f8ff 	bl	247e2 <_start+0x5aa>
   255e4:	00001404 	.word	0x00001404
   255e8:	000006c4 	.word	0x000006c4
   255ec:	000013a8 	.word	0x000013a8
   255f0:	4816      	ldr	r0, [pc, #88]	@ (2564c <_start+0x1414>)
   255f2:	4468      	add	r0, sp
   255f4:	78c1      	ldrb	r1, [r0, #3]
   255f6:	4c16      	ldr	r4, [pc, #88]	@ (25650 <_start+0x1418>)
   255f8:	446c      	add	r4, sp
   255fa:	70a1      	strb	r1, [r4, #2]
   255fc:	7841      	ldrb	r1, [r0, #1]
   255fe:	7882      	ldrb	r2, [r0, #2]
   25600:	0212      	lsls	r2, r2, #8
   25602:	1851      	adds	r1, r2, r1
   25604:	8021      	strh	r1, [r4, #0]
   25606:	3008      	adds	r0, #8
   25608:	9908      	ldr	r1, [sp, #32]
   2560a:	6e09      	ldr	r1, [r1, #96]	@ 0x60
   2560c:	910a      	str	r1, [sp, #40]	@ 0x28
   2560e:	4b11      	ldr	r3, [pc, #68]	@ (25654 <_start+0x141c>)
   25610:	446b      	add	r3, sp
   25612:	930b      	str	r3, [sp, #44]	@ 0x2c
   25614:	c866      	ldmia	r0!, {r1, r2, r5, r6}
   25616:	c366      	stmia	r3!, {r1, r2, r5, r6}
   25618:	c866      	ldmia	r0!, {r1, r2, r5, r6}
   2561a:	c366      	stmia	r3!, {r1, r2, r5, r6}
   2561c:	990a      	ldr	r1, [sp, #40]	@ 0x28
   2561e:	0e08      	lsrs	r0, r1, #24
   25620:	71a0      	strb	r0, [r4, #6]
   25622:	0c08      	lsrs	r0, r1, #16
   25624:	7160      	strb	r0, [r4, #5]
   25626:	0a08      	lsrs	r0, r1, #8
   25628:	7120      	strb	r0, [r4, #4]
   2562a:	70e1      	strb	r1, [r4, #3]
   2562c:	1de0      	adds	r0, r4, #7
   2562e:	2220      	movs	r2, #32
   25630:	990b      	ldr	r1, [sp, #44]	@ 0x2c
   25632:	f001 fe32 	bl	2729a <__aeabi_memcpy>
   25636:	4d05      	ldr	r5, [pc, #20]	@ (2564c <_start+0x1414>)
   25638:	446d      	add	r5, sp
   2563a:	4628      	mov	r0, r5
   2563c:	4621      	mov	r1, r4
   2563e:	f7fb fdfd 	bl	2123c <_ZN20complex_full_dynamic3app17h410a2f870df67597E>
   25642:	7828      	ldrb	r0, [r5, #0]
   25644:	2801      	cmp	r0, #1
   25646:	d107      	bne.n	25658 <_start+0x1420>
   25648:	f7ff f8cb 	bl	247e2 <_start+0x5aa>
   2564c:	00001404 	.word	0x00001404
   25650:	00000700 	.word	0x00000700
   25654:	000013a8 	.word	0x000013a8
   25658:	4915      	ldr	r1, [pc, #84]	@ (256b0 <_start+0x1478>)
   2565a:	4469      	add	r1, sp
   2565c:	9d08      	ldr	r5, [sp, #32]
   2565e:	6f28      	ldr	r0, [r5, #112]	@ 0x70
   25660:	7308      	strb	r0, [r1, #12]
   25662:	4814      	ldr	r0, [pc, #80]	@ (256b4 <_start+0x147c>)
   25664:	4468      	add	r0, sp
   25666:	78c2      	ldrb	r2, [r0, #3]
   25668:	4c13      	ldr	r4, [pc, #76]	@ (256b8 <_start+0x1480>)
   2566a:	446c      	add	r4, sp
   2566c:	70a2      	strb	r2, [r4, #2]
   2566e:	7842      	ldrb	r2, [r0, #1]
   25670:	7880      	ldrb	r0, [r0, #2]
   25672:	0200      	lsls	r0, r0, #8
   25674:	1880      	adds	r0, r0, r2
   25676:	8020      	strh	r0, [r4, #0]
   25678:	6e28      	ldr	r0, [r5, #96]	@ 0x60
   2567a:	70e0      	strb	r0, [r4, #3]
   2567c:	0e02      	lsrs	r2, r0, #24
   2567e:	71a2      	strb	r2, [r4, #6]
   25680:	0c02      	lsrs	r2, r0, #16
   25682:	7162      	strb	r2, [r4, #5]
   25684:	0a00      	lsrs	r0, r0, #8
   25686:	7120      	strb	r0, [r4, #4]
   25688:	462b      	mov	r3, r5
   2568a:	3364      	adds	r3, #100	@ 0x64
   2568c:	cb0d      	ldmia	r3, {r0, r2, r3}
   2568e:	c50d      	stmia	r5!, {r0, r2, r3}
   25690:	1de0      	adds	r0, r4, #7
   25692:	220d      	movs	r2, #13
   25694:	f001 fe01 	bl	2729a <__aeabi_memcpy>
   25698:	4d06      	ldr	r5, [pc, #24]	@ (256b4 <_start+0x147c>)
   2569a:	446d      	add	r5, sp
   2569c:	4628      	mov	r0, r5
   2569e:	4621      	mov	r1, r4
   256a0:	f7fe fcbe 	bl	24020 <_ZN20complex_full_dynamic3app17hf86486c9f96ecb65E>
   256a4:	7828      	ldrb	r0, [r5, #0]
   256a6:	2801      	cmp	r0, #1
   256a8:	d108      	bne.n	256bc <_start+0x1484>
   256aa:	f7ff f89a 	bl	247e2 <_start+0x5aa>
   256ae:	46c0      	nop			@ (mov r8, r8)
   256b0:	000013a8 	.word	0x000013a8
   256b4:	00001404 	.word	0x00001404
   256b8:	00000728 	.word	0x00000728
   256bc:	4816      	ldr	r0, [pc, #88]	@ (25718 <_start+0x14e0>)
   256be:	4468      	add	r0, sp
   256c0:	78c1      	ldrb	r1, [r0, #3]
   256c2:	4c16      	ldr	r4, [pc, #88]	@ (2571c <_start+0x14e4>)
   256c4:	446c      	add	r4, sp
   256c6:	70a1      	strb	r1, [r4, #2]
   256c8:	7841      	ldrb	r1, [r0, #1]
   256ca:	7882      	ldrb	r2, [r0, #2]
   256cc:	0212      	lsls	r2, r2, #8
   256ce:	1851      	adds	r1, r2, r1
   256d0:	8021      	strh	r1, [r4, #0]
   256d2:	3008      	adds	r0, #8
   256d4:	9908      	ldr	r1, [sp, #32]
   256d6:	6e09      	ldr	r1, [r1, #96]	@ 0x60
   256d8:	4b11      	ldr	r3, [pc, #68]	@ (25720 <_start+0x14e8>)
   256da:	446b      	add	r3, sp
   256dc:	930b      	str	r3, [sp, #44]	@ 0x2c
   256de:	c864      	ldmia	r0!, {r2, r5, r6}
   256e0:	c364      	stmia	r3!, {r2, r5, r6}
   256e2:	c864      	ldmia	r0!, {r2, r5, r6}
   256e4:	c364      	stmia	r3!, {r2, r5, r6}
   256e6:	c864      	ldmia	r0!, {r2, r5, r6}
   256e8:	c364      	stmia	r3!, {r2, r5, r6}
   256ea:	0e08      	lsrs	r0, r1, #24
   256ec:	71a0      	strb	r0, [r4, #6]
   256ee:	0c08      	lsrs	r0, r1, #16
   256f0:	7160      	strb	r0, [r4, #5]
   256f2:	0a08      	lsrs	r0, r1, #8
   256f4:	7120      	strb	r0, [r4, #4]
   256f6:	70e1      	strb	r1, [r4, #3]
   256f8:	1de0      	adds	r0, r4, #7
   256fa:	2224      	movs	r2, #36	@ 0x24
   256fc:	990b      	ldr	r1, [sp, #44]	@ 0x2c
   256fe:	f001 fdcc 	bl	2729a <__aeabi_memcpy>
   25702:	4d05      	ldr	r5, [pc, #20]	@ (25718 <_start+0x14e0>)
   25704:	446d      	add	r5, sp
   25706:	4628      	mov	r0, r5
   25708:	4621      	mov	r1, r4
   2570a:	f7fb fefb 	bl	21504 <_ZN20complex_full_dynamic3app17h4518e405632255cfE>
   2570e:	7828      	ldrb	r0, [r5, #0]
   25710:	2801      	cmp	r0, #1
   25712:	d107      	bne.n	25724 <_start+0x14ec>
   25714:	f7ff f865 	bl	247e2 <_start+0x5aa>
   25718:	00001404 	.word	0x00001404
   2571c:	0000073c 	.word	0x0000073c
   25720:	000013a8 	.word	0x000013a8
   25724:	4817      	ldr	r0, [pc, #92]	@ (25784 <_start+0x154c>)
   25726:	4468      	add	r0, sp
   25728:	78c1      	ldrb	r1, [r0, #3]
   2572a:	4c17      	ldr	r4, [pc, #92]	@ (25788 <_start+0x1550>)
   2572c:	446c      	add	r4, sp
   2572e:	70a1      	strb	r1, [r4, #2]
   25730:	7841      	ldrb	r1, [r0, #1]
   25732:	7882      	ldrb	r2, [r0, #2]
   25734:	0212      	lsls	r2, r2, #8
   25736:	1851      	adds	r1, r2, r1
   25738:	8021      	strh	r1, [r4, #0]
   2573a:	3008      	adds	r0, #8
   2573c:	9908      	ldr	r1, [sp, #32]
   2573e:	6e09      	ldr	r1, [r1, #96]	@ 0x60
   25740:	4b12      	ldr	r3, [pc, #72]	@ (2578c <_start+0x1554>)
   25742:	446b      	add	r3, sp
   25744:	930b      	str	r3, [sp, #44]	@ 0x2c
   25746:	c860      	ldmia	r0!, {r5, r6}
   25748:	c360      	stmia	r3!, {r5, r6}
   2574a:	c864      	ldmia	r0!, {r2, r5, r6}
   2574c:	c364      	stmia	r3!, {r2, r5, r6}
   2574e:	8802      	ldrh	r2, [r0, #0]
   25750:	801a      	strh	r2, [r3, #0]
   25752:	7880      	ldrb	r0, [r0, #2]
   25754:	7098      	strb	r0, [r3, #2]
   25756:	0e08      	lsrs	r0, r1, #24
   25758:	71a0      	strb	r0, [r4, #6]
   2575a:	0c08      	lsrs	r0, r1, #16
   2575c:	7160      	strb	r0, [r4, #5]
   2575e:	0a08      	lsrs	r0, r1, #8
   25760:	7120      	strb	r0, [r4, #4]
   25762:	70e1      	strb	r1, [r4, #3]
   25764:	1de0      	adds	r0, r4, #7
   25766:	2217      	movs	r2, #23
   25768:	990b      	ldr	r1, [sp, #44]	@ 0x2c
   2576a:	f001 fd96 	bl	2729a <__aeabi_memcpy>
   2576e:	4d05      	ldr	r5, [pc, #20]	@ (25784 <_start+0x154c>)
   25770:	446d      	add	r5, sp
   25772:	4628      	mov	r0, r5
   25774:	4621      	mov	r1, r4
   25776:	f7fd f997 	bl	22aa8 <_ZN20complex_full_dynamic3app17ha97452271c4fce67E>
   2577a:	7828      	ldrb	r0, [r5, #0]
   2577c:	2801      	cmp	r0, #1
   2577e:	d107      	bne.n	25790 <_start+0x1558>
   25780:	f7ff f82f 	bl	247e2 <_start+0x5aa>
   25784:	00001404 	.word	0x00001404
   25788:	00000768 	.word	0x00000768
   2578c:	000013a8 	.word	0x000013a8
   25790:	4915      	ldr	r1, [pc, #84]	@ (257e8 <_start+0x15b0>)
   25792:	4469      	add	r1, sp
   25794:	78c8      	ldrb	r0, [r1, #3]
   25796:	4c15      	ldr	r4, [pc, #84]	@ (257ec <_start+0x15b4>)
   25798:	446c      	add	r4, sp
   2579a:	70a0      	strb	r0, [r4, #2]
   2579c:	7848      	ldrb	r0, [r1, #1]
   2579e:	788a      	ldrb	r2, [r1, #2]
   257a0:	0212      	lsls	r2, r2, #8
   257a2:	1810      	adds	r0, r2, r0
   257a4:	8020      	strh	r0, [r4, #0]
   257a6:	9808      	ldr	r0, [sp, #32]
   257a8:	6e05      	ldr	r5, [r0, #96]	@ 0x60
   257aa:	3108      	adds	r1, #8
   257ac:	4810      	ldr	r0, [pc, #64]	@ (257f0 <_start+0x15b8>)
   257ae:	4468      	add	r0, sp
   257b0:	900b      	str	r0, [sp, #44]	@ 0x2c
   257b2:	264a      	movs	r6, #74	@ 0x4a
   257b4:	4632      	mov	r2, r6
   257b6:	f001 fc10 	bl	26fda <__aeabi_memcpy4>
   257ba:	0e28      	lsrs	r0, r5, #24
   257bc:	71a0      	strb	r0, [r4, #6]
   257be:	0c28      	lsrs	r0, r5, #16
   257c0:	7160      	strb	r0, [r4, #5]
   257c2:	0a28      	lsrs	r0, r5, #8
   257c4:	7120      	strb	r0, [r4, #4]
   257c6:	70e5      	strb	r5, [r4, #3]
   257c8:	1de0      	adds	r0, r4, #7
   257ca:	990b      	ldr	r1, [sp, #44]	@ 0x2c
   257cc:	4632      	mov	r2, r6
   257ce:	f001 fd64 	bl	2729a <__aeabi_memcpy>
   257d2:	4d05      	ldr	r5, [pc, #20]	@ (257e8 <_start+0x15b0>)
   257d4:	446d      	add	r5, sp
   257d6:	4628      	mov	r0, r5
   257d8:	4621      	mov	r1, r4
   257da:	f7fa fef1 	bl	205c0 <_ZN20complex_full_dynamic3app17h101bd52716059e3cE>
   257de:	7828      	ldrb	r0, [r5, #0]
   257e0:	2801      	cmp	r0, #1
   257e2:	d107      	bne.n	257f4 <_start+0x15bc>
   257e4:	f7fe fffd 	bl	247e2 <_start+0x5aa>
   257e8:	00001404 	.word	0x00001404
   257ec:	00000788 	.word	0x00000788
   257f0:	000013a8 	.word	0x000013a8
   257f4:	9805      	ldr	r0, [sp, #20]
   257f6:	1cc0      	adds	r0, r0, #3
   257f8:	4a16      	ldr	r2, [pc, #88]	@ (25854 <_start+0x161c>)
   257fa:	446a      	add	r2, sp
   257fc:	78d3      	ldrb	r3, [r2, #3]
   257fe:	4916      	ldr	r1, [pc, #88]	@ (25858 <_start+0x1620>)
   25800:	4469      	add	r1, sp
   25802:	708b      	strb	r3, [r1, #2]
   25804:	7853      	ldrb	r3, [r2, #1]
   25806:	7892      	ldrb	r2, [r2, #2]
   25808:	0212      	lsls	r2, r2, #8
   2580a:	18d2      	adds	r2, r2, r3
   2580c:	800a      	strh	r2, [r1, #0]
   2580e:	9c08      	ldr	r4, [sp, #32]
   25810:	3460      	adds	r4, #96	@ 0x60
   25812:	cc1c      	ldmia	r4, {r2, r3, r4}
   25814:	0e25      	lsrs	r5, r4, #24
   25816:	72c5      	strb	r5, [r0, #11]
   25818:	0c25      	lsrs	r5, r4, #16
   2581a:	7285      	strb	r5, [r0, #10]
   2581c:	0a25      	lsrs	r5, r4, #8
   2581e:	7245      	strb	r5, [r0, #9]
   25820:	7204      	strb	r4, [r0, #8]
   25822:	0e1c      	lsrs	r4, r3, #24
   25824:	71c4      	strb	r4, [r0, #7]
   25826:	0c1c      	lsrs	r4, r3, #16
   25828:	7184      	strb	r4, [r0, #6]
   2582a:	0a1c      	lsrs	r4, r3, #8
   2582c:	7144      	strb	r4, [r0, #5]
   2582e:	7103      	strb	r3, [r0, #4]
   25830:	0e13      	lsrs	r3, r2, #24
   25832:	70c3      	strb	r3, [r0, #3]
   25834:	0c13      	lsrs	r3, r2, #16
   25836:	7083      	strb	r3, [r0, #2]
   25838:	0a13      	lsrs	r3, r2, #8
   2583a:	7043      	strb	r3, [r0, #1]
   2583c:	7002      	strb	r2, [r0, #0]
   2583e:	4c05      	ldr	r4, [pc, #20]	@ (25854 <_start+0x161c>)
   25840:	446c      	add	r4, sp
   25842:	4620      	mov	r0, r4
   25844:	f7fc ff10 	bl	22668 <_ZN20complex_full_dynamic3app17h9ffc9ed1fc98c700E>
   25848:	7820      	ldrb	r0, [r4, #0]
   2584a:	2801      	cmp	r0, #1
   2584c:	d106      	bne.n	2585c <_start+0x1624>
   2584e:	f7fe ffc8 	bl	247e2 <_start+0x5aa>
   25852:	46c0      	nop			@ (mov r8, r8)
   25854:	00001404 	.word	0x00001404
   25858:	000007dc 	.word	0x000007dc
   2585c:	481a      	ldr	r0, [pc, #104]	@ (258c8 <_start+0x1690>)
   2585e:	4468      	add	r0, sp
   25860:	78c1      	ldrb	r1, [r0, #3]
   25862:	4c1a      	ldr	r4, [pc, #104]	@ (258cc <_start+0x1694>)
   25864:	446c      	add	r4, sp
   25866:	70a1      	strb	r1, [r4, #2]
   25868:	7841      	ldrb	r1, [r0, #1]
   2586a:	7882      	ldrb	r2, [r0, #2]
   2586c:	0212      	lsls	r2, r2, #8
   2586e:	1851      	adds	r1, r2, r1
   25870:	8021      	strh	r1, [r4, #0]
   25872:	3008      	adds	r0, #8
   25874:	9908      	ldr	r1, [sp, #32]
   25876:	6e09      	ldr	r1, [r1, #96]	@ 0x60
   25878:	910a      	str	r1, [sp, #40]	@ 0x28
   2587a:	4b15      	ldr	r3, [pc, #84]	@ (258d0 <_start+0x1698>)
   2587c:	446b      	add	r3, sp
   2587e:	930b      	str	r3, [sp, #44]	@ 0x2c
   25880:	c864      	ldmia	r0!, {r2, r5, r6}
   25882:	c364      	stmia	r3!, {r2, r5, r6}
   25884:	c866      	ldmia	r0!, {r1, r2, r5, r6}
   25886:	c366      	stmia	r3!, {r1, r2, r5, r6}
   25888:	c866      	ldmia	r0!, {r1, r2, r5, r6}
   2588a:	c366      	stmia	r3!, {r1, r2, r5, r6}
   2588c:	c866      	ldmia	r0!, {r1, r2, r5, r6}
   2588e:	c366      	stmia	r3!, {r1, r2, r5, r6}
   25890:	8801      	ldrh	r1, [r0, #0]
   25892:	8019      	strh	r1, [r3, #0]
   25894:	7880      	ldrb	r0, [r0, #2]
   25896:	7098      	strb	r0, [r3, #2]
   25898:	990a      	ldr	r1, [sp, #40]	@ 0x28
   2589a:	0e08      	lsrs	r0, r1, #24
   2589c:	71a0      	strb	r0, [r4, #6]
   2589e:	0c08      	lsrs	r0, r1, #16
   258a0:	7160      	strb	r0, [r4, #5]
   258a2:	0a08      	lsrs	r0, r1, #8
   258a4:	7120      	strb	r0, [r4, #4]
   258a6:	70e1      	strb	r1, [r4, #3]
   258a8:	1de0      	adds	r0, r4, #7
   258aa:	223f      	movs	r2, #63	@ 0x3f
   258ac:	990b      	ldr	r1, [sp, #44]	@ 0x2c
   258ae:	f001 fcf4 	bl	2729a <__aeabi_memcpy>
   258b2:	4d05      	ldr	r5, [pc, #20]	@ (258c8 <_start+0x1690>)
   258b4:	446d      	add	r5, sp
   258b6:	4628      	mov	r0, r5
   258b8:	4621      	mov	r1, r4
   258ba:	f7fc fb57 	bl	21f6c <_ZN20complex_full_dynamic3app17h7e350972ca59ab96E>
   258be:	7828      	ldrb	r0, [r5, #0]
   258c0:	2801      	cmp	r0, #1
   258c2:	d107      	bne.n	258d4 <_start+0x169c>
   258c4:	f7fe ff8d 	bl	247e2 <_start+0x5aa>
   258c8:	00001404 	.word	0x00001404
   258cc:	000007ec 	.word	0x000007ec
   258d0:	000013a8 	.word	0x000013a8
   258d4:	4915      	ldr	r1, [pc, #84]	@ (2592c <_start+0x16f4>)
   258d6:	4469      	add	r1, sp
   258d8:	78c8      	ldrb	r0, [r1, #3]
   258da:	4c15      	ldr	r4, [pc, #84]	@ (25930 <_start+0x16f8>)
   258dc:	446c      	add	r4, sp
   258de:	70a0      	strb	r0, [r4, #2]
   258e0:	7848      	ldrb	r0, [r1, #1]
   258e2:	788a      	ldrb	r2, [r1, #2]
   258e4:	0212      	lsls	r2, r2, #8
   258e6:	1810      	adds	r0, r2, r0
   258e8:	8020      	strh	r0, [r4, #0]
   258ea:	9808      	ldr	r0, [sp, #32]
   258ec:	6e05      	ldr	r5, [r0, #96]	@ 0x60
   258ee:	3108      	adds	r1, #8
   258f0:	4810      	ldr	r0, [pc, #64]	@ (25934 <_start+0x16fc>)
   258f2:	4468      	add	r0, sp
   258f4:	900b      	str	r0, [sp, #44]	@ 0x2c
   258f6:	264f      	movs	r6, #79	@ 0x4f
   258f8:	4632      	mov	r2, r6
   258fa:	f001 fb6e 	bl	26fda <__aeabi_memcpy4>
   258fe:	0e28      	lsrs	r0, r5, #24
   25900:	71a0      	strb	r0, [r4, #6]
   25902:	0c28      	lsrs	r0, r5, #16
   25904:	7160      	strb	r0, [r4, #5]
   25906:	0a28      	lsrs	r0, r5, #8
   25908:	7120      	strb	r0, [r4, #4]
   2590a:	70e5      	strb	r5, [r4, #3]
   2590c:	1de0      	adds	r0, r4, #7
   2590e:	990b      	ldr	r1, [sp, #44]	@ 0x2c
   25910:	4632      	mov	r2, r6
   25912:	f001 fcc2 	bl	2729a <__aeabi_memcpy>
   25916:	4d05      	ldr	r5, [pc, #20]	@ (2592c <_start+0x16f4>)
   25918:	446d      	add	r5, sp
   2591a:	4628      	mov	r0, r5
   2591c:	4621      	mov	r1, r4
   2591e:	f7fc f90f 	bl	21b40 <_ZN20complex_full_dynamic3app17h59d3d79599368273E>
   25922:	7828      	ldrb	r0, [r5, #0]
   25924:	2801      	cmp	r0, #1
   25926:	d107      	bne.n	25938 <_start+0x1700>
   25928:	f7fe ff5b 	bl	247e2 <_start+0x5aa>
   2592c:	00001404 	.word	0x00001404
   25930:	00000834 	.word	0x00000834
   25934:	000013a8 	.word	0x000013a8
   25938:	4915      	ldr	r1, [pc, #84]	@ (25990 <_start+0x1758>)
   2593a:	4469      	add	r1, sp
   2593c:	78c8      	ldrb	r0, [r1, #3]
   2593e:	4c15      	ldr	r4, [pc, #84]	@ (25994 <_start+0x175c>)
   25940:	446c      	add	r4, sp
   25942:	70a0      	strb	r0, [r4, #2]
   25944:	7848      	ldrb	r0, [r1, #1]
   25946:	788a      	ldrb	r2, [r1, #2]
   25948:	0212      	lsls	r2, r2, #8
   2594a:	1810      	adds	r0, r2, r0
   2594c:	8020      	strh	r0, [r4, #0]
   2594e:	9808      	ldr	r0, [sp, #32]
   25950:	6e05      	ldr	r5, [r0, #96]	@ 0x60
   25952:	3108      	adds	r1, #8
   25954:	4810      	ldr	r0, [pc, #64]	@ (25998 <_start+0x1760>)
   25956:	4468      	add	r0, sp
   25958:	900b      	str	r0, [sp, #44]	@ 0x2c
   2595a:	2642      	movs	r6, #66	@ 0x42
   2595c:	4632      	mov	r2, r6
   2595e:	f001 fb3c 	bl	26fda <__aeabi_memcpy4>
   25962:	0e28      	lsrs	r0, r5, #24
   25964:	71a0      	strb	r0, [r4, #6]
   25966:	0c28      	lsrs	r0, r5, #16
   25968:	7160      	strb	r0, [r4, #5]
   2596a:	0a28      	lsrs	r0, r5, #8
   2596c:	7120      	strb	r0, [r4, #4]
   2596e:	70e5      	strb	r5, [r4, #3]
   25970:	1de0      	adds	r0, r4, #7
   25972:	990b      	ldr	r1, [sp, #44]	@ 0x2c
   25974:	4632      	mov	r2, r6
   25976:	f001 fc90 	bl	2729a <__aeabi_memcpy>
   2597a:	4d05      	ldr	r5, [pc, #20]	@ (25990 <_start+0x1758>)
   2597c:	446d      	add	r5, sp
   2597e:	4628      	mov	r0, r5
   25980:	4621      	mov	r1, r4
   25982:	f7fb f991 	bl	20ca8 <_ZN20complex_full_dynamic3app17h2c15c0e753d7b2fcE>
   25986:	7828      	ldrb	r0, [r5, #0]
   25988:	2801      	cmp	r0, #1
   2598a:	d107      	bne.n	2599c <_start+0x1764>
   2598c:	f7fe ff29 	bl	247e2 <_start+0x5aa>
   25990:	00001404 	.word	0x00001404
   25994:	0000088c 	.word	0x0000088c
   25998:	000013a8 	.word	0x000013a8
   2599c:	4816      	ldr	r0, [pc, #88]	@ (259f8 <_start+0x17c0>)
   2599e:	4468      	add	r0, sp
   259a0:	78c1      	ldrb	r1, [r0, #3]
   259a2:	4c16      	ldr	r4, [pc, #88]	@ (259fc <_start+0x17c4>)
   259a4:	446c      	add	r4, sp
   259a6:	70a1      	strb	r1, [r4, #2]
   259a8:	7841      	ldrb	r1, [r0, #1]
   259aa:	7882      	ldrb	r2, [r0, #2]
   259ac:	0212      	lsls	r2, r2, #8
   259ae:	1851      	adds	r1, r2, r1
   259b0:	8021      	strh	r1, [r4, #0]
   259b2:	3008      	adds	r0, #8
   259b4:	9908      	ldr	r1, [sp, #32]
   259b6:	6e09      	ldr	r1, [r1, #96]	@ 0x60
   259b8:	910a      	str	r1, [sp, #40]	@ 0x28
   259ba:	4b11      	ldr	r3, [pc, #68]	@ (25a00 <_start+0x17c8>)
   259bc:	446b      	add	r3, sp
   259be:	930b      	str	r3, [sp, #44]	@ 0x2c
   259c0:	c864      	ldmia	r0!, {r2, r5, r6}
   259c2:	c364      	stmia	r3!, {r2, r5, r6}
   259c4:	c866      	ldmia	r0!, {r1, r2, r5, r6}
   259c6:	c366      	stmia	r3!, {r1, r2, r5, r6}
   259c8:	990a      	ldr	r1, [sp, #40]	@ 0x28
   259ca:	0e08      	lsrs	r0, r1, #24
   259cc:	71a0      	strb	r0, [r4, #6]
   259ce:	0c08      	lsrs	r0, r1, #16
   259d0:	7160      	strb	r0, [r4, #5]
   259d2:	0a08      	lsrs	r0, r1, #8
   259d4:	7120      	strb	r0, [r4, #4]
   259d6:	70e1      	strb	r1, [r4, #3]
   259d8:	1de0      	adds	r0, r4, #7
   259da:	221c      	movs	r2, #28
   259dc:	990b      	ldr	r1, [sp, #44]	@ 0x2c
   259de:	f001 fc5c 	bl	2729a <__aeabi_memcpy>
   259e2:	4d05      	ldr	r5, [pc, #20]	@ (259f8 <_start+0x17c0>)
   259e4:	446d      	add	r5, sp
   259e6:	4628      	mov	r0, r5
   259e8:	4621      	mov	r1, r4
   259ea:	f7fa fc87 	bl	202fc <_ZN20complex_full_dynamic3app17h04aa947276565358E>
   259ee:	7828      	ldrb	r0, [r5, #0]
   259f0:	2801      	cmp	r0, #1
   259f2:	d107      	bne.n	25a04 <_start+0x17cc>
   259f4:	f7fe fef5 	bl	247e2 <_start+0x5aa>
   259f8:	00001404 	.word	0x00001404
   259fc:	000008d8 	.word	0x000008d8
   25a00:	000013a8 	.word	0x000013a8
   25a04:	4816      	ldr	r0, [pc, #88]	@ (25a60 <_start+0x1828>)
   25a06:	4468      	add	r0, sp
   25a08:	78c1      	ldrb	r1, [r0, #3]
   25a0a:	4c16      	ldr	r4, [pc, #88]	@ (25a64 <_start+0x182c>)
   25a0c:	446c      	add	r4, sp
   25a0e:	70a1      	strb	r1, [r4, #2]
   25a10:	7841      	ldrb	r1, [r0, #1]
   25a12:	7882      	ldrb	r2, [r0, #2]
   25a14:	0212      	lsls	r2, r2, #8
   25a16:	1851      	adds	r1, r2, r1
   25a18:	8021      	strh	r1, [r4, #0]
   25a1a:	3008      	adds	r0, #8
   25a1c:	9908      	ldr	r1, [sp, #32]
   25a1e:	6e09      	ldr	r1, [r1, #96]	@ 0x60
   25a20:	4b11      	ldr	r3, [pc, #68]	@ (25a68 <_start+0x1830>)
   25a22:	446b      	add	r3, sp
   25a24:	930b      	str	r3, [sp, #44]	@ 0x2c
   25a26:	c864      	ldmia	r0!, {r2, r5, r6}
   25a28:	c364      	stmia	r3!, {r2, r5, r6}
   25a2a:	c864      	ldmia	r0!, {r2, r5, r6}
   25a2c:	c364      	stmia	r3!, {r2, r5, r6}
   25a2e:	c864      	ldmia	r0!, {r2, r5, r6}
   25a30:	c364      	stmia	r3!, {r2, r5, r6}
   25a32:	0e08      	lsrs	r0, r1, #24
   25a34:	71a0      	strb	r0, [r4, #6]
   25a36:	0c08      	lsrs	r0, r1, #16
   25a38:	7160      	strb	r0, [r4, #5]
   25a3a:	0a08      	lsrs	r0, r1, #8
   25a3c:	7120      	strb	r0, [r4, #4]
   25a3e:	70e1      	strb	r1, [r4, #3]
   25a40:	1de0      	adds	r0, r4, #7
   25a42:	2224      	movs	r2, #36	@ 0x24
   25a44:	990b      	ldr	r1, [sp, #44]	@ 0x2c
   25a46:	f001 fc28 	bl	2729a <__aeabi_memcpy>
   25a4a:	4d05      	ldr	r5, [pc, #20]	@ (25a60 <_start+0x1828>)
   25a4c:	446d      	add	r5, sp
   25a4e:	4628      	mov	r0, r5
   25a50:	4621      	mov	r1, r4
   25a52:	f7fb fcff 	bl	21454 <_ZN20complex_full_dynamic3app17h445ef1e265790455E>
   25a56:	7828      	ldrb	r0, [r5, #0]
   25a58:	2801      	cmp	r0, #1
   25a5a:	d107      	bne.n	25a6c <_start+0x1834>
   25a5c:	f7fe fec1 	bl	247e2 <_start+0x5aa>
   25a60:	00001404 	.word	0x00001404
   25a64:	000008fc 	.word	0x000008fc
   25a68:	000013a8 	.word	0x000013a8
   25a6c:	4914      	ldr	r1, [pc, #80]	@ (25ac0 <_start+0x1888>)
   25a6e:	4469      	add	r1, sp
   25a70:	9b08      	ldr	r3, [sp, #32]
   25a72:	6e98      	ldr	r0, [r3, #104]	@ 0x68
   25a74:	8088      	strh	r0, [r1, #4]
   25a76:	4813      	ldr	r0, [pc, #76]	@ (25ac4 <_start+0x188c>)
   25a78:	4468      	add	r0, sp
   25a7a:	78c2      	ldrb	r2, [r0, #3]
   25a7c:	4c12      	ldr	r4, [pc, #72]	@ (25ac8 <_start+0x1890>)
   25a7e:	446c      	add	r4, sp
   25a80:	70a2      	strb	r2, [r4, #2]
   25a82:	7842      	ldrb	r2, [r0, #1]
   25a84:	7880      	ldrb	r0, [r0, #2]
   25a86:	0200      	lsls	r0, r0, #8
   25a88:	1880      	adds	r0, r0, r2
   25a8a:	8020      	strh	r0, [r4, #0]
   25a8c:	6e18      	ldr	r0, [r3, #96]	@ 0x60
   25a8e:	70e0      	strb	r0, [r4, #3]
   25a90:	0e02      	lsrs	r2, r0, #24
   25a92:	71a2      	strb	r2, [r4, #6]
   25a94:	0c02      	lsrs	r2, r0, #16
   25a96:	7162      	strb	r2, [r4, #5]
   25a98:	0a00      	lsrs	r0, r0, #8
   25a9a:	7120      	strb	r0, [r4, #4]
   25a9c:	6e58      	ldr	r0, [r3, #100]	@ 0x64
   25a9e:	6018      	str	r0, [r3, #0]
   25aa0:	1de0      	adds	r0, r4, #7
   25aa2:	2206      	movs	r2, #6
   25aa4:	f001 fbf9 	bl	2729a <__aeabi_memcpy>
   25aa8:	4d06      	ldr	r5, [pc, #24]	@ (25ac4 <_start+0x188c>)
   25aaa:	446d      	add	r5, sp
   25aac:	4628      	mov	r0, r5
   25aae:	4621      	mov	r1, r4
   25ab0:	f7fb fb6c 	bl	2118c <_ZN20complex_full_dynamic3app17h3f2c119eed11edfbE>
   25ab4:	7828      	ldrb	r0, [r5, #0]
   25ab6:	2801      	cmp	r0, #1
   25ab8:	d108      	bne.n	25acc <_start+0x1894>
   25aba:	f7fe fe92 	bl	247e2 <_start+0x5aa>
   25abe:	46c0      	nop			@ (mov r8, r8)
   25ac0:	000013a8 	.word	0x000013a8
   25ac4:	00001404 	.word	0x00001404
   25ac8:	00000928 	.word	0x00000928
   25acc:	4816      	ldr	r0, [pc, #88]	@ (25b28 <_start+0x18f0>)
   25ace:	4468      	add	r0, sp
   25ad0:	78c1      	ldrb	r1, [r0, #3]
   25ad2:	4c16      	ldr	r4, [pc, #88]	@ (25b2c <_start+0x18f4>)
   25ad4:	446c      	add	r4, sp
   25ad6:	70a1      	strb	r1, [r4, #2]
   25ad8:	7841      	ldrb	r1, [r0, #1]
   25ada:	7882      	ldrb	r2, [r0, #2]
   25adc:	0212      	lsls	r2, r2, #8
   25ade:	1851      	adds	r1, r2, r1
   25ae0:	8021      	strh	r1, [r4, #0]
   25ae2:	3008      	adds	r0, #8
   25ae4:	9908      	ldr	r1, [sp, #32]
   25ae6:	6e09      	ldr	r1, [r1, #96]	@ 0x60
   25ae8:	4b11      	ldr	r3, [pc, #68]	@ (25b30 <_start+0x18f8>)
   25aea:	446b      	add	r3, sp
   25aec:	930b      	str	r3, [sp, #44]	@ 0x2c
   25aee:	c864      	ldmia	r0!, {r2, r5, r6}
   25af0:	c364      	stmia	r3!, {r2, r5, r6}
   25af2:	c864      	ldmia	r0!, {r2, r5, r6}
   25af4:	c364      	stmia	r3!, {r2, r5, r6}
   25af6:	8800      	ldrh	r0, [r0, #0]
   25af8:	8018      	strh	r0, [r3, #0]
   25afa:	0e08      	lsrs	r0, r1, #24
   25afc:	71a0      	strb	r0, [r4, #6]
   25afe:	0c08      	lsrs	r0, r1, #16
   25b00:	7160      	strb	r0, [r4, #5]
   25b02:	0a08      	lsrs	r0, r1, #8
   25b04:	7120      	strb	r0, [r4, #4]
   25b06:	70e1      	strb	r1, [r4, #3]
   25b08:	1de0      	adds	r0, r4, #7
   25b0a:	221a      	movs	r2, #26
   25b0c:	990b      	ldr	r1, [sp, #44]	@ 0x2c
   25b0e:	f001 fbc4 	bl	2729a <__aeabi_memcpy>
   25b12:	4d05      	ldr	r5, [pc, #20]	@ (25b28 <_start+0x18f0>)
   25b14:	446d      	add	r5, sp
   25b16:	4628      	mov	r0, r5
   25b18:	4621      	mov	r1, r4
   25b1a:	f7fa fda9 	bl	20670 <_ZN20complex_full_dynamic3app17h1083b4402e71d716E>
   25b1e:	7828      	ldrb	r0, [r5, #0]
   25b20:	2801      	cmp	r0, #1
   25b22:	d107      	bne.n	25b34 <_start+0x18fc>
   25b24:	f7fe fe5d 	bl	247e2 <_start+0x5aa>
   25b28:	00001404 	.word	0x00001404
   25b2c:	00000938 	.word	0x00000938
   25b30:	000013a8 	.word	0x000013a8
   25b34:	4915      	ldr	r1, [pc, #84]	@ (25b8c <_start+0x1954>)
   25b36:	4469      	add	r1, sp
   25b38:	78c8      	ldrb	r0, [r1, #3]
   25b3a:	4c15      	ldr	r4, [pc, #84]	@ (25b90 <_start+0x1958>)
   25b3c:	446c      	add	r4, sp
   25b3e:	70a0      	strb	r0, [r4, #2]
   25b40:	7848      	ldrb	r0, [r1, #1]
   25b42:	788a      	ldrb	r2, [r1, #2]
   25b44:	0212      	lsls	r2, r2, #8
   25b46:	1810      	adds	r0, r2, r0
   25b48:	8020      	strh	r0, [r4, #0]
   25b4a:	9808      	ldr	r0, [sp, #32]
   25b4c:	6e05      	ldr	r5, [r0, #96]	@ 0x60
   25b4e:	3108      	adds	r1, #8
   25b50:	4810      	ldr	r0, [pc, #64]	@ (25b94 <_start+0x195c>)
   25b52:	4468      	add	r0, sp
   25b54:	900b      	str	r0, [sp, #44]	@ 0x2c
   25b56:	264c      	movs	r6, #76	@ 0x4c
   25b58:	4632      	mov	r2, r6
   25b5a:	f001 fa3e 	bl	26fda <__aeabi_memcpy4>
   25b5e:	0e28      	lsrs	r0, r5, #24
   25b60:	71a0      	strb	r0, [r4, #6]
   25b62:	0c28      	lsrs	r0, r5, #16
   25b64:	7160      	strb	r0, [r4, #5]
   25b66:	0a28      	lsrs	r0, r5, #8
   25b68:	7120      	strb	r0, [r4, #4]
   25b6a:	70e5      	strb	r5, [r4, #3]
   25b6c:	1de0      	adds	r0, r4, #7
   25b6e:	990b      	ldr	r1, [sp, #44]	@ 0x2c
   25b70:	4632      	mov	r2, r6
   25b72:	f001 fb92 	bl	2729a <__aeabi_memcpy>
   25b76:	4d05      	ldr	r5, [pc, #20]	@ (25b8c <_start+0x1954>)
   25b78:	446d      	add	r5, sp
   25b7a:	4628      	mov	r0, r5
   25b7c:	4621      	mov	r1, r4
   25b7e:	f7fb f83b 	bl	20bf8 <_ZN20complex_full_dynamic3app17h292a4b3e2a9d79eaE>
   25b82:	7828      	ldrb	r0, [r5, #0]
   25b84:	2801      	cmp	r0, #1
   25b86:	d107      	bne.n	25b98 <_start+0x1960>
   25b88:	f7fe fe2b 	bl	247e2 <_start+0x5aa>
   25b8c:	00001404 	.word	0x00001404
   25b90:	0000095c 	.word	0x0000095c
   25b94:	000013a8 	.word	0x000013a8
   25b98:	4915      	ldr	r1, [pc, #84]	@ (25bf0 <_start+0x19b8>)
   25b9a:	4469      	add	r1, sp
   25b9c:	78c8      	ldrb	r0, [r1, #3]
   25b9e:	4c15      	ldr	r4, [pc, #84]	@ (25bf4 <_start+0x19bc>)
   25ba0:	446c      	add	r4, sp
   25ba2:	70a0      	strb	r0, [r4, #2]
   25ba4:	7848      	ldrb	r0, [r1, #1]
   25ba6:	788a      	ldrb	r2, [r1, #2]
   25ba8:	0212      	lsls	r2, r2, #8
   25baa:	1810      	adds	r0, r2, r0
   25bac:	8020      	strh	r0, [r4, #0]
   25bae:	9808      	ldr	r0, [sp, #32]
   25bb0:	6e05      	ldr	r5, [r0, #96]	@ 0x60
   25bb2:	3108      	adds	r1, #8
   25bb4:	4810      	ldr	r0, [pc, #64]	@ (25bf8 <_start+0x19c0>)
   25bb6:	4468      	add	r0, sp
   25bb8:	900b      	str	r0, [sp, #44]	@ 0x2c
   25bba:	2646      	movs	r6, #70	@ 0x46
   25bbc:	4632      	mov	r2, r6
   25bbe:	f001 fa0c 	bl	26fda <__aeabi_memcpy4>
   25bc2:	0e28      	lsrs	r0, r5, #24
   25bc4:	71a0      	strb	r0, [r4, #6]
   25bc6:	0c28      	lsrs	r0, r5, #16
   25bc8:	7160      	strb	r0, [r4, #5]
   25bca:	0a28      	lsrs	r0, r5, #8
   25bcc:	7120      	strb	r0, [r4, #4]
   25bce:	70e5      	strb	r5, [r4, #3]
   25bd0:	1de0      	adds	r0, r4, #7
   25bd2:	990b      	ldr	r1, [sp, #44]	@ 0x2c
   25bd4:	4632      	mov	r2, r6
   25bd6:	f001 fb60 	bl	2729a <__aeabi_memcpy>
   25bda:	4d05      	ldr	r5, [pc, #20]	@ (25bf0 <_start+0x19b8>)
   25bdc:	446d      	add	r5, sp
   25bde:	4628      	mov	r0, r5
   25be0:	4621      	mov	r1, r4
   25be2:	f7fd f86d 	bl	22cc0 <_ZN20complex_full_dynamic3app17hb0f3beade2c79df5E>
   25be6:	7828      	ldrb	r0, [r5, #0]
   25be8:	2801      	cmp	r0, #1
   25bea:	d107      	bne.n	25bfc <_start+0x19c4>
   25bec:	f7fe fdf9 	bl	247e2 <_start+0x5aa>
   25bf0:	00001404 	.word	0x00001404
   25bf4:	000009b0 	.word	0x000009b0
   25bf8:	000013a8 	.word	0x000013a8
   25bfc:	4819      	ldr	r0, [pc, #100]	@ (25c64 <_start+0x1a2c>)
   25bfe:	4468      	add	r0, sp
   25c00:	78c1      	ldrb	r1, [r0, #3]
   25c02:	4c19      	ldr	r4, [pc, #100]	@ (25c68 <_start+0x1a30>)
   25c04:	446c      	add	r4, sp
   25c06:	70a1      	strb	r1, [r4, #2]
   25c08:	7841      	ldrb	r1, [r0, #1]
   25c0a:	7882      	ldrb	r2, [r0, #2]
   25c0c:	0212      	lsls	r2, r2, #8
   25c0e:	1851      	adds	r1, r2, r1
   25c10:	8021      	strh	r1, [r4, #0]
   25c12:	3008      	adds	r0, #8
   25c14:	9908      	ldr	r1, [sp, #32]
   25c16:	6e09      	ldr	r1, [r1, #96]	@ 0x60
   25c18:	910a      	str	r1, [sp, #40]	@ 0x28
   25c1a:	4b14      	ldr	r3, [pc, #80]	@ (25c6c <_start+0x1a34>)
   25c1c:	446b      	add	r3, sp
   25c1e:	930b      	str	r3, [sp, #44]	@ 0x2c
   25c20:	c864      	ldmia	r0!, {r2, r5, r6}
   25c22:	c364      	stmia	r3!, {r2, r5, r6}
   25c24:	c864      	ldmia	r0!, {r2, r5, r6}
   25c26:	c364      	stmia	r3!, {r2, r5, r6}
   25c28:	c864      	ldmia	r0!, {r2, r5, r6}
   25c2a:	c364      	stmia	r3!, {r2, r5, r6}
   25c2c:	c866      	ldmia	r0!, {r1, r2, r5, r6}
   25c2e:	c366      	stmia	r3!, {r1, r2, r5, r6}
   25c30:	7800      	ldrb	r0, [r0, #0]
   25c32:	7018      	strb	r0, [r3, #0]
   25c34:	990a      	ldr	r1, [sp, #40]	@ 0x28
   25c36:	0e08      	lsrs	r0, r1, #24
   25c38:	71a0      	strb	r0, [r4, #6]
   25c3a:	0c08      	lsrs	r0, r1, #16
   25c3c:	7160      	strb	r0, [r4, #5]
   25c3e:	0a08      	lsrs	r0, r1, #8
   25c40:	7120      	strb	r0, [r4, #4]
   25c42:	70e1      	strb	r1, [r4, #3]
   25c44:	1de0      	adds	r0, r4, #7
   25c46:	2235      	movs	r2, #53	@ 0x35
   25c48:	990b      	ldr	r1, [sp, #44]	@ 0x2c
   25c4a:	f001 fb26 	bl	2729a <__aeabi_memcpy>
   25c4e:	4d05      	ldr	r5, [pc, #20]	@ (25c64 <_start+0x1a2c>)
   25c50:	446d      	add	r5, sp
   25c52:	4628      	mov	r0, r5
   25c54:	4621      	mov	r1, r4
   25c56:	f7fd fd0f 	bl	23678 <_ZN20complex_full_dynamic3app17hd2e4762c9b92bb9eE>
   25c5a:	7828      	ldrb	r0, [r5, #0]
   25c5c:	2801      	cmp	r0, #1
   25c5e:	d107      	bne.n	25c70 <_start+0x1a38>
   25c60:	f7fe fdbf 	bl	247e2 <_start+0x5aa>
   25c64:	00001404 	.word	0x00001404
   25c68:	00000a00 	.word	0x00000a00
   25c6c:	000013a8 	.word	0x000013a8
   25c70:	4818      	ldr	r0, [pc, #96]	@ (25cd4 <_start+0x1a9c>)
   25c72:	4468      	add	r0, sp
   25c74:	78c1      	ldrb	r1, [r0, #3]
   25c76:	4c18      	ldr	r4, [pc, #96]	@ (25cd8 <_start+0x1aa0>)
   25c78:	446c      	add	r4, sp
   25c7a:	70a1      	strb	r1, [r4, #2]
   25c7c:	7841      	ldrb	r1, [r0, #1]
   25c7e:	7882      	ldrb	r2, [r0, #2]
   25c80:	0212      	lsls	r2, r2, #8
   25c82:	1851      	adds	r1, r2, r1
   25c84:	8021      	strh	r1, [r4, #0]
   25c86:	3008      	adds	r0, #8
   25c88:	9908      	ldr	r1, [sp, #32]
   25c8a:	6e09      	ldr	r1, [r1, #96]	@ 0x60
   25c8c:	910a      	str	r1, [sp, #40]	@ 0x28
   25c8e:	4b13      	ldr	r3, [pc, #76]	@ (25cdc <_start+0x1aa4>)
   25c90:	446b      	add	r3, sp
   25c92:	930b      	str	r3, [sp, #44]	@ 0x2c
   25c94:	c866      	ldmia	r0!, {r1, r2, r5, r6}
   25c96:	c366      	stmia	r3!, {r1, r2, r5, r6}
   25c98:	c866      	ldmia	r0!, {r1, r2, r5, r6}
   25c9a:	c366      	stmia	r3!, {r1, r2, r5, r6}
   25c9c:	c866      	ldmia	r0!, {r1, r2, r5, r6}
   25c9e:	c366      	stmia	r3!, {r1, r2, r5, r6}
   25ca0:	7800      	ldrb	r0, [r0, #0]
   25ca2:	7018      	strb	r0, [r3, #0]
   25ca4:	990a      	ldr	r1, [sp, #40]	@ 0x28
   25ca6:	0e08      	lsrs	r0, r1, #24
   25ca8:	71a0      	strb	r0, [r4, #6]
   25caa:	0c08      	lsrs	r0, r1, #16
   25cac:	7160      	strb	r0, [r4, #5]
   25cae:	0a08      	lsrs	r0, r1, #8
   25cb0:	7120      	strb	r0, [r4, #4]
   25cb2:	70e1      	strb	r1, [r4, #3]
   25cb4:	1de0      	adds	r0, r4, #7
   25cb6:	2231      	movs	r2, #49	@ 0x31
   25cb8:	990b      	ldr	r1, [sp, #44]	@ 0x2c
   25cba:	f001 faee 	bl	2729a <__aeabi_memcpy>
   25cbe:	4d05      	ldr	r5, [pc, #20]	@ (25cd4 <_start+0x1a9c>)
   25cc0:	446d      	add	r5, sp
   25cc2:	4628      	mov	r0, r5
   25cc4:	4621      	mov	r1, r4
   25cc6:	f7fc f9a9 	bl	2201c <_ZN20complex_full_dynamic3app17h7f13f77faa90536aE>
   25cca:	7828      	ldrb	r0, [r5, #0]
   25ccc:	2801      	cmp	r0, #1
   25cce:	d107      	bne.n	25ce0 <_start+0x1aa8>
   25cd0:	f7fe fd87 	bl	247e2 <_start+0x5aa>
   25cd4:	00001404 	.word	0x00001404
   25cd8:	00000a3c 	.word	0x00000a3c
   25cdc:	000013a8 	.word	0x000013a8
   25ce0:	4816      	ldr	r0, [pc, #88]	@ (25d3c <_start+0x1b04>)
   25ce2:	4468      	add	r0, sp
   25ce4:	78c1      	ldrb	r1, [r0, #3]
   25ce6:	4c16      	ldr	r4, [pc, #88]	@ (25d40 <_start+0x1b08>)
   25ce8:	446c      	add	r4, sp
   25cea:	70a1      	strb	r1, [r4, #2]
   25cec:	7841      	ldrb	r1, [r0, #1]
   25cee:	7882      	ldrb	r2, [r0, #2]
   25cf0:	0212      	lsls	r2, r2, #8
   25cf2:	1851      	adds	r1, r2, r1
   25cf4:	8021      	strh	r1, [r4, #0]
   25cf6:	3008      	adds	r0, #8
   25cf8:	9908      	ldr	r1, [sp, #32]
   25cfa:	6e09      	ldr	r1, [r1, #96]	@ 0x60
   25cfc:	910a      	str	r1, [sp, #40]	@ 0x28
   25cfe:	4b11      	ldr	r3, [pc, #68]	@ (25d44 <_start+0x1b0c>)
   25d00:	446b      	add	r3, sp
   25d02:	930b      	str	r3, [sp, #44]	@ 0x2c
   25d04:	c866      	ldmia	r0!, {r1, r2, r5, r6}
   25d06:	c366      	stmia	r3!, {r1, r2, r5, r6}
   25d08:	c866      	ldmia	r0!, {r1, r2, r5, r6}
   25d0a:	c366      	stmia	r3!, {r1, r2, r5, r6}
   25d0c:	990a      	ldr	r1, [sp, #40]	@ 0x28
   25d0e:	0e08      	lsrs	r0, r1, #24
   25d10:	71a0      	strb	r0, [r4, #6]
   25d12:	0c08      	lsrs	r0, r1, #16
   25d14:	7160      	strb	r0, [r4, #5]
   25d16:	0a08      	lsrs	r0, r1, #8
   25d18:	7120      	strb	r0, [r4, #4]
   25d1a:	70e1      	strb	r1, [r4, #3]
   25d1c:	1de0      	adds	r0, r4, #7
   25d1e:	2220      	movs	r2, #32
   25d20:	990b      	ldr	r1, [sp, #44]	@ 0x2c
   25d22:	f001 faba 	bl	2729a <__aeabi_memcpy>
   25d26:	4d05      	ldr	r5, [pc, #20]	@ (25d3c <_start+0x1b04>)
   25d28:	446d      	add	r5, sp
   25d2a:	4628      	mov	r0, r5
   25d2c:	4621      	mov	r1, r4
   25d2e:	f7fa fb3d 	bl	203ac <_ZN20complex_full_dynamic3app17h073b2299e17188eeE>
   25d32:	7828      	ldrb	r0, [r5, #0]
   25d34:	2801      	cmp	r0, #1
   25d36:	d107      	bne.n	25d48 <_start+0x1b10>
   25d38:	f7fe fd53 	bl	247e2 <_start+0x5aa>
   25d3c:	00001404 	.word	0x00001404
   25d40:	00000a74 	.word	0x00000a74
   25d44:	000013a8 	.word	0x000013a8
   25d48:	4915      	ldr	r1, [pc, #84]	@ (25da0 <_start+0x1b68>)
   25d4a:	4469      	add	r1, sp
   25d4c:	78c8      	ldrb	r0, [r1, #3]
   25d4e:	4c15      	ldr	r4, [pc, #84]	@ (25da4 <_start+0x1b6c>)
   25d50:	446c      	add	r4, sp
   25d52:	70a0      	strb	r0, [r4, #2]
   25d54:	7848      	ldrb	r0, [r1, #1]
   25d56:	788a      	ldrb	r2, [r1, #2]
   25d58:	0212      	lsls	r2, r2, #8
   25d5a:	1810      	adds	r0, r2, r0
   25d5c:	8020      	strh	r0, [r4, #0]
   25d5e:	9808      	ldr	r0, [sp, #32]
   25d60:	6e05      	ldr	r5, [r0, #96]	@ 0x60
   25d62:	3108      	adds	r1, #8
   25d64:	4810      	ldr	r0, [pc, #64]	@ (25da8 <_start+0x1b70>)
   25d66:	4468      	add	r0, sp
   25d68:	900b      	str	r0, [sp, #44]	@ 0x2c
   25d6a:	264a      	movs	r6, #74	@ 0x4a
   25d6c:	4632      	mov	r2, r6
   25d6e:	f001 f934 	bl	26fda <__aeabi_memcpy4>
   25d72:	0e28      	lsrs	r0, r5, #24
   25d74:	71a0      	strb	r0, [r4, #6]
   25d76:	0c28      	lsrs	r0, r5, #16
   25d78:	7160      	strb	r0, [r4, #5]
   25d7a:	0a28      	lsrs	r0, r5, #8
   25d7c:	7120      	strb	r0, [r4, #4]
   25d7e:	70e5      	strb	r5, [r4, #3]
   25d80:	1de0      	adds	r0, r4, #7
   25d82:	990b      	ldr	r1, [sp, #44]	@ 0x2c
   25d84:	4632      	mov	r2, r6
   25d86:	f001 fa88 	bl	2729a <__aeabi_memcpy>
   25d8a:	4d05      	ldr	r5, [pc, #20]	@ (25da0 <_start+0x1b68>)
   25d8c:	446d      	add	r5, sp
   25d8e:	4628      	mov	r0, r5
   25d90:	4621      	mov	r1, r4
   25d92:	f7fd f9a7 	bl	230e4 <_ZN20complex_full_dynamic3app17hbc3f560f743b246bE>
   25d96:	7828      	ldrb	r0, [r5, #0]
   25d98:	2801      	cmp	r0, #1
   25d9a:	d107      	bne.n	25dac <_start+0x1b74>
   25d9c:	f7fe fd21 	bl	247e2 <_start+0x5aa>
   25da0:	00001404 	.word	0x00001404
   25da4:	00000a9c 	.word	0x00000a9c
   25da8:	000013a8 	.word	0x000013a8
   25dac:	4915      	ldr	r1, [pc, #84]	@ (25e04 <_start+0x1bcc>)
   25dae:	4469      	add	r1, sp
   25db0:	78c8      	ldrb	r0, [r1, #3]
   25db2:	4c15      	ldr	r4, [pc, #84]	@ (25e08 <_start+0x1bd0>)
   25db4:	446c      	add	r4, sp
   25db6:	70a0      	strb	r0, [r4, #2]
   25db8:	7848      	ldrb	r0, [r1, #1]
   25dba:	788a      	ldrb	r2, [r1, #2]
   25dbc:	0212      	lsls	r2, r2, #8
   25dbe:	1810      	adds	r0, r2, r0
   25dc0:	8020      	strh	r0, [r4, #0]
   25dc2:	9808      	ldr	r0, [sp, #32]
   25dc4:	6e05      	ldr	r5, [r0, #96]	@ 0x60
   25dc6:	3108      	adds	r1, #8
   25dc8:	4810      	ldr	r0, [pc, #64]	@ (25e0c <_start+0x1bd4>)
   25dca:	4468      	add	r0, sp
   25dcc:	900b      	str	r0, [sp, #44]	@ 0x2c
   25dce:	2648      	movs	r6, #72	@ 0x48
   25dd0:	4632      	mov	r2, r6
   25dd2:	f001 f902 	bl	26fda <__aeabi_memcpy4>
   25dd6:	0e28      	lsrs	r0, r5, #24
   25dd8:	71a0      	strb	r0, [r4, #6]
   25dda:	0c28      	lsrs	r0, r5, #16
   25ddc:	7160      	strb	r0, [r4, #5]
   25dde:	0a28      	lsrs	r0, r5, #8
   25de0:	7120      	strb	r0, [r4, #4]
   25de2:	70e5      	strb	r5, [r4, #3]
   25de4:	1de0      	adds	r0, r4, #7
   25de6:	990b      	ldr	r1, [sp, #44]	@ 0x2c
   25de8:	4632      	mov	r2, r6
   25dea:	f001 fa56 	bl	2729a <__aeabi_memcpy>
   25dee:	4d05      	ldr	r5, [pc, #20]	@ (25e04 <_start+0x1bcc>)
   25df0:	446d      	add	r5, sp
   25df2:	4628      	mov	r0, r5
   25df4:	4621      	mov	r1, r4
   25df6:	f7fc fbdf 	bl	225b8 <_ZN20complex_full_dynamic3app17h9842061aba2b7cbaE>
   25dfa:	7828      	ldrb	r0, [r5, #0]
   25dfc:	2801      	cmp	r0, #1
   25dfe:	d107      	bne.n	25e10 <_start+0x1bd8>
   25e00:	f7fe fcef 	bl	247e2 <_start+0x5aa>
   25e04:	00001404 	.word	0x00001404
   25e08:	00000af0 	.word	0x00000af0
   25e0c:	000013a8 	.word	0x000013a8
   25e10:	4915      	ldr	r1, [pc, #84]	@ (25e68 <_start+0x1c30>)
   25e12:	4469      	add	r1, sp
   25e14:	78c8      	ldrb	r0, [r1, #3]
   25e16:	4c15      	ldr	r4, [pc, #84]	@ (25e6c <_start+0x1c34>)
   25e18:	446c      	add	r4, sp
   25e1a:	70a0      	strb	r0, [r4, #2]
   25e1c:	7848      	ldrb	r0, [r1, #1]
   25e1e:	788a      	ldrb	r2, [r1, #2]
   25e20:	0212      	lsls	r2, r2, #8
   25e22:	1810      	adds	r0, r2, r0
   25e24:	8020      	strh	r0, [r4, #0]
   25e26:	9808      	ldr	r0, [sp, #32]
   25e28:	6e05      	ldr	r5, [r0, #96]	@ 0x60
   25e2a:	3108      	adds	r1, #8
   25e2c:	4810      	ldr	r0, [pc, #64]	@ (25e70 <_start+0x1c38>)
   25e2e:	4468      	add	r0, sp
   25e30:	900b      	str	r0, [sp, #44]	@ 0x2c
   25e32:	265a      	movs	r6, #90	@ 0x5a
   25e34:	4632      	mov	r2, r6
   25e36:	f001 f8d0 	bl	26fda <__aeabi_memcpy4>
   25e3a:	0e28      	lsrs	r0, r5, #24
   25e3c:	71a0      	strb	r0, [r4, #6]
   25e3e:	0c28      	lsrs	r0, r5, #16
   25e40:	7160      	strb	r0, [r4, #5]
   25e42:	0a28      	lsrs	r0, r5, #8
   25e44:	7120      	strb	r0, [r4, #4]
   25e46:	70e5      	strb	r5, [r4, #3]
   25e48:	1de0      	adds	r0, r4, #7
   25e4a:	990b      	ldr	r1, [sp, #44]	@ 0x2c
   25e4c:	4632      	mov	r2, r6
   25e4e:	f001 fa24 	bl	2729a <__aeabi_memcpy>
   25e52:	4d05      	ldr	r5, [pc, #20]	@ (25e68 <_start+0x1c30>)
   25e54:	446d      	add	r5, sp
   25e56:	4628      	mov	r0, r5
   25e58:	4621      	mov	r1, r4
   25e5a:	f7fe f993 	bl	24184 <_ZN20complex_full_dynamic3app17hfed1d6ed1fd962a6E>
   25e5e:	7828      	ldrb	r0, [r5, #0]
   25e60:	2801      	cmp	r0, #1
   25e62:	d107      	bne.n	25e74 <_start+0x1c3c>
   25e64:	f7fe fcbd 	bl	247e2 <_start+0x5aa>
   25e68:	00001404 	.word	0x00001404
   25e6c:	00000b40 	.word	0x00000b40
   25e70:	000013a8 	.word	0x000013a8
   25e74:	4817      	ldr	r0, [pc, #92]	@ (25ed4 <_start+0x1c9c>)
   25e76:	4468      	add	r0, sp
   25e78:	78c1      	ldrb	r1, [r0, #3]
   25e7a:	4c17      	ldr	r4, [pc, #92]	@ (25ed8 <_start+0x1ca0>)
   25e7c:	446c      	add	r4, sp
   25e7e:	70a1      	strb	r1, [r4, #2]
   25e80:	7841      	ldrb	r1, [r0, #1]
   25e82:	7882      	ldrb	r2, [r0, #2]
   25e84:	0212      	lsls	r2, r2, #8
   25e86:	1851      	adds	r1, r2, r1
   25e88:	8021      	strh	r1, [r4, #0]
   25e8a:	3008      	adds	r0, #8
   25e8c:	9908      	ldr	r1, [sp, #32]
   25e8e:	6e09      	ldr	r1, [r1, #96]	@ 0x60
   25e90:	4b12      	ldr	r3, [pc, #72]	@ (25edc <_start+0x1ca4>)
   25e92:	446b      	add	r3, sp
   25e94:	930b      	str	r3, [sp, #44]	@ 0x2c
   25e96:	c860      	ldmia	r0!, {r5, r6}
   25e98:	c360      	stmia	r3!, {r5, r6}
   25e9a:	c864      	ldmia	r0!, {r2, r5, r6}
   25e9c:	c364      	stmia	r3!, {r2, r5, r6}
   25e9e:	8802      	ldrh	r2, [r0, #0]
   25ea0:	801a      	strh	r2, [r3, #0]
   25ea2:	7880      	ldrb	r0, [r0, #2]
   25ea4:	7098      	strb	r0, [r3, #2]
   25ea6:	0e08      	lsrs	r0, r1, #24
   25ea8:	71a0      	strb	r0, [r4, #6]
   25eaa:	0c08      	lsrs	r0, r1, #16
   25eac:	7160      	strb	r0, [r4, #5]
   25eae:	0a08      	lsrs	r0, r1, #8
   25eb0:	7120      	strb	r0, [r4, #4]
   25eb2:	70e1      	strb	r1, [r4, #3]
   25eb4:	1de0      	adds	r0, r4, #7
   25eb6:	2217      	movs	r2, #23
   25eb8:	990b      	ldr	r1, [sp, #44]	@ 0x2c
   25eba:	f001 f9ee 	bl	2729a <__aeabi_memcpy>
   25ebe:	4d05      	ldr	r5, [pc, #20]	@ (25ed4 <_start+0x1c9c>)
   25ec0:	446d      	add	r5, sp
   25ec2:	4628      	mov	r0, r5
   25ec4:	4621      	mov	r1, r4
   25ec6:	f7fb fc29 	bl	2171c <_ZN20complex_full_dynamic3app17h4e1b81f200e6650dE>
   25eca:	7828      	ldrb	r0, [r5, #0]
   25ecc:	2801      	cmp	r0, #1
   25ece:	d107      	bne.n	25ee0 <_start+0x1ca8>
   25ed0:	f7fe fc87 	bl	247e2 <_start+0x5aa>
   25ed4:	00001404 	.word	0x00001404
   25ed8:	00000ba4 	.word	0x00000ba4
   25edc:	000013a8 	.word	0x000013a8
   25ee0:	4816      	ldr	r0, [pc, #88]	@ (25f3c <_start+0x1d04>)
   25ee2:	4468      	add	r0, sp
   25ee4:	78c1      	ldrb	r1, [r0, #3]
   25ee6:	4c16      	ldr	r4, [pc, #88]	@ (25f40 <_start+0x1d08>)
   25ee8:	446c      	add	r4, sp
   25eea:	70a1      	strb	r1, [r4, #2]
   25eec:	7841      	ldrb	r1, [r0, #1]
   25eee:	7882      	ldrb	r2, [r0, #2]
   25ef0:	0212      	lsls	r2, r2, #8
   25ef2:	1851      	adds	r1, r2, r1
   25ef4:	8021      	strh	r1, [r4, #0]
   25ef6:	3008      	adds	r0, #8
   25ef8:	9908      	ldr	r1, [sp, #32]
   25efa:	6e09      	ldr	r1, [r1, #96]	@ 0x60
   25efc:	4b11      	ldr	r3, [pc, #68]	@ (25f44 <_start+0x1d0c>)
   25efe:	446b      	add	r3, sp
   25f00:	930b      	str	r3, [sp, #44]	@ 0x2c
   25f02:	c864      	ldmia	r0!, {r2, r5, r6}
   25f04:	c364      	stmia	r3!, {r2, r5, r6}
   25f06:	c864      	ldmia	r0!, {r2, r5, r6}
   25f08:	c364      	stmia	r3!, {r2, r5, r6}
   25f0a:	8800      	ldrh	r0, [r0, #0]
   25f0c:	8018      	strh	r0, [r3, #0]
   25f0e:	0e08      	lsrs	r0, r1, #24
   25f10:	71a0      	strb	r0, [r4, #6]
   25f12:	0c08      	lsrs	r0, r1, #16
   25f14:	7160      	strb	r0, [r4, #5]
   25f16:	0a08      	lsrs	r0, r1, #8
   25f18:	7120      	strb	r0, [r4, #4]
   25f1a:	70e1      	strb	r1, [r4, #3]
   25f1c:	1de0      	adds	r0, r4, #7
   25f1e:	221a      	movs	r2, #26
   25f20:	990b      	ldr	r1, [sp, #44]	@ 0x2c
   25f22:	f001 f9ba 	bl	2729a <__aeabi_memcpy>
   25f26:	4d05      	ldr	r5, [pc, #20]	@ (25f3c <_start+0x1d04>)
   25f28:	446d      	add	r5, sp
   25f2a:	4628      	mov	r0, r5
   25f2c:	4621      	mov	r1, r4
   25f2e:	f7fb fcfd 	bl	2192c <_ZN20complex_full_dynamic3app17h56ae4a017ef4c800E>
   25f32:	7828      	ldrb	r0, [r5, #0]
   25f34:	2801      	cmp	r0, #1
   25f36:	d107      	bne.n	25f48 <_start+0x1d10>
   25f38:	f7fe fc53 	bl	247e2 <_start+0x5aa>
   25f3c:	00001404 	.word	0x00001404
   25f40:	00000bc4 	.word	0x00000bc4
   25f44:	000013a8 	.word	0x000013a8
   25f48:	4818      	ldr	r0, [pc, #96]	@ (25fac <_start+0x1d74>)
   25f4a:	4468      	add	r0, sp
   25f4c:	78c1      	ldrb	r1, [r0, #3]
   25f4e:	4c18      	ldr	r4, [pc, #96]	@ (25fb0 <_start+0x1d78>)
   25f50:	446c      	add	r4, sp
   25f52:	70a1      	strb	r1, [r4, #2]
   25f54:	7841      	ldrb	r1, [r0, #1]
   25f56:	7882      	ldrb	r2, [r0, #2]
   25f58:	0212      	lsls	r2, r2, #8
   25f5a:	1851      	adds	r1, r2, r1
   25f5c:	8021      	strh	r1, [r4, #0]
   25f5e:	3008      	adds	r0, #8
   25f60:	9908      	ldr	r1, [sp, #32]
   25f62:	6e09      	ldr	r1, [r1, #96]	@ 0x60
   25f64:	910a      	str	r1, [sp, #40]	@ 0x28
   25f66:	4b13      	ldr	r3, [pc, #76]	@ (25fb4 <_start+0x1d7c>)
   25f68:	446b      	add	r3, sp
   25f6a:	930b      	str	r3, [sp, #44]	@ 0x2c
   25f6c:	c866      	ldmia	r0!, {r1, r2, r5, r6}
   25f6e:	c366      	stmia	r3!, {r1, r2, r5, r6}
   25f70:	c866      	ldmia	r0!, {r1, r2, r5, r6}
   25f72:	c366      	stmia	r3!, {r1, r2, r5, r6}
   25f74:	8801      	ldrh	r1, [r0, #0]
   25f76:	8019      	strh	r1, [r3, #0]
   25f78:	7880      	ldrb	r0, [r0, #2]
   25f7a:	7098      	strb	r0, [r3, #2]
   25f7c:	990a      	ldr	r1, [sp, #40]	@ 0x28
   25f7e:	0e08      	lsrs	r0, r1, #24
   25f80:	71a0      	strb	r0, [r4, #6]
   25f82:	0c08      	lsrs	r0, r1, #16
   25f84:	7160      	strb	r0, [r4, #5]
   25f86:	0a08      	lsrs	r0, r1, #8
   25f88:	7120      	strb	r0, [r4, #4]
   25f8a:	70e1      	strb	r1, [r4, #3]
   25f8c:	1de0      	adds	r0, r4, #7
   25f8e:	2223      	movs	r2, #35	@ 0x23
   25f90:	990b      	ldr	r1, [sp, #44]	@ 0x2c
   25f92:	f001 f982 	bl	2729a <__aeabi_memcpy>
   25f96:	4d05      	ldr	r5, [pc, #20]	@ (25fac <_start+0x1d74>)
   25f98:	446d      	add	r5, sp
   25f9a:	4628      	mov	r0, r5
   25f9c:	4621      	mov	r1, r4
   25f9e:	f7fc fc15 	bl	227cc <_ZN20complex_full_dynamic3app17ha10a0c38e7b9e24aE>
   25fa2:	7828      	ldrb	r0, [r5, #0]
   25fa4:	2801      	cmp	r0, #1
   25fa6:	d107      	bne.n	25fb8 <_start+0x1d80>
   25fa8:	f7fe fc1b 	bl	247e2 <_start+0x5aa>
   25fac:	00001404 	.word	0x00001404
   25fb0:	00000be8 	.word	0x00000be8
   25fb4:	000013a8 	.word	0x000013a8
   25fb8:	4915      	ldr	r1, [pc, #84]	@ (26010 <_start+0x1dd8>)
   25fba:	4469      	add	r1, sp
   25fbc:	78c8      	ldrb	r0, [r1, #3]
   25fbe:	4c15      	ldr	r4, [pc, #84]	@ (26014 <_start+0x1ddc>)
   25fc0:	446c      	add	r4, sp
   25fc2:	70a0      	strb	r0, [r4, #2]
   25fc4:	7848      	ldrb	r0, [r1, #1]
   25fc6:	788a      	ldrb	r2, [r1, #2]
   25fc8:	0212      	lsls	r2, r2, #8
   25fca:	1810      	adds	r0, r2, r0
   25fcc:	8020      	strh	r0, [r4, #0]
   25fce:	9808      	ldr	r0, [sp, #32]
   25fd0:	6e05      	ldr	r5, [r0, #96]	@ 0x60
   25fd2:	3108      	adds	r1, #8
   25fd4:	4810      	ldr	r0, [pc, #64]	@ (26018 <_start+0x1de0>)
   25fd6:	4468      	add	r0, sp
   25fd8:	900b      	str	r0, [sp, #44]	@ 0x2c
   25fda:	2652      	movs	r6, #82	@ 0x52
   25fdc:	4632      	mov	r2, r6
   25fde:	f000 fffc 	bl	26fda <__aeabi_memcpy4>
   25fe2:	0e28      	lsrs	r0, r5, #24
   25fe4:	71a0      	strb	r0, [r4, #6]
   25fe6:	0c28      	lsrs	r0, r5, #16
   25fe8:	7160      	strb	r0, [r4, #5]
   25fea:	0a28      	lsrs	r0, r5, #8
   25fec:	7120      	strb	r0, [r4, #4]
   25fee:	70e5      	strb	r5, [r4, #3]
   25ff0:	1de0      	adds	r0, r4, #7
   25ff2:	990b      	ldr	r1, [sp, #44]	@ 0x2c
   25ff4:	4632      	mov	r2, r6
   25ff6:	f001 f950 	bl	2729a <__aeabi_memcpy>
   25ffa:	4d05      	ldr	r5, [pc, #20]	@ (26010 <_start+0x1dd8>)
   25ffc:	446d      	add	r5, sp
   25ffe:	4628      	mov	r0, r5
   26000:	4621      	mov	r1, r4
   26002:	f7fd fc41 	bl	23888 <_ZN20complex_full_dynamic3app17hde41d891777e0de0E>
   26006:	7828      	ldrb	r0, [r5, #0]
   26008:	2801      	cmp	r0, #1
   2600a:	d107      	bne.n	2601c <_start+0x1de4>
   2600c:	f7fe fbe9 	bl	247e2 <_start+0x5aa>
   26010:	00001404 	.word	0x00001404
   26014:	00000c14 	.word	0x00000c14
   26018:	000013a8 	.word	0x000013a8
   2601c:	4915      	ldr	r1, [pc, #84]	@ (26074 <_start+0x1e3c>)
   2601e:	4469      	add	r1, sp
   26020:	78c8      	ldrb	r0, [r1, #3]
   26022:	4c15      	ldr	r4, [pc, #84]	@ (26078 <_start+0x1e40>)
   26024:	446c      	add	r4, sp
   26026:	70a0      	strb	r0, [r4, #2]
   26028:	7848      	ldrb	r0, [r1, #1]
   2602a:	788a      	ldrb	r2, [r1, #2]
   2602c:	0212      	lsls	r2, r2, #8
   2602e:	1810      	adds	r0, r2, r0
   26030:	8020      	strh	r0, [r4, #0]
   26032:	9808      	ldr	r0, [sp, #32]
   26034:	6e05      	ldr	r5, [r0, #96]	@ 0x60
   26036:	3108      	adds	r1, #8
   26038:	4810      	ldr	r0, [pc, #64]	@ (2607c <_start+0x1e44>)
   2603a:	4468      	add	r0, sp
   2603c:	900b      	str	r0, [sp, #44]	@ 0x2c
   2603e:	2643      	movs	r6, #67	@ 0x43
   26040:	4632      	mov	r2, r6
   26042:	f000 ffca 	bl	26fda <__aeabi_memcpy4>
   26046:	0e28      	lsrs	r0, r5, #24
   26048:	71a0      	strb	r0, [r4, #6]
   2604a:	0c28      	lsrs	r0, r5, #16
   2604c:	7160      	strb	r0, [r4, #5]
   2604e:	0a28      	lsrs	r0, r5, #8
   26050:	7120      	strb	r0, [r4, #4]
   26052:	70e5      	strb	r5, [r4, #3]
   26054:	1de0      	adds	r0, r4, #7
   26056:	990b      	ldr	r1, [sp, #44]	@ 0x2c
   26058:	4632      	mov	r2, r6
   2605a:	f001 f91e 	bl	2729a <__aeabi_memcpy>
   2605e:	4d05      	ldr	r5, [pc, #20]	@ (26074 <_start+0x1e3c>)
   26060:	446d      	add	r5, sp
   26062:	4628      	mov	r0, r5
   26064:	4621      	mov	r1, r4
   26066:	f7fa fc65 	bl	20934 <_ZN20complex_full_dynamic3app17h1f0f6603bedc3d37E>
   2606a:	7828      	ldrb	r0, [r5, #0]
   2606c:	2801      	cmp	r0, #1
   2606e:	d107      	bne.n	26080 <_start+0x1e48>
   26070:	f7fe fbb7 	bl	247e2 <_start+0x5aa>
   26074:	00001404 	.word	0x00001404
   26078:	00000c70 	.word	0x00000c70
   2607c:	000013a8 	.word	0x000013a8
   26080:	4817      	ldr	r0, [pc, #92]	@ (260e0 <_start+0x1ea8>)
   26082:	4468      	add	r0, sp
   26084:	78c1      	ldrb	r1, [r0, #3]
   26086:	4c17      	ldr	r4, [pc, #92]	@ (260e4 <_start+0x1eac>)
   26088:	446c      	add	r4, sp
   2608a:	70a1      	strb	r1, [r4, #2]
   2608c:	7841      	ldrb	r1, [r0, #1]
   2608e:	7882      	ldrb	r2, [r0, #2]
   26090:	0212      	lsls	r2, r2, #8
   26092:	1851      	adds	r1, r2, r1
   26094:	8021      	strh	r1, [r4, #0]
   26096:	3008      	adds	r0, #8
   26098:	9908      	ldr	r1, [sp, #32]
   2609a:	6e09      	ldr	r1, [r1, #96]	@ 0x60
   2609c:	4b12      	ldr	r3, [pc, #72]	@ (260e8 <_start+0x1eb0>)
   2609e:	446b      	add	r3, sp
   260a0:	930b      	str	r3, [sp, #44]	@ 0x2c
   260a2:	c864      	ldmia	r0!, {r2, r5, r6}
   260a4:	c364      	stmia	r3!, {r2, r5, r6}
   260a6:	c864      	ldmia	r0!, {r2, r5, r6}
   260a8:	c364      	stmia	r3!, {r2, r5, r6}
   260aa:	c864      	ldmia	r0!, {r2, r5, r6}
   260ac:	c364      	stmia	r3!, {r2, r5, r6}
   260ae:	8800      	ldrh	r0, [r0, #0]
   260b0:	8018      	strh	r0, [r3, #0]
   260b2:	0e08      	lsrs	r0, r1, #24
   260b4:	71a0      	strb	r0, [r4, #6]
   260b6:	0c08      	lsrs	r0, r1, #16
   260b8:	7160      	strb	r0, [r4, #5]
   260ba:	0a08      	lsrs	r0, r1, #8
   260bc:	7120      	strb	r0, [r4, #4]
   260be:	70e1      	strb	r1, [r4, #3]
   260c0:	1de0      	adds	r0, r4, #7
   260c2:	2226      	movs	r2, #38	@ 0x26
   260c4:	990b      	ldr	r1, [sp, #44]	@ 0x2c
   260c6:	f001 f8e8 	bl	2729a <__aeabi_memcpy>
   260ca:	4d05      	ldr	r5, [pc, #20]	@ (260e0 <_start+0x1ea8>)
   260cc:	446d      	add	r5, sp
   260ce:	4628      	mov	r0, r5
   260d0:	4621      	mov	r1, r4
   260d2:	f7fd fef5 	bl	23ec0 <_ZN20complex_full_dynamic3app17hf37c473e6c1713ecE>
   260d6:	7828      	ldrb	r0, [r5, #0]
   260d8:	2801      	cmp	r0, #1
   260da:	d107      	bne.n	260ec <_start+0x1eb4>
   260dc:	f7fe fb81 	bl	247e2 <_start+0x5aa>
   260e0:	00001404 	.word	0x00001404
   260e4:	00000cbc 	.word	0x00000cbc
   260e8:	000013a8 	.word	0x000013a8
   260ec:	4915      	ldr	r1, [pc, #84]	@ (26144 <_start+0x1f0c>)
   260ee:	4469      	add	r1, sp
   260f0:	78c8      	ldrb	r0, [r1, #3]
   260f2:	4c15      	ldr	r4, [pc, #84]	@ (26148 <_start+0x1f10>)
   260f4:	446c      	add	r4, sp
   260f6:	70a0      	strb	r0, [r4, #2]
   260f8:	7848      	ldrb	r0, [r1, #1]
   260fa:	788a      	ldrb	r2, [r1, #2]
   260fc:	0212      	lsls	r2, r2, #8
   260fe:	1810      	adds	r0, r2, r0
   26100:	8020      	strh	r0, [r4, #0]
   26102:	9808      	ldr	r0, [sp, #32]
   26104:	6e05      	ldr	r5, [r0, #96]	@ 0x60
   26106:	3108      	adds	r1, #8
   26108:	4810      	ldr	r0, [pc, #64]	@ (2614c <_start+0x1f14>)
   2610a:	4468      	add	r0, sp
   2610c:	900b      	str	r0, [sp, #44]	@ 0x2c
   2610e:	264c      	movs	r6, #76	@ 0x4c
   26110:	4632      	mov	r2, r6
   26112:	f000 ff62 	bl	26fda <__aeabi_memcpy4>
   26116:	0e28      	lsrs	r0, r5, #24
   26118:	71a0      	strb	r0, [r4, #6]
   2611a:	0c28      	lsrs	r0, r5, #16
   2611c:	7160      	strb	r0, [r4, #5]
   2611e:	0a28      	lsrs	r0, r5, #8
   26120:	7120      	strb	r0, [r4, #4]
   26122:	70e5      	strb	r5, [r4, #3]
   26124:	1de0      	adds	r0, r4, #7
   26126:	990b      	ldr	r1, [sp, #44]	@ 0x2c
   26128:	4632      	mov	r2, r6
   2612a:	f001 f8b6 	bl	2729a <__aeabi_memcpy>
   2612e:	4d05      	ldr	r5, [pc, #20]	@ (26144 <_start+0x1f0c>)
   26130:	446d      	add	r5, sp
   26132:	4628      	mov	r0, r5
   26134:	4621      	mov	r1, r4
   26136:	f7fc fd69 	bl	22c0c <_ZN20complex_full_dynamic3app17haf2b2ea679e2fa83E>
   2613a:	7828      	ldrb	r0, [r5, #0]
   2613c:	2801      	cmp	r0, #1
   2613e:	d107      	bne.n	26150 <_start+0x1f18>
   26140:	f7fe fb4f 	bl	247e2 <_start+0x5aa>
   26144:	00001404 	.word	0x00001404
   26148:	00000cec 	.word	0x00000cec
   2614c:	000013a8 	.word	0x000013a8
   26150:	4819      	ldr	r0, [pc, #100]	@ (261b8 <_start+0x1f80>)
   26152:	4468      	add	r0, sp
   26154:	78c1      	ldrb	r1, [r0, #3]
   26156:	4c19      	ldr	r4, [pc, #100]	@ (261bc <_start+0x1f84>)
   26158:	446c      	add	r4, sp
   2615a:	70a1      	strb	r1, [r4, #2]
   2615c:	7841      	ldrb	r1, [r0, #1]
   2615e:	7882      	ldrb	r2, [r0, #2]
   26160:	0212      	lsls	r2, r2, #8
   26162:	1851      	adds	r1, r2, r1
   26164:	8021      	strh	r1, [r4, #0]
   26166:	3008      	adds	r0, #8
   26168:	9908      	ldr	r1, [sp, #32]
   2616a:	6e09      	ldr	r1, [r1, #96]	@ 0x60
   2616c:	910a      	str	r1, [sp, #40]	@ 0x28
   2616e:	4b14      	ldr	r3, [pc, #80]	@ (261c0 <_start+0x1f88>)
   26170:	446b      	add	r3, sp
   26172:	930b      	str	r3, [sp, #44]	@ 0x2c
   26174:	c866      	ldmia	r0!, {r1, r2, r5, r6}
   26176:	c366      	stmia	r3!, {r1, r2, r5, r6}
   26178:	c866      	ldmia	r0!, {r1, r2, r5, r6}
   2617a:	c366      	stmia	r3!, {r1, r2, r5, r6}
   2617c:	c866      	ldmia	r0!, {r1, r2, r5, r6}
   2617e:	c366      	stmia	r3!, {r1, r2, r5, r6}
   26180:	8801      	ldrh	r1, [r0, #0]
   26182:	8019      	strh	r1, [r3, #0]
   26184:	7880      	ldrb	r0, [r0, #2]
   26186:	7098      	strb	r0, [r3, #2]
   26188:	990a      	ldr	r1, [sp, #40]	@ 0x28
   2618a:	0e08      	lsrs	r0, r1, #24
   2618c:	71a0      	strb	r0, [r4, #6]
   2618e:	0c08      	lsrs	r0, r1, #16
   26190:	7160      	strb	r0, [r4, #5]
   26192:	0a08      	lsrs	r0, r1, #8
   26194:	7120      	strb	r0, [r4, #4]
   26196:	70e1      	strb	r1, [r4, #3]
   26198:	1de0      	adds	r0, r4, #7
   2619a:	2233      	movs	r2, #51	@ 0x33
   2619c:	990b      	ldr	r1, [sp, #44]	@ 0x2c
   2619e:	f001 f87c 	bl	2729a <__aeabi_memcpy>
   261a2:	4d05      	ldr	r5, [pc, #20]	@ (261b8 <_start+0x1f80>)
   261a4:	446d      	add	r5, sp
   261a6:	4628      	mov	r0, r5
   261a8:	4621      	mov	r1, r4
   261aa:	f7fd ff91 	bl	240d0 <_ZN20complex_full_dynamic3app17hfead65042ae0b20aE>
   261ae:	7828      	ldrb	r0, [r5, #0]
   261b0:	2801      	cmp	r0, #1
   261b2:	d107      	bne.n	261c4 <_start+0x1f8c>
   261b4:	f7fe fb15 	bl	247e2 <_start+0x5aa>
   261b8:	00001404 	.word	0x00001404
   261bc:	00000d40 	.word	0x00000d40
   261c0:	000013a8 	.word	0x000013a8
   261c4:	4915      	ldr	r1, [pc, #84]	@ (2621c <_start+0x1fe4>)
   261c6:	4469      	add	r1, sp
   261c8:	78c8      	ldrb	r0, [r1, #3]
   261ca:	4c15      	ldr	r4, [pc, #84]	@ (26220 <_start+0x1fe8>)
   261cc:	446c      	add	r4, sp
   261ce:	70a0      	strb	r0, [r4, #2]
   261d0:	7848      	ldrb	r0, [r1, #1]
   261d2:	788a      	ldrb	r2, [r1, #2]
   261d4:	0212      	lsls	r2, r2, #8
   261d6:	1810      	adds	r0, r2, r0
   261d8:	8020      	strh	r0, [r4, #0]
   261da:	9808      	ldr	r0, [sp, #32]
   261dc:	6e05      	ldr	r5, [r0, #96]	@ 0x60
   261de:	3108      	adds	r1, #8
   261e0:	4810      	ldr	r0, [pc, #64]	@ (26224 <_start+0x1fec>)
   261e2:	4468      	add	r0, sp
   261e4:	900b      	str	r0, [sp, #44]	@ 0x2c
   261e6:	2656      	movs	r6, #86	@ 0x56
   261e8:	4632      	mov	r2, r6
   261ea:	f000 fef6 	bl	26fda <__aeabi_memcpy4>
   261ee:	0e28      	lsrs	r0, r5, #24
   261f0:	71a0      	strb	r0, [r4, #6]
   261f2:	0c28      	lsrs	r0, r5, #16
   261f4:	7160      	strb	r0, [r4, #5]
   261f6:	0a28      	lsrs	r0, r5, #8
   261f8:	7120      	strb	r0, [r4, #4]
   261fa:	70e5      	strb	r5, [r4, #3]
   261fc:	1de0      	adds	r0, r4, #7
   261fe:	990b      	ldr	r1, [sp, #44]	@ 0x2c
   26200:	4632      	mov	r2, r6
   26202:	f001 f84a 	bl	2729a <__aeabi_memcpy>
   26206:	4d05      	ldr	r5, [pc, #20]	@ (2621c <_start+0x1fe4>)
   26208:	446d      	add	r5, sp
   2620a:	4628      	mov	r0, r5
   2620c:	4621      	mov	r1, r4
   2620e:	f7fd fcf3 	bl	23bf8 <_ZN20complex_full_dynamic3app17he60de6198e3865cbE>
   26212:	7828      	ldrb	r0, [r5, #0]
   26214:	2801      	cmp	r0, #1
   26216:	d107      	bne.n	26228 <_start+0x1ff0>
   26218:	f7fe fae3 	bl	247e2 <_start+0x5aa>
   2621c:	00001404 	.word	0x00001404
   26220:	00000d7c 	.word	0x00000d7c
   26224:	000013a8 	.word	0x000013a8
   26228:	4819      	ldr	r0, [pc, #100]	@ (26290 <_start+0x2058>)
   2622a:	4468      	add	r0, sp
   2622c:	78c1      	ldrb	r1, [r0, #3]
   2622e:	4c19      	ldr	r4, [pc, #100]	@ (26294 <_start+0x205c>)
   26230:	446c      	add	r4, sp
   26232:	70a1      	strb	r1, [r4, #2]
   26234:	7841      	ldrb	r1, [r0, #1]
   26236:	7882      	ldrb	r2, [r0, #2]
   26238:	0212      	lsls	r2, r2, #8
   2623a:	1851      	adds	r1, r2, r1
   2623c:	8021      	strh	r1, [r4, #0]
   2623e:	3008      	adds	r0, #8
   26240:	9908      	ldr	r1, [sp, #32]
   26242:	6e09      	ldr	r1, [r1, #96]	@ 0x60
   26244:	910a      	str	r1, [sp, #40]	@ 0x28
   26246:	4b14      	ldr	r3, [pc, #80]	@ (26298 <_start+0x2060>)
   26248:	446b      	add	r3, sp
   2624a:	930b      	str	r3, [sp, #44]	@ 0x2c
   2624c:	c864      	ldmia	r0!, {r2, r5, r6}
   2624e:	c364      	stmia	r3!, {r2, r5, r6}
   26250:	c866      	ldmia	r0!, {r1, r2, r5, r6}
   26252:	c366      	stmia	r3!, {r1, r2, r5, r6}
   26254:	c826      	ldmia	r0!, {r1, r2, r5}
   26256:	c326      	stmia	r3!, {r1, r2, r5}
   26258:	c866      	ldmia	r0!, {r1, r2, r5, r6}
   2625a:	c366      	stmia	r3!, {r1, r2, r5, r6}
   2625c:	7800      	ldrb	r0, [r0, #0]
   2625e:	7018      	strb	r0, [r3, #0]
   26260:	990a      	ldr	r1, [sp, #40]	@ 0x28
   26262:	0e08      	lsrs	r0, r1, #24
   26264:	71a0      	strb	r0, [r4, #6]
   26266:	0c08      	lsrs	r0, r1, #16
   26268:	7160      	strb	r0, [r4, #5]
   2626a:	0a08      	lsrs	r0, r1, #8
   2626c:	7120      	strb	r0, [r4, #4]
   2626e:	70e1      	strb	r1, [r4, #3]
   26270:	1de0      	adds	r0, r4, #7
   26272:	2239      	movs	r2, #57	@ 0x39
   26274:	990b      	ldr	r1, [sp, #44]	@ 0x2c
   26276:	f001 f810 	bl	2729a <__aeabi_memcpy>
   2627a:	4d05      	ldr	r5, [pc, #20]	@ (26290 <_start+0x2058>)
   2627c:	446d      	add	r5, sp
   2627e:	4628      	mov	r0, r5
   26280:	4621      	mov	r1, r4
   26282:	f7fb ff23 	bl	220cc <_ZN20complex_full_dynamic3app17h81e52bb3dc2b002fE>
   26286:	7828      	ldrb	r0, [r5, #0]
   26288:	2801      	cmp	r0, #1
   2628a:	d107      	bne.n	2629c <_start+0x2064>
   2628c:	f7fe faa9 	bl	247e2 <_start+0x5aa>
   26290:	00001404 	.word	0x00001404
   26294:	00000ddc 	.word	0x00000ddc
   26298:	000013a8 	.word	0x000013a8
   2629c:	4818      	ldr	r0, [pc, #96]	@ (26300 <_start+0x20c8>)
   2629e:	4468      	add	r0, sp
   262a0:	78c1      	ldrb	r1, [r0, #3]
   262a2:	4c18      	ldr	r4, [pc, #96]	@ (26304 <_start+0x20cc>)
   262a4:	446c      	add	r4, sp
   262a6:	70a1      	strb	r1, [r4, #2]
   262a8:	7841      	ldrb	r1, [r0, #1]
   262aa:	7882      	ldrb	r2, [r0, #2]
   262ac:	0212      	lsls	r2, r2, #8
   262ae:	1851      	adds	r1, r2, r1
   262b0:	8021      	strh	r1, [r4, #0]
   262b2:	3008      	adds	r0, #8
   262b4:	9908      	ldr	r1, [sp, #32]
   262b6:	6e09      	ldr	r1, [r1, #96]	@ 0x60
   262b8:	910a      	str	r1, [sp, #40]	@ 0x28
   262ba:	4b13      	ldr	r3, [pc, #76]	@ (26308 <_start+0x20d0>)
   262bc:	446b      	add	r3, sp
   262be:	930b      	str	r3, [sp, #44]	@ 0x2c
   262c0:	c864      	ldmia	r0!, {r2, r5, r6}
   262c2:	c364      	stmia	r3!, {r2, r5, r6}
   262c4:	c864      	ldmia	r0!, {r2, r5, r6}
   262c6:	c364      	stmia	r3!, {r2, r5, r6}
   262c8:	c866      	ldmia	r0!, {r1, r2, r5, r6}
   262ca:	c366      	stmia	r3!, {r1, r2, r5, r6}
   262cc:	8800      	ldrh	r0, [r0, #0]
   262ce:	8018      	strh	r0, [r3, #0]
   262d0:	990a      	ldr	r1, [sp, #40]	@ 0x28
   262d2:	0e08      	lsrs	r0, r1, #24
   262d4:	71a0      	strb	r0, [r4, #6]
   262d6:	0c08      	lsrs	r0, r1, #16
   262d8:	7160      	strb	r0, [r4, #5]
   262da:	0a08      	lsrs	r0, r1, #8
   262dc:	7120      	strb	r0, [r4, #4]
   262de:	70e1      	strb	r1, [r4, #3]
   262e0:	1de0      	adds	r0, r4, #7
   262e2:	222a      	movs	r2, #42	@ 0x2a
   262e4:	990b      	ldr	r1, [sp, #44]	@ 0x2c
   262e6:	f000 ffd8 	bl	2729a <__aeabi_memcpy>
   262ea:	4d05      	ldr	r5, [pc, #20]	@ (26300 <_start+0x20c8>)
   262ec:	446d      	add	r5, sp
   262ee:	4628      	mov	r0, r5
   262f0:	4621      	mov	r1, r4
   262f2:	f7fd fd8d 	bl	23e10 <_ZN20complex_full_dynamic3app17hf2f0e2fcd7aa9f29E>
   262f6:	7828      	ldrb	r0, [r5, #0]
   262f8:	2801      	cmp	r0, #1
   262fa:	d107      	bne.n	2630c <_start+0x20d4>
   262fc:	f7fe fa71 	bl	247e2 <_start+0x5aa>
   26300:	00001404 	.word	0x00001404
   26304:	00000e1c 	.word	0x00000e1c
   26308:	000013a8 	.word	0x000013a8
   2630c:	4915      	ldr	r1, [pc, #84]	@ (26364 <_start+0x212c>)
   2630e:	4469      	add	r1, sp
   26310:	78c8      	ldrb	r0, [r1, #3]
   26312:	4c15      	ldr	r4, [pc, #84]	@ (26368 <_start+0x2130>)
   26314:	446c      	add	r4, sp
   26316:	70a0      	strb	r0, [r4, #2]
   26318:	7848      	ldrb	r0, [r1, #1]
   2631a:	788a      	ldrb	r2, [r1, #2]
   2631c:	0212      	lsls	r2, r2, #8
   2631e:	1810      	adds	r0, r2, r0
   26320:	8020      	strh	r0, [r4, #0]
   26322:	9808      	ldr	r0, [sp, #32]
   26324:	6e05      	ldr	r5, [r0, #96]	@ 0x60
   26326:	3108      	adds	r1, #8
   26328:	4810      	ldr	r0, [pc, #64]	@ (2636c <_start+0x2134>)
   2632a:	4468      	add	r0, sp
   2632c:	900b      	str	r0, [sp, #44]	@ 0x2c
   2632e:	2641      	movs	r6, #65	@ 0x41
   26330:	4632      	mov	r2, r6
   26332:	f000 fe52 	bl	26fda <__aeabi_memcpy4>
   26336:	0e28      	lsrs	r0, r5, #24
   26338:	71a0      	strb	r0, [r4, #6]
   2633a:	0c28      	lsrs	r0, r5, #16
   2633c:	7160      	strb	r0, [r4, #5]
   2633e:	0a28      	lsrs	r0, r5, #8
   26340:	7120      	strb	r0, [r4, #4]
   26342:	70e5      	strb	r5, [r4, #3]
   26344:	1de0      	adds	r0, r4, #7
   26346:	990b      	ldr	r1, [sp, #44]	@ 0x2c
   26348:	4632      	mov	r2, r6
   2634a:	f000 ffa6 	bl	2729a <__aeabi_memcpy>
   2634e:	4d05      	ldr	r5, [pc, #20]	@ (26364 <_start+0x212c>)
   26350:	446d      	add	r5, sp
   26352:	4628      	mov	r0, r5
   26354:	4621      	mov	r1, r4
   26356:	f7fd f82d 	bl	233b4 <_ZN20complex_full_dynamic3app17hc2ffe445f50b01f4E>
   2635a:	7828      	ldrb	r0, [r5, #0]
   2635c:	2801      	cmp	r0, #1
   2635e:	d107      	bne.n	26370 <_start+0x2138>
   26360:	f7fe fa3f 	bl	247e2 <_start+0x5aa>
   26364:	00001404 	.word	0x00001404
   26368:	00000e50 	.word	0x00000e50
   2636c:	000013a8 	.word	0x000013a8
   26370:	4817      	ldr	r0, [pc, #92]	@ (263d0 <_start+0x2198>)
   26372:	4468      	add	r0, sp
   26374:	78c1      	ldrb	r1, [r0, #3]
   26376:	4c17      	ldr	r4, [pc, #92]	@ (263d4 <_start+0x219c>)
   26378:	446c      	add	r4, sp
   2637a:	70a1      	strb	r1, [r4, #2]
   2637c:	7841      	ldrb	r1, [r0, #1]
   2637e:	7882      	ldrb	r2, [r0, #2]
   26380:	0212      	lsls	r2, r2, #8
   26382:	1851      	adds	r1, r2, r1
   26384:	8021      	strh	r1, [r4, #0]
   26386:	3008      	adds	r0, #8
   26388:	9908      	ldr	r1, [sp, #32]
   2638a:	6e09      	ldr	r1, [r1, #96]	@ 0x60
   2638c:	910a      	str	r1, [sp, #40]	@ 0x28
   2638e:	4b12      	ldr	r3, [pc, #72]	@ (263d8 <_start+0x21a0>)
   26390:	446b      	add	r3, sp
   26392:	930b      	str	r3, [sp, #44]	@ 0x2c
   26394:	c866      	ldmia	r0!, {r1, r2, r5, r6}
   26396:	c366      	stmia	r3!, {r1, r2, r5, r6}
   26398:	c866      	ldmia	r0!, {r1, r2, r5, r6}
   2639a:	c366      	stmia	r3!, {r1, r2, r5, r6}
   2639c:	8800      	ldrh	r0, [r0, #0]
   2639e:	8018      	strh	r0, [r3, #0]
   263a0:	990a      	ldr	r1, [sp, #40]	@ 0x28
   263a2:	0e08      	lsrs	r0, r1, #24
   263a4:	71a0      	strb	r0, [r4, #6]
   263a6:	0c08      	lsrs	r0, r1, #16
   263a8:	7160      	strb	r0, [r4, #5]
   263aa:	0a08      	lsrs	r0, r1, #8
   263ac:	7120      	strb	r0, [r4, #4]
   263ae:	70e1      	strb	r1, [r4, #3]
   263b0:	1de0      	adds	r0, r4, #7
   263b2:	2222      	movs	r2, #34	@ 0x22
   263b4:	990b      	ldr	r1, [sp, #44]	@ 0x2c
   263b6:	f000 ff70 	bl	2729a <__aeabi_memcpy>
   263ba:	4d05      	ldr	r5, [pc, #20]	@ (263d0 <_start+0x2198>)
   263bc:	446d      	add	r5, sp
   263be:	4628      	mov	r0, r5
   263c0:	4621      	mov	r1, r4
   263c2:	f7fc f89f 	bl	22504 <_ZN20complex_full_dynamic3app17h972ba27634c7eb32E>
   263c6:	7828      	ldrb	r0, [r5, #0]
   263c8:	2801      	cmp	r0, #1
   263ca:	d107      	bne.n	263dc <_start+0x21a4>
   263cc:	f7fe fa09 	bl	247e2 <_start+0x5aa>
   263d0:	00001404 	.word	0x00001404
   263d4:	00000e98 	.word	0x00000e98
   263d8:	000013a8 	.word	0x000013a8
   263dc:	4817      	ldr	r0, [pc, #92]	@ (2643c <_start+0x2204>)
   263de:	4468      	add	r0, sp
   263e0:	78c1      	ldrb	r1, [r0, #3]
   263e2:	4c17      	ldr	r4, [pc, #92]	@ (26440 <_start+0x2208>)
   263e4:	446c      	add	r4, sp
   263e6:	70a1      	strb	r1, [r4, #2]
   263e8:	7841      	ldrb	r1, [r0, #1]
   263ea:	7882      	ldrb	r2, [r0, #2]
   263ec:	0212      	lsls	r2, r2, #8
   263ee:	1851      	adds	r1, r2, r1
   263f0:	8021      	strh	r1, [r4, #0]
   263f2:	3008      	adds	r0, #8
   263f4:	9908      	ldr	r1, [sp, #32]
   263f6:	6e09      	ldr	r1, [r1, #96]	@ 0x60
   263f8:	910a      	str	r1, [sp, #40]	@ 0x28
   263fa:	4b12      	ldr	r3, [pc, #72]	@ (26444 <_start+0x220c>)
   263fc:	446b      	add	r3, sp
   263fe:	930b      	str	r3, [sp, #44]	@ 0x2c
   26400:	c866      	ldmia	r0!, {r1, r2, r5, r6}
   26402:	c366      	stmia	r3!, {r1, r2, r5, r6}
   26404:	8801      	ldrh	r1, [r0, #0]
   26406:	8019      	strh	r1, [r3, #0]
   26408:	7880      	ldrb	r0, [r0, #2]
   2640a:	7098      	strb	r0, [r3, #2]
   2640c:	990a      	ldr	r1, [sp, #40]	@ 0x28
   2640e:	0e08      	lsrs	r0, r1, #24
   26410:	71a0      	strb	r0, [r4, #6]
   26412:	0c08      	lsrs	r0, r1, #16
   26414:	7160      	strb	r0, [r4, #5]
   26416:	0a08      	lsrs	r0, r1, #8
   26418:	7120      	strb	r0, [r4, #4]
   2641a:	70e1      	strb	r1, [r4, #3]
   2641c:	1de0      	adds	r0, r4, #7
   2641e:	2213      	movs	r2, #19
   26420:	990b      	ldr	r1, [sp, #44]	@ 0x2c
   26422:	f000 ff3a 	bl	2729a <__aeabi_memcpy>
   26426:	4d05      	ldr	r5, [pc, #20]	@ (2643c <_start+0x2204>)
   26428:	446d      	add	r5, sp
   2642a:	4628      	mov	r0, r5
   2642c:	4621      	mov	r1, r4
   2642e:	f7fd fc3b 	bl	23ca8 <_ZN20complex_full_dynamic3app17he848ce500d7f7053E>
   26432:	7828      	ldrb	r0, [r5, #0]
   26434:	2801      	cmp	r0, #1
   26436:	d107      	bne.n	26448 <_start+0x2210>
   26438:	f7fe f9d3 	bl	247e2 <_start+0x5aa>
   2643c:	00001404 	.word	0x00001404
   26440:	00000ec4 	.word	0x00000ec4
   26444:	000013a8 	.word	0x000013a8
   26448:	4815      	ldr	r0, [pc, #84]	@ (264a0 <_start+0x2268>)
   2644a:	4468      	add	r0, sp
   2644c:	78c1      	ldrb	r1, [r0, #3]
   2644e:	4c15      	ldr	r4, [pc, #84]	@ (264a4 <_start+0x226c>)
   26450:	446c      	add	r4, sp
   26452:	70a1      	strb	r1, [r4, #2]
   26454:	7841      	ldrb	r1, [r0, #1]
   26456:	7882      	ldrb	r2, [r0, #2]
   26458:	0212      	lsls	r2, r2, #8
   2645a:	1851      	adds	r1, r2, r1
   2645c:	8021      	strh	r1, [r4, #0]
   2645e:	3008      	adds	r0, #8
   26460:	9908      	ldr	r1, [sp, #32]
   26462:	6e09      	ldr	r1, [r1, #96]	@ 0x60
   26464:	4b10      	ldr	r3, [pc, #64]	@ (264a8 <_start+0x2270>)
   26466:	446b      	add	r3, sp
   26468:	930b      	str	r3, [sp, #44]	@ 0x2c
   2646a:	c860      	ldmia	r0!, {r5, r6}
   2646c:	c360      	stmia	r3!, {r5, r6}
   2646e:	c864      	ldmia	r0!, {r2, r5, r6}
   26470:	c364      	stmia	r3!, {r2, r5, r6}
   26472:	0e08      	lsrs	r0, r1, #24
   26474:	71a0      	strb	r0, [r4, #6]
   26476:	0c08      	lsrs	r0, r1, #16
   26478:	7160      	strb	r0, [r4, #5]
   2647a:	0a08      	lsrs	r0, r1, #8
   2647c:	7120      	strb	r0, [r4, #4]
   2647e:	70e1      	strb	r1, [r4, #3]
   26480:	1de0      	adds	r0, r4, #7
   26482:	2214      	movs	r2, #20
   26484:	990b      	ldr	r1, [sp, #44]	@ 0x2c
   26486:	f000 ff08 	bl	2729a <__aeabi_memcpy>
   2648a:	4d05      	ldr	r5, [pc, #20]	@ (264a0 <_start+0x2268>)
   2648c:	446d      	add	r5, sp
   2648e:	4628      	mov	r0, r5
   26490:	4621      	mov	r1, r4
   26492:	f7fb fafb 	bl	21a8c <_ZN20complex_full_dynamic3app17h57cdab96618ebed7E>
   26496:	7828      	ldrb	r0, [r5, #0]
   26498:	2801      	cmp	r0, #1
   2649a:	d107      	bne.n	264ac <_start+0x2274>
   2649c:	f7fe f9a1 	bl	247e2 <_start+0x5aa>
   264a0:	00001404 	.word	0x00001404
   264a4:	00000ee0 	.word	0x00000ee0
   264a8:	000013a8 	.word	0x000013a8
   264ac:	4819      	ldr	r0, [pc, #100]	@ (26514 <_start+0x22dc>)
   264ae:	4468      	add	r0, sp
   264b0:	78c1      	ldrb	r1, [r0, #3]
   264b2:	4c19      	ldr	r4, [pc, #100]	@ (26518 <_start+0x22e0>)
   264b4:	446c      	add	r4, sp
   264b6:	70a1      	strb	r1, [r4, #2]
   264b8:	7841      	ldrb	r1, [r0, #1]
   264ba:	7882      	ldrb	r2, [r0, #2]
   264bc:	0212      	lsls	r2, r2, #8
   264be:	1851      	adds	r1, r2, r1
   264c0:	8021      	strh	r1, [r4, #0]
   264c2:	3008      	adds	r0, #8
   264c4:	9908      	ldr	r1, [sp, #32]
   264c6:	6e09      	ldr	r1, [r1, #96]	@ 0x60
   264c8:	910a      	str	r1, [sp, #40]	@ 0x28
   264ca:	4b14      	ldr	r3, [pc, #80]	@ (2651c <_start+0x22e4>)
   264cc:	446b      	add	r3, sp
   264ce:	930b      	str	r3, [sp, #44]	@ 0x2c
   264d0:	c864      	ldmia	r0!, {r2, r5, r6}
   264d2:	c364      	stmia	r3!, {r2, r5, r6}
   264d4:	c866      	ldmia	r0!, {r1, r2, r5, r6}
   264d6:	c366      	stmia	r3!, {r1, r2, r5, r6}
   264d8:	c826      	ldmia	r0!, {r1, r2, r5}
   264da:	c326      	stmia	r3!, {r1, r2, r5}
   264dc:	c866      	ldmia	r0!, {r1, r2, r5, r6}
   264de:	c366      	stmia	r3!, {r1, r2, r5, r6}
   264e0:	8800      	ldrh	r0, [r0, #0]
   264e2:	8018      	strh	r0, [r3, #0]
   264e4:	990a      	ldr	r1, [sp, #40]	@ 0x28
   264e6:	0e08      	lsrs	r0, r1, #24
   264e8:	71a0      	strb	r0, [r4, #6]
   264ea:	0c08      	lsrs	r0, r1, #16
   264ec:	7160      	strb	r0, [r4, #5]
   264ee:	0a08      	lsrs	r0, r1, #8
   264f0:	7120      	strb	r0, [r4, #4]
   264f2:	70e1      	strb	r1, [r4, #3]
   264f4:	1de0      	adds	r0, r4, #7
   264f6:	223a      	movs	r2, #58	@ 0x3a
   264f8:	990b      	ldr	r1, [sp, #44]	@ 0x2c
   264fa:	f000 fece 	bl	2729a <__aeabi_memcpy>
   264fe:	4d05      	ldr	r5, [pc, #20]	@ (26514 <_start+0x22dc>)
   26500:	446d      	add	r5, sp
   26502:	4628      	mov	r0, r5
   26504:	4621      	mov	r1, r4
   26506:	f7fd f85d 	bl	235c4 <_ZN20complex_full_dynamic3app17hd1643a609cbdbd4eE>
   2650a:	7828      	ldrb	r0, [r5, #0]
   2650c:	2801      	cmp	r0, #1
   2650e:	d107      	bne.n	26520 <_start+0x22e8>
   26510:	f7fe f967 	bl	247e2 <_start+0x5aa>
   26514:	00001404 	.word	0x00001404
   26518:	00000efc 	.word	0x00000efc
   2651c:	000013a8 	.word	0x000013a8
   26520:	4816      	ldr	r0, [pc, #88]	@ (2657c <_start+0x2344>)
   26522:	4468      	add	r0, sp
   26524:	78c1      	ldrb	r1, [r0, #3]
   26526:	4c16      	ldr	r4, [pc, #88]	@ (26580 <_start+0x2348>)
   26528:	446c      	add	r4, sp
   2652a:	70a1      	strb	r1, [r4, #2]
   2652c:	7841      	ldrb	r1, [r0, #1]
   2652e:	7882      	ldrb	r2, [r0, #2]
   26530:	0212      	lsls	r2, r2, #8
   26532:	1851      	adds	r1, r2, r1
   26534:	8021      	strh	r1, [r4, #0]
   26536:	3008      	adds	r0, #8
   26538:	9908      	ldr	r1, [sp, #32]
   2653a:	6e09      	ldr	r1, [r1, #96]	@ 0x60
   2653c:	910a      	str	r1, [sp, #40]	@ 0x28
   2653e:	4b11      	ldr	r3, [pc, #68]	@ (26584 <_start+0x234c>)
   26540:	446b      	add	r3, sp
   26542:	930b      	str	r3, [sp, #44]	@ 0x2c
   26544:	c866      	ldmia	r0!, {r1, r2, r5, r6}
   26546:	c366      	stmia	r3!, {r1, r2, r5, r6}
   26548:	7800      	ldrb	r0, [r0, #0]
   2654a:	7018      	strb	r0, [r3, #0]
   2654c:	990a      	ldr	r1, [sp, #40]	@ 0x28
   2654e:	0e08      	lsrs	r0, r1, #24
   26550:	71a0      	strb	r0, [r4, #6]
   26552:	0c08      	lsrs	r0, r1, #16
   26554:	7160      	strb	r0, [r4, #5]
   26556:	0a08      	lsrs	r0, r1, #8
   26558:	7120      	strb	r0, [r4, #4]
   2655a:	70e1      	strb	r1, [r4, #3]
   2655c:	1de0      	adds	r0, r4, #7
   2655e:	2211      	movs	r2, #17
   26560:	990b      	ldr	r1, [sp, #44]	@ 0x2c
   26562:	f000 fe9a 	bl	2729a <__aeabi_memcpy>
   26566:	4d05      	ldr	r5, [pc, #20]	@ (2657c <_start+0x2344>)
   26568:	446d      	add	r5, sp
   2656a:	4628      	mov	r0, r5
   2656c:	4621      	mov	r1, r4
   2656e:	f7fc fe6d 	bl	2324c <_ZN20complex_full_dynamic3app17hc1b86dfe3bf4d118E>
   26572:	7828      	ldrb	r0, [r5, #0]
   26574:	2801      	cmp	r0, #1
   26576:	d107      	bne.n	26588 <_start+0x2350>
   26578:	f7fe f933 	bl	247e2 <_start+0x5aa>
   2657c:	00001404 	.word	0x00001404
   26580:	00000f40 	.word	0x00000f40
   26584:	000013a8 	.word	0x000013a8
   26588:	4817      	ldr	r0, [pc, #92]	@ (265e8 <_start+0x23b0>)
   2658a:	4468      	add	r0, sp
   2658c:	78c1      	ldrb	r1, [r0, #3]
   2658e:	4c17      	ldr	r4, [pc, #92]	@ (265ec <_start+0x23b4>)
   26590:	446c      	add	r4, sp
   26592:	70a1      	strb	r1, [r4, #2]
   26594:	7841      	ldrb	r1, [r0, #1]
   26596:	7882      	ldrb	r2, [r0, #2]
   26598:	0212      	lsls	r2, r2, #8
   2659a:	1851      	adds	r1, r2, r1
   2659c:	8021      	strh	r1, [r4, #0]
   2659e:	3008      	adds	r0, #8
   265a0:	9908      	ldr	r1, [sp, #32]
   265a2:	6e09      	ldr	r1, [r1, #96]	@ 0x60
   265a4:	4b12      	ldr	r3, [pc, #72]	@ (265f0 <_start+0x23b8>)
   265a6:	446b      	add	r3, sp
   265a8:	930b      	str	r3, [sp, #44]	@ 0x2c
   265aa:	c860      	ldmia	r0!, {r5, r6}
   265ac:	c360      	stmia	r3!, {r5, r6}
   265ae:	c864      	ldmia	r0!, {r2, r5, r6}
   265b0:	c364      	stmia	r3!, {r2, r5, r6}
   265b2:	8802      	ldrh	r2, [r0, #0]
   265b4:	801a      	strh	r2, [r3, #0]
   265b6:	7880      	ldrb	r0, [r0, #2]
   265b8:	7098      	strb	r0, [r3, #2]
   265ba:	0e08      	lsrs	r0, r1, #24
   265bc:	71a0      	strb	r0, [r4, #6]
   265be:	0c08      	lsrs	r0, r1, #16
   265c0:	7160      	strb	r0, [r4, #5]
   265c2:	0a08      	lsrs	r0, r1, #8
   265c4:	7120      	strb	r0, [r4, #4]
   265c6:	70e1      	strb	r1, [r4, #3]
   265c8:	1de0      	adds	r0, r4, #7
   265ca:	2217      	movs	r2, #23
   265cc:	990b      	ldr	r1, [sp, #44]	@ 0x2c
   265ce:	f000 fe64 	bl	2729a <__aeabi_memcpy>
   265d2:	4d05      	ldr	r5, [pc, #20]	@ (265e8 <_start+0x23b0>)
   265d4:	446d      	add	r5, sp
   265d6:	4628      	mov	r0, r5
   265d8:	4621      	mov	r1, r4
   265da:	f7fc f89f 	bl	2271c <_ZN20complex_full_dynamic3app17ha08771ef4f665807E>
   265de:	7828      	ldrb	r0, [r5, #0]
   265e0:	2801      	cmp	r0, #1
   265e2:	d107      	bne.n	265f4 <_start+0x23bc>
   265e4:	f7fe f8fd 	bl	247e2 <_start+0x5aa>
   265e8:	00001404 	.word	0x00001404
   265ec:	00000f58 	.word	0x00000f58
   265f0:	000013a8 	.word	0x000013a8
   265f4:	4819      	ldr	r0, [pc, #100]	@ (2665c <_start+0x2424>)
   265f6:	4468      	add	r0, sp
   265f8:	78c1      	ldrb	r1, [r0, #3]
   265fa:	4c19      	ldr	r4, [pc, #100]	@ (26660 <_start+0x2428>)
   265fc:	446c      	add	r4, sp
   265fe:	70a1      	strb	r1, [r4, #2]
   26600:	7841      	ldrb	r1, [r0, #1]
   26602:	7882      	ldrb	r2, [r0, #2]
   26604:	0212      	lsls	r2, r2, #8
   26606:	1851      	adds	r1, r2, r1
   26608:	8021      	strh	r1, [r4, #0]
   2660a:	3008      	adds	r0, #8
   2660c:	9908      	ldr	r1, [sp, #32]
   2660e:	6e09      	ldr	r1, [r1, #96]	@ 0x60
   26610:	910a      	str	r1, [sp, #40]	@ 0x28
   26612:	4b14      	ldr	r3, [pc, #80]	@ (26664 <_start+0x242c>)
   26614:	446b      	add	r3, sp
   26616:	930b      	str	r3, [sp, #44]	@ 0x2c
   26618:	c864      	ldmia	r0!, {r2, r5, r6}
   2661a:	c364      	stmia	r3!, {r2, r5, r6}
   2661c:	c864      	ldmia	r0!, {r2, r5, r6}
   2661e:	c364      	stmia	r3!, {r2, r5, r6}
   26620:	c864      	ldmia	r0!, {r2, r5, r6}
   26622:	c364      	stmia	r3!, {r2, r5, r6}
   26624:	c866      	ldmia	r0!, {r1, r2, r5, r6}
   26626:	c366      	stmia	r3!, {r1, r2, r5, r6}
   26628:	7800      	ldrb	r0, [r0, #0]
   2662a:	7018      	strb	r0, [r3, #0]
   2662c:	990a      	ldr	r1, [sp, #40]	@ 0x28
   2662e:	0e08      	lsrs	r0, r1, #24
   26630:	71a0      	strb	r0, [r4, #6]
   26632:	0c08      	lsrs	r0, r1, #16
   26634:	7160      	strb	r0, [r4, #5]
   26636:	0a08      	lsrs	r0, r1, #8
   26638:	7120      	strb	r0, [r4, #4]
   2663a:	70e1      	strb	r1, [r4, #3]
   2663c:	1de0      	adds	r0, r4, #7
   2663e:	2235      	movs	r2, #53	@ 0x35
   26640:	990b      	ldr	r1, [sp, #44]	@ 0x2c
   26642:	f000 fe2a 	bl	2729a <__aeabi_memcpy>
   26646:	4d05      	ldr	r5, [pc, #20]	@ (2665c <_start+0x2424>)
   26648:	446d      	add	r5, sp
   2664a:	4628      	mov	r0, r5
   2664c:	4621      	mov	r1, r4
   2664e:	f7fc fbe7 	bl	22e20 <_ZN20complex_full_dynamic3app17hb9b1596eb1490ab1E>
   26652:	7828      	ldrb	r0, [r5, #0]
   26654:	2801      	cmp	r0, #1
   26656:	d107      	bne.n	26668 <_start+0x2430>
   26658:	f7fe f8c3 	bl	247e2 <_start+0x5aa>
   2665c:	00001404 	.word	0x00001404
   26660:	00000f78 	.word	0x00000f78
   26664:	000013a8 	.word	0x000013a8
   26668:	4817      	ldr	r0, [pc, #92]	@ (266c8 <_start+0x2490>)
   2666a:	4468      	add	r0, sp
   2666c:	78c1      	ldrb	r1, [r0, #3]
   2666e:	4c17      	ldr	r4, [pc, #92]	@ (266cc <_start+0x2494>)
   26670:	446c      	add	r4, sp
   26672:	70a1      	strb	r1, [r4, #2]
   26674:	7841      	ldrb	r1, [r0, #1]
   26676:	7882      	ldrb	r2, [r0, #2]
   26678:	0212      	lsls	r2, r2, #8
   2667a:	1851      	adds	r1, r2, r1
   2667c:	8021      	strh	r1, [r4, #0]
   2667e:	3008      	adds	r0, #8
   26680:	9908      	ldr	r1, [sp, #32]
   26682:	6e09      	ldr	r1, [r1, #96]	@ 0x60
   26684:	4b12      	ldr	r3, [pc, #72]	@ (266d0 <_start+0x2498>)
   26686:	446b      	add	r3, sp
   26688:	930b      	str	r3, [sp, #44]	@ 0x2c
   2668a:	c864      	ldmia	r0!, {r2, r5, r6}
   2668c:	c364      	stmia	r3!, {r2, r5, r6}
   2668e:	c864      	ldmia	r0!, {r2, r5, r6}
   26690:	c364      	stmia	r3!, {r2, r5, r6}
   26692:	c864      	ldmia	r0!, {r2, r5, r6}
   26694:	c364      	stmia	r3!, {r2, r5, r6}
   26696:	7800      	ldrb	r0, [r0, #0]
   26698:	7018      	strb	r0, [r3, #0]
   2669a:	0e08      	lsrs	r0, r1, #24
   2669c:	71a0      	strb	r0, [r4, #6]
   2669e:	0c08      	lsrs	r0, r1, #16
   266a0:	7160      	strb	r0, [r4, #5]
   266a2:	0a08      	lsrs	r0, r1, #8
   266a4:	7120      	strb	r0, [r4, #4]
   266a6:	70e1      	strb	r1, [r4, #3]
   266a8:	1de0      	adds	r0, r4, #7
   266aa:	2225      	movs	r2, #37	@ 0x25
   266ac:	990b      	ldr	r1, [sp, #44]	@ 0x2c
   266ae:	f000 fdf4 	bl	2729a <__aeabi_memcpy>
   266b2:	4d05      	ldr	r5, [pc, #20]	@ (266c8 <_start+0x2490>)
   266b4:	446d      	add	r5, sp
   266b6:	4628      	mov	r0, r5
   266b8:	4621      	mov	r1, r4
   266ba:	f7fc fc63 	bl	22f84 <_ZN20complex_full_dynamic3app17hba1bcf0ae931b73eE>
   266be:	7828      	ldrb	r0, [r5, #0]
   266c0:	2801      	cmp	r0, #1
   266c2:	d107      	bne.n	266d4 <_start+0x249c>
   266c4:	f7fe f88d 	bl	247e2 <_start+0x5aa>
   266c8:	00001404 	.word	0x00001404
   266cc:	00000fb4 	.word	0x00000fb4
   266d0:	000013a8 	.word	0x000013a8
   266d4:	4816      	ldr	r0, [pc, #88]	@ (26730 <_start+0x24f8>)
   266d6:	4468      	add	r0, sp
   266d8:	78c1      	ldrb	r1, [r0, #3]
   266da:	4c16      	ldr	r4, [pc, #88]	@ (26734 <_start+0x24fc>)
   266dc:	446c      	add	r4, sp
   266de:	70a1      	strb	r1, [r4, #2]
   266e0:	7841      	ldrb	r1, [r0, #1]
   266e2:	7882      	ldrb	r2, [r0, #2]
   266e4:	0212      	lsls	r2, r2, #8
   266e6:	1851      	adds	r1, r2, r1
   266e8:	8021      	strh	r1, [r4, #0]
   266ea:	3008      	adds	r0, #8
   266ec:	9908      	ldr	r1, [sp, #32]
   266ee:	6e09      	ldr	r1, [r1, #96]	@ 0x60
   266f0:	910a      	str	r1, [sp, #40]	@ 0x28
   266f2:	4b11      	ldr	r3, [pc, #68]	@ (26738 <_start+0x2500>)
   266f4:	446b      	add	r3, sp
   266f6:	930b      	str	r3, [sp, #44]	@ 0x2c
   266f8:	c866      	ldmia	r0!, {r1, r2, r5, r6}
   266fa:	c366      	stmia	r3!, {r1, r2, r5, r6}
   266fc:	c866      	ldmia	r0!, {r1, r2, r5, r6}
   266fe:	c366      	stmia	r3!, {r1, r2, r5, r6}
   26700:	990a      	ldr	r1, [sp, #40]	@ 0x28
   26702:	0e08      	lsrs	r0, r1, #24
   26704:	71a0      	strb	r0, [r4, #6]
   26706:	0c08      	lsrs	r0, r1, #16
   26708:	7160      	strb	r0, [r4, #5]
   2670a:	0a08      	lsrs	r0, r1, #8
   2670c:	7120      	strb	r0, [r4, #4]
   2670e:	70e1      	strb	r1, [r4, #3]
   26710:	1de0      	adds	r0, r4, #7
   26712:	2220      	movs	r2, #32
   26714:	990b      	ldr	r1, [sp, #44]	@ 0x2c
   26716:	f000 fdc0 	bl	2729a <__aeabi_memcpy>
   2671a:	4d05      	ldr	r5, [pc, #20]	@ (26730 <_start+0x24f8>)
   2671c:	446d      	add	r5, sp
   2671e:	4628      	mov	r0, r5
   26720:	4621      	mov	r1, r4
   26722:	f7fc fb25 	bl	22d70 <_ZN20complex_full_dynamic3app17hb3bafaf10fa3bc04E>
   26726:	7828      	ldrb	r0, [r5, #0]
   26728:	2801      	cmp	r0, #1
   2672a:	d107      	bne.n	2673c <_start+0x2504>
   2672c:	f7fe f859 	bl	247e2 <_start+0x5aa>
   26730:	00001404 	.word	0x00001404
   26734:	00000fe0 	.word	0x00000fe0
   26738:	000013a8 	.word	0x000013a8
   2673c:	4915      	ldr	r1, [pc, #84]	@ (26794 <_start+0x255c>)
   2673e:	4469      	add	r1, sp
   26740:	78c8      	ldrb	r0, [r1, #3]
   26742:	4c15      	ldr	r4, [pc, #84]	@ (26798 <_start+0x2560>)
   26744:	446c      	add	r4, sp
   26746:	70a0      	strb	r0, [r4, #2]
   26748:	7848      	ldrb	r0, [r1, #1]
   2674a:	788a      	ldrb	r2, [r1, #2]
   2674c:	0212      	lsls	r2, r2, #8
   2674e:	1810      	adds	r0, r2, r0
   26750:	8020      	strh	r0, [r4, #0]
   26752:	9808      	ldr	r0, [sp, #32]
   26754:	6e05      	ldr	r5, [r0, #96]	@ 0x60
   26756:	3108      	adds	r1, #8
   26758:	4810      	ldr	r0, [pc, #64]	@ (2679c <_start+0x2564>)
   2675a:	4468      	add	r0, sp
   2675c:	900b      	str	r0, [sp, #44]	@ 0x2c
   2675e:	2648      	movs	r6, #72	@ 0x48
   26760:	4632      	mov	r2, r6
   26762:	f000 fc3a 	bl	26fda <__aeabi_memcpy4>
   26766:	0e28      	lsrs	r0, r5, #24
   26768:	71a0      	strb	r0, [r4, #6]
   2676a:	0c28      	lsrs	r0, r5, #16
   2676c:	7160      	strb	r0, [r4, #5]
   2676e:	0a28      	lsrs	r0, r5, #8
   26770:	7120      	strb	r0, [r4, #4]
   26772:	70e5      	strb	r5, [r4, #3]
   26774:	1de0      	adds	r0, r4, #7
   26776:	990b      	ldr	r1, [sp, #44]	@ 0x2c
   26778:	4632      	mov	r2, r6
   2677a:	f000 fd8e 	bl	2729a <__aeabi_memcpy>
   2677e:	4d05      	ldr	r5, [pc, #20]	@ (26794 <_start+0x255c>)
   26780:	446d      	add	r5, sp
   26782:	4628      	mov	r0, r5
   26784:	4621      	mov	r1, r4
   26786:	f7fd f8d7 	bl	23938 <_ZN20complex_full_dynamic3app17hdf5ca4489d94592cE>
   2678a:	7828      	ldrb	r0, [r5, #0]
   2678c:	2801      	cmp	r0, #1
   2678e:	d107      	bne.n	267a0 <_start+0x2568>
   26790:	f7fe f827 	bl	247e2 <_start+0x5aa>
   26794:	00001404 	.word	0x00001404
   26798:	00001008 	.word	0x00001008
   2679c:	000013a8 	.word	0x000013a8
   267a0:	4818      	ldr	r0, [pc, #96]	@ (26804 <_start+0x25cc>)
   267a2:	4468      	add	r0, sp
   267a4:	78c1      	ldrb	r1, [r0, #3]
   267a6:	4c18      	ldr	r4, [pc, #96]	@ (26808 <_start+0x25d0>)
   267a8:	446c      	add	r4, sp
   267aa:	70a1      	strb	r1, [r4, #2]
   267ac:	7841      	ldrb	r1, [r0, #1]
   267ae:	7882      	ldrb	r2, [r0, #2]
   267b0:	0212      	lsls	r2, r2, #8
   267b2:	1851      	adds	r1, r2, r1
   267b4:	8021      	strh	r1, [r4, #0]
   267b6:	3008      	adds	r0, #8
   267b8:	9908      	ldr	r1, [sp, #32]
   267ba:	6e09      	ldr	r1, [r1, #96]	@ 0x60
   267bc:	910a      	str	r1, [sp, #40]	@ 0x28
   267be:	4b13      	ldr	r3, [pc, #76]	@ (2680c <_start+0x25d4>)
   267c0:	446b      	add	r3, sp
   267c2:	930b      	str	r3, [sp, #44]	@ 0x2c
   267c4:	c864      	ldmia	r0!, {r2, r5, r6}
   267c6:	c364      	stmia	r3!, {r2, r5, r6}
   267c8:	c866      	ldmia	r0!, {r1, r2, r5, r6}
   267ca:	c366      	stmia	r3!, {r1, r2, r5, r6}
   267cc:	c866      	ldmia	r0!, {r1, r2, r5, r6}
   267ce:	c366      	stmia	r3!, {r1, r2, r5, r6}
   267d0:	8800      	ldrh	r0, [r0, #0]
   267d2:	8018      	strh	r0, [r3, #0]
   267d4:	990a      	ldr	r1, [sp, #40]	@ 0x28
   267d6:	0e08      	lsrs	r0, r1, #24
   267d8:	71a0      	strb	r0, [r4, #6]
   267da:	0c08      	lsrs	r0, r1, #16
   267dc:	7160      	strb	r0, [r4, #5]
   267de:	0a08      	lsrs	r0, r1, #8
   267e0:	7120      	strb	r0, [r4, #4]
   267e2:	70e1      	strb	r1, [r4, #3]
   267e4:	1de0      	adds	r0, r4, #7
   267e6:	222e      	movs	r2, #46	@ 0x2e
   267e8:	990b      	ldr	r1, [sp, #44]	@ 0x2c
   267ea:	f000 fd56 	bl	2729a <__aeabi_memcpy>
   267ee:	4d05      	ldr	r5, [pc, #20]	@ (26804 <_start+0x25cc>)
   267f0:	446d      	add	r5, sp
   267f2:	4628      	mov	r0, r5
   267f4:	4621      	mov	r1, r4
   267f6:	f7fc ffef 	bl	237d8 <_ZN20complex_full_dynamic3app17hdbd1ba89f5e390deE>
   267fa:	7828      	ldrb	r0, [r5, #0]
   267fc:	2801      	cmp	r0, #1
   267fe:	d107      	bne.n	26810 <_start+0x25d8>
   26800:	f7fd ffef 	bl	247e2 <_start+0x5aa>
   26804:	00001404 	.word	0x00001404
   26808:	00001058 	.word	0x00001058
   2680c:	000013a8 	.word	0x000013a8
   26810:	4818      	ldr	r0, [pc, #96]	@ (26874 <_start+0x263c>)
   26812:	4468      	add	r0, sp
   26814:	78c1      	ldrb	r1, [r0, #3]
   26816:	4c18      	ldr	r4, [pc, #96]	@ (26878 <_start+0x2640>)
   26818:	446c      	add	r4, sp
   2681a:	70a1      	strb	r1, [r4, #2]
   2681c:	7841      	ldrb	r1, [r0, #1]
   2681e:	7882      	ldrb	r2, [r0, #2]
   26820:	0212      	lsls	r2, r2, #8
   26822:	1851      	adds	r1, r2, r1
   26824:	8021      	strh	r1, [r4, #0]
   26826:	3008      	adds	r0, #8
   26828:	9908      	ldr	r1, [sp, #32]
   2682a:	6e09      	ldr	r1, [r1, #96]	@ 0x60
   2682c:	910a      	str	r1, [sp, #40]	@ 0x28
   2682e:	4b13      	ldr	r3, [pc, #76]	@ (2687c <_start+0x2644>)
   26830:	446b      	add	r3, sp
   26832:	930b      	str	r3, [sp, #44]	@ 0x2c
   26834:	c864      	ldmia	r0!, {r2, r5, r6}
   26836:	c364      	stmia	r3!, {r2, r5, r6}
   26838:	c866      	ldmia	r0!, {r1, r2, r5, r6}
   2683a:	c366      	stmia	r3!, {r1, r2, r5, r6}
   2683c:	c826      	ldmia	r0!, {r1, r2, r5}
   2683e:	c326      	stmia	r3!, {r1, r2, r5}
   26840:	c866      	ldmia	r0!, {r1, r2, r5, r6}
   26842:	c366      	stmia	r3!, {r1, r2, r5, r6}
   26844:	990a      	ldr	r1, [sp, #40]	@ 0x28
   26846:	0e08      	lsrs	r0, r1, #24
   26848:	71a0      	strb	r0, [r4, #6]
   2684a:	0c08      	lsrs	r0, r1, #16
   2684c:	7160      	strb	r0, [r4, #5]
   2684e:	0a08      	lsrs	r0, r1, #8
   26850:	7120      	strb	r0, [r4, #4]
   26852:	70e1      	strb	r1, [r4, #3]
   26854:	1de0      	adds	r0, r4, #7
   26856:	2238      	movs	r2, #56	@ 0x38
   26858:	990b      	ldr	r1, [sp, #44]	@ 0x2c
   2685a:	f000 fd1e 	bl	2729a <__aeabi_memcpy>
   2685e:	4d05      	ldr	r5, [pc, #20]	@ (26874 <_start+0x263c>)
   26860:	446d      	add	r5, sp
   26862:	4628      	mov	r0, r5
   26864:	4621      	mov	r1, r4
   26866:	f7fb f80b 	bl	21880 <_ZN20complex_full_dynamic3app17h5380d8bd394b1473E>
   2686a:	7828      	ldrb	r0, [r5, #0]
   2686c:	2801      	cmp	r0, #1
   2686e:	d107      	bne.n	26880 <_start+0x2648>
   26870:	f7fd ffb7 	bl	247e2 <_start+0x5aa>
   26874:	00001404 	.word	0x00001404
   26878:	00001090 	.word	0x00001090
   2687c:	000013a8 	.word	0x000013a8
   26880:	4914      	ldr	r1, [pc, #80]	@ (268d4 <_start+0x269c>)
   26882:	4469      	add	r1, sp
   26884:	9b08      	ldr	r3, [sp, #32]
   26886:	6ed8      	ldr	r0, [r3, #108]	@ 0x6c
   26888:	8108      	strh	r0, [r1, #8]
   2688a:	4813      	ldr	r0, [pc, #76]	@ (268d8 <_start+0x26a0>)
   2688c:	4468      	add	r0, sp
   2688e:	78c2      	ldrb	r2, [r0, #3]
   26890:	4c12      	ldr	r4, [pc, #72]	@ (268dc <_start+0x26a4>)
   26892:	446c      	add	r4, sp
   26894:	70a2      	strb	r2, [r4, #2]
   26896:	7842      	ldrb	r2, [r0, #1]
   26898:	7880      	ldrb	r0, [r0, #2]
   2689a:	0200      	lsls	r0, r0, #8
   2689c:	1880      	adds	r0, r0, r2
   2689e:	8020      	strh	r0, [r4, #0]
   268a0:	6e18      	ldr	r0, [r3, #96]	@ 0x60
   268a2:	70e0      	strb	r0, [r4, #3]
   268a4:	0e02      	lsrs	r2, r0, #24
   268a6:	71a2      	strb	r2, [r4, #6]
   268a8:	0c02      	lsrs	r2, r0, #16
   268aa:	7162      	strb	r2, [r4, #5]
   268ac:	0a00      	lsrs	r0, r0, #8
   268ae:	7120      	strb	r0, [r4, #4]
   268b0:	6e58      	ldr	r0, [r3, #100]	@ 0x64
   268b2:	6e9a      	ldr	r2, [r3, #104]	@ 0x68
   268b4:	c305      	stmia	r3!, {r0, r2}
   268b6:	1de0      	adds	r0, r4, #7
   268b8:	220a      	movs	r2, #10
   268ba:	f000 fcee 	bl	2729a <__aeabi_memcpy>
   268be:	4d06      	ldr	r5, [pc, #24]	@ (268d8 <_start+0x26a0>)
   268c0:	446d      	add	r5, sp
   268c2:	4628      	mov	r0, r5
   268c4:	4621      	mov	r1, r4
   268c6:	f7fb fd0f 	bl	222e8 <_ZN20complex_full_dynamic3app17h8820b63f3b38cb7fE>
   268ca:	7828      	ldrb	r0, [r5, #0]
   268cc:	2801      	cmp	r0, #1
   268ce:	d107      	bne.n	268e0 <_start+0x26a8>
   268d0:	f7fd ff87 	bl	247e2 <_start+0x5aa>
   268d4:	000013a8 	.word	0x000013a8
   268d8:	00001404 	.word	0x00001404
   268dc:	000010d0 	.word	0x000010d0
   268e0:	4818      	ldr	r0, [pc, #96]	@ (26944 <_start+0x270c>)
   268e2:	4468      	add	r0, sp
   268e4:	78c1      	ldrb	r1, [r0, #3]
   268e6:	4c18      	ldr	r4, [pc, #96]	@ (26948 <_start+0x2710>)
   268e8:	446c      	add	r4, sp
   268ea:	70a1      	strb	r1, [r4, #2]
   268ec:	7841      	ldrb	r1, [r0, #1]
   268ee:	7882      	ldrb	r2, [r0, #2]
   268f0:	0212      	lsls	r2, r2, #8
   268f2:	1851      	adds	r1, r2, r1
   268f4:	8021      	strh	r1, [r4, #0]
   268f6:	3008      	adds	r0, #8
   268f8:	9908      	ldr	r1, [sp, #32]
   268fa:	6e09      	ldr	r1, [r1, #96]	@ 0x60
   268fc:	910a      	str	r1, [sp, #40]	@ 0x28
   268fe:	4b13      	ldr	r3, [pc, #76]	@ (2694c <_start+0x2714>)
   26900:	446b      	add	r3, sp
   26902:	930b      	str	r3, [sp, #44]	@ 0x2c
   26904:	c864      	ldmia	r0!, {r2, r5, r6}
   26906:	c364      	stmia	r3!, {r2, r5, r6}
   26908:	c866      	ldmia	r0!, {r1, r2, r5, r6}
   2690a:	c366      	stmia	r3!, {r1, r2, r5, r6}
   2690c:	c826      	ldmia	r0!, {r1, r2, r5}
   2690e:	c326      	stmia	r3!, {r1, r2, r5}
   26910:	c866      	ldmia	r0!, {r1, r2, r5, r6}
   26912:	c366      	stmia	r3!, {r1, r2, r5, r6}
   26914:	990a      	ldr	r1, [sp, #40]	@ 0x28
   26916:	0e08      	lsrs	r0, r1, #24
   26918:	71a0      	strb	r0, [r4, #6]
   2691a:	0c08      	lsrs	r0, r1, #16
   2691c:	7160      	strb	r0, [r4, #5]
   2691e:	0a08      	lsrs	r0, r1, #8
   26920:	7120      	strb	r0, [r4, #4]
   26922:	70e1      	strb	r1, [r4, #3]
   26924:	1de0      	adds	r0, r4, #7
   26926:	2238      	movs	r2, #56	@ 0x38
   26928:	990b      	ldr	r1, [sp, #44]	@ 0x2c
   2692a:	f000 fcb6 	bl	2729a <__aeabi_memcpy>
   2692e:	4d05      	ldr	r5, [pc, #20]	@ (26944 <_start+0x270c>)
   26930:	446d      	add	r5, sp
   26932:	4628      	mov	r0, r5
   26934:	4621      	mov	r1, r4
   26936:	f7fc fc2d 	bl	23194 <_ZN20complex_full_dynamic3app17hbc9477476c4b6840E>
   2693a:	7828      	ldrb	r0, [r5, #0]
   2693c:	2801      	cmp	r0, #1
   2693e:	d107      	bne.n	26950 <_start+0x2718>
   26940:	f7fd ff4f 	bl	247e2 <_start+0x5aa>
   26944:	00001404 	.word	0x00001404
   26948:	000010e4 	.word	0x000010e4
   2694c:	000013a8 	.word	0x000013a8
   26950:	4816      	ldr	r0, [pc, #88]	@ (269ac <_start+0x2774>)
   26952:	4468      	add	r0, sp
   26954:	78c1      	ldrb	r1, [r0, #3]
   26956:	4c16      	ldr	r4, [pc, #88]	@ (269b0 <_start+0x2778>)
   26958:	446c      	add	r4, sp
   2695a:	70a1      	strb	r1, [r4, #2]
   2695c:	7841      	ldrb	r1, [r0, #1]
   2695e:	7882      	ldrb	r2, [r0, #2]
   26960:	0212      	lsls	r2, r2, #8
   26962:	1851      	adds	r1, r2, r1
   26964:	8021      	strh	r1, [r4, #0]
   26966:	3008      	adds	r0, #8
   26968:	9908      	ldr	r1, [sp, #32]
   2696a:	6e09      	ldr	r1, [r1, #96]	@ 0x60
   2696c:	4b11      	ldr	r3, [pc, #68]	@ (269b4 <_start+0x277c>)
   2696e:	446b      	add	r3, sp
   26970:	930b      	str	r3, [sp, #44]	@ 0x2c
   26972:	c860      	ldmia	r0!, {r5, r6}
   26974:	c360      	stmia	r3!, {r5, r6}
   26976:	c864      	ldmia	r0!, {r2, r5, r6}
   26978:	c364      	stmia	r3!, {r2, r5, r6}
   2697a:	7800      	ldrb	r0, [r0, #0]
   2697c:	7018      	strb	r0, [r3, #0]
   2697e:	0e08      	lsrs	r0, r1, #24
   26980:	71a0      	strb	r0, [r4, #6]
   26982:	0c08      	lsrs	r0, r1, #16
   26984:	7160      	strb	r0, [r4, #5]
   26986:	0a08      	lsrs	r0, r1, #8
   26988:	7120      	strb	r0, [r4, #4]
   2698a:	70e1      	strb	r1, [r4, #3]
   2698c:	1de0      	adds	r0, r4, #7
   2698e:	2215      	movs	r2, #21
   26990:	990b      	ldr	r1, [sp, #44]	@ 0x2c
   26992:	f000 fc82 	bl	2729a <__aeabi_memcpy>
   26996:	4d05      	ldr	r5, [pc, #20]	@ (269ac <_start+0x2774>)
   26998:	446d      	add	r5, sp
   2699a:	4628      	mov	r0, r5
   2699c:	4621      	mov	r1, r4
   2699e:	f7fa fa37 	bl	20e10 <_ZN20complex_full_dynamic3app17h2e206dd72a1d9f20E>
   269a2:	7828      	ldrb	r0, [r5, #0]
   269a4:	2801      	cmp	r0, #1
   269a6:	d107      	bne.n	269b8 <_start+0x2780>
   269a8:	f7fd ff1b 	bl	247e2 <_start+0x5aa>
   269ac:	00001404 	.word	0x00001404
   269b0:	00001124 	.word	0x00001124
   269b4:	000013a8 	.word	0x000013a8
   269b8:	4915      	ldr	r1, [pc, #84]	@ (26a10 <_start+0x27d8>)
   269ba:	4469      	add	r1, sp
   269bc:	78c8      	ldrb	r0, [r1, #3]
   269be:	4c15      	ldr	r4, [pc, #84]	@ (26a14 <_start+0x27dc>)
   269c0:	446c      	add	r4, sp
   269c2:	70a0      	strb	r0, [r4, #2]
   269c4:	7848      	ldrb	r0, [r1, #1]
   269c6:	788a      	ldrb	r2, [r1, #2]
   269c8:	0212      	lsls	r2, r2, #8
   269ca:	1810      	adds	r0, r2, r0
   269cc:	8020      	strh	r0, [r4, #0]
   269ce:	9808      	ldr	r0, [sp, #32]
   269d0:	6e05      	ldr	r5, [r0, #96]	@ 0x60
   269d2:	3108      	adds	r1, #8
   269d4:	4810      	ldr	r0, [pc, #64]	@ (26a18 <_start+0x27e0>)
   269d6:	4468      	add	r0, sp
   269d8:	900b      	str	r0, [sp, #44]	@ 0x2c
   269da:	2656      	movs	r6, #86	@ 0x56
   269dc:	4632      	mov	r2, r6
   269de:	f000 fafc 	bl	26fda <__aeabi_memcpy4>
   269e2:	0e28      	lsrs	r0, r5, #24
   269e4:	71a0      	strb	r0, [r4, #6]
   269e6:	0c28      	lsrs	r0, r5, #16
   269e8:	7160      	strb	r0, [r4, #5]
   269ea:	0a28      	lsrs	r0, r5, #8
   269ec:	7120      	strb	r0, [r4, #4]
   269ee:	70e5      	strb	r5, [r4, #3]
   269f0:	1de0      	adds	r0, r4, #7
   269f2:	990b      	ldr	r1, [sp, #44]	@ 0x2c
   269f4:	4632      	mov	r2, r6
   269f6:	f000 fc50 	bl	2729a <__aeabi_memcpy>
   269fa:	4d05      	ldr	r5, [pc, #20]	@ (26a10 <_start+0x27d8>)
   269fc:	446d      	add	r5, sp
   269fe:	4628      	mov	r0, r5
   26a00:	4621      	mov	r1, r4
   26a02:	f7fa fee5 	bl	217d0 <_ZN20complex_full_dynamic3app17h5227381bda777873E>
   26a06:	7828      	ldrb	r0, [r5, #0]
   26a08:	2801      	cmp	r0, #1
   26a0a:	d107      	bne.n	26a1c <_start+0x27e4>
   26a0c:	f7fd fee9 	bl	247e2 <_start+0x5aa>
   26a10:	00001404 	.word	0x00001404
   26a14:	00001140 	.word	0x00001140
   26a18:	000013a8 	.word	0x000013a8
   26a1c:	4915      	ldr	r1, [pc, #84]	@ (26a74 <_start+0x283c>)
   26a1e:	4469      	add	r1, sp
   26a20:	9b08      	ldr	r3, [sp, #32]
   26a22:	6ed8      	ldr	r0, [r3, #108]	@ 0x6c
   26a24:	8108      	strh	r0, [r1, #8]
   26a26:	4814      	ldr	r0, [pc, #80]	@ (26a78 <_start+0x2840>)
   26a28:	4468      	add	r0, sp
   26a2a:	78c2      	ldrb	r2, [r0, #3]
   26a2c:	4c13      	ldr	r4, [pc, #76]	@ (26a7c <_start+0x2844>)
   26a2e:	446c      	add	r4, sp
   26a30:	70a2      	strb	r2, [r4, #2]
   26a32:	7c82      	ldrb	r2, [r0, #18]
   26a34:	728a      	strb	r2, [r1, #10]
   26a36:	7842      	ldrb	r2, [r0, #1]
   26a38:	7880      	ldrb	r0, [r0, #2]
   26a3a:	0200      	lsls	r0, r0, #8
   26a3c:	1880      	adds	r0, r0, r2
   26a3e:	8020      	strh	r0, [r4, #0]
   26a40:	6e18      	ldr	r0, [r3, #96]	@ 0x60
   26a42:	70e0      	strb	r0, [r4, #3]
   26a44:	0e02      	lsrs	r2, r0, #24
   26a46:	71a2      	strb	r2, [r4, #6]
   26a48:	0c02      	lsrs	r2, r0, #16
   26a4a:	7162      	strb	r2, [r4, #5]
   26a4c:	0a00      	lsrs	r0, r0, #8
   26a4e:	7120      	strb	r0, [r4, #4]
   26a50:	6e58      	ldr	r0, [r3, #100]	@ 0x64
   26a52:	6e9a      	ldr	r2, [r3, #104]	@ 0x68
   26a54:	c305      	stmia	r3!, {r0, r2}
   26a56:	1de0      	adds	r0, r4, #7
   26a58:	220b      	movs	r2, #11
   26a5a:	f000 fc1e 	bl	2729a <__aeabi_memcpy>
   26a5e:	4d06      	ldr	r5, [pc, #24]	@ (26a78 <_start+0x2840>)
   26a60:	446d      	add	r5, sp
   26a62:	4628      	mov	r0, r5
   26a64:	4621      	mov	r1, r4
   26a66:	f7f9 feb5 	bl	207d4 <_ZN20complex_full_dynamic3app17h15a592e10a02dbc6E>
   26a6a:	7828      	ldrb	r0, [r5, #0]
   26a6c:	2801      	cmp	r0, #1
   26a6e:	d107      	bne.n	26a80 <_start+0x2848>
   26a70:	f7fd feb7 	bl	247e2 <_start+0x5aa>
   26a74:	000013a8 	.word	0x000013a8
   26a78:	00001404 	.word	0x00001404
   26a7c:	000011a0 	.word	0x000011a0
   26a80:	4819      	ldr	r0, [pc, #100]	@ (26ae8 <_start+0x28b0>)
   26a82:	4468      	add	r0, sp
   26a84:	78c1      	ldrb	r1, [r0, #3]
   26a86:	4c19      	ldr	r4, [pc, #100]	@ (26aec <_start+0x28b4>)
   26a88:	446c      	add	r4, sp
   26a8a:	70a1      	strb	r1, [r4, #2]
   26a8c:	7841      	ldrb	r1, [r0, #1]
   26a8e:	7882      	ldrb	r2, [r0, #2]
   26a90:	0212      	lsls	r2, r2, #8
   26a92:	1851      	adds	r1, r2, r1
   26a94:	8021      	strh	r1, [r4, #0]
   26a96:	3008      	adds	r0, #8
   26a98:	9908      	ldr	r1, [sp, #32]
   26a9a:	6e09      	ldr	r1, [r1, #96]	@ 0x60
   26a9c:	910a      	str	r1, [sp, #40]	@ 0x28
   26a9e:	4b14      	ldr	r3, [pc, #80]	@ (26af0 <_start+0x28b8>)
   26aa0:	446b      	add	r3, sp
   26aa2:	930b      	str	r3, [sp, #44]	@ 0x2c
   26aa4:	c864      	ldmia	r0!, {r2, r5, r6}
   26aa6:	c364      	stmia	r3!, {r2, r5, r6}
   26aa8:	c866      	ldmia	r0!, {r1, r2, r5, r6}
   26aaa:	c366      	stmia	r3!, {r1, r2, r5, r6}
   26aac:	c866      	ldmia	r0!, {r1, r2, r5, r6}
   26aae:	c366      	stmia	r3!, {r1, r2, r5, r6}
   26ab0:	c866      	ldmia	r0!, {r1, r2, r5, r6}
   26ab2:	c366      	stmia	r3!, {r1, r2, r5, r6}
   26ab4:	7800      	ldrb	r0, [r0, #0]
   26ab6:	7018      	strb	r0, [r3, #0]
   26ab8:	990a      	ldr	r1, [sp, #40]	@ 0x28
   26aba:	0e08      	lsrs	r0, r1, #24
   26abc:	71a0      	strb	r0, [r4, #6]
   26abe:	0c08      	lsrs	r0, r1, #16
   26ac0:	7160      	strb	r0, [r4, #5]
   26ac2:	0a08      	lsrs	r0, r1, #8
   26ac4:	7120      	strb	r0, [r4, #4]
   26ac6:	70e1      	strb	r1, [r4, #3]
   26ac8:	1de0      	adds	r0, r4, #7
   26aca:	223d      	movs	r2, #61	@ 0x3d
   26acc:	990b      	ldr	r1, [sp, #44]	@ 0x2c
   26ace:	f000 fbe4 	bl	2729a <__aeabi_memcpy>
   26ad2:	4d05      	ldr	r5, [pc, #20]	@ (26ae8 <_start+0x28b0>)
   26ad4:	446d      	add	r5, sp
   26ad6:	4628      	mov	r0, r5
   26ad8:	4621      	mov	r1, r4
   26ada:	f7fc faab 	bl	23034 <_ZN20complex_full_dynamic3app17hbacd71eefe908e1aE>
   26ade:	7828      	ldrb	r0, [r5, #0]
   26ae0:	2801      	cmp	r0, #1
   26ae2:	d107      	bne.n	26af4 <_start+0x28bc>
   26ae4:	f7fd fe7d 	bl	247e2 <_start+0x5aa>
   26ae8:	00001404 	.word	0x00001404
   26aec:	000011b4 	.word	0x000011b4
   26af0:	000013a8 	.word	0x000013a8
   26af4:	48fb      	ldr	r0, [pc, #1004]	@ (26ee4 <_start+0x2cac>)
   26af6:	4468      	add	r0, sp
   26af8:	78c1      	ldrb	r1, [r0, #3]
   26afa:	4cfc      	ldr	r4, [pc, #1008]	@ (26eec <_start+0x2cb4>)
   26afc:	446c      	add	r4, sp
   26afe:	70a1      	strb	r1, [r4, #2]
   26b00:	7841      	ldrb	r1, [r0, #1]
   26b02:	7882      	ldrb	r2, [r0, #2]
   26b04:	0212      	lsls	r2, r2, #8
   26b06:	1851      	adds	r1, r2, r1
   26b08:	8021      	strh	r1, [r4, #0]
   26b0a:	3008      	adds	r0, #8
   26b0c:	9908      	ldr	r1, [sp, #32]
   26b0e:	6e09      	ldr	r1, [r1, #96]	@ 0x60
   26b10:	910a      	str	r1, [sp, #40]	@ 0x28
   26b12:	4bf5      	ldr	r3, [pc, #980]	@ (26ee8 <_start+0x2cb0>)
   26b14:	446b      	add	r3, sp
   26b16:	930b      	str	r3, [sp, #44]	@ 0x2c
   26b18:	c864      	ldmia	r0!, {r2, r5, r6}
   26b1a:	c364      	stmia	r3!, {r2, r5, r6}
   26b1c:	c866      	ldmia	r0!, {r1, r2, r5, r6}
   26b1e:	c366      	stmia	r3!, {r1, r2, r5, r6}
   26b20:	990a      	ldr	r1, [sp, #40]	@ 0x28
   26b22:	0e08      	lsrs	r0, r1, #24
   26b24:	71a0      	strb	r0, [r4, #6]
   26b26:	0c08      	lsrs	r0, r1, #16
   26b28:	7160      	strb	r0, [r4, #5]
   26b2a:	0a08      	lsrs	r0, r1, #8
   26b2c:	7120      	strb	r0, [r4, #4]
   26b2e:	70e1      	strb	r1, [r4, #3]
   26b30:	1de0      	adds	r0, r4, #7
   26b32:	221c      	movs	r2, #28
   26b34:	990b      	ldr	r1, [sp, #44]	@ 0x2c
   26b36:	f000 fbb0 	bl	2729a <__aeabi_memcpy>
   26b3a:	4dea      	ldr	r5, [pc, #936]	@ (26ee4 <_start+0x2cac>)
   26b3c:	446d      	add	r5, sp
   26b3e:	4628      	mov	r0, r5
   26b40:	4621      	mov	r1, r4
   26b42:	f7fb f907 	bl	21d54 <_ZN20complex_full_dynamic3app17h755c7e30ecc82b4fE>
   26b46:	7828      	ldrb	r0, [r5, #0]
   26b48:	2801      	cmp	r0, #1
   26b4a:	d101      	bne.n	26b50 <_start+0x2918>
   26b4c:	f7fd fe49 	bl	247e2 <_start+0x5aa>
   26b50:	48e4      	ldr	r0, [pc, #912]	@ (26ee4 <_start+0x2cac>)
   26b52:	4468      	add	r0, sp
   26b54:	78c1      	ldrb	r1, [r0, #3]
   26b56:	4ce6      	ldr	r4, [pc, #920]	@ (26ef0 <_start+0x2cb8>)
   26b58:	446c      	add	r4, sp
   26b5a:	70a1      	strb	r1, [r4, #2]
   26b5c:	7841      	ldrb	r1, [r0, #1]
   26b5e:	7882      	ldrb	r2, [r0, #2]
   26b60:	0212      	lsls	r2, r2, #8
   26b62:	1851      	adds	r1, r2, r1
   26b64:	8021      	strh	r1, [r4, #0]
   26b66:	3008      	adds	r0, #8
   26b68:	9908      	ldr	r1, [sp, #32]
   26b6a:	6e09      	ldr	r1, [r1, #96]	@ 0x60
   26b6c:	910a      	str	r1, [sp, #40]	@ 0x28
   26b6e:	4bde      	ldr	r3, [pc, #888]	@ (26ee8 <_start+0x2cb0>)
   26b70:	446b      	add	r3, sp
   26b72:	930b      	str	r3, [sp, #44]	@ 0x2c
   26b74:	c864      	ldmia	r0!, {r2, r5, r6}
   26b76:	c364      	stmia	r3!, {r2, r5, r6}
   26b78:	c866      	ldmia	r0!, {r1, r2, r5, r6}
   26b7a:	c366      	stmia	r3!, {r1, r2, r5, r6}
   26b7c:	7800      	ldrb	r0, [r0, #0]
   26b7e:	7018      	strb	r0, [r3, #0]
   26b80:	990a      	ldr	r1, [sp, #40]	@ 0x28
   26b82:	0e08      	lsrs	r0, r1, #24
   26b84:	71a0      	strb	r0, [r4, #6]
   26b86:	0c08      	lsrs	r0, r1, #16
   26b88:	7160      	strb	r0, [r4, #5]
   26b8a:	0a08      	lsrs	r0, r1, #8
   26b8c:	7120      	strb	r0, [r4, #4]
   26b8e:	70e1      	strb	r1, [r4, #3]
   26b90:	1de0      	adds	r0, r4, #7
   26b92:	221d      	movs	r2, #29
   26b94:	990b      	ldr	r1, [sp, #44]	@ 0x2c
   26b96:	f000 fb80 	bl	2729a <__aeabi_memcpy>
   26b9a:	4dd2      	ldr	r5, [pc, #840]	@ (26ee4 <_start+0x2cac>)
   26b9c:	446d      	add	r5, sp
   26b9e:	4628      	mov	r0, r5
   26ba0:	4621      	mov	r1, r4
   26ba2:	f7fa fbfd 	bl	213a0 <_ZN20complex_full_dynamic3app17h436819abd303daf9E>
   26ba6:	7828      	ldrb	r0, [r5, #0]
   26ba8:	2801      	cmp	r0, #1
   26baa:	d101      	bne.n	26bb0 <_start+0x2978>
   26bac:	f7fd fe19 	bl	247e2 <_start+0x5aa>
   26bb0:	48cc      	ldr	r0, [pc, #816]	@ (26ee4 <_start+0x2cac>)
   26bb2:	4468      	add	r0, sp
   26bb4:	78c1      	ldrb	r1, [r0, #3]
   26bb6:	4ccf      	ldr	r4, [pc, #828]	@ (26ef4 <_start+0x2cbc>)
   26bb8:	446c      	add	r4, sp
   26bba:	70a1      	strb	r1, [r4, #2]
   26bbc:	7841      	ldrb	r1, [r0, #1]
   26bbe:	7882      	ldrb	r2, [r0, #2]
   26bc0:	0212      	lsls	r2, r2, #8
   26bc2:	1851      	adds	r1, r2, r1
   26bc4:	8021      	strh	r1, [r4, #0]
   26bc6:	3008      	adds	r0, #8
   26bc8:	9908      	ldr	r1, [sp, #32]
   26bca:	6e09      	ldr	r1, [r1, #96]	@ 0x60
   26bcc:	910a      	str	r1, [sp, #40]	@ 0x28
   26bce:	4bc6      	ldr	r3, [pc, #792]	@ (26ee8 <_start+0x2cb0>)
   26bd0:	446b      	add	r3, sp
   26bd2:	930b      	str	r3, [sp, #44]	@ 0x2c
   26bd4:	c864      	ldmia	r0!, {r2, r5, r6}
   26bd6:	c364      	stmia	r3!, {r2, r5, r6}
   26bd8:	c864      	ldmia	r0!, {r2, r5, r6}
   26bda:	c364      	stmia	r3!, {r2, r5, r6}
   26bdc:	c866      	ldmia	r0!, {r1, r2, r5, r6}
   26bde:	c366      	stmia	r3!, {r1, r2, r5, r6}
   26be0:	990a      	ldr	r1, [sp, #40]	@ 0x28
   26be2:	0e08      	lsrs	r0, r1, #24
   26be4:	71a0      	strb	r0, [r4, #6]
   26be6:	0c08      	lsrs	r0, r1, #16
   26be8:	7160      	strb	r0, [r4, #5]
   26bea:	0a08      	lsrs	r0, r1, #8
   26bec:	7120      	strb	r0, [r4, #4]
   26bee:	70e1      	strb	r1, [r4, #3]
   26bf0:	1de0      	adds	r0, r4, #7
   26bf2:	2228      	movs	r2, #40	@ 0x28
   26bf4:	990b      	ldr	r1, [sp, #44]	@ 0x2c
   26bf6:	f000 fb50 	bl	2729a <__aeabi_memcpy>
   26bfa:	4dba      	ldr	r5, [pc, #744]	@ (26ee4 <_start+0x2cac>)
   26bfc:	446d      	add	r5, sp
   26bfe:	4628      	mov	r0, r5
   26c00:	4621      	mov	r1, r4
   26c02:	f7f9 feef 	bl	209e4 <_ZN20complex_full_dynamic3app17h2438056c6254a65eE>
   26c06:	7828      	ldrb	r0, [r5, #0]
   26c08:	2801      	cmp	r0, #1
   26c0a:	d101      	bne.n	26c10 <_start+0x29d8>
   26c0c:	f7fd fde9 	bl	247e2 <_start+0x5aa>
   26c10:	49b4      	ldr	r1, [pc, #720]	@ (26ee4 <_start+0x2cac>)
   26c12:	4469      	add	r1, sp
   26c14:	78c8      	ldrb	r0, [r1, #3]
   26c16:	4cb8      	ldr	r4, [pc, #736]	@ (26ef8 <_start+0x2cc0>)
   26c18:	446c      	add	r4, sp
   26c1a:	70a0      	strb	r0, [r4, #2]
   26c1c:	7848      	ldrb	r0, [r1, #1]
   26c1e:	788a      	ldrb	r2, [r1, #2]
   26c20:	0212      	lsls	r2, r2, #8
   26c22:	1810      	adds	r0, r2, r0
   26c24:	8020      	strh	r0, [r4, #0]
   26c26:	9808      	ldr	r0, [sp, #32]
   26c28:	6e05      	ldr	r5, [r0, #96]	@ 0x60
   26c2a:	3108      	adds	r1, #8
   26c2c:	48ae      	ldr	r0, [pc, #696]	@ (26ee8 <_start+0x2cb0>)
   26c2e:	4468      	add	r0, sp
   26c30:	900b      	str	r0, [sp, #44]	@ 0x2c
   26c32:	2657      	movs	r6, #87	@ 0x57
   26c34:	4632      	mov	r2, r6
   26c36:	f000 f9d0 	bl	26fda <__aeabi_memcpy4>
   26c3a:	0e28      	lsrs	r0, r5, #24
   26c3c:	71a0      	strb	r0, [r4, #6]
   26c3e:	0c28      	lsrs	r0, r5, #16
   26c40:	7160      	strb	r0, [r4, #5]
   26c42:	0a28      	lsrs	r0, r5, #8
   26c44:	7120      	strb	r0, [r4, #4]
   26c46:	70e5      	strb	r5, [r4, #3]
   26c48:	1de0      	adds	r0, r4, #7
   26c4a:	990b      	ldr	r1, [sp, #44]	@ 0x2c
   26c4c:	4632      	mov	r2, r6
   26c4e:	f000 fb24 	bl	2729a <__aeabi_memcpy>
   26c52:	4da4      	ldr	r5, [pc, #656]	@ (26ee4 <_start+0x2cac>)
   26c54:	446d      	add	r5, sp
   26c56:	4628      	mov	r0, r5
   26c58:	4621      	mov	r1, r4
   26c5a:	f7f9 ff1d 	bl	20a98 <_ZN20complex_full_dynamic3app17h26b0d3101ff09588E>
   26c5e:	7828      	ldrb	r0, [r5, #0]
   26c60:	2801      	cmp	r0, #1
   26c62:	d101      	bne.n	26c68 <_start+0x2a30>
   26c64:	f7fd fdbd 	bl	247e2 <_start+0x5aa>
   26c68:	499e      	ldr	r1, [pc, #632]	@ (26ee4 <_start+0x2cac>)
   26c6a:	4469      	add	r1, sp
   26c6c:	78c8      	ldrb	r0, [r1, #3]
   26c6e:	4ca3      	ldr	r4, [pc, #652]	@ (26efc <_start+0x2cc4>)
   26c70:	446c      	add	r4, sp
   26c72:	70a0      	strb	r0, [r4, #2]
   26c74:	7848      	ldrb	r0, [r1, #1]
   26c76:	788a      	ldrb	r2, [r1, #2]
   26c78:	0212      	lsls	r2, r2, #8
   26c7a:	1810      	adds	r0, r2, r0
   26c7c:	8020      	strh	r0, [r4, #0]
   26c7e:	9808      	ldr	r0, [sp, #32]
   26c80:	6e05      	ldr	r5, [r0, #96]	@ 0x60
   26c82:	3108      	adds	r1, #8
   26c84:	4898      	ldr	r0, [pc, #608]	@ (26ee8 <_start+0x2cb0>)
   26c86:	4468      	add	r0, sp
   26c88:	900b      	str	r0, [sp, #44]	@ 0x2c
   26c8a:	264e      	movs	r6, #78	@ 0x4e
   26c8c:	4632      	mov	r2, r6
   26c8e:	f000 f9a4 	bl	26fda <__aeabi_memcpy4>
   26c92:	0e28      	lsrs	r0, r5, #24
   26c94:	71a0      	strb	r0, [r4, #6]
   26c96:	0c28      	lsrs	r0, r5, #16
   26c98:	7160      	strb	r0, [r4, #5]
   26c9a:	0a28      	lsrs	r0, r5, #8
   26c9c:	7120      	strb	r0, [r4, #4]
   26c9e:	70e5      	strb	r5, [r4, #3]
   26ca0:	1de0      	adds	r0, r4, #7
   26ca2:	990b      	ldr	r1, [sp, #44]	@ 0x2c
   26ca4:	4632      	mov	r2, r6
   26ca6:	f000 faf8 	bl	2729a <__aeabi_memcpy>
   26caa:	4d8e      	ldr	r5, [pc, #568]	@ (26ee4 <_start+0x2cac>)
   26cac:	446d      	add	r5, sp
   26cae:	4628      	mov	r0, r5
   26cb0:	4621      	mov	r1, r4
   26cb2:	f7f9 ff49 	bl	20b48 <_ZN20complex_full_dynamic3app17h28e8f68e90b6aeffE>
   26cb6:	7828      	ldrb	r0, [r5, #0]
   26cb8:	2801      	cmp	r0, #1
   26cba:	d101      	bne.n	26cc0 <_start+0x2a88>
   26cbc:	f7fd fd91 	bl	247e2 <_start+0x5aa>
   26cc0:	4989      	ldr	r1, [pc, #548]	@ (26ee8 <_start+0x2cb0>)
   26cc2:	4469      	add	r1, sp
   26cc4:	9b08      	ldr	r3, [sp, #32]
   26cc6:	6ed8      	ldr	r0, [r3, #108]	@ 0x6c
   26cc8:	8108      	strh	r0, [r1, #8]
   26cca:	4886      	ldr	r0, [pc, #536]	@ (26ee4 <_start+0x2cac>)
   26ccc:	4468      	add	r0, sp
   26cce:	78c2      	ldrb	r2, [r0, #3]
   26cd0:	4c8b      	ldr	r4, [pc, #556]	@ (26f00 <_start+0x2cc8>)
   26cd2:	446c      	add	r4, sp
   26cd4:	70a2      	strb	r2, [r4, #2]
   26cd6:	7842      	ldrb	r2, [r0, #1]
   26cd8:	7880      	ldrb	r0, [r0, #2]
   26cda:	0200      	lsls	r0, r0, #8
   26cdc:	1880      	adds	r0, r0, r2
   26cde:	8020      	strh	r0, [r4, #0]
   26ce0:	6e18      	ldr	r0, [r3, #96]	@ 0x60
   26ce2:	70e0      	strb	r0, [r4, #3]
   26ce4:	0e02      	lsrs	r2, r0, #24
   26ce6:	71a2      	strb	r2, [r4, #6]
   26ce8:	0c02      	lsrs	r2, r0, #16
   26cea:	7162      	strb	r2, [r4, #5]
   26cec:	0a00      	lsrs	r0, r0, #8
   26cee:	7120      	strb	r0, [r4, #4]
   26cf0:	6e58      	ldr	r0, [r3, #100]	@ 0x64
   26cf2:	6e9a      	ldr	r2, [r3, #104]	@ 0x68
   26cf4:	c305      	stmia	r3!, {r0, r2}
   26cf6:	1de0      	adds	r0, r4, #7
   26cf8:	220a      	movs	r2, #10
   26cfa:	f000 face 	bl	2729a <__aeabi_memcpy>
   26cfe:	4d79      	ldr	r5, [pc, #484]	@ (26ee4 <_start+0x2cac>)
   26d00:	446d      	add	r5, sp
   26d02:	4628      	mov	r0, r5
   26d04:	4621      	mov	r1, r4
   26d06:	f7fb f87d 	bl	21e04 <_ZN20complex_full_dynamic3app17h7ac25c48f72de3c9E>
   26d0a:	7828      	ldrb	r0, [r5, #0]
   26d0c:	2801      	cmp	r0, #1
   26d0e:	d101      	bne.n	26d14 <_start+0x2adc>
   26d10:	f7fd fd67 	bl	247e2 <_start+0x5aa>
   26d14:	4973      	ldr	r1, [pc, #460]	@ (26ee4 <_start+0x2cac>)
   26d16:	4469      	add	r1, sp
   26d18:	78c8      	ldrb	r0, [r1, #3]
   26d1a:	4c7a      	ldr	r4, [pc, #488]	@ (26f04 <_start+0x2ccc>)
   26d1c:	446c      	add	r4, sp
   26d1e:	70a0      	strb	r0, [r4, #2]
   26d20:	7848      	ldrb	r0, [r1, #1]
   26d22:	788a      	ldrb	r2, [r1, #2]
   26d24:	0212      	lsls	r2, r2, #8
   26d26:	1810      	adds	r0, r2, r0
   26d28:	8020      	strh	r0, [r4, #0]
   26d2a:	9808      	ldr	r0, [sp, #32]
   26d2c:	6e05      	ldr	r5, [r0, #96]	@ 0x60
   26d2e:	3108      	adds	r1, #8
   26d30:	486d      	ldr	r0, [pc, #436]	@ (26ee8 <_start+0x2cb0>)
   26d32:	4468      	add	r0, sp
   26d34:	900b      	str	r0, [sp, #44]	@ 0x2c
   26d36:	2649      	movs	r6, #73	@ 0x49
   26d38:	4632      	mov	r2, r6
   26d3a:	f000 f94e 	bl	26fda <__aeabi_memcpy4>
   26d3e:	0e28      	lsrs	r0, r5, #24
   26d40:	71a0      	strb	r0, [r4, #6]
   26d42:	0c28      	lsrs	r0, r5, #16
   26d44:	7160      	strb	r0, [r4, #5]
   26d46:	0a28      	lsrs	r0, r5, #8
   26d48:	7120      	strb	r0, [r4, #4]
   26d4a:	70e5      	strb	r5, [r4, #3]
   26d4c:	1de0      	adds	r0, r4, #7
   26d4e:	990b      	ldr	r1, [sp, #44]	@ 0x2c
   26d50:	4632      	mov	r2, r6
   26d52:	f000 faa2 	bl	2729a <__aeabi_memcpy>
   26d56:	4d63      	ldr	r5, [pc, #396]	@ (26ee4 <_start+0x2cac>)
   26d58:	446d      	add	r5, sp
   26d5a:	4628      	mov	r0, r5
   26d5c:	4621      	mov	r1, r4
   26d5e:	f7fb fd8d 	bl	2287c <_ZN20complex_full_dynamic3app17ha28591b0b3fa2e36E>
   26d62:	7828      	ldrb	r0, [r5, #0]
   26d64:	2801      	cmp	r0, #1
   26d66:	d101      	bne.n	26d6c <_start+0x2b34>
   26d68:	f7fd fd3b 	bl	247e2 <_start+0x5aa>
   26d6c:	485d      	ldr	r0, [pc, #372]	@ (26ee4 <_start+0x2cac>)
   26d6e:	4468      	add	r0, sp
   26d70:	78c1      	ldrb	r1, [r0, #3]
   26d72:	4c65      	ldr	r4, [pc, #404]	@ (26f08 <_start+0x2cd0>)
   26d74:	446c      	add	r4, sp
   26d76:	70a1      	strb	r1, [r4, #2]
   26d78:	7841      	ldrb	r1, [r0, #1]
   26d7a:	7882      	ldrb	r2, [r0, #2]
   26d7c:	0212      	lsls	r2, r2, #8
   26d7e:	1851      	adds	r1, r2, r1
   26d80:	8021      	strh	r1, [r4, #0]
   26d82:	3008      	adds	r0, #8
   26d84:	9908      	ldr	r1, [sp, #32]
   26d86:	6e09      	ldr	r1, [r1, #96]	@ 0x60
   26d88:	4b57      	ldr	r3, [pc, #348]	@ (26ee8 <_start+0x2cb0>)
   26d8a:	446b      	add	r3, sp
   26d8c:	930b      	str	r3, [sp, #44]	@ 0x2c
   26d8e:	c860      	ldmia	r0!, {r5, r6}
   26d90:	c360      	stmia	r3!, {r5, r6}
   26d92:	c864      	ldmia	r0!, {r2, r5, r6}
   26d94:	c364      	stmia	r3!, {r2, r5, r6}
   26d96:	0e08      	lsrs	r0, r1, #24
   26d98:	71a0      	strb	r0, [r4, #6]
   26d9a:	0c08      	lsrs	r0, r1, #16
   26d9c:	7160      	strb	r0, [r4, #5]
   26d9e:	0a08      	lsrs	r0, r1, #8
   26da0:	7120      	strb	r0, [r4, #4]
   26da2:	70e1      	strb	r1, [r4, #3]
   26da4:	1de0      	adds	r0, r4, #7
   26da6:	2214      	movs	r2, #20
   26da8:	990b      	ldr	r1, [sp, #44]	@ 0x2c
   26daa:	f000 fa76 	bl	2729a <__aeabi_memcpy>
   26dae:	4d4d      	ldr	r5, [pc, #308]	@ (26ee4 <_start+0x2cac>)
   26db0:	446d      	add	r5, sp
   26db2:	4628      	mov	r0, r5
   26db4:	4621      	mov	r1, r4
   26db6:	f7fd f8db 	bl	23f70 <_ZN20complex_full_dynamic3app17hf61e34e2439e08b7E>
   26dba:	7828      	ldrb	r0, [r5, #0]
   26dbc:	2801      	cmp	r0, #1
   26dbe:	d101      	bne.n	26dc4 <_start+0x2b8c>
   26dc0:	f7fd fd0f 	bl	247e2 <_start+0x5aa>
   26dc4:	4947      	ldr	r1, [pc, #284]	@ (26ee4 <_start+0x2cac>)
   26dc6:	4469      	add	r1, sp
   26dc8:	78c8      	ldrb	r0, [r1, #3]
   26dca:	4c50      	ldr	r4, [pc, #320]	@ (26f0c <_start+0x2cd4>)
   26dcc:	446c      	add	r4, sp
   26dce:	70a0      	strb	r0, [r4, #2]
   26dd0:	7848      	ldrb	r0, [r1, #1]
   26dd2:	788a      	ldrb	r2, [r1, #2]
   26dd4:	0212      	lsls	r2, r2, #8
   26dd6:	1810      	adds	r0, r2, r0
   26dd8:	8020      	strh	r0, [r4, #0]
   26dda:	9808      	ldr	r0, [sp, #32]
   26ddc:	6e05      	ldr	r5, [r0, #96]	@ 0x60
   26dde:	3108      	adds	r1, #8
   26de0:	4841      	ldr	r0, [pc, #260]	@ (26ee8 <_start+0x2cb0>)
   26de2:	4468      	add	r0, sp
   26de4:	900b      	str	r0, [sp, #44]	@ 0x2c
   26de6:	265c      	movs	r6, #92	@ 0x5c
   26de8:	4632      	mov	r2, r6
   26dea:	f000 f8f6 	bl	26fda <__aeabi_memcpy4>
   26dee:	0e28      	lsrs	r0, r5, #24
   26df0:	71a0      	strb	r0, [r4, #6]
   26df2:	0c28      	lsrs	r0, r5, #16
   26df4:	7160      	strb	r0, [r4, #5]
   26df6:	0a28      	lsrs	r0, r5, #8
   26df8:	7120      	strb	r0, [r4, #4]
   26dfa:	70e5      	strb	r5, [r4, #3]
   26dfc:	1de0      	adds	r0, r4, #7
   26dfe:	990b      	ldr	r1, [sp, #44]	@ 0x2c
   26e00:	4632      	mov	r2, r6
   26e02:	f000 fa4a 	bl	2729a <__aeabi_memcpy>
   26e06:	4d37      	ldr	r5, [pc, #220]	@ (26ee4 <_start+0x2cac>)
   26e08:	446d      	add	r5, sp
   26e0a:	4628      	mov	r0, r5
   26e0c:	4621      	mov	r1, r4
   26e0e:	f7fc fe9c 	bl	23b4a <_ZN20complex_full_dynamic3app17he49536e90ee2143aE>
   26e12:	7828      	ldrb	r0, [r5, #0]
   26e14:	2801      	cmp	r0, #1
   26e16:	d101      	bne.n	26e1c <_start+0x2be4>
   26e18:	f7fd fce3 	bl	247e2 <_start+0x5aa>
   26e1c:	4831      	ldr	r0, [pc, #196]	@ (26ee4 <_start+0x2cac>)
   26e1e:	4468      	add	r0, sp
   26e20:	78c1      	ldrb	r1, [r0, #3]
   26e22:	4c3b      	ldr	r4, [pc, #236]	@ (26f10 <_start+0x2cd8>)
   26e24:	446c      	add	r4, sp
   26e26:	70a1      	strb	r1, [r4, #2]
   26e28:	7841      	ldrb	r1, [r0, #1]
   26e2a:	7882      	ldrb	r2, [r0, #2]
   26e2c:	0212      	lsls	r2, r2, #8
   26e2e:	1851      	adds	r1, r2, r1
   26e30:	8021      	strh	r1, [r4, #0]
   26e32:	3008      	adds	r0, #8
   26e34:	9908      	ldr	r1, [sp, #32]
   26e36:	6e09      	ldr	r1, [r1, #96]	@ 0x60
   26e38:	4b2b      	ldr	r3, [pc, #172]	@ (26ee8 <_start+0x2cb0>)
   26e3a:	446b      	add	r3, sp
   26e3c:	930b      	str	r3, [sp, #44]	@ 0x2c
   26e3e:	c864      	ldmia	r0!, {r2, r5, r6}
   26e40:	c364      	stmia	r3!, {r2, r5, r6}
   26e42:	c864      	ldmia	r0!, {r2, r5, r6}
   26e44:	c364      	stmia	r3!, {r2, r5, r6}
   26e46:	c864      	ldmia	r0!, {r2, r5, r6}
   26e48:	c364      	stmia	r3!, {r2, r5, r6}
   26e4a:	7800      	ldrb	r0, [r0, #0]
   26e4c:	7018      	strb	r0, [r3, #0]
   26e4e:	0e08      	lsrs	r0, r1, #24
   26e50:	71a0      	strb	r0, [r4, #6]
   26e52:	0c08      	lsrs	r0, r1, #16
   26e54:	7160      	strb	r0, [r4, #5]
   26e56:	0a08      	lsrs	r0, r1, #8
   26e58:	7120      	strb	r0, [r4, #4]
   26e5a:	70e1      	strb	r1, [r4, #3]
   26e5c:	1de0      	adds	r0, r4, #7
   26e5e:	2225      	movs	r2, #37	@ 0x25
   26e60:	990b      	ldr	r1, [sp, #44]	@ 0x2c
   26e62:	f000 fa1a 	bl	2729a <__aeabi_memcpy>
   26e66:	4d1f      	ldr	r5, [pc, #124]	@ (26ee4 <_start+0x2cac>)
   26e68:	446d      	add	r5, sp
   26e6a:	4628      	mov	r0, r5
   26e6c:	4621      	mov	r1, r4
   26e6e:	f7fc ff77 	bl	23d60 <_ZN20complex_full_dynamic3app17he849ea37a29d3a65E>
   26e72:	7828      	ldrb	r0, [r5, #0]
   26e74:	2801      	cmp	r0, #1
   26e76:	d101      	bne.n	26e7c <_start+0x2c44>
   26e78:	f7fd fcb3 	bl	247e2 <_start+0x5aa>
   26e7c:	4819      	ldr	r0, [pc, #100]	@ (26ee4 <_start+0x2cac>)
   26e7e:	4468      	add	r0, sp
   26e80:	78c1      	ldrb	r1, [r0, #3]
   26e82:	4c24      	ldr	r4, [pc, #144]	@ (26f14 <_start+0x2cdc>)
   26e84:	446c      	add	r4, sp
   26e86:	70a1      	strb	r1, [r4, #2]
   26e88:	7841      	ldrb	r1, [r0, #1]
   26e8a:	7882      	ldrb	r2, [r0, #2]
   26e8c:	0212      	lsls	r2, r2, #8
   26e8e:	1851      	adds	r1, r2, r1
   26e90:	8021      	strh	r1, [r4, #0]
   26e92:	3008      	adds	r0, #8
   26e94:	9908      	ldr	r1, [sp, #32]
   26e96:	6e09      	ldr	r1, [r1, #96]	@ 0x60
   26e98:	910a      	str	r1, [sp, #40]	@ 0x28
   26e9a:	4b13      	ldr	r3, [pc, #76]	@ (26ee8 <_start+0x2cb0>)
   26e9c:	446b      	add	r3, sp
   26e9e:	930b      	str	r3, [sp, #44]	@ 0x2c
   26ea0:	c866      	ldmia	r0!, {r1, r2, r5, r6}
   26ea2:	c366      	stmia	r3!, {r1, r2, r5, r6}
   26ea4:	c866      	ldmia	r0!, {r1, r2, r5, r6}
   26ea6:	c366      	stmia	r3!, {r1, r2, r5, r6}
   26ea8:	8801      	ldrh	r1, [r0, #0]
   26eaa:	8019      	strh	r1, [r3, #0]
   26eac:	7880      	ldrb	r0, [r0, #2]
   26eae:	7098      	strb	r0, [r3, #2]
   26eb0:	990a      	ldr	r1, [sp, #40]	@ 0x28
   26eb2:	0e08      	lsrs	r0, r1, #24
   26eb4:	71a0      	strb	r0, [r4, #6]
   26eb6:	0c08      	lsrs	r0, r1, #16
   26eb8:	7160      	strb	r0, [r4, #5]
   26eba:	0a08      	lsrs	r0, r1, #8
   26ebc:	7120      	strb	r0, [r4, #4]
   26ebe:	70e1      	strb	r1, [r4, #3]
   26ec0:	1de0      	adds	r0, r4, #7
   26ec2:	2223      	movs	r2, #35	@ 0x23
   26ec4:	990b      	ldr	r1, [sp, #44]	@ 0x2c
   26ec6:	f000 f9e8 	bl	2729a <__aeabi_memcpy>
   26eca:	4d06      	ldr	r5, [pc, #24]	@ (26ee4 <_start+0x2cac>)
   26ecc:	446d      	add	r5, sp
   26ece:	4628      	mov	r0, r5
   26ed0:	4621      	mov	r1, r4
   26ed2:	f7f9 fff7 	bl	20ec4 <_ZN20complex_full_dynamic3app17h30134a15d0ef910eE>
   26ed6:	7828      	ldrb	r0, [r5, #0]
   26ed8:	9908      	ldr	r1, [sp, #32]
   26eda:	6e09      	ldr	r1, [r1, #96]	@ 0x60
   26edc:	910b      	str	r1, [sp, #44]	@ 0x2c
   26ede:	f7fd fc84 	bl	247ea <_start+0x5b2>
   26ee2:	46c0      	nop			@ (mov r8, r8)
   26ee4:	00001404 	.word	0x00001404
   26ee8:	000013a8 	.word	0x000013a8
   26eec:	000011f8 	.word	0x000011f8
   26ef0:	0000121c 	.word	0x0000121c
   26ef4:	00001240 	.word	0x00001240
   26ef8:	00001270 	.word	0x00001270
   26efc:	000012d0 	.word	0x000012d0
   26f00:	00001328 	.word	0x00001328
   26f04:	0000133c 	.word	0x0000133c
   26f08:	0000138c 	.word	0x0000138c
   26f0c:	00001468 	.word	0x00001468
   26f10:	000014cc 	.word	0x000014cc
   26f14:	000014f8 	.word	0x000014f8

00026f18 <_ZN9allow_pin12full_dynamic17unshare_if_shared17h34fb2a9288def0c2E>:
   26f18:	b5d0      	push	{r4, r6, r7, lr}
   26f1a:	af02      	add	r7, sp, #8
   26f1c:	7a02      	ldrb	r2, [r0, #8]
   26f1e:	2a02      	cmp	r2, #2
   26f20:	d00d      	beq.n	26f3e <_ZN9allow_pin12full_dynamic17unshare_if_shared17h34fb2a9288def0c2E+0x26>
   26f22:	4604      	mov	r4, r0
   26f24:	6800      	ldr	r0, [r0, #0]
   26f26:	6861      	ldr	r1, [r4, #4]
   26f28:	2a03      	cmp	r2, #3
   26f2a:	d103      	bne.n	26f34 <_ZN9allow_pin12full_dynamic17unshare_if_shared17h34fb2a9288def0c2E+0x1c>
   26f2c:	2200      	movs	r2, #0
   26f2e:	4613      	mov	r3, r2
   26f30:	df03      	svc	3
   26f32:	e002      	b.n	26f3a <_ZN9allow_pin12full_dynamic17unshare_if_shared17h34fb2a9288def0c2E+0x22>
   26f34:	2200      	movs	r2, #0
   26f36:	4613      	mov	r3, r2
   26f38:	df04      	svc	4
   26f3a:	2002      	movs	r0, #2
   26f3c:	7220      	strb	r0, [r4, #8]
   26f3e:	bdd0      	pop	{r4, r6, r7, pc}

00026f40 <__aeabi_memclr4>:
   26f40:	b5f0      	push	{r4, r5, r6, r7, lr}
   26f42:	af03      	add	r7, sp, #12
   26f44:	2904      	cmp	r1, #4
   26f46:	d311      	bcc.n	26f6c <__aeabi_memclr4+0x2c>
   26f48:	1f0c      	subs	r4, r1, #4
   26f4a:	250c      	movs	r5, #12
   26f4c:	4025      	ands	r5, r4
   26f4e:	2d0c      	cmp	r5, #12
   26f50:	d012      	beq.n	26f78 <__aeabi_memclr4+0x38>
   26f52:	2600      	movs	r6, #0
   26f54:	4602      	mov	r2, r0
   26f56:	c240      	stmia	r2!, {r6}
   26f58:	0723      	lsls	r3, r4, #28
   26f5a:	0f9b      	lsrs	r3, r3, #30
   26f5c:	4623      	mov	r3, r4
   26f5e:	d00d      	beq.n	26f7c <__aeabi_memclr4+0x3c>
   26f60:	6046      	str	r6, [r0, #4]
   26f62:	2d04      	cmp	r5, #4
   26f64:	d105      	bne.n	26f72 <__aeabi_memclr4+0x32>
   26f66:	3908      	subs	r1, #8
   26f68:	3008      	adds	r0, #8
   26f6a:	e005      	b.n	26f78 <__aeabi_memclr4+0x38>
   26f6c:	460b      	mov	r3, r1
   26f6e:	4602      	mov	r2, r0
   26f70:	e00f      	b.n	26f92 <__aeabi_memclr4+0x52>
   26f72:	6086      	str	r6, [r0, #8]
   26f74:	390c      	subs	r1, #12
   26f76:	300c      	adds	r0, #12
   26f78:	4602      	mov	r2, r0
   26f7a:	460b      	mov	r3, r1
   26f7c:	2c0c      	cmp	r4, #12
   26f7e:	d308      	bcc.n	26f92 <__aeabi_memclr4+0x52>
   26f80:	2000      	movs	r0, #0
   26f82:	6010      	str	r0, [r2, #0]
   26f84:	6050      	str	r0, [r2, #4]
   26f86:	6090      	str	r0, [r2, #8]
   26f88:	60d0      	str	r0, [r2, #12]
   26f8a:	3210      	adds	r2, #16
   26f8c:	3b10      	subs	r3, #16
   26f8e:	2b03      	cmp	r3, #3
   26f90:	d8f6      	bhi.n	26f80 <__aeabi_memclr4+0x40>
   26f92:	18d0      	adds	r0, r2, r3
   26f94:	4282      	cmp	r2, r0
   26f96:	d21a      	bcs.n	26fce <__aeabi_memclr4+0x8e>
   26f98:	2403      	movs	r4, #3
   26f9a:	401c      	ands	r4, r3
   26f9c:	1e59      	subs	r1, r3, #1
   26f9e:	2c00      	cmp	r4, #0
   26fa0:	d00b      	beq.n	26fba <__aeabi_memclr4+0x7a>
   26fa2:	2300      	movs	r3, #0
   26fa4:	7013      	strb	r3, [r2, #0]
   26fa6:	2c01      	cmp	r4, #1
   26fa8:	d103      	bne.n	26fb2 <__aeabi_memclr4+0x72>
   26faa:	1c52      	adds	r2, r2, #1
   26fac:	2903      	cmp	r1, #3
   26fae:	d206      	bcs.n	26fbe <__aeabi_memclr4+0x7e>
   26fb0:	e00d      	b.n	26fce <__aeabi_memclr4+0x8e>
   26fb2:	7053      	strb	r3, [r2, #1]
   26fb4:	2c02      	cmp	r4, #2
   26fb6:	d10b      	bne.n	26fd0 <__aeabi_memclr4+0x90>
   26fb8:	1c92      	adds	r2, r2, #2
   26fba:	2903      	cmp	r1, #3
   26fbc:	d307      	bcc.n	26fce <__aeabi_memclr4+0x8e>
   26fbe:	2100      	movs	r1, #0
   26fc0:	70d1      	strb	r1, [r2, #3]
   26fc2:	7091      	strb	r1, [r2, #2]
   26fc4:	7051      	strb	r1, [r2, #1]
   26fc6:	7011      	strb	r1, [r2, #0]
   26fc8:	1d12      	adds	r2, r2, #4
   26fca:	4282      	cmp	r2, r0
   26fcc:	d1f7      	bne.n	26fbe <__aeabi_memclr4+0x7e>
   26fce:	bdf0      	pop	{r4, r5, r6, r7, pc}
   26fd0:	7093      	strb	r3, [r2, #2]
   26fd2:	1cd2      	adds	r2, r2, #3
   26fd4:	2903      	cmp	r1, #3
   26fd6:	d2f2      	bcs.n	26fbe <__aeabi_memclr4+0x7e>
   26fd8:	e7f9      	b.n	26fce <__aeabi_memclr4+0x8e>

00026fda <__aeabi_memcpy4>:
   26fda:	b5f0      	push	{r4, r5, r6, r7, lr}
   26fdc:	af03      	add	r7, sp, #12
   26fde:	b081      	sub	sp, #4
   26fe0:	2a04      	cmp	r2, #4
   26fe2:	d32d      	bcc.n	27040 <__aeabi_memcpy4+0x66>
   26fe4:	1f13      	subs	r3, r2, #4
   26fe6:	250c      	movs	r5, #12
   26fe8:	401d      	ands	r5, r3
   26fea:	2d0c      	cmp	r5, #12
   26fec:	d019      	beq.n	27022 <__aeabi_memcpy4+0x48>
   26fee:	9200      	str	r2, [sp, #0]
   26ff0:	460e      	mov	r6, r1
   26ff2:	c904      	ldmia	r1!, {r2}
   26ff4:	4604      	mov	r4, r0
   26ff6:	c004      	stmia	r0!, {r2}
   26ff8:	071a      	lsls	r2, r3, #28
   26ffa:	0f92      	lsrs	r2, r2, #30
   26ffc:	461a      	mov	r2, r3
   26ffe:	d010      	beq.n	27022 <__aeabi_memcpy4+0x48>
   27000:	4631      	mov	r1, r6
   27002:	6872      	ldr	r2, [r6, #4]
   27004:	6062      	str	r2, [r4, #4]
   27006:	2d04      	cmp	r5, #4
   27008:	d104      	bne.n	27014 <__aeabi_memcpy4+0x3a>
   2700a:	9a00      	ldr	r2, [sp, #0]
   2700c:	3a08      	subs	r2, #8
   2700e:	3108      	adds	r1, #8
   27010:	3408      	adds	r4, #8
   27012:	e005      	b.n	27020 <__aeabi_memcpy4+0x46>
   27014:	688a      	ldr	r2, [r1, #8]
   27016:	60a2      	str	r2, [r4, #8]
   27018:	9a00      	ldr	r2, [sp, #0]
   2701a:	3a0c      	subs	r2, #12
   2701c:	310c      	adds	r1, #12
   2701e:	340c      	adds	r4, #12
   27020:	4620      	mov	r0, r4
   27022:	2b0c      	cmp	r3, #12
   27024:	d30c      	bcc.n	27040 <__aeabi_memcpy4+0x66>
   27026:	680b      	ldr	r3, [r1, #0]
   27028:	6003      	str	r3, [r0, #0]
   2702a:	684b      	ldr	r3, [r1, #4]
   2702c:	6043      	str	r3, [r0, #4]
   2702e:	688b      	ldr	r3, [r1, #8]
   27030:	6083      	str	r3, [r0, #8]
   27032:	68cb      	ldr	r3, [r1, #12]
   27034:	60c3      	str	r3, [r0, #12]
   27036:	3110      	adds	r1, #16
   27038:	3010      	adds	r0, #16
   2703a:	3a10      	subs	r2, #16
   2703c:	2a03      	cmp	r2, #3
   2703e:	d8f2      	bhi.n	27026 <__aeabi_memcpy4+0x4c>
   27040:	f000 f802 	bl	27048 <_ZN17compiler_builtins3mem6memcpy17h1f9dbb1c3fd18e2fE>
   27044:	b001      	add	sp, #4
   27046:	bdf0      	pop	{r4, r5, r6, r7, pc}

00027048 <_ZN17compiler_builtins3mem6memcpy17h1f9dbb1c3fd18e2fE>:
   27048:	b5f0      	push	{r4, r5, r6, r7, lr}
   2704a:	af03      	add	r7, sp, #12
   2704c:	b08f      	sub	sp, #60	@ 0x3c
   2704e:	2a10      	cmp	r2, #16
   27050:	d315      	bcc.n	2707e <_ZN17compiler_builtins3mem6memcpy17h1f9dbb1c3fd18e2fE+0x36>
   27052:	920b      	str	r2, [sp, #44]	@ 0x2c
   27054:	4242      	negs	r2, r0
   27056:	2303      	movs	r3, #3
   27058:	9308      	str	r3, [sp, #32]
   2705a:	401a      	ands	r2, r3
   2705c:	1885      	adds	r5, r0, r2
   2705e:	900a      	str	r0, [sp, #40]	@ 0x28
   27060:	42a8      	cmp	r0, r5
   27062:	d22a      	bcs.n	270ba <_ZN17compiler_builtins3mem6memcpy17h1f9dbb1c3fd18e2fE+0x72>
   27064:	1e54      	subs	r4, r2, #1
   27066:	2a00      	cmp	r2, #0
   27068:	980a      	ldr	r0, [sp, #40]	@ 0x28
   2706a:	4606      	mov	r6, r0
   2706c:	460b      	mov	r3, r1
   2706e:	d016      	beq.n	2709e <_ZN17compiler_builtins3mem6memcpy17h1f9dbb1c3fd18e2fE+0x56>
   27070:	780b      	ldrb	r3, [r1, #0]
   27072:	7003      	strb	r3, [r0, #0]
   27074:	2a01      	cmp	r2, #1
   27076:	d107      	bne.n	27088 <_ZN17compiler_builtins3mem6memcpy17h1f9dbb1c3fd18e2fE+0x40>
   27078:	1c4b      	adds	r3, r1, #1
   2707a:	1c46      	adds	r6, r0, #1
   2707c:	e00f      	b.n	2709e <_ZN17compiler_builtins3mem6memcpy17h1f9dbb1c3fd18e2fE+0x56>
   2707e:	4603      	mov	r3, r0
   27080:	189c      	adds	r4, r3, r2
   27082:	42a3      	cmp	r3, r4
   27084:	d341      	bcc.n	2710a <_ZN17compiler_builtins3mem6memcpy17h1f9dbb1c3fd18e2fE+0xc2>
   27086:	e062      	b.n	2714e <_ZN17compiler_builtins3mem6memcpy17h1f9dbb1c3fd18e2fE+0x106>
   27088:	784b      	ldrb	r3, [r1, #1]
   2708a:	7043      	strb	r3, [r0, #1]
   2708c:	2a02      	cmp	r2, #2
   2708e:	d102      	bne.n	27096 <_ZN17compiler_builtins3mem6memcpy17h1f9dbb1c3fd18e2fE+0x4e>
   27090:	1c8b      	adds	r3, r1, #2
   27092:	1c86      	adds	r6, r0, #2
   27094:	e003      	b.n	2709e <_ZN17compiler_builtins3mem6memcpy17h1f9dbb1c3fd18e2fE+0x56>
   27096:	788b      	ldrb	r3, [r1, #2]
   27098:	7083      	strb	r3, [r0, #2]
   2709a:	1ccb      	adds	r3, r1, #3
   2709c:	1cc6      	adds	r6, r0, #3
   2709e:	2c03      	cmp	r4, #3
   270a0:	d30b      	bcc.n	270ba <_ZN17compiler_builtins3mem6memcpy17h1f9dbb1c3fd18e2fE+0x72>
   270a2:	781c      	ldrb	r4, [r3, #0]
   270a4:	7034      	strb	r4, [r6, #0]
   270a6:	785c      	ldrb	r4, [r3, #1]
   270a8:	7074      	strb	r4, [r6, #1]
   270aa:	789c      	ldrb	r4, [r3, #2]
   270ac:	70b4      	strb	r4, [r6, #2]
   270ae:	78dc      	ldrb	r4, [r3, #3]
   270b0:	70f4      	strb	r4, [r6, #3]
   270b2:	1d1b      	adds	r3, r3, #4
   270b4:	1d36      	adds	r6, r6, #4
   270b6:	42ae      	cmp	r6, r5
   270b8:	d1f3      	bne.n	270a2 <_ZN17compiler_builtins3mem6memcpy17h1f9dbb1c3fd18e2fE+0x5a>
   270ba:	980b      	ldr	r0, [sp, #44]	@ 0x2c
   270bc:	1a80      	subs	r0, r0, r2
   270be:	900b      	str	r0, [sp, #44]	@ 0x2c
   270c0:	9c08      	ldr	r4, [sp, #32]
   270c2:	43a0      	bics	r0, r4
   270c4:	182b      	adds	r3, r5, r0
   270c6:	188e      	adds	r6, r1, r2
   270c8:	9609      	str	r6, [sp, #36]	@ 0x24
   270ca:	4026      	ands	r6, r4
   270cc:	9007      	str	r0, [sp, #28]
   270ce:	d147      	bne.n	27160 <_ZN17compiler_builtins3mem6memcpy17h1f9dbb1c3fd18e2fE+0x118>
   270d0:	429d      	cmp	r5, r3
   270d2:	9a0b      	ldr	r2, [sp, #44]	@ 0x2c
   270d4:	9e09      	ldr	r6, [sp, #36]	@ 0x24
   270d6:	d211      	bcs.n	270fc <_ZN17compiler_builtins3mem6memcpy17h1f9dbb1c3fd18e2fE+0xb4>
   270d8:	4631      	mov	r1, r6
   270da:	6808      	ldr	r0, [r1, #0]
   270dc:	c501      	stmia	r5!, {r0}
   270de:	429d      	cmp	r5, r3
   270e0:	d20c      	bcs.n	270fc <_ZN17compiler_builtins3mem6memcpy17h1f9dbb1c3fd18e2fE+0xb4>
   270e2:	6848      	ldr	r0, [r1, #4]
   270e4:	c501      	stmia	r5!, {r0}
   270e6:	429d      	cmp	r5, r3
   270e8:	d208      	bcs.n	270fc <_ZN17compiler_builtins3mem6memcpy17h1f9dbb1c3fd18e2fE+0xb4>
   270ea:	6888      	ldr	r0, [r1, #8]
   270ec:	c501      	stmia	r5!, {r0}
   270ee:	429d      	cmp	r5, r3
   270f0:	d204      	bcs.n	270fc <_ZN17compiler_builtins3mem6memcpy17h1f9dbb1c3fd18e2fE+0xb4>
   270f2:	68c8      	ldr	r0, [r1, #12]
   270f4:	c501      	stmia	r5!, {r0}
   270f6:	3110      	adds	r1, #16
   270f8:	429d      	cmp	r5, r3
   270fa:	d3ee      	bcc.n	270da <_ZN17compiler_builtins3mem6memcpy17h1f9dbb1c3fd18e2fE+0x92>
   270fc:	4022      	ands	r2, r4
   270fe:	9807      	ldr	r0, [sp, #28]
   27100:	1831      	adds	r1, r6, r0
   27102:	980a      	ldr	r0, [sp, #40]	@ 0x28
   27104:	189c      	adds	r4, r3, r2
   27106:	42a3      	cmp	r3, r4
   27108:	d221      	bcs.n	2714e <_ZN17compiler_builtins3mem6memcpy17h1f9dbb1c3fd18e2fE+0x106>
   2710a:	2503      	movs	r5, #3
   2710c:	4015      	ands	r5, r2
   2710e:	1e52      	subs	r2, r2, #1
   27110:	2d00      	cmp	r5, #0
   27112:	d00e      	beq.n	27132 <_ZN17compiler_builtins3mem6memcpy17h1f9dbb1c3fd18e2fE+0xea>
   27114:	780e      	ldrb	r6, [r1, #0]
   27116:	701e      	strb	r6, [r3, #0]
   27118:	2d01      	cmp	r5, #1
   2711a:	d104      	bne.n	27126 <_ZN17compiler_builtins3mem6memcpy17h1f9dbb1c3fd18e2fE+0xde>
   2711c:	1c49      	adds	r1, r1, #1
   2711e:	1c5b      	adds	r3, r3, #1
   27120:	2a03      	cmp	r2, #3
   27122:	d208      	bcs.n	27136 <_ZN17compiler_builtins3mem6memcpy17h1f9dbb1c3fd18e2fE+0xee>
   27124:	e013      	b.n	2714e <_ZN17compiler_builtins3mem6memcpy17h1f9dbb1c3fd18e2fE+0x106>
   27126:	784e      	ldrb	r6, [r1, #1]
   27128:	705e      	strb	r6, [r3, #1]
   2712a:	2d02      	cmp	r5, #2
   2712c:	d111      	bne.n	27152 <_ZN17compiler_builtins3mem6memcpy17h1f9dbb1c3fd18e2fE+0x10a>
   2712e:	1c89      	adds	r1, r1, #2
   27130:	1c9b      	adds	r3, r3, #2
   27132:	2a03      	cmp	r2, #3
   27134:	d30b      	bcc.n	2714e <_ZN17compiler_builtins3mem6memcpy17h1f9dbb1c3fd18e2fE+0x106>
   27136:	780a      	ldrb	r2, [r1, #0]
   27138:	701a      	strb	r2, [r3, #0]
   2713a:	784a      	ldrb	r2, [r1, #1]
   2713c:	705a      	strb	r2, [r3, #1]
   2713e:	788a      	ldrb	r2, [r1, #2]
   27140:	709a      	strb	r2, [r3, #2]
   27142:	78ca      	ldrb	r2, [r1, #3]
   27144:	70da      	strb	r2, [r3, #3]
   27146:	1d09      	adds	r1, r1, #4
   27148:	1d1b      	adds	r3, r3, #4
   2714a:	42a3      	cmp	r3, r4
   2714c:	d1f3      	bne.n	27136 <_ZN17compiler_builtins3mem6memcpy17h1f9dbb1c3fd18e2fE+0xee>
   2714e:	b00f      	add	sp, #60	@ 0x3c
   27150:	bdf0      	pop	{r4, r5, r6, r7, pc}
   27152:	788d      	ldrb	r5, [r1, #2]
   27154:	709d      	strb	r5, [r3, #2]
   27156:	1cc9      	adds	r1, r1, #3
   27158:	1cdb      	adds	r3, r3, #3
   2715a:	2a03      	cmp	r2, #3
   2715c:	d2eb      	bcs.n	27136 <_ZN17compiler_builtins3mem6memcpy17h1f9dbb1c3fd18e2fE+0xee>
   2715e:	e7f6      	b.n	2714e <_ZN17compiler_builtins3mem6memcpy17h1f9dbb1c3fd18e2fE+0x106>
   27160:	2400      	movs	r4, #0
   27162:	9406      	str	r4, [sp, #24]
   27164:	940e      	str	r4, [sp, #56]	@ 0x38
   27166:	ac0e      	add	r4, sp, #56	@ 0x38
   27168:	19a4      	adds	r4, r4, r6
   2716a:	9405      	str	r4, [sp, #20]
   2716c:	2404      	movs	r4, #4
   2716e:	1ba4      	subs	r4, r4, r6
   27170:	9404      	str	r4, [sp, #16]
   27172:	07e4      	lsls	r4, r4, #31
   27174:	9600      	str	r6, [sp, #0]
   27176:	d006      	beq.n	27186 <_ZN17compiler_builtins3mem6memcpy17h1f9dbb1c3fd18e2fE+0x13e>
   27178:	9c09      	ldr	r4, [sp, #36]	@ 0x24
   2717a:	7824      	ldrb	r4, [r4, #0]
   2717c:	9e05      	ldr	r6, [sp, #20]
   2717e:	7034      	strb	r4, [r6, #0]
   27180:	9e00      	ldr	r6, [sp, #0]
   27182:	2401      	movs	r4, #1
   27184:	9406      	str	r4, [sp, #24]
   27186:	9c04      	ldr	r4, [sp, #16]
   27188:	07a4      	lsls	r4, r4, #30
   2718a:	d508      	bpl.n	2719e <_ZN17compiler_builtins3mem6memcpy17h1f9dbb1c3fd18e2fE+0x156>
   2718c:	9c09      	ldr	r4, [sp, #36]	@ 0x24
   2718e:	9204      	str	r2, [sp, #16]
   27190:	9a06      	ldr	r2, [sp, #24]
   27192:	5aa4      	ldrh	r4, [r4, r2]
   27194:	9e05      	ldr	r6, [sp, #20]
   27196:	9a06      	ldr	r2, [sp, #24]
   27198:	52b4      	strh	r4, [r6, r2]
   2719a:	9a04      	ldr	r2, [sp, #16]
   2719c:	9e00      	ldr	r6, [sp, #0]
   2719e:	00f4      	lsls	r4, r6, #3
   271a0:	9403      	str	r4, [sp, #12]
   271a2:	9c0e      	ldr	r4, [sp, #56]	@ 0x38
   271a4:	9406      	str	r4, [sp, #24]
   271a6:	1d2c      	adds	r4, r5, #4
   271a8:	429c      	cmp	r4, r3
   271aa:	d236      	bcs.n	2721a <_ZN17compiler_builtins3mem6memcpy17h1f9dbb1c3fd18e2fE+0x1d2>
   271ac:	4274      	negs	r4, r6
   271ae:	1909      	adds	r1, r1, r4
   271b0:	9105      	str	r1, [sp, #20]
   271b2:	9d03      	ldr	r5, [sp, #12]
   271b4:	4269      	negs	r1, r5
   271b6:	2418      	movs	r4, #24
   271b8:	400c      	ands	r4, r1
   271ba:	9402      	str	r4, [sp, #8]
   271bc:	990a      	ldr	r1, [sp, #40]	@ 0x28
   271be:	9104      	str	r1, [sp, #16]
   271c0:	4629      	mov	r1, r5
   271c2:	9c06      	ldr	r4, [sp, #24]
   271c4:	40cc      	lsrs	r4, r1
   271c6:	9406      	str	r4, [sp, #24]
   271c8:	9905      	ldr	r1, [sp, #20]
   271ca:	1889      	adds	r1, r1, r2
   271cc:	9101      	str	r1, [sp, #4]
   271ce:	6849      	ldr	r1, [r1, #4]
   271d0:	460c      	mov	r4, r1
   271d2:	9d02      	ldr	r5, [sp, #8]
   271d4:	40ac      	lsls	r4, r5
   271d6:	9d06      	ldr	r5, [sp, #24]
   271d8:	432c      	orrs	r4, r5
   271da:	9d04      	ldr	r5, [sp, #16]
   271dc:	50ac      	str	r4, [r5, r2]
   271de:	18ad      	adds	r5, r5, r2
   271e0:	462c      	mov	r4, r5
   271e2:	3408      	adds	r4, #8
   271e4:	429c      	cmp	r4, r3
   271e6:	d21c      	bcs.n	27222 <_ZN17compiler_builtins3mem6memcpy17h1f9dbb1c3fd18e2fE+0x1da>
   271e8:	9c03      	ldr	r4, [sp, #12]
   271ea:	40e1      	lsrs	r1, r4
   271ec:	9c01      	ldr	r4, [sp, #4]
   271ee:	68a4      	ldr	r4, [r4, #8]
   271f0:	9406      	str	r4, [sp, #24]
   271f2:	9501      	str	r5, [sp, #4]
   271f4:	9d02      	ldr	r5, [sp, #8]
   271f6:	40ac      	lsls	r4, r5
   271f8:	430c      	orrs	r4, r1
   271fa:	9901      	ldr	r1, [sp, #4]
   271fc:	604c      	str	r4, [r1, #4]
   271fe:	9904      	ldr	r1, [sp, #16]
   27200:	3108      	adds	r1, #8
   27202:	9104      	str	r1, [sp, #16]
   27204:	188d      	adds	r5, r1, r2
   27206:	1d29      	adds	r1, r5, #4
   27208:	9c05      	ldr	r4, [sp, #20]
   2720a:	3408      	adds	r4, #8
   2720c:	9405      	str	r4, [sp, #20]
   2720e:	4299      	cmp	r1, r3
   27210:	9903      	ldr	r1, [sp, #12]
   27212:	d3d6      	bcc.n	271c2 <_ZN17compiler_builtins3mem6memcpy17h1f9dbb1c3fd18e2fE+0x17a>
   27214:	9805      	ldr	r0, [sp, #20]
   27216:	1880      	adds	r0, r0, r2
   27218:	e001      	b.n	2721e <_ZN17compiler_builtins3mem6memcpy17h1f9dbb1c3fd18e2fE+0x1d6>
   2721a:	9809      	ldr	r0, [sp, #36]	@ 0x24
   2721c:	1b80      	subs	r0, r0, r6
   2721e:	9005      	str	r0, [sp, #20]
   27220:	e004      	b.n	2722c <_ZN17compiler_builtins3mem6memcpy17h1f9dbb1c3fd18e2fE+0x1e4>
   27222:	9801      	ldr	r0, [sp, #4]
   27224:	1d00      	adds	r0, r0, #4
   27226:	9005      	str	r0, [sp, #20]
   27228:	1d2d      	adds	r5, r5, #4
   2722a:	9106      	str	r1, [sp, #24]
   2722c:	a80d      	add	r0, sp, #52	@ 0x34
   2722e:	2100      	movs	r1, #0
   27230:	9004      	str	r0, [sp, #16]
   27232:	7001      	strb	r1, [r0, #0]
   27234:	a80c      	add	r0, sp, #48	@ 0x30
   27236:	7001      	strb	r1, [r0, #0]
   27238:	2e01      	cmp	r6, #1
   2723a:	460e      	mov	r6, r1
   2723c:	460c      	mov	r4, r1
   2723e:	9102      	str	r1, [sp, #8]
   27240:	9a0b      	ldr	r2, [sp, #44]	@ 0x2c
   27242:	d009      	beq.n	27258 <_ZN17compiler_builtins3mem6memcpy17h1f9dbb1c3fd18e2fE+0x210>
   27244:	9c05      	ldr	r4, [sp, #20]
   27246:	7960      	ldrb	r0, [r4, #5]
   27248:	7926      	ldrb	r6, [r4, #4]
   2724a:	ac0d      	add	r4, sp, #52	@ 0x34
   2724c:	7026      	strb	r6, [r4, #0]
   2724e:	0204      	lsls	r4, r0, #8
   27250:	2002      	movs	r0, #2
   27252:	9002      	str	r0, [sp, #8]
   27254:	a80c      	add	r0, sp, #48	@ 0x30
   27256:	9004      	str	r0, [sp, #16]
   27258:	9809      	ldr	r0, [sp, #36]	@ 0x24
   2725a:	07c0      	lsls	r0, r0, #31
   2725c:	d00a      	beq.n	27274 <_ZN17compiler_builtins3mem6memcpy17h1f9dbb1c3fd18e2fE+0x22c>
   2725e:	9805      	ldr	r0, [sp, #20]
   27260:	1d00      	adds	r0, r0, #4
   27262:	9902      	ldr	r1, [sp, #8]
   27264:	5c40      	ldrb	r0, [r0, r1]
   27266:	9904      	ldr	r1, [sp, #16]
   27268:	7008      	strb	r0, [r1, #0]
   2726a:	a80d      	add	r0, sp, #52	@ 0x34
   2726c:	7806      	ldrb	r6, [r0, #0]
   2726e:	a80c      	add	r0, sp, #48	@ 0x30
   27270:	7800      	ldrb	r0, [r0, #0]
   27272:	0401      	lsls	r1, r0, #16
   27274:	9605      	str	r6, [sp, #20]
   27276:	9803      	ldr	r0, [sp, #12]
   27278:	4240      	negs	r0, r0
   2727a:	9004      	str	r0, [sp, #16]
   2727c:	2618      	movs	r6, #24
   2727e:	9804      	ldr	r0, [sp, #16]
   27280:	4006      	ands	r6, r0
   27282:	430c      	orrs	r4, r1
   27284:	9905      	ldr	r1, [sp, #20]
   27286:	430c      	orrs	r4, r1
   27288:	40b4      	lsls	r4, r6
   2728a:	9906      	ldr	r1, [sp, #24]
   2728c:	9803      	ldr	r0, [sp, #12]
   2728e:	40c1      	lsrs	r1, r0
   27290:	4321      	orrs	r1, r4
   27292:	6029      	str	r1, [r5, #0]
   27294:	9c08      	ldr	r4, [sp, #32]
   27296:	9e09      	ldr	r6, [sp, #36]	@ 0x24
   27298:	e730      	b.n	270fc <_ZN17compiler_builtins3mem6memcpy17h1f9dbb1c3fd18e2fE+0xb4>

0002729a <__aeabi_memcpy>:
   2729a:	b580      	push	{r7, lr}
   2729c:	af00      	add	r7, sp, #0
   2729e:	f7ff fed3 	bl	27048 <_ZN17compiler_builtins3mem6memcpy17h1f9dbb1c3fd18e2fE>
   272a2:	bd80      	pop	{r7, pc}
