
target/thumbv6m-none-eabi/opt-1/examples/complex_no_dynamic:     file format elf32-littlearm

Sections:
Idx Name          Size      VMA       LMA       File off  Algn
  0 .ARM.exidx    00000010  000100d4  000100d4  000000d4  2**2
                  CONTENTS, ALLOC, LOAD, READONLY, DATA
  1 .text         00007b80  000200e4  000200e4  000000e4  2**2
                  CONTENTS, ALLOC, LOAD, READONLY, CODE
  2 .comment      0000008b  00000000  00000000  00007c64  2**0
                  CONTENTS, READONLY
  3 .ARM.attributes 00000032  00000000  00000000  00007cef  2**0
                  CONTENTS, READONLY

Disassembly of section .text:

000200e4 <_ZN18complex_no_dynamic3app17h01633085643dbb39E>:
   200e4:	b5f0      	push	{r4, r5, r6, r7, lr}
   200e6:	af03      	add	r7, sp, #12
   200e8:	b097      	sub	sp, #92	@ 0x5c
   200ea:	4604      	mov	r4, r0
   200ec:	ad01      	add	r5, sp, #4
   200ee:	2612      	movs	r6, #18
   200f0:	4628      	mov	r0, r5
   200f2:	4632      	mov	r2, r6
   200f4:	f007 fdb1 	bl	27c5a <__aeabi_memcpy>
   200f8:	a806      	add	r0, sp, #24
   200fa:	2144      	movs	r1, #68	@ 0x44
   200fc:	f007 fc00 	bl	27900 <__aeabi_memclr4>
   20100:	4824      	ldr	r0, [pc, #144]	@ (20194 <_ZN18complex_no_dynamic3app17h01633085643dbb39E+0xb0>)
   20102:	2102      	movs	r1, #2
   20104:	462a      	mov	r2, r5
   20106:	4633      	mov	r3, r6
   20108:	df04      	svc	4
   2010a:	2802      	cmp	r0, #2
   2010c:	d00e      	beq.n	2012c <_ZN18complex_no_dynamic3app17h01633085643dbb39E+0x48>
   2010e:	4821      	ldr	r0, [pc, #132]	@ (20194 <_ZN18complex_no_dynamic3app17h01633085643dbb39E+0xb0>)
   20110:	2109      	movs	r1, #9
   20112:	aa06      	add	r2, sp, #24
   20114:	2344      	movs	r3, #68	@ 0x44
   20116:	df03      	svc	3
   20118:	2802      	cmp	r0, #2
   2011a:	d007      	beq.n	2012c <_ZN18complex_no_dynamic3app17h01633085643dbb39E+0x48>
   2011c:	481d      	ldr	r0, [pc, #116]	@ (20194 <_ZN18complex_no_dynamic3app17h01633085643dbb39E+0xb0>)
   2011e:	2102      	movs	r1, #2
   20120:	2209      	movs	r2, #9
   20122:	2500      	movs	r5, #0
   20124:	462b      	mov	r3, r5
   20126:	df02      	svc	2
   20128:	287f      	cmp	r0, #127	@ 0x7f
   2012a:	d813      	bhi.n	20154 <_ZN18complex_no_dynamic3app17h01633085643dbb39E+0x70>
   2012c:	2501      	movs	r5, #1
   2012e:	2d00      	cmp	r5, #0
   20130:	d017      	beq.n	20162 <_ZN18complex_no_dynamic3app17h01633085643dbb39E+0x7e>
   20132:	2001      	movs	r0, #1
   20134:	7020      	strb	r0, [r4, #0]
   20136:	6061      	str	r1, [r4, #4]
   20138:	4c16      	ldr	r4, [pc, #88]	@ (20194 <_ZN18complex_no_dynamic3app17h01633085643dbb39E+0xb0>)
   2013a:	2109      	movs	r1, #9
   2013c:	2500      	movs	r5, #0
   2013e:	4620      	mov	r0, r4
   20140:	462a      	mov	r2, r5
   20142:	462b      	mov	r3, r5
   20144:	df03      	svc	3
   20146:	2102      	movs	r1, #2
   20148:	4620      	mov	r0, r4
   2014a:	462a      	mov	r2, r5
   2014c:	462b      	mov	r3, r5
   2014e:	df04      	svc	4
   20150:	b017      	add	sp, #92	@ 0x5c
   20152:	bdf0      	pop	{r4, r5, r6, r7, pc}
   20154:	480f      	ldr	r0, [pc, #60]	@ (20194 <_ZN18complex_no_dynamic3app17h01633085643dbb39E+0xb0>)
   20156:	2109      	movs	r1, #9
   20158:	462a      	mov	r2, r5
   2015a:	462b      	mov	r3, r5
   2015c:	df03      	svc	3
   2015e:	2d00      	cmp	r5, #0
   20160:	d1e7      	bne.n	20132 <_ZN18complex_no_dynamic3app17h01633085643dbb39E+0x4e>
   20162:	480c      	ldr	r0, [pc, #48]	@ (20194 <_ZN18complex_no_dynamic3app17h01633085643dbb39E+0xb0>)
   20164:	2609      	movs	r6, #9
   20166:	2500      	movs	r5, #0
   20168:	4631      	mov	r1, r6
   2016a:	462a      	mov	r2, r5
   2016c:	462b      	mov	r3, r5
   2016e:	df03      	svc	3
   20170:	1c60      	adds	r0, r4, #1
   20172:	a906      	add	r1, sp, #24
   20174:	2244      	movs	r2, #68	@ 0x44
   20176:	f007 fd70 	bl	27c5a <__aeabi_memcpy>
   2017a:	7025      	strb	r5, [r4, #0]
   2017c:	4805      	ldr	r0, [pc, #20]	@ (20194 <_ZN18complex_no_dynamic3app17h01633085643dbb39E+0xb0>)
   2017e:	4631      	mov	r1, r6
   20180:	462a      	mov	r2, r5
   20182:	462b      	mov	r3, r5
   20184:	df03      	svc	3
   20186:	2102      	movs	r1, #2
   20188:	4802      	ldr	r0, [pc, #8]	@ (20194 <_ZN18complex_no_dynamic3app17h01633085643dbb39E+0xb0>)
   2018a:	462a      	mov	r2, r5
   2018c:	462b      	mov	r3, r5
   2018e:	df04      	svc	4
   20190:	b017      	add	sp, #92	@ 0x5c
   20192:	bdf0      	pop	{r4, r5, r6, r7, pc}
   20194:	00002432 	.word	0x00002432

00020198 <_ZN18complex_no_dynamic3app17h02c1a6d3d9ffb497E>:
   20198:	b5f0      	push	{r4, r5, r6, r7, lr}
   2019a:	af03      	add	r7, sp, #12
   2019c:	b097      	sub	sp, #92	@ 0x5c
   2019e:	4604      	mov	r4, r0
   201a0:	7b08      	ldrb	r0, [r1, #12]
   201a2:	7b4a      	ldrb	r2, [r1, #13]
   201a4:	0212      	lsls	r2, r2, #8
   201a6:	1810      	adds	r0, r2, r0
   201a8:	ad01      	add	r5, sp, #4
   201aa:	81a8      	strh	r0, [r5, #12]
   201ac:	7a08      	ldrb	r0, [r1, #8]
   201ae:	7a4a      	ldrb	r2, [r1, #9]
   201b0:	0212      	lsls	r2, r2, #8
   201b2:	1810      	adds	r0, r2, r0
   201b4:	7a8a      	ldrb	r2, [r1, #10]
   201b6:	0412      	lsls	r2, r2, #16
   201b8:	7acb      	ldrb	r3, [r1, #11]
   201ba:	061b      	lsls	r3, r3, #24
   201bc:	189a      	adds	r2, r3, r2
   201be:	1810      	adds	r0, r2, r0
   201c0:	9003      	str	r0, [sp, #12]
   201c2:	7908      	ldrb	r0, [r1, #4]
   201c4:	794a      	ldrb	r2, [r1, #5]
   201c6:	0212      	lsls	r2, r2, #8
   201c8:	1810      	adds	r0, r2, r0
   201ca:	798a      	ldrb	r2, [r1, #6]
   201cc:	0412      	lsls	r2, r2, #16
   201ce:	79cb      	ldrb	r3, [r1, #7]
   201d0:	061b      	lsls	r3, r3, #24
   201d2:	189a      	adds	r2, r3, r2
   201d4:	1810      	adds	r0, r2, r0
   201d6:	9002      	str	r0, [sp, #8]
   201d8:	7808      	ldrb	r0, [r1, #0]
   201da:	784a      	ldrb	r2, [r1, #1]
   201dc:	0212      	lsls	r2, r2, #8
   201de:	1810      	adds	r0, r2, r0
   201e0:	788a      	ldrb	r2, [r1, #2]
   201e2:	0412      	lsls	r2, r2, #16
   201e4:	78c9      	ldrb	r1, [r1, #3]
   201e6:	0609      	lsls	r1, r1, #24
   201e8:	1889      	adds	r1, r1, r2
   201ea:	1808      	adds	r0, r1, r0
   201ec:	9001      	str	r0, [sp, #4]
   201ee:	a805      	add	r0, sp, #20
   201f0:	2148      	movs	r1, #72	@ 0x48
   201f2:	f007 fb85 	bl	27900 <__aeabi_memclr4>
   201f6:	4825      	ldr	r0, [pc, #148]	@ (2028c <_ZN18complex_no_dynamic3app17h02c1a6d3d9ffb497E+0xf4>)
   201f8:	2103      	movs	r1, #3
   201fa:	230e      	movs	r3, #14
   201fc:	462a      	mov	r2, r5
   201fe:	df04      	svc	4
   20200:	2802      	cmp	r0, #2
   20202:	d00e      	beq.n	20222 <_ZN18complex_no_dynamic3app17h02c1a6d3d9ffb497E+0x8a>
   20204:	4821      	ldr	r0, [pc, #132]	@ (2028c <_ZN18complex_no_dynamic3app17h02c1a6d3d9ffb497E+0xf4>)
   20206:	2108      	movs	r1, #8
   20208:	aa05      	add	r2, sp, #20
   2020a:	2348      	movs	r3, #72	@ 0x48
   2020c:	df03      	svc	3
   2020e:	2802      	cmp	r0, #2
   20210:	d007      	beq.n	20222 <_ZN18complex_no_dynamic3app17h02c1a6d3d9ffb497E+0x8a>
   20212:	481e      	ldr	r0, [pc, #120]	@ (2028c <_ZN18complex_no_dynamic3app17h02c1a6d3d9ffb497E+0xf4>)
   20214:	2103      	movs	r1, #3
   20216:	2208      	movs	r2, #8
   20218:	2500      	movs	r5, #0
   2021a:	462b      	mov	r3, r5
   2021c:	df02      	svc	2
   2021e:	287f      	cmp	r0, #127	@ 0x7f
   20220:	d813      	bhi.n	2024a <_ZN18complex_no_dynamic3app17h02c1a6d3d9ffb497E+0xb2>
   20222:	2501      	movs	r5, #1
   20224:	2d00      	cmp	r5, #0
   20226:	d017      	beq.n	20258 <_ZN18complex_no_dynamic3app17h02c1a6d3d9ffb497E+0xc0>
   20228:	2001      	movs	r0, #1
   2022a:	7020      	strb	r0, [r4, #0]
   2022c:	6061      	str	r1, [r4, #4]
   2022e:	4c17      	ldr	r4, [pc, #92]	@ (2028c <_ZN18complex_no_dynamic3app17h02c1a6d3d9ffb497E+0xf4>)
   20230:	2108      	movs	r1, #8
   20232:	2500      	movs	r5, #0
   20234:	4620      	mov	r0, r4
   20236:	462a      	mov	r2, r5
   20238:	462b      	mov	r3, r5
   2023a:	df03      	svc	3
   2023c:	2103      	movs	r1, #3
   2023e:	4620      	mov	r0, r4
   20240:	462a      	mov	r2, r5
   20242:	462b      	mov	r3, r5
   20244:	df04      	svc	4
   20246:	b017      	add	sp, #92	@ 0x5c
   20248:	bdf0      	pop	{r4, r5, r6, r7, pc}
   2024a:	4810      	ldr	r0, [pc, #64]	@ (2028c <_ZN18complex_no_dynamic3app17h02c1a6d3d9ffb497E+0xf4>)
   2024c:	2108      	movs	r1, #8
   2024e:	462a      	mov	r2, r5
   20250:	462b      	mov	r3, r5
   20252:	df03      	svc	3
   20254:	2d00      	cmp	r5, #0
   20256:	d1e7      	bne.n	20228 <_ZN18complex_no_dynamic3app17h02c1a6d3d9ffb497E+0x90>
   20258:	480c      	ldr	r0, [pc, #48]	@ (2028c <_ZN18complex_no_dynamic3app17h02c1a6d3d9ffb497E+0xf4>)
   2025a:	2608      	movs	r6, #8
   2025c:	2500      	movs	r5, #0
   2025e:	4631      	mov	r1, r6
   20260:	462a      	mov	r2, r5
   20262:	462b      	mov	r3, r5
   20264:	df03      	svc	3
   20266:	1c60      	adds	r0, r4, #1
   20268:	a905      	add	r1, sp, #20
   2026a:	2248      	movs	r2, #72	@ 0x48
   2026c:	f007 fcf5 	bl	27c5a <__aeabi_memcpy>
   20270:	7025      	strb	r5, [r4, #0]
   20272:	4c06      	ldr	r4, [pc, #24]	@ (2028c <_ZN18complex_no_dynamic3app17h02c1a6d3d9ffb497E+0xf4>)
   20274:	4620      	mov	r0, r4
   20276:	4631      	mov	r1, r6
   20278:	462a      	mov	r2, r5
   2027a:	462b      	mov	r3, r5
   2027c:	df03      	svc	3
   2027e:	2103      	movs	r1, #3
   20280:	4620      	mov	r0, r4
   20282:	462a      	mov	r2, r5
   20284:	462b      	mov	r3, r5
   20286:	df04      	svc	4
   20288:	b017      	add	sp, #92	@ 0x5c
   2028a:	bdf0      	pop	{r4, r5, r6, r7, pc}
   2028c:	000012d1 	.word	0x000012d1

00020290 <_ZN18complex_no_dynamic3app17h02eea76d7c441b53E>:
   20290:	b5f0      	push	{r4, r5, r6, r7, lr}
   20292:	af03      	add	r7, sp, #12
   20294:	b0a9      	sub	sp, #164	@ 0xa4
   20296:	9001      	str	r0, [sp, #4]
   20298:	ae02      	add	r6, sp, #8
   2029a:	243a      	movs	r4, #58	@ 0x3a
   2029c:	4630      	mov	r0, r6
   2029e:	4622      	mov	r2, r4
   202a0:	f007 fcdb 	bl	27c5a <__aeabi_memcpy>
   202a4:	a811      	add	r0, sp, #68	@ 0x44
   202a6:	215d      	movs	r1, #93	@ 0x5d
   202a8:	f007 fb2a 	bl	27900 <__aeabi_memclr4>
   202ac:	4826      	ldr	r0, [pc, #152]	@ (20348 <_ZN18complex_no_dynamic3app17h02eea76d7c441b53E+0xb8>)
   202ae:	2500      	movs	r5, #0
   202b0:	4629      	mov	r1, r5
   202b2:	4632      	mov	r2, r6
   202b4:	4623      	mov	r3, r4
   202b6:	df04      	svc	4
   202b8:	2802      	cmp	r0, #2
   202ba:	d00e      	beq.n	202da <_ZN18complex_no_dynamic3app17h02eea76d7c441b53E+0x4a>
   202bc:	4822      	ldr	r0, [pc, #136]	@ (20348 <_ZN18complex_no_dynamic3app17h02eea76d7c441b53E+0xb8>)
   202be:	2105      	movs	r1, #5
   202c0:	aa11      	add	r2, sp, #68	@ 0x44
   202c2:	235d      	movs	r3, #93	@ 0x5d
   202c4:	df03      	svc	3
   202c6:	2802      	cmp	r0, #2
   202c8:	d007      	beq.n	202da <_ZN18complex_no_dynamic3app17h02eea76d7c441b53E+0x4a>
   202ca:	481f      	ldr	r0, [pc, #124]	@ (20348 <_ZN18complex_no_dynamic3app17h02eea76d7c441b53E+0xb8>)
   202cc:	2205      	movs	r2, #5
   202ce:	2600      	movs	r6, #0
   202d0:	4631      	mov	r1, r6
   202d2:	4633      	mov	r3, r6
   202d4:	df02      	svc	2
   202d6:	287f      	cmp	r0, #127	@ 0x7f
   202d8:	d814      	bhi.n	20304 <_ZN18complex_no_dynamic3app17h02eea76d7c441b53E+0x74>
   202da:	2601      	movs	r6, #1
   202dc:	2e00      	cmp	r6, #0
   202de:	d018      	beq.n	20312 <_ZN18complex_no_dynamic3app17h02eea76d7c441b53E+0x82>
   202e0:	2001      	movs	r0, #1
   202e2:	9a01      	ldr	r2, [sp, #4]
   202e4:	7010      	strb	r0, [r2, #0]
   202e6:	6051      	str	r1, [r2, #4]
   202e8:	4c17      	ldr	r4, [pc, #92]	@ (20348 <_ZN18complex_no_dynamic3app17h02eea76d7c441b53E+0xb8>)
   202ea:	2105      	movs	r1, #5
   202ec:	2500      	movs	r5, #0
   202ee:	4620      	mov	r0, r4
   202f0:	462a      	mov	r2, r5
   202f2:	462b      	mov	r3, r5
   202f4:	df03      	svc	3
   202f6:	4620      	mov	r0, r4
   202f8:	4629      	mov	r1, r5
   202fa:	462a      	mov	r2, r5
   202fc:	462b      	mov	r3, r5
   202fe:	df04      	svc	4
   20300:	b029      	add	sp, #164	@ 0xa4
   20302:	bdf0      	pop	{r4, r5, r6, r7, pc}
   20304:	4810      	ldr	r0, [pc, #64]	@ (20348 <_ZN18complex_no_dynamic3app17h02eea76d7c441b53E+0xb8>)
   20306:	2105      	movs	r1, #5
   20308:	4632      	mov	r2, r6
   2030a:	4633      	mov	r3, r6
   2030c:	df03      	svc	3
   2030e:	2e00      	cmp	r6, #0
   20310:	d1e6      	bne.n	202e0 <_ZN18complex_no_dynamic3app17h02eea76d7c441b53E+0x50>
   20312:	480d      	ldr	r0, [pc, #52]	@ (20348 <_ZN18complex_no_dynamic3app17h02eea76d7c441b53E+0xb8>)
   20314:	2405      	movs	r4, #5
   20316:	4621      	mov	r1, r4
   20318:	462a      	mov	r2, r5
   2031a:	462b      	mov	r3, r5
   2031c:	df03      	svc	3
   2031e:	9e01      	ldr	r6, [sp, #4]
   20320:	1c70      	adds	r0, r6, #1
   20322:	a911      	add	r1, sp, #68	@ 0x44
   20324:	225d      	movs	r2, #93	@ 0x5d
   20326:	f007 fc98 	bl	27c5a <__aeabi_memcpy>
   2032a:	7035      	strb	r5, [r6, #0]
   2032c:	4e06      	ldr	r6, [pc, #24]	@ (20348 <_ZN18complex_no_dynamic3app17h02eea76d7c441b53E+0xb8>)
   2032e:	4630      	mov	r0, r6
   20330:	4621      	mov	r1, r4
   20332:	462a      	mov	r2, r5
   20334:	462b      	mov	r3, r5
   20336:	df03      	svc	3
   20338:	4630      	mov	r0, r6
   2033a:	4629      	mov	r1, r5
   2033c:	462a      	mov	r2, r5
   2033e:	462b      	mov	r3, r5
   20340:	df04      	svc	4
   20342:	b029      	add	sp, #164	@ 0xa4
   20344:	bdf0      	pop	{r4, r5, r6, r7, pc}
   20346:	46c0      	nop			@ (mov r8, r8)
   20348:	000014a4 	.word	0x000014a4

0002034c <_ZN18complex_no_dynamic3app17h04812327b7998ca4E>:
   2034c:	b5f0      	push	{r4, r5, r6, r7, lr}
   2034e:	af03      	add	r7, sp, #12
   20350:	b091      	sub	sp, #68	@ 0x44
   20352:	4604      	mov	r4, r0
   20354:	466d      	mov	r5, sp
   20356:	261e      	movs	r6, #30
   20358:	4628      	mov	r0, r5
   2035a:	4632      	mov	r2, r6
   2035c:	f007 fc7d 	bl	27c5a <__aeabi_memcpy>
   20360:	a808      	add	r0, sp, #32
   20362:	2121      	movs	r1, #33	@ 0x21
   20364:	f007 facc 	bl	27900 <__aeabi_memclr4>
   20368:	4824      	ldr	r0, [pc, #144]	@ (203fc <_ZN18complex_no_dynamic3app17h04812327b7998ca4E+0xb0>)
   2036a:	2106      	movs	r1, #6
   2036c:	462a      	mov	r2, r5
   2036e:	4633      	mov	r3, r6
   20370:	df04      	svc	4
   20372:	2802      	cmp	r0, #2
   20374:	d00e      	beq.n	20394 <_ZN18complex_no_dynamic3app17h04812327b7998ca4E+0x48>
   20376:	4821      	ldr	r0, [pc, #132]	@ (203fc <_ZN18complex_no_dynamic3app17h04812327b7998ca4E+0xb0>)
   20378:	2109      	movs	r1, #9
   2037a:	aa08      	add	r2, sp, #32
   2037c:	2321      	movs	r3, #33	@ 0x21
   2037e:	df03      	svc	3
   20380:	2802      	cmp	r0, #2
   20382:	d007      	beq.n	20394 <_ZN18complex_no_dynamic3app17h04812327b7998ca4E+0x48>
   20384:	481d      	ldr	r0, [pc, #116]	@ (203fc <_ZN18complex_no_dynamic3app17h04812327b7998ca4E+0xb0>)
   20386:	2106      	movs	r1, #6
   20388:	2209      	movs	r2, #9
   2038a:	2500      	movs	r5, #0
   2038c:	462b      	mov	r3, r5
   2038e:	df02      	svc	2
   20390:	287f      	cmp	r0, #127	@ 0x7f
   20392:	d813      	bhi.n	203bc <_ZN18complex_no_dynamic3app17h04812327b7998ca4E+0x70>
   20394:	2501      	movs	r5, #1
   20396:	2d00      	cmp	r5, #0
   20398:	d017      	beq.n	203ca <_ZN18complex_no_dynamic3app17h04812327b7998ca4E+0x7e>
   2039a:	2001      	movs	r0, #1
   2039c:	7020      	strb	r0, [r4, #0]
   2039e:	6061      	str	r1, [r4, #4]
   203a0:	4c16      	ldr	r4, [pc, #88]	@ (203fc <_ZN18complex_no_dynamic3app17h04812327b7998ca4E+0xb0>)
   203a2:	2109      	movs	r1, #9
   203a4:	2500      	movs	r5, #0
   203a6:	4620      	mov	r0, r4
   203a8:	462a      	mov	r2, r5
   203aa:	462b      	mov	r3, r5
   203ac:	df03      	svc	3
   203ae:	2106      	movs	r1, #6
   203b0:	4620      	mov	r0, r4
   203b2:	462a      	mov	r2, r5
   203b4:	462b      	mov	r3, r5
   203b6:	df04      	svc	4
   203b8:	b011      	add	sp, #68	@ 0x44
   203ba:	bdf0      	pop	{r4, r5, r6, r7, pc}
   203bc:	480f      	ldr	r0, [pc, #60]	@ (203fc <_ZN18complex_no_dynamic3app17h04812327b7998ca4E+0xb0>)
   203be:	2109      	movs	r1, #9
   203c0:	462a      	mov	r2, r5
   203c2:	462b      	mov	r3, r5
   203c4:	df03      	svc	3
   203c6:	2d00      	cmp	r5, #0
   203c8:	d1e7      	bne.n	2039a <_ZN18complex_no_dynamic3app17h04812327b7998ca4E+0x4e>
   203ca:	480c      	ldr	r0, [pc, #48]	@ (203fc <_ZN18complex_no_dynamic3app17h04812327b7998ca4E+0xb0>)
   203cc:	2609      	movs	r6, #9
   203ce:	2500      	movs	r5, #0
   203d0:	4631      	mov	r1, r6
   203d2:	462a      	mov	r2, r5
   203d4:	462b      	mov	r3, r5
   203d6:	df03      	svc	3
   203d8:	1c60      	adds	r0, r4, #1
   203da:	a908      	add	r1, sp, #32
   203dc:	2221      	movs	r2, #33	@ 0x21
   203de:	f007 fc3c 	bl	27c5a <__aeabi_memcpy>
   203e2:	7025      	strb	r5, [r4, #0]
   203e4:	4805      	ldr	r0, [pc, #20]	@ (203fc <_ZN18complex_no_dynamic3app17h04812327b7998ca4E+0xb0>)
   203e6:	4631      	mov	r1, r6
   203e8:	462a      	mov	r2, r5
   203ea:	462b      	mov	r3, r5
   203ec:	df03      	svc	3
   203ee:	2106      	movs	r1, #6
   203f0:	4802      	ldr	r0, [pc, #8]	@ (203fc <_ZN18complex_no_dynamic3app17h04812327b7998ca4E+0xb0>)
   203f2:	462a      	mov	r2, r5
   203f4:	462b      	mov	r3, r5
   203f6:	df04      	svc	4
   203f8:	b011      	add	sp, #68	@ 0x44
   203fa:	bdf0      	pop	{r4, r5, r6, r7, pc}
   203fc:	000019b5 	.word	0x000019b5

00020400 <_ZN18complex_no_dynamic3app17h05251b2f475f1da6E>:
   20400:	b5f0      	push	{r4, r5, r6, r7, lr}
   20402:	af03      	add	r7, sp, #12
   20404:	b093      	sub	sp, #76	@ 0x4c
   20406:	9000      	str	r0, [sp, #0]
   20408:	ae01      	add	r6, sp, #4
   2040a:	2436      	movs	r4, #54	@ 0x36
   2040c:	4630      	mov	r0, r6
   2040e:	4622      	mov	r2, r4
   20410:	f007 fc23 	bl	27c5a <__aeabi_memcpy>
   20414:	a80f      	add	r0, sp, #60	@ 0x3c
   20416:	2500      	movs	r5, #0
   20418:	7385      	strb	r5, [r0, #14]
   2041a:	8185      	strh	r5, [r0, #12]
   2041c:	9511      	str	r5, [sp, #68]	@ 0x44
   2041e:	9510      	str	r5, [sp, #64]	@ 0x40
   20420:	950f      	str	r5, [sp, #60]	@ 0x3c
   20422:	4826      	ldr	r0, [pc, #152]	@ (204bc <_ZN18complex_no_dynamic3app17h05251b2f475f1da6E+0xbc>)
   20424:	2105      	movs	r1, #5
   20426:	4632      	mov	r2, r6
   20428:	4623      	mov	r3, r4
   2042a:	df04      	svc	4
   2042c:	2802      	cmp	r0, #2
   2042e:	d00e      	beq.n	2044e <_ZN18complex_no_dynamic3app17h05251b2f475f1da6E+0x4e>
   20430:	4822      	ldr	r0, [pc, #136]	@ (204bc <_ZN18complex_no_dynamic3app17h05251b2f475f1da6E+0xbc>)
   20432:	2103      	movs	r1, #3
   20434:	aa0f      	add	r2, sp, #60	@ 0x3c
   20436:	230f      	movs	r3, #15
   20438:	df03      	svc	3
   2043a:	2802      	cmp	r0, #2
   2043c:	d007      	beq.n	2044e <_ZN18complex_no_dynamic3app17h05251b2f475f1da6E+0x4e>
   2043e:	481f      	ldr	r0, [pc, #124]	@ (204bc <_ZN18complex_no_dynamic3app17h05251b2f475f1da6E+0xbc>)
   20440:	2105      	movs	r1, #5
   20442:	2203      	movs	r2, #3
   20444:	2600      	movs	r6, #0
   20446:	4633      	mov	r3, r6
   20448:	df02      	svc	2
   2044a:	287f      	cmp	r0, #127	@ 0x7f
   2044c:	d814      	bhi.n	20478 <_ZN18complex_no_dynamic3app17h05251b2f475f1da6E+0x78>
   2044e:	2601      	movs	r6, #1
   20450:	2e00      	cmp	r6, #0
   20452:	d018      	beq.n	20486 <_ZN18complex_no_dynamic3app17h05251b2f475f1da6E+0x86>
   20454:	2001      	movs	r0, #1
   20456:	9a00      	ldr	r2, [sp, #0]
   20458:	7010      	strb	r0, [r2, #0]
   2045a:	6051      	str	r1, [r2, #4]
   2045c:	4c17      	ldr	r4, [pc, #92]	@ (204bc <_ZN18complex_no_dynamic3app17h05251b2f475f1da6E+0xbc>)
   2045e:	2103      	movs	r1, #3
   20460:	2500      	movs	r5, #0
   20462:	4620      	mov	r0, r4
   20464:	462a      	mov	r2, r5
   20466:	462b      	mov	r3, r5
   20468:	df03      	svc	3
   2046a:	2105      	movs	r1, #5
   2046c:	4620      	mov	r0, r4
   2046e:	462a      	mov	r2, r5
   20470:	462b      	mov	r3, r5
   20472:	df04      	svc	4
   20474:	b013      	add	sp, #76	@ 0x4c
   20476:	bdf0      	pop	{r4, r5, r6, r7, pc}
   20478:	4810      	ldr	r0, [pc, #64]	@ (204bc <_ZN18complex_no_dynamic3app17h05251b2f475f1da6E+0xbc>)
   2047a:	2103      	movs	r1, #3
   2047c:	4632      	mov	r2, r6
   2047e:	4633      	mov	r3, r6
   20480:	df03      	svc	3
   20482:	2e00      	cmp	r6, #0
   20484:	d1e6      	bne.n	20454 <_ZN18complex_no_dynamic3app17h05251b2f475f1da6E+0x54>
   20486:	480d      	ldr	r0, [pc, #52]	@ (204bc <_ZN18complex_no_dynamic3app17h05251b2f475f1da6E+0xbc>)
   20488:	2403      	movs	r4, #3
   2048a:	4621      	mov	r1, r4
   2048c:	462a      	mov	r2, r5
   2048e:	462b      	mov	r3, r5
   20490:	df03      	svc	3
   20492:	9e00      	ldr	r6, [sp, #0]
   20494:	1c70      	adds	r0, r6, #1
   20496:	a90f      	add	r1, sp, #60	@ 0x3c
   20498:	220f      	movs	r2, #15
   2049a:	f007 fbde 	bl	27c5a <__aeabi_memcpy>
   2049e:	7035      	strb	r5, [r6, #0]
   204a0:	4e06      	ldr	r6, [pc, #24]	@ (204bc <_ZN18complex_no_dynamic3app17h05251b2f475f1da6E+0xbc>)
   204a2:	4630      	mov	r0, r6
   204a4:	4621      	mov	r1, r4
   204a6:	462a      	mov	r2, r5
   204a8:	462b      	mov	r3, r5
   204aa:	df03      	svc	3
   204ac:	2105      	movs	r1, #5
   204ae:	4630      	mov	r0, r6
   204b0:	462a      	mov	r2, r5
   204b2:	462b      	mov	r3, r5
   204b4:	df04      	svc	4
   204b6:	b013      	add	sp, #76	@ 0x4c
   204b8:	bdf0      	pop	{r4, r5, r6, r7, pc}
   204ba:	46c0      	nop			@ (mov r8, r8)
   204bc:	00000653 	.word	0x00000653

000204c0 <_ZN18complex_no_dynamic3app17h067ca3ef353f9b5aE>:
   204c0:	b5f0      	push	{r4, r5, r6, r7, lr}
   204c2:	af03      	add	r7, sp, #12
   204c4:	b09f      	sub	sp, #124	@ 0x7c
   204c6:	4604      	mov	r4, r0
   204c8:	ad01      	add	r5, sp, #4
   204ca:	2621      	movs	r6, #33	@ 0x21
   204cc:	4628      	mov	r0, r5
   204ce:	4632      	mov	r2, r6
   204d0:	f007 fbc3 	bl	27c5a <__aeabi_memcpy>
   204d4:	a80a      	add	r0, sp, #40	@ 0x28
   204d6:	2153      	movs	r1, #83	@ 0x53
   204d8:	f007 fa12 	bl	27900 <__aeabi_memclr4>
   204dc:	4824      	ldr	r0, [pc, #144]	@ (20570 <_ZN18complex_no_dynamic3app17h067ca3ef353f9b5aE+0xb0>)
   204de:	2102      	movs	r1, #2
   204e0:	462a      	mov	r2, r5
   204e2:	4633      	mov	r3, r6
   204e4:	df04      	svc	4
   204e6:	2802      	cmp	r0, #2
   204e8:	d00e      	beq.n	20508 <_ZN18complex_no_dynamic3app17h067ca3ef353f9b5aE+0x48>
   204ea:	4821      	ldr	r0, [pc, #132]	@ (20570 <_ZN18complex_no_dynamic3app17h067ca3ef353f9b5aE+0xb0>)
   204ec:	2108      	movs	r1, #8
   204ee:	aa0a      	add	r2, sp, #40	@ 0x28
   204f0:	2353      	movs	r3, #83	@ 0x53
   204f2:	df03      	svc	3
   204f4:	2802      	cmp	r0, #2
   204f6:	d007      	beq.n	20508 <_ZN18complex_no_dynamic3app17h067ca3ef353f9b5aE+0x48>
   204f8:	481d      	ldr	r0, [pc, #116]	@ (20570 <_ZN18complex_no_dynamic3app17h067ca3ef353f9b5aE+0xb0>)
   204fa:	2102      	movs	r1, #2
   204fc:	2208      	movs	r2, #8
   204fe:	2500      	movs	r5, #0
   20500:	462b      	mov	r3, r5
   20502:	df02      	svc	2
   20504:	287f      	cmp	r0, #127	@ 0x7f
   20506:	d813      	bhi.n	20530 <_ZN18complex_no_dynamic3app17h067ca3ef353f9b5aE+0x70>
   20508:	2501      	movs	r5, #1
   2050a:	2d00      	cmp	r5, #0
   2050c:	d017      	beq.n	2053e <_ZN18complex_no_dynamic3app17h067ca3ef353f9b5aE+0x7e>
   2050e:	2001      	movs	r0, #1
   20510:	7020      	strb	r0, [r4, #0]
   20512:	6061      	str	r1, [r4, #4]
   20514:	4c16      	ldr	r4, [pc, #88]	@ (20570 <_ZN18complex_no_dynamic3app17h067ca3ef353f9b5aE+0xb0>)
   20516:	2108      	movs	r1, #8
   20518:	2500      	movs	r5, #0
   2051a:	4620      	mov	r0, r4
   2051c:	462a      	mov	r2, r5
   2051e:	462b      	mov	r3, r5
   20520:	df03      	svc	3
   20522:	2102      	movs	r1, #2
   20524:	4620      	mov	r0, r4
   20526:	462a      	mov	r2, r5
   20528:	462b      	mov	r3, r5
   2052a:	df04      	svc	4
   2052c:	b01f      	add	sp, #124	@ 0x7c
   2052e:	bdf0      	pop	{r4, r5, r6, r7, pc}
   20530:	480f      	ldr	r0, [pc, #60]	@ (20570 <_ZN18complex_no_dynamic3app17h067ca3ef353f9b5aE+0xb0>)
   20532:	2108      	movs	r1, #8
   20534:	462a      	mov	r2, r5
   20536:	462b      	mov	r3, r5
   20538:	df03      	svc	3
   2053a:	2d00      	cmp	r5, #0
   2053c:	d1e7      	bne.n	2050e <_ZN18complex_no_dynamic3app17h067ca3ef353f9b5aE+0x4e>
   2053e:	480c      	ldr	r0, [pc, #48]	@ (20570 <_ZN18complex_no_dynamic3app17h067ca3ef353f9b5aE+0xb0>)
   20540:	2608      	movs	r6, #8
   20542:	2500      	movs	r5, #0
   20544:	4631      	mov	r1, r6
   20546:	462a      	mov	r2, r5
   20548:	462b      	mov	r3, r5
   2054a:	df03      	svc	3
   2054c:	1c60      	adds	r0, r4, #1
   2054e:	a90a      	add	r1, sp, #40	@ 0x28
   20550:	2253      	movs	r2, #83	@ 0x53
   20552:	f007 fb82 	bl	27c5a <__aeabi_memcpy>
   20556:	7025      	strb	r5, [r4, #0]
   20558:	4805      	ldr	r0, [pc, #20]	@ (20570 <_ZN18complex_no_dynamic3app17h067ca3ef353f9b5aE+0xb0>)
   2055a:	4631      	mov	r1, r6
   2055c:	462a      	mov	r2, r5
   2055e:	462b      	mov	r3, r5
   20560:	df03      	svc	3
   20562:	2102      	movs	r1, #2
   20564:	4802      	ldr	r0, [pc, #8]	@ (20570 <_ZN18complex_no_dynamic3app17h067ca3ef353f9b5aE+0xb0>)
   20566:	462a      	mov	r2, r5
   20568:	462b      	mov	r3, r5
   2056a:	df04      	svc	4
   2056c:	b01f      	add	sp, #124	@ 0x7c
   2056e:	bdf0      	pop	{r4, r5, r6, r7, pc}
   20570:	0000253e 	.word	0x0000253e

00020574 <_ZN18complex_no_dynamic3app17h0b7f46b3db04095fE>:
   20574:	b5f0      	push	{r4, r5, r6, r7, lr}
   20576:	af03      	add	r7, sp, #12
   20578:	b095      	sub	sp, #84	@ 0x54
   2057a:	4604      	mov	r4, r0
   2057c:	466d      	mov	r5, sp
   2057e:	262c      	movs	r6, #44	@ 0x2c
   20580:	4628      	mov	r0, r5
   20582:	4632      	mov	r2, r6
   20584:	f007 fb69 	bl	27c5a <__aeabi_memcpy>
   20588:	a80b      	add	r0, sp, #44	@ 0x2c
   2058a:	2127      	movs	r1, #39	@ 0x27
   2058c:	f007 f9b8 	bl	27900 <__aeabi_memclr4>
   20590:	4824      	ldr	r0, [pc, #144]	@ (20624 <_ZN18complex_no_dynamic3app17h0b7f46b3db04095fE+0xb0>)
   20592:	2104      	movs	r1, #4
   20594:	462a      	mov	r2, r5
   20596:	4633      	mov	r3, r6
   20598:	df04      	svc	4
   2059a:	2802      	cmp	r0, #2
   2059c:	d00e      	beq.n	205bc <_ZN18complex_no_dynamic3app17h0b7f46b3db04095fE+0x48>
   2059e:	4821      	ldr	r0, [pc, #132]	@ (20624 <_ZN18complex_no_dynamic3app17h0b7f46b3db04095fE+0xb0>)
   205a0:	2103      	movs	r1, #3
   205a2:	aa0b      	add	r2, sp, #44	@ 0x2c
   205a4:	2327      	movs	r3, #39	@ 0x27
   205a6:	df03      	svc	3
   205a8:	2802      	cmp	r0, #2
   205aa:	d007      	beq.n	205bc <_ZN18complex_no_dynamic3app17h0b7f46b3db04095fE+0x48>
   205ac:	481d      	ldr	r0, [pc, #116]	@ (20624 <_ZN18complex_no_dynamic3app17h0b7f46b3db04095fE+0xb0>)
   205ae:	2104      	movs	r1, #4
   205b0:	2203      	movs	r2, #3
   205b2:	2500      	movs	r5, #0
   205b4:	462b      	mov	r3, r5
   205b6:	df02      	svc	2
   205b8:	287f      	cmp	r0, #127	@ 0x7f
   205ba:	d813      	bhi.n	205e4 <_ZN18complex_no_dynamic3app17h0b7f46b3db04095fE+0x70>
   205bc:	2501      	movs	r5, #1
   205be:	2d00      	cmp	r5, #0
   205c0:	d017      	beq.n	205f2 <_ZN18complex_no_dynamic3app17h0b7f46b3db04095fE+0x7e>
   205c2:	2001      	movs	r0, #1
   205c4:	7020      	strb	r0, [r4, #0]
   205c6:	6061      	str	r1, [r4, #4]
   205c8:	4c16      	ldr	r4, [pc, #88]	@ (20624 <_ZN18complex_no_dynamic3app17h0b7f46b3db04095fE+0xb0>)
   205ca:	2103      	movs	r1, #3
   205cc:	2500      	movs	r5, #0
   205ce:	4620      	mov	r0, r4
   205d0:	462a      	mov	r2, r5
   205d2:	462b      	mov	r3, r5
   205d4:	df03      	svc	3
   205d6:	2104      	movs	r1, #4
   205d8:	4620      	mov	r0, r4
   205da:	462a      	mov	r2, r5
   205dc:	462b      	mov	r3, r5
   205de:	df04      	svc	4
   205e0:	b015      	add	sp, #84	@ 0x54
   205e2:	bdf0      	pop	{r4, r5, r6, r7, pc}
   205e4:	480f      	ldr	r0, [pc, #60]	@ (20624 <_ZN18complex_no_dynamic3app17h0b7f46b3db04095fE+0xb0>)
   205e6:	2103      	movs	r1, #3
   205e8:	462a      	mov	r2, r5
   205ea:	462b      	mov	r3, r5
   205ec:	df03      	svc	3
   205ee:	2d00      	cmp	r5, #0
   205f0:	d1e7      	bne.n	205c2 <_ZN18complex_no_dynamic3app17h0b7f46b3db04095fE+0x4e>
   205f2:	480c      	ldr	r0, [pc, #48]	@ (20624 <_ZN18complex_no_dynamic3app17h0b7f46b3db04095fE+0xb0>)
   205f4:	2603      	movs	r6, #3
   205f6:	2500      	movs	r5, #0
   205f8:	4631      	mov	r1, r6
   205fa:	462a      	mov	r2, r5
   205fc:	462b      	mov	r3, r5
   205fe:	df03      	svc	3
   20600:	1c60      	adds	r0, r4, #1
   20602:	a90b      	add	r1, sp, #44	@ 0x2c
   20604:	2227      	movs	r2, #39	@ 0x27
   20606:	f007 fb28 	bl	27c5a <__aeabi_memcpy>
   2060a:	7025      	strb	r5, [r4, #0]
   2060c:	4805      	ldr	r0, [pc, #20]	@ (20624 <_ZN18complex_no_dynamic3app17h0b7f46b3db04095fE+0xb0>)
   2060e:	4631      	mov	r1, r6
   20610:	462a      	mov	r2, r5
   20612:	462b      	mov	r3, r5
   20614:	df03      	svc	3
   20616:	2104      	movs	r1, #4
   20618:	4802      	ldr	r0, [pc, #8]	@ (20624 <_ZN18complex_no_dynamic3app17h0b7f46b3db04095fE+0xb0>)
   2061a:	462a      	mov	r2, r5
   2061c:	462b      	mov	r3, r5
   2061e:	df04      	svc	4
   20620:	b015      	add	sp, #84	@ 0x54
   20622:	bdf0      	pop	{r4, r5, r6, r7, pc}
   20624:	000011b5 	.word	0x000011b5

00020628 <_ZN18complex_no_dynamic3app17h0da62295f0567387E>:
   20628:	b5f0      	push	{r4, r5, r6, r7, lr}
   2062a:	af03      	add	r7, sp, #12
   2062c:	b0a3      	sub	sp, #140	@ 0x8c
   2062e:	9001      	str	r0, [sp, #4]
   20630:	ac02      	add	r4, sp, #8
   20632:	2261      	movs	r2, #97	@ 0x61
   20634:	9200      	str	r2, [sp, #0]
   20636:	4620      	mov	r0, r4
   20638:	f007 fb0f 	bl	27c5a <__aeabi_memcpy>
   2063c:	a81b      	add	r0, sp, #108	@ 0x6c
   2063e:	2500      	movs	r5, #0
   20640:	8385      	strh	r5, [r0, #28]
   20642:	9521      	str	r5, [sp, #132]	@ 0x84
   20644:	9520      	str	r5, [sp, #128]	@ 0x80
   20646:	951f      	str	r5, [sp, #124]	@ 0x7c
   20648:	951e      	str	r5, [sp, #120]	@ 0x78
   2064a:	951d      	str	r5, [sp, #116]	@ 0x74
   2064c:	951c      	str	r5, [sp, #112]	@ 0x70
   2064e:	951b      	str	r5, [sp, #108]	@ 0x6c
   20650:	2031      	movs	r0, #49	@ 0x31
   20652:	00c6      	lsls	r6, r0, #3
   20654:	2104      	movs	r1, #4
   20656:	4630      	mov	r0, r6
   20658:	4622      	mov	r2, r4
   2065a:	9b00      	ldr	r3, [sp, #0]
   2065c:	df04      	svc	4
   2065e:	2802      	cmp	r0, #2
   20660:	d00e      	beq.n	20680 <_ZN18complex_no_dynamic3app17h0da62295f0567387E+0x58>
   20662:	2106      	movs	r1, #6
   20664:	aa1b      	add	r2, sp, #108	@ 0x6c
   20666:	231e      	movs	r3, #30
   20668:	4630      	mov	r0, r6
   2066a:	df03      	svc	3
   2066c:	2802      	cmp	r0, #2
   2066e:	d007      	beq.n	20680 <_ZN18complex_no_dynamic3app17h0da62295f0567387E+0x58>
   20670:	2104      	movs	r1, #4
   20672:	2206      	movs	r2, #6
   20674:	2400      	movs	r4, #0
   20676:	4630      	mov	r0, r6
   20678:	4623      	mov	r3, r4
   2067a:	df02      	svc	2
   2067c:	287f      	cmp	r0, #127	@ 0x7f
   2067e:	d813      	bhi.n	206a8 <_ZN18complex_no_dynamic3app17h0da62295f0567387E+0x80>
   20680:	2401      	movs	r4, #1
   20682:	2c00      	cmp	r4, #0
   20684:	d017      	beq.n	206b6 <_ZN18complex_no_dynamic3app17h0da62295f0567387E+0x8e>
   20686:	2001      	movs	r0, #1
   20688:	9a01      	ldr	r2, [sp, #4]
   2068a:	7010      	strb	r0, [r2, #0]
   2068c:	6051      	str	r1, [r2, #4]
   2068e:	2106      	movs	r1, #6
   20690:	2400      	movs	r4, #0
   20692:	4630      	mov	r0, r6
   20694:	4622      	mov	r2, r4
   20696:	4623      	mov	r3, r4
   20698:	df03      	svc	3
   2069a:	2104      	movs	r1, #4
   2069c:	4630      	mov	r0, r6
   2069e:	4622      	mov	r2, r4
   206a0:	4623      	mov	r3, r4
   206a2:	df04      	svc	4
   206a4:	b023      	add	sp, #140	@ 0x8c
   206a6:	bdf0      	pop	{r4, r5, r6, r7, pc}
   206a8:	2106      	movs	r1, #6
   206aa:	4630      	mov	r0, r6
   206ac:	4622      	mov	r2, r4
   206ae:	4623      	mov	r3, r4
   206b0:	df03      	svc	3
   206b2:	2c00      	cmp	r4, #0
   206b4:	d1e7      	bne.n	20686 <_ZN18complex_no_dynamic3app17h0da62295f0567387E+0x5e>
   206b6:	2106      	movs	r1, #6
   206b8:	9100      	str	r1, [sp, #0]
   206ba:	4630      	mov	r0, r6
   206bc:	462a      	mov	r2, r5
   206be:	462b      	mov	r3, r5
   206c0:	df03      	svc	3
   206c2:	4634      	mov	r4, r6
   206c4:	9e01      	ldr	r6, [sp, #4]
   206c6:	1c70      	adds	r0, r6, #1
   206c8:	a91b      	add	r1, sp, #108	@ 0x6c
   206ca:	221e      	movs	r2, #30
   206cc:	f007 fac5 	bl	27c5a <__aeabi_memcpy>
   206d0:	7035      	strb	r5, [r6, #0]
   206d2:	4620      	mov	r0, r4
   206d4:	9900      	ldr	r1, [sp, #0]
   206d6:	462a      	mov	r2, r5
   206d8:	462b      	mov	r3, r5
   206da:	df03      	svc	3
   206dc:	2104      	movs	r1, #4
   206de:	4620      	mov	r0, r4
   206e0:	462a      	mov	r2, r5
   206e2:	462b      	mov	r3, r5
   206e4:	df04      	svc	4
   206e6:	b023      	add	sp, #140	@ 0x8c
   206e8:	bdf0      	pop	{r4, r5, r6, r7, pc}
   206ea:	d4d4      	bmi.n	20696 <_ZN18complex_no_dynamic3app17h0da62295f0567387E+0x6e>

000206ec <_ZN18complex_no_dynamic3app17h0e7f9efab89c707bE>:
   206ec:	b5f0      	push	{r4, r5, r6, r7, lr}
   206ee:	af03      	add	r7, sp, #12
   206f0:	b0a9      	sub	sp, #164	@ 0xa4
   206f2:	4604      	mov	r4, r0
   206f4:	466d      	mov	r5, sp
   206f6:	2656      	movs	r6, #86	@ 0x56
   206f8:	4628      	mov	r0, r5
   206fa:	4632      	mov	r2, r6
   206fc:	f007 faad 	bl	27c5a <__aeabi_memcpy>
   20700:	a816      	add	r0, sp, #88	@ 0x58
   20702:	2149      	movs	r1, #73	@ 0x49
   20704:	f007 f8fc 	bl	27900 <__aeabi_memclr4>
   20708:	4825      	ldr	r0, [pc, #148]	@ (207a0 <_ZN18complex_no_dynamic3app17h0e7f9efab89c707bE+0xb4>)
   2070a:	2106      	movs	r1, #6
   2070c:	462a      	mov	r2, r5
   2070e:	4633      	mov	r3, r6
   20710:	df04      	svc	4
   20712:	2802      	cmp	r0, #2
   20714:	d00e      	beq.n	20734 <_ZN18complex_no_dynamic3app17h0e7f9efab89c707bE+0x48>
   20716:	4822      	ldr	r0, [pc, #136]	@ (207a0 <_ZN18complex_no_dynamic3app17h0e7f9efab89c707bE+0xb4>)
   20718:	2106      	movs	r1, #6
   2071a:	aa16      	add	r2, sp, #88	@ 0x58
   2071c:	2349      	movs	r3, #73	@ 0x49
   2071e:	df03      	svc	3
   20720:	2802      	cmp	r0, #2
   20722:	d007      	beq.n	20734 <_ZN18complex_no_dynamic3app17h0e7f9efab89c707bE+0x48>
   20724:	481e      	ldr	r0, [pc, #120]	@ (207a0 <_ZN18complex_no_dynamic3app17h0e7f9efab89c707bE+0xb4>)
   20726:	2106      	movs	r1, #6
   20728:	2500      	movs	r5, #0
   2072a:	460a      	mov	r2, r1
   2072c:	462b      	mov	r3, r5
   2072e:	df02      	svc	2
   20730:	287f      	cmp	r0, #127	@ 0x7f
   20732:	d814      	bhi.n	2075e <_ZN18complex_no_dynamic3app17h0e7f9efab89c707bE+0x72>
   20734:	2501      	movs	r5, #1
   20736:	2d00      	cmp	r5, #0
   20738:	d018      	beq.n	2076c <_ZN18complex_no_dynamic3app17h0e7f9efab89c707bE+0x80>
   2073a:	2001      	movs	r0, #1
   2073c:	7020      	strb	r0, [r4, #0]
   2073e:	6061      	str	r1, [r4, #4]
   20740:	4c17      	ldr	r4, [pc, #92]	@ (207a0 <_ZN18complex_no_dynamic3app17h0e7f9efab89c707bE+0xb4>)
   20742:	2506      	movs	r5, #6
   20744:	2600      	movs	r6, #0
   20746:	4620      	mov	r0, r4
   20748:	4629      	mov	r1, r5
   2074a:	4632      	mov	r2, r6
   2074c:	4633      	mov	r3, r6
   2074e:	df03      	svc	3
   20750:	4620      	mov	r0, r4
   20752:	4629      	mov	r1, r5
   20754:	4632      	mov	r2, r6
   20756:	4633      	mov	r3, r6
   20758:	df04      	svc	4
   2075a:	b029      	add	sp, #164	@ 0xa4
   2075c:	bdf0      	pop	{r4, r5, r6, r7, pc}
   2075e:	4810      	ldr	r0, [pc, #64]	@ (207a0 <_ZN18complex_no_dynamic3app17h0e7f9efab89c707bE+0xb4>)
   20760:	2106      	movs	r1, #6
   20762:	462a      	mov	r2, r5
   20764:	462b      	mov	r3, r5
   20766:	df03      	svc	3
   20768:	2d00      	cmp	r5, #0
   2076a:	d1e6      	bne.n	2073a <_ZN18complex_no_dynamic3app17h0e7f9efab89c707bE+0x4e>
   2076c:	480c      	ldr	r0, [pc, #48]	@ (207a0 <_ZN18complex_no_dynamic3app17h0e7f9efab89c707bE+0xb4>)
   2076e:	2606      	movs	r6, #6
   20770:	2500      	movs	r5, #0
   20772:	4631      	mov	r1, r6
   20774:	462a      	mov	r2, r5
   20776:	462b      	mov	r3, r5
   20778:	df03      	svc	3
   2077a:	1c60      	adds	r0, r4, #1
   2077c:	a916      	add	r1, sp, #88	@ 0x58
   2077e:	2249      	movs	r2, #73	@ 0x49
   20780:	f007 fa6b 	bl	27c5a <__aeabi_memcpy>
   20784:	7025      	strb	r5, [r4, #0]
   20786:	4806      	ldr	r0, [pc, #24]	@ (207a0 <_ZN18complex_no_dynamic3app17h0e7f9efab89c707bE+0xb4>)
   20788:	4631      	mov	r1, r6
   2078a:	462a      	mov	r2, r5
   2078c:	462b      	mov	r3, r5
   2078e:	df03      	svc	3
   20790:	4803      	ldr	r0, [pc, #12]	@ (207a0 <_ZN18complex_no_dynamic3app17h0e7f9efab89c707bE+0xb4>)
   20792:	4631      	mov	r1, r6
   20794:	462a      	mov	r2, r5
   20796:	462b      	mov	r3, r5
   20798:	df04      	svc	4
   2079a:	b029      	add	sp, #164	@ 0xa4
   2079c:	bdf0      	pop	{r4, r5, r6, r7, pc}
   2079e:	46c0      	nop			@ (mov r8, r8)
   207a0:	00001c6b 	.word	0x00001c6b

000207a4 <_ZN18complex_no_dynamic3app17h108f03ec8ce51f42E>:
   207a4:	b5f0      	push	{r4, r5, r6, r7, lr}
   207a6:	af03      	add	r7, sp, #12
   207a8:	b09d      	sub	sp, #116	@ 0x74
   207aa:	4604      	mov	r4, r0
   207ac:	466d      	mov	r5, sp
   207ae:	261e      	movs	r6, #30
   207b0:	4628      	mov	r0, r5
   207b2:	4632      	mov	r2, r6
   207b4:	f007 fa51 	bl	27c5a <__aeabi_memcpy>
   207b8:	a808      	add	r0, sp, #32
   207ba:	2151      	movs	r1, #81	@ 0x51
   207bc:	f007 f8a0 	bl	27900 <__aeabi_memclr4>
   207c0:	4824      	ldr	r0, [pc, #144]	@ (20854 <_ZN18complex_no_dynamic3app17h108f03ec8ce51f42E+0xb0>)
   207c2:	2102      	movs	r1, #2
   207c4:	462a      	mov	r2, r5
   207c6:	4633      	mov	r3, r6
   207c8:	df04      	svc	4
   207ca:	2802      	cmp	r0, #2
   207cc:	d00e      	beq.n	207ec <_ZN18complex_no_dynamic3app17h108f03ec8ce51f42E+0x48>
   207ce:	4821      	ldr	r0, [pc, #132]	@ (20854 <_ZN18complex_no_dynamic3app17h108f03ec8ce51f42E+0xb0>)
   207d0:	2100      	movs	r1, #0
   207d2:	aa08      	add	r2, sp, #32
   207d4:	2351      	movs	r3, #81	@ 0x51
   207d6:	df03      	svc	3
   207d8:	2802      	cmp	r0, #2
   207da:	d007      	beq.n	207ec <_ZN18complex_no_dynamic3app17h108f03ec8ce51f42E+0x48>
   207dc:	481d      	ldr	r0, [pc, #116]	@ (20854 <_ZN18complex_no_dynamic3app17h108f03ec8ce51f42E+0xb0>)
   207de:	2102      	movs	r1, #2
   207e0:	2500      	movs	r5, #0
   207e2:	462a      	mov	r2, r5
   207e4:	462b      	mov	r3, r5
   207e6:	df02      	svc	2
   207e8:	287f      	cmp	r0, #127	@ 0x7f
   207ea:	d813      	bhi.n	20814 <_ZN18complex_no_dynamic3app17h108f03ec8ce51f42E+0x70>
   207ec:	2501      	movs	r5, #1
   207ee:	2d00      	cmp	r5, #0
   207f0:	d017      	beq.n	20822 <_ZN18complex_no_dynamic3app17h108f03ec8ce51f42E+0x7e>
   207f2:	2001      	movs	r0, #1
   207f4:	7020      	strb	r0, [r4, #0]
   207f6:	6061      	str	r1, [r4, #4]
   207f8:	4c16      	ldr	r4, [pc, #88]	@ (20854 <_ZN18complex_no_dynamic3app17h108f03ec8ce51f42E+0xb0>)
   207fa:	2500      	movs	r5, #0
   207fc:	4620      	mov	r0, r4
   207fe:	4629      	mov	r1, r5
   20800:	462a      	mov	r2, r5
   20802:	462b      	mov	r3, r5
   20804:	df03      	svc	3
   20806:	2102      	movs	r1, #2
   20808:	4620      	mov	r0, r4
   2080a:	462a      	mov	r2, r5
   2080c:	462b      	mov	r3, r5
   2080e:	df04      	svc	4
   20810:	b01d      	add	sp, #116	@ 0x74
   20812:	bdf0      	pop	{r4, r5, r6, r7, pc}
   20814:	480f      	ldr	r0, [pc, #60]	@ (20854 <_ZN18complex_no_dynamic3app17h108f03ec8ce51f42E+0xb0>)
   20816:	4629      	mov	r1, r5
   20818:	462a      	mov	r2, r5
   2081a:	462b      	mov	r3, r5
   2081c:	df03      	svc	3
   2081e:	2d00      	cmp	r5, #0
   20820:	d1e7      	bne.n	207f2 <_ZN18complex_no_dynamic3app17h108f03ec8ce51f42E+0x4e>
   20822:	4e0c      	ldr	r6, [pc, #48]	@ (20854 <_ZN18complex_no_dynamic3app17h108f03ec8ce51f42E+0xb0>)
   20824:	2500      	movs	r5, #0
   20826:	4630      	mov	r0, r6
   20828:	4629      	mov	r1, r5
   2082a:	462a      	mov	r2, r5
   2082c:	462b      	mov	r3, r5
   2082e:	df03      	svc	3
   20830:	1c60      	adds	r0, r4, #1
   20832:	a908      	add	r1, sp, #32
   20834:	2251      	movs	r2, #81	@ 0x51
   20836:	f007 fa10 	bl	27c5a <__aeabi_memcpy>
   2083a:	7025      	strb	r5, [r4, #0]
   2083c:	4630      	mov	r0, r6
   2083e:	4629      	mov	r1, r5
   20840:	462a      	mov	r2, r5
   20842:	462b      	mov	r3, r5
   20844:	df03      	svc	3
   20846:	2102      	movs	r1, #2
   20848:	4630      	mov	r0, r6
   2084a:	462a      	mov	r2, r5
   2084c:	462b      	mov	r3, r5
   2084e:	df04      	svc	4
   20850:	b01d      	add	sp, #116	@ 0x74
   20852:	bdf0      	pop	{r4, r5, r6, r7, pc}
   20854:	0000196b 	.word	0x0000196b

00020858 <_ZN18complex_no_dynamic3app17h125f3dedac6db830E>:
   20858:	b5f0      	push	{r4, r5, r6, r7, lr}
   2085a:	af03      	add	r7, sp, #12
   2085c:	b08f      	sub	sp, #60	@ 0x3c
   2085e:	9000      	str	r0, [sp, #0]
   20860:	ae01      	add	r6, sp, #4
   20862:	2418      	movs	r4, #24
   20864:	4630      	mov	r0, r6
   20866:	4622      	mov	r2, r4
   20868:	f007 f9f7 	bl	27c5a <__aeabi_memcpy>
   2086c:	a807      	add	r0, sp, #28
   2086e:	2500      	movs	r5, #0
   20870:	8385      	strh	r5, [r0, #28]
   20872:	950d      	str	r5, [sp, #52]	@ 0x34
   20874:	950c      	str	r5, [sp, #48]	@ 0x30
   20876:	950b      	str	r5, [sp, #44]	@ 0x2c
   20878:	950a      	str	r5, [sp, #40]	@ 0x28
   2087a:	9509      	str	r5, [sp, #36]	@ 0x24
   2087c:	9508      	str	r5, [sp, #32]
   2087e:	9507      	str	r5, [sp, #28]
   20880:	4825      	ldr	r0, [pc, #148]	@ (20918 <_ZN18complex_no_dynamic3app17h125f3dedac6db830E+0xc0>)
   20882:	2109      	movs	r1, #9
   20884:	4632      	mov	r2, r6
   20886:	4623      	mov	r3, r4
   20888:	df04      	svc	4
   2088a:	2802      	cmp	r0, #2
   2088c:	d00e      	beq.n	208ac <_ZN18complex_no_dynamic3app17h125f3dedac6db830E+0x54>
   2088e:	4822      	ldr	r0, [pc, #136]	@ (20918 <_ZN18complex_no_dynamic3app17h125f3dedac6db830E+0xc0>)
   20890:	2105      	movs	r1, #5
   20892:	aa07      	add	r2, sp, #28
   20894:	231e      	movs	r3, #30
   20896:	df03      	svc	3
   20898:	2802      	cmp	r0, #2
   2089a:	d007      	beq.n	208ac <_ZN18complex_no_dynamic3app17h125f3dedac6db830E+0x54>
   2089c:	481e      	ldr	r0, [pc, #120]	@ (20918 <_ZN18complex_no_dynamic3app17h125f3dedac6db830E+0xc0>)
   2089e:	2109      	movs	r1, #9
   208a0:	2205      	movs	r2, #5
   208a2:	2600      	movs	r6, #0
   208a4:	4633      	mov	r3, r6
   208a6:	df02      	svc	2
   208a8:	287f      	cmp	r0, #127	@ 0x7f
   208aa:	d814      	bhi.n	208d6 <_ZN18complex_no_dynamic3app17h125f3dedac6db830E+0x7e>
   208ac:	2601      	movs	r6, #1
   208ae:	2e00      	cmp	r6, #0
   208b0:	d018      	beq.n	208e4 <_ZN18complex_no_dynamic3app17h125f3dedac6db830E+0x8c>
   208b2:	2001      	movs	r0, #1
   208b4:	9a00      	ldr	r2, [sp, #0]
   208b6:	7010      	strb	r0, [r2, #0]
   208b8:	6051      	str	r1, [r2, #4]
   208ba:	4c17      	ldr	r4, [pc, #92]	@ (20918 <_ZN18complex_no_dynamic3app17h125f3dedac6db830E+0xc0>)
   208bc:	2105      	movs	r1, #5
   208be:	2500      	movs	r5, #0
   208c0:	4620      	mov	r0, r4
   208c2:	462a      	mov	r2, r5
   208c4:	462b      	mov	r3, r5
   208c6:	df03      	svc	3
   208c8:	2109      	movs	r1, #9
   208ca:	4620      	mov	r0, r4
   208cc:	462a      	mov	r2, r5
   208ce:	462b      	mov	r3, r5
   208d0:	df04      	svc	4
   208d2:	b00f      	add	sp, #60	@ 0x3c
   208d4:	bdf0      	pop	{r4, r5, r6, r7, pc}
   208d6:	4810      	ldr	r0, [pc, #64]	@ (20918 <_ZN18complex_no_dynamic3app17h125f3dedac6db830E+0xc0>)
   208d8:	2105      	movs	r1, #5
   208da:	4632      	mov	r2, r6
   208dc:	4633      	mov	r3, r6
   208de:	df03      	svc	3
   208e0:	2e00      	cmp	r6, #0
   208e2:	d1e6      	bne.n	208b2 <_ZN18complex_no_dynamic3app17h125f3dedac6db830E+0x5a>
   208e4:	480c      	ldr	r0, [pc, #48]	@ (20918 <_ZN18complex_no_dynamic3app17h125f3dedac6db830E+0xc0>)
   208e6:	2405      	movs	r4, #5
   208e8:	4621      	mov	r1, r4
   208ea:	462a      	mov	r2, r5
   208ec:	462b      	mov	r3, r5
   208ee:	df03      	svc	3
   208f0:	9e00      	ldr	r6, [sp, #0]
   208f2:	1c70      	adds	r0, r6, #1
   208f4:	a907      	add	r1, sp, #28
   208f6:	221e      	movs	r2, #30
   208f8:	f007 f9af 	bl	27c5a <__aeabi_memcpy>
   208fc:	7035      	strb	r5, [r6, #0]
   208fe:	4e06      	ldr	r6, [pc, #24]	@ (20918 <_ZN18complex_no_dynamic3app17h125f3dedac6db830E+0xc0>)
   20900:	4630      	mov	r0, r6
   20902:	4621      	mov	r1, r4
   20904:	462a      	mov	r2, r5
   20906:	462b      	mov	r3, r5
   20908:	df03      	svc	3
   2090a:	2109      	movs	r1, #9
   2090c:	4630      	mov	r0, r6
   2090e:	462a      	mov	r2, r5
   20910:	462b      	mov	r3, r5
   20912:	df04      	svc	4
   20914:	b00f      	add	sp, #60	@ 0x3c
   20916:	bdf0      	pop	{r4, r5, r6, r7, pc}
   20918:	00000cbb 	.word	0x00000cbb

0002091c <_ZN18complex_no_dynamic3app17h12ec4c9a58fa1e11E>:
   2091c:	b5f0      	push	{r4, r5, r6, r7, lr}
   2091e:	af03      	add	r7, sp, #12
   20920:	b09b      	sub	sp, #108	@ 0x6c
   20922:	4604      	mov	r4, r0
   20924:	466d      	mov	r5, sp
   20926:	2636      	movs	r6, #54	@ 0x36
   20928:	4628      	mov	r0, r5
   2092a:	4632      	mov	r2, r6
   2092c:	f007 f995 	bl	27c5a <__aeabi_memcpy>
   20930:	a80e      	add	r0, sp, #56	@ 0x38
   20932:	2134      	movs	r1, #52	@ 0x34
   20934:	f006 ffe4 	bl	27900 <__aeabi_memclr4>
   20938:	4824      	ldr	r0, [pc, #144]	@ (209cc <_ZN18complex_no_dynamic3app17h12ec4c9a58fa1e11E+0xb0>)
   2093a:	2104      	movs	r1, #4
   2093c:	462a      	mov	r2, r5
   2093e:	4633      	mov	r3, r6
   20940:	df04      	svc	4
   20942:	2802      	cmp	r0, #2
   20944:	d00e      	beq.n	20964 <_ZN18complex_no_dynamic3app17h12ec4c9a58fa1e11E+0x48>
   20946:	4821      	ldr	r0, [pc, #132]	@ (209cc <_ZN18complex_no_dynamic3app17h12ec4c9a58fa1e11E+0xb0>)
   20948:	2102      	movs	r1, #2
   2094a:	aa0e      	add	r2, sp, #56	@ 0x38
   2094c:	2334      	movs	r3, #52	@ 0x34
   2094e:	df03      	svc	3
   20950:	2802      	cmp	r0, #2
   20952:	d007      	beq.n	20964 <_ZN18complex_no_dynamic3app17h12ec4c9a58fa1e11E+0x48>
   20954:	481d      	ldr	r0, [pc, #116]	@ (209cc <_ZN18complex_no_dynamic3app17h12ec4c9a58fa1e11E+0xb0>)
   20956:	2104      	movs	r1, #4
   20958:	2202      	movs	r2, #2
   2095a:	2500      	movs	r5, #0
   2095c:	462b      	mov	r3, r5
   2095e:	df02      	svc	2
   20960:	287f      	cmp	r0, #127	@ 0x7f
   20962:	d813      	bhi.n	2098c <_ZN18complex_no_dynamic3app17h12ec4c9a58fa1e11E+0x70>
   20964:	2501      	movs	r5, #1
   20966:	2d00      	cmp	r5, #0
   20968:	d017      	beq.n	2099a <_ZN18complex_no_dynamic3app17h12ec4c9a58fa1e11E+0x7e>
   2096a:	2001      	movs	r0, #1
   2096c:	7020      	strb	r0, [r4, #0]
   2096e:	6061      	str	r1, [r4, #4]
   20970:	4c16      	ldr	r4, [pc, #88]	@ (209cc <_ZN18complex_no_dynamic3app17h12ec4c9a58fa1e11E+0xb0>)
   20972:	2102      	movs	r1, #2
   20974:	2500      	movs	r5, #0
   20976:	4620      	mov	r0, r4
   20978:	462a      	mov	r2, r5
   2097a:	462b      	mov	r3, r5
   2097c:	df03      	svc	3
   2097e:	2104      	movs	r1, #4
   20980:	4620      	mov	r0, r4
   20982:	462a      	mov	r2, r5
   20984:	462b      	mov	r3, r5
   20986:	df04      	svc	4
   20988:	b01b      	add	sp, #108	@ 0x6c
   2098a:	bdf0      	pop	{r4, r5, r6, r7, pc}
   2098c:	480f      	ldr	r0, [pc, #60]	@ (209cc <_ZN18complex_no_dynamic3app17h12ec4c9a58fa1e11E+0xb0>)
   2098e:	2102      	movs	r1, #2
   20990:	462a      	mov	r2, r5
   20992:	462b      	mov	r3, r5
   20994:	df03      	svc	3
   20996:	2d00      	cmp	r5, #0
   20998:	d1e7      	bne.n	2096a <_ZN18complex_no_dynamic3app17h12ec4c9a58fa1e11E+0x4e>
   2099a:	480c      	ldr	r0, [pc, #48]	@ (209cc <_ZN18complex_no_dynamic3app17h12ec4c9a58fa1e11E+0xb0>)
   2099c:	2602      	movs	r6, #2
   2099e:	2500      	movs	r5, #0
   209a0:	4631      	mov	r1, r6
   209a2:	462a      	mov	r2, r5
   209a4:	462b      	mov	r3, r5
   209a6:	df03      	svc	3
   209a8:	1c60      	adds	r0, r4, #1
   209aa:	a90e      	add	r1, sp, #56	@ 0x38
   209ac:	2234      	movs	r2, #52	@ 0x34
   209ae:	f007 f954 	bl	27c5a <__aeabi_memcpy>
   209b2:	7025      	strb	r5, [r4, #0]
   209b4:	4805      	ldr	r0, [pc, #20]	@ (209cc <_ZN18complex_no_dynamic3app17h12ec4c9a58fa1e11E+0xb0>)
   209b6:	4631      	mov	r1, r6
   209b8:	462a      	mov	r2, r5
   209ba:	462b      	mov	r3, r5
   209bc:	df03      	svc	3
   209be:	2104      	movs	r1, #4
   209c0:	4802      	ldr	r0, [pc, #8]	@ (209cc <_ZN18complex_no_dynamic3app17h12ec4c9a58fa1e11E+0xb0>)
   209c2:	462a      	mov	r2, r5
   209c4:	462b      	mov	r3, r5
   209c6:	df04      	svc	4
   209c8:	b01b      	add	sp, #108	@ 0x6c
   209ca:	bdf0      	pop	{r4, r5, r6, r7, pc}
   209cc:	000023c6 	.word	0x000023c6

000209d0 <_ZN18complex_no_dynamic3app17h14074709dfc1f70aE>:
   209d0:	b5f0      	push	{r4, r5, r6, r7, lr}
   209d2:	af03      	add	r7, sp, #12
   209d4:	b09b      	sub	sp, #108	@ 0x6c
   209d6:	4604      	mov	r4, r0
   209d8:	466d      	mov	r5, sp
   209da:	2613      	movs	r6, #19
   209dc:	4628      	mov	r0, r5
   209de:	4632      	mov	r2, r6
   209e0:	f007 f93b 	bl	27c5a <__aeabi_memcpy>
   209e4:	a805      	add	r0, sp, #20
   209e6:	2155      	movs	r1, #85	@ 0x55
   209e8:	f006 ff8a 	bl	27900 <__aeabi_memclr4>
   209ec:	4824      	ldr	r0, [pc, #144]	@ (20a80 <_ZN18complex_no_dynamic3app17h14074709dfc1f70aE+0xb0>)
   209ee:	2109      	movs	r1, #9
   209f0:	462a      	mov	r2, r5
   209f2:	4633      	mov	r3, r6
   209f4:	df04      	svc	4
   209f6:	2802      	cmp	r0, #2
   209f8:	d00e      	beq.n	20a18 <_ZN18complex_no_dynamic3app17h14074709dfc1f70aE+0x48>
   209fa:	4821      	ldr	r0, [pc, #132]	@ (20a80 <_ZN18complex_no_dynamic3app17h14074709dfc1f70aE+0xb0>)
   209fc:	2107      	movs	r1, #7
   209fe:	aa05      	add	r2, sp, #20
   20a00:	2355      	movs	r3, #85	@ 0x55
   20a02:	df03      	svc	3
   20a04:	2802      	cmp	r0, #2
   20a06:	d007      	beq.n	20a18 <_ZN18complex_no_dynamic3app17h14074709dfc1f70aE+0x48>
   20a08:	481d      	ldr	r0, [pc, #116]	@ (20a80 <_ZN18complex_no_dynamic3app17h14074709dfc1f70aE+0xb0>)
   20a0a:	2109      	movs	r1, #9
   20a0c:	2207      	movs	r2, #7
   20a0e:	2500      	movs	r5, #0
   20a10:	462b      	mov	r3, r5
   20a12:	df02      	svc	2
   20a14:	287f      	cmp	r0, #127	@ 0x7f
   20a16:	d813      	bhi.n	20a40 <_ZN18complex_no_dynamic3app17h14074709dfc1f70aE+0x70>
   20a18:	2501      	movs	r5, #1
   20a1a:	2d00      	cmp	r5, #0
   20a1c:	d017      	beq.n	20a4e <_ZN18complex_no_dynamic3app17h14074709dfc1f70aE+0x7e>
   20a1e:	2001      	movs	r0, #1
   20a20:	7020      	strb	r0, [r4, #0]
   20a22:	6061      	str	r1, [r4, #4]
   20a24:	4c16      	ldr	r4, [pc, #88]	@ (20a80 <_ZN18complex_no_dynamic3app17h14074709dfc1f70aE+0xb0>)
   20a26:	2107      	movs	r1, #7
   20a28:	2500      	movs	r5, #0
   20a2a:	4620      	mov	r0, r4
   20a2c:	462a      	mov	r2, r5
   20a2e:	462b      	mov	r3, r5
   20a30:	df03      	svc	3
   20a32:	2109      	movs	r1, #9
   20a34:	4620      	mov	r0, r4
   20a36:	462a      	mov	r2, r5
   20a38:	462b      	mov	r3, r5
   20a3a:	df04      	svc	4
   20a3c:	b01b      	add	sp, #108	@ 0x6c
   20a3e:	bdf0      	pop	{r4, r5, r6, r7, pc}
   20a40:	480f      	ldr	r0, [pc, #60]	@ (20a80 <_ZN18complex_no_dynamic3app17h14074709dfc1f70aE+0xb0>)
   20a42:	2107      	movs	r1, #7
   20a44:	462a      	mov	r2, r5
   20a46:	462b      	mov	r3, r5
   20a48:	df03      	svc	3
   20a4a:	2d00      	cmp	r5, #0
   20a4c:	d1e7      	bne.n	20a1e <_ZN18complex_no_dynamic3app17h14074709dfc1f70aE+0x4e>
   20a4e:	480c      	ldr	r0, [pc, #48]	@ (20a80 <_ZN18complex_no_dynamic3app17h14074709dfc1f70aE+0xb0>)
   20a50:	2607      	movs	r6, #7
   20a52:	2500      	movs	r5, #0
   20a54:	4631      	mov	r1, r6
   20a56:	462a      	mov	r2, r5
   20a58:	462b      	mov	r3, r5
   20a5a:	df03      	svc	3
   20a5c:	1c60      	adds	r0, r4, #1
   20a5e:	a905      	add	r1, sp, #20
   20a60:	2255      	movs	r2, #85	@ 0x55
   20a62:	f007 f8fa 	bl	27c5a <__aeabi_memcpy>
   20a66:	7025      	strb	r5, [r4, #0]
   20a68:	4805      	ldr	r0, [pc, #20]	@ (20a80 <_ZN18complex_no_dynamic3app17h14074709dfc1f70aE+0xb0>)
   20a6a:	4631      	mov	r1, r6
   20a6c:	462a      	mov	r2, r5
   20a6e:	462b      	mov	r3, r5
   20a70:	df03      	svc	3
   20a72:	2109      	movs	r1, #9
   20a74:	4802      	ldr	r0, [pc, #8]	@ (20a80 <_ZN18complex_no_dynamic3app17h14074709dfc1f70aE+0xb0>)
   20a76:	462a      	mov	r2, r5
   20a78:	462b      	mov	r3, r5
   20a7a:	df04      	svc	4
   20a7c:	b01b      	add	sp, #108	@ 0x6c
   20a7e:	bdf0      	pop	{r4, r5, r6, r7, pc}
   20a80:	0000032e 	.word	0x0000032e

00020a84 <_ZN18complex_no_dynamic3app17h16b41aa23478dcb2E>:
   20a84:	b5f0      	push	{r4, r5, r6, r7, lr}
   20a86:	af03      	add	r7, sp, #12
   20a88:	b09b      	sub	sp, #108	@ 0x6c
   20a8a:	9001      	str	r0, [sp, #4]
   20a8c:	ae02      	add	r6, sp, #8
   20a8e:	2451      	movs	r4, #81	@ 0x51
   20a90:	4630      	mov	r0, r6
   20a92:	4622      	mov	r2, r4
   20a94:	f007 f8e1 	bl	27c5a <__aeabi_memcpy>
   20a98:	a817      	add	r0, sp, #92	@ 0x5c
   20a9a:	2500      	movs	r5, #0
   20a9c:	7385      	strb	r5, [r0, #14]
   20a9e:	8185      	strh	r5, [r0, #12]
   20aa0:	9519      	str	r5, [sp, #100]	@ 0x64
   20aa2:	9518      	str	r5, [sp, #96]	@ 0x60
   20aa4:	9517      	str	r5, [sp, #92]	@ 0x5c
   20aa6:	4826      	ldr	r0, [pc, #152]	@ (20b40 <_ZN18complex_no_dynamic3app17h16b41aa23478dcb2E+0xbc>)
   20aa8:	4629      	mov	r1, r5
   20aaa:	4632      	mov	r2, r6
   20aac:	4623      	mov	r3, r4
   20aae:	df04      	svc	4
   20ab0:	2802      	cmp	r0, #2
   20ab2:	d00e      	beq.n	20ad2 <_ZN18complex_no_dynamic3app17h16b41aa23478dcb2E+0x4e>
   20ab4:	4822      	ldr	r0, [pc, #136]	@ (20b40 <_ZN18complex_no_dynamic3app17h16b41aa23478dcb2E+0xbc>)
   20ab6:	2103      	movs	r1, #3
   20ab8:	aa17      	add	r2, sp, #92	@ 0x5c
   20aba:	230f      	movs	r3, #15
   20abc:	df03      	svc	3
   20abe:	2802      	cmp	r0, #2
   20ac0:	d007      	beq.n	20ad2 <_ZN18complex_no_dynamic3app17h16b41aa23478dcb2E+0x4e>
   20ac2:	481f      	ldr	r0, [pc, #124]	@ (20b40 <_ZN18complex_no_dynamic3app17h16b41aa23478dcb2E+0xbc>)
   20ac4:	2203      	movs	r2, #3
   20ac6:	2600      	movs	r6, #0
   20ac8:	4631      	mov	r1, r6
   20aca:	4633      	mov	r3, r6
   20acc:	df02      	svc	2
   20ace:	287f      	cmp	r0, #127	@ 0x7f
   20ad0:	d814      	bhi.n	20afc <_ZN18complex_no_dynamic3app17h16b41aa23478dcb2E+0x78>
   20ad2:	2601      	movs	r6, #1
   20ad4:	2e00      	cmp	r6, #0
   20ad6:	d018      	beq.n	20b0a <_ZN18complex_no_dynamic3app17h16b41aa23478dcb2E+0x86>
   20ad8:	2001      	movs	r0, #1
   20ada:	9a01      	ldr	r2, [sp, #4]
   20adc:	7010      	strb	r0, [r2, #0]
   20ade:	6051      	str	r1, [r2, #4]
   20ae0:	4c17      	ldr	r4, [pc, #92]	@ (20b40 <_ZN18complex_no_dynamic3app17h16b41aa23478dcb2E+0xbc>)
   20ae2:	2103      	movs	r1, #3
   20ae4:	2500      	movs	r5, #0
   20ae6:	4620      	mov	r0, r4
   20ae8:	462a      	mov	r2, r5
   20aea:	462b      	mov	r3, r5
   20aec:	df03      	svc	3
   20aee:	4620      	mov	r0, r4
   20af0:	4629      	mov	r1, r5
   20af2:	462a      	mov	r2, r5
   20af4:	462b      	mov	r3, r5
   20af6:	df04      	svc	4
   20af8:	b01b      	add	sp, #108	@ 0x6c
   20afa:	bdf0      	pop	{r4, r5, r6, r7, pc}
   20afc:	4810      	ldr	r0, [pc, #64]	@ (20b40 <_ZN18complex_no_dynamic3app17h16b41aa23478dcb2E+0xbc>)
   20afe:	2103      	movs	r1, #3
   20b00:	4632      	mov	r2, r6
   20b02:	4633      	mov	r3, r6
   20b04:	df03      	svc	3
   20b06:	2e00      	cmp	r6, #0
   20b08:	d1e6      	bne.n	20ad8 <_ZN18complex_no_dynamic3app17h16b41aa23478dcb2E+0x54>
   20b0a:	480d      	ldr	r0, [pc, #52]	@ (20b40 <_ZN18complex_no_dynamic3app17h16b41aa23478dcb2E+0xbc>)
   20b0c:	2403      	movs	r4, #3
   20b0e:	4621      	mov	r1, r4
   20b10:	462a      	mov	r2, r5
   20b12:	462b      	mov	r3, r5
   20b14:	df03      	svc	3
   20b16:	9e01      	ldr	r6, [sp, #4]
   20b18:	1c70      	adds	r0, r6, #1
   20b1a:	a917      	add	r1, sp, #92	@ 0x5c
   20b1c:	220f      	movs	r2, #15
   20b1e:	f007 f89c 	bl	27c5a <__aeabi_memcpy>
   20b22:	7035      	strb	r5, [r6, #0]
   20b24:	4e06      	ldr	r6, [pc, #24]	@ (20b40 <_ZN18complex_no_dynamic3app17h16b41aa23478dcb2E+0xbc>)
   20b26:	4630      	mov	r0, r6
   20b28:	4621      	mov	r1, r4
   20b2a:	462a      	mov	r2, r5
   20b2c:	462b      	mov	r3, r5
   20b2e:	df03      	svc	3
   20b30:	4630      	mov	r0, r6
   20b32:	4629      	mov	r1, r5
   20b34:	462a      	mov	r2, r5
   20b36:	462b      	mov	r3, r5
   20b38:	df04      	svc	4
   20b3a:	b01b      	add	sp, #108	@ 0x6c
   20b3c:	bdf0      	pop	{r4, r5, r6, r7, pc}
   20b3e:	46c0      	nop			@ (mov r8, r8)
   20b40:	000013bf 	.word	0x000013bf

00020b44 <_ZN18complex_no_dynamic3app17h177006e35f8b4e67E>:
   20b44:	b5f0      	push	{r4, r5, r6, r7, lr}
   20b46:	af03      	add	r7, sp, #12
   20b48:	b093      	sub	sp, #76	@ 0x4c
   20b4a:	4604      	mov	r4, r0
   20b4c:	466d      	mov	r5, sp
   20b4e:	261e      	movs	r6, #30
   20b50:	4628      	mov	r0, r5
   20b52:	4632      	mov	r2, r6
   20b54:	f007 f881 	bl	27c5a <__aeabi_memcpy>
   20b58:	a808      	add	r0, sp, #32
   20b5a:	212c      	movs	r1, #44	@ 0x2c
   20b5c:	f006 fed0 	bl	27900 <__aeabi_memclr4>
   20b60:	4824      	ldr	r0, [pc, #144]	@ (20bf4 <_ZN18complex_no_dynamic3app17h177006e35f8b4e67E+0xb0>)
   20b62:	2107      	movs	r1, #7
   20b64:	462a      	mov	r2, r5
   20b66:	4633      	mov	r3, r6
   20b68:	df04      	svc	4
   20b6a:	2802      	cmp	r0, #2
   20b6c:	d00e      	beq.n	20b8c <_ZN18complex_no_dynamic3app17h177006e35f8b4e67E+0x48>
   20b6e:	4821      	ldr	r0, [pc, #132]	@ (20bf4 <_ZN18complex_no_dynamic3app17h177006e35f8b4e67E+0xb0>)
   20b70:	2100      	movs	r1, #0
   20b72:	aa08      	add	r2, sp, #32
   20b74:	232c      	movs	r3, #44	@ 0x2c
   20b76:	df03      	svc	3
   20b78:	2802      	cmp	r0, #2
   20b7a:	d007      	beq.n	20b8c <_ZN18complex_no_dynamic3app17h177006e35f8b4e67E+0x48>
   20b7c:	481d      	ldr	r0, [pc, #116]	@ (20bf4 <_ZN18complex_no_dynamic3app17h177006e35f8b4e67E+0xb0>)
   20b7e:	2107      	movs	r1, #7
   20b80:	2500      	movs	r5, #0
   20b82:	462a      	mov	r2, r5
   20b84:	462b      	mov	r3, r5
   20b86:	df02      	svc	2
   20b88:	287f      	cmp	r0, #127	@ 0x7f
   20b8a:	d813      	bhi.n	20bb4 <_ZN18complex_no_dynamic3app17h177006e35f8b4e67E+0x70>
   20b8c:	2501      	movs	r5, #1
   20b8e:	2d00      	cmp	r5, #0
   20b90:	d017      	beq.n	20bc2 <_ZN18complex_no_dynamic3app17h177006e35f8b4e67E+0x7e>
   20b92:	2001      	movs	r0, #1
   20b94:	7020      	strb	r0, [r4, #0]
   20b96:	6061      	str	r1, [r4, #4]
   20b98:	4c16      	ldr	r4, [pc, #88]	@ (20bf4 <_ZN18complex_no_dynamic3app17h177006e35f8b4e67E+0xb0>)
   20b9a:	2500      	movs	r5, #0
   20b9c:	4620      	mov	r0, r4
   20b9e:	4629      	mov	r1, r5
   20ba0:	462a      	mov	r2, r5
   20ba2:	462b      	mov	r3, r5
   20ba4:	df03      	svc	3
   20ba6:	2107      	movs	r1, #7
   20ba8:	4620      	mov	r0, r4
   20baa:	462a      	mov	r2, r5
   20bac:	462b      	mov	r3, r5
   20bae:	df04      	svc	4
   20bb0:	b013      	add	sp, #76	@ 0x4c
   20bb2:	bdf0      	pop	{r4, r5, r6, r7, pc}
   20bb4:	480f      	ldr	r0, [pc, #60]	@ (20bf4 <_ZN18complex_no_dynamic3app17h177006e35f8b4e67E+0xb0>)
   20bb6:	4629      	mov	r1, r5
   20bb8:	462a      	mov	r2, r5
   20bba:	462b      	mov	r3, r5
   20bbc:	df03      	svc	3
   20bbe:	2d00      	cmp	r5, #0
   20bc0:	d1e7      	bne.n	20b92 <_ZN18complex_no_dynamic3app17h177006e35f8b4e67E+0x4e>
   20bc2:	4e0c      	ldr	r6, [pc, #48]	@ (20bf4 <_ZN18complex_no_dynamic3app17h177006e35f8b4e67E+0xb0>)
   20bc4:	2500      	movs	r5, #0
   20bc6:	4630      	mov	r0, r6
   20bc8:	4629      	mov	r1, r5
   20bca:	462a      	mov	r2, r5
   20bcc:	462b      	mov	r3, r5
   20bce:	df03      	svc	3
   20bd0:	1c60      	adds	r0, r4, #1
   20bd2:	a908      	add	r1, sp, #32
   20bd4:	222c      	movs	r2, #44	@ 0x2c
   20bd6:	f007 f840 	bl	27c5a <__aeabi_memcpy>
   20bda:	7025      	strb	r5, [r4, #0]
   20bdc:	4630      	mov	r0, r6
   20bde:	4629      	mov	r1, r5
   20be0:	462a      	mov	r2, r5
   20be2:	462b      	mov	r3, r5
   20be4:	df03      	svc	3
   20be6:	2107      	movs	r1, #7
   20be8:	4630      	mov	r0, r6
   20bea:	462a      	mov	r2, r5
   20bec:	462b      	mov	r3, r5
   20bee:	df04      	svc	4
   20bf0:	b013      	add	sp, #76	@ 0x4c
   20bf2:	bdf0      	pop	{r4, r5, r6, r7, pc}
   20bf4:	000003fb 	.word	0x000003fb

00020bf8 <_ZN18complex_no_dynamic3app17h18b608c9fa027338E>:
   20bf8:	b5f0      	push	{r4, r5, r6, r7, lr}
   20bfa:	af03      	add	r7, sp, #12
   20bfc:	b099      	sub	sp, #100	@ 0x64
   20bfe:	4604      	mov	r4, r0
   20c00:	466d      	mov	r5, sp
   20c02:	2634      	movs	r6, #52	@ 0x34
   20c04:	4628      	mov	r0, r5
   20c06:	4632      	mov	r2, r6
   20c08:	f007 f827 	bl	27c5a <__aeabi_memcpy>
   20c0c:	a80d      	add	r0, sp, #52	@ 0x34
   20c0e:	212e      	movs	r1, #46	@ 0x2e
   20c10:	f006 fe76 	bl	27900 <__aeabi_memclr4>
   20c14:	4824      	ldr	r0, [pc, #144]	@ (20ca8 <_ZN18complex_no_dynamic3app17h18b608c9fa027338E+0xb0>)
   20c16:	2102      	movs	r1, #2
   20c18:	462a      	mov	r2, r5
   20c1a:	4633      	mov	r3, r6
   20c1c:	df04      	svc	4
   20c1e:	2802      	cmp	r0, #2
   20c20:	d00e      	beq.n	20c40 <_ZN18complex_no_dynamic3app17h18b608c9fa027338E+0x48>
   20c22:	4821      	ldr	r0, [pc, #132]	@ (20ca8 <_ZN18complex_no_dynamic3app17h18b608c9fa027338E+0xb0>)
   20c24:	2108      	movs	r1, #8
   20c26:	aa0d      	add	r2, sp, #52	@ 0x34
   20c28:	232e      	movs	r3, #46	@ 0x2e
   20c2a:	df03      	svc	3
   20c2c:	2802      	cmp	r0, #2
   20c2e:	d007      	beq.n	20c40 <_ZN18complex_no_dynamic3app17h18b608c9fa027338E+0x48>
   20c30:	481d      	ldr	r0, [pc, #116]	@ (20ca8 <_ZN18complex_no_dynamic3app17h18b608c9fa027338E+0xb0>)
   20c32:	2102      	movs	r1, #2
   20c34:	2208      	movs	r2, #8
   20c36:	2500      	movs	r5, #0
   20c38:	462b      	mov	r3, r5
   20c3a:	df02      	svc	2
   20c3c:	287f      	cmp	r0, #127	@ 0x7f
   20c3e:	d813      	bhi.n	20c68 <_ZN18complex_no_dynamic3app17h18b608c9fa027338E+0x70>
   20c40:	2501      	movs	r5, #1
   20c42:	2d00      	cmp	r5, #0
   20c44:	d017      	beq.n	20c76 <_ZN18complex_no_dynamic3app17h18b608c9fa027338E+0x7e>
   20c46:	2001      	movs	r0, #1
   20c48:	7020      	strb	r0, [r4, #0]
   20c4a:	6061      	str	r1, [r4, #4]
   20c4c:	4c16      	ldr	r4, [pc, #88]	@ (20ca8 <_ZN18complex_no_dynamic3app17h18b608c9fa027338E+0xb0>)
   20c4e:	2108      	movs	r1, #8
   20c50:	2500      	movs	r5, #0
   20c52:	4620      	mov	r0, r4
   20c54:	462a      	mov	r2, r5
   20c56:	462b      	mov	r3, r5
   20c58:	df03      	svc	3
   20c5a:	2102      	movs	r1, #2
   20c5c:	4620      	mov	r0, r4
   20c5e:	462a      	mov	r2, r5
   20c60:	462b      	mov	r3, r5
   20c62:	df04      	svc	4
   20c64:	b019      	add	sp, #100	@ 0x64
   20c66:	bdf0      	pop	{r4, r5, r6, r7, pc}
   20c68:	480f      	ldr	r0, [pc, #60]	@ (20ca8 <_ZN18complex_no_dynamic3app17h18b608c9fa027338E+0xb0>)
   20c6a:	2108      	movs	r1, #8
   20c6c:	462a      	mov	r2, r5
   20c6e:	462b      	mov	r3, r5
   20c70:	df03      	svc	3
   20c72:	2d00      	cmp	r5, #0
   20c74:	d1e7      	bne.n	20c46 <_ZN18complex_no_dynamic3app17h18b608c9fa027338E+0x4e>
   20c76:	480c      	ldr	r0, [pc, #48]	@ (20ca8 <_ZN18complex_no_dynamic3app17h18b608c9fa027338E+0xb0>)
   20c78:	2608      	movs	r6, #8
   20c7a:	2500      	movs	r5, #0
   20c7c:	4631      	mov	r1, r6
   20c7e:	462a      	mov	r2, r5
   20c80:	462b      	mov	r3, r5
   20c82:	df03      	svc	3
   20c84:	1c60      	adds	r0, r4, #1
   20c86:	a90d      	add	r1, sp, #52	@ 0x34
   20c88:	222e      	movs	r2, #46	@ 0x2e
   20c8a:	f006 ffe6 	bl	27c5a <__aeabi_memcpy>
   20c8e:	7025      	strb	r5, [r4, #0]
   20c90:	4805      	ldr	r0, [pc, #20]	@ (20ca8 <_ZN18complex_no_dynamic3app17h18b608c9fa027338E+0xb0>)
   20c92:	4631      	mov	r1, r6
   20c94:	462a      	mov	r2, r5
   20c96:	462b      	mov	r3, r5
   20c98:	df03      	svc	3
   20c9a:	2102      	movs	r1, #2
   20c9c:	4802      	ldr	r0, [pc, #8]	@ (20ca8 <_ZN18complex_no_dynamic3app17h18b608c9fa027338E+0xb0>)
   20c9e:	462a      	mov	r2, r5
   20ca0:	462b      	mov	r3, r5
   20ca2:	df04      	svc	4
   20ca4:	b019      	add	sp, #100	@ 0x64
   20ca6:	bdf0      	pop	{r4, r5, r6, r7, pc}
   20ca8:	00000209 	.word	0x00000209

00020cac <_ZN18complex_no_dynamic3app17h19532d507b5225f6E>:
   20cac:	b5f0      	push	{r4, r5, r6, r7, lr}
   20cae:	af03      	add	r7, sp, #12
   20cb0:	b09d      	sub	sp, #116	@ 0x74
   20cb2:	4604      	mov	r4, r0
   20cb4:	466d      	mov	r5, sp
   20cb6:	263c      	movs	r6, #60	@ 0x3c
   20cb8:	4628      	mov	r0, r5
   20cba:	4632      	mov	r2, r6
   20cbc:	f006 ffcd 	bl	27c5a <__aeabi_memcpy>
   20cc0:	a80f      	add	r0, sp, #60	@ 0x3c
   20cc2:	2138      	movs	r1, #56	@ 0x38
   20cc4:	f006 fe1c 	bl	27900 <__aeabi_memclr4>
   20cc8:	4825      	ldr	r0, [pc, #148]	@ (20d60 <_ZN18complex_no_dynamic3app17h19532d507b5225f6E+0xb4>)
   20cca:	2103      	movs	r1, #3
   20ccc:	462a      	mov	r2, r5
   20cce:	4633      	mov	r3, r6
   20cd0:	df04      	svc	4
   20cd2:	2802      	cmp	r0, #2
   20cd4:	d00e      	beq.n	20cf4 <_ZN18complex_no_dynamic3app17h19532d507b5225f6E+0x48>
   20cd6:	4822      	ldr	r0, [pc, #136]	@ (20d60 <_ZN18complex_no_dynamic3app17h19532d507b5225f6E+0xb4>)
   20cd8:	2103      	movs	r1, #3
   20cda:	aa0f      	add	r2, sp, #60	@ 0x3c
   20cdc:	2338      	movs	r3, #56	@ 0x38
   20cde:	df03      	svc	3
   20ce0:	2802      	cmp	r0, #2
   20ce2:	d007      	beq.n	20cf4 <_ZN18complex_no_dynamic3app17h19532d507b5225f6E+0x48>
   20ce4:	481e      	ldr	r0, [pc, #120]	@ (20d60 <_ZN18complex_no_dynamic3app17h19532d507b5225f6E+0xb4>)
   20ce6:	2103      	movs	r1, #3
   20ce8:	2500      	movs	r5, #0
   20cea:	460a      	mov	r2, r1
   20cec:	462b      	mov	r3, r5
   20cee:	df02      	svc	2
   20cf0:	287f      	cmp	r0, #127	@ 0x7f
   20cf2:	d814      	bhi.n	20d1e <_ZN18complex_no_dynamic3app17h19532d507b5225f6E+0x72>
   20cf4:	2501      	movs	r5, #1
   20cf6:	2d00      	cmp	r5, #0
   20cf8:	d018      	beq.n	20d2c <_ZN18complex_no_dynamic3app17h19532d507b5225f6E+0x80>
   20cfa:	2001      	movs	r0, #1
   20cfc:	7020      	strb	r0, [r4, #0]
   20cfe:	6061      	str	r1, [r4, #4]
   20d00:	4c17      	ldr	r4, [pc, #92]	@ (20d60 <_ZN18complex_no_dynamic3app17h19532d507b5225f6E+0xb4>)
   20d02:	2503      	movs	r5, #3
   20d04:	2600      	movs	r6, #0
   20d06:	4620      	mov	r0, r4
   20d08:	4629      	mov	r1, r5
   20d0a:	4632      	mov	r2, r6
   20d0c:	4633      	mov	r3, r6
   20d0e:	df03      	svc	3
   20d10:	4620      	mov	r0, r4
   20d12:	4629      	mov	r1, r5
   20d14:	4632      	mov	r2, r6
   20d16:	4633      	mov	r3, r6
   20d18:	df04      	svc	4
   20d1a:	b01d      	add	sp, #116	@ 0x74
   20d1c:	bdf0      	pop	{r4, r5, r6, r7, pc}
   20d1e:	4810      	ldr	r0, [pc, #64]	@ (20d60 <_ZN18complex_no_dynamic3app17h19532d507b5225f6E+0xb4>)
   20d20:	2103      	movs	r1, #3
   20d22:	462a      	mov	r2, r5
   20d24:	462b      	mov	r3, r5
   20d26:	df03      	svc	3
   20d28:	2d00      	cmp	r5, #0
   20d2a:	d1e6      	bne.n	20cfa <_ZN18complex_no_dynamic3app17h19532d507b5225f6E+0x4e>
   20d2c:	480c      	ldr	r0, [pc, #48]	@ (20d60 <_ZN18complex_no_dynamic3app17h19532d507b5225f6E+0xb4>)
   20d2e:	2603      	movs	r6, #3
   20d30:	2500      	movs	r5, #0
   20d32:	4631      	mov	r1, r6
   20d34:	462a      	mov	r2, r5
   20d36:	462b      	mov	r3, r5
   20d38:	df03      	svc	3
   20d3a:	1c60      	adds	r0, r4, #1
   20d3c:	a90f      	add	r1, sp, #60	@ 0x3c
   20d3e:	2238      	movs	r2, #56	@ 0x38
   20d40:	f006 ff8b 	bl	27c5a <__aeabi_memcpy>
   20d44:	7025      	strb	r5, [r4, #0]
   20d46:	4806      	ldr	r0, [pc, #24]	@ (20d60 <_ZN18complex_no_dynamic3app17h19532d507b5225f6E+0xb4>)
   20d48:	4631      	mov	r1, r6
   20d4a:	462a      	mov	r2, r5
   20d4c:	462b      	mov	r3, r5
   20d4e:	df03      	svc	3
   20d50:	4803      	ldr	r0, [pc, #12]	@ (20d60 <_ZN18complex_no_dynamic3app17h19532d507b5225f6E+0xb4>)
   20d52:	4631      	mov	r1, r6
   20d54:	462a      	mov	r2, r5
   20d56:	462b      	mov	r3, r5
   20d58:	df04      	svc	4
   20d5a:	b01d      	add	sp, #116	@ 0x74
   20d5c:	bdf0      	pop	{r4, r5, r6, r7, pc}
   20d5e:	46c0      	nop			@ (mov r8, r8)
   20d60:	00001d19 	.word	0x00001d19

00020d64 <_ZN18complex_no_dynamic3app17h1b7f6dcd960f8ddaE>:
   20d64:	b5f0      	push	{r4, r5, r6, r7, lr}
   20d66:	af03      	add	r7, sp, #12
   20d68:	b08b      	sub	sp, #44	@ 0x2c
   20d6a:	9001      	str	r0, [sp, #4]
   20d6c:	ae02      	add	r6, sp, #8
   20d6e:	240f      	movs	r4, #15
   20d70:	4630      	mov	r0, r6
   20d72:	4622      	mov	r2, r4
   20d74:	f006 ff71 	bl	27c5a <__aeabi_memcpy>
   20d78:	a806      	add	r0, sp, #24
   20d7a:	2500      	movs	r5, #0
   20d7c:	7485      	strb	r5, [r0, #18]
   20d7e:	8205      	strh	r5, [r0, #16]
   20d80:	9509      	str	r5, [sp, #36]	@ 0x24
   20d82:	9508      	str	r5, [sp, #32]
   20d84:	9507      	str	r5, [sp, #28]
   20d86:	9506      	str	r5, [sp, #24]
   20d88:	4825      	ldr	r0, [pc, #148]	@ (20e20 <_ZN18complex_no_dynamic3app17h1b7f6dcd960f8ddaE+0xbc>)
   20d8a:	2103      	movs	r1, #3
   20d8c:	4632      	mov	r2, r6
   20d8e:	4623      	mov	r3, r4
   20d90:	df04      	svc	4
   20d92:	2802      	cmp	r0, #2
   20d94:	d00e      	beq.n	20db4 <_ZN18complex_no_dynamic3app17h1b7f6dcd960f8ddaE+0x50>
   20d96:	4822      	ldr	r0, [pc, #136]	@ (20e20 <_ZN18complex_no_dynamic3app17h1b7f6dcd960f8ddaE+0xbc>)
   20d98:	2100      	movs	r1, #0
   20d9a:	aa06      	add	r2, sp, #24
   20d9c:	2313      	movs	r3, #19
   20d9e:	df03      	svc	3
   20da0:	2802      	cmp	r0, #2
   20da2:	d007      	beq.n	20db4 <_ZN18complex_no_dynamic3app17h1b7f6dcd960f8ddaE+0x50>
   20da4:	481e      	ldr	r0, [pc, #120]	@ (20e20 <_ZN18complex_no_dynamic3app17h1b7f6dcd960f8ddaE+0xbc>)
   20da6:	2103      	movs	r1, #3
   20da8:	2600      	movs	r6, #0
   20daa:	4632      	mov	r2, r6
   20dac:	4633      	mov	r3, r6
   20dae:	df02      	svc	2
   20db0:	287f      	cmp	r0, #127	@ 0x7f
   20db2:	d814      	bhi.n	20dde <_ZN18complex_no_dynamic3app17h1b7f6dcd960f8ddaE+0x7a>
   20db4:	2601      	movs	r6, #1
   20db6:	2e00      	cmp	r6, #0
   20db8:	d018      	beq.n	20dec <_ZN18complex_no_dynamic3app17h1b7f6dcd960f8ddaE+0x88>
   20dba:	2001      	movs	r0, #1
   20dbc:	9a01      	ldr	r2, [sp, #4]
   20dbe:	7010      	strb	r0, [r2, #0]
   20dc0:	6051      	str	r1, [r2, #4]
   20dc2:	4c17      	ldr	r4, [pc, #92]	@ (20e20 <_ZN18complex_no_dynamic3app17h1b7f6dcd960f8ddaE+0xbc>)
   20dc4:	2500      	movs	r5, #0
   20dc6:	4620      	mov	r0, r4
   20dc8:	4629      	mov	r1, r5
   20dca:	462a      	mov	r2, r5
   20dcc:	462b      	mov	r3, r5
   20dce:	df03      	svc	3
   20dd0:	2103      	movs	r1, #3
   20dd2:	4620      	mov	r0, r4
   20dd4:	462a      	mov	r2, r5
   20dd6:	462b      	mov	r3, r5
   20dd8:	df04      	svc	4
   20dda:	b00b      	add	sp, #44	@ 0x2c
   20ddc:	bdf0      	pop	{r4, r5, r6, r7, pc}
   20dde:	4810      	ldr	r0, [pc, #64]	@ (20e20 <_ZN18complex_no_dynamic3app17h1b7f6dcd960f8ddaE+0xbc>)
   20de0:	4631      	mov	r1, r6
   20de2:	4632      	mov	r2, r6
   20de4:	4633      	mov	r3, r6
   20de6:	df03      	svc	3
   20de8:	2e00      	cmp	r6, #0
   20dea:	d1e6      	bne.n	20dba <_ZN18complex_no_dynamic3app17h1b7f6dcd960f8ddaE+0x56>
   20dec:	4e0c      	ldr	r6, [pc, #48]	@ (20e20 <_ZN18complex_no_dynamic3app17h1b7f6dcd960f8ddaE+0xbc>)
   20dee:	4630      	mov	r0, r6
   20df0:	4629      	mov	r1, r5
   20df2:	462a      	mov	r2, r5
   20df4:	462b      	mov	r3, r5
   20df6:	df03      	svc	3
   20df8:	9c01      	ldr	r4, [sp, #4]
   20dfa:	1c60      	adds	r0, r4, #1
   20dfc:	a906      	add	r1, sp, #24
   20dfe:	2213      	movs	r2, #19
   20e00:	f006 ff2b 	bl	27c5a <__aeabi_memcpy>
   20e04:	7025      	strb	r5, [r4, #0]
   20e06:	4630      	mov	r0, r6
   20e08:	4629      	mov	r1, r5
   20e0a:	462a      	mov	r2, r5
   20e0c:	462b      	mov	r3, r5
   20e0e:	df03      	svc	3
   20e10:	2103      	movs	r1, #3
   20e12:	4630      	mov	r0, r6
   20e14:	462a      	mov	r2, r5
   20e16:	462b      	mov	r3, r5
   20e18:	df04      	svc	4
   20e1a:	b00b      	add	sp, #44	@ 0x2c
   20e1c:	bdf0      	pop	{r4, r5, r6, r7, pc}
   20e1e:	46c0      	nop			@ (mov r8, r8)
   20e20:	00001e4b 	.word	0x00001e4b

00020e24 <_ZN18complex_no_dynamic3app17h1cf3b75c0c9763faE>:
   20e24:	b5f0      	push	{r4, r5, r6, r7, lr}
   20e26:	af03      	add	r7, sp, #12
   20e28:	b08f      	sub	sp, #60	@ 0x3c
   20e2a:	9000      	str	r0, [sp, #0]
   20e2c:	ae01      	add	r6, sp, #4
   20e2e:	241a      	movs	r4, #26
   20e30:	4630      	mov	r0, r6
   20e32:	4622      	mov	r2, r4
   20e34:	f006 ff11 	bl	27c5a <__aeabi_memcpy>
   20e38:	a808      	add	r0, sp, #32
   20e3a:	2500      	movs	r5, #0
   20e3c:	7685      	strb	r5, [r0, #26]
   20e3e:	8305      	strh	r5, [r0, #24]
   20e40:	950d      	str	r5, [sp, #52]	@ 0x34
   20e42:	950c      	str	r5, [sp, #48]	@ 0x30
   20e44:	950b      	str	r5, [sp, #44]	@ 0x2c
   20e46:	950a      	str	r5, [sp, #40]	@ 0x28
   20e48:	9509      	str	r5, [sp, #36]	@ 0x24
   20e4a:	9508      	str	r5, [sp, #32]
   20e4c:	4825      	ldr	r0, [pc, #148]	@ (20ee4 <_ZN18complex_no_dynamic3app17h1cf3b75c0c9763faE+0xc0>)
   20e4e:	2105      	movs	r1, #5
   20e50:	4632      	mov	r2, r6
   20e52:	4623      	mov	r3, r4
   20e54:	df04      	svc	4
   20e56:	2802      	cmp	r0, #2
   20e58:	d00e      	beq.n	20e78 <_ZN18complex_no_dynamic3app17h1cf3b75c0c9763faE+0x54>
   20e5a:	4822      	ldr	r0, [pc, #136]	@ (20ee4 <_ZN18complex_no_dynamic3app17h1cf3b75c0c9763faE+0xc0>)
   20e5c:	2102      	movs	r1, #2
   20e5e:	aa08      	add	r2, sp, #32
   20e60:	231b      	movs	r3, #27
   20e62:	df03      	svc	3
   20e64:	2802      	cmp	r0, #2
   20e66:	d007      	beq.n	20e78 <_ZN18complex_no_dynamic3app17h1cf3b75c0c9763faE+0x54>
   20e68:	481e      	ldr	r0, [pc, #120]	@ (20ee4 <_ZN18complex_no_dynamic3app17h1cf3b75c0c9763faE+0xc0>)
   20e6a:	2105      	movs	r1, #5
   20e6c:	2202      	movs	r2, #2
   20e6e:	2600      	movs	r6, #0
   20e70:	4633      	mov	r3, r6
   20e72:	df02      	svc	2
   20e74:	287f      	cmp	r0, #127	@ 0x7f
   20e76:	d814      	bhi.n	20ea2 <_ZN18complex_no_dynamic3app17h1cf3b75c0c9763faE+0x7e>
   20e78:	2601      	movs	r6, #1
   20e7a:	2e00      	cmp	r6, #0
   20e7c:	d018      	beq.n	20eb0 <_ZN18complex_no_dynamic3app17h1cf3b75c0c9763faE+0x8c>
   20e7e:	2001      	movs	r0, #1
   20e80:	9a00      	ldr	r2, [sp, #0]
   20e82:	7010      	strb	r0, [r2, #0]
   20e84:	6051      	str	r1, [r2, #4]
   20e86:	4c17      	ldr	r4, [pc, #92]	@ (20ee4 <_ZN18complex_no_dynamic3app17h1cf3b75c0c9763faE+0xc0>)
   20e88:	2102      	movs	r1, #2
   20e8a:	2500      	movs	r5, #0
   20e8c:	4620      	mov	r0, r4
   20e8e:	462a      	mov	r2, r5
   20e90:	462b      	mov	r3, r5
   20e92:	df03      	svc	3
   20e94:	2105      	movs	r1, #5
   20e96:	4620      	mov	r0, r4
   20e98:	462a      	mov	r2, r5
   20e9a:	462b      	mov	r3, r5
   20e9c:	df04      	svc	4
   20e9e:	b00f      	add	sp, #60	@ 0x3c
   20ea0:	bdf0      	pop	{r4, r5, r6, r7, pc}
   20ea2:	4810      	ldr	r0, [pc, #64]	@ (20ee4 <_ZN18complex_no_dynamic3app17h1cf3b75c0c9763faE+0xc0>)
   20ea4:	2102      	movs	r1, #2
   20ea6:	4632      	mov	r2, r6
   20ea8:	4633      	mov	r3, r6
   20eaa:	df03      	svc	3
   20eac:	2e00      	cmp	r6, #0
   20eae:	d1e6      	bne.n	20e7e <_ZN18complex_no_dynamic3app17h1cf3b75c0c9763faE+0x5a>
   20eb0:	480c      	ldr	r0, [pc, #48]	@ (20ee4 <_ZN18complex_no_dynamic3app17h1cf3b75c0c9763faE+0xc0>)
   20eb2:	2402      	movs	r4, #2
   20eb4:	4621      	mov	r1, r4
   20eb6:	462a      	mov	r2, r5
   20eb8:	462b      	mov	r3, r5
   20eba:	df03      	svc	3
   20ebc:	9e00      	ldr	r6, [sp, #0]
   20ebe:	1c70      	adds	r0, r6, #1
   20ec0:	a908      	add	r1, sp, #32
   20ec2:	221b      	movs	r2, #27
   20ec4:	f006 fec9 	bl	27c5a <__aeabi_memcpy>
   20ec8:	7035      	strb	r5, [r6, #0]
   20eca:	4e06      	ldr	r6, [pc, #24]	@ (20ee4 <_ZN18complex_no_dynamic3app17h1cf3b75c0c9763faE+0xc0>)
   20ecc:	4630      	mov	r0, r6
   20ece:	4621      	mov	r1, r4
   20ed0:	462a      	mov	r2, r5
   20ed2:	462b      	mov	r3, r5
   20ed4:	df03      	svc	3
   20ed6:	2105      	movs	r1, #5
   20ed8:	4630      	mov	r0, r6
   20eda:	462a      	mov	r2, r5
   20edc:	462b      	mov	r3, r5
   20ede:	df04      	svc	4
   20ee0:	b00f      	add	sp, #60	@ 0x3c
   20ee2:	bdf0      	pop	{r4, r5, r6, r7, pc}
   20ee4:	00001cce 	.word	0x00001cce

00020ee8 <_ZN18complex_no_dynamic3app17h1df14fe814fdc245E>:
   20ee8:	b5f0      	push	{r4, r5, r6, r7, lr}
   20eea:	af03      	add	r7, sp, #12
   20eec:	b097      	sub	sp, #92	@ 0x5c
   20eee:	4604      	mov	r4, r0
   20ef0:	466d      	mov	r5, sp
   20ef2:	261e      	movs	r6, #30
   20ef4:	4628      	mov	r0, r5
   20ef6:	4632      	mov	r2, r6
   20ef8:	f006 feaf 	bl	27c5a <__aeabi_memcpy>
   20efc:	a808      	add	r0, sp, #32
   20efe:	213c      	movs	r1, #60	@ 0x3c
   20f00:	f006 fcfe 	bl	27900 <__aeabi_memclr4>
   20f04:	4824      	ldr	r0, [pc, #144]	@ (20f98 <_ZN18complex_no_dynamic3app17h1df14fe814fdc245E+0xb0>)
   20f06:	2102      	movs	r1, #2
   20f08:	462a      	mov	r2, r5
   20f0a:	4633      	mov	r3, r6
   20f0c:	df04      	svc	4
   20f0e:	2802      	cmp	r0, #2
   20f10:	d00e      	beq.n	20f30 <_ZN18complex_no_dynamic3app17h1df14fe814fdc245E+0x48>
   20f12:	4821      	ldr	r0, [pc, #132]	@ (20f98 <_ZN18complex_no_dynamic3app17h1df14fe814fdc245E+0xb0>)
   20f14:	2103      	movs	r1, #3
   20f16:	aa08      	add	r2, sp, #32
   20f18:	233c      	movs	r3, #60	@ 0x3c
   20f1a:	df03      	svc	3
   20f1c:	2802      	cmp	r0, #2
   20f1e:	d007      	beq.n	20f30 <_ZN18complex_no_dynamic3app17h1df14fe814fdc245E+0x48>
   20f20:	481d      	ldr	r0, [pc, #116]	@ (20f98 <_ZN18complex_no_dynamic3app17h1df14fe814fdc245E+0xb0>)
   20f22:	2102      	movs	r1, #2
   20f24:	2203      	movs	r2, #3
   20f26:	2500      	movs	r5, #0
   20f28:	462b      	mov	r3, r5
   20f2a:	df02      	svc	2
   20f2c:	287f      	cmp	r0, #127	@ 0x7f
   20f2e:	d813      	bhi.n	20f58 <_ZN18complex_no_dynamic3app17h1df14fe814fdc245E+0x70>
   20f30:	2501      	movs	r5, #1
   20f32:	2d00      	cmp	r5, #0
   20f34:	d017      	beq.n	20f66 <_ZN18complex_no_dynamic3app17h1df14fe814fdc245E+0x7e>
   20f36:	2001      	movs	r0, #1
   20f38:	7020      	strb	r0, [r4, #0]
   20f3a:	6061      	str	r1, [r4, #4]
   20f3c:	4c16      	ldr	r4, [pc, #88]	@ (20f98 <_ZN18complex_no_dynamic3app17h1df14fe814fdc245E+0xb0>)
   20f3e:	2103      	movs	r1, #3
   20f40:	2500      	movs	r5, #0
   20f42:	4620      	mov	r0, r4
   20f44:	462a      	mov	r2, r5
   20f46:	462b      	mov	r3, r5
   20f48:	df03      	svc	3
   20f4a:	2102      	movs	r1, #2
   20f4c:	4620      	mov	r0, r4
   20f4e:	462a      	mov	r2, r5
   20f50:	462b      	mov	r3, r5
   20f52:	df04      	svc	4
   20f54:	b017      	add	sp, #92	@ 0x5c
   20f56:	bdf0      	pop	{r4, r5, r6, r7, pc}
   20f58:	480f      	ldr	r0, [pc, #60]	@ (20f98 <_ZN18complex_no_dynamic3app17h1df14fe814fdc245E+0xb0>)
   20f5a:	2103      	movs	r1, #3
   20f5c:	462a      	mov	r2, r5
   20f5e:	462b      	mov	r3, r5
   20f60:	df03      	svc	3
   20f62:	2d00      	cmp	r5, #0
   20f64:	d1e7      	bne.n	20f36 <_ZN18complex_no_dynamic3app17h1df14fe814fdc245E+0x4e>
   20f66:	480c      	ldr	r0, [pc, #48]	@ (20f98 <_ZN18complex_no_dynamic3app17h1df14fe814fdc245E+0xb0>)
   20f68:	2603      	movs	r6, #3
   20f6a:	2500      	movs	r5, #0
   20f6c:	4631      	mov	r1, r6
   20f6e:	462a      	mov	r2, r5
   20f70:	462b      	mov	r3, r5
   20f72:	df03      	svc	3
   20f74:	1c60      	adds	r0, r4, #1
   20f76:	a908      	add	r1, sp, #32
   20f78:	223c      	movs	r2, #60	@ 0x3c
   20f7a:	f006 fe6e 	bl	27c5a <__aeabi_memcpy>
   20f7e:	7025      	strb	r5, [r4, #0]
   20f80:	4805      	ldr	r0, [pc, #20]	@ (20f98 <_ZN18complex_no_dynamic3app17h1df14fe814fdc245E+0xb0>)
   20f82:	4631      	mov	r1, r6
   20f84:	462a      	mov	r2, r5
   20f86:	462b      	mov	r3, r5
   20f88:	df03      	svc	3
   20f8a:	2102      	movs	r1, #2
   20f8c:	4802      	ldr	r0, [pc, #8]	@ (20f98 <_ZN18complex_no_dynamic3app17h1df14fe814fdc245E+0xb0>)
   20f8e:	462a      	mov	r2, r5
   20f90:	462b      	mov	r3, r5
   20f92:	df04      	svc	4
   20f94:	b017      	add	sp, #92	@ 0x5c
   20f96:	bdf0      	pop	{r4, r5, r6, r7, pc}
   20f98:	00000b3c 	.word	0x00000b3c

00020f9c <_ZN18complex_no_dynamic3app17h1e828c2531e168e7E>:
   20f9c:	b5f0      	push	{r4, r5, r6, r7, lr}
   20f9e:	af03      	add	r7, sp, #12
   20fa0:	b0a5      	sub	sp, #148	@ 0x94
   20fa2:	4604      	mov	r4, r0
   20fa4:	ad01      	add	r5, sp, #4
   20fa6:	262a      	movs	r6, #42	@ 0x2a
   20fa8:	4628      	mov	r0, r5
   20faa:	4632      	mov	r2, r6
   20fac:	f006 fe55 	bl	27c5a <__aeabi_memcpy>
   20fb0:	a80c      	add	r0, sp, #48	@ 0x30
   20fb2:	2163      	movs	r1, #99	@ 0x63
   20fb4:	f006 fca4 	bl	27900 <__aeabi_memclr4>
   20fb8:	4824      	ldr	r0, [pc, #144]	@ (2104c <_ZN18complex_no_dynamic3app17h1e828c2531e168e7E+0xb0>)
   20fba:	2104      	movs	r1, #4
   20fbc:	462a      	mov	r2, r5
   20fbe:	4633      	mov	r3, r6
   20fc0:	df04      	svc	4
   20fc2:	2802      	cmp	r0, #2
   20fc4:	d00e      	beq.n	20fe4 <_ZN18complex_no_dynamic3app17h1e828c2531e168e7E+0x48>
   20fc6:	4821      	ldr	r0, [pc, #132]	@ (2104c <_ZN18complex_no_dynamic3app17h1e828c2531e168e7E+0xb0>)
   20fc8:	2100      	movs	r1, #0
   20fca:	aa0c      	add	r2, sp, #48	@ 0x30
   20fcc:	2363      	movs	r3, #99	@ 0x63
   20fce:	df03      	svc	3
   20fd0:	2802      	cmp	r0, #2
   20fd2:	d007      	beq.n	20fe4 <_ZN18complex_no_dynamic3app17h1e828c2531e168e7E+0x48>
   20fd4:	481d      	ldr	r0, [pc, #116]	@ (2104c <_ZN18complex_no_dynamic3app17h1e828c2531e168e7E+0xb0>)
   20fd6:	2104      	movs	r1, #4
   20fd8:	2500      	movs	r5, #0
   20fda:	462a      	mov	r2, r5
   20fdc:	462b      	mov	r3, r5
   20fde:	df02      	svc	2
   20fe0:	287f      	cmp	r0, #127	@ 0x7f
   20fe2:	d813      	bhi.n	2100c <_ZN18complex_no_dynamic3app17h1e828c2531e168e7E+0x70>
   20fe4:	2501      	movs	r5, #1
   20fe6:	2d00      	cmp	r5, #0
   20fe8:	d017      	beq.n	2101a <_ZN18complex_no_dynamic3app17h1e828c2531e168e7E+0x7e>
   20fea:	2001      	movs	r0, #1
   20fec:	7020      	strb	r0, [r4, #0]
   20fee:	6061      	str	r1, [r4, #4]
   20ff0:	4c16      	ldr	r4, [pc, #88]	@ (2104c <_ZN18complex_no_dynamic3app17h1e828c2531e168e7E+0xb0>)
   20ff2:	2500      	movs	r5, #0
   20ff4:	4620      	mov	r0, r4
   20ff6:	4629      	mov	r1, r5
   20ff8:	462a      	mov	r2, r5
   20ffa:	462b      	mov	r3, r5
   20ffc:	df03      	svc	3
   20ffe:	2104      	movs	r1, #4
   21000:	4620      	mov	r0, r4
   21002:	462a      	mov	r2, r5
   21004:	462b      	mov	r3, r5
   21006:	df04      	svc	4
   21008:	b025      	add	sp, #148	@ 0x94
   2100a:	bdf0      	pop	{r4, r5, r6, r7, pc}
   2100c:	480f      	ldr	r0, [pc, #60]	@ (2104c <_ZN18complex_no_dynamic3app17h1e828c2531e168e7E+0xb0>)
   2100e:	4629      	mov	r1, r5
   21010:	462a      	mov	r2, r5
   21012:	462b      	mov	r3, r5
   21014:	df03      	svc	3
   21016:	2d00      	cmp	r5, #0
   21018:	d1e7      	bne.n	20fea <_ZN18complex_no_dynamic3app17h1e828c2531e168e7E+0x4e>
   2101a:	4e0c      	ldr	r6, [pc, #48]	@ (2104c <_ZN18complex_no_dynamic3app17h1e828c2531e168e7E+0xb0>)
   2101c:	2500      	movs	r5, #0
   2101e:	4630      	mov	r0, r6
   21020:	4629      	mov	r1, r5
   21022:	462a      	mov	r2, r5
   21024:	462b      	mov	r3, r5
   21026:	df03      	svc	3
   21028:	1c60      	adds	r0, r4, #1
   2102a:	a90c      	add	r1, sp, #48	@ 0x30
   2102c:	2263      	movs	r2, #99	@ 0x63
   2102e:	f006 fe14 	bl	27c5a <__aeabi_memcpy>
   21032:	7025      	strb	r5, [r4, #0]
   21034:	4630      	mov	r0, r6
   21036:	4629      	mov	r1, r5
   21038:	462a      	mov	r2, r5
   2103a:	462b      	mov	r3, r5
   2103c:	df03      	svc	3
   2103e:	2104      	movs	r1, #4
   21040:	4630      	mov	r0, r6
   21042:	462a      	mov	r2, r5
   21044:	462b      	mov	r3, r5
   21046:	df04      	svc	4
   21048:	b025      	add	sp, #148	@ 0x94
   2104a:	bdf0      	pop	{r4, r5, r6, r7, pc}
   2104c:	00001c7c 	.word	0x00001c7c

00021050 <_ZN18complex_no_dynamic3app17h2141961facaaf98bE>:
   21050:	b5f0      	push	{r4, r5, r6, r7, lr}
   21052:	af03      	add	r7, sp, #12
   21054:	b093      	sub	sp, #76	@ 0x4c
   21056:	9000      	str	r0, [sp, #0]
   21058:	ae01      	add	r6, sp, #4
   2105a:	2429      	movs	r4, #41	@ 0x29
   2105c:	4630      	mov	r0, r6
   2105e:	4622      	mov	r2, r4
   21060:	f006 fdfb 	bl	27c5a <__aeabi_memcpy>
   21064:	a80c      	add	r0, sp, #48	@ 0x30
   21066:	2500      	movs	r5, #0
   21068:	8305      	strh	r5, [r0, #24]
   2106a:	9511      	str	r5, [sp, #68]	@ 0x44
   2106c:	9510      	str	r5, [sp, #64]	@ 0x40
   2106e:	950f      	str	r5, [sp, #60]	@ 0x3c
   21070:	950e      	str	r5, [sp, #56]	@ 0x38
   21072:	950d      	str	r5, [sp, #52]	@ 0x34
   21074:	950c      	str	r5, [sp, #48]	@ 0x30
   21076:	4826      	ldr	r0, [pc, #152]	@ (21110 <_ZN18complex_no_dynamic3app17h2141961facaaf98bE+0xc0>)
   21078:	2105      	movs	r1, #5
   2107a:	4632      	mov	r2, r6
   2107c:	4623      	mov	r3, r4
   2107e:	df04      	svc	4
   21080:	2802      	cmp	r0, #2
   21082:	d00e      	beq.n	210a2 <_ZN18complex_no_dynamic3app17h2141961facaaf98bE+0x52>
   21084:	4822      	ldr	r0, [pc, #136]	@ (21110 <_ZN18complex_no_dynamic3app17h2141961facaaf98bE+0xc0>)
   21086:	2103      	movs	r1, #3
   21088:	aa0c      	add	r2, sp, #48	@ 0x30
   2108a:	231a      	movs	r3, #26
   2108c:	df03      	svc	3
   2108e:	2802      	cmp	r0, #2
   21090:	d007      	beq.n	210a2 <_ZN18complex_no_dynamic3app17h2141961facaaf98bE+0x52>
   21092:	481f      	ldr	r0, [pc, #124]	@ (21110 <_ZN18complex_no_dynamic3app17h2141961facaaf98bE+0xc0>)
   21094:	2105      	movs	r1, #5
   21096:	2203      	movs	r2, #3
   21098:	2600      	movs	r6, #0
   2109a:	4633      	mov	r3, r6
   2109c:	df02      	svc	2
   2109e:	287f      	cmp	r0, #127	@ 0x7f
   210a0:	d814      	bhi.n	210cc <_ZN18complex_no_dynamic3app17h2141961facaaf98bE+0x7c>
   210a2:	2601      	movs	r6, #1
   210a4:	2e00      	cmp	r6, #0
   210a6:	d018      	beq.n	210da <_ZN18complex_no_dynamic3app17h2141961facaaf98bE+0x8a>
   210a8:	2001      	movs	r0, #1
   210aa:	9a00      	ldr	r2, [sp, #0]
   210ac:	7010      	strb	r0, [r2, #0]
   210ae:	6051      	str	r1, [r2, #4]
   210b0:	4c17      	ldr	r4, [pc, #92]	@ (21110 <_ZN18complex_no_dynamic3app17h2141961facaaf98bE+0xc0>)
   210b2:	2103      	movs	r1, #3
   210b4:	2500      	movs	r5, #0
   210b6:	4620      	mov	r0, r4
   210b8:	462a      	mov	r2, r5
   210ba:	462b      	mov	r3, r5
   210bc:	df03      	svc	3
   210be:	2105      	movs	r1, #5
   210c0:	4620      	mov	r0, r4
   210c2:	462a      	mov	r2, r5
   210c4:	462b      	mov	r3, r5
   210c6:	df04      	svc	4
   210c8:	b013      	add	sp, #76	@ 0x4c
   210ca:	bdf0      	pop	{r4, r5, r6, r7, pc}
   210cc:	4810      	ldr	r0, [pc, #64]	@ (21110 <_ZN18complex_no_dynamic3app17h2141961facaaf98bE+0xc0>)
   210ce:	2103      	movs	r1, #3
   210d0:	4632      	mov	r2, r6
   210d2:	4633      	mov	r3, r6
   210d4:	df03      	svc	3
   210d6:	2e00      	cmp	r6, #0
   210d8:	d1e6      	bne.n	210a8 <_ZN18complex_no_dynamic3app17h2141961facaaf98bE+0x58>
   210da:	480d      	ldr	r0, [pc, #52]	@ (21110 <_ZN18complex_no_dynamic3app17h2141961facaaf98bE+0xc0>)
   210dc:	2403      	movs	r4, #3
   210de:	4621      	mov	r1, r4
   210e0:	462a      	mov	r2, r5
   210e2:	462b      	mov	r3, r5
   210e4:	df03      	svc	3
   210e6:	9e00      	ldr	r6, [sp, #0]
   210e8:	1c70      	adds	r0, r6, #1
   210ea:	a90c      	add	r1, sp, #48	@ 0x30
   210ec:	221a      	movs	r2, #26
   210ee:	f006 fdb4 	bl	27c5a <__aeabi_memcpy>
   210f2:	7035      	strb	r5, [r6, #0]
   210f4:	4e06      	ldr	r6, [pc, #24]	@ (21110 <_ZN18complex_no_dynamic3app17h2141961facaaf98bE+0xc0>)
   210f6:	4630      	mov	r0, r6
   210f8:	4621      	mov	r1, r4
   210fa:	462a      	mov	r2, r5
   210fc:	462b      	mov	r3, r5
   210fe:	df03      	svc	3
   21100:	2105      	movs	r1, #5
   21102:	4630      	mov	r0, r6
   21104:	462a      	mov	r2, r5
   21106:	462b      	mov	r3, r5
   21108:	df04      	svc	4
   2110a:	b013      	add	sp, #76	@ 0x4c
   2110c:	bdf0      	pop	{r4, r5, r6, r7, pc}
   2110e:	46c0      	nop			@ (mov r8, r8)
   21110:	00002048 	.word	0x00002048

00021114 <_ZN18complex_no_dynamic3app17h217e4dbaffe8ac6aE>:
   21114:	b5f0      	push	{r4, r5, r6, r7, lr}
   21116:	af03      	add	r7, sp, #12
   21118:	b091      	sub	sp, #68	@ 0x44
   2111a:	9001      	str	r0, [sp, #4]
   2111c:	ae02      	add	r6, sp, #8
   2111e:	242b      	movs	r4, #43	@ 0x2b
   21120:	4630      	mov	r0, r6
   21122:	4622      	mov	r2, r4
   21124:	f006 fd99 	bl	27c5a <__aeabi_memcpy>
   21128:	a80d      	add	r0, sp, #52	@ 0x34
   2112a:	2500      	movs	r5, #0
   2112c:	7305      	strb	r5, [r0, #12]
   2112e:	950f      	str	r5, [sp, #60]	@ 0x3c
   21130:	950e      	str	r5, [sp, #56]	@ 0x38
   21132:	950d      	str	r5, [sp, #52]	@ 0x34
   21134:	4825      	ldr	r0, [pc, #148]	@ (211cc <_ZN18complex_no_dynamic3app17h217e4dbaffe8ac6aE+0xb8>)
   21136:	2106      	movs	r1, #6
   21138:	4632      	mov	r2, r6
   2113a:	4623      	mov	r3, r4
   2113c:	df04      	svc	4
   2113e:	2802      	cmp	r0, #2
   21140:	d00e      	beq.n	21160 <_ZN18complex_no_dynamic3app17h217e4dbaffe8ac6aE+0x4c>
   21142:	4822      	ldr	r0, [pc, #136]	@ (211cc <_ZN18complex_no_dynamic3app17h217e4dbaffe8ac6aE+0xb8>)
   21144:	2100      	movs	r1, #0
   21146:	aa0d      	add	r2, sp, #52	@ 0x34
   21148:	230d      	movs	r3, #13
   2114a:	df03      	svc	3
   2114c:	2802      	cmp	r0, #2
   2114e:	d007      	beq.n	21160 <_ZN18complex_no_dynamic3app17h217e4dbaffe8ac6aE+0x4c>
   21150:	481e      	ldr	r0, [pc, #120]	@ (211cc <_ZN18complex_no_dynamic3app17h217e4dbaffe8ac6aE+0xb8>)
   21152:	2106      	movs	r1, #6
   21154:	2600      	movs	r6, #0
   21156:	4632      	mov	r2, r6
   21158:	4633      	mov	r3, r6
   2115a:	df02      	svc	2
   2115c:	287f      	cmp	r0, #127	@ 0x7f
   2115e:	d814      	bhi.n	2118a <_ZN18complex_no_dynamic3app17h217e4dbaffe8ac6aE+0x76>
   21160:	2601      	movs	r6, #1
   21162:	2e00      	cmp	r6, #0
   21164:	d018      	beq.n	21198 <_ZN18complex_no_dynamic3app17h217e4dbaffe8ac6aE+0x84>
   21166:	2001      	movs	r0, #1
   21168:	9a01      	ldr	r2, [sp, #4]
   2116a:	7010      	strb	r0, [r2, #0]
   2116c:	6051      	str	r1, [r2, #4]
   2116e:	4c17      	ldr	r4, [pc, #92]	@ (211cc <_ZN18complex_no_dynamic3app17h217e4dbaffe8ac6aE+0xb8>)
   21170:	2500      	movs	r5, #0
   21172:	4620      	mov	r0, r4
   21174:	4629      	mov	r1, r5
   21176:	462a      	mov	r2, r5
   21178:	462b      	mov	r3, r5
   2117a:	df03      	svc	3
   2117c:	2106      	movs	r1, #6
   2117e:	4620      	mov	r0, r4
   21180:	462a      	mov	r2, r5
   21182:	462b      	mov	r3, r5
   21184:	df04      	svc	4
   21186:	b011      	add	sp, #68	@ 0x44
   21188:	bdf0      	pop	{r4, r5, r6, r7, pc}
   2118a:	4810      	ldr	r0, [pc, #64]	@ (211cc <_ZN18complex_no_dynamic3app17h217e4dbaffe8ac6aE+0xb8>)
   2118c:	4631      	mov	r1, r6
   2118e:	4632      	mov	r2, r6
   21190:	4633      	mov	r3, r6
   21192:	df03      	svc	3
   21194:	2e00      	cmp	r6, #0
   21196:	d1e6      	bne.n	21166 <_ZN18complex_no_dynamic3app17h217e4dbaffe8ac6aE+0x52>
   21198:	4e0c      	ldr	r6, [pc, #48]	@ (211cc <_ZN18complex_no_dynamic3app17h217e4dbaffe8ac6aE+0xb8>)
   2119a:	4630      	mov	r0, r6
   2119c:	4629      	mov	r1, r5
   2119e:	462a      	mov	r2, r5
   211a0:	462b      	mov	r3, r5
   211a2:	df03      	svc	3
   211a4:	9c01      	ldr	r4, [sp, #4]
   211a6:	1c60      	adds	r0, r4, #1
   211a8:	a90d      	add	r1, sp, #52	@ 0x34
   211aa:	220d      	movs	r2, #13
   211ac:	f006 fd55 	bl	27c5a <__aeabi_memcpy>
   211b0:	7025      	strb	r5, [r4, #0]
   211b2:	4630      	mov	r0, r6
   211b4:	4629      	mov	r1, r5
   211b6:	462a      	mov	r2, r5
   211b8:	462b      	mov	r3, r5
   211ba:	df03      	svc	3
   211bc:	2106      	movs	r1, #6
   211be:	4630      	mov	r0, r6
   211c0:	462a      	mov	r2, r5
   211c2:	462b      	mov	r3, r5
   211c4:	df04      	svc	4
   211c6:	b011      	add	sp, #68	@ 0x44
   211c8:	bdf0      	pop	{r4, r5, r6, r7, pc}
   211ca:	46c0      	nop			@ (mov r8, r8)
   211cc:	00001465 	.word	0x00001465

000211d0 <_ZN18complex_no_dynamic3app17h273409a09a053cddE>:
   211d0:	b5f0      	push	{r4, r5, r6, r7, lr}
   211d2:	af03      	add	r7, sp, #12
   211d4:	b097      	sub	sp, #92	@ 0x5c
   211d6:	4604      	mov	r4, r0
   211d8:	ad01      	add	r5, sp, #4
   211da:	260f      	movs	r6, #15
   211dc:	4628      	mov	r0, r5
   211de:	4632      	mov	r2, r6
   211e0:	f006 fd3b 	bl	27c5a <__aeabi_memcpy>
   211e4:	a805      	add	r0, sp, #20
   211e6:	2146      	movs	r1, #70	@ 0x46
   211e8:	f006 fb8a 	bl	27900 <__aeabi_memclr4>
   211ec:	4824      	ldr	r0, [pc, #144]	@ (21280 <_ZN18complex_no_dynamic3app17h273409a09a053cddE+0xb0>)
   211ee:	2109      	movs	r1, #9
   211f0:	462a      	mov	r2, r5
   211f2:	4633      	mov	r3, r6
   211f4:	df04      	svc	4
   211f6:	2802      	cmp	r0, #2
   211f8:	d00e      	beq.n	21218 <_ZN18complex_no_dynamic3app17h273409a09a053cddE+0x48>
   211fa:	4821      	ldr	r0, [pc, #132]	@ (21280 <_ZN18complex_no_dynamic3app17h273409a09a053cddE+0xb0>)
   211fc:	2102      	movs	r1, #2
   211fe:	aa05      	add	r2, sp, #20
   21200:	2346      	movs	r3, #70	@ 0x46
   21202:	df03      	svc	3
   21204:	2802      	cmp	r0, #2
   21206:	d007      	beq.n	21218 <_ZN18complex_no_dynamic3app17h273409a09a053cddE+0x48>
   21208:	481d      	ldr	r0, [pc, #116]	@ (21280 <_ZN18complex_no_dynamic3app17h273409a09a053cddE+0xb0>)
   2120a:	2109      	movs	r1, #9
   2120c:	2202      	movs	r2, #2
   2120e:	2500      	movs	r5, #0
   21210:	462b      	mov	r3, r5
   21212:	df02      	svc	2
   21214:	287f      	cmp	r0, #127	@ 0x7f
   21216:	d813      	bhi.n	21240 <_ZN18complex_no_dynamic3app17h273409a09a053cddE+0x70>
   21218:	2501      	movs	r5, #1
   2121a:	2d00      	cmp	r5, #0
   2121c:	d017      	beq.n	2124e <_ZN18complex_no_dynamic3app17h273409a09a053cddE+0x7e>
   2121e:	2001      	movs	r0, #1
   21220:	7020      	strb	r0, [r4, #0]
   21222:	6061      	str	r1, [r4, #4]
   21224:	4c16      	ldr	r4, [pc, #88]	@ (21280 <_ZN18complex_no_dynamic3app17h273409a09a053cddE+0xb0>)
   21226:	2102      	movs	r1, #2
   21228:	2500      	movs	r5, #0
   2122a:	4620      	mov	r0, r4
   2122c:	462a      	mov	r2, r5
   2122e:	462b      	mov	r3, r5
   21230:	df03      	svc	3
   21232:	2109      	movs	r1, #9
   21234:	4620      	mov	r0, r4
   21236:	462a      	mov	r2, r5
   21238:	462b      	mov	r3, r5
   2123a:	df04      	svc	4
   2123c:	b017      	add	sp, #92	@ 0x5c
   2123e:	bdf0      	pop	{r4, r5, r6, r7, pc}
   21240:	480f      	ldr	r0, [pc, #60]	@ (21280 <_ZN18complex_no_dynamic3app17h273409a09a053cddE+0xb0>)
   21242:	2102      	movs	r1, #2
   21244:	462a      	mov	r2, r5
   21246:	462b      	mov	r3, r5
   21248:	df03      	svc	3
   2124a:	2d00      	cmp	r5, #0
   2124c:	d1e7      	bne.n	2121e <_ZN18complex_no_dynamic3app17h273409a09a053cddE+0x4e>
   2124e:	480c      	ldr	r0, [pc, #48]	@ (21280 <_ZN18complex_no_dynamic3app17h273409a09a053cddE+0xb0>)
   21250:	2602      	movs	r6, #2
   21252:	2500      	movs	r5, #0
   21254:	4631      	mov	r1, r6
   21256:	462a      	mov	r2, r5
   21258:	462b      	mov	r3, r5
   2125a:	df03      	svc	3
   2125c:	1c60      	adds	r0, r4, #1
   2125e:	a905      	add	r1, sp, #20
   21260:	2246      	movs	r2, #70	@ 0x46
   21262:	f006 fcfa 	bl	27c5a <__aeabi_memcpy>
   21266:	7025      	strb	r5, [r4, #0]
   21268:	4805      	ldr	r0, [pc, #20]	@ (21280 <_ZN18complex_no_dynamic3app17h273409a09a053cddE+0xb0>)
   2126a:	4631      	mov	r1, r6
   2126c:	462a      	mov	r2, r5
   2126e:	462b      	mov	r3, r5
   21270:	df03      	svc	3
   21272:	2109      	movs	r1, #9
   21274:	4802      	ldr	r0, [pc, #8]	@ (21280 <_ZN18complex_no_dynamic3app17h273409a09a053cddE+0xb0>)
   21276:	462a      	mov	r2, r5
   21278:	462b      	mov	r3, r5
   2127a:	df04      	svc	4
   2127c:	b017      	add	sp, #92	@ 0x5c
   2127e:	bdf0      	pop	{r4, r5, r6, r7, pc}
   21280:	00001d7e 	.word	0x00001d7e

00021284 <_ZN18complex_no_dynamic3app17h289cee8e40e8337eE>:
   21284:	b5f0      	push	{r4, r5, r6, r7, lr}
   21286:	af03      	add	r7, sp, #12
   21288:	b0a1      	sub	sp, #132	@ 0x84
   2128a:	4604      	mov	r4, r0
   2128c:	ad01      	add	r5, sp, #4
   2128e:	261b      	movs	r6, #27
   21290:	4628      	mov	r0, r5
   21292:	4632      	mov	r2, r6
   21294:	f006 fce1 	bl	27c5a <__aeabi_memcpy>
   21298:	a808      	add	r0, sp, #32
   2129a:	2163      	movs	r1, #99	@ 0x63
   2129c:	f006 fb30 	bl	27900 <__aeabi_memclr4>
   212a0:	4825      	ldr	r0, [pc, #148]	@ (21338 <_ZN18complex_no_dynamic3app17h289cee8e40e8337eE+0xb4>)
   212a2:	2103      	movs	r1, #3
   212a4:	462a      	mov	r2, r5
   212a6:	4633      	mov	r3, r6
   212a8:	df04      	svc	4
   212aa:	2802      	cmp	r0, #2
   212ac:	d00e      	beq.n	212cc <_ZN18complex_no_dynamic3app17h289cee8e40e8337eE+0x48>
   212ae:	4822      	ldr	r0, [pc, #136]	@ (21338 <_ZN18complex_no_dynamic3app17h289cee8e40e8337eE+0xb4>)
   212b0:	2103      	movs	r1, #3
   212b2:	aa08      	add	r2, sp, #32
   212b4:	2363      	movs	r3, #99	@ 0x63
   212b6:	df03      	svc	3
   212b8:	2802      	cmp	r0, #2
   212ba:	d007      	beq.n	212cc <_ZN18complex_no_dynamic3app17h289cee8e40e8337eE+0x48>
   212bc:	481e      	ldr	r0, [pc, #120]	@ (21338 <_ZN18complex_no_dynamic3app17h289cee8e40e8337eE+0xb4>)
   212be:	2103      	movs	r1, #3
   212c0:	2500      	movs	r5, #0
   212c2:	460a      	mov	r2, r1
   212c4:	462b      	mov	r3, r5
   212c6:	df02      	svc	2
   212c8:	287f      	cmp	r0, #127	@ 0x7f
   212ca:	d814      	bhi.n	212f6 <_ZN18complex_no_dynamic3app17h289cee8e40e8337eE+0x72>
   212cc:	2501      	movs	r5, #1
   212ce:	2d00      	cmp	r5, #0
   212d0:	d018      	beq.n	21304 <_ZN18complex_no_dynamic3app17h289cee8e40e8337eE+0x80>
   212d2:	2001      	movs	r0, #1
   212d4:	7020      	strb	r0, [r4, #0]
   212d6:	6061      	str	r1, [r4, #4]
   212d8:	4c17      	ldr	r4, [pc, #92]	@ (21338 <_ZN18complex_no_dynamic3app17h289cee8e40e8337eE+0xb4>)
   212da:	2503      	movs	r5, #3
   212dc:	2600      	movs	r6, #0
   212de:	4620      	mov	r0, r4
   212e0:	4629      	mov	r1, r5
   212e2:	4632      	mov	r2, r6
   212e4:	4633      	mov	r3, r6
   212e6:	df03      	svc	3
   212e8:	4620      	mov	r0, r4
   212ea:	4629      	mov	r1, r5
   212ec:	4632      	mov	r2, r6
   212ee:	4633      	mov	r3, r6
   212f0:	df04      	svc	4
   212f2:	b021      	add	sp, #132	@ 0x84
   212f4:	bdf0      	pop	{r4, r5, r6, r7, pc}
   212f6:	4810      	ldr	r0, [pc, #64]	@ (21338 <_ZN18complex_no_dynamic3app17h289cee8e40e8337eE+0xb4>)
   212f8:	2103      	movs	r1, #3
   212fa:	462a      	mov	r2, r5
   212fc:	462b      	mov	r3, r5
   212fe:	df03      	svc	3
   21300:	2d00      	cmp	r5, #0
   21302:	d1e6      	bne.n	212d2 <_ZN18complex_no_dynamic3app17h289cee8e40e8337eE+0x4e>
   21304:	480c      	ldr	r0, [pc, #48]	@ (21338 <_ZN18complex_no_dynamic3app17h289cee8e40e8337eE+0xb4>)
   21306:	2603      	movs	r6, #3
   21308:	2500      	movs	r5, #0
   2130a:	4631      	mov	r1, r6
   2130c:	462a      	mov	r2, r5
   2130e:	462b      	mov	r3, r5
   21310:	df03      	svc	3
   21312:	1c60      	adds	r0, r4, #1
   21314:	a908      	add	r1, sp, #32
   21316:	2263      	movs	r2, #99	@ 0x63
   21318:	f006 fc9f 	bl	27c5a <__aeabi_memcpy>
   2131c:	7025      	strb	r5, [r4, #0]
   2131e:	4806      	ldr	r0, [pc, #24]	@ (21338 <_ZN18complex_no_dynamic3app17h289cee8e40e8337eE+0xb4>)
   21320:	4631      	mov	r1, r6
   21322:	462a      	mov	r2, r5
   21324:	462b      	mov	r3, r5
   21326:	df03      	svc	3
   21328:	4803      	ldr	r0, [pc, #12]	@ (21338 <_ZN18complex_no_dynamic3app17h289cee8e40e8337eE+0xb4>)
   2132a:	4631      	mov	r1, r6
   2132c:	462a      	mov	r2, r5
   2132e:	462b      	mov	r3, r5
   21330:	df04      	svc	4
   21332:	b021      	add	sp, #132	@ 0x84
   21334:	bdf0      	pop	{r4, r5, r6, r7, pc}
   21336:	46c0      	nop			@ (mov r8, r8)
   21338:	00002548 	.word	0x00002548

0002133c <_ZN18complex_no_dynamic3app17h2a283b63e943c6f1E>:
   2133c:	b5f0      	push	{r4, r5, r6, r7, lr}
   2133e:	af03      	add	r7, sp, #12
   21340:	b09f      	sub	sp, #124	@ 0x7c
   21342:	9001      	str	r0, [sp, #4]
   21344:	ae02      	add	r6, sp, #8
   21346:	245d      	movs	r4, #93	@ 0x5d
   21348:	4630      	mov	r0, r6
   2134a:	4622      	mov	r2, r4
   2134c:	f006 fc85 	bl	27c5a <__aeabi_memcpy>
   21350:	a81a      	add	r0, sp, #104	@ 0x68
   21352:	2500      	movs	r5, #0
   21354:	8205      	strh	r5, [r0, #16]
   21356:	951d      	str	r5, [sp, #116]	@ 0x74
   21358:	951c      	str	r5, [sp, #112]	@ 0x70
   2135a:	951b      	str	r5, [sp, #108]	@ 0x6c
   2135c:	951a      	str	r5, [sp, #104]	@ 0x68
   2135e:	4826      	ldr	r0, [pc, #152]	@ (213f8 <_ZN18complex_no_dynamic3app17h2a283b63e943c6f1E+0xbc>)
   21360:	4629      	mov	r1, r5
   21362:	4632      	mov	r2, r6
   21364:	4623      	mov	r3, r4
   21366:	df04      	svc	4
   21368:	2802      	cmp	r0, #2
   2136a:	d00e      	beq.n	2138a <_ZN18complex_no_dynamic3app17h2a283b63e943c6f1E+0x4e>
   2136c:	4822      	ldr	r0, [pc, #136]	@ (213f8 <_ZN18complex_no_dynamic3app17h2a283b63e943c6f1E+0xbc>)
   2136e:	2102      	movs	r1, #2
   21370:	aa1a      	add	r2, sp, #104	@ 0x68
   21372:	2312      	movs	r3, #18
   21374:	df03      	svc	3
   21376:	2802      	cmp	r0, #2
   21378:	d007      	beq.n	2138a <_ZN18complex_no_dynamic3app17h2a283b63e943c6f1E+0x4e>
   2137a:	481f      	ldr	r0, [pc, #124]	@ (213f8 <_ZN18complex_no_dynamic3app17h2a283b63e943c6f1E+0xbc>)
   2137c:	2202      	movs	r2, #2
   2137e:	2600      	movs	r6, #0
   21380:	4631      	mov	r1, r6
   21382:	4633      	mov	r3, r6
   21384:	df02      	svc	2
   21386:	287f      	cmp	r0, #127	@ 0x7f
   21388:	d814      	bhi.n	213b4 <_ZN18complex_no_dynamic3app17h2a283b63e943c6f1E+0x78>
   2138a:	2601      	movs	r6, #1
   2138c:	2e00      	cmp	r6, #0
   2138e:	d018      	beq.n	213c2 <_ZN18complex_no_dynamic3app17h2a283b63e943c6f1E+0x86>
   21390:	2001      	movs	r0, #1
   21392:	9a01      	ldr	r2, [sp, #4]
   21394:	7010      	strb	r0, [r2, #0]
   21396:	6051      	str	r1, [r2, #4]
   21398:	4c17      	ldr	r4, [pc, #92]	@ (213f8 <_ZN18complex_no_dynamic3app17h2a283b63e943c6f1E+0xbc>)
   2139a:	2102      	movs	r1, #2
   2139c:	2500      	movs	r5, #0
   2139e:	4620      	mov	r0, r4
   213a0:	462a      	mov	r2, r5
   213a2:	462b      	mov	r3, r5
   213a4:	df03      	svc	3
   213a6:	4620      	mov	r0, r4
   213a8:	4629      	mov	r1, r5
   213aa:	462a      	mov	r2, r5
   213ac:	462b      	mov	r3, r5
   213ae:	df04      	svc	4
   213b0:	b01f      	add	sp, #124	@ 0x7c
   213b2:	bdf0      	pop	{r4, r5, r6, r7, pc}
   213b4:	4810      	ldr	r0, [pc, #64]	@ (213f8 <_ZN18complex_no_dynamic3app17h2a283b63e943c6f1E+0xbc>)
   213b6:	2102      	movs	r1, #2
   213b8:	4632      	mov	r2, r6
   213ba:	4633      	mov	r3, r6
   213bc:	df03      	svc	3
   213be:	2e00      	cmp	r6, #0
   213c0:	d1e6      	bne.n	21390 <_ZN18complex_no_dynamic3app17h2a283b63e943c6f1E+0x54>
   213c2:	480d      	ldr	r0, [pc, #52]	@ (213f8 <_ZN18complex_no_dynamic3app17h2a283b63e943c6f1E+0xbc>)
   213c4:	2402      	movs	r4, #2
   213c6:	4621      	mov	r1, r4
   213c8:	462a      	mov	r2, r5
   213ca:	462b      	mov	r3, r5
   213cc:	df03      	svc	3
   213ce:	9e01      	ldr	r6, [sp, #4]
   213d0:	1c70      	adds	r0, r6, #1
   213d2:	a91a      	add	r1, sp, #104	@ 0x68
   213d4:	2212      	movs	r2, #18
   213d6:	f006 fc40 	bl	27c5a <__aeabi_memcpy>
   213da:	7035      	strb	r5, [r6, #0]
   213dc:	4e06      	ldr	r6, [pc, #24]	@ (213f8 <_ZN18complex_no_dynamic3app17h2a283b63e943c6f1E+0xbc>)
   213de:	4630      	mov	r0, r6
   213e0:	4621      	mov	r1, r4
   213e2:	462a      	mov	r2, r5
   213e4:	462b      	mov	r3, r5
   213e6:	df03      	svc	3
   213e8:	4630      	mov	r0, r6
   213ea:	4629      	mov	r1, r5
   213ec:	462a      	mov	r2, r5
   213ee:	462b      	mov	r3, r5
   213f0:	df04      	svc	4
   213f2:	b01f      	add	sp, #124	@ 0x7c
   213f4:	bdf0      	pop	{r4, r5, r6, r7, pc}
   213f6:	46c0      	nop			@ (mov r8, r8)
   213f8:	000015f1 	.word	0x000015f1

000213fc <_ZN18complex_no_dynamic3app17h36c8bb2636c0398fE>:
   213fc:	b5f0      	push	{r4, r5, r6, r7, lr}
   213fe:	af03      	add	r7, sp, #12
   21400:	b099      	sub	sp, #100	@ 0x64
   21402:	9001      	str	r0, [sp, #4]
   21404:	ae02      	add	r6, sp, #8
   21406:	243f      	movs	r4, #63	@ 0x3f
   21408:	4630      	mov	r0, r6
   2140a:	4622      	mov	r2, r4
   2140c:	f006 fc25 	bl	27c5a <__aeabi_memcpy>
   21410:	2500      	movs	r5, #0
   21412:	9518      	str	r5, [sp, #96]	@ 0x60
   21414:	9517      	str	r5, [sp, #92]	@ 0x5c
   21416:	9516      	str	r5, [sp, #88]	@ 0x58
   21418:	9515      	str	r5, [sp, #84]	@ 0x54
   2141a:	9514      	str	r5, [sp, #80]	@ 0x50
   2141c:	9513      	str	r5, [sp, #76]	@ 0x4c
   2141e:	9512      	str	r5, [sp, #72]	@ 0x48
   21420:	4825      	ldr	r0, [pc, #148]	@ (214b8 <_ZN18complex_no_dynamic3app17h36c8bb2636c0398fE+0xbc>)
   21422:	2105      	movs	r1, #5
   21424:	4632      	mov	r2, r6
   21426:	4623      	mov	r3, r4
   21428:	df04      	svc	4
   2142a:	2802      	cmp	r0, #2
   2142c:	d00e      	beq.n	2144c <_ZN18complex_no_dynamic3app17h36c8bb2636c0398fE+0x50>
   2142e:	4822      	ldr	r0, [pc, #136]	@ (214b8 <_ZN18complex_no_dynamic3app17h36c8bb2636c0398fE+0xbc>)
   21430:	2109      	movs	r1, #9
   21432:	aa12      	add	r2, sp, #72	@ 0x48
   21434:	231c      	movs	r3, #28
   21436:	df03      	svc	3
   21438:	2802      	cmp	r0, #2
   2143a:	d007      	beq.n	2144c <_ZN18complex_no_dynamic3app17h36c8bb2636c0398fE+0x50>
   2143c:	481e      	ldr	r0, [pc, #120]	@ (214b8 <_ZN18complex_no_dynamic3app17h36c8bb2636c0398fE+0xbc>)
   2143e:	2105      	movs	r1, #5
   21440:	2209      	movs	r2, #9
   21442:	2600      	movs	r6, #0
   21444:	4633      	mov	r3, r6
   21446:	df02      	svc	2
   21448:	287f      	cmp	r0, #127	@ 0x7f
   2144a:	d814      	bhi.n	21476 <_ZN18complex_no_dynamic3app17h36c8bb2636c0398fE+0x7a>
   2144c:	2601      	movs	r6, #1
   2144e:	2e00      	cmp	r6, #0
   21450:	d018      	beq.n	21484 <_ZN18complex_no_dynamic3app17h36c8bb2636c0398fE+0x88>
   21452:	2001      	movs	r0, #1
   21454:	9a01      	ldr	r2, [sp, #4]
   21456:	7010      	strb	r0, [r2, #0]
   21458:	6051      	str	r1, [r2, #4]
   2145a:	4c17      	ldr	r4, [pc, #92]	@ (214b8 <_ZN18complex_no_dynamic3app17h36c8bb2636c0398fE+0xbc>)
   2145c:	2109      	movs	r1, #9
   2145e:	2500      	movs	r5, #0
   21460:	4620      	mov	r0, r4
   21462:	462a      	mov	r2, r5
   21464:	462b      	mov	r3, r5
   21466:	df03      	svc	3
   21468:	2105      	movs	r1, #5
   2146a:	4620      	mov	r0, r4
   2146c:	462a      	mov	r2, r5
   2146e:	462b      	mov	r3, r5
   21470:	df04      	svc	4
   21472:	b019      	add	sp, #100	@ 0x64
   21474:	bdf0      	pop	{r4, r5, r6, r7, pc}
   21476:	4810      	ldr	r0, [pc, #64]	@ (214b8 <_ZN18complex_no_dynamic3app17h36c8bb2636c0398fE+0xbc>)
   21478:	2109      	movs	r1, #9
   2147a:	4632      	mov	r2, r6
   2147c:	4633      	mov	r3, r6
   2147e:	df03      	svc	3
   21480:	2e00      	cmp	r6, #0
   21482:	d1e6      	bne.n	21452 <_ZN18complex_no_dynamic3app17h36c8bb2636c0398fE+0x56>
   21484:	480c      	ldr	r0, [pc, #48]	@ (214b8 <_ZN18complex_no_dynamic3app17h36c8bb2636c0398fE+0xbc>)
   21486:	2409      	movs	r4, #9
   21488:	4621      	mov	r1, r4
   2148a:	462a      	mov	r2, r5
   2148c:	462b      	mov	r3, r5
   2148e:	df03      	svc	3
   21490:	9e01      	ldr	r6, [sp, #4]
   21492:	1c70      	adds	r0, r6, #1
   21494:	a912      	add	r1, sp, #72	@ 0x48
   21496:	221c      	movs	r2, #28
   21498:	f006 fbdf 	bl	27c5a <__aeabi_memcpy>
   2149c:	7035      	strb	r5, [r6, #0]
   2149e:	4e06      	ldr	r6, [pc, #24]	@ (214b8 <_ZN18complex_no_dynamic3app17h36c8bb2636c0398fE+0xbc>)
   214a0:	4630      	mov	r0, r6
   214a2:	4621      	mov	r1, r4
   214a4:	462a      	mov	r2, r5
   214a6:	462b      	mov	r3, r5
   214a8:	df03      	svc	3
   214aa:	2105      	movs	r1, #5
   214ac:	4630      	mov	r0, r6
   214ae:	462a      	mov	r2, r5
   214b0:	462b      	mov	r3, r5
   214b2:	df04      	svc	4
   214b4:	b019      	add	sp, #100	@ 0x64
   214b6:	bdf0      	pop	{r4, r5, r6, r7, pc}
   214b8:	00001694 	.word	0x00001694

000214bc <_ZN18complex_no_dynamic3app17h38900029fff2fdf2E>:
   214bc:	b5f0      	push	{r4, r5, r6, r7, lr}
   214be:	af03      	add	r7, sp, #12
   214c0:	b09d      	sub	sp, #116	@ 0x74
   214c2:	4604      	mov	r4, r0
   214c4:	ad01      	add	r5, sp, #4
   214c6:	2649      	movs	r6, #73	@ 0x49
   214c8:	4628      	mov	r0, r5
   214ca:	4632      	mov	r2, r6
   214cc:	f006 fbc5 	bl	27c5a <__aeabi_memcpy>
   214d0:	a814      	add	r0, sp, #80	@ 0x50
   214d2:	2123      	movs	r1, #35	@ 0x23
   214d4:	f006 fa14 	bl	27900 <__aeabi_memclr4>
   214d8:	4825      	ldr	r0, [pc, #148]	@ (21570 <_ZN18complex_no_dynamic3app17h38900029fff2fdf2E+0xb4>)
   214da:	2107      	movs	r1, #7
   214dc:	462a      	mov	r2, r5
   214de:	4633      	mov	r3, r6
   214e0:	df04      	svc	4
   214e2:	2802      	cmp	r0, #2
   214e4:	d101      	bne.n	214ea <_ZN18complex_no_dynamic3app17h38900029fff2fdf2E+0x2e>
   214e6:	2501      	movs	r5, #1
   214e8:	e016      	b.n	21518 <_ZN18complex_no_dynamic3app17h38900029fff2fdf2E+0x5c>
   214ea:	4821      	ldr	r0, [pc, #132]	@ (21570 <_ZN18complex_no_dynamic3app17h38900029fff2fdf2E+0xb4>)
   214ec:	2501      	movs	r5, #1
   214ee:	aa14      	add	r2, sp, #80	@ 0x50
   214f0:	2323      	movs	r3, #35	@ 0x23
   214f2:	4629      	mov	r1, r5
   214f4:	df03      	svc	3
   214f6:	2802      	cmp	r0, #2
   214f8:	d00e      	beq.n	21518 <_ZN18complex_no_dynamic3app17h38900029fff2fdf2E+0x5c>
   214fa:	481d      	ldr	r0, [pc, #116]	@ (21570 <_ZN18complex_no_dynamic3app17h38900029fff2fdf2E+0xb4>)
   214fc:	2107      	movs	r1, #7
   214fe:	2501      	movs	r5, #1
   21500:	2600      	movs	r6, #0
   21502:	462a      	mov	r2, r5
   21504:	4633      	mov	r3, r6
   21506:	df02      	svc	2
   21508:	287f      	cmp	r0, #127	@ 0x7f
   2150a:	d905      	bls.n	21518 <_ZN18complex_no_dynamic3app17h38900029fff2fdf2E+0x5c>
   2150c:	4818      	ldr	r0, [pc, #96]	@ (21570 <_ZN18complex_no_dynamic3app17h38900029fff2fdf2E+0xb4>)
   2150e:	2101      	movs	r1, #1
   21510:	4632      	mov	r2, r6
   21512:	4633      	mov	r3, r6
   21514:	df03      	svc	3
   21516:	4635      	mov	r5, r6
   21518:	2d00      	cmp	r5, #0
   2151a:	d010      	beq.n	2153e <_ZN18complex_no_dynamic3app17h38900029fff2fdf2E+0x82>
   2151c:	2201      	movs	r2, #1
   2151e:	7022      	strb	r2, [r4, #0]
   21520:	6061      	str	r1, [r4, #4]
   21522:	4c13      	ldr	r4, [pc, #76]	@ (21570 <_ZN18complex_no_dynamic3app17h38900029fff2fdf2E+0xb4>)
   21524:	2500      	movs	r5, #0
   21526:	4620      	mov	r0, r4
   21528:	4611      	mov	r1, r2
   2152a:	462a      	mov	r2, r5
   2152c:	462b      	mov	r3, r5
   2152e:	df03      	svc	3
   21530:	2107      	movs	r1, #7
   21532:	4620      	mov	r0, r4
   21534:	462a      	mov	r2, r5
   21536:	462b      	mov	r3, r5
   21538:	df04      	svc	4
   2153a:	b01d      	add	sp, #116	@ 0x74
   2153c:	bdf0      	pop	{r4, r5, r6, r7, pc}
   2153e:	480c      	ldr	r0, [pc, #48]	@ (21570 <_ZN18complex_no_dynamic3app17h38900029fff2fdf2E+0xb4>)
   21540:	2601      	movs	r6, #1
   21542:	2500      	movs	r5, #0
   21544:	4631      	mov	r1, r6
   21546:	462a      	mov	r2, r5
   21548:	462b      	mov	r3, r5
   2154a:	df03      	svc	3
   2154c:	1c60      	adds	r0, r4, #1
   2154e:	a914      	add	r1, sp, #80	@ 0x50
   21550:	2223      	movs	r2, #35	@ 0x23
   21552:	f006 fb82 	bl	27c5a <__aeabi_memcpy>
   21556:	7025      	strb	r5, [r4, #0]
   21558:	4805      	ldr	r0, [pc, #20]	@ (21570 <_ZN18complex_no_dynamic3app17h38900029fff2fdf2E+0xb4>)
   2155a:	4631      	mov	r1, r6
   2155c:	462a      	mov	r2, r5
   2155e:	462b      	mov	r3, r5
   21560:	df03      	svc	3
   21562:	2107      	movs	r1, #7
   21564:	4802      	ldr	r0, [pc, #8]	@ (21570 <_ZN18complex_no_dynamic3app17h38900029fff2fdf2E+0xb4>)
   21566:	462a      	mov	r2, r5
   21568:	462b      	mov	r3, r5
   2156a:	df04      	svc	4
   2156c:	b01d      	add	sp, #116	@ 0x74
   2156e:	bdf0      	pop	{r4, r5, r6, r7, pc}
   21570:	00001551 	.word	0x00001551

00021574 <_ZN18complex_no_dynamic3app17h389ff85e3e90bc2aE>:
   21574:	b5f0      	push	{r4, r5, r6, r7, lr}
   21576:	af03      	add	r7, sp, #12
   21578:	b0a1      	sub	sp, #132	@ 0x84
   2157a:	9001      	str	r0, [sp, #4]
   2157c:	ae02      	add	r6, sp, #8
   2157e:	2427      	movs	r4, #39	@ 0x27
   21580:	4630      	mov	r0, r6
   21582:	4622      	mov	r2, r4
   21584:	f006 fb69 	bl	27c5a <__aeabi_memcpy>
   21588:	a80c      	add	r0, sp, #48	@ 0x30
   2158a:	2151      	movs	r1, #81	@ 0x51
   2158c:	f006 f9b8 	bl	27900 <__aeabi_memclr4>
   21590:	4826      	ldr	r0, [pc, #152]	@ (2162c <_ZN18complex_no_dynamic3app17h389ff85e3e90bc2aE+0xb8>)
   21592:	2500      	movs	r5, #0
   21594:	4629      	mov	r1, r5
   21596:	4632      	mov	r2, r6
   21598:	4623      	mov	r3, r4
   2159a:	df04      	svc	4
   2159c:	2802      	cmp	r0, #2
   2159e:	d00e      	beq.n	215be <_ZN18complex_no_dynamic3app17h389ff85e3e90bc2aE+0x4a>
   215a0:	4822      	ldr	r0, [pc, #136]	@ (2162c <_ZN18complex_no_dynamic3app17h389ff85e3e90bc2aE+0xb8>)
   215a2:	2104      	movs	r1, #4
   215a4:	aa0c      	add	r2, sp, #48	@ 0x30
   215a6:	2351      	movs	r3, #81	@ 0x51
   215a8:	df03      	svc	3
   215aa:	2802      	cmp	r0, #2
   215ac:	d007      	beq.n	215be <_ZN18complex_no_dynamic3app17h389ff85e3e90bc2aE+0x4a>
   215ae:	481f      	ldr	r0, [pc, #124]	@ (2162c <_ZN18complex_no_dynamic3app17h389ff85e3e90bc2aE+0xb8>)
   215b0:	2204      	movs	r2, #4
   215b2:	2600      	movs	r6, #0
   215b4:	4631      	mov	r1, r6
   215b6:	4633      	mov	r3, r6
   215b8:	df02      	svc	2
   215ba:	287f      	cmp	r0, #127	@ 0x7f
   215bc:	d814      	bhi.n	215e8 <_ZN18complex_no_dynamic3app17h389ff85e3e90bc2aE+0x74>
   215be:	2601      	movs	r6, #1
   215c0:	2e00      	cmp	r6, #0
   215c2:	d018      	beq.n	215f6 <_ZN18complex_no_dynamic3app17h389ff85e3e90bc2aE+0x82>
   215c4:	2001      	movs	r0, #1
   215c6:	9a01      	ldr	r2, [sp, #4]
   215c8:	7010      	strb	r0, [r2, #0]
   215ca:	6051      	str	r1, [r2, #4]
   215cc:	4c17      	ldr	r4, [pc, #92]	@ (2162c <_ZN18complex_no_dynamic3app17h389ff85e3e90bc2aE+0xb8>)
   215ce:	2104      	movs	r1, #4
   215d0:	2500      	movs	r5, #0
   215d2:	4620      	mov	r0, r4
   215d4:	462a      	mov	r2, r5
   215d6:	462b      	mov	r3, r5
   215d8:	df03      	svc	3
   215da:	4620      	mov	r0, r4
   215dc:	4629      	mov	r1, r5
   215de:	462a      	mov	r2, r5
   215e0:	462b      	mov	r3, r5
   215e2:	df04      	svc	4
   215e4:	b021      	add	sp, #132	@ 0x84
   215e6:	bdf0      	pop	{r4, r5, r6, r7, pc}
   215e8:	4810      	ldr	r0, [pc, #64]	@ (2162c <_ZN18complex_no_dynamic3app17h389ff85e3e90bc2aE+0xb8>)
   215ea:	2104      	movs	r1, #4
   215ec:	4632      	mov	r2, r6
   215ee:	4633      	mov	r3, r6
   215f0:	df03      	svc	3
   215f2:	2e00      	cmp	r6, #0
   215f4:	d1e6      	bne.n	215c4 <_ZN18complex_no_dynamic3app17h389ff85e3e90bc2aE+0x50>
   215f6:	480d      	ldr	r0, [pc, #52]	@ (2162c <_ZN18complex_no_dynamic3app17h389ff85e3e90bc2aE+0xb8>)
   215f8:	2404      	movs	r4, #4
   215fa:	4621      	mov	r1, r4
   215fc:	462a      	mov	r2, r5
   215fe:	462b      	mov	r3, r5
   21600:	df03      	svc	3
   21602:	9e01      	ldr	r6, [sp, #4]
   21604:	1c70      	adds	r0, r6, #1
   21606:	a90c      	add	r1, sp, #48	@ 0x30
   21608:	2251      	movs	r2, #81	@ 0x51
   2160a:	f006 fb26 	bl	27c5a <__aeabi_memcpy>
   2160e:	7035      	strb	r5, [r6, #0]
   21610:	4e06      	ldr	r6, [pc, #24]	@ (2162c <_ZN18complex_no_dynamic3app17h389ff85e3e90bc2aE+0xb8>)
   21612:	4630      	mov	r0, r6
   21614:	4621      	mov	r1, r4
   21616:	462a      	mov	r2, r5
   21618:	462b      	mov	r3, r5
   2161a:	df03      	svc	3
   2161c:	4630      	mov	r0, r6
   2161e:	4629      	mov	r1, r5
   21620:	462a      	mov	r2, r5
   21622:	462b      	mov	r3, r5
   21624:	df04      	svc	4
   21626:	b021      	add	sp, #132	@ 0x84
   21628:	bdf0      	pop	{r4, r5, r6, r7, pc}
   2162a:	46c0      	nop			@ (mov r8, r8)
   2162c:	00000a36 	.word	0x00000a36

00021630 <_ZN18complex_no_dynamic3app17h38f01f94df765830E>:
   21630:	b5f0      	push	{r4, r5, r6, r7, lr}
   21632:	af03      	add	r7, sp, #12
   21634:	b093      	sub	sp, #76	@ 0x4c
   21636:	4604      	mov	r4, r0
   21638:	ad01      	add	r5, sp, #4
   2163a:	2623      	movs	r6, #35	@ 0x23
   2163c:	4628      	mov	r0, r5
   2163e:	4632      	mov	r2, r6
   21640:	f006 fb0b 	bl	27c5a <__aeabi_memcpy>
   21644:	a80a      	add	r0, sp, #40	@ 0x28
   21646:	2124      	movs	r1, #36	@ 0x24
   21648:	f006 f95a 	bl	27900 <__aeabi_memclr4>
   2164c:	4824      	ldr	r0, [pc, #144]	@ (216e0 <_ZN18complex_no_dynamic3app17h38f01f94df765830E+0xb0>)
   2164e:	2104      	movs	r1, #4
   21650:	462a      	mov	r2, r5
   21652:	4633      	mov	r3, r6
   21654:	df04      	svc	4
   21656:	2802      	cmp	r0, #2
   21658:	d00e      	beq.n	21678 <_ZN18complex_no_dynamic3app17h38f01f94df765830E+0x48>
   2165a:	4821      	ldr	r0, [pc, #132]	@ (216e0 <_ZN18complex_no_dynamic3app17h38f01f94df765830E+0xb0>)
   2165c:	2108      	movs	r1, #8
   2165e:	aa0a      	add	r2, sp, #40	@ 0x28
   21660:	2324      	movs	r3, #36	@ 0x24
   21662:	df03      	svc	3
   21664:	2802      	cmp	r0, #2
   21666:	d007      	beq.n	21678 <_ZN18complex_no_dynamic3app17h38f01f94df765830E+0x48>
   21668:	481d      	ldr	r0, [pc, #116]	@ (216e0 <_ZN18complex_no_dynamic3app17h38f01f94df765830E+0xb0>)
   2166a:	2104      	movs	r1, #4
   2166c:	2208      	movs	r2, #8
   2166e:	2500      	movs	r5, #0
   21670:	462b      	mov	r3, r5
   21672:	df02      	svc	2
   21674:	287f      	cmp	r0, #127	@ 0x7f
   21676:	d813      	bhi.n	216a0 <_ZN18complex_no_dynamic3app17h38f01f94df765830E+0x70>
   21678:	2501      	movs	r5, #1
   2167a:	2d00      	cmp	r5, #0
   2167c:	d017      	beq.n	216ae <_ZN18complex_no_dynamic3app17h38f01f94df765830E+0x7e>
   2167e:	2001      	movs	r0, #1
   21680:	7020      	strb	r0, [r4, #0]
   21682:	6061      	str	r1, [r4, #4]
   21684:	4c16      	ldr	r4, [pc, #88]	@ (216e0 <_ZN18complex_no_dynamic3app17h38f01f94df765830E+0xb0>)
   21686:	2108      	movs	r1, #8
   21688:	2500      	movs	r5, #0
   2168a:	4620      	mov	r0, r4
   2168c:	462a      	mov	r2, r5
   2168e:	462b      	mov	r3, r5
   21690:	df03      	svc	3
   21692:	2104      	movs	r1, #4
   21694:	4620      	mov	r0, r4
   21696:	462a      	mov	r2, r5
   21698:	462b      	mov	r3, r5
   2169a:	df04      	svc	4
   2169c:	b013      	add	sp, #76	@ 0x4c
   2169e:	bdf0      	pop	{r4, r5, r6, r7, pc}
   216a0:	480f      	ldr	r0, [pc, #60]	@ (216e0 <_ZN18complex_no_dynamic3app17h38f01f94df765830E+0xb0>)
   216a2:	2108      	movs	r1, #8
   216a4:	462a      	mov	r2, r5
   216a6:	462b      	mov	r3, r5
   216a8:	df03      	svc	3
   216aa:	2d00      	cmp	r5, #0
   216ac:	d1e7      	bne.n	2167e <_ZN18complex_no_dynamic3app17h38f01f94df765830E+0x4e>
   216ae:	480c      	ldr	r0, [pc, #48]	@ (216e0 <_ZN18complex_no_dynamic3app17h38f01f94df765830E+0xb0>)
   216b0:	2608      	movs	r6, #8
   216b2:	2500      	movs	r5, #0
   216b4:	4631      	mov	r1, r6
   216b6:	462a      	mov	r2, r5
   216b8:	462b      	mov	r3, r5
   216ba:	df03      	svc	3
   216bc:	1c60      	adds	r0, r4, #1
   216be:	a90a      	add	r1, sp, #40	@ 0x28
   216c0:	2224      	movs	r2, #36	@ 0x24
   216c2:	f006 faca 	bl	27c5a <__aeabi_memcpy>
   216c6:	7025      	strb	r5, [r4, #0]
   216c8:	4805      	ldr	r0, [pc, #20]	@ (216e0 <_ZN18complex_no_dynamic3app17h38f01f94df765830E+0xb0>)
   216ca:	4631      	mov	r1, r6
   216cc:	462a      	mov	r2, r5
   216ce:	462b      	mov	r3, r5
   216d0:	df03      	svc	3
   216d2:	2104      	movs	r1, #4
   216d4:	4802      	ldr	r0, [pc, #8]	@ (216e0 <_ZN18complex_no_dynamic3app17h38f01f94df765830E+0xb0>)
   216d6:	462a      	mov	r2, r5
   216d8:	462b      	mov	r3, r5
   216da:	df04      	svc	4
   216dc:	b013      	add	sp, #76	@ 0x4c
   216de:	bdf0      	pop	{r4, r5, r6, r7, pc}
   216e0:	00001bd6 	.word	0x00001bd6

000216e4 <_ZN18complex_no_dynamic3app17h39804d9d2901b724E>:
   216e4:	b5f0      	push	{r4, r5, r6, r7, lr}
   216e6:	af03      	add	r7, sp, #12
   216e8:	b0a9      	sub	sp, #164	@ 0xa4
   216ea:	4604      	mov	r4, r0
   216ec:	466d      	mov	r5, sp
   216ee:	2651      	movs	r6, #81	@ 0x51
   216f0:	4628      	mov	r0, r5
   216f2:	4632      	mov	r2, r6
   216f4:	f006 fab1 	bl	27c5a <__aeabi_memcpy>
   216f8:	a815      	add	r0, sp, #84	@ 0x54
   216fa:	214f      	movs	r1, #79	@ 0x4f
   216fc:	f006 f900 	bl	27900 <__aeabi_memclr4>
   21700:	4824      	ldr	r0, [pc, #144]	@ (21794 <_ZN18complex_no_dynamic3app17h39804d9d2901b724E+0xb0>)
   21702:	2104      	movs	r1, #4
   21704:	462a      	mov	r2, r5
   21706:	4633      	mov	r3, r6
   21708:	df04      	svc	4
   2170a:	2802      	cmp	r0, #2
   2170c:	d00e      	beq.n	2172c <_ZN18complex_no_dynamic3app17h39804d9d2901b724E+0x48>
   2170e:	4821      	ldr	r0, [pc, #132]	@ (21794 <_ZN18complex_no_dynamic3app17h39804d9d2901b724E+0xb0>)
   21710:	2109      	movs	r1, #9
   21712:	aa15      	add	r2, sp, #84	@ 0x54
   21714:	234f      	movs	r3, #79	@ 0x4f
   21716:	df03      	svc	3
   21718:	2802      	cmp	r0, #2
   2171a:	d007      	beq.n	2172c <_ZN18complex_no_dynamic3app17h39804d9d2901b724E+0x48>
   2171c:	481d      	ldr	r0, [pc, #116]	@ (21794 <_ZN18complex_no_dynamic3app17h39804d9d2901b724E+0xb0>)
   2171e:	2104      	movs	r1, #4
   21720:	2209      	movs	r2, #9
   21722:	2500      	movs	r5, #0
   21724:	462b      	mov	r3, r5
   21726:	df02      	svc	2
   21728:	287f      	cmp	r0, #127	@ 0x7f
   2172a:	d813      	bhi.n	21754 <_ZN18complex_no_dynamic3app17h39804d9d2901b724E+0x70>
   2172c:	2501      	movs	r5, #1
   2172e:	2d00      	cmp	r5, #0
   21730:	d017      	beq.n	21762 <_ZN18complex_no_dynamic3app17h39804d9d2901b724E+0x7e>
   21732:	2001      	movs	r0, #1
   21734:	7020      	strb	r0, [r4, #0]
   21736:	6061      	str	r1, [r4, #4]
   21738:	4c16      	ldr	r4, [pc, #88]	@ (21794 <_ZN18complex_no_dynamic3app17h39804d9d2901b724E+0xb0>)
   2173a:	2109      	movs	r1, #9
   2173c:	2500      	movs	r5, #0
   2173e:	4620      	mov	r0, r4
   21740:	462a      	mov	r2, r5
   21742:	462b      	mov	r3, r5
   21744:	df03      	svc	3
   21746:	2104      	movs	r1, #4
   21748:	4620      	mov	r0, r4
   2174a:	462a      	mov	r2, r5
   2174c:	462b      	mov	r3, r5
   2174e:	df04      	svc	4
   21750:	b029      	add	sp, #164	@ 0xa4
   21752:	bdf0      	pop	{r4, r5, r6, r7, pc}
   21754:	480f      	ldr	r0, [pc, #60]	@ (21794 <_ZN18complex_no_dynamic3app17h39804d9d2901b724E+0xb0>)
   21756:	2109      	movs	r1, #9
   21758:	462a      	mov	r2, r5
   2175a:	462b      	mov	r3, r5
   2175c:	df03      	svc	3
   2175e:	2d00      	cmp	r5, #0
   21760:	d1e7      	bne.n	21732 <_ZN18complex_no_dynamic3app17h39804d9d2901b724E+0x4e>
   21762:	480c      	ldr	r0, [pc, #48]	@ (21794 <_ZN18complex_no_dynamic3app17h39804d9d2901b724E+0xb0>)
   21764:	2609      	movs	r6, #9
   21766:	2500      	movs	r5, #0
   21768:	4631      	mov	r1, r6
   2176a:	462a      	mov	r2, r5
   2176c:	462b      	mov	r3, r5
   2176e:	df03      	svc	3
   21770:	1c60      	adds	r0, r4, #1
   21772:	a915      	add	r1, sp, #84	@ 0x54
   21774:	224f      	movs	r2, #79	@ 0x4f
   21776:	f006 fa70 	bl	27c5a <__aeabi_memcpy>
   2177a:	7025      	strb	r5, [r4, #0]
   2177c:	4805      	ldr	r0, [pc, #20]	@ (21794 <_ZN18complex_no_dynamic3app17h39804d9d2901b724E+0xb0>)
   2177e:	4631      	mov	r1, r6
   21780:	462a      	mov	r2, r5
   21782:	462b      	mov	r3, r5
   21784:	df03      	svc	3
   21786:	2104      	movs	r1, #4
   21788:	4802      	ldr	r0, [pc, #8]	@ (21794 <_ZN18complex_no_dynamic3app17h39804d9d2901b724E+0xb0>)
   2178a:	462a      	mov	r2, r5
   2178c:	462b      	mov	r3, r5
   2178e:	df04      	svc	4
   21790:	b029      	add	sp, #164	@ 0xa4
   21792:	bdf0      	pop	{r4, r5, r6, r7, pc}
   21794:	000020ee 	.word	0x000020ee

00021798 <_ZN18complex_no_dynamic3app17h3add2a38c13e2872E>:
   21798:	b5f0      	push	{r4, r5, r6, r7, lr}
   2179a:	af03      	add	r7, sp, #12
   2179c:	b0a3      	sub	sp, #140	@ 0x8c
   2179e:	4604      	mov	r4, r0
   217a0:	ad01      	add	r5, sp, #4
   217a2:	264f      	movs	r6, #79	@ 0x4f
   217a4:	4628      	mov	r0, r5
   217a6:	4632      	mov	r2, r6
   217a8:	f006 fa57 	bl	27c5a <__aeabi_memcpy>
   217ac:	a815      	add	r0, sp, #84	@ 0x54
   217ae:	2135      	movs	r1, #53	@ 0x35
   217b0:	f006 f8a6 	bl	27900 <__aeabi_memclr4>
   217b4:	4825      	ldr	r0, [pc, #148]	@ (2184c <_ZN18complex_no_dynamic3app17h3add2a38c13e2872E+0xb4>)
   217b6:	2107      	movs	r1, #7
   217b8:	462a      	mov	r2, r5
   217ba:	4633      	mov	r3, r6
   217bc:	df04      	svc	4
   217be:	2802      	cmp	r0, #2
   217c0:	d101      	bne.n	217c6 <_ZN18complex_no_dynamic3app17h3add2a38c13e2872E+0x2e>
   217c2:	2501      	movs	r5, #1
   217c4:	e016      	b.n	217f4 <_ZN18complex_no_dynamic3app17h3add2a38c13e2872E+0x5c>
   217c6:	4821      	ldr	r0, [pc, #132]	@ (2184c <_ZN18complex_no_dynamic3app17h3add2a38c13e2872E+0xb4>)
   217c8:	2501      	movs	r5, #1
   217ca:	aa15      	add	r2, sp, #84	@ 0x54
   217cc:	2335      	movs	r3, #53	@ 0x35
   217ce:	4629      	mov	r1, r5
   217d0:	df03      	svc	3
   217d2:	2802      	cmp	r0, #2
   217d4:	d00e      	beq.n	217f4 <_ZN18complex_no_dynamic3app17h3add2a38c13e2872E+0x5c>
   217d6:	481d      	ldr	r0, [pc, #116]	@ (2184c <_ZN18complex_no_dynamic3app17h3add2a38c13e2872E+0xb4>)
   217d8:	2107      	movs	r1, #7
   217da:	2501      	movs	r5, #1
   217dc:	2600      	movs	r6, #0
   217de:	462a      	mov	r2, r5
   217e0:	4633      	mov	r3, r6
   217e2:	df02      	svc	2
   217e4:	287f      	cmp	r0, #127	@ 0x7f
   217e6:	d905      	bls.n	217f4 <_ZN18complex_no_dynamic3app17h3add2a38c13e2872E+0x5c>
   217e8:	4818      	ldr	r0, [pc, #96]	@ (2184c <_ZN18complex_no_dynamic3app17h3add2a38c13e2872E+0xb4>)
   217ea:	2101      	movs	r1, #1
   217ec:	4632      	mov	r2, r6
   217ee:	4633      	mov	r3, r6
   217f0:	df03      	svc	3
   217f2:	4635      	mov	r5, r6
   217f4:	2d00      	cmp	r5, #0
   217f6:	d010      	beq.n	2181a <_ZN18complex_no_dynamic3app17h3add2a38c13e2872E+0x82>
   217f8:	2201      	movs	r2, #1
   217fa:	7022      	strb	r2, [r4, #0]
   217fc:	6061      	str	r1, [r4, #4]
   217fe:	4c13      	ldr	r4, [pc, #76]	@ (2184c <_ZN18complex_no_dynamic3app17h3add2a38c13e2872E+0xb4>)
   21800:	2500      	movs	r5, #0
   21802:	4620      	mov	r0, r4
   21804:	4611      	mov	r1, r2
   21806:	462a      	mov	r2, r5
   21808:	462b      	mov	r3, r5
   2180a:	df03      	svc	3
   2180c:	2107      	movs	r1, #7
   2180e:	4620      	mov	r0, r4
   21810:	462a      	mov	r2, r5
   21812:	462b      	mov	r3, r5
   21814:	df04      	svc	4
   21816:	b023      	add	sp, #140	@ 0x8c
   21818:	bdf0      	pop	{r4, r5, r6, r7, pc}
   2181a:	480c      	ldr	r0, [pc, #48]	@ (2184c <_ZN18complex_no_dynamic3app17h3add2a38c13e2872E+0xb4>)
   2181c:	2601      	movs	r6, #1
   2181e:	2500      	movs	r5, #0
   21820:	4631      	mov	r1, r6
   21822:	462a      	mov	r2, r5
   21824:	462b      	mov	r3, r5
   21826:	df03      	svc	3
   21828:	1c60      	adds	r0, r4, #1
   2182a:	a915      	add	r1, sp, #84	@ 0x54
   2182c:	2235      	movs	r2, #53	@ 0x35
   2182e:	f006 fa14 	bl	27c5a <__aeabi_memcpy>
   21832:	7025      	strb	r5, [r4, #0]
   21834:	4805      	ldr	r0, [pc, #20]	@ (2184c <_ZN18complex_no_dynamic3app17h3add2a38c13e2872E+0xb4>)
   21836:	4631      	mov	r1, r6
   21838:	462a      	mov	r2, r5
   2183a:	462b      	mov	r3, r5
   2183c:	df03      	svc	3
   2183e:	2107      	movs	r1, #7
   21840:	4802      	ldr	r0, [pc, #8]	@ (2184c <_ZN18complex_no_dynamic3app17h3add2a38c13e2872E+0xb4>)
   21842:	462a      	mov	r2, r5
   21844:	462b      	mov	r3, r5
   21846:	df04      	svc	4
   21848:	b023      	add	sp, #140	@ 0x8c
   2184a:	bdf0      	pop	{r4, r5, r6, r7, pc}
   2184c:	000016d7 	.word	0x000016d7

00021850 <_ZN18complex_no_dynamic3app17h3d50ecff2fd4648bE>:
   21850:	b5f0      	push	{r4, r5, r6, r7, lr}
   21852:	af03      	add	r7, sp, #12
   21854:	b0a3      	sub	sp, #140	@ 0x8c
   21856:	9000      	str	r0, [sp, #0]
   21858:	ae01      	add	r6, sp, #4
   2185a:	242a      	movs	r4, #42	@ 0x2a
   2185c:	4630      	mov	r0, r6
   2185e:	4622      	mov	r2, r4
   21860:	f006 f9fb 	bl	27c5a <__aeabi_memcpy>
   21864:	a80c      	add	r0, sp, #48	@ 0x30
   21866:	2159      	movs	r1, #89	@ 0x59
   21868:	f006 f84a 	bl	27900 <__aeabi_memclr4>
   2186c:	4826      	ldr	r0, [pc, #152]	@ (21908 <_ZN18complex_no_dynamic3app17h3d50ecff2fd4648bE+0xb8>)
   2186e:	2501      	movs	r5, #1
   21870:	4629      	mov	r1, r5
   21872:	4632      	mov	r2, r6
   21874:	4623      	mov	r3, r4
   21876:	df04      	svc	4
   21878:	2802      	cmp	r0, #2
   2187a:	d015      	beq.n	218a8 <_ZN18complex_no_dynamic3app17h3d50ecff2fd4648bE+0x58>
   2187c:	4822      	ldr	r0, [pc, #136]	@ (21908 <_ZN18complex_no_dynamic3app17h3d50ecff2fd4648bE+0xb8>)
   2187e:	2103      	movs	r1, #3
   21880:	aa0c      	add	r2, sp, #48	@ 0x30
   21882:	2359      	movs	r3, #89	@ 0x59
   21884:	df03      	svc	3
   21886:	2802      	cmp	r0, #2
   21888:	d00e      	beq.n	218a8 <_ZN18complex_no_dynamic3app17h3d50ecff2fd4648bE+0x58>
   2188a:	481f      	ldr	r0, [pc, #124]	@ (21908 <_ZN18complex_no_dynamic3app17h3d50ecff2fd4648bE+0xb8>)
   2188c:	2501      	movs	r5, #1
   2188e:	2203      	movs	r2, #3
   21890:	2600      	movs	r6, #0
   21892:	4629      	mov	r1, r5
   21894:	4633      	mov	r3, r6
   21896:	df02      	svc	2
   21898:	287f      	cmp	r0, #127	@ 0x7f
   2189a:	d905      	bls.n	218a8 <_ZN18complex_no_dynamic3app17h3d50ecff2fd4648bE+0x58>
   2189c:	481a      	ldr	r0, [pc, #104]	@ (21908 <_ZN18complex_no_dynamic3app17h3d50ecff2fd4648bE+0xb8>)
   2189e:	2103      	movs	r1, #3
   218a0:	4632      	mov	r2, r6
   218a2:	4633      	mov	r3, r6
   218a4:	df03      	svc	3
   218a6:	4635      	mov	r5, r6
   218a8:	2d00      	cmp	r5, #0
   218aa:	d011      	beq.n	218d0 <_ZN18complex_no_dynamic3app17h3d50ecff2fd4648bE+0x80>
   218ac:	2401      	movs	r4, #1
   218ae:	9800      	ldr	r0, [sp, #0]
   218b0:	7004      	strb	r4, [r0, #0]
   218b2:	6041      	str	r1, [r0, #4]
   218b4:	4d14      	ldr	r5, [pc, #80]	@ (21908 <_ZN18complex_no_dynamic3app17h3d50ecff2fd4648bE+0xb8>)
   218b6:	2103      	movs	r1, #3
   218b8:	2600      	movs	r6, #0
   218ba:	4628      	mov	r0, r5
   218bc:	4632      	mov	r2, r6
   218be:	4633      	mov	r3, r6
   218c0:	df03      	svc	3
   218c2:	4628      	mov	r0, r5
   218c4:	4621      	mov	r1, r4
   218c6:	4632      	mov	r2, r6
   218c8:	4633      	mov	r3, r6
   218ca:	df04      	svc	4
   218cc:	b023      	add	sp, #140	@ 0x8c
   218ce:	bdf0      	pop	{r4, r5, r6, r7, pc}
   218d0:	480d      	ldr	r0, [pc, #52]	@ (21908 <_ZN18complex_no_dynamic3app17h3d50ecff2fd4648bE+0xb8>)
   218d2:	2403      	movs	r4, #3
   218d4:	2500      	movs	r5, #0
   218d6:	4621      	mov	r1, r4
   218d8:	462a      	mov	r2, r5
   218da:	462b      	mov	r3, r5
   218dc:	df03      	svc	3
   218de:	9e00      	ldr	r6, [sp, #0]
   218e0:	1c70      	adds	r0, r6, #1
   218e2:	a90c      	add	r1, sp, #48	@ 0x30
   218e4:	2259      	movs	r2, #89	@ 0x59
   218e6:	f006 f9b8 	bl	27c5a <__aeabi_memcpy>
   218ea:	7035      	strb	r5, [r6, #0]
   218ec:	4e06      	ldr	r6, [pc, #24]	@ (21908 <_ZN18complex_no_dynamic3app17h3d50ecff2fd4648bE+0xb8>)
   218ee:	4630      	mov	r0, r6
   218f0:	4621      	mov	r1, r4
   218f2:	462a      	mov	r2, r5
   218f4:	462b      	mov	r3, r5
   218f6:	df03      	svc	3
   218f8:	2101      	movs	r1, #1
   218fa:	4630      	mov	r0, r6
   218fc:	462a      	mov	r2, r5
   218fe:	462b      	mov	r3, r5
   21900:	df04      	svc	4
   21902:	b023      	add	sp, #140	@ 0x8c
   21904:	bdf0      	pop	{r4, r5, r6, r7, pc}
   21906:	46c0      	nop			@ (mov r8, r8)
   21908:	00000ed2 	.word	0x00000ed2

0002190c <_ZN18complex_no_dynamic3app17h421618dc6af6cdbcE>:
   2190c:	b5f0      	push	{r4, r5, r6, r7, lr}
   2190e:	af03      	add	r7, sp, #12
   21910:	b093      	sub	sp, #76	@ 0x4c
   21912:	9000      	str	r0, [sp, #0]
   21914:	ac01      	add	r4, sp, #4
   21916:	2627      	movs	r6, #39	@ 0x27
   21918:	4620      	mov	r0, r4
   2191a:	4632      	mov	r2, r6
   2191c:	f006 f99d 	bl	27c5a <__aeabi_memcpy>
   21920:	a80b      	add	r0, sp, #44	@ 0x2c
   21922:	2500      	movs	r5, #0
   21924:	8385      	strh	r5, [r0, #28]
   21926:	9511      	str	r5, [sp, #68]	@ 0x44
   21928:	9510      	str	r5, [sp, #64]	@ 0x40
   2192a:	950f      	str	r5, [sp, #60]	@ 0x3c
   2192c:	950e      	str	r5, [sp, #56]	@ 0x38
   2192e:	950d      	str	r5, [sp, #52]	@ 0x34
   21930:	950c      	str	r5, [sp, #48]	@ 0x30
   21932:	950b      	str	r5, [sp, #44]	@ 0x2c
   21934:	4826      	ldr	r0, [pc, #152]	@ (219d0 <_ZN18complex_no_dynamic3app17h421618dc6af6cdbcE+0xc4>)
   21936:	2103      	movs	r1, #3
   21938:	4622      	mov	r2, r4
   2193a:	4633      	mov	r3, r6
   2193c:	df04      	svc	4
   2193e:	2802      	cmp	r0, #2
   21940:	d00e      	beq.n	21960 <_ZN18complex_no_dynamic3app17h421618dc6af6cdbcE+0x54>
   21942:	4823      	ldr	r0, [pc, #140]	@ (219d0 <_ZN18complex_no_dynamic3app17h421618dc6af6cdbcE+0xc4>)
   21944:	2103      	movs	r1, #3
   21946:	aa0b      	add	r2, sp, #44	@ 0x2c
   21948:	231e      	movs	r3, #30
   2194a:	df03      	svc	3
   2194c:	2802      	cmp	r0, #2
   2194e:	d007      	beq.n	21960 <_ZN18complex_no_dynamic3app17h421618dc6af6cdbcE+0x54>
   21950:	481f      	ldr	r0, [pc, #124]	@ (219d0 <_ZN18complex_no_dynamic3app17h421618dc6af6cdbcE+0xc4>)
   21952:	2103      	movs	r1, #3
   21954:	2600      	movs	r6, #0
   21956:	460a      	mov	r2, r1
   21958:	4633      	mov	r3, r6
   2195a:	df02      	svc	2
   2195c:	287f      	cmp	r0, #127	@ 0x7f
   2195e:	d815      	bhi.n	2198c <_ZN18complex_no_dynamic3app17h421618dc6af6cdbcE+0x80>
   21960:	2601      	movs	r6, #1
   21962:	2e00      	cmp	r6, #0
   21964:	d019      	beq.n	2199a <_ZN18complex_no_dynamic3app17h421618dc6af6cdbcE+0x8e>
   21966:	2001      	movs	r0, #1
   21968:	9a00      	ldr	r2, [sp, #0]
   2196a:	7010      	strb	r0, [r2, #0]
   2196c:	6051      	str	r1, [r2, #4]
   2196e:	4c18      	ldr	r4, [pc, #96]	@ (219d0 <_ZN18complex_no_dynamic3app17h421618dc6af6cdbcE+0xc4>)
   21970:	2503      	movs	r5, #3
   21972:	2600      	movs	r6, #0
   21974:	4620      	mov	r0, r4
   21976:	4629      	mov	r1, r5
   21978:	4632      	mov	r2, r6
   2197a:	4633      	mov	r3, r6
   2197c:	df03      	svc	3
   2197e:	4620      	mov	r0, r4
   21980:	4629      	mov	r1, r5
   21982:	4632      	mov	r2, r6
   21984:	4633      	mov	r3, r6
   21986:	df04      	svc	4
   21988:	b013      	add	sp, #76	@ 0x4c
   2198a:	bdf0      	pop	{r4, r5, r6, r7, pc}
   2198c:	4810      	ldr	r0, [pc, #64]	@ (219d0 <_ZN18complex_no_dynamic3app17h421618dc6af6cdbcE+0xc4>)
   2198e:	2103      	movs	r1, #3
   21990:	4632      	mov	r2, r6
   21992:	4633      	mov	r3, r6
   21994:	df03      	svc	3
   21996:	2e00      	cmp	r6, #0
   21998:	d1e5      	bne.n	21966 <_ZN18complex_no_dynamic3app17h421618dc6af6cdbcE+0x5a>
   2199a:	480d      	ldr	r0, [pc, #52]	@ (219d0 <_ZN18complex_no_dynamic3app17h421618dc6af6cdbcE+0xc4>)
   2199c:	2403      	movs	r4, #3
   2199e:	4621      	mov	r1, r4
   219a0:	462a      	mov	r2, r5
   219a2:	462b      	mov	r3, r5
   219a4:	df03      	svc	3
   219a6:	9e00      	ldr	r6, [sp, #0]
   219a8:	1c70      	adds	r0, r6, #1
   219aa:	a90b      	add	r1, sp, #44	@ 0x2c
   219ac:	221e      	movs	r2, #30
   219ae:	f006 f954 	bl	27c5a <__aeabi_memcpy>
   219b2:	7035      	strb	r5, [r6, #0]
   219b4:	4e06      	ldr	r6, [pc, #24]	@ (219d0 <_ZN18complex_no_dynamic3app17h421618dc6af6cdbcE+0xc4>)
   219b6:	4630      	mov	r0, r6
   219b8:	4621      	mov	r1, r4
   219ba:	462a      	mov	r2, r5
   219bc:	462b      	mov	r3, r5
   219be:	df03      	svc	3
   219c0:	4630      	mov	r0, r6
   219c2:	4621      	mov	r1, r4
   219c4:	462a      	mov	r2, r5
   219c6:	462b      	mov	r3, r5
   219c8:	df04      	svc	4
   219ca:	b013      	add	sp, #76	@ 0x4c
   219cc:	bdf0      	pop	{r4, r5, r6, r7, pc}
   219ce:	46c0      	nop			@ (mov r8, r8)
   219d0:	000010e2 	.word	0x000010e2

000219d4 <_ZN18complex_no_dynamic3app17h4264c5237183a1c0E>:
   219d4:	b5f0      	push	{r4, r5, r6, r7, lr}
   219d6:	af03      	add	r7, sp, #12
   219d8:	b0a3      	sub	sp, #140	@ 0x8c
   219da:	4604      	mov	r4, r0
   219dc:	466d      	mov	r5, sp
   219de:	264d      	movs	r6, #77	@ 0x4d
   219e0:	4628      	mov	r0, r5
   219e2:	4632      	mov	r2, r6
   219e4:	f006 f939 	bl	27c5a <__aeabi_memcpy>
   219e8:	a814      	add	r0, sp, #80	@ 0x50
   219ea:	213c      	movs	r1, #60	@ 0x3c
   219ec:	f005 ff88 	bl	27900 <__aeabi_memclr4>
   219f0:	4824      	ldr	r0, [pc, #144]	@ (21a84 <_ZN18complex_no_dynamic3app17h4264c5237183a1c0E+0xb0>)
   219f2:	2104      	movs	r1, #4
   219f4:	462a      	mov	r2, r5
   219f6:	4633      	mov	r3, r6
   219f8:	df04      	svc	4
   219fa:	2802      	cmp	r0, #2
   219fc:	d00e      	beq.n	21a1c <_ZN18complex_no_dynamic3app17h4264c5237183a1c0E+0x48>
   219fe:	4821      	ldr	r0, [pc, #132]	@ (21a84 <_ZN18complex_no_dynamic3app17h4264c5237183a1c0E+0xb0>)
   21a00:	2109      	movs	r1, #9
   21a02:	aa14      	add	r2, sp, #80	@ 0x50
   21a04:	233c      	movs	r3, #60	@ 0x3c
   21a06:	df03      	svc	3
   21a08:	2802      	cmp	r0, #2
   21a0a:	d007      	beq.n	21a1c <_ZN18complex_no_dynamic3app17h4264c5237183a1c0E+0x48>
   21a0c:	481d      	ldr	r0, [pc, #116]	@ (21a84 <_ZN18complex_no_dynamic3app17h4264c5237183a1c0E+0xb0>)
   21a0e:	2104      	movs	r1, #4
   21a10:	2209      	movs	r2, #9
   21a12:	2500      	movs	r5, #0
   21a14:	462b      	mov	r3, r5
   21a16:	df02      	svc	2
   21a18:	287f      	cmp	r0, #127	@ 0x7f
   21a1a:	d813      	bhi.n	21a44 <_ZN18complex_no_dynamic3app17h4264c5237183a1c0E+0x70>
   21a1c:	2501      	movs	r5, #1
   21a1e:	2d00      	cmp	r5, #0
   21a20:	d017      	beq.n	21a52 <_ZN18complex_no_dynamic3app17h4264c5237183a1c0E+0x7e>
   21a22:	2001      	movs	r0, #1
   21a24:	7020      	strb	r0, [r4, #0]
   21a26:	6061      	str	r1, [r4, #4]
   21a28:	4c16      	ldr	r4, [pc, #88]	@ (21a84 <_ZN18complex_no_dynamic3app17h4264c5237183a1c0E+0xb0>)
   21a2a:	2109      	movs	r1, #9
   21a2c:	2500      	movs	r5, #0
   21a2e:	4620      	mov	r0, r4
   21a30:	462a      	mov	r2, r5
   21a32:	462b      	mov	r3, r5
   21a34:	df03      	svc	3
   21a36:	2104      	movs	r1, #4
   21a38:	4620      	mov	r0, r4
   21a3a:	462a      	mov	r2, r5
   21a3c:	462b      	mov	r3, r5
   21a3e:	df04      	svc	4
   21a40:	b023      	add	sp, #140	@ 0x8c
   21a42:	bdf0      	pop	{r4, r5, r6, r7, pc}
   21a44:	480f      	ldr	r0, [pc, #60]	@ (21a84 <_ZN18complex_no_dynamic3app17h4264c5237183a1c0E+0xb0>)
   21a46:	2109      	movs	r1, #9
   21a48:	462a      	mov	r2, r5
   21a4a:	462b      	mov	r3, r5
   21a4c:	df03      	svc	3
   21a4e:	2d00      	cmp	r5, #0
   21a50:	d1e7      	bne.n	21a22 <_ZN18complex_no_dynamic3app17h4264c5237183a1c0E+0x4e>
   21a52:	480c      	ldr	r0, [pc, #48]	@ (21a84 <_ZN18complex_no_dynamic3app17h4264c5237183a1c0E+0xb0>)
   21a54:	2609      	movs	r6, #9
   21a56:	2500      	movs	r5, #0
   21a58:	4631      	mov	r1, r6
   21a5a:	462a      	mov	r2, r5
   21a5c:	462b      	mov	r3, r5
   21a5e:	df03      	svc	3
   21a60:	1c60      	adds	r0, r4, #1
   21a62:	a914      	add	r1, sp, #80	@ 0x50
   21a64:	223c      	movs	r2, #60	@ 0x3c
   21a66:	f006 f8f8 	bl	27c5a <__aeabi_memcpy>
   21a6a:	7025      	strb	r5, [r4, #0]
   21a6c:	4805      	ldr	r0, [pc, #20]	@ (21a84 <_ZN18complex_no_dynamic3app17h4264c5237183a1c0E+0xb0>)
   21a6e:	4631      	mov	r1, r6
   21a70:	462a      	mov	r2, r5
   21a72:	462b      	mov	r3, r5
   21a74:	df03      	svc	3
   21a76:	2104      	movs	r1, #4
   21a78:	4802      	ldr	r0, [pc, #8]	@ (21a84 <_ZN18complex_no_dynamic3app17h4264c5237183a1c0E+0xb0>)
   21a7a:	462a      	mov	r2, r5
   21a7c:	462b      	mov	r3, r5
   21a7e:	df04      	svc	4
   21a80:	b023      	add	sp, #140	@ 0x8c
   21a82:	bdf0      	pop	{r4, r5, r6, r7, pc}
   21a84:	000021ab 	.word	0x000021ab

00021a88 <_ZN18complex_no_dynamic3app17h43bb31188ef1f603E>:
   21a88:	b5f0      	push	{r4, r5, r6, r7, lr}
   21a8a:	af03      	add	r7, sp, #12
   21a8c:	b095      	sub	sp, #84	@ 0x54
   21a8e:	9000      	str	r0, [sp, #0]
   21a90:	ae01      	add	r6, sp, #4
   21a92:	2421      	movs	r4, #33	@ 0x21
   21a94:	4630      	mov	r0, r6
   21a96:	4622      	mov	r2, r4
   21a98:	f006 f8df 	bl	27c5a <__aeabi_memcpy>
   21a9c:	a80a      	add	r0, sp, #40	@ 0x28
   21a9e:	212a      	movs	r1, #42	@ 0x2a
   21aa0:	f005 ff2e 	bl	27900 <__aeabi_memclr4>
   21aa4:	4826      	ldr	r0, [pc, #152]	@ (21b40 <_ZN18complex_no_dynamic3app17h43bb31188ef1f603E+0xb8>)
   21aa6:	2501      	movs	r5, #1
   21aa8:	4629      	mov	r1, r5
   21aaa:	4632      	mov	r2, r6
   21aac:	4623      	mov	r3, r4
   21aae:	df04      	svc	4
   21ab0:	2802      	cmp	r0, #2
   21ab2:	d015      	beq.n	21ae0 <_ZN18complex_no_dynamic3app17h43bb31188ef1f603E+0x58>
   21ab4:	4822      	ldr	r0, [pc, #136]	@ (21b40 <_ZN18complex_no_dynamic3app17h43bb31188ef1f603E+0xb8>)
   21ab6:	2103      	movs	r1, #3
   21ab8:	aa0a      	add	r2, sp, #40	@ 0x28
   21aba:	232a      	movs	r3, #42	@ 0x2a
   21abc:	df03      	svc	3
   21abe:	2802      	cmp	r0, #2
   21ac0:	d00e      	beq.n	21ae0 <_ZN18complex_no_dynamic3app17h43bb31188ef1f603E+0x58>
   21ac2:	481f      	ldr	r0, [pc, #124]	@ (21b40 <_ZN18complex_no_dynamic3app17h43bb31188ef1f603E+0xb8>)
   21ac4:	2501      	movs	r5, #1
   21ac6:	2203      	movs	r2, #3
   21ac8:	2600      	movs	r6, #0
   21aca:	4629      	mov	r1, r5
   21acc:	4633      	mov	r3, r6
   21ace:	df02      	svc	2
   21ad0:	287f      	cmp	r0, #127	@ 0x7f
   21ad2:	d905      	bls.n	21ae0 <_ZN18complex_no_dynamic3app17h43bb31188ef1f603E+0x58>
   21ad4:	481a      	ldr	r0, [pc, #104]	@ (21b40 <_ZN18complex_no_dynamic3app17h43bb31188ef1f603E+0xb8>)
   21ad6:	2103      	movs	r1, #3
   21ad8:	4632      	mov	r2, r6
   21ada:	4633      	mov	r3, r6
   21adc:	df03      	svc	3
   21ade:	4635      	mov	r5, r6
   21ae0:	2d00      	cmp	r5, #0
   21ae2:	d011      	beq.n	21b08 <_ZN18complex_no_dynamic3app17h43bb31188ef1f603E+0x80>
   21ae4:	2401      	movs	r4, #1
   21ae6:	9800      	ldr	r0, [sp, #0]
   21ae8:	7004      	strb	r4, [r0, #0]
   21aea:	6041      	str	r1, [r0, #4]
   21aec:	4d14      	ldr	r5, [pc, #80]	@ (21b40 <_ZN18complex_no_dynamic3app17h43bb31188ef1f603E+0xb8>)
   21aee:	2103      	movs	r1, #3
   21af0:	2600      	movs	r6, #0
   21af2:	4628      	mov	r0, r5
   21af4:	4632      	mov	r2, r6
   21af6:	4633      	mov	r3, r6
   21af8:	df03      	svc	3
   21afa:	4628      	mov	r0, r5
   21afc:	4621      	mov	r1, r4
   21afe:	4632      	mov	r2, r6
   21b00:	4633      	mov	r3, r6
   21b02:	df04      	svc	4
   21b04:	b015      	add	sp, #84	@ 0x54
   21b06:	bdf0      	pop	{r4, r5, r6, r7, pc}
   21b08:	480d      	ldr	r0, [pc, #52]	@ (21b40 <_ZN18complex_no_dynamic3app17h43bb31188ef1f603E+0xb8>)
   21b0a:	2403      	movs	r4, #3
   21b0c:	2500      	movs	r5, #0
   21b0e:	4621      	mov	r1, r4
   21b10:	462a      	mov	r2, r5
   21b12:	462b      	mov	r3, r5
   21b14:	df03      	svc	3
   21b16:	9e00      	ldr	r6, [sp, #0]
   21b18:	1c70      	adds	r0, r6, #1
   21b1a:	a90a      	add	r1, sp, #40	@ 0x28
   21b1c:	222a      	movs	r2, #42	@ 0x2a
   21b1e:	f006 f89c 	bl	27c5a <__aeabi_memcpy>
   21b22:	7035      	strb	r5, [r6, #0]
   21b24:	4e06      	ldr	r6, [pc, #24]	@ (21b40 <_ZN18complex_no_dynamic3app17h43bb31188ef1f603E+0xb8>)
   21b26:	4630      	mov	r0, r6
   21b28:	4621      	mov	r1, r4
   21b2a:	462a      	mov	r2, r5
   21b2c:	462b      	mov	r3, r5
   21b2e:	df03      	svc	3
   21b30:	2101      	movs	r1, #1
   21b32:	4630      	mov	r0, r6
   21b34:	462a      	mov	r2, r5
   21b36:	462b      	mov	r3, r5
   21b38:	df04      	svc	4
   21b3a:	b015      	add	sp, #84	@ 0x54
   21b3c:	bdf0      	pop	{r4, r5, r6, r7, pc}
   21b3e:	46c0      	nop			@ (mov r8, r8)
   21b40:	000015f3 	.word	0x000015f3

00021b44 <_ZN18complex_no_dynamic3app17h446eb45e7f8d0fefE>:
   21b44:	b5f0      	push	{r4, r5, r6, r7, lr}
   21b46:	af03      	add	r7, sp, #12
   21b48:	b095      	sub	sp, #84	@ 0x54
   21b4a:	4604      	mov	r4, r0
   21b4c:	466d      	mov	r5, sp
   21b4e:	262c      	movs	r6, #44	@ 0x2c
   21b50:	4628      	mov	r0, r5
   21b52:	4632      	mov	r2, r6
   21b54:	f006 f881 	bl	27c5a <__aeabi_memcpy>
   21b58:	a80b      	add	r0, sp, #44	@ 0x2c
   21b5a:	2125      	movs	r1, #37	@ 0x25
   21b5c:	f005 fed0 	bl	27900 <__aeabi_memclr4>
   21b60:	4824      	ldr	r0, [pc, #144]	@ (21bf4 <_ZN18complex_no_dynamic3app17h446eb45e7f8d0fefE+0xb0>)
   21b62:	2103      	movs	r1, #3
   21b64:	462a      	mov	r2, r5
   21b66:	4633      	mov	r3, r6
   21b68:	df04      	svc	4
   21b6a:	2802      	cmp	r0, #2
   21b6c:	d00e      	beq.n	21b8c <_ZN18complex_no_dynamic3app17h446eb45e7f8d0fefE+0x48>
   21b6e:	4821      	ldr	r0, [pc, #132]	@ (21bf4 <_ZN18complex_no_dynamic3app17h446eb45e7f8d0fefE+0xb0>)
   21b70:	2100      	movs	r1, #0
   21b72:	aa0b      	add	r2, sp, #44	@ 0x2c
   21b74:	2325      	movs	r3, #37	@ 0x25
   21b76:	df03      	svc	3
   21b78:	2802      	cmp	r0, #2
   21b7a:	d007      	beq.n	21b8c <_ZN18complex_no_dynamic3app17h446eb45e7f8d0fefE+0x48>
   21b7c:	481d      	ldr	r0, [pc, #116]	@ (21bf4 <_ZN18complex_no_dynamic3app17h446eb45e7f8d0fefE+0xb0>)
   21b7e:	2103      	movs	r1, #3
   21b80:	2500      	movs	r5, #0
   21b82:	462a      	mov	r2, r5
   21b84:	462b      	mov	r3, r5
   21b86:	df02      	svc	2
   21b88:	287f      	cmp	r0, #127	@ 0x7f
   21b8a:	d813      	bhi.n	21bb4 <_ZN18complex_no_dynamic3app17h446eb45e7f8d0fefE+0x70>
   21b8c:	2501      	movs	r5, #1
   21b8e:	2d00      	cmp	r5, #0
   21b90:	d017      	beq.n	21bc2 <_ZN18complex_no_dynamic3app17h446eb45e7f8d0fefE+0x7e>
   21b92:	2001      	movs	r0, #1
   21b94:	7020      	strb	r0, [r4, #0]
   21b96:	6061      	str	r1, [r4, #4]
   21b98:	4c16      	ldr	r4, [pc, #88]	@ (21bf4 <_ZN18complex_no_dynamic3app17h446eb45e7f8d0fefE+0xb0>)
   21b9a:	2500      	movs	r5, #0
   21b9c:	4620      	mov	r0, r4
   21b9e:	4629      	mov	r1, r5
   21ba0:	462a      	mov	r2, r5
   21ba2:	462b      	mov	r3, r5
   21ba4:	df03      	svc	3
   21ba6:	2103      	movs	r1, #3
   21ba8:	4620      	mov	r0, r4
   21baa:	462a      	mov	r2, r5
   21bac:	462b      	mov	r3, r5
   21bae:	df04      	svc	4
   21bb0:	b015      	add	sp, #84	@ 0x54
   21bb2:	bdf0      	pop	{r4, r5, r6, r7, pc}
   21bb4:	480f      	ldr	r0, [pc, #60]	@ (21bf4 <_ZN18complex_no_dynamic3app17h446eb45e7f8d0fefE+0xb0>)
   21bb6:	4629      	mov	r1, r5
   21bb8:	462a      	mov	r2, r5
   21bba:	462b      	mov	r3, r5
   21bbc:	df03      	svc	3
   21bbe:	2d00      	cmp	r5, #0
   21bc0:	d1e7      	bne.n	21b92 <_ZN18complex_no_dynamic3app17h446eb45e7f8d0fefE+0x4e>
   21bc2:	4e0c      	ldr	r6, [pc, #48]	@ (21bf4 <_ZN18complex_no_dynamic3app17h446eb45e7f8d0fefE+0xb0>)
   21bc4:	2500      	movs	r5, #0
   21bc6:	4630      	mov	r0, r6
   21bc8:	4629      	mov	r1, r5
   21bca:	462a      	mov	r2, r5
   21bcc:	462b      	mov	r3, r5
   21bce:	df03      	svc	3
   21bd0:	1c60      	adds	r0, r4, #1
   21bd2:	a90b      	add	r1, sp, #44	@ 0x2c
   21bd4:	2225      	movs	r2, #37	@ 0x25
   21bd6:	f006 f840 	bl	27c5a <__aeabi_memcpy>
   21bda:	7025      	strb	r5, [r4, #0]
   21bdc:	4630      	mov	r0, r6
   21bde:	4629      	mov	r1, r5
   21be0:	462a      	mov	r2, r5
   21be2:	462b      	mov	r3, r5
   21be4:	df03      	svc	3
   21be6:	2103      	movs	r1, #3
   21be8:	4630      	mov	r0, r6
   21bea:	462a      	mov	r2, r5
   21bec:	462b      	mov	r3, r5
   21bee:	df04      	svc	4
   21bf0:	b015      	add	sp, #84	@ 0x54
   21bf2:	bdf0      	pop	{r4, r5, r6, r7, pc}
   21bf4:	0000077f 	.word	0x0000077f

00021bf8 <_ZN18complex_no_dynamic3app17h4824f0c8efd79ef0E>:
   21bf8:	b5f0      	push	{r4, r5, r6, r7, lr}
   21bfa:	af03      	add	r7, sp, #12
   21bfc:	b097      	sub	sp, #92	@ 0x5c
   21bfe:	9000      	str	r0, [sp, #0]
   21c00:	ae01      	add	r6, sp, #4
   21c02:	2448      	movs	r4, #72	@ 0x48
   21c04:	4630      	mov	r0, r6
   21c06:	4622      	mov	r2, r4
   21c08:	f006 f827 	bl	27c5a <__aeabi_memcpy>
   21c0c:	a813      	add	r0, sp, #76	@ 0x4c
   21c0e:	2500      	movs	r5, #0
   21c10:	7385      	strb	r5, [r0, #14]
   21c12:	8185      	strh	r5, [r0, #12]
   21c14:	9515      	str	r5, [sp, #84]	@ 0x54
   21c16:	9514      	str	r5, [sp, #80]	@ 0x50
   21c18:	9513      	str	r5, [sp, #76]	@ 0x4c
   21c1a:	4826      	ldr	r0, [pc, #152]	@ (21cb4 <_ZN18complex_no_dynamic3app17h4824f0c8efd79ef0E+0xbc>)
   21c1c:	2108      	movs	r1, #8
   21c1e:	4632      	mov	r2, r6
   21c20:	4623      	mov	r3, r4
   21c22:	df04      	svc	4
   21c24:	2802      	cmp	r0, #2
   21c26:	d00e      	beq.n	21c46 <_ZN18complex_no_dynamic3app17h4824f0c8efd79ef0E+0x4e>
   21c28:	4822      	ldr	r0, [pc, #136]	@ (21cb4 <_ZN18complex_no_dynamic3app17h4824f0c8efd79ef0E+0xbc>)
   21c2a:	2109      	movs	r1, #9
   21c2c:	aa13      	add	r2, sp, #76	@ 0x4c
   21c2e:	230f      	movs	r3, #15
   21c30:	df03      	svc	3
   21c32:	2802      	cmp	r0, #2
   21c34:	d007      	beq.n	21c46 <_ZN18complex_no_dynamic3app17h4824f0c8efd79ef0E+0x4e>
   21c36:	481f      	ldr	r0, [pc, #124]	@ (21cb4 <_ZN18complex_no_dynamic3app17h4824f0c8efd79ef0E+0xbc>)
   21c38:	2108      	movs	r1, #8
   21c3a:	2209      	movs	r2, #9
   21c3c:	2600      	movs	r6, #0
   21c3e:	4633      	mov	r3, r6
   21c40:	df02      	svc	2
   21c42:	287f      	cmp	r0, #127	@ 0x7f
   21c44:	d814      	bhi.n	21c70 <_ZN18complex_no_dynamic3app17h4824f0c8efd79ef0E+0x78>
   21c46:	2601      	movs	r6, #1
   21c48:	2e00      	cmp	r6, #0
   21c4a:	d018      	beq.n	21c7e <_ZN18complex_no_dynamic3app17h4824f0c8efd79ef0E+0x86>
   21c4c:	2001      	movs	r0, #1
   21c4e:	9a00      	ldr	r2, [sp, #0]
   21c50:	7010      	strb	r0, [r2, #0]
   21c52:	6051      	str	r1, [r2, #4]
   21c54:	4c17      	ldr	r4, [pc, #92]	@ (21cb4 <_ZN18complex_no_dynamic3app17h4824f0c8efd79ef0E+0xbc>)
   21c56:	2109      	movs	r1, #9
   21c58:	2500      	movs	r5, #0
   21c5a:	4620      	mov	r0, r4
   21c5c:	462a      	mov	r2, r5
   21c5e:	462b      	mov	r3, r5
   21c60:	df03      	svc	3
   21c62:	2108      	movs	r1, #8
   21c64:	4620      	mov	r0, r4
   21c66:	462a      	mov	r2, r5
   21c68:	462b      	mov	r3, r5
   21c6a:	df04      	svc	4
   21c6c:	b017      	add	sp, #92	@ 0x5c
   21c6e:	bdf0      	pop	{r4, r5, r6, r7, pc}
   21c70:	4810      	ldr	r0, [pc, #64]	@ (21cb4 <_ZN18complex_no_dynamic3app17h4824f0c8efd79ef0E+0xbc>)
   21c72:	2109      	movs	r1, #9
   21c74:	4632      	mov	r2, r6
   21c76:	4633      	mov	r3, r6
   21c78:	df03      	svc	3
   21c7a:	2e00      	cmp	r6, #0
   21c7c:	d1e6      	bne.n	21c4c <_ZN18complex_no_dynamic3app17h4824f0c8efd79ef0E+0x54>
   21c7e:	480d      	ldr	r0, [pc, #52]	@ (21cb4 <_ZN18complex_no_dynamic3app17h4824f0c8efd79ef0E+0xbc>)
   21c80:	2409      	movs	r4, #9
   21c82:	4621      	mov	r1, r4
   21c84:	462a      	mov	r2, r5
   21c86:	462b      	mov	r3, r5
   21c88:	df03      	svc	3
   21c8a:	9e00      	ldr	r6, [sp, #0]
   21c8c:	1c70      	adds	r0, r6, #1
   21c8e:	a913      	add	r1, sp, #76	@ 0x4c
   21c90:	220f      	movs	r2, #15
   21c92:	f005 ffe2 	bl	27c5a <__aeabi_memcpy>
   21c96:	7035      	strb	r5, [r6, #0]
   21c98:	4e06      	ldr	r6, [pc, #24]	@ (21cb4 <_ZN18complex_no_dynamic3app17h4824f0c8efd79ef0E+0xbc>)
   21c9a:	4630      	mov	r0, r6
   21c9c:	4621      	mov	r1, r4
   21c9e:	462a      	mov	r2, r5
   21ca0:	462b      	mov	r3, r5
   21ca2:	df03      	svc	3
   21ca4:	2108      	movs	r1, #8
   21ca6:	4630      	mov	r0, r6
   21ca8:	462a      	mov	r2, r5
   21caa:	462b      	mov	r3, r5
   21cac:	df04      	svc	4
   21cae:	b017      	add	sp, #92	@ 0x5c
   21cb0:	bdf0      	pop	{r4, r5, r6, r7, pc}
   21cb2:	46c0      	nop			@ (mov r8, r8)
   21cb4:	0000111d 	.word	0x0000111d

00021cb8 <_ZN18complex_no_dynamic3app17h4a0132e65c16811bE>:
   21cb8:	b5f0      	push	{r4, r5, r6, r7, lr}
   21cba:	af03      	add	r7, sp, #12
   21cbc:	b099      	sub	sp, #100	@ 0x64
   21cbe:	4604      	mov	r4, r0
   21cc0:	466d      	mov	r5, sp
   21cc2:	2611      	movs	r6, #17
   21cc4:	4628      	mov	r0, r5
   21cc6:	4632      	mov	r2, r6
   21cc8:	f005 ffc7 	bl	27c5a <__aeabi_memcpy>
   21ccc:	a805      	add	r0, sp, #20
   21cce:	2150      	movs	r1, #80	@ 0x50
   21cd0:	f005 fe16 	bl	27900 <__aeabi_memclr4>
   21cd4:	4824      	ldr	r0, [pc, #144]	@ (21d68 <_ZN18complex_no_dynamic3app17h4a0132e65c16811bE+0xb0>)
   21cd6:	2106      	movs	r1, #6
   21cd8:	462a      	mov	r2, r5
   21cda:	4633      	mov	r3, r6
   21cdc:	df04      	svc	4
   21cde:	2802      	cmp	r0, #2
   21ce0:	d00e      	beq.n	21d00 <_ZN18complex_no_dynamic3app17h4a0132e65c16811bE+0x48>
   21ce2:	4821      	ldr	r0, [pc, #132]	@ (21d68 <_ZN18complex_no_dynamic3app17h4a0132e65c16811bE+0xb0>)
   21ce4:	2105      	movs	r1, #5
   21ce6:	aa05      	add	r2, sp, #20
   21ce8:	2350      	movs	r3, #80	@ 0x50
   21cea:	df03      	svc	3
   21cec:	2802      	cmp	r0, #2
   21cee:	d007      	beq.n	21d00 <_ZN18complex_no_dynamic3app17h4a0132e65c16811bE+0x48>
   21cf0:	481d      	ldr	r0, [pc, #116]	@ (21d68 <_ZN18complex_no_dynamic3app17h4a0132e65c16811bE+0xb0>)
   21cf2:	2106      	movs	r1, #6
   21cf4:	2205      	movs	r2, #5
   21cf6:	2500      	movs	r5, #0
   21cf8:	462b      	mov	r3, r5
   21cfa:	df02      	svc	2
   21cfc:	287f      	cmp	r0, #127	@ 0x7f
   21cfe:	d813      	bhi.n	21d28 <_ZN18complex_no_dynamic3app17h4a0132e65c16811bE+0x70>
   21d00:	2501      	movs	r5, #1
   21d02:	2d00      	cmp	r5, #0
   21d04:	d017      	beq.n	21d36 <_ZN18complex_no_dynamic3app17h4a0132e65c16811bE+0x7e>
   21d06:	2001      	movs	r0, #1
   21d08:	7020      	strb	r0, [r4, #0]
   21d0a:	6061      	str	r1, [r4, #4]
   21d0c:	4c16      	ldr	r4, [pc, #88]	@ (21d68 <_ZN18complex_no_dynamic3app17h4a0132e65c16811bE+0xb0>)
   21d0e:	2105      	movs	r1, #5
   21d10:	2500      	movs	r5, #0
   21d12:	4620      	mov	r0, r4
   21d14:	462a      	mov	r2, r5
   21d16:	462b      	mov	r3, r5
   21d18:	df03      	svc	3
   21d1a:	2106      	movs	r1, #6
   21d1c:	4620      	mov	r0, r4
   21d1e:	462a      	mov	r2, r5
   21d20:	462b      	mov	r3, r5
   21d22:	df04      	svc	4
   21d24:	b019      	add	sp, #100	@ 0x64
   21d26:	bdf0      	pop	{r4, r5, r6, r7, pc}
   21d28:	480f      	ldr	r0, [pc, #60]	@ (21d68 <_ZN18complex_no_dynamic3app17h4a0132e65c16811bE+0xb0>)
   21d2a:	2105      	movs	r1, #5
   21d2c:	462a      	mov	r2, r5
   21d2e:	462b      	mov	r3, r5
   21d30:	df03      	svc	3
   21d32:	2d00      	cmp	r5, #0
   21d34:	d1e7      	bne.n	21d06 <_ZN18complex_no_dynamic3app17h4a0132e65c16811bE+0x4e>
   21d36:	480c      	ldr	r0, [pc, #48]	@ (21d68 <_ZN18complex_no_dynamic3app17h4a0132e65c16811bE+0xb0>)
   21d38:	2605      	movs	r6, #5
   21d3a:	2500      	movs	r5, #0
   21d3c:	4631      	mov	r1, r6
   21d3e:	462a      	mov	r2, r5
   21d40:	462b      	mov	r3, r5
   21d42:	df03      	svc	3
   21d44:	1c60      	adds	r0, r4, #1
   21d46:	a905      	add	r1, sp, #20
   21d48:	2250      	movs	r2, #80	@ 0x50
   21d4a:	f005 ff86 	bl	27c5a <__aeabi_memcpy>
   21d4e:	7025      	strb	r5, [r4, #0]
   21d50:	4805      	ldr	r0, [pc, #20]	@ (21d68 <_ZN18complex_no_dynamic3app17h4a0132e65c16811bE+0xb0>)
   21d52:	4631      	mov	r1, r6
   21d54:	462a      	mov	r2, r5
   21d56:	462b      	mov	r3, r5
   21d58:	df03      	svc	3
   21d5a:	2106      	movs	r1, #6
   21d5c:	4802      	ldr	r0, [pc, #8]	@ (21d68 <_ZN18complex_no_dynamic3app17h4a0132e65c16811bE+0xb0>)
   21d5e:	462a      	mov	r2, r5
   21d60:	462b      	mov	r3, r5
   21d62:	df04      	svc	4
   21d64:	b019      	add	sp, #100	@ 0x64
   21d66:	bdf0      	pop	{r4, r5, r6, r7, pc}
   21d68:	00001aa9 	.word	0x00001aa9

00021d6c <_ZN18complex_no_dynamic3app17h4b03158e23b41425E>:
   21d6c:	b5f0      	push	{r4, r5, r6, r7, lr}
   21d6e:	af03      	add	r7, sp, #12
   21d70:	b09b      	sub	sp, #108	@ 0x6c
   21d72:	4604      	mov	r4, r0
   21d74:	ad01      	add	r5, sp, #4
   21d76:	263c      	movs	r6, #60	@ 0x3c
   21d78:	4628      	mov	r0, r5
   21d7a:	4632      	mov	r2, r6
   21d7c:	f005 ff6d 	bl	27c5a <__aeabi_memcpy>
   21d80:	a810      	add	r0, sp, #64	@ 0x40
   21d82:	212c      	movs	r1, #44	@ 0x2c
   21d84:	f005 fdbc 	bl	27900 <__aeabi_memclr4>
   21d88:	4824      	ldr	r0, [pc, #144]	@ (21e1c <_ZN18complex_no_dynamic3app17h4b03158e23b41425E+0xb0>)
   21d8a:	2105      	movs	r1, #5
   21d8c:	462a      	mov	r2, r5
   21d8e:	4633      	mov	r3, r6
   21d90:	df04      	svc	4
   21d92:	2802      	cmp	r0, #2
   21d94:	d00e      	beq.n	21db4 <_ZN18complex_no_dynamic3app17h4b03158e23b41425E+0x48>
   21d96:	4821      	ldr	r0, [pc, #132]	@ (21e1c <_ZN18complex_no_dynamic3app17h4b03158e23b41425E+0xb0>)
   21d98:	2107      	movs	r1, #7
   21d9a:	aa10      	add	r2, sp, #64	@ 0x40
   21d9c:	232c      	movs	r3, #44	@ 0x2c
   21d9e:	df03      	svc	3
   21da0:	2802      	cmp	r0, #2
   21da2:	d007      	beq.n	21db4 <_ZN18complex_no_dynamic3app17h4b03158e23b41425E+0x48>
   21da4:	481d      	ldr	r0, [pc, #116]	@ (21e1c <_ZN18complex_no_dynamic3app17h4b03158e23b41425E+0xb0>)
   21da6:	2105      	movs	r1, #5
   21da8:	2207      	movs	r2, #7
   21daa:	2500      	movs	r5, #0
   21dac:	462b      	mov	r3, r5
   21dae:	df02      	svc	2
   21db0:	287f      	cmp	r0, #127	@ 0x7f
   21db2:	d813      	bhi.n	21ddc <_ZN18complex_no_dynamic3app17h4b03158e23b41425E+0x70>
   21db4:	2501      	movs	r5, #1
   21db6:	2d00      	cmp	r5, #0
   21db8:	d017      	beq.n	21dea <_ZN18complex_no_dynamic3app17h4b03158e23b41425E+0x7e>
   21dba:	2001      	movs	r0, #1
   21dbc:	7020      	strb	r0, [r4, #0]
   21dbe:	6061      	str	r1, [r4, #4]
   21dc0:	4c16      	ldr	r4, [pc, #88]	@ (21e1c <_ZN18complex_no_dynamic3app17h4b03158e23b41425E+0xb0>)
   21dc2:	2107      	movs	r1, #7
   21dc4:	2500      	movs	r5, #0
   21dc6:	4620      	mov	r0, r4
   21dc8:	462a      	mov	r2, r5
   21dca:	462b      	mov	r3, r5
   21dcc:	df03      	svc	3
   21dce:	2105      	movs	r1, #5
   21dd0:	4620      	mov	r0, r4
   21dd2:	462a      	mov	r2, r5
   21dd4:	462b      	mov	r3, r5
   21dd6:	df04      	svc	4
   21dd8:	b01b      	add	sp, #108	@ 0x6c
   21dda:	bdf0      	pop	{r4, r5, r6, r7, pc}
   21ddc:	480f      	ldr	r0, [pc, #60]	@ (21e1c <_ZN18complex_no_dynamic3app17h4b03158e23b41425E+0xb0>)
   21dde:	2107      	movs	r1, #7
   21de0:	462a      	mov	r2, r5
   21de2:	462b      	mov	r3, r5
   21de4:	df03      	svc	3
   21de6:	2d00      	cmp	r5, #0
   21de8:	d1e7      	bne.n	21dba <_ZN18complex_no_dynamic3app17h4b03158e23b41425E+0x4e>
   21dea:	480c      	ldr	r0, [pc, #48]	@ (21e1c <_ZN18complex_no_dynamic3app17h4b03158e23b41425E+0xb0>)
   21dec:	2607      	movs	r6, #7
   21dee:	2500      	movs	r5, #0
   21df0:	4631      	mov	r1, r6
   21df2:	462a      	mov	r2, r5
   21df4:	462b      	mov	r3, r5
   21df6:	df03      	svc	3
   21df8:	1c60      	adds	r0, r4, #1
   21dfa:	a910      	add	r1, sp, #64	@ 0x40
   21dfc:	222c      	movs	r2, #44	@ 0x2c
   21dfe:	f005 ff2c 	bl	27c5a <__aeabi_memcpy>
   21e02:	7025      	strb	r5, [r4, #0]
   21e04:	4805      	ldr	r0, [pc, #20]	@ (21e1c <_ZN18complex_no_dynamic3app17h4b03158e23b41425E+0xb0>)
   21e06:	4631      	mov	r1, r6
   21e08:	462a      	mov	r2, r5
   21e0a:	462b      	mov	r3, r5
   21e0c:	df03      	svc	3
   21e0e:	2105      	movs	r1, #5
   21e10:	4802      	ldr	r0, [pc, #8]	@ (21e1c <_ZN18complex_no_dynamic3app17h4b03158e23b41425E+0xb0>)
   21e12:	462a      	mov	r2, r5
   21e14:	462b      	mov	r3, r5
   21e16:	df04      	svc	4
   21e18:	b01b      	add	sp, #108	@ 0x6c
   21e1a:	bdf0      	pop	{r4, r5, r6, r7, pc}
   21e1c:	00001eac 	.word	0x00001eac

00021e20 <_ZN18complex_no_dynamic3app17h4ba17351bbb97bd4E>:
   21e20:	b5f0      	push	{r4, r5, r6, r7, lr}
   21e22:	af03      	add	r7, sp, #12
   21e24:	b09f      	sub	sp, #124	@ 0x7c
   21e26:	4604      	mov	r4, r0
   21e28:	ad01      	add	r5, sp, #4
   21e2a:	2627      	movs	r6, #39	@ 0x27
   21e2c:	4628      	mov	r0, r5
   21e2e:	4632      	mov	r2, r6
   21e30:	f005 ff13 	bl	27c5a <__aeabi_memcpy>
   21e34:	a80b      	add	r0, sp, #44	@ 0x2c
   21e36:	214f      	movs	r1, #79	@ 0x4f
   21e38:	f005 fd62 	bl	27900 <__aeabi_memclr4>
   21e3c:	4824      	ldr	r0, [pc, #144]	@ (21ed0 <_ZN18complex_no_dynamic3app17h4ba17351bbb97bd4E+0xb0>)
   21e3e:	2109      	movs	r1, #9
   21e40:	462a      	mov	r2, r5
   21e42:	4633      	mov	r3, r6
   21e44:	df04      	svc	4
   21e46:	2802      	cmp	r0, #2
   21e48:	d00e      	beq.n	21e68 <_ZN18complex_no_dynamic3app17h4ba17351bbb97bd4E+0x48>
   21e4a:	4821      	ldr	r0, [pc, #132]	@ (21ed0 <_ZN18complex_no_dynamic3app17h4ba17351bbb97bd4E+0xb0>)
   21e4c:	2100      	movs	r1, #0
   21e4e:	aa0b      	add	r2, sp, #44	@ 0x2c
   21e50:	234f      	movs	r3, #79	@ 0x4f
   21e52:	df03      	svc	3
   21e54:	2802      	cmp	r0, #2
   21e56:	d007      	beq.n	21e68 <_ZN18complex_no_dynamic3app17h4ba17351bbb97bd4E+0x48>
   21e58:	481d      	ldr	r0, [pc, #116]	@ (21ed0 <_ZN18complex_no_dynamic3app17h4ba17351bbb97bd4E+0xb0>)
   21e5a:	2109      	movs	r1, #9
   21e5c:	2500      	movs	r5, #0
   21e5e:	462a      	mov	r2, r5
   21e60:	462b      	mov	r3, r5
   21e62:	df02      	svc	2
   21e64:	287f      	cmp	r0, #127	@ 0x7f
   21e66:	d813      	bhi.n	21e90 <_ZN18complex_no_dynamic3app17h4ba17351bbb97bd4E+0x70>
   21e68:	2501      	movs	r5, #1
   21e6a:	2d00      	cmp	r5, #0
   21e6c:	d017      	beq.n	21e9e <_ZN18complex_no_dynamic3app17h4ba17351bbb97bd4E+0x7e>
   21e6e:	2001      	movs	r0, #1
   21e70:	7020      	strb	r0, [r4, #0]
   21e72:	6061      	str	r1, [r4, #4]
   21e74:	4c16      	ldr	r4, [pc, #88]	@ (21ed0 <_ZN18complex_no_dynamic3app17h4ba17351bbb97bd4E+0xb0>)
   21e76:	2500      	movs	r5, #0
   21e78:	4620      	mov	r0, r4
   21e7a:	4629      	mov	r1, r5
   21e7c:	462a      	mov	r2, r5
   21e7e:	462b      	mov	r3, r5
   21e80:	df03      	svc	3
   21e82:	2109      	movs	r1, #9
   21e84:	4620      	mov	r0, r4
   21e86:	462a      	mov	r2, r5
   21e88:	462b      	mov	r3, r5
   21e8a:	df04      	svc	4
   21e8c:	b01f      	add	sp, #124	@ 0x7c
   21e8e:	bdf0      	pop	{r4, r5, r6, r7, pc}
   21e90:	480f      	ldr	r0, [pc, #60]	@ (21ed0 <_ZN18complex_no_dynamic3app17h4ba17351bbb97bd4E+0xb0>)
   21e92:	4629      	mov	r1, r5
   21e94:	462a      	mov	r2, r5
   21e96:	462b      	mov	r3, r5
   21e98:	df03      	svc	3
   21e9a:	2d00      	cmp	r5, #0
   21e9c:	d1e7      	bne.n	21e6e <_ZN18complex_no_dynamic3app17h4ba17351bbb97bd4E+0x4e>
   21e9e:	4e0c      	ldr	r6, [pc, #48]	@ (21ed0 <_ZN18complex_no_dynamic3app17h4ba17351bbb97bd4E+0xb0>)
   21ea0:	2500      	movs	r5, #0
   21ea2:	4630      	mov	r0, r6
   21ea4:	4629      	mov	r1, r5
   21ea6:	462a      	mov	r2, r5
   21ea8:	462b      	mov	r3, r5
   21eaa:	df03      	svc	3
   21eac:	1c60      	adds	r0, r4, #1
   21eae:	a90b      	add	r1, sp, #44	@ 0x2c
   21eb0:	224f      	movs	r2, #79	@ 0x4f
   21eb2:	f005 fed2 	bl	27c5a <__aeabi_memcpy>
   21eb6:	7025      	strb	r5, [r4, #0]
   21eb8:	4630      	mov	r0, r6
   21eba:	4629      	mov	r1, r5
   21ebc:	462a      	mov	r2, r5
   21ebe:	462b      	mov	r3, r5
   21ec0:	df03      	svc	3
   21ec2:	2109      	movs	r1, #9
   21ec4:	4630      	mov	r0, r6
   21ec6:	462a      	mov	r2, r5
   21ec8:	462b      	mov	r3, r5
   21eca:	df04      	svc	4
   21ecc:	b01f      	add	sp, #124	@ 0x7c
   21ece:	bdf0      	pop	{r4, r5, r6, r7, pc}
   21ed0:	00000b4c 	.word	0x00000b4c

00021ed4 <_ZN18complex_no_dynamic3app17h4e39baec85865b02E>:
   21ed4:	b5f0      	push	{r4, r5, r6, r7, lr}
   21ed6:	af03      	add	r7, sp, #12
   21ed8:	b093      	sub	sp, #76	@ 0x4c
   21eda:	9002      	str	r0, [sp, #8]
   21edc:	ac03      	add	r4, sp, #12
   21ede:	2525      	movs	r5, #37	@ 0x25
   21ee0:	4620      	mov	r0, r4
   21ee2:	462a      	mov	r2, r5
   21ee4:	f005 feb9 	bl	27c5a <__aeabi_memcpy>
   21ee8:	2600      	movs	r6, #0
   21eea:	9612      	str	r6, [sp, #72]	@ 0x48
   21eec:	9611      	str	r6, [sp, #68]	@ 0x44
   21eee:	9610      	str	r6, [sp, #64]	@ 0x40
   21ef0:	960f      	str	r6, [sp, #60]	@ 0x3c
   21ef2:	960e      	str	r6, [sp, #56]	@ 0x38
   21ef4:	960d      	str	r6, [sp, #52]	@ 0x34
   21ef6:	20a7      	movs	r0, #167	@ 0xa7
   21ef8:	0100      	lsls	r0, r0, #4
   21efa:	2109      	movs	r1, #9
   21efc:	9001      	str	r0, [sp, #4]
   21efe:	4622      	mov	r2, r4
   21f00:	462b      	mov	r3, r5
   21f02:	df04      	svc	4
   21f04:	2802      	cmp	r0, #2
   21f06:	d114      	bne.n	21f32 <_ZN18complex_no_dynamic3app17h4e39baec85865b02E+0x5e>
   21f08:	2401      	movs	r4, #1
   21f0a:	9d01      	ldr	r5, [sp, #4]
   21f0c:	2c00      	cmp	r4, #0
   21f0e:	d023      	beq.n	21f58 <_ZN18complex_no_dynamic3app17h4e39baec85865b02E+0x84>
   21f10:	2001      	movs	r0, #1
   21f12:	9a02      	ldr	r2, [sp, #8]
   21f14:	7010      	strb	r0, [r2, #0]
   21f16:	6051      	str	r1, [r2, #4]
   21f18:	2108      	movs	r1, #8
   21f1a:	2400      	movs	r4, #0
   21f1c:	4628      	mov	r0, r5
   21f1e:	4622      	mov	r2, r4
   21f20:	4623      	mov	r3, r4
   21f22:	df03      	svc	3
   21f24:	2109      	movs	r1, #9
   21f26:	4628      	mov	r0, r5
   21f28:	4622      	mov	r2, r4
   21f2a:	4623      	mov	r3, r4
   21f2c:	df04      	svc	4
   21f2e:	b013      	add	sp, #76	@ 0x4c
   21f30:	bdf0      	pop	{r4, r5, r6, r7, pc}
   21f32:	2108      	movs	r1, #8
   21f34:	aa0d      	add	r2, sp, #52	@ 0x34
   21f36:	2318      	movs	r3, #24
   21f38:	9d01      	ldr	r5, [sp, #4]
   21f3a:	4628      	mov	r0, r5
   21f3c:	df03      	svc	3
   21f3e:	2802      	cmp	r0, #2
   21f40:	d007      	beq.n	21f52 <_ZN18complex_no_dynamic3app17h4e39baec85865b02E+0x7e>
   21f42:	2109      	movs	r1, #9
   21f44:	2208      	movs	r2, #8
   21f46:	2400      	movs	r4, #0
   21f48:	4628      	mov	r0, r5
   21f4a:	4623      	mov	r3, r4
   21f4c:	df02      	svc	2
   21f4e:	287f      	cmp	r0, #127	@ 0x7f
   21f50:	d81c      	bhi.n	21f8c <_ZN18complex_no_dynamic3app17h4e39baec85865b02E+0xb8>
   21f52:	2401      	movs	r4, #1
   21f54:	2c00      	cmp	r4, #0
   21f56:	d1db      	bne.n	21f10 <_ZN18complex_no_dynamic3app17h4e39baec85865b02E+0x3c>
   21f58:	2108      	movs	r1, #8
   21f5a:	9101      	str	r1, [sp, #4]
   21f5c:	4628      	mov	r0, r5
   21f5e:	4632      	mov	r2, r6
   21f60:	4633      	mov	r3, r6
   21f62:	df03      	svc	3
   21f64:	462c      	mov	r4, r5
   21f66:	9d02      	ldr	r5, [sp, #8]
   21f68:	1c68      	adds	r0, r5, #1
   21f6a:	a90d      	add	r1, sp, #52	@ 0x34
   21f6c:	2218      	movs	r2, #24
   21f6e:	f005 fe74 	bl	27c5a <__aeabi_memcpy>
   21f72:	702e      	strb	r6, [r5, #0]
   21f74:	4620      	mov	r0, r4
   21f76:	9901      	ldr	r1, [sp, #4]
   21f78:	4632      	mov	r2, r6
   21f7a:	4633      	mov	r3, r6
   21f7c:	df03      	svc	3
   21f7e:	2109      	movs	r1, #9
   21f80:	4620      	mov	r0, r4
   21f82:	4632      	mov	r2, r6
   21f84:	4633      	mov	r3, r6
   21f86:	df04      	svc	4
   21f88:	b013      	add	sp, #76	@ 0x4c
   21f8a:	bdf0      	pop	{r4, r5, r6, r7, pc}
   21f8c:	2108      	movs	r1, #8
   21f8e:	4628      	mov	r0, r5
   21f90:	4622      	mov	r2, r4
   21f92:	4623      	mov	r3, r4
   21f94:	df03      	svc	3
   21f96:	2c00      	cmp	r4, #0
   21f98:	d0de      	beq.n	21f58 <_ZN18complex_no_dynamic3app17h4e39baec85865b02E+0x84>
   21f9a:	e7b9      	b.n	21f10 <_ZN18complex_no_dynamic3app17h4e39baec85865b02E+0x3c>

00021f9c <_ZN18complex_no_dynamic3app17h4ef1095d160456daE>:
   21f9c:	b5f0      	push	{r4, r5, r6, r7, lr}
   21f9e:	af03      	add	r7, sp, #12
   21fa0:	b0a3      	sub	sp, #140	@ 0x8c
   21fa2:	4604      	mov	r4, r0
   21fa4:	466d      	mov	r5, sp
   21fa6:	2663      	movs	r6, #99	@ 0x63
   21fa8:	4628      	mov	r0, r5
   21faa:	4632      	mov	r2, r6
   21fac:	f005 fe55 	bl	27c5a <__aeabi_memcpy>
   21fb0:	a819      	add	r0, sp, #100	@ 0x64
   21fb2:	2127      	movs	r1, #39	@ 0x27
   21fb4:	f005 fca4 	bl	27900 <__aeabi_memclr4>
   21fb8:	4824      	ldr	r0, [pc, #144]	@ (2204c <_ZN18complex_no_dynamic3app17h4ef1095d160456daE+0xb0>)
   21fba:	2107      	movs	r1, #7
   21fbc:	462a      	mov	r2, r5
   21fbe:	4633      	mov	r3, r6
   21fc0:	df04      	svc	4
   21fc2:	2802      	cmp	r0, #2
   21fc4:	d00e      	beq.n	21fe4 <_ZN18complex_no_dynamic3app17h4ef1095d160456daE+0x48>
   21fc6:	4821      	ldr	r0, [pc, #132]	@ (2204c <_ZN18complex_no_dynamic3app17h4ef1095d160456daE+0xb0>)
   21fc8:	2100      	movs	r1, #0
   21fca:	aa19      	add	r2, sp, #100	@ 0x64
   21fcc:	2327      	movs	r3, #39	@ 0x27
   21fce:	df03      	svc	3
   21fd0:	2802      	cmp	r0, #2
   21fd2:	d007      	beq.n	21fe4 <_ZN18complex_no_dynamic3app17h4ef1095d160456daE+0x48>
   21fd4:	481d      	ldr	r0, [pc, #116]	@ (2204c <_ZN18complex_no_dynamic3app17h4ef1095d160456daE+0xb0>)
   21fd6:	2107      	movs	r1, #7
   21fd8:	2500      	movs	r5, #0
   21fda:	462a      	mov	r2, r5
   21fdc:	462b      	mov	r3, r5
   21fde:	df02      	svc	2
   21fe0:	287f      	cmp	r0, #127	@ 0x7f
   21fe2:	d813      	bhi.n	2200c <_ZN18complex_no_dynamic3app17h4ef1095d160456daE+0x70>
   21fe4:	2501      	movs	r5, #1
   21fe6:	2d00      	cmp	r5, #0
   21fe8:	d017      	beq.n	2201a <_ZN18complex_no_dynamic3app17h4ef1095d160456daE+0x7e>
   21fea:	2001      	movs	r0, #1
   21fec:	7020      	strb	r0, [r4, #0]
   21fee:	6061      	str	r1, [r4, #4]
   21ff0:	4c16      	ldr	r4, [pc, #88]	@ (2204c <_ZN18complex_no_dynamic3app17h4ef1095d160456daE+0xb0>)
   21ff2:	2500      	movs	r5, #0
   21ff4:	4620      	mov	r0, r4
   21ff6:	4629      	mov	r1, r5
   21ff8:	462a      	mov	r2, r5
   21ffa:	462b      	mov	r3, r5
   21ffc:	df03      	svc	3
   21ffe:	2107      	movs	r1, #7
   22000:	4620      	mov	r0, r4
   22002:	462a      	mov	r2, r5
   22004:	462b      	mov	r3, r5
   22006:	df04      	svc	4
   22008:	b023      	add	sp, #140	@ 0x8c
   2200a:	bdf0      	pop	{r4, r5, r6, r7, pc}
   2200c:	480f      	ldr	r0, [pc, #60]	@ (2204c <_ZN18complex_no_dynamic3app17h4ef1095d160456daE+0xb0>)
   2200e:	4629      	mov	r1, r5
   22010:	462a      	mov	r2, r5
   22012:	462b      	mov	r3, r5
   22014:	df03      	svc	3
   22016:	2d00      	cmp	r5, #0
   22018:	d1e7      	bne.n	21fea <_ZN18complex_no_dynamic3app17h4ef1095d160456daE+0x4e>
   2201a:	4e0c      	ldr	r6, [pc, #48]	@ (2204c <_ZN18complex_no_dynamic3app17h4ef1095d160456daE+0xb0>)
   2201c:	2500      	movs	r5, #0
   2201e:	4630      	mov	r0, r6
   22020:	4629      	mov	r1, r5
   22022:	462a      	mov	r2, r5
   22024:	462b      	mov	r3, r5
   22026:	df03      	svc	3
   22028:	1c60      	adds	r0, r4, #1
   2202a:	a919      	add	r1, sp, #100	@ 0x64
   2202c:	2227      	movs	r2, #39	@ 0x27
   2202e:	f005 fe14 	bl	27c5a <__aeabi_memcpy>
   22032:	7025      	strb	r5, [r4, #0]
   22034:	4630      	mov	r0, r6
   22036:	4629      	mov	r1, r5
   22038:	462a      	mov	r2, r5
   2203a:	462b      	mov	r3, r5
   2203c:	df03      	svc	3
   2203e:	2107      	movs	r1, #7
   22040:	4630      	mov	r0, r6
   22042:	462a      	mov	r2, r5
   22044:	462b      	mov	r3, r5
   22046:	df04      	svc	4
   22048:	b023      	add	sp, #140	@ 0x8c
   2204a:	bdf0      	pop	{r4, r5, r6, r7, pc}
   2204c:	00001e54 	.word	0x00001e54

00022050 <_ZN18complex_no_dynamic3app17h528834e610acd7feE>:
   22050:	b5f0      	push	{r4, r5, r6, r7, lr}
   22052:	af03      	add	r7, sp, #12
   22054:	b0af      	sub	sp, #188	@ 0xbc
   22056:	4604      	mov	r4, r0
   22058:	ad01      	add	r5, sp, #4
   2205a:	265e      	movs	r6, #94	@ 0x5e
   2205c:	4628      	mov	r0, r5
   2205e:	4632      	mov	r2, r6
   22060:	f005 fdfb 	bl	27c5a <__aeabi_memcpy>
   22064:	a819      	add	r0, sp, #100	@ 0x64
   22066:	2155      	movs	r1, #85	@ 0x55
   22068:	f005 fc4a 	bl	27900 <__aeabi_memclr4>
   2206c:	4824      	ldr	r0, [pc, #144]	@ (22100 <_ZN18complex_no_dynamic3app17h528834e610acd7feE+0xb0>)
   2206e:	2107      	movs	r1, #7
   22070:	462a      	mov	r2, r5
   22072:	4633      	mov	r3, r6
   22074:	df04      	svc	4
   22076:	2802      	cmp	r0, #2
   22078:	d00e      	beq.n	22098 <_ZN18complex_no_dynamic3app17h528834e610acd7feE+0x48>
   2207a:	4821      	ldr	r0, [pc, #132]	@ (22100 <_ZN18complex_no_dynamic3app17h528834e610acd7feE+0xb0>)
   2207c:	2103      	movs	r1, #3
   2207e:	aa19      	add	r2, sp, #100	@ 0x64
   22080:	2355      	movs	r3, #85	@ 0x55
   22082:	df03      	svc	3
   22084:	2802      	cmp	r0, #2
   22086:	d007      	beq.n	22098 <_ZN18complex_no_dynamic3app17h528834e610acd7feE+0x48>
   22088:	481d      	ldr	r0, [pc, #116]	@ (22100 <_ZN18complex_no_dynamic3app17h528834e610acd7feE+0xb0>)
   2208a:	2107      	movs	r1, #7
   2208c:	2203      	movs	r2, #3
   2208e:	2500      	movs	r5, #0
   22090:	462b      	mov	r3, r5
   22092:	df02      	svc	2
   22094:	287f      	cmp	r0, #127	@ 0x7f
   22096:	d813      	bhi.n	220c0 <_ZN18complex_no_dynamic3app17h528834e610acd7feE+0x70>
   22098:	2501      	movs	r5, #1
   2209a:	2d00      	cmp	r5, #0
   2209c:	d017      	beq.n	220ce <_ZN18complex_no_dynamic3app17h528834e610acd7feE+0x7e>
   2209e:	2001      	movs	r0, #1
   220a0:	7020      	strb	r0, [r4, #0]
   220a2:	6061      	str	r1, [r4, #4]
   220a4:	4c16      	ldr	r4, [pc, #88]	@ (22100 <_ZN18complex_no_dynamic3app17h528834e610acd7feE+0xb0>)
   220a6:	2103      	movs	r1, #3
   220a8:	2500      	movs	r5, #0
   220aa:	4620      	mov	r0, r4
   220ac:	462a      	mov	r2, r5
   220ae:	462b      	mov	r3, r5
   220b0:	df03      	svc	3
   220b2:	2107      	movs	r1, #7
   220b4:	4620      	mov	r0, r4
   220b6:	462a      	mov	r2, r5
   220b8:	462b      	mov	r3, r5
   220ba:	df04      	svc	4
   220bc:	b02f      	add	sp, #188	@ 0xbc
   220be:	bdf0      	pop	{r4, r5, r6, r7, pc}
   220c0:	480f      	ldr	r0, [pc, #60]	@ (22100 <_ZN18complex_no_dynamic3app17h528834e610acd7feE+0xb0>)
   220c2:	2103      	movs	r1, #3
   220c4:	462a      	mov	r2, r5
   220c6:	462b      	mov	r3, r5
   220c8:	df03      	svc	3
   220ca:	2d00      	cmp	r5, #0
   220cc:	d1e7      	bne.n	2209e <_ZN18complex_no_dynamic3app17h528834e610acd7feE+0x4e>
   220ce:	480c      	ldr	r0, [pc, #48]	@ (22100 <_ZN18complex_no_dynamic3app17h528834e610acd7feE+0xb0>)
   220d0:	2603      	movs	r6, #3
   220d2:	2500      	movs	r5, #0
   220d4:	4631      	mov	r1, r6
   220d6:	462a      	mov	r2, r5
   220d8:	462b      	mov	r3, r5
   220da:	df03      	svc	3
   220dc:	1c60      	adds	r0, r4, #1
   220de:	a919      	add	r1, sp, #100	@ 0x64
   220e0:	2255      	movs	r2, #85	@ 0x55
   220e2:	f005 fdba 	bl	27c5a <__aeabi_memcpy>
   220e6:	7025      	strb	r5, [r4, #0]
   220e8:	4805      	ldr	r0, [pc, #20]	@ (22100 <_ZN18complex_no_dynamic3app17h528834e610acd7feE+0xb0>)
   220ea:	4631      	mov	r1, r6
   220ec:	462a      	mov	r2, r5
   220ee:	462b      	mov	r3, r5
   220f0:	df03      	svc	3
   220f2:	2107      	movs	r1, #7
   220f4:	4802      	ldr	r0, [pc, #8]	@ (22100 <_ZN18complex_no_dynamic3app17h528834e610acd7feE+0xb0>)
   220f6:	462a      	mov	r2, r5
   220f8:	462b      	mov	r3, r5
   220fa:	df04      	svc	4
   220fc:	b02f      	add	sp, #188	@ 0xbc
   220fe:	bdf0      	pop	{r4, r5, r6, r7, pc}
   22100:	0000178a 	.word	0x0000178a

00022104 <_ZN18complex_no_dynamic3app17h564be6aa86c68208E>:
   22104:	b5f0      	push	{r4, r5, r6, r7, lr}
   22106:	af03      	add	r7, sp, #12
   22108:	b0a9      	sub	sp, #164	@ 0xa4
   2210a:	4604      	mov	r4, r0
   2210c:	466d      	mov	r5, sp
   2210e:	2651      	movs	r6, #81	@ 0x51
   22110:	4628      	mov	r0, r5
   22112:	4632      	mov	r2, r6
   22114:	f005 fda1 	bl	27c5a <__aeabi_memcpy>
   22118:	a815      	add	r0, sp, #84	@ 0x54
   2211a:	214f      	movs	r1, #79	@ 0x4f
   2211c:	f005 fbf0 	bl	27900 <__aeabi_memclr4>
   22120:	4824      	ldr	r0, [pc, #144]	@ (221b4 <_ZN18complex_no_dynamic3app17h564be6aa86c68208E+0xb0>)
   22122:	2102      	movs	r1, #2
   22124:	462a      	mov	r2, r5
   22126:	4633      	mov	r3, r6
   22128:	df04      	svc	4
   2212a:	2802      	cmp	r0, #2
   2212c:	d00e      	beq.n	2214c <_ZN18complex_no_dynamic3app17h564be6aa86c68208E+0x48>
   2212e:	4821      	ldr	r0, [pc, #132]	@ (221b4 <_ZN18complex_no_dynamic3app17h564be6aa86c68208E+0xb0>)
   22130:	2104      	movs	r1, #4
   22132:	aa15      	add	r2, sp, #84	@ 0x54
   22134:	234f      	movs	r3, #79	@ 0x4f
   22136:	df03      	svc	3
   22138:	2802      	cmp	r0, #2
   2213a:	d007      	beq.n	2214c <_ZN18complex_no_dynamic3app17h564be6aa86c68208E+0x48>
   2213c:	481d      	ldr	r0, [pc, #116]	@ (221b4 <_ZN18complex_no_dynamic3app17h564be6aa86c68208E+0xb0>)
   2213e:	2102      	movs	r1, #2
   22140:	2204      	movs	r2, #4
   22142:	2500      	movs	r5, #0
   22144:	462b      	mov	r3, r5
   22146:	df02      	svc	2
   22148:	287f      	cmp	r0, #127	@ 0x7f
   2214a:	d813      	bhi.n	22174 <_ZN18complex_no_dynamic3app17h564be6aa86c68208E+0x70>
   2214c:	2501      	movs	r5, #1
   2214e:	2d00      	cmp	r5, #0
   22150:	d017      	beq.n	22182 <_ZN18complex_no_dynamic3app17h564be6aa86c68208E+0x7e>
   22152:	2001      	movs	r0, #1
   22154:	7020      	strb	r0, [r4, #0]
   22156:	6061      	str	r1, [r4, #4]
   22158:	4c16      	ldr	r4, [pc, #88]	@ (221b4 <_ZN18complex_no_dynamic3app17h564be6aa86c68208E+0xb0>)
   2215a:	2104      	movs	r1, #4
   2215c:	2500      	movs	r5, #0
   2215e:	4620      	mov	r0, r4
   22160:	462a      	mov	r2, r5
   22162:	462b      	mov	r3, r5
   22164:	df03      	svc	3
   22166:	2102      	movs	r1, #2
   22168:	4620      	mov	r0, r4
   2216a:	462a      	mov	r2, r5
   2216c:	462b      	mov	r3, r5
   2216e:	df04      	svc	4
   22170:	b029      	add	sp, #164	@ 0xa4
   22172:	bdf0      	pop	{r4, r5, r6, r7, pc}
   22174:	480f      	ldr	r0, [pc, #60]	@ (221b4 <_ZN18complex_no_dynamic3app17h564be6aa86c68208E+0xb0>)
   22176:	2104      	movs	r1, #4
   22178:	462a      	mov	r2, r5
   2217a:	462b      	mov	r3, r5
   2217c:	df03      	svc	3
   2217e:	2d00      	cmp	r5, #0
   22180:	d1e7      	bne.n	22152 <_ZN18complex_no_dynamic3app17h564be6aa86c68208E+0x4e>
   22182:	480c      	ldr	r0, [pc, #48]	@ (221b4 <_ZN18complex_no_dynamic3app17h564be6aa86c68208E+0xb0>)
   22184:	2604      	movs	r6, #4
   22186:	2500      	movs	r5, #0
   22188:	4631      	mov	r1, r6
   2218a:	462a      	mov	r2, r5
   2218c:	462b      	mov	r3, r5
   2218e:	df03      	svc	3
   22190:	1c60      	adds	r0, r4, #1
   22192:	a915      	add	r1, sp, #84	@ 0x54
   22194:	224f      	movs	r2, #79	@ 0x4f
   22196:	f005 fd60 	bl	27c5a <__aeabi_memcpy>
   2219a:	7025      	strb	r5, [r4, #0]
   2219c:	4805      	ldr	r0, [pc, #20]	@ (221b4 <_ZN18complex_no_dynamic3app17h564be6aa86c68208E+0xb0>)
   2219e:	4631      	mov	r1, r6
   221a0:	462a      	mov	r2, r5
   221a2:	462b      	mov	r3, r5
   221a4:	df03      	svc	3
   221a6:	2102      	movs	r1, #2
   221a8:	4802      	ldr	r0, [pc, #8]	@ (221b4 <_ZN18complex_no_dynamic3app17h564be6aa86c68208E+0xb0>)
   221aa:	462a      	mov	r2, r5
   221ac:	462b      	mov	r3, r5
   221ae:	df04      	svc	4
   221b0:	b029      	add	sp, #164	@ 0xa4
   221b2:	bdf0      	pop	{r4, r5, r6, r7, pc}
   221b4:	00000e16 	.word	0x00000e16

000221b8 <_ZN18complex_no_dynamic3app17h56c61e5d2251e1dcE>:
   221b8:	b5f0      	push	{r4, r5, r6, r7, lr}
   221ba:	af03      	add	r7, sp, #12
   221bc:	b093      	sub	sp, #76	@ 0x4c
   221be:	9001      	str	r0, [sp, #4]
   221c0:	ae02      	add	r6, sp, #8
   221c2:	2432      	movs	r4, #50	@ 0x32
   221c4:	4630      	mov	r0, r6
   221c6:	4622      	mov	r2, r4
   221c8:	f005 fd47 	bl	27c5a <__aeabi_memcpy>
   221cc:	2500      	movs	r5, #0
   221ce:	9512      	str	r5, [sp, #72]	@ 0x48
   221d0:	9511      	str	r5, [sp, #68]	@ 0x44
   221d2:	9510      	str	r5, [sp, #64]	@ 0x40
   221d4:	950f      	str	r5, [sp, #60]	@ 0x3c
   221d6:	4826      	ldr	r0, [pc, #152]	@ (22270 <_ZN18complex_no_dynamic3app17h56c61e5d2251e1dcE+0xb8>)
   221d8:	2104      	movs	r1, #4
   221da:	4632      	mov	r2, r6
   221dc:	4623      	mov	r3, r4
   221de:	df04      	svc	4
   221e0:	2802      	cmp	r0, #2
   221e2:	d00e      	beq.n	22202 <_ZN18complex_no_dynamic3app17h56c61e5d2251e1dcE+0x4a>
   221e4:	4822      	ldr	r0, [pc, #136]	@ (22270 <_ZN18complex_no_dynamic3app17h56c61e5d2251e1dcE+0xb8>)
   221e6:	2109      	movs	r1, #9
   221e8:	aa0f      	add	r2, sp, #60	@ 0x3c
   221ea:	2310      	movs	r3, #16
   221ec:	df03      	svc	3
   221ee:	2802      	cmp	r0, #2
   221f0:	d007      	beq.n	22202 <_ZN18complex_no_dynamic3app17h56c61e5d2251e1dcE+0x4a>
   221f2:	481f      	ldr	r0, [pc, #124]	@ (22270 <_ZN18complex_no_dynamic3app17h56c61e5d2251e1dcE+0xb8>)
   221f4:	2104      	movs	r1, #4
   221f6:	2209      	movs	r2, #9
   221f8:	2600      	movs	r6, #0
   221fa:	4633      	mov	r3, r6
   221fc:	df02      	svc	2
   221fe:	287f      	cmp	r0, #127	@ 0x7f
   22200:	d814      	bhi.n	2222c <_ZN18complex_no_dynamic3app17h56c61e5d2251e1dcE+0x74>
   22202:	2601      	movs	r6, #1
   22204:	2e00      	cmp	r6, #0
   22206:	d018      	beq.n	2223a <_ZN18complex_no_dynamic3app17h56c61e5d2251e1dcE+0x82>
   22208:	2001      	movs	r0, #1
   2220a:	9a01      	ldr	r2, [sp, #4]
   2220c:	7010      	strb	r0, [r2, #0]
   2220e:	6051      	str	r1, [r2, #4]
   22210:	4c17      	ldr	r4, [pc, #92]	@ (22270 <_ZN18complex_no_dynamic3app17h56c61e5d2251e1dcE+0xb8>)
   22212:	2109      	movs	r1, #9
   22214:	2500      	movs	r5, #0
   22216:	4620      	mov	r0, r4
   22218:	462a      	mov	r2, r5
   2221a:	462b      	mov	r3, r5
   2221c:	df03      	svc	3
   2221e:	2104      	movs	r1, #4
   22220:	4620      	mov	r0, r4
   22222:	462a      	mov	r2, r5
   22224:	462b      	mov	r3, r5
   22226:	df04      	svc	4
   22228:	b013      	add	sp, #76	@ 0x4c
   2222a:	bdf0      	pop	{r4, r5, r6, r7, pc}
   2222c:	4810      	ldr	r0, [pc, #64]	@ (22270 <_ZN18complex_no_dynamic3app17h56c61e5d2251e1dcE+0xb8>)
   2222e:	2109      	movs	r1, #9
   22230:	4632      	mov	r2, r6
   22232:	4633      	mov	r3, r6
   22234:	df03      	svc	3
   22236:	2e00      	cmp	r6, #0
   22238:	d1e6      	bne.n	22208 <_ZN18complex_no_dynamic3app17h56c61e5d2251e1dcE+0x50>
   2223a:	480d      	ldr	r0, [pc, #52]	@ (22270 <_ZN18complex_no_dynamic3app17h56c61e5d2251e1dcE+0xb8>)
   2223c:	2609      	movs	r6, #9
   2223e:	4631      	mov	r1, r6
   22240:	462a      	mov	r2, r5
   22242:	462b      	mov	r3, r5
   22244:	df03      	svc	3
   22246:	9c01      	ldr	r4, [sp, #4]
   22248:	1c60      	adds	r0, r4, #1
   2224a:	a90f      	add	r1, sp, #60	@ 0x3c
   2224c:	2210      	movs	r2, #16
   2224e:	f005 fd04 	bl	27c5a <__aeabi_memcpy>
   22252:	7025      	strb	r5, [r4, #0]
   22254:	4c06      	ldr	r4, [pc, #24]	@ (22270 <_ZN18complex_no_dynamic3app17h56c61e5d2251e1dcE+0xb8>)
   22256:	4620      	mov	r0, r4
   22258:	4631      	mov	r1, r6
   2225a:	462a      	mov	r2, r5
   2225c:	462b      	mov	r3, r5
   2225e:	df03      	svc	3
   22260:	2104      	movs	r1, #4
   22262:	4620      	mov	r0, r4
   22264:	462a      	mov	r2, r5
   22266:	462b      	mov	r3, r5
   22268:	df04      	svc	4
   2226a:	b013      	add	sp, #76	@ 0x4c
   2226c:	bdf0      	pop	{r4, r5, r6, r7, pc}
   2226e:	46c0      	nop			@ (mov r8, r8)
   22270:	000019d6 	.word	0x000019d6

00022274 <_ZN18complex_no_dynamic3app17h591ec23db3bdd2adE>:
   22274:	b5f0      	push	{r4, r5, r6, r7, lr}
   22276:	af03      	add	r7, sp, #12
   22278:	b09f      	sub	sp, #124	@ 0x7c
   2227a:	4604      	mov	r4, r0
   2227c:	466d      	mov	r5, sp
   2227e:	264a      	movs	r6, #74	@ 0x4a
   22280:	4628      	mov	r0, r5
   22282:	4632      	mov	r2, r6
   22284:	f005 fce9 	bl	27c5a <__aeabi_memcpy>
   22288:	a813      	add	r0, sp, #76	@ 0x4c
   2228a:	212d      	movs	r1, #45	@ 0x2d
   2228c:	f005 fb38 	bl	27900 <__aeabi_memclr4>
   22290:	4824      	ldr	r0, [pc, #144]	@ (22324 <_ZN18complex_no_dynamic3app17h591ec23db3bdd2adE+0xb0>)
   22292:	2102      	movs	r1, #2
   22294:	462a      	mov	r2, r5
   22296:	4633      	mov	r3, r6
   22298:	df04      	svc	4
   2229a:	2802      	cmp	r0, #2
   2229c:	d00e      	beq.n	222bc <_ZN18complex_no_dynamic3app17h591ec23db3bdd2adE+0x48>
   2229e:	4821      	ldr	r0, [pc, #132]	@ (22324 <_ZN18complex_no_dynamic3app17h591ec23db3bdd2adE+0xb0>)
   222a0:	2103      	movs	r1, #3
   222a2:	aa13      	add	r2, sp, #76	@ 0x4c
   222a4:	232d      	movs	r3, #45	@ 0x2d
   222a6:	df03      	svc	3
   222a8:	2802      	cmp	r0, #2
   222aa:	d007      	beq.n	222bc <_ZN18complex_no_dynamic3app17h591ec23db3bdd2adE+0x48>
   222ac:	481d      	ldr	r0, [pc, #116]	@ (22324 <_ZN18complex_no_dynamic3app17h591ec23db3bdd2adE+0xb0>)
   222ae:	2102      	movs	r1, #2
   222b0:	2203      	movs	r2, #3
   222b2:	2500      	movs	r5, #0
   222b4:	462b      	mov	r3, r5
   222b6:	df02      	svc	2
   222b8:	287f      	cmp	r0, #127	@ 0x7f
   222ba:	d813      	bhi.n	222e4 <_ZN18complex_no_dynamic3app17h591ec23db3bdd2adE+0x70>
   222bc:	2501      	movs	r5, #1
   222be:	2d00      	cmp	r5, #0
   222c0:	d017      	beq.n	222f2 <_ZN18complex_no_dynamic3app17h591ec23db3bdd2adE+0x7e>
   222c2:	2001      	movs	r0, #1
   222c4:	7020      	strb	r0, [r4, #0]
   222c6:	6061      	str	r1, [r4, #4]
   222c8:	4c16      	ldr	r4, [pc, #88]	@ (22324 <_ZN18complex_no_dynamic3app17h591ec23db3bdd2adE+0xb0>)
   222ca:	2103      	movs	r1, #3
   222cc:	2500      	movs	r5, #0
   222ce:	4620      	mov	r0, r4
   222d0:	462a      	mov	r2, r5
   222d2:	462b      	mov	r3, r5
   222d4:	df03      	svc	3
   222d6:	2102      	movs	r1, #2
   222d8:	4620      	mov	r0, r4
   222da:	462a      	mov	r2, r5
   222dc:	462b      	mov	r3, r5
   222de:	df04      	svc	4
   222e0:	b01f      	add	sp, #124	@ 0x7c
   222e2:	bdf0      	pop	{r4, r5, r6, r7, pc}
   222e4:	480f      	ldr	r0, [pc, #60]	@ (22324 <_ZN18complex_no_dynamic3app17h591ec23db3bdd2adE+0xb0>)
   222e6:	2103      	movs	r1, #3
   222e8:	462a      	mov	r2, r5
   222ea:	462b      	mov	r3, r5
   222ec:	df03      	svc	3
   222ee:	2d00      	cmp	r5, #0
   222f0:	d1e7      	bne.n	222c2 <_ZN18complex_no_dynamic3app17h591ec23db3bdd2adE+0x4e>
   222f2:	480c      	ldr	r0, [pc, #48]	@ (22324 <_ZN18complex_no_dynamic3app17h591ec23db3bdd2adE+0xb0>)
   222f4:	2603      	movs	r6, #3
   222f6:	2500      	movs	r5, #0
   222f8:	4631      	mov	r1, r6
   222fa:	462a      	mov	r2, r5
   222fc:	462b      	mov	r3, r5
   222fe:	df03      	svc	3
   22300:	1c60      	adds	r0, r4, #1
   22302:	a913      	add	r1, sp, #76	@ 0x4c
   22304:	222d      	movs	r2, #45	@ 0x2d
   22306:	f005 fca8 	bl	27c5a <__aeabi_memcpy>
   2230a:	7025      	strb	r5, [r4, #0]
   2230c:	4805      	ldr	r0, [pc, #20]	@ (22324 <_ZN18complex_no_dynamic3app17h591ec23db3bdd2adE+0xb0>)
   2230e:	4631      	mov	r1, r6
   22310:	462a      	mov	r2, r5
   22312:	462b      	mov	r3, r5
   22314:	df03      	svc	3
   22316:	2102      	movs	r1, #2
   22318:	4802      	ldr	r0, [pc, #8]	@ (22324 <_ZN18complex_no_dynamic3app17h591ec23db3bdd2adE+0xb0>)
   2231a:	462a      	mov	r2, r5
   2231c:	462b      	mov	r3, r5
   2231e:	df04      	svc	4
   22320:	b01f      	add	sp, #124	@ 0x7c
   22322:	bdf0      	pop	{r4, r5, r6, r7, pc}
   22324:	00000e3d 	.word	0x00000e3d

00022328 <_ZN18complex_no_dynamic3app17h59cd131903b32c67E>:
   22328:	b5f0      	push	{r4, r5, r6, r7, lr}
   2232a:	af03      	add	r7, sp, #12
   2232c:	b09f      	sub	sp, #124	@ 0x7c
   2232e:	4604      	mov	r4, r0
   22330:	466d      	mov	r5, sp
   22332:	2631      	movs	r6, #49	@ 0x31
   22334:	4628      	mov	r0, r5
   22336:	4632      	mov	r2, r6
   22338:	f005 fc8f 	bl	27c5a <__aeabi_memcpy>
   2233c:	a80d      	add	r0, sp, #52	@ 0x34
   2233e:	2148      	movs	r1, #72	@ 0x48
   22340:	f005 fade 	bl	27900 <__aeabi_memclr4>
   22344:	4824      	ldr	r0, [pc, #144]	@ (223d8 <_ZN18complex_no_dynamic3app17h59cd131903b32c67E+0xb0>)
   22346:	2104      	movs	r1, #4
   22348:	462a      	mov	r2, r5
   2234a:	4633      	mov	r3, r6
   2234c:	df04      	svc	4
   2234e:	2802      	cmp	r0, #2
   22350:	d00e      	beq.n	22370 <_ZN18complex_no_dynamic3app17h59cd131903b32c67E+0x48>
   22352:	4821      	ldr	r0, [pc, #132]	@ (223d8 <_ZN18complex_no_dynamic3app17h59cd131903b32c67E+0xb0>)
   22354:	2103      	movs	r1, #3
   22356:	aa0d      	add	r2, sp, #52	@ 0x34
   22358:	2348      	movs	r3, #72	@ 0x48
   2235a:	df03      	svc	3
   2235c:	2802      	cmp	r0, #2
   2235e:	d007      	beq.n	22370 <_ZN18complex_no_dynamic3app17h59cd131903b32c67E+0x48>
   22360:	481d      	ldr	r0, [pc, #116]	@ (223d8 <_ZN18complex_no_dynamic3app17h59cd131903b32c67E+0xb0>)
   22362:	2104      	movs	r1, #4
   22364:	2203      	movs	r2, #3
   22366:	2500      	movs	r5, #0
   22368:	462b      	mov	r3, r5
   2236a:	df02      	svc	2
   2236c:	287f      	cmp	r0, #127	@ 0x7f
   2236e:	d813      	bhi.n	22398 <_ZN18complex_no_dynamic3app17h59cd131903b32c67E+0x70>
   22370:	2501      	movs	r5, #1
   22372:	2d00      	cmp	r5, #0
   22374:	d017      	beq.n	223a6 <_ZN18complex_no_dynamic3app17h59cd131903b32c67E+0x7e>
   22376:	2001      	movs	r0, #1
   22378:	7020      	strb	r0, [r4, #0]
   2237a:	6061      	str	r1, [r4, #4]
   2237c:	4c16      	ldr	r4, [pc, #88]	@ (223d8 <_ZN18complex_no_dynamic3app17h59cd131903b32c67E+0xb0>)
   2237e:	2103      	movs	r1, #3
   22380:	2500      	movs	r5, #0
   22382:	4620      	mov	r0, r4
   22384:	462a      	mov	r2, r5
   22386:	462b      	mov	r3, r5
   22388:	df03      	svc	3
   2238a:	2104      	movs	r1, #4
   2238c:	4620      	mov	r0, r4
   2238e:	462a      	mov	r2, r5
   22390:	462b      	mov	r3, r5
   22392:	df04      	svc	4
   22394:	b01f      	add	sp, #124	@ 0x7c
   22396:	bdf0      	pop	{r4, r5, r6, r7, pc}
   22398:	480f      	ldr	r0, [pc, #60]	@ (223d8 <_ZN18complex_no_dynamic3app17h59cd131903b32c67E+0xb0>)
   2239a:	2103      	movs	r1, #3
   2239c:	462a      	mov	r2, r5
   2239e:	462b      	mov	r3, r5
   223a0:	df03      	svc	3
   223a2:	2d00      	cmp	r5, #0
   223a4:	d1e7      	bne.n	22376 <_ZN18complex_no_dynamic3app17h59cd131903b32c67E+0x4e>
   223a6:	480c      	ldr	r0, [pc, #48]	@ (223d8 <_ZN18complex_no_dynamic3app17h59cd131903b32c67E+0xb0>)
   223a8:	2603      	movs	r6, #3
   223aa:	2500      	movs	r5, #0
   223ac:	4631      	mov	r1, r6
   223ae:	462a      	mov	r2, r5
   223b0:	462b      	mov	r3, r5
   223b2:	df03      	svc	3
   223b4:	1c60      	adds	r0, r4, #1
   223b6:	a90d      	add	r1, sp, #52	@ 0x34
   223b8:	2248      	movs	r2, #72	@ 0x48
   223ba:	f005 fc4e 	bl	27c5a <__aeabi_memcpy>
   223be:	7025      	strb	r5, [r4, #0]
   223c0:	4805      	ldr	r0, [pc, #20]	@ (223d8 <_ZN18complex_no_dynamic3app17h59cd131903b32c67E+0xb0>)
   223c2:	4631      	mov	r1, r6
   223c4:	462a      	mov	r2, r5
   223c6:	462b      	mov	r3, r5
   223c8:	df03      	svc	3
   223ca:	2104      	movs	r1, #4
   223cc:	4802      	ldr	r0, [pc, #8]	@ (223d8 <_ZN18complex_no_dynamic3app17h59cd131903b32c67E+0xb0>)
   223ce:	462a      	mov	r2, r5
   223d0:	462b      	mov	r3, r5
   223d2:	df04      	svc	4
   223d4:	b01f      	add	sp, #124	@ 0x7c
   223d6:	bdf0      	pop	{r4, r5, r6, r7, pc}
   223d8:	0000180e 	.word	0x0000180e

000223dc <_ZN18complex_no_dynamic3app17h59d77ca1006fcd70E>:
   223dc:	b5f0      	push	{r4, r5, r6, r7, lr}
   223de:	af03      	add	r7, sp, #12
   223e0:	b09f      	sub	sp, #124	@ 0x7c
   223e2:	9000      	str	r0, [sp, #0]
   223e4:	ae01      	add	r6, sp, #4
   223e6:	2435      	movs	r4, #53	@ 0x35
   223e8:	4630      	mov	r0, r6
   223ea:	4622      	mov	r2, r4
   223ec:	f005 fc35 	bl	27c5a <__aeabi_memcpy>
   223f0:	a80f      	add	r0, sp, #60	@ 0x3c
   223f2:	213f      	movs	r1, #63	@ 0x3f
   223f4:	f005 fa84 	bl	27900 <__aeabi_memclr4>
   223f8:	4826      	ldr	r0, [pc, #152]	@ (22494 <_ZN18complex_no_dynamic3app17h59d77ca1006fcd70E+0xb8>)
   223fa:	2500      	movs	r5, #0
   223fc:	4629      	mov	r1, r5
   223fe:	4632      	mov	r2, r6
   22400:	4623      	mov	r3, r4
   22402:	df04      	svc	4
   22404:	2802      	cmp	r0, #2
   22406:	d00e      	beq.n	22426 <_ZN18complex_no_dynamic3app17h59d77ca1006fcd70E+0x4a>
   22408:	4822      	ldr	r0, [pc, #136]	@ (22494 <_ZN18complex_no_dynamic3app17h59d77ca1006fcd70E+0xb8>)
   2240a:	2103      	movs	r1, #3
   2240c:	aa0f      	add	r2, sp, #60	@ 0x3c
   2240e:	233f      	movs	r3, #63	@ 0x3f
   22410:	df03      	svc	3
   22412:	2802      	cmp	r0, #2
   22414:	d007      	beq.n	22426 <_ZN18complex_no_dynamic3app17h59d77ca1006fcd70E+0x4a>
   22416:	481f      	ldr	r0, [pc, #124]	@ (22494 <_ZN18complex_no_dynamic3app17h59d77ca1006fcd70E+0xb8>)
   22418:	2203      	movs	r2, #3
   2241a:	2600      	movs	r6, #0
   2241c:	4631      	mov	r1, r6
   2241e:	4633      	mov	r3, r6
   22420:	df02      	svc	2
   22422:	287f      	cmp	r0, #127	@ 0x7f
   22424:	d814      	bhi.n	22450 <_ZN18complex_no_dynamic3app17h59d77ca1006fcd70E+0x74>
   22426:	2601      	movs	r6, #1
   22428:	2e00      	cmp	r6, #0
   2242a:	d018      	beq.n	2245e <_ZN18complex_no_dynamic3app17h59d77ca1006fcd70E+0x82>
   2242c:	2001      	movs	r0, #1
   2242e:	9a00      	ldr	r2, [sp, #0]
   22430:	7010      	strb	r0, [r2, #0]
   22432:	6051      	str	r1, [r2, #4]
   22434:	4c17      	ldr	r4, [pc, #92]	@ (22494 <_ZN18complex_no_dynamic3app17h59d77ca1006fcd70E+0xb8>)
   22436:	2103      	movs	r1, #3
   22438:	2500      	movs	r5, #0
   2243a:	4620      	mov	r0, r4
   2243c:	462a      	mov	r2, r5
   2243e:	462b      	mov	r3, r5
   22440:	df03      	svc	3
   22442:	4620      	mov	r0, r4
   22444:	4629      	mov	r1, r5
   22446:	462a      	mov	r2, r5
   22448:	462b      	mov	r3, r5
   2244a:	df04      	svc	4
   2244c:	b01f      	add	sp, #124	@ 0x7c
   2244e:	bdf0      	pop	{r4, r5, r6, r7, pc}
   22450:	4810      	ldr	r0, [pc, #64]	@ (22494 <_ZN18complex_no_dynamic3app17h59d77ca1006fcd70E+0xb8>)
   22452:	2103      	movs	r1, #3
   22454:	4632      	mov	r2, r6
   22456:	4633      	mov	r3, r6
   22458:	df03      	svc	3
   2245a:	2e00      	cmp	r6, #0
   2245c:	d1e6      	bne.n	2242c <_ZN18complex_no_dynamic3app17h59d77ca1006fcd70E+0x50>
   2245e:	480d      	ldr	r0, [pc, #52]	@ (22494 <_ZN18complex_no_dynamic3app17h59d77ca1006fcd70E+0xb8>)
   22460:	2403      	movs	r4, #3
   22462:	4621      	mov	r1, r4
   22464:	462a      	mov	r2, r5
   22466:	462b      	mov	r3, r5
   22468:	df03      	svc	3
   2246a:	9e00      	ldr	r6, [sp, #0]
   2246c:	1c70      	adds	r0, r6, #1
   2246e:	a90f      	add	r1, sp, #60	@ 0x3c
   22470:	223f      	movs	r2, #63	@ 0x3f
   22472:	f005 fbf2 	bl	27c5a <__aeabi_memcpy>
   22476:	7035      	strb	r5, [r6, #0]
   22478:	4e06      	ldr	r6, [pc, #24]	@ (22494 <_ZN18complex_no_dynamic3app17h59d77ca1006fcd70E+0xb8>)
   2247a:	4630      	mov	r0, r6
   2247c:	4621      	mov	r1, r4
   2247e:	462a      	mov	r2, r5
   22480:	462b      	mov	r3, r5
   22482:	df03      	svc	3
   22484:	4630      	mov	r0, r6
   22486:	4629      	mov	r1, r5
   22488:	462a      	mov	r2, r5
   2248a:	462b      	mov	r3, r5
   2248c:	df04      	svc	4
   2248e:	b01f      	add	sp, #124	@ 0x7c
   22490:	bdf0      	pop	{r4, r5, r6, r7, pc}
   22492:	46c0      	nop			@ (mov r8, r8)
   22494:	00000e57 	.word	0x00000e57

00022498 <_ZN18complex_no_dynamic3app17h5a74c1b3a42aca52E>:
   22498:	b5f0      	push	{r4, r5, r6, r7, lr}
   2249a:	af03      	add	r7, sp, #12
   2249c:	b099      	sub	sp, #100	@ 0x64
   2249e:	4604      	mov	r4, r0
   224a0:	ad01      	add	r5, sp, #4
   224a2:	2638      	movs	r6, #56	@ 0x38
   224a4:	4628      	mov	r0, r5
   224a6:	4632      	mov	r2, r6
   224a8:	f005 fbd7 	bl	27c5a <__aeabi_memcpy>
   224ac:	a80f      	add	r0, sp, #60	@ 0x3c
   224ae:	2127      	movs	r1, #39	@ 0x27
   224b0:	f005 fa26 	bl	27900 <__aeabi_memclr4>
   224b4:	4824      	ldr	r0, [pc, #144]	@ (22548 <_ZN18complex_no_dynamic3app17h5a74c1b3a42aca52E+0xb0>)
   224b6:	2102      	movs	r1, #2
   224b8:	462a      	mov	r2, r5
   224ba:	4633      	mov	r3, r6
   224bc:	df04      	svc	4
   224be:	2802      	cmp	r0, #2
   224c0:	d00e      	beq.n	224e0 <_ZN18complex_no_dynamic3app17h5a74c1b3a42aca52E+0x48>
   224c2:	4821      	ldr	r0, [pc, #132]	@ (22548 <_ZN18complex_no_dynamic3app17h5a74c1b3a42aca52E+0xb0>)
   224c4:	2108      	movs	r1, #8
   224c6:	aa0f      	add	r2, sp, #60	@ 0x3c
   224c8:	2327      	movs	r3, #39	@ 0x27
   224ca:	df03      	svc	3
   224cc:	2802      	cmp	r0, #2
   224ce:	d007      	beq.n	224e0 <_ZN18complex_no_dynamic3app17h5a74c1b3a42aca52E+0x48>
   224d0:	481d      	ldr	r0, [pc, #116]	@ (22548 <_ZN18complex_no_dynamic3app17h5a74c1b3a42aca52E+0xb0>)
   224d2:	2102      	movs	r1, #2
   224d4:	2208      	movs	r2, #8
   224d6:	2500      	movs	r5, #0
   224d8:	462b      	mov	r3, r5
   224da:	df02      	svc	2
   224dc:	287f      	cmp	r0, #127	@ 0x7f
   224de:	d813      	bhi.n	22508 <_ZN18complex_no_dynamic3app17h5a74c1b3a42aca52E+0x70>
   224e0:	2501      	movs	r5, #1
   224e2:	2d00      	cmp	r5, #0
   224e4:	d017      	beq.n	22516 <_ZN18complex_no_dynamic3app17h5a74c1b3a42aca52E+0x7e>
   224e6:	2001      	movs	r0, #1
   224e8:	7020      	strb	r0, [r4, #0]
   224ea:	6061      	str	r1, [r4, #4]
   224ec:	4c16      	ldr	r4, [pc, #88]	@ (22548 <_ZN18complex_no_dynamic3app17h5a74c1b3a42aca52E+0xb0>)
   224ee:	2108      	movs	r1, #8
   224f0:	2500      	movs	r5, #0
   224f2:	4620      	mov	r0, r4
   224f4:	462a      	mov	r2, r5
   224f6:	462b      	mov	r3, r5
   224f8:	df03      	svc	3
   224fa:	2102      	movs	r1, #2
   224fc:	4620      	mov	r0, r4
   224fe:	462a      	mov	r2, r5
   22500:	462b      	mov	r3, r5
   22502:	df04      	svc	4
   22504:	b019      	add	sp, #100	@ 0x64
   22506:	bdf0      	pop	{r4, r5, r6, r7, pc}
   22508:	480f      	ldr	r0, [pc, #60]	@ (22548 <_ZN18complex_no_dynamic3app17h5a74c1b3a42aca52E+0xb0>)
   2250a:	2108      	movs	r1, #8
   2250c:	462a      	mov	r2, r5
   2250e:	462b      	mov	r3, r5
   22510:	df03      	svc	3
   22512:	2d00      	cmp	r5, #0
   22514:	d1e7      	bne.n	224e6 <_ZN18complex_no_dynamic3app17h5a74c1b3a42aca52E+0x4e>
   22516:	480c      	ldr	r0, [pc, #48]	@ (22548 <_ZN18complex_no_dynamic3app17h5a74c1b3a42aca52E+0xb0>)
   22518:	2608      	movs	r6, #8
   2251a:	2500      	movs	r5, #0
   2251c:	4631      	mov	r1, r6
   2251e:	462a      	mov	r2, r5
   22520:	462b      	mov	r3, r5
   22522:	df03      	svc	3
   22524:	1c60      	adds	r0, r4, #1
   22526:	a90f      	add	r1, sp, #60	@ 0x3c
   22528:	2227      	movs	r2, #39	@ 0x27
   2252a:	f005 fb96 	bl	27c5a <__aeabi_memcpy>
   2252e:	7025      	strb	r5, [r4, #0]
   22530:	4805      	ldr	r0, [pc, #20]	@ (22548 <_ZN18complex_no_dynamic3app17h5a74c1b3a42aca52E+0xb0>)
   22532:	4631      	mov	r1, r6
   22534:	462a      	mov	r2, r5
   22536:	462b      	mov	r3, r5
   22538:	df03      	svc	3
   2253a:	2102      	movs	r1, #2
   2253c:	4802      	ldr	r0, [pc, #8]	@ (22548 <_ZN18complex_no_dynamic3app17h5a74c1b3a42aca52E+0xb0>)
   2253e:	462a      	mov	r2, r5
   22540:	462b      	mov	r3, r5
   22542:	df04      	svc	4
   22544:	b019      	add	sp, #100	@ 0x64
   22546:	bdf0      	pop	{r4, r5, r6, r7, pc}
   22548:	00000e2b 	.word	0x00000e2b

0002254c <_ZN18complex_no_dynamic3app17h6326def5d2c4f953E>:
   2254c:	b5f0      	push	{r4, r5, r6, r7, lr}
   2254e:	af03      	add	r7, sp, #12
   22550:	b099      	sub	sp, #100	@ 0x64
   22552:	4604      	mov	r4, r0
   22554:	466d      	mov	r5, sp
   22556:	263b      	movs	r6, #59	@ 0x3b
   22558:	4628      	mov	r0, r5
   2255a:	4632      	mov	r2, r6
   2255c:	f005 fb7d 	bl	27c5a <__aeabi_memcpy>
   22560:	a80f      	add	r0, sp, #60	@ 0x3c
   22562:	2127      	movs	r1, #39	@ 0x27
   22564:	f005 f9cc 	bl	27900 <__aeabi_memclr4>
   22568:	4824      	ldr	r0, [pc, #144]	@ (225fc <_ZN18complex_no_dynamic3app17h6326def5d2c4f953E+0xb0>)
   2256a:	2105      	movs	r1, #5
   2256c:	462a      	mov	r2, r5
   2256e:	4633      	mov	r3, r6
   22570:	df04      	svc	4
   22572:	2802      	cmp	r0, #2
   22574:	d00e      	beq.n	22594 <_ZN18complex_no_dynamic3app17h6326def5d2c4f953E+0x48>
   22576:	4821      	ldr	r0, [pc, #132]	@ (225fc <_ZN18complex_no_dynamic3app17h6326def5d2c4f953E+0xb0>)
   22578:	2103      	movs	r1, #3
   2257a:	aa0f      	add	r2, sp, #60	@ 0x3c
   2257c:	2327      	movs	r3, #39	@ 0x27
   2257e:	df03      	svc	3
   22580:	2802      	cmp	r0, #2
   22582:	d007      	beq.n	22594 <_ZN18complex_no_dynamic3app17h6326def5d2c4f953E+0x48>
   22584:	481d      	ldr	r0, [pc, #116]	@ (225fc <_ZN18complex_no_dynamic3app17h6326def5d2c4f953E+0xb0>)
   22586:	2105      	movs	r1, #5
   22588:	2203      	movs	r2, #3
   2258a:	2500      	movs	r5, #0
   2258c:	462b      	mov	r3, r5
   2258e:	df02      	svc	2
   22590:	287f      	cmp	r0, #127	@ 0x7f
   22592:	d813      	bhi.n	225bc <_ZN18complex_no_dynamic3app17h6326def5d2c4f953E+0x70>
   22594:	2501      	movs	r5, #1
   22596:	2d00      	cmp	r5, #0
   22598:	d017      	beq.n	225ca <_ZN18complex_no_dynamic3app17h6326def5d2c4f953E+0x7e>
   2259a:	2001      	movs	r0, #1
   2259c:	7020      	strb	r0, [r4, #0]
   2259e:	6061      	str	r1, [r4, #4]
   225a0:	4c16      	ldr	r4, [pc, #88]	@ (225fc <_ZN18complex_no_dynamic3app17h6326def5d2c4f953E+0xb0>)
   225a2:	2103      	movs	r1, #3
   225a4:	2500      	movs	r5, #0
   225a6:	4620      	mov	r0, r4
   225a8:	462a      	mov	r2, r5
   225aa:	462b      	mov	r3, r5
   225ac:	df03      	svc	3
   225ae:	2105      	movs	r1, #5
   225b0:	4620      	mov	r0, r4
   225b2:	462a      	mov	r2, r5
   225b4:	462b      	mov	r3, r5
   225b6:	df04      	svc	4
   225b8:	b019      	add	sp, #100	@ 0x64
   225ba:	bdf0      	pop	{r4, r5, r6, r7, pc}
   225bc:	480f      	ldr	r0, [pc, #60]	@ (225fc <_ZN18complex_no_dynamic3app17h6326def5d2c4f953E+0xb0>)
   225be:	2103      	movs	r1, #3
   225c0:	462a      	mov	r2, r5
   225c2:	462b      	mov	r3, r5
   225c4:	df03      	svc	3
   225c6:	2d00      	cmp	r5, #0
   225c8:	d1e7      	bne.n	2259a <_ZN18complex_no_dynamic3app17h6326def5d2c4f953E+0x4e>
   225ca:	480c      	ldr	r0, [pc, #48]	@ (225fc <_ZN18complex_no_dynamic3app17h6326def5d2c4f953E+0xb0>)
   225cc:	2603      	movs	r6, #3
   225ce:	2500      	movs	r5, #0
   225d0:	4631      	mov	r1, r6
   225d2:	462a      	mov	r2, r5
   225d4:	462b      	mov	r3, r5
   225d6:	df03      	svc	3
   225d8:	1c60      	adds	r0, r4, #1
   225da:	a90f      	add	r1, sp, #60	@ 0x3c
   225dc:	2227      	movs	r2, #39	@ 0x27
   225de:	f005 fb3c 	bl	27c5a <__aeabi_memcpy>
   225e2:	7025      	strb	r5, [r4, #0]
   225e4:	4805      	ldr	r0, [pc, #20]	@ (225fc <_ZN18complex_no_dynamic3app17h6326def5d2c4f953E+0xb0>)
   225e6:	4631      	mov	r1, r6
   225e8:	462a      	mov	r2, r5
   225ea:	462b      	mov	r3, r5
   225ec:	df03      	svc	3
   225ee:	2105      	movs	r1, #5
   225f0:	4802      	ldr	r0, [pc, #8]	@ (225fc <_ZN18complex_no_dynamic3app17h6326def5d2c4f953E+0xb0>)
   225f2:	462a      	mov	r2, r5
   225f4:	462b      	mov	r3, r5
   225f6:	df04      	svc	4
   225f8:	b019      	add	sp, #100	@ 0x64
   225fa:	bdf0      	pop	{r4, r5, r6, r7, pc}
   225fc:	00000bd3 	.word	0x00000bd3

00022600 <_ZN18complex_no_dynamic3app17h63ab625d3cbc6575E>:
   22600:	b5f0      	push	{r4, r5, r6, r7, lr}
   22602:	af03      	add	r7, sp, #12
   22604:	b095      	sub	sp, #84	@ 0x54
   22606:	4604      	mov	r4, r0
   22608:	466d      	mov	r5, sp
   2260a:	2624      	movs	r6, #36	@ 0x24
   2260c:	4628      	mov	r0, r5
   2260e:	4632      	mov	r2, r6
   22610:	f005 fb23 	bl	27c5a <__aeabi_memcpy>
   22614:	a809      	add	r0, sp, #36	@ 0x24
   22616:	212f      	movs	r1, #47	@ 0x2f
   22618:	f005 f972 	bl	27900 <__aeabi_memclr4>
   2261c:	4824      	ldr	r0, [pc, #144]	@ (226b0 <_ZN18complex_no_dynamic3app17h63ab625d3cbc6575E+0xb0>)
   2261e:	2106      	movs	r1, #6
   22620:	462a      	mov	r2, r5
   22622:	4633      	mov	r3, r6
   22624:	df04      	svc	4
   22626:	2802      	cmp	r0, #2
   22628:	d00e      	beq.n	22648 <_ZN18complex_no_dynamic3app17h63ab625d3cbc6575E+0x48>
   2262a:	4821      	ldr	r0, [pc, #132]	@ (226b0 <_ZN18complex_no_dynamic3app17h63ab625d3cbc6575E+0xb0>)
   2262c:	2109      	movs	r1, #9
   2262e:	aa09      	add	r2, sp, #36	@ 0x24
   22630:	232f      	movs	r3, #47	@ 0x2f
   22632:	df03      	svc	3
   22634:	2802      	cmp	r0, #2
   22636:	d007      	beq.n	22648 <_ZN18complex_no_dynamic3app17h63ab625d3cbc6575E+0x48>
   22638:	481d      	ldr	r0, [pc, #116]	@ (226b0 <_ZN18complex_no_dynamic3app17h63ab625d3cbc6575E+0xb0>)
   2263a:	2106      	movs	r1, #6
   2263c:	2209      	movs	r2, #9
   2263e:	2500      	movs	r5, #0
   22640:	462b      	mov	r3, r5
   22642:	df02      	svc	2
   22644:	287f      	cmp	r0, #127	@ 0x7f
   22646:	d813      	bhi.n	22670 <_ZN18complex_no_dynamic3app17h63ab625d3cbc6575E+0x70>
   22648:	2501      	movs	r5, #1
   2264a:	2d00      	cmp	r5, #0
   2264c:	d017      	beq.n	2267e <_ZN18complex_no_dynamic3app17h63ab625d3cbc6575E+0x7e>
   2264e:	2001      	movs	r0, #1
   22650:	7020      	strb	r0, [r4, #0]
   22652:	6061      	str	r1, [r4, #4]
   22654:	4c16      	ldr	r4, [pc, #88]	@ (226b0 <_ZN18complex_no_dynamic3app17h63ab625d3cbc6575E+0xb0>)
   22656:	2109      	movs	r1, #9
   22658:	2500      	movs	r5, #0
   2265a:	4620      	mov	r0, r4
   2265c:	462a      	mov	r2, r5
   2265e:	462b      	mov	r3, r5
   22660:	df03      	svc	3
   22662:	2106      	movs	r1, #6
   22664:	4620      	mov	r0, r4
   22666:	462a      	mov	r2, r5
   22668:	462b      	mov	r3, r5
   2266a:	df04      	svc	4
   2266c:	b015      	add	sp, #84	@ 0x54
   2266e:	bdf0      	pop	{r4, r5, r6, r7, pc}
   22670:	480f      	ldr	r0, [pc, #60]	@ (226b0 <_ZN18complex_no_dynamic3app17h63ab625d3cbc6575E+0xb0>)
   22672:	2109      	movs	r1, #9
   22674:	462a      	mov	r2, r5
   22676:	462b      	mov	r3, r5
   22678:	df03      	svc	3
   2267a:	2d00      	cmp	r5, #0
   2267c:	d1e7      	bne.n	2264e <_ZN18complex_no_dynamic3app17h63ab625d3cbc6575E+0x4e>
   2267e:	480c      	ldr	r0, [pc, #48]	@ (226b0 <_ZN18complex_no_dynamic3app17h63ab625d3cbc6575E+0xb0>)
   22680:	2609      	movs	r6, #9
   22682:	2500      	movs	r5, #0
   22684:	4631      	mov	r1, r6
   22686:	462a      	mov	r2, r5
   22688:	462b      	mov	r3, r5
   2268a:	df03      	svc	3
   2268c:	1c60      	adds	r0, r4, #1
   2268e:	a909      	add	r1, sp, #36	@ 0x24
   22690:	222f      	movs	r2, #47	@ 0x2f
   22692:	f005 fae2 	bl	27c5a <__aeabi_memcpy>
   22696:	7025      	strb	r5, [r4, #0]
   22698:	4805      	ldr	r0, [pc, #20]	@ (226b0 <_ZN18complex_no_dynamic3app17h63ab625d3cbc6575E+0xb0>)
   2269a:	4631      	mov	r1, r6
   2269c:	462a      	mov	r2, r5
   2269e:	462b      	mov	r3, r5
   226a0:	df03      	svc	3
   226a2:	2106      	movs	r1, #6
   226a4:	4802      	ldr	r0, [pc, #8]	@ (226b0 <_ZN18complex_no_dynamic3app17h63ab625d3cbc6575E+0xb0>)
   226a6:	462a      	mov	r2, r5
   226a8:	462b      	mov	r3, r5
   226aa:	df04      	svc	4
   226ac:	b015      	add	sp, #84	@ 0x54
   226ae:	bdf0      	pop	{r4, r5, r6, r7, pc}
   226b0:	00001273 	.word	0x00001273

000226b4 <_ZN18complex_no_dynamic3app17h65469387cb23abfcE>:
   226b4:	b5f0      	push	{r4, r5, r6, r7, lr}
   226b6:	af03      	add	r7, sp, #12
   226b8:	b09b      	sub	sp, #108	@ 0x6c
   226ba:	4604      	mov	r4, r0
   226bc:	ad01      	add	r5, sp, #4
   226be:	2644      	movs	r6, #68	@ 0x44
   226c0:	4628      	mov	r0, r5
   226c2:	4632      	mov	r2, r6
   226c4:	f005 fac9 	bl	27c5a <__aeabi_memcpy>
   226c8:	a812      	add	r0, sp, #72	@ 0x48
   226ca:	2123      	movs	r1, #35	@ 0x23
   226cc:	f005 f918 	bl	27900 <__aeabi_memclr4>
   226d0:	4824      	ldr	r0, [pc, #144]	@ (22764 <_ZN18complex_no_dynamic3app17h65469387cb23abfcE+0xb0>)
   226d2:	2106      	movs	r1, #6
   226d4:	462a      	mov	r2, r5
   226d6:	4633      	mov	r3, r6
   226d8:	df04      	svc	4
   226da:	2802      	cmp	r0, #2
   226dc:	d00e      	beq.n	226fc <_ZN18complex_no_dynamic3app17h65469387cb23abfcE+0x48>
   226de:	4821      	ldr	r0, [pc, #132]	@ (22764 <_ZN18complex_no_dynamic3app17h65469387cb23abfcE+0xb0>)
   226e0:	2103      	movs	r1, #3
   226e2:	aa12      	add	r2, sp, #72	@ 0x48
   226e4:	2323      	movs	r3, #35	@ 0x23
   226e6:	df03      	svc	3
   226e8:	2802      	cmp	r0, #2
   226ea:	d007      	beq.n	226fc <_ZN18complex_no_dynamic3app17h65469387cb23abfcE+0x48>
   226ec:	481d      	ldr	r0, [pc, #116]	@ (22764 <_ZN18complex_no_dynamic3app17h65469387cb23abfcE+0xb0>)
   226ee:	2106      	movs	r1, #6
   226f0:	2203      	movs	r2, #3
   226f2:	2500      	movs	r5, #0
   226f4:	462b      	mov	r3, r5
   226f6:	df02      	svc	2
   226f8:	287f      	cmp	r0, #127	@ 0x7f
   226fa:	d813      	bhi.n	22724 <_ZN18complex_no_dynamic3app17h65469387cb23abfcE+0x70>
   226fc:	2501      	movs	r5, #1
   226fe:	2d00      	cmp	r5, #0
   22700:	d017      	beq.n	22732 <_ZN18complex_no_dynamic3app17h65469387cb23abfcE+0x7e>
   22702:	2001      	movs	r0, #1
   22704:	7020      	strb	r0, [r4, #0]
   22706:	6061      	str	r1, [r4, #4]
   22708:	4c16      	ldr	r4, [pc, #88]	@ (22764 <_ZN18complex_no_dynamic3app17h65469387cb23abfcE+0xb0>)
   2270a:	2103      	movs	r1, #3
   2270c:	2500      	movs	r5, #0
   2270e:	4620      	mov	r0, r4
   22710:	462a      	mov	r2, r5
   22712:	462b      	mov	r3, r5
   22714:	df03      	svc	3
   22716:	2106      	movs	r1, #6
   22718:	4620      	mov	r0, r4
   2271a:	462a      	mov	r2, r5
   2271c:	462b      	mov	r3, r5
   2271e:	df04      	svc	4
   22720:	b01b      	add	sp, #108	@ 0x6c
   22722:	bdf0      	pop	{r4, r5, r6, r7, pc}
   22724:	480f      	ldr	r0, [pc, #60]	@ (22764 <_ZN18complex_no_dynamic3app17h65469387cb23abfcE+0xb0>)
   22726:	2103      	movs	r1, #3
   22728:	462a      	mov	r2, r5
   2272a:	462b      	mov	r3, r5
   2272c:	df03      	svc	3
   2272e:	2d00      	cmp	r5, #0
   22730:	d1e7      	bne.n	22702 <_ZN18complex_no_dynamic3app17h65469387cb23abfcE+0x4e>
   22732:	480c      	ldr	r0, [pc, #48]	@ (22764 <_ZN18complex_no_dynamic3app17h65469387cb23abfcE+0xb0>)
   22734:	2603      	movs	r6, #3
   22736:	2500      	movs	r5, #0
   22738:	4631      	mov	r1, r6
   2273a:	462a      	mov	r2, r5
   2273c:	462b      	mov	r3, r5
   2273e:	df03      	svc	3
   22740:	1c60      	adds	r0, r4, #1
   22742:	a912      	add	r1, sp, #72	@ 0x48
   22744:	2223      	movs	r2, #35	@ 0x23
   22746:	f005 fa88 	bl	27c5a <__aeabi_memcpy>
   2274a:	7025      	strb	r5, [r4, #0]
   2274c:	4805      	ldr	r0, [pc, #20]	@ (22764 <_ZN18complex_no_dynamic3app17h65469387cb23abfcE+0xb0>)
   2274e:	4631      	mov	r1, r6
   22750:	462a      	mov	r2, r5
   22752:	462b      	mov	r3, r5
   22754:	df03      	svc	3
   22756:	2106      	movs	r1, #6
   22758:	4802      	ldr	r0, [pc, #8]	@ (22764 <_ZN18complex_no_dynamic3app17h65469387cb23abfcE+0xb0>)
   2275a:	462a      	mov	r2, r5
   2275c:	462b      	mov	r3, r5
   2275e:	df04      	svc	4
   22760:	b01b      	add	sp, #108	@ 0x6c
   22762:	bdf0      	pop	{r4, r5, r6, r7, pc}
   22764:	000009bf 	.word	0x000009bf

00022768 <_ZN18complex_no_dynamic3app17h658f705be991801fE>:
   22768:	b5f0      	push	{r4, r5, r6, r7, lr}
   2276a:	af03      	add	r7, sp, #12
   2276c:	b0a5      	sub	sp, #148	@ 0x94
   2276e:	4604      	mov	r4, r0
   22770:	ad01      	add	r5, sp, #4
   22772:	2663      	movs	r6, #99	@ 0x63
   22774:	4628      	mov	r0, r5
   22776:	4632      	mov	r2, r6
   22778:	f005 fa6f 	bl	27c5a <__aeabi_memcpy>
   2277c:	a81a      	add	r0, sp, #104	@ 0x68
   2277e:	212c      	movs	r1, #44	@ 0x2c
   22780:	f005 f8be 	bl	27900 <__aeabi_memclr4>
   22784:	2018      	movs	r0, #24
   22786:	2105      	movs	r1, #5
   22788:	462a      	mov	r2, r5
   2278a:	4633      	mov	r3, r6
   2278c:	df04      	svc	4
   2278e:	2802      	cmp	r0, #2
   22790:	d00e      	beq.n	227b0 <_ZN18complex_no_dynamic3app17h658f705be991801fE+0x48>
   22792:	2018      	movs	r0, #24
   22794:	2103      	movs	r1, #3
   22796:	aa1a      	add	r2, sp, #104	@ 0x68
   22798:	232c      	movs	r3, #44	@ 0x2c
   2279a:	df03      	svc	3
   2279c:	2802      	cmp	r0, #2
   2279e:	d007      	beq.n	227b0 <_ZN18complex_no_dynamic3app17h658f705be991801fE+0x48>
   227a0:	2018      	movs	r0, #24
   227a2:	2105      	movs	r1, #5
   227a4:	2203      	movs	r2, #3
   227a6:	2500      	movs	r5, #0
   227a8:	462b      	mov	r3, r5
   227aa:	df02      	svc	2
   227ac:	287f      	cmp	r0, #127	@ 0x7f
   227ae:	d813      	bhi.n	227d8 <_ZN18complex_no_dynamic3app17h658f705be991801fE+0x70>
   227b0:	2501      	movs	r5, #1
   227b2:	2d00      	cmp	r5, #0
   227b4:	d017      	beq.n	227e6 <_ZN18complex_no_dynamic3app17h658f705be991801fE+0x7e>
   227b6:	2001      	movs	r0, #1
   227b8:	7020      	strb	r0, [r4, #0]
   227ba:	6061      	str	r1, [r4, #4]
   227bc:	2418      	movs	r4, #24
   227be:	2103      	movs	r1, #3
   227c0:	2500      	movs	r5, #0
   227c2:	4620      	mov	r0, r4
   227c4:	462a      	mov	r2, r5
   227c6:	462b      	mov	r3, r5
   227c8:	df03      	svc	3
   227ca:	2105      	movs	r1, #5
   227cc:	4620      	mov	r0, r4
   227ce:	462a      	mov	r2, r5
   227d0:	462b      	mov	r3, r5
   227d2:	df04      	svc	4
   227d4:	b025      	add	sp, #148	@ 0x94
   227d6:	bdf0      	pop	{r4, r5, r6, r7, pc}
   227d8:	2018      	movs	r0, #24
   227da:	2103      	movs	r1, #3
   227dc:	462a      	mov	r2, r5
   227de:	462b      	mov	r3, r5
   227e0:	df03      	svc	3
   227e2:	2d00      	cmp	r5, #0
   227e4:	d1e7      	bne.n	227b6 <_ZN18complex_no_dynamic3app17h658f705be991801fE+0x4e>
   227e6:	2618      	movs	r6, #24
   227e8:	2103      	movs	r1, #3
   227ea:	9100      	str	r1, [sp, #0]
   227ec:	2500      	movs	r5, #0
   227ee:	4630      	mov	r0, r6
   227f0:	462a      	mov	r2, r5
   227f2:	462b      	mov	r3, r5
   227f4:	df03      	svc	3
   227f6:	1c60      	adds	r0, r4, #1
   227f8:	a91a      	add	r1, sp, #104	@ 0x68
   227fa:	222c      	movs	r2, #44	@ 0x2c
   227fc:	f005 fa2d 	bl	27c5a <__aeabi_memcpy>
   22800:	7025      	strb	r5, [r4, #0]
   22802:	4630      	mov	r0, r6
   22804:	9900      	ldr	r1, [sp, #0]
   22806:	462a      	mov	r2, r5
   22808:	462b      	mov	r3, r5
   2280a:	df03      	svc	3
   2280c:	2105      	movs	r1, #5
   2280e:	4630      	mov	r0, r6
   22810:	462a      	mov	r2, r5
   22812:	462b      	mov	r3, r5
   22814:	df04      	svc	4
   22816:	b025      	add	sp, #148	@ 0x94
   22818:	bdf0      	pop	{r4, r5, r6, r7, pc}
   2281a:	d4d4      	bmi.n	227c6 <_ZN18complex_no_dynamic3app17h658f705be991801fE+0x5e>

0002281c <_ZN18complex_no_dynamic3app17h67aca179d22b301fE>:
   2281c:	b5f0      	push	{r4, r5, r6, r7, lr}
   2281e:	af03      	add	r7, sp, #12
   22820:	b08d      	sub	sp, #52	@ 0x34
   22822:	4604      	mov	r4, r0
   22824:	7b08      	ldrb	r0, [r1, #12]
   22826:	466e      	mov	r6, sp
   22828:	7330      	strb	r0, [r6, #12]
   2282a:	7a08      	ldrb	r0, [r1, #8]
   2282c:	7a4a      	ldrb	r2, [r1, #9]
   2282e:	0212      	lsls	r2, r2, #8
   22830:	1810      	adds	r0, r2, r0
   22832:	7a8a      	ldrb	r2, [r1, #10]
   22834:	0412      	lsls	r2, r2, #16
   22836:	7acb      	ldrb	r3, [r1, #11]
   22838:	061b      	lsls	r3, r3, #24
   2283a:	189a      	adds	r2, r3, r2
   2283c:	1810      	adds	r0, r2, r0
   2283e:	9002      	str	r0, [sp, #8]
   22840:	7908      	ldrb	r0, [r1, #4]
   22842:	794a      	ldrb	r2, [r1, #5]
   22844:	0212      	lsls	r2, r2, #8
   22846:	1810      	adds	r0, r2, r0
   22848:	798a      	ldrb	r2, [r1, #6]
   2284a:	0412      	lsls	r2, r2, #16
   2284c:	79cb      	ldrb	r3, [r1, #7]
   2284e:	061b      	lsls	r3, r3, #24
   22850:	189a      	adds	r2, r3, r2
   22852:	1810      	adds	r0, r2, r0
   22854:	9001      	str	r0, [sp, #4]
   22856:	7808      	ldrb	r0, [r1, #0]
   22858:	784a      	ldrb	r2, [r1, #1]
   2285a:	0212      	lsls	r2, r2, #8
   2285c:	1810      	adds	r0, r2, r0
   2285e:	788a      	ldrb	r2, [r1, #2]
   22860:	0412      	lsls	r2, r2, #16
   22862:	78c9      	ldrb	r1, [r1, #3]
   22864:	0609      	lsls	r1, r1, #24
   22866:	1889      	adds	r1, r1, r2
   22868:	1808      	adds	r0, r1, r0
   2286a:	9000      	str	r0, [sp, #0]
   2286c:	a804      	add	r0, sp, #16
   2286e:	2121      	movs	r1, #33	@ 0x21
   22870:	f005 f846 	bl	27900 <__aeabi_memclr4>
   22874:	4824      	ldr	r0, [pc, #144]	@ (22908 <_ZN18complex_no_dynamic3app17h67aca179d22b301fE+0xec>)
   22876:	2500      	movs	r5, #0
   22878:	230d      	movs	r3, #13
   2287a:	4629      	mov	r1, r5
   2287c:	4632      	mov	r2, r6
   2287e:	df04      	svc	4
   22880:	2802      	cmp	r0, #2
   22882:	d00e      	beq.n	228a2 <_ZN18complex_no_dynamic3app17h67aca179d22b301fE+0x86>
   22884:	4820      	ldr	r0, [pc, #128]	@ (22908 <_ZN18complex_no_dynamic3app17h67aca179d22b301fE+0xec>)
   22886:	2100      	movs	r1, #0
   22888:	aa04      	add	r2, sp, #16
   2288a:	2321      	movs	r3, #33	@ 0x21
   2288c:	df03      	svc	3
   2288e:	2802      	cmp	r0, #2
   22890:	d007      	beq.n	228a2 <_ZN18complex_no_dynamic3app17h67aca179d22b301fE+0x86>
   22892:	481d      	ldr	r0, [pc, #116]	@ (22908 <_ZN18complex_no_dynamic3app17h67aca179d22b301fE+0xec>)
   22894:	2600      	movs	r6, #0
   22896:	4631      	mov	r1, r6
   22898:	4632      	mov	r2, r6
   2289a:	4633      	mov	r3, r6
   2289c:	df02      	svc	2
   2289e:	287f      	cmp	r0, #127	@ 0x7f
   228a0:	d813      	bhi.n	228ca <_ZN18complex_no_dynamic3app17h67aca179d22b301fE+0xae>
   228a2:	2601      	movs	r6, #1
   228a4:	2e00      	cmp	r6, #0
   228a6:	d017      	beq.n	228d8 <_ZN18complex_no_dynamic3app17h67aca179d22b301fE+0xbc>
   228a8:	2001      	movs	r0, #1
   228aa:	7020      	strb	r0, [r4, #0]
   228ac:	6061      	str	r1, [r4, #4]
   228ae:	4c16      	ldr	r4, [pc, #88]	@ (22908 <_ZN18complex_no_dynamic3app17h67aca179d22b301fE+0xec>)
   228b0:	2500      	movs	r5, #0
   228b2:	4620      	mov	r0, r4
   228b4:	4629      	mov	r1, r5
   228b6:	462a      	mov	r2, r5
   228b8:	462b      	mov	r3, r5
   228ba:	df03      	svc	3
   228bc:	4620      	mov	r0, r4
   228be:	4629      	mov	r1, r5
   228c0:	462a      	mov	r2, r5
   228c2:	462b      	mov	r3, r5
   228c4:	df04      	svc	4
   228c6:	b00d      	add	sp, #52	@ 0x34
   228c8:	bdf0      	pop	{r4, r5, r6, r7, pc}
   228ca:	480f      	ldr	r0, [pc, #60]	@ (22908 <_ZN18complex_no_dynamic3app17h67aca179d22b301fE+0xec>)
   228cc:	4631      	mov	r1, r6
   228ce:	4632      	mov	r2, r6
   228d0:	4633      	mov	r3, r6
   228d2:	df03      	svc	3
   228d4:	2e00      	cmp	r6, #0
   228d6:	d1e7      	bne.n	228a8 <_ZN18complex_no_dynamic3app17h67aca179d22b301fE+0x8c>
   228d8:	4e0b      	ldr	r6, [pc, #44]	@ (22908 <_ZN18complex_no_dynamic3app17h67aca179d22b301fE+0xec>)
   228da:	4630      	mov	r0, r6
   228dc:	4629      	mov	r1, r5
   228de:	462a      	mov	r2, r5
   228e0:	462b      	mov	r3, r5
   228e2:	df03      	svc	3
   228e4:	1c60      	adds	r0, r4, #1
   228e6:	a904      	add	r1, sp, #16
   228e8:	2221      	movs	r2, #33	@ 0x21
   228ea:	f005 f9b6 	bl	27c5a <__aeabi_memcpy>
   228ee:	7025      	strb	r5, [r4, #0]
   228f0:	4630      	mov	r0, r6
   228f2:	4629      	mov	r1, r5
   228f4:	462a      	mov	r2, r5
   228f6:	462b      	mov	r3, r5
   228f8:	df03      	svc	3
   228fa:	4630      	mov	r0, r6
   228fc:	4629      	mov	r1, r5
   228fe:	462a      	mov	r2, r5
   22900:	462b      	mov	r3, r5
   22902:	df04      	svc	4
   22904:	b00d      	add	sp, #52	@ 0x34
   22906:	bdf0      	pop	{r4, r5, r6, r7, pc}
   22908:	000016b0 	.word	0x000016b0

0002290c <_ZN18complex_no_dynamic3app17h6f73117a0cca06cdE>:
   2290c:	b5f0      	push	{r4, r5, r6, r7, lr}
   2290e:	af03      	add	r7, sp, #12
   22910:	b09d      	sub	sp, #116	@ 0x74
   22912:	4604      	mov	r4, r0
   22914:	466d      	mov	r5, sp
   22916:	2648      	movs	r6, #72	@ 0x48
   22918:	4628      	mov	r0, r5
   2291a:	4632      	mov	r2, r6
   2291c:	f005 f99d 	bl	27c5a <__aeabi_memcpy>
   22920:	a812      	add	r0, sp, #72	@ 0x48
   22922:	2129      	movs	r1, #41	@ 0x29
   22924:	f004 ffec 	bl	27900 <__aeabi_memclr4>
   22928:	4824      	ldr	r0, [pc, #144]	@ (229bc <_ZN18complex_no_dynamic3app17h6f73117a0cca06cdE+0xb0>)
   2292a:	2103      	movs	r1, #3
   2292c:	462a      	mov	r2, r5
   2292e:	4633      	mov	r3, r6
   22930:	df04      	svc	4
   22932:	2802      	cmp	r0, #2
   22934:	d00e      	beq.n	22954 <_ZN18complex_no_dynamic3app17h6f73117a0cca06cdE+0x48>
   22936:	4821      	ldr	r0, [pc, #132]	@ (229bc <_ZN18complex_no_dynamic3app17h6f73117a0cca06cdE+0xb0>)
   22938:	2104      	movs	r1, #4
   2293a:	aa12      	add	r2, sp, #72	@ 0x48
   2293c:	2329      	movs	r3, #41	@ 0x29
   2293e:	df03      	svc	3
   22940:	2802      	cmp	r0, #2
   22942:	d007      	beq.n	22954 <_ZN18complex_no_dynamic3app17h6f73117a0cca06cdE+0x48>
   22944:	481d      	ldr	r0, [pc, #116]	@ (229bc <_ZN18complex_no_dynamic3app17h6f73117a0cca06cdE+0xb0>)
   22946:	2103      	movs	r1, #3
   22948:	2204      	movs	r2, #4
   2294a:	2500      	movs	r5, #0
   2294c:	462b      	mov	r3, r5
   2294e:	df02      	svc	2
   22950:	287f      	cmp	r0, #127	@ 0x7f
   22952:	d813      	bhi.n	2297c <_ZN18complex_no_dynamic3app17h6f73117a0cca06cdE+0x70>
   22954:	2501      	movs	r5, #1
   22956:	2d00      	cmp	r5, #0
   22958:	d017      	beq.n	2298a <_ZN18complex_no_dynamic3app17h6f73117a0cca06cdE+0x7e>
   2295a:	2001      	movs	r0, #1
   2295c:	7020      	strb	r0, [r4, #0]
   2295e:	6061      	str	r1, [r4, #4]
   22960:	4c16      	ldr	r4, [pc, #88]	@ (229bc <_ZN18complex_no_dynamic3app17h6f73117a0cca06cdE+0xb0>)
   22962:	2104      	movs	r1, #4
   22964:	2500      	movs	r5, #0
   22966:	4620      	mov	r0, r4
   22968:	462a      	mov	r2, r5
   2296a:	462b      	mov	r3, r5
   2296c:	df03      	svc	3
   2296e:	2103      	movs	r1, #3
   22970:	4620      	mov	r0, r4
   22972:	462a      	mov	r2, r5
   22974:	462b      	mov	r3, r5
   22976:	df04      	svc	4
   22978:	b01d      	add	sp, #116	@ 0x74
   2297a:	bdf0      	pop	{r4, r5, r6, r7, pc}
   2297c:	480f      	ldr	r0, [pc, #60]	@ (229bc <_ZN18complex_no_dynamic3app17h6f73117a0cca06cdE+0xb0>)
   2297e:	2104      	movs	r1, #4
   22980:	462a      	mov	r2, r5
   22982:	462b      	mov	r3, r5
   22984:	df03      	svc	3
   22986:	2d00      	cmp	r5, #0
   22988:	d1e7      	bne.n	2295a <_ZN18complex_no_dynamic3app17h6f73117a0cca06cdE+0x4e>
   2298a:	480c      	ldr	r0, [pc, #48]	@ (229bc <_ZN18complex_no_dynamic3app17h6f73117a0cca06cdE+0xb0>)
   2298c:	2604      	movs	r6, #4
   2298e:	2500      	movs	r5, #0
   22990:	4631      	mov	r1, r6
   22992:	462a      	mov	r2, r5
   22994:	462b      	mov	r3, r5
   22996:	df03      	svc	3
   22998:	1c60      	adds	r0, r4, #1
   2299a:	a912      	add	r1, sp, #72	@ 0x48
   2299c:	2229      	movs	r2, #41	@ 0x29
   2299e:	f005 f95c 	bl	27c5a <__aeabi_memcpy>
   229a2:	7025      	strb	r5, [r4, #0]
   229a4:	4805      	ldr	r0, [pc, #20]	@ (229bc <_ZN18complex_no_dynamic3app17h6f73117a0cca06cdE+0xb0>)
   229a6:	4631      	mov	r1, r6
   229a8:	462a      	mov	r2, r5
   229aa:	462b      	mov	r3, r5
   229ac:	df03      	svc	3
   229ae:	2103      	movs	r1, #3
   229b0:	4802      	ldr	r0, [pc, #8]	@ (229bc <_ZN18complex_no_dynamic3app17h6f73117a0cca06cdE+0xb0>)
   229b2:	462a      	mov	r2, r5
   229b4:	462b      	mov	r3, r5
   229b6:	df04      	svc	4
   229b8:	b01d      	add	sp, #116	@ 0x74
   229ba:	bdf0      	pop	{r4, r5, r6, r7, pc}
   229bc:	000026a4 	.word	0x000026a4

000229c0 <_ZN18complex_no_dynamic3app17h70e3c7e57ddf0123E>:
   229c0:	b5f0      	push	{r4, r5, r6, r7, lr}
   229c2:	af03      	add	r7, sp, #12
   229c4:	b09d      	sub	sp, #116	@ 0x74
   229c6:	9001      	str	r0, [sp, #4]
   229c8:	ae02      	add	r6, sp, #8
   229ca:	2455      	movs	r4, #85	@ 0x55
   229cc:	4630      	mov	r0, r6
   229ce:	4622      	mov	r2, r4
   229d0:	f005 f943 	bl	27c5a <__aeabi_memcpy>
   229d4:	a818      	add	r0, sp, #96	@ 0x60
   229d6:	2500      	movs	r5, #0
   229d8:	7405      	strb	r5, [r0, #16]
   229da:	951b      	str	r5, [sp, #108]	@ 0x6c
   229dc:	951a      	str	r5, [sp, #104]	@ 0x68
   229de:	9519      	str	r5, [sp, #100]	@ 0x64
   229e0:	9518      	str	r5, [sp, #96]	@ 0x60
   229e2:	4826      	ldr	r0, [pc, #152]	@ (22a7c <_ZN18complex_no_dynamic3app17h70e3c7e57ddf0123E+0xbc>)
   229e4:	2102      	movs	r1, #2
   229e6:	4632      	mov	r2, r6
   229e8:	4623      	mov	r3, r4
   229ea:	df04      	svc	4
   229ec:	2802      	cmp	r0, #2
   229ee:	d00e      	beq.n	22a0e <_ZN18complex_no_dynamic3app17h70e3c7e57ddf0123E+0x4e>
   229f0:	4822      	ldr	r0, [pc, #136]	@ (22a7c <_ZN18complex_no_dynamic3app17h70e3c7e57ddf0123E+0xbc>)
   229f2:	2102      	movs	r1, #2
   229f4:	aa18      	add	r2, sp, #96	@ 0x60
   229f6:	2311      	movs	r3, #17
   229f8:	df03      	svc	3
   229fa:	2802      	cmp	r0, #2
   229fc:	d007      	beq.n	22a0e <_ZN18complex_no_dynamic3app17h70e3c7e57ddf0123E+0x4e>
   229fe:	481f      	ldr	r0, [pc, #124]	@ (22a7c <_ZN18complex_no_dynamic3app17h70e3c7e57ddf0123E+0xbc>)
   22a00:	2102      	movs	r1, #2
   22a02:	2600      	movs	r6, #0
   22a04:	460a      	mov	r2, r1
   22a06:	4633      	mov	r3, r6
   22a08:	df02      	svc	2
   22a0a:	287f      	cmp	r0, #127	@ 0x7f
   22a0c:	d815      	bhi.n	22a3a <_ZN18complex_no_dynamic3app17h70e3c7e57ddf0123E+0x7a>
   22a0e:	2601      	movs	r6, #1
   22a10:	2e00      	cmp	r6, #0
   22a12:	d019      	beq.n	22a48 <_ZN18complex_no_dynamic3app17h70e3c7e57ddf0123E+0x88>
   22a14:	2001      	movs	r0, #1
   22a16:	9a01      	ldr	r2, [sp, #4]
   22a18:	7010      	strb	r0, [r2, #0]
   22a1a:	6051      	str	r1, [r2, #4]
   22a1c:	4c17      	ldr	r4, [pc, #92]	@ (22a7c <_ZN18complex_no_dynamic3app17h70e3c7e57ddf0123E+0xbc>)
   22a1e:	2502      	movs	r5, #2
   22a20:	2600      	movs	r6, #0
   22a22:	4620      	mov	r0, r4
   22a24:	4629      	mov	r1, r5
   22a26:	4632      	mov	r2, r6
   22a28:	4633      	mov	r3, r6
   22a2a:	df03      	svc	3
   22a2c:	4620      	mov	r0, r4
   22a2e:	4629      	mov	r1, r5
   22a30:	4632      	mov	r2, r6
   22a32:	4633      	mov	r3, r6
   22a34:	df04      	svc	4
   22a36:	b01d      	add	sp, #116	@ 0x74
   22a38:	bdf0      	pop	{r4, r5, r6, r7, pc}
   22a3a:	4810      	ldr	r0, [pc, #64]	@ (22a7c <_ZN18complex_no_dynamic3app17h70e3c7e57ddf0123E+0xbc>)
   22a3c:	2102      	movs	r1, #2
   22a3e:	4632      	mov	r2, r6
   22a40:	4633      	mov	r3, r6
   22a42:	df03      	svc	3
   22a44:	2e00      	cmp	r6, #0
   22a46:	d1e5      	bne.n	22a14 <_ZN18complex_no_dynamic3app17h70e3c7e57ddf0123E+0x54>
   22a48:	480c      	ldr	r0, [pc, #48]	@ (22a7c <_ZN18complex_no_dynamic3app17h70e3c7e57ddf0123E+0xbc>)
   22a4a:	2602      	movs	r6, #2
   22a4c:	4631      	mov	r1, r6
   22a4e:	462a      	mov	r2, r5
   22a50:	462b      	mov	r3, r5
   22a52:	df03      	svc	3
   22a54:	9c01      	ldr	r4, [sp, #4]
   22a56:	1c60      	adds	r0, r4, #1
   22a58:	a918      	add	r1, sp, #96	@ 0x60
   22a5a:	2211      	movs	r2, #17
   22a5c:	f005 f8fd 	bl	27c5a <__aeabi_memcpy>
   22a60:	7025      	strb	r5, [r4, #0]
   22a62:	4c06      	ldr	r4, [pc, #24]	@ (22a7c <_ZN18complex_no_dynamic3app17h70e3c7e57ddf0123E+0xbc>)
   22a64:	4620      	mov	r0, r4
   22a66:	4631      	mov	r1, r6
   22a68:	462a      	mov	r2, r5
   22a6a:	462b      	mov	r3, r5
   22a6c:	df03      	svc	3
   22a6e:	4620      	mov	r0, r4
   22a70:	4631      	mov	r1, r6
   22a72:	462a      	mov	r2, r5
   22a74:	462b      	mov	r3, r5
   22a76:	df04      	svc	4
   22a78:	b01d      	add	sp, #116	@ 0x74
   22a7a:	bdf0      	pop	{r4, r5, r6, r7, pc}
   22a7c:	00000c89 	.word	0x00000c89

00022a80 <_ZN18complex_no_dynamic3app17h76e632c862146a55E>:
   22a80:	b5f0      	push	{r4, r5, r6, r7, lr}
   22a82:	af03      	add	r7, sp, #12
   22a84:	b09f      	sub	sp, #124	@ 0x7c
   22a86:	4604      	mov	r4, r0
   22a88:	466d      	mov	r5, sp
   22a8a:	261c      	movs	r6, #28
   22a8c:	4628      	mov	r0, r5
   22a8e:	4632      	mov	r2, r6
   22a90:	f005 f8e3 	bl	27c5a <__aeabi_memcpy>
   22a94:	a807      	add	r0, sp, #28
   22a96:	215d      	movs	r1, #93	@ 0x5d
   22a98:	f004 ff32 	bl	27900 <__aeabi_memclr4>
   22a9c:	4824      	ldr	r0, [pc, #144]	@ (22b30 <_ZN18complex_no_dynamic3app17h76e632c862146a55E+0xb0>)
   22a9e:	2108      	movs	r1, #8
   22aa0:	462a      	mov	r2, r5
   22aa2:	4633      	mov	r3, r6
   22aa4:	df04      	svc	4
   22aa6:	2802      	cmp	r0, #2
   22aa8:	d00e      	beq.n	22ac8 <_ZN18complex_no_dynamic3app17h76e632c862146a55E+0x48>
   22aaa:	4821      	ldr	r0, [pc, #132]	@ (22b30 <_ZN18complex_no_dynamic3app17h76e632c862146a55E+0xb0>)
   22aac:	2105      	movs	r1, #5
   22aae:	aa07      	add	r2, sp, #28
   22ab0:	235d      	movs	r3, #93	@ 0x5d
   22ab2:	df03      	svc	3
   22ab4:	2802      	cmp	r0, #2
   22ab6:	d007      	beq.n	22ac8 <_ZN18complex_no_dynamic3app17h76e632c862146a55E+0x48>
   22ab8:	481d      	ldr	r0, [pc, #116]	@ (22b30 <_ZN18complex_no_dynamic3app17h76e632c862146a55E+0xb0>)
   22aba:	2108      	movs	r1, #8
   22abc:	2205      	movs	r2, #5
   22abe:	2500      	movs	r5, #0
   22ac0:	462b      	mov	r3, r5
   22ac2:	df02      	svc	2
   22ac4:	287f      	cmp	r0, #127	@ 0x7f
   22ac6:	d813      	bhi.n	22af0 <_ZN18complex_no_dynamic3app17h76e632c862146a55E+0x70>
   22ac8:	2501      	movs	r5, #1
   22aca:	2d00      	cmp	r5, #0
   22acc:	d017      	beq.n	22afe <_ZN18complex_no_dynamic3app17h76e632c862146a55E+0x7e>
   22ace:	2001      	movs	r0, #1
   22ad0:	7020      	strb	r0, [r4, #0]
   22ad2:	6061      	str	r1, [r4, #4]
   22ad4:	4c16      	ldr	r4, [pc, #88]	@ (22b30 <_ZN18complex_no_dynamic3app17h76e632c862146a55E+0xb0>)
   22ad6:	2105      	movs	r1, #5
   22ad8:	2500      	movs	r5, #0
   22ada:	4620      	mov	r0, r4
   22adc:	462a      	mov	r2, r5
   22ade:	462b      	mov	r3, r5
   22ae0:	df03      	svc	3
   22ae2:	2108      	movs	r1, #8
   22ae4:	4620      	mov	r0, r4
   22ae6:	462a      	mov	r2, r5
   22ae8:	462b      	mov	r3, r5
   22aea:	df04      	svc	4
   22aec:	b01f      	add	sp, #124	@ 0x7c
   22aee:	bdf0      	pop	{r4, r5, r6, r7, pc}
   22af0:	480f      	ldr	r0, [pc, #60]	@ (22b30 <_ZN18complex_no_dynamic3app17h76e632c862146a55E+0xb0>)
   22af2:	2105      	movs	r1, #5
   22af4:	462a      	mov	r2, r5
   22af6:	462b      	mov	r3, r5
   22af8:	df03      	svc	3
   22afa:	2d00      	cmp	r5, #0
   22afc:	d1e7      	bne.n	22ace <_ZN18complex_no_dynamic3app17h76e632c862146a55E+0x4e>
   22afe:	480c      	ldr	r0, [pc, #48]	@ (22b30 <_ZN18complex_no_dynamic3app17h76e632c862146a55E+0xb0>)
   22b00:	2605      	movs	r6, #5
   22b02:	2500      	movs	r5, #0
   22b04:	4631      	mov	r1, r6
   22b06:	462a      	mov	r2, r5
   22b08:	462b      	mov	r3, r5
   22b0a:	df03      	svc	3
   22b0c:	1c60      	adds	r0, r4, #1
   22b0e:	a907      	add	r1, sp, #28
   22b10:	225d      	movs	r2, #93	@ 0x5d
   22b12:	f005 f8a2 	bl	27c5a <__aeabi_memcpy>
   22b16:	7025      	strb	r5, [r4, #0]
   22b18:	4805      	ldr	r0, [pc, #20]	@ (22b30 <_ZN18complex_no_dynamic3app17h76e632c862146a55E+0xb0>)
   22b1a:	4631      	mov	r1, r6
   22b1c:	462a      	mov	r2, r5
   22b1e:	462b      	mov	r3, r5
   22b20:	df03      	svc	3
   22b22:	2108      	movs	r1, #8
   22b24:	4802      	ldr	r0, [pc, #8]	@ (22b30 <_ZN18complex_no_dynamic3app17h76e632c862146a55E+0xb0>)
   22b26:	462a      	mov	r2, r5
   22b28:	462b      	mov	r3, r5
   22b2a:	df04      	svc	4
   22b2c:	b01f      	add	sp, #124	@ 0x7c
   22b2e:	bdf0      	pop	{r4, r5, r6, r7, pc}
   22b30:	00000c3e 	.word	0x00000c3e

00022b34 <_ZN18complex_no_dynamic3app17h782f1d8047f79dc9E>:
   22b34:	b5f0      	push	{r4, r5, r6, r7, lr}
   22b36:	af03      	add	r7, sp, #12
   22b38:	b09b      	sub	sp, #108	@ 0x6c
   22b3a:	4604      	mov	r4, r0
   22b3c:	466d      	mov	r5, sp
   22b3e:	261a      	movs	r6, #26
   22b40:	4628      	mov	r0, r5
   22b42:	4632      	mov	r2, r6
   22b44:	f005 f889 	bl	27c5a <__aeabi_memcpy>
   22b48:	a807      	add	r0, sp, #28
   22b4a:	2150      	movs	r1, #80	@ 0x50
   22b4c:	f004 fed8 	bl	27900 <__aeabi_memclr4>
   22b50:	4824      	ldr	r0, [pc, #144]	@ (22be4 <_ZN18complex_no_dynamic3app17h782f1d8047f79dc9E+0xb0>)
   22b52:	2107      	movs	r1, #7
   22b54:	462a      	mov	r2, r5
   22b56:	4633      	mov	r3, r6
   22b58:	df04      	svc	4
   22b5a:	2802      	cmp	r0, #2
   22b5c:	d00e      	beq.n	22b7c <_ZN18complex_no_dynamic3app17h782f1d8047f79dc9E+0x48>
   22b5e:	4821      	ldr	r0, [pc, #132]	@ (22be4 <_ZN18complex_no_dynamic3app17h782f1d8047f79dc9E+0xb0>)
   22b60:	2104      	movs	r1, #4
   22b62:	aa07      	add	r2, sp, #28
   22b64:	2350      	movs	r3, #80	@ 0x50
   22b66:	df03      	svc	3
   22b68:	2802      	cmp	r0, #2
   22b6a:	d007      	beq.n	22b7c <_ZN18complex_no_dynamic3app17h782f1d8047f79dc9E+0x48>
   22b6c:	481d      	ldr	r0, [pc, #116]	@ (22be4 <_ZN18complex_no_dynamic3app17h782f1d8047f79dc9E+0xb0>)
   22b6e:	2107      	movs	r1, #7
   22b70:	2204      	movs	r2, #4
   22b72:	2500      	movs	r5, #0
   22b74:	462b      	mov	r3, r5
   22b76:	df02      	svc	2
   22b78:	287f      	cmp	r0, #127	@ 0x7f
   22b7a:	d813      	bhi.n	22ba4 <_ZN18complex_no_dynamic3app17h782f1d8047f79dc9E+0x70>
   22b7c:	2501      	movs	r5, #1
   22b7e:	2d00      	cmp	r5, #0
   22b80:	d017      	beq.n	22bb2 <_ZN18complex_no_dynamic3app17h782f1d8047f79dc9E+0x7e>
   22b82:	2001      	movs	r0, #1
   22b84:	7020      	strb	r0, [r4, #0]
   22b86:	6061      	str	r1, [r4, #4]
   22b88:	4c16      	ldr	r4, [pc, #88]	@ (22be4 <_ZN18complex_no_dynamic3app17h782f1d8047f79dc9E+0xb0>)
   22b8a:	2104      	movs	r1, #4
   22b8c:	2500      	movs	r5, #0
   22b8e:	4620      	mov	r0, r4
   22b90:	462a      	mov	r2, r5
   22b92:	462b      	mov	r3, r5
   22b94:	df03      	svc	3
   22b96:	2107      	movs	r1, #7
   22b98:	4620      	mov	r0, r4
   22b9a:	462a      	mov	r2, r5
   22b9c:	462b      	mov	r3, r5
   22b9e:	df04      	svc	4
   22ba0:	b01b      	add	sp, #108	@ 0x6c
   22ba2:	bdf0      	pop	{r4, r5, r6, r7, pc}
   22ba4:	480f      	ldr	r0, [pc, #60]	@ (22be4 <_ZN18complex_no_dynamic3app17h782f1d8047f79dc9E+0xb0>)
   22ba6:	2104      	movs	r1, #4
   22ba8:	462a      	mov	r2, r5
   22baa:	462b      	mov	r3, r5
   22bac:	df03      	svc	3
   22bae:	2d00      	cmp	r5, #0
   22bb0:	d1e7      	bne.n	22b82 <_ZN18complex_no_dynamic3app17h782f1d8047f79dc9E+0x4e>
   22bb2:	480c      	ldr	r0, [pc, #48]	@ (22be4 <_ZN18complex_no_dynamic3app17h782f1d8047f79dc9E+0xb0>)
   22bb4:	2604      	movs	r6, #4
   22bb6:	2500      	movs	r5, #0
   22bb8:	4631      	mov	r1, r6
   22bba:	462a      	mov	r2, r5
   22bbc:	462b      	mov	r3, r5
   22bbe:	df03      	svc	3
   22bc0:	1c60      	adds	r0, r4, #1
   22bc2:	a907      	add	r1, sp, #28
   22bc4:	2250      	movs	r2, #80	@ 0x50
   22bc6:	f005 f848 	bl	27c5a <__aeabi_memcpy>
   22bca:	7025      	strb	r5, [r4, #0]
   22bcc:	4805      	ldr	r0, [pc, #20]	@ (22be4 <_ZN18complex_no_dynamic3app17h782f1d8047f79dc9E+0xb0>)
   22bce:	4631      	mov	r1, r6
   22bd0:	462a      	mov	r2, r5
   22bd2:	462b      	mov	r3, r5
   22bd4:	df03      	svc	3
   22bd6:	2107      	movs	r1, #7
   22bd8:	4802      	ldr	r0, [pc, #8]	@ (22be4 <_ZN18complex_no_dynamic3app17h782f1d8047f79dc9E+0xb0>)
   22bda:	462a      	mov	r2, r5
   22bdc:	462b      	mov	r3, r5
   22bde:	df04      	svc	4
   22be0:	b01b      	add	sp, #108	@ 0x6c
   22be2:	bdf0      	pop	{r4, r5, r6, r7, pc}
   22be4:	00000aee 	.word	0x00000aee

00022be8 <_ZN18complex_no_dynamic3app17h7b78a6fedd607246E>:
   22be8:	b5f0      	push	{r4, r5, r6, r7, lr}
   22bea:	af03      	add	r7, sp, #12
   22bec:	b09b      	sub	sp, #108	@ 0x6c
   22bee:	9002      	str	r0, [sp, #8]
   22bf0:	ae03      	add	r6, sp, #12
   22bf2:	241b      	movs	r4, #27
   22bf4:	4630      	mov	r0, r6
   22bf6:	4622      	mov	r2, r4
   22bf8:	f005 f82f 	bl	27c5a <__aeabi_memcpy>
   22bfc:	a80a      	add	r0, sp, #40	@ 0x28
   22bfe:	2141      	movs	r1, #65	@ 0x41
   22c00:	f004 fe7e 	bl	27900 <__aeabi_memclr4>
   22c04:	2005      	movs	r0, #5
   22c06:	0185      	lsls	r5, r0, #6
   22c08:	2108      	movs	r1, #8
   22c0a:	4628      	mov	r0, r5
   22c0c:	4632      	mov	r2, r6
   22c0e:	4623      	mov	r3, r4
   22c10:	df04      	svc	4
   22c12:	2802      	cmp	r0, #2
   22c14:	d00e      	beq.n	22c34 <_ZN18complex_no_dynamic3app17h7b78a6fedd607246E+0x4c>
   22c16:	2109      	movs	r1, #9
   22c18:	aa0a      	add	r2, sp, #40	@ 0x28
   22c1a:	2341      	movs	r3, #65	@ 0x41
   22c1c:	4628      	mov	r0, r5
   22c1e:	df03      	svc	3
   22c20:	2802      	cmp	r0, #2
   22c22:	d007      	beq.n	22c34 <_ZN18complex_no_dynamic3app17h7b78a6fedd607246E+0x4c>
   22c24:	2108      	movs	r1, #8
   22c26:	2209      	movs	r2, #9
   22c28:	2600      	movs	r6, #0
   22c2a:	4628      	mov	r0, r5
   22c2c:	4633      	mov	r3, r6
   22c2e:	df02      	svc	2
   22c30:	287f      	cmp	r0, #127	@ 0x7f
   22c32:	d813      	bhi.n	22c5c <_ZN18complex_no_dynamic3app17h7b78a6fedd607246E+0x74>
   22c34:	2601      	movs	r6, #1
   22c36:	2e00      	cmp	r6, #0
   22c38:	d017      	beq.n	22c6a <_ZN18complex_no_dynamic3app17h7b78a6fedd607246E+0x82>
   22c3a:	2001      	movs	r0, #1
   22c3c:	9a02      	ldr	r2, [sp, #8]
   22c3e:	7010      	strb	r0, [r2, #0]
   22c40:	6051      	str	r1, [r2, #4]
   22c42:	2109      	movs	r1, #9
   22c44:	2400      	movs	r4, #0
   22c46:	4628      	mov	r0, r5
   22c48:	4622      	mov	r2, r4
   22c4a:	4623      	mov	r3, r4
   22c4c:	df03      	svc	3
   22c4e:	2108      	movs	r1, #8
   22c50:	4628      	mov	r0, r5
   22c52:	4622      	mov	r2, r4
   22c54:	4623      	mov	r3, r4
   22c56:	df04      	svc	4
   22c58:	b01b      	add	sp, #108	@ 0x6c
   22c5a:	bdf0      	pop	{r4, r5, r6, r7, pc}
   22c5c:	2109      	movs	r1, #9
   22c5e:	4628      	mov	r0, r5
   22c60:	4632      	mov	r2, r6
   22c62:	4633      	mov	r3, r6
   22c64:	df03      	svc	3
   22c66:	2e00      	cmp	r6, #0
   22c68:	d1e7      	bne.n	22c3a <_ZN18complex_no_dynamic3app17h7b78a6fedd607246E+0x52>
   22c6a:	2109      	movs	r1, #9
   22c6c:	9101      	str	r1, [sp, #4]
   22c6e:	2600      	movs	r6, #0
   22c70:	4628      	mov	r0, r5
   22c72:	4632      	mov	r2, r6
   22c74:	4633      	mov	r3, r6
   22c76:	df03      	svc	3
   22c78:	9c02      	ldr	r4, [sp, #8]
   22c7a:	1c60      	adds	r0, r4, #1
   22c7c:	a90a      	add	r1, sp, #40	@ 0x28
   22c7e:	2241      	movs	r2, #65	@ 0x41
   22c80:	f004 ffeb 	bl	27c5a <__aeabi_memcpy>
   22c84:	7026      	strb	r6, [r4, #0]
   22c86:	4628      	mov	r0, r5
   22c88:	9901      	ldr	r1, [sp, #4]
   22c8a:	4632      	mov	r2, r6
   22c8c:	4633      	mov	r3, r6
   22c8e:	df03      	svc	3
   22c90:	2108      	movs	r1, #8
   22c92:	4628      	mov	r0, r5
   22c94:	4632      	mov	r2, r6
   22c96:	4633      	mov	r3, r6
   22c98:	df04      	svc	4
   22c9a:	b01b      	add	sp, #108	@ 0x6c
   22c9c:	bdf0      	pop	{r4, r5, r6, r7, pc}
   22c9e:	d4d4      	bmi.n	22c4a <_ZN18complex_no_dynamic3app17h7b78a6fedd607246E+0x62>

00022ca0 <_ZN18complex_no_dynamic3app17h7da99f23b934aee0E>:
   22ca0:	b5f0      	push	{r4, r5, r6, r7, lr}
   22ca2:	af03      	add	r7, sp, #12
   22ca4:	b095      	sub	sp, #84	@ 0x54
   22ca6:	4604      	mov	r4, r0
   22ca8:	ad01      	add	r5, sp, #4
   22caa:	2623      	movs	r6, #35	@ 0x23
   22cac:	4628      	mov	r0, r5
   22cae:	4632      	mov	r2, r6
   22cb0:	f004 ffd3 	bl	27c5a <__aeabi_memcpy>
   22cb4:	a80a      	add	r0, sp, #40	@ 0x28
   22cb6:	212b      	movs	r1, #43	@ 0x2b
   22cb8:	f004 fe22 	bl	27900 <__aeabi_memclr4>
   22cbc:	4824      	ldr	r0, [pc, #144]	@ (22d50 <_ZN18complex_no_dynamic3app17h7da99f23b934aee0E+0xb0>)
   22cbe:	2102      	movs	r1, #2
   22cc0:	462a      	mov	r2, r5
   22cc2:	4633      	mov	r3, r6
   22cc4:	df04      	svc	4
   22cc6:	2802      	cmp	r0, #2
   22cc8:	d00e      	beq.n	22ce8 <_ZN18complex_no_dynamic3app17h7da99f23b934aee0E+0x48>
   22cca:	4821      	ldr	r0, [pc, #132]	@ (22d50 <_ZN18complex_no_dynamic3app17h7da99f23b934aee0E+0xb0>)
   22ccc:	2100      	movs	r1, #0
   22cce:	aa0a      	add	r2, sp, #40	@ 0x28
   22cd0:	232b      	movs	r3, #43	@ 0x2b
   22cd2:	df03      	svc	3
   22cd4:	2802      	cmp	r0, #2
   22cd6:	d007      	beq.n	22ce8 <_ZN18complex_no_dynamic3app17h7da99f23b934aee0E+0x48>
   22cd8:	481d      	ldr	r0, [pc, #116]	@ (22d50 <_ZN18complex_no_dynamic3app17h7da99f23b934aee0E+0xb0>)
   22cda:	2102      	movs	r1, #2
   22cdc:	2500      	movs	r5, #0
   22cde:	462a      	mov	r2, r5
   22ce0:	462b      	mov	r3, r5
   22ce2:	df02      	svc	2
   22ce4:	287f      	cmp	r0, #127	@ 0x7f
   22ce6:	d813      	bhi.n	22d10 <_ZN18complex_no_dynamic3app17h7da99f23b934aee0E+0x70>
   22ce8:	2501      	movs	r5, #1
   22cea:	2d00      	cmp	r5, #0
   22cec:	d017      	beq.n	22d1e <_ZN18complex_no_dynamic3app17h7da99f23b934aee0E+0x7e>
   22cee:	2001      	movs	r0, #1
   22cf0:	7020      	strb	r0, [r4, #0]
   22cf2:	6061      	str	r1, [r4, #4]
   22cf4:	4c16      	ldr	r4, [pc, #88]	@ (22d50 <_ZN18complex_no_dynamic3app17h7da99f23b934aee0E+0xb0>)
   22cf6:	2500      	movs	r5, #0
   22cf8:	4620      	mov	r0, r4
   22cfa:	4629      	mov	r1, r5
   22cfc:	462a      	mov	r2, r5
   22cfe:	462b      	mov	r3, r5
   22d00:	df03      	svc	3
   22d02:	2102      	movs	r1, #2
   22d04:	4620      	mov	r0, r4
   22d06:	462a      	mov	r2, r5
   22d08:	462b      	mov	r3, r5
   22d0a:	df04      	svc	4
   22d0c:	b015      	add	sp, #84	@ 0x54
   22d0e:	bdf0      	pop	{r4, r5, r6, r7, pc}
   22d10:	480f      	ldr	r0, [pc, #60]	@ (22d50 <_ZN18complex_no_dynamic3app17h7da99f23b934aee0E+0xb0>)
   22d12:	4629      	mov	r1, r5
   22d14:	462a      	mov	r2, r5
   22d16:	462b      	mov	r3, r5
   22d18:	df03      	svc	3
   22d1a:	2d00      	cmp	r5, #0
   22d1c:	d1e7      	bne.n	22cee <_ZN18complex_no_dynamic3app17h7da99f23b934aee0E+0x4e>
   22d1e:	4e0c      	ldr	r6, [pc, #48]	@ (22d50 <_ZN18complex_no_dynamic3app17h7da99f23b934aee0E+0xb0>)
   22d20:	2500      	movs	r5, #0
   22d22:	4630      	mov	r0, r6
   22d24:	4629      	mov	r1, r5
   22d26:	462a      	mov	r2, r5
   22d28:	462b      	mov	r3, r5
   22d2a:	df03      	svc	3
   22d2c:	1c60      	adds	r0, r4, #1
   22d2e:	a90a      	add	r1, sp, #40	@ 0x28
   22d30:	222b      	movs	r2, #43	@ 0x2b
   22d32:	f004 ff92 	bl	27c5a <__aeabi_memcpy>
   22d36:	7025      	strb	r5, [r4, #0]
   22d38:	4630      	mov	r0, r6
   22d3a:	4629      	mov	r1, r5
   22d3c:	462a      	mov	r2, r5
   22d3e:	462b      	mov	r3, r5
   22d40:	df03      	svc	3
   22d42:	2102      	movs	r1, #2
   22d44:	4630      	mov	r0, r6
   22d46:	462a      	mov	r2, r5
   22d48:	462b      	mov	r3, r5
   22d4a:	df04      	svc	4
   22d4c:	b015      	add	sp, #84	@ 0x54
   22d4e:	bdf0      	pop	{r4, r5, r6, r7, pc}
   22d50:	00000d5d 	.word	0x00000d5d

00022d54 <_ZN18complex_no_dynamic3app17h7f4f5e68ddc76551E>:
   22d54:	b5f0      	push	{r4, r5, r6, r7, lr}
   22d56:	af03      	add	r7, sp, #12
   22d58:	b09d      	sub	sp, #116	@ 0x74
   22d5a:	9001      	str	r0, [sp, #4]
   22d5c:	ac02      	add	r4, sp, #8
   22d5e:	2650      	movs	r6, #80	@ 0x50
   22d60:	4620      	mov	r0, r4
   22d62:	4632      	mov	r2, r6
   22d64:	f004 ff79 	bl	27c5a <__aeabi_memcpy>
   22d68:	a816      	add	r0, sp, #88	@ 0x58
   22d6a:	2500      	movs	r5, #0
   22d6c:	7685      	strb	r5, [r0, #26]
   22d6e:	8305      	strh	r5, [r0, #24]
   22d70:	951b      	str	r5, [sp, #108]	@ 0x6c
   22d72:	951a      	str	r5, [sp, #104]	@ 0x68
   22d74:	9519      	str	r5, [sp, #100]	@ 0x64
   22d76:	9518      	str	r5, [sp, #96]	@ 0x60
   22d78:	9517      	str	r5, [sp, #92]	@ 0x5c
   22d7a:	9516      	str	r5, [sp, #88]	@ 0x58
   22d7c:	4826      	ldr	r0, [pc, #152]	@ (22e18 <_ZN18complex_no_dynamic3app17h7f4f5e68ddc76551E+0xc4>)
   22d7e:	2101      	movs	r1, #1
   22d80:	9100      	str	r1, [sp, #0]
   22d82:	4622      	mov	r2, r4
   22d84:	4633      	mov	r3, r6
   22d86:	df04      	svc	4
   22d88:	2802      	cmp	r0, #2
   22d8a:	d006      	beq.n	22d9a <_ZN18complex_no_dynamic3app17h7f4f5e68ddc76551E+0x46>
   22d8c:	4822      	ldr	r0, [pc, #136]	@ (22e18 <_ZN18complex_no_dynamic3app17h7f4f5e68ddc76551E+0xc4>)
   22d8e:	2102      	movs	r1, #2
   22d90:	aa16      	add	r2, sp, #88	@ 0x58
   22d92:	231b      	movs	r3, #27
   22d94:	df03      	svc	3
   22d96:	2802      	cmp	r0, #2
   22d98:	d12e      	bne.n	22df8 <_ZN18complex_no_dynamic3app17h7f4f5e68ddc76551E+0xa4>
   22d9a:	9e00      	ldr	r6, [sp, #0]
   22d9c:	2e00      	cmp	r6, #0
   22d9e:	d011      	beq.n	22dc4 <_ZN18complex_no_dynamic3app17h7f4f5e68ddc76551E+0x70>
   22da0:	2401      	movs	r4, #1
   22da2:	9801      	ldr	r0, [sp, #4]
   22da4:	7004      	strb	r4, [r0, #0]
   22da6:	6041      	str	r1, [r0, #4]
   22da8:	4d1b      	ldr	r5, [pc, #108]	@ (22e18 <_ZN18complex_no_dynamic3app17h7f4f5e68ddc76551E+0xc4>)
   22daa:	2102      	movs	r1, #2
   22dac:	2600      	movs	r6, #0
   22dae:	4628      	mov	r0, r5
   22db0:	4632      	mov	r2, r6
   22db2:	4633      	mov	r3, r6
   22db4:	df03      	svc	3
   22db6:	4628      	mov	r0, r5
   22db8:	4621      	mov	r1, r4
   22dba:	4632      	mov	r2, r6
   22dbc:	4633      	mov	r3, r6
   22dbe:	df04      	svc	4
   22dc0:	b01d      	add	sp, #116	@ 0x74
   22dc2:	bdf0      	pop	{r4, r5, r6, r7, pc}
   22dc4:	4814      	ldr	r0, [pc, #80]	@ (22e18 <_ZN18complex_no_dynamic3app17h7f4f5e68ddc76551E+0xc4>)
   22dc6:	2402      	movs	r4, #2
   22dc8:	4621      	mov	r1, r4
   22dca:	462a      	mov	r2, r5
   22dcc:	462b      	mov	r3, r5
   22dce:	df03      	svc	3
   22dd0:	9e01      	ldr	r6, [sp, #4]
   22dd2:	1c70      	adds	r0, r6, #1
   22dd4:	a916      	add	r1, sp, #88	@ 0x58
   22dd6:	221b      	movs	r2, #27
   22dd8:	f004 ff3f 	bl	27c5a <__aeabi_memcpy>
   22ddc:	7035      	strb	r5, [r6, #0]
   22dde:	4e0e      	ldr	r6, [pc, #56]	@ (22e18 <_ZN18complex_no_dynamic3app17h7f4f5e68ddc76551E+0xc4>)
   22de0:	4630      	mov	r0, r6
   22de2:	4621      	mov	r1, r4
   22de4:	462a      	mov	r2, r5
   22de6:	462b      	mov	r3, r5
   22de8:	df03      	svc	3
   22dea:	2101      	movs	r1, #1
   22dec:	4630      	mov	r0, r6
   22dee:	462a      	mov	r2, r5
   22df0:	462b      	mov	r3, r5
   22df2:	df04      	svc	4
   22df4:	b01d      	add	sp, #116	@ 0x74
   22df6:	bdf0      	pop	{r4, r5, r6, r7, pc}
   22df8:	4807      	ldr	r0, [pc, #28]	@ (22e18 <_ZN18complex_no_dynamic3app17h7f4f5e68ddc76551E+0xc4>)
   22dfa:	2601      	movs	r6, #1
   22dfc:	2202      	movs	r2, #2
   22dfe:	2400      	movs	r4, #0
   22e00:	4631      	mov	r1, r6
   22e02:	4623      	mov	r3, r4
   22e04:	df02      	svc	2
   22e06:	287f      	cmp	r0, #127	@ 0x7f
   22e08:	d9c8      	bls.n	22d9c <_ZN18complex_no_dynamic3app17h7f4f5e68ddc76551E+0x48>
   22e0a:	4803      	ldr	r0, [pc, #12]	@ (22e18 <_ZN18complex_no_dynamic3app17h7f4f5e68ddc76551E+0xc4>)
   22e0c:	2102      	movs	r1, #2
   22e0e:	4622      	mov	r2, r4
   22e10:	4623      	mov	r3, r4
   22e12:	df03      	svc	3
   22e14:	4626      	mov	r6, r4
   22e16:	e7c1      	b.n	22d9c <_ZN18complex_no_dynamic3app17h7f4f5e68ddc76551E+0x48>
   22e18:	000003d9 	.word	0x000003d9

00022e1c <_ZN18complex_no_dynamic3app17h84252d055dc3aa55E>:
   22e1c:	b5f0      	push	{r4, r5, r6, r7, lr}
   22e1e:	af03      	add	r7, sp, #12
   22e20:	b091      	sub	sp, #68	@ 0x44
   22e22:	9001      	str	r0, [sp, #4]
   22e24:	ae02      	add	r6, sp, #8
   22e26:	2427      	movs	r4, #39	@ 0x27
   22e28:	4630      	mov	r0, r6
   22e2a:	4622      	mov	r2, r4
   22e2c:	f004 ff15 	bl	27c5a <__aeabi_memcpy>
   22e30:	2500      	movs	r5, #0
   22e32:	9510      	str	r5, [sp, #64]	@ 0x40
   22e34:	950f      	str	r5, [sp, #60]	@ 0x3c
   22e36:	950e      	str	r5, [sp, #56]	@ 0x38
   22e38:	950d      	str	r5, [sp, #52]	@ 0x34
   22e3a:	950c      	str	r5, [sp, #48]	@ 0x30
   22e3c:	4825      	ldr	r0, [pc, #148]	@ (22ed4 <_ZN18complex_no_dynamic3app17h84252d055dc3aa55E+0xb8>)
   22e3e:	2106      	movs	r1, #6
   22e40:	4632      	mov	r2, r6
   22e42:	4623      	mov	r3, r4
   22e44:	df04      	svc	4
   22e46:	2802      	cmp	r0, #2
   22e48:	d00e      	beq.n	22e68 <_ZN18complex_no_dynamic3app17h84252d055dc3aa55E+0x4c>
   22e4a:	4822      	ldr	r0, [pc, #136]	@ (22ed4 <_ZN18complex_no_dynamic3app17h84252d055dc3aa55E+0xb8>)
   22e4c:	2105      	movs	r1, #5
   22e4e:	aa0c      	add	r2, sp, #48	@ 0x30
   22e50:	2314      	movs	r3, #20
   22e52:	df03      	svc	3
   22e54:	2802      	cmp	r0, #2
   22e56:	d007      	beq.n	22e68 <_ZN18complex_no_dynamic3app17h84252d055dc3aa55E+0x4c>
   22e58:	481e      	ldr	r0, [pc, #120]	@ (22ed4 <_ZN18complex_no_dynamic3app17h84252d055dc3aa55E+0xb8>)
   22e5a:	2106      	movs	r1, #6
   22e5c:	2205      	movs	r2, #5
   22e5e:	2600      	movs	r6, #0
   22e60:	4633      	mov	r3, r6
   22e62:	df02      	svc	2
   22e64:	287f      	cmp	r0, #127	@ 0x7f
   22e66:	d814      	bhi.n	22e92 <_ZN18complex_no_dynamic3app17h84252d055dc3aa55E+0x76>
   22e68:	2601      	movs	r6, #1
   22e6a:	2e00      	cmp	r6, #0
   22e6c:	d018      	beq.n	22ea0 <_ZN18complex_no_dynamic3app17h84252d055dc3aa55E+0x84>
   22e6e:	2001      	movs	r0, #1
   22e70:	9a01      	ldr	r2, [sp, #4]
   22e72:	7010      	strb	r0, [r2, #0]
   22e74:	6051      	str	r1, [r2, #4]
   22e76:	4c17      	ldr	r4, [pc, #92]	@ (22ed4 <_ZN18complex_no_dynamic3app17h84252d055dc3aa55E+0xb8>)
   22e78:	2105      	movs	r1, #5
   22e7a:	2500      	movs	r5, #0
   22e7c:	4620      	mov	r0, r4
   22e7e:	462a      	mov	r2, r5
   22e80:	462b      	mov	r3, r5
   22e82:	df03      	svc	3
   22e84:	2106      	movs	r1, #6
   22e86:	4620      	mov	r0, r4
   22e88:	462a      	mov	r2, r5
   22e8a:	462b      	mov	r3, r5
   22e8c:	df04      	svc	4
   22e8e:	b011      	add	sp, #68	@ 0x44
   22e90:	bdf0      	pop	{r4, r5, r6, r7, pc}
   22e92:	4810      	ldr	r0, [pc, #64]	@ (22ed4 <_ZN18complex_no_dynamic3app17h84252d055dc3aa55E+0xb8>)
   22e94:	2105      	movs	r1, #5
   22e96:	4632      	mov	r2, r6
   22e98:	4633      	mov	r3, r6
   22e9a:	df03      	svc	3
   22e9c:	2e00      	cmp	r6, #0
   22e9e:	d1e6      	bne.n	22e6e <_ZN18complex_no_dynamic3app17h84252d055dc3aa55E+0x52>
   22ea0:	480c      	ldr	r0, [pc, #48]	@ (22ed4 <_ZN18complex_no_dynamic3app17h84252d055dc3aa55E+0xb8>)
   22ea2:	2405      	movs	r4, #5
   22ea4:	4621      	mov	r1, r4
   22ea6:	462a      	mov	r2, r5
   22ea8:	462b      	mov	r3, r5
   22eaa:	df03      	svc	3
   22eac:	9e01      	ldr	r6, [sp, #4]
   22eae:	1c70      	adds	r0, r6, #1
   22eb0:	a90c      	add	r1, sp, #48	@ 0x30
   22eb2:	2214      	movs	r2, #20
   22eb4:	f004 fed1 	bl	27c5a <__aeabi_memcpy>
   22eb8:	7035      	strb	r5, [r6, #0]
   22eba:	4e06      	ldr	r6, [pc, #24]	@ (22ed4 <_ZN18complex_no_dynamic3app17h84252d055dc3aa55E+0xb8>)
   22ebc:	4630      	mov	r0, r6
   22ebe:	4621      	mov	r1, r4
   22ec0:	462a      	mov	r2, r5
   22ec2:	462b      	mov	r3, r5
   22ec4:	df03      	svc	3
   22ec6:	2106      	movs	r1, #6
   22ec8:	4630      	mov	r0, r6
   22eca:	462a      	mov	r2, r5
   22ecc:	462b      	mov	r3, r5
   22ece:	df04      	svc	4
   22ed0:	b011      	add	sp, #68	@ 0x44
   22ed2:	bdf0      	pop	{r4, r5, r6, r7, pc}
   22ed4:	000022c9 	.word	0x000022c9

00022ed8 <_ZN18complex_no_dynamic3app17h897d49c87fdc1bd3E>:
   22ed8:	b5f0      	push	{r4, r5, r6, r7, lr}
   22eda:	af03      	add	r7, sp, #12
   22edc:	b09d      	sub	sp, #116	@ 0x74
   22ede:	4604      	mov	r4, r0
   22ee0:	ad01      	add	r5, sp, #4
   22ee2:	263c      	movs	r6, #60	@ 0x3c
   22ee4:	4628      	mov	r0, r5
   22ee6:	4632      	mov	r2, r6
   22ee8:	f004 feb7 	bl	27c5a <__aeabi_memcpy>
   22eec:	a810      	add	r0, sp, #64	@ 0x40
   22eee:	2132      	movs	r1, #50	@ 0x32
   22ef0:	f004 fd06 	bl	27900 <__aeabi_memclr4>
   22ef4:	4824      	ldr	r0, [pc, #144]	@ (22f88 <_ZN18complex_no_dynamic3app17h897d49c87fdc1bd3E+0xb0>)
   22ef6:	2106      	movs	r1, #6
   22ef8:	462a      	mov	r2, r5
   22efa:	4633      	mov	r3, r6
   22efc:	df04      	svc	4
   22efe:	2802      	cmp	r0, #2
   22f00:	d00e      	beq.n	22f20 <_ZN18complex_no_dynamic3app17h897d49c87fdc1bd3E+0x48>
   22f02:	4821      	ldr	r0, [pc, #132]	@ (22f88 <_ZN18complex_no_dynamic3app17h897d49c87fdc1bd3E+0xb0>)
   22f04:	2108      	movs	r1, #8
   22f06:	aa10      	add	r2, sp, #64	@ 0x40
   22f08:	2332      	movs	r3, #50	@ 0x32
   22f0a:	df03      	svc	3
   22f0c:	2802      	cmp	r0, #2
   22f0e:	d007      	beq.n	22f20 <_ZN18complex_no_dynamic3app17h897d49c87fdc1bd3E+0x48>
   22f10:	481d      	ldr	r0, [pc, #116]	@ (22f88 <_ZN18complex_no_dynamic3app17h897d49c87fdc1bd3E+0xb0>)
   22f12:	2106      	movs	r1, #6
   22f14:	2208      	movs	r2, #8
   22f16:	2500      	movs	r5, #0
   22f18:	462b      	mov	r3, r5
   22f1a:	df02      	svc	2
   22f1c:	287f      	cmp	r0, #127	@ 0x7f
   22f1e:	d813      	bhi.n	22f48 <_ZN18complex_no_dynamic3app17h897d49c87fdc1bd3E+0x70>
   22f20:	2501      	movs	r5, #1
   22f22:	2d00      	cmp	r5, #0
   22f24:	d017      	beq.n	22f56 <_ZN18complex_no_dynamic3app17h897d49c87fdc1bd3E+0x7e>
   22f26:	2001      	movs	r0, #1
   22f28:	7020      	strb	r0, [r4, #0]
   22f2a:	6061      	str	r1, [r4, #4]
   22f2c:	4c16      	ldr	r4, [pc, #88]	@ (22f88 <_ZN18complex_no_dynamic3app17h897d49c87fdc1bd3E+0xb0>)
   22f2e:	2108      	movs	r1, #8
   22f30:	2500      	movs	r5, #0
   22f32:	4620      	mov	r0, r4
   22f34:	462a      	mov	r2, r5
   22f36:	462b      	mov	r3, r5
   22f38:	df03      	svc	3
   22f3a:	2106      	movs	r1, #6
   22f3c:	4620      	mov	r0, r4
   22f3e:	462a      	mov	r2, r5
   22f40:	462b      	mov	r3, r5
   22f42:	df04      	svc	4
   22f44:	b01d      	add	sp, #116	@ 0x74
   22f46:	bdf0      	pop	{r4, r5, r6, r7, pc}
   22f48:	480f      	ldr	r0, [pc, #60]	@ (22f88 <_ZN18complex_no_dynamic3app17h897d49c87fdc1bd3E+0xb0>)
   22f4a:	2108      	movs	r1, #8
   22f4c:	462a      	mov	r2, r5
   22f4e:	462b      	mov	r3, r5
   22f50:	df03      	svc	3
   22f52:	2d00      	cmp	r5, #0
   22f54:	d1e7      	bne.n	22f26 <_ZN18complex_no_dynamic3app17h897d49c87fdc1bd3E+0x4e>
   22f56:	480c      	ldr	r0, [pc, #48]	@ (22f88 <_ZN18complex_no_dynamic3app17h897d49c87fdc1bd3E+0xb0>)
   22f58:	2608      	movs	r6, #8
   22f5a:	2500      	movs	r5, #0
   22f5c:	4631      	mov	r1, r6
   22f5e:	462a      	mov	r2, r5
   22f60:	462b      	mov	r3, r5
   22f62:	df03      	svc	3
   22f64:	1c60      	adds	r0, r4, #1
   22f66:	a910      	add	r1, sp, #64	@ 0x40
   22f68:	2232      	movs	r2, #50	@ 0x32
   22f6a:	f004 fe76 	bl	27c5a <__aeabi_memcpy>
   22f6e:	7025      	strb	r5, [r4, #0]
   22f70:	4805      	ldr	r0, [pc, #20]	@ (22f88 <_ZN18complex_no_dynamic3app17h897d49c87fdc1bd3E+0xb0>)
   22f72:	4631      	mov	r1, r6
   22f74:	462a      	mov	r2, r5
   22f76:	462b      	mov	r3, r5
   22f78:	df03      	svc	3
   22f7a:	2106      	movs	r1, #6
   22f7c:	4802      	ldr	r0, [pc, #8]	@ (22f88 <_ZN18complex_no_dynamic3app17h897d49c87fdc1bd3E+0xb0>)
   22f7e:	462a      	mov	r2, r5
   22f80:	462b      	mov	r3, r5
   22f82:	df04      	svc	4
   22f84:	b01d      	add	sp, #116	@ 0x74
   22f86:	bdf0      	pop	{r4, r5, r6, r7, pc}
   22f88:	00001b1e 	.word	0x00001b1e

00022f8c <_ZN18complex_no_dynamic3app17h8aeb6db5c1a8613bE>:
   22f8c:	b5f0      	push	{r4, r5, r6, r7, lr}
   22f8e:	af03      	add	r7, sp, #12
   22f90:	b0a9      	sub	sp, #164	@ 0xa4
   22f92:	4604      	mov	r4, r0
   22f94:	ad01      	add	r5, sp, #4
   22f96:	265d      	movs	r6, #93	@ 0x5d
   22f98:	4628      	mov	r0, r5
   22f9a:	4632      	mov	r2, r6
   22f9c:	f004 fe5d 	bl	27c5a <__aeabi_memcpy>
   22fa0:	a819      	add	r0, sp, #100	@ 0x64
   22fa2:	2140      	movs	r1, #64	@ 0x40
   22fa4:	f004 fcac 	bl	27900 <__aeabi_memclr4>
   22fa8:	4824      	ldr	r0, [pc, #144]	@ (2303c <_ZN18complex_no_dynamic3app17h8aeb6db5c1a8613bE+0xb0>)
   22faa:	2108      	movs	r1, #8
   22fac:	462a      	mov	r2, r5
   22fae:	4633      	mov	r3, r6
   22fb0:	df04      	svc	4
   22fb2:	2802      	cmp	r0, #2
   22fb4:	d00e      	beq.n	22fd4 <_ZN18complex_no_dynamic3app17h8aeb6db5c1a8613bE+0x48>
   22fb6:	4821      	ldr	r0, [pc, #132]	@ (2303c <_ZN18complex_no_dynamic3app17h8aeb6db5c1a8613bE+0xb0>)
   22fb8:	2104      	movs	r1, #4
   22fba:	aa19      	add	r2, sp, #100	@ 0x64
   22fbc:	2340      	movs	r3, #64	@ 0x40
   22fbe:	df03      	svc	3
   22fc0:	2802      	cmp	r0, #2
   22fc2:	d007      	beq.n	22fd4 <_ZN18complex_no_dynamic3app17h8aeb6db5c1a8613bE+0x48>
   22fc4:	481d      	ldr	r0, [pc, #116]	@ (2303c <_ZN18complex_no_dynamic3app17h8aeb6db5c1a8613bE+0xb0>)
   22fc6:	2108      	movs	r1, #8
   22fc8:	2204      	movs	r2, #4
   22fca:	2500      	movs	r5, #0
   22fcc:	462b      	mov	r3, r5
   22fce:	df02      	svc	2
   22fd0:	287f      	cmp	r0, #127	@ 0x7f
   22fd2:	d813      	bhi.n	22ffc <_ZN18complex_no_dynamic3app17h8aeb6db5c1a8613bE+0x70>
   22fd4:	2501      	movs	r5, #1
   22fd6:	2d00      	cmp	r5, #0
   22fd8:	d017      	beq.n	2300a <_ZN18complex_no_dynamic3app17h8aeb6db5c1a8613bE+0x7e>
   22fda:	2001      	movs	r0, #1
   22fdc:	7020      	strb	r0, [r4, #0]
   22fde:	6061      	str	r1, [r4, #4]
   22fe0:	4c16      	ldr	r4, [pc, #88]	@ (2303c <_ZN18complex_no_dynamic3app17h8aeb6db5c1a8613bE+0xb0>)
   22fe2:	2104      	movs	r1, #4
   22fe4:	2500      	movs	r5, #0
   22fe6:	4620      	mov	r0, r4
   22fe8:	462a      	mov	r2, r5
   22fea:	462b      	mov	r3, r5
   22fec:	df03      	svc	3
   22fee:	2108      	movs	r1, #8
   22ff0:	4620      	mov	r0, r4
   22ff2:	462a      	mov	r2, r5
   22ff4:	462b      	mov	r3, r5
   22ff6:	df04      	svc	4
   22ff8:	b029      	add	sp, #164	@ 0xa4
   22ffa:	bdf0      	pop	{r4, r5, r6, r7, pc}
   22ffc:	480f      	ldr	r0, [pc, #60]	@ (2303c <_ZN18complex_no_dynamic3app17h8aeb6db5c1a8613bE+0xb0>)
   22ffe:	2104      	movs	r1, #4
   23000:	462a      	mov	r2, r5
   23002:	462b      	mov	r3, r5
   23004:	df03      	svc	3
   23006:	2d00      	cmp	r5, #0
   23008:	d1e7      	bne.n	22fda <_ZN18complex_no_dynamic3app17h8aeb6db5c1a8613bE+0x4e>
   2300a:	480c      	ldr	r0, [pc, #48]	@ (2303c <_ZN18complex_no_dynamic3app17h8aeb6db5c1a8613bE+0xb0>)
   2300c:	2604      	movs	r6, #4
   2300e:	2500      	movs	r5, #0
   23010:	4631      	mov	r1, r6
   23012:	462a      	mov	r2, r5
   23014:	462b      	mov	r3, r5
   23016:	df03      	svc	3
   23018:	1c60      	adds	r0, r4, #1
   2301a:	a919      	add	r1, sp, #100	@ 0x64
   2301c:	2240      	movs	r2, #64	@ 0x40
   2301e:	f004 fe1c 	bl	27c5a <__aeabi_memcpy>
   23022:	7025      	strb	r5, [r4, #0]
   23024:	4805      	ldr	r0, [pc, #20]	@ (2303c <_ZN18complex_no_dynamic3app17h8aeb6db5c1a8613bE+0xb0>)
   23026:	4631      	mov	r1, r6
   23028:	462a      	mov	r2, r5
   2302a:	462b      	mov	r3, r5
   2302c:	df03      	svc	3
   2302e:	2108      	movs	r1, #8
   23030:	4802      	ldr	r0, [pc, #8]	@ (2303c <_ZN18complex_no_dynamic3app17h8aeb6db5c1a8613bE+0xb0>)
   23032:	462a      	mov	r2, r5
   23034:	462b      	mov	r3, r5
   23036:	df04      	svc	4
   23038:	b029      	add	sp, #164	@ 0xa4
   2303a:	bdf0      	pop	{r4, r5, r6, r7, pc}
   2303c:	00001028 	.word	0x00001028

00023040 <_ZN18complex_no_dynamic3app17h9338162fad206801E>:
   23040:	b5f0      	push	{r4, r5, r6, r7, lr}
   23042:	af03      	add	r7, sp, #12
   23044:	b0a1      	sub	sp, #132	@ 0x84
   23046:	4604      	mov	r4, r0
   23048:	466d      	mov	r5, sp
   2304a:	262d      	movs	r6, #45	@ 0x2d
   2304c:	4628      	mov	r0, r5
   2304e:	4632      	mov	r2, r6
   23050:	f004 fe03 	bl	27c5a <__aeabi_memcpy>
   23054:	a80c      	add	r0, sp, #48	@ 0x30
   23056:	2153      	movs	r1, #83	@ 0x53
   23058:	f004 fc52 	bl	27900 <__aeabi_memclr4>
   2305c:	4824      	ldr	r0, [pc, #144]	@ (230f0 <_ZN18complex_no_dynamic3app17h9338162fad206801E+0xb0>)
   2305e:	2102      	movs	r1, #2
   23060:	462a      	mov	r2, r5
   23062:	4633      	mov	r3, r6
   23064:	df04      	svc	4
   23066:	2802      	cmp	r0, #2
   23068:	d00e      	beq.n	23088 <_ZN18complex_no_dynamic3app17h9338162fad206801E+0x48>
   2306a:	4821      	ldr	r0, [pc, #132]	@ (230f0 <_ZN18complex_no_dynamic3app17h9338162fad206801E+0xb0>)
   2306c:	2107      	movs	r1, #7
   2306e:	aa0c      	add	r2, sp, #48	@ 0x30
   23070:	2353      	movs	r3, #83	@ 0x53
   23072:	df03      	svc	3
   23074:	2802      	cmp	r0, #2
   23076:	d007      	beq.n	23088 <_ZN18complex_no_dynamic3app17h9338162fad206801E+0x48>
   23078:	481d      	ldr	r0, [pc, #116]	@ (230f0 <_ZN18complex_no_dynamic3app17h9338162fad206801E+0xb0>)
   2307a:	2102      	movs	r1, #2
   2307c:	2207      	movs	r2, #7
   2307e:	2500      	movs	r5, #0
   23080:	462b      	mov	r3, r5
   23082:	df02      	svc	2
   23084:	287f      	cmp	r0, #127	@ 0x7f
   23086:	d813      	bhi.n	230b0 <_ZN18complex_no_dynamic3app17h9338162fad206801E+0x70>
   23088:	2501      	movs	r5, #1
   2308a:	2d00      	cmp	r5, #0
   2308c:	d017      	beq.n	230be <_ZN18complex_no_dynamic3app17h9338162fad206801E+0x7e>
   2308e:	2001      	movs	r0, #1
   23090:	7020      	strb	r0, [r4, #0]
   23092:	6061      	str	r1, [r4, #4]
   23094:	4c16      	ldr	r4, [pc, #88]	@ (230f0 <_ZN18complex_no_dynamic3app17h9338162fad206801E+0xb0>)
   23096:	2107      	movs	r1, #7
   23098:	2500      	movs	r5, #0
   2309a:	4620      	mov	r0, r4
   2309c:	462a      	mov	r2, r5
   2309e:	462b      	mov	r3, r5
   230a0:	df03      	svc	3
   230a2:	2102      	movs	r1, #2
   230a4:	4620      	mov	r0, r4
   230a6:	462a      	mov	r2, r5
   230a8:	462b      	mov	r3, r5
   230aa:	df04      	svc	4
   230ac:	b021      	add	sp, #132	@ 0x84
   230ae:	bdf0      	pop	{r4, r5, r6, r7, pc}
   230b0:	480f      	ldr	r0, [pc, #60]	@ (230f0 <_ZN18complex_no_dynamic3app17h9338162fad206801E+0xb0>)
   230b2:	2107      	movs	r1, #7
   230b4:	462a      	mov	r2, r5
   230b6:	462b      	mov	r3, r5
   230b8:	df03      	svc	3
   230ba:	2d00      	cmp	r5, #0
   230bc:	d1e7      	bne.n	2308e <_ZN18complex_no_dynamic3app17h9338162fad206801E+0x4e>
   230be:	480c      	ldr	r0, [pc, #48]	@ (230f0 <_ZN18complex_no_dynamic3app17h9338162fad206801E+0xb0>)
   230c0:	2607      	movs	r6, #7
   230c2:	2500      	movs	r5, #0
   230c4:	4631      	mov	r1, r6
   230c6:	462a      	mov	r2, r5
   230c8:	462b      	mov	r3, r5
   230ca:	df03      	svc	3
   230cc:	1c60      	adds	r0, r4, #1
   230ce:	a90c      	add	r1, sp, #48	@ 0x30
   230d0:	2253      	movs	r2, #83	@ 0x53
   230d2:	f004 fdc2 	bl	27c5a <__aeabi_memcpy>
   230d6:	7025      	strb	r5, [r4, #0]
   230d8:	4805      	ldr	r0, [pc, #20]	@ (230f0 <_ZN18complex_no_dynamic3app17h9338162fad206801E+0xb0>)
   230da:	4631      	mov	r1, r6
   230dc:	462a      	mov	r2, r5
   230de:	462b      	mov	r3, r5
   230e0:	df03      	svc	3
   230e2:	2102      	movs	r1, #2
   230e4:	4802      	ldr	r0, [pc, #8]	@ (230f0 <_ZN18complex_no_dynamic3app17h9338162fad206801E+0xb0>)
   230e6:	462a      	mov	r2, r5
   230e8:	462b      	mov	r3, r5
   230ea:	df04      	svc	4
   230ec:	b021      	add	sp, #132	@ 0x84
   230ee:	bdf0      	pop	{r4, r5, r6, r7, pc}
   230f0:	00000ec3 	.word	0x00000ec3

000230f4 <_ZN18complex_no_dynamic3app17h956b5adcb85f777fE>:
   230f4:	b5f0      	push	{r4, r5, r6, r7, lr}
   230f6:	af03      	add	r7, sp, #12
   230f8:	b093      	sub	sp, #76	@ 0x4c
   230fa:	4606      	mov	r6, r0
   230fc:	7b08      	ldrb	r0, [r1, #12]
   230fe:	7b4a      	ldrb	r2, [r1, #13]
   23100:	0212      	lsls	r2, r2, #8
   23102:	1810      	adds	r0, r2, r0
   23104:	7b8a      	ldrb	r2, [r1, #14]
   23106:	0412      	lsls	r2, r2, #16
   23108:	7bcb      	ldrb	r3, [r1, #15]
   2310a:	061b      	lsls	r3, r3, #24
   2310c:	189a      	adds	r2, r3, r2
   2310e:	1810      	adds	r0, r2, r0
   23110:	9004      	str	r0, [sp, #16]
   23112:	7a08      	ldrb	r0, [r1, #8]
   23114:	7a4a      	ldrb	r2, [r1, #9]
   23116:	0212      	lsls	r2, r2, #8
   23118:	1810      	adds	r0, r2, r0
   2311a:	7a8a      	ldrb	r2, [r1, #10]
   2311c:	0412      	lsls	r2, r2, #16
   2311e:	7acb      	ldrb	r3, [r1, #11]
   23120:	061b      	lsls	r3, r3, #24
   23122:	189a      	adds	r2, r3, r2
   23124:	1810      	adds	r0, r2, r0
   23126:	9003      	str	r0, [sp, #12]
   23128:	7908      	ldrb	r0, [r1, #4]
   2312a:	794a      	ldrb	r2, [r1, #5]
   2312c:	0212      	lsls	r2, r2, #8
   2312e:	1810      	adds	r0, r2, r0
   23130:	798a      	ldrb	r2, [r1, #6]
   23132:	0412      	lsls	r2, r2, #16
   23134:	79cb      	ldrb	r3, [r1, #7]
   23136:	061b      	lsls	r3, r3, #24
   23138:	189a      	adds	r2, r3, r2
   2313a:	1810      	adds	r0, r2, r0
   2313c:	9002      	str	r0, [sp, #8]
   2313e:	7808      	ldrb	r0, [r1, #0]
   23140:	784a      	ldrb	r2, [r1, #1]
   23142:	0212      	lsls	r2, r2, #8
   23144:	1810      	adds	r0, r2, r0
   23146:	788a      	ldrb	r2, [r1, #2]
   23148:	0412      	lsls	r2, r2, #16
   2314a:	78c9      	ldrb	r1, [r1, #3]
   2314c:	0609      	lsls	r1, r1, #24
   2314e:	1889      	adds	r1, r1, r2
   23150:	1808      	adds	r0, r1, r0
   23152:	9001      	str	r0, [sp, #4]
   23154:	a805      	add	r0, sp, #20
   23156:	2136      	movs	r1, #54	@ 0x36
   23158:	f004 fbd2 	bl	27900 <__aeabi_memclr4>
   2315c:	4825      	ldr	r0, [pc, #148]	@ (231f4 <_ZN18complex_no_dynamic3app17h956b5adcb85f777fE+0x100>)
   2315e:	2501      	movs	r5, #1
   23160:	aa01      	add	r2, sp, #4
   23162:	2310      	movs	r3, #16
   23164:	4629      	mov	r1, r5
   23166:	df04      	svc	4
   23168:	2802      	cmp	r0, #2
   2316a:	d017      	beq.n	2319c <_ZN18complex_no_dynamic3app17h956b5adcb85f777fE+0xa8>
   2316c:	4821      	ldr	r0, [pc, #132]	@ (231f4 <_ZN18complex_no_dynamic3app17h956b5adcb85f777fE+0x100>)
   2316e:	2107      	movs	r1, #7
   23170:	aa05      	add	r2, sp, #20
   23172:	2336      	movs	r3, #54	@ 0x36
   23174:	df03      	svc	3
   23176:	2802      	cmp	r0, #2
   23178:	d010      	beq.n	2319c <_ZN18complex_no_dynamic3app17h956b5adcb85f777fE+0xa8>
   2317a:	4634      	mov	r4, r6
   2317c:	481d      	ldr	r0, [pc, #116]	@ (231f4 <_ZN18complex_no_dynamic3app17h956b5adcb85f777fE+0x100>)
   2317e:	2501      	movs	r5, #1
   23180:	2207      	movs	r2, #7
   23182:	2600      	movs	r6, #0
   23184:	4629      	mov	r1, r5
   23186:	4633      	mov	r3, r6
   23188:	df02      	svc	2
   2318a:	287f      	cmp	r0, #127	@ 0x7f
   2318c:	d905      	bls.n	2319a <_ZN18complex_no_dynamic3app17h956b5adcb85f777fE+0xa6>
   2318e:	4819      	ldr	r0, [pc, #100]	@ (231f4 <_ZN18complex_no_dynamic3app17h956b5adcb85f777fE+0x100>)
   23190:	2107      	movs	r1, #7
   23192:	4632      	mov	r2, r6
   23194:	4633      	mov	r3, r6
   23196:	df03      	svc	3
   23198:	4635      	mov	r5, r6
   2319a:	4626      	mov	r6, r4
   2319c:	2d00      	cmp	r5, #0
   2319e:	d010      	beq.n	231c2 <_ZN18complex_no_dynamic3app17h956b5adcb85f777fE+0xce>
   231a0:	2401      	movs	r4, #1
   231a2:	7034      	strb	r4, [r6, #0]
   231a4:	6071      	str	r1, [r6, #4]
   231a6:	4d13      	ldr	r5, [pc, #76]	@ (231f4 <_ZN18complex_no_dynamic3app17h956b5adcb85f777fE+0x100>)
   231a8:	2107      	movs	r1, #7
   231aa:	2600      	movs	r6, #0
   231ac:	4628      	mov	r0, r5
   231ae:	4632      	mov	r2, r6
   231b0:	4633      	mov	r3, r6
   231b2:	df03      	svc	3
   231b4:	4628      	mov	r0, r5
   231b6:	4621      	mov	r1, r4
   231b8:	4632      	mov	r2, r6
   231ba:	4633      	mov	r3, r6
   231bc:	df04      	svc	4
   231be:	b013      	add	sp, #76	@ 0x4c
   231c0:	bdf0      	pop	{r4, r5, r6, r7, pc}
   231c2:	480c      	ldr	r0, [pc, #48]	@ (231f4 <_ZN18complex_no_dynamic3app17h956b5adcb85f777fE+0x100>)
   231c4:	2407      	movs	r4, #7
   231c6:	2500      	movs	r5, #0
   231c8:	4621      	mov	r1, r4
   231ca:	462a      	mov	r2, r5
   231cc:	462b      	mov	r3, r5
   231ce:	df03      	svc	3
   231d0:	1c70      	adds	r0, r6, #1
   231d2:	a905      	add	r1, sp, #20
   231d4:	2236      	movs	r2, #54	@ 0x36
   231d6:	f004 fd40 	bl	27c5a <__aeabi_memcpy>
   231da:	7035      	strb	r5, [r6, #0]
   231dc:	4805      	ldr	r0, [pc, #20]	@ (231f4 <_ZN18complex_no_dynamic3app17h956b5adcb85f777fE+0x100>)
   231de:	4621      	mov	r1, r4
   231e0:	462a      	mov	r2, r5
   231e2:	462b      	mov	r3, r5
   231e4:	df03      	svc	3
   231e6:	2101      	movs	r1, #1
   231e8:	4802      	ldr	r0, [pc, #8]	@ (231f4 <_ZN18complex_no_dynamic3app17h956b5adcb85f777fE+0x100>)
   231ea:	462a      	mov	r2, r5
   231ec:	462b      	mov	r3, r5
   231ee:	df04      	svc	4
   231f0:	b013      	add	sp, #76	@ 0x4c
   231f2:	bdf0      	pop	{r4, r5, r6, r7, pc}
   231f4:	00001989 	.word	0x00001989

000231f8 <_ZN18complex_no_dynamic3app17h96d49f49ca07e50fE>:
   231f8:	b5f0      	push	{r4, r5, r6, r7, lr}
   231fa:	af03      	add	r7, sp, #12
   231fc:	b0ab      	sub	sp, #172	@ 0xac
   231fe:	9000      	str	r0, [sp, #0]
   23200:	ae01      	add	r6, sp, #4
   23202:	2459      	movs	r4, #89	@ 0x59
   23204:	4630      	mov	r0, r6
   23206:	4622      	mov	r2, r4
   23208:	f004 fd27 	bl	27c5a <__aeabi_memcpy>
   2320c:	a818      	add	r0, sp, #96	@ 0x60
   2320e:	214a      	movs	r1, #74	@ 0x4a
   23210:	f004 fb76 	bl	27900 <__aeabi_memclr4>
   23214:	4826      	ldr	r0, [pc, #152]	@ (232b0 <_ZN18complex_no_dynamic3app17h96d49f49ca07e50fE+0xb8>)
   23216:	2500      	movs	r5, #0
   23218:	4629      	mov	r1, r5
   2321a:	4632      	mov	r2, r6
   2321c:	4623      	mov	r3, r4
   2321e:	df04      	svc	4
   23220:	2802      	cmp	r0, #2
   23222:	d00e      	beq.n	23242 <_ZN18complex_no_dynamic3app17h96d49f49ca07e50fE+0x4a>
   23224:	4822      	ldr	r0, [pc, #136]	@ (232b0 <_ZN18complex_no_dynamic3app17h96d49f49ca07e50fE+0xb8>)
   23226:	2104      	movs	r1, #4
   23228:	aa18      	add	r2, sp, #96	@ 0x60
   2322a:	234a      	movs	r3, #74	@ 0x4a
   2322c:	df03      	svc	3
   2322e:	2802      	cmp	r0, #2
   23230:	d007      	beq.n	23242 <_ZN18complex_no_dynamic3app17h96d49f49ca07e50fE+0x4a>
   23232:	481f      	ldr	r0, [pc, #124]	@ (232b0 <_ZN18complex_no_dynamic3app17h96d49f49ca07e50fE+0xb8>)
   23234:	2204      	movs	r2, #4
   23236:	2600      	movs	r6, #0
   23238:	4631      	mov	r1, r6
   2323a:	4633      	mov	r3, r6
   2323c:	df02      	svc	2
   2323e:	287f      	cmp	r0, #127	@ 0x7f
   23240:	d814      	bhi.n	2326c <_ZN18complex_no_dynamic3app17h96d49f49ca07e50fE+0x74>
   23242:	2601      	movs	r6, #1
   23244:	2e00      	cmp	r6, #0
   23246:	d018      	beq.n	2327a <_ZN18complex_no_dynamic3app17h96d49f49ca07e50fE+0x82>
   23248:	2001      	movs	r0, #1
   2324a:	9a00      	ldr	r2, [sp, #0]
   2324c:	7010      	strb	r0, [r2, #0]
   2324e:	6051      	str	r1, [r2, #4]
   23250:	4c17      	ldr	r4, [pc, #92]	@ (232b0 <_ZN18complex_no_dynamic3app17h96d49f49ca07e50fE+0xb8>)
   23252:	2104      	movs	r1, #4
   23254:	2500      	movs	r5, #0
   23256:	4620      	mov	r0, r4
   23258:	462a      	mov	r2, r5
   2325a:	462b      	mov	r3, r5
   2325c:	df03      	svc	3
   2325e:	4620      	mov	r0, r4
   23260:	4629      	mov	r1, r5
   23262:	462a      	mov	r2, r5
   23264:	462b      	mov	r3, r5
   23266:	df04      	svc	4
   23268:	b02b      	add	sp, #172	@ 0xac
   2326a:	bdf0      	pop	{r4, r5, r6, r7, pc}
   2326c:	4810      	ldr	r0, [pc, #64]	@ (232b0 <_ZN18complex_no_dynamic3app17h96d49f49ca07e50fE+0xb8>)
   2326e:	2104      	movs	r1, #4
   23270:	4632      	mov	r2, r6
   23272:	4633      	mov	r3, r6
   23274:	df03      	svc	3
   23276:	2e00      	cmp	r6, #0
   23278:	d1e6      	bne.n	23248 <_ZN18complex_no_dynamic3app17h96d49f49ca07e50fE+0x50>
   2327a:	480d      	ldr	r0, [pc, #52]	@ (232b0 <_ZN18complex_no_dynamic3app17h96d49f49ca07e50fE+0xb8>)
   2327c:	2404      	movs	r4, #4
   2327e:	4621      	mov	r1, r4
   23280:	462a      	mov	r2, r5
   23282:	462b      	mov	r3, r5
   23284:	df03      	svc	3
   23286:	9e00      	ldr	r6, [sp, #0]
   23288:	1c70      	adds	r0, r6, #1
   2328a:	a918      	add	r1, sp, #96	@ 0x60
   2328c:	224a      	movs	r2, #74	@ 0x4a
   2328e:	f004 fce4 	bl	27c5a <__aeabi_memcpy>
   23292:	7035      	strb	r5, [r6, #0]
   23294:	4e06      	ldr	r6, [pc, #24]	@ (232b0 <_ZN18complex_no_dynamic3app17h96d49f49ca07e50fE+0xb8>)
   23296:	4630      	mov	r0, r6
   23298:	4621      	mov	r1, r4
   2329a:	462a      	mov	r2, r5
   2329c:	462b      	mov	r3, r5
   2329e:	df03      	svc	3
   232a0:	4630      	mov	r0, r6
   232a2:	4629      	mov	r1, r5
   232a4:	462a      	mov	r2, r5
   232a6:	462b      	mov	r3, r5
   232a8:	df04      	svc	4
   232aa:	b02b      	add	sp, #172	@ 0xac
   232ac:	bdf0      	pop	{r4, r5, r6, r7, pc}
   232ae:	46c0      	nop			@ (mov r8, r8)
   232b0:	00001484 	.word	0x00001484

000232b4 <_ZN18complex_no_dynamic3app17haa3887b2140c3017E>:
   232b4:	b5f0      	push	{r4, r5, r6, r7, lr}
   232b6:	af03      	add	r7, sp, #12
   232b8:	b0af      	sub	sp, #188	@ 0xbc
   232ba:	9001      	str	r0, [sp, #4]
   232bc:	ae02      	add	r6, sp, #8
   232be:	244f      	movs	r4, #79	@ 0x4f
   232c0:	4630      	mov	r0, r6
   232c2:	4622      	mov	r2, r4
   232c4:	f004 fcc9 	bl	27c5a <__aeabi_memcpy>
   232c8:	a816      	add	r0, sp, #88	@ 0x58
   232ca:	2161      	movs	r1, #97	@ 0x61
   232cc:	f004 fb18 	bl	27900 <__aeabi_memclr4>
   232d0:	20db      	movs	r0, #219	@ 0xdb
   232d2:	0045      	lsls	r5, r0, #1
   232d4:	2102      	movs	r1, #2
   232d6:	4628      	mov	r0, r5
   232d8:	4632      	mov	r2, r6
   232da:	4623      	mov	r3, r4
   232dc:	df04      	svc	4
   232de:	2802      	cmp	r0, #2
   232e0:	d00e      	beq.n	23300 <_ZN18complex_no_dynamic3app17haa3887b2140c3017E+0x4c>
   232e2:	2108      	movs	r1, #8
   232e4:	aa16      	add	r2, sp, #88	@ 0x58
   232e6:	2361      	movs	r3, #97	@ 0x61
   232e8:	4628      	mov	r0, r5
   232ea:	df03      	svc	3
   232ec:	2802      	cmp	r0, #2
   232ee:	d007      	beq.n	23300 <_ZN18complex_no_dynamic3app17haa3887b2140c3017E+0x4c>
   232f0:	2102      	movs	r1, #2
   232f2:	2208      	movs	r2, #8
   232f4:	2600      	movs	r6, #0
   232f6:	4628      	mov	r0, r5
   232f8:	4633      	mov	r3, r6
   232fa:	df02      	svc	2
   232fc:	287f      	cmp	r0, #127	@ 0x7f
   232fe:	d813      	bhi.n	23328 <_ZN18complex_no_dynamic3app17haa3887b2140c3017E+0x74>
   23300:	2601      	movs	r6, #1
   23302:	2e00      	cmp	r6, #0
   23304:	d017      	beq.n	23336 <_ZN18complex_no_dynamic3app17haa3887b2140c3017E+0x82>
   23306:	2001      	movs	r0, #1
   23308:	9a01      	ldr	r2, [sp, #4]
   2330a:	7010      	strb	r0, [r2, #0]
   2330c:	6051      	str	r1, [r2, #4]
   2330e:	2108      	movs	r1, #8
   23310:	2400      	movs	r4, #0
   23312:	4628      	mov	r0, r5
   23314:	4622      	mov	r2, r4
   23316:	4623      	mov	r3, r4
   23318:	df03      	svc	3
   2331a:	2102      	movs	r1, #2
   2331c:	4628      	mov	r0, r5
   2331e:	4622      	mov	r2, r4
   23320:	4623      	mov	r3, r4
   23322:	df04      	svc	4
   23324:	b02f      	add	sp, #188	@ 0xbc
   23326:	bdf0      	pop	{r4, r5, r6, r7, pc}
   23328:	2108      	movs	r1, #8
   2332a:	4628      	mov	r0, r5
   2332c:	4632      	mov	r2, r6
   2332e:	4633      	mov	r3, r6
   23330:	df03      	svc	3
   23332:	2e00      	cmp	r6, #0
   23334:	d1e7      	bne.n	23306 <_ZN18complex_no_dynamic3app17haa3887b2140c3017E+0x52>
   23336:	2108      	movs	r1, #8
   23338:	9100      	str	r1, [sp, #0]
   2333a:	2600      	movs	r6, #0
   2333c:	4628      	mov	r0, r5
   2333e:	4632      	mov	r2, r6
   23340:	4633      	mov	r3, r6
   23342:	df03      	svc	3
   23344:	9c01      	ldr	r4, [sp, #4]
   23346:	1c60      	adds	r0, r4, #1
   23348:	a916      	add	r1, sp, #88	@ 0x58
   2334a:	2261      	movs	r2, #97	@ 0x61
   2334c:	f004 fc85 	bl	27c5a <__aeabi_memcpy>
   23350:	7026      	strb	r6, [r4, #0]
   23352:	4628      	mov	r0, r5
   23354:	9900      	ldr	r1, [sp, #0]
   23356:	4632      	mov	r2, r6
   23358:	4633      	mov	r3, r6
   2335a:	df03      	svc	3
   2335c:	2102      	movs	r1, #2
   2335e:	4628      	mov	r0, r5
   23360:	4632      	mov	r2, r6
   23362:	4633      	mov	r3, r6
   23364:	df04      	svc	4
   23366:	b02f      	add	sp, #188	@ 0xbc
   23368:	bdf0      	pop	{r4, r5, r6, r7, pc}
   2336a:	d4d4      	bmi.n	23316 <_ZN18complex_no_dynamic3app17haa3887b2140c3017E+0x62>

0002336c <_ZN18complex_no_dynamic3app17hac2e9ab50544ede4E>:
   2336c:	b5f0      	push	{r4, r5, r6, r7, lr}
   2336e:	af03      	add	r7, sp, #12
   23370:	b0a3      	sub	sp, #140	@ 0x8c
   23372:	4604      	mov	r4, r0
   23374:	466d      	mov	r5, sp
   23376:	2655      	movs	r6, #85	@ 0x55
   23378:	4628      	mov	r0, r5
   2337a:	4632      	mov	r2, r6
   2337c:	f004 fc6d 	bl	27c5a <__aeabi_memcpy>
   23380:	a816      	add	r0, sp, #88	@ 0x58
   23382:	2132      	movs	r1, #50	@ 0x32
   23384:	f004 fabc 	bl	27900 <__aeabi_memclr4>
   23388:	4825      	ldr	r0, [pc, #148]	@ (23420 <_ZN18complex_no_dynamic3app17hac2e9ab50544ede4E+0xb4>)
   2338a:	2108      	movs	r1, #8
   2338c:	462a      	mov	r2, r5
   2338e:	4633      	mov	r3, r6
   23390:	df04      	svc	4
   23392:	2802      	cmp	r0, #2
   23394:	d00e      	beq.n	233b4 <_ZN18complex_no_dynamic3app17hac2e9ab50544ede4E+0x48>
   23396:	4822      	ldr	r0, [pc, #136]	@ (23420 <_ZN18complex_no_dynamic3app17hac2e9ab50544ede4E+0xb4>)
   23398:	2108      	movs	r1, #8
   2339a:	aa16      	add	r2, sp, #88	@ 0x58
   2339c:	2332      	movs	r3, #50	@ 0x32
   2339e:	df03      	svc	3
   233a0:	2802      	cmp	r0, #2
   233a2:	d007      	beq.n	233b4 <_ZN18complex_no_dynamic3app17hac2e9ab50544ede4E+0x48>
   233a4:	481e      	ldr	r0, [pc, #120]	@ (23420 <_ZN18complex_no_dynamic3app17hac2e9ab50544ede4E+0xb4>)
   233a6:	2108      	movs	r1, #8
   233a8:	2500      	movs	r5, #0
   233aa:	460a      	mov	r2, r1
   233ac:	462b      	mov	r3, r5
   233ae:	df02      	svc	2
   233b0:	287f      	cmp	r0, #127	@ 0x7f
   233b2:	d814      	bhi.n	233de <_ZN18complex_no_dynamic3app17hac2e9ab50544ede4E+0x72>
   233b4:	2501      	movs	r5, #1
   233b6:	2d00      	cmp	r5, #0
   233b8:	d018      	beq.n	233ec <_ZN18complex_no_dynamic3app17hac2e9ab50544ede4E+0x80>
   233ba:	2001      	movs	r0, #1
   233bc:	7020      	strb	r0, [r4, #0]
   233be:	6061      	str	r1, [r4, #4]
   233c0:	4c17      	ldr	r4, [pc, #92]	@ (23420 <_ZN18complex_no_dynamic3app17hac2e9ab50544ede4E+0xb4>)
   233c2:	2508      	movs	r5, #8
   233c4:	2600      	movs	r6, #0
   233c6:	4620      	mov	r0, r4
   233c8:	4629      	mov	r1, r5
   233ca:	4632      	mov	r2, r6
   233cc:	4633      	mov	r3, r6
   233ce:	df03      	svc	3
   233d0:	4620      	mov	r0, r4
   233d2:	4629      	mov	r1, r5
   233d4:	4632      	mov	r2, r6
   233d6:	4633      	mov	r3, r6
   233d8:	df04      	svc	4
   233da:	b023      	add	sp, #140	@ 0x8c
   233dc:	bdf0      	pop	{r4, r5, r6, r7, pc}
   233de:	4810      	ldr	r0, [pc, #64]	@ (23420 <_ZN18complex_no_dynamic3app17hac2e9ab50544ede4E+0xb4>)
   233e0:	2108      	movs	r1, #8
   233e2:	462a      	mov	r2, r5
   233e4:	462b      	mov	r3, r5
   233e6:	df03      	svc	3
   233e8:	2d00      	cmp	r5, #0
   233ea:	d1e6      	bne.n	233ba <_ZN18complex_no_dynamic3app17hac2e9ab50544ede4E+0x4e>
   233ec:	480c      	ldr	r0, [pc, #48]	@ (23420 <_ZN18complex_no_dynamic3app17hac2e9ab50544ede4E+0xb4>)
   233ee:	2608      	movs	r6, #8
   233f0:	2500      	movs	r5, #0
   233f2:	4631      	mov	r1, r6
   233f4:	462a      	mov	r2, r5
   233f6:	462b      	mov	r3, r5
   233f8:	df03      	svc	3
   233fa:	1c60      	adds	r0, r4, #1
   233fc:	a916      	add	r1, sp, #88	@ 0x58
   233fe:	2232      	movs	r2, #50	@ 0x32
   23400:	f004 fc2b 	bl	27c5a <__aeabi_memcpy>
   23404:	7025      	strb	r5, [r4, #0]
   23406:	4806      	ldr	r0, [pc, #24]	@ (23420 <_ZN18complex_no_dynamic3app17hac2e9ab50544ede4E+0xb4>)
   23408:	4631      	mov	r1, r6
   2340a:	462a      	mov	r2, r5
   2340c:	462b      	mov	r3, r5
   2340e:	df03      	svc	3
   23410:	4803      	ldr	r0, [pc, #12]	@ (23420 <_ZN18complex_no_dynamic3app17hac2e9ab50544ede4E+0xb4>)
   23412:	4631      	mov	r1, r6
   23414:	462a      	mov	r2, r5
   23416:	462b      	mov	r3, r5
   23418:	df04      	svc	4
   2341a:	b023      	add	sp, #140	@ 0x8c
   2341c:	bdf0      	pop	{r4, r5, r6, r7, pc}
   2341e:	46c0      	nop			@ (mov r8, r8)
   23420:	00002095 	.word	0x00002095

00023424 <_ZN18complex_no_dynamic3app17had5912b2c716bdd7E>:
   23424:	b5f0      	push	{r4, r5, r6, r7, lr}
   23426:	af03      	add	r7, sp, #12
   23428:	b09f      	sub	sp, #124	@ 0x7c
   2342a:	4604      	mov	r4, r0
   2342c:	ad01      	add	r5, sp, #4
   2342e:	2622      	movs	r6, #34	@ 0x22
   23430:	4628      	mov	r0, r5
   23432:	4632      	mov	r2, r6
   23434:	f004 fc11 	bl	27c5a <__aeabi_memcpy>
   23438:	a80a      	add	r0, sp, #40	@ 0x28
   2343a:	2151      	movs	r1, #81	@ 0x51
   2343c:	f004 fa60 	bl	27900 <__aeabi_memclr4>
   23440:	4825      	ldr	r0, [pc, #148]	@ (234d8 <_ZN18complex_no_dynamic3app17had5912b2c716bdd7E+0xb4>)
   23442:	2109      	movs	r1, #9
   23444:	462a      	mov	r2, r5
   23446:	4633      	mov	r3, r6
   23448:	df04      	svc	4
   2344a:	2802      	cmp	r0, #2
   2344c:	d00e      	beq.n	2346c <_ZN18complex_no_dynamic3app17had5912b2c716bdd7E+0x48>
   2344e:	4822      	ldr	r0, [pc, #136]	@ (234d8 <_ZN18complex_no_dynamic3app17had5912b2c716bdd7E+0xb4>)
   23450:	2109      	movs	r1, #9
   23452:	aa0a      	add	r2, sp, #40	@ 0x28
   23454:	2351      	movs	r3, #81	@ 0x51
   23456:	df03      	svc	3
   23458:	2802      	cmp	r0, #2
   2345a:	d007      	beq.n	2346c <_ZN18complex_no_dynamic3app17had5912b2c716bdd7E+0x48>
   2345c:	481e      	ldr	r0, [pc, #120]	@ (234d8 <_ZN18complex_no_dynamic3app17had5912b2c716bdd7E+0xb4>)
   2345e:	2109      	movs	r1, #9
   23460:	2500      	movs	r5, #0
   23462:	460a      	mov	r2, r1
   23464:	462b      	mov	r3, r5
   23466:	df02      	svc	2
   23468:	287f      	cmp	r0, #127	@ 0x7f
   2346a:	d814      	bhi.n	23496 <_ZN18complex_no_dynamic3app17had5912b2c716bdd7E+0x72>
   2346c:	2501      	movs	r5, #1
   2346e:	2d00      	cmp	r5, #0
   23470:	d018      	beq.n	234a4 <_ZN18complex_no_dynamic3app17had5912b2c716bdd7E+0x80>
   23472:	2001      	movs	r0, #1
   23474:	7020      	strb	r0, [r4, #0]
   23476:	6061      	str	r1, [r4, #4]
   23478:	4c17      	ldr	r4, [pc, #92]	@ (234d8 <_ZN18complex_no_dynamic3app17had5912b2c716bdd7E+0xb4>)
   2347a:	2509      	movs	r5, #9
   2347c:	2600      	movs	r6, #0
   2347e:	4620      	mov	r0, r4
   23480:	4629      	mov	r1, r5
   23482:	4632      	mov	r2, r6
   23484:	4633      	mov	r3, r6
   23486:	df03      	svc	3
   23488:	4620      	mov	r0, r4
   2348a:	4629      	mov	r1, r5
   2348c:	4632      	mov	r2, r6
   2348e:	4633      	mov	r3, r6
   23490:	df04      	svc	4
   23492:	b01f      	add	sp, #124	@ 0x7c
   23494:	bdf0      	pop	{r4, r5, r6, r7, pc}
   23496:	4810      	ldr	r0, [pc, #64]	@ (234d8 <_ZN18complex_no_dynamic3app17had5912b2c716bdd7E+0xb4>)
   23498:	2109      	movs	r1, #9
   2349a:	462a      	mov	r2, r5
   2349c:	462b      	mov	r3, r5
   2349e:	df03      	svc	3
   234a0:	2d00      	cmp	r5, #0
   234a2:	d1e6      	bne.n	23472 <_ZN18complex_no_dynamic3app17had5912b2c716bdd7E+0x4e>
   234a4:	480c      	ldr	r0, [pc, #48]	@ (234d8 <_ZN18complex_no_dynamic3app17had5912b2c716bdd7E+0xb4>)
   234a6:	2609      	movs	r6, #9
   234a8:	2500      	movs	r5, #0
   234aa:	4631      	mov	r1, r6
   234ac:	462a      	mov	r2, r5
   234ae:	462b      	mov	r3, r5
   234b0:	df03      	svc	3
   234b2:	1c60      	adds	r0, r4, #1
   234b4:	a90a      	add	r1, sp, #40	@ 0x28
   234b6:	2251      	movs	r2, #81	@ 0x51
   234b8:	f004 fbcf 	bl	27c5a <__aeabi_memcpy>
   234bc:	7025      	strb	r5, [r4, #0]
   234be:	4806      	ldr	r0, [pc, #24]	@ (234d8 <_ZN18complex_no_dynamic3app17had5912b2c716bdd7E+0xb4>)
   234c0:	4631      	mov	r1, r6
   234c2:	462a      	mov	r2, r5
   234c4:	462b      	mov	r3, r5
   234c6:	df03      	svc	3
   234c8:	4803      	ldr	r0, [pc, #12]	@ (234d8 <_ZN18complex_no_dynamic3app17had5912b2c716bdd7E+0xb4>)
   234ca:	4631      	mov	r1, r6
   234cc:	462a      	mov	r2, r5
   234ce:	462b      	mov	r3, r5
   234d0:	df04      	svc	4
   234d2:	b01f      	add	sp, #124	@ 0x7c
   234d4:	bdf0      	pop	{r4, r5, r6, r7, pc}
   234d6:	46c0      	nop			@ (mov r8, r8)
   234d8:	0000055e 	.word	0x0000055e

000234dc <_ZN18complex_no_dynamic3app17hafe3b3a662b85fefE>:
   234dc:	b5f0      	push	{r4, r5, r6, r7, lr}
   234de:	af03      	add	r7, sp, #12
   234e0:	b09f      	sub	sp, #124	@ 0x7c
   234e2:	4604      	mov	r4, r0
   234e4:	ad01      	add	r5, sp, #4
   234e6:	2632      	movs	r6, #50	@ 0x32
   234e8:	4628      	mov	r0, r5
   234ea:	4632      	mov	r2, r6
   234ec:	f004 fbb5 	bl	27c5a <__aeabi_memcpy>
   234f0:	a80e      	add	r0, sp, #56	@ 0x38
   234f2:	2141      	movs	r1, #65	@ 0x41
   234f4:	f004 fa04 	bl	27900 <__aeabi_memclr4>
   234f8:	4824      	ldr	r0, [pc, #144]	@ (2358c <_ZN18complex_no_dynamic3app17hafe3b3a662b85fefE+0xb0>)
   234fa:	2107      	movs	r1, #7
   234fc:	462a      	mov	r2, r5
   234fe:	4633      	mov	r3, r6
   23500:	df04      	svc	4
   23502:	2802      	cmp	r0, #2
   23504:	d00e      	beq.n	23524 <_ZN18complex_no_dynamic3app17hafe3b3a662b85fefE+0x48>
   23506:	4821      	ldr	r0, [pc, #132]	@ (2358c <_ZN18complex_no_dynamic3app17hafe3b3a662b85fefE+0xb0>)
   23508:	2105      	movs	r1, #5
   2350a:	aa0e      	add	r2, sp, #56	@ 0x38
   2350c:	2341      	movs	r3, #65	@ 0x41
   2350e:	df03      	svc	3
   23510:	2802      	cmp	r0, #2
   23512:	d007      	beq.n	23524 <_ZN18complex_no_dynamic3app17hafe3b3a662b85fefE+0x48>
   23514:	481d      	ldr	r0, [pc, #116]	@ (2358c <_ZN18complex_no_dynamic3app17hafe3b3a662b85fefE+0xb0>)
   23516:	2107      	movs	r1, #7
   23518:	2205      	movs	r2, #5
   2351a:	2500      	movs	r5, #0
   2351c:	462b      	mov	r3, r5
   2351e:	df02      	svc	2
   23520:	287f      	cmp	r0, #127	@ 0x7f
   23522:	d813      	bhi.n	2354c <_ZN18complex_no_dynamic3app17hafe3b3a662b85fefE+0x70>
   23524:	2501      	movs	r5, #1
   23526:	2d00      	cmp	r5, #0
   23528:	d017      	beq.n	2355a <_ZN18complex_no_dynamic3app17hafe3b3a662b85fefE+0x7e>
   2352a:	2001      	movs	r0, #1
   2352c:	7020      	strb	r0, [r4, #0]
   2352e:	6061      	str	r1, [r4, #4]
   23530:	4c16      	ldr	r4, [pc, #88]	@ (2358c <_ZN18complex_no_dynamic3app17hafe3b3a662b85fefE+0xb0>)
   23532:	2105      	movs	r1, #5
   23534:	2500      	movs	r5, #0
   23536:	4620      	mov	r0, r4
   23538:	462a      	mov	r2, r5
   2353a:	462b      	mov	r3, r5
   2353c:	df03      	svc	3
   2353e:	2107      	movs	r1, #7
   23540:	4620      	mov	r0, r4
   23542:	462a      	mov	r2, r5
   23544:	462b      	mov	r3, r5
   23546:	df04      	svc	4
   23548:	b01f      	add	sp, #124	@ 0x7c
   2354a:	bdf0      	pop	{r4, r5, r6, r7, pc}
   2354c:	480f      	ldr	r0, [pc, #60]	@ (2358c <_ZN18complex_no_dynamic3app17hafe3b3a662b85fefE+0xb0>)
   2354e:	2105      	movs	r1, #5
   23550:	462a      	mov	r2, r5
   23552:	462b      	mov	r3, r5
   23554:	df03      	svc	3
   23556:	2d00      	cmp	r5, #0
   23558:	d1e7      	bne.n	2352a <_ZN18complex_no_dynamic3app17hafe3b3a662b85fefE+0x4e>
   2355a:	480c      	ldr	r0, [pc, #48]	@ (2358c <_ZN18complex_no_dynamic3app17hafe3b3a662b85fefE+0xb0>)
   2355c:	2605      	movs	r6, #5
   2355e:	2500      	movs	r5, #0
   23560:	4631      	mov	r1, r6
   23562:	462a      	mov	r2, r5
   23564:	462b      	mov	r3, r5
   23566:	df03      	svc	3
   23568:	1c60      	adds	r0, r4, #1
   2356a:	a90e      	add	r1, sp, #56	@ 0x38
   2356c:	2241      	movs	r2, #65	@ 0x41
   2356e:	f004 fb74 	bl	27c5a <__aeabi_memcpy>
   23572:	7025      	strb	r5, [r4, #0]
   23574:	4805      	ldr	r0, [pc, #20]	@ (2358c <_ZN18complex_no_dynamic3app17hafe3b3a662b85fefE+0xb0>)
   23576:	4631      	mov	r1, r6
   23578:	462a      	mov	r2, r5
   2357a:	462b      	mov	r3, r5
   2357c:	df03      	svc	3
   2357e:	2107      	movs	r1, #7
   23580:	4802      	ldr	r0, [pc, #8]	@ (2358c <_ZN18complex_no_dynamic3app17hafe3b3a662b85fefE+0xb0>)
   23582:	462a      	mov	r2, r5
   23584:	462b      	mov	r3, r5
   23586:	df04      	svc	4
   23588:	b01f      	add	sp, #124	@ 0x7c
   2358a:	bdf0      	pop	{r4, r5, r6, r7, pc}
   2358c:	0000091d 	.word	0x0000091d

00023590 <_ZN18complex_no_dynamic3app17hb2876c97db668a05E>:
   23590:	b5f0      	push	{r4, r5, r6, r7, lr}
   23592:	af03      	add	r7, sp, #12
   23594:	b0a3      	sub	sp, #140	@ 0x8c
   23596:	4604      	mov	r4, r0
   23598:	466d      	mov	r5, sp
   2359a:	264f      	movs	r6, #79	@ 0x4f
   2359c:	4628      	mov	r0, r5
   2359e:	4632      	mov	r2, r6
   235a0:	f004 fb5b 	bl	27c5a <__aeabi_memcpy>
   235a4:	a814      	add	r0, sp, #80	@ 0x50
   235a6:	213b      	movs	r1, #59	@ 0x3b
   235a8:	f004 f9aa 	bl	27900 <__aeabi_memclr4>
   235ac:	4824      	ldr	r0, [pc, #144]	@ (23640 <_ZN18complex_no_dynamic3app17hb2876c97db668a05E+0xb0>)
   235ae:	2108      	movs	r1, #8
   235b0:	462a      	mov	r2, r5
   235b2:	4633      	mov	r3, r6
   235b4:	df04      	svc	4
   235b6:	2802      	cmp	r0, #2
   235b8:	d00e      	beq.n	235d8 <_ZN18complex_no_dynamic3app17hb2876c97db668a05E+0x48>
   235ba:	4821      	ldr	r0, [pc, #132]	@ (23640 <_ZN18complex_no_dynamic3app17hb2876c97db668a05E+0xb0>)
   235bc:	2105      	movs	r1, #5
   235be:	aa14      	add	r2, sp, #80	@ 0x50
   235c0:	233b      	movs	r3, #59	@ 0x3b
   235c2:	df03      	svc	3
   235c4:	2802      	cmp	r0, #2
   235c6:	d007      	beq.n	235d8 <_ZN18complex_no_dynamic3app17hb2876c97db668a05E+0x48>
   235c8:	481d      	ldr	r0, [pc, #116]	@ (23640 <_ZN18complex_no_dynamic3app17hb2876c97db668a05E+0xb0>)
   235ca:	2108      	movs	r1, #8
   235cc:	2205      	movs	r2, #5
   235ce:	2500      	movs	r5, #0
   235d0:	462b      	mov	r3, r5
   235d2:	df02      	svc	2
   235d4:	287f      	cmp	r0, #127	@ 0x7f
   235d6:	d813      	bhi.n	23600 <_ZN18complex_no_dynamic3app17hb2876c97db668a05E+0x70>
   235d8:	2501      	movs	r5, #1
   235da:	2d00      	cmp	r5, #0
   235dc:	d017      	beq.n	2360e <_ZN18complex_no_dynamic3app17hb2876c97db668a05E+0x7e>
   235de:	2001      	movs	r0, #1
   235e0:	7020      	strb	r0, [r4, #0]
   235e2:	6061      	str	r1, [r4, #4]
   235e4:	4c16      	ldr	r4, [pc, #88]	@ (23640 <_ZN18complex_no_dynamic3app17hb2876c97db668a05E+0xb0>)
   235e6:	2105      	movs	r1, #5
   235e8:	2500      	movs	r5, #0
   235ea:	4620      	mov	r0, r4
   235ec:	462a      	mov	r2, r5
   235ee:	462b      	mov	r3, r5
   235f0:	df03      	svc	3
   235f2:	2108      	movs	r1, #8
   235f4:	4620      	mov	r0, r4
   235f6:	462a      	mov	r2, r5
   235f8:	462b      	mov	r3, r5
   235fa:	df04      	svc	4
   235fc:	b023      	add	sp, #140	@ 0x8c
   235fe:	bdf0      	pop	{r4, r5, r6, r7, pc}
   23600:	480f      	ldr	r0, [pc, #60]	@ (23640 <_ZN18complex_no_dynamic3app17hb2876c97db668a05E+0xb0>)
   23602:	2105      	movs	r1, #5
   23604:	462a      	mov	r2, r5
   23606:	462b      	mov	r3, r5
   23608:	df03      	svc	3
   2360a:	2d00      	cmp	r5, #0
   2360c:	d1e7      	bne.n	235de <_ZN18complex_no_dynamic3app17hb2876c97db668a05E+0x4e>
   2360e:	480c      	ldr	r0, [pc, #48]	@ (23640 <_ZN18complex_no_dynamic3app17hb2876c97db668a05E+0xb0>)
   23610:	2605      	movs	r6, #5
   23612:	2500      	movs	r5, #0
   23614:	4631      	mov	r1, r6
   23616:	462a      	mov	r2, r5
   23618:	462b      	mov	r3, r5
   2361a:	df03      	svc	3
   2361c:	1c60      	adds	r0, r4, #1
   2361e:	a914      	add	r1, sp, #80	@ 0x50
   23620:	223b      	movs	r2, #59	@ 0x3b
   23622:	f004 fb1a 	bl	27c5a <__aeabi_memcpy>
   23626:	7025      	strb	r5, [r4, #0]
   23628:	4805      	ldr	r0, [pc, #20]	@ (23640 <_ZN18complex_no_dynamic3app17hb2876c97db668a05E+0xb0>)
   2362a:	4631      	mov	r1, r6
   2362c:	462a      	mov	r2, r5
   2362e:	462b      	mov	r3, r5
   23630:	df03      	svc	3
   23632:	2108      	movs	r1, #8
   23634:	4802      	ldr	r0, [pc, #8]	@ (23640 <_ZN18complex_no_dynamic3app17hb2876c97db668a05E+0xb0>)
   23636:	462a      	mov	r2, r5
   23638:	462b      	mov	r3, r5
   2363a:	df04      	svc	4
   2363c:	b023      	add	sp, #140	@ 0x8c
   2363e:	bdf0      	pop	{r4, r5, r6, r7, pc}
   23640:	00000a06 	.word	0x00000a06

00023644 <_ZN18complex_no_dynamic3app17hb54eefe2d0c48376E>:
   23644:	b5f0      	push	{r4, r5, r6, r7, lr}
   23646:	af03      	add	r7, sp, #12
   23648:	b0a3      	sub	sp, #140	@ 0x8c
   2364a:	4604      	mov	r4, r0
   2364c:	466d      	mov	r5, sp
   2364e:	2650      	movs	r6, #80	@ 0x50
   23650:	4628      	mov	r0, r5
   23652:	4632      	mov	r2, r6
   23654:	f004 fb01 	bl	27c5a <__aeabi_memcpy>
   23658:	a814      	add	r0, sp, #80	@ 0x50
   2365a:	213c      	movs	r1, #60	@ 0x3c
   2365c:	f004 f950 	bl	27900 <__aeabi_memclr4>
   23660:	4824      	ldr	r0, [pc, #144]	@ (236f4 <_ZN18complex_no_dynamic3app17hb54eefe2d0c48376E+0xb0>)
   23662:	2103      	movs	r1, #3
   23664:	462a      	mov	r2, r5
   23666:	4633      	mov	r3, r6
   23668:	df04      	svc	4
   2366a:	2802      	cmp	r0, #2
   2366c:	d00e      	beq.n	2368c <_ZN18complex_no_dynamic3app17hb54eefe2d0c48376E+0x48>
   2366e:	4821      	ldr	r0, [pc, #132]	@ (236f4 <_ZN18complex_no_dynamic3app17hb54eefe2d0c48376E+0xb0>)
   23670:	2109      	movs	r1, #9
   23672:	aa14      	add	r2, sp, #80	@ 0x50
   23674:	233c      	movs	r3, #60	@ 0x3c
   23676:	df03      	svc	3
   23678:	2802      	cmp	r0, #2
   2367a:	d007      	beq.n	2368c <_ZN18complex_no_dynamic3app17hb54eefe2d0c48376E+0x48>
   2367c:	481d      	ldr	r0, [pc, #116]	@ (236f4 <_ZN18complex_no_dynamic3app17hb54eefe2d0c48376E+0xb0>)
   2367e:	2103      	movs	r1, #3
   23680:	2209      	movs	r2, #9
   23682:	2500      	movs	r5, #0
   23684:	462b      	mov	r3, r5
   23686:	df02      	svc	2
   23688:	287f      	cmp	r0, #127	@ 0x7f
   2368a:	d813      	bhi.n	236b4 <_ZN18complex_no_dynamic3app17hb54eefe2d0c48376E+0x70>
   2368c:	2501      	movs	r5, #1
   2368e:	2d00      	cmp	r5, #0
   23690:	d017      	beq.n	236c2 <_ZN18complex_no_dynamic3app17hb54eefe2d0c48376E+0x7e>
   23692:	2001      	movs	r0, #1
   23694:	7020      	strb	r0, [r4, #0]
   23696:	6061      	str	r1, [r4, #4]
   23698:	4c16      	ldr	r4, [pc, #88]	@ (236f4 <_ZN18complex_no_dynamic3app17hb54eefe2d0c48376E+0xb0>)
   2369a:	2109      	movs	r1, #9
   2369c:	2500      	movs	r5, #0
   2369e:	4620      	mov	r0, r4
   236a0:	462a      	mov	r2, r5
   236a2:	462b      	mov	r3, r5
   236a4:	df03      	svc	3
   236a6:	2103      	movs	r1, #3
   236a8:	4620      	mov	r0, r4
   236aa:	462a      	mov	r2, r5
   236ac:	462b      	mov	r3, r5
   236ae:	df04      	svc	4
   236b0:	b023      	add	sp, #140	@ 0x8c
   236b2:	bdf0      	pop	{r4, r5, r6, r7, pc}
   236b4:	480f      	ldr	r0, [pc, #60]	@ (236f4 <_ZN18complex_no_dynamic3app17hb54eefe2d0c48376E+0xb0>)
   236b6:	2109      	movs	r1, #9
   236b8:	462a      	mov	r2, r5
   236ba:	462b      	mov	r3, r5
   236bc:	df03      	svc	3
   236be:	2d00      	cmp	r5, #0
   236c0:	d1e7      	bne.n	23692 <_ZN18complex_no_dynamic3app17hb54eefe2d0c48376E+0x4e>
   236c2:	480c      	ldr	r0, [pc, #48]	@ (236f4 <_ZN18complex_no_dynamic3app17hb54eefe2d0c48376E+0xb0>)
   236c4:	2609      	movs	r6, #9
   236c6:	2500      	movs	r5, #0
   236c8:	4631      	mov	r1, r6
   236ca:	462a      	mov	r2, r5
   236cc:	462b      	mov	r3, r5
   236ce:	df03      	svc	3
   236d0:	1c60      	adds	r0, r4, #1
   236d2:	a914      	add	r1, sp, #80	@ 0x50
   236d4:	223c      	movs	r2, #60	@ 0x3c
   236d6:	f004 fac0 	bl	27c5a <__aeabi_memcpy>
   236da:	7025      	strb	r5, [r4, #0]
   236dc:	4805      	ldr	r0, [pc, #20]	@ (236f4 <_ZN18complex_no_dynamic3app17hb54eefe2d0c48376E+0xb0>)
   236de:	4631      	mov	r1, r6
   236e0:	462a      	mov	r2, r5
   236e2:	462b      	mov	r3, r5
   236e4:	df03      	svc	3
   236e6:	2103      	movs	r1, #3
   236e8:	4802      	ldr	r0, [pc, #8]	@ (236f4 <_ZN18complex_no_dynamic3app17hb54eefe2d0c48376E+0xb0>)
   236ea:	462a      	mov	r2, r5
   236ec:	462b      	mov	r3, r5
   236ee:	df04      	svc	4
   236f0:	b023      	add	sp, #140	@ 0x8c
   236f2:	bdf0      	pop	{r4, r5, r6, r7, pc}
   236f4:	00000d7a 	.word	0x00000d7a

000236f8 <_ZN18complex_no_dynamic3app17hc093f3fd546eea5fE>:
   236f8:	b5f0      	push	{r4, r5, r6, r7, lr}
   236fa:	af03      	add	r7, sp, #12
   236fc:	b0a5      	sub	sp, #148	@ 0x94
   236fe:	4604      	mov	r4, r0
   23700:	ad01      	add	r5, sp, #4
   23702:	262f      	movs	r6, #47	@ 0x2f
   23704:	4628      	mov	r0, r5
   23706:	4632      	mov	r2, r6
   23708:	f004 faa7 	bl	27c5a <__aeabi_memcpy>
   2370c:	a80d      	add	r0, sp, #52	@ 0x34
   2370e:	215e      	movs	r1, #94	@ 0x5e
   23710:	f004 f8f6 	bl	27900 <__aeabi_memclr4>
   23714:	4824      	ldr	r0, [pc, #144]	@ (237a8 <_ZN18complex_no_dynamic3app17hc093f3fd546eea5fE+0xb0>)
   23716:	2105      	movs	r1, #5
   23718:	462a      	mov	r2, r5
   2371a:	4633      	mov	r3, r6
   2371c:	df04      	svc	4
   2371e:	2802      	cmp	r0, #2
   23720:	d00e      	beq.n	23740 <_ZN18complex_no_dynamic3app17hc093f3fd546eea5fE+0x48>
   23722:	4821      	ldr	r0, [pc, #132]	@ (237a8 <_ZN18complex_no_dynamic3app17hc093f3fd546eea5fE+0xb0>)
   23724:	2102      	movs	r1, #2
   23726:	aa0d      	add	r2, sp, #52	@ 0x34
   23728:	235e      	movs	r3, #94	@ 0x5e
   2372a:	df03      	svc	3
   2372c:	2802      	cmp	r0, #2
   2372e:	d007      	beq.n	23740 <_ZN18complex_no_dynamic3app17hc093f3fd546eea5fE+0x48>
   23730:	481d      	ldr	r0, [pc, #116]	@ (237a8 <_ZN18complex_no_dynamic3app17hc093f3fd546eea5fE+0xb0>)
   23732:	2105      	movs	r1, #5
   23734:	2202      	movs	r2, #2
   23736:	2500      	movs	r5, #0
   23738:	462b      	mov	r3, r5
   2373a:	df02      	svc	2
   2373c:	287f      	cmp	r0, #127	@ 0x7f
   2373e:	d813      	bhi.n	23768 <_ZN18complex_no_dynamic3app17hc093f3fd546eea5fE+0x70>
   23740:	2501      	movs	r5, #1
   23742:	2d00      	cmp	r5, #0
   23744:	d017      	beq.n	23776 <_ZN18complex_no_dynamic3app17hc093f3fd546eea5fE+0x7e>
   23746:	2001      	movs	r0, #1
   23748:	7020      	strb	r0, [r4, #0]
   2374a:	6061      	str	r1, [r4, #4]
   2374c:	4c16      	ldr	r4, [pc, #88]	@ (237a8 <_ZN18complex_no_dynamic3app17hc093f3fd546eea5fE+0xb0>)
   2374e:	2102      	movs	r1, #2
   23750:	2500      	movs	r5, #0
   23752:	4620      	mov	r0, r4
   23754:	462a      	mov	r2, r5
   23756:	462b      	mov	r3, r5
   23758:	df03      	svc	3
   2375a:	2105      	movs	r1, #5
   2375c:	4620      	mov	r0, r4
   2375e:	462a      	mov	r2, r5
   23760:	462b      	mov	r3, r5
   23762:	df04      	svc	4
   23764:	b025      	add	sp, #148	@ 0x94
   23766:	bdf0      	pop	{r4, r5, r6, r7, pc}
   23768:	480f      	ldr	r0, [pc, #60]	@ (237a8 <_ZN18complex_no_dynamic3app17hc093f3fd546eea5fE+0xb0>)
   2376a:	2102      	movs	r1, #2
   2376c:	462a      	mov	r2, r5
   2376e:	462b      	mov	r3, r5
   23770:	df03      	svc	3
   23772:	2d00      	cmp	r5, #0
   23774:	d1e7      	bne.n	23746 <_ZN18complex_no_dynamic3app17hc093f3fd546eea5fE+0x4e>
   23776:	480c      	ldr	r0, [pc, #48]	@ (237a8 <_ZN18complex_no_dynamic3app17hc093f3fd546eea5fE+0xb0>)
   23778:	2602      	movs	r6, #2
   2377a:	2500      	movs	r5, #0
   2377c:	4631      	mov	r1, r6
   2377e:	462a      	mov	r2, r5
   23780:	462b      	mov	r3, r5
   23782:	df03      	svc	3
   23784:	1c60      	adds	r0, r4, #1
   23786:	a90d      	add	r1, sp, #52	@ 0x34
   23788:	225e      	movs	r2, #94	@ 0x5e
   2378a:	f004 fa66 	bl	27c5a <__aeabi_memcpy>
   2378e:	7025      	strb	r5, [r4, #0]
   23790:	4805      	ldr	r0, [pc, #20]	@ (237a8 <_ZN18complex_no_dynamic3app17hc093f3fd546eea5fE+0xb0>)
   23792:	4631      	mov	r1, r6
   23794:	462a      	mov	r2, r5
   23796:	462b      	mov	r3, r5
   23798:	df03      	svc	3
   2379a:	2105      	movs	r1, #5
   2379c:	4802      	ldr	r0, [pc, #8]	@ (237a8 <_ZN18complex_no_dynamic3app17hc093f3fd546eea5fE+0xb0>)
   2379e:	462a      	mov	r2, r5
   237a0:	462b      	mov	r3, r5
   237a2:	df04      	svc	4
   237a4:	b025      	add	sp, #148	@ 0x94
   237a6:	bdf0      	pop	{r4, r5, r6, r7, pc}
   237a8:	0000022b 	.word	0x0000022b

000237ac <_ZN18complex_no_dynamic3app17hc0e772e97398019eE>:
   237ac:	b5f0      	push	{r4, r5, r6, r7, lr}
   237ae:	af03      	add	r7, sp, #12
   237b0:	b0a9      	sub	sp, #164	@ 0xa4
   237b2:	4604      	mov	r4, r0
   237b4:	ad01      	add	r5, sp, #4
   237b6:	2646      	movs	r6, #70	@ 0x46
   237b8:	4628      	mov	r0, r5
   237ba:	4632      	mov	r2, r6
   237bc:	f004 fa4d 	bl	27c5a <__aeabi_memcpy>
   237c0:	a813      	add	r0, sp, #76	@ 0x4c
   237c2:	2156      	movs	r1, #86	@ 0x56
   237c4:	f004 f89c 	bl	27900 <__aeabi_memclr4>
   237c8:	4824      	ldr	r0, [pc, #144]	@ (2385c <_ZN18complex_no_dynamic3app17hc0e772e97398019eE+0xb0>)
   237ca:	2107      	movs	r1, #7
   237cc:	462a      	mov	r2, r5
   237ce:	4633      	mov	r3, r6
   237d0:	df04      	svc	4
   237d2:	2802      	cmp	r0, #2
   237d4:	d00e      	beq.n	237f4 <_ZN18complex_no_dynamic3app17hc0e772e97398019eE+0x48>
   237d6:	4821      	ldr	r0, [pc, #132]	@ (2385c <_ZN18complex_no_dynamic3app17hc0e772e97398019eE+0xb0>)
   237d8:	2103      	movs	r1, #3
   237da:	aa13      	add	r2, sp, #76	@ 0x4c
   237dc:	2356      	movs	r3, #86	@ 0x56
   237de:	df03      	svc	3
   237e0:	2802      	cmp	r0, #2
   237e2:	d007      	beq.n	237f4 <_ZN18complex_no_dynamic3app17hc0e772e97398019eE+0x48>
   237e4:	481d      	ldr	r0, [pc, #116]	@ (2385c <_ZN18complex_no_dynamic3app17hc0e772e97398019eE+0xb0>)
   237e6:	2107      	movs	r1, #7
   237e8:	2203      	movs	r2, #3
   237ea:	2500      	movs	r5, #0
   237ec:	462b      	mov	r3, r5
   237ee:	df02      	svc	2
   237f0:	287f      	cmp	r0, #127	@ 0x7f
   237f2:	d813      	bhi.n	2381c <_ZN18complex_no_dynamic3app17hc0e772e97398019eE+0x70>
   237f4:	2501      	movs	r5, #1
   237f6:	2d00      	cmp	r5, #0
   237f8:	d017      	beq.n	2382a <_ZN18complex_no_dynamic3app17hc0e772e97398019eE+0x7e>
   237fa:	2001      	movs	r0, #1
   237fc:	7020      	strb	r0, [r4, #0]
   237fe:	6061      	str	r1, [r4, #4]
   23800:	4c16      	ldr	r4, [pc, #88]	@ (2385c <_ZN18complex_no_dynamic3app17hc0e772e97398019eE+0xb0>)
   23802:	2103      	movs	r1, #3
   23804:	2500      	movs	r5, #0
   23806:	4620      	mov	r0, r4
   23808:	462a      	mov	r2, r5
   2380a:	462b      	mov	r3, r5
   2380c:	df03      	svc	3
   2380e:	2107      	movs	r1, #7
   23810:	4620      	mov	r0, r4
   23812:	462a      	mov	r2, r5
   23814:	462b      	mov	r3, r5
   23816:	df04      	svc	4
   23818:	b029      	add	sp, #164	@ 0xa4
   2381a:	bdf0      	pop	{r4, r5, r6, r7, pc}
   2381c:	480f      	ldr	r0, [pc, #60]	@ (2385c <_ZN18complex_no_dynamic3app17hc0e772e97398019eE+0xb0>)
   2381e:	2103      	movs	r1, #3
   23820:	462a      	mov	r2, r5
   23822:	462b      	mov	r3, r5
   23824:	df03      	svc	3
   23826:	2d00      	cmp	r5, #0
   23828:	d1e7      	bne.n	237fa <_ZN18complex_no_dynamic3app17hc0e772e97398019eE+0x4e>
   2382a:	480c      	ldr	r0, [pc, #48]	@ (2385c <_ZN18complex_no_dynamic3app17hc0e772e97398019eE+0xb0>)
   2382c:	2603      	movs	r6, #3
   2382e:	2500      	movs	r5, #0
   23830:	4631      	mov	r1, r6
   23832:	462a      	mov	r2, r5
   23834:	462b      	mov	r3, r5
   23836:	df03      	svc	3
   23838:	1c60      	adds	r0, r4, #1
   2383a:	a913      	add	r1, sp, #76	@ 0x4c
   2383c:	2256      	movs	r2, #86	@ 0x56
   2383e:	f004 fa0c 	bl	27c5a <__aeabi_memcpy>
   23842:	7025      	strb	r5, [r4, #0]
   23844:	4805      	ldr	r0, [pc, #20]	@ (2385c <_ZN18complex_no_dynamic3app17hc0e772e97398019eE+0xb0>)
   23846:	4631      	mov	r1, r6
   23848:	462a      	mov	r2, r5
   2384a:	462b      	mov	r3, r5
   2384c:	df03      	svc	3
   2384e:	2107      	movs	r1, #7
   23850:	4802      	ldr	r0, [pc, #8]	@ (2385c <_ZN18complex_no_dynamic3app17hc0e772e97398019eE+0xb0>)
   23852:	462a      	mov	r2, r5
   23854:	462b      	mov	r3, r5
   23856:	df04      	svc	4
   23858:	b029      	add	sp, #164	@ 0xa4
   2385a:	bdf0      	pop	{r4, r5, r6, r7, pc}
   2385c:	00001e50 	.word	0x00001e50

00023860 <_ZN18complex_no_dynamic3app17hc12f0faf7ea3de33E>:
   23860:	b5f0      	push	{r4, r5, r6, r7, lr}
   23862:	af03      	add	r7, sp, #12
   23864:	b097      	sub	sp, #92	@ 0x5c
   23866:	9001      	str	r0, [sp, #4]
   23868:	ae02      	add	r6, sp, #8
   2386a:	2411      	movs	r4, #17
   2386c:	4630      	mov	r0, r6
   2386e:	4622      	mov	r2, r4
   23870:	f004 f9f3 	bl	27c5a <__aeabi_memcpy>
   23874:	a807      	add	r0, sp, #28
   23876:	213f      	movs	r1, #63	@ 0x3f
   23878:	f004 f842 	bl	27900 <__aeabi_memclr4>
   2387c:	20cb      	movs	r0, #203	@ 0xcb
   2387e:	0105      	lsls	r5, r0, #4
   23880:	2107      	movs	r1, #7
   23882:	4628      	mov	r0, r5
   23884:	4632      	mov	r2, r6
   23886:	4623      	mov	r3, r4
   23888:	df04      	svc	4
   2388a:	2802      	cmp	r0, #2
   2388c:	d00e      	beq.n	238ac <_ZN18complex_no_dynamic3app17hc12f0faf7ea3de33E+0x4c>
   2388e:	2104      	movs	r1, #4
   23890:	aa07      	add	r2, sp, #28
   23892:	233f      	movs	r3, #63	@ 0x3f
   23894:	4628      	mov	r0, r5
   23896:	df03      	svc	3
   23898:	2802      	cmp	r0, #2
   2389a:	d007      	beq.n	238ac <_ZN18complex_no_dynamic3app17hc12f0faf7ea3de33E+0x4c>
   2389c:	2107      	movs	r1, #7
   2389e:	2204      	movs	r2, #4
   238a0:	2600      	movs	r6, #0
   238a2:	4628      	mov	r0, r5
   238a4:	4633      	mov	r3, r6
   238a6:	df02      	svc	2
   238a8:	287f      	cmp	r0, #127	@ 0x7f
   238aa:	d813      	bhi.n	238d4 <_ZN18complex_no_dynamic3app17hc12f0faf7ea3de33E+0x74>
   238ac:	2601      	movs	r6, #1
   238ae:	2e00      	cmp	r6, #0
   238b0:	d017      	beq.n	238e2 <_ZN18complex_no_dynamic3app17hc12f0faf7ea3de33E+0x82>
   238b2:	2001      	movs	r0, #1
   238b4:	9a01      	ldr	r2, [sp, #4]
   238b6:	7010      	strb	r0, [r2, #0]
   238b8:	6051      	str	r1, [r2, #4]
   238ba:	2104      	movs	r1, #4
   238bc:	2400      	movs	r4, #0
   238be:	4628      	mov	r0, r5
   238c0:	4622      	mov	r2, r4
   238c2:	4623      	mov	r3, r4
   238c4:	df03      	svc	3
   238c6:	2107      	movs	r1, #7
   238c8:	4628      	mov	r0, r5
   238ca:	4622      	mov	r2, r4
   238cc:	4623      	mov	r3, r4
   238ce:	df04      	svc	4
   238d0:	b017      	add	sp, #92	@ 0x5c
   238d2:	bdf0      	pop	{r4, r5, r6, r7, pc}
   238d4:	2104      	movs	r1, #4
   238d6:	4628      	mov	r0, r5
   238d8:	4632      	mov	r2, r6
   238da:	4633      	mov	r3, r6
   238dc:	df03      	svc	3
   238de:	2e00      	cmp	r6, #0
   238e0:	d1e7      	bne.n	238b2 <_ZN18complex_no_dynamic3app17hc12f0faf7ea3de33E+0x52>
   238e2:	2104      	movs	r1, #4
   238e4:	9100      	str	r1, [sp, #0]
   238e6:	2600      	movs	r6, #0
   238e8:	4628      	mov	r0, r5
   238ea:	4632      	mov	r2, r6
   238ec:	4633      	mov	r3, r6
   238ee:	df03      	svc	3
   238f0:	9c01      	ldr	r4, [sp, #4]
   238f2:	1c60      	adds	r0, r4, #1
   238f4:	a907      	add	r1, sp, #28
   238f6:	223f      	movs	r2, #63	@ 0x3f
   238f8:	f004 f9af 	bl	27c5a <__aeabi_memcpy>
   238fc:	7026      	strb	r6, [r4, #0]
   238fe:	4628      	mov	r0, r5
   23900:	9900      	ldr	r1, [sp, #0]
   23902:	4632      	mov	r2, r6
   23904:	4633      	mov	r3, r6
   23906:	df03      	svc	3
   23908:	2107      	movs	r1, #7
   2390a:	4628      	mov	r0, r5
   2390c:	4632      	mov	r2, r6
   2390e:	4633      	mov	r3, r6
   23910:	df04      	svc	4
   23912:	b017      	add	sp, #92	@ 0x5c
   23914:	bdf0      	pop	{r4, r5, r6, r7, pc}
   23916:	d4d4      	bmi.n	238c2 <_ZN18complex_no_dynamic3app17hc12f0faf7ea3de33E+0x62>

00023918 <_ZN18complex_no_dynamic3app17hc48a5e459bd8d2d8E>:
   23918:	b5f0      	push	{r4, r5, r6, r7, lr}
   2391a:	af03      	add	r7, sp, #12
   2391c:	b097      	sub	sp, #92	@ 0x5c
   2391e:	9001      	str	r0, [sp, #4]
   23920:	ae02      	add	r6, sp, #8
   23922:	2425      	movs	r4, #37	@ 0x25
   23924:	4630      	mov	r0, r6
   23926:	4622      	mov	r2, r4
   23928:	f004 f997 	bl	27c5a <__aeabi_memcpy>
   2392c:	a80c      	add	r0, sp, #48	@ 0x30
   2392e:	212a      	movs	r1, #42	@ 0x2a
   23930:	f003 ffe6 	bl	27900 <__aeabi_memclr4>
   23934:	4826      	ldr	r0, [pc, #152]	@ (239d0 <_ZN18complex_no_dynamic3app17hc48a5e459bd8d2d8E+0xb8>)
   23936:	2500      	movs	r5, #0
   23938:	4629      	mov	r1, r5
   2393a:	4632      	mov	r2, r6
   2393c:	4623      	mov	r3, r4
   2393e:	df04      	svc	4
   23940:	2802      	cmp	r0, #2
   23942:	d00e      	beq.n	23962 <_ZN18complex_no_dynamic3app17hc48a5e459bd8d2d8E+0x4a>
   23944:	4822      	ldr	r0, [pc, #136]	@ (239d0 <_ZN18complex_no_dynamic3app17hc48a5e459bd8d2d8E+0xb8>)
   23946:	2103      	movs	r1, #3
   23948:	aa0c      	add	r2, sp, #48	@ 0x30
   2394a:	232a      	movs	r3, #42	@ 0x2a
   2394c:	df03      	svc	3
   2394e:	2802      	cmp	r0, #2
   23950:	d007      	beq.n	23962 <_ZN18complex_no_dynamic3app17hc48a5e459bd8d2d8E+0x4a>
   23952:	481f      	ldr	r0, [pc, #124]	@ (239d0 <_ZN18complex_no_dynamic3app17hc48a5e459bd8d2d8E+0xb8>)
   23954:	2203      	movs	r2, #3
   23956:	2600      	movs	r6, #0
   23958:	4631      	mov	r1, r6
   2395a:	4633      	mov	r3, r6
   2395c:	df02      	svc	2
   2395e:	287f      	cmp	r0, #127	@ 0x7f
   23960:	d814      	bhi.n	2398c <_ZN18complex_no_dynamic3app17hc48a5e459bd8d2d8E+0x74>
   23962:	2601      	movs	r6, #1
   23964:	2e00      	cmp	r6, #0
   23966:	d018      	beq.n	2399a <_ZN18complex_no_dynamic3app17hc48a5e459bd8d2d8E+0x82>
   23968:	2001      	movs	r0, #1
   2396a:	9a01      	ldr	r2, [sp, #4]
   2396c:	7010      	strb	r0, [r2, #0]
   2396e:	6051      	str	r1, [r2, #4]
   23970:	4c17      	ldr	r4, [pc, #92]	@ (239d0 <_ZN18complex_no_dynamic3app17hc48a5e459bd8d2d8E+0xb8>)
   23972:	2103      	movs	r1, #3
   23974:	2500      	movs	r5, #0
   23976:	4620      	mov	r0, r4
   23978:	462a      	mov	r2, r5
   2397a:	462b      	mov	r3, r5
   2397c:	df03      	svc	3
   2397e:	4620      	mov	r0, r4
   23980:	4629      	mov	r1, r5
   23982:	462a      	mov	r2, r5
   23984:	462b      	mov	r3, r5
   23986:	df04      	svc	4
   23988:	b017      	add	sp, #92	@ 0x5c
   2398a:	bdf0      	pop	{r4, r5, r6, r7, pc}
   2398c:	4810      	ldr	r0, [pc, #64]	@ (239d0 <_ZN18complex_no_dynamic3app17hc48a5e459bd8d2d8E+0xb8>)
   2398e:	2103      	movs	r1, #3
   23990:	4632      	mov	r2, r6
   23992:	4633      	mov	r3, r6
   23994:	df03      	svc	3
   23996:	2e00      	cmp	r6, #0
   23998:	d1e6      	bne.n	23968 <_ZN18complex_no_dynamic3app17hc48a5e459bd8d2d8E+0x50>
   2399a:	480d      	ldr	r0, [pc, #52]	@ (239d0 <_ZN18complex_no_dynamic3app17hc48a5e459bd8d2d8E+0xb8>)
   2399c:	2403      	movs	r4, #3
   2399e:	4621      	mov	r1, r4
   239a0:	462a      	mov	r2, r5
   239a2:	462b      	mov	r3, r5
   239a4:	df03      	svc	3
   239a6:	9e01      	ldr	r6, [sp, #4]
   239a8:	1c70      	adds	r0, r6, #1
   239aa:	a90c      	add	r1, sp, #48	@ 0x30
   239ac:	222a      	movs	r2, #42	@ 0x2a
   239ae:	f004 f954 	bl	27c5a <__aeabi_memcpy>
   239b2:	7035      	strb	r5, [r6, #0]
   239b4:	4e06      	ldr	r6, [pc, #24]	@ (239d0 <_ZN18complex_no_dynamic3app17hc48a5e459bd8d2d8E+0xb8>)
   239b6:	4630      	mov	r0, r6
   239b8:	4621      	mov	r1, r4
   239ba:	462a      	mov	r2, r5
   239bc:	462b      	mov	r3, r5
   239be:	df03      	svc	3
   239c0:	4630      	mov	r0, r6
   239c2:	4629      	mov	r1, r5
   239c4:	462a      	mov	r2, r5
   239c6:	462b      	mov	r3, r5
   239c8:	df04      	svc	4
   239ca:	b017      	add	sp, #92	@ 0x5c
   239cc:	bdf0      	pop	{r4, r5, r6, r7, pc}
   239ce:	46c0      	nop			@ (mov r8, r8)
   239d0:	0000093c 	.word	0x0000093c

000239d4 <_ZN18complex_no_dynamic3app17hc9172d58ecce8892E>:
   239d4:	b5f0      	push	{r4, r5, r6, r7, lr}
   239d6:	af03      	add	r7, sp, #12
   239d8:	b095      	sub	sp, #84	@ 0x54
   239da:	9001      	str	r0, [sp, #4]
   239dc:	ae02      	add	r6, sp, #8
   239de:	242b      	movs	r4, #43	@ 0x2b
   239e0:	4630      	mov	r0, r6
   239e2:	4622      	mov	r2, r4
   239e4:	f004 f939 	bl	27c5a <__aeabi_memcpy>
   239e8:	a80d      	add	r0, sp, #52	@ 0x34
   239ea:	2500      	movs	r5, #0
   239ec:	8385      	strh	r5, [r0, #28]
   239ee:	9513      	str	r5, [sp, #76]	@ 0x4c
   239f0:	9512      	str	r5, [sp, #72]	@ 0x48
   239f2:	9511      	str	r5, [sp, #68]	@ 0x44
   239f4:	9510      	str	r5, [sp, #64]	@ 0x40
   239f6:	950f      	str	r5, [sp, #60]	@ 0x3c
   239f8:	950e      	str	r5, [sp, #56]	@ 0x38
   239fa:	950d      	str	r5, [sp, #52]	@ 0x34
   239fc:	4825      	ldr	r0, [pc, #148]	@ (23a94 <_ZN18complex_no_dynamic3app17hc9172d58ecce8892E+0xc0>)
   239fe:	2107      	movs	r1, #7
   23a00:	4632      	mov	r2, r6
   23a02:	4623      	mov	r3, r4
   23a04:	df04      	svc	4
   23a06:	2802      	cmp	r0, #2
   23a08:	d00e      	beq.n	23a28 <_ZN18complex_no_dynamic3app17hc9172d58ecce8892E+0x54>
   23a0a:	4822      	ldr	r0, [pc, #136]	@ (23a94 <_ZN18complex_no_dynamic3app17hc9172d58ecce8892E+0xc0>)
   23a0c:	2108      	movs	r1, #8
   23a0e:	aa0d      	add	r2, sp, #52	@ 0x34
   23a10:	231e      	movs	r3, #30
   23a12:	df03      	svc	3
   23a14:	2802      	cmp	r0, #2
   23a16:	d007      	beq.n	23a28 <_ZN18complex_no_dynamic3app17hc9172d58ecce8892E+0x54>
   23a18:	481e      	ldr	r0, [pc, #120]	@ (23a94 <_ZN18complex_no_dynamic3app17hc9172d58ecce8892E+0xc0>)
   23a1a:	2107      	movs	r1, #7
   23a1c:	2208      	movs	r2, #8
   23a1e:	2600      	movs	r6, #0
   23a20:	4633      	mov	r3, r6
   23a22:	df02      	svc	2
   23a24:	287f      	cmp	r0, #127	@ 0x7f
   23a26:	d814      	bhi.n	23a52 <_ZN18complex_no_dynamic3app17hc9172d58ecce8892E+0x7e>
   23a28:	2601      	movs	r6, #1
   23a2a:	2e00      	cmp	r6, #0
   23a2c:	d018      	beq.n	23a60 <_ZN18complex_no_dynamic3app17hc9172d58ecce8892E+0x8c>
   23a2e:	2001      	movs	r0, #1
   23a30:	9a01      	ldr	r2, [sp, #4]
   23a32:	7010      	strb	r0, [r2, #0]
   23a34:	6051      	str	r1, [r2, #4]
   23a36:	4c17      	ldr	r4, [pc, #92]	@ (23a94 <_ZN18complex_no_dynamic3app17hc9172d58ecce8892E+0xc0>)
   23a38:	2108      	movs	r1, #8
   23a3a:	2500      	movs	r5, #0
   23a3c:	4620      	mov	r0, r4
   23a3e:	462a      	mov	r2, r5
   23a40:	462b      	mov	r3, r5
   23a42:	df03      	svc	3
   23a44:	2107      	movs	r1, #7
   23a46:	4620      	mov	r0, r4
   23a48:	462a      	mov	r2, r5
   23a4a:	462b      	mov	r3, r5
   23a4c:	df04      	svc	4
   23a4e:	b015      	add	sp, #84	@ 0x54
   23a50:	bdf0      	pop	{r4, r5, r6, r7, pc}
   23a52:	4810      	ldr	r0, [pc, #64]	@ (23a94 <_ZN18complex_no_dynamic3app17hc9172d58ecce8892E+0xc0>)
   23a54:	2108      	movs	r1, #8
   23a56:	4632      	mov	r2, r6
   23a58:	4633      	mov	r3, r6
   23a5a:	df03      	svc	3
   23a5c:	2e00      	cmp	r6, #0
   23a5e:	d1e6      	bne.n	23a2e <_ZN18complex_no_dynamic3app17hc9172d58ecce8892E+0x5a>
   23a60:	480c      	ldr	r0, [pc, #48]	@ (23a94 <_ZN18complex_no_dynamic3app17hc9172d58ecce8892E+0xc0>)
   23a62:	2408      	movs	r4, #8
   23a64:	4621      	mov	r1, r4
   23a66:	462a      	mov	r2, r5
   23a68:	462b      	mov	r3, r5
   23a6a:	df03      	svc	3
   23a6c:	9e01      	ldr	r6, [sp, #4]
   23a6e:	1c70      	adds	r0, r6, #1
   23a70:	a90d      	add	r1, sp, #52	@ 0x34
   23a72:	221e      	movs	r2, #30
   23a74:	f004 f8f1 	bl	27c5a <__aeabi_memcpy>
   23a78:	7035      	strb	r5, [r6, #0]
   23a7a:	4e06      	ldr	r6, [pc, #24]	@ (23a94 <_ZN18complex_no_dynamic3app17hc9172d58ecce8892E+0xc0>)
   23a7c:	4630      	mov	r0, r6
   23a7e:	4621      	mov	r1, r4
   23a80:	462a      	mov	r2, r5
   23a82:	462b      	mov	r3, r5
   23a84:	df03      	svc	3
   23a86:	2107      	movs	r1, #7
   23a88:	4630      	mov	r0, r6
   23a8a:	462a      	mov	r2, r5
   23a8c:	462b      	mov	r3, r5
   23a8e:	df04      	svc	4
   23a90:	b015      	add	sp, #84	@ 0x54
   23a92:	bdf0      	pop	{r4, r5, r6, r7, pc}
   23a94:	000007e3 	.word	0x000007e3

00023a98 <_ZN18complex_no_dynamic3app17hcc21549840431a45E>:
   23a98:	b5f0      	push	{r4, r5, r6, r7, lr}
   23a9a:	af03      	add	r7, sp, #12
   23a9c:	b0a5      	sub	sp, #148	@ 0x94
   23a9e:	4604      	mov	r4, r0
   23aa0:	ad01      	add	r5, sp, #4
   23aa2:	2653      	movs	r6, #83	@ 0x53
   23aa4:	4628      	mov	r0, r5
   23aa6:	4632      	mov	r2, r6
   23aa8:	f004 f8d7 	bl	27c5a <__aeabi_memcpy>
   23aac:	a816      	add	r0, sp, #88	@ 0x58
   23aae:	213a      	movs	r1, #58	@ 0x3a
   23ab0:	f003 ff26 	bl	27900 <__aeabi_memclr4>
   23ab4:	4824      	ldr	r0, [pc, #144]	@ (23b48 <_ZN18complex_no_dynamic3app17hcc21549840431a45E+0xb0>)
   23ab6:	2106      	movs	r1, #6
   23ab8:	462a      	mov	r2, r5
   23aba:	4633      	mov	r3, r6
   23abc:	df04      	svc	4
   23abe:	2802      	cmp	r0, #2
   23ac0:	d00e      	beq.n	23ae0 <_ZN18complex_no_dynamic3app17hcc21549840431a45E+0x48>
   23ac2:	4821      	ldr	r0, [pc, #132]	@ (23b48 <_ZN18complex_no_dynamic3app17hcc21549840431a45E+0xb0>)
   23ac4:	2107      	movs	r1, #7
   23ac6:	aa16      	add	r2, sp, #88	@ 0x58
   23ac8:	233a      	movs	r3, #58	@ 0x3a
   23aca:	df03      	svc	3
   23acc:	2802      	cmp	r0, #2
   23ace:	d007      	beq.n	23ae0 <_ZN18complex_no_dynamic3app17hcc21549840431a45E+0x48>
   23ad0:	481d      	ldr	r0, [pc, #116]	@ (23b48 <_ZN18complex_no_dynamic3app17hcc21549840431a45E+0xb0>)
   23ad2:	2106      	movs	r1, #6
   23ad4:	2207      	movs	r2, #7
   23ad6:	2500      	movs	r5, #0
   23ad8:	462b      	mov	r3, r5
   23ada:	df02      	svc	2
   23adc:	287f      	cmp	r0, #127	@ 0x7f
   23ade:	d813      	bhi.n	23b08 <_ZN18complex_no_dynamic3app17hcc21549840431a45E+0x70>
   23ae0:	2501      	movs	r5, #1
   23ae2:	2d00      	cmp	r5, #0
   23ae4:	d017      	beq.n	23b16 <_ZN18complex_no_dynamic3app17hcc21549840431a45E+0x7e>
   23ae6:	2001      	movs	r0, #1
   23ae8:	7020      	strb	r0, [r4, #0]
   23aea:	6061      	str	r1, [r4, #4]
   23aec:	4c16      	ldr	r4, [pc, #88]	@ (23b48 <_ZN18complex_no_dynamic3app17hcc21549840431a45E+0xb0>)
   23aee:	2107      	movs	r1, #7
   23af0:	2500      	movs	r5, #0
   23af2:	4620      	mov	r0, r4
   23af4:	462a      	mov	r2, r5
   23af6:	462b      	mov	r3, r5
   23af8:	df03      	svc	3
   23afa:	2106      	movs	r1, #6
   23afc:	4620      	mov	r0, r4
   23afe:	462a      	mov	r2, r5
   23b00:	462b      	mov	r3, r5
   23b02:	df04      	svc	4
   23b04:	b025      	add	sp, #148	@ 0x94
   23b06:	bdf0      	pop	{r4, r5, r6, r7, pc}
   23b08:	480f      	ldr	r0, [pc, #60]	@ (23b48 <_ZN18complex_no_dynamic3app17hcc21549840431a45E+0xb0>)
   23b0a:	2107      	movs	r1, #7
   23b0c:	462a      	mov	r2, r5
   23b0e:	462b      	mov	r3, r5
   23b10:	df03      	svc	3
   23b12:	2d00      	cmp	r5, #0
   23b14:	d1e7      	bne.n	23ae6 <_ZN18complex_no_dynamic3app17hcc21549840431a45E+0x4e>
   23b16:	480c      	ldr	r0, [pc, #48]	@ (23b48 <_ZN18complex_no_dynamic3app17hcc21549840431a45E+0xb0>)
   23b18:	2607      	movs	r6, #7
   23b1a:	2500      	movs	r5, #0
   23b1c:	4631      	mov	r1, r6
   23b1e:	462a      	mov	r2, r5
   23b20:	462b      	mov	r3, r5
   23b22:	df03      	svc	3
   23b24:	1c60      	adds	r0, r4, #1
   23b26:	a916      	add	r1, sp, #88	@ 0x58
   23b28:	223a      	movs	r2, #58	@ 0x3a
   23b2a:	f004 f896 	bl	27c5a <__aeabi_memcpy>
   23b2e:	7025      	strb	r5, [r4, #0]
   23b30:	4805      	ldr	r0, [pc, #20]	@ (23b48 <_ZN18complex_no_dynamic3app17hcc21549840431a45E+0xb0>)
   23b32:	4631      	mov	r1, r6
   23b34:	462a      	mov	r2, r5
   23b36:	462b      	mov	r3, r5
   23b38:	df03      	svc	3
   23b3a:	2106      	movs	r1, #6
   23b3c:	4802      	ldr	r0, [pc, #8]	@ (23b48 <_ZN18complex_no_dynamic3app17hcc21549840431a45E+0xb0>)
   23b3e:	462a      	mov	r2, r5
   23b40:	462b      	mov	r3, r5
   23b42:	df04      	svc	4
   23b44:	b025      	add	sp, #148	@ 0x94
   23b46:	bdf0      	pop	{r4, r5, r6, r7, pc}
   23b48:	00002645 	.word	0x00002645

00023b4c <_ZN18complex_no_dynamic3app17hd106c67881dba202E>:
   23b4c:	b5f0      	push	{r4, r5, r6, r7, lr}
   23b4e:	af03      	add	r7, sp, #12
   23b50:	b08f      	sub	sp, #60	@ 0x3c
   23b52:	4604      	mov	r4, r0
   23b54:	ad01      	add	r5, sp, #4
   23b56:	260f      	movs	r6, #15
   23b58:	4628      	mov	r0, r5
   23b5a:	4632      	mov	r2, r6
   23b5c:	f004 f87d 	bl	27c5a <__aeabi_memcpy>
   23b60:	a805      	add	r0, sp, #20
   23b62:	2125      	movs	r1, #37	@ 0x25
   23b64:	f003 fecc 	bl	27900 <__aeabi_memclr4>
   23b68:	20a2      	movs	r0, #162	@ 0xa2
   23b6a:	2108      	movs	r1, #8
   23b6c:	462a      	mov	r2, r5
   23b6e:	4633      	mov	r3, r6
   23b70:	df04      	svc	4
   23b72:	2802      	cmp	r0, #2
   23b74:	d00e      	beq.n	23b94 <_ZN18complex_no_dynamic3app17hd106c67881dba202E+0x48>
   23b76:	20a2      	movs	r0, #162	@ 0xa2
   23b78:	2100      	movs	r1, #0
   23b7a:	aa05      	add	r2, sp, #20
   23b7c:	2325      	movs	r3, #37	@ 0x25
   23b7e:	df03      	svc	3
   23b80:	2802      	cmp	r0, #2
   23b82:	d007      	beq.n	23b94 <_ZN18complex_no_dynamic3app17hd106c67881dba202E+0x48>
   23b84:	20a2      	movs	r0, #162	@ 0xa2
   23b86:	2108      	movs	r1, #8
   23b88:	2500      	movs	r5, #0
   23b8a:	462a      	mov	r2, r5
   23b8c:	462b      	mov	r3, r5
   23b8e:	df02      	svc	2
   23b90:	287f      	cmp	r0, #127	@ 0x7f
   23b92:	d813      	bhi.n	23bbc <_ZN18complex_no_dynamic3app17hd106c67881dba202E+0x70>
   23b94:	2501      	movs	r5, #1
   23b96:	2d00      	cmp	r5, #0
   23b98:	d017      	beq.n	23bca <_ZN18complex_no_dynamic3app17hd106c67881dba202E+0x7e>
   23b9a:	2001      	movs	r0, #1
   23b9c:	7020      	strb	r0, [r4, #0]
   23b9e:	6061      	str	r1, [r4, #4]
   23ba0:	24a2      	movs	r4, #162	@ 0xa2
   23ba2:	2500      	movs	r5, #0
   23ba4:	4620      	mov	r0, r4
   23ba6:	4629      	mov	r1, r5
   23ba8:	462a      	mov	r2, r5
   23baa:	462b      	mov	r3, r5
   23bac:	df03      	svc	3
   23bae:	2108      	movs	r1, #8
   23bb0:	4620      	mov	r0, r4
   23bb2:	462a      	mov	r2, r5
   23bb4:	462b      	mov	r3, r5
   23bb6:	df04      	svc	4
   23bb8:	b00f      	add	sp, #60	@ 0x3c
   23bba:	bdf0      	pop	{r4, r5, r6, r7, pc}
   23bbc:	20a2      	movs	r0, #162	@ 0xa2
   23bbe:	4629      	mov	r1, r5
   23bc0:	462a      	mov	r2, r5
   23bc2:	462b      	mov	r3, r5
   23bc4:	df03      	svc	3
   23bc6:	2d00      	cmp	r5, #0
   23bc8:	d1e7      	bne.n	23b9a <_ZN18complex_no_dynamic3app17hd106c67881dba202E+0x4e>
   23bca:	26a2      	movs	r6, #162	@ 0xa2
   23bcc:	2500      	movs	r5, #0
   23bce:	4630      	mov	r0, r6
   23bd0:	4629      	mov	r1, r5
   23bd2:	462a      	mov	r2, r5
   23bd4:	462b      	mov	r3, r5
   23bd6:	df03      	svc	3
   23bd8:	1c60      	adds	r0, r4, #1
   23bda:	a905      	add	r1, sp, #20
   23bdc:	2225      	movs	r2, #37	@ 0x25
   23bde:	f004 f83c 	bl	27c5a <__aeabi_memcpy>
   23be2:	7025      	strb	r5, [r4, #0]
   23be4:	4630      	mov	r0, r6
   23be6:	4629      	mov	r1, r5
   23be8:	462a      	mov	r2, r5
   23bea:	462b      	mov	r3, r5
   23bec:	df03      	svc	3
   23bee:	2108      	movs	r1, #8
   23bf0:	4630      	mov	r0, r6
   23bf2:	462a      	mov	r2, r5
   23bf4:	462b      	mov	r3, r5
   23bf6:	df04      	svc	4
   23bf8:	b00f      	add	sp, #60	@ 0x3c
   23bfa:	bdf0      	pop	{r4, r5, r6, r7, pc}

00023bfc <_ZN18complex_no_dynamic3app17hd24d92945027e793E>:
   23bfc:	b5f0      	push	{r4, r5, r6, r7, lr}
   23bfe:	af03      	add	r7, sp, #12
   23c00:	b091      	sub	sp, #68	@ 0x44
   23c02:	4604      	mov	r4, r0
   23c04:	ad01      	add	r5, sp, #4
   23c06:	2614      	movs	r6, #20
   23c08:	4628      	mov	r0, r5
   23c0a:	4632      	mov	r2, r6
   23c0c:	f004 f825 	bl	27c5a <__aeabi_memcpy>
   23c10:	a806      	add	r0, sp, #24
   23c12:	212b      	movs	r1, #43	@ 0x2b
   23c14:	f003 fe74 	bl	27900 <__aeabi_memclr4>
   23c18:	4824      	ldr	r0, [pc, #144]	@ (23cac <_ZN18complex_no_dynamic3app17hd24d92945027e793E+0xb0>)
   23c1a:	2108      	movs	r1, #8
   23c1c:	462a      	mov	r2, r5
   23c1e:	4633      	mov	r3, r6
   23c20:	df04      	svc	4
   23c22:	2802      	cmp	r0, #2
   23c24:	d00e      	beq.n	23c44 <_ZN18complex_no_dynamic3app17hd24d92945027e793E+0x48>
   23c26:	4821      	ldr	r0, [pc, #132]	@ (23cac <_ZN18complex_no_dynamic3app17hd24d92945027e793E+0xb0>)
   23c28:	2104      	movs	r1, #4
   23c2a:	aa06      	add	r2, sp, #24
   23c2c:	232b      	movs	r3, #43	@ 0x2b
   23c2e:	df03      	svc	3
   23c30:	2802      	cmp	r0, #2
   23c32:	d007      	beq.n	23c44 <_ZN18complex_no_dynamic3app17hd24d92945027e793E+0x48>
   23c34:	481d      	ldr	r0, [pc, #116]	@ (23cac <_ZN18complex_no_dynamic3app17hd24d92945027e793E+0xb0>)
   23c36:	2108      	movs	r1, #8
   23c38:	2204      	movs	r2, #4
   23c3a:	2500      	movs	r5, #0
   23c3c:	462b      	mov	r3, r5
   23c3e:	df02      	svc	2
   23c40:	287f      	cmp	r0, #127	@ 0x7f
   23c42:	d813      	bhi.n	23c6c <_ZN18complex_no_dynamic3app17hd24d92945027e793E+0x70>
   23c44:	2501      	movs	r5, #1
   23c46:	2d00      	cmp	r5, #0
   23c48:	d017      	beq.n	23c7a <_ZN18complex_no_dynamic3app17hd24d92945027e793E+0x7e>
   23c4a:	2001      	movs	r0, #1
   23c4c:	7020      	strb	r0, [r4, #0]
   23c4e:	6061      	str	r1, [r4, #4]
   23c50:	4c16      	ldr	r4, [pc, #88]	@ (23cac <_ZN18complex_no_dynamic3app17hd24d92945027e793E+0xb0>)
   23c52:	2104      	movs	r1, #4
   23c54:	2500      	movs	r5, #0
   23c56:	4620      	mov	r0, r4
   23c58:	462a      	mov	r2, r5
   23c5a:	462b      	mov	r3, r5
   23c5c:	df03      	svc	3
   23c5e:	2108      	movs	r1, #8
   23c60:	4620      	mov	r0, r4
   23c62:	462a      	mov	r2, r5
   23c64:	462b      	mov	r3, r5
   23c66:	df04      	svc	4
   23c68:	b011      	add	sp, #68	@ 0x44
   23c6a:	bdf0      	pop	{r4, r5, r6, r7, pc}
   23c6c:	480f      	ldr	r0, [pc, #60]	@ (23cac <_ZN18complex_no_dynamic3app17hd24d92945027e793E+0xb0>)
   23c6e:	2104      	movs	r1, #4
   23c70:	462a      	mov	r2, r5
   23c72:	462b      	mov	r3, r5
   23c74:	df03      	svc	3
   23c76:	2d00      	cmp	r5, #0
   23c78:	d1e7      	bne.n	23c4a <_ZN18complex_no_dynamic3app17hd24d92945027e793E+0x4e>
   23c7a:	480c      	ldr	r0, [pc, #48]	@ (23cac <_ZN18complex_no_dynamic3app17hd24d92945027e793E+0xb0>)
   23c7c:	2604      	movs	r6, #4
   23c7e:	2500      	movs	r5, #0
   23c80:	4631      	mov	r1, r6
   23c82:	462a      	mov	r2, r5
   23c84:	462b      	mov	r3, r5
   23c86:	df03      	svc	3
   23c88:	1c60      	adds	r0, r4, #1
   23c8a:	a906      	add	r1, sp, #24
   23c8c:	222b      	movs	r2, #43	@ 0x2b
   23c8e:	f003 ffe4 	bl	27c5a <__aeabi_memcpy>
   23c92:	7025      	strb	r5, [r4, #0]
   23c94:	4805      	ldr	r0, [pc, #20]	@ (23cac <_ZN18complex_no_dynamic3app17hd24d92945027e793E+0xb0>)
   23c96:	4631      	mov	r1, r6
   23c98:	462a      	mov	r2, r5
   23c9a:	462b      	mov	r3, r5
   23c9c:	df03      	svc	3
   23c9e:	2108      	movs	r1, #8
   23ca0:	4802      	ldr	r0, [pc, #8]	@ (23cac <_ZN18complex_no_dynamic3app17hd24d92945027e793E+0xb0>)
   23ca2:	462a      	mov	r2, r5
   23ca4:	462b      	mov	r3, r5
   23ca6:	df04      	svc	4
   23ca8:	b011      	add	sp, #68	@ 0x44
   23caa:	bdf0      	pop	{r4, r5, r6, r7, pc}
   23cac:	0000239f 	.word	0x0000239f

00023cb0 <_ZN18complex_no_dynamic3app17hd25f3f28881fd14eE>:
   23cb0:	b5f0      	push	{r4, r5, r6, r7, lr}
   23cb2:	af03      	add	r7, sp, #12
   23cb4:	b095      	sub	sp, #84	@ 0x54
   23cb6:	4604      	mov	r4, r0
   23cb8:	466d      	mov	r5, sp
   23cba:	262a      	movs	r6, #42	@ 0x2a
   23cbc:	4628      	mov	r0, r5
   23cbe:	4632      	mov	r2, r6
   23cc0:	f003 ffcb 	bl	27c5a <__aeabi_memcpy>
   23cc4:	a80b      	add	r0, sp, #44	@ 0x2c
   23cc6:	2128      	movs	r1, #40	@ 0x28
   23cc8:	f003 fe1a 	bl	27900 <__aeabi_memclr4>
   23ccc:	4824      	ldr	r0, [pc, #144]	@ (23d60 <_ZN18complex_no_dynamic3app17hd25f3f28881fd14eE+0xb0>)
   23cce:	2104      	movs	r1, #4
   23cd0:	462a      	mov	r2, r5
   23cd2:	4633      	mov	r3, r6
   23cd4:	df04      	svc	4
   23cd6:	2802      	cmp	r0, #2
   23cd8:	d00e      	beq.n	23cf8 <_ZN18complex_no_dynamic3app17hd25f3f28881fd14eE+0x48>
   23cda:	4821      	ldr	r0, [pc, #132]	@ (23d60 <_ZN18complex_no_dynamic3app17hd25f3f28881fd14eE+0xb0>)
   23cdc:	2108      	movs	r1, #8
   23cde:	aa0b      	add	r2, sp, #44	@ 0x2c
   23ce0:	2328      	movs	r3, #40	@ 0x28
   23ce2:	df03      	svc	3
   23ce4:	2802      	cmp	r0, #2
   23ce6:	d007      	beq.n	23cf8 <_ZN18complex_no_dynamic3app17hd25f3f28881fd14eE+0x48>
   23ce8:	481d      	ldr	r0, [pc, #116]	@ (23d60 <_ZN18complex_no_dynamic3app17hd25f3f28881fd14eE+0xb0>)
   23cea:	2104      	movs	r1, #4
   23cec:	2208      	movs	r2, #8
   23cee:	2500      	movs	r5, #0
   23cf0:	462b      	mov	r3, r5
   23cf2:	df02      	svc	2
   23cf4:	287f      	cmp	r0, #127	@ 0x7f
   23cf6:	d813      	bhi.n	23d20 <_ZN18complex_no_dynamic3app17hd25f3f28881fd14eE+0x70>
   23cf8:	2501      	movs	r5, #1
   23cfa:	2d00      	cmp	r5, #0
   23cfc:	d017      	beq.n	23d2e <_ZN18complex_no_dynamic3app17hd25f3f28881fd14eE+0x7e>
   23cfe:	2001      	movs	r0, #1
   23d00:	7020      	strb	r0, [r4, #0]
   23d02:	6061      	str	r1, [r4, #4]
   23d04:	4c16      	ldr	r4, [pc, #88]	@ (23d60 <_ZN18complex_no_dynamic3app17hd25f3f28881fd14eE+0xb0>)
   23d06:	2108      	movs	r1, #8
   23d08:	2500      	movs	r5, #0
   23d0a:	4620      	mov	r0, r4
   23d0c:	462a      	mov	r2, r5
   23d0e:	462b      	mov	r3, r5
   23d10:	df03      	svc	3
   23d12:	2104      	movs	r1, #4
   23d14:	4620      	mov	r0, r4
   23d16:	462a      	mov	r2, r5
   23d18:	462b      	mov	r3, r5
   23d1a:	df04      	svc	4
   23d1c:	b015      	add	sp, #84	@ 0x54
   23d1e:	bdf0      	pop	{r4, r5, r6, r7, pc}
   23d20:	480f      	ldr	r0, [pc, #60]	@ (23d60 <_ZN18complex_no_dynamic3app17hd25f3f28881fd14eE+0xb0>)
   23d22:	2108      	movs	r1, #8
   23d24:	462a      	mov	r2, r5
   23d26:	462b      	mov	r3, r5
   23d28:	df03      	svc	3
   23d2a:	2d00      	cmp	r5, #0
   23d2c:	d1e7      	bne.n	23cfe <_ZN18complex_no_dynamic3app17hd25f3f28881fd14eE+0x4e>
   23d2e:	480c      	ldr	r0, [pc, #48]	@ (23d60 <_ZN18complex_no_dynamic3app17hd25f3f28881fd14eE+0xb0>)
   23d30:	2608      	movs	r6, #8
   23d32:	2500      	movs	r5, #0
   23d34:	4631      	mov	r1, r6
   23d36:	462a      	mov	r2, r5
   23d38:	462b      	mov	r3, r5
   23d3a:	df03      	svc	3
   23d3c:	1c60      	adds	r0, r4, #1
   23d3e:	a90b      	add	r1, sp, #44	@ 0x2c
   23d40:	2228      	movs	r2, #40	@ 0x28
   23d42:	f003 ff8a 	bl	27c5a <__aeabi_memcpy>
   23d46:	7025      	strb	r5, [r4, #0]
   23d48:	4805      	ldr	r0, [pc, #20]	@ (23d60 <_ZN18complex_no_dynamic3app17hd25f3f28881fd14eE+0xb0>)
   23d4a:	4631      	mov	r1, r6
   23d4c:	462a      	mov	r2, r5
   23d4e:	462b      	mov	r3, r5
   23d50:	df03      	svc	3
   23d52:	2104      	movs	r1, #4
   23d54:	4802      	ldr	r0, [pc, #8]	@ (23d60 <_ZN18complex_no_dynamic3app17hd25f3f28881fd14eE+0xb0>)
   23d56:	462a      	mov	r2, r5
   23d58:	462b      	mov	r3, r5
   23d5a:	df04      	svc	4
   23d5c:	b015      	add	sp, #84	@ 0x54
   23d5e:	bdf0      	pop	{r4, r5, r6, r7, pc}
   23d60:	00001efa 	.word	0x00001efa

00023d64 <_ZN18complex_no_dynamic3app17hd8e4fe86787df5d8E>:
   23d64:	b5f0      	push	{r4, r5, r6, r7, lr}
   23d66:	af03      	add	r7, sp, #12
   23d68:	b09d      	sub	sp, #116	@ 0x74
   23d6a:	4604      	mov	r4, r0
   23d6c:	466d      	mov	r5, sp
   23d6e:	2640      	movs	r6, #64	@ 0x40
   23d70:	4628      	mov	r0, r5
   23d72:	4632      	mov	r2, r6
   23d74:	f003 ff71 	bl	27c5a <__aeabi_memcpy>
   23d78:	a810      	add	r0, sp, #64	@ 0x40
   23d7a:	2131      	movs	r1, #49	@ 0x31
   23d7c:	f003 fdc0 	bl	27900 <__aeabi_memclr4>
   23d80:	4824      	ldr	r0, [pc, #144]	@ (23e14 <_ZN18complex_no_dynamic3app17hd8e4fe86787df5d8E+0xb0>)
   23d82:	2108      	movs	r1, #8
   23d84:	462a      	mov	r2, r5
   23d86:	4633      	mov	r3, r6
   23d88:	df04      	svc	4
   23d8a:	2802      	cmp	r0, #2
   23d8c:	d00e      	beq.n	23dac <_ZN18complex_no_dynamic3app17hd8e4fe86787df5d8E+0x48>
   23d8e:	4821      	ldr	r0, [pc, #132]	@ (23e14 <_ZN18complex_no_dynamic3app17hd8e4fe86787df5d8E+0xb0>)
   23d90:	2105      	movs	r1, #5
   23d92:	aa10      	add	r2, sp, #64	@ 0x40
   23d94:	2331      	movs	r3, #49	@ 0x31
   23d96:	df03      	svc	3
   23d98:	2802      	cmp	r0, #2
   23d9a:	d007      	beq.n	23dac <_ZN18complex_no_dynamic3app17hd8e4fe86787df5d8E+0x48>
   23d9c:	481d      	ldr	r0, [pc, #116]	@ (23e14 <_ZN18complex_no_dynamic3app17hd8e4fe86787df5d8E+0xb0>)
   23d9e:	2108      	movs	r1, #8
   23da0:	2205      	movs	r2, #5
   23da2:	2500      	movs	r5, #0
   23da4:	462b      	mov	r3, r5
   23da6:	df02      	svc	2
   23da8:	287f      	cmp	r0, #127	@ 0x7f
   23daa:	d813      	bhi.n	23dd4 <_ZN18complex_no_dynamic3app17hd8e4fe86787df5d8E+0x70>
   23dac:	2501      	movs	r5, #1
   23dae:	2d00      	cmp	r5, #0
   23db0:	d017      	beq.n	23de2 <_ZN18complex_no_dynamic3app17hd8e4fe86787df5d8E+0x7e>
   23db2:	2001      	movs	r0, #1
   23db4:	7020      	strb	r0, [r4, #0]
   23db6:	6061      	str	r1, [r4, #4]
   23db8:	4c16      	ldr	r4, [pc, #88]	@ (23e14 <_ZN18complex_no_dynamic3app17hd8e4fe86787df5d8E+0xb0>)
   23dba:	2105      	movs	r1, #5
   23dbc:	2500      	movs	r5, #0
   23dbe:	4620      	mov	r0, r4
   23dc0:	462a      	mov	r2, r5
   23dc2:	462b      	mov	r3, r5
   23dc4:	df03      	svc	3
   23dc6:	2108      	movs	r1, #8
   23dc8:	4620      	mov	r0, r4
   23dca:	462a      	mov	r2, r5
   23dcc:	462b      	mov	r3, r5
   23dce:	df04      	svc	4
   23dd0:	b01d      	add	sp, #116	@ 0x74
   23dd2:	bdf0      	pop	{r4, r5, r6, r7, pc}
   23dd4:	480f      	ldr	r0, [pc, #60]	@ (23e14 <_ZN18complex_no_dynamic3app17hd8e4fe86787df5d8E+0xb0>)
   23dd6:	2105      	movs	r1, #5
   23dd8:	462a      	mov	r2, r5
   23dda:	462b      	mov	r3, r5
   23ddc:	df03      	svc	3
   23dde:	2d00      	cmp	r5, #0
   23de0:	d1e7      	bne.n	23db2 <_ZN18complex_no_dynamic3app17hd8e4fe86787df5d8E+0x4e>
   23de2:	480c      	ldr	r0, [pc, #48]	@ (23e14 <_ZN18complex_no_dynamic3app17hd8e4fe86787df5d8E+0xb0>)
   23de4:	2605      	movs	r6, #5
   23de6:	2500      	movs	r5, #0
   23de8:	4631      	mov	r1, r6
   23dea:	462a      	mov	r2, r5
   23dec:	462b      	mov	r3, r5
   23dee:	df03      	svc	3
   23df0:	1c60      	adds	r0, r4, #1
   23df2:	a910      	add	r1, sp, #64	@ 0x40
   23df4:	2231      	movs	r2, #49	@ 0x31
   23df6:	f003 ff30 	bl	27c5a <__aeabi_memcpy>
   23dfa:	7025      	strb	r5, [r4, #0]
   23dfc:	4805      	ldr	r0, [pc, #20]	@ (23e14 <_ZN18complex_no_dynamic3app17hd8e4fe86787df5d8E+0xb0>)
   23dfe:	4631      	mov	r1, r6
   23e00:	462a      	mov	r2, r5
   23e02:	462b      	mov	r3, r5
   23e04:	df03      	svc	3
   23e06:	2108      	movs	r1, #8
   23e08:	4802      	ldr	r0, [pc, #8]	@ (23e14 <_ZN18complex_no_dynamic3app17hd8e4fe86787df5d8E+0xb0>)
   23e0a:	462a      	mov	r2, r5
   23e0c:	462b      	mov	r3, r5
   23e0e:	df04      	svc	4
   23e10:	b01d      	add	sp, #116	@ 0x74
   23e12:	bdf0      	pop	{r4, r5, r6, r7, pc}
   23e14:	00000fce 	.word	0x00000fce

00023e18 <_ZN18complex_no_dynamic3app17hd9dca1763ec8112aE>:
   23e18:	b5f0      	push	{r4, r5, r6, r7, lr}
   23e1a:	af03      	add	r7, sp, #12
   23e1c:	b09b      	sub	sp, #108	@ 0x6c
   23e1e:	9000      	str	r0, [sp, #0]
   23e20:	ae01      	add	r6, sp, #4
   23e22:	2441      	movs	r4, #65	@ 0x41
   23e24:	4630      	mov	r0, r6
   23e26:	4622      	mov	r2, r4
   23e28:	f003 ff17 	bl	27c5a <__aeabi_memcpy>
   23e2c:	a812      	add	r0, sp, #72	@ 0x48
   23e2e:	2122      	movs	r1, #34	@ 0x22
   23e30:	f003 fd66 	bl	27900 <__aeabi_memclr4>
   23e34:	4825      	ldr	r0, [pc, #148]	@ (23ecc <_ZN18complex_no_dynamic3app17hd9dca1763ec8112aE+0xb4>)
   23e36:	2501      	movs	r5, #1
   23e38:	4629      	mov	r1, r5
   23e3a:	4632      	mov	r2, r6
   23e3c:	4623      	mov	r3, r4
   23e3e:	df04      	svc	4
   23e40:	2802      	cmp	r0, #2
   23e42:	d015      	beq.n	23e70 <_ZN18complex_no_dynamic3app17hd9dca1763ec8112aE+0x58>
   23e44:	4821      	ldr	r0, [pc, #132]	@ (23ecc <_ZN18complex_no_dynamic3app17hd9dca1763ec8112aE+0xb4>)
   23e46:	2100      	movs	r1, #0
   23e48:	aa12      	add	r2, sp, #72	@ 0x48
   23e4a:	2322      	movs	r3, #34	@ 0x22
   23e4c:	df03      	svc	3
   23e4e:	2802      	cmp	r0, #2
   23e50:	d00e      	beq.n	23e70 <_ZN18complex_no_dynamic3app17hd9dca1763ec8112aE+0x58>
   23e52:	481e      	ldr	r0, [pc, #120]	@ (23ecc <_ZN18complex_no_dynamic3app17hd9dca1763ec8112aE+0xb4>)
   23e54:	2501      	movs	r5, #1
   23e56:	2600      	movs	r6, #0
   23e58:	4629      	mov	r1, r5
   23e5a:	4632      	mov	r2, r6
   23e5c:	4633      	mov	r3, r6
   23e5e:	df02      	svc	2
   23e60:	287f      	cmp	r0, #127	@ 0x7f
   23e62:	d905      	bls.n	23e70 <_ZN18complex_no_dynamic3app17hd9dca1763ec8112aE+0x58>
   23e64:	4819      	ldr	r0, [pc, #100]	@ (23ecc <_ZN18complex_no_dynamic3app17hd9dca1763ec8112aE+0xb4>)
   23e66:	4631      	mov	r1, r6
   23e68:	4632      	mov	r2, r6
   23e6a:	4633      	mov	r3, r6
   23e6c:	df03      	svc	3
   23e6e:	4635      	mov	r5, r6
   23e70:	2d00      	cmp	r5, #0
   23e72:	d011      	beq.n	23e98 <_ZN18complex_no_dynamic3app17hd9dca1763ec8112aE+0x80>
   23e74:	2401      	movs	r4, #1
   23e76:	9800      	ldr	r0, [sp, #0]
   23e78:	7004      	strb	r4, [r0, #0]
   23e7a:	6041      	str	r1, [r0, #4]
   23e7c:	4d13      	ldr	r5, [pc, #76]	@ (23ecc <_ZN18complex_no_dynamic3app17hd9dca1763ec8112aE+0xb4>)
   23e7e:	2600      	movs	r6, #0
   23e80:	4628      	mov	r0, r5
   23e82:	4631      	mov	r1, r6
   23e84:	4632      	mov	r2, r6
   23e86:	4633      	mov	r3, r6
   23e88:	df03      	svc	3
   23e8a:	4628      	mov	r0, r5
   23e8c:	4621      	mov	r1, r4
   23e8e:	4632      	mov	r2, r6
   23e90:	4633      	mov	r3, r6
   23e92:	df04      	svc	4
   23e94:	b01b      	add	sp, #108	@ 0x6c
   23e96:	bdf0      	pop	{r4, r5, r6, r7, pc}
   23e98:	4e0c      	ldr	r6, [pc, #48]	@ (23ecc <_ZN18complex_no_dynamic3app17hd9dca1763ec8112aE+0xb4>)
   23e9a:	2500      	movs	r5, #0
   23e9c:	4630      	mov	r0, r6
   23e9e:	4629      	mov	r1, r5
   23ea0:	462a      	mov	r2, r5
   23ea2:	462b      	mov	r3, r5
   23ea4:	df03      	svc	3
   23ea6:	9c00      	ldr	r4, [sp, #0]
   23ea8:	1c60      	adds	r0, r4, #1
   23eaa:	a912      	add	r1, sp, #72	@ 0x48
   23eac:	2222      	movs	r2, #34	@ 0x22
   23eae:	f003 fed4 	bl	27c5a <__aeabi_memcpy>
   23eb2:	7025      	strb	r5, [r4, #0]
   23eb4:	4630      	mov	r0, r6
   23eb6:	4629      	mov	r1, r5
   23eb8:	462a      	mov	r2, r5
   23eba:	462b      	mov	r3, r5
   23ebc:	df03      	svc	3
   23ebe:	2101      	movs	r1, #1
   23ec0:	4630      	mov	r0, r6
   23ec2:	462a      	mov	r2, r5
   23ec4:	462b      	mov	r3, r5
   23ec6:	df04      	svc	4
   23ec8:	b01b      	add	sp, #108	@ 0x6c
   23eca:	bdf0      	pop	{r4, r5, r6, r7, pc}
   23ecc:	0000247c 	.word	0x0000247c

00023ed0 <_ZN18complex_no_dynamic3app17hda6ec62b80875b6cE>:
   23ed0:	b5f0      	push	{r4, r5, r6, r7, lr}
   23ed2:	af03      	add	r7, sp, #12
   23ed4:	b095      	sub	sp, #84	@ 0x54
   23ed6:	9000      	str	r0, [sp, #0]
   23ed8:	ae01      	add	r6, sp, #4
   23eda:	2434      	movs	r4, #52	@ 0x34
   23edc:	4630      	mov	r0, r6
   23ede:	4622      	mov	r2, r4
   23ee0:	f003 febb 	bl	27c5a <__aeabi_memcpy>
   23ee4:	a80e      	add	r0, sp, #56	@ 0x38
   23ee6:	2500      	movs	r5, #0
   23ee8:	8305      	strh	r5, [r0, #24]
   23eea:	9513      	str	r5, [sp, #76]	@ 0x4c
   23eec:	9512      	str	r5, [sp, #72]	@ 0x48
   23eee:	9511      	str	r5, [sp, #68]	@ 0x44
   23ef0:	9510      	str	r5, [sp, #64]	@ 0x40
   23ef2:	950f      	str	r5, [sp, #60]	@ 0x3c
   23ef4:	950e      	str	r5, [sp, #56]	@ 0x38
   23ef6:	4826      	ldr	r0, [pc, #152]	@ (23f90 <_ZN18complex_no_dynamic3app17hda6ec62b80875b6cE+0xc0>)
   23ef8:	4629      	mov	r1, r5
   23efa:	4632      	mov	r2, r6
   23efc:	4623      	mov	r3, r4
   23efe:	df04      	svc	4
   23f00:	2802      	cmp	r0, #2
   23f02:	d00e      	beq.n	23f22 <_ZN18complex_no_dynamic3app17hda6ec62b80875b6cE+0x52>
   23f04:	4822      	ldr	r0, [pc, #136]	@ (23f90 <_ZN18complex_no_dynamic3app17hda6ec62b80875b6cE+0xc0>)
   23f06:	2105      	movs	r1, #5
   23f08:	aa0e      	add	r2, sp, #56	@ 0x38
   23f0a:	231a      	movs	r3, #26
   23f0c:	df03      	svc	3
   23f0e:	2802      	cmp	r0, #2
   23f10:	d007      	beq.n	23f22 <_ZN18complex_no_dynamic3app17hda6ec62b80875b6cE+0x52>
   23f12:	481f      	ldr	r0, [pc, #124]	@ (23f90 <_ZN18complex_no_dynamic3app17hda6ec62b80875b6cE+0xc0>)
   23f14:	2205      	movs	r2, #5
   23f16:	2600      	movs	r6, #0
   23f18:	4631      	mov	r1, r6
   23f1a:	4633      	mov	r3, r6
   23f1c:	df02      	svc	2
   23f1e:	287f      	cmp	r0, #127	@ 0x7f
   23f20:	d814      	bhi.n	23f4c <_ZN18complex_no_dynamic3app17hda6ec62b80875b6cE+0x7c>
   23f22:	2601      	movs	r6, #1
   23f24:	2e00      	cmp	r6, #0
   23f26:	d018      	beq.n	23f5a <_ZN18complex_no_dynamic3app17hda6ec62b80875b6cE+0x8a>
   23f28:	2001      	movs	r0, #1
   23f2a:	9a00      	ldr	r2, [sp, #0]
   23f2c:	7010      	strb	r0, [r2, #0]
   23f2e:	6051      	str	r1, [r2, #4]
   23f30:	4c17      	ldr	r4, [pc, #92]	@ (23f90 <_ZN18complex_no_dynamic3app17hda6ec62b80875b6cE+0xc0>)
   23f32:	2105      	movs	r1, #5
   23f34:	2500      	movs	r5, #0
   23f36:	4620      	mov	r0, r4
   23f38:	462a      	mov	r2, r5
   23f3a:	462b      	mov	r3, r5
   23f3c:	df03      	svc	3
   23f3e:	4620      	mov	r0, r4
   23f40:	4629      	mov	r1, r5
   23f42:	462a      	mov	r2, r5
   23f44:	462b      	mov	r3, r5
   23f46:	df04      	svc	4
   23f48:	b015      	add	sp, #84	@ 0x54
   23f4a:	bdf0      	pop	{r4, r5, r6, r7, pc}
   23f4c:	4810      	ldr	r0, [pc, #64]	@ (23f90 <_ZN18complex_no_dynamic3app17hda6ec62b80875b6cE+0xc0>)
   23f4e:	2105      	movs	r1, #5
   23f50:	4632      	mov	r2, r6
   23f52:	4633      	mov	r3, r6
   23f54:	df03      	svc	3
   23f56:	2e00      	cmp	r6, #0
   23f58:	d1e6      	bne.n	23f28 <_ZN18complex_no_dynamic3app17hda6ec62b80875b6cE+0x58>
   23f5a:	480d      	ldr	r0, [pc, #52]	@ (23f90 <_ZN18complex_no_dynamic3app17hda6ec62b80875b6cE+0xc0>)
   23f5c:	2405      	movs	r4, #5
   23f5e:	4621      	mov	r1, r4
   23f60:	462a      	mov	r2, r5
   23f62:	462b      	mov	r3, r5
   23f64:	df03      	svc	3
   23f66:	9e00      	ldr	r6, [sp, #0]
   23f68:	1c70      	adds	r0, r6, #1
   23f6a:	a90e      	add	r1, sp, #56	@ 0x38
   23f6c:	221a      	movs	r2, #26
   23f6e:	f003 fe74 	bl	27c5a <__aeabi_memcpy>
   23f72:	7035      	strb	r5, [r6, #0]
   23f74:	4e06      	ldr	r6, [pc, #24]	@ (23f90 <_ZN18complex_no_dynamic3app17hda6ec62b80875b6cE+0xc0>)
   23f76:	4630      	mov	r0, r6
   23f78:	4621      	mov	r1, r4
   23f7a:	462a      	mov	r2, r5
   23f7c:	462b      	mov	r3, r5
   23f7e:	df03      	svc	3
   23f80:	4630      	mov	r0, r6
   23f82:	4629      	mov	r1, r5
   23f84:	462a      	mov	r2, r5
   23f86:	462b      	mov	r3, r5
   23f88:	df04      	svc	4
   23f8a:	b015      	add	sp, #84	@ 0x54
   23f8c:	bdf0      	pop	{r4, r5, r6, r7, pc}
   23f8e:	46c0      	nop			@ (mov r8, r8)
   23f90:	000012cc 	.word	0x000012cc

00023f94 <_ZN18complex_no_dynamic3app17he226186fe8e4d3f1E>:
   23f94:	b5f0      	push	{r4, r5, r6, r7, lr}
   23f96:	af03      	add	r7, sp, #12
   23f98:	b09d      	sub	sp, #116	@ 0x74
   23f9a:	9001      	str	r0, [sp, #4]
   23f9c:	ae02      	add	r6, sp, #8
   23f9e:	2438      	movs	r4, #56	@ 0x38
   23fa0:	4630      	mov	r0, r6
   23fa2:	4622      	mov	r2, r4
   23fa4:	f003 fe59 	bl	27c5a <__aeabi_memcpy>
   23fa8:	a810      	add	r0, sp, #64	@ 0x40
   23faa:	2134      	movs	r1, #52	@ 0x34
   23fac:	f003 fca8 	bl	27900 <__aeabi_memclr4>
   23fb0:	2097      	movs	r0, #151	@ 0x97
   23fb2:	0045      	lsls	r5, r0, #1
   23fb4:	2108      	movs	r1, #8
   23fb6:	4628      	mov	r0, r5
   23fb8:	4632      	mov	r2, r6
   23fba:	4623      	mov	r3, r4
   23fbc:	df04      	svc	4
   23fbe:	2802      	cmp	r0, #2
   23fc0:	d00e      	beq.n	23fe0 <_ZN18complex_no_dynamic3app17he226186fe8e4d3f1E+0x4c>
   23fc2:	2103      	movs	r1, #3
   23fc4:	aa10      	add	r2, sp, #64	@ 0x40
   23fc6:	2334      	movs	r3, #52	@ 0x34
   23fc8:	4628      	mov	r0, r5
   23fca:	df03      	svc	3
   23fcc:	2802      	cmp	r0, #2
   23fce:	d007      	beq.n	23fe0 <_ZN18complex_no_dynamic3app17he226186fe8e4d3f1E+0x4c>
   23fd0:	2108      	movs	r1, #8
   23fd2:	2203      	movs	r2, #3
   23fd4:	2600      	movs	r6, #0
   23fd6:	4628      	mov	r0, r5
   23fd8:	4633      	mov	r3, r6
   23fda:	df02      	svc	2
   23fdc:	287f      	cmp	r0, #127	@ 0x7f
   23fde:	d813      	bhi.n	24008 <_ZN18complex_no_dynamic3app17he226186fe8e4d3f1E+0x74>
   23fe0:	2601      	movs	r6, #1
   23fe2:	2e00      	cmp	r6, #0
   23fe4:	d017      	beq.n	24016 <_ZN18complex_no_dynamic3app17he226186fe8e4d3f1E+0x82>
   23fe6:	2001      	movs	r0, #1
   23fe8:	9a01      	ldr	r2, [sp, #4]
   23fea:	7010      	strb	r0, [r2, #0]
   23fec:	6051      	str	r1, [r2, #4]
   23fee:	2103      	movs	r1, #3
   23ff0:	2400      	movs	r4, #0
   23ff2:	4628      	mov	r0, r5
   23ff4:	4622      	mov	r2, r4
   23ff6:	4623      	mov	r3, r4
   23ff8:	df03      	svc	3
   23ffa:	2108      	movs	r1, #8
   23ffc:	4628      	mov	r0, r5
   23ffe:	4622      	mov	r2, r4
   24000:	4623      	mov	r3, r4
   24002:	df04      	svc	4
   24004:	b01d      	add	sp, #116	@ 0x74
   24006:	bdf0      	pop	{r4, r5, r6, r7, pc}
   24008:	2103      	movs	r1, #3
   2400a:	4628      	mov	r0, r5
   2400c:	4632      	mov	r2, r6
   2400e:	4633      	mov	r3, r6
   24010:	df03      	svc	3
   24012:	2e00      	cmp	r6, #0
   24014:	d1e7      	bne.n	23fe6 <_ZN18complex_no_dynamic3app17he226186fe8e4d3f1E+0x52>
   24016:	2103      	movs	r1, #3
   24018:	9100      	str	r1, [sp, #0]
   2401a:	2600      	movs	r6, #0
   2401c:	4628      	mov	r0, r5
   2401e:	4632      	mov	r2, r6
   24020:	4633      	mov	r3, r6
   24022:	df03      	svc	3
   24024:	9c01      	ldr	r4, [sp, #4]
   24026:	1c60      	adds	r0, r4, #1
   24028:	a910      	add	r1, sp, #64	@ 0x40
   2402a:	2234      	movs	r2, #52	@ 0x34
   2402c:	f003 fe15 	bl	27c5a <__aeabi_memcpy>
   24030:	7026      	strb	r6, [r4, #0]
   24032:	4628      	mov	r0, r5
   24034:	9900      	ldr	r1, [sp, #0]
   24036:	4632      	mov	r2, r6
   24038:	4633      	mov	r3, r6
   2403a:	df03      	svc	3
   2403c:	2108      	movs	r1, #8
   2403e:	4628      	mov	r0, r5
   24040:	4632      	mov	r2, r6
   24042:	4633      	mov	r3, r6
   24044:	df04      	svc	4
   24046:	b01d      	add	sp, #116	@ 0x74
   24048:	bdf0      	pop	{r4, r5, r6, r7, pc}
   2404a:	d4d4      	bmi.n	23ff6 <_ZN18complex_no_dynamic3app17he226186fe8e4d3f1E+0x62>

0002404c <_ZN18complex_no_dynamic3app17he573ed98a5a413b0E>:
   2404c:	b5f0      	push	{r4, r5, r6, r7, lr}
   2404e:	af03      	add	r7, sp, #12
   24050:	b099      	sub	sp, #100	@ 0x64
   24052:	9001      	str	r0, [sp, #4]
   24054:	ac02      	add	r4, sp, #8
   24056:	2641      	movs	r6, #65	@ 0x41
   24058:	4620      	mov	r0, r4
   2405a:	4632      	mov	r2, r6
   2405c:	f003 fdfd 	bl	27c5a <__aeabi_memcpy>
   24060:	2500      	movs	r5, #0
   24062:	9518      	str	r5, [sp, #96]	@ 0x60
   24064:	9517      	str	r5, [sp, #92]	@ 0x5c
   24066:	9516      	str	r5, [sp, #88]	@ 0x58
   24068:	9515      	str	r5, [sp, #84]	@ 0x54
   2406a:	9514      	str	r5, [sp, #80]	@ 0x50
   2406c:	9513      	str	r5, [sp, #76]	@ 0x4c
   2406e:	4827      	ldr	r0, [pc, #156]	@ (2410c <_ZN18complex_no_dynamic3app17he573ed98a5a413b0E+0xc0>)
   24070:	2101      	movs	r1, #1
   24072:	9100      	str	r1, [sp, #0]
   24074:	4622      	mov	r2, r4
   24076:	4633      	mov	r3, r6
   24078:	df04      	svc	4
   2407a:	2802      	cmp	r0, #2
   2407c:	d006      	beq.n	2408c <_ZN18complex_no_dynamic3app17he573ed98a5a413b0E+0x40>
   2407e:	4823      	ldr	r0, [pc, #140]	@ (2410c <_ZN18complex_no_dynamic3app17he573ed98a5a413b0E+0xc0>)
   24080:	2109      	movs	r1, #9
   24082:	aa13      	add	r2, sp, #76	@ 0x4c
   24084:	2318      	movs	r3, #24
   24086:	df03      	svc	3
   24088:	2802      	cmp	r0, #2
   2408a:	d12e      	bne.n	240ea <_ZN18complex_no_dynamic3app17he573ed98a5a413b0E+0x9e>
   2408c:	9c00      	ldr	r4, [sp, #0]
   2408e:	2c00      	cmp	r4, #0
   24090:	d011      	beq.n	240b6 <_ZN18complex_no_dynamic3app17he573ed98a5a413b0E+0x6a>
   24092:	2401      	movs	r4, #1
   24094:	9801      	ldr	r0, [sp, #4]
   24096:	7004      	strb	r4, [r0, #0]
   24098:	6041      	str	r1, [r0, #4]
   2409a:	4d1c      	ldr	r5, [pc, #112]	@ (2410c <_ZN18complex_no_dynamic3app17he573ed98a5a413b0E+0xc0>)
   2409c:	2109      	movs	r1, #9
   2409e:	2600      	movs	r6, #0
   240a0:	4628      	mov	r0, r5
   240a2:	4632      	mov	r2, r6
   240a4:	4633      	mov	r3, r6
   240a6:	df03      	svc	3
   240a8:	4628      	mov	r0, r5
   240aa:	4621      	mov	r1, r4
   240ac:	4632      	mov	r2, r6
   240ae:	4633      	mov	r3, r6
   240b0:	df04      	svc	4
   240b2:	b019      	add	sp, #100	@ 0x64
   240b4:	bdf0      	pop	{r4, r5, r6, r7, pc}
   240b6:	4815      	ldr	r0, [pc, #84]	@ (2410c <_ZN18complex_no_dynamic3app17he573ed98a5a413b0E+0xc0>)
   240b8:	2409      	movs	r4, #9
   240ba:	4621      	mov	r1, r4
   240bc:	462a      	mov	r2, r5
   240be:	462b      	mov	r3, r5
   240c0:	df03      	svc	3
   240c2:	9e01      	ldr	r6, [sp, #4]
   240c4:	1c70      	adds	r0, r6, #1
   240c6:	a913      	add	r1, sp, #76	@ 0x4c
   240c8:	2218      	movs	r2, #24
   240ca:	f003 fdc6 	bl	27c5a <__aeabi_memcpy>
   240ce:	7035      	strb	r5, [r6, #0]
   240d0:	4e0e      	ldr	r6, [pc, #56]	@ (2410c <_ZN18complex_no_dynamic3app17he573ed98a5a413b0E+0xc0>)
   240d2:	4630      	mov	r0, r6
   240d4:	4621      	mov	r1, r4
   240d6:	462a      	mov	r2, r5
   240d8:	462b      	mov	r3, r5
   240da:	df03      	svc	3
   240dc:	2101      	movs	r1, #1
   240de:	4630      	mov	r0, r6
   240e0:	462a      	mov	r2, r5
   240e2:	462b      	mov	r3, r5
   240e4:	df04      	svc	4
   240e6:	b019      	add	sp, #100	@ 0x64
   240e8:	bdf0      	pop	{r4, r5, r6, r7, pc}
   240ea:	4808      	ldr	r0, [pc, #32]	@ (2410c <_ZN18complex_no_dynamic3app17he573ed98a5a413b0E+0xc0>)
   240ec:	2401      	movs	r4, #1
   240ee:	2209      	movs	r2, #9
   240f0:	2600      	movs	r6, #0
   240f2:	4621      	mov	r1, r4
   240f4:	4633      	mov	r3, r6
   240f6:	df02      	svc	2
   240f8:	287f      	cmp	r0, #127	@ 0x7f
   240fa:	d9c8      	bls.n	2408e <_ZN18complex_no_dynamic3app17he573ed98a5a413b0E+0x42>
   240fc:	4803      	ldr	r0, [pc, #12]	@ (2410c <_ZN18complex_no_dynamic3app17he573ed98a5a413b0E+0xc0>)
   240fe:	2109      	movs	r1, #9
   24100:	4632      	mov	r2, r6
   24102:	4633      	mov	r3, r6
   24104:	df03      	svc	3
   24106:	4634      	mov	r4, r6
   24108:	e7c1      	b.n	2408e <_ZN18complex_no_dynamic3app17he573ed98a5a413b0E+0x42>
   2410a:	46c0      	nop			@ (mov r8, r8)
   2410c:	00002156 	.word	0x00002156

00024110 <_ZN18complex_no_dynamic3app17hefe3b1bf85245801E>:
   24110:	b5f0      	push	{r4, r5, r6, r7, lr}
   24112:	af03      	add	r7, sp, #12
   24114:	b095      	sub	sp, #84	@ 0x54
   24116:	4604      	mov	r4, r0
   24118:	ad01      	add	r5, sp, #4
   2411a:	2618      	movs	r6, #24
   2411c:	4628      	mov	r0, r5
   2411e:	4632      	mov	r2, r6
   24120:	f003 fd9b 	bl	27c5a <__aeabi_memcpy>
   24124:	a807      	add	r0, sp, #28
   24126:	2136      	movs	r1, #54	@ 0x36
   24128:	f003 fbea 	bl	27900 <__aeabi_memclr4>
   2412c:	20f3      	movs	r0, #243	@ 0xf3
   2412e:	2108      	movs	r1, #8
   24130:	462a      	mov	r2, r5
   24132:	4633      	mov	r3, r6
   24134:	df04      	svc	4
   24136:	2802      	cmp	r0, #2
   24138:	d00e      	beq.n	24158 <_ZN18complex_no_dynamic3app17hefe3b1bf85245801E+0x48>
   2413a:	20f3      	movs	r0, #243	@ 0xf3
   2413c:	2104      	movs	r1, #4
   2413e:	aa07      	add	r2, sp, #28
   24140:	2336      	movs	r3, #54	@ 0x36
   24142:	df03      	svc	3
   24144:	2802      	cmp	r0, #2
   24146:	d007      	beq.n	24158 <_ZN18complex_no_dynamic3app17hefe3b1bf85245801E+0x48>
   24148:	20f3      	movs	r0, #243	@ 0xf3
   2414a:	2108      	movs	r1, #8
   2414c:	2204      	movs	r2, #4
   2414e:	2500      	movs	r5, #0
   24150:	462b      	mov	r3, r5
   24152:	df02      	svc	2
   24154:	287f      	cmp	r0, #127	@ 0x7f
   24156:	d813      	bhi.n	24180 <_ZN18complex_no_dynamic3app17hefe3b1bf85245801E+0x70>
   24158:	2501      	movs	r5, #1
   2415a:	2d00      	cmp	r5, #0
   2415c:	d017      	beq.n	2418e <_ZN18complex_no_dynamic3app17hefe3b1bf85245801E+0x7e>
   2415e:	2001      	movs	r0, #1
   24160:	7020      	strb	r0, [r4, #0]
   24162:	6061      	str	r1, [r4, #4]
   24164:	24f3      	movs	r4, #243	@ 0xf3
   24166:	2104      	movs	r1, #4
   24168:	2500      	movs	r5, #0
   2416a:	4620      	mov	r0, r4
   2416c:	462a      	mov	r2, r5
   2416e:	462b      	mov	r3, r5
   24170:	df03      	svc	3
   24172:	2108      	movs	r1, #8
   24174:	4620      	mov	r0, r4
   24176:	462a      	mov	r2, r5
   24178:	462b      	mov	r3, r5
   2417a:	df04      	svc	4
   2417c:	b015      	add	sp, #84	@ 0x54
   2417e:	bdf0      	pop	{r4, r5, r6, r7, pc}
   24180:	20f3      	movs	r0, #243	@ 0xf3
   24182:	2104      	movs	r1, #4
   24184:	462a      	mov	r2, r5
   24186:	462b      	mov	r3, r5
   24188:	df03      	svc	3
   2418a:	2d00      	cmp	r5, #0
   2418c:	d1e7      	bne.n	2415e <_ZN18complex_no_dynamic3app17hefe3b1bf85245801E+0x4e>
   2418e:	26f3      	movs	r6, #243	@ 0xf3
   24190:	2104      	movs	r1, #4
   24192:	9100      	str	r1, [sp, #0]
   24194:	2500      	movs	r5, #0
   24196:	4630      	mov	r0, r6
   24198:	462a      	mov	r2, r5
   2419a:	462b      	mov	r3, r5
   2419c:	df03      	svc	3
   2419e:	1c60      	adds	r0, r4, #1
   241a0:	a907      	add	r1, sp, #28
   241a2:	2236      	movs	r2, #54	@ 0x36
   241a4:	f003 fd59 	bl	27c5a <__aeabi_memcpy>
   241a8:	7025      	strb	r5, [r4, #0]
   241aa:	4630      	mov	r0, r6
   241ac:	9900      	ldr	r1, [sp, #0]
   241ae:	462a      	mov	r2, r5
   241b0:	462b      	mov	r3, r5
   241b2:	df03      	svc	3
   241b4:	2108      	movs	r1, #8
   241b6:	4630      	mov	r0, r6
   241b8:	462a      	mov	r2, r5
   241ba:	462b      	mov	r3, r5
   241bc:	df04      	svc	4
   241be:	b015      	add	sp, #84	@ 0x54
   241c0:	bdf0      	pop	{r4, r5, r6, r7, pc}
   241c2:	d4d4      	bmi.n	2416e <_ZN18complex_no_dynamic3app17hefe3b1bf85245801E+0x5e>

000241c4 <_ZN18complex_no_dynamic3app17hf1395ad8977f2ae8E>:
   241c4:	b5f0      	push	{r4, r5, r6, r7, lr}
   241c6:	af03      	add	r7, sp, #12
   241c8:	b097      	sub	sp, #92	@ 0x5c
   241ca:	4604      	mov	r4, r0
   241cc:	ad01      	add	r5, sp, #4
   241ce:	262c      	movs	r6, #44	@ 0x2c
   241d0:	4628      	mov	r0, r5
   241d2:	4632      	mov	r2, r6
   241d4:	f003 fd41 	bl	27c5a <__aeabi_memcpy>
   241d8:	a80c      	add	r0, sp, #48	@ 0x30
   241da:	212a      	movs	r1, #42	@ 0x2a
   241dc:	f003 fb90 	bl	27900 <__aeabi_memclr4>
   241e0:	4824      	ldr	r0, [pc, #144]	@ (24274 <_ZN18complex_no_dynamic3app17hf1395ad8977f2ae8E+0xb0>)
   241e2:	2103      	movs	r1, #3
   241e4:	462a      	mov	r2, r5
   241e6:	4633      	mov	r3, r6
   241e8:	df04      	svc	4
   241ea:	2802      	cmp	r0, #2
   241ec:	d00e      	beq.n	2420c <_ZN18complex_no_dynamic3app17hf1395ad8977f2ae8E+0x48>
   241ee:	4821      	ldr	r0, [pc, #132]	@ (24274 <_ZN18complex_no_dynamic3app17hf1395ad8977f2ae8E+0xb0>)
   241f0:	2100      	movs	r1, #0
   241f2:	aa0c      	add	r2, sp, #48	@ 0x30
   241f4:	232a      	movs	r3, #42	@ 0x2a
   241f6:	df03      	svc	3
   241f8:	2802      	cmp	r0, #2
   241fa:	d007      	beq.n	2420c <_ZN18complex_no_dynamic3app17hf1395ad8977f2ae8E+0x48>
   241fc:	481d      	ldr	r0, [pc, #116]	@ (24274 <_ZN18complex_no_dynamic3app17hf1395ad8977f2ae8E+0xb0>)
   241fe:	2103      	movs	r1, #3
   24200:	2500      	movs	r5, #0
   24202:	462a      	mov	r2, r5
   24204:	462b      	mov	r3, r5
   24206:	df02      	svc	2
   24208:	287f      	cmp	r0, #127	@ 0x7f
   2420a:	d813      	bhi.n	24234 <_ZN18complex_no_dynamic3app17hf1395ad8977f2ae8E+0x70>
   2420c:	2501      	movs	r5, #1
   2420e:	2d00      	cmp	r5, #0
   24210:	d017      	beq.n	24242 <_ZN18complex_no_dynamic3app17hf1395ad8977f2ae8E+0x7e>
   24212:	2001      	movs	r0, #1
   24214:	7020      	strb	r0, [r4, #0]
   24216:	6061      	str	r1, [r4, #4]
   24218:	4c16      	ldr	r4, [pc, #88]	@ (24274 <_ZN18complex_no_dynamic3app17hf1395ad8977f2ae8E+0xb0>)
   2421a:	2500      	movs	r5, #0
   2421c:	4620      	mov	r0, r4
   2421e:	4629      	mov	r1, r5
   24220:	462a      	mov	r2, r5
   24222:	462b      	mov	r3, r5
   24224:	df03      	svc	3
   24226:	2103      	movs	r1, #3
   24228:	4620      	mov	r0, r4
   2422a:	462a      	mov	r2, r5
   2422c:	462b      	mov	r3, r5
   2422e:	df04      	svc	4
   24230:	b017      	add	sp, #92	@ 0x5c
   24232:	bdf0      	pop	{r4, r5, r6, r7, pc}
   24234:	480f      	ldr	r0, [pc, #60]	@ (24274 <_ZN18complex_no_dynamic3app17hf1395ad8977f2ae8E+0xb0>)
   24236:	4629      	mov	r1, r5
   24238:	462a      	mov	r2, r5
   2423a:	462b      	mov	r3, r5
   2423c:	df03      	svc	3
   2423e:	2d00      	cmp	r5, #0
   24240:	d1e7      	bne.n	24212 <_ZN18complex_no_dynamic3app17hf1395ad8977f2ae8E+0x4e>
   24242:	4e0c      	ldr	r6, [pc, #48]	@ (24274 <_ZN18complex_no_dynamic3app17hf1395ad8977f2ae8E+0xb0>)
   24244:	2500      	movs	r5, #0
   24246:	4630      	mov	r0, r6
   24248:	4629      	mov	r1, r5
   2424a:	462a      	mov	r2, r5
   2424c:	462b      	mov	r3, r5
   2424e:	df03      	svc	3
   24250:	1c60      	adds	r0, r4, #1
   24252:	a90c      	add	r1, sp, #48	@ 0x30
   24254:	222a      	movs	r2, #42	@ 0x2a
   24256:	f003 fd00 	bl	27c5a <__aeabi_memcpy>
   2425a:	7025      	strb	r5, [r4, #0]
   2425c:	4630      	mov	r0, r6
   2425e:	4629      	mov	r1, r5
   24260:	462a      	mov	r2, r5
   24262:	462b      	mov	r3, r5
   24264:	df03      	svc	3
   24266:	2103      	movs	r1, #3
   24268:	4630      	mov	r0, r6
   2426a:	462a      	mov	r2, r5
   2426c:	462b      	mov	r3, r5
   2426e:	df04      	svc	4
   24270:	b017      	add	sp, #92	@ 0x5c
   24272:	bdf0      	pop	{r4, r5, r6, r7, pc}
   24274:	000024f0 	.word	0x000024f0

00024278 <_ZN18complex_no_dynamic3app17hf38032319c0c2c71E>:
   24278:	b5f0      	push	{r4, r5, r6, r7, lr}
   2427a:	af03      	add	r7, sp, #12
   2427c:	b09b      	sub	sp, #108	@ 0x6c
   2427e:	4604      	mov	r4, r0
   24280:	ad01      	add	r5, sp, #4
   24282:	2632      	movs	r6, #50	@ 0x32
   24284:	4628      	mov	r0, r5
   24286:	4632      	mov	r2, r6
   24288:	f003 fce7 	bl	27c5a <__aeabi_memcpy>
   2428c:	a80e      	add	r0, sp, #56	@ 0x38
   2428e:	4631      	mov	r1, r6
   24290:	f003 fb36 	bl	27900 <__aeabi_memclr4>
   24294:	4825      	ldr	r0, [pc, #148]	@ (2432c <_ZN18complex_no_dynamic3app17hf38032319c0c2c71E+0xb4>)
   24296:	2103      	movs	r1, #3
   24298:	462a      	mov	r2, r5
   2429a:	4633      	mov	r3, r6
   2429c:	df04      	svc	4
   2429e:	2802      	cmp	r0, #2
   242a0:	d101      	bne.n	242a6 <_ZN18complex_no_dynamic3app17hf38032319c0c2c71E+0x2e>
   242a2:	2501      	movs	r5, #1
   242a4:	e016      	b.n	242d4 <_ZN18complex_no_dynamic3app17hf38032319c0c2c71E+0x5c>
   242a6:	4821      	ldr	r0, [pc, #132]	@ (2432c <_ZN18complex_no_dynamic3app17hf38032319c0c2c71E+0xb4>)
   242a8:	2501      	movs	r5, #1
   242aa:	aa0e      	add	r2, sp, #56	@ 0x38
   242ac:	2332      	movs	r3, #50	@ 0x32
   242ae:	4629      	mov	r1, r5
   242b0:	df03      	svc	3
   242b2:	2802      	cmp	r0, #2
   242b4:	d00e      	beq.n	242d4 <_ZN18complex_no_dynamic3app17hf38032319c0c2c71E+0x5c>
   242b6:	481d      	ldr	r0, [pc, #116]	@ (2432c <_ZN18complex_no_dynamic3app17hf38032319c0c2c71E+0xb4>)
   242b8:	2103      	movs	r1, #3
   242ba:	2501      	movs	r5, #1
   242bc:	2600      	movs	r6, #0
   242be:	462a      	mov	r2, r5
   242c0:	4633      	mov	r3, r6
   242c2:	df02      	svc	2
   242c4:	287f      	cmp	r0, #127	@ 0x7f
   242c6:	d905      	bls.n	242d4 <_ZN18complex_no_dynamic3app17hf38032319c0c2c71E+0x5c>
   242c8:	4818      	ldr	r0, [pc, #96]	@ (2432c <_ZN18complex_no_dynamic3app17hf38032319c0c2c71E+0xb4>)
   242ca:	2101      	movs	r1, #1
   242cc:	4632      	mov	r2, r6
   242ce:	4633      	mov	r3, r6
   242d0:	df03      	svc	3
   242d2:	4635      	mov	r5, r6
   242d4:	2d00      	cmp	r5, #0
   242d6:	d010      	beq.n	242fa <_ZN18complex_no_dynamic3app17hf38032319c0c2c71E+0x82>
   242d8:	2201      	movs	r2, #1
   242da:	7022      	strb	r2, [r4, #0]
   242dc:	6061      	str	r1, [r4, #4]
   242de:	4c13      	ldr	r4, [pc, #76]	@ (2432c <_ZN18complex_no_dynamic3app17hf38032319c0c2c71E+0xb4>)
   242e0:	2500      	movs	r5, #0
   242e2:	4620      	mov	r0, r4
   242e4:	4611      	mov	r1, r2
   242e6:	462a      	mov	r2, r5
   242e8:	462b      	mov	r3, r5
   242ea:	df03      	svc	3
   242ec:	2103      	movs	r1, #3
   242ee:	4620      	mov	r0, r4
   242f0:	462a      	mov	r2, r5
   242f2:	462b      	mov	r3, r5
   242f4:	df04      	svc	4
   242f6:	b01b      	add	sp, #108	@ 0x6c
   242f8:	bdf0      	pop	{r4, r5, r6, r7, pc}
   242fa:	480c      	ldr	r0, [pc, #48]	@ (2432c <_ZN18complex_no_dynamic3app17hf38032319c0c2c71E+0xb4>)
   242fc:	2601      	movs	r6, #1
   242fe:	2500      	movs	r5, #0
   24300:	4631      	mov	r1, r6
   24302:	462a      	mov	r2, r5
   24304:	462b      	mov	r3, r5
   24306:	df03      	svc	3
   24308:	1c60      	adds	r0, r4, #1
   2430a:	a90e      	add	r1, sp, #56	@ 0x38
   2430c:	2232      	movs	r2, #50	@ 0x32
   2430e:	f003 fca4 	bl	27c5a <__aeabi_memcpy>
   24312:	7025      	strb	r5, [r4, #0]
   24314:	4805      	ldr	r0, [pc, #20]	@ (2432c <_ZN18complex_no_dynamic3app17hf38032319c0c2c71E+0xb4>)
   24316:	4631      	mov	r1, r6
   24318:	462a      	mov	r2, r5
   2431a:	462b      	mov	r3, r5
   2431c:	df03      	svc	3
   2431e:	2103      	movs	r1, #3
   24320:	4802      	ldr	r0, [pc, #8]	@ (2432c <_ZN18complex_no_dynamic3app17hf38032319c0c2c71E+0xb4>)
   24322:	462a      	mov	r2, r5
   24324:	462b      	mov	r3, r5
   24326:	df04      	svc	4
   24328:	b01b      	add	sp, #108	@ 0x6c
   2432a:	bdf0      	pop	{r4, r5, r6, r7, pc}
   2432c:	00001f07 	.word	0x00001f07

00024330 <_ZN18complex_no_dynamic3app17hf64d323a89b89d55E>:
   24330:	b5f0      	push	{r4, r5, r6, r7, lr}
   24332:	af03      	add	r7, sp, #12
   24334:	b0a9      	sub	sp, #164	@ 0xa4
   24336:	4604      	mov	r4, r0
   24338:	466d      	mov	r5, sp
   2433a:	2653      	movs	r6, #83	@ 0x53
   2433c:	4628      	mov	r0, r5
   2433e:	4632      	mov	r2, r6
   24340:	f003 fc8b 	bl	27c5a <__aeabi_memcpy>
   24344:	a815      	add	r0, sp, #84	@ 0x54
   24346:	214d      	movs	r1, #77	@ 0x4d
   24348:	f003 fada 	bl	27900 <__aeabi_memclr4>
   2434c:	4824      	ldr	r0, [pc, #144]	@ (243e0 <_ZN18complex_no_dynamic3app17hf64d323a89b89d55E+0xb0>)
   2434e:	2109      	movs	r1, #9
   24350:	462a      	mov	r2, r5
   24352:	4633      	mov	r3, r6
   24354:	df04      	svc	4
   24356:	2802      	cmp	r0, #2
   24358:	d00e      	beq.n	24378 <_ZN18complex_no_dynamic3app17hf64d323a89b89d55E+0x48>
   2435a:	4821      	ldr	r0, [pc, #132]	@ (243e0 <_ZN18complex_no_dynamic3app17hf64d323a89b89d55E+0xb0>)
   2435c:	2104      	movs	r1, #4
   2435e:	aa15      	add	r2, sp, #84	@ 0x54
   24360:	234d      	movs	r3, #77	@ 0x4d
   24362:	df03      	svc	3
   24364:	2802      	cmp	r0, #2
   24366:	d007      	beq.n	24378 <_ZN18complex_no_dynamic3app17hf64d323a89b89d55E+0x48>
   24368:	481d      	ldr	r0, [pc, #116]	@ (243e0 <_ZN18complex_no_dynamic3app17hf64d323a89b89d55E+0xb0>)
   2436a:	2109      	movs	r1, #9
   2436c:	2204      	movs	r2, #4
   2436e:	2500      	movs	r5, #0
   24370:	462b      	mov	r3, r5
   24372:	df02      	svc	2
   24374:	287f      	cmp	r0, #127	@ 0x7f
   24376:	d813      	bhi.n	243a0 <_ZN18complex_no_dynamic3app17hf64d323a89b89d55E+0x70>
   24378:	2501      	movs	r5, #1
   2437a:	2d00      	cmp	r5, #0
   2437c:	d017      	beq.n	243ae <_ZN18complex_no_dynamic3app17hf64d323a89b89d55E+0x7e>
   2437e:	2001      	movs	r0, #1
   24380:	7020      	strb	r0, [r4, #0]
   24382:	6061      	str	r1, [r4, #4]
   24384:	4c16      	ldr	r4, [pc, #88]	@ (243e0 <_ZN18complex_no_dynamic3app17hf64d323a89b89d55E+0xb0>)
   24386:	2104      	movs	r1, #4
   24388:	2500      	movs	r5, #0
   2438a:	4620      	mov	r0, r4
   2438c:	462a      	mov	r2, r5
   2438e:	462b      	mov	r3, r5
   24390:	df03      	svc	3
   24392:	2109      	movs	r1, #9
   24394:	4620      	mov	r0, r4
   24396:	462a      	mov	r2, r5
   24398:	462b      	mov	r3, r5
   2439a:	df04      	svc	4
   2439c:	b029      	add	sp, #164	@ 0xa4
   2439e:	bdf0      	pop	{r4, r5, r6, r7, pc}
   243a0:	480f      	ldr	r0, [pc, #60]	@ (243e0 <_ZN18complex_no_dynamic3app17hf64d323a89b89d55E+0xb0>)
   243a2:	2104      	movs	r1, #4
   243a4:	462a      	mov	r2, r5
   243a6:	462b      	mov	r3, r5
   243a8:	df03      	svc	3
   243aa:	2d00      	cmp	r5, #0
   243ac:	d1e7      	bne.n	2437e <_ZN18complex_no_dynamic3app17hf64d323a89b89d55E+0x4e>
   243ae:	480c      	ldr	r0, [pc, #48]	@ (243e0 <_ZN18complex_no_dynamic3app17hf64d323a89b89d55E+0xb0>)
   243b0:	2604      	movs	r6, #4
   243b2:	2500      	movs	r5, #0
   243b4:	4631      	mov	r1, r6
   243b6:	462a      	mov	r2, r5
   243b8:	462b      	mov	r3, r5
   243ba:	df03      	svc	3
   243bc:	1c60      	adds	r0, r4, #1
   243be:	a915      	add	r1, sp, #84	@ 0x54
   243c0:	224d      	movs	r2, #77	@ 0x4d
   243c2:	f003 fc4a 	bl	27c5a <__aeabi_memcpy>
   243c6:	7025      	strb	r5, [r4, #0]
   243c8:	4805      	ldr	r0, [pc, #20]	@ (243e0 <_ZN18complex_no_dynamic3app17hf64d323a89b89d55E+0xb0>)
   243ca:	4631      	mov	r1, r6
   243cc:	462a      	mov	r2, r5
   243ce:	462b      	mov	r3, r5
   243d0:	df03      	svc	3
   243d2:	2109      	movs	r1, #9
   243d4:	4802      	ldr	r0, [pc, #8]	@ (243e0 <_ZN18complex_no_dynamic3app17hf64d323a89b89d55E+0xb0>)
   243d6:	462a      	mov	r2, r5
   243d8:	462b      	mov	r3, r5
   243da:	df04      	svc	4
   243dc:	b029      	add	sp, #164	@ 0xa4
   243de:	bdf0      	pop	{r4, r5, r6, r7, pc}
   243e0:	000016ba 	.word	0x000016ba

000243e4 <_ZN18complex_no_dynamic3app17hf92f27ead4e41bbbE>:
   243e4:	b5f0      	push	{r4, r5, r6, r7, lr}
   243e6:	af03      	add	r7, sp, #12
   243e8:	b097      	sub	sp, #92	@ 0x5c
   243ea:	9001      	str	r0, [sp, #4]
   243ec:	ae02      	add	r6, sp, #8
   243ee:	243f      	movs	r4, #63	@ 0x3f
   243f0:	4630      	mov	r0, r6
   243f2:	4622      	mov	r2, r4
   243f4:	f003 fc31 	bl	27c5a <__aeabi_memcpy>
   243f8:	a812      	add	r0, sp, #72	@ 0x48
   243fa:	2500      	movs	r5, #0
   243fc:	7405      	strb	r5, [r0, #16]
   243fe:	9515      	str	r5, [sp, #84]	@ 0x54
   24400:	9514      	str	r5, [sp, #80]	@ 0x50
   24402:	9513      	str	r5, [sp, #76]	@ 0x4c
   24404:	9512      	str	r5, [sp, #72]	@ 0x48
   24406:	4826      	ldr	r0, [pc, #152]	@ (244a0 <_ZN18complex_no_dynamic3app17hf92f27ead4e41bbbE+0xbc>)
   24408:	2104      	movs	r1, #4
   2440a:	4632      	mov	r2, r6
   2440c:	4623      	mov	r3, r4
   2440e:	df04      	svc	4
   24410:	2802      	cmp	r0, #2
   24412:	d00e      	beq.n	24432 <_ZN18complex_no_dynamic3app17hf92f27ead4e41bbbE+0x4e>
   24414:	4822      	ldr	r0, [pc, #136]	@ (244a0 <_ZN18complex_no_dynamic3app17hf92f27ead4e41bbbE+0xbc>)
   24416:	2103      	movs	r1, #3
   24418:	aa12      	add	r2, sp, #72	@ 0x48
   2441a:	2311      	movs	r3, #17
   2441c:	df03      	svc	3
   2441e:	2802      	cmp	r0, #2
   24420:	d007      	beq.n	24432 <_ZN18complex_no_dynamic3app17hf92f27ead4e41bbbE+0x4e>
   24422:	481f      	ldr	r0, [pc, #124]	@ (244a0 <_ZN18complex_no_dynamic3app17hf92f27ead4e41bbbE+0xbc>)
   24424:	2104      	movs	r1, #4
   24426:	2203      	movs	r2, #3
   24428:	2600      	movs	r6, #0
   2442a:	4633      	mov	r3, r6
   2442c:	df02      	svc	2
   2442e:	287f      	cmp	r0, #127	@ 0x7f
   24430:	d814      	bhi.n	2445c <_ZN18complex_no_dynamic3app17hf92f27ead4e41bbbE+0x78>
   24432:	2601      	movs	r6, #1
   24434:	2e00      	cmp	r6, #0
   24436:	d018      	beq.n	2446a <_ZN18complex_no_dynamic3app17hf92f27ead4e41bbbE+0x86>
   24438:	2001      	movs	r0, #1
   2443a:	9a01      	ldr	r2, [sp, #4]
   2443c:	7010      	strb	r0, [r2, #0]
   2443e:	6051      	str	r1, [r2, #4]
   24440:	4c17      	ldr	r4, [pc, #92]	@ (244a0 <_ZN18complex_no_dynamic3app17hf92f27ead4e41bbbE+0xbc>)
   24442:	2103      	movs	r1, #3
   24444:	2500      	movs	r5, #0
   24446:	4620      	mov	r0, r4
   24448:	462a      	mov	r2, r5
   2444a:	462b      	mov	r3, r5
   2444c:	df03      	svc	3
   2444e:	2104      	movs	r1, #4
   24450:	4620      	mov	r0, r4
   24452:	462a      	mov	r2, r5
   24454:	462b      	mov	r3, r5
   24456:	df04      	svc	4
   24458:	b017      	add	sp, #92	@ 0x5c
   2445a:	bdf0      	pop	{r4, r5, r6, r7, pc}
   2445c:	4810      	ldr	r0, [pc, #64]	@ (244a0 <_ZN18complex_no_dynamic3app17hf92f27ead4e41bbbE+0xbc>)
   2445e:	2103      	movs	r1, #3
   24460:	4632      	mov	r2, r6
   24462:	4633      	mov	r3, r6
   24464:	df03      	svc	3
   24466:	2e00      	cmp	r6, #0
   24468:	d1e6      	bne.n	24438 <_ZN18complex_no_dynamic3app17hf92f27ead4e41bbbE+0x54>
   2446a:	480d      	ldr	r0, [pc, #52]	@ (244a0 <_ZN18complex_no_dynamic3app17hf92f27ead4e41bbbE+0xbc>)
   2446c:	2403      	movs	r4, #3
   2446e:	4621      	mov	r1, r4
   24470:	462a      	mov	r2, r5
   24472:	462b      	mov	r3, r5
   24474:	df03      	svc	3
   24476:	9e01      	ldr	r6, [sp, #4]
   24478:	1c70      	adds	r0, r6, #1
   2447a:	a912      	add	r1, sp, #72	@ 0x48
   2447c:	2211      	movs	r2, #17
   2447e:	f003 fbec 	bl	27c5a <__aeabi_memcpy>
   24482:	7035      	strb	r5, [r6, #0]
   24484:	4e06      	ldr	r6, [pc, #24]	@ (244a0 <_ZN18complex_no_dynamic3app17hf92f27ead4e41bbbE+0xbc>)
   24486:	4630      	mov	r0, r6
   24488:	4621      	mov	r1, r4
   2448a:	462a      	mov	r2, r5
   2448c:	462b      	mov	r3, r5
   2448e:	df03      	svc	3
   24490:	2104      	movs	r1, #4
   24492:	4630      	mov	r0, r6
   24494:	462a      	mov	r2, r5
   24496:	462b      	mov	r3, r5
   24498:	df04      	svc	4
   2449a:	b017      	add	sp, #92	@ 0x5c
   2449c:	bdf0      	pop	{r4, r5, r6, r7, pc}
   2449e:	46c0      	nop			@ (mov r8, r8)
   244a0:	000014d7 	.word	0x000014d7

000244a4 <_ZN18complex_no_dynamic3app17hfbb0f32e9b26ad1cE>:
   244a4:	b5f0      	push	{r4, r5, r6, r7, lr}
   244a6:	af03      	add	r7, sp, #12
   244a8:	b09b      	sub	sp, #108	@ 0x6c
   244aa:	4604      	mov	r4, r0
   244ac:	ad01      	add	r5, sp, #4
   244ae:	262e      	movs	r6, #46	@ 0x2e
   244b0:	4628      	mov	r0, r5
   244b2:	4632      	mov	r2, r6
   244b4:	f003 fbd1 	bl	27c5a <__aeabi_memcpy>
   244b8:	a80d      	add	r0, sp, #52	@ 0x34
   244ba:	2138      	movs	r1, #56	@ 0x38
   244bc:	f003 fa20 	bl	27900 <__aeabi_memclr4>
   244c0:	4825      	ldr	r0, [pc, #148]	@ (24558 <_ZN18complex_no_dynamic3app17hfbb0f32e9b26ad1cE+0xb4>)
   244c2:	2109      	movs	r1, #9
   244c4:	462a      	mov	r2, r5
   244c6:	4633      	mov	r3, r6
   244c8:	df04      	svc	4
   244ca:	2802      	cmp	r0, #2
   244cc:	d00e      	beq.n	244ec <_ZN18complex_no_dynamic3app17hfbb0f32e9b26ad1cE+0x48>
   244ce:	4822      	ldr	r0, [pc, #136]	@ (24558 <_ZN18complex_no_dynamic3app17hfbb0f32e9b26ad1cE+0xb4>)
   244d0:	2109      	movs	r1, #9
   244d2:	aa0d      	add	r2, sp, #52	@ 0x34
   244d4:	2338      	movs	r3, #56	@ 0x38
   244d6:	df03      	svc	3
   244d8:	2802      	cmp	r0, #2
   244da:	d007      	beq.n	244ec <_ZN18complex_no_dynamic3app17hfbb0f32e9b26ad1cE+0x48>
   244dc:	481e      	ldr	r0, [pc, #120]	@ (24558 <_ZN18complex_no_dynamic3app17hfbb0f32e9b26ad1cE+0xb4>)
   244de:	2109      	movs	r1, #9
   244e0:	2500      	movs	r5, #0
   244e2:	460a      	mov	r2, r1
   244e4:	462b      	mov	r3, r5
   244e6:	df02      	svc	2
   244e8:	287f      	cmp	r0, #127	@ 0x7f
   244ea:	d814      	bhi.n	24516 <_ZN18complex_no_dynamic3app17hfbb0f32e9b26ad1cE+0x72>
   244ec:	2501      	movs	r5, #1
   244ee:	2d00      	cmp	r5, #0
   244f0:	d018      	beq.n	24524 <_ZN18complex_no_dynamic3app17hfbb0f32e9b26ad1cE+0x80>
   244f2:	2001      	movs	r0, #1
   244f4:	7020      	strb	r0, [r4, #0]
   244f6:	6061      	str	r1, [r4, #4]
   244f8:	4c17      	ldr	r4, [pc, #92]	@ (24558 <_ZN18complex_no_dynamic3app17hfbb0f32e9b26ad1cE+0xb4>)
   244fa:	2509      	movs	r5, #9
   244fc:	2600      	movs	r6, #0
   244fe:	4620      	mov	r0, r4
   24500:	4629      	mov	r1, r5
   24502:	4632      	mov	r2, r6
   24504:	4633      	mov	r3, r6
   24506:	df03      	svc	3
   24508:	4620      	mov	r0, r4
   2450a:	4629      	mov	r1, r5
   2450c:	4632      	mov	r2, r6
   2450e:	4633      	mov	r3, r6
   24510:	df04      	svc	4
   24512:	b01b      	add	sp, #108	@ 0x6c
   24514:	bdf0      	pop	{r4, r5, r6, r7, pc}
   24516:	4810      	ldr	r0, [pc, #64]	@ (24558 <_ZN18complex_no_dynamic3app17hfbb0f32e9b26ad1cE+0xb4>)
   24518:	2109      	movs	r1, #9
   2451a:	462a      	mov	r2, r5
   2451c:	462b      	mov	r3, r5
   2451e:	df03      	svc	3
   24520:	2d00      	cmp	r5, #0
   24522:	d1e6      	bne.n	244f2 <_ZN18complex_no_dynamic3app17hfbb0f32e9b26ad1cE+0x4e>
   24524:	480c      	ldr	r0, [pc, #48]	@ (24558 <_ZN18complex_no_dynamic3app17hfbb0f32e9b26ad1cE+0xb4>)
   24526:	2609      	movs	r6, #9
   24528:	2500      	movs	r5, #0
   2452a:	4631      	mov	r1, r6
   2452c:	462a      	mov	r2, r5
   2452e:	462b      	mov	r3, r5
   24530:	df03      	svc	3
   24532:	1c60      	adds	r0, r4, #1
   24534:	a90d      	add	r1, sp, #52	@ 0x34
   24536:	2238      	movs	r2, #56	@ 0x38
   24538:	f003 fb8f 	bl	27c5a <__aeabi_memcpy>
   2453c:	7025      	strb	r5, [r4, #0]
   2453e:	4806      	ldr	r0, [pc, #24]	@ (24558 <_ZN18complex_no_dynamic3app17hfbb0f32e9b26ad1cE+0xb4>)
   24540:	4631      	mov	r1, r6
   24542:	462a      	mov	r2, r5
   24544:	462b      	mov	r3, r5
   24546:	df03      	svc	3
   24548:	4803      	ldr	r0, [pc, #12]	@ (24558 <_ZN18complex_no_dynamic3app17hfbb0f32e9b26ad1cE+0xb4>)
   2454a:	4631      	mov	r1, r6
   2454c:	462a      	mov	r2, r5
   2454e:	462b      	mov	r3, r5
   24550:	df04      	svc	4
   24552:	b01b      	add	sp, #108	@ 0x6c
   24554:	bdf0      	pop	{r4, r5, r6, r7, pc}
   24556:	46c0      	nop			@ (mov r8, r8)
   24558:	00000a9d 	.word	0x00000a9d

0002455c <_start>:
   2455c:	b5f0      	push	{r4, r5, r6, r7, lr}
   2455e:	af03      	add	r7, sp, #12
   24560:	4ee2      	ldr	r6, [pc, #904]	@ (248ec <_start+0x390>)
   24562:	44b5      	add	sp, r6
   24564:	4ee2      	ldr	r6, [pc, #904]	@ (248f0 <_start+0x394>)
   24566:	446e      	add	r6, sp
   24568:	ac1f      	add	r4, sp, #124	@ 0x7c
   2456a:	2528      	movs	r5, #40	@ 0x28
   2456c:	4620      	mov	r0, r4
   2456e:	4629      	mov	r1, r5
   24570:	f003 f9c6 	bl	27900 <__aeabi_memclr4>
   24574:	48df      	ldr	r0, [pc, #892]	@ (248f4 <_start+0x398>)
   24576:	4468      	add	r0, sp
   24578:	2151      	movs	r1, #81	@ 0x51
   2457a:	f003 f9c1 	bl	27900 <__aeabi_memclr4>
   2457e:	48de      	ldr	r0, [pc, #888]	@ (248f8 <_start+0x39c>)
   24580:	2109      	movs	r1, #9
   24582:	4622      	mov	r2, r4
   24584:	462b      	mov	r3, r5
   24586:	df04      	svc	4
   24588:	460c      	mov	r4, r1
   2458a:	a94b      	add	r1, sp, #300	@ 0x12c
   2458c:	9108      	str	r1, [sp, #32]
   2458e:	49db      	ldr	r1, [pc, #876]	@ (248fc <_start+0x3a0>)
   24590:	4469      	add	r1, sp
   24592:	9106      	str	r1, [sp, #24]
   24594:	49da      	ldr	r1, [pc, #872]	@ (24900 <_start+0x3a4>)
   24596:	4469      	add	r1, sp
   24598:	9107      	str	r1, [sp, #28]
   2459a:	2501      	movs	r5, #1
   2459c:	2802      	cmp	r0, #2
   2459e:	950a      	str	r5, [sp, #40]	@ 0x28
   245a0:	d019      	beq.n	245d6 <_start+0x7a>
   245a2:	48d5      	ldr	r0, [pc, #852]	@ (248f8 <_start+0x39c>)
   245a4:	2109      	movs	r1, #9
   245a6:	4ad3      	ldr	r2, [pc, #844]	@ (248f4 <_start+0x398>)
   245a8:	446a      	add	r2, sp
   245aa:	2351      	movs	r3, #81	@ 0x51
   245ac:	df03      	svc	3
   245ae:	2802      	cmp	r0, #2
   245b0:	d101      	bne.n	245b6 <_start+0x5a>
   245b2:	460c      	mov	r4, r1
   245b4:	e00f      	b.n	245d6 <_start+0x7a>
   245b6:	48d0      	ldr	r0, [pc, #832]	@ (248f8 <_start+0x39c>)
   245b8:	2109      	movs	r1, #9
   245ba:	2500      	movs	r5, #0
   245bc:	460a      	mov	r2, r1
   245be:	462b      	mov	r3, r5
   245c0:	df02      	svc	2
   245c2:	287f      	cmp	r0, #127	@ 0x7f
   245c4:	d802      	bhi.n	245cc <_start+0x70>
   245c6:	460c      	mov	r4, r1
   245c8:	9d0a      	ldr	r5, [sp, #40]	@ 0x28
   245ca:	e004      	b.n	245d6 <_start+0x7a>
   245cc:	48ca      	ldr	r0, [pc, #808]	@ (248f8 <_start+0x39c>)
   245ce:	2109      	movs	r1, #9
   245d0:	462a      	mov	r2, r5
   245d2:	462b      	mov	r3, r5
   245d4:	df03      	svc	3
   245d6:	48c8      	ldr	r0, [pc, #800]	@ (248f8 <_start+0x39c>)
   245d8:	2109      	movs	r1, #9
   245da:	2200      	movs	r2, #0
   245dc:	4613      	mov	r3, r2
   245de:	df03      	svc	3
   245e0:	2d00      	cmp	r5, #0
   245e2:	9609      	str	r6, [sp, #36]	@ 0x24
   245e4:	d005      	beq.n	245f2 <_start+0x96>
   245e6:	48c4      	ldr	r0, [pc, #784]	@ (248f8 <_start+0x39c>)
   245e8:	2109      	movs	r1, #9
   245ea:	2200      	movs	r2, #0
   245ec:	4613      	mov	r3, r2
   245ee:	df04      	svc	4
   245f0:	e029      	b.n	24646 <_start+0xea>
   245f2:	a82f      	add	r0, sp, #188	@ 0xbc
   245f4:	6df1      	ldr	r1, [r6, #92]	@ 0x5c
   245f6:	8001      	strh	r1, [r0, #0]
   245f8:	49be      	ldr	r1, [pc, #760]	@ (248f4 <_start+0x398>)
   245fa:	4469      	add	r1, sp
   245fc:	788a      	ldrb	r2, [r1, #2]
   245fe:	7082      	strb	r2, [r0, #2]
   24600:	7988      	ldrb	r0, [r1, #6]
   24602:	900b      	str	r0, [sp, #44]	@ 0x2c
   24604:	7948      	ldrb	r0, [r1, #5]
   24606:	9005      	str	r0, [sp, #20]
   24608:	78c8      	ldrb	r0, [r1, #3]
   2460a:	9004      	str	r0, [sp, #16]
   2460c:	7908      	ldrb	r0, [r1, #4]
   2460e:	9003      	str	r0, [sp, #12]
   24610:	1dc9      	adds	r1, r1, #7
   24612:	a80c      	add	r0, sp, #48	@ 0x30
   24614:	224a      	movs	r2, #74	@ 0x4a
   24616:	f003 fb20 	bl	27c5a <__aeabi_memcpy>
   2461a:	48b7      	ldr	r0, [pc, #732]	@ (248f8 <_start+0x39c>)
   2461c:	2609      	movs	r6, #9
   2461e:	2400      	movs	r4, #0
   24620:	4631      	mov	r1, r6
   24622:	4622      	mov	r2, r4
   24624:	4623      	mov	r3, r4
   24626:	df03      	svc	3
   24628:	48b3      	ldr	r0, [pc, #716]	@ (248f8 <_start+0x39c>)
   2462a:	4631      	mov	r1, r6
   2462c:	4622      	mov	r2, r4
   2462e:	4623      	mov	r3, r4
   24630:	df04      	svc	4
   24632:	9803      	ldr	r0, [sp, #12]
   24634:	0200      	lsls	r0, r0, #8
   24636:	9904      	ldr	r1, [sp, #16]
   24638:	1840      	adds	r0, r0, r1
   2463a:	9905      	ldr	r1, [sp, #20]
   2463c:	0409      	lsls	r1, r1, #16
   2463e:	9a0b      	ldr	r2, [sp, #44]	@ 0x2c
   24640:	0612      	lsls	r2, r2, #24
   24642:	1851      	adds	r1, r2, r1
   24644:	180c      	adds	r4, r1, r0
   24646:	940b      	str	r4, [sp, #44]	@ 0x2c
   24648:	2d00      	cmp	r5, #0
   2464a:	d000      	beq.n	2464e <_start+0xf2>
   2464c:	e07e      	b.n	2474c <_start+0x1f0>
   2464e:	4da9      	ldr	r5, [pc, #676]	@ (248f4 <_start+0x398>)
   24650:	446d      	add	r5, sp
   24652:	982f      	ldr	r0, [sp, #188]	@ 0xbc
   24654:	8028      	strh	r0, [r5, #0]
   24656:	a82f      	add	r0, sp, #188	@ 0xbc
   24658:	7880      	ldrb	r0, [r0, #2]
   2465a:	70a8      	strb	r0, [r5, #2]
   2465c:	4ea4      	ldr	r6, [pc, #656]	@ (248f0 <_start+0x394>)
   2465e:	446e      	add	r6, sp
   24660:	a90c      	add	r1, sp, #48	@ 0x30
   24662:	244a      	movs	r4, #74	@ 0x4a
   24664:	4630      	mov	r0, r6
   24666:	4622      	mov	r2, r4
   24668:	f003 f997 	bl	2799a <__aeabi_memcpy4>
   2466c:	1de8      	adds	r0, r5, #7
   2466e:	4631      	mov	r1, r6
   24670:	4622      	mov	r2, r4
   24672:	f003 faf2 	bl	27c5a <__aeabi_memcpy>
   24676:	990b      	ldr	r1, [sp, #44]	@ 0x2c
   24678:	0e08      	lsrs	r0, r1, #24
   2467a:	71a8      	strb	r0, [r5, #6]
   2467c:	0c08      	lsrs	r0, r1, #16
   2467e:	7168      	strb	r0, [r5, #5]
   24680:	0a08      	lsrs	r0, r1, #8
   24682:	7128      	strb	r0, [r5, #4]
   24684:	70e9      	strb	r1, [r5, #3]
   24686:	489a      	ldr	r0, [pc, #616]	@ (248f0 <_start+0x394>)
   24688:	4468      	add	r0, sp
   2468a:	2146      	movs	r1, #70	@ 0x46
   2468c:	f003 f938 	bl	27900 <__aeabi_memclr4>
   24690:	489c      	ldr	r0, [pc, #624]	@ (24904 <_start+0x3a8>)
   24692:	2107      	movs	r1, #7
   24694:	2351      	movs	r3, #81	@ 0x51
   24696:	462a      	mov	r2, r5
   24698:	df04      	svc	4
   2469a:	2802      	cmp	r0, #2
   2469c:	d102      	bne.n	246a4 <_start+0x148>
   2469e:	460c      	mov	r4, r1
   246a0:	9e0a      	ldr	r6, [sp, #40]	@ 0x28
   246a2:	e018      	b.n	246d6 <_start+0x17a>
   246a4:	4897      	ldr	r0, [pc, #604]	@ (24904 <_start+0x3a8>)
   246a6:	2100      	movs	r1, #0
   246a8:	4a91      	ldr	r2, [pc, #580]	@ (248f0 <_start+0x394>)
   246aa:	446a      	add	r2, sp
   246ac:	2346      	movs	r3, #70	@ 0x46
   246ae:	df03      	svc	3
   246b0:	2802      	cmp	r0, #2
   246b2:	9d0a      	ldr	r5, [sp, #40]	@ 0x28
   246b4:	d007      	beq.n	246c6 <_start+0x16a>
   246b6:	4893      	ldr	r0, [pc, #588]	@ (24904 <_start+0x3a8>)
   246b8:	2107      	movs	r1, #7
   246ba:	2600      	movs	r6, #0
   246bc:	4632      	mov	r2, r6
   246be:	4633      	mov	r3, r6
   246c0:	df02      	svc	2
   246c2:	287f      	cmp	r0, #127	@ 0x7f
   246c4:	d802      	bhi.n	246cc <_start+0x170>
   246c6:	460c      	mov	r4, r1
   246c8:	462e      	mov	r6, r5
   246ca:	e004      	b.n	246d6 <_start+0x17a>
   246cc:	488d      	ldr	r0, [pc, #564]	@ (24904 <_start+0x3a8>)
   246ce:	4631      	mov	r1, r6
   246d0:	4632      	mov	r2, r6
   246d2:	4633      	mov	r3, r6
   246d4:	df03      	svc	3
   246d6:	488b      	ldr	r0, [pc, #556]	@ (24904 <_start+0x3a8>)
   246d8:	2100      	movs	r1, #0
   246da:	460a      	mov	r2, r1
   246dc:	9105      	str	r1, [sp, #20]
   246de:	460b      	mov	r3, r1
   246e0:	df03      	svc	3
   246e2:	2e00      	cmp	r6, #0
   246e4:	d005      	beq.n	246f2 <_start+0x196>
   246e6:	4887      	ldr	r0, [pc, #540]	@ (24904 <_start+0x3a8>)
   246e8:	2107      	movs	r1, #7
   246ea:	2200      	movs	r2, #0
   246ec:	4613      	mov	r3, r2
   246ee:	df04      	svc	4
   246f0:	e029      	b.n	24746 <_start+0x1ea>
   246f2:	a82f      	add	r0, sp, #188	@ 0xbc
   246f4:	9909      	ldr	r1, [sp, #36]	@ 0x24
   246f6:	6809      	ldr	r1, [r1, #0]
   246f8:	8001      	strh	r1, [r0, #0]
   246fa:	497d      	ldr	r1, [pc, #500]	@ (248f0 <_start+0x394>)
   246fc:	4469      	add	r1, sp
   246fe:	788a      	ldrb	r2, [r1, #2]
   24700:	7082      	strb	r2, [r0, #2]
   24702:	7988      	ldrb	r0, [r1, #6]
   24704:	900b      	str	r0, [sp, #44]	@ 0x2c
   24706:	7948      	ldrb	r0, [r1, #5]
   24708:	9004      	str	r0, [sp, #16]
   2470a:	78c8      	ldrb	r0, [r1, #3]
   2470c:	9003      	str	r0, [sp, #12]
   2470e:	7908      	ldrb	r0, [r1, #4]
   24710:	9002      	str	r0, [sp, #8]
   24712:	1dc9      	adds	r1, r1, #7
   24714:	a81f      	add	r0, sp, #124	@ 0x7c
   24716:	223f      	movs	r2, #63	@ 0x3f
   24718:	f003 fa9f 	bl	27c5a <__aeabi_memcpy>
   2471c:	4879      	ldr	r0, [pc, #484]	@ (24904 <_start+0x3a8>)
   2471e:	2400      	movs	r4, #0
   24720:	4621      	mov	r1, r4
   24722:	4622      	mov	r2, r4
   24724:	4623      	mov	r3, r4
   24726:	df03      	svc	3
   24728:	2107      	movs	r1, #7
   2472a:	4876      	ldr	r0, [pc, #472]	@ (24904 <_start+0x3a8>)
   2472c:	4622      	mov	r2, r4
   2472e:	4623      	mov	r3, r4
   24730:	df04      	svc	4
   24732:	9802      	ldr	r0, [sp, #8]
   24734:	0200      	lsls	r0, r0, #8
   24736:	9903      	ldr	r1, [sp, #12]
   24738:	1840      	adds	r0, r0, r1
   2473a:	9904      	ldr	r1, [sp, #16]
   2473c:	0409      	lsls	r1, r1, #16
   2473e:	9a0b      	ldr	r2, [sp, #44]	@ 0x2c
   24740:	0612      	lsls	r2, r2, #24
   24742:	1851      	adds	r1, r2, r1
   24744:	180c      	adds	r4, r1, r0
   24746:	940b      	str	r4, [sp, #44]	@ 0x2c
   24748:	2e00      	cmp	r6, #0
   2474a:	d005      	beq.n	24758 <_start+0x1fc>
   2474c:	2001      	movs	r0, #1
   2474e:	990b      	ldr	r1, [sp, #44]	@ 0x2c
   24750:	1ffe      	subs	r6, r7, #7
   24752:	3e05      	subs	r6, #5
   24754:	46b5      	mov	sp, r6
   24756:	bdf0      	pop	{r4, r5, r6, r7, pc}
   24758:	4966      	ldr	r1, [pc, #408]	@ (248f4 <_start+0x398>)
   2475a:	4469      	add	r1, sp
   2475c:	9104      	str	r1, [sp, #16]
   2475e:	982f      	ldr	r0, [sp, #188]	@ 0xbc
   24760:	8008      	strh	r0, [r1, #0]
   24762:	a82f      	add	r0, sp, #188	@ 0xbc
   24764:	7880      	ldrb	r0, [r0, #2]
   24766:	7088      	strb	r0, [r1, #2]
   24768:	a81f      	add	r0, sp, #124	@ 0x7c
   2476a:	a90c      	add	r1, sp, #48	@ 0x30
   2476c:	460a      	mov	r2, r1
   2476e:	c838      	ldmia	r0!, {r3, r4, r5}
   24770:	c238      	stmia	r2!, {r3, r4, r5}
   24772:	c878      	ldmia	r0!, {r3, r4, r5, r6}
   24774:	c278      	stmia	r2!, {r3, r4, r5, r6}
   24776:	c878      	ldmia	r0!, {r3, r4, r5, r6}
   24778:	c278      	stmia	r2!, {r3, r4, r5, r6}
   2477a:	c878      	ldmia	r0!, {r3, r4, r5, r6}
   2477c:	c278      	stmia	r2!, {r3, r4, r5, r6}
   2477e:	8803      	ldrh	r3, [r0, #0]
   24780:	8013      	strh	r3, [r2, #0]
   24782:	7880      	ldrb	r0, [r0, #2]
   24784:	7090      	strb	r0, [r2, #2]
   24786:	9c04      	ldr	r4, [sp, #16]
   24788:	1de0      	adds	r0, r4, #7
   2478a:	223f      	movs	r2, #63	@ 0x3f
   2478c:	f003 fa65 	bl	27c5a <__aeabi_memcpy>
   24790:	990b      	ldr	r1, [sp, #44]	@ 0x2c
   24792:	0e08      	lsrs	r0, r1, #24
   24794:	4622      	mov	r2, r4
   24796:	71a0      	strb	r0, [r4, #6]
   24798:	0c08      	lsrs	r0, r1, #16
   2479a:	7160      	strb	r0, [r4, #5]
   2479c:	0a08      	lsrs	r0, r1, #8
   2479e:	7120      	strb	r0, [r4, #4]
   247a0:	70e1      	strb	r1, [r4, #3]
   247a2:	9c09      	ldr	r4, [sp, #36]	@ 0x24
   247a4:	9805      	ldr	r0, [sp, #20]
   247a6:	6020      	str	r0, [r4, #0]
   247a8:	6060      	str	r0, [r4, #4]
   247aa:	60a0      	str	r0, [r4, #8]
   247ac:	60e0      	str	r0, [r4, #12]
   247ae:	6120      	str	r0, [r4, #16]
   247b0:	6160      	str	r0, [r4, #20]
   247b2:	4855      	ldr	r0, [pc, #340]	@ (24908 <_start+0x3ac>)
   247b4:	2103      	movs	r1, #3
   247b6:	2346      	movs	r3, #70	@ 0x46
   247b8:	df04      	svc	4
   247ba:	910b      	str	r1, [sp, #44]	@ 0x2c
   247bc:	2802      	cmp	r0, #2
   247be:	d012      	beq.n	247e6 <_start+0x28a>
   247c0:	4851      	ldr	r0, [pc, #324]	@ (24908 <_start+0x3ac>)
   247c2:	2102      	movs	r1, #2
   247c4:	4a4a      	ldr	r2, [pc, #296]	@ (248f0 <_start+0x394>)
   247c6:	446a      	add	r2, sp
   247c8:	2318      	movs	r3, #24
   247ca:	df03      	svc	3
   247cc:	910b      	str	r1, [sp, #44]	@ 0x2c
   247ce:	2802      	cmp	r0, #2
   247d0:	d009      	beq.n	247e6 <_start+0x28a>
   247d2:	484d      	ldr	r0, [pc, #308]	@ (24908 <_start+0x3ac>)
   247d4:	2103      	movs	r1, #3
   247d6:	2202      	movs	r2, #2
   247d8:	2500      	movs	r5, #0
   247da:	462b      	mov	r3, r5
   247dc:	df02      	svc	2
   247de:	910b      	str	r1, [sp, #44]	@ 0x2c
   247e0:	287f      	cmp	r0, #127	@ 0x7f
   247e2:	d900      	bls.n	247e6 <_start+0x28a>
   247e4:	e07c      	b.n	248e0 <_start+0x384>
   247e6:	9d0a      	ldr	r5, [sp, #40]	@ 0x28
   247e8:	4847      	ldr	r0, [pc, #284]	@ (24908 <_start+0x3ac>)
   247ea:	2102      	movs	r1, #2
   247ec:	2200      	movs	r2, #0
   247ee:	4613      	mov	r3, r2
   247f0:	df03      	svc	3
   247f2:	2d00      	cmp	r5, #0
   247f4:	d007      	beq.n	24806 <_start+0x2aa>
   247f6:	4844      	ldr	r0, [pc, #272]	@ (24908 <_start+0x3ac>)
   247f8:	2103      	movs	r1, #3
   247fa:	2200      	movs	r2, #0
   247fc:	4613      	mov	r3, r2
   247fe:	df04      	svc	4
   24800:	2d00      	cmp	r5, #0
   24802:	d02e      	beq.n	24862 <_start+0x306>
   24804:	e7a2      	b.n	2474c <_start+0x1f0>
   24806:	a834      	add	r0, sp, #208	@ 0xd0
   24808:	6821      	ldr	r1, [r4, #0]
   2480a:	8001      	strh	r1, [r0, #0]
   2480c:	4938      	ldr	r1, [pc, #224]	@ (248f0 <_start+0x394>)
   2480e:	4469      	add	r1, sp
   24810:	788a      	ldrb	r2, [r1, #2]
   24812:	7082      	strb	r2, [r0, #2]
   24814:	7988      	ldrb	r0, [r1, #6]
   24816:	900b      	str	r0, [sp, #44]	@ 0x2c
   24818:	7948      	ldrb	r0, [r1, #5]
   2481a:	9005      	str	r0, [sp, #20]
   2481c:	78c8      	ldrb	r0, [r1, #3]
   2481e:	9004      	str	r0, [sp, #16]
   24820:	7908      	ldrb	r0, [r1, #4]
   24822:	9003      	str	r0, [sp, #12]
   24824:	1dc9      	adds	r1, r1, #7
   24826:	a82f      	add	r0, sp, #188	@ 0xbc
   24828:	2211      	movs	r2, #17
   2482a:	f003 fa16 	bl	27c5a <__aeabi_memcpy>
   2482e:	4c36      	ldr	r4, [pc, #216]	@ (24908 <_start+0x3ac>)
   24830:	2102      	movs	r1, #2
   24832:	2600      	movs	r6, #0
   24834:	4620      	mov	r0, r4
   24836:	4632      	mov	r2, r6
   24838:	4633      	mov	r3, r6
   2483a:	df03      	svc	3
   2483c:	2103      	movs	r1, #3
   2483e:	4620      	mov	r0, r4
   24840:	4632      	mov	r2, r6
   24842:	4633      	mov	r3, r6
   24844:	df04      	svc	4
   24846:	9803      	ldr	r0, [sp, #12]
   24848:	0200      	lsls	r0, r0, #8
   2484a:	9904      	ldr	r1, [sp, #16]
   2484c:	1840      	adds	r0, r0, r1
   2484e:	9905      	ldr	r1, [sp, #20]
   24850:	0409      	lsls	r1, r1, #16
   24852:	9a0b      	ldr	r2, [sp, #44]	@ 0x2c
   24854:	0612      	lsls	r2, r2, #24
   24856:	1851      	adds	r1, r2, r1
   24858:	1808      	adds	r0, r1, r0
   2485a:	900b      	str	r0, [sp, #44]	@ 0x2c
   2485c:	2d00      	cmp	r5, #0
   2485e:	d000      	beq.n	24862 <_start+0x306>
   24860:	e774      	b.n	2474c <_start+0x1f0>
   24862:	ad1f      	add	r5, sp, #124	@ 0x7c
   24864:	9834      	ldr	r0, [sp, #208]	@ 0xd0
   24866:	8028      	strh	r0, [r5, #0]
   24868:	a834      	add	r0, sp, #208	@ 0xd0
   2486a:	7880      	ldrb	r0, [r0, #2]
   2486c:	70a8      	strb	r0, [r5, #2]
   2486e:	a92f      	add	r1, sp, #188	@ 0xbc
   24870:	aa0c      	add	r2, sp, #48	@ 0x30
   24872:	9205      	str	r2, [sp, #20]
   24874:	c959      	ldmia	r1!, {r0, r3, r4, r6}
   24876:	c259      	stmia	r2!, {r0, r3, r4, r6}
   24878:	7808      	ldrb	r0, [r1, #0]
   2487a:	7010      	strb	r0, [r2, #0]
   2487c:	1de8      	adds	r0, r5, #7
   2487e:	2211      	movs	r2, #17
   24880:	9905      	ldr	r1, [sp, #20]
   24882:	f003 f9ea 	bl	27c5a <__aeabi_memcpy>
   24886:	990b      	ldr	r1, [sp, #44]	@ 0x2c
   24888:	0e08      	lsrs	r0, r1, #24
   2488a:	71a8      	strb	r0, [r5, #6]
   2488c:	0c08      	lsrs	r0, r1, #16
   2488e:	7168      	strb	r0, [r5, #5]
   24890:	0a08      	lsrs	r0, r1, #8
   24892:	7128      	strb	r0, [r5, #4]
   24894:	70e9      	strb	r1, [r5, #3]
   24896:	4817      	ldr	r0, [pc, #92]	@ (248f4 <_start+0x398>)
   24898:	4468      	add	r0, sp
   2489a:	2136      	movs	r1, #54	@ 0x36
   2489c:	f003 f830 	bl	27900 <__aeabi_memclr4>
   248a0:	481a      	ldr	r0, [pc, #104]	@ (2490c <_start+0x3b0>)
   248a2:	2100      	movs	r1, #0
   248a4:	2318      	movs	r3, #24
   248a6:	462a      	mov	r2, r5
   248a8:	df04      	svc	4
   248aa:	2802      	cmp	r0, #2
   248ac:	d103      	bne.n	248b6 <_start+0x35a>
   248ae:	910b      	str	r1, [sp, #44]	@ 0x2c
   248b0:	9d0a      	ldr	r5, [sp, #40]	@ 0x28
   248b2:	9c09      	ldr	r4, [sp, #36]	@ 0x24
   248b4:	e031      	b.n	2491a <_start+0x3be>
   248b6:	4815      	ldr	r0, [pc, #84]	@ (2490c <_start+0x3b0>)
   248b8:	2107      	movs	r1, #7
   248ba:	4a0e      	ldr	r2, [pc, #56]	@ (248f4 <_start+0x398>)
   248bc:	446a      	add	r2, sp
   248be:	2336      	movs	r3, #54	@ 0x36
   248c0:	df03      	svc	3
   248c2:	910b      	str	r1, [sp, #44]	@ 0x2c
   248c4:	2802      	cmp	r0, #2
   248c6:	9c09      	ldr	r4, [sp, #36]	@ 0x24
   248c8:	d008      	beq.n	248dc <_start+0x380>
   248ca:	4810      	ldr	r0, [pc, #64]	@ (2490c <_start+0x3b0>)
   248cc:	2207      	movs	r2, #7
   248ce:	2500      	movs	r5, #0
   248d0:	4629      	mov	r1, r5
   248d2:	462b      	mov	r3, r5
   248d4:	df02      	svc	2
   248d6:	910b      	str	r1, [sp, #44]	@ 0x2c
   248d8:	287f      	cmp	r0, #127	@ 0x7f
   248da:	d819      	bhi.n	24910 <_start+0x3b4>
   248dc:	9d0a      	ldr	r5, [sp, #40]	@ 0x28
   248de:	e01c      	b.n	2491a <_start+0x3be>
   248e0:	4809      	ldr	r0, [pc, #36]	@ (24908 <_start+0x3ac>)
   248e2:	2102      	movs	r1, #2
   248e4:	462a      	mov	r2, r5
   248e6:	462b      	mov	r3, r5
   248e8:	df03      	svc	3
   248ea:	e77d      	b.n	247e8 <_start+0x28c>
   248ec:	ffffeadc 	.word	0xffffeadc
   248f0:	000013a8 	.word	0x000013a8
   248f4:	00001404 	.word	0x00001404
   248f8:	00002006 	.word	0x00002006
   248fc:	00000508 	.word	0x00000508
   24900:	000007dc 	.word	0x000007dc
   24904:	000020c4 	.word	0x000020c4
   24908:	000023cf 	.word	0x000023cf
   2490c:	0000021f 	.word	0x0000021f
   24910:	48d8      	ldr	r0, [pc, #864]	@ (24c74 <_start+0x718>)
   24912:	2107      	movs	r1, #7
   24914:	462a      	mov	r2, r5
   24916:	462b      	mov	r3, r5
   24918:	df03      	svc	3
   2491a:	48d6      	ldr	r0, [pc, #856]	@ (24c74 <_start+0x718>)
   2491c:	2107      	movs	r1, #7
   2491e:	2200      	movs	r2, #0
   24920:	4613      	mov	r3, r2
   24922:	df03      	svc	3
   24924:	2d00      	cmp	r5, #0
   24926:	d007      	beq.n	24938 <_start+0x3dc>
   24928:	48d2      	ldr	r0, [pc, #840]	@ (24c74 <_start+0x718>)
   2492a:	2100      	movs	r1, #0
   2492c:	460a      	mov	r2, r1
   2492e:	460b      	mov	r3, r1
   24930:	df04      	svc	4
   24932:	2d00      	cmp	r5, #0
   24934:	d02e      	beq.n	24994 <_start+0x438>
   24936:	e709      	b.n	2474c <_start+0x1f0>
   24938:	a82f      	add	r0, sp, #188	@ 0xbc
   2493a:	6de1      	ldr	r1, [r4, #92]	@ 0x5c
   2493c:	8001      	strh	r1, [r0, #0]
   2493e:	49ce      	ldr	r1, [pc, #824]	@ (24c78 <_start+0x71c>)
   24940:	4469      	add	r1, sp
   24942:	788a      	ldrb	r2, [r1, #2]
   24944:	7082      	strb	r2, [r0, #2]
   24946:	7988      	ldrb	r0, [r1, #6]
   24948:	900b      	str	r0, [sp, #44]	@ 0x2c
   2494a:	7948      	ldrb	r0, [r1, #5]
   2494c:	9005      	str	r0, [sp, #20]
   2494e:	78c8      	ldrb	r0, [r1, #3]
   24950:	9004      	str	r0, [sp, #16]
   24952:	7908      	ldrb	r0, [r1, #4]
   24954:	9003      	str	r0, [sp, #12]
   24956:	1dc9      	adds	r1, r1, #7
   24958:	a80c      	add	r0, sp, #48	@ 0x30
   2495a:	222f      	movs	r2, #47	@ 0x2f
   2495c:	f003 f97d 	bl	27c5a <__aeabi_memcpy>
   24960:	4cc4      	ldr	r4, [pc, #784]	@ (24c74 <_start+0x718>)
   24962:	2107      	movs	r1, #7
   24964:	2600      	movs	r6, #0
   24966:	4620      	mov	r0, r4
   24968:	4632      	mov	r2, r6
   2496a:	4633      	mov	r3, r6
   2496c:	df03      	svc	3
   2496e:	4620      	mov	r0, r4
   24970:	4631      	mov	r1, r6
   24972:	4632      	mov	r2, r6
   24974:	4633      	mov	r3, r6
   24976:	df04      	svc	4
   24978:	9803      	ldr	r0, [sp, #12]
   2497a:	0200      	lsls	r0, r0, #8
   2497c:	9904      	ldr	r1, [sp, #16]
   2497e:	1840      	adds	r0, r0, r1
   24980:	9905      	ldr	r1, [sp, #20]
   24982:	0409      	lsls	r1, r1, #16
   24984:	9a0b      	ldr	r2, [sp, #44]	@ 0x2c
   24986:	0612      	lsls	r2, r2, #24
   24988:	1851      	adds	r1, r2, r1
   2498a:	1808      	adds	r0, r1, r0
   2498c:	900b      	str	r0, [sp, #44]	@ 0x2c
   2498e:	2d00      	cmp	r5, #0
   24990:	d000      	beq.n	24994 <_start+0x438>
   24992:	e6db      	b.n	2474c <_start+0x1f0>
   24994:	49b8      	ldr	r1, [pc, #736]	@ (24c78 <_start+0x71c>)
   24996:	4469      	add	r1, sp
   24998:	9105      	str	r1, [sp, #20]
   2499a:	982f      	ldr	r0, [sp, #188]	@ 0xbc
   2499c:	8008      	strh	r0, [r1, #0]
   2499e:	a82f      	add	r0, sp, #188	@ 0xbc
   249a0:	7880      	ldrb	r0, [r0, #2]
   249a2:	7088      	strb	r0, [r1, #2]
   249a4:	a80c      	add	r0, sp, #48	@ 0x30
   249a6:	49b5      	ldr	r1, [pc, #724]	@ (24c7c <_start+0x720>)
   249a8:	4469      	add	r1, sp
   249aa:	460a      	mov	r2, r1
   249ac:	c858      	ldmia	r0!, {r3, r4, r6}
   249ae:	c258      	stmia	r2!, {r3, r4, r6}
   249b0:	c878      	ldmia	r0!, {r3, r4, r5, r6}
   249b2:	c278      	stmia	r2!, {r3, r4, r5, r6}
   249b4:	c878      	ldmia	r0!, {r3, r4, r5, r6}
   249b6:	c278      	stmia	r2!, {r3, r4, r5, r6}
   249b8:	8803      	ldrh	r3, [r0, #0]
   249ba:	8013      	strh	r3, [r2, #0]
   249bc:	7880      	ldrb	r0, [r0, #2]
   249be:	7090      	strb	r0, [r2, #2]
   249c0:	9c05      	ldr	r4, [sp, #20]
   249c2:	1de0      	adds	r0, r4, #7
   249c4:	222f      	movs	r2, #47	@ 0x2f
   249c6:	f003 f948 	bl	27c5a <__aeabi_memcpy>
   249ca:	990b      	ldr	r1, [sp, #44]	@ 0x2c
   249cc:	0e08      	lsrs	r0, r1, #24
   249ce:	71a0      	strb	r0, [r4, #6]
   249d0:	0c08      	lsrs	r0, r1, #16
   249d2:	7160      	strb	r0, [r4, #5]
   249d4:	0a08      	lsrs	r0, r1, #8
   249d6:	7120      	strb	r0, [r4, #4]
   249d8:	70e1      	strb	r1, [r4, #3]
   249da:	48a8      	ldr	r0, [pc, #672]	@ (24c7c <_start+0x720>)
   249dc:	4468      	add	r0, sp
   249de:	2125      	movs	r1, #37	@ 0x25
   249e0:	f002 ff8e 	bl	27900 <__aeabi_memclr4>
   249e4:	48a6      	ldr	r0, [pc, #664]	@ (24c80 <_start+0x724>)
   249e6:	2107      	movs	r1, #7
   249e8:	2336      	movs	r3, #54	@ 0x36
   249ea:	4622      	mov	r2, r4
   249ec:	df04      	svc	4
   249ee:	2802      	cmp	r0, #2
   249f0:	d102      	bne.n	249f8 <_start+0x49c>
   249f2:	460c      	mov	r4, r1
   249f4:	9e0a      	ldr	r6, [sp, #40]	@ 0x28
   249f6:	e018      	b.n	24a2a <_start+0x4ce>
   249f8:	48a1      	ldr	r0, [pc, #644]	@ (24c80 <_start+0x724>)
   249fa:	2100      	movs	r1, #0
   249fc:	4a9f      	ldr	r2, [pc, #636]	@ (24c7c <_start+0x720>)
   249fe:	446a      	add	r2, sp
   24a00:	2325      	movs	r3, #37	@ 0x25
   24a02:	df03      	svc	3
   24a04:	2802      	cmp	r0, #2
   24a06:	9d0a      	ldr	r5, [sp, #40]	@ 0x28
   24a08:	d007      	beq.n	24a1a <_start+0x4be>
   24a0a:	489d      	ldr	r0, [pc, #628]	@ (24c80 <_start+0x724>)
   24a0c:	2107      	movs	r1, #7
   24a0e:	2600      	movs	r6, #0
   24a10:	4632      	mov	r2, r6
   24a12:	4633      	mov	r3, r6
   24a14:	df02      	svc	2
   24a16:	287f      	cmp	r0, #127	@ 0x7f
   24a18:	d802      	bhi.n	24a20 <_start+0x4c4>
   24a1a:	460c      	mov	r4, r1
   24a1c:	462e      	mov	r6, r5
   24a1e:	e004      	b.n	24a2a <_start+0x4ce>
   24a20:	4897      	ldr	r0, [pc, #604]	@ (24c80 <_start+0x724>)
   24a22:	4631      	mov	r1, r6
   24a24:	4632      	mov	r2, r6
   24a26:	4633      	mov	r3, r6
   24a28:	df03      	svc	3
   24a2a:	4895      	ldr	r0, [pc, #596]	@ (24c80 <_start+0x724>)
   24a2c:	2500      	movs	r5, #0
   24a2e:	4629      	mov	r1, r5
   24a30:	462a      	mov	r2, r5
   24a32:	462b      	mov	r3, r5
   24a34:	df03      	svc	3
   24a36:	2e00      	cmp	r6, #0
   24a38:	d005      	beq.n	24a46 <_start+0x4ea>
   24a3a:	4891      	ldr	r0, [pc, #580]	@ (24c80 <_start+0x724>)
   24a3c:	2107      	movs	r1, #7
   24a3e:	2200      	movs	r2, #0
   24a40:	4613      	mov	r3, r2
   24a42:	df04      	svc	4
   24a44:	e029      	b.n	24a9a <_start+0x53e>
   24a46:	a82f      	add	r0, sp, #188	@ 0xbc
   24a48:	9909      	ldr	r1, [sp, #36]	@ 0x24
   24a4a:	6809      	ldr	r1, [r1, #0]
   24a4c:	8001      	strh	r1, [r0, #0]
   24a4e:	498b      	ldr	r1, [pc, #556]	@ (24c7c <_start+0x720>)
   24a50:	4469      	add	r1, sp
   24a52:	788a      	ldrb	r2, [r1, #2]
   24a54:	7082      	strb	r2, [r0, #2]
   24a56:	7988      	ldrb	r0, [r1, #6]
   24a58:	900b      	str	r0, [sp, #44]	@ 0x2c
   24a5a:	7948      	ldrb	r0, [r1, #5]
   24a5c:	9005      	str	r0, [sp, #20]
   24a5e:	78c8      	ldrb	r0, [r1, #3]
   24a60:	9004      	str	r0, [sp, #16]
   24a62:	7908      	ldrb	r0, [r1, #4]
   24a64:	9003      	str	r0, [sp, #12]
   24a66:	1dc9      	adds	r1, r1, #7
   24a68:	a81f      	add	r0, sp, #124	@ 0x7c
   24a6a:	221e      	movs	r2, #30
   24a6c:	f003 f8f5 	bl	27c5a <__aeabi_memcpy>
   24a70:	4883      	ldr	r0, [pc, #524]	@ (24c80 <_start+0x724>)
   24a72:	2400      	movs	r4, #0
   24a74:	4621      	mov	r1, r4
   24a76:	4622      	mov	r2, r4
   24a78:	4623      	mov	r3, r4
   24a7a:	df03      	svc	3
   24a7c:	2107      	movs	r1, #7
   24a7e:	4880      	ldr	r0, [pc, #512]	@ (24c80 <_start+0x724>)
   24a80:	4622      	mov	r2, r4
   24a82:	4623      	mov	r3, r4
   24a84:	df04      	svc	4
   24a86:	9803      	ldr	r0, [sp, #12]
   24a88:	0200      	lsls	r0, r0, #8
   24a8a:	9904      	ldr	r1, [sp, #16]
   24a8c:	1840      	adds	r0, r0, r1
   24a8e:	9905      	ldr	r1, [sp, #20]
   24a90:	0409      	lsls	r1, r1, #16
   24a92:	9a0b      	ldr	r2, [sp, #44]	@ 0x2c
   24a94:	0612      	lsls	r2, r2, #24
   24a96:	1851      	adds	r1, r2, r1
   24a98:	180c      	adds	r4, r1, r0
   24a9a:	940b      	str	r4, [sp, #44]	@ 0x2c
   24a9c:	2e00      	cmp	r6, #0
   24a9e:	d000      	beq.n	24aa2 <_start+0x546>
   24aa0:	e654      	b.n	2474c <_start+0x1f0>
   24aa2:	4975      	ldr	r1, [pc, #468]	@ (24c78 <_start+0x71c>)
   24aa4:	4469      	add	r1, sp
   24aa6:	9104      	str	r1, [sp, #16]
   24aa8:	982f      	ldr	r0, [sp, #188]	@ 0xbc
   24aaa:	8008      	strh	r0, [r1, #0]
   24aac:	a82f      	add	r0, sp, #188	@ 0xbc
   24aae:	7880      	ldrb	r0, [r0, #2]
   24ab0:	7088      	strb	r0, [r1, #2]
   24ab2:	a81f      	add	r0, sp, #124	@ 0x7c
   24ab4:	a90c      	add	r1, sp, #48	@ 0x30
   24ab6:	460a      	mov	r2, r1
   24ab8:	9505      	str	r5, [sp, #20]
   24aba:	c838      	ldmia	r0!, {r3, r4, r5}
   24abc:	c238      	stmia	r2!, {r3, r4, r5}
   24abe:	c878      	ldmia	r0!, {r3, r4, r5, r6}
   24ac0:	c278      	stmia	r2!, {r3, r4, r5, r6}
   24ac2:	8800      	ldrh	r0, [r0, #0]
   24ac4:	8010      	strh	r0, [r2, #0]
   24ac6:	9c04      	ldr	r4, [sp, #16]
   24ac8:	1de0      	adds	r0, r4, #7
   24aca:	221e      	movs	r2, #30
   24acc:	f003 f8c5 	bl	27c5a <__aeabi_memcpy>
   24ad0:	990b      	ldr	r1, [sp, #44]	@ 0x2c
   24ad2:	0e08      	lsrs	r0, r1, #24
   24ad4:	4622      	mov	r2, r4
   24ad6:	71a0      	strb	r0, [r4, #6]
   24ad8:	0c08      	lsrs	r0, r1, #16
   24ada:	7160      	strb	r0, [r4, #5]
   24adc:	0a08      	lsrs	r0, r1, #8
   24ade:	7120      	strb	r0, [r4, #4]
   24ae0:	70e1      	strb	r1, [r4, #3]
   24ae2:	4866      	ldr	r0, [pc, #408]	@ (24c7c <_start+0x720>)
   24ae4:	4468      	add	r0, sp
   24ae6:	9905      	ldr	r1, [sp, #20]
   24ae8:	8181      	strh	r1, [r0, #12]
   24aea:	9e09      	ldr	r6, [sp, #36]	@ 0x24
   24aec:	6031      	str	r1, [r6, #0]
   24aee:	6071      	str	r1, [r6, #4]
   24af0:	60b1      	str	r1, [r6, #8]
   24af2:	4864      	ldr	r0, [pc, #400]	@ (24c84 <_start+0x728>)
   24af4:	2102      	movs	r1, #2
   24af6:	2325      	movs	r3, #37	@ 0x25
   24af8:	df04      	svc	4
   24afa:	2802      	cmp	r0, #2
   24afc:	d010      	beq.n	24b20 <_start+0x5c4>
   24afe:	4861      	ldr	r0, [pc, #388]	@ (24c84 <_start+0x728>)
   24b00:	2108      	movs	r1, #8
   24b02:	4a5e      	ldr	r2, [pc, #376]	@ (24c7c <_start+0x720>)
   24b04:	446a      	add	r2, sp
   24b06:	230e      	movs	r3, #14
   24b08:	df03      	svc	3
   24b0a:	2802      	cmp	r0, #2
   24b0c:	d008      	beq.n	24b20 <_start+0x5c4>
   24b0e:	485d      	ldr	r0, [pc, #372]	@ (24c84 <_start+0x728>)
   24b10:	2102      	movs	r1, #2
   24b12:	2208      	movs	r2, #8
   24b14:	2500      	movs	r5, #0
   24b16:	462b      	mov	r3, r5
   24b18:	df02      	svc	2
   24b1a:	287f      	cmp	r0, #127	@ 0x7f
   24b1c:	d900      	bls.n	24b20 <_start+0x5c4>
   24b1e:	e0a3      	b.n	24c68 <_start+0x70c>
   24b20:	460c      	mov	r4, r1
   24b22:	9d0a      	ldr	r5, [sp, #40]	@ 0x28
   24b24:	4857      	ldr	r0, [pc, #348]	@ (24c84 <_start+0x728>)
   24b26:	2108      	movs	r1, #8
   24b28:	2200      	movs	r2, #0
   24b2a:	4613      	mov	r3, r2
   24b2c:	df03      	svc	3
   24b2e:	2d00      	cmp	r5, #0
   24b30:	d005      	beq.n	24b3e <_start+0x5e2>
   24b32:	4854      	ldr	r0, [pc, #336]	@ (24c84 <_start+0x728>)
   24b34:	2102      	movs	r1, #2
   24b36:	2200      	movs	r2, #0
   24b38:	4613      	mov	r3, r2
   24b3a:	df04      	svc	4
   24b3c:	e037      	b.n	24bae <_start+0x652>
   24b3e:	a92f      	add	r1, sp, #188	@ 0xbc
   24b40:	6830      	ldr	r0, [r6, #0]
   24b42:	8008      	strh	r0, [r1, #0]
   24b44:	484d      	ldr	r0, [pc, #308]	@ (24c7c <_start+0x720>)
   24b46:	4468      	add	r0, sp
   24b48:	7882      	ldrb	r2, [r0, #2]
   24b4a:	708a      	strb	r2, [r1, #2]
   24b4c:	7b41      	ldrb	r1, [r0, #13]
   24b4e:	aa1f      	add	r2, sp, #124	@ 0x7c
   24b50:	7191      	strb	r1, [r2, #6]
   24b52:	7ac1      	ldrb	r1, [r0, #11]
   24b54:	68f3      	ldr	r3, [r6, #12]
   24b56:	021b      	lsls	r3, r3, #8
   24b58:	1859      	adds	r1, r3, r1
   24b5a:	8091      	strh	r1, [r2, #4]
   24b5c:	79c1      	ldrb	r1, [r0, #7]
   24b5e:	7a02      	ldrb	r2, [r0, #8]
   24b60:	0212      	lsls	r2, r2, #8
   24b62:	1851      	adds	r1, r2, r1
   24b64:	7a42      	ldrb	r2, [r0, #9]
   24b66:	0412      	lsls	r2, r2, #16
   24b68:	7a83      	ldrb	r3, [r0, #10]
   24b6a:	061b      	lsls	r3, r3, #24
   24b6c:	189a      	adds	r2, r3, r2
   24b6e:	1851      	adds	r1, r2, r1
   24b70:	911f      	str	r1, [sp, #124]	@ 0x7c
   24b72:	7981      	ldrb	r1, [r0, #6]
   24b74:	910b      	str	r1, [sp, #44]	@ 0x2c
   24b76:	7941      	ldrb	r1, [r0, #5]
   24b78:	910a      	str	r1, [sp, #40]	@ 0x28
   24b7a:	78c1      	ldrb	r1, [r0, #3]
   24b7c:	9105      	str	r1, [sp, #20]
   24b7e:	7906      	ldrb	r6, [r0, #4]
   24b80:	4840      	ldr	r0, [pc, #256]	@ (24c84 <_start+0x728>)
   24b82:	2108      	movs	r1, #8
   24b84:	462c      	mov	r4, r5
   24b86:	2500      	movs	r5, #0
   24b88:	462a      	mov	r2, r5
   24b8a:	462b      	mov	r3, r5
   24b8c:	df03      	svc	3
   24b8e:	2102      	movs	r1, #2
   24b90:	483c      	ldr	r0, [pc, #240]	@ (24c84 <_start+0x728>)
   24b92:	462a      	mov	r2, r5
   24b94:	462b      	mov	r3, r5
   24b96:	4625      	mov	r5, r4
   24b98:	df04      	svc	4
   24b9a:	0230      	lsls	r0, r6, #8
   24b9c:	9e09      	ldr	r6, [sp, #36]	@ 0x24
   24b9e:	9905      	ldr	r1, [sp, #20]
   24ba0:	1840      	adds	r0, r0, r1
   24ba2:	990a      	ldr	r1, [sp, #40]	@ 0x28
   24ba4:	0409      	lsls	r1, r1, #16
   24ba6:	9a0b      	ldr	r2, [sp, #44]	@ 0x2c
   24ba8:	0612      	lsls	r2, r2, #24
   24baa:	1851      	adds	r1, r2, r1
   24bac:	180c      	adds	r4, r1, r0
   24bae:	2d00      	cmp	r5, #0
   24bb0:	d001      	beq.n	24bb6 <_start+0x65a>
   24bb2:	940b      	str	r4, [sp, #44]	@ 0x2c
   24bb4:	e5ca      	b.n	2474c <_start+0x1f0>
   24bb6:	ad35      	add	r5, sp, #212	@ 0xd4
   24bb8:	982f      	ldr	r0, [sp, #188]	@ 0xbc
   24bba:	8028      	strh	r0, [r5, #0]
   24bbc:	a90c      	add	r1, sp, #48	@ 0x30
   24bbe:	9820      	ldr	r0, [sp, #128]	@ 0x80
   24bc0:	8088      	strh	r0, [r1, #4]
   24bc2:	a82f      	add	r0, sp, #188	@ 0xbc
   24bc4:	7880      	ldrb	r0, [r0, #2]
   24bc6:	70a8      	strb	r0, [r5, #2]
   24bc8:	a81f      	add	r0, sp, #124	@ 0x7c
   24bca:	7980      	ldrb	r0, [r0, #6]
   24bcc:	7188      	strb	r0, [r1, #6]
   24bce:	70ec      	strb	r4, [r5, #3]
   24bd0:	0e20      	lsrs	r0, r4, #24
   24bd2:	71a8      	strb	r0, [r5, #6]
   24bd4:	0c20      	lsrs	r0, r4, #16
   24bd6:	7168      	strb	r0, [r5, #5]
   24bd8:	0a20      	lsrs	r0, r4, #8
   24bda:	7128      	strb	r0, [r5, #4]
   24bdc:	981f      	ldr	r0, [sp, #124]	@ 0x7c
   24bde:	900c      	str	r0, [sp, #48]	@ 0x30
   24be0:	1de8      	adds	r0, r5, #7
   24be2:	2207      	movs	r2, #7
   24be4:	f003 f839 	bl	27c5a <__aeabi_memcpy>
   24be8:	4c23      	ldr	r4, [pc, #140]	@ (24c78 <_start+0x71c>)
   24bea:	446c      	add	r4, sp
   24bec:	4620      	mov	r0, r4
   24bee:	4629      	mov	r1, r5
   24bf0:	f7fb fad2 	bl	20198 <_ZN18complex_no_dynamic3app17h02c1a6d3d9ffb497E>
   24bf4:	7824      	ldrb	r4, [r4, #0]
   24bf6:	2c00      	cmp	r4, #0
   24bf8:	d002      	beq.n	24c00 <_start+0x6a4>
   24bfa:	6e30      	ldr	r0, [r6, #96]	@ 0x60
   24bfc:	900b      	str	r0, [sp, #44]	@ 0x2c
   24bfe:	e011      	b.n	24c24 <_start+0x6c8>
   24c00:	491d      	ldr	r1, [pc, #116]	@ (24c78 <_start+0x71c>)
   24c02:	4469      	add	r1, sp
   24c04:	78c8      	ldrb	r0, [r1, #3]
   24c06:	aa0c      	add	r2, sp, #48	@ 0x30
   24c08:	7090      	strb	r0, [r2, #2]
   24c0a:	7848      	ldrb	r0, [r1, #1]
   24c0c:	788b      	ldrb	r3, [r1, #2]
   24c0e:	021b      	lsls	r3, r3, #8
   24c10:	1818      	adds	r0, r3, r0
   24c12:	8010      	strh	r0, [r2, #0]
   24c14:	6e30      	ldr	r0, [r6, #96]	@ 0x60
   24c16:	900b      	str	r0, [sp, #44]	@ 0x2c
   24c18:	3108      	adds	r1, #8
   24c1a:	4818      	ldr	r0, [pc, #96]	@ (24c7c <_start+0x720>)
   24c1c:	4468      	add	r0, sp
   24c1e:	2241      	movs	r2, #65	@ 0x41
   24c20:	f002 febb 	bl	2799a <__aeabi_memcpy4>
   24c24:	2c00      	cmp	r4, #0
   24c26:	d000      	beq.n	24c2a <_start+0x6ce>
   24c28:	e590      	b.n	2474c <_start+0x1f0>
   24c2a:	ad39      	add	r5, sp, #228	@ 0xe4
   24c2c:	990b      	ldr	r1, [sp, #44]	@ 0x2c
   24c2e:	70e9      	strb	r1, [r5, #3]
   24c30:	980c      	ldr	r0, [sp, #48]	@ 0x30
   24c32:	8028      	strh	r0, [r5, #0]
   24c34:	0e08      	lsrs	r0, r1, #24
   24c36:	71a8      	strb	r0, [r5, #6]
   24c38:	0c08      	lsrs	r0, r1, #16
   24c3a:	7168      	strb	r0, [r5, #5]
   24c3c:	0a08      	lsrs	r0, r1, #8
   24c3e:	7128      	strb	r0, [r5, #4]
   24c40:	a80c      	add	r0, sp, #48	@ 0x30
   24c42:	7880      	ldrb	r0, [r0, #2]
   24c44:	70a8      	strb	r0, [r5, #2]
   24c46:	1de8      	adds	r0, r5, #7
   24c48:	490c      	ldr	r1, [pc, #48]	@ (24c7c <_start+0x720>)
   24c4a:	4469      	add	r1, sp
   24c4c:	2241      	movs	r2, #65	@ 0x41
   24c4e:	f003 f804 	bl	27c5a <__aeabi_memcpy>
   24c52:	4c09      	ldr	r4, [pc, #36]	@ (24c78 <_start+0x71c>)
   24c54:	446c      	add	r4, sp
   24c56:	4620      	mov	r0, r4
   24c58:	4629      	mov	r1, r5
   24c5a:	f7fc ffcd 	bl	21bf8 <_ZN18complex_no_dynamic3app17h4824f0c8efd79ef0E>
   24c5e:	7821      	ldrb	r1, [r4, #0]
   24c60:	2901      	cmp	r1, #1
   24c62:	d111      	bne.n	24c88 <_start+0x72c>
   24c64:	6e34      	ldr	r4, [r6, #96]	@ 0x60
   24c66:	e01d      	b.n	24ca4 <_start+0x748>
   24c68:	4806      	ldr	r0, [pc, #24]	@ (24c84 <_start+0x728>)
   24c6a:	2108      	movs	r1, #8
   24c6c:	462a      	mov	r2, r5
   24c6e:	462b      	mov	r3, r5
   24c70:	df03      	svc	3
   24c72:	e757      	b.n	24b24 <_start+0x5c8>
   24c74:	0000021f 	.word	0x0000021f
   24c78:	00001404 	.word	0x00001404
   24c7c:	000013a8 	.word	0x000013a8
   24c80:	00001597 	.word	0x00001597
   24c84:	00000667 	.word	0x00000667
   24c88:	48e3      	ldr	r0, [pc, #908]	@ (25018 <_start+0xabc>)
   24c8a:	4468      	add	r0, sp
   24c8c:	78c2      	ldrb	r2, [r0, #3]
   24c8e:	4be3      	ldr	r3, [pc, #908]	@ (2501c <_start+0xac0>)
   24c90:	446b      	add	r3, sp
   24c92:	709a      	strb	r2, [r3, #2]
   24c94:	7842      	ldrb	r2, [r0, #1]
   24c96:	7880      	ldrb	r0, [r0, #2]
   24c98:	0200      	lsls	r0, r0, #8
   24c9a:	1880      	adds	r0, r0, r2
   24c9c:	8018      	strh	r0, [r3, #0]
   24c9e:	6e34      	ldr	r4, [r6, #96]	@ 0x60
   24ca0:	6e72      	ldr	r2, [r6, #100]	@ 0x64
   24ca2:	6eb0      	ldr	r0, [r6, #104]	@ 0x68
   24ca4:	2900      	cmp	r1, #0
   24ca6:	d184      	bne.n	24bb2 <_start+0x656>
   24ca8:	9908      	ldr	r1, [sp, #32]
   24caa:	1ccb      	adds	r3, r1, #3
   24cac:	711a      	strb	r2, [r3, #4]
   24cae:	701c      	strb	r4, [r3, #0]
   24cb0:	a94b      	add	r1, sp, #300	@ 0x12c
   24cb2:	4625      	mov	r5, r4
   24cb4:	6834      	ldr	r4, [r6, #0]
   24cb6:	800c      	strh	r4, [r1, #0]
   24cb8:	7218      	strb	r0, [r3, #8]
   24cba:	0e14      	lsrs	r4, r2, #24
   24cbc:	71dc      	strb	r4, [r3, #7]
   24cbe:	0c14      	lsrs	r4, r2, #16
   24cc0:	719c      	strb	r4, [r3, #6]
   24cc2:	0a12      	lsrs	r2, r2, #8
   24cc4:	715a      	strb	r2, [r3, #5]
   24cc6:	0e2a      	lsrs	r2, r5, #24
   24cc8:	70da      	strb	r2, [r3, #3]
   24cca:	0c2a      	lsrs	r2, r5, #16
   24ccc:	709a      	strb	r2, [r3, #2]
   24cce:	0a2a      	lsrs	r2, r5, #8
   24cd0:	705a      	strb	r2, [r3, #1]
   24cd2:	4af1      	ldr	r2, [pc, #964]	@ (25098 <_start+0xb3c>)
   24cd4:	446a      	add	r2, sp
   24cd6:	7892      	ldrb	r2, [r2, #2]
   24cd8:	708a      	strb	r2, [r1, #2]
   24cda:	0e02      	lsrs	r2, r0, #24
   24cdc:	72da      	strb	r2, [r3, #11]
   24cde:	0c02      	lsrs	r2, r0, #16
   24ce0:	729a      	strb	r2, [r3, #10]
   24ce2:	0a00      	lsrs	r0, r0, #8
   24ce4:	7258      	strb	r0, [r3, #9]
   24ce6:	4ceb      	ldr	r4, [pc, #940]	@ (25094 <_start+0xb38>)
   24ce8:	446c      	add	r4, sp
   24cea:	4620      	mov	r0, r4
   24cec:	f7fe ff2e 	bl	23b4c <_ZN18complex_no_dynamic3app17hd106c67881dba202E>
   24cf0:	7820      	ldrb	r0, [r4, #0]
   24cf2:	2801      	cmp	r0, #1
   24cf4:	d102      	bne.n	24cfc <_start+0x7a0>
   24cf6:	6e31      	ldr	r1, [r6, #96]	@ 0x60
   24cf8:	910b      	str	r1, [sp, #44]	@ 0x2c
   24cfa:	e015      	b.n	24d28 <_start+0x7cc>
   24cfc:	49e5      	ldr	r1, [pc, #916]	@ (25094 <_start+0xb38>)
   24cfe:	4469      	add	r1, sp
   24d00:	78ca      	ldrb	r2, [r1, #3]
   24d02:	ab0c      	add	r3, sp, #48	@ 0x30
   24d04:	709a      	strb	r2, [r3, #2]
   24d06:	784a      	ldrb	r2, [r1, #1]
   24d08:	788c      	ldrb	r4, [r1, #2]
   24d0a:	0224      	lsls	r4, r4, #8
   24d0c:	18a2      	adds	r2, r4, r2
   24d0e:	801a      	strh	r2, [r3, #0]
   24d10:	3108      	adds	r1, #8
   24d12:	6e32      	ldr	r2, [r6, #96]	@ 0x60
   24d14:	920b      	str	r2, [sp, #44]	@ 0x2c
   24d16:	4ae0      	ldr	r2, [pc, #896]	@ (25098 <_start+0xb3c>)
   24d18:	446a      	add	r2, sp
   24d1a:	c938      	ldmia	r1!, {r3, r4, r5}
   24d1c:	c238      	stmia	r2!, {r3, r4, r5}
   24d1e:	c978      	ldmia	r1!, {r3, r4, r5, r6}
   24d20:	c278      	stmia	r2!, {r3, r4, r5, r6}
   24d22:	9e09      	ldr	r6, [sp, #36]	@ 0x24
   24d24:	8809      	ldrh	r1, [r1, #0]
   24d26:	8011      	strh	r1, [r2, #0]
   24d28:	2800      	cmp	r0, #0
   24d2a:	d000      	beq.n	24d2e <_start+0x7d2>
   24d2c:	e50e      	b.n	2474c <_start+0x1f0>
   24d2e:	ad4f      	add	r5, sp, #316	@ 0x13c
   24d30:	990b      	ldr	r1, [sp, #44]	@ 0x2c
   24d32:	70e9      	strb	r1, [r5, #3]
   24d34:	980c      	ldr	r0, [sp, #48]	@ 0x30
   24d36:	8028      	strh	r0, [r5, #0]
   24d38:	0e08      	lsrs	r0, r1, #24
   24d3a:	71a8      	strb	r0, [r5, #6]
   24d3c:	0c08      	lsrs	r0, r1, #16
   24d3e:	7168      	strb	r0, [r5, #5]
   24d40:	0a08      	lsrs	r0, r1, #8
   24d42:	7128      	strb	r0, [r5, #4]
   24d44:	a80c      	add	r0, sp, #48	@ 0x30
   24d46:	7880      	ldrb	r0, [r0, #2]
   24d48:	70a8      	strb	r0, [r5, #2]
   24d4a:	1de8      	adds	r0, r5, #7
   24d4c:	49d2      	ldr	r1, [pc, #840]	@ (25098 <_start+0xb3c>)
   24d4e:	4469      	add	r1, sp
   24d50:	221e      	movs	r2, #30
   24d52:	f002 ff82 	bl	27c5a <__aeabi_memcpy>
   24d56:	4ccf      	ldr	r4, [pc, #828]	@ (25094 <_start+0xb38>)
   24d58:	446c      	add	r4, sp
   24d5a:	4620      	mov	r0, r4
   24d5c:	4629      	mov	r1, r5
   24d5e:	f7fe fddb 	bl	23918 <_ZN18complex_no_dynamic3app17hc48a5e459bd8d2d8E>
   24d62:	7820      	ldrb	r0, [r4, #0]
   24d64:	2801      	cmp	r0, #1
   24d66:	d102      	bne.n	24d6e <_start+0x812>
   24d68:	6e31      	ldr	r1, [r6, #96]	@ 0x60
   24d6a:	910b      	str	r1, [sp, #44]	@ 0x2c
   24d6c:	e017      	b.n	24d9e <_start+0x842>
   24d6e:	49c9      	ldr	r1, [pc, #804]	@ (25094 <_start+0xb38>)
   24d70:	4469      	add	r1, sp
   24d72:	78ca      	ldrb	r2, [r1, #3]
   24d74:	ab0c      	add	r3, sp, #48	@ 0x30
   24d76:	709a      	strb	r2, [r3, #2]
   24d78:	784a      	ldrb	r2, [r1, #1]
   24d7a:	788c      	ldrb	r4, [r1, #2]
   24d7c:	0224      	lsls	r4, r4, #8
   24d7e:	18a2      	adds	r2, r4, r2
   24d80:	801a      	strh	r2, [r3, #0]
   24d82:	3108      	adds	r1, #8
   24d84:	6e32      	ldr	r2, [r6, #96]	@ 0x60
   24d86:	920b      	str	r2, [sp, #44]	@ 0x2c
   24d88:	4ac3      	ldr	r2, [pc, #780]	@ (25098 <_start+0xb3c>)
   24d8a:	446a      	add	r2, sp
   24d8c:	c978      	ldmia	r1!, {r3, r4, r5, r6}
   24d8e:	c278      	stmia	r2!, {r3, r4, r5, r6}
   24d90:	c978      	ldmia	r1!, {r3, r4, r5, r6}
   24d92:	c278      	stmia	r2!, {r3, r4, r5, r6}
   24d94:	9e09      	ldr	r6, [sp, #36]	@ 0x24
   24d96:	880b      	ldrh	r3, [r1, #0]
   24d98:	8013      	strh	r3, [r2, #0]
   24d9a:	7889      	ldrb	r1, [r1, #2]
   24d9c:	7091      	strb	r1, [r2, #2]
   24d9e:	2800      	cmp	r0, #0
   24da0:	d000      	beq.n	24da4 <_start+0x848>
   24da2:	e4d3      	b.n	2474c <_start+0x1f0>
   24da4:	ad59      	add	r5, sp, #356	@ 0x164
   24da6:	990b      	ldr	r1, [sp, #44]	@ 0x2c
   24da8:	70e9      	strb	r1, [r5, #3]
   24daa:	980c      	ldr	r0, [sp, #48]	@ 0x30
   24dac:	8028      	strh	r0, [r5, #0]
   24dae:	0e08      	lsrs	r0, r1, #24
   24db0:	71a8      	strb	r0, [r5, #6]
   24db2:	0c08      	lsrs	r0, r1, #16
   24db4:	7168      	strb	r0, [r5, #5]
   24db6:	0a08      	lsrs	r0, r1, #8
   24db8:	7128      	strb	r0, [r5, #4]
   24dba:	a80c      	add	r0, sp, #48	@ 0x30
   24dbc:	7880      	ldrb	r0, [r0, #2]
   24dbe:	70a8      	strb	r0, [r5, #2]
   24dc0:	1de8      	adds	r0, r5, #7
   24dc2:	49b5      	ldr	r1, [pc, #724]	@ (25098 <_start+0xb3c>)
   24dc4:	4469      	add	r1, sp
   24dc6:	2223      	movs	r2, #35	@ 0x23
   24dc8:	f002 ff47 	bl	27c5a <__aeabi_memcpy>
   24dcc:	4cb1      	ldr	r4, [pc, #708]	@ (25094 <_start+0xb38>)
   24dce:	446c      	add	r4, sp
   24dd0:	4620      	mov	r0, r4
   24dd2:	4629      	mov	r1, r5
   24dd4:	f7fc f8e2 	bl	20f9c <_ZN18complex_no_dynamic3app17h1e828c2531e168e7E>
   24dd8:	7824      	ldrb	r4, [r4, #0]
   24dda:	2c01      	cmp	r4, #1
   24ddc:	d102      	bne.n	24de4 <_start+0x888>
   24dde:	6e30      	ldr	r0, [r6, #96]	@ 0x60
   24de0:	900b      	str	r0, [sp, #44]	@ 0x2c
   24de2:	e011      	b.n	24e08 <_start+0x8ac>
   24de4:	49ab      	ldr	r1, [pc, #684]	@ (25094 <_start+0xb38>)
   24de6:	4469      	add	r1, sp
   24de8:	78c8      	ldrb	r0, [r1, #3]
   24dea:	aa0c      	add	r2, sp, #48	@ 0x30
   24dec:	7090      	strb	r0, [r2, #2]
   24dee:	7848      	ldrb	r0, [r1, #1]
   24df0:	788b      	ldrb	r3, [r1, #2]
   24df2:	021b      	lsls	r3, r3, #8
   24df4:	1818      	adds	r0, r3, r0
   24df6:	8010      	strh	r0, [r2, #0]
   24df8:	6e30      	ldr	r0, [r6, #96]	@ 0x60
   24dfa:	900b      	str	r0, [sp, #44]	@ 0x2c
   24dfc:	3108      	adds	r1, #8
   24dfe:	48a6      	ldr	r0, [pc, #664]	@ (25098 <_start+0xb3c>)
   24e00:	4468      	add	r0, sp
   24e02:	225c      	movs	r2, #92	@ 0x5c
   24e04:	f002 fdc9 	bl	2799a <__aeabi_memcpy4>
   24e08:	2c00      	cmp	r4, #0
   24e0a:	d000      	beq.n	24e0e <_start+0x8b2>
   24e0c:	e49e      	b.n	2474c <_start+0x1f0>
   24e0e:	ad64      	add	r5, sp, #400	@ 0x190
   24e10:	990b      	ldr	r1, [sp, #44]	@ 0x2c
   24e12:	70e9      	strb	r1, [r5, #3]
   24e14:	980c      	ldr	r0, [sp, #48]	@ 0x30
   24e16:	8028      	strh	r0, [r5, #0]
   24e18:	0e08      	lsrs	r0, r1, #24
   24e1a:	71a8      	strb	r0, [r5, #6]
   24e1c:	0c08      	lsrs	r0, r1, #16
   24e1e:	7168      	strb	r0, [r5, #5]
   24e20:	0a08      	lsrs	r0, r1, #8
   24e22:	7128      	strb	r0, [r5, #4]
   24e24:	a80c      	add	r0, sp, #48	@ 0x30
   24e26:	7880      	ldrb	r0, [r0, #2]
   24e28:	70a8      	strb	r0, [r5, #2]
   24e2a:	1de8      	adds	r0, r5, #7
   24e2c:	499a      	ldr	r1, [pc, #616]	@ (25098 <_start+0xb3c>)
   24e2e:	4469      	add	r1, sp
   24e30:	225c      	movs	r2, #92	@ 0x5c
   24e32:	f002 ff12 	bl	27c5a <__aeabi_memcpy>
   24e36:	4c97      	ldr	r4, [pc, #604]	@ (25094 <_start+0xb38>)
   24e38:	446c      	add	r4, sp
   24e3a:	4620      	mov	r0, r4
   24e3c:	4629      	mov	r1, r5
   24e3e:	f7fd f8ad 	bl	21f9c <_ZN18complex_no_dynamic3app17h4ef1095d160456daE>
   24e42:	7820      	ldrb	r0, [r4, #0]
   24e44:	2801      	cmp	r0, #1
   24e46:	d101      	bne.n	24e4c <_start+0x8f0>
   24e48:	6e31      	ldr	r1, [r6, #96]	@ 0x60
   24e4a:	e014      	b.n	24e76 <_start+0x91a>
   24e4c:	4991      	ldr	r1, [pc, #580]	@ (25094 <_start+0xb38>)
   24e4e:	4469      	add	r1, sp
   24e50:	78ca      	ldrb	r2, [r1, #3]
   24e52:	ab0c      	add	r3, sp, #48	@ 0x30
   24e54:	709a      	strb	r2, [r3, #2]
   24e56:	784a      	ldrb	r2, [r1, #1]
   24e58:	788c      	ldrb	r4, [r1, #2]
   24e5a:	0224      	lsls	r4, r4, #8
   24e5c:	18a2      	adds	r2, r4, r2
   24e5e:	801a      	strh	r2, [r3, #0]
   24e60:	3108      	adds	r1, #8
   24e62:	6e32      	ldr	r2, [r6, #96]	@ 0x60
   24e64:	920b      	str	r2, [sp, #44]	@ 0x2c
   24e66:	4a8c      	ldr	r2, [pc, #560]	@ (25098 <_start+0xb3c>)
   24e68:	446a      	add	r2, sp
   24e6a:	c978      	ldmia	r1!, {r3, r4, r5, r6}
   24e6c:	c278      	stmia	r2!, {r3, r4, r5, r6}
   24e6e:	c978      	ldmia	r1!, {r3, r4, r5, r6}
   24e70:	c278      	stmia	r2!, {r3, r4, r5, r6}
   24e72:	990b      	ldr	r1, [sp, #44]	@ 0x2c
   24e74:	9e09      	ldr	r6, [sp, #36]	@ 0x24
   24e76:	2800      	cmp	r0, #0
   24e78:	d001      	beq.n	24e7e <_start+0x922>
   24e7a:	910b      	str	r1, [sp, #44]	@ 0x2c
   24e7c:	e466      	b.n	2474c <_start+0x1f0>
   24e7e:	ad7d      	add	r5, sp, #500	@ 0x1f4
   24e80:	70e9      	strb	r1, [r5, #3]
   24e82:	980c      	ldr	r0, [sp, #48]	@ 0x30
   24e84:	8028      	strh	r0, [r5, #0]
   24e86:	0e08      	lsrs	r0, r1, #24
   24e88:	71a8      	strb	r0, [r5, #6]
   24e8a:	0c08      	lsrs	r0, r1, #16
   24e8c:	7168      	strb	r0, [r5, #5]
   24e8e:	0a08      	lsrs	r0, r1, #8
   24e90:	7128      	strb	r0, [r5, #4]
   24e92:	a80c      	add	r0, sp, #48	@ 0x30
   24e94:	7880      	ldrb	r0, [r0, #2]
   24e96:	70a8      	strb	r0, [r5, #2]
   24e98:	1de8      	adds	r0, r5, #7
   24e9a:	497f      	ldr	r1, [pc, #508]	@ (25098 <_start+0xb3c>)
   24e9c:	4469      	add	r1, sp
   24e9e:	2220      	movs	r2, #32
   24ea0:	f002 fedb 	bl	27c5a <__aeabi_memcpy>
   24ea4:	4c7b      	ldr	r4, [pc, #492]	@ (25094 <_start+0xb38>)
   24ea6:	446c      	add	r4, sp
   24ea8:	4620      	mov	r0, r4
   24eaa:	4629      	mov	r1, r5
   24eac:	f7fc fd2e 	bl	2190c <_ZN18complex_no_dynamic3app17h421618dc6af6cdbcE>
   24eb0:	7820      	ldrb	r0, [r4, #0]
   24eb2:	2801      	cmp	r0, #1
   24eb4:	d101      	bne.n	24eba <_start+0x95e>
   24eb6:	6e34      	ldr	r4, [r6, #96]	@ 0x60
   24eb8:	e017      	b.n	24eea <_start+0x98e>
   24eba:	4976      	ldr	r1, [pc, #472]	@ (25094 <_start+0xb38>)
   24ebc:	4469      	add	r1, sp
   24ebe:	78ca      	ldrb	r2, [r1, #3]
   24ec0:	ab0c      	add	r3, sp, #48	@ 0x30
   24ec2:	709a      	strb	r2, [r3, #2]
   24ec4:	784a      	ldrb	r2, [r1, #1]
   24ec6:	788c      	ldrb	r4, [r1, #2]
   24ec8:	0224      	lsls	r4, r4, #8
   24eca:	18a2      	adds	r2, r4, r2
   24ecc:	801a      	strh	r2, [r3, #0]
   24ece:	3108      	adds	r1, #8
   24ed0:	6e32      	ldr	r2, [r6, #96]	@ 0x60
   24ed2:	920b      	str	r2, [sp, #44]	@ 0x2c
   24ed4:	4a70      	ldr	r2, [pc, #448]	@ (25098 <_start+0xb3c>)
   24ed6:	446a      	add	r2, sp
   24ed8:	c918      	ldmia	r1!, {r3, r4}
   24eda:	c218      	stmia	r2!, {r3, r4}
   24edc:	c938      	ldmia	r1!, {r3, r4, r5}
   24ede:	c238      	stmia	r2!, {r3, r4, r5}
   24ee0:	9c0b      	ldr	r4, [sp, #44]	@ 0x2c
   24ee2:	880b      	ldrh	r3, [r1, #0]
   24ee4:	8013      	strh	r3, [r2, #0]
   24ee6:	7889      	ldrb	r1, [r1, #2]
   24ee8:	7091      	strb	r1, [r2, #2]
   24eea:	2800      	cmp	r0, #0
   24eec:	d000      	beq.n	24ef0 <_start+0x994>
   24eee:	e660      	b.n	24bb2 <_start+0x656>
   24ef0:	ad87      	add	r5, sp, #540	@ 0x21c
   24ef2:	70ec      	strb	r4, [r5, #3]
   24ef4:	980c      	ldr	r0, [sp, #48]	@ 0x30
   24ef6:	8028      	strh	r0, [r5, #0]
   24ef8:	0e20      	lsrs	r0, r4, #24
   24efa:	71a8      	strb	r0, [r5, #6]
   24efc:	0c20      	lsrs	r0, r4, #16
   24efe:	7168      	strb	r0, [r5, #5]
   24f00:	0a20      	lsrs	r0, r4, #8
   24f02:	7128      	strb	r0, [r5, #4]
   24f04:	a80c      	add	r0, sp, #48	@ 0x30
   24f06:	7880      	ldrb	r0, [r0, #2]
   24f08:	70a8      	strb	r0, [r5, #2]
   24f0a:	1de8      	adds	r0, r5, #7
   24f0c:	4962      	ldr	r1, [pc, #392]	@ (25098 <_start+0xb3c>)
   24f0e:	4469      	add	r1, sp
   24f10:	2217      	movs	r2, #23
   24f12:	f002 fea2 	bl	27c5a <__aeabi_memcpy>
   24f16:	4c5f      	ldr	r4, [pc, #380]	@ (25094 <_start+0xb38>)
   24f18:	446c      	add	r4, sp
   24f1a:	4620      	mov	r0, r4
   24f1c:	4629      	mov	r1, r5
   24f1e:	f7fb fe11 	bl	20b44 <_ZN18complex_no_dynamic3app17h177006e35f8b4e67E>
   24f22:	7820      	ldrb	r0, [r4, #0]
   24f24:	2801      	cmp	r0, #1
   24f26:	d102      	bne.n	24f2e <_start+0x9d2>
   24f28:	6e31      	ldr	r1, [r6, #96]	@ 0x60
   24f2a:	910b      	str	r1, [sp, #44]	@ 0x2c
   24f2c:	e016      	b.n	24f5c <_start+0xa00>
   24f2e:	4959      	ldr	r1, [pc, #356]	@ (25094 <_start+0xb38>)
   24f30:	4469      	add	r1, sp
   24f32:	78ca      	ldrb	r2, [r1, #3]
   24f34:	ab0c      	add	r3, sp, #48	@ 0x30
   24f36:	709a      	strb	r2, [r3, #2]
   24f38:	784a      	ldrb	r2, [r1, #1]
   24f3a:	788c      	ldrb	r4, [r1, #2]
   24f3c:	0224      	lsls	r4, r4, #8
   24f3e:	18a2      	adds	r2, r4, r2
   24f40:	801a      	strh	r2, [r3, #0]
   24f42:	3108      	adds	r1, #8
   24f44:	6e32      	ldr	r2, [r6, #96]	@ 0x60
   24f46:	920b      	str	r2, [sp, #44]	@ 0x2c
   24f48:	4a53      	ldr	r2, [pc, #332]	@ (25098 <_start+0xb3c>)
   24f4a:	446a      	add	r2, sp
   24f4c:	c938      	ldmia	r1!, {r3, r4, r5}
   24f4e:	c238      	stmia	r2!, {r3, r4, r5}
   24f50:	c938      	ldmia	r1!, {r3, r4, r5}
   24f52:	c238      	stmia	r2!, {r3, r4, r5}
   24f54:	c938      	ldmia	r1!, {r3, r4, r5}
   24f56:	c238      	stmia	r2!, {r3, r4, r5}
   24f58:	7809      	ldrb	r1, [r1, #0]
   24f5a:	7011      	strb	r1, [r2, #0]
   24f5c:	2800      	cmp	r0, #0
   24f5e:	d001      	beq.n	24f64 <_start+0xa08>
   24f60:	f7ff fbf4 	bl	2474c <_start+0x1f0>
   24f64:	ad8f      	add	r5, sp, #572	@ 0x23c
   24f66:	990b      	ldr	r1, [sp, #44]	@ 0x2c
   24f68:	70e9      	strb	r1, [r5, #3]
   24f6a:	980c      	ldr	r0, [sp, #48]	@ 0x30
   24f6c:	8028      	strh	r0, [r5, #0]
   24f6e:	0e08      	lsrs	r0, r1, #24
   24f70:	71a8      	strb	r0, [r5, #6]
   24f72:	0c08      	lsrs	r0, r1, #16
   24f74:	7168      	strb	r0, [r5, #5]
   24f76:	0a08      	lsrs	r0, r1, #8
   24f78:	7128      	strb	r0, [r5, #4]
   24f7a:	a80c      	add	r0, sp, #48	@ 0x30
   24f7c:	7880      	ldrb	r0, [r0, #2]
   24f7e:	70a8      	strb	r0, [r5, #2]
   24f80:	1de8      	adds	r0, r5, #7
   24f82:	4945      	ldr	r1, [pc, #276]	@ (25098 <_start+0xb3c>)
   24f84:	4469      	add	r1, sp
   24f86:	2225      	movs	r2, #37	@ 0x25
   24f88:	f002 fe67 	bl	27c5a <__aeabi_memcpy>
   24f8c:	4c41      	ldr	r4, [pc, #260]	@ (25094 <_start+0xb38>)
   24f8e:	446c      	add	r4, sp
   24f90:	4620      	mov	r0, r4
   24f92:	4629      	mov	r1, r5
   24f94:	f7fc fdd6 	bl	21b44 <_ZN18complex_no_dynamic3app17h446eb45e7f8d0fefE>
   24f98:	7820      	ldrb	r0, [r4, #0]
   24f9a:	2801      	cmp	r0, #1
   24f9c:	d102      	bne.n	24fa4 <_start+0xa48>
   24f9e:	6e31      	ldr	r1, [r6, #96]	@ 0x60
   24fa0:	910b      	str	r1, [sp, #44]	@ 0x2c
   24fa2:	e014      	b.n	24fce <_start+0xa72>
   24fa4:	493b      	ldr	r1, [pc, #236]	@ (25094 <_start+0xb38>)
   24fa6:	4469      	add	r1, sp
   24fa8:	78ca      	ldrb	r2, [r1, #3]
   24faa:	ab0c      	add	r3, sp, #48	@ 0x30
   24fac:	709a      	strb	r2, [r3, #2]
   24fae:	784a      	ldrb	r2, [r1, #1]
   24fb0:	788c      	ldrb	r4, [r1, #2]
   24fb2:	0224      	lsls	r4, r4, #8
   24fb4:	18a2      	adds	r2, r4, r2
   24fb6:	801a      	strh	r2, [r3, #0]
   24fb8:	3108      	adds	r1, #8
   24fba:	6e32      	ldr	r2, [r6, #96]	@ 0x60
   24fbc:	920b      	str	r2, [sp, #44]	@ 0x2c
   24fbe:	4a36      	ldr	r2, [pc, #216]	@ (25098 <_start+0xb3c>)
   24fc0:	446a      	add	r2, sp
   24fc2:	c938      	ldmia	r1!, {r3, r4, r5}
   24fc4:	c238      	stmia	r2!, {r3, r4, r5}
   24fc6:	c978      	ldmia	r1!, {r3, r4, r5, r6}
   24fc8:	c278      	stmia	r2!, {r3, r4, r5, r6}
   24fca:	8809      	ldrh	r1, [r1, #0]
   24fcc:	8011      	strh	r1, [r2, #0]
   24fce:	2800      	cmp	r0, #0
   24fd0:	d001      	beq.n	24fd6 <_start+0xa7a>
   24fd2:	f7ff fbbb 	bl	2474c <_start+0x1f0>
   24fd6:	ad9a      	add	r5, sp, #616	@ 0x268
   24fd8:	990b      	ldr	r1, [sp, #44]	@ 0x2c
   24fda:	70e9      	strb	r1, [r5, #3]
   24fdc:	980c      	ldr	r0, [sp, #48]	@ 0x30
   24fde:	8028      	strh	r0, [r5, #0]
   24fe0:	0e08      	lsrs	r0, r1, #24
   24fe2:	71a8      	strb	r0, [r5, #6]
   24fe4:	0c08      	lsrs	r0, r1, #16
   24fe6:	7168      	strb	r0, [r5, #5]
   24fe8:	0a08      	lsrs	r0, r1, #8
   24fea:	7128      	strb	r0, [r5, #4]
   24fec:	a80c      	add	r0, sp, #48	@ 0x30
   24fee:	7880      	ldrb	r0, [r0, #2]
   24ff0:	70a8      	strb	r0, [r5, #2]
   24ff2:	1de8      	adds	r0, r5, #7
   24ff4:	4928      	ldr	r1, [pc, #160]	@ (25098 <_start+0xb3c>)
   24ff6:	4469      	add	r1, sp
   24ff8:	221e      	movs	r2, #30
   24ffa:	f002 fe2e 	bl	27c5a <__aeabi_memcpy>
   24ffe:	4c25      	ldr	r4, [pc, #148]	@ (25094 <_start+0xb38>)
   25000:	446c      	add	r4, sp
   25002:	4620      	mov	r0, r4
   25004:	4629      	mov	r1, r5
   25006:	f7fc ff65 	bl	21ed4 <_ZN18complex_no_dynamic3app17h4e39baec85865b02E>
   2500a:	7820      	ldrb	r0, [r4, #0]
   2500c:	2801      	cmp	r0, #1
   2500e:	d107      	bne.n	25020 <_start+0xac4>
   25010:	9909      	ldr	r1, [sp, #36]	@ 0x24
   25012:	6e09      	ldr	r1, [r1, #96]	@ 0x60
   25014:	910b      	str	r1, [sp, #44]	@ 0x2c
   25016:	e017      	b.n	25048 <_start+0xaec>
   25018:	00001404 	.word	0x00001404
   2501c:	000013a8 	.word	0x000013a8
   25020:	491c      	ldr	r1, [pc, #112]	@ (25094 <_start+0xb38>)
   25022:	4469      	add	r1, sp
   25024:	78ca      	ldrb	r2, [r1, #3]
   25026:	ab0c      	add	r3, sp, #48	@ 0x30
   25028:	709a      	strb	r2, [r3, #2]
   2502a:	784a      	ldrb	r2, [r1, #1]
   2502c:	788c      	ldrb	r4, [r1, #2]
   2502e:	0224      	lsls	r4, r4, #8
   25030:	18a2      	adds	r2, r4, r2
   25032:	801a      	strh	r2, [r3, #0]
   25034:	3108      	adds	r1, #8
   25036:	9a09      	ldr	r2, [sp, #36]	@ 0x24
   25038:	6e12      	ldr	r2, [r2, #96]	@ 0x60
   2503a:	920b      	str	r2, [sp, #44]	@ 0x2c
   2503c:	4a16      	ldr	r2, [pc, #88]	@ (25098 <_start+0xb3c>)
   2503e:	446a      	add	r2, sp
   25040:	c978      	ldmia	r1!, {r3, r4, r5, r6}
   25042:	c278      	stmia	r2!, {r3, r4, r5, r6}
   25044:	7809      	ldrb	r1, [r1, #0]
   25046:	7011      	strb	r1, [r2, #0]
   25048:	2800      	cmp	r0, #0
   2504a:	d001      	beq.n	25050 <_start+0xaf4>
   2504c:	f7ff fb7e 	bl	2474c <_start+0x1f0>
   25050:	ada4      	add	r5, sp, #656	@ 0x290
   25052:	990b      	ldr	r1, [sp, #44]	@ 0x2c
   25054:	70e9      	strb	r1, [r5, #3]
   25056:	980c      	ldr	r0, [sp, #48]	@ 0x30
   25058:	8028      	strh	r0, [r5, #0]
   2505a:	0e08      	lsrs	r0, r1, #24
   2505c:	71a8      	strb	r0, [r5, #6]
   2505e:	0c08      	lsrs	r0, r1, #16
   25060:	7168      	strb	r0, [r5, #5]
   25062:	0a08      	lsrs	r0, r1, #8
   25064:	7128      	strb	r0, [r5, #4]
   25066:	a80c      	add	r0, sp, #48	@ 0x30
   25068:	7880      	ldrb	r0, [r0, #2]
   2506a:	70a8      	strb	r0, [r5, #2]
   2506c:	1de8      	adds	r0, r5, #7
   2506e:	490a      	ldr	r1, [pc, #40]	@ (25098 <_start+0xb3c>)
   25070:	4469      	add	r1, sp
   25072:	2211      	movs	r2, #17
   25074:	f002 fdf1 	bl	27c5a <__aeabi_memcpy>
   25078:	4c06      	ldr	r4, [pc, #24]	@ (25094 <_start+0xb38>)
   2507a:	446c      	add	r4, sp
   2507c:	4620      	mov	r0, r4
   2507e:	4629      	mov	r1, r5
   25080:	f7ff f846 	bl	24110 <_ZN18complex_no_dynamic3app17hefe3b1bf85245801E>
   25084:	7820      	ldrb	r0, [r4, #0]
   25086:	2801      	cmp	r0, #1
   25088:	d108      	bne.n	2509c <_start+0xb40>
   2508a:	9909      	ldr	r1, [sp, #36]	@ 0x24
   2508c:	6e09      	ldr	r1, [r1, #96]	@ 0x60
   2508e:	910b      	str	r1, [sp, #44]	@ 0x2c
   25090:	e01e      	b.n	250d0 <_start+0xb74>
   25092:	46c0      	nop			@ (mov r8, r8)
   25094:	00001404 	.word	0x00001404
   25098:	000013a8 	.word	0x000013a8
   2509c:	49f3      	ldr	r1, [pc, #972]	@ (2546c <_start+0xf10>)
   2509e:	4469      	add	r1, sp
   250a0:	78ca      	ldrb	r2, [r1, #3]
   250a2:	ab0c      	add	r3, sp, #48	@ 0x30
   250a4:	709a      	strb	r2, [r3, #2]
   250a6:	784a      	ldrb	r2, [r1, #1]
   250a8:	788c      	ldrb	r4, [r1, #2]
   250aa:	0224      	lsls	r4, r4, #8
   250ac:	18a2      	adds	r2, r4, r2
   250ae:	801a      	strh	r2, [r3, #0]
   250b0:	3108      	adds	r1, #8
   250b2:	9a09      	ldr	r2, [sp, #36]	@ 0x24
   250b4:	6e12      	ldr	r2, [r2, #96]	@ 0x60
   250b6:	920b      	str	r2, [sp, #44]	@ 0x2c
   250b8:	4aed      	ldr	r2, [pc, #948]	@ (25470 <_start+0xf14>)
   250ba:	446a      	add	r2, sp
   250bc:	c938      	ldmia	r1!, {r3, r4, r5}
   250be:	c238      	stmia	r2!, {r3, r4, r5}
   250c0:	c978      	ldmia	r1!, {r3, r4, r5, r6}
   250c2:	c278      	stmia	r2!, {r3, r4, r5, r6}
   250c4:	c978      	ldmia	r1!, {r3, r4, r5, r6}
   250c6:	c278      	stmia	r2!, {r3, r4, r5, r6}
   250c8:	880b      	ldrh	r3, [r1, #0]
   250ca:	8013      	strh	r3, [r2, #0]
   250cc:	7889      	ldrb	r1, [r1, #2]
   250ce:	7091      	strb	r1, [r2, #2]
   250d0:	2800      	cmp	r0, #0
   250d2:	d001      	beq.n	250d8 <_start+0xb7c>
   250d4:	f7ff fb3a 	bl	2474c <_start+0x1f0>
   250d8:	adaa      	add	r5, sp, #680	@ 0x2a8
   250da:	990b      	ldr	r1, [sp, #44]	@ 0x2c
   250dc:	70e9      	strb	r1, [r5, #3]
   250de:	980c      	ldr	r0, [sp, #48]	@ 0x30
   250e0:	8028      	strh	r0, [r5, #0]
   250e2:	0e08      	lsrs	r0, r1, #24
   250e4:	71a8      	strb	r0, [r5, #6]
   250e6:	0c08      	lsrs	r0, r1, #16
   250e8:	7168      	strb	r0, [r5, #5]
   250ea:	0a08      	lsrs	r0, r1, #8
   250ec:	7128      	strb	r0, [r5, #4]
   250ee:	a80c      	add	r0, sp, #48	@ 0x30
   250f0:	7880      	ldrb	r0, [r0, #2]
   250f2:	70a8      	strb	r0, [r5, #2]
   250f4:	1de8      	adds	r0, r5, #7
   250f6:	49de      	ldr	r1, [pc, #888]	@ (25470 <_start+0xf14>)
   250f8:	4469      	add	r1, sp
   250fa:	222f      	movs	r2, #47	@ 0x2f
   250fc:	f002 fdad 	bl	27c5a <__aeabi_memcpy>
   25100:	4cda      	ldr	r4, [pc, #872]	@ (2546c <_start+0xf10>)
   25102:	446c      	add	r4, sp
   25104:	4620      	mov	r0, r4
   25106:	4629      	mov	r1, r5
   25108:	f7fb fc08 	bl	2091c <_ZN18complex_no_dynamic3app17h12ec4c9a58fa1e11E>
   2510c:	7820      	ldrb	r0, [r4, #0]
   2510e:	2801      	cmp	r0, #1
   25110:	d103      	bne.n	2511a <_start+0xbbe>
   25112:	9909      	ldr	r1, [sp, #36]	@ 0x24
   25114:	6e09      	ldr	r1, [r1, #96]	@ 0x60
   25116:	910b      	str	r1, [sp, #44]	@ 0x2c
   25118:	e017      	b.n	2514a <_start+0xbee>
   2511a:	49d4      	ldr	r1, [pc, #848]	@ (2546c <_start+0xf10>)
   2511c:	4469      	add	r1, sp
   2511e:	78ca      	ldrb	r2, [r1, #3]
   25120:	ab0c      	add	r3, sp, #48	@ 0x30
   25122:	709a      	strb	r2, [r3, #2]
   25124:	784a      	ldrb	r2, [r1, #1]
   25126:	788c      	ldrb	r4, [r1, #2]
   25128:	0224      	lsls	r4, r4, #8
   2512a:	18a2      	adds	r2, r4, r2
   2512c:	801a      	strh	r2, [r3, #0]
   2512e:	3108      	adds	r1, #8
   25130:	9a09      	ldr	r2, [sp, #36]	@ 0x24
   25132:	6e12      	ldr	r2, [r2, #96]	@ 0x60
   25134:	920b      	str	r2, [sp, #44]	@ 0x2c
   25136:	4ace      	ldr	r2, [pc, #824]	@ (25470 <_start+0xf14>)
   25138:	446a      	add	r2, sp
   2513a:	c938      	ldmia	r1!, {r3, r4, r5}
   2513c:	c238      	stmia	r2!, {r3, r4, r5}
   2513e:	c978      	ldmia	r1!, {r3, r4, r5, r6}
   25140:	c278      	stmia	r2!, {r3, r4, r5, r6}
   25142:	c978      	ldmia	r1!, {r3, r4, r5, r6}
   25144:	c278      	stmia	r2!, {r3, r4, r5, r6}
   25146:	7809      	ldrb	r1, [r1, #0]
   25148:	7011      	strb	r1, [r2, #0]
   2514a:	2800      	cmp	r0, #0
   2514c:	d001      	beq.n	25152 <_start+0xbf6>
   2514e:	f7ff fafd 	bl	2474c <_start+0x1f0>
   25152:	adb8      	add	r5, sp, #736	@ 0x2e0
   25154:	990b      	ldr	r1, [sp, #44]	@ 0x2c
   25156:	70e9      	strb	r1, [r5, #3]
   25158:	980c      	ldr	r0, [sp, #48]	@ 0x30
   2515a:	8028      	strh	r0, [r5, #0]
   2515c:	0e08      	lsrs	r0, r1, #24
   2515e:	71a8      	strb	r0, [r5, #6]
   25160:	0c08      	lsrs	r0, r1, #16
   25162:	7168      	strb	r0, [r5, #5]
   25164:	0a08      	lsrs	r0, r1, #8
   25166:	7128      	strb	r0, [r5, #4]
   25168:	a80c      	add	r0, sp, #48	@ 0x30
   2516a:	7880      	ldrb	r0, [r0, #2]
   2516c:	70a8      	strb	r0, [r5, #2]
   2516e:	1de8      	adds	r0, r5, #7
   25170:	49bf      	ldr	r1, [pc, #764]	@ (25470 <_start+0xf14>)
   25172:	4469      	add	r1, sp
   25174:	222d      	movs	r2, #45	@ 0x2d
   25176:	f002 fd70 	bl	27c5a <__aeabi_memcpy>
   2517a:	4cbc      	ldr	r4, [pc, #752]	@ (2546c <_start+0xf10>)
   2517c:	446c      	add	r4, sp
   2517e:	4620      	mov	r0, r4
   25180:	4629      	mov	r1, r5
   25182:	f7fb fd39 	bl	20bf8 <_ZN18complex_no_dynamic3app17h18b608c9fa027338E>
   25186:	7820      	ldrb	r0, [r4, #0]
   25188:	2801      	cmp	r0, #1
   2518a:	d103      	bne.n	25194 <_start+0xc38>
   2518c:	9909      	ldr	r1, [sp, #36]	@ 0x24
   2518e:	6e09      	ldr	r1, [r1, #96]	@ 0x60
   25190:	910b      	str	r1, [sp, #44]	@ 0x2c
   25192:	e019      	b.n	251c8 <_start+0xc6c>
   25194:	49b5      	ldr	r1, [pc, #724]	@ (2546c <_start+0xf10>)
   25196:	4469      	add	r1, sp
   25198:	78ca      	ldrb	r2, [r1, #3]
   2519a:	ab0c      	add	r3, sp, #48	@ 0x30
   2519c:	709a      	strb	r2, [r3, #2]
   2519e:	784a      	ldrb	r2, [r1, #1]
   251a0:	788c      	ldrb	r4, [r1, #2]
   251a2:	0224      	lsls	r4, r4, #8
   251a4:	18a2      	adds	r2, r4, r2
   251a6:	801a      	strh	r2, [r3, #0]
   251a8:	3108      	adds	r1, #8
   251aa:	9a09      	ldr	r2, [sp, #36]	@ 0x24
   251ac:	6e12      	ldr	r2, [r2, #96]	@ 0x60
   251ae:	920b      	str	r2, [sp, #44]	@ 0x2c
   251b0:	4aaf      	ldr	r2, [pc, #700]	@ (25470 <_start+0xf14>)
   251b2:	446a      	add	r2, sp
   251b4:	c938      	ldmia	r1!, {r3, r4, r5}
   251b6:	c238      	stmia	r2!, {r3, r4, r5}
   251b8:	c938      	ldmia	r1!, {r3, r4, r5}
   251ba:	c238      	stmia	r2!, {r3, r4, r5}
   251bc:	c938      	ldmia	r1!, {r3, r4, r5}
   251be:	c238      	stmia	r2!, {r3, r4, r5}
   251c0:	880b      	ldrh	r3, [r1, #0]
   251c2:	8013      	strh	r3, [r2, #0]
   251c4:	7889      	ldrb	r1, [r1, #2]
   251c6:	7091      	strb	r1, [r2, #2]
   251c8:	2800      	cmp	r0, #0
   251ca:	d001      	beq.n	251d0 <_start+0xc74>
   251cc:	f7ff fabe 	bl	2474c <_start+0x1f0>
   251d0:	adc5      	add	r5, sp, #788	@ 0x314
   251d2:	990b      	ldr	r1, [sp, #44]	@ 0x2c
   251d4:	70e9      	strb	r1, [r5, #3]
   251d6:	980c      	ldr	r0, [sp, #48]	@ 0x30
   251d8:	8028      	strh	r0, [r5, #0]
   251da:	0e08      	lsrs	r0, r1, #24
   251dc:	71a8      	strb	r0, [r5, #6]
   251de:	0c08      	lsrs	r0, r1, #16
   251e0:	7168      	strb	r0, [r5, #5]
   251e2:	0a08      	lsrs	r0, r1, #8
   251e4:	7128      	strb	r0, [r5, #4]
   251e6:	a80c      	add	r0, sp, #48	@ 0x30
   251e8:	7880      	ldrb	r0, [r0, #2]
   251ea:	70a8      	strb	r0, [r5, #2]
   251ec:	1de8      	adds	r0, r5, #7
   251ee:	49a0      	ldr	r1, [pc, #640]	@ (25470 <_start+0xf14>)
   251f0:	4469      	add	r1, sp
   251f2:	2227      	movs	r2, #39	@ 0x27
   251f4:	f002 fd31 	bl	27c5a <__aeabi_memcpy>
   251f8:	4c9c      	ldr	r4, [pc, #624]	@ (2546c <_start+0xf10>)
   251fa:	446c      	add	r4, sp
   251fc:	4620      	mov	r0, r4
   251fe:	4629      	mov	r1, r5
   25200:	f7ff f950 	bl	244a4 <_ZN18complex_no_dynamic3app17hfbb0f32e9b26ad1cE>
   25204:	7820      	ldrb	r0, [r4, #0]
   25206:	2801      	cmp	r0, #1
   25208:	d103      	bne.n	25212 <_start+0xcb6>
   2520a:	9909      	ldr	r1, [sp, #36]	@ 0x24
   2520c:	6e09      	ldr	r1, [r1, #96]	@ 0x60
   2520e:	910b      	str	r1, [sp, #44]	@ 0x2c
   25210:	e017      	b.n	25242 <_start+0xce6>
   25212:	4996      	ldr	r1, [pc, #600]	@ (2546c <_start+0xf10>)
   25214:	4469      	add	r1, sp
   25216:	78ca      	ldrb	r2, [r1, #3]
   25218:	ab0c      	add	r3, sp, #48	@ 0x30
   2521a:	709a      	strb	r2, [r3, #2]
   2521c:	784a      	ldrb	r2, [r1, #1]
   2521e:	788c      	ldrb	r4, [r1, #2]
   25220:	0224      	lsls	r4, r4, #8
   25222:	18a2      	adds	r2, r4, r2
   25224:	801a      	strh	r2, [r3, #0]
   25226:	3108      	adds	r1, #8
   25228:	9a09      	ldr	r2, [sp, #36]	@ 0x24
   2522a:	6e12      	ldr	r2, [r2, #96]	@ 0x60
   2522c:	920b      	str	r2, [sp, #44]	@ 0x2c
   2522e:	4a90      	ldr	r2, [pc, #576]	@ (25470 <_start+0xf14>)
   25230:	446a      	add	r2, sp
   25232:	c978      	ldmia	r1!, {r3, r4, r5, r6}
   25234:	c278      	stmia	r2!, {r3, r4, r5, r6}
   25236:	c978      	ldmia	r1!, {r3, r4, r5, r6}
   25238:	c278      	stmia	r2!, {r3, r4, r5, r6}
   2523a:	c978      	ldmia	r1!, {r3, r4, r5, r6}
   2523c:	c278      	stmia	r2!, {r3, r4, r5, r6}
   2523e:	7809      	ldrb	r1, [r1, #0]
   25240:	7011      	strb	r1, [r2, #0]
   25242:	2800      	cmp	r0, #0
   25244:	d001      	beq.n	2524a <_start+0xcee>
   25246:	f7ff fa81 	bl	2474c <_start+0x1f0>
   2524a:	add1      	add	r5, sp, #836	@ 0x344
   2524c:	990b      	ldr	r1, [sp, #44]	@ 0x2c
   2524e:	70e9      	strb	r1, [r5, #3]
   25250:	980c      	ldr	r0, [sp, #48]	@ 0x30
   25252:	8028      	strh	r0, [r5, #0]
   25254:	0e08      	lsrs	r0, r1, #24
   25256:	71a8      	strb	r0, [r5, #6]
   25258:	0c08      	lsrs	r0, r1, #16
   2525a:	7168      	strb	r0, [r5, #5]
   2525c:	0a08      	lsrs	r0, r1, #8
   2525e:	7128      	strb	r0, [r5, #4]
   25260:	a80c      	add	r0, sp, #48	@ 0x30
   25262:	7880      	ldrb	r0, [r0, #2]
   25264:	70a8      	strb	r0, [r5, #2]
   25266:	1de8      	adds	r0, r5, #7
   25268:	4981      	ldr	r1, [pc, #516]	@ (25470 <_start+0xf14>)
   2526a:	4469      	add	r1, sp
   2526c:	2231      	movs	r2, #49	@ 0x31
   2526e:	f002 fcf4 	bl	27c5a <__aeabi_memcpy>
   25272:	4c7e      	ldr	r4, [pc, #504]	@ (2546c <_start+0xf10>)
   25274:	446c      	add	r4, sp
   25276:	4620      	mov	r0, r4
   25278:	4629      	mov	r1, r5
   2527a:	f7fe fe8b 	bl	23f94 <_ZN18complex_no_dynamic3app17he226186fe8e4d3f1E>
   2527e:	7820      	ldrb	r0, [r4, #0]
   25280:	2801      	cmp	r0, #1
   25282:	d103      	bne.n	2528c <_start+0xd30>
   25284:	9909      	ldr	r1, [sp, #36]	@ 0x24
   25286:	6e09      	ldr	r1, [r1, #96]	@ 0x60
   25288:	910b      	str	r1, [sp, #44]	@ 0x2c
   2528a:	e017      	b.n	252bc <_start+0xd60>
   2528c:	4977      	ldr	r1, [pc, #476]	@ (2546c <_start+0xf10>)
   2528e:	4469      	add	r1, sp
   25290:	78ca      	ldrb	r2, [r1, #3]
   25292:	ab0c      	add	r3, sp, #48	@ 0x30
   25294:	709a      	strb	r2, [r3, #2]
   25296:	784a      	ldrb	r2, [r1, #1]
   25298:	788c      	ldrb	r4, [r1, #2]
   2529a:	0224      	lsls	r4, r4, #8
   2529c:	18a2      	adds	r2, r4, r2
   2529e:	801a      	strh	r2, [r3, #0]
   252a0:	3108      	adds	r1, #8
   252a2:	9a09      	ldr	r2, [sp, #36]	@ 0x24
   252a4:	6e12      	ldr	r2, [r2, #96]	@ 0x60
   252a6:	920b      	str	r2, [sp, #44]	@ 0x2c
   252a8:	4a71      	ldr	r2, [pc, #452]	@ (25470 <_start+0xf14>)
   252aa:	446a      	add	r2, sp
   252ac:	c938      	ldmia	r1!, {r3, r4, r5}
   252ae:	c238      	stmia	r2!, {r3, r4, r5}
   252b0:	c978      	ldmia	r1!, {r3, r4, r5, r6}
   252b2:	c278      	stmia	r2!, {r3, r4, r5, r6}
   252b4:	c978      	ldmia	r1!, {r3, r4, r5, r6}
   252b6:	c278      	stmia	r2!, {r3, r4, r5, r6}
   252b8:	7809      	ldrb	r1, [r1, #0]
   252ba:	7011      	strb	r1, [r2, #0]
   252bc:	2800      	cmp	r0, #0
   252be:	d001      	beq.n	252c4 <_start+0xd68>
   252c0:	f7ff fa44 	bl	2474c <_start+0x1f0>
   252c4:	addf      	add	r5, sp, #892	@ 0x37c
   252c6:	990b      	ldr	r1, [sp, #44]	@ 0x2c
   252c8:	70e9      	strb	r1, [r5, #3]
   252ca:	980c      	ldr	r0, [sp, #48]	@ 0x30
   252cc:	8028      	strh	r0, [r5, #0]
   252ce:	0e08      	lsrs	r0, r1, #24
   252d0:	71a8      	strb	r0, [r5, #6]
   252d2:	0c08      	lsrs	r0, r1, #16
   252d4:	7168      	strb	r0, [r5, #5]
   252d6:	0a08      	lsrs	r0, r1, #8
   252d8:	7128      	strb	r0, [r5, #4]
   252da:	a80c      	add	r0, sp, #48	@ 0x30
   252dc:	7880      	ldrb	r0, [r0, #2]
   252de:	70a8      	strb	r0, [r5, #2]
   252e0:	1de8      	adds	r0, r5, #7
   252e2:	4963      	ldr	r1, [pc, #396]	@ (25470 <_start+0xf14>)
   252e4:	4469      	add	r1, sp
   252e6:	222d      	movs	r2, #45	@ 0x2d
   252e8:	f002 fcb7 	bl	27c5a <__aeabi_memcpy>
   252ec:	4c5f      	ldr	r4, [pc, #380]	@ (2546c <_start+0xf10>)
   252ee:	446c      	add	r4, sp
   252f0:	4620      	mov	r0, r4
   252f2:	4629      	mov	r1, r5
   252f4:	f7fe fdec 	bl	23ed0 <_ZN18complex_no_dynamic3app17hda6ec62b80875b6cE>
   252f8:	7820      	ldrb	r0, [r4, #0]
   252fa:	2801      	cmp	r0, #1
   252fc:	d103      	bne.n	25306 <_start+0xdaa>
   252fe:	9909      	ldr	r1, [sp, #36]	@ 0x24
   25300:	6e09      	ldr	r1, [r1, #96]	@ 0x60
   25302:	910b      	str	r1, [sp, #44]	@ 0x2c
   25304:	e015      	b.n	25332 <_start+0xdd6>
   25306:	4959      	ldr	r1, [pc, #356]	@ (2546c <_start+0xf10>)
   25308:	4469      	add	r1, sp
   2530a:	78ca      	ldrb	r2, [r1, #3]
   2530c:	ab0c      	add	r3, sp, #48	@ 0x30
   2530e:	709a      	strb	r2, [r3, #2]
   25310:	784a      	ldrb	r2, [r1, #1]
   25312:	788c      	ldrb	r4, [r1, #2]
   25314:	0224      	lsls	r4, r4, #8
   25316:	18a2      	adds	r2, r4, r2
   25318:	801a      	strh	r2, [r3, #0]
   2531a:	3108      	adds	r1, #8
   2531c:	9a09      	ldr	r2, [sp, #36]	@ 0x24
   2531e:	6e12      	ldr	r2, [r2, #96]	@ 0x60
   25320:	920b      	str	r2, [sp, #44]	@ 0x2c
   25322:	4a53      	ldr	r2, [pc, #332]	@ (25470 <_start+0xf14>)
   25324:	446a      	add	r2, sp
   25326:	c978      	ldmia	r1!, {r3, r4, r5, r6}
   25328:	c278      	stmia	r2!, {r3, r4, r5, r6}
   2532a:	880b      	ldrh	r3, [r1, #0]
   2532c:	8013      	strh	r3, [r2, #0]
   2532e:	7889      	ldrb	r1, [r1, #2]
   25330:	7091      	strb	r1, [r2, #2]
   25332:	2800      	cmp	r0, #0
   25334:	d001      	beq.n	2533a <_start+0xdde>
   25336:	f7ff fa09 	bl	2474c <_start+0x1f0>
   2533a:	adec      	add	r5, sp, #944	@ 0x3b0
   2533c:	990b      	ldr	r1, [sp, #44]	@ 0x2c
   2533e:	70e9      	strb	r1, [r5, #3]
   25340:	980c      	ldr	r0, [sp, #48]	@ 0x30
   25342:	8028      	strh	r0, [r5, #0]
   25344:	0e08      	lsrs	r0, r1, #24
   25346:	71a8      	strb	r0, [r5, #6]
   25348:	0c08      	lsrs	r0, r1, #16
   2534a:	7168      	strb	r0, [r5, #5]
   2534c:	0a08      	lsrs	r0, r1, #8
   2534e:	7128      	strb	r0, [r5, #4]
   25350:	a80c      	add	r0, sp, #48	@ 0x30
   25352:	7880      	ldrb	r0, [r0, #2]
   25354:	70a8      	strb	r0, [r5, #2]
   25356:	1de8      	adds	r0, r5, #7
   25358:	4945      	ldr	r1, [pc, #276]	@ (25470 <_start+0xf14>)
   2535a:	4469      	add	r1, sp
   2535c:	2213      	movs	r2, #19
   2535e:	f002 fc7c 	bl	27c5a <__aeabi_memcpy>
   25362:	4c42      	ldr	r4, [pc, #264]	@ (2546c <_start+0xf10>)
   25364:	446c      	add	r4, sp
   25366:	4620      	mov	r0, r4
   25368:	4629      	mov	r1, r5
   2536a:	f7fd fbe3 	bl	22b34 <_ZN18complex_no_dynamic3app17h782f1d8047f79dc9E>
   2536e:	7824      	ldrb	r4, [r4, #0]
   25370:	2c01      	cmp	r4, #1
   25372:	d103      	bne.n	2537c <_start+0xe20>
   25374:	9809      	ldr	r0, [sp, #36]	@ 0x24
   25376:	6e00      	ldr	r0, [r0, #96]	@ 0x60
   25378:	900b      	str	r0, [sp, #44]	@ 0x2c
   2537a:	e012      	b.n	253a2 <_start+0xe46>
   2537c:	493b      	ldr	r1, [pc, #236]	@ (2546c <_start+0xf10>)
   2537e:	4469      	add	r1, sp
   25380:	78c8      	ldrb	r0, [r1, #3]
   25382:	aa0c      	add	r2, sp, #48	@ 0x30
   25384:	7090      	strb	r0, [r2, #2]
   25386:	7848      	ldrb	r0, [r1, #1]
   25388:	788b      	ldrb	r3, [r1, #2]
   2538a:	021b      	lsls	r3, r3, #8
   2538c:	1818      	adds	r0, r3, r0
   2538e:	8010      	strh	r0, [r2, #0]
   25390:	9809      	ldr	r0, [sp, #36]	@ 0x24
   25392:	6e00      	ldr	r0, [r0, #96]	@ 0x60
   25394:	900b      	str	r0, [sp, #44]	@ 0x2c
   25396:	3108      	adds	r1, #8
   25398:	4835      	ldr	r0, [pc, #212]	@ (25470 <_start+0xf14>)
   2539a:	4468      	add	r0, sp
   2539c:	2249      	movs	r2, #73	@ 0x49
   2539e:	f002 fafc 	bl	2799a <__aeabi_memcpy4>
   253a2:	2c00      	cmp	r4, #0
   253a4:	d001      	beq.n	253aa <_start+0xe4e>
   253a6:	f7ff f9d1 	bl	2474c <_start+0x1f0>
   253aa:	adf3      	add	r5, sp, #972	@ 0x3cc
   253ac:	990b      	ldr	r1, [sp, #44]	@ 0x2c
   253ae:	70e9      	strb	r1, [r5, #3]
   253b0:	980c      	ldr	r0, [sp, #48]	@ 0x30
   253b2:	8028      	strh	r0, [r5, #0]
   253b4:	0e08      	lsrs	r0, r1, #24
   253b6:	71a8      	strb	r0, [r5, #6]
   253b8:	0c08      	lsrs	r0, r1, #16
   253ba:	7168      	strb	r0, [r5, #5]
   253bc:	0a08      	lsrs	r0, r1, #8
   253be:	7128      	strb	r0, [r5, #4]
   253c0:	a80c      	add	r0, sp, #48	@ 0x30
   253c2:	7880      	ldrb	r0, [r0, #2]
   253c4:	70a8      	strb	r0, [r5, #2]
   253c6:	1de8      	adds	r0, r5, #7
   253c8:	4929      	ldr	r1, [pc, #164]	@ (25470 <_start+0xf14>)
   253ca:	4469      	add	r1, sp
   253cc:	2249      	movs	r2, #73	@ 0x49
   253ce:	f002 fc44 	bl	27c5a <__aeabi_memcpy>
   253d2:	4c26      	ldr	r4, [pc, #152]	@ (2546c <_start+0xf10>)
   253d4:	446c      	add	r4, sp
   253d6:	4620      	mov	r0, r4
   253d8:	4629      	mov	r1, r5
   253da:	f7fe f933 	bl	23644 <_ZN18complex_no_dynamic3app17hb54eefe2d0c48376E>
   253de:	7820      	ldrb	r0, [r4, #0]
   253e0:	2801      	cmp	r0, #1
   253e2:	d103      	bne.n	253ec <_start+0xe90>
   253e4:	9909      	ldr	r1, [sp, #36]	@ 0x24
   253e6:	6e09      	ldr	r1, [r1, #96]	@ 0x60
   253e8:	910b      	str	r1, [sp, #44]	@ 0x2c
   253ea:	e019      	b.n	25420 <_start+0xec4>
   253ec:	491f      	ldr	r1, [pc, #124]	@ (2546c <_start+0xf10>)
   253ee:	4469      	add	r1, sp
   253f0:	78ca      	ldrb	r2, [r1, #3]
   253f2:	ab0c      	add	r3, sp, #48	@ 0x30
   253f4:	709a      	strb	r2, [r3, #2]
   253f6:	784a      	ldrb	r2, [r1, #1]
   253f8:	788c      	ldrb	r4, [r1, #2]
   253fa:	0224      	lsls	r4, r4, #8
   253fc:	18a2      	adds	r2, r4, r2
   253fe:	801a      	strh	r2, [r3, #0]
   25400:	3108      	adds	r1, #8
   25402:	9a09      	ldr	r2, [sp, #36]	@ 0x24
   25404:	6e12      	ldr	r2, [r2, #96]	@ 0x60
   25406:	920b      	str	r2, [sp, #44]	@ 0x2c
   25408:	4a19      	ldr	r2, [pc, #100]	@ (25470 <_start+0xf14>)
   2540a:	446a      	add	r2, sp
   2540c:	c938      	ldmia	r1!, {r3, r4, r5}
   2540e:	c238      	stmia	r2!, {r3, r4, r5}
   25410:	c938      	ldmia	r1!, {r3, r4, r5}
   25412:	c238      	stmia	r2!, {r3, r4, r5}
   25414:	c938      	ldmia	r1!, {r3, r4, r5}
   25416:	c238      	stmia	r2!, {r3, r4, r5}
   25418:	c978      	ldmia	r1!, {r3, r4, r5, r6}
   2541a:	c278      	stmia	r2!, {r3, r4, r5, r6}
   2541c:	7809      	ldrb	r1, [r1, #0]
   2541e:	7011      	strb	r1, [r2, #0]
   25420:	2800      	cmp	r0, #0
   25422:	d001      	beq.n	25428 <_start+0xecc>
   25424:	f7ff f992 	bl	2474c <_start+0x1f0>
   25428:	adff      	add	r5, sp, #1020	@ 0x3fc
   2542a:	3520      	adds	r5, #32
   2542c:	990b      	ldr	r1, [sp, #44]	@ 0x2c
   2542e:	70e9      	strb	r1, [r5, #3]
   25430:	980c      	ldr	r0, [sp, #48]	@ 0x30
   25432:	8028      	strh	r0, [r5, #0]
   25434:	0e08      	lsrs	r0, r1, #24
   25436:	71a8      	strb	r0, [r5, #6]
   25438:	0c08      	lsrs	r0, r1, #16
   2543a:	7168      	strb	r0, [r5, #5]
   2543c:	0a08      	lsrs	r0, r1, #8
   2543e:	7128      	strb	r0, [r5, #4]
   25440:	a80c      	add	r0, sp, #48	@ 0x30
   25442:	7880      	ldrb	r0, [r0, #2]
   25444:	70a8      	strb	r0, [r5, #2]
   25446:	1de8      	adds	r0, r5, #7
   25448:	4909      	ldr	r1, [pc, #36]	@ (25470 <_start+0xf14>)
   2544a:	4469      	add	r1, sp
   2544c:	2235      	movs	r2, #53	@ 0x35
   2544e:	f002 fc04 	bl	27c5a <__aeabi_memcpy>
   25452:	4c06      	ldr	r4, [pc, #24]	@ (2546c <_start+0xf10>)
   25454:	446c      	add	r4, sp
   25456:	4620      	mov	r0, r4
   25458:	4629      	mov	r1, r5
   2545a:	f7fd fd3d 	bl	22ed8 <_ZN18complex_no_dynamic3app17h897d49c87fdc1bd3E>
   2545e:	7820      	ldrb	r0, [r4, #0]
   25460:	2801      	cmp	r0, #1
   25462:	d107      	bne.n	25474 <_start+0xf18>
   25464:	9909      	ldr	r1, [sp, #36]	@ 0x24
   25466:	6e09      	ldr	r1, [r1, #96]	@ 0x60
   25468:	910b      	str	r1, [sp, #44]	@ 0x2c
   2546a:	e01d      	b.n	254a8 <_start+0xf4c>
   2546c:	00001404 	.word	0x00001404
   25470:	000013a8 	.word	0x000013a8
   25474:	49f4      	ldr	r1, [pc, #976]	@ (25848 <_start+0x12ec>)
   25476:	4469      	add	r1, sp
   25478:	78ca      	ldrb	r2, [r1, #3]
   2547a:	ab0c      	add	r3, sp, #48	@ 0x30
   2547c:	709a      	strb	r2, [r3, #2]
   2547e:	784a      	ldrb	r2, [r1, #1]
   25480:	788c      	ldrb	r4, [r1, #2]
   25482:	0224      	lsls	r4, r4, #8
   25484:	18a2      	adds	r2, r4, r2
   25486:	801a      	strh	r2, [r3, #0]
   25488:	3108      	adds	r1, #8
   2548a:	9a09      	ldr	r2, [sp, #36]	@ 0x24
   2548c:	6e12      	ldr	r2, [r2, #96]	@ 0x60
   2548e:	920b      	str	r2, [sp, #44]	@ 0x2c
   25490:	4aee      	ldr	r2, [pc, #952]	@ (2584c <_start+0x12f0>)
   25492:	446a      	add	r2, sp
   25494:	c938      	ldmia	r1!, {r3, r4, r5}
   25496:	c238      	stmia	r2!, {r3, r4, r5}
   25498:	c938      	ldmia	r1!, {r3, r4, r5}
   2549a:	c238      	stmia	r2!, {r3, r4, r5}
   2549c:	c978      	ldmia	r1!, {r3, r4, r5, r6}
   2549e:	c278      	stmia	r2!, {r3, r4, r5, r6}
   254a0:	880b      	ldrh	r3, [r1, #0]
   254a2:	8013      	strh	r3, [r2, #0]
   254a4:	7889      	ldrb	r1, [r1, #2]
   254a6:	7091      	strb	r1, [r2, #2]
   254a8:	2800      	cmp	r0, #0
   254aa:	d001      	beq.n	254b0 <_start+0xf54>
   254ac:	f7ff f94e 	bl	2474c <_start+0x1f0>
   254b0:	adff      	add	r5, sp, #1020	@ 0x3fc
   254b2:	355c      	adds	r5, #92	@ 0x5c
   254b4:	990b      	ldr	r1, [sp, #44]	@ 0x2c
   254b6:	70e9      	strb	r1, [r5, #3]
   254b8:	980c      	ldr	r0, [sp, #48]	@ 0x30
   254ba:	8028      	strh	r0, [r5, #0]
   254bc:	0e08      	lsrs	r0, r1, #24
   254be:	71a8      	strb	r0, [r5, #6]
   254c0:	0c08      	lsrs	r0, r1, #16
   254c2:	7168      	strb	r0, [r5, #5]
   254c4:	0a08      	lsrs	r0, r1, #8
   254c6:	7128      	strb	r0, [r5, #4]
   254c8:	a80c      	add	r0, sp, #48	@ 0x30
   254ca:	7880      	ldrb	r0, [r0, #2]
   254cc:	70a8      	strb	r0, [r5, #2]
   254ce:	1de8      	adds	r0, r5, #7
   254d0:	49de      	ldr	r1, [pc, #888]	@ (2584c <_start+0x12f0>)
   254d2:	4469      	add	r1, sp
   254d4:	222b      	movs	r2, #43	@ 0x2b
   254d6:	f002 fbc0 	bl	27c5a <__aeabi_memcpy>
   254da:	4cdb      	ldr	r4, [pc, #876]	@ (25848 <_start+0x12ec>)
   254dc:	446c      	add	r4, sp
   254de:	4620      	mov	r0, r4
   254e0:	4629      	mov	r1, r5
   254e2:	f7fe fec9 	bl	24278 <_ZN18complex_no_dynamic3app17hf38032319c0c2c71E>
   254e6:	7820      	ldrb	r0, [r4, #0]
   254e8:	2801      	cmp	r0, #1
   254ea:	d103      	bne.n	254f4 <_start+0xf98>
   254ec:	9909      	ldr	r1, [sp, #36]	@ 0x24
   254ee:	6e09      	ldr	r1, [r1, #96]	@ 0x60
   254f0:	910b      	str	r1, [sp, #44]	@ 0x2c
   254f2:	e019      	b.n	25528 <_start+0xfcc>
   254f4:	49d4      	ldr	r1, [pc, #848]	@ (25848 <_start+0x12ec>)
   254f6:	4469      	add	r1, sp
   254f8:	78ca      	ldrb	r2, [r1, #3]
   254fa:	ab0c      	add	r3, sp, #48	@ 0x30
   254fc:	709a      	strb	r2, [r3, #2]
   254fe:	784a      	ldrb	r2, [r1, #1]
   25500:	788c      	ldrb	r4, [r1, #2]
   25502:	0224      	lsls	r4, r4, #8
   25504:	18a2      	adds	r2, r4, r2
   25506:	801a      	strh	r2, [r3, #0]
   25508:	3108      	adds	r1, #8
   2550a:	9a09      	ldr	r2, [sp, #36]	@ 0x24
   2550c:	6e12      	ldr	r2, [r2, #96]	@ 0x60
   2550e:	920b      	str	r2, [sp, #44]	@ 0x2c
   25510:	4ace      	ldr	r2, [pc, #824]	@ (2584c <_start+0x12f0>)
   25512:	446a      	add	r2, sp
   25514:	c938      	ldmia	r1!, {r3, r4, r5}
   25516:	c238      	stmia	r2!, {r3, r4, r5}
   25518:	c938      	ldmia	r1!, {r3, r4, r5}
   2551a:	c238      	stmia	r2!, {r3, r4, r5}
   2551c:	c978      	ldmia	r1!, {r3, r4, r5, r6}
   2551e:	c278      	stmia	r2!, {r3, r4, r5, r6}
   25520:	880b      	ldrh	r3, [r1, #0]
   25522:	8013      	strh	r3, [r2, #0]
   25524:	7889      	ldrb	r1, [r1, #2]
   25526:	7091      	strb	r1, [r2, #2]
   25528:	2800      	cmp	r0, #0
   2552a:	d001      	beq.n	25530 <_start+0xfd4>
   2552c:	f7ff f90e 	bl	2474c <_start+0x1f0>
   25530:	adff      	add	r5, sp, #1020	@ 0x3fc
   25532:	3590      	adds	r5, #144	@ 0x90
   25534:	990b      	ldr	r1, [sp, #44]	@ 0x2c
   25536:	70e9      	strb	r1, [r5, #3]
   25538:	980c      	ldr	r0, [sp, #48]	@ 0x30
   2553a:	8028      	strh	r0, [r5, #0]
   2553c:	0e08      	lsrs	r0, r1, #24
   2553e:	71a8      	strb	r0, [r5, #6]
   25540:	0c08      	lsrs	r0, r1, #16
   25542:	7168      	strb	r0, [r5, #5]
   25544:	0a08      	lsrs	r0, r1, #8
   25546:	7128      	strb	r0, [r5, #4]
   25548:	a80c      	add	r0, sp, #48	@ 0x30
   2554a:	7880      	ldrb	r0, [r0, #2]
   2554c:	70a8      	strb	r0, [r5, #2]
   2554e:	1de8      	adds	r0, r5, #7
   25550:	49be      	ldr	r1, [pc, #760]	@ (2584c <_start+0x12f0>)
   25552:	4469      	add	r1, sp
   25554:	222b      	movs	r2, #43	@ 0x2b
   25556:	f002 fb80 	bl	27c5a <__aeabi_memcpy>
   2555a:	4cbb      	ldr	r4, [pc, #748]	@ (25848 <_start+0x12ec>)
   2555c:	446c      	add	r4, sp
   2555e:	4620      	mov	r0, r4
   25560:	4629      	mov	r1, r5
   25562:	f7fc fe29 	bl	221b8 <_ZN18complex_no_dynamic3app17h56c61e5d2251e1dcE>
   25566:	7820      	ldrb	r0, [r4, #0]
   25568:	2801      	cmp	r0, #1
   2556a:	d102      	bne.n	25572 <_start+0x1016>
   2556c:	9909      	ldr	r1, [sp, #36]	@ 0x24
   2556e:	6e09      	ldr	r1, [r1, #96]	@ 0x60
   25570:	e012      	b.n	25598 <_start+0x103c>
   25572:	49b6      	ldr	r1, [pc, #728]	@ (2584c <_start+0x12f0>)
   25574:	4469      	add	r1, sp
   25576:	9c09      	ldr	r4, [sp, #36]	@ 0x24
   25578:	6ee2      	ldr	r2, [r4, #108]	@ 0x6c
   2557a:	720a      	strb	r2, [r1, #8]
   2557c:	49b2      	ldr	r1, [pc, #712]	@ (25848 <_start+0x12ec>)
   2557e:	4469      	add	r1, sp
   25580:	78ca      	ldrb	r2, [r1, #3]
   25582:	ab0c      	add	r3, sp, #48	@ 0x30
   25584:	709a      	strb	r2, [r3, #2]
   25586:	784a      	ldrb	r2, [r1, #1]
   25588:	7889      	ldrb	r1, [r1, #2]
   2558a:	0209      	lsls	r1, r1, #8
   2558c:	1889      	adds	r1, r1, r2
   2558e:	8019      	strh	r1, [r3, #0]
   25590:	6e61      	ldr	r1, [r4, #100]	@ 0x64
   25592:	6ea2      	ldr	r2, [r4, #104]	@ 0x68
   25594:	c406      	stmia	r4!, {r1, r2}
   25596:	6da1      	ldr	r1, [r4, #88]	@ 0x58
   25598:	910b      	str	r1, [sp, #44]	@ 0x2c
   2559a:	2800      	cmp	r0, #0
   2559c:	d001      	beq.n	255a2 <_start+0x1046>
   2559e:	f7ff f8d5 	bl	2474c <_start+0x1f0>
   255a2:	adff      	add	r5, sp, #1020	@ 0x3fc
   255a4:	35c4      	adds	r5, #196	@ 0xc4
   255a6:	990b      	ldr	r1, [sp, #44]	@ 0x2c
   255a8:	70e9      	strb	r1, [r5, #3]
   255aa:	980c      	ldr	r0, [sp, #48]	@ 0x30
   255ac:	8028      	strh	r0, [r5, #0]
   255ae:	0e08      	lsrs	r0, r1, #24
   255b0:	71a8      	strb	r0, [r5, #6]
   255b2:	0c08      	lsrs	r0, r1, #16
   255b4:	7168      	strb	r0, [r5, #5]
   255b6:	0a08      	lsrs	r0, r1, #8
   255b8:	7128      	strb	r0, [r5, #4]
   255ba:	a80c      	add	r0, sp, #48	@ 0x30
   255bc:	7880      	ldrb	r0, [r0, #2]
   255be:	70a8      	strb	r0, [r5, #2]
   255c0:	1de8      	adds	r0, r5, #7
   255c2:	49a2      	ldr	r1, [pc, #648]	@ (2584c <_start+0x12f0>)
   255c4:	4469      	add	r1, sp
   255c6:	2209      	movs	r2, #9
   255c8:	f002 fb47 	bl	27c5a <__aeabi_memcpy>
   255cc:	4c9e      	ldr	r4, [pc, #632]	@ (25848 <_start+0x12ec>)
   255ce:	446c      	add	r4, sp
   255d0:	4620      	mov	r0, r4
   255d2:	4629      	mov	r1, r5
   255d4:	f7fd fd8e 	bl	230f4 <_ZN18complex_no_dynamic3app17h956b5adcb85f777fE>
   255d8:	7820      	ldrb	r0, [r4, #0]
   255da:	2801      	cmp	r0, #1
   255dc:	d103      	bne.n	255e6 <_start+0x108a>
   255de:	9909      	ldr	r1, [sp, #36]	@ 0x24
   255e0:	6e09      	ldr	r1, [r1, #96]	@ 0x60
   255e2:	910b      	str	r1, [sp, #44]	@ 0x2c
   255e4:	e019      	b.n	2561a <_start+0x10be>
   255e6:	4998      	ldr	r1, [pc, #608]	@ (25848 <_start+0x12ec>)
   255e8:	4469      	add	r1, sp
   255ea:	78ca      	ldrb	r2, [r1, #3]
   255ec:	ab0c      	add	r3, sp, #48	@ 0x30
   255ee:	709a      	strb	r2, [r3, #2]
   255f0:	784a      	ldrb	r2, [r1, #1]
   255f2:	788c      	ldrb	r4, [r1, #2]
   255f4:	0224      	lsls	r4, r4, #8
   255f6:	18a2      	adds	r2, r4, r2
   255f8:	801a      	strh	r2, [r3, #0]
   255fa:	3108      	adds	r1, #8
   255fc:	9a09      	ldr	r2, [sp, #36]	@ 0x24
   255fe:	6e12      	ldr	r2, [r2, #96]	@ 0x60
   25600:	920b      	str	r2, [sp, #44]	@ 0x2c
   25602:	4a92      	ldr	r2, [pc, #584]	@ (2584c <_start+0x12f0>)
   25604:	446a      	add	r2, sp
   25606:	c938      	ldmia	r1!, {r3, r4, r5}
   25608:	c238      	stmia	r2!, {r3, r4, r5}
   2560a:	c978      	ldmia	r1!, {r3, r4, r5, r6}
   2560c:	c278      	stmia	r2!, {r3, r4, r5, r6}
   2560e:	c978      	ldmia	r1!, {r3, r4, r5, r6}
   25610:	c278      	stmia	r2!, {r3, r4, r5, r6}
   25612:	880b      	ldrh	r3, [r1, #0]
   25614:	8013      	strh	r3, [r2, #0]
   25616:	7889      	ldrb	r1, [r1, #2]
   25618:	7091      	strb	r1, [r2, #2]
   2561a:	2800      	cmp	r0, #0
   2561c:	d001      	beq.n	25622 <_start+0x10c6>
   2561e:	f7ff f895 	bl	2474c <_start+0x1f0>
   25622:	adff      	add	r5, sp, #1020	@ 0x3fc
   25624:	35d4      	adds	r5, #212	@ 0xd4
   25626:	990b      	ldr	r1, [sp, #44]	@ 0x2c
   25628:	70e9      	strb	r1, [r5, #3]
   2562a:	980c      	ldr	r0, [sp, #48]	@ 0x30
   2562c:	8028      	strh	r0, [r5, #0]
   2562e:	0e08      	lsrs	r0, r1, #24
   25630:	71a8      	strb	r0, [r5, #6]
   25632:	0c08      	lsrs	r0, r1, #16
   25634:	7168      	strb	r0, [r5, #5]
   25636:	0a08      	lsrs	r0, r1, #8
   25638:	7128      	strb	r0, [r5, #4]
   2563a:	a80c      	add	r0, sp, #48	@ 0x30
   2563c:	7880      	ldrb	r0, [r0, #2]
   2563e:	70a8      	strb	r0, [r5, #2]
   25640:	1de8      	adds	r0, r5, #7
   25642:	4982      	ldr	r1, [pc, #520]	@ (2584c <_start+0x12f0>)
   25644:	4469      	add	r1, sp
   25646:	222f      	movs	r2, #47	@ 0x2f
   25648:	f002 fb07 	bl	27c5a <__aeabi_memcpy>
   2564c:	4c7e      	ldr	r4, [pc, #504]	@ (25848 <_start+0x12ec>)
   2564e:	446c      	add	r4, sp
   25650:	4620      	mov	r0, r4
   25652:	4629      	mov	r1, r5
   25654:	f7fa fed4 	bl	20400 <_ZN18complex_no_dynamic3app17h05251b2f475f1da6E>
   25658:	7821      	ldrb	r1, [r4, #0]
   2565a:	2901      	cmp	r1, #1
   2565c:	d103      	bne.n	25666 <_start+0x110a>
   2565e:	9809      	ldr	r0, [sp, #36]	@ 0x24
   25660:	6e00      	ldr	r0, [r0, #96]	@ 0x60
   25662:	900b      	str	r0, [sp, #44]	@ 0x2c
   25664:	e00f      	b.n	25686 <_start+0x112a>
   25666:	4878      	ldr	r0, [pc, #480]	@ (25848 <_start+0x12ec>)
   25668:	4468      	add	r0, sp
   2566a:	78c2      	ldrb	r2, [r0, #3]
   2566c:	4b77      	ldr	r3, [pc, #476]	@ (2584c <_start+0x12f0>)
   2566e:	446b      	add	r3, sp
   25670:	709a      	strb	r2, [r3, #2]
   25672:	7842      	ldrb	r2, [r0, #1]
   25674:	7880      	ldrb	r0, [r0, #2]
   25676:	0200      	lsls	r0, r0, #8
   25678:	1880      	adds	r0, r0, r2
   2567a:	8018      	strh	r0, [r3, #0]
   2567c:	9809      	ldr	r0, [sp, #36]	@ 0x24
   2567e:	6e02      	ldr	r2, [r0, #96]	@ 0x60
   25680:	920b      	str	r2, [sp, #44]	@ 0x2c
   25682:	6e42      	ldr	r2, [r0, #100]	@ 0x64
   25684:	6e80      	ldr	r0, [r0, #104]	@ 0x68
   25686:	2900      	cmp	r1, #0
   25688:	d001      	beq.n	2568e <_start+0x1132>
   2568a:	f7ff f85f 	bl	2474c <_start+0x1f0>
   2568e:	9906      	ldr	r1, [sp, #24]
   25690:	1ccb      	adds	r3, r1, #3
   25692:	711a      	strb	r2, [r3, #4]
   25694:	9d0b      	ldr	r5, [sp, #44]	@ 0x2c
   25696:	701d      	strb	r5, [r3, #0]
   25698:	496d      	ldr	r1, [pc, #436]	@ (25850 <_start+0x12f4>)
   2569a:	4469      	add	r1, sp
   2569c:	9c09      	ldr	r4, [sp, #36]	@ 0x24
   2569e:	6824      	ldr	r4, [r4, #0]
   256a0:	800c      	strh	r4, [r1, #0]
   256a2:	7218      	strb	r0, [r3, #8]
   256a4:	0e14      	lsrs	r4, r2, #24
   256a6:	71dc      	strb	r4, [r3, #7]
   256a8:	0c14      	lsrs	r4, r2, #16
   256aa:	719c      	strb	r4, [r3, #6]
   256ac:	0a12      	lsrs	r2, r2, #8
   256ae:	715a      	strb	r2, [r3, #5]
   256b0:	0e2a      	lsrs	r2, r5, #24
   256b2:	70da      	strb	r2, [r3, #3]
   256b4:	0c2a      	lsrs	r2, r5, #16
   256b6:	709a      	strb	r2, [r3, #2]
   256b8:	0a2a      	lsrs	r2, r5, #8
   256ba:	705a      	strb	r2, [r3, #1]
   256bc:	4a63      	ldr	r2, [pc, #396]	@ (2584c <_start+0x12f0>)
   256be:	446a      	add	r2, sp
   256c0:	7892      	ldrb	r2, [r2, #2]
   256c2:	708a      	strb	r2, [r1, #2]
   256c4:	0e02      	lsrs	r2, r0, #24
   256c6:	72da      	strb	r2, [r3, #11]
   256c8:	0c02      	lsrs	r2, r0, #16
   256ca:	729a      	strb	r2, [r3, #10]
   256cc:	0a00      	lsrs	r0, r0, #8
   256ce:	7258      	strb	r0, [r3, #9]
   256d0:	4c5d      	ldr	r4, [pc, #372]	@ (25848 <_start+0x12ec>)
   256d2:	446c      	add	r4, sp
   256d4:	4620      	mov	r0, r4
   256d6:	f7fb fb45 	bl	20d64 <_ZN18complex_no_dynamic3app17h1b7f6dcd960f8ddaE>
   256da:	7820      	ldrb	r0, [r4, #0]
   256dc:	2801      	cmp	r0, #1
   256de:	d103      	bne.n	256e8 <_start+0x118c>
   256e0:	9909      	ldr	r1, [sp, #36]	@ 0x24
   256e2:	6e09      	ldr	r1, [r1, #96]	@ 0x60
   256e4:	910b      	str	r1, [sp, #44]	@ 0x2c
   256e6:	e010      	b.n	2570a <_start+0x11ae>
   256e8:	4957      	ldr	r1, [pc, #348]	@ (25848 <_start+0x12ec>)
   256ea:	4469      	add	r1, sp
   256ec:	78ca      	ldrb	r2, [r1, #3]
   256ee:	ab0c      	add	r3, sp, #48	@ 0x30
   256f0:	709a      	strb	r2, [r3, #2]
   256f2:	784a      	ldrb	r2, [r1, #1]
   256f4:	7889      	ldrb	r1, [r1, #2]
   256f6:	0209      	lsls	r1, r1, #8
   256f8:	1889      	adds	r1, r1, r2
   256fa:	8019      	strh	r1, [r3, #0]
   256fc:	9c09      	ldr	r4, [sp, #36]	@ 0x24
   256fe:	6e21      	ldr	r1, [r4, #96]	@ 0x60
   25700:	910b      	str	r1, [sp, #44]	@ 0x2c
   25702:	4623      	mov	r3, r4
   25704:	3364      	adds	r3, #100	@ 0x64
   25706:	cb0e      	ldmia	r3, {r1, r2, r3}
   25708:	c40e      	stmia	r4!, {r1, r2, r3}
   2570a:	2800      	cmp	r0, #0
   2570c:	d001      	beq.n	25712 <_start+0x11b6>
   2570e:	f7ff f81d 	bl	2474c <_start+0x1f0>
   25712:	4d50      	ldr	r5, [pc, #320]	@ (25854 <_start+0x12f8>)
   25714:	446d      	add	r5, sp
   25716:	990b      	ldr	r1, [sp, #44]	@ 0x2c
   25718:	70e9      	strb	r1, [r5, #3]
   2571a:	980c      	ldr	r0, [sp, #48]	@ 0x30
   2571c:	8028      	strh	r0, [r5, #0]
   2571e:	0e08      	lsrs	r0, r1, #24
   25720:	71a8      	strb	r0, [r5, #6]
   25722:	0c08      	lsrs	r0, r1, #16
   25724:	7168      	strb	r0, [r5, #5]
   25726:	0a08      	lsrs	r0, r1, #8
   25728:	7128      	strb	r0, [r5, #4]
   2572a:	a80c      	add	r0, sp, #48	@ 0x30
   2572c:	7880      	ldrb	r0, [r0, #2]
   2572e:	70a8      	strb	r0, [r5, #2]
   25730:	1de8      	adds	r0, r5, #7
   25732:	4946      	ldr	r1, [pc, #280]	@ (2584c <_start+0x12f0>)
   25734:	4469      	add	r1, sp
   25736:	220c      	movs	r2, #12
   25738:	f002 fa8f 	bl	27c5a <__aeabi_memcpy>
   2573c:	4c42      	ldr	r4, [pc, #264]	@ (25848 <_start+0x12ec>)
   2573e:	446c      	add	r4, sp
   25740:	4620      	mov	r0, r4
   25742:	4629      	mov	r1, r5
   25744:	f7fb f944 	bl	209d0 <_ZN18complex_no_dynamic3app17h14074709dfc1f70aE>
   25748:	7824      	ldrb	r4, [r4, #0]
   2574a:	2c01      	cmp	r4, #1
   2574c:	d103      	bne.n	25756 <_start+0x11fa>
   2574e:	9809      	ldr	r0, [sp, #36]	@ 0x24
   25750:	6e00      	ldr	r0, [r0, #96]	@ 0x60
   25752:	900b      	str	r0, [sp, #44]	@ 0x2c
   25754:	e012      	b.n	2577c <_start+0x1220>
   25756:	493c      	ldr	r1, [pc, #240]	@ (25848 <_start+0x12ec>)
   25758:	4469      	add	r1, sp
   2575a:	78c8      	ldrb	r0, [r1, #3]
   2575c:	aa0c      	add	r2, sp, #48	@ 0x30
   2575e:	7090      	strb	r0, [r2, #2]
   25760:	7848      	ldrb	r0, [r1, #1]
   25762:	788b      	ldrb	r3, [r1, #2]
   25764:	021b      	lsls	r3, r3, #8
   25766:	1818      	adds	r0, r3, r0
   25768:	8010      	strh	r0, [r2, #0]
   2576a:	9809      	ldr	r0, [sp, #36]	@ 0x24
   2576c:	6e00      	ldr	r0, [r0, #96]	@ 0x60
   2576e:	900b      	str	r0, [sp, #44]	@ 0x2c
   25770:	3108      	adds	r1, #8
   25772:	4836      	ldr	r0, [pc, #216]	@ (2584c <_start+0x12f0>)
   25774:	4468      	add	r0, sp
   25776:	224e      	movs	r2, #78	@ 0x4e
   25778:	f002 f90f 	bl	2799a <__aeabi_memcpy4>
   2577c:	2c00      	cmp	r4, #0
   2577e:	d001      	beq.n	25784 <_start+0x1228>
   25780:	f7fe ffe4 	bl	2474c <_start+0x1f0>
   25784:	4d34      	ldr	r5, [pc, #208]	@ (25858 <_start+0x12fc>)
   25786:	446d      	add	r5, sp
   25788:	990b      	ldr	r1, [sp, #44]	@ 0x2c
   2578a:	70e9      	strb	r1, [r5, #3]
   2578c:	980c      	ldr	r0, [sp, #48]	@ 0x30
   2578e:	8028      	strh	r0, [r5, #0]
   25790:	0e08      	lsrs	r0, r1, #24
   25792:	71a8      	strb	r0, [r5, #6]
   25794:	0c08      	lsrs	r0, r1, #16
   25796:	7168      	strb	r0, [r5, #5]
   25798:	0a08      	lsrs	r0, r1, #8
   2579a:	7128      	strb	r0, [r5, #4]
   2579c:	a80c      	add	r0, sp, #48	@ 0x30
   2579e:	7880      	ldrb	r0, [r0, #2]
   257a0:	70a8      	strb	r0, [r5, #2]
   257a2:	1de8      	adds	r0, r5, #7
   257a4:	4929      	ldr	r1, [pc, #164]	@ (2584c <_start+0x12f0>)
   257a6:	4469      	add	r1, sp
   257a8:	224e      	movs	r2, #78	@ 0x4e
   257aa:	f002 fa56 	bl	27c5a <__aeabi_memcpy>
   257ae:	4c26      	ldr	r4, [pc, #152]	@ (25848 <_start+0x12ec>)
   257b0:	446c      	add	r4, sp
   257b2:	4620      	mov	r0, r4
   257b4:	4629      	mov	r1, r5
   257b6:	f7fd fdd9 	bl	2336c <_ZN18complex_no_dynamic3app17hac2e9ab50544ede4E>
   257ba:	7820      	ldrb	r0, [r4, #0]
   257bc:	2801      	cmp	r0, #1
   257be:	d103      	bne.n	257c8 <_start+0x126c>
   257c0:	9909      	ldr	r1, [sp, #36]	@ 0x24
   257c2:	6e09      	ldr	r1, [r1, #96]	@ 0x60
   257c4:	910b      	str	r1, [sp, #44]	@ 0x2c
   257c6:	e019      	b.n	257fc <_start+0x12a0>
   257c8:	491f      	ldr	r1, [pc, #124]	@ (25848 <_start+0x12ec>)
   257ca:	4469      	add	r1, sp
   257cc:	78ca      	ldrb	r2, [r1, #3]
   257ce:	ab0c      	add	r3, sp, #48	@ 0x30
   257d0:	709a      	strb	r2, [r3, #2]
   257d2:	784a      	ldrb	r2, [r1, #1]
   257d4:	788c      	ldrb	r4, [r1, #2]
   257d6:	0224      	lsls	r4, r4, #8
   257d8:	18a2      	adds	r2, r4, r2
   257da:	801a      	strh	r2, [r3, #0]
   257dc:	3108      	adds	r1, #8
   257de:	9a09      	ldr	r2, [sp, #36]	@ 0x24
   257e0:	6e12      	ldr	r2, [r2, #96]	@ 0x60
   257e2:	920b      	str	r2, [sp, #44]	@ 0x2c
   257e4:	4a19      	ldr	r2, [pc, #100]	@ (2584c <_start+0x12f0>)
   257e6:	446a      	add	r2, sp
   257e8:	c938      	ldmia	r1!, {r3, r4, r5}
   257ea:	c238      	stmia	r2!, {r3, r4, r5}
   257ec:	c938      	ldmia	r1!, {r3, r4, r5}
   257ee:	c238      	stmia	r2!, {r3, r4, r5}
   257f0:	c978      	ldmia	r1!, {r3, r4, r5, r6}
   257f2:	c278      	stmia	r2!, {r3, r4, r5, r6}
   257f4:	880b      	ldrh	r3, [r1, #0]
   257f6:	8013      	strh	r3, [r2, #0]
   257f8:	7889      	ldrb	r1, [r1, #2]
   257fa:	7091      	strb	r1, [r2, #2]
   257fc:	2800      	cmp	r0, #0
   257fe:	d001      	beq.n	25804 <_start+0x12a8>
   25800:	f7fe ffa4 	bl	2474c <_start+0x1f0>
   25804:	4d15      	ldr	r5, [pc, #84]	@ (2585c <_start+0x1300>)
   25806:	446d      	add	r5, sp
   25808:	990b      	ldr	r1, [sp, #44]	@ 0x2c
   2580a:	70e9      	strb	r1, [r5, #3]
   2580c:	980c      	ldr	r0, [sp, #48]	@ 0x30
   2580e:	8028      	strh	r0, [r5, #0]
   25810:	0e08      	lsrs	r0, r1, #24
   25812:	71a8      	strb	r0, [r5, #6]
   25814:	0c08      	lsrs	r0, r1, #16
   25816:	7168      	strb	r0, [r5, #5]
   25818:	0a08      	lsrs	r0, r1, #8
   2581a:	7128      	strb	r0, [r5, #4]
   2581c:	a80c      	add	r0, sp, #48	@ 0x30
   2581e:	7880      	ldrb	r0, [r0, #2]
   25820:	70a8      	strb	r0, [r5, #2]
   25822:	1de8      	adds	r0, r5, #7
   25824:	4909      	ldr	r1, [pc, #36]	@ (2584c <_start+0x12f0>)
   25826:	4469      	add	r1, sp
   25828:	222b      	movs	r2, #43	@ 0x2b
   2582a:	f002 fa16 	bl	27c5a <__aeabi_memcpy>
   2582e:	4c06      	ldr	r4, [pc, #24]	@ (25848 <_start+0x12ec>)
   25830:	446c      	add	r4, sp
   25832:	4620      	mov	r0, r4
   25834:	4629      	mov	r1, r5
   25836:	f7fd fe51 	bl	234dc <_ZN18complex_no_dynamic3app17hafe3b3a662b85fefE>
   2583a:	7820      	ldrb	r0, [r4, #0]
   2583c:	2801      	cmp	r0, #1
   2583e:	d10f      	bne.n	25860 <_start+0x1304>
   25840:	9909      	ldr	r1, [sp, #36]	@ 0x24
   25842:	6e09      	ldr	r1, [r1, #96]	@ 0x60
   25844:	910b      	str	r1, [sp, #44]	@ 0x2c
   25846:	e025      	b.n	25894 <_start+0x1338>
   25848:	00001404 	.word	0x00001404
   2584c:	000013a8 	.word	0x000013a8
   25850:	00000508 	.word	0x00000508
   25854:	00000518 	.word	0x00000518
   25858:	0000052c 	.word	0x0000052c
   2585c:	00000584 	.word	0x00000584
   25860:	49ee      	ldr	r1, [pc, #952]	@ (25c1c <_start+0x16c0>)
   25862:	4469      	add	r1, sp
   25864:	78ca      	ldrb	r2, [r1, #3]
   25866:	ab0c      	add	r3, sp, #48	@ 0x30
   25868:	709a      	strb	r2, [r3, #2]
   2586a:	784a      	ldrb	r2, [r1, #1]
   2586c:	788c      	ldrb	r4, [r1, #2]
   2586e:	0224      	lsls	r4, r4, #8
   25870:	18a2      	adds	r2, r4, r2
   25872:	801a      	strh	r2, [r3, #0]
   25874:	3108      	adds	r1, #8
   25876:	9a09      	ldr	r2, [sp, #36]	@ 0x24
   25878:	6e12      	ldr	r2, [r2, #96]	@ 0x60
   2587a:	920b      	str	r2, [sp, #44]	@ 0x2c
   2587c:	4ae8      	ldr	r2, [pc, #928]	@ (25c20 <_start+0x16c4>)
   2587e:	446a      	add	r2, sp
   25880:	c938      	ldmia	r1!, {r3, r4, r5}
   25882:	c238      	stmia	r2!, {r3, r4, r5}
   25884:	c978      	ldmia	r1!, {r3, r4, r5, r6}
   25886:	c278      	stmia	r2!, {r3, r4, r5, r6}
   25888:	c938      	ldmia	r1!, {r3, r4, r5}
   2588a:	c238      	stmia	r2!, {r3, r4, r5}
   2588c:	c978      	ldmia	r1!, {r3, r4, r5, r6}
   2588e:	c278      	stmia	r2!, {r3, r4, r5, r6}
   25890:	8809      	ldrh	r1, [r1, #0]
   25892:	8011      	strh	r1, [r2, #0]
   25894:	2800      	cmp	r0, #0
   25896:	d001      	beq.n	2589c <_start+0x1340>
   25898:	f7fe ff58 	bl	2474c <_start+0x1f0>
   2589c:	4de1      	ldr	r5, [pc, #900]	@ (25c24 <_start+0x16c8>)
   2589e:	446d      	add	r5, sp
   258a0:	990b      	ldr	r1, [sp, #44]	@ 0x2c
   258a2:	70e9      	strb	r1, [r5, #3]
   258a4:	980c      	ldr	r0, [sp, #48]	@ 0x30
   258a6:	8028      	strh	r0, [r5, #0]
   258a8:	0e08      	lsrs	r0, r1, #24
   258aa:	71a8      	strb	r0, [r5, #6]
   258ac:	0c08      	lsrs	r0, r1, #16
   258ae:	7168      	strb	r0, [r5, #5]
   258b0:	0a08      	lsrs	r0, r1, #8
   258b2:	7128      	strb	r0, [r5, #4]
   258b4:	a80c      	add	r0, sp, #48	@ 0x30
   258b6:	7880      	ldrb	r0, [r0, #2]
   258b8:	70a8      	strb	r0, [r5, #2]
   258ba:	1de8      	adds	r0, r5, #7
   258bc:	49d8      	ldr	r1, [pc, #864]	@ (25c20 <_start+0x16c4>)
   258be:	4469      	add	r1, sp
   258c0:	223a      	movs	r2, #58	@ 0x3a
   258c2:	f002 f9ca 	bl	27c5a <__aeabi_memcpy>
   258c6:	4cd5      	ldr	r4, [pc, #852]	@ (25c1c <_start+0x16c0>)
   258c8:	446c      	add	r4, sp
   258ca:	4620      	mov	r0, r4
   258cc:	4629      	mov	r1, r5
   258ce:	f7fe faa3 	bl	23e18 <_ZN18complex_no_dynamic3app17hd9dca1763ec8112aE>
   258d2:	7820      	ldrb	r0, [r4, #0]
   258d4:	2801      	cmp	r0, #1
   258d6:	d103      	bne.n	258e0 <_start+0x1384>
   258d8:	9909      	ldr	r1, [sp, #36]	@ 0x24
   258da:	6e09      	ldr	r1, [r1, #96]	@ 0x60
   258dc:	910b      	str	r1, [sp, #44]	@ 0x2c
   258de:	e017      	b.n	25910 <_start+0x13b4>
   258e0:	49ce      	ldr	r1, [pc, #824]	@ (25c1c <_start+0x16c0>)
   258e2:	4469      	add	r1, sp
   258e4:	78ca      	ldrb	r2, [r1, #3]
   258e6:	ab0c      	add	r3, sp, #48	@ 0x30
   258e8:	709a      	strb	r2, [r3, #2]
   258ea:	784a      	ldrb	r2, [r1, #1]
   258ec:	788c      	ldrb	r4, [r1, #2]
   258ee:	0224      	lsls	r4, r4, #8
   258f0:	18a2      	adds	r2, r4, r2
   258f2:	801a      	strh	r2, [r3, #0]
   258f4:	3108      	adds	r1, #8
   258f6:	9a09      	ldr	r2, [sp, #36]	@ 0x24
   258f8:	6e12      	ldr	r2, [r2, #96]	@ 0x60
   258fa:	920b      	str	r2, [sp, #44]	@ 0x2c
   258fc:	4ac8      	ldr	r2, [pc, #800]	@ (25c20 <_start+0x16c4>)
   258fe:	446a      	add	r2, sp
   25900:	c938      	ldmia	r1!, {r3, r4, r5}
   25902:	c238      	stmia	r2!, {r3, r4, r5}
   25904:	c938      	ldmia	r1!, {r3, r4, r5}
   25906:	c238      	stmia	r2!, {r3, r4, r5}
   25908:	880b      	ldrh	r3, [r1, #0]
   2590a:	8013      	strh	r3, [r2, #0]
   2590c:	7889      	ldrb	r1, [r1, #2]
   2590e:	7091      	strb	r1, [r2, #2]
   25910:	2800      	cmp	r0, #0
   25912:	d001      	beq.n	25918 <_start+0x13bc>
   25914:	f7fe ff1a 	bl	2474c <_start+0x1f0>
   25918:	4dc3      	ldr	r5, [pc, #780]	@ (25c28 <_start+0x16cc>)
   2591a:	446d      	add	r5, sp
   2591c:	990b      	ldr	r1, [sp, #44]	@ 0x2c
   2591e:	70e9      	strb	r1, [r5, #3]
   25920:	980c      	ldr	r0, [sp, #48]	@ 0x30
   25922:	8028      	strh	r0, [r5, #0]
   25924:	0e08      	lsrs	r0, r1, #24
   25926:	71a8      	strb	r0, [r5, #6]
   25928:	0c08      	lsrs	r0, r1, #16
   2592a:	7168      	strb	r0, [r5, #5]
   2592c:	0a08      	lsrs	r0, r1, #8
   2592e:	7128      	strb	r0, [r5, #4]
   25930:	a80c      	add	r0, sp, #48	@ 0x30
   25932:	7880      	ldrb	r0, [r0, #2]
   25934:	70a8      	strb	r0, [r5, #2]
   25936:	1de8      	adds	r0, r5, #7
   25938:	49b9      	ldr	r1, [pc, #740]	@ (25c20 <_start+0x16c4>)
   2593a:	4469      	add	r1, sp
   2593c:	221b      	movs	r2, #27
   2593e:	f002 f98c 	bl	27c5a <__aeabi_memcpy>
   25942:	4cb6      	ldr	r4, [pc, #728]	@ (25c1c <_start+0x16c0>)
   25944:	446c      	add	r4, sp
   25946:	4620      	mov	r0, r4
   25948:	4629      	mov	r1, r5
   2594a:	f7fd fd6b 	bl	23424 <_ZN18complex_no_dynamic3app17had5912b2c716bdd7E>
   2594e:	7824      	ldrb	r4, [r4, #0]
   25950:	2c01      	cmp	r4, #1
   25952:	d103      	bne.n	2595c <_start+0x1400>
   25954:	9809      	ldr	r0, [sp, #36]	@ 0x24
   25956:	6e00      	ldr	r0, [r0, #96]	@ 0x60
   25958:	900b      	str	r0, [sp, #44]	@ 0x2c
   2595a:	e012      	b.n	25982 <_start+0x1426>
   2595c:	49af      	ldr	r1, [pc, #700]	@ (25c1c <_start+0x16c0>)
   2595e:	4469      	add	r1, sp
   25960:	78c8      	ldrb	r0, [r1, #3]
   25962:	aa0c      	add	r2, sp, #48	@ 0x30
   25964:	7090      	strb	r0, [r2, #2]
   25966:	7848      	ldrb	r0, [r1, #1]
   25968:	788b      	ldrb	r3, [r1, #2]
   2596a:	021b      	lsls	r3, r3, #8
   2596c:	1818      	adds	r0, r3, r0
   2596e:	8010      	strh	r0, [r2, #0]
   25970:	9809      	ldr	r0, [sp, #36]	@ 0x24
   25972:	6e00      	ldr	r0, [r0, #96]	@ 0x60
   25974:	900b      	str	r0, [sp, #44]	@ 0x2c
   25976:	3108      	adds	r1, #8
   25978:	48a9      	ldr	r0, [pc, #676]	@ (25c20 <_start+0x16c4>)
   2597a:	4468      	add	r0, sp
   2597c:	224a      	movs	r2, #74	@ 0x4a
   2597e:	f002 f80c 	bl	2799a <__aeabi_memcpy4>
   25982:	2c00      	cmp	r4, #0
   25984:	d001      	beq.n	2598a <_start+0x142e>
   25986:	f7fe fee1 	bl	2474c <_start+0x1f0>
   2598a:	4da8      	ldr	r5, [pc, #672]	@ (25c2c <_start+0x16d0>)
   2598c:	446d      	add	r5, sp
   2598e:	990b      	ldr	r1, [sp, #44]	@ 0x2c
   25990:	70e9      	strb	r1, [r5, #3]
   25992:	980c      	ldr	r0, [sp, #48]	@ 0x30
   25994:	8028      	strh	r0, [r5, #0]
   25996:	0e08      	lsrs	r0, r1, #24
   25998:	71a8      	strb	r0, [r5, #6]
   2599a:	0c08      	lsrs	r0, r1, #16
   2599c:	7168      	strb	r0, [r5, #5]
   2599e:	0a08      	lsrs	r0, r1, #8
   259a0:	7128      	strb	r0, [r5, #4]
   259a2:	a80c      	add	r0, sp, #48	@ 0x30
   259a4:	7880      	ldrb	r0, [r0, #2]
   259a6:	70a8      	strb	r0, [r5, #2]
   259a8:	1de8      	adds	r0, r5, #7
   259aa:	499d      	ldr	r1, [pc, #628]	@ (25c20 <_start+0x16c4>)
   259ac:	4469      	add	r1, sp
   259ae:	224a      	movs	r2, #74	@ 0x4a
   259b0:	f002 f953 	bl	27c5a <__aeabi_memcpy>
   259b4:	4c99      	ldr	r4, [pc, #612]	@ (25c1c <_start+0x16c0>)
   259b6:	446c      	add	r4, sp
   259b8:	4620      	mov	r0, r4
   259ba:	4629      	mov	r1, r5
   259bc:	f7fc fba2 	bl	22104 <_ZN18complex_no_dynamic3app17h564be6aa86c68208E>
   259c0:	7824      	ldrb	r4, [r4, #0]
   259c2:	2c01      	cmp	r4, #1
   259c4:	d103      	bne.n	259ce <_start+0x1472>
   259c6:	9809      	ldr	r0, [sp, #36]	@ 0x24
   259c8:	6e00      	ldr	r0, [r0, #96]	@ 0x60
   259ca:	900b      	str	r0, [sp, #44]	@ 0x2c
   259cc:	e012      	b.n	259f4 <_start+0x1498>
   259ce:	4993      	ldr	r1, [pc, #588]	@ (25c1c <_start+0x16c0>)
   259d0:	4469      	add	r1, sp
   259d2:	78c8      	ldrb	r0, [r1, #3]
   259d4:	aa0c      	add	r2, sp, #48	@ 0x30
   259d6:	7090      	strb	r0, [r2, #2]
   259d8:	7848      	ldrb	r0, [r1, #1]
   259da:	788b      	ldrb	r3, [r1, #2]
   259dc:	021b      	lsls	r3, r3, #8
   259de:	1818      	adds	r0, r3, r0
   259e0:	8010      	strh	r0, [r2, #0]
   259e2:	9809      	ldr	r0, [sp, #36]	@ 0x24
   259e4:	6e00      	ldr	r0, [r0, #96]	@ 0x60
   259e6:	900b      	str	r0, [sp, #44]	@ 0x2c
   259e8:	3108      	adds	r1, #8
   259ea:	488d      	ldr	r0, [pc, #564]	@ (25c20 <_start+0x16c4>)
   259ec:	4468      	add	r0, sp
   259ee:	2248      	movs	r2, #72	@ 0x48
   259f0:	f001 ffd3 	bl	2799a <__aeabi_memcpy4>
   259f4:	2c00      	cmp	r4, #0
   259f6:	d001      	beq.n	259fc <_start+0x14a0>
   259f8:	f7fe fea8 	bl	2474c <_start+0x1f0>
   259fc:	4d8c      	ldr	r5, [pc, #560]	@ (25c30 <_start+0x16d4>)
   259fe:	446d      	add	r5, sp
   25a00:	990b      	ldr	r1, [sp, #44]	@ 0x2c
   25a02:	70e9      	strb	r1, [r5, #3]
   25a04:	980c      	ldr	r0, [sp, #48]	@ 0x30
   25a06:	8028      	strh	r0, [r5, #0]
   25a08:	0e08      	lsrs	r0, r1, #24
   25a0a:	71a8      	strb	r0, [r5, #6]
   25a0c:	0c08      	lsrs	r0, r1, #16
   25a0e:	7168      	strb	r0, [r5, #5]
   25a10:	0a08      	lsrs	r0, r1, #8
   25a12:	7128      	strb	r0, [r5, #4]
   25a14:	a80c      	add	r0, sp, #48	@ 0x30
   25a16:	7880      	ldrb	r0, [r0, #2]
   25a18:	70a8      	strb	r0, [r5, #2]
   25a1a:	1de8      	adds	r0, r5, #7
   25a1c:	4980      	ldr	r1, [pc, #512]	@ (25c20 <_start+0x16c4>)
   25a1e:	4469      	add	r1, sp
   25a20:	2248      	movs	r2, #72	@ 0x48
   25a22:	f002 f91a 	bl	27c5a <__aeabi_memcpy>
   25a26:	4c7d      	ldr	r4, [pc, #500]	@ (25c1c <_start+0x16c0>)
   25a28:	446c      	add	r4, sp
   25a2a:	4620      	mov	r0, r4
   25a2c:	4629      	mov	r1, r5
   25a2e:	f7fd fdaf 	bl	23590 <_ZN18complex_no_dynamic3app17hb2876c97db668a05E>
   25a32:	7820      	ldrb	r0, [r4, #0]
   25a34:	2801      	cmp	r0, #1
   25a36:	d103      	bne.n	25a40 <_start+0x14e4>
   25a38:	9909      	ldr	r1, [sp, #36]	@ 0x24
   25a3a:	6e09      	ldr	r1, [r1, #96]	@ 0x60
   25a3c:	910b      	str	r1, [sp, #44]	@ 0x2c
   25a3e:	e017      	b.n	25a70 <_start+0x1514>
   25a40:	4976      	ldr	r1, [pc, #472]	@ (25c1c <_start+0x16c0>)
   25a42:	4469      	add	r1, sp
   25a44:	78ca      	ldrb	r2, [r1, #3]
   25a46:	ab0c      	add	r3, sp, #48	@ 0x30
   25a48:	709a      	strb	r2, [r3, #2]
   25a4a:	784a      	ldrb	r2, [r1, #1]
   25a4c:	788c      	ldrb	r4, [r1, #2]
   25a4e:	0224      	lsls	r4, r4, #8
   25a50:	18a2      	adds	r2, r4, r2
   25a52:	801a      	strh	r2, [r3, #0]
   25a54:	3108      	adds	r1, #8
   25a56:	9a09      	ldr	r2, [sp, #36]	@ 0x24
   25a58:	6e12      	ldr	r2, [r2, #96]	@ 0x60
   25a5a:	920b      	str	r2, [sp, #44]	@ 0x2c
   25a5c:	4a70      	ldr	r2, [pc, #448]	@ (25c20 <_start+0x16c4>)
   25a5e:	446a      	add	r2, sp
   25a60:	c938      	ldmia	r1!, {r3, r4, r5}
   25a62:	c238      	stmia	r2!, {r3, r4, r5}
   25a64:	c938      	ldmia	r1!, {r3, r4, r5}
   25a66:	c238      	stmia	r2!, {r3, r4, r5}
   25a68:	c938      	ldmia	r1!, {r3, r4, r5}
   25a6a:	c238      	stmia	r2!, {r3, r4, r5}
   25a6c:	c978      	ldmia	r1!, {r3, r4, r5, r6}
   25a6e:	c278      	stmia	r2!, {r3, r4, r5, r6}
   25a70:	2800      	cmp	r0, #0
   25a72:	d001      	beq.n	25a78 <_start+0x151c>
   25a74:	f7fe fe6a 	bl	2474c <_start+0x1f0>
   25a78:	4d6e      	ldr	r5, [pc, #440]	@ (25c34 <_start+0x16d8>)
   25a7a:	446d      	add	r5, sp
   25a7c:	990b      	ldr	r1, [sp, #44]	@ 0x2c
   25a7e:	70e9      	strb	r1, [r5, #3]
   25a80:	980c      	ldr	r0, [sp, #48]	@ 0x30
   25a82:	8028      	strh	r0, [r5, #0]
   25a84:	0e08      	lsrs	r0, r1, #24
   25a86:	71a8      	strb	r0, [r5, #6]
   25a88:	0c08      	lsrs	r0, r1, #16
   25a8a:	7168      	strb	r0, [r5, #5]
   25a8c:	0a08      	lsrs	r0, r1, #8
   25a8e:	7128      	strb	r0, [r5, #4]
   25a90:	a80c      	add	r0, sp, #48	@ 0x30
   25a92:	7880      	ldrb	r0, [r0, #2]
   25a94:	70a8      	strb	r0, [r5, #2]
   25a96:	1de8      	adds	r0, r5, #7
   25a98:	4961      	ldr	r1, [pc, #388]	@ (25c20 <_start+0x16c4>)
   25a9a:	4469      	add	r1, sp
   25a9c:	2234      	movs	r2, #52	@ 0x34
   25a9e:	f002 f8dc 	bl	27c5a <__aeabi_memcpy>
   25aa2:	4c5e      	ldr	r4, [pc, #376]	@ (25c1c <_start+0x16c0>)
   25aa4:	446c      	add	r4, sp
   25aa6:	4620      	mov	r0, r4
   25aa8:	4629      	mov	r1, r5
   25aaa:	f7fc fd4f 	bl	2254c <_ZN18complex_no_dynamic3app17h6326def5d2c4f953E>
   25aae:	7820      	ldrb	r0, [r4, #0]
   25ab0:	2801      	cmp	r0, #1
   25ab2:	d103      	bne.n	25abc <_start+0x1560>
   25ab4:	9909      	ldr	r1, [sp, #36]	@ 0x24
   25ab6:	6e09      	ldr	r1, [r1, #96]	@ 0x60
   25ab8:	910b      	str	r1, [sp, #44]	@ 0x2c
   25aba:	e013      	b.n	25ae4 <_start+0x1588>
   25abc:	4957      	ldr	r1, [pc, #348]	@ (25c1c <_start+0x16c0>)
   25abe:	4469      	add	r1, sp
   25ac0:	78ca      	ldrb	r2, [r1, #3]
   25ac2:	ab0c      	add	r3, sp, #48	@ 0x30
   25ac4:	709a      	strb	r2, [r3, #2]
   25ac6:	784a      	ldrb	r2, [r1, #1]
   25ac8:	788c      	ldrb	r4, [r1, #2]
   25aca:	0224      	lsls	r4, r4, #8
   25acc:	18a2      	adds	r2, r4, r2
   25ace:	801a      	strh	r2, [r3, #0]
   25ad0:	3108      	adds	r1, #8
   25ad2:	9a09      	ldr	r2, [sp, #36]	@ 0x24
   25ad4:	6e12      	ldr	r2, [r2, #96]	@ 0x60
   25ad6:	920b      	str	r2, [sp, #44]	@ 0x2c
   25ad8:	4a51      	ldr	r2, [pc, #324]	@ (25c20 <_start+0x16c4>)
   25ada:	446a      	add	r2, sp
   25adc:	c978      	ldmia	r1!, {r3, r4, r5, r6}
   25ade:	c278      	stmia	r2!, {r3, r4, r5, r6}
   25ae0:	c978      	ldmia	r1!, {r3, r4, r5, r6}
   25ae2:	c278      	stmia	r2!, {r3, r4, r5, r6}
   25ae4:	2800      	cmp	r0, #0
   25ae6:	d001      	beq.n	25aec <_start+0x1590>
   25ae8:	f7fe fe30 	bl	2474c <_start+0x1f0>
   25aec:	4d52      	ldr	r5, [pc, #328]	@ (25c38 <_start+0x16dc>)
   25aee:	446d      	add	r5, sp
   25af0:	990b      	ldr	r1, [sp, #44]	@ 0x2c
   25af2:	70e9      	strb	r1, [r5, #3]
   25af4:	980c      	ldr	r0, [sp, #48]	@ 0x30
   25af6:	8028      	strh	r0, [r5, #0]
   25af8:	0e08      	lsrs	r0, r1, #24
   25afa:	71a8      	strb	r0, [r5, #6]
   25afc:	0c08      	lsrs	r0, r1, #16
   25afe:	7168      	strb	r0, [r5, #5]
   25b00:	0a08      	lsrs	r0, r1, #8
   25b02:	7128      	strb	r0, [r5, #4]
   25b04:	a80c      	add	r0, sp, #48	@ 0x30
   25b06:	7880      	ldrb	r0, [r0, #2]
   25b08:	70a8      	strb	r0, [r5, #2]
   25b0a:	1de8      	adds	r0, r5, #7
   25b0c:	4944      	ldr	r1, [pc, #272]	@ (25c20 <_start+0x16c4>)
   25b0e:	4469      	add	r1, sp
   25b10:	2220      	movs	r2, #32
   25b12:	f002 f8a2 	bl	27c5a <__aeabi_memcpy>
   25b16:	4c41      	ldr	r4, [pc, #260]	@ (25c1c <_start+0x16c0>)
   25b18:	446c      	add	r4, sp
   25b1a:	4620      	mov	r0, r4
   25b1c:	4629      	mov	r1, r5
   25b1e:	f7fd f97d 	bl	22e1c <_ZN18complex_no_dynamic3app17h84252d055dc3aa55E>
   25b22:	7820      	ldrb	r0, [r4, #0]
   25b24:	2801      	cmp	r0, #1
   25b26:	d102      	bne.n	25b2e <_start+0x15d2>
   25b28:	9909      	ldr	r1, [sp, #36]	@ 0x24
   25b2a:	6e09      	ldr	r1, [r1, #96]	@ 0x60
   25b2c:	e013      	b.n	25b56 <_start+0x15fa>
   25b2e:	493c      	ldr	r1, [pc, #240]	@ (25c20 <_start+0x16c4>)
   25b30:	4469      	add	r1, sp
   25b32:	9c09      	ldr	r4, [sp, #36]	@ 0x24
   25b34:	6f22      	ldr	r2, [r4, #112]	@ 0x70
   25b36:	730a      	strb	r2, [r1, #12]
   25b38:	4938      	ldr	r1, [pc, #224]	@ (25c1c <_start+0x16c0>)
   25b3a:	4469      	add	r1, sp
   25b3c:	78ca      	ldrb	r2, [r1, #3]
   25b3e:	ab0c      	add	r3, sp, #48	@ 0x30
   25b40:	709a      	strb	r2, [r3, #2]
   25b42:	784a      	ldrb	r2, [r1, #1]
   25b44:	7889      	ldrb	r1, [r1, #2]
   25b46:	0209      	lsls	r1, r1, #8
   25b48:	1889      	adds	r1, r1, r2
   25b4a:	8019      	strh	r1, [r3, #0]
   25b4c:	4623      	mov	r3, r4
   25b4e:	3364      	adds	r3, #100	@ 0x64
   25b50:	cb0e      	ldmia	r3, {r1, r2, r3}
   25b52:	c40e      	stmia	r4!, {r1, r2, r3}
   25b54:	6d61      	ldr	r1, [r4, #84]	@ 0x54
   25b56:	910b      	str	r1, [sp, #44]	@ 0x2c
   25b58:	2800      	cmp	r0, #0
   25b5a:	d001      	beq.n	25b60 <_start+0x1604>
   25b5c:	f7fe fdf6 	bl	2474c <_start+0x1f0>
   25b60:	4d36      	ldr	r5, [pc, #216]	@ (25c3c <_start+0x16e0>)
   25b62:	446d      	add	r5, sp
   25b64:	990b      	ldr	r1, [sp, #44]	@ 0x2c
   25b66:	70e9      	strb	r1, [r5, #3]
   25b68:	980c      	ldr	r0, [sp, #48]	@ 0x30
   25b6a:	8028      	strh	r0, [r5, #0]
   25b6c:	0e08      	lsrs	r0, r1, #24
   25b6e:	71a8      	strb	r0, [r5, #6]
   25b70:	0c08      	lsrs	r0, r1, #16
   25b72:	7168      	strb	r0, [r5, #5]
   25b74:	0a08      	lsrs	r0, r1, #8
   25b76:	7128      	strb	r0, [r5, #4]
   25b78:	a80c      	add	r0, sp, #48	@ 0x30
   25b7a:	7880      	ldrb	r0, [r0, #2]
   25b7c:	70a8      	strb	r0, [r5, #2]
   25b7e:	1de8      	adds	r0, r5, #7
   25b80:	4927      	ldr	r1, [pc, #156]	@ (25c20 <_start+0x16c4>)
   25b82:	4469      	add	r1, sp
   25b84:	220d      	movs	r2, #13
   25b86:	f002 f868 	bl	27c5a <__aeabi_memcpy>
   25b8a:	4c24      	ldr	r4, [pc, #144]	@ (25c1c <_start+0x16c0>)
   25b8c:	446c      	add	r4, sp
   25b8e:	4620      	mov	r0, r4
   25b90:	4629      	mov	r1, r5
   25b92:	f7fe f833 	bl	23bfc <_ZN18complex_no_dynamic3app17hd24d92945027e793E>
   25b96:	7820      	ldrb	r0, [r4, #0]
   25b98:	2801      	cmp	r0, #1
   25b9a:	d103      	bne.n	25ba4 <_start+0x1648>
   25b9c:	9909      	ldr	r1, [sp, #36]	@ 0x24
   25b9e:	6e09      	ldr	r1, [r1, #96]	@ 0x60
   25ba0:	910b      	str	r1, [sp, #44]	@ 0x2c
   25ba2:	e015      	b.n	25bd0 <_start+0x1674>
   25ba4:	491d      	ldr	r1, [pc, #116]	@ (25c1c <_start+0x16c0>)
   25ba6:	4469      	add	r1, sp
   25ba8:	78ca      	ldrb	r2, [r1, #3]
   25baa:	ab0c      	add	r3, sp, #48	@ 0x30
   25bac:	709a      	strb	r2, [r3, #2]
   25bae:	784a      	ldrb	r2, [r1, #1]
   25bb0:	788c      	ldrb	r4, [r1, #2]
   25bb2:	0224      	lsls	r4, r4, #8
   25bb4:	18a2      	adds	r2, r4, r2
   25bb6:	801a      	strh	r2, [r3, #0]
   25bb8:	3108      	adds	r1, #8
   25bba:	9a09      	ldr	r2, [sp, #36]	@ 0x24
   25bbc:	6e12      	ldr	r2, [r2, #96]	@ 0x60
   25bbe:	920b      	str	r2, [sp, #44]	@ 0x2c
   25bc0:	4a17      	ldr	r2, [pc, #92]	@ (25c20 <_start+0x16c4>)
   25bc2:	446a      	add	r2, sp
   25bc4:	c938      	ldmia	r1!, {r3, r4, r5}
   25bc6:	c238      	stmia	r2!, {r3, r4, r5}
   25bc8:	c938      	ldmia	r1!, {r3, r4, r5}
   25bca:	c238      	stmia	r2!, {r3, r4, r5}
   25bcc:	c938      	ldmia	r1!, {r3, r4, r5}
   25bce:	c238      	stmia	r2!, {r3, r4, r5}
   25bd0:	2800      	cmp	r0, #0
   25bd2:	d001      	beq.n	25bd8 <_start+0x167c>
   25bd4:	f7fe fdba 	bl	2474c <_start+0x1f0>
   25bd8:	4d19      	ldr	r5, [pc, #100]	@ (25c40 <_start+0x16e4>)
   25bda:	446d      	add	r5, sp
   25bdc:	990b      	ldr	r1, [sp, #44]	@ 0x2c
   25bde:	70e9      	strb	r1, [r5, #3]
   25be0:	980c      	ldr	r0, [sp, #48]	@ 0x30
   25be2:	8028      	strh	r0, [r5, #0]
   25be4:	0e08      	lsrs	r0, r1, #24
   25be6:	71a8      	strb	r0, [r5, #6]
   25be8:	0c08      	lsrs	r0, r1, #16
   25bea:	7168      	strb	r0, [r5, #5]
   25bec:	0a08      	lsrs	r0, r1, #8
   25bee:	7128      	strb	r0, [r5, #4]
   25bf0:	a80c      	add	r0, sp, #48	@ 0x30
   25bf2:	7880      	ldrb	r0, [r0, #2]
   25bf4:	70a8      	strb	r0, [r5, #2]
   25bf6:	1de8      	adds	r0, r5, #7
   25bf8:	4909      	ldr	r1, [pc, #36]	@ (25c20 <_start+0x16c4>)
   25bfa:	4469      	add	r1, sp
   25bfc:	2224      	movs	r2, #36	@ 0x24
   25bfe:	f002 f82c 	bl	27c5a <__aeabi_memcpy>
   25c02:	4c06      	ldr	r4, [pc, #24]	@ (25c1c <_start+0x16c0>)
   25c04:	446c      	add	r4, sp
   25c06:	4620      	mov	r0, r4
   25c08:	4629      	mov	r1, r5
   25c0a:	f7fd fee3 	bl	239d4 <_ZN18complex_no_dynamic3app17hc9172d58ecce8892E>
   25c0e:	7820      	ldrb	r0, [r4, #0]
   25c10:	2801      	cmp	r0, #1
   25c12:	d117      	bne.n	25c44 <_start+0x16e8>
   25c14:	9909      	ldr	r1, [sp, #36]	@ 0x24
   25c16:	6e09      	ldr	r1, [r1, #96]	@ 0x60
   25c18:	910b      	str	r1, [sp, #44]	@ 0x2c
   25c1a:	e02b      	b.n	25c74 <_start+0x1718>
   25c1c:	00001404 	.word	0x00001404
   25c20:	000013a8 	.word	0x000013a8
   25c24:	000005b8 	.word	0x000005b8
   25c28:	000005fc 	.word	0x000005fc
   25c2c:	00000620 	.word	0x00000620
   25c30:	00000674 	.word	0x00000674
   25c34:	000006c4 	.word	0x000006c4
   25c38:	00000700 	.word	0x00000700
   25c3c:	00000728 	.word	0x00000728
   25c40:	0000073c 	.word	0x0000073c
   25c44:	49f0      	ldr	r1, [pc, #960]	@ (26008 <_start+0x1aac>)
   25c46:	4469      	add	r1, sp
   25c48:	78ca      	ldrb	r2, [r1, #3]
   25c4a:	ab0c      	add	r3, sp, #48	@ 0x30
   25c4c:	709a      	strb	r2, [r3, #2]
   25c4e:	784a      	ldrb	r2, [r1, #1]
   25c50:	788c      	ldrb	r4, [r1, #2]
   25c52:	0224      	lsls	r4, r4, #8
   25c54:	18a2      	adds	r2, r4, r2
   25c56:	801a      	strh	r2, [r3, #0]
   25c58:	3108      	adds	r1, #8
   25c5a:	9a09      	ldr	r2, [sp, #36]	@ 0x24
   25c5c:	6e12      	ldr	r2, [r2, #96]	@ 0x60
   25c5e:	920b      	str	r2, [sp, #44]	@ 0x2c
   25c60:	4aea      	ldr	r2, [pc, #936]	@ (2600c <_start+0x1ab0>)
   25c62:	446a      	add	r2, sp
   25c64:	c918      	ldmia	r1!, {r3, r4}
   25c66:	c218      	stmia	r2!, {r3, r4}
   25c68:	c938      	ldmia	r1!, {r3, r4, r5}
   25c6a:	c238      	stmia	r2!, {r3, r4, r5}
   25c6c:	880b      	ldrh	r3, [r1, #0]
   25c6e:	8013      	strh	r3, [r2, #0]
   25c70:	7889      	ldrb	r1, [r1, #2]
   25c72:	7091      	strb	r1, [r2, #2]
   25c74:	2800      	cmp	r0, #0
   25c76:	d001      	beq.n	25c7c <_start+0x1720>
   25c78:	f7fe fd68 	bl	2474c <_start+0x1f0>
   25c7c:	4de4      	ldr	r5, [pc, #912]	@ (26010 <_start+0x1ab4>)
   25c7e:	446d      	add	r5, sp
   25c80:	990b      	ldr	r1, [sp, #44]	@ 0x2c
   25c82:	70e9      	strb	r1, [r5, #3]
   25c84:	980c      	ldr	r0, [sp, #48]	@ 0x30
   25c86:	8028      	strh	r0, [r5, #0]
   25c88:	0e08      	lsrs	r0, r1, #24
   25c8a:	71a8      	strb	r0, [r5, #6]
   25c8c:	0c08      	lsrs	r0, r1, #16
   25c8e:	7168      	strb	r0, [r5, #5]
   25c90:	0a08      	lsrs	r0, r1, #8
   25c92:	7128      	strb	r0, [r5, #4]
   25c94:	a80c      	add	r0, sp, #48	@ 0x30
   25c96:	7880      	ldrb	r0, [r0, #2]
   25c98:	70a8      	strb	r0, [r5, #2]
   25c9a:	1de8      	adds	r0, r5, #7
   25c9c:	49db      	ldr	r1, [pc, #876]	@ (2600c <_start+0x1ab0>)
   25c9e:	4469      	add	r1, sp
   25ca0:	2217      	movs	r2, #23
   25ca2:	f001 ffda 	bl	27c5a <__aeabi_memcpy>
   25ca6:	4cd8      	ldr	r4, [pc, #864]	@ (26008 <_start+0x1aac>)
   25ca8:	446c      	add	r4, sp
   25caa:	4620      	mov	r0, r4
   25cac:	4629      	mov	r1, r5
   25cae:	f7fa fd79 	bl	207a4 <_ZN18complex_no_dynamic3app17h108f03ec8ce51f42E>
   25cb2:	7824      	ldrb	r4, [r4, #0]
   25cb4:	2c01      	cmp	r4, #1
   25cb6:	d103      	bne.n	25cc0 <_start+0x1764>
   25cb8:	9809      	ldr	r0, [sp, #36]	@ 0x24
   25cba:	6e00      	ldr	r0, [r0, #96]	@ 0x60
   25cbc:	900b      	str	r0, [sp, #44]	@ 0x2c
   25cbe:	e012      	b.n	25ce6 <_start+0x178a>
   25cc0:	49d1      	ldr	r1, [pc, #836]	@ (26008 <_start+0x1aac>)
   25cc2:	4469      	add	r1, sp
   25cc4:	78c8      	ldrb	r0, [r1, #3]
   25cc6:	aa0c      	add	r2, sp, #48	@ 0x30
   25cc8:	7090      	strb	r0, [r2, #2]
   25cca:	7848      	ldrb	r0, [r1, #1]
   25ccc:	788b      	ldrb	r3, [r1, #2]
   25cce:	021b      	lsls	r3, r3, #8
   25cd0:	1818      	adds	r0, r3, r0
   25cd2:	8010      	strh	r0, [r2, #0]
   25cd4:	9809      	ldr	r0, [sp, #36]	@ 0x24
   25cd6:	6e00      	ldr	r0, [r0, #96]	@ 0x60
   25cd8:	900b      	str	r0, [sp, #44]	@ 0x2c
   25cda:	3108      	adds	r1, #8
   25cdc:	48cb      	ldr	r0, [pc, #812]	@ (2600c <_start+0x1ab0>)
   25cde:	4468      	add	r0, sp
   25ce0:	224a      	movs	r2, #74	@ 0x4a
   25ce2:	f001 fe5a 	bl	2799a <__aeabi_memcpy4>
   25ce6:	2c00      	cmp	r4, #0
   25ce8:	d001      	beq.n	25cee <_start+0x1792>
   25cea:	f7fe fd2f 	bl	2474c <_start+0x1f0>
   25cee:	4dc9      	ldr	r5, [pc, #804]	@ (26014 <_start+0x1ab8>)
   25cf0:	446d      	add	r5, sp
   25cf2:	990b      	ldr	r1, [sp, #44]	@ 0x2c
   25cf4:	70e9      	strb	r1, [r5, #3]
   25cf6:	980c      	ldr	r0, [sp, #48]	@ 0x30
   25cf8:	8028      	strh	r0, [r5, #0]
   25cfa:	0e08      	lsrs	r0, r1, #24
   25cfc:	71a8      	strb	r0, [r5, #6]
   25cfe:	0c08      	lsrs	r0, r1, #16
   25d00:	7168      	strb	r0, [r5, #5]
   25d02:	0a08      	lsrs	r0, r1, #8
   25d04:	7128      	strb	r0, [r5, #4]
   25d06:	a80c      	add	r0, sp, #48	@ 0x30
   25d08:	7880      	ldrb	r0, [r0, #2]
   25d0a:	70a8      	strb	r0, [r5, #2]
   25d0c:	1de8      	adds	r0, r5, #7
   25d0e:	49bf      	ldr	r1, [pc, #764]	@ (2600c <_start+0x1ab0>)
   25d10:	4469      	add	r1, sp
   25d12:	224a      	movs	r2, #74	@ 0x4a
   25d14:	f001 ffa1 	bl	27c5a <__aeabi_memcpy>
   25d18:	4cbb      	ldr	r4, [pc, #748]	@ (26008 <_start+0x1aac>)
   25d1a:	446c      	add	r4, sp
   25d1c:	4620      	mov	r0, r4
   25d1e:	4629      	mov	r1, r5
   25d20:	f7fa feb0 	bl	20a84 <_ZN18complex_no_dynamic3app17h16b41aa23478dcb2E>
   25d24:	7821      	ldrb	r1, [r4, #0]
   25d26:	2901      	cmp	r1, #1
   25d28:	d103      	bne.n	25d32 <_start+0x17d6>
   25d2a:	9809      	ldr	r0, [sp, #36]	@ 0x24
   25d2c:	6e00      	ldr	r0, [r0, #96]	@ 0x60
   25d2e:	900b      	str	r0, [sp, #44]	@ 0x2c
   25d30:	e00f      	b.n	25d52 <_start+0x17f6>
   25d32:	48b5      	ldr	r0, [pc, #724]	@ (26008 <_start+0x1aac>)
   25d34:	4468      	add	r0, sp
   25d36:	78c2      	ldrb	r2, [r0, #3]
   25d38:	4bb4      	ldr	r3, [pc, #720]	@ (2600c <_start+0x1ab0>)
   25d3a:	446b      	add	r3, sp
   25d3c:	709a      	strb	r2, [r3, #2]
   25d3e:	7842      	ldrb	r2, [r0, #1]
   25d40:	7880      	ldrb	r0, [r0, #2]
   25d42:	0200      	lsls	r0, r0, #8
   25d44:	1880      	adds	r0, r0, r2
   25d46:	8018      	strh	r0, [r3, #0]
   25d48:	9809      	ldr	r0, [sp, #36]	@ 0x24
   25d4a:	6e02      	ldr	r2, [r0, #96]	@ 0x60
   25d4c:	920b      	str	r2, [sp, #44]	@ 0x2c
   25d4e:	6e42      	ldr	r2, [r0, #100]	@ 0x64
   25d50:	6e80      	ldr	r0, [r0, #104]	@ 0x68
   25d52:	2900      	cmp	r1, #0
   25d54:	d001      	beq.n	25d5a <_start+0x17fe>
   25d56:	f7fe fcf9 	bl	2474c <_start+0x1f0>
   25d5a:	9907      	ldr	r1, [sp, #28]
   25d5c:	1ccb      	adds	r3, r1, #3
   25d5e:	711a      	strb	r2, [r3, #4]
   25d60:	9d0b      	ldr	r5, [sp, #44]	@ 0x2c
   25d62:	701d      	strb	r5, [r3, #0]
   25d64:	49ac      	ldr	r1, [pc, #688]	@ (26018 <_start+0x1abc>)
   25d66:	4469      	add	r1, sp
   25d68:	9c09      	ldr	r4, [sp, #36]	@ 0x24
   25d6a:	6824      	ldr	r4, [r4, #0]
   25d6c:	800c      	strh	r4, [r1, #0]
   25d6e:	7218      	strb	r0, [r3, #8]
   25d70:	0e14      	lsrs	r4, r2, #24
   25d72:	71dc      	strb	r4, [r3, #7]
   25d74:	0c14      	lsrs	r4, r2, #16
   25d76:	719c      	strb	r4, [r3, #6]
   25d78:	0a12      	lsrs	r2, r2, #8
   25d7a:	715a      	strb	r2, [r3, #5]
   25d7c:	0e2a      	lsrs	r2, r5, #24
   25d7e:	70da      	strb	r2, [r3, #3]
   25d80:	0c2a      	lsrs	r2, r5, #16
   25d82:	709a      	strb	r2, [r3, #2]
   25d84:	0a2a      	lsrs	r2, r5, #8
   25d86:	705a      	strb	r2, [r3, #1]
   25d88:	4aa0      	ldr	r2, [pc, #640]	@ (2600c <_start+0x1ab0>)
   25d8a:	446a      	add	r2, sp
   25d8c:	7892      	ldrb	r2, [r2, #2]
   25d8e:	708a      	strb	r2, [r1, #2]
   25d90:	0e02      	lsrs	r2, r0, #24
   25d92:	72da      	strb	r2, [r3, #11]
   25d94:	0c02      	lsrs	r2, r0, #16
   25d96:	729a      	strb	r2, [r3, #10]
   25d98:	0a00      	lsrs	r0, r0, #8
   25d9a:	7258      	strb	r0, [r3, #9]
   25d9c:	4c9a      	ldr	r4, [pc, #616]	@ (26008 <_start+0x1aac>)
   25d9e:	446c      	add	r4, sp
   25da0:	4620      	mov	r0, r4
   25da2:	f7fb fa15 	bl	211d0 <_ZN18complex_no_dynamic3app17h273409a09a053cddE>
   25da6:	7820      	ldrb	r0, [r4, #0]
   25da8:	2801      	cmp	r0, #1
   25daa:	d103      	bne.n	25db4 <_start+0x1858>
   25dac:	9909      	ldr	r1, [sp, #36]	@ 0x24
   25dae:	6e09      	ldr	r1, [r1, #96]	@ 0x60
   25db0:	910b      	str	r1, [sp, #44]	@ 0x2c
   25db2:	e01b      	b.n	25dec <_start+0x1890>
   25db4:	4994      	ldr	r1, [pc, #592]	@ (26008 <_start+0x1aac>)
   25db6:	4469      	add	r1, sp
   25db8:	78ca      	ldrb	r2, [r1, #3]
   25dba:	ab0c      	add	r3, sp, #48	@ 0x30
   25dbc:	709a      	strb	r2, [r3, #2]
   25dbe:	784a      	ldrb	r2, [r1, #1]
   25dc0:	788c      	ldrb	r4, [r1, #2]
   25dc2:	0224      	lsls	r4, r4, #8
   25dc4:	18a2      	adds	r2, r4, r2
   25dc6:	801a      	strh	r2, [r3, #0]
   25dc8:	3108      	adds	r1, #8
   25dca:	9a09      	ldr	r2, [sp, #36]	@ 0x24
   25dcc:	6e12      	ldr	r2, [r2, #96]	@ 0x60
   25dce:	920b      	str	r2, [sp, #44]	@ 0x2c
   25dd0:	4a8e      	ldr	r2, [pc, #568]	@ (2600c <_start+0x1ab0>)
   25dd2:	446a      	add	r2, sp
   25dd4:	c938      	ldmia	r1!, {r3, r4, r5}
   25dd6:	c238      	stmia	r2!, {r3, r4, r5}
   25dd8:	c978      	ldmia	r1!, {r3, r4, r5, r6}
   25dda:	c278      	stmia	r2!, {r3, r4, r5, r6}
   25ddc:	c978      	ldmia	r1!, {r3, r4, r5, r6}
   25dde:	c278      	stmia	r2!, {r3, r4, r5, r6}
   25de0:	c978      	ldmia	r1!, {r3, r4, r5, r6}
   25de2:	c278      	stmia	r2!, {r3, r4, r5, r6}
   25de4:	880b      	ldrh	r3, [r1, #0]
   25de6:	8013      	strh	r3, [r2, #0]
   25de8:	7889      	ldrb	r1, [r1, #2]
   25dea:	7091      	strb	r1, [r2, #2]
   25dec:	2800      	cmp	r0, #0
   25dee:	d001      	beq.n	25df4 <_start+0x1898>
   25df0:	f7fe fcac 	bl	2474c <_start+0x1f0>
   25df4:	4d89      	ldr	r5, [pc, #548]	@ (2601c <_start+0x1ac0>)
   25df6:	446d      	add	r5, sp
   25df8:	990b      	ldr	r1, [sp, #44]	@ 0x2c
   25dfa:	70e9      	strb	r1, [r5, #3]
   25dfc:	980c      	ldr	r0, [sp, #48]	@ 0x30
   25dfe:	8028      	strh	r0, [r5, #0]
   25e00:	0e08      	lsrs	r0, r1, #24
   25e02:	71a8      	strb	r0, [r5, #6]
   25e04:	0c08      	lsrs	r0, r1, #16
   25e06:	7168      	strb	r0, [r5, #5]
   25e08:	0a08      	lsrs	r0, r1, #8
   25e0a:	7128      	strb	r0, [r5, #4]
   25e0c:	a80c      	add	r0, sp, #48	@ 0x30
   25e0e:	7880      	ldrb	r0, [r0, #2]
   25e10:	70a8      	strb	r0, [r5, #2]
   25e12:	1de8      	adds	r0, r5, #7
   25e14:	497d      	ldr	r1, [pc, #500]	@ (2600c <_start+0x1ab0>)
   25e16:	4469      	add	r1, sp
   25e18:	223f      	movs	r2, #63	@ 0x3f
   25e1a:	f001 ff1e 	bl	27c5a <__aeabi_memcpy>
   25e1e:	4c7a      	ldr	r4, [pc, #488]	@ (26008 <_start+0x1aac>)
   25e20:	446c      	add	r4, sp
   25e22:	4620      	mov	r0, r4
   25e24:	4629      	mov	r1, r5
   25e26:	f7fd fcc1 	bl	237ac <_ZN18complex_no_dynamic3app17hc0e772e97398019eE>
   25e2a:	7824      	ldrb	r4, [r4, #0]
   25e2c:	2c01      	cmp	r4, #1
   25e2e:	d103      	bne.n	25e38 <_start+0x18dc>
   25e30:	9809      	ldr	r0, [sp, #36]	@ 0x24
   25e32:	6e00      	ldr	r0, [r0, #96]	@ 0x60
   25e34:	900b      	str	r0, [sp, #44]	@ 0x2c
   25e36:	e012      	b.n	25e5e <_start+0x1902>
   25e38:	4973      	ldr	r1, [pc, #460]	@ (26008 <_start+0x1aac>)
   25e3a:	4469      	add	r1, sp
   25e3c:	78c8      	ldrb	r0, [r1, #3]
   25e3e:	aa0c      	add	r2, sp, #48	@ 0x30
   25e40:	7090      	strb	r0, [r2, #2]
   25e42:	7848      	ldrb	r0, [r1, #1]
   25e44:	788b      	ldrb	r3, [r1, #2]
   25e46:	021b      	lsls	r3, r3, #8
   25e48:	1818      	adds	r0, r3, r0
   25e4a:	8010      	strh	r0, [r2, #0]
   25e4c:	9809      	ldr	r0, [sp, #36]	@ 0x24
   25e4e:	6e00      	ldr	r0, [r0, #96]	@ 0x60
   25e50:	900b      	str	r0, [sp, #44]	@ 0x2c
   25e52:	3108      	adds	r1, #8
   25e54:	486d      	ldr	r0, [pc, #436]	@ (2600c <_start+0x1ab0>)
   25e56:	4468      	add	r0, sp
   25e58:	224f      	movs	r2, #79	@ 0x4f
   25e5a:	f001 fd9e 	bl	2799a <__aeabi_memcpy4>
   25e5e:	2c00      	cmp	r4, #0
   25e60:	d001      	beq.n	25e66 <_start+0x190a>
   25e62:	f7fe fc73 	bl	2474c <_start+0x1f0>
   25e66:	4d6e      	ldr	r5, [pc, #440]	@ (26020 <_start+0x1ac4>)
   25e68:	446d      	add	r5, sp
   25e6a:	990b      	ldr	r1, [sp, #44]	@ 0x2c
   25e6c:	70e9      	strb	r1, [r5, #3]
   25e6e:	980c      	ldr	r0, [sp, #48]	@ 0x30
   25e70:	8028      	strh	r0, [r5, #0]
   25e72:	0e08      	lsrs	r0, r1, #24
   25e74:	71a8      	strb	r0, [r5, #6]
   25e76:	0c08      	lsrs	r0, r1, #16
   25e78:	7168      	strb	r0, [r5, #5]
   25e7a:	0a08      	lsrs	r0, r1, #8
   25e7c:	7128      	strb	r0, [r5, #4]
   25e7e:	a80c      	add	r0, sp, #48	@ 0x30
   25e80:	7880      	ldrb	r0, [r0, #2]
   25e82:	70a8      	strb	r0, [r5, #2]
   25e84:	1de8      	adds	r0, r5, #7
   25e86:	4961      	ldr	r1, [pc, #388]	@ (2600c <_start+0x1ab0>)
   25e88:	4469      	add	r1, sp
   25e8a:	224f      	movs	r2, #79	@ 0x4f
   25e8c:	f001 fee5 	bl	27c5a <__aeabi_memcpy>
   25e90:	4c5d      	ldr	r4, [pc, #372]	@ (26008 <_start+0x1aac>)
   25e92:	446c      	add	r4, sp
   25e94:	4620      	mov	r0, r4
   25e96:	4629      	mov	r1, r5
   25e98:	f7fa fc28 	bl	206ec <_ZN18complex_no_dynamic3app17h0e7f9efab89c707bE>
   25e9c:	7824      	ldrb	r4, [r4, #0]
   25e9e:	2c01      	cmp	r4, #1
   25ea0:	d103      	bne.n	25eaa <_start+0x194e>
   25ea2:	9809      	ldr	r0, [sp, #36]	@ 0x24
   25ea4:	6e00      	ldr	r0, [r0, #96]	@ 0x60
   25ea6:	900b      	str	r0, [sp, #44]	@ 0x2c
   25ea8:	e012      	b.n	25ed0 <_start+0x1974>
   25eaa:	4957      	ldr	r1, [pc, #348]	@ (26008 <_start+0x1aac>)
   25eac:	4469      	add	r1, sp
   25eae:	78c8      	ldrb	r0, [r1, #3]
   25eb0:	aa0c      	add	r2, sp, #48	@ 0x30
   25eb2:	7090      	strb	r0, [r2, #2]
   25eb4:	7848      	ldrb	r0, [r1, #1]
   25eb6:	788b      	ldrb	r3, [r1, #2]
   25eb8:	021b      	lsls	r3, r3, #8
   25eba:	1818      	adds	r0, r3, r0
   25ebc:	8010      	strh	r0, [r2, #0]
   25ebe:	9809      	ldr	r0, [sp, #36]	@ 0x24
   25ec0:	6e00      	ldr	r0, [r0, #96]	@ 0x60
   25ec2:	900b      	str	r0, [sp, #44]	@ 0x2c
   25ec4:	3108      	adds	r1, #8
   25ec6:	4851      	ldr	r0, [pc, #324]	@ (2600c <_start+0x1ab0>)
   25ec8:	4468      	add	r0, sp
   25eca:	2242      	movs	r2, #66	@ 0x42
   25ecc:	f001 fd65 	bl	2799a <__aeabi_memcpy4>
   25ed0:	2c00      	cmp	r4, #0
   25ed2:	d001      	beq.n	25ed8 <_start+0x197c>
   25ed4:	f7fe fc3a 	bl	2474c <_start+0x1f0>
   25ed8:	4d52      	ldr	r5, [pc, #328]	@ (26024 <_start+0x1ac8>)
   25eda:	446d      	add	r5, sp
   25edc:	990b      	ldr	r1, [sp, #44]	@ 0x2c
   25ede:	70e9      	strb	r1, [r5, #3]
   25ee0:	980c      	ldr	r0, [sp, #48]	@ 0x30
   25ee2:	8028      	strh	r0, [r5, #0]
   25ee4:	0e08      	lsrs	r0, r1, #24
   25ee6:	71a8      	strb	r0, [r5, #6]
   25ee8:	0c08      	lsrs	r0, r1, #16
   25eea:	7168      	strb	r0, [r5, #5]
   25eec:	0a08      	lsrs	r0, r1, #8
   25eee:	7128      	strb	r0, [r5, #4]
   25ef0:	a80c      	add	r0, sp, #48	@ 0x30
   25ef2:	7880      	ldrb	r0, [r0, #2]
   25ef4:	70a8      	strb	r0, [r5, #2]
   25ef6:	1de8      	adds	r0, r5, #7
   25ef8:	4944      	ldr	r1, [pc, #272]	@ (2600c <_start+0x1ab0>)
   25efa:	4469      	add	r1, sp
   25efc:	2242      	movs	r2, #66	@ 0x42
   25efe:	f001 feac 	bl	27c5a <__aeabi_memcpy>
   25f02:	4c41      	ldr	r4, [pc, #260]	@ (26008 <_start+0x1aac>)
   25f04:	446c      	add	r4, sp
   25f06:	4620      	mov	r0, r4
   25f08:	4629      	mov	r1, r5
   25f0a:	f7fb fad7 	bl	214bc <_ZN18complex_no_dynamic3app17h38900029fff2fdf2E>
   25f0e:	7820      	ldrb	r0, [r4, #0]
   25f10:	2801      	cmp	r0, #1
   25f12:	d103      	bne.n	25f1c <_start+0x19c0>
   25f14:	9909      	ldr	r1, [sp, #36]	@ 0x24
   25f16:	6e09      	ldr	r1, [r1, #96]	@ 0x60
   25f18:	910b      	str	r1, [sp, #44]	@ 0x2c
   25f1a:	e013      	b.n	25f44 <_start+0x19e8>
   25f1c:	493a      	ldr	r1, [pc, #232]	@ (26008 <_start+0x1aac>)
   25f1e:	4469      	add	r1, sp
   25f20:	78ca      	ldrb	r2, [r1, #3]
   25f22:	ab0c      	add	r3, sp, #48	@ 0x30
   25f24:	709a      	strb	r2, [r3, #2]
   25f26:	784a      	ldrb	r2, [r1, #1]
   25f28:	788c      	ldrb	r4, [r1, #2]
   25f2a:	0224      	lsls	r4, r4, #8
   25f2c:	18a2      	adds	r2, r4, r2
   25f2e:	801a      	strh	r2, [r3, #0]
   25f30:	3108      	adds	r1, #8
   25f32:	9a09      	ldr	r2, [sp, #36]	@ 0x24
   25f34:	6e12      	ldr	r2, [r2, #96]	@ 0x60
   25f36:	920b      	str	r2, [sp, #44]	@ 0x2c
   25f38:	4a34      	ldr	r2, [pc, #208]	@ (2600c <_start+0x1ab0>)
   25f3a:	446a      	add	r2, sp
   25f3c:	c938      	ldmia	r1!, {r3, r4, r5}
   25f3e:	c238      	stmia	r2!, {r3, r4, r5}
   25f40:	c978      	ldmia	r1!, {r3, r4, r5, r6}
   25f42:	c278      	stmia	r2!, {r3, r4, r5, r6}
   25f44:	2800      	cmp	r0, #0
   25f46:	d001      	beq.n	25f4c <_start+0x19f0>
   25f48:	f7fe fc00 	bl	2474c <_start+0x1f0>
   25f4c:	4d36      	ldr	r5, [pc, #216]	@ (26028 <_start+0x1acc>)
   25f4e:	446d      	add	r5, sp
   25f50:	990b      	ldr	r1, [sp, #44]	@ 0x2c
   25f52:	70e9      	strb	r1, [r5, #3]
   25f54:	980c      	ldr	r0, [sp, #48]	@ 0x30
   25f56:	8028      	strh	r0, [r5, #0]
   25f58:	0e08      	lsrs	r0, r1, #24
   25f5a:	71a8      	strb	r0, [r5, #6]
   25f5c:	0c08      	lsrs	r0, r1, #16
   25f5e:	7168      	strb	r0, [r5, #5]
   25f60:	0a08      	lsrs	r0, r1, #8
   25f62:	7128      	strb	r0, [r5, #4]
   25f64:	a80c      	add	r0, sp, #48	@ 0x30
   25f66:	7880      	ldrb	r0, [r0, #2]
   25f68:	70a8      	strb	r0, [r5, #2]
   25f6a:	1de8      	adds	r0, r5, #7
   25f6c:	4927      	ldr	r1, [pc, #156]	@ (2600c <_start+0x1ab0>)
   25f6e:	4469      	add	r1, sp
   25f70:	221c      	movs	r2, #28
   25f72:	f001 fe72 	bl	27c5a <__aeabi_memcpy>
   25f76:	4c24      	ldr	r4, [pc, #144]	@ (26008 <_start+0x1aac>)
   25f78:	446c      	add	r4, sp
   25f7a:	4620      	mov	r0, r4
   25f7c:	4629      	mov	r1, r5
   25f7e:	f7fc fe8f 	bl	22ca0 <_ZN18complex_no_dynamic3app17h7da99f23b934aee0E>
   25f82:	7820      	ldrb	r0, [r4, #0]
   25f84:	2801      	cmp	r0, #1
   25f86:	d103      	bne.n	25f90 <_start+0x1a34>
   25f88:	9909      	ldr	r1, [sp, #36]	@ 0x24
   25f8a:	6e09      	ldr	r1, [r1, #96]	@ 0x60
   25f8c:	910b      	str	r1, [sp, #44]	@ 0x2c
   25f8e:	e015      	b.n	25fbc <_start+0x1a60>
   25f90:	491d      	ldr	r1, [pc, #116]	@ (26008 <_start+0x1aac>)
   25f92:	4469      	add	r1, sp
   25f94:	78ca      	ldrb	r2, [r1, #3]
   25f96:	ab0c      	add	r3, sp, #48	@ 0x30
   25f98:	709a      	strb	r2, [r3, #2]
   25f9a:	784a      	ldrb	r2, [r1, #1]
   25f9c:	788c      	ldrb	r4, [r1, #2]
   25f9e:	0224      	lsls	r4, r4, #8
   25fa0:	18a2      	adds	r2, r4, r2
   25fa2:	801a      	strh	r2, [r3, #0]
   25fa4:	3108      	adds	r1, #8
   25fa6:	9a09      	ldr	r2, [sp, #36]	@ 0x24
   25fa8:	6e12      	ldr	r2, [r2, #96]	@ 0x60
   25faa:	920b      	str	r2, [sp, #44]	@ 0x2c
   25fac:	4a17      	ldr	r2, [pc, #92]	@ (2600c <_start+0x1ab0>)
   25fae:	446a      	add	r2, sp
   25fb0:	c938      	ldmia	r1!, {r3, r4, r5}
   25fb2:	c238      	stmia	r2!, {r3, r4, r5}
   25fb4:	c938      	ldmia	r1!, {r3, r4, r5}
   25fb6:	c238      	stmia	r2!, {r3, r4, r5}
   25fb8:	c938      	ldmia	r1!, {r3, r4, r5}
   25fba:	c238      	stmia	r2!, {r3, r4, r5}
   25fbc:	2800      	cmp	r0, #0
   25fbe:	d001      	beq.n	25fc4 <_start+0x1a68>
   25fc0:	f7fe fbc4 	bl	2474c <_start+0x1f0>
   25fc4:	4d19      	ldr	r5, [pc, #100]	@ (2602c <_start+0x1ad0>)
   25fc6:	446d      	add	r5, sp
   25fc8:	990b      	ldr	r1, [sp, #44]	@ 0x2c
   25fca:	70e9      	strb	r1, [r5, #3]
   25fcc:	980c      	ldr	r0, [sp, #48]	@ 0x30
   25fce:	8028      	strh	r0, [r5, #0]
   25fd0:	0e08      	lsrs	r0, r1, #24
   25fd2:	71a8      	strb	r0, [r5, #6]
   25fd4:	0c08      	lsrs	r0, r1, #16
   25fd6:	7168      	strb	r0, [r5, #5]
   25fd8:	0a08      	lsrs	r0, r1, #8
   25fda:	7128      	strb	r0, [r5, #4]
   25fdc:	a80c      	add	r0, sp, #48	@ 0x30
   25fde:	7880      	ldrb	r0, [r0, #2]
   25fe0:	70a8      	strb	r0, [r5, #2]
   25fe2:	1de8      	adds	r0, r5, #7
   25fe4:	4909      	ldr	r1, [pc, #36]	@ (2600c <_start+0x1ab0>)
   25fe6:	4469      	add	r1, sp
   25fe8:	2224      	movs	r2, #36	@ 0x24
   25fea:	f001 fe36 	bl	27c5a <__aeabi_memcpy>
   25fee:	4c06      	ldr	r4, [pc, #24]	@ (26008 <_start+0x1aac>)
   25ff0:	446c      	add	r4, sp
   25ff2:	4620      	mov	r0, r4
   25ff4:	4629      	mov	r1, r5
   25ff6:	f7fb f88d 	bl	21114 <_ZN18complex_no_dynamic3app17h217e4dbaffe8ac6aE>
   25ffa:	7820      	ldrb	r0, [r4, #0]
   25ffc:	2801      	cmp	r0, #1
   25ffe:	d117      	bne.n	26030 <_start+0x1ad4>
   26000:	9909      	ldr	r1, [sp, #36]	@ 0x24
   26002:	6e09      	ldr	r1, [r1, #96]	@ 0x60
   26004:	e026      	b.n	26054 <_start+0x1af8>
   26006:	46c0      	nop			@ (mov r8, r8)
   26008:	00001404 	.word	0x00001404
   2600c:	000013a8 	.word	0x000013a8
   26010:	00000768 	.word	0x00000768
   26014:	00000788 	.word	0x00000788
   26018:	000007dc 	.word	0x000007dc
   2601c:	000007ec 	.word	0x000007ec
   26020:	00000834 	.word	0x00000834
   26024:	0000088c 	.word	0x0000088c
   26028:	000008d8 	.word	0x000008d8
   2602c:	000008fc 	.word	0x000008fc
   26030:	49eb      	ldr	r1, [pc, #940]	@ (263e0 <_start+0x1e84>)
   26032:	4469      	add	r1, sp
   26034:	9c09      	ldr	r4, [sp, #36]	@ 0x24
   26036:	6ea2      	ldr	r2, [r4, #104]	@ 0x68
   26038:	808a      	strh	r2, [r1, #4]
   2603a:	49ea      	ldr	r1, [pc, #936]	@ (263e4 <_start+0x1e88>)
   2603c:	4469      	add	r1, sp
   2603e:	78ca      	ldrb	r2, [r1, #3]
   26040:	ab0c      	add	r3, sp, #48	@ 0x30
   26042:	709a      	strb	r2, [r3, #2]
   26044:	784a      	ldrb	r2, [r1, #1]
   26046:	7889      	ldrb	r1, [r1, #2]
   26048:	0209      	lsls	r1, r1, #8
   2604a:	1889      	adds	r1, r1, r2
   2604c:	8019      	strh	r1, [r3, #0]
   2604e:	6e61      	ldr	r1, [r4, #100]	@ 0x64
   26050:	6021      	str	r1, [r4, #0]
   26052:	6e21      	ldr	r1, [r4, #96]	@ 0x60
   26054:	910b      	str	r1, [sp, #44]	@ 0x2c
   26056:	2800      	cmp	r0, #0
   26058:	d001      	beq.n	2605e <_start+0x1b02>
   2605a:	f7fe fb77 	bl	2474c <_start+0x1f0>
   2605e:	4de2      	ldr	r5, [pc, #904]	@ (263e8 <_start+0x1e8c>)
   26060:	446d      	add	r5, sp
   26062:	990b      	ldr	r1, [sp, #44]	@ 0x2c
   26064:	70e9      	strb	r1, [r5, #3]
   26066:	980c      	ldr	r0, [sp, #48]	@ 0x30
   26068:	8028      	strh	r0, [r5, #0]
   2606a:	0e08      	lsrs	r0, r1, #24
   2606c:	71a8      	strb	r0, [r5, #6]
   2606e:	0c08      	lsrs	r0, r1, #16
   26070:	7168      	strb	r0, [r5, #5]
   26072:	0a08      	lsrs	r0, r1, #8
   26074:	7128      	strb	r0, [r5, #4]
   26076:	a80c      	add	r0, sp, #48	@ 0x30
   26078:	7880      	ldrb	r0, [r0, #2]
   2607a:	70a8      	strb	r0, [r5, #2]
   2607c:	1de8      	adds	r0, r5, #7
   2607e:	49d8      	ldr	r1, [pc, #864]	@ (263e0 <_start+0x1e84>)
   26080:	4469      	add	r1, sp
   26082:	2206      	movs	r2, #6
   26084:	f001 fde9 	bl	27c5a <__aeabi_memcpy>
   26088:	4cd6      	ldr	r4, [pc, #856]	@ (263e4 <_start+0x1e88>)
   2608a:	446c      	add	r4, sp
   2608c:	4620      	mov	r0, r4
   2608e:	4629      	mov	r1, r5
   26090:	f7fc fbc4 	bl	2281c <_ZN18complex_no_dynamic3app17h67aca179d22b301fE>
   26094:	7820      	ldrb	r0, [r4, #0]
   26096:	2801      	cmp	r0, #1
   26098:	d103      	bne.n	260a2 <_start+0x1b46>
   2609a:	9909      	ldr	r1, [sp, #36]	@ 0x24
   2609c:	6e09      	ldr	r1, [r1, #96]	@ 0x60
   2609e:	910b      	str	r1, [sp, #44]	@ 0x2c
   260a0:	e015      	b.n	260ce <_start+0x1b72>
   260a2:	49d0      	ldr	r1, [pc, #832]	@ (263e4 <_start+0x1e88>)
   260a4:	4469      	add	r1, sp
   260a6:	78ca      	ldrb	r2, [r1, #3]
   260a8:	ab0c      	add	r3, sp, #48	@ 0x30
   260aa:	709a      	strb	r2, [r3, #2]
   260ac:	784a      	ldrb	r2, [r1, #1]
   260ae:	788c      	ldrb	r4, [r1, #2]
   260b0:	0224      	lsls	r4, r4, #8
   260b2:	18a2      	adds	r2, r4, r2
   260b4:	801a      	strh	r2, [r3, #0]
   260b6:	3108      	adds	r1, #8
   260b8:	9a09      	ldr	r2, [sp, #36]	@ 0x24
   260ba:	6e12      	ldr	r2, [r2, #96]	@ 0x60
   260bc:	920b      	str	r2, [sp, #44]	@ 0x2c
   260be:	4ac8      	ldr	r2, [pc, #800]	@ (263e0 <_start+0x1e84>)
   260c0:	446a      	add	r2, sp
   260c2:	c938      	ldmia	r1!, {r3, r4, r5}
   260c4:	c238      	stmia	r2!, {r3, r4, r5}
   260c6:	c938      	ldmia	r1!, {r3, r4, r5}
   260c8:	c238      	stmia	r2!, {r3, r4, r5}
   260ca:	8809      	ldrh	r1, [r1, #0]
   260cc:	8011      	strh	r1, [r2, #0]
   260ce:	2800      	cmp	r0, #0
   260d0:	d001      	beq.n	260d6 <_start+0x1b7a>
   260d2:	f7fe fb3b 	bl	2474c <_start+0x1f0>
   260d6:	4dc5      	ldr	r5, [pc, #788]	@ (263ec <_start+0x1e90>)
   260d8:	446d      	add	r5, sp
   260da:	990b      	ldr	r1, [sp, #44]	@ 0x2c
   260dc:	70e9      	strb	r1, [r5, #3]
   260de:	980c      	ldr	r0, [sp, #48]	@ 0x30
   260e0:	8028      	strh	r0, [r5, #0]
   260e2:	0e08      	lsrs	r0, r1, #24
   260e4:	71a8      	strb	r0, [r5, #6]
   260e6:	0c08      	lsrs	r0, r1, #16
   260e8:	7168      	strb	r0, [r5, #5]
   260ea:	0a08      	lsrs	r0, r1, #8
   260ec:	7128      	strb	r0, [r5, #4]
   260ee:	a80c      	add	r0, sp, #48	@ 0x30
   260f0:	7880      	ldrb	r0, [r0, #2]
   260f2:	70a8      	strb	r0, [r5, #2]
   260f4:	1de8      	adds	r0, r5, #7
   260f6:	49ba      	ldr	r1, [pc, #744]	@ (263e0 <_start+0x1e84>)
   260f8:	4469      	add	r1, sp
   260fa:	221a      	movs	r2, #26
   260fc:	f001 fdad 	bl	27c5a <__aeabi_memcpy>
   26100:	4cb8      	ldr	r4, [pc, #736]	@ (263e4 <_start+0x1e88>)
   26102:	446c      	add	r4, sp
   26104:	4620      	mov	r0, r4
   26106:	4629      	mov	r1, r5
   26108:	f7fa f9da 	bl	204c0 <_ZN18complex_no_dynamic3app17h067ca3ef353f9b5aE>
   2610c:	7824      	ldrb	r4, [r4, #0]
   2610e:	2c01      	cmp	r4, #1
   26110:	d103      	bne.n	2611a <_start+0x1bbe>
   26112:	9809      	ldr	r0, [sp, #36]	@ 0x24
   26114:	6e00      	ldr	r0, [r0, #96]	@ 0x60
   26116:	900b      	str	r0, [sp, #44]	@ 0x2c
   26118:	e012      	b.n	26140 <_start+0x1be4>
   2611a:	49b2      	ldr	r1, [pc, #712]	@ (263e4 <_start+0x1e88>)
   2611c:	4469      	add	r1, sp
   2611e:	78c8      	ldrb	r0, [r1, #3]
   26120:	aa0c      	add	r2, sp, #48	@ 0x30
   26122:	7090      	strb	r0, [r2, #2]
   26124:	7848      	ldrb	r0, [r1, #1]
   26126:	788b      	ldrb	r3, [r1, #2]
   26128:	021b      	lsls	r3, r3, #8
   2612a:	1818      	adds	r0, r3, r0
   2612c:	8010      	strh	r0, [r2, #0]
   2612e:	9809      	ldr	r0, [sp, #36]	@ 0x24
   26130:	6e00      	ldr	r0, [r0, #96]	@ 0x60
   26132:	900b      	str	r0, [sp, #44]	@ 0x2c
   26134:	3108      	adds	r1, #8
   26136:	48aa      	ldr	r0, [pc, #680]	@ (263e0 <_start+0x1e84>)
   26138:	4468      	add	r0, sp
   2613a:	224c      	movs	r2, #76	@ 0x4c
   2613c:	f001 fc2d 	bl	2799a <__aeabi_memcpy4>
   26140:	2c00      	cmp	r4, #0
   26142:	d001      	beq.n	26148 <_start+0x1bec>
   26144:	f7fe fb02 	bl	2474c <_start+0x1f0>
   26148:	4da9      	ldr	r5, [pc, #676]	@ (263f0 <_start+0x1e94>)
   2614a:	446d      	add	r5, sp
   2614c:	990b      	ldr	r1, [sp, #44]	@ 0x2c
   2614e:	70e9      	strb	r1, [r5, #3]
   26150:	980c      	ldr	r0, [sp, #48]	@ 0x30
   26152:	8028      	strh	r0, [r5, #0]
   26154:	0e08      	lsrs	r0, r1, #24
   26156:	71a8      	strb	r0, [r5, #6]
   26158:	0c08      	lsrs	r0, r1, #16
   2615a:	7168      	strb	r0, [r5, #5]
   2615c:	0a08      	lsrs	r0, r1, #8
   2615e:	7128      	strb	r0, [r5, #4]
   26160:	a80c      	add	r0, sp, #48	@ 0x30
   26162:	7880      	ldrb	r0, [r0, #2]
   26164:	70a8      	strb	r0, [r5, #2]
   26166:	1de8      	adds	r0, r5, #7
   26168:	499d      	ldr	r1, [pc, #628]	@ (263e0 <_start+0x1e84>)
   2616a:	4469      	add	r1, sp
   2616c:	224c      	movs	r2, #76	@ 0x4c
   2616e:	f001 fd74 	bl	27c5a <__aeabi_memcpy>
   26172:	4c9c      	ldr	r4, [pc, #624]	@ (263e4 <_start+0x1e88>)
   26174:	446c      	add	r4, sp
   26176:	4620      	mov	r0, r4
   26178:	4629      	mov	r1, r5
   2617a:	f7fe f8d9 	bl	24330 <_ZN18complex_no_dynamic3app17hf64d323a89b89d55E>
   2617e:	7824      	ldrb	r4, [r4, #0]
   26180:	2c01      	cmp	r4, #1
   26182:	d103      	bne.n	2618c <_start+0x1c30>
   26184:	9809      	ldr	r0, [sp, #36]	@ 0x24
   26186:	6e00      	ldr	r0, [r0, #96]	@ 0x60
   26188:	900b      	str	r0, [sp, #44]	@ 0x2c
   2618a:	e012      	b.n	261b2 <_start+0x1c56>
   2618c:	4995      	ldr	r1, [pc, #596]	@ (263e4 <_start+0x1e88>)
   2618e:	4469      	add	r1, sp
   26190:	78c8      	ldrb	r0, [r1, #3]
   26192:	aa0c      	add	r2, sp, #48	@ 0x30
   26194:	7090      	strb	r0, [r2, #2]
   26196:	7848      	ldrb	r0, [r1, #1]
   26198:	788b      	ldrb	r3, [r1, #2]
   2619a:	021b      	lsls	r3, r3, #8
   2619c:	1818      	adds	r0, r3, r0
   2619e:	8010      	strh	r0, [r2, #0]
   261a0:	9809      	ldr	r0, [sp, #36]	@ 0x24
   261a2:	6e00      	ldr	r0, [r0, #96]	@ 0x60
   261a4:	900b      	str	r0, [sp, #44]	@ 0x2c
   261a6:	3108      	adds	r1, #8
   261a8:	488d      	ldr	r0, [pc, #564]	@ (263e0 <_start+0x1e84>)
   261aa:	4468      	add	r0, sp
   261ac:	2246      	movs	r2, #70	@ 0x46
   261ae:	f001 fbf4 	bl	2799a <__aeabi_memcpy4>
   261b2:	2c00      	cmp	r4, #0
   261b4:	d001      	beq.n	261ba <_start+0x1c5e>
   261b6:	f7fe fac9 	bl	2474c <_start+0x1f0>
   261ba:	4d8e      	ldr	r5, [pc, #568]	@ (263f4 <_start+0x1e98>)
   261bc:	446d      	add	r5, sp
   261be:	990b      	ldr	r1, [sp, #44]	@ 0x2c
   261c0:	70e9      	strb	r1, [r5, #3]
   261c2:	980c      	ldr	r0, [sp, #48]	@ 0x30
   261c4:	8028      	strh	r0, [r5, #0]
   261c6:	0e08      	lsrs	r0, r1, #24
   261c8:	71a8      	strb	r0, [r5, #6]
   261ca:	0c08      	lsrs	r0, r1, #16
   261cc:	7168      	strb	r0, [r5, #5]
   261ce:	0a08      	lsrs	r0, r1, #8
   261d0:	7128      	strb	r0, [r5, #4]
   261d2:	a80c      	add	r0, sp, #48	@ 0x30
   261d4:	7880      	ldrb	r0, [r0, #2]
   261d6:	70a8      	strb	r0, [r5, #2]
   261d8:	1de8      	adds	r0, r5, #7
   261da:	4981      	ldr	r1, [pc, #516]	@ (263e0 <_start+0x1e84>)
   261dc:	4469      	add	r1, sp
   261de:	2246      	movs	r2, #70	@ 0x46
   261e0:	f001 fd3b 	bl	27c5a <__aeabi_memcpy>
   261e4:	4c7f      	ldr	r4, [pc, #508]	@ (263e4 <_start+0x1e88>)
   261e6:	446c      	add	r4, sp
   261e8:	4620      	mov	r0, r4
   261ea:	4629      	mov	r1, r5
   261ec:	f7fb fbf2 	bl	219d4 <_ZN18complex_no_dynamic3app17h4264c5237183a1c0E>
   261f0:	7820      	ldrb	r0, [r4, #0]
   261f2:	2801      	cmp	r0, #1
   261f4:	d103      	bne.n	261fe <_start+0x1ca2>
   261f6:	9909      	ldr	r1, [sp, #36]	@ 0x24
   261f8:	6e09      	ldr	r1, [r1, #96]	@ 0x60
   261fa:	910b      	str	r1, [sp, #44]	@ 0x2c
   261fc:	e019      	b.n	26232 <_start+0x1cd6>
   261fe:	4979      	ldr	r1, [pc, #484]	@ (263e4 <_start+0x1e88>)
   26200:	4469      	add	r1, sp
   26202:	78ca      	ldrb	r2, [r1, #3]
   26204:	ab0c      	add	r3, sp, #48	@ 0x30
   26206:	709a      	strb	r2, [r3, #2]
   26208:	784a      	ldrb	r2, [r1, #1]
   2620a:	788c      	ldrb	r4, [r1, #2]
   2620c:	0224      	lsls	r4, r4, #8
   2620e:	18a2      	adds	r2, r4, r2
   26210:	801a      	strh	r2, [r3, #0]
   26212:	3108      	adds	r1, #8
   26214:	9a09      	ldr	r2, [sp, #36]	@ 0x24
   26216:	6e12      	ldr	r2, [r2, #96]	@ 0x60
   26218:	920b      	str	r2, [sp, #44]	@ 0x2c
   2621a:	4a71      	ldr	r2, [pc, #452]	@ (263e0 <_start+0x1e84>)
   2621c:	446a      	add	r2, sp
   2621e:	c938      	ldmia	r1!, {r3, r4, r5}
   26220:	c238      	stmia	r2!, {r3, r4, r5}
   26222:	c938      	ldmia	r1!, {r3, r4, r5}
   26224:	c238      	stmia	r2!, {r3, r4, r5}
   26226:	c938      	ldmia	r1!, {r3, r4, r5}
   26228:	c238      	stmia	r2!, {r3, r4, r5}
   2622a:	c978      	ldmia	r1!, {r3, r4, r5, r6}
   2622c:	c278      	stmia	r2!, {r3, r4, r5, r6}
   2622e:	7809      	ldrb	r1, [r1, #0]
   26230:	7011      	strb	r1, [r2, #0]
   26232:	2800      	cmp	r0, #0
   26234:	d001      	beq.n	2623a <_start+0x1cde>
   26236:	f7fe fa89 	bl	2474c <_start+0x1f0>
   2623a:	4d6f      	ldr	r5, [pc, #444]	@ (263f8 <_start+0x1e9c>)
   2623c:	446d      	add	r5, sp
   2623e:	990b      	ldr	r1, [sp, #44]	@ 0x2c
   26240:	70e9      	strb	r1, [r5, #3]
   26242:	980c      	ldr	r0, [sp, #48]	@ 0x30
   26244:	8028      	strh	r0, [r5, #0]
   26246:	0e08      	lsrs	r0, r1, #24
   26248:	71a8      	strb	r0, [r5, #6]
   2624a:	0c08      	lsrs	r0, r1, #16
   2624c:	7168      	strb	r0, [r5, #5]
   2624e:	0a08      	lsrs	r0, r1, #8
   26250:	7128      	strb	r0, [r5, #4]
   26252:	a80c      	add	r0, sp, #48	@ 0x30
   26254:	7880      	ldrb	r0, [r0, #2]
   26256:	70a8      	strb	r0, [r5, #2]
   26258:	1de8      	adds	r0, r5, #7
   2625a:	4961      	ldr	r1, [pc, #388]	@ (263e0 <_start+0x1e84>)
   2625c:	4469      	add	r1, sp
   2625e:	2235      	movs	r2, #53	@ 0x35
   26260:	f001 fcfb 	bl	27c5a <__aeabi_memcpy>
   26264:	4c5f      	ldr	r4, [pc, #380]	@ (263e4 <_start+0x1e88>)
   26266:	446c      	add	r4, sp
   26268:	4620      	mov	r0, r4
   2626a:	4629      	mov	r1, r5
   2626c:	f7fa fd1e 	bl	20cac <_ZN18complex_no_dynamic3app17h19532d507b5225f6E>
   26270:	7820      	ldrb	r0, [r4, #0]
   26272:	2801      	cmp	r0, #1
   26274:	d103      	bne.n	2627e <_start+0x1d22>
   26276:	9909      	ldr	r1, [sp, #36]	@ 0x24
   26278:	6e09      	ldr	r1, [r1, #96]	@ 0x60
   2627a:	910b      	str	r1, [sp, #44]	@ 0x2c
   2627c:	e017      	b.n	262ae <_start+0x1d52>
   2627e:	4959      	ldr	r1, [pc, #356]	@ (263e4 <_start+0x1e88>)
   26280:	4469      	add	r1, sp
   26282:	78ca      	ldrb	r2, [r1, #3]
   26284:	ab0c      	add	r3, sp, #48	@ 0x30
   26286:	709a      	strb	r2, [r3, #2]
   26288:	784a      	ldrb	r2, [r1, #1]
   2628a:	788c      	ldrb	r4, [r1, #2]
   2628c:	0224      	lsls	r4, r4, #8
   2628e:	18a2      	adds	r2, r4, r2
   26290:	801a      	strh	r2, [r3, #0]
   26292:	3108      	adds	r1, #8
   26294:	9a09      	ldr	r2, [sp, #36]	@ 0x24
   26296:	6e12      	ldr	r2, [r2, #96]	@ 0x60
   26298:	920b      	str	r2, [sp, #44]	@ 0x2c
   2629a:	4a51      	ldr	r2, [pc, #324]	@ (263e0 <_start+0x1e84>)
   2629c:	446a      	add	r2, sp
   2629e:	c978      	ldmia	r1!, {r3, r4, r5, r6}
   262a0:	c278      	stmia	r2!, {r3, r4, r5, r6}
   262a2:	c978      	ldmia	r1!, {r3, r4, r5, r6}
   262a4:	c278      	stmia	r2!, {r3, r4, r5, r6}
   262a6:	c978      	ldmia	r1!, {r3, r4, r5, r6}
   262a8:	c278      	stmia	r2!, {r3, r4, r5, r6}
   262aa:	7809      	ldrb	r1, [r1, #0]
   262ac:	7011      	strb	r1, [r2, #0]
   262ae:	2800      	cmp	r0, #0
   262b0:	d001      	beq.n	262b6 <_start+0x1d5a>
   262b2:	f7fe fa4b 	bl	2474c <_start+0x1f0>
   262b6:	4d51      	ldr	r5, [pc, #324]	@ (263fc <_start+0x1ea0>)
   262b8:	446d      	add	r5, sp
   262ba:	990b      	ldr	r1, [sp, #44]	@ 0x2c
   262bc:	70e9      	strb	r1, [r5, #3]
   262be:	980c      	ldr	r0, [sp, #48]	@ 0x30
   262c0:	8028      	strh	r0, [r5, #0]
   262c2:	0e08      	lsrs	r0, r1, #24
   262c4:	71a8      	strb	r0, [r5, #6]
   262c6:	0c08      	lsrs	r0, r1, #16
   262c8:	7168      	strb	r0, [r5, #5]
   262ca:	0a08      	lsrs	r0, r1, #8
   262cc:	7128      	strb	r0, [r5, #4]
   262ce:	a80c      	add	r0, sp, #48	@ 0x30
   262d0:	7880      	ldrb	r0, [r0, #2]
   262d2:	70a8      	strb	r0, [r5, #2]
   262d4:	1de8      	adds	r0, r5, #7
   262d6:	4942      	ldr	r1, [pc, #264]	@ (263e0 <_start+0x1e84>)
   262d8:	4469      	add	r1, sp
   262da:	2231      	movs	r2, #49	@ 0x31
   262dc:	f001 fcbd 	bl	27c5a <__aeabi_memcpy>
   262e0:	4c40      	ldr	r4, [pc, #256]	@ (263e4 <_start+0x1e88>)
   262e2:	446c      	add	r4, sp
   262e4:	4620      	mov	r0, r4
   262e6:	4629      	mov	r1, r5
   262e8:	f7fc f8d6 	bl	22498 <_ZN18complex_no_dynamic3app17h5a74c1b3a42aca52E>
   262ec:	7820      	ldrb	r0, [r4, #0]
   262ee:	2801      	cmp	r0, #1
   262f0:	d103      	bne.n	262fa <_start+0x1d9e>
   262f2:	9909      	ldr	r1, [sp, #36]	@ 0x24
   262f4:	6e09      	ldr	r1, [r1, #96]	@ 0x60
   262f6:	910b      	str	r1, [sp, #44]	@ 0x2c
   262f8:	e013      	b.n	26322 <_start+0x1dc6>
   262fa:	493a      	ldr	r1, [pc, #232]	@ (263e4 <_start+0x1e88>)
   262fc:	4469      	add	r1, sp
   262fe:	78ca      	ldrb	r2, [r1, #3]
   26300:	ab0c      	add	r3, sp, #48	@ 0x30
   26302:	709a      	strb	r2, [r3, #2]
   26304:	784a      	ldrb	r2, [r1, #1]
   26306:	788c      	ldrb	r4, [r1, #2]
   26308:	0224      	lsls	r4, r4, #8
   2630a:	18a2      	adds	r2, r4, r2
   2630c:	801a      	strh	r2, [r3, #0]
   2630e:	3108      	adds	r1, #8
   26310:	9a09      	ldr	r2, [sp, #36]	@ 0x24
   26312:	6e12      	ldr	r2, [r2, #96]	@ 0x60
   26314:	920b      	str	r2, [sp, #44]	@ 0x2c
   26316:	4a32      	ldr	r2, [pc, #200]	@ (263e0 <_start+0x1e84>)
   26318:	446a      	add	r2, sp
   2631a:	c978      	ldmia	r1!, {r3, r4, r5, r6}
   2631c:	c278      	stmia	r2!, {r3, r4, r5, r6}
   2631e:	c978      	ldmia	r1!, {r3, r4, r5, r6}
   26320:	c278      	stmia	r2!, {r3, r4, r5, r6}
   26322:	2800      	cmp	r0, #0
   26324:	d001      	beq.n	2632a <_start+0x1dce>
   26326:	f7fe fa11 	bl	2474c <_start+0x1f0>
   2632a:	4d35      	ldr	r5, [pc, #212]	@ (26400 <_start+0x1ea4>)
   2632c:	446d      	add	r5, sp
   2632e:	990b      	ldr	r1, [sp, #44]	@ 0x2c
   26330:	70e9      	strb	r1, [r5, #3]
   26332:	980c      	ldr	r0, [sp, #48]	@ 0x30
   26334:	8028      	strh	r0, [r5, #0]
   26336:	0e08      	lsrs	r0, r1, #24
   26338:	71a8      	strb	r0, [r5, #6]
   2633a:	0c08      	lsrs	r0, r1, #16
   2633c:	7168      	strb	r0, [r5, #5]
   2633e:	0a08      	lsrs	r0, r1, #8
   26340:	7128      	strb	r0, [r5, #4]
   26342:	a80c      	add	r0, sp, #48	@ 0x30
   26344:	7880      	ldrb	r0, [r0, #2]
   26346:	70a8      	strb	r0, [r5, #2]
   26348:	1de8      	adds	r0, r5, #7
   2634a:	4925      	ldr	r1, [pc, #148]	@ (263e0 <_start+0x1e84>)
   2634c:	4469      	add	r1, sp
   2634e:	2220      	movs	r2, #32
   26350:	f001 fc83 	bl	27c5a <__aeabi_memcpy>
   26354:	4c23      	ldr	r4, [pc, #140]	@ (263e4 <_start+0x1e88>)
   26356:	446c      	add	r4, sp
   26358:	4620      	mov	r0, r4
   2635a:	4629      	mov	r1, r5
   2635c:	f7fb f90a 	bl	21574 <_ZN18complex_no_dynamic3app17h389ff85e3e90bc2aE>
   26360:	7824      	ldrb	r4, [r4, #0]
   26362:	2c01      	cmp	r4, #1
   26364:	d103      	bne.n	2636e <_start+0x1e12>
   26366:	9809      	ldr	r0, [sp, #36]	@ 0x24
   26368:	6e00      	ldr	r0, [r0, #96]	@ 0x60
   2636a:	900b      	str	r0, [sp, #44]	@ 0x2c
   2636c:	e012      	b.n	26394 <_start+0x1e38>
   2636e:	491d      	ldr	r1, [pc, #116]	@ (263e4 <_start+0x1e88>)
   26370:	4469      	add	r1, sp
   26372:	78c8      	ldrb	r0, [r1, #3]
   26374:	aa0c      	add	r2, sp, #48	@ 0x30
   26376:	7090      	strb	r0, [r2, #2]
   26378:	7848      	ldrb	r0, [r1, #1]
   2637a:	788b      	ldrb	r3, [r1, #2]
   2637c:	021b      	lsls	r3, r3, #8
   2637e:	1818      	adds	r0, r3, r0
   26380:	8010      	strh	r0, [r2, #0]
   26382:	9809      	ldr	r0, [sp, #36]	@ 0x24
   26384:	6e00      	ldr	r0, [r0, #96]	@ 0x60
   26386:	900b      	str	r0, [sp, #44]	@ 0x2c
   26388:	3108      	adds	r1, #8
   2638a:	4815      	ldr	r0, [pc, #84]	@ (263e0 <_start+0x1e84>)
   2638c:	4468      	add	r0, sp
   2638e:	224a      	movs	r2, #74	@ 0x4a
   26390:	f001 fb03 	bl	2799a <__aeabi_memcpy4>
   26394:	2c00      	cmp	r4, #0
   26396:	d001      	beq.n	2639c <_start+0x1e40>
   26398:	f7fe f9d8 	bl	2474c <_start+0x1f0>
   2639c:	4d19      	ldr	r5, [pc, #100]	@ (26404 <_start+0x1ea8>)
   2639e:	446d      	add	r5, sp
   263a0:	990b      	ldr	r1, [sp, #44]	@ 0x2c
   263a2:	70e9      	strb	r1, [r5, #3]
   263a4:	980c      	ldr	r0, [sp, #48]	@ 0x30
   263a6:	8028      	strh	r0, [r5, #0]
   263a8:	0e08      	lsrs	r0, r1, #24
   263aa:	71a8      	strb	r0, [r5, #6]
   263ac:	0c08      	lsrs	r0, r1, #16
   263ae:	7168      	strb	r0, [r5, #5]
   263b0:	0a08      	lsrs	r0, r1, #8
   263b2:	7128      	strb	r0, [r5, #4]
   263b4:	a80c      	add	r0, sp, #48	@ 0x30
   263b6:	7880      	ldrb	r0, [r0, #2]
   263b8:	70a8      	strb	r0, [r5, #2]
   263ba:	1de8      	adds	r0, r5, #7
   263bc:	4908      	ldr	r1, [pc, #32]	@ (263e0 <_start+0x1e84>)
   263be:	4469      	add	r1, sp
   263c0:	224a      	movs	r2, #74	@ 0x4a
   263c2:	f001 fc4a 	bl	27c5a <__aeabi_memcpy>
   263c6:	4c07      	ldr	r4, [pc, #28]	@ (263e4 <_start+0x1e88>)
   263c8:	446c      	add	r4, sp
   263ca:	4620      	mov	r0, r4
   263cc:	4629      	mov	r1, r5
   263ce:	f7fb f989 	bl	216e4 <_ZN18complex_no_dynamic3app17h39804d9d2901b724E>
   263d2:	7824      	ldrb	r4, [r4, #0]
   263d4:	2c01      	cmp	r4, #1
   263d6:	d117      	bne.n	26408 <_start+0x1eac>
   263d8:	9809      	ldr	r0, [sp, #36]	@ 0x24
   263da:	6e00      	ldr	r0, [r0, #96]	@ 0x60
   263dc:	900b      	str	r0, [sp, #44]	@ 0x2c
   263de:	e026      	b.n	2642e <_start+0x1ed2>
   263e0:	000013a8 	.word	0x000013a8
   263e4:	00001404 	.word	0x00001404
   263e8:	00000928 	.word	0x00000928
   263ec:	00000938 	.word	0x00000938
   263f0:	0000095c 	.word	0x0000095c
   263f4:	000009b0 	.word	0x000009b0
   263f8:	00000a00 	.word	0x00000a00
   263fc:	00000a3c 	.word	0x00000a3c
   26400:	00000a74 	.word	0x00000a74
   26404:	00000a9c 	.word	0x00000a9c
   26408:	49ec      	ldr	r1, [pc, #944]	@ (267bc <_start+0x2260>)
   2640a:	4469      	add	r1, sp
   2640c:	78c8      	ldrb	r0, [r1, #3]
   2640e:	aa0c      	add	r2, sp, #48	@ 0x30
   26410:	7090      	strb	r0, [r2, #2]
   26412:	7848      	ldrb	r0, [r1, #1]
   26414:	788b      	ldrb	r3, [r1, #2]
   26416:	021b      	lsls	r3, r3, #8
   26418:	1818      	adds	r0, r3, r0
   2641a:	8010      	strh	r0, [r2, #0]
   2641c:	9809      	ldr	r0, [sp, #36]	@ 0x24
   2641e:	6e00      	ldr	r0, [r0, #96]	@ 0x60
   26420:	900b      	str	r0, [sp, #44]	@ 0x2c
   26422:	3108      	adds	r1, #8
   26424:	48e6      	ldr	r0, [pc, #920]	@ (267c0 <_start+0x2264>)
   26426:	4468      	add	r0, sp
   26428:	2248      	movs	r2, #72	@ 0x48
   2642a:	f001 fab6 	bl	2799a <__aeabi_memcpy4>
   2642e:	2c00      	cmp	r4, #0
   26430:	d001      	beq.n	26436 <_start+0x1eda>
   26432:	f7fe f98b 	bl	2474c <_start+0x1f0>
   26436:	4de3      	ldr	r5, [pc, #908]	@ (267c4 <_start+0x2268>)
   26438:	446d      	add	r5, sp
   2643a:	990b      	ldr	r1, [sp, #44]	@ 0x2c
   2643c:	70e9      	strb	r1, [r5, #3]
   2643e:	980c      	ldr	r0, [sp, #48]	@ 0x30
   26440:	8028      	strh	r0, [r5, #0]
   26442:	0e08      	lsrs	r0, r1, #24
   26444:	71a8      	strb	r0, [r5, #6]
   26446:	0c08      	lsrs	r0, r1, #16
   26448:	7168      	strb	r0, [r5, #5]
   2644a:	0a08      	lsrs	r0, r1, #8
   2644c:	7128      	strb	r0, [r5, #4]
   2644e:	a80c      	add	r0, sp, #48	@ 0x30
   26450:	7880      	ldrb	r0, [r0, #2]
   26452:	70a8      	strb	r0, [r5, #2]
   26454:	1de8      	adds	r0, r5, #7
   26456:	49da      	ldr	r1, [pc, #872]	@ (267c0 <_start+0x2264>)
   26458:	4469      	add	r1, sp
   2645a:	2248      	movs	r2, #72	@ 0x48
   2645c:	f001 fbfd 	bl	27c5a <__aeabi_memcpy>
   26460:	4cd6      	ldr	r4, [pc, #856]	@ (267bc <_start+0x2260>)
   26462:	446c      	add	r4, sp
   26464:	4620      	mov	r0, r4
   26466:	4629      	mov	r1, r5
   26468:	f7fc ff24 	bl	232b4 <_ZN18complex_no_dynamic3app17haa3887b2140c3017E>
   2646c:	7824      	ldrb	r4, [r4, #0]
   2646e:	2c01      	cmp	r4, #1
   26470:	d103      	bne.n	2647a <_start+0x1f1e>
   26472:	9809      	ldr	r0, [sp, #36]	@ 0x24
   26474:	6e00      	ldr	r0, [r0, #96]	@ 0x60
   26476:	900b      	str	r0, [sp, #44]	@ 0x2c
   26478:	e012      	b.n	264a0 <_start+0x1f44>
   2647a:	49d0      	ldr	r1, [pc, #832]	@ (267bc <_start+0x2260>)
   2647c:	4469      	add	r1, sp
   2647e:	78c8      	ldrb	r0, [r1, #3]
   26480:	aa0c      	add	r2, sp, #48	@ 0x30
   26482:	7090      	strb	r0, [r2, #2]
   26484:	7848      	ldrb	r0, [r1, #1]
   26486:	788b      	ldrb	r3, [r1, #2]
   26488:	021b      	lsls	r3, r3, #8
   2648a:	1818      	adds	r0, r3, r0
   2648c:	8010      	strh	r0, [r2, #0]
   2648e:	9809      	ldr	r0, [sp, #36]	@ 0x24
   26490:	6e00      	ldr	r0, [r0, #96]	@ 0x60
   26492:	900b      	str	r0, [sp, #44]	@ 0x2c
   26494:	3108      	adds	r1, #8
   26496:	48ca      	ldr	r0, [pc, #808]	@ (267c0 <_start+0x2264>)
   26498:	4468      	add	r0, sp
   2649a:	225a      	movs	r2, #90	@ 0x5a
   2649c:	f001 fa7d 	bl	2799a <__aeabi_memcpy4>
   264a0:	2c00      	cmp	r4, #0
   264a2:	d001      	beq.n	264a8 <_start+0x1f4c>
   264a4:	f7fe f952 	bl	2474c <_start+0x1f0>
   264a8:	4dc7      	ldr	r5, [pc, #796]	@ (267c8 <_start+0x226c>)
   264aa:	446d      	add	r5, sp
   264ac:	990b      	ldr	r1, [sp, #44]	@ 0x2c
   264ae:	70e9      	strb	r1, [r5, #3]
   264b0:	980c      	ldr	r0, [sp, #48]	@ 0x30
   264b2:	8028      	strh	r0, [r5, #0]
   264b4:	0e08      	lsrs	r0, r1, #24
   264b6:	71a8      	strb	r0, [r5, #6]
   264b8:	0c08      	lsrs	r0, r1, #16
   264ba:	7168      	strb	r0, [r5, #5]
   264bc:	0a08      	lsrs	r0, r1, #8
   264be:	7128      	strb	r0, [r5, #4]
   264c0:	a80c      	add	r0, sp, #48	@ 0x30
   264c2:	7880      	ldrb	r0, [r0, #2]
   264c4:	70a8      	strb	r0, [r5, #2]
   264c6:	1de8      	adds	r0, r5, #7
   264c8:	49bd      	ldr	r1, [pc, #756]	@ (267c0 <_start+0x2264>)
   264ca:	4469      	add	r1, sp
   264cc:	225a      	movs	r2, #90	@ 0x5a
   264ce:	f001 fbc4 	bl	27c5a <__aeabi_memcpy>
   264d2:	4cba      	ldr	r4, [pc, #744]	@ (267bc <_start+0x2260>)
   264d4:	446c      	add	r4, sp
   264d6:	4620      	mov	r0, r4
   264d8:	4629      	mov	r1, r5
   264da:	f7fa f8a5 	bl	20628 <_ZN18complex_no_dynamic3app17h0da62295f0567387E>
   264de:	7820      	ldrb	r0, [r4, #0]
   264e0:	2801      	cmp	r0, #1
   264e2:	d103      	bne.n	264ec <_start+0x1f90>
   264e4:	9909      	ldr	r1, [sp, #36]	@ 0x24
   264e6:	6e09      	ldr	r1, [r1, #96]	@ 0x60
   264e8:	910b      	str	r1, [sp, #44]	@ 0x2c
   264ea:	e017      	b.n	2651c <_start+0x1fc0>
   264ec:	49b3      	ldr	r1, [pc, #716]	@ (267bc <_start+0x2260>)
   264ee:	4469      	add	r1, sp
   264f0:	78ca      	ldrb	r2, [r1, #3]
   264f2:	ab0c      	add	r3, sp, #48	@ 0x30
   264f4:	709a      	strb	r2, [r3, #2]
   264f6:	784a      	ldrb	r2, [r1, #1]
   264f8:	788c      	ldrb	r4, [r1, #2]
   264fa:	0224      	lsls	r4, r4, #8
   264fc:	18a2      	adds	r2, r4, r2
   264fe:	801a      	strh	r2, [r3, #0]
   26500:	3108      	adds	r1, #8
   26502:	9a09      	ldr	r2, [sp, #36]	@ 0x24
   26504:	6e12      	ldr	r2, [r2, #96]	@ 0x60
   26506:	920b      	str	r2, [sp, #44]	@ 0x2c
   26508:	4aad      	ldr	r2, [pc, #692]	@ (267c0 <_start+0x2264>)
   2650a:	446a      	add	r2, sp
   2650c:	c918      	ldmia	r1!, {r3, r4}
   2650e:	c218      	stmia	r2!, {r3, r4}
   26510:	c938      	ldmia	r1!, {r3, r4, r5}
   26512:	c238      	stmia	r2!, {r3, r4, r5}
   26514:	880b      	ldrh	r3, [r1, #0]
   26516:	8013      	strh	r3, [r2, #0]
   26518:	7889      	ldrb	r1, [r1, #2]
   2651a:	7091      	strb	r1, [r2, #2]
   2651c:	2800      	cmp	r0, #0
   2651e:	d001      	beq.n	26524 <_start+0x1fc8>
   26520:	f7fe f914 	bl	2474c <_start+0x1f0>
   26524:	4da9      	ldr	r5, [pc, #676]	@ (267cc <_start+0x2270>)
   26526:	446d      	add	r5, sp
   26528:	990b      	ldr	r1, [sp, #44]	@ 0x2c
   2652a:	70e9      	strb	r1, [r5, #3]
   2652c:	980c      	ldr	r0, [sp, #48]	@ 0x30
   2652e:	8028      	strh	r0, [r5, #0]
   26530:	0e08      	lsrs	r0, r1, #24
   26532:	71a8      	strb	r0, [r5, #6]
   26534:	0c08      	lsrs	r0, r1, #16
   26536:	7168      	strb	r0, [r5, #5]
   26538:	0a08      	lsrs	r0, r1, #8
   2653a:	7128      	strb	r0, [r5, #4]
   2653c:	a80c      	add	r0, sp, #48	@ 0x30
   2653e:	7880      	ldrb	r0, [r0, #2]
   26540:	70a8      	strb	r0, [r5, #2]
   26542:	1de8      	adds	r0, r5, #7
   26544:	499e      	ldr	r1, [pc, #632]	@ (267c0 <_start+0x2264>)
   26546:	4469      	add	r1, sp
   26548:	2217      	movs	r2, #23
   2654a:	f001 fb86 	bl	27c5a <__aeabi_memcpy>
   2654e:	4c9b      	ldr	r4, [pc, #620]	@ (267bc <_start+0x2260>)
   26550:	446c      	add	r4, sp
   26552:	4620      	mov	r0, r4
   26554:	4629      	mov	r1, r5
   26556:	f7f9 fef9 	bl	2034c <_ZN18complex_no_dynamic3app17h04812327b7998ca4E>
   2655a:	7820      	ldrb	r0, [r4, #0]
   2655c:	2801      	cmp	r0, #1
   2655e:	d103      	bne.n	26568 <_start+0x200c>
   26560:	9909      	ldr	r1, [sp, #36]	@ 0x24
   26562:	6e09      	ldr	r1, [r1, #96]	@ 0x60
   26564:	910b      	str	r1, [sp, #44]	@ 0x2c
   26566:	e015      	b.n	26594 <_start+0x2038>
   26568:	4994      	ldr	r1, [pc, #592]	@ (267bc <_start+0x2260>)
   2656a:	4469      	add	r1, sp
   2656c:	78ca      	ldrb	r2, [r1, #3]
   2656e:	ab0c      	add	r3, sp, #48	@ 0x30
   26570:	709a      	strb	r2, [r3, #2]
   26572:	784a      	ldrb	r2, [r1, #1]
   26574:	788c      	ldrb	r4, [r1, #2]
   26576:	0224      	lsls	r4, r4, #8
   26578:	18a2      	adds	r2, r4, r2
   2657a:	801a      	strh	r2, [r3, #0]
   2657c:	3108      	adds	r1, #8
   2657e:	9a09      	ldr	r2, [sp, #36]	@ 0x24
   26580:	6e12      	ldr	r2, [r2, #96]	@ 0x60
   26582:	920b      	str	r2, [sp, #44]	@ 0x2c
   26584:	4a8e      	ldr	r2, [pc, #568]	@ (267c0 <_start+0x2264>)
   26586:	446a      	add	r2, sp
   26588:	c938      	ldmia	r1!, {r3, r4, r5}
   2658a:	c238      	stmia	r2!, {r3, r4, r5}
   2658c:	c938      	ldmia	r1!, {r3, r4, r5}
   2658e:	c238      	stmia	r2!, {r3, r4, r5}
   26590:	8809      	ldrh	r1, [r1, #0]
   26592:	8011      	strh	r1, [r2, #0]
   26594:	2800      	cmp	r0, #0
   26596:	d001      	beq.n	2659c <_start+0x2040>
   26598:	f7fe f8d8 	bl	2474c <_start+0x1f0>
   2659c:	4d8c      	ldr	r5, [pc, #560]	@ (267d0 <_start+0x2274>)
   2659e:	446d      	add	r5, sp
   265a0:	990b      	ldr	r1, [sp, #44]	@ 0x2c
   265a2:	70e9      	strb	r1, [r5, #3]
   265a4:	980c      	ldr	r0, [sp, #48]	@ 0x30
   265a6:	8028      	strh	r0, [r5, #0]
   265a8:	0e08      	lsrs	r0, r1, #24
   265aa:	71a8      	strb	r0, [r5, #6]
   265ac:	0c08      	lsrs	r0, r1, #16
   265ae:	7168      	strb	r0, [r5, #5]
   265b0:	0a08      	lsrs	r0, r1, #8
   265b2:	7128      	strb	r0, [r5, #4]
   265b4:	a80c      	add	r0, sp, #48	@ 0x30
   265b6:	7880      	ldrb	r0, [r0, #2]
   265b8:	70a8      	strb	r0, [r5, #2]
   265ba:	1de8      	adds	r0, r5, #7
   265bc:	4980      	ldr	r1, [pc, #512]	@ (267c0 <_start+0x2264>)
   265be:	4469      	add	r1, sp
   265c0:	221a      	movs	r2, #26
   265c2:	f001 fb4a 	bl	27c5a <__aeabi_memcpy>
   265c6:	4c7d      	ldr	r4, [pc, #500]	@ (267bc <_start+0x2260>)
   265c8:	446c      	add	r4, sp
   265ca:	4620      	mov	r0, r4
   265cc:	4629      	mov	r1, r5
   265ce:	f7fb fa5b 	bl	21a88 <_ZN18complex_no_dynamic3app17h43bb31188ef1f603E>
   265d2:	7820      	ldrb	r0, [r4, #0]
   265d4:	2801      	cmp	r0, #1
   265d6:	d103      	bne.n	265e0 <_start+0x2084>
   265d8:	9909      	ldr	r1, [sp, #36]	@ 0x24
   265da:	6e09      	ldr	r1, [r1, #96]	@ 0x60
   265dc:	910b      	str	r1, [sp, #44]	@ 0x2c
   265de:	e017      	b.n	26610 <_start+0x20b4>
   265e0:	4976      	ldr	r1, [pc, #472]	@ (267bc <_start+0x2260>)
   265e2:	4469      	add	r1, sp
   265e4:	78ca      	ldrb	r2, [r1, #3]
   265e6:	ab0c      	add	r3, sp, #48	@ 0x30
   265e8:	709a      	strb	r2, [r3, #2]
   265ea:	784a      	ldrb	r2, [r1, #1]
   265ec:	788c      	ldrb	r4, [r1, #2]
   265ee:	0224      	lsls	r4, r4, #8
   265f0:	18a2      	adds	r2, r4, r2
   265f2:	801a      	strh	r2, [r3, #0]
   265f4:	3108      	adds	r1, #8
   265f6:	9a09      	ldr	r2, [sp, #36]	@ 0x24
   265f8:	6e12      	ldr	r2, [r2, #96]	@ 0x60
   265fa:	920b      	str	r2, [sp, #44]	@ 0x2c
   265fc:	4a70      	ldr	r2, [pc, #448]	@ (267c0 <_start+0x2264>)
   265fe:	446a      	add	r2, sp
   26600:	c978      	ldmia	r1!, {r3, r4, r5, r6}
   26602:	c278      	stmia	r2!, {r3, r4, r5, r6}
   26604:	c978      	ldmia	r1!, {r3, r4, r5, r6}
   26606:	c278      	stmia	r2!, {r3, r4, r5, r6}
   26608:	880b      	ldrh	r3, [r1, #0]
   2660a:	8013      	strh	r3, [r2, #0]
   2660c:	7889      	ldrb	r1, [r1, #2]
   2660e:	7091      	strb	r1, [r2, #2]
   26610:	2800      	cmp	r0, #0
   26612:	d001      	beq.n	26618 <_start+0x20bc>
   26614:	f7fe f89a 	bl	2474c <_start+0x1f0>
   26618:	4d6e      	ldr	r5, [pc, #440]	@ (267d4 <_start+0x2278>)
   2661a:	446d      	add	r5, sp
   2661c:	990b      	ldr	r1, [sp, #44]	@ 0x2c
   2661e:	70e9      	strb	r1, [r5, #3]
   26620:	980c      	ldr	r0, [sp, #48]	@ 0x30
   26622:	8028      	strh	r0, [r5, #0]
   26624:	0e08      	lsrs	r0, r1, #24
   26626:	71a8      	strb	r0, [r5, #6]
   26628:	0c08      	lsrs	r0, r1, #16
   2662a:	7168      	strb	r0, [r5, #5]
   2662c:	0a08      	lsrs	r0, r1, #8
   2662e:	7128      	strb	r0, [r5, #4]
   26630:	a80c      	add	r0, sp, #48	@ 0x30
   26632:	7880      	ldrb	r0, [r0, #2]
   26634:	70a8      	strb	r0, [r5, #2]
   26636:	1de8      	adds	r0, r5, #7
   26638:	4961      	ldr	r1, [pc, #388]	@ (267c0 <_start+0x2264>)
   2663a:	4469      	add	r1, sp
   2663c:	2223      	movs	r2, #35	@ 0x23
   2663e:	f001 fb0c 	bl	27c5a <__aeabi_memcpy>
   26642:	4c5e      	ldr	r4, [pc, #376]	@ (267bc <_start+0x2260>)
   26644:	446c      	add	r4, sp
   26646:	4620      	mov	r0, r4
   26648:	4629      	mov	r1, r5
   2664a:	f7fb f901 	bl	21850 <_ZN18complex_no_dynamic3app17h3d50ecff2fd4648bE>
   2664e:	7824      	ldrb	r4, [r4, #0]
   26650:	2c01      	cmp	r4, #1
   26652:	d103      	bne.n	2665c <_start+0x2100>
   26654:	9809      	ldr	r0, [sp, #36]	@ 0x24
   26656:	6e00      	ldr	r0, [r0, #96]	@ 0x60
   26658:	900b      	str	r0, [sp, #44]	@ 0x2c
   2665a:	e012      	b.n	26682 <_start+0x2126>
   2665c:	4957      	ldr	r1, [pc, #348]	@ (267bc <_start+0x2260>)
   2665e:	4469      	add	r1, sp
   26660:	78c8      	ldrb	r0, [r1, #3]
   26662:	aa0c      	add	r2, sp, #48	@ 0x30
   26664:	7090      	strb	r0, [r2, #2]
   26666:	7848      	ldrb	r0, [r1, #1]
   26668:	788b      	ldrb	r3, [r1, #2]
   2666a:	021b      	lsls	r3, r3, #8
   2666c:	1818      	adds	r0, r3, r0
   2666e:	8010      	strh	r0, [r2, #0]
   26670:	9809      	ldr	r0, [sp, #36]	@ 0x24
   26672:	6e00      	ldr	r0, [r0, #96]	@ 0x60
   26674:	900b      	str	r0, [sp, #44]	@ 0x2c
   26676:	3108      	adds	r1, #8
   26678:	4851      	ldr	r0, [pc, #324]	@ (267c0 <_start+0x2264>)
   2667a:	4468      	add	r0, sp
   2667c:	2252      	movs	r2, #82	@ 0x52
   2667e:	f001 f98c 	bl	2799a <__aeabi_memcpy4>
   26682:	2c00      	cmp	r4, #0
   26684:	d001      	beq.n	2668a <_start+0x212e>
   26686:	f7fe f861 	bl	2474c <_start+0x1f0>
   2668a:	4d53      	ldr	r5, [pc, #332]	@ (267d8 <_start+0x227c>)
   2668c:	446d      	add	r5, sp
   2668e:	990b      	ldr	r1, [sp, #44]	@ 0x2c
   26690:	70e9      	strb	r1, [r5, #3]
   26692:	980c      	ldr	r0, [sp, #48]	@ 0x30
   26694:	8028      	strh	r0, [r5, #0]
   26696:	0e08      	lsrs	r0, r1, #24
   26698:	71a8      	strb	r0, [r5, #6]
   2669a:	0c08      	lsrs	r0, r1, #16
   2669c:	7168      	strb	r0, [r5, #5]
   2669e:	0a08      	lsrs	r0, r1, #8
   266a0:	7128      	strb	r0, [r5, #4]
   266a2:	a80c      	add	r0, sp, #48	@ 0x30
   266a4:	7880      	ldrb	r0, [r0, #2]
   266a6:	70a8      	strb	r0, [r5, #2]
   266a8:	1de8      	adds	r0, r5, #7
   266aa:	4945      	ldr	r1, [pc, #276]	@ (267c0 <_start+0x2264>)
   266ac:	4469      	add	r1, sp
   266ae:	2252      	movs	r2, #82	@ 0x52
   266b0:	f001 fad3 	bl	27c5a <__aeabi_memcpy>
   266b4:	4c41      	ldr	r4, [pc, #260]	@ (267bc <_start+0x2260>)
   266b6:	446c      	add	r4, sp
   266b8:	4620      	mov	r0, r4
   266ba:	4629      	mov	r1, r5
   266bc:	f7fc fd9c 	bl	231f8 <_ZN18complex_no_dynamic3app17h96d49f49ca07e50fE>
   266c0:	7824      	ldrb	r4, [r4, #0]
   266c2:	2c01      	cmp	r4, #1
   266c4:	d103      	bne.n	266ce <_start+0x2172>
   266c6:	9809      	ldr	r0, [sp, #36]	@ 0x24
   266c8:	6e00      	ldr	r0, [r0, #96]	@ 0x60
   266ca:	900b      	str	r0, [sp, #44]	@ 0x2c
   266cc:	e012      	b.n	266f4 <_start+0x2198>
   266ce:	493b      	ldr	r1, [pc, #236]	@ (267bc <_start+0x2260>)
   266d0:	4469      	add	r1, sp
   266d2:	78c8      	ldrb	r0, [r1, #3]
   266d4:	aa0c      	add	r2, sp, #48	@ 0x30
   266d6:	7090      	strb	r0, [r2, #2]
   266d8:	7848      	ldrb	r0, [r1, #1]
   266da:	788b      	ldrb	r3, [r1, #2]
   266dc:	021b      	lsls	r3, r3, #8
   266de:	1818      	adds	r0, r3, r0
   266e0:	8010      	strh	r0, [r2, #0]
   266e2:	9809      	ldr	r0, [sp, #36]	@ 0x24
   266e4:	6e00      	ldr	r0, [r0, #96]	@ 0x60
   266e6:	900b      	str	r0, [sp, #44]	@ 0x2c
   266e8:	3108      	adds	r1, #8
   266ea:	4835      	ldr	r0, [pc, #212]	@ (267c0 <_start+0x2264>)
   266ec:	4468      	add	r0, sp
   266ee:	2243      	movs	r2, #67	@ 0x43
   266f0:	f001 f953 	bl	2799a <__aeabi_memcpy4>
   266f4:	2c00      	cmp	r4, #0
   266f6:	d001      	beq.n	266fc <_start+0x21a0>
   266f8:	f7fe f828 	bl	2474c <_start+0x1f0>
   266fc:	4d37      	ldr	r5, [pc, #220]	@ (267dc <_start+0x2280>)
   266fe:	446d      	add	r5, sp
   26700:	990b      	ldr	r1, [sp, #44]	@ 0x2c
   26702:	70e9      	strb	r1, [r5, #3]
   26704:	980c      	ldr	r0, [sp, #48]	@ 0x30
   26706:	8028      	strh	r0, [r5, #0]
   26708:	0e08      	lsrs	r0, r1, #24
   2670a:	71a8      	strb	r0, [r5, #6]
   2670c:	0c08      	lsrs	r0, r1, #16
   2670e:	7168      	strb	r0, [r5, #5]
   26710:	0a08      	lsrs	r0, r1, #8
   26712:	7128      	strb	r0, [r5, #4]
   26714:	a80c      	add	r0, sp, #48	@ 0x30
   26716:	7880      	ldrb	r0, [r0, #2]
   26718:	70a8      	strb	r0, [r5, #2]
   2671a:	1de8      	adds	r0, r5, #7
   2671c:	4928      	ldr	r1, [pc, #160]	@ (267c0 <_start+0x2264>)
   2671e:	4469      	add	r1, sp
   26720:	2243      	movs	r2, #67	@ 0x43
   26722:	f001 fa9a 	bl	27c5a <__aeabi_memcpy>
   26726:	4c25      	ldr	r4, [pc, #148]	@ (267bc <_start+0x2260>)
   26728:	446c      	add	r4, sp
   2672a:	4620      	mov	r0, r4
   2672c:	4629      	mov	r1, r5
   2672e:	f7fb fda1 	bl	22274 <_ZN18complex_no_dynamic3app17h591ec23db3bdd2adE>
   26732:	7820      	ldrb	r0, [r4, #0]
   26734:	2801      	cmp	r0, #1
   26736:	d103      	bne.n	26740 <_start+0x21e4>
   26738:	9909      	ldr	r1, [sp, #36]	@ 0x24
   2673a:	6e09      	ldr	r1, [r1, #96]	@ 0x60
   2673c:	910b      	str	r1, [sp, #44]	@ 0x2c
   2673e:	e017      	b.n	26770 <_start+0x2214>
   26740:	491e      	ldr	r1, [pc, #120]	@ (267bc <_start+0x2260>)
   26742:	4469      	add	r1, sp
   26744:	78ca      	ldrb	r2, [r1, #3]
   26746:	ab0c      	add	r3, sp, #48	@ 0x30
   26748:	709a      	strb	r2, [r3, #2]
   2674a:	784a      	ldrb	r2, [r1, #1]
   2674c:	788c      	ldrb	r4, [r1, #2]
   2674e:	0224      	lsls	r4, r4, #8
   26750:	18a2      	adds	r2, r4, r2
   26752:	801a      	strh	r2, [r3, #0]
   26754:	3108      	adds	r1, #8
   26756:	9a09      	ldr	r2, [sp, #36]	@ 0x24
   26758:	6e12      	ldr	r2, [r2, #96]	@ 0x60
   2675a:	920b      	str	r2, [sp, #44]	@ 0x2c
   2675c:	4a18      	ldr	r2, [pc, #96]	@ (267c0 <_start+0x2264>)
   2675e:	446a      	add	r2, sp
   26760:	c938      	ldmia	r1!, {r3, r4, r5}
   26762:	c238      	stmia	r2!, {r3, r4, r5}
   26764:	c938      	ldmia	r1!, {r3, r4, r5}
   26766:	c238      	stmia	r2!, {r3, r4, r5}
   26768:	c938      	ldmia	r1!, {r3, r4, r5}
   2676a:	c238      	stmia	r2!, {r3, r4, r5}
   2676c:	8809      	ldrh	r1, [r1, #0]
   2676e:	8011      	strh	r1, [r2, #0]
   26770:	2800      	cmp	r0, #0
   26772:	d001      	beq.n	26778 <_start+0x221c>
   26774:	f7fd ffea 	bl	2474c <_start+0x1f0>
   26778:	4d19      	ldr	r5, [pc, #100]	@ (267e0 <_start+0x2284>)
   2677a:	446d      	add	r5, sp
   2677c:	990b      	ldr	r1, [sp, #44]	@ 0x2c
   2677e:	70e9      	strb	r1, [r5, #3]
   26780:	980c      	ldr	r0, [sp, #48]	@ 0x30
   26782:	8028      	strh	r0, [r5, #0]
   26784:	0e08      	lsrs	r0, r1, #24
   26786:	71a8      	strb	r0, [r5, #6]
   26788:	0c08      	lsrs	r0, r1, #16
   2678a:	7168      	strb	r0, [r5, #5]
   2678c:	0a08      	lsrs	r0, r1, #8
   2678e:	7128      	strb	r0, [r5, #4]
   26790:	a80c      	add	r0, sp, #48	@ 0x30
   26792:	7880      	ldrb	r0, [r0, #2]
   26794:	70a8      	strb	r0, [r5, #2]
   26796:	1de8      	adds	r0, r5, #7
   26798:	4909      	ldr	r1, [pc, #36]	@ (267c0 <_start+0x2264>)
   2679a:	4469      	add	r1, sp
   2679c:	2226      	movs	r2, #38	@ 0x26
   2679e:	f001 fa5c 	bl	27c5a <__aeabi_memcpy>
   267a2:	4c06      	ldr	r4, [pc, #24]	@ (267bc <_start+0x2260>)
   267a4:	446c      	add	r4, sp
   267a6:	4620      	mov	r0, r4
   267a8:	4629      	mov	r1, r5
   267aa:	f7fc fc49 	bl	23040 <_ZN18complex_no_dynamic3app17h9338162fad206801E>
   267ae:	7824      	ldrb	r4, [r4, #0]
   267b0:	2c01      	cmp	r4, #1
   267b2:	d117      	bne.n	267e4 <_start+0x2288>
   267b4:	9809      	ldr	r0, [sp, #36]	@ 0x24
   267b6:	6e00      	ldr	r0, [r0, #96]	@ 0x60
   267b8:	900b      	str	r0, [sp, #44]	@ 0x2c
   267ba:	e026      	b.n	2680a <_start+0x22ae>
   267bc:	00001404 	.word	0x00001404
   267c0:	000013a8 	.word	0x000013a8
   267c4:	00000af0 	.word	0x00000af0
   267c8:	00000b40 	.word	0x00000b40
   267cc:	00000ba4 	.word	0x00000ba4
   267d0:	00000bc4 	.word	0x00000bc4
   267d4:	00000be8 	.word	0x00000be8
   267d8:	00000c14 	.word	0x00000c14
   267dc:	00000c70 	.word	0x00000c70
   267e0:	00000cbc 	.word	0x00000cbc
   267e4:	49f0      	ldr	r1, [pc, #960]	@ (26ba8 <_start+0x264c>)
   267e6:	4469      	add	r1, sp
   267e8:	78c8      	ldrb	r0, [r1, #3]
   267ea:	aa0c      	add	r2, sp, #48	@ 0x30
   267ec:	7090      	strb	r0, [r2, #2]
   267ee:	7848      	ldrb	r0, [r1, #1]
   267f0:	788b      	ldrb	r3, [r1, #2]
   267f2:	021b      	lsls	r3, r3, #8
   267f4:	1818      	adds	r0, r3, r0
   267f6:	8010      	strh	r0, [r2, #0]
   267f8:	9809      	ldr	r0, [sp, #36]	@ 0x24
   267fa:	6e00      	ldr	r0, [r0, #96]	@ 0x60
   267fc:	900b      	str	r0, [sp, #44]	@ 0x2c
   267fe:	3108      	adds	r1, #8
   26800:	48ea      	ldr	r0, [pc, #936]	@ (26bac <_start+0x2650>)
   26802:	4468      	add	r0, sp
   26804:	224c      	movs	r2, #76	@ 0x4c
   26806:	f001 f8c8 	bl	2799a <__aeabi_memcpy4>
   2680a:	2c00      	cmp	r4, #0
   2680c:	d001      	beq.n	26812 <_start+0x22b6>
   2680e:	f7fd ff9d 	bl	2474c <_start+0x1f0>
   26812:	4de7      	ldr	r5, [pc, #924]	@ (26bb0 <_start+0x2654>)
   26814:	446d      	add	r5, sp
   26816:	990b      	ldr	r1, [sp, #44]	@ 0x2c
   26818:	70e9      	strb	r1, [r5, #3]
   2681a:	980c      	ldr	r0, [sp, #48]	@ 0x30
   2681c:	8028      	strh	r0, [r5, #0]
   2681e:	0e08      	lsrs	r0, r1, #24
   26820:	71a8      	strb	r0, [r5, #6]
   26822:	0c08      	lsrs	r0, r1, #16
   26824:	7168      	strb	r0, [r5, #5]
   26826:	0a08      	lsrs	r0, r1, #8
   26828:	7128      	strb	r0, [r5, #4]
   2682a:	a80c      	add	r0, sp, #48	@ 0x30
   2682c:	7880      	ldrb	r0, [r0, #2]
   2682e:	70a8      	strb	r0, [r5, #2]
   26830:	1de8      	adds	r0, r5, #7
   26832:	49de      	ldr	r1, [pc, #888]	@ (26bac <_start+0x2650>)
   26834:	4469      	add	r1, sp
   26836:	224c      	movs	r2, #76	@ 0x4c
   26838:	f001 fa0f 	bl	27c5a <__aeabi_memcpy>
   2683c:	4cda      	ldr	r4, [pc, #872]	@ (26ba8 <_start+0x264c>)
   2683e:	446c      	add	r4, sp
   26840:	4620      	mov	r0, r4
   26842:	4629      	mov	r1, r5
   26844:	f7fd f928 	bl	23a98 <_ZN18complex_no_dynamic3app17hcc21549840431a45E>
   26848:	7820      	ldrb	r0, [r4, #0]
   2684a:	2801      	cmp	r0, #1
   2684c:	d103      	bne.n	26856 <_start+0x22fa>
   2684e:	9909      	ldr	r1, [sp, #36]	@ 0x24
   26850:	6e09      	ldr	r1, [r1, #96]	@ 0x60
   26852:	910b      	str	r1, [sp, #44]	@ 0x2c
   26854:	e019      	b.n	2688a <_start+0x232e>
   26856:	49d4      	ldr	r1, [pc, #848]	@ (26ba8 <_start+0x264c>)
   26858:	4469      	add	r1, sp
   2685a:	78ca      	ldrb	r2, [r1, #3]
   2685c:	ab0c      	add	r3, sp, #48	@ 0x30
   2685e:	709a      	strb	r2, [r3, #2]
   26860:	784a      	ldrb	r2, [r1, #1]
   26862:	788c      	ldrb	r4, [r1, #2]
   26864:	0224      	lsls	r4, r4, #8
   26866:	18a2      	adds	r2, r4, r2
   26868:	801a      	strh	r2, [r3, #0]
   2686a:	3108      	adds	r1, #8
   2686c:	9a09      	ldr	r2, [sp, #36]	@ 0x24
   2686e:	6e12      	ldr	r2, [r2, #96]	@ 0x60
   26870:	920b      	str	r2, [sp, #44]	@ 0x2c
   26872:	4ace      	ldr	r2, [pc, #824]	@ (26bac <_start+0x2650>)
   26874:	446a      	add	r2, sp
   26876:	c978      	ldmia	r1!, {r3, r4, r5, r6}
   26878:	c278      	stmia	r2!, {r3, r4, r5, r6}
   2687a:	c978      	ldmia	r1!, {r3, r4, r5, r6}
   2687c:	c278      	stmia	r2!, {r3, r4, r5, r6}
   2687e:	c978      	ldmia	r1!, {r3, r4, r5, r6}
   26880:	c278      	stmia	r2!, {r3, r4, r5, r6}
   26882:	880b      	ldrh	r3, [r1, #0]
   26884:	8013      	strh	r3, [r2, #0]
   26886:	7889      	ldrb	r1, [r1, #2]
   26888:	7091      	strb	r1, [r2, #2]
   2688a:	2800      	cmp	r0, #0
   2688c:	d001      	beq.n	26892 <_start+0x2336>
   2688e:	f7fd ff5d 	bl	2474c <_start+0x1f0>
   26892:	4dc8      	ldr	r5, [pc, #800]	@ (26bb4 <_start+0x2658>)
   26894:	446d      	add	r5, sp
   26896:	990b      	ldr	r1, [sp, #44]	@ 0x2c
   26898:	70e9      	strb	r1, [r5, #3]
   2689a:	980c      	ldr	r0, [sp, #48]	@ 0x30
   2689c:	8028      	strh	r0, [r5, #0]
   2689e:	0e08      	lsrs	r0, r1, #24
   268a0:	71a8      	strb	r0, [r5, #6]
   268a2:	0c08      	lsrs	r0, r1, #16
   268a4:	7168      	strb	r0, [r5, #5]
   268a6:	0a08      	lsrs	r0, r1, #8
   268a8:	7128      	strb	r0, [r5, #4]
   268aa:	a80c      	add	r0, sp, #48	@ 0x30
   268ac:	7880      	ldrb	r0, [r0, #2]
   268ae:	70a8      	strb	r0, [r5, #2]
   268b0:	1de8      	adds	r0, r5, #7
   268b2:	49be      	ldr	r1, [pc, #760]	@ (26bac <_start+0x2650>)
   268b4:	4469      	add	r1, sp
   268b6:	2233      	movs	r2, #51	@ 0x33
   268b8:	f001 f9cf 	bl	27c5a <__aeabi_memcpy>
   268bc:	4cba      	ldr	r4, [pc, #744]	@ (26ba8 <_start+0x264c>)
   268be:	446c      	add	r4, sp
   268c0:	4620      	mov	r0, r4
   268c2:	4629      	mov	r1, r5
   268c4:	f7f9 fce4 	bl	20290 <_ZN18complex_no_dynamic3app17h02eea76d7c441b53E>
   268c8:	7824      	ldrb	r4, [r4, #0]
   268ca:	2c01      	cmp	r4, #1
   268cc:	d103      	bne.n	268d6 <_start+0x237a>
   268ce:	9809      	ldr	r0, [sp, #36]	@ 0x24
   268d0:	6e00      	ldr	r0, [r0, #96]	@ 0x60
   268d2:	900b      	str	r0, [sp, #44]	@ 0x2c
   268d4:	e012      	b.n	268fc <_start+0x23a0>
   268d6:	49b4      	ldr	r1, [pc, #720]	@ (26ba8 <_start+0x264c>)
   268d8:	4469      	add	r1, sp
   268da:	78c8      	ldrb	r0, [r1, #3]
   268dc:	aa0c      	add	r2, sp, #48	@ 0x30
   268de:	7090      	strb	r0, [r2, #2]
   268e0:	7848      	ldrb	r0, [r1, #1]
   268e2:	788b      	ldrb	r3, [r1, #2]
   268e4:	021b      	lsls	r3, r3, #8
   268e6:	1818      	adds	r0, r3, r0
   268e8:	8010      	strh	r0, [r2, #0]
   268ea:	9809      	ldr	r0, [sp, #36]	@ 0x24
   268ec:	6e00      	ldr	r0, [r0, #96]	@ 0x60
   268ee:	900b      	str	r0, [sp, #44]	@ 0x2c
   268f0:	3108      	adds	r1, #8
   268f2:	48ae      	ldr	r0, [pc, #696]	@ (26bac <_start+0x2650>)
   268f4:	4468      	add	r0, sp
   268f6:	2256      	movs	r2, #86	@ 0x56
   268f8:	f001 f84f 	bl	2799a <__aeabi_memcpy4>
   268fc:	2c00      	cmp	r4, #0
   268fe:	d001      	beq.n	26904 <_start+0x23a8>
   26900:	f7fd ff24 	bl	2474c <_start+0x1f0>
   26904:	4dac      	ldr	r5, [pc, #688]	@ (26bb8 <_start+0x265c>)
   26906:	446d      	add	r5, sp
   26908:	990b      	ldr	r1, [sp, #44]	@ 0x2c
   2690a:	70e9      	strb	r1, [r5, #3]
   2690c:	980c      	ldr	r0, [sp, #48]	@ 0x30
   2690e:	8028      	strh	r0, [r5, #0]
   26910:	0e08      	lsrs	r0, r1, #24
   26912:	71a8      	strb	r0, [r5, #6]
   26914:	0c08      	lsrs	r0, r1, #16
   26916:	7168      	strb	r0, [r5, #5]
   26918:	0a08      	lsrs	r0, r1, #8
   2691a:	7128      	strb	r0, [r5, #4]
   2691c:	a80c      	add	r0, sp, #48	@ 0x30
   2691e:	7880      	ldrb	r0, [r0, #2]
   26920:	70a8      	strb	r0, [r5, #2]
   26922:	1de8      	adds	r0, r5, #7
   26924:	49a1      	ldr	r1, [pc, #644]	@ (26bac <_start+0x2650>)
   26926:	4469      	add	r1, sp
   26928:	2256      	movs	r2, #86	@ 0x56
   2692a:	f001 f996 	bl	27c5a <__aeabi_memcpy>
   2692e:	4c9e      	ldr	r4, [pc, #632]	@ (26ba8 <_start+0x264c>)
   26930:	446c      	add	r4, sp
   26932:	4620      	mov	r0, r4
   26934:	4629      	mov	r1, r5
   26936:	f7fc fb29 	bl	22f8c <_ZN18complex_no_dynamic3app17h8aeb6db5c1a8613bE>
   2693a:	7820      	ldrb	r0, [r4, #0]
   2693c:	2801      	cmp	r0, #1
   2693e:	d103      	bne.n	26948 <_start+0x23ec>
   26940:	9909      	ldr	r1, [sp, #36]	@ 0x24
   26942:	6e09      	ldr	r1, [r1, #96]	@ 0x60
   26944:	910b      	str	r1, [sp, #44]	@ 0x2c
   26946:	e019      	b.n	2697c <_start+0x2420>
   26948:	4997      	ldr	r1, [pc, #604]	@ (26ba8 <_start+0x264c>)
   2694a:	4469      	add	r1, sp
   2694c:	78ca      	ldrb	r2, [r1, #3]
   2694e:	ab0c      	add	r3, sp, #48	@ 0x30
   26950:	709a      	strb	r2, [r3, #2]
   26952:	784a      	ldrb	r2, [r1, #1]
   26954:	788c      	ldrb	r4, [r1, #2]
   26956:	0224      	lsls	r4, r4, #8
   26958:	18a2      	adds	r2, r4, r2
   2695a:	801a      	strh	r2, [r3, #0]
   2695c:	3108      	adds	r1, #8
   2695e:	9a09      	ldr	r2, [sp, #36]	@ 0x24
   26960:	6e12      	ldr	r2, [r2, #96]	@ 0x60
   26962:	920b      	str	r2, [sp, #44]	@ 0x2c
   26964:	4a91      	ldr	r2, [pc, #580]	@ (26bac <_start+0x2650>)
   26966:	446a      	add	r2, sp
   26968:	c938      	ldmia	r1!, {r3, r4, r5}
   2696a:	c238      	stmia	r2!, {r3, r4, r5}
   2696c:	c978      	ldmia	r1!, {r3, r4, r5, r6}
   2696e:	c278      	stmia	r2!, {r3, r4, r5, r6}
   26970:	c938      	ldmia	r1!, {r3, r4, r5}
   26972:	c238      	stmia	r2!, {r3, r4, r5}
   26974:	c978      	ldmia	r1!, {r3, r4, r5, r6}
   26976:	c278      	stmia	r2!, {r3, r4, r5, r6}
   26978:	7809      	ldrb	r1, [r1, #0]
   2697a:	7011      	strb	r1, [r2, #0]
   2697c:	2800      	cmp	r0, #0
   2697e:	d001      	beq.n	26984 <_start+0x2428>
   26980:	f7fd fee4 	bl	2474c <_start+0x1f0>
   26984:	4d8d      	ldr	r5, [pc, #564]	@ (26bbc <_start+0x2660>)
   26986:	446d      	add	r5, sp
   26988:	990b      	ldr	r1, [sp, #44]	@ 0x2c
   2698a:	70e9      	strb	r1, [r5, #3]
   2698c:	980c      	ldr	r0, [sp, #48]	@ 0x30
   2698e:	8028      	strh	r0, [r5, #0]
   26990:	0e08      	lsrs	r0, r1, #24
   26992:	71a8      	strb	r0, [r5, #6]
   26994:	0c08      	lsrs	r0, r1, #16
   26996:	7168      	strb	r0, [r5, #5]
   26998:	0a08      	lsrs	r0, r1, #8
   2699a:	7128      	strb	r0, [r5, #4]
   2699c:	a80c      	add	r0, sp, #48	@ 0x30
   2699e:	7880      	ldrb	r0, [r0, #2]
   269a0:	70a8      	strb	r0, [r5, #2]
   269a2:	1de8      	adds	r0, r5, #7
   269a4:	4981      	ldr	r1, [pc, #516]	@ (26bac <_start+0x2650>)
   269a6:	4469      	add	r1, sp
   269a8:	2239      	movs	r2, #57	@ 0x39
   269aa:	f001 f956 	bl	27c5a <__aeabi_memcpy>
   269ae:	4c7e      	ldr	r4, [pc, #504]	@ (26ba8 <_start+0x264c>)
   269b0:	446c      	add	r4, sp
   269b2:	4620      	mov	r0, r4
   269b4:	4629      	mov	r1, r5
   269b6:	f7fd f9d5 	bl	23d64 <_ZN18complex_no_dynamic3app17hd8e4fe86787df5d8E>
   269ba:	7820      	ldrb	r0, [r4, #0]
   269bc:	2801      	cmp	r0, #1
   269be:	d103      	bne.n	269c8 <_start+0x246c>
   269c0:	9909      	ldr	r1, [sp, #36]	@ 0x24
   269c2:	6e09      	ldr	r1, [r1, #96]	@ 0x60
   269c4:	910b      	str	r1, [sp, #44]	@ 0x2c
   269c6:	e017      	b.n	269f8 <_start+0x249c>
   269c8:	4977      	ldr	r1, [pc, #476]	@ (26ba8 <_start+0x264c>)
   269ca:	4469      	add	r1, sp
   269cc:	78ca      	ldrb	r2, [r1, #3]
   269ce:	ab0c      	add	r3, sp, #48	@ 0x30
   269d0:	709a      	strb	r2, [r3, #2]
   269d2:	784a      	ldrb	r2, [r1, #1]
   269d4:	788c      	ldrb	r4, [r1, #2]
   269d6:	0224      	lsls	r4, r4, #8
   269d8:	18a2      	adds	r2, r4, r2
   269da:	801a      	strh	r2, [r3, #0]
   269dc:	3108      	adds	r1, #8
   269de:	9a09      	ldr	r2, [sp, #36]	@ 0x24
   269e0:	6e12      	ldr	r2, [r2, #96]	@ 0x60
   269e2:	920b      	str	r2, [sp, #44]	@ 0x2c
   269e4:	4a71      	ldr	r2, [pc, #452]	@ (26bac <_start+0x2650>)
   269e6:	446a      	add	r2, sp
   269e8:	c938      	ldmia	r1!, {r3, r4, r5}
   269ea:	c238      	stmia	r2!, {r3, r4, r5}
   269ec:	c938      	ldmia	r1!, {r3, r4, r5}
   269ee:	c238      	stmia	r2!, {r3, r4, r5}
   269f0:	c978      	ldmia	r1!, {r3, r4, r5, r6}
   269f2:	c278      	stmia	r2!, {r3, r4, r5, r6}
   269f4:	8809      	ldrh	r1, [r1, #0]
   269f6:	8011      	strh	r1, [r2, #0]
   269f8:	2800      	cmp	r0, #0
   269fa:	d001      	beq.n	26a00 <_start+0x24a4>
   269fc:	f7fd fea6 	bl	2474c <_start+0x1f0>
   26a00:	4d6f      	ldr	r5, [pc, #444]	@ (26bc0 <_start+0x2664>)
   26a02:	446d      	add	r5, sp
   26a04:	990b      	ldr	r1, [sp, #44]	@ 0x2c
   26a06:	70e9      	strb	r1, [r5, #3]
   26a08:	980c      	ldr	r0, [sp, #48]	@ 0x30
   26a0a:	8028      	strh	r0, [r5, #0]
   26a0c:	0e08      	lsrs	r0, r1, #24
   26a0e:	71a8      	strb	r0, [r5, #6]
   26a10:	0c08      	lsrs	r0, r1, #16
   26a12:	7168      	strb	r0, [r5, #5]
   26a14:	0a08      	lsrs	r0, r1, #8
   26a16:	7128      	strb	r0, [r5, #4]
   26a18:	a80c      	add	r0, sp, #48	@ 0x30
   26a1a:	7880      	ldrb	r0, [r0, #2]
   26a1c:	70a8      	strb	r0, [r5, #2]
   26a1e:	1de8      	adds	r0, r5, #7
   26a20:	4962      	ldr	r1, [pc, #392]	@ (26bac <_start+0x2650>)
   26a22:	4469      	add	r1, sp
   26a24:	222a      	movs	r2, #42	@ 0x2a
   26a26:	f001 f918 	bl	27c5a <__aeabi_memcpy>
   26a2a:	4c5f      	ldr	r4, [pc, #380]	@ (26ba8 <_start+0x264c>)
   26a2c:	446c      	add	r4, sp
   26a2e:	4620      	mov	r0, r4
   26a30:	4629      	mov	r1, r5
   26a32:	f7fb fc79 	bl	22328 <_ZN18complex_no_dynamic3app17h59cd131903b32c67E>
   26a36:	7824      	ldrb	r4, [r4, #0]
   26a38:	2c01      	cmp	r4, #1
   26a3a:	d103      	bne.n	26a44 <_start+0x24e8>
   26a3c:	9809      	ldr	r0, [sp, #36]	@ 0x24
   26a3e:	6e00      	ldr	r0, [r0, #96]	@ 0x60
   26a40:	900b      	str	r0, [sp, #44]	@ 0x2c
   26a42:	e012      	b.n	26a6a <_start+0x250e>
   26a44:	4958      	ldr	r1, [pc, #352]	@ (26ba8 <_start+0x264c>)
   26a46:	4469      	add	r1, sp
   26a48:	78c8      	ldrb	r0, [r1, #3]
   26a4a:	aa0c      	add	r2, sp, #48	@ 0x30
   26a4c:	7090      	strb	r0, [r2, #2]
   26a4e:	7848      	ldrb	r0, [r1, #1]
   26a50:	788b      	ldrb	r3, [r1, #2]
   26a52:	021b      	lsls	r3, r3, #8
   26a54:	1818      	adds	r0, r3, r0
   26a56:	8010      	strh	r0, [r2, #0]
   26a58:	9809      	ldr	r0, [sp, #36]	@ 0x24
   26a5a:	6e00      	ldr	r0, [r0, #96]	@ 0x60
   26a5c:	900b      	str	r0, [sp, #44]	@ 0x2c
   26a5e:	3108      	adds	r1, #8
   26a60:	4852      	ldr	r0, [pc, #328]	@ (26bac <_start+0x2650>)
   26a62:	4468      	add	r0, sp
   26a64:	2241      	movs	r2, #65	@ 0x41
   26a66:	f000 ff98 	bl	2799a <__aeabi_memcpy4>
   26a6a:	2c00      	cmp	r4, #0
   26a6c:	d001      	beq.n	26a72 <_start+0x2516>
   26a6e:	f7fd fe6d 	bl	2474c <_start+0x1f0>
   26a72:	4d54      	ldr	r5, [pc, #336]	@ (26bc4 <_start+0x2668>)
   26a74:	446d      	add	r5, sp
   26a76:	990b      	ldr	r1, [sp, #44]	@ 0x2c
   26a78:	70e9      	strb	r1, [r5, #3]
   26a7a:	980c      	ldr	r0, [sp, #48]	@ 0x30
   26a7c:	8028      	strh	r0, [r5, #0]
   26a7e:	0e08      	lsrs	r0, r1, #24
   26a80:	71a8      	strb	r0, [r5, #6]
   26a82:	0c08      	lsrs	r0, r1, #16
   26a84:	7168      	strb	r0, [r5, #5]
   26a86:	0a08      	lsrs	r0, r1, #8
   26a88:	7128      	strb	r0, [r5, #4]
   26a8a:	a80c      	add	r0, sp, #48	@ 0x30
   26a8c:	7880      	ldrb	r0, [r0, #2]
   26a8e:	70a8      	strb	r0, [r5, #2]
   26a90:	1de8      	adds	r0, r5, #7
   26a92:	4946      	ldr	r1, [pc, #280]	@ (26bac <_start+0x2650>)
   26a94:	4469      	add	r1, sp
   26a96:	2241      	movs	r2, #65	@ 0x41
   26a98:	f001 f8df 	bl	27c5a <__aeabi_memcpy>
   26a9c:	4c42      	ldr	r4, [pc, #264]	@ (26ba8 <_start+0x264c>)
   26a9e:	446c      	add	r4, sp
   26aa0:	4620      	mov	r0, r4
   26aa2:	4629      	mov	r1, r5
   26aa4:	f7fb ff32 	bl	2290c <_ZN18complex_no_dynamic3app17h6f73117a0cca06cdE>
   26aa8:	7820      	ldrb	r0, [r4, #0]
   26aaa:	2801      	cmp	r0, #1
   26aac:	d103      	bne.n	26ab6 <_start+0x255a>
   26aae:	9909      	ldr	r1, [sp, #36]	@ 0x24
   26ab0:	6e09      	ldr	r1, [r1, #96]	@ 0x60
   26ab2:	910b      	str	r1, [sp, #44]	@ 0x2c
   26ab4:	e015      	b.n	26ae2 <_start+0x2586>
   26ab6:	493c      	ldr	r1, [pc, #240]	@ (26ba8 <_start+0x264c>)
   26ab8:	4469      	add	r1, sp
   26aba:	78ca      	ldrb	r2, [r1, #3]
   26abc:	ab0c      	add	r3, sp, #48	@ 0x30
   26abe:	709a      	strb	r2, [r3, #2]
   26ac0:	784a      	ldrb	r2, [r1, #1]
   26ac2:	788c      	ldrb	r4, [r1, #2]
   26ac4:	0224      	lsls	r4, r4, #8
   26ac6:	18a2      	adds	r2, r4, r2
   26ac8:	801a      	strh	r2, [r3, #0]
   26aca:	3108      	adds	r1, #8
   26acc:	9a09      	ldr	r2, [sp, #36]	@ 0x24
   26ace:	6e12      	ldr	r2, [r2, #96]	@ 0x60
   26ad0:	920b      	str	r2, [sp, #44]	@ 0x2c
   26ad2:	4a36      	ldr	r2, [pc, #216]	@ (26bac <_start+0x2650>)
   26ad4:	446a      	add	r2, sp
   26ad6:	c978      	ldmia	r1!, {r3, r4, r5, r6}
   26ad8:	c278      	stmia	r2!, {r3, r4, r5, r6}
   26ada:	c978      	ldmia	r1!, {r3, r4, r5, r6}
   26adc:	c278      	stmia	r2!, {r3, r4, r5, r6}
   26ade:	8809      	ldrh	r1, [r1, #0]
   26ae0:	8011      	strh	r1, [r2, #0]
   26ae2:	2800      	cmp	r0, #0
   26ae4:	d001      	beq.n	26aea <_start+0x258e>
   26ae6:	f7fd fe31 	bl	2474c <_start+0x1f0>
   26aea:	4d37      	ldr	r5, [pc, #220]	@ (26bc8 <_start+0x266c>)
   26aec:	446d      	add	r5, sp
   26aee:	990b      	ldr	r1, [sp, #44]	@ 0x2c
   26af0:	70e9      	strb	r1, [r5, #3]
   26af2:	980c      	ldr	r0, [sp, #48]	@ 0x30
   26af4:	8028      	strh	r0, [r5, #0]
   26af6:	0e08      	lsrs	r0, r1, #24
   26af8:	71a8      	strb	r0, [r5, #6]
   26afa:	0c08      	lsrs	r0, r1, #16
   26afc:	7168      	strb	r0, [r5, #5]
   26afe:	0a08      	lsrs	r0, r1, #8
   26b00:	7128      	strb	r0, [r5, #4]
   26b02:	a80c      	add	r0, sp, #48	@ 0x30
   26b04:	7880      	ldrb	r0, [r0, #2]
   26b06:	70a8      	strb	r0, [r5, #2]
   26b08:	1de8      	adds	r0, r5, #7
   26b0a:	4928      	ldr	r1, [pc, #160]	@ (26bac <_start+0x2650>)
   26b0c:	4469      	add	r1, sp
   26b0e:	2222      	movs	r2, #34	@ 0x22
   26b10:	f001 f8a3 	bl	27c5a <__aeabi_memcpy>
   26b14:	4c24      	ldr	r4, [pc, #144]	@ (26ba8 <_start+0x264c>)
   26b16:	446c      	add	r4, sp
   26b18:	4620      	mov	r0, r4
   26b1a:	4629      	mov	r1, r5
   26b1c:	f7fa fa98 	bl	21050 <_ZN18complex_no_dynamic3app17h2141961facaaf98bE>
   26b20:	7820      	ldrb	r0, [r4, #0]
   26b22:	2801      	cmp	r0, #1
   26b24:	d103      	bne.n	26b2e <_start+0x25d2>
   26b26:	9909      	ldr	r1, [sp, #36]	@ 0x24
   26b28:	6e09      	ldr	r1, [r1, #96]	@ 0x60
   26b2a:	910b      	str	r1, [sp, #44]	@ 0x2c
   26b2c:	e015      	b.n	26b5a <_start+0x25fe>
   26b2e:	491e      	ldr	r1, [pc, #120]	@ (26ba8 <_start+0x264c>)
   26b30:	4469      	add	r1, sp
   26b32:	78ca      	ldrb	r2, [r1, #3]
   26b34:	ab0c      	add	r3, sp, #48	@ 0x30
   26b36:	709a      	strb	r2, [r3, #2]
   26b38:	784a      	ldrb	r2, [r1, #1]
   26b3a:	788c      	ldrb	r4, [r1, #2]
   26b3c:	0224      	lsls	r4, r4, #8
   26b3e:	18a2      	adds	r2, r4, r2
   26b40:	801a      	strh	r2, [r3, #0]
   26b42:	3108      	adds	r1, #8
   26b44:	9a09      	ldr	r2, [sp, #36]	@ 0x24
   26b46:	6e12      	ldr	r2, [r2, #96]	@ 0x60
   26b48:	920b      	str	r2, [sp, #44]	@ 0x2c
   26b4a:	4a18      	ldr	r2, [pc, #96]	@ (26bac <_start+0x2650>)
   26b4c:	446a      	add	r2, sp
   26b4e:	c978      	ldmia	r1!, {r3, r4, r5, r6}
   26b50:	c278      	stmia	r2!, {r3, r4, r5, r6}
   26b52:	880b      	ldrh	r3, [r1, #0]
   26b54:	8013      	strh	r3, [r2, #0]
   26b56:	7889      	ldrb	r1, [r1, #2]
   26b58:	7091      	strb	r1, [r2, #2]
   26b5a:	2800      	cmp	r0, #0
   26b5c:	d001      	beq.n	26b62 <_start+0x2606>
   26b5e:	f7fd fdf5 	bl	2474c <_start+0x1f0>
   26b62:	4d1a      	ldr	r5, [pc, #104]	@ (26bcc <_start+0x2670>)
   26b64:	446d      	add	r5, sp
   26b66:	990b      	ldr	r1, [sp, #44]	@ 0x2c
   26b68:	70e9      	strb	r1, [r5, #3]
   26b6a:	980c      	ldr	r0, [sp, #48]	@ 0x30
   26b6c:	8028      	strh	r0, [r5, #0]
   26b6e:	0e08      	lsrs	r0, r1, #24
   26b70:	71a8      	strb	r0, [r5, #6]
   26b72:	0c08      	lsrs	r0, r1, #16
   26b74:	7168      	strb	r0, [r5, #5]
   26b76:	0a08      	lsrs	r0, r1, #8
   26b78:	7128      	strb	r0, [r5, #4]
   26b7a:	a80c      	add	r0, sp, #48	@ 0x30
   26b7c:	7880      	ldrb	r0, [r0, #2]
   26b7e:	70a8      	strb	r0, [r5, #2]
   26b80:	1de8      	adds	r0, r5, #7
   26b82:	490a      	ldr	r1, [pc, #40]	@ (26bac <_start+0x2650>)
   26b84:	4469      	add	r1, sp
   26b86:	2213      	movs	r2, #19
   26b88:	f001 f867 	bl	27c5a <__aeabi_memcpy>
   26b8c:	4c06      	ldr	r4, [pc, #24]	@ (26ba8 <_start+0x264c>)
   26b8e:	446c      	add	r4, sp
   26b90:	4620      	mov	r0, r4
   26b92:	4629      	mov	r1, r5
   26b94:	f7fa f946 	bl	20e24 <_ZN18complex_no_dynamic3app17h1cf3b75c0c9763faE>
   26b98:	7820      	ldrb	r0, [r4, #0]
   26b9a:	2801      	cmp	r0, #1
   26b9c:	d118      	bne.n	26bd0 <_start+0x2674>
   26b9e:	9909      	ldr	r1, [sp, #36]	@ 0x24
   26ba0:	6e09      	ldr	r1, [r1, #96]	@ 0x60
   26ba2:	910b      	str	r1, [sp, #44]	@ 0x2c
   26ba4:	e028      	b.n	26bf8 <_start+0x269c>
   26ba6:	46c0      	nop			@ (mov r8, r8)
   26ba8:	00001404 	.word	0x00001404
   26bac:	000013a8 	.word	0x000013a8
   26bb0:	00000cec 	.word	0x00000cec
   26bb4:	00000d40 	.word	0x00000d40
   26bb8:	00000d7c 	.word	0x00000d7c
   26bbc:	00000ddc 	.word	0x00000ddc
   26bc0:	00000e1c 	.word	0x00000e1c
   26bc4:	00000e50 	.word	0x00000e50
   26bc8:	00000e98 	.word	0x00000e98
   26bcc:	00000ec4 	.word	0x00000ec4
   26bd0:	49f1      	ldr	r1, [pc, #964]	@ (26f98 <_start+0x2a3c>)
   26bd2:	4469      	add	r1, sp
   26bd4:	78ca      	ldrb	r2, [r1, #3]
   26bd6:	ab0c      	add	r3, sp, #48	@ 0x30
   26bd8:	709a      	strb	r2, [r3, #2]
   26bda:	784a      	ldrb	r2, [r1, #1]
   26bdc:	788c      	ldrb	r4, [r1, #2]
   26bde:	0224      	lsls	r4, r4, #8
   26be0:	18a2      	adds	r2, r4, r2
   26be2:	801a      	strh	r2, [r3, #0]
   26be4:	3108      	adds	r1, #8
   26be6:	9a09      	ldr	r2, [sp, #36]	@ 0x24
   26be8:	6e12      	ldr	r2, [r2, #96]	@ 0x60
   26bea:	920b      	str	r2, [sp, #44]	@ 0x2c
   26bec:	4aeb      	ldr	r2, [pc, #940]	@ (26f9c <_start+0x2a40>)
   26bee:	446a      	add	r2, sp
   26bf0:	c918      	ldmia	r1!, {r3, r4}
   26bf2:	c218      	stmia	r2!, {r3, r4}
   26bf4:	c938      	ldmia	r1!, {r3, r4, r5}
   26bf6:	c238      	stmia	r2!, {r3, r4, r5}
   26bf8:	2800      	cmp	r0, #0
   26bfa:	d001      	beq.n	26c00 <_start+0x26a4>
   26bfc:	f7fd fda6 	bl	2474c <_start+0x1f0>
   26c00:	4de7      	ldr	r5, [pc, #924]	@ (26fa0 <_start+0x2a44>)
   26c02:	446d      	add	r5, sp
   26c04:	990b      	ldr	r1, [sp, #44]	@ 0x2c
   26c06:	70e9      	strb	r1, [r5, #3]
   26c08:	980c      	ldr	r0, [sp, #48]	@ 0x30
   26c0a:	8028      	strh	r0, [r5, #0]
   26c0c:	0e08      	lsrs	r0, r1, #24
   26c0e:	71a8      	strb	r0, [r5, #6]
   26c10:	0c08      	lsrs	r0, r1, #16
   26c12:	7168      	strb	r0, [r5, #5]
   26c14:	0a08      	lsrs	r0, r1, #8
   26c16:	7128      	strb	r0, [r5, #4]
   26c18:	a80c      	add	r0, sp, #48	@ 0x30
   26c1a:	7880      	ldrb	r0, [r0, #2]
   26c1c:	70a8      	strb	r0, [r5, #2]
   26c1e:	1de8      	adds	r0, r5, #7
   26c20:	49de      	ldr	r1, [pc, #888]	@ (26f9c <_start+0x2a40>)
   26c22:	4469      	add	r1, sp
   26c24:	2214      	movs	r2, #20
   26c26:	f001 f818 	bl	27c5a <__aeabi_memcpy>
   26c2a:	4cdb      	ldr	r4, [pc, #876]	@ (26f98 <_start+0x2a3c>)
   26c2c:	446c      	add	r4, sp
   26c2e:	4620      	mov	r0, r4
   26c30:	4629      	mov	r1, r5
   26c32:	f7fb ffd9 	bl	22be8 <_ZN18complex_no_dynamic3app17h7b78a6fedd607246E>
   26c36:	7820      	ldrb	r0, [r4, #0]
   26c38:	2801      	cmp	r0, #1
   26c3a:	d103      	bne.n	26c44 <_start+0x26e8>
   26c3c:	9909      	ldr	r1, [sp, #36]	@ 0x24
   26c3e:	6e09      	ldr	r1, [r1, #96]	@ 0x60
   26c40:	910b      	str	r1, [sp, #44]	@ 0x2c
   26c42:	e019      	b.n	26c78 <_start+0x271c>
   26c44:	49d4      	ldr	r1, [pc, #848]	@ (26f98 <_start+0x2a3c>)
   26c46:	4469      	add	r1, sp
   26c48:	78ca      	ldrb	r2, [r1, #3]
   26c4a:	ab0c      	add	r3, sp, #48	@ 0x30
   26c4c:	709a      	strb	r2, [r3, #2]
   26c4e:	784a      	ldrb	r2, [r1, #1]
   26c50:	788c      	ldrb	r4, [r1, #2]
   26c52:	0224      	lsls	r4, r4, #8
   26c54:	18a2      	adds	r2, r4, r2
   26c56:	801a      	strh	r2, [r3, #0]
   26c58:	3108      	adds	r1, #8
   26c5a:	9a09      	ldr	r2, [sp, #36]	@ 0x24
   26c5c:	6e12      	ldr	r2, [r2, #96]	@ 0x60
   26c5e:	920b      	str	r2, [sp, #44]	@ 0x2c
   26c60:	4ace      	ldr	r2, [pc, #824]	@ (26f9c <_start+0x2a40>)
   26c62:	446a      	add	r2, sp
   26c64:	c938      	ldmia	r1!, {r3, r4, r5}
   26c66:	c238      	stmia	r2!, {r3, r4, r5}
   26c68:	c978      	ldmia	r1!, {r3, r4, r5, r6}
   26c6a:	c278      	stmia	r2!, {r3, r4, r5, r6}
   26c6c:	c938      	ldmia	r1!, {r3, r4, r5}
   26c6e:	c238      	stmia	r2!, {r3, r4, r5}
   26c70:	c978      	ldmia	r1!, {r3, r4, r5, r6}
   26c72:	c278      	stmia	r2!, {r3, r4, r5, r6}
   26c74:	8809      	ldrh	r1, [r1, #0]
   26c76:	8011      	strh	r1, [r2, #0]
   26c78:	2800      	cmp	r0, #0
   26c7a:	d001      	beq.n	26c80 <_start+0x2724>
   26c7c:	f7fd fd66 	bl	2474c <_start+0x1f0>
   26c80:	4dc8      	ldr	r5, [pc, #800]	@ (26fa4 <_start+0x2a48>)
   26c82:	446d      	add	r5, sp
   26c84:	990b      	ldr	r1, [sp, #44]	@ 0x2c
   26c86:	70e9      	strb	r1, [r5, #3]
   26c88:	980c      	ldr	r0, [sp, #48]	@ 0x30
   26c8a:	8028      	strh	r0, [r5, #0]
   26c8c:	0e08      	lsrs	r0, r1, #24
   26c8e:	71a8      	strb	r0, [r5, #6]
   26c90:	0c08      	lsrs	r0, r1, #16
   26c92:	7168      	strb	r0, [r5, #5]
   26c94:	0a08      	lsrs	r0, r1, #8
   26c96:	7128      	strb	r0, [r5, #4]
   26c98:	a80c      	add	r0, sp, #48	@ 0x30
   26c9a:	7880      	ldrb	r0, [r0, #2]
   26c9c:	70a8      	strb	r0, [r5, #2]
   26c9e:	1de8      	adds	r0, r5, #7
   26ca0:	49be      	ldr	r1, [pc, #760]	@ (26f9c <_start+0x2a40>)
   26ca2:	4469      	add	r1, sp
   26ca4:	223a      	movs	r2, #58	@ 0x3a
   26ca6:	f000 ffd8 	bl	27c5a <__aeabi_memcpy>
   26caa:	4cbb      	ldr	r4, [pc, #748]	@ (26f98 <_start+0x2a3c>)
   26cac:	446c      	add	r4, sp
   26cae:	4620      	mov	r0, r4
   26cb0:	4629      	mov	r1, r5
   26cb2:	f7fd f9cb 	bl	2404c <_ZN18complex_no_dynamic3app17he573ed98a5a413b0E>
   26cb6:	7820      	ldrb	r0, [r4, #0]
   26cb8:	2801      	cmp	r0, #1
   26cba:	d103      	bne.n	26cc4 <_start+0x2768>
   26cbc:	9909      	ldr	r1, [sp, #36]	@ 0x24
   26cbe:	6e09      	ldr	r1, [r1, #96]	@ 0x60
   26cc0:	910b      	str	r1, [sp, #44]	@ 0x2c
   26cc2:	e013      	b.n	26cec <_start+0x2790>
   26cc4:	49b4      	ldr	r1, [pc, #720]	@ (26f98 <_start+0x2a3c>)
   26cc6:	4469      	add	r1, sp
   26cc8:	78ca      	ldrb	r2, [r1, #3]
   26cca:	ab0c      	add	r3, sp, #48	@ 0x30
   26ccc:	709a      	strb	r2, [r3, #2]
   26cce:	784a      	ldrb	r2, [r1, #1]
   26cd0:	788c      	ldrb	r4, [r1, #2]
   26cd2:	0224      	lsls	r4, r4, #8
   26cd4:	18a2      	adds	r2, r4, r2
   26cd6:	801a      	strh	r2, [r3, #0]
   26cd8:	3108      	adds	r1, #8
   26cda:	9a09      	ldr	r2, [sp, #36]	@ 0x24
   26cdc:	6e12      	ldr	r2, [r2, #96]	@ 0x60
   26cde:	920b      	str	r2, [sp, #44]	@ 0x2c
   26ce0:	4aae      	ldr	r2, [pc, #696]	@ (26f9c <_start+0x2a40>)
   26ce2:	446a      	add	r2, sp
   26ce4:	c978      	ldmia	r1!, {r3, r4, r5, r6}
   26ce6:	c278      	stmia	r2!, {r3, r4, r5, r6}
   26ce8:	7809      	ldrb	r1, [r1, #0]
   26cea:	7011      	strb	r1, [r2, #0]
   26cec:	2800      	cmp	r0, #0
   26cee:	d001      	beq.n	26cf4 <_start+0x2798>
   26cf0:	f7fd fd2c 	bl	2474c <_start+0x1f0>
   26cf4:	4dac      	ldr	r5, [pc, #688]	@ (26fa8 <_start+0x2a4c>)
   26cf6:	446d      	add	r5, sp
   26cf8:	990b      	ldr	r1, [sp, #44]	@ 0x2c
   26cfa:	70e9      	strb	r1, [r5, #3]
   26cfc:	980c      	ldr	r0, [sp, #48]	@ 0x30
   26cfe:	8028      	strh	r0, [r5, #0]
   26d00:	0e08      	lsrs	r0, r1, #24
   26d02:	71a8      	strb	r0, [r5, #6]
   26d04:	0c08      	lsrs	r0, r1, #16
   26d06:	7168      	strb	r0, [r5, #5]
   26d08:	0a08      	lsrs	r0, r1, #8
   26d0a:	7128      	strb	r0, [r5, #4]
   26d0c:	a80c      	add	r0, sp, #48	@ 0x30
   26d0e:	7880      	ldrb	r0, [r0, #2]
   26d10:	70a8      	strb	r0, [r5, #2]
   26d12:	1de8      	adds	r0, r5, #7
   26d14:	49a1      	ldr	r1, [pc, #644]	@ (26f9c <_start+0x2a40>)
   26d16:	4469      	add	r1, sp
   26d18:	2211      	movs	r2, #17
   26d1a:	f000 ff9e 	bl	27c5a <__aeabi_memcpy>
   26d1e:	4c9e      	ldr	r4, [pc, #632]	@ (26f98 <_start+0x2a3c>)
   26d20:	446c      	add	r4, sp
   26d22:	4620      	mov	r0, r4
   26d24:	4629      	mov	r1, r5
   26d26:	f7f9 fd97 	bl	20858 <_ZN18complex_no_dynamic3app17h125f3dedac6db830E>
   26d2a:	7820      	ldrb	r0, [r4, #0]
   26d2c:	2801      	cmp	r0, #1
   26d2e:	d103      	bne.n	26d38 <_start+0x27dc>
   26d30:	9909      	ldr	r1, [sp, #36]	@ 0x24
   26d32:	6e09      	ldr	r1, [r1, #96]	@ 0x60
   26d34:	910b      	str	r1, [sp, #44]	@ 0x2c
   26d36:	e017      	b.n	26d68 <_start+0x280c>
   26d38:	4997      	ldr	r1, [pc, #604]	@ (26f98 <_start+0x2a3c>)
   26d3a:	4469      	add	r1, sp
   26d3c:	78ca      	ldrb	r2, [r1, #3]
   26d3e:	ab0c      	add	r3, sp, #48	@ 0x30
   26d40:	709a      	strb	r2, [r3, #2]
   26d42:	784a      	ldrb	r2, [r1, #1]
   26d44:	788c      	ldrb	r4, [r1, #2]
   26d46:	0224      	lsls	r4, r4, #8
   26d48:	18a2      	adds	r2, r4, r2
   26d4a:	801a      	strh	r2, [r3, #0]
   26d4c:	3108      	adds	r1, #8
   26d4e:	9a09      	ldr	r2, [sp, #36]	@ 0x24
   26d50:	6e12      	ldr	r2, [r2, #96]	@ 0x60
   26d52:	920b      	str	r2, [sp, #44]	@ 0x2c
   26d54:	4a91      	ldr	r2, [pc, #580]	@ (26f9c <_start+0x2a40>)
   26d56:	446a      	add	r2, sp
   26d58:	c918      	ldmia	r1!, {r3, r4}
   26d5a:	c218      	stmia	r2!, {r3, r4}
   26d5c:	c938      	ldmia	r1!, {r3, r4, r5}
   26d5e:	c238      	stmia	r2!, {r3, r4, r5}
   26d60:	880b      	ldrh	r3, [r1, #0]
   26d62:	8013      	strh	r3, [r2, #0]
   26d64:	7889      	ldrb	r1, [r1, #2]
   26d66:	7091      	strb	r1, [r2, #2]
   26d68:	2800      	cmp	r0, #0
   26d6a:	d001      	beq.n	26d70 <_start+0x2814>
   26d6c:	f7fd fcee 	bl	2474c <_start+0x1f0>
   26d70:	4d8e      	ldr	r5, [pc, #568]	@ (26fac <_start+0x2a50>)
   26d72:	446d      	add	r5, sp
   26d74:	990b      	ldr	r1, [sp, #44]	@ 0x2c
   26d76:	70e9      	strb	r1, [r5, #3]
   26d78:	980c      	ldr	r0, [sp, #48]	@ 0x30
   26d7a:	8028      	strh	r0, [r5, #0]
   26d7c:	0e08      	lsrs	r0, r1, #24
   26d7e:	71a8      	strb	r0, [r5, #6]
   26d80:	0c08      	lsrs	r0, r1, #16
   26d82:	7168      	strb	r0, [r5, #5]
   26d84:	0a08      	lsrs	r0, r1, #8
   26d86:	7128      	strb	r0, [r5, #4]
   26d88:	a80c      	add	r0, sp, #48	@ 0x30
   26d8a:	7880      	ldrb	r0, [r0, #2]
   26d8c:	70a8      	strb	r0, [r5, #2]
   26d8e:	1de8      	adds	r0, r5, #7
   26d90:	4982      	ldr	r1, [pc, #520]	@ (26f9c <_start+0x2a40>)
   26d92:	4469      	add	r1, sp
   26d94:	2217      	movs	r2, #23
   26d96:	f000 ff60 	bl	27c5a <__aeabi_memcpy>
   26d9a:	4c7f      	ldr	r4, [pc, #508]	@ (26f98 <_start+0x2a3c>)
   26d9c:	446c      	add	r4, sp
   26d9e:	4620      	mov	r0, r4
   26da0:	4629      	mov	r1, r5
   26da2:	f7fa f8a1 	bl	20ee8 <_ZN18complex_no_dynamic3app17h1df14fe814fdc245E>
   26da6:	7820      	ldrb	r0, [r4, #0]
   26da8:	2801      	cmp	r0, #1
   26daa:	d103      	bne.n	26db4 <_start+0x2858>
   26dac:	9909      	ldr	r1, [sp, #36]	@ 0x24
   26dae:	6e09      	ldr	r1, [r1, #96]	@ 0x60
   26db0:	910b      	str	r1, [sp, #44]	@ 0x2c
   26db2:	e019      	b.n	26de8 <_start+0x288c>
   26db4:	4978      	ldr	r1, [pc, #480]	@ (26f98 <_start+0x2a3c>)
   26db6:	4469      	add	r1, sp
   26db8:	78ca      	ldrb	r2, [r1, #3]
   26dba:	ab0c      	add	r3, sp, #48	@ 0x30
   26dbc:	709a      	strb	r2, [r3, #2]
   26dbe:	784a      	ldrb	r2, [r1, #1]
   26dc0:	788c      	ldrb	r4, [r1, #2]
   26dc2:	0224      	lsls	r4, r4, #8
   26dc4:	18a2      	adds	r2, r4, r2
   26dc6:	801a      	strh	r2, [r3, #0]
   26dc8:	3108      	adds	r1, #8
   26dca:	9a09      	ldr	r2, [sp, #36]	@ 0x24
   26dcc:	6e12      	ldr	r2, [r2, #96]	@ 0x60
   26dce:	920b      	str	r2, [sp, #44]	@ 0x2c
   26dd0:	4a72      	ldr	r2, [pc, #456]	@ (26f9c <_start+0x2a40>)
   26dd2:	446a      	add	r2, sp
   26dd4:	c938      	ldmia	r1!, {r3, r4, r5}
   26dd6:	c238      	stmia	r2!, {r3, r4, r5}
   26dd8:	c938      	ldmia	r1!, {r3, r4, r5}
   26dda:	c238      	stmia	r2!, {r3, r4, r5}
   26ddc:	c938      	ldmia	r1!, {r3, r4, r5}
   26dde:	c238      	stmia	r2!, {r3, r4, r5}
   26de0:	c978      	ldmia	r1!, {r3, r4, r5, r6}
   26de2:	c278      	stmia	r2!, {r3, r4, r5, r6}
   26de4:	7809      	ldrb	r1, [r1, #0]
   26de6:	7011      	strb	r1, [r2, #0]
   26de8:	2800      	cmp	r0, #0
   26dea:	d001      	beq.n	26df0 <_start+0x2894>
   26dec:	f7fd fcae 	bl	2474c <_start+0x1f0>
   26df0:	4d6f      	ldr	r5, [pc, #444]	@ (26fb0 <_start+0x2a54>)
   26df2:	446d      	add	r5, sp
   26df4:	990b      	ldr	r1, [sp, #44]	@ 0x2c
   26df6:	70e9      	strb	r1, [r5, #3]
   26df8:	980c      	ldr	r0, [sp, #48]	@ 0x30
   26dfa:	8028      	strh	r0, [r5, #0]
   26dfc:	0e08      	lsrs	r0, r1, #24
   26dfe:	71a8      	strb	r0, [r5, #6]
   26e00:	0c08      	lsrs	r0, r1, #16
   26e02:	7168      	strb	r0, [r5, #5]
   26e04:	0a08      	lsrs	r0, r1, #8
   26e06:	7128      	strb	r0, [r5, #4]
   26e08:	a80c      	add	r0, sp, #48	@ 0x30
   26e0a:	7880      	ldrb	r0, [r0, #2]
   26e0c:	70a8      	strb	r0, [r5, #2]
   26e0e:	1de8      	adds	r0, r5, #7
   26e10:	4962      	ldr	r1, [pc, #392]	@ (26f9c <_start+0x2a40>)
   26e12:	4469      	add	r1, sp
   26e14:	2235      	movs	r2, #53	@ 0x35
   26e16:	f000 ff20 	bl	27c5a <__aeabi_memcpy>
   26e1a:	4c5f      	ldr	r4, [pc, #380]	@ (26f98 <_start+0x2a3c>)
   26e1c:	446c      	add	r4, sp
   26e1e:	4620      	mov	r0, r4
   26e20:	4629      	mov	r1, r5
   26e22:	f7fa ffa3 	bl	21d6c <_ZN18complex_no_dynamic3app17h4b03158e23b41425E>
   26e26:	7820      	ldrb	r0, [r4, #0]
   26e28:	2801      	cmp	r0, #1
   26e2a:	d103      	bne.n	26e34 <_start+0x28d8>
   26e2c:	9909      	ldr	r1, [sp, #36]	@ 0x24
   26e2e:	6e09      	ldr	r1, [r1, #96]	@ 0x60
   26e30:	910b      	str	r1, [sp, #44]	@ 0x2c
   26e32:	e017      	b.n	26e64 <_start+0x2908>
   26e34:	4958      	ldr	r1, [pc, #352]	@ (26f98 <_start+0x2a3c>)
   26e36:	4469      	add	r1, sp
   26e38:	78ca      	ldrb	r2, [r1, #3]
   26e3a:	ab0c      	add	r3, sp, #48	@ 0x30
   26e3c:	709a      	strb	r2, [r3, #2]
   26e3e:	784a      	ldrb	r2, [r1, #1]
   26e40:	788c      	ldrb	r4, [r1, #2]
   26e42:	0224      	lsls	r4, r4, #8
   26e44:	18a2      	adds	r2, r4, r2
   26e46:	801a      	strh	r2, [r3, #0]
   26e48:	3108      	adds	r1, #8
   26e4a:	9a09      	ldr	r2, [sp, #36]	@ 0x24
   26e4c:	6e12      	ldr	r2, [r2, #96]	@ 0x60
   26e4e:	920b      	str	r2, [sp, #44]	@ 0x2c
   26e50:	4a52      	ldr	r2, [pc, #328]	@ (26f9c <_start+0x2a40>)
   26e52:	446a      	add	r2, sp
   26e54:	c938      	ldmia	r1!, {r3, r4, r5}
   26e56:	c238      	stmia	r2!, {r3, r4, r5}
   26e58:	c938      	ldmia	r1!, {r3, r4, r5}
   26e5a:	c238      	stmia	r2!, {r3, r4, r5}
   26e5c:	c938      	ldmia	r1!, {r3, r4, r5}
   26e5e:	c238      	stmia	r2!, {r3, r4, r5}
   26e60:	7809      	ldrb	r1, [r1, #0]
   26e62:	7011      	strb	r1, [r2, #0]
   26e64:	2800      	cmp	r0, #0
   26e66:	d001      	beq.n	26e6c <_start+0x2910>
   26e68:	f7fd fc70 	bl	2474c <_start+0x1f0>
   26e6c:	4d51      	ldr	r5, [pc, #324]	@ (26fb4 <_start+0x2a58>)
   26e6e:	446d      	add	r5, sp
   26e70:	990b      	ldr	r1, [sp, #44]	@ 0x2c
   26e72:	70e9      	strb	r1, [r5, #3]
   26e74:	980c      	ldr	r0, [sp, #48]	@ 0x30
   26e76:	8028      	strh	r0, [r5, #0]
   26e78:	0e08      	lsrs	r0, r1, #24
   26e7a:	71a8      	strb	r0, [r5, #6]
   26e7c:	0c08      	lsrs	r0, r1, #16
   26e7e:	7168      	strb	r0, [r5, #5]
   26e80:	0a08      	lsrs	r0, r1, #8
   26e82:	7128      	strb	r0, [r5, #4]
   26e84:	a80c      	add	r0, sp, #48	@ 0x30
   26e86:	7880      	ldrb	r0, [r0, #2]
   26e88:	70a8      	strb	r0, [r5, #2]
   26e8a:	1de8      	adds	r0, r5, #7
   26e8c:	4943      	ldr	r1, [pc, #268]	@ (26f9c <_start+0x2a40>)
   26e8e:	4469      	add	r1, sp
   26e90:	2225      	movs	r2, #37	@ 0x25
   26e92:	f000 fee2 	bl	27c5a <__aeabi_memcpy>
   26e96:	4c40      	ldr	r4, [pc, #256]	@ (26f98 <_start+0x2a3c>)
   26e98:	446c      	add	r4, sp
   26e9a:	4620      	mov	r0, r4
   26e9c:	4629      	mov	r1, r5
   26e9e:	f7f9 fb69 	bl	20574 <_ZN18complex_no_dynamic3app17h0b7f46b3db04095fE>
   26ea2:	7820      	ldrb	r0, [r4, #0]
   26ea4:	2801      	cmp	r0, #1
   26ea6:	d103      	bne.n	26eb0 <_start+0x2954>
   26ea8:	9909      	ldr	r1, [sp, #36]	@ 0x24
   26eaa:	6e09      	ldr	r1, [r1, #96]	@ 0x60
   26eac:	910b      	str	r1, [sp, #44]	@ 0x2c
   26eae:	e013      	b.n	26ed8 <_start+0x297c>
   26eb0:	4939      	ldr	r1, [pc, #228]	@ (26f98 <_start+0x2a3c>)
   26eb2:	4469      	add	r1, sp
   26eb4:	78ca      	ldrb	r2, [r1, #3]
   26eb6:	ab0c      	add	r3, sp, #48	@ 0x30
   26eb8:	709a      	strb	r2, [r3, #2]
   26eba:	784a      	ldrb	r2, [r1, #1]
   26ebc:	788c      	ldrb	r4, [r1, #2]
   26ebe:	0224      	lsls	r4, r4, #8
   26ec0:	18a2      	adds	r2, r4, r2
   26ec2:	801a      	strh	r2, [r3, #0]
   26ec4:	3108      	adds	r1, #8
   26ec6:	9a09      	ldr	r2, [sp, #36]	@ 0x24
   26ec8:	6e12      	ldr	r2, [r2, #96]	@ 0x60
   26eca:	920b      	str	r2, [sp, #44]	@ 0x2c
   26ecc:	4a33      	ldr	r2, [pc, #204]	@ (26f9c <_start+0x2a40>)
   26ece:	446a      	add	r2, sp
   26ed0:	c978      	ldmia	r1!, {r3, r4, r5, r6}
   26ed2:	c278      	stmia	r2!, {r3, r4, r5, r6}
   26ed4:	c978      	ldmia	r1!, {r3, r4, r5, r6}
   26ed6:	c278      	stmia	r2!, {r3, r4, r5, r6}
   26ed8:	2800      	cmp	r0, #0
   26eda:	d001      	beq.n	26ee0 <_start+0x2984>
   26edc:	f7fd fc36 	bl	2474c <_start+0x1f0>
   26ee0:	4d35      	ldr	r5, [pc, #212]	@ (26fb8 <_start+0x2a5c>)
   26ee2:	446d      	add	r5, sp
   26ee4:	990b      	ldr	r1, [sp, #44]	@ 0x2c
   26ee6:	70e9      	strb	r1, [r5, #3]
   26ee8:	980c      	ldr	r0, [sp, #48]	@ 0x30
   26eea:	8028      	strh	r0, [r5, #0]
   26eec:	0e08      	lsrs	r0, r1, #24
   26eee:	71a8      	strb	r0, [r5, #6]
   26ef0:	0c08      	lsrs	r0, r1, #16
   26ef2:	7168      	strb	r0, [r5, #5]
   26ef4:	0a08      	lsrs	r0, r1, #8
   26ef6:	7128      	strb	r0, [r5, #4]
   26ef8:	a80c      	add	r0, sp, #48	@ 0x30
   26efa:	7880      	ldrb	r0, [r0, #2]
   26efc:	70a8      	strb	r0, [r5, #2]
   26efe:	1de8      	adds	r0, r5, #7
   26f00:	4926      	ldr	r1, [pc, #152]	@ (26f9c <_start+0x2a40>)
   26f02:	4469      	add	r1, sp
   26f04:	2220      	movs	r2, #32
   26f06:	f000 fea8 	bl	27c5a <__aeabi_memcpy>
   26f0a:	4c23      	ldr	r4, [pc, #140]	@ (26f98 <_start+0x2a3c>)
   26f0c:	446c      	add	r4, sp
   26f0e:	4620      	mov	r0, r4
   26f10:	4629      	mov	r1, r5
   26f12:	f7fa ff85 	bl	21e20 <_ZN18complex_no_dynamic3app17h4ba17351bbb97bd4E>
   26f16:	7824      	ldrb	r4, [r4, #0]
   26f18:	2c01      	cmp	r4, #1
   26f1a:	d103      	bne.n	26f24 <_start+0x29c8>
   26f1c:	9809      	ldr	r0, [sp, #36]	@ 0x24
   26f1e:	6e00      	ldr	r0, [r0, #96]	@ 0x60
   26f20:	900b      	str	r0, [sp, #44]	@ 0x2c
   26f22:	e012      	b.n	26f4a <_start+0x29ee>
   26f24:	491c      	ldr	r1, [pc, #112]	@ (26f98 <_start+0x2a3c>)
   26f26:	4469      	add	r1, sp
   26f28:	78c8      	ldrb	r0, [r1, #3]
   26f2a:	aa0c      	add	r2, sp, #48	@ 0x30
   26f2c:	7090      	strb	r0, [r2, #2]
   26f2e:	7848      	ldrb	r0, [r1, #1]
   26f30:	788b      	ldrb	r3, [r1, #2]
   26f32:	021b      	lsls	r3, r3, #8
   26f34:	1818      	adds	r0, r3, r0
   26f36:	8010      	strh	r0, [r2, #0]
   26f38:	9809      	ldr	r0, [sp, #36]	@ 0x24
   26f3a:	6e00      	ldr	r0, [r0, #96]	@ 0x60
   26f3c:	900b      	str	r0, [sp, #44]	@ 0x2c
   26f3e:	3108      	adds	r1, #8
   26f40:	4816      	ldr	r0, [pc, #88]	@ (26f9c <_start+0x2a40>)
   26f42:	4468      	add	r0, sp
   26f44:	2248      	movs	r2, #72	@ 0x48
   26f46:	f000 fd28 	bl	2799a <__aeabi_memcpy4>
   26f4a:	2c00      	cmp	r4, #0
   26f4c:	d001      	beq.n	26f52 <_start+0x29f6>
   26f4e:	f7fd fbfd 	bl	2474c <_start+0x1f0>
   26f52:	4d1a      	ldr	r5, [pc, #104]	@ (26fbc <_start+0x2a60>)
   26f54:	446d      	add	r5, sp
   26f56:	990b      	ldr	r1, [sp, #44]	@ 0x2c
   26f58:	70e9      	strb	r1, [r5, #3]
   26f5a:	980c      	ldr	r0, [sp, #48]	@ 0x30
   26f5c:	8028      	strh	r0, [r5, #0]
   26f5e:	0e08      	lsrs	r0, r1, #24
   26f60:	71a8      	strb	r0, [r5, #6]
   26f62:	0c08      	lsrs	r0, r1, #16
   26f64:	7168      	strb	r0, [r5, #5]
   26f66:	0a08      	lsrs	r0, r1, #8
   26f68:	7128      	strb	r0, [r5, #4]
   26f6a:	a80c      	add	r0, sp, #48	@ 0x30
   26f6c:	7880      	ldrb	r0, [r0, #2]
   26f6e:	70a8      	strb	r0, [r5, #2]
   26f70:	1de8      	adds	r0, r5, #7
   26f72:	490a      	ldr	r1, [pc, #40]	@ (26f9c <_start+0x2a40>)
   26f74:	4469      	add	r1, sp
   26f76:	2248      	movs	r2, #72	@ 0x48
   26f78:	f000 fe6f 	bl	27c5a <__aeabi_memcpy>
   26f7c:	4c06      	ldr	r4, [pc, #24]	@ (26f98 <_start+0x2a3c>)
   26f7e:	446c      	add	r4, sp
   26f80:	4620      	mov	r0, r4
   26f82:	4629      	mov	r1, r5
   26f84:	f7fa fc08 	bl	21798 <_ZN18complex_no_dynamic3app17h3add2a38c13e2872E>
   26f88:	7820      	ldrb	r0, [r4, #0]
   26f8a:	2801      	cmp	r0, #1
   26f8c:	d118      	bne.n	26fc0 <_start+0x2a64>
   26f8e:	9909      	ldr	r1, [sp, #36]	@ 0x24
   26f90:	6e09      	ldr	r1, [r1, #96]	@ 0x60
   26f92:	910b      	str	r1, [sp, #44]	@ 0x2c
   26f94:	e02c      	b.n	26ff0 <_start+0x2a94>
   26f96:	46c0      	nop			@ (mov r8, r8)
   26f98:	00001404 	.word	0x00001404
   26f9c:	000013a8 	.word	0x000013a8
   26fa0:	00000ee0 	.word	0x00000ee0
   26fa4:	00000efc 	.word	0x00000efc
   26fa8:	00000f40 	.word	0x00000f40
   26fac:	00000f58 	.word	0x00000f58
   26fb0:	00000f78 	.word	0x00000f78
   26fb4:	00000fb4 	.word	0x00000fb4
   26fb8:	00000fe0 	.word	0x00000fe0
   26fbc:	00001008 	.word	0x00001008
   26fc0:	49f1      	ldr	r1, [pc, #964]	@ (27388 <_start+0x2e2c>)
   26fc2:	4469      	add	r1, sp
   26fc4:	78ca      	ldrb	r2, [r1, #3]
   26fc6:	ab0c      	add	r3, sp, #48	@ 0x30
   26fc8:	709a      	strb	r2, [r3, #2]
   26fca:	784a      	ldrb	r2, [r1, #1]
   26fcc:	788c      	ldrb	r4, [r1, #2]
   26fce:	0224      	lsls	r4, r4, #8
   26fd0:	18a2      	adds	r2, r4, r2
   26fd2:	801a      	strh	r2, [r3, #0]
   26fd4:	3108      	adds	r1, #8
   26fd6:	9a09      	ldr	r2, [sp, #36]	@ 0x24
   26fd8:	6e12      	ldr	r2, [r2, #96]	@ 0x60
   26fda:	920b      	str	r2, [sp, #44]	@ 0x2c
   26fdc:	4aeb      	ldr	r2, [pc, #940]	@ (2738c <_start+0x2e30>)
   26fde:	446a      	add	r2, sp
   26fe0:	c938      	ldmia	r1!, {r3, r4, r5}
   26fe2:	c238      	stmia	r2!, {r3, r4, r5}
   26fe4:	c978      	ldmia	r1!, {r3, r4, r5, r6}
   26fe6:	c278      	stmia	r2!, {r3, r4, r5, r6}
   26fe8:	c978      	ldmia	r1!, {r3, r4, r5, r6}
   26fea:	c278      	stmia	r2!, {r3, r4, r5, r6}
   26fec:	8809      	ldrh	r1, [r1, #0]
   26fee:	8011      	strh	r1, [r2, #0]
   26ff0:	2800      	cmp	r0, #0
   26ff2:	d001      	beq.n	26ff8 <_start+0x2a9c>
   26ff4:	f7fd fbaa 	bl	2474c <_start+0x1f0>
   26ff8:	4de5      	ldr	r5, [pc, #916]	@ (27390 <_start+0x2e34>)
   26ffa:	446d      	add	r5, sp
   26ffc:	990b      	ldr	r1, [sp, #44]	@ 0x2c
   26ffe:	70e9      	strb	r1, [r5, #3]
   27000:	980c      	ldr	r0, [sp, #48]	@ 0x30
   27002:	8028      	strh	r0, [r5, #0]
   27004:	0e08      	lsrs	r0, r1, #24
   27006:	71a8      	strb	r0, [r5, #6]
   27008:	0c08      	lsrs	r0, r1, #16
   2700a:	7168      	strb	r0, [r5, #5]
   2700c:	0a08      	lsrs	r0, r1, #8
   2700e:	7128      	strb	r0, [r5, #4]
   27010:	a80c      	add	r0, sp, #48	@ 0x30
   27012:	7880      	ldrb	r0, [r0, #2]
   27014:	70a8      	strb	r0, [r5, #2]
   27016:	1de8      	adds	r0, r5, #7
   27018:	49dc      	ldr	r1, [pc, #880]	@ (2738c <_start+0x2e30>)
   2701a:	4469      	add	r1, sp
   2701c:	222e      	movs	r2, #46	@ 0x2e
   2701e:	f000 fe1c 	bl	27c5a <__aeabi_memcpy>
   27022:	4cd9      	ldr	r4, [pc, #868]	@ (27388 <_start+0x2e2c>)
   27024:	446c      	add	r4, sp
   27026:	4620      	mov	r0, r4
   27028:	4629      	mov	r1, r5
   2702a:	f7fb f9d7 	bl	223dc <_ZN18complex_no_dynamic3app17h59d77ca1006fcd70E>
   2702e:	7820      	ldrb	r0, [r4, #0]
   27030:	2801      	cmp	r0, #1
   27032:	d103      	bne.n	2703c <_start+0x2ae0>
   27034:	9909      	ldr	r1, [sp, #36]	@ 0x24
   27036:	6e09      	ldr	r1, [r1, #96]	@ 0x60
   27038:	910b      	str	r1, [sp, #44]	@ 0x2c
   2703a:	e017      	b.n	2706c <_start+0x2b10>
   2703c:	49d2      	ldr	r1, [pc, #840]	@ (27388 <_start+0x2e2c>)
   2703e:	4469      	add	r1, sp
   27040:	78ca      	ldrb	r2, [r1, #3]
   27042:	ab0c      	add	r3, sp, #48	@ 0x30
   27044:	709a      	strb	r2, [r3, #2]
   27046:	784a      	ldrb	r2, [r1, #1]
   27048:	788c      	ldrb	r4, [r1, #2]
   2704a:	0224      	lsls	r4, r4, #8
   2704c:	18a2      	adds	r2, r4, r2
   2704e:	801a      	strh	r2, [r3, #0]
   27050:	3108      	adds	r1, #8
   27052:	9a09      	ldr	r2, [sp, #36]	@ 0x24
   27054:	6e12      	ldr	r2, [r2, #96]	@ 0x60
   27056:	920b      	str	r2, [sp, #44]	@ 0x2c
   27058:	4acc      	ldr	r2, [pc, #816]	@ (2738c <_start+0x2e30>)
   2705a:	446a      	add	r2, sp
   2705c:	c938      	ldmia	r1!, {r3, r4, r5}
   2705e:	c238      	stmia	r2!, {r3, r4, r5}
   27060:	c978      	ldmia	r1!, {r3, r4, r5, r6}
   27062:	c278      	stmia	r2!, {r3, r4, r5, r6}
   27064:	c938      	ldmia	r1!, {r3, r4, r5}
   27066:	c238      	stmia	r2!, {r3, r4, r5}
   27068:	c978      	ldmia	r1!, {r3, r4, r5, r6}
   2706a:	c278      	stmia	r2!, {r3, r4, r5, r6}
   2706c:	2800      	cmp	r0, #0
   2706e:	d001      	beq.n	27074 <_start+0x2b18>
   27070:	f7fd fb6c 	bl	2474c <_start+0x1f0>
   27074:	4dc7      	ldr	r5, [pc, #796]	@ (27394 <_start+0x2e38>)
   27076:	446d      	add	r5, sp
   27078:	990b      	ldr	r1, [sp, #44]	@ 0x2c
   2707a:	70e9      	strb	r1, [r5, #3]
   2707c:	980c      	ldr	r0, [sp, #48]	@ 0x30
   2707e:	8028      	strh	r0, [r5, #0]
   27080:	0e08      	lsrs	r0, r1, #24
   27082:	71a8      	strb	r0, [r5, #6]
   27084:	0c08      	lsrs	r0, r1, #16
   27086:	7168      	strb	r0, [r5, #5]
   27088:	0a08      	lsrs	r0, r1, #8
   2708a:	7128      	strb	r0, [r5, #4]
   2708c:	a80c      	add	r0, sp, #48	@ 0x30
   2708e:	7880      	ldrb	r0, [r0, #2]
   27090:	70a8      	strb	r0, [r5, #2]
   27092:	1de8      	adds	r0, r5, #7
   27094:	49bd      	ldr	r1, [pc, #756]	@ (2738c <_start+0x2e30>)
   27096:	4469      	add	r1, sp
   27098:	2238      	movs	r2, #56	@ 0x38
   2709a:	f000 fdde 	bl	27c5a <__aeabi_memcpy>
   2709e:	4cba      	ldr	r4, [pc, #744]	@ (27388 <_start+0x2e2c>)
   270a0:	446c      	add	r4, sp
   270a2:	4620      	mov	r0, r4
   270a4:	4629      	mov	r1, r5
   270a6:	f7fd f99d 	bl	243e4 <_ZN18complex_no_dynamic3app17hf92f27ead4e41bbbE>
   270aa:	7820      	ldrb	r0, [r4, #0]
   270ac:	2801      	cmp	r0, #1
   270ae:	d102      	bne.n	270b6 <_start+0x2b5a>
   270b0:	9909      	ldr	r1, [sp, #36]	@ 0x24
   270b2:	6e09      	ldr	r1, [r1, #96]	@ 0x60
   270b4:	e012      	b.n	270dc <_start+0x2b80>
   270b6:	49b5      	ldr	r1, [pc, #724]	@ (2738c <_start+0x2e30>)
   270b8:	4469      	add	r1, sp
   270ba:	9c09      	ldr	r4, [sp, #36]	@ 0x24
   270bc:	6ee2      	ldr	r2, [r4, #108]	@ 0x6c
   270be:	810a      	strh	r2, [r1, #8]
   270c0:	49b1      	ldr	r1, [pc, #708]	@ (27388 <_start+0x2e2c>)
   270c2:	4469      	add	r1, sp
   270c4:	78ca      	ldrb	r2, [r1, #3]
   270c6:	ab0c      	add	r3, sp, #48	@ 0x30
   270c8:	709a      	strb	r2, [r3, #2]
   270ca:	784a      	ldrb	r2, [r1, #1]
   270cc:	7889      	ldrb	r1, [r1, #2]
   270ce:	0209      	lsls	r1, r1, #8
   270d0:	1889      	adds	r1, r1, r2
   270d2:	8019      	strh	r1, [r3, #0]
   270d4:	6e61      	ldr	r1, [r4, #100]	@ 0x64
   270d6:	6ea2      	ldr	r2, [r4, #104]	@ 0x68
   270d8:	c406      	stmia	r4!, {r1, r2}
   270da:	6da1      	ldr	r1, [r4, #88]	@ 0x58
   270dc:	910b      	str	r1, [sp, #44]	@ 0x2c
   270de:	2800      	cmp	r0, #0
   270e0:	d001      	beq.n	270e6 <_start+0x2b8a>
   270e2:	f7fd fb33 	bl	2474c <_start+0x1f0>
   270e6:	4dac      	ldr	r5, [pc, #688]	@ (27398 <_start+0x2e3c>)
   270e8:	446d      	add	r5, sp
   270ea:	990b      	ldr	r1, [sp, #44]	@ 0x2c
   270ec:	70e9      	strb	r1, [r5, #3]
   270ee:	980c      	ldr	r0, [sp, #48]	@ 0x30
   270f0:	8028      	strh	r0, [r5, #0]
   270f2:	0e08      	lsrs	r0, r1, #24
   270f4:	71a8      	strb	r0, [r5, #6]
   270f6:	0c08      	lsrs	r0, r1, #16
   270f8:	7168      	strb	r0, [r5, #5]
   270fa:	0a08      	lsrs	r0, r1, #8
   270fc:	7128      	strb	r0, [r5, #4]
   270fe:	a80c      	add	r0, sp, #48	@ 0x30
   27100:	7880      	ldrb	r0, [r0, #2]
   27102:	70a8      	strb	r0, [r5, #2]
   27104:	1de8      	adds	r0, r5, #7
   27106:	49a1      	ldr	r1, [pc, #644]	@ (2738c <_start+0x2e30>)
   27108:	4469      	add	r1, sp
   2710a:	220a      	movs	r2, #10
   2710c:	f000 fda5 	bl	27c5a <__aeabi_memcpy>
   27110:	4c9d      	ldr	r4, [pc, #628]	@ (27388 <_start+0x2e2c>)
   27112:	446c      	add	r4, sp
   27114:	4620      	mov	r0, r4
   27116:	4629      	mov	r1, r5
   27118:	f7fc fba2 	bl	23860 <_ZN18complex_no_dynamic3app17hc12f0faf7ea3de33E>
   2711c:	7820      	ldrb	r0, [r4, #0]
   2711e:	2801      	cmp	r0, #1
   27120:	d103      	bne.n	2712a <_start+0x2bce>
   27122:	9909      	ldr	r1, [sp, #36]	@ 0x24
   27124:	6e09      	ldr	r1, [r1, #96]	@ 0x60
   27126:	910b      	str	r1, [sp, #44]	@ 0x2c
   27128:	e017      	b.n	2715a <_start+0x2bfe>
   2712a:	4997      	ldr	r1, [pc, #604]	@ (27388 <_start+0x2e2c>)
   2712c:	4469      	add	r1, sp
   2712e:	78ca      	ldrb	r2, [r1, #3]
   27130:	ab0c      	add	r3, sp, #48	@ 0x30
   27132:	709a      	strb	r2, [r3, #2]
   27134:	784a      	ldrb	r2, [r1, #1]
   27136:	788c      	ldrb	r4, [r1, #2]
   27138:	0224      	lsls	r4, r4, #8
   2713a:	18a2      	adds	r2, r4, r2
   2713c:	801a      	strh	r2, [r3, #0]
   2713e:	3108      	adds	r1, #8
   27140:	9a09      	ldr	r2, [sp, #36]	@ 0x24
   27142:	6e12      	ldr	r2, [r2, #96]	@ 0x60
   27144:	920b      	str	r2, [sp, #44]	@ 0x2c
   27146:	4a91      	ldr	r2, [pc, #580]	@ (2738c <_start+0x2e30>)
   27148:	446a      	add	r2, sp
   2714a:	c938      	ldmia	r1!, {r3, r4, r5}
   2714c:	c238      	stmia	r2!, {r3, r4, r5}
   2714e:	c978      	ldmia	r1!, {r3, r4, r5, r6}
   27150:	c278      	stmia	r2!, {r3, r4, r5, r6}
   27152:	c938      	ldmia	r1!, {r3, r4, r5}
   27154:	c238      	stmia	r2!, {r3, r4, r5}
   27156:	c978      	ldmia	r1!, {r3, r4, r5, r6}
   27158:	c278      	stmia	r2!, {r3, r4, r5, r6}
   2715a:	2800      	cmp	r0, #0
   2715c:	d001      	beq.n	27162 <_start+0x2c06>
   2715e:	f7fd faf5 	bl	2474c <_start+0x1f0>
   27162:	4d8e      	ldr	r5, [pc, #568]	@ (2739c <_start+0x2e40>)
   27164:	446d      	add	r5, sp
   27166:	990b      	ldr	r1, [sp, #44]	@ 0x2c
   27168:	70e9      	strb	r1, [r5, #3]
   2716a:	980c      	ldr	r0, [sp, #48]	@ 0x30
   2716c:	8028      	strh	r0, [r5, #0]
   2716e:	0e08      	lsrs	r0, r1, #24
   27170:	71a8      	strb	r0, [r5, #6]
   27172:	0c08      	lsrs	r0, r1, #16
   27174:	7168      	strb	r0, [r5, #5]
   27176:	0a08      	lsrs	r0, r1, #8
   27178:	7128      	strb	r0, [r5, #4]
   2717a:	a80c      	add	r0, sp, #48	@ 0x30
   2717c:	7880      	ldrb	r0, [r0, #2]
   2717e:	70a8      	strb	r0, [r5, #2]
   27180:	1de8      	adds	r0, r5, #7
   27182:	4982      	ldr	r1, [pc, #520]	@ (2738c <_start+0x2e30>)
   27184:	4469      	add	r1, sp
   27186:	2238      	movs	r2, #56	@ 0x38
   27188:	f000 fd67 	bl	27c5a <__aeabi_memcpy>
   2718c:	4c7e      	ldr	r4, [pc, #504]	@ (27388 <_start+0x2e2c>)
   2718e:	446c      	add	r4, sp
   27190:	4620      	mov	r0, r4
   27192:	4629      	mov	r1, r5
   27194:	f7fa f932 	bl	213fc <_ZN18complex_no_dynamic3app17h36c8bb2636c0398fE>
   27198:	7820      	ldrb	r0, [r4, #0]
   2719a:	2801      	cmp	r0, #1
   2719c:	d103      	bne.n	271a6 <_start+0x2c4a>
   2719e:	9909      	ldr	r1, [sp, #36]	@ 0x24
   271a0:	6e09      	ldr	r1, [r1, #96]	@ 0x60
   271a2:	910b      	str	r1, [sp, #44]	@ 0x2c
   271a4:	e015      	b.n	271d2 <_start+0x2c76>
   271a6:	4978      	ldr	r1, [pc, #480]	@ (27388 <_start+0x2e2c>)
   271a8:	4469      	add	r1, sp
   271aa:	78ca      	ldrb	r2, [r1, #3]
   271ac:	ab0c      	add	r3, sp, #48	@ 0x30
   271ae:	709a      	strb	r2, [r3, #2]
   271b0:	784a      	ldrb	r2, [r1, #1]
   271b2:	788c      	ldrb	r4, [r1, #2]
   271b4:	0224      	lsls	r4, r4, #8
   271b6:	18a2      	adds	r2, r4, r2
   271b8:	801a      	strh	r2, [r3, #0]
   271ba:	3108      	adds	r1, #8
   271bc:	9a09      	ldr	r2, [sp, #36]	@ 0x24
   271be:	6e12      	ldr	r2, [r2, #96]	@ 0x60
   271c0:	920b      	str	r2, [sp, #44]	@ 0x2c
   271c2:	4a72      	ldr	r2, [pc, #456]	@ (2738c <_start+0x2e30>)
   271c4:	446a      	add	r2, sp
   271c6:	c918      	ldmia	r1!, {r3, r4}
   271c8:	c218      	stmia	r2!, {r3, r4}
   271ca:	c938      	ldmia	r1!, {r3, r4, r5}
   271cc:	c238      	stmia	r2!, {r3, r4, r5}
   271ce:	7809      	ldrb	r1, [r1, #0]
   271d0:	7011      	strb	r1, [r2, #0]
   271d2:	2800      	cmp	r0, #0
   271d4:	d001      	beq.n	271da <_start+0x2c7e>
   271d6:	f7fd fab9 	bl	2474c <_start+0x1f0>
   271da:	4d71      	ldr	r5, [pc, #452]	@ (273a0 <_start+0x2e44>)
   271dc:	446d      	add	r5, sp
   271de:	990b      	ldr	r1, [sp, #44]	@ 0x2c
   271e0:	70e9      	strb	r1, [r5, #3]
   271e2:	980c      	ldr	r0, [sp, #48]	@ 0x30
   271e4:	8028      	strh	r0, [r5, #0]
   271e6:	0e08      	lsrs	r0, r1, #24
   271e8:	71a8      	strb	r0, [r5, #6]
   271ea:	0c08      	lsrs	r0, r1, #16
   271ec:	7168      	strb	r0, [r5, #5]
   271ee:	0a08      	lsrs	r0, r1, #8
   271f0:	7128      	strb	r0, [r5, #4]
   271f2:	a80c      	add	r0, sp, #48	@ 0x30
   271f4:	7880      	ldrb	r0, [r0, #2]
   271f6:	70a8      	strb	r0, [r5, #2]
   271f8:	1de8      	adds	r0, r5, #7
   271fa:	4964      	ldr	r1, [pc, #400]	@ (2738c <_start+0x2e30>)
   271fc:	4469      	add	r1, sp
   271fe:	2215      	movs	r2, #21
   27200:	f000 fd2b 	bl	27c5a <__aeabi_memcpy>
   27204:	4c60      	ldr	r4, [pc, #384]	@ (27388 <_start+0x2e2c>)
   27206:	446c      	add	r4, sp
   27208:	4620      	mov	r0, r4
   2720a:	4629      	mov	r1, r5
   2720c:	f7fb fc38 	bl	22a80 <_ZN18complex_no_dynamic3app17h76e632c862146a55E>
   27210:	7824      	ldrb	r4, [r4, #0]
   27212:	2c01      	cmp	r4, #1
   27214:	d103      	bne.n	2721e <_start+0x2cc2>
   27216:	9809      	ldr	r0, [sp, #36]	@ 0x24
   27218:	6e00      	ldr	r0, [r0, #96]	@ 0x60
   2721a:	900b      	str	r0, [sp, #44]	@ 0x2c
   2721c:	e012      	b.n	27244 <_start+0x2ce8>
   2721e:	495a      	ldr	r1, [pc, #360]	@ (27388 <_start+0x2e2c>)
   27220:	4469      	add	r1, sp
   27222:	78c8      	ldrb	r0, [r1, #3]
   27224:	aa0c      	add	r2, sp, #48	@ 0x30
   27226:	7090      	strb	r0, [r2, #2]
   27228:	7848      	ldrb	r0, [r1, #1]
   2722a:	788b      	ldrb	r3, [r1, #2]
   2722c:	021b      	lsls	r3, r3, #8
   2722e:	1818      	adds	r0, r3, r0
   27230:	8010      	strh	r0, [r2, #0]
   27232:	9809      	ldr	r0, [sp, #36]	@ 0x24
   27234:	6e00      	ldr	r0, [r0, #96]	@ 0x60
   27236:	900b      	str	r0, [sp, #44]	@ 0x2c
   27238:	3108      	adds	r1, #8
   2723a:	4854      	ldr	r0, [pc, #336]	@ (2738c <_start+0x2e30>)
   2723c:	4468      	add	r0, sp
   2723e:	2256      	movs	r2, #86	@ 0x56
   27240:	f000 fbab 	bl	2799a <__aeabi_memcpy4>
   27244:	2c00      	cmp	r4, #0
   27246:	d001      	beq.n	2724c <_start+0x2cf0>
   27248:	f7fd fa80 	bl	2474c <_start+0x1f0>
   2724c:	4d55      	ldr	r5, [pc, #340]	@ (273a4 <_start+0x2e48>)
   2724e:	446d      	add	r5, sp
   27250:	990b      	ldr	r1, [sp, #44]	@ 0x2c
   27252:	70e9      	strb	r1, [r5, #3]
   27254:	980c      	ldr	r0, [sp, #48]	@ 0x30
   27256:	8028      	strh	r0, [r5, #0]
   27258:	0e08      	lsrs	r0, r1, #24
   2725a:	71a8      	strb	r0, [r5, #6]
   2725c:	0c08      	lsrs	r0, r1, #16
   2725e:	7168      	strb	r0, [r5, #5]
   27260:	0a08      	lsrs	r0, r1, #8
   27262:	7128      	strb	r0, [r5, #4]
   27264:	a80c      	add	r0, sp, #48	@ 0x30
   27266:	7880      	ldrb	r0, [r0, #2]
   27268:	70a8      	strb	r0, [r5, #2]
   2726a:	1de8      	adds	r0, r5, #7
   2726c:	4947      	ldr	r1, [pc, #284]	@ (2738c <_start+0x2e30>)
   2726e:	4469      	add	r1, sp
   27270:	2256      	movs	r2, #86	@ 0x56
   27272:	f000 fcf2 	bl	27c5a <__aeabi_memcpy>
   27276:	4c44      	ldr	r4, [pc, #272]	@ (27388 <_start+0x2e2c>)
   27278:	446c      	add	r4, sp
   2727a:	4620      	mov	r0, r4
   2727c:	4629      	mov	r1, r5
   2727e:	f7fa f85d 	bl	2133c <_ZN18complex_no_dynamic3app17h2a283b63e943c6f1E>
   27282:	7820      	ldrb	r0, [r4, #0]
   27284:	2801      	cmp	r0, #1
   27286:	d102      	bne.n	2728e <_start+0x2d32>
   27288:	9909      	ldr	r1, [sp, #36]	@ 0x24
   2728a:	6e09      	ldr	r1, [r1, #96]	@ 0x60
   2728c:	e014      	b.n	272b8 <_start+0x2d5c>
   2728e:	493f      	ldr	r1, [pc, #252]	@ (2738c <_start+0x2e30>)
   27290:	4469      	add	r1, sp
   27292:	9d09      	ldr	r5, [sp, #36]	@ 0x24
   27294:	6eea      	ldr	r2, [r5, #108]	@ 0x6c
   27296:	810a      	strh	r2, [r1, #8]
   27298:	4a3b      	ldr	r2, [pc, #236]	@ (27388 <_start+0x2e2c>)
   2729a:	446a      	add	r2, sp
   2729c:	78d3      	ldrb	r3, [r2, #3]
   2729e:	ac0c      	add	r4, sp, #48	@ 0x30
   272a0:	70a3      	strb	r3, [r4, #2]
   272a2:	7c93      	ldrb	r3, [r2, #18]
   272a4:	728b      	strb	r3, [r1, #10]
   272a6:	7851      	ldrb	r1, [r2, #1]
   272a8:	7892      	ldrb	r2, [r2, #2]
   272aa:	0212      	lsls	r2, r2, #8
   272ac:	1851      	adds	r1, r2, r1
   272ae:	8021      	strh	r1, [r4, #0]
   272b0:	6e69      	ldr	r1, [r5, #100]	@ 0x64
   272b2:	6eaa      	ldr	r2, [r5, #104]	@ 0x68
   272b4:	c506      	stmia	r5!, {r1, r2}
   272b6:	6da9      	ldr	r1, [r5, #88]	@ 0x58
   272b8:	910b      	str	r1, [sp, #44]	@ 0x2c
   272ba:	2800      	cmp	r0, #0
   272bc:	d001      	beq.n	272c2 <_start+0x2d66>
   272be:	f7fd fa45 	bl	2474c <_start+0x1f0>
   272c2:	4d39      	ldr	r5, [pc, #228]	@ (273a8 <_start+0x2e4c>)
   272c4:	446d      	add	r5, sp
   272c6:	990b      	ldr	r1, [sp, #44]	@ 0x2c
   272c8:	70e9      	strb	r1, [r5, #3]
   272ca:	980c      	ldr	r0, [sp, #48]	@ 0x30
   272cc:	8028      	strh	r0, [r5, #0]
   272ce:	0e08      	lsrs	r0, r1, #24
   272d0:	71a8      	strb	r0, [r5, #6]
   272d2:	0c08      	lsrs	r0, r1, #16
   272d4:	7168      	strb	r0, [r5, #5]
   272d6:	0a08      	lsrs	r0, r1, #8
   272d8:	7128      	strb	r0, [r5, #4]
   272da:	a80c      	add	r0, sp, #48	@ 0x30
   272dc:	7880      	ldrb	r0, [r0, #2]
   272de:	70a8      	strb	r0, [r5, #2]
   272e0:	1de8      	adds	r0, r5, #7
   272e2:	492a      	ldr	r1, [pc, #168]	@ (2738c <_start+0x2e30>)
   272e4:	4469      	add	r1, sp
   272e6:	220b      	movs	r2, #11
   272e8:	f000 fcb7 	bl	27c5a <__aeabi_memcpy>
   272ec:	4c26      	ldr	r4, [pc, #152]	@ (27388 <_start+0x2e2c>)
   272ee:	446c      	add	r4, sp
   272f0:	4620      	mov	r0, r4
   272f2:	4629      	mov	r1, r5
   272f4:	f7f8 fef6 	bl	200e4 <_ZN18complex_no_dynamic3app17h01633085643dbb39E>
   272f8:	7820      	ldrb	r0, [r4, #0]
   272fa:	2801      	cmp	r0, #1
   272fc:	d103      	bne.n	27306 <_start+0x2daa>
   272fe:	9909      	ldr	r1, [sp, #36]	@ 0x24
   27300:	6e09      	ldr	r1, [r1, #96]	@ 0x60
   27302:	910b      	str	r1, [sp, #44]	@ 0x2c
   27304:	e019      	b.n	2733a <_start+0x2dde>
   27306:	4920      	ldr	r1, [pc, #128]	@ (27388 <_start+0x2e2c>)
   27308:	4469      	add	r1, sp
   2730a:	78ca      	ldrb	r2, [r1, #3]
   2730c:	ab0c      	add	r3, sp, #48	@ 0x30
   2730e:	709a      	strb	r2, [r3, #2]
   27310:	784a      	ldrb	r2, [r1, #1]
   27312:	788c      	ldrb	r4, [r1, #2]
   27314:	0224      	lsls	r4, r4, #8
   27316:	18a2      	adds	r2, r4, r2
   27318:	801a      	strh	r2, [r3, #0]
   2731a:	3108      	adds	r1, #8
   2731c:	9a09      	ldr	r2, [sp, #36]	@ 0x24
   2731e:	6e12      	ldr	r2, [r2, #96]	@ 0x60
   27320:	920b      	str	r2, [sp, #44]	@ 0x2c
   27322:	4a1a      	ldr	r2, [pc, #104]	@ (2738c <_start+0x2e30>)
   27324:	446a      	add	r2, sp
   27326:	c938      	ldmia	r1!, {r3, r4, r5}
   27328:	c238      	stmia	r2!, {r3, r4, r5}
   2732a:	c978      	ldmia	r1!, {r3, r4, r5, r6}
   2732c:	c278      	stmia	r2!, {r3, r4, r5, r6}
   2732e:	c978      	ldmia	r1!, {r3, r4, r5, r6}
   27330:	c278      	stmia	r2!, {r3, r4, r5, r6}
   27332:	c978      	ldmia	r1!, {r3, r4, r5, r6}
   27334:	c278      	stmia	r2!, {r3, r4, r5, r6}
   27336:	7809      	ldrb	r1, [r1, #0]
   27338:	7011      	strb	r1, [r2, #0]
   2733a:	2800      	cmp	r0, #0
   2733c:	d001      	beq.n	27342 <_start+0x2de6>
   2733e:	f7fd fa05 	bl	2474c <_start+0x1f0>
   27342:	4d1a      	ldr	r5, [pc, #104]	@ (273ac <_start+0x2e50>)
   27344:	446d      	add	r5, sp
   27346:	990b      	ldr	r1, [sp, #44]	@ 0x2c
   27348:	70e9      	strb	r1, [r5, #3]
   2734a:	980c      	ldr	r0, [sp, #48]	@ 0x30
   2734c:	8028      	strh	r0, [r5, #0]
   2734e:	0e08      	lsrs	r0, r1, #24
   27350:	71a8      	strb	r0, [r5, #6]
   27352:	0c08      	lsrs	r0, r1, #16
   27354:	7168      	strb	r0, [r5, #5]
   27356:	0a08      	lsrs	r0, r1, #8
   27358:	7128      	strb	r0, [r5, #4]
   2735a:	a80c      	add	r0, sp, #48	@ 0x30
   2735c:	7880      	ldrb	r0, [r0, #2]
   2735e:	70a8      	strb	r0, [r5, #2]
   27360:	1de8      	adds	r0, r5, #7
   27362:	490a      	ldr	r1, [pc, #40]	@ (2738c <_start+0x2e30>)
   27364:	4469      	add	r1, sp
   27366:	223d      	movs	r2, #61	@ 0x3d
   27368:	f000 fc77 	bl	27c5a <__aeabi_memcpy>
   2736c:	4c06      	ldr	r4, [pc, #24]	@ (27388 <_start+0x2e2c>)
   2736e:	446c      	add	r4, sp
   27370:	4620      	mov	r0, r4
   27372:	4629      	mov	r1, r5
   27374:	f7fb f99e 	bl	226b4 <_ZN18complex_no_dynamic3app17h65469387cb23abfcE>
   27378:	7820      	ldrb	r0, [r4, #0]
   2737a:	2801      	cmp	r0, #1
   2737c:	d118      	bne.n	273b0 <_start+0x2e54>
   2737e:	9909      	ldr	r1, [sp, #36]	@ 0x24
   27380:	6e09      	ldr	r1, [r1, #96]	@ 0x60
   27382:	910b      	str	r1, [sp, #44]	@ 0x2c
   27384:	e028      	b.n	273d8 <_start+0x2e7c>
   27386:	46c0      	nop			@ (mov r8, r8)
   27388:	00001404 	.word	0x00001404
   2738c:	000013a8 	.word	0x000013a8
   27390:	00001058 	.word	0x00001058
   27394:	00001090 	.word	0x00001090
   27398:	000010d0 	.word	0x000010d0
   2739c:	000010e4 	.word	0x000010e4
   273a0:	00001124 	.word	0x00001124
   273a4:	00001140 	.word	0x00001140
   273a8:	000011a0 	.word	0x000011a0
   273ac:	000011b4 	.word	0x000011b4
   273b0:	49e7      	ldr	r1, [pc, #924]	@ (27750 <_start+0x31f4>)
   273b2:	4469      	add	r1, sp
   273b4:	78ca      	ldrb	r2, [r1, #3]
   273b6:	ab0c      	add	r3, sp, #48	@ 0x30
   273b8:	709a      	strb	r2, [r3, #2]
   273ba:	784a      	ldrb	r2, [r1, #1]
   273bc:	788c      	ldrb	r4, [r1, #2]
   273be:	0224      	lsls	r4, r4, #8
   273c0:	18a2      	adds	r2, r4, r2
   273c2:	801a      	strh	r2, [r3, #0]
   273c4:	3108      	adds	r1, #8
   273c6:	9a09      	ldr	r2, [sp, #36]	@ 0x24
   273c8:	6e12      	ldr	r2, [r2, #96]	@ 0x60
   273ca:	920b      	str	r2, [sp, #44]	@ 0x2c
   273cc:	4ae1      	ldr	r2, [pc, #900]	@ (27754 <_start+0x31f8>)
   273ce:	446a      	add	r2, sp
   273d0:	c938      	ldmia	r1!, {r3, r4, r5}
   273d2:	c238      	stmia	r2!, {r3, r4, r5}
   273d4:	c978      	ldmia	r1!, {r3, r4, r5, r6}
   273d6:	c278      	stmia	r2!, {r3, r4, r5, r6}
   273d8:	2800      	cmp	r0, #0
   273da:	d001      	beq.n	273e0 <_start+0x2e84>
   273dc:	f7fd f9b6 	bl	2474c <_start+0x1f0>
   273e0:	4dfc      	ldr	r5, [pc, #1008]	@ (277d4 <_start+0x3278>)
   273e2:	446d      	add	r5, sp
   273e4:	990b      	ldr	r1, [sp, #44]	@ 0x2c
   273e6:	70e9      	strb	r1, [r5, #3]
   273e8:	980c      	ldr	r0, [sp, #48]	@ 0x30
   273ea:	8028      	strh	r0, [r5, #0]
   273ec:	0e08      	lsrs	r0, r1, #24
   273ee:	71a8      	strb	r0, [r5, #6]
   273f0:	0c08      	lsrs	r0, r1, #16
   273f2:	7168      	strb	r0, [r5, #5]
   273f4:	0a08      	lsrs	r0, r1, #8
   273f6:	7128      	strb	r0, [r5, #4]
   273f8:	a80c      	add	r0, sp, #48	@ 0x30
   273fa:	7880      	ldrb	r0, [r0, #2]
   273fc:	70a8      	strb	r0, [r5, #2]
   273fe:	1de8      	adds	r0, r5, #7
   27400:	49f3      	ldr	r1, [pc, #972]	@ (277d0 <_start+0x3274>)
   27402:	4469      	add	r1, sp
   27404:	221c      	movs	r2, #28
   27406:	f000 fc28 	bl	27c5a <__aeabi_memcpy>
   2740a:	4cf0      	ldr	r4, [pc, #960]	@ (277cc <_start+0x3270>)
   2740c:	446c      	add	r4, sp
   2740e:	4620      	mov	r0, r4
   27410:	4629      	mov	r1, r5
   27412:	f7fa f90d 	bl	21630 <_ZN18complex_no_dynamic3app17h38f01f94df765830E>
   27416:	7820      	ldrb	r0, [r4, #0]
   27418:	2801      	cmp	r0, #1
   2741a:	d103      	bne.n	27424 <_start+0x2ec8>
   2741c:	9909      	ldr	r1, [sp, #36]	@ 0x24
   2741e:	6e09      	ldr	r1, [r1, #96]	@ 0x60
   27420:	910b      	str	r1, [sp, #44]	@ 0x2c
   27422:	e015      	b.n	27450 <_start+0x2ef4>
   27424:	49e9      	ldr	r1, [pc, #932]	@ (277cc <_start+0x3270>)
   27426:	4469      	add	r1, sp
   27428:	78ca      	ldrb	r2, [r1, #3]
   2742a:	ab0c      	add	r3, sp, #48	@ 0x30
   2742c:	709a      	strb	r2, [r3, #2]
   2742e:	784a      	ldrb	r2, [r1, #1]
   27430:	788c      	ldrb	r4, [r1, #2]
   27432:	0224      	lsls	r4, r4, #8
   27434:	18a2      	adds	r2, r4, r2
   27436:	801a      	strh	r2, [r3, #0]
   27438:	3108      	adds	r1, #8
   2743a:	9a09      	ldr	r2, [sp, #36]	@ 0x24
   2743c:	6e12      	ldr	r2, [r2, #96]	@ 0x60
   2743e:	920b      	str	r2, [sp, #44]	@ 0x2c
   27440:	4ae3      	ldr	r2, [pc, #908]	@ (277d0 <_start+0x3274>)
   27442:	446a      	add	r2, sp
   27444:	c938      	ldmia	r1!, {r3, r4, r5}
   27446:	c238      	stmia	r2!, {r3, r4, r5}
   27448:	c978      	ldmia	r1!, {r3, r4, r5, r6}
   2744a:	c278      	stmia	r2!, {r3, r4, r5, r6}
   2744c:	7809      	ldrb	r1, [r1, #0]
   2744e:	7011      	strb	r1, [r2, #0]
   27450:	2800      	cmp	r0, #0
   27452:	d001      	beq.n	27458 <_start+0x2efc>
   27454:	f7fd f97a 	bl	2474c <_start+0x1f0>
   27458:	4ddf      	ldr	r5, [pc, #892]	@ (277d8 <_start+0x327c>)
   2745a:	446d      	add	r5, sp
   2745c:	990b      	ldr	r1, [sp, #44]	@ 0x2c
   2745e:	70e9      	strb	r1, [r5, #3]
   27460:	980c      	ldr	r0, [sp, #48]	@ 0x30
   27462:	8028      	strh	r0, [r5, #0]
   27464:	0e08      	lsrs	r0, r1, #24
   27466:	71a8      	strb	r0, [r5, #6]
   27468:	0c08      	lsrs	r0, r1, #16
   2746a:	7168      	strb	r0, [r5, #5]
   2746c:	0a08      	lsrs	r0, r1, #8
   2746e:	7128      	strb	r0, [r5, #4]
   27470:	a80c      	add	r0, sp, #48	@ 0x30
   27472:	7880      	ldrb	r0, [r0, #2]
   27474:	70a8      	strb	r0, [r5, #2]
   27476:	1de8      	adds	r0, r5, #7
   27478:	49d5      	ldr	r1, [pc, #852]	@ (277d0 <_start+0x3274>)
   2747a:	4469      	add	r1, sp
   2747c:	221d      	movs	r2, #29
   2747e:	f000 fbec 	bl	27c5a <__aeabi_memcpy>
   27482:	4cd2      	ldr	r4, [pc, #840]	@ (277cc <_start+0x3270>)
   27484:	446c      	add	r4, sp
   27486:	4620      	mov	r0, r4
   27488:	4629      	mov	r1, r5
   2748a:	f7fb f8b9 	bl	22600 <_ZN18complex_no_dynamic3app17h63ab625d3cbc6575E>
   2748e:	7820      	ldrb	r0, [r4, #0]
   27490:	2801      	cmp	r0, #1
   27492:	d103      	bne.n	2749c <_start+0x2f40>
   27494:	9909      	ldr	r1, [sp, #36]	@ 0x24
   27496:	6e09      	ldr	r1, [r1, #96]	@ 0x60
   27498:	910b      	str	r1, [sp, #44]	@ 0x2c
   2749a:	e015      	b.n	274c8 <_start+0x2f6c>
   2749c:	49cb      	ldr	r1, [pc, #812]	@ (277cc <_start+0x3270>)
   2749e:	4469      	add	r1, sp
   274a0:	78ca      	ldrb	r2, [r1, #3]
   274a2:	ab0c      	add	r3, sp, #48	@ 0x30
   274a4:	709a      	strb	r2, [r3, #2]
   274a6:	784a      	ldrb	r2, [r1, #1]
   274a8:	788c      	ldrb	r4, [r1, #2]
   274aa:	0224      	lsls	r4, r4, #8
   274ac:	18a2      	adds	r2, r4, r2
   274ae:	801a      	strh	r2, [r3, #0]
   274b0:	3108      	adds	r1, #8
   274b2:	9a09      	ldr	r2, [sp, #36]	@ 0x24
   274b4:	6e12      	ldr	r2, [r2, #96]	@ 0x60
   274b6:	920b      	str	r2, [sp, #44]	@ 0x2c
   274b8:	4ac5      	ldr	r2, [pc, #788]	@ (277d0 <_start+0x3274>)
   274ba:	446a      	add	r2, sp
   274bc:	c938      	ldmia	r1!, {r3, r4, r5}
   274be:	c238      	stmia	r2!, {r3, r4, r5}
   274c0:	c938      	ldmia	r1!, {r3, r4, r5}
   274c2:	c238      	stmia	r2!, {r3, r4, r5}
   274c4:	c978      	ldmia	r1!, {r3, r4, r5, r6}
   274c6:	c278      	stmia	r2!, {r3, r4, r5, r6}
   274c8:	2800      	cmp	r0, #0
   274ca:	d001      	beq.n	274d0 <_start+0x2f74>
   274cc:	f7fd f93e 	bl	2474c <_start+0x1f0>
   274d0:	4dc2      	ldr	r5, [pc, #776]	@ (277dc <_start+0x3280>)
   274d2:	446d      	add	r5, sp
   274d4:	990b      	ldr	r1, [sp, #44]	@ 0x2c
   274d6:	70e9      	strb	r1, [r5, #3]
   274d8:	980c      	ldr	r0, [sp, #48]	@ 0x30
   274da:	8028      	strh	r0, [r5, #0]
   274dc:	0e08      	lsrs	r0, r1, #24
   274de:	71a8      	strb	r0, [r5, #6]
   274e0:	0c08      	lsrs	r0, r1, #16
   274e2:	7168      	strb	r0, [r5, #5]
   274e4:	0a08      	lsrs	r0, r1, #8
   274e6:	7128      	strb	r0, [r5, #4]
   274e8:	a80c      	add	r0, sp, #48	@ 0x30
   274ea:	7880      	ldrb	r0, [r0, #2]
   274ec:	70a8      	strb	r0, [r5, #2]
   274ee:	1de8      	adds	r0, r5, #7
   274f0:	49fa      	ldr	r1, [pc, #1000]	@ (278dc <_start+0x3380>)
   274f2:	4469      	add	r1, sp
   274f4:	2228      	movs	r2, #40	@ 0x28
   274f6:	f000 fbb0 	bl	27c5a <__aeabi_memcpy>
   274fa:	4cf7      	ldr	r4, [pc, #988]	@ (278d8 <_start+0x337c>)
   274fc:	446c      	add	r4, sp
   274fe:	4620      	mov	r0, r4
   27500:	4629      	mov	r1, r5
   27502:	f7fc f8f9 	bl	236f8 <_ZN18complex_no_dynamic3app17hc093f3fd546eea5fE>
   27506:	7824      	ldrb	r4, [r4, #0]
   27508:	2c01      	cmp	r4, #1
   2750a:	d103      	bne.n	27514 <_start+0x2fb8>
   2750c:	9809      	ldr	r0, [sp, #36]	@ 0x24
   2750e:	6e00      	ldr	r0, [r0, #96]	@ 0x60
   27510:	900b      	str	r0, [sp, #44]	@ 0x2c
   27512:	e012      	b.n	2753a <_start+0x2fde>
   27514:	49f0      	ldr	r1, [pc, #960]	@ (278d8 <_start+0x337c>)
   27516:	4469      	add	r1, sp
   27518:	78c8      	ldrb	r0, [r1, #3]
   2751a:	aa0c      	add	r2, sp, #48	@ 0x30
   2751c:	7090      	strb	r0, [r2, #2]
   2751e:	7848      	ldrb	r0, [r1, #1]
   27520:	788b      	ldrb	r3, [r1, #2]
   27522:	021b      	lsls	r3, r3, #8
   27524:	1818      	adds	r0, r3, r0
   27526:	8010      	strh	r0, [r2, #0]
   27528:	9809      	ldr	r0, [sp, #36]	@ 0x24
   2752a:	6e00      	ldr	r0, [r0, #96]	@ 0x60
   2752c:	900b      	str	r0, [sp, #44]	@ 0x2c
   2752e:	3108      	adds	r1, #8
   27530:	48ea      	ldr	r0, [pc, #936]	@ (278dc <_start+0x3380>)
   27532:	4468      	add	r0, sp
   27534:	2257      	movs	r2, #87	@ 0x57
   27536:	f000 fa30 	bl	2799a <__aeabi_memcpy4>
   2753a:	2c00      	cmp	r4, #0
   2753c:	d001      	beq.n	27542 <_start+0x2fe6>
   2753e:	f7fd f905 	bl	2474c <_start+0x1f0>
   27542:	4de7      	ldr	r5, [pc, #924]	@ (278e0 <_start+0x3384>)
   27544:	446d      	add	r5, sp
   27546:	990b      	ldr	r1, [sp, #44]	@ 0x2c
   27548:	70e9      	strb	r1, [r5, #3]
   2754a:	980c      	ldr	r0, [sp, #48]	@ 0x30
   2754c:	8028      	strh	r0, [r5, #0]
   2754e:	0e08      	lsrs	r0, r1, #24
   27550:	71a8      	strb	r0, [r5, #6]
   27552:	0c08      	lsrs	r0, r1, #16
   27554:	7168      	strb	r0, [r5, #5]
   27556:	0a08      	lsrs	r0, r1, #8
   27558:	7128      	strb	r0, [r5, #4]
   2755a:	a80c      	add	r0, sp, #48	@ 0x30
   2755c:	7880      	ldrb	r0, [r0, #2]
   2755e:	70a8      	strb	r0, [r5, #2]
   27560:	1de8      	adds	r0, r5, #7
   27562:	49de      	ldr	r1, [pc, #888]	@ (278dc <_start+0x3380>)
   27564:	4469      	add	r1, sp
   27566:	2257      	movs	r2, #87	@ 0x57
   27568:	f000 fb77 	bl	27c5a <__aeabi_memcpy>
   2756c:	4cda      	ldr	r4, [pc, #872]	@ (278d8 <_start+0x337c>)
   2756e:	446c      	add	r4, sp
   27570:	4620      	mov	r0, r4
   27572:	4629      	mov	r1, r5
   27574:	f7fa fd6c 	bl	22050 <_ZN18complex_no_dynamic3app17h528834e610acd7feE>
   27578:	7824      	ldrb	r4, [r4, #0]
   2757a:	2c01      	cmp	r4, #1
   2757c:	d103      	bne.n	27586 <_start+0x302a>
   2757e:	9809      	ldr	r0, [sp, #36]	@ 0x24
   27580:	6e00      	ldr	r0, [r0, #96]	@ 0x60
   27582:	900b      	str	r0, [sp, #44]	@ 0x2c
   27584:	e012      	b.n	275ac <_start+0x3050>
   27586:	49d4      	ldr	r1, [pc, #848]	@ (278d8 <_start+0x337c>)
   27588:	4469      	add	r1, sp
   2758a:	78c8      	ldrb	r0, [r1, #3]
   2758c:	aa0c      	add	r2, sp, #48	@ 0x30
   2758e:	7090      	strb	r0, [r2, #2]
   27590:	7848      	ldrb	r0, [r1, #1]
   27592:	788b      	ldrb	r3, [r1, #2]
   27594:	021b      	lsls	r3, r3, #8
   27596:	1818      	adds	r0, r3, r0
   27598:	8010      	strh	r0, [r2, #0]
   2759a:	9809      	ldr	r0, [sp, #36]	@ 0x24
   2759c:	6e00      	ldr	r0, [r0, #96]	@ 0x60
   2759e:	900b      	str	r0, [sp, #44]	@ 0x2c
   275a0:	3108      	adds	r1, #8
   275a2:	48ce      	ldr	r0, [pc, #824]	@ (278dc <_start+0x3380>)
   275a4:	4468      	add	r0, sp
   275a6:	224e      	movs	r2, #78	@ 0x4e
   275a8:	f000 f9f7 	bl	2799a <__aeabi_memcpy4>
   275ac:	2c00      	cmp	r4, #0
   275ae:	d001      	beq.n	275b4 <_start+0x3058>
   275b0:	f7fd f8cc 	bl	2474c <_start+0x1f0>
   275b4:	4dcb      	ldr	r5, [pc, #812]	@ (278e4 <_start+0x3388>)
   275b6:	446d      	add	r5, sp
   275b8:	990b      	ldr	r1, [sp, #44]	@ 0x2c
   275ba:	70e9      	strb	r1, [r5, #3]
   275bc:	980c      	ldr	r0, [sp, #48]	@ 0x30
   275be:	8028      	strh	r0, [r5, #0]
   275c0:	0e08      	lsrs	r0, r1, #24
   275c2:	71a8      	strb	r0, [r5, #6]
   275c4:	0c08      	lsrs	r0, r1, #16
   275c6:	7168      	strb	r0, [r5, #5]
   275c8:	0a08      	lsrs	r0, r1, #8
   275ca:	7128      	strb	r0, [r5, #4]
   275cc:	a80c      	add	r0, sp, #48	@ 0x30
   275ce:	7880      	ldrb	r0, [r0, #2]
   275d0:	70a8      	strb	r0, [r5, #2]
   275d2:	1de8      	adds	r0, r5, #7
   275d4:	49c1      	ldr	r1, [pc, #772]	@ (278dc <_start+0x3380>)
   275d6:	4469      	add	r1, sp
   275d8:	224e      	movs	r2, #78	@ 0x4e
   275da:	f000 fb3e 	bl	27c5a <__aeabi_memcpy>
   275de:	4cbe      	ldr	r4, [pc, #760]	@ (278d8 <_start+0x337c>)
   275e0:	446c      	add	r4, sp
   275e2:	4620      	mov	r0, r4
   275e4:	4629      	mov	r1, r5
   275e6:	f7fb f9eb 	bl	229c0 <_ZN18complex_no_dynamic3app17h70e3c7e57ddf0123E>
   275ea:	7820      	ldrb	r0, [r4, #0]
   275ec:	2801      	cmp	r0, #1
   275ee:	d102      	bne.n	275f6 <_start+0x309a>
   275f0:	9909      	ldr	r1, [sp, #36]	@ 0x24
   275f2:	6e09      	ldr	r1, [r1, #96]	@ 0x60
   275f4:	e012      	b.n	2761c <_start+0x30c0>
   275f6:	49b9      	ldr	r1, [pc, #740]	@ (278dc <_start+0x3380>)
   275f8:	4469      	add	r1, sp
   275fa:	9c09      	ldr	r4, [sp, #36]	@ 0x24
   275fc:	6ee2      	ldr	r2, [r4, #108]	@ 0x6c
   275fe:	810a      	strh	r2, [r1, #8]
   27600:	49b5      	ldr	r1, [pc, #724]	@ (278d8 <_start+0x337c>)
   27602:	4469      	add	r1, sp
   27604:	78ca      	ldrb	r2, [r1, #3]
   27606:	ab0c      	add	r3, sp, #48	@ 0x30
   27608:	709a      	strb	r2, [r3, #2]
   2760a:	784a      	ldrb	r2, [r1, #1]
   2760c:	7889      	ldrb	r1, [r1, #2]
   2760e:	0209      	lsls	r1, r1, #8
   27610:	1889      	adds	r1, r1, r2
   27612:	8019      	strh	r1, [r3, #0]
   27614:	6e61      	ldr	r1, [r4, #100]	@ 0x64
   27616:	6ea2      	ldr	r2, [r4, #104]	@ 0x68
   27618:	c406      	stmia	r4!, {r1, r2}
   2761a:	6da1      	ldr	r1, [r4, #88]	@ 0x58
   2761c:	910b      	str	r1, [sp, #44]	@ 0x2c
   2761e:	2800      	cmp	r0, #0
   27620:	d001      	beq.n	27626 <_start+0x30ca>
   27622:	f7fd f893 	bl	2474c <_start+0x1f0>
   27626:	4db0      	ldr	r5, [pc, #704]	@ (278e8 <_start+0x338c>)
   27628:	446d      	add	r5, sp
   2762a:	990b      	ldr	r1, [sp, #44]	@ 0x2c
   2762c:	70e9      	strb	r1, [r5, #3]
   2762e:	980c      	ldr	r0, [sp, #48]	@ 0x30
   27630:	8028      	strh	r0, [r5, #0]
   27632:	0e08      	lsrs	r0, r1, #24
   27634:	71a8      	strb	r0, [r5, #6]
   27636:	0c08      	lsrs	r0, r1, #16
   27638:	7168      	strb	r0, [r5, #5]
   2763a:	0a08      	lsrs	r0, r1, #8
   2763c:	7128      	strb	r0, [r5, #4]
   2763e:	a80c      	add	r0, sp, #48	@ 0x30
   27640:	7880      	ldrb	r0, [r0, #2]
   27642:	70a8      	strb	r0, [r5, #2]
   27644:	1de8      	adds	r0, r5, #7
   27646:	49a5      	ldr	r1, [pc, #660]	@ (278dc <_start+0x3380>)
   27648:	4469      	add	r1, sp
   2764a:	220a      	movs	r2, #10
   2764c:	f000 fb05 	bl	27c5a <__aeabi_memcpy>
   27650:	4ca1      	ldr	r4, [pc, #644]	@ (278d8 <_start+0x337c>)
   27652:	446c      	add	r4, sp
   27654:	4620      	mov	r0, r4
   27656:	4629      	mov	r1, r5
   27658:	f7fa fb2e 	bl	21cb8 <_ZN18complex_no_dynamic3app17h4a0132e65c16811bE>
   2765c:	7824      	ldrb	r4, [r4, #0]
   2765e:	2c01      	cmp	r4, #1
   27660:	d103      	bne.n	2766a <_start+0x310e>
   27662:	9809      	ldr	r0, [sp, #36]	@ 0x24
   27664:	6e00      	ldr	r0, [r0, #96]	@ 0x60
   27666:	900b      	str	r0, [sp, #44]	@ 0x2c
   27668:	e012      	b.n	27690 <_start+0x3134>
   2766a:	499b      	ldr	r1, [pc, #620]	@ (278d8 <_start+0x337c>)
   2766c:	4469      	add	r1, sp
   2766e:	78c8      	ldrb	r0, [r1, #3]
   27670:	aa0c      	add	r2, sp, #48	@ 0x30
   27672:	7090      	strb	r0, [r2, #2]
   27674:	7848      	ldrb	r0, [r1, #1]
   27676:	788b      	ldrb	r3, [r1, #2]
   27678:	021b      	lsls	r3, r3, #8
   2767a:	1818      	adds	r0, r3, r0
   2767c:	8010      	strh	r0, [r2, #0]
   2767e:	9809      	ldr	r0, [sp, #36]	@ 0x24
   27680:	6e00      	ldr	r0, [r0, #96]	@ 0x60
   27682:	900b      	str	r0, [sp, #44]	@ 0x2c
   27684:	3108      	adds	r1, #8
   27686:	4895      	ldr	r0, [pc, #596]	@ (278dc <_start+0x3380>)
   27688:	4468      	add	r0, sp
   2768a:	2249      	movs	r2, #73	@ 0x49
   2768c:	f000 f985 	bl	2799a <__aeabi_memcpy4>
   27690:	2c00      	cmp	r4, #0
   27692:	d001      	beq.n	27698 <_start+0x313c>
   27694:	f7fd f85a 	bl	2474c <_start+0x1f0>
   27698:	4d94      	ldr	r5, [pc, #592]	@ (278ec <_start+0x3390>)
   2769a:	446d      	add	r5, sp
   2769c:	990b      	ldr	r1, [sp, #44]	@ 0x2c
   2769e:	70e9      	strb	r1, [r5, #3]
   276a0:	980c      	ldr	r0, [sp, #48]	@ 0x30
   276a2:	8028      	strh	r0, [r5, #0]
   276a4:	0e08      	lsrs	r0, r1, #24
   276a6:	71a8      	strb	r0, [r5, #6]
   276a8:	0c08      	lsrs	r0, r1, #16
   276aa:	7168      	strb	r0, [r5, #5]
   276ac:	0a08      	lsrs	r0, r1, #8
   276ae:	7128      	strb	r0, [r5, #4]
   276b0:	a80c      	add	r0, sp, #48	@ 0x30
   276b2:	7880      	ldrb	r0, [r0, #2]
   276b4:	70a8      	strb	r0, [r5, #2]
   276b6:	1de8      	adds	r0, r5, #7
   276b8:	4988      	ldr	r1, [pc, #544]	@ (278dc <_start+0x3380>)
   276ba:	4469      	add	r1, sp
   276bc:	2249      	movs	r2, #73	@ 0x49
   276be:	f000 facc 	bl	27c5a <__aeabi_memcpy>
   276c2:	4c85      	ldr	r4, [pc, #532]	@ (278d8 <_start+0x337c>)
   276c4:	446c      	add	r4, sp
   276c6:	4620      	mov	r0, r4
   276c8:	4629      	mov	r1, r5
   276ca:	f7fb fb43 	bl	22d54 <_ZN18complex_no_dynamic3app17h7f4f5e68ddc76551E>
   276ce:	7820      	ldrb	r0, [r4, #0]
   276d0:	2801      	cmp	r0, #1
   276d2:	d103      	bne.n	276dc <_start+0x3180>
   276d4:	9909      	ldr	r1, [sp, #36]	@ 0x24
   276d6:	6e09      	ldr	r1, [r1, #96]	@ 0x60
   276d8:	910b      	str	r1, [sp, #44]	@ 0x2c
   276da:	e013      	b.n	27704 <_start+0x31a8>
   276dc:	497e      	ldr	r1, [pc, #504]	@ (278d8 <_start+0x337c>)
   276de:	4469      	add	r1, sp
   276e0:	78ca      	ldrb	r2, [r1, #3]
   276e2:	ab0c      	add	r3, sp, #48	@ 0x30
   276e4:	709a      	strb	r2, [r3, #2]
   276e6:	784a      	ldrb	r2, [r1, #1]
   276e8:	788c      	ldrb	r4, [r1, #2]
   276ea:	0224      	lsls	r4, r4, #8
   276ec:	18a2      	adds	r2, r4, r2
   276ee:	801a      	strh	r2, [r3, #0]
   276f0:	3108      	adds	r1, #8
   276f2:	9a09      	ldr	r2, [sp, #36]	@ 0x24
   276f4:	6e12      	ldr	r2, [r2, #96]	@ 0x60
   276f6:	920b      	str	r2, [sp, #44]	@ 0x2c
   276f8:	4a78      	ldr	r2, [pc, #480]	@ (278dc <_start+0x3380>)
   276fa:	446a      	add	r2, sp
   276fc:	c918      	ldmia	r1!, {r3, r4}
   276fe:	c218      	stmia	r2!, {r3, r4}
   27700:	c938      	ldmia	r1!, {r3, r4, r5}
   27702:	c238      	stmia	r2!, {r3, r4, r5}
   27704:	2800      	cmp	r0, #0
   27706:	d001      	beq.n	2770c <_start+0x31b0>
   27708:	f7fd f820 	bl	2474c <_start+0x1f0>
   2770c:	4d78      	ldr	r5, [pc, #480]	@ (278f0 <_start+0x3394>)
   2770e:	446d      	add	r5, sp
   27710:	990b      	ldr	r1, [sp, #44]	@ 0x2c
   27712:	70e9      	strb	r1, [r5, #3]
   27714:	980c      	ldr	r0, [sp, #48]	@ 0x30
   27716:	8028      	strh	r0, [r5, #0]
   27718:	0e08      	lsrs	r0, r1, #24
   2771a:	71a8      	strb	r0, [r5, #6]
   2771c:	0c08      	lsrs	r0, r1, #16
   2771e:	7168      	strb	r0, [r5, #5]
   27720:	0a08      	lsrs	r0, r1, #8
   27722:	7128      	strb	r0, [r5, #4]
   27724:	a80c      	add	r0, sp, #48	@ 0x30
   27726:	7880      	ldrb	r0, [r0, #2]
   27728:	70a8      	strb	r0, [r5, #2]
   2772a:	1de8      	adds	r0, r5, #7
   2772c:	496b      	ldr	r1, [pc, #428]	@ (278dc <_start+0x3380>)
   2772e:	4469      	add	r1, sp
   27730:	2214      	movs	r2, #20
   27732:	f000 fa92 	bl	27c5a <__aeabi_memcpy>
   27736:	4c68      	ldr	r4, [pc, #416]	@ (278d8 <_start+0x337c>)
   27738:	446c      	add	r4, sp
   2773a:	4620      	mov	r0, r4
   2773c:	4629      	mov	r1, r5
   2773e:	f7f9 fda1 	bl	21284 <_ZN18complex_no_dynamic3app17h289cee8e40e8337eE>
   27742:	7824      	ldrb	r4, [r4, #0]
   27744:	2c01      	cmp	r4, #1
   27746:	d107      	bne.n	27758 <_start+0x31fc>
   27748:	9809      	ldr	r0, [sp, #36]	@ 0x24
   2774a:	6e00      	ldr	r0, [r0, #96]	@ 0x60
   2774c:	900b      	str	r0, [sp, #44]	@ 0x2c
   2774e:	e016      	b.n	2777e <_start+0x3222>
   27750:	00001404 	.word	0x00001404
   27754:	000013a8 	.word	0x000013a8
   27758:	495f      	ldr	r1, [pc, #380]	@ (278d8 <_start+0x337c>)
   2775a:	4469      	add	r1, sp
   2775c:	78c8      	ldrb	r0, [r1, #3]
   2775e:	aa0c      	add	r2, sp, #48	@ 0x30
   27760:	7090      	strb	r0, [r2, #2]
   27762:	7848      	ldrb	r0, [r1, #1]
   27764:	788b      	ldrb	r3, [r1, #2]
   27766:	021b      	lsls	r3, r3, #8
   27768:	1818      	adds	r0, r3, r0
   2776a:	8010      	strh	r0, [r2, #0]
   2776c:	9809      	ldr	r0, [sp, #36]	@ 0x24
   2776e:	6e00      	ldr	r0, [r0, #96]	@ 0x60
   27770:	900b      	str	r0, [sp, #44]	@ 0x2c
   27772:	3108      	adds	r1, #8
   27774:	4859      	ldr	r0, [pc, #356]	@ (278dc <_start+0x3380>)
   27776:	4468      	add	r0, sp
   27778:	225c      	movs	r2, #92	@ 0x5c
   2777a:	f000 f90e 	bl	2799a <__aeabi_memcpy4>
   2777e:	2c00      	cmp	r4, #0
   27780:	d001      	beq.n	27786 <_start+0x322a>
   27782:	f7fc ffe3 	bl	2474c <_start+0x1f0>
   27786:	4d5b      	ldr	r5, [pc, #364]	@ (278f4 <_start+0x3398>)
   27788:	446d      	add	r5, sp
   2778a:	990b      	ldr	r1, [sp, #44]	@ 0x2c
   2778c:	70e9      	strb	r1, [r5, #3]
   2778e:	980c      	ldr	r0, [sp, #48]	@ 0x30
   27790:	8028      	strh	r0, [r5, #0]
   27792:	0e08      	lsrs	r0, r1, #24
   27794:	71a8      	strb	r0, [r5, #6]
   27796:	0c08      	lsrs	r0, r1, #16
   27798:	7168      	strb	r0, [r5, #5]
   2779a:	0a08      	lsrs	r0, r1, #8
   2779c:	7128      	strb	r0, [r5, #4]
   2779e:	a80c      	add	r0, sp, #48	@ 0x30
   277a0:	7880      	ldrb	r0, [r0, #2]
   277a2:	70a8      	strb	r0, [r5, #2]
   277a4:	1de8      	adds	r0, r5, #7
   277a6:	494d      	ldr	r1, [pc, #308]	@ (278dc <_start+0x3380>)
   277a8:	4469      	add	r1, sp
   277aa:	225c      	movs	r2, #92	@ 0x5c
   277ac:	f000 fa55 	bl	27c5a <__aeabi_memcpy>
   277b0:	4c49      	ldr	r4, [pc, #292]	@ (278d8 <_start+0x337c>)
   277b2:	446c      	add	r4, sp
   277b4:	4620      	mov	r0, r4
   277b6:	4629      	mov	r1, r5
   277b8:	f7fa ffd6 	bl	22768 <_ZN18complex_no_dynamic3app17h658f705be991801fE>
   277bc:	7820      	ldrb	r0, [r4, #0]
   277be:	2801      	cmp	r0, #1
   277c0:	d10e      	bne.n	277e0 <_start+0x3284>
   277c2:	9909      	ldr	r1, [sp, #36]	@ 0x24
   277c4:	6e09      	ldr	r1, [r1, #96]	@ 0x60
   277c6:	910b      	str	r1, [sp, #44]	@ 0x2c
   277c8:	e022      	b.n	27810 <_start+0x32b4>
   277ca:	46c0      	nop			@ (mov r8, r8)
   277cc:	00001404 	.word	0x00001404
   277d0:	000013a8 	.word	0x000013a8
   277d4:	000011f8 	.word	0x000011f8
   277d8:	0000121c 	.word	0x0000121c
   277dc:	00001240 	.word	0x00001240
   277e0:	493d      	ldr	r1, [pc, #244]	@ (278d8 <_start+0x337c>)
   277e2:	4469      	add	r1, sp
   277e4:	78ca      	ldrb	r2, [r1, #3]
   277e6:	ab0c      	add	r3, sp, #48	@ 0x30
   277e8:	709a      	strb	r2, [r3, #2]
   277ea:	784a      	ldrb	r2, [r1, #1]
   277ec:	788c      	ldrb	r4, [r1, #2]
   277ee:	0224      	lsls	r4, r4, #8
   277f0:	18a2      	adds	r2, r4, r2
   277f2:	801a      	strh	r2, [r3, #0]
   277f4:	3108      	adds	r1, #8
   277f6:	9a09      	ldr	r2, [sp, #36]	@ 0x24
   277f8:	6e12      	ldr	r2, [r2, #96]	@ 0x60
   277fa:	920b      	str	r2, [sp, #44]	@ 0x2c
   277fc:	4a37      	ldr	r2, [pc, #220]	@ (278dc <_start+0x3380>)
   277fe:	446a      	add	r2, sp
   27800:	c938      	ldmia	r1!, {r3, r4, r5}
   27802:	c238      	stmia	r2!, {r3, r4, r5}
   27804:	c938      	ldmia	r1!, {r3, r4, r5}
   27806:	c238      	stmia	r2!, {r3, r4, r5}
   27808:	c938      	ldmia	r1!, {r3, r4, r5}
   2780a:	c238      	stmia	r2!, {r3, r4, r5}
   2780c:	7809      	ldrb	r1, [r1, #0]
   2780e:	7011      	strb	r1, [r2, #0]
   27810:	2800      	cmp	r0, #0
   27812:	d001      	beq.n	27818 <_start+0x32bc>
   27814:	f7fc ff9a 	bl	2474c <_start+0x1f0>
   27818:	4d37      	ldr	r5, [pc, #220]	@ (278f8 <_start+0x339c>)
   2781a:	446d      	add	r5, sp
   2781c:	990b      	ldr	r1, [sp, #44]	@ 0x2c
   2781e:	70e9      	strb	r1, [r5, #3]
   27820:	980c      	ldr	r0, [sp, #48]	@ 0x30
   27822:	8028      	strh	r0, [r5, #0]
   27824:	0e08      	lsrs	r0, r1, #24
   27826:	71a8      	strb	r0, [r5, #6]
   27828:	0c08      	lsrs	r0, r1, #16
   2782a:	7168      	strb	r0, [r5, #5]
   2782c:	0a08      	lsrs	r0, r1, #8
   2782e:	7128      	strb	r0, [r5, #4]
   27830:	a80c      	add	r0, sp, #48	@ 0x30
   27832:	7880      	ldrb	r0, [r0, #2]
   27834:	70a8      	strb	r0, [r5, #2]
   27836:	1de8      	adds	r0, r5, #7
   27838:	4928      	ldr	r1, [pc, #160]	@ (278dc <_start+0x3380>)
   2783a:	4469      	add	r1, sp
   2783c:	2225      	movs	r2, #37	@ 0x25
   2783e:	f000 fa0c 	bl	27c5a <__aeabi_memcpy>
   27842:	4c25      	ldr	r4, [pc, #148]	@ (278d8 <_start+0x337c>)
   27844:	446c      	add	r4, sp
   27846:	4620      	mov	r0, r4
   27848:	4629      	mov	r1, r5
   2784a:	f7fc fcbb 	bl	241c4 <_ZN18complex_no_dynamic3app17hf1395ad8977f2ae8E>
   2784e:	7820      	ldrb	r0, [r4, #0]
   27850:	2801      	cmp	r0, #1
   27852:	d103      	bne.n	2785c <_start+0x3300>
   27854:	9909      	ldr	r1, [sp, #36]	@ 0x24
   27856:	6e09      	ldr	r1, [r1, #96]	@ 0x60
   27858:	910b      	str	r1, [sp, #44]	@ 0x2c
   2785a:	e017      	b.n	2788c <_start+0x3330>
   2785c:	491e      	ldr	r1, [pc, #120]	@ (278d8 <_start+0x337c>)
   2785e:	4469      	add	r1, sp
   27860:	78ca      	ldrb	r2, [r1, #3]
   27862:	ab0c      	add	r3, sp, #48	@ 0x30
   27864:	709a      	strb	r2, [r3, #2]
   27866:	784a      	ldrb	r2, [r1, #1]
   27868:	788c      	ldrb	r4, [r1, #2]
   2786a:	0224      	lsls	r4, r4, #8
   2786c:	18a2      	adds	r2, r4, r2
   2786e:	801a      	strh	r2, [r3, #0]
   27870:	3108      	adds	r1, #8
   27872:	9a09      	ldr	r2, [sp, #36]	@ 0x24
   27874:	6e12      	ldr	r2, [r2, #96]	@ 0x60
   27876:	920b      	str	r2, [sp, #44]	@ 0x2c
   27878:	4a18      	ldr	r2, [pc, #96]	@ (278dc <_start+0x3380>)
   2787a:	446a      	add	r2, sp
   2787c:	c978      	ldmia	r1!, {r3, r4, r5, r6}
   2787e:	c278      	stmia	r2!, {r3, r4, r5, r6}
   27880:	c978      	ldmia	r1!, {r3, r4, r5, r6}
   27882:	c278      	stmia	r2!, {r3, r4, r5, r6}
   27884:	880b      	ldrh	r3, [r1, #0]
   27886:	8013      	strh	r3, [r2, #0]
   27888:	7889      	ldrb	r1, [r1, #2]
   2788a:	7091      	strb	r1, [r2, #2]
   2788c:	2800      	cmp	r0, #0
   2788e:	d001      	beq.n	27894 <_start+0x3338>
   27890:	f7fc ff5c 	bl	2474c <_start+0x1f0>
   27894:	4d19      	ldr	r5, [pc, #100]	@ (278fc <_start+0x33a0>)
   27896:	446d      	add	r5, sp
   27898:	990b      	ldr	r1, [sp, #44]	@ 0x2c
   2789a:	70e9      	strb	r1, [r5, #3]
   2789c:	980c      	ldr	r0, [sp, #48]	@ 0x30
   2789e:	8028      	strh	r0, [r5, #0]
   278a0:	0e08      	lsrs	r0, r1, #24
   278a2:	71a8      	strb	r0, [r5, #6]
   278a4:	0c08      	lsrs	r0, r1, #16
   278a6:	7168      	strb	r0, [r5, #5]
   278a8:	0a08      	lsrs	r0, r1, #8
   278aa:	7128      	strb	r0, [r5, #4]
   278ac:	a80c      	add	r0, sp, #48	@ 0x30
   278ae:	7880      	ldrb	r0, [r0, #2]
   278b0:	70a8      	strb	r0, [r5, #2]
   278b2:	1de8      	adds	r0, r5, #7
   278b4:	4909      	ldr	r1, [pc, #36]	@ (278dc <_start+0x3380>)
   278b6:	4469      	add	r1, sp
   278b8:	2223      	movs	r2, #35	@ 0x23
   278ba:	f000 f9ce 	bl	27c5a <__aeabi_memcpy>
   278be:	4c06      	ldr	r4, [pc, #24]	@ (278d8 <_start+0x337c>)
   278c0:	446c      	add	r4, sp
   278c2:	4620      	mov	r0, r4
   278c4:	4629      	mov	r1, r5
   278c6:	f7fc f9f3 	bl	23cb0 <_ZN18complex_no_dynamic3app17hd25f3f28881fd14eE>
   278ca:	7820      	ldrb	r0, [r4, #0]
   278cc:	9909      	ldr	r1, [sp, #36]	@ 0x24
   278ce:	6e09      	ldr	r1, [r1, #96]	@ 0x60
   278d0:	910b      	str	r1, [sp, #44]	@ 0x2c
   278d2:	f7fc ff3c 	bl	2474e <_start+0x1f2>
   278d6:	46c0      	nop			@ (mov r8, r8)
   278d8:	00001404 	.word	0x00001404
   278dc:	000013a8 	.word	0x000013a8
   278e0:	00001270 	.word	0x00001270
   278e4:	000012d0 	.word	0x000012d0
   278e8:	00001328 	.word	0x00001328
   278ec:	0000133c 	.word	0x0000133c
   278f0:	0000138c 	.word	0x0000138c
   278f4:	00001468 	.word	0x00001468
   278f8:	000014cc 	.word	0x000014cc
   278fc:	000014f8 	.word	0x000014f8

00027900 <__aeabi_memclr4>:
   27900:	b5f0      	push	{r4, r5, r6, r7, lr}
   27902:	af03      	add	r7, sp, #12
   27904:	2904      	cmp	r1, #4
   27906:	d311      	bcc.n	2792c <__aeabi_memclr4+0x2c>
   27908:	1f0c      	subs	r4, r1, #4
   2790a:	250c      	movs	r5, #12
   2790c:	4025      	ands	r5, r4
   2790e:	2d0c      	cmp	r5, #12
   27910:	d012      	beq.n	27938 <__aeabi_memclr4+0x38>
   27912:	2600      	movs	r6, #0
   27914:	4602      	mov	r2, r0
   27916:	c240      	stmia	r2!, {r6}
   27918:	0723      	lsls	r3, r4, #28
   2791a:	0f9b      	lsrs	r3, r3, #30
   2791c:	4623      	mov	r3, r4
   2791e:	d00d      	beq.n	2793c <__aeabi_memclr4+0x3c>
   27920:	6046      	str	r6, [r0, #4]
   27922:	2d04      	cmp	r5, #4
   27924:	d105      	bne.n	27932 <__aeabi_memclr4+0x32>
   27926:	3908      	subs	r1, #8
   27928:	3008      	adds	r0, #8
   2792a:	e005      	b.n	27938 <__aeabi_memclr4+0x38>
   2792c:	460b      	mov	r3, r1
   2792e:	4602      	mov	r2, r0
   27930:	e00f      	b.n	27952 <__aeabi_memclr4+0x52>
   27932:	6086      	str	r6, [r0, #8]
   27934:	390c      	subs	r1, #12
   27936:	300c      	adds	r0, #12
   27938:	4602      	mov	r2, r0
   2793a:	460b      	mov	r3, r1
   2793c:	2c0c      	cmp	r4, #12
   2793e:	d308      	bcc.n	27952 <__aeabi_memclr4+0x52>
   27940:	2000      	movs	r0, #0
   27942:	6010      	str	r0, [r2, #0]
   27944:	6050      	str	r0, [r2, #4]
   27946:	6090      	str	r0, [r2, #8]
   27948:	60d0      	str	r0, [r2, #12]
   2794a:	3210      	adds	r2, #16
   2794c:	3b10      	subs	r3, #16
   2794e:	2b03      	cmp	r3, #3
   27950:	d8f6      	bhi.n	27940 <__aeabi_memclr4+0x40>
   27952:	18d0      	adds	r0, r2, r3
   27954:	4282      	cmp	r2, r0
   27956:	d21a      	bcs.n	2798e <__aeabi_memclr4+0x8e>
   27958:	2403      	movs	r4, #3
   2795a:	401c      	ands	r4, r3
   2795c:	1e59      	subs	r1, r3, #1
   2795e:	2c00      	cmp	r4, #0
   27960:	d00b      	beq.n	2797a <__aeabi_memclr4+0x7a>
   27962:	2300      	movs	r3, #0
   27964:	7013      	strb	r3, [r2, #0]
   27966:	2c01      	cmp	r4, #1
   27968:	d103      	bne.n	27972 <__aeabi_memclr4+0x72>
   2796a:	1c52      	adds	r2, r2, #1
   2796c:	2903      	cmp	r1, #3
   2796e:	d206      	bcs.n	2797e <__aeabi_memclr4+0x7e>
   27970:	e00d      	b.n	2798e <__aeabi_memclr4+0x8e>
   27972:	7053      	strb	r3, [r2, #1]
   27974:	2c02      	cmp	r4, #2
   27976:	d10b      	bne.n	27990 <__aeabi_memclr4+0x90>
   27978:	1c92      	adds	r2, r2, #2
   2797a:	2903      	cmp	r1, #3
   2797c:	d307      	bcc.n	2798e <__aeabi_memclr4+0x8e>
   2797e:	2100      	movs	r1, #0
   27980:	70d1      	strb	r1, [r2, #3]
   27982:	7091      	strb	r1, [r2, #2]
   27984:	7051      	strb	r1, [r2, #1]
   27986:	7011      	strb	r1, [r2, #0]
   27988:	1d12      	adds	r2, r2, #4
   2798a:	4282      	cmp	r2, r0
   2798c:	d1f7      	bne.n	2797e <__aeabi_memclr4+0x7e>
   2798e:	bdf0      	pop	{r4, r5, r6, r7, pc}
   27990:	7093      	strb	r3, [r2, #2]
   27992:	1cd2      	adds	r2, r2, #3
   27994:	2903      	cmp	r1, #3
   27996:	d2f2      	bcs.n	2797e <__aeabi_memclr4+0x7e>
   27998:	e7f9      	b.n	2798e <__aeabi_memclr4+0x8e>

0002799a <__aeabi_memcpy4>:
   2799a:	b5f0      	push	{r4, r5, r6, r7, lr}
   2799c:	af03      	add	r7, sp, #12
   2799e:	b081      	sub	sp, #4
   279a0:	2a04      	cmp	r2, #4
   279a2:	d32d      	bcc.n	27a00 <__aeabi_memcpy4+0x66>
   279a4:	1f13      	subs	r3, r2, #4
   279a6:	250c      	movs	r5, #12
   279a8:	401d      	ands	r5, r3
   279aa:	2d0c      	cmp	r5, #12
   279ac:	d019      	beq.n	279e2 <__aeabi_memcpy4+0x48>
   279ae:	9200      	str	r2, [sp, #0]
   279b0:	460e      	mov	r6, r1
   279b2:	c904      	ldmia	r1!, {r2}
   279b4:	4604      	mov	r4, r0
   279b6:	c004      	stmia	r0!, {r2}
   279b8:	071a      	lsls	r2, r3, #28
   279ba:	0f92      	lsrs	r2, r2, #30
   279bc:	461a      	mov	r2, r3
   279be:	d010      	beq.n	279e2 <__aeabi_memcpy4+0x48>
   279c0:	4631      	mov	r1, r6
   279c2:	6872      	ldr	r2, [r6, #4]
   279c4:	6062      	str	r2, [r4, #4]
   279c6:	2d04      	cmp	r5, #4
   279c8:	d104      	bne.n	279d4 <__aeabi_memcpy4+0x3a>
   279ca:	9a00      	ldr	r2, [sp, #0]
   279cc:	3a08      	subs	r2, #8
   279ce:	3108      	adds	r1, #8
   279d0:	3408      	adds	r4, #8
   279d2:	e005      	b.n	279e0 <__aeabi_memcpy4+0x46>
   279d4:	688a      	ldr	r2, [r1, #8]
   279d6:	60a2      	str	r2, [r4, #8]
   279d8:	9a00      	ldr	r2, [sp, #0]
   279da:	3a0c      	subs	r2, #12
   279dc:	310c      	adds	r1, #12
   279de:	340c      	adds	r4, #12
   279e0:	4620      	mov	r0, r4
   279e2:	2b0c      	cmp	r3, #12
   279e4:	d30c      	bcc.n	27a00 <__aeabi_memcpy4+0x66>
   279e6:	680b      	ldr	r3, [r1, #0]
   279e8:	6003      	str	r3, [r0, #0]
   279ea:	684b      	ldr	r3, [r1, #4]
   279ec:	6043      	str	r3, [r0, #4]
   279ee:	688b      	ldr	r3, [r1, #8]
   279f0:	6083      	str	r3, [r0, #8]
   279f2:	68cb      	ldr	r3, [r1, #12]
   279f4:	60c3      	str	r3, [r0, #12]
   279f6:	3110      	adds	r1, #16
   279f8:	3010      	adds	r0, #16
   279fa:	3a10      	subs	r2, #16
   279fc:	2a03      	cmp	r2, #3
   279fe:	d8f2      	bhi.n	279e6 <__aeabi_memcpy4+0x4c>
   27a00:	f000 f802 	bl	27a08 <_ZN17compiler_builtins3mem6memcpy17h1f9dbb1c3fd18e2fE>
   27a04:	b001      	add	sp, #4
   27a06:	bdf0      	pop	{r4, r5, r6, r7, pc}

00027a08 <_ZN17compiler_builtins3mem6memcpy17h1f9dbb1c3fd18e2fE>:
   27a08:	b5f0      	push	{r4, r5, r6, r7, lr}
   27a0a:	af03      	add	r7, sp, #12
   27a0c:	b08f      	sub	sp, #60	@ 0x3c
   27a0e:	2a10      	cmp	r2, #16
   27a10:	d315      	bcc.n	27a3e <_ZN17compiler_builtins3mem6memcpy17h1f9dbb1c3fd18e2fE+0x36>
   27a12:	920b      	str	r2, [sp, #44]	@ 0x2c
   27a14:	4242      	negs	r2, r0
   27a16:	2303      	movs	r3, #3
   27a18:	9308      	str	r3, [sp, #32]
   27a1a:	401a      	ands	r2, r3
   27a1c:	1885      	adds	r5, r0, r2
   27a1e:	900a      	str	r0, [sp, #40]	@ 0x28
   27a20:	42a8      	cmp	r0, r5
   27a22:	d22a      	bcs.n	27a7a <_ZN17compiler_builtins3mem6memcpy17h1f9dbb1c3fd18e2fE+0x72>
   27a24:	1e54      	subs	r4, r2, #1
   27a26:	2a00      	cmp	r2, #0
   27a28:	980a      	ldr	r0, [sp, #40]	@ 0x28
   27a2a:	4606      	mov	r6, r0
   27a2c:	460b      	mov	r3, r1
   27a2e:	d016      	beq.n	27a5e <_ZN17compiler_builtins3mem6memcpy17h1f9dbb1c3fd18e2fE+0x56>
   27a30:	780b      	ldrb	r3, [r1, #0]
   27a32:	7003      	strb	r3, [r0, #0]
   27a34:	2a01      	cmp	r2, #1
   27a36:	d107      	bne.n	27a48 <_ZN17compiler_builtins3mem6memcpy17h1f9dbb1c3fd18e2fE+0x40>
   27a38:	1c4b      	adds	r3, r1, #1
   27a3a:	1c46      	adds	r6, r0, #1
   27a3c:	e00f      	b.n	27a5e <_ZN17compiler_builtins3mem6memcpy17h1f9dbb1c3fd18e2fE+0x56>
   27a3e:	4603      	mov	r3, r0
   27a40:	189c      	adds	r4, r3, r2
   27a42:	42a3      	cmp	r3, r4
   27a44:	d341      	bcc.n	27aca <_ZN17compiler_builtins3mem6memcpy17h1f9dbb1c3fd18e2fE+0xc2>
   27a46:	e062      	b.n	27b0e <_ZN17compiler_builtins3mem6memcpy17h1f9dbb1c3fd18e2fE+0x106>
   27a48:	784b      	ldrb	r3, [r1, #1]
   27a4a:	7043      	strb	r3, [r0, #1]
   27a4c:	2a02      	cmp	r2, #2
   27a4e:	d102      	bne.n	27a56 <_ZN17compiler_builtins3mem6memcpy17h1f9dbb1c3fd18e2fE+0x4e>
   27a50:	1c8b      	adds	r3, r1, #2
   27a52:	1c86      	adds	r6, r0, #2
   27a54:	e003      	b.n	27a5e <_ZN17compiler_builtins3mem6memcpy17h1f9dbb1c3fd18e2fE+0x56>
   27a56:	788b      	ldrb	r3, [r1, #2]
   27a58:	7083      	strb	r3, [r0, #2]
   27a5a:	1ccb      	adds	r3, r1, #3
   27a5c:	1cc6      	adds	r6, r0, #3
   27a5e:	2c03      	cmp	r4, #3
   27a60:	d30b      	bcc.n	27a7a <_ZN17compiler_builtins3mem6memcpy17h1f9dbb1c3fd18e2fE+0x72>
   27a62:	781c      	ldrb	r4, [r3, #0]
   27a64:	7034      	strb	r4, [r6, #0]
   27a66:	785c      	ldrb	r4, [r3, #1]
   27a68:	7074      	strb	r4, [r6, #1]
   27a6a:	789c      	ldrb	r4, [r3, #2]
   27a6c:	70b4      	strb	r4, [r6, #2]
   27a6e:	78dc      	ldrb	r4, [r3, #3]
   27a70:	70f4      	strb	r4, [r6, #3]
   27a72:	1d1b      	adds	r3, r3, #4
   27a74:	1d36      	adds	r6, r6, #4
   27a76:	42ae      	cmp	r6, r5
   27a78:	d1f3      	bne.n	27a62 <_ZN17compiler_builtins3mem6memcpy17h1f9dbb1c3fd18e2fE+0x5a>
   27a7a:	980b      	ldr	r0, [sp, #44]	@ 0x2c
   27a7c:	1a80      	subs	r0, r0, r2
   27a7e:	900b      	str	r0, [sp, #44]	@ 0x2c
   27a80:	9c08      	ldr	r4, [sp, #32]
   27a82:	43a0      	bics	r0, r4
   27a84:	182b      	adds	r3, r5, r0
   27a86:	188e      	adds	r6, r1, r2
   27a88:	9609      	str	r6, [sp, #36]	@ 0x24
   27a8a:	4026      	ands	r6, r4
   27a8c:	9007      	str	r0, [sp, #28]
   27a8e:	d147      	bne.n	27b20 <_ZN17compiler_builtins3mem6memcpy17h1f9dbb1c3fd18e2fE+0x118>
   27a90:	429d      	cmp	r5, r3
   27a92:	9a0b      	ldr	r2, [sp, #44]	@ 0x2c
   27a94:	9e09      	ldr	r6, [sp, #36]	@ 0x24
   27a96:	d211      	bcs.n	27abc <_ZN17compiler_builtins3mem6memcpy17h1f9dbb1c3fd18e2fE+0xb4>
   27a98:	4631      	mov	r1, r6
   27a9a:	6808      	ldr	r0, [r1, #0]
   27a9c:	c501      	stmia	r5!, {r0}
   27a9e:	429d      	cmp	r5, r3
   27aa0:	d20c      	bcs.n	27abc <_ZN17compiler_builtins3mem6memcpy17h1f9dbb1c3fd18e2fE+0xb4>
   27aa2:	6848      	ldr	r0, [r1, #4]
   27aa4:	c501      	stmia	r5!, {r0}
   27aa6:	429d      	cmp	r5, r3
   27aa8:	d208      	bcs.n	27abc <_ZN17compiler_builtins3mem6memcpy17h1f9dbb1c3fd18e2fE+0xb4>
   27aaa:	6888      	ldr	r0, [r1, #8]
   27aac:	c501      	stmia	r5!, {r0}
   27aae:	429d      	cmp	r5, r3
   27ab0:	d204      	bcs.n	27abc <_ZN17compiler_builtins3mem6memcpy17h1f9dbb1c3fd18e2fE+0xb4>
   27ab2:	68c8      	ldr	r0, [r1, #12]
   27ab4:	c501      	stmia	r5!, {r0}
   27ab6:	3110      	adds	r1, #16
   27ab8:	429d      	cmp	r5, r3
   27aba:	d3ee      	bcc.n	27a9a <_ZN17compiler_builtins3mem6memcpy17h1f9dbb1c3fd18e2fE+0x92>
   27abc:	4022      	ands	r2, r4
   27abe:	9807      	ldr	r0, [sp, #28]
   27ac0:	1831      	adds	r1, r6, r0
   27ac2:	980a      	ldr	r0, [sp, #40]	@ 0x28
   27ac4:	189c      	adds	r4, r3, r2
   27ac6:	42a3      	cmp	r3, r4
   27ac8:	d221      	bcs.n	27b0e <_ZN17compiler_builtins3mem6memcpy17h1f9dbb1c3fd18e2fE+0x106>
   27aca:	2503      	movs	r5, #3
   27acc:	4015      	ands	r5, r2
   27ace:	1e52      	subs	r2, r2, #1
   27ad0:	2d00      	cmp	r5, #0
   27ad2:	d00e      	beq.n	27af2 <_ZN17compiler_builtins3mem6memcpy17h1f9dbb1c3fd18e2fE+0xea>
   27ad4:	780e      	ldrb	r6, [r1, #0]
   27ad6:	701e      	strb	r6, [r3, #0]
   27ad8:	2d01      	cmp	r5, #1
   27ada:	d104      	bne.n	27ae6 <_ZN17compiler_builtins3mem6memcpy17h1f9dbb1c3fd18e2fE+0xde>
   27adc:	1c49      	adds	r1, r1, #1
   27ade:	1c5b      	adds	r3, r3, #1
   27ae0:	2a03      	cmp	r2, #3
   27ae2:	d208      	bcs.n	27af6 <_ZN17compiler_builtins3mem6memcpy17h1f9dbb1c3fd18e2fE+0xee>
   27ae4:	e013      	b.n	27b0e <_ZN17compiler_builtins3mem6memcpy17h1f9dbb1c3fd18e2fE+0x106>
   27ae6:	784e      	ldrb	r6, [r1, #1]
   27ae8:	705e      	strb	r6, [r3, #1]
   27aea:	2d02      	cmp	r5, #2
   27aec:	d111      	bne.n	27b12 <_ZN17compiler_builtins3mem6memcpy17h1f9dbb1c3fd18e2fE+0x10a>
   27aee:	1c89      	adds	r1, r1, #2
   27af0:	1c9b      	adds	r3, r3, #2
   27af2:	2a03      	cmp	r2, #3
   27af4:	d30b      	bcc.n	27b0e <_ZN17compiler_builtins3mem6memcpy17h1f9dbb1c3fd18e2fE+0x106>
   27af6:	780a      	ldrb	r2, [r1, #0]
   27af8:	701a      	strb	r2, [r3, #0]
   27afa:	784a      	ldrb	r2, [r1, #1]
   27afc:	705a      	strb	r2, [r3, #1]
   27afe:	788a      	ldrb	r2, [r1, #2]
   27b00:	709a      	strb	r2, [r3, #2]
   27b02:	78ca      	ldrb	r2, [r1, #3]
   27b04:	70da      	strb	r2, [r3, #3]
   27b06:	1d09      	adds	r1, r1, #4
   27b08:	1d1b      	adds	r3, r3, #4
   27b0a:	42a3      	cmp	r3, r4
   27b0c:	d1f3      	bne.n	27af6 <_ZN17compiler_builtins3mem6memcpy17h1f9dbb1c3fd18e2fE+0xee>
   27b0e:	b00f      	add	sp, #60	@ 0x3c
   27b10:	bdf0      	pop	{r4, r5, r6, r7, pc}
   27b12:	788d      	ldrb	r5, [r1, #2]
   27b14:	709d      	strb	r5, [r3, #2]
   27b16:	1cc9      	adds	r1, r1, #3
   27b18:	1cdb      	adds	r3, r3, #3
   27b1a:	2a03      	cmp	r2, #3
   27b1c:	d2eb      	bcs.n	27af6 <_ZN17compiler_builtins3mem6memcpy17h1f9dbb1c3fd18e2fE+0xee>
   27b1e:	e7f6      	b.n	27b0e <_ZN17compiler_builtins3mem6memcpy17h1f9dbb1c3fd18e2fE+0x106>
   27b20:	2400      	movs	r4, #0
   27b22:	9406      	str	r4, [sp, #24]
   27b24:	940e      	str	r4, [sp, #56]	@ 0x38
   27b26:	ac0e      	add	r4, sp, #56	@ 0x38
   27b28:	19a4      	adds	r4, r4, r6
   27b2a:	9405      	str	r4, [sp, #20]
   27b2c:	2404      	movs	r4, #4
   27b2e:	1ba4      	subs	r4, r4, r6
   27b30:	9404      	str	r4, [sp, #16]
   27b32:	07e4      	lsls	r4, r4, #31
   27b34:	9600      	str	r6, [sp, #0]
   27b36:	d006      	beq.n	27b46 <_ZN17compiler_builtins3mem6memcpy17h1f9dbb1c3fd18e2fE+0x13e>
   27b38:	9c09      	ldr	r4, [sp, #36]	@ 0x24
   27b3a:	7824      	ldrb	r4, [r4, #0]
   27b3c:	9e05      	ldr	r6, [sp, #20]
   27b3e:	7034      	strb	r4, [r6, #0]
   27b40:	9e00      	ldr	r6, [sp, #0]
   27b42:	2401      	movs	r4, #1
   27b44:	9406      	str	r4, [sp, #24]
   27b46:	9c04      	ldr	r4, [sp, #16]
   27b48:	07a4      	lsls	r4, r4, #30
   27b4a:	d508      	bpl.n	27b5e <_ZN17compiler_builtins3mem6memcpy17h1f9dbb1c3fd18e2fE+0x156>
   27b4c:	9c09      	ldr	r4, [sp, #36]	@ 0x24
   27b4e:	9204      	str	r2, [sp, #16]
   27b50:	9a06      	ldr	r2, [sp, #24]
   27b52:	5aa4      	ldrh	r4, [r4, r2]
   27b54:	9e05      	ldr	r6, [sp, #20]
   27b56:	9a06      	ldr	r2, [sp, #24]
   27b58:	52b4      	strh	r4, [r6, r2]
   27b5a:	9a04      	ldr	r2, [sp, #16]
   27b5c:	9e00      	ldr	r6, [sp, #0]
   27b5e:	00f4      	lsls	r4, r6, #3
   27b60:	9403      	str	r4, [sp, #12]
   27b62:	9c0e      	ldr	r4, [sp, #56]	@ 0x38
   27b64:	9406      	str	r4, [sp, #24]
   27b66:	1d2c      	adds	r4, r5, #4
   27b68:	429c      	cmp	r4, r3
   27b6a:	d236      	bcs.n	27bda <_ZN17compiler_builtins3mem6memcpy17h1f9dbb1c3fd18e2fE+0x1d2>
   27b6c:	4274      	negs	r4, r6
   27b6e:	1909      	adds	r1, r1, r4
   27b70:	9105      	str	r1, [sp, #20]
   27b72:	9d03      	ldr	r5, [sp, #12]
   27b74:	4269      	negs	r1, r5
   27b76:	2418      	movs	r4, #24
   27b78:	400c      	ands	r4, r1
   27b7a:	9402      	str	r4, [sp, #8]
   27b7c:	990a      	ldr	r1, [sp, #40]	@ 0x28
   27b7e:	9104      	str	r1, [sp, #16]
   27b80:	4629      	mov	r1, r5
   27b82:	9c06      	ldr	r4, [sp, #24]
   27b84:	40cc      	lsrs	r4, r1
   27b86:	9406      	str	r4, [sp, #24]
   27b88:	9905      	ldr	r1, [sp, #20]
   27b8a:	1889      	adds	r1, r1, r2
   27b8c:	9101      	str	r1, [sp, #4]
   27b8e:	6849      	ldr	r1, [r1, #4]
   27b90:	460c      	mov	r4, r1
   27b92:	9d02      	ldr	r5, [sp, #8]
   27b94:	40ac      	lsls	r4, r5
   27b96:	9d06      	ldr	r5, [sp, #24]
   27b98:	432c      	orrs	r4, r5
   27b9a:	9d04      	ldr	r5, [sp, #16]
   27b9c:	50ac      	str	r4, [r5, r2]
   27b9e:	18ad      	adds	r5, r5, r2
   27ba0:	462c      	mov	r4, r5
   27ba2:	3408      	adds	r4, #8
   27ba4:	429c      	cmp	r4, r3
   27ba6:	d21c      	bcs.n	27be2 <_ZN17compiler_builtins3mem6memcpy17h1f9dbb1c3fd18e2fE+0x1da>
   27ba8:	9c03      	ldr	r4, [sp, #12]
   27baa:	40e1      	lsrs	r1, r4
   27bac:	9c01      	ldr	r4, [sp, #4]
   27bae:	68a4      	ldr	r4, [r4, #8]
   27bb0:	9406      	str	r4, [sp, #24]
   27bb2:	9501      	str	r5, [sp, #4]
   27bb4:	9d02      	ldr	r5, [sp, #8]
   27bb6:	40ac      	lsls	r4, r5
   27bb8:	430c      	orrs	r4, r1
   27bba:	9901      	ldr	r1, [sp, #4]
   27bbc:	604c      	str	r4, [r1, #4]
   27bbe:	9904      	ldr	r1, [sp, #16]
   27bc0:	3108      	adds	r1, #8
   27bc2:	9104      	str	r1, [sp, #16]
   27bc4:	188d      	adds	r5, r1, r2
   27bc6:	1d29      	adds	r1, r5, #4
   27bc8:	9c05      	ldr	r4, [sp, #20]
   27bca:	3408      	adds	r4, #8
   27bcc:	9405      	str	r4, [sp, #20]
   27bce:	4299      	cmp	r1, r3
   27bd0:	9903      	ldr	r1, [sp, #12]
   27bd2:	d3d6      	bcc.n	27b82 <_ZN17compiler_builtins3mem6memcpy17h1f9dbb1c3fd18e2fE+0x17a>
   27bd4:	9805      	ldr	r0, [sp, #20]
   27bd6:	1880      	adds	r0, r0, r2
   27bd8:	e001      	b.n	27bde <_ZN17compiler_builtins3mem6memcpy17h1f9dbb1c3fd18e2fE+0x1d6>
   27bda:	9809      	ldr	r0, [sp, #36]	@ 0x24
   27bdc:	1b80      	subs	r0, r0, r6
   27bde:	9005      	str	r0, [sp, #20]
   27be0:	e004      	b.n	27bec <_ZN17compiler_builtins3mem6memcpy17h1f9dbb1c3fd18e2fE+0x1e4>
   27be2:	9801      	ldr	r0, [sp, #4]
   27be4:	1d00      	adds	r0, r0, #4
   27be6:	9005      	str	r0, [sp, #20]
   27be8:	1d2d      	adds	r5, r5, #4
   27bea:	9106      	str	r1, [sp, #24]
   27bec:	a80d      	add	r0, sp, #52	@ 0x34
   27bee:	2100      	movs	r1, #0
   27bf0:	9004      	str	r0, [sp, #16]
   27bf2:	7001      	strb	r1, [r0, #0]
   27bf4:	a80c      	add	r0, sp, #48	@ 0x30
   27bf6:	7001      	strb	r1, [r0, #0]
   27bf8:	2e01      	cmp	r6, #1
   27bfa:	460e      	mov	r6, r1
   27bfc:	460c      	mov	r4, r1
   27bfe:	9102      	str	r1, [sp, #8]
   27c00:	9a0b      	ldr	r2, [sp, #44]	@ 0x2c
   27c02:	d009      	beq.n	27c18 <_ZN17compiler_builtins3mem6memcpy17h1f9dbb1c3fd18e2fE+0x210>
   27c04:	9c05      	ldr	r4, [sp, #20]
   27c06:	7960      	ldrb	r0, [r4, #5]
   27c08:	7926      	ldrb	r6, [r4, #4]
   27c0a:	ac0d      	add	r4, sp, #52	@ 0x34
   27c0c:	7026      	strb	r6, [r4, #0]
   27c0e:	0204      	lsls	r4, r0, #8
   27c10:	2002      	movs	r0, #2
   27c12:	9002      	str	r0, [sp, #8]
   27c14:	a80c      	add	r0, sp, #48	@ 0x30
   27c16:	9004      	str	r0, [sp, #16]
   27c18:	9809      	ldr	r0, [sp, #36]	@ 0x24
   27c1a:	07c0      	lsls	r0, r0, #31
   27c1c:	d00a      	beq.n	27c34 <_ZN17compiler_builtins3mem6memcpy17h1f9dbb1c3fd18e2fE+0x22c>
   27c1e:	9805      	ldr	r0, [sp, #20]
   27c20:	1d00      	adds	r0, r0, #4
   27c22:	9902      	ldr	r1, [sp, #8]
   27c24:	5c40      	ldrb	r0, [r0, r1]
   27c26:	9904      	ldr	r1, [sp, #16]
   27c28:	7008      	strb	r0, [r1, #0]
   27c2a:	a80d      	add	r0, sp, #52	@ 0x34
   27c2c:	7806      	ldrb	r6, [r0, #0]
   27c2e:	a80c      	add	r0, sp, #48	@ 0x30
   27c30:	7800      	ldrb	r0, [r0, #0]
   27c32:	0401      	lsls	r1, r0, #16
   27c34:	9605      	str	r6, [sp, #20]
   27c36:	9803      	ldr	r0, [sp, #12]
   27c38:	4240      	negs	r0, r0
   27c3a:	9004      	str	r0, [sp, #16]
   27c3c:	2618      	movs	r6, #24
   27c3e:	9804      	ldr	r0, [sp, #16]
   27c40:	4006      	ands	r6, r0
   27c42:	430c      	orrs	r4, r1
   27c44:	9905      	ldr	r1, [sp, #20]
   27c46:	430c      	orrs	r4, r1
   27c48:	40b4      	lsls	r4, r6
   27c4a:	9906      	ldr	r1, [sp, #24]
   27c4c:	9803      	ldr	r0, [sp, #12]
   27c4e:	40c1      	lsrs	r1, r0
   27c50:	4321      	orrs	r1, r4
   27c52:	6029      	str	r1, [r5, #0]
   27c54:	9c08      	ldr	r4, [sp, #32]
   27c56:	9e09      	ldr	r6, [sp, #36]	@ 0x24
   27c58:	e730      	b.n	27abc <_ZN17compiler_builtins3mem6memcpy17h1f9dbb1c3fd18e2fE+0xb4>

00027c5a <__aeabi_memcpy>:
   27c5a:	b580      	push	{r7, lr}
   27c5c:	af00      	add	r7, sp, #0
   27c5e:	f7ff fed3 	bl	27a08 <_ZN17compiler_builtins3mem6memcpy17h1f9dbb1c3fd18e2fE>
   27c62:	bd80      	pop	{r7, pc}
