
target/thumbv6m-none-eabi/opt-1/examples/complex_dynamic_type:     file format elf32-littlearm

Sections:
Idx Name          Size      VMA       LMA       File off  Algn
  0 .ARM.exidx    00000010  000100d4  000100d4  000000d4  2**2
                  CONTENTS, ALLOC, LOAD, READONLY, DATA
  1 .rodata       00000b60  000100e4  000100e4  000000e4  2**0
                  CONTENTS, ALLOC, LOAD, READONLY, DATA
  2 .text         0000aa10  00020c44  00020c44  00000c44  2**2
                  CONTENTS, ALLOC, LOAD, READONLY, CODE
  3 .comment      00000099  00000000  00000000  0000b654  2**0
                  CONTENTS, READONLY
  4 .ARM.attributes 00000032  00000000  00000000  0000b6ed  2**0
                  CONTENTS, READONLY

Disassembly of section .text:

00020c44 <_ZN20complex_dynamic_type3app17h03b484af11d2d891E>:
   20c44:	b5f0      	push	{r4, r5, r6, r7, lr}
   20c46:	af03      	add	r7, sp, #12
   20c48:	b0af      	sub	sp, #188	@ 0xbc
   20c4a:	9006      	str	r0, [sp, #24]
   20c4c:	a807      	add	r0, sp, #28
   20c4e:	2402      	movs	r4, #2
   20c50:	7004      	strb	r4, [r0, #0]
   20c52:	1c40      	adds	r0, r0, #1
   20c54:	9004      	str	r0, [sp, #16]
   20c56:	262f      	movs	r6, #47	@ 0x2f
   20c58:	4632      	mov	r2, r6
   20c5a:	f00a fcf6 	bl	2b64a <__aeabi_memcpy>
   20c5e:	ad13      	add	r5, sp, #76	@ 0x4c
   20c60:	1c68      	adds	r0, r5, #1
   20c62:	215e      	movs	r1, #94	@ 0x5e
   20c64:	9005      	str	r0, [sp, #20]
   20c66:	9103      	str	r1, [sp, #12]
   20c68:	f00a fb2f 	bl	2b2ca <__aeabi_memclr>
   20c6c:	702c      	strb	r4, [r5, #0]
   20c6e:	2404      	movs	r4, #4
   20c70:	9600      	str	r6, [sp, #0]
   20c72:	9401      	str	r4, [sp, #4]
   20c74:	a82b      	add	r0, sp, #172	@ 0xac
   20c76:	4e3d      	ldr	r6, [pc, #244]	@ (20d6c <_ZN20complex_dynamic_type3app17h03b484af11d2d891E+0x128>)
   20c78:	2205      	movs	r2, #5
   20c7a:	4631      	mov	r1, r6
   20c7c:	9b04      	ldr	r3, [sp, #16]
   20c7e:	f00a fb0c 	bl	2b29a <_ZN9allow_pin13dynamic_allow17h8bfd3764c146b81aE>
   20c82:	982b      	ldr	r0, [sp, #172]	@ 0xac
   20c84:	2802      	cmp	r0, #2
   20c86:	d101      	bne.n	20c8c <_ZN20complex_dynamic_type3app17h03b484af11d2d891E+0x48>
   20c88:	992c      	ldr	r1, [sp, #176]	@ 0xb0
   20c8a:	e001      	b.n	20c90 <_ZN20complex_dynamic_type3app17h03b484af11d2d891E+0x4c>
   20c8c:	a907      	add	r1, sp, #28
   20c8e:	700c      	strb	r4, [r1, #0]
   20c90:	2501      	movs	r5, #1
   20c92:	2802      	cmp	r0, #2
   20c94:	d016      	beq.n	20cc4 <_ZN20complex_dynamic_type3app17h03b484af11d2d891E+0x80>
   20c96:	a813      	add	r0, sp, #76	@ 0x4c
   20c98:	7800      	ldrb	r0, [r0, #0]
   20c9a:	2802      	cmp	r0, #2
   20c9c:	d10e      	bne.n	20cbc <_ZN20complex_dynamic_type3app17h03b484af11d2d891E+0x78>
   20c9e:	2403      	movs	r4, #3
   20ca0:	9803      	ldr	r0, [sp, #12]
   20ca2:	9000      	str	r0, [sp, #0]
   20ca4:	9401      	str	r4, [sp, #4]
   20ca6:	a82b      	add	r0, sp, #172	@ 0xac
   20ca8:	2202      	movs	r2, #2
   20caa:	4631      	mov	r1, r6
   20cac:	9b05      	ldr	r3, [sp, #20]
   20cae:	f00a faf4 	bl	2b29a <_ZN9allow_pin13dynamic_allow17h8bfd3764c146b81aE>
   20cb2:	982b      	ldr	r0, [sp, #172]	@ 0xac
   20cb4:	2802      	cmp	r0, #2
   20cb6:	d113      	bne.n	20ce0 <_ZN20complex_dynamic_type3app17h03b484af11d2d891E+0x9c>
   20cb8:	992c      	ldr	r1, [sp, #176]	@ 0xb0
   20cba:	e000      	b.n	20cbe <_ZN20complex_dynamic_type3app17h03b484af11d2d891E+0x7a>
   20cbc:	2103      	movs	r1, #3
   20cbe:	4628      	mov	r0, r5
   20cc0:	2800      	cmp	r0, #0
   20cc2:	d012      	beq.n	20cea <_ZN20complex_dynamic_type3app17h03b484af11d2d891E+0xa6>
   20cc4:	462c      	mov	r4, r5
   20cc6:	2c00      	cmp	r4, #0
   20cc8:	d031      	beq.n	20d2e <_ZN20complex_dynamic_type3app17h03b484af11d2d891E+0xea>
   20cca:	2001      	movs	r0, #1
   20ccc:	9a06      	ldr	r2, [sp, #24]
   20cce:	7010      	strb	r0, [r2, #0]
   20cd0:	6051      	str	r1, [r2, #4]
   20cd2:	a813      	add	r0, sp, #76	@ 0x4c
   20cd4:	7802      	ldrb	r2, [r0, #0]
   20cd6:	2a02      	cmp	r2, #2
   20cd8:	d03e      	beq.n	20d58 <_ZN20complex_dynamic_type3app17h03b484af11d2d891E+0x114>
   20cda:	2102      	movs	r1, #2
   20cdc:	4630      	mov	r0, r6
   20cde:	e039      	b.n	20d54 <_ZN20complex_dynamic_type3app17h03b484af11d2d891E+0x110>
   20ce0:	a813      	add	r0, sp, #76	@ 0x4c
   20ce2:	7004      	strb	r4, [r0, #0]
   20ce4:	2000      	movs	r0, #0
   20ce6:	2800      	cmp	r0, #0
   20ce8:	d1ec      	bne.n	20cc4 <_ZN20complex_dynamic_type3app17h03b484af11d2d891E+0x80>
   20cea:	4820      	ldr	r0, [pc, #128]	@ (20d6c <_ZN20complex_dynamic_type3app17h03b484af11d2d891E+0x128>)
   20cec:	2105      	movs	r1, #5
   20cee:	2202      	movs	r2, #2
   20cf0:	2400      	movs	r4, #0
   20cf2:	4616      	mov	r6, r2
   20cf4:	4623      	mov	r3, r4
   20cf6:	df02      	svc	2
   20cf8:	287f      	cmp	r0, #127	@ 0x7f
   20cfa:	d801      	bhi.n	20d00 <_ZN20complex_dynamic_type3app17h03b484af11d2d891E+0xbc>
   20cfc:	462c      	mov	r4, r5
   20cfe:	e013      	b.n	20d28 <_ZN20complex_dynamic_type3app17h03b484af11d2d891E+0xe4>
   20d00:	a807      	add	r0, sp, #28
   20d02:	7802      	ldrb	r2, [r0, #0]
   20d04:	2a02      	cmp	r2, #2
   20d06:	d003      	beq.n	20d10 <_ZN20complex_dynamic_type3app17h03b484af11d2d891E+0xcc>
   20d08:	2105      	movs	r1, #5
   20d0a:	4818      	ldr	r0, [pc, #96]	@ (20d6c <_ZN20complex_dynamic_type3app17h03b484af11d2d891E+0x128>)
   20d0c:	f00a fab8 	bl	2b280 <_ZN9allow_pin12dynamic_type7unshare17h19052c50f9e150aeE>
   20d10:	a807      	add	r0, sp, #28
   20d12:	7006      	strb	r6, [r0, #0]
   20d14:	a813      	add	r0, sp, #76	@ 0x4c
   20d16:	7802      	ldrb	r2, [r0, #0]
   20d18:	2a02      	cmp	r2, #2
   20d1a:	d003      	beq.n	20d24 <_ZN20complex_dynamic_type3app17h03b484af11d2d891E+0xe0>
   20d1c:	2102      	movs	r1, #2
   20d1e:	4813      	ldr	r0, [pc, #76]	@ (20d6c <_ZN20complex_dynamic_type3app17h03b484af11d2d891E+0x128>)
   20d20:	f00a faae 	bl	2b280 <_ZN9allow_pin12dynamic_type7unshare17h19052c50f9e150aeE>
   20d24:	a813      	add	r0, sp, #76	@ 0x4c
   20d26:	7006      	strb	r6, [r0, #0]
   20d28:	4e10      	ldr	r6, [pc, #64]	@ (20d6c <_ZN20complex_dynamic_type3app17h03b484af11d2d891E+0x128>)
   20d2a:	2c00      	cmp	r4, #0
   20d2c:	d1cd      	bne.n	20cca <_ZN20complex_dynamic_type3app17h03b484af11d2d891E+0x86>
   20d2e:	a813      	add	r0, sp, #76	@ 0x4c
   20d30:	7804      	ldrb	r4, [r0, #0]
   20d32:	2c02      	cmp	r4, #2
   20d34:	d001      	beq.n	20d3a <_ZN20complex_dynamic_type3app17h03b484af11d2d891E+0xf6>
   20d36:	480e      	ldr	r0, [pc, #56]	@ (20d70 <_ZN20complex_dynamic_type3app17h03b484af11d2d891E+0x12c>)
   20d38:	9005      	str	r0, [sp, #20]
   20d3a:	9d06      	ldr	r5, [sp, #24]
   20d3c:	1c68      	adds	r0, r5, #1
   20d3e:	225e      	movs	r2, #94	@ 0x5e
   20d40:	9905      	ldr	r1, [sp, #20]
   20d42:	f00a fc82 	bl	2b64a <__aeabi_memcpy>
   20d46:	2000      	movs	r0, #0
   20d48:	2c02      	cmp	r4, #2
   20d4a:	7028      	strb	r0, [r5, #0]
   20d4c:	d004      	beq.n	20d58 <_ZN20complex_dynamic_type3app17h03b484af11d2d891E+0x114>
   20d4e:	2102      	movs	r1, #2
   20d50:	4630      	mov	r0, r6
   20d52:	4622      	mov	r2, r4
   20d54:	f00a fa94 	bl	2b280 <_ZN9allow_pin12dynamic_type7unshare17h19052c50f9e150aeE>
   20d58:	a807      	add	r0, sp, #28
   20d5a:	7802      	ldrb	r2, [r0, #0]
   20d5c:	2a02      	cmp	r2, #2
   20d5e:	d003      	beq.n	20d68 <_ZN20complex_dynamic_type3app17h03b484af11d2d891E+0x124>
   20d60:	2105      	movs	r1, #5
   20d62:	4630      	mov	r0, r6
   20d64:	f00a fa8c 	bl	2b280 <_ZN9allow_pin12dynamic_type7unshare17h19052c50f9e150aeE>
   20d68:	b02f      	add	sp, #188	@ 0xbc
   20d6a:	bdf0      	pop	{r4, r5, r6, r7, pc}
   20d6c:	0000022b 	.word	0x0000022b
   20d70:	000104e5 	.word	0x000104e5

00020d74 <_ZN20complex_dynamic_type3app17h09c9ccb1614fed4cE>:
   20d74:	b5f0      	push	{r4, r5, r6, r7, lr}
   20d76:	af03      	add	r7, sp, #12
   20d78:	b0a9      	sub	sp, #164	@ 0xa4
   20d7a:	9006      	str	r0, [sp, #24]
   20d7c:	a807      	add	r0, sp, #28
   20d7e:	2502      	movs	r5, #2
   20d80:	7005      	strb	r5, [r0, #0]
   20d82:	1c40      	adds	r0, r0, #1
   20d84:	9004      	str	r0, [sp, #16]
   20d86:	2622      	movs	r6, #34	@ 0x22
   20d88:	4632      	mov	r2, r6
   20d8a:	f00a fc5e 	bl	2b64a <__aeabi_memcpy>
   20d8e:	ac10      	add	r4, sp, #64	@ 0x40
   20d90:	1c60      	adds	r0, r4, #1
   20d92:	2151      	movs	r1, #81	@ 0x51
   20d94:	9005      	str	r0, [sp, #20]
   20d96:	9103      	str	r1, [sp, #12]
   20d98:	f00a fa97 	bl	2b2ca <__aeabi_memclr>
   20d9c:	9502      	str	r5, [sp, #8]
   20d9e:	7025      	strb	r5, [r4, #0]
   20da0:	2404      	movs	r4, #4
   20da2:	9600      	str	r6, [sp, #0]
   20da4:	9401      	str	r4, [sp, #4]
   20da6:	a825      	add	r0, sp, #148	@ 0x94
   20da8:	4e3c      	ldr	r6, [pc, #240]	@ (20e9c <_ZN20complex_dynamic_type3app17h09c9ccb1614fed4cE+0x128>)
   20daa:	2209      	movs	r2, #9
   20dac:	4631      	mov	r1, r6
   20dae:	9b04      	ldr	r3, [sp, #16]
   20db0:	f00a fa73 	bl	2b29a <_ZN9allow_pin13dynamic_allow17h8bfd3764c146b81aE>
   20db4:	9825      	ldr	r0, [sp, #148]	@ 0x94
   20db6:	2802      	cmp	r0, #2
   20db8:	d101      	bne.n	20dbe <_ZN20complex_dynamic_type3app17h09c9ccb1614fed4cE+0x4a>
   20dba:	9926      	ldr	r1, [sp, #152]	@ 0x98
   20dbc:	e001      	b.n	20dc2 <_ZN20complex_dynamic_type3app17h09c9ccb1614fed4cE+0x4e>
   20dbe:	a907      	add	r1, sp, #28
   20dc0:	700c      	strb	r4, [r1, #0]
   20dc2:	2501      	movs	r5, #1
   20dc4:	2802      	cmp	r0, #2
   20dc6:	d024      	beq.n	20e12 <_ZN20complex_dynamic_type3app17h09c9ccb1614fed4cE+0x9e>
   20dc8:	a810      	add	r0, sp, #64	@ 0x40
   20dca:	7800      	ldrb	r0, [r0, #0]
   20dcc:	2802      	cmp	r0, #2
   20dce:	d10e      	bne.n	20dee <_ZN20complex_dynamic_type3app17h09c9ccb1614fed4cE+0x7a>
   20dd0:	2403      	movs	r4, #3
   20dd2:	9803      	ldr	r0, [sp, #12]
   20dd4:	9000      	str	r0, [sp, #0]
   20dd6:	9401      	str	r4, [sp, #4]
   20dd8:	a825      	add	r0, sp, #148	@ 0x94
   20dda:	2209      	movs	r2, #9
   20ddc:	4631      	mov	r1, r6
   20dde:	9b05      	ldr	r3, [sp, #20]
   20de0:	f00a fa5b 	bl	2b29a <_ZN9allow_pin13dynamic_allow17h8bfd3764c146b81aE>
   20de4:	9825      	ldr	r0, [sp, #148]	@ 0x94
   20de6:	2802      	cmp	r0, #2
   20de8:	d106      	bne.n	20df8 <_ZN20complex_dynamic_type3app17h09c9ccb1614fed4cE+0x84>
   20dea:	9926      	ldr	r1, [sp, #152]	@ 0x98
   20dec:	e000      	b.n	20df0 <_ZN20complex_dynamic_type3app17h09c9ccb1614fed4cE+0x7c>
   20dee:	2103      	movs	r1, #3
   20df0:	4628      	mov	r0, r5
   20df2:	2800      	cmp	r0, #0
   20df4:	d005      	beq.n	20e02 <_ZN20complex_dynamic_type3app17h09c9ccb1614fed4cE+0x8e>
   20df6:	e00c      	b.n	20e12 <_ZN20complex_dynamic_type3app17h09c9ccb1614fed4cE+0x9e>
   20df8:	a810      	add	r0, sp, #64	@ 0x40
   20dfa:	7004      	strb	r4, [r0, #0]
   20dfc:	2000      	movs	r0, #0
   20dfe:	2800      	cmp	r0, #0
   20e00:	d107      	bne.n	20e12 <_ZN20complex_dynamic_type3app17h09c9ccb1614fed4cE+0x9e>
   20e02:	4826      	ldr	r0, [pc, #152]	@ (20e9c <_ZN20complex_dynamic_type3app17h09c9ccb1614fed4cE+0x128>)
   20e04:	2109      	movs	r1, #9
   20e06:	2400      	movs	r4, #0
   20e08:	460a      	mov	r2, r1
   20e0a:	4623      	mov	r3, r4
   20e0c:	df02      	svc	2
   20e0e:	287f      	cmp	r0, #127	@ 0x7f
   20e10:	d80d      	bhi.n	20e2e <_ZN20complex_dynamic_type3app17h09c9ccb1614fed4cE+0xba>
   20e12:	462c      	mov	r4, r5
   20e14:	2c00      	cmp	r4, #0
   20e16:	d021      	beq.n	20e5c <_ZN20complex_dynamic_type3app17h09c9ccb1614fed4cE+0xe8>
   20e18:	2001      	movs	r0, #1
   20e1a:	9a06      	ldr	r2, [sp, #24]
   20e1c:	7010      	strb	r0, [r2, #0]
   20e1e:	6051      	str	r1, [r2, #4]
   20e20:	a810      	add	r0, sp, #64	@ 0x40
   20e22:	7802      	ldrb	r2, [r0, #0]
   20e24:	2a02      	cmp	r2, #2
   20e26:	d02e      	beq.n	20e86 <_ZN20complex_dynamic_type3app17h09c9ccb1614fed4cE+0x112>
   20e28:	2109      	movs	r1, #9
   20e2a:	4630      	mov	r0, r6
   20e2c:	e029      	b.n	20e82 <_ZN20complex_dynamic_type3app17h09c9ccb1614fed4cE+0x10e>
   20e2e:	a807      	add	r0, sp, #28
   20e30:	7802      	ldrb	r2, [r0, #0]
   20e32:	2a02      	cmp	r2, #2
   20e34:	d003      	beq.n	20e3e <_ZN20complex_dynamic_type3app17h09c9ccb1614fed4cE+0xca>
   20e36:	2109      	movs	r1, #9
   20e38:	4630      	mov	r0, r6
   20e3a:	f00a fa21 	bl	2b280 <_ZN9allow_pin12dynamic_type7unshare17h19052c50f9e150aeE>
   20e3e:	a807      	add	r0, sp, #28
   20e40:	9d02      	ldr	r5, [sp, #8]
   20e42:	7005      	strb	r5, [r0, #0]
   20e44:	a810      	add	r0, sp, #64	@ 0x40
   20e46:	7802      	ldrb	r2, [r0, #0]
   20e48:	2a02      	cmp	r2, #2
   20e4a:	d003      	beq.n	20e54 <_ZN20complex_dynamic_type3app17h09c9ccb1614fed4cE+0xe0>
   20e4c:	2109      	movs	r1, #9
   20e4e:	4630      	mov	r0, r6
   20e50:	f00a fa16 	bl	2b280 <_ZN9allow_pin12dynamic_type7unshare17h19052c50f9e150aeE>
   20e54:	a810      	add	r0, sp, #64	@ 0x40
   20e56:	7005      	strb	r5, [r0, #0]
   20e58:	2c00      	cmp	r4, #0
   20e5a:	d1dd      	bne.n	20e18 <_ZN20complex_dynamic_type3app17h09c9ccb1614fed4cE+0xa4>
   20e5c:	a810      	add	r0, sp, #64	@ 0x40
   20e5e:	7804      	ldrb	r4, [r0, #0]
   20e60:	2c02      	cmp	r4, #2
   20e62:	d001      	beq.n	20e68 <_ZN20complex_dynamic_type3app17h09c9ccb1614fed4cE+0xf4>
   20e64:	480e      	ldr	r0, [pc, #56]	@ (20ea0 <_ZN20complex_dynamic_type3app17h09c9ccb1614fed4cE+0x12c>)
   20e66:	9005      	str	r0, [sp, #20]
   20e68:	9d06      	ldr	r5, [sp, #24]
   20e6a:	1c68      	adds	r0, r5, #1
   20e6c:	2251      	movs	r2, #81	@ 0x51
   20e6e:	9905      	ldr	r1, [sp, #20]
   20e70:	f00a fbeb 	bl	2b64a <__aeabi_memcpy>
   20e74:	2000      	movs	r0, #0
   20e76:	2c02      	cmp	r4, #2
   20e78:	7028      	strb	r0, [r5, #0]
   20e7a:	d004      	beq.n	20e86 <_ZN20complex_dynamic_type3app17h09c9ccb1614fed4cE+0x112>
   20e7c:	2109      	movs	r1, #9
   20e7e:	4630      	mov	r0, r6
   20e80:	4622      	mov	r2, r4
   20e82:	f00a f9fd 	bl	2b280 <_ZN9allow_pin12dynamic_type7unshare17h19052c50f9e150aeE>
   20e86:	a807      	add	r0, sp, #28
   20e88:	7802      	ldrb	r2, [r0, #0]
   20e8a:	2a02      	cmp	r2, #2
   20e8c:	d003      	beq.n	20e96 <_ZN20complex_dynamic_type3app17h09c9ccb1614fed4cE+0x122>
   20e8e:	2109      	movs	r1, #9
   20e90:	4630      	mov	r0, r6
   20e92:	f00a f9f5 	bl	2b280 <_ZN9allow_pin12dynamic_type7unshare17h19052c50f9e150aeE>
   20e96:	b029      	add	sp, #164	@ 0xa4
   20e98:	bdf0      	pop	{r4, r5, r6, r7, pc}
   20e9a:	46c0      	nop			@ (mov r8, r8)
   20e9c:	0000055e 	.word	0x0000055e
   20ea0:	000102f0 	.word	0x000102f0

00020ea4 <_ZN20complex_dynamic_type3app17h0f405cdfb4201c01E>:
   20ea4:	b5f0      	push	{r4, r5, r6, r7, lr}
   20ea6:	af03      	add	r7, sp, #12
   20ea8:	b09d      	sub	sp, #116	@ 0x74
   20eaa:	9007      	str	r0, [sp, #28]
   20eac:	a808      	add	r0, sp, #32
   20eae:	2402      	movs	r4, #2
   20eb0:	7004      	strb	r4, [r0, #0]
   20eb2:	1c40      	adds	r0, r0, #1
   20eb4:	9005      	str	r0, [sp, #20]
   20eb6:	2625      	movs	r6, #37	@ 0x25
   20eb8:	4632      	mov	r2, r6
   20eba:	f00a fbc6 	bl	2b64a <__aeabi_memcpy>
   20ebe:	ad12      	add	r5, sp, #72	@ 0x48
   20ec0:	1c68      	adds	r0, r5, #1
   20ec2:	2118      	movs	r1, #24
   20ec4:	9006      	str	r0, [sp, #24]
   20ec6:	9104      	str	r1, [sp, #16]
   20ec8:	f00a f9ff 	bl	2b2ca <__aeabi_memclr>
   20ecc:	9403      	str	r4, [sp, #12]
   20ece:	702c      	strb	r4, [r5, #0]
   20ed0:	2504      	movs	r5, #4
   20ed2:	9600      	str	r6, [sp, #0]
   20ed4:	9501      	str	r5, [sp, #4]
   20ed6:	20a7      	movs	r0, #167	@ 0xa7
   20ed8:	0106      	lsls	r6, r0, #4
   20eda:	a819      	add	r0, sp, #100	@ 0x64
   20edc:	2209      	movs	r2, #9
   20ede:	4631      	mov	r1, r6
   20ee0:	9b05      	ldr	r3, [sp, #20]
   20ee2:	f00a f9da 	bl	2b29a <_ZN9allow_pin13dynamic_allow17h8bfd3764c146b81aE>
   20ee6:	9819      	ldr	r0, [sp, #100]	@ 0x64
   20ee8:	2802      	cmp	r0, #2
   20eea:	d101      	bne.n	20ef0 <_ZN20complex_dynamic_type3app17h0f405cdfb4201c01E+0x4c>
   20eec:	991a      	ldr	r1, [sp, #104]	@ 0x68
   20eee:	e001      	b.n	20ef4 <_ZN20complex_dynamic_type3app17h0f405cdfb4201c01E+0x50>
   20ef0:	a908      	add	r1, sp, #32
   20ef2:	700d      	strb	r5, [r1, #0]
   20ef4:	2401      	movs	r4, #1
   20ef6:	2802      	cmp	r0, #2
   20ef8:	d024      	beq.n	20f44 <_ZN20complex_dynamic_type3app17h0f405cdfb4201c01E+0xa0>
   20efa:	a812      	add	r0, sp, #72	@ 0x48
   20efc:	7800      	ldrb	r0, [r0, #0]
   20efe:	2802      	cmp	r0, #2
   20f00:	d10e      	bne.n	20f20 <_ZN20complex_dynamic_type3app17h0f405cdfb4201c01E+0x7c>
   20f02:	2503      	movs	r5, #3
   20f04:	9804      	ldr	r0, [sp, #16]
   20f06:	9000      	str	r0, [sp, #0]
   20f08:	9501      	str	r5, [sp, #4]
   20f0a:	a819      	add	r0, sp, #100	@ 0x64
   20f0c:	2208      	movs	r2, #8
   20f0e:	4631      	mov	r1, r6
   20f10:	9b06      	ldr	r3, [sp, #24]
   20f12:	f00a f9c2 	bl	2b29a <_ZN9allow_pin13dynamic_allow17h8bfd3764c146b81aE>
   20f16:	9819      	ldr	r0, [sp, #100]	@ 0x64
   20f18:	2802      	cmp	r0, #2
   20f1a:	d106      	bne.n	20f2a <_ZN20complex_dynamic_type3app17h0f405cdfb4201c01E+0x86>
   20f1c:	991a      	ldr	r1, [sp, #104]	@ 0x68
   20f1e:	e000      	b.n	20f22 <_ZN20complex_dynamic_type3app17h0f405cdfb4201c01E+0x7e>
   20f20:	2103      	movs	r1, #3
   20f22:	4620      	mov	r0, r4
   20f24:	2800      	cmp	r0, #0
   20f26:	d005      	beq.n	20f34 <_ZN20complex_dynamic_type3app17h0f405cdfb4201c01E+0x90>
   20f28:	e00c      	b.n	20f44 <_ZN20complex_dynamic_type3app17h0f405cdfb4201c01E+0xa0>
   20f2a:	a812      	add	r0, sp, #72	@ 0x48
   20f2c:	7005      	strb	r5, [r0, #0]
   20f2e:	2000      	movs	r0, #0
   20f30:	2800      	cmp	r0, #0
   20f32:	d107      	bne.n	20f44 <_ZN20complex_dynamic_type3app17h0f405cdfb4201c01E+0xa0>
   20f34:	2109      	movs	r1, #9
   20f36:	2208      	movs	r2, #8
   20f38:	2500      	movs	r5, #0
   20f3a:	4630      	mov	r0, r6
   20f3c:	462b      	mov	r3, r5
   20f3e:	df02      	svc	2
   20f40:	287f      	cmp	r0, #127	@ 0x7f
   20f42:	d80d      	bhi.n	20f60 <_ZN20complex_dynamic_type3app17h0f405cdfb4201c01E+0xbc>
   20f44:	4625      	mov	r5, r4
   20f46:	2d00      	cmp	r5, #0
   20f48:	d021      	beq.n	20f8e <_ZN20complex_dynamic_type3app17h0f405cdfb4201c01E+0xea>
   20f4a:	2001      	movs	r0, #1
   20f4c:	9a07      	ldr	r2, [sp, #28]
   20f4e:	7010      	strb	r0, [r2, #0]
   20f50:	6051      	str	r1, [r2, #4]
   20f52:	a812      	add	r0, sp, #72	@ 0x48
   20f54:	7802      	ldrb	r2, [r0, #0]
   20f56:	2a02      	cmp	r2, #2
   20f58:	d02e      	beq.n	20fb8 <_ZN20complex_dynamic_type3app17h0f405cdfb4201c01E+0x114>
   20f5a:	2108      	movs	r1, #8
   20f5c:	4630      	mov	r0, r6
   20f5e:	e029      	b.n	20fb4 <_ZN20complex_dynamic_type3app17h0f405cdfb4201c01E+0x110>
   20f60:	a808      	add	r0, sp, #32
   20f62:	7802      	ldrb	r2, [r0, #0]
   20f64:	2a02      	cmp	r2, #2
   20f66:	d003      	beq.n	20f70 <_ZN20complex_dynamic_type3app17h0f405cdfb4201c01E+0xcc>
   20f68:	2109      	movs	r1, #9
   20f6a:	4630      	mov	r0, r6
   20f6c:	f00a f988 	bl	2b280 <_ZN9allow_pin12dynamic_type7unshare17h19052c50f9e150aeE>
   20f70:	a808      	add	r0, sp, #32
   20f72:	9c03      	ldr	r4, [sp, #12]
   20f74:	7004      	strb	r4, [r0, #0]
   20f76:	a812      	add	r0, sp, #72	@ 0x48
   20f78:	7802      	ldrb	r2, [r0, #0]
   20f7a:	2a02      	cmp	r2, #2
   20f7c:	d003      	beq.n	20f86 <_ZN20complex_dynamic_type3app17h0f405cdfb4201c01E+0xe2>
   20f7e:	2108      	movs	r1, #8
   20f80:	4630      	mov	r0, r6
   20f82:	f00a f97d 	bl	2b280 <_ZN9allow_pin12dynamic_type7unshare17h19052c50f9e150aeE>
   20f86:	a812      	add	r0, sp, #72	@ 0x48
   20f88:	7004      	strb	r4, [r0, #0]
   20f8a:	2d00      	cmp	r5, #0
   20f8c:	d1dd      	bne.n	20f4a <_ZN20complex_dynamic_type3app17h0f405cdfb4201c01E+0xa6>
   20f8e:	a812      	add	r0, sp, #72	@ 0x48
   20f90:	7805      	ldrb	r5, [r0, #0]
   20f92:	2d02      	cmp	r5, #2
   20f94:	d001      	beq.n	20f9a <_ZN20complex_dynamic_type3app17h0f405cdfb4201c01E+0xf6>
   20f96:	480d      	ldr	r0, [pc, #52]	@ (20fcc <_ZN20complex_dynamic_type3app17h0f405cdfb4201c01E+0x128>)
   20f98:	9006      	str	r0, [sp, #24]
   20f9a:	9c07      	ldr	r4, [sp, #28]
   20f9c:	1c60      	adds	r0, r4, #1
   20f9e:	2218      	movs	r2, #24
   20fa0:	9906      	ldr	r1, [sp, #24]
   20fa2:	f00a fb52 	bl	2b64a <__aeabi_memcpy>
   20fa6:	2000      	movs	r0, #0
   20fa8:	2d02      	cmp	r5, #2
   20faa:	7020      	strb	r0, [r4, #0]
   20fac:	d004      	beq.n	20fb8 <_ZN20complex_dynamic_type3app17h0f405cdfb4201c01E+0x114>
   20fae:	2108      	movs	r1, #8
   20fb0:	4630      	mov	r0, r6
   20fb2:	462a      	mov	r2, r5
   20fb4:	f00a f964 	bl	2b280 <_ZN9allow_pin12dynamic_type7unshare17h19052c50f9e150aeE>
   20fb8:	a808      	add	r0, sp, #32
   20fba:	7802      	ldrb	r2, [r0, #0]
   20fbc:	2a02      	cmp	r2, #2
   20fbe:	d003      	beq.n	20fc8 <_ZN20complex_dynamic_type3app17h0f405cdfb4201c01E+0x124>
   20fc0:	2109      	movs	r1, #9
   20fc2:	4630      	mov	r0, r6
   20fc4:	f00a f95c 	bl	2b280 <_ZN9allow_pin12dynamic_type7unshare17h19052c50f9e150aeE>
   20fc8:	b01d      	add	sp, #116	@ 0x74
   20fca:	bdf0      	pop	{r4, r5, r6, r7, pc}
   20fcc:	0001028d 	.word	0x0001028d

00020fd0 <_ZN20complex_dynamic_type3app17h1118b81bad6ee3f9E>:
   20fd0:	b5f0      	push	{r4, r5, r6, r7, lr}
   20fd2:	af03      	add	r7, sp, #12
   20fd4:	b095      	sub	sp, #84	@ 0x54
   20fd6:	9007      	str	r0, [sp, #28]
   20fd8:	a808      	add	r0, sp, #32
   20fda:	2602      	movs	r6, #2
   20fdc:	7006      	strb	r6, [r0, #0]
   20fde:	1c40      	adds	r0, r0, #1
   20fe0:	9005      	str	r0, [sp, #20]
   20fe2:	250f      	movs	r5, #15
   20fe4:	462a      	mov	r2, r5
   20fe6:	f00a fb30 	bl	2b64a <__aeabi_memcpy>
   20fea:	ac0c      	add	r4, sp, #48	@ 0x30
   20fec:	1c60      	adds	r0, r4, #1
   20fee:	2113      	movs	r1, #19
   20ff0:	9006      	str	r0, [sp, #24]
   20ff2:	9104      	str	r1, [sp, #16]
   20ff4:	f00a f969 	bl	2b2ca <__aeabi_memclr>
   20ff8:	9603      	str	r6, [sp, #12]
   20ffa:	7026      	strb	r6, [r4, #0]
   20ffc:	2404      	movs	r4, #4
   20ffe:	9500      	str	r5, [sp, #0]
   21000:	9401      	str	r4, [sp, #4]
   21002:	a811      	add	r0, sp, #68	@ 0x44
   21004:	493f      	ldr	r1, [pc, #252]	@ (21104 <_ZN20complex_dynamic_type3app17h1118b81bad6ee3f9E+0x134>)
   21006:	2503      	movs	r5, #3
   21008:	462a      	mov	r2, r5
   2100a:	9b05      	ldr	r3, [sp, #20]
   2100c:	f00a f945 	bl	2b29a <_ZN9allow_pin13dynamic_allow17h8bfd3764c146b81aE>
   21010:	9811      	ldr	r0, [sp, #68]	@ 0x44
   21012:	2802      	cmp	r0, #2
   21014:	d101      	bne.n	2101a <_ZN20complex_dynamic_type3app17h1118b81bad6ee3f9E+0x4a>
   21016:	9912      	ldr	r1, [sp, #72]	@ 0x48
   21018:	e001      	b.n	2101e <_ZN20complex_dynamic_type3app17h1118b81bad6ee3f9E+0x4e>
   2101a:	a908      	add	r1, sp, #32
   2101c:	700c      	strb	r4, [r1, #0]
   2101e:	2401      	movs	r4, #1
   21020:	2802      	cmp	r0, #2
   21022:	d02b      	beq.n	2107c <_ZN20complex_dynamic_type3app17h1118b81bad6ee3f9E+0xac>
   21024:	a80c      	add	r0, sp, #48	@ 0x30
   21026:	7800      	ldrb	r0, [r0, #0]
   21028:	2802      	cmp	r0, #2
   2102a:	4626      	mov	r6, r4
   2102c:	d111      	bne.n	21052 <_ZN20complex_dynamic_type3app17h1118b81bad6ee3f9E+0x82>
   2102e:	9405      	str	r4, [sp, #20]
   21030:	2403      	movs	r4, #3
   21032:	9804      	ldr	r0, [sp, #16]
   21034:	9000      	str	r0, [sp, #0]
   21036:	9401      	str	r4, [sp, #4]
   21038:	a811      	add	r0, sp, #68	@ 0x44
   2103a:	2600      	movs	r6, #0
   2103c:	4931      	ldr	r1, [pc, #196]	@ (21104 <_ZN20complex_dynamic_type3app17h1118b81bad6ee3f9E+0x134>)
   2103e:	4632      	mov	r2, r6
   21040:	9b06      	ldr	r3, [sp, #24]
   21042:	f00a f92a 	bl	2b29a <_ZN9allow_pin13dynamic_allow17h8bfd3764c146b81aE>
   21046:	9811      	ldr	r0, [sp, #68]	@ 0x44
   21048:	2802      	cmp	r0, #2
   2104a:	d108      	bne.n	2105e <_ZN20complex_dynamic_type3app17h1118b81bad6ee3f9E+0x8e>
   2104c:	9d12      	ldr	r5, [sp, #72]	@ 0x48
   2104e:	9c05      	ldr	r4, [sp, #20]
   21050:	4626      	mov	r6, r4
   21052:	2e00      	cmp	r6, #0
   21054:	d008      	beq.n	21068 <_ZN20complex_dynamic_type3app17h1118b81bad6ee3f9E+0x98>
   21056:	4629      	mov	r1, r5
   21058:	2c00      	cmp	r4, #0
   2105a:	d111      	bne.n	21080 <_ZN20complex_dynamic_type3app17h1118b81bad6ee3f9E+0xb0>
   2105c:	e032      	b.n	210c4 <_ZN20complex_dynamic_type3app17h1118b81bad6ee3f9E+0xf4>
   2105e:	a80c      	add	r0, sp, #48	@ 0x30
   21060:	7004      	strb	r4, [r0, #0]
   21062:	9c05      	ldr	r4, [sp, #20]
   21064:	2e00      	cmp	r6, #0
   21066:	d1f6      	bne.n	21056 <_ZN20complex_dynamic_type3app17h1118b81bad6ee3f9E+0x86>
   21068:	4625      	mov	r5, r4
   2106a:	4826      	ldr	r0, [pc, #152]	@ (21104 <_ZN20complex_dynamic_type3app17h1118b81bad6ee3f9E+0x134>)
   2106c:	2103      	movs	r1, #3
   2106e:	2400      	movs	r4, #0
   21070:	4622      	mov	r2, r4
   21072:	4623      	mov	r3, r4
   21074:	df02      	svc	2
   21076:	287f      	cmp	r0, #127	@ 0x7f
   21078:	d80d      	bhi.n	21096 <_ZN20complex_dynamic_type3app17h1118b81bad6ee3f9E+0xc6>
   2107a:	462c      	mov	r4, r5
   2107c:	2c00      	cmp	r4, #0
   2107e:	d021      	beq.n	210c4 <_ZN20complex_dynamic_type3app17h1118b81bad6ee3f9E+0xf4>
   21080:	2001      	movs	r0, #1
   21082:	9a07      	ldr	r2, [sp, #28]
   21084:	7010      	strb	r0, [r2, #0]
   21086:	6051      	str	r1, [r2, #4]
   21088:	a80c      	add	r0, sp, #48	@ 0x30
   2108a:	7802      	ldrb	r2, [r0, #0]
   2108c:	2a02      	cmp	r2, #2
   2108e:	d02e      	beq.n	210ee <_ZN20complex_dynamic_type3app17h1118b81bad6ee3f9E+0x11e>
   21090:	2100      	movs	r1, #0
   21092:	481c      	ldr	r0, [pc, #112]	@ (21104 <_ZN20complex_dynamic_type3app17h1118b81bad6ee3f9E+0x134>)
   21094:	e029      	b.n	210ea <_ZN20complex_dynamic_type3app17h1118b81bad6ee3f9E+0x11a>
   21096:	a808      	add	r0, sp, #32
   21098:	7802      	ldrb	r2, [r0, #0]
   2109a:	2a02      	cmp	r2, #2
   2109c:	d003      	beq.n	210a6 <_ZN20complex_dynamic_type3app17h1118b81bad6ee3f9E+0xd6>
   2109e:	2103      	movs	r1, #3
   210a0:	4818      	ldr	r0, [pc, #96]	@ (21104 <_ZN20complex_dynamic_type3app17h1118b81bad6ee3f9E+0x134>)
   210a2:	f00a f8ed 	bl	2b280 <_ZN9allow_pin12dynamic_type7unshare17h19052c50f9e150aeE>
   210a6:	a808      	add	r0, sp, #32
   210a8:	9d03      	ldr	r5, [sp, #12]
   210aa:	7005      	strb	r5, [r0, #0]
   210ac:	a80c      	add	r0, sp, #48	@ 0x30
   210ae:	7802      	ldrb	r2, [r0, #0]
   210b0:	2a02      	cmp	r2, #2
   210b2:	d003      	beq.n	210bc <_ZN20complex_dynamic_type3app17h1118b81bad6ee3f9E+0xec>
   210b4:	2100      	movs	r1, #0
   210b6:	4813      	ldr	r0, [pc, #76]	@ (21104 <_ZN20complex_dynamic_type3app17h1118b81bad6ee3f9E+0x134>)
   210b8:	f00a f8e2 	bl	2b280 <_ZN9allow_pin12dynamic_type7unshare17h19052c50f9e150aeE>
   210bc:	a80c      	add	r0, sp, #48	@ 0x30
   210be:	7005      	strb	r5, [r0, #0]
   210c0:	2c00      	cmp	r4, #0
   210c2:	d1dd      	bne.n	21080 <_ZN20complex_dynamic_type3app17h1118b81bad6ee3f9E+0xb0>
   210c4:	a80c      	add	r0, sp, #48	@ 0x30
   210c6:	7804      	ldrb	r4, [r0, #0]
   210c8:	2c02      	cmp	r4, #2
   210ca:	d001      	beq.n	210d0 <_ZN20complex_dynamic_type3app17h1118b81bad6ee3f9E+0x100>
   210cc:	480e      	ldr	r0, [pc, #56]	@ (21108 <_ZN20complex_dynamic_type3app17h1118b81bad6ee3f9E+0x138>)
   210ce:	9006      	str	r0, [sp, #24]
   210d0:	9d07      	ldr	r5, [sp, #28]
   210d2:	1c68      	adds	r0, r5, #1
   210d4:	2213      	movs	r2, #19
   210d6:	9906      	ldr	r1, [sp, #24]
   210d8:	f00a fab7 	bl	2b64a <__aeabi_memcpy>
   210dc:	2000      	movs	r0, #0
   210de:	2c02      	cmp	r4, #2
   210e0:	7028      	strb	r0, [r5, #0]
   210e2:	d004      	beq.n	210ee <_ZN20complex_dynamic_type3app17h1118b81bad6ee3f9E+0x11e>
   210e4:	2100      	movs	r1, #0
   210e6:	4807      	ldr	r0, [pc, #28]	@ (21104 <_ZN20complex_dynamic_type3app17h1118b81bad6ee3f9E+0x134>)
   210e8:	4622      	mov	r2, r4
   210ea:	f00a f8c9 	bl	2b280 <_ZN9allow_pin12dynamic_type7unshare17h19052c50f9e150aeE>
   210ee:	a808      	add	r0, sp, #32
   210f0:	7802      	ldrb	r2, [r0, #0]
   210f2:	2a02      	cmp	r2, #2
   210f4:	d003      	beq.n	210fe <_ZN20complex_dynamic_type3app17h1118b81bad6ee3f9E+0x12e>
   210f6:	2103      	movs	r1, #3
   210f8:	4802      	ldr	r0, [pc, #8]	@ (21104 <_ZN20complex_dynamic_type3app17h1118b81bad6ee3f9E+0x134>)
   210fa:	f00a f8c1 	bl	2b280 <_ZN9allow_pin12dynamic_type7unshare17h19052c50f9e150aeE>
   210fe:	b015      	add	sp, #84	@ 0x54
   21100:	bdf0      	pop	{r4, r5, r6, r7, pc}
   21102:	46c0      	nop			@ (mov r8, r8)
   21104:	00001e4b 	.word	0x00001e4b
   21108:	00010488 	.word	0x00010488

0002110c <_ZN20complex_dynamic_type3app17h118dfedbb8934398E>:
   2110c:	b5f0      	push	{r4, r5, r6, r7, lr}
   2110e:	af03      	add	r7, sp, #12
   21110:	b0a7      	sub	sp, #156	@ 0x9c
   21112:	9006      	str	r0, [sp, #24]
   21114:	a807      	add	r0, sp, #28
   21116:	2402      	movs	r4, #2
   21118:	7004      	strb	r4, [r0, #0]
   2111a:	1c40      	adds	r0, r0, #1
   2111c:	9004      	str	r0, [sp, #16]
   2111e:	2636      	movs	r6, #54	@ 0x36
   21120:	4632      	mov	r2, r6
   21122:	f00a fa92 	bl	2b64a <__aeabi_memcpy>
   21126:	ad15      	add	r5, sp, #84	@ 0x54
   21128:	1c68      	adds	r0, r5, #1
   2112a:	2134      	movs	r1, #52	@ 0x34
   2112c:	9005      	str	r0, [sp, #20]
   2112e:	9103      	str	r1, [sp, #12]
   21130:	f00a f8cb 	bl	2b2ca <__aeabi_memclr>
   21134:	702c      	strb	r4, [r5, #0]
   21136:	2404      	movs	r4, #4
   21138:	9600      	str	r6, [sp, #0]
   2113a:	9401      	str	r4, [sp, #4]
   2113c:	a823      	add	r0, sp, #140	@ 0x8c
   2113e:	4e3d      	ldr	r6, [pc, #244]	@ (21234 <_ZN20complex_dynamic_type3app17h118dfedbb8934398E+0x128>)
   21140:	4631      	mov	r1, r6
   21142:	4622      	mov	r2, r4
   21144:	9b04      	ldr	r3, [sp, #16]
   21146:	f00a f8a8 	bl	2b29a <_ZN9allow_pin13dynamic_allow17h8bfd3764c146b81aE>
   2114a:	9823      	ldr	r0, [sp, #140]	@ 0x8c
   2114c:	2802      	cmp	r0, #2
   2114e:	d101      	bne.n	21154 <_ZN20complex_dynamic_type3app17h118dfedbb8934398E+0x48>
   21150:	9924      	ldr	r1, [sp, #144]	@ 0x90
   21152:	e001      	b.n	21158 <_ZN20complex_dynamic_type3app17h118dfedbb8934398E+0x4c>
   21154:	a907      	add	r1, sp, #28
   21156:	700c      	strb	r4, [r1, #0]
   21158:	2501      	movs	r5, #1
   2115a:	2802      	cmp	r0, #2
   2115c:	d016      	beq.n	2118c <_ZN20complex_dynamic_type3app17h118dfedbb8934398E+0x80>
   2115e:	a815      	add	r0, sp, #84	@ 0x54
   21160:	7800      	ldrb	r0, [r0, #0]
   21162:	2802      	cmp	r0, #2
   21164:	d10e      	bne.n	21184 <_ZN20complex_dynamic_type3app17h118dfedbb8934398E+0x78>
   21166:	2403      	movs	r4, #3
   21168:	9803      	ldr	r0, [sp, #12]
   2116a:	9000      	str	r0, [sp, #0]
   2116c:	9401      	str	r4, [sp, #4]
   2116e:	a823      	add	r0, sp, #140	@ 0x8c
   21170:	2202      	movs	r2, #2
   21172:	4631      	mov	r1, r6
   21174:	9b05      	ldr	r3, [sp, #20]
   21176:	f00a f890 	bl	2b29a <_ZN9allow_pin13dynamic_allow17h8bfd3764c146b81aE>
   2117a:	9823      	ldr	r0, [sp, #140]	@ 0x8c
   2117c:	2802      	cmp	r0, #2
   2117e:	d113      	bne.n	211a8 <_ZN20complex_dynamic_type3app17h118dfedbb8934398E+0x9c>
   21180:	9924      	ldr	r1, [sp, #144]	@ 0x90
   21182:	e000      	b.n	21186 <_ZN20complex_dynamic_type3app17h118dfedbb8934398E+0x7a>
   21184:	2103      	movs	r1, #3
   21186:	4628      	mov	r0, r5
   21188:	2800      	cmp	r0, #0
   2118a:	d012      	beq.n	211b2 <_ZN20complex_dynamic_type3app17h118dfedbb8934398E+0xa6>
   2118c:	462c      	mov	r4, r5
   2118e:	2c00      	cmp	r4, #0
   21190:	d031      	beq.n	211f6 <_ZN20complex_dynamic_type3app17h118dfedbb8934398E+0xea>
   21192:	2001      	movs	r0, #1
   21194:	9a06      	ldr	r2, [sp, #24]
   21196:	7010      	strb	r0, [r2, #0]
   21198:	6051      	str	r1, [r2, #4]
   2119a:	a815      	add	r0, sp, #84	@ 0x54
   2119c:	7802      	ldrb	r2, [r0, #0]
   2119e:	2a02      	cmp	r2, #2
   211a0:	d03e      	beq.n	21220 <_ZN20complex_dynamic_type3app17h118dfedbb8934398E+0x114>
   211a2:	2102      	movs	r1, #2
   211a4:	4630      	mov	r0, r6
   211a6:	e039      	b.n	2121c <_ZN20complex_dynamic_type3app17h118dfedbb8934398E+0x110>
   211a8:	a815      	add	r0, sp, #84	@ 0x54
   211aa:	7004      	strb	r4, [r0, #0]
   211ac:	2000      	movs	r0, #0
   211ae:	2800      	cmp	r0, #0
   211b0:	d1ec      	bne.n	2118c <_ZN20complex_dynamic_type3app17h118dfedbb8934398E+0x80>
   211b2:	4820      	ldr	r0, [pc, #128]	@ (21234 <_ZN20complex_dynamic_type3app17h118dfedbb8934398E+0x128>)
   211b4:	2104      	movs	r1, #4
   211b6:	2202      	movs	r2, #2
   211b8:	2400      	movs	r4, #0
   211ba:	4616      	mov	r6, r2
   211bc:	4623      	mov	r3, r4
   211be:	df02      	svc	2
   211c0:	287f      	cmp	r0, #127	@ 0x7f
   211c2:	d801      	bhi.n	211c8 <_ZN20complex_dynamic_type3app17h118dfedbb8934398E+0xbc>
   211c4:	462c      	mov	r4, r5
   211c6:	e013      	b.n	211f0 <_ZN20complex_dynamic_type3app17h118dfedbb8934398E+0xe4>
   211c8:	a807      	add	r0, sp, #28
   211ca:	7802      	ldrb	r2, [r0, #0]
   211cc:	2a02      	cmp	r2, #2
   211ce:	d003      	beq.n	211d8 <_ZN20complex_dynamic_type3app17h118dfedbb8934398E+0xcc>
   211d0:	2104      	movs	r1, #4
   211d2:	4818      	ldr	r0, [pc, #96]	@ (21234 <_ZN20complex_dynamic_type3app17h118dfedbb8934398E+0x128>)
   211d4:	f00a f854 	bl	2b280 <_ZN9allow_pin12dynamic_type7unshare17h19052c50f9e150aeE>
   211d8:	a807      	add	r0, sp, #28
   211da:	7006      	strb	r6, [r0, #0]
   211dc:	a815      	add	r0, sp, #84	@ 0x54
   211de:	7802      	ldrb	r2, [r0, #0]
   211e0:	2a02      	cmp	r2, #2
   211e2:	d003      	beq.n	211ec <_ZN20complex_dynamic_type3app17h118dfedbb8934398E+0xe0>
   211e4:	2102      	movs	r1, #2
   211e6:	4813      	ldr	r0, [pc, #76]	@ (21234 <_ZN20complex_dynamic_type3app17h118dfedbb8934398E+0x128>)
   211e8:	f00a f84a 	bl	2b280 <_ZN9allow_pin12dynamic_type7unshare17h19052c50f9e150aeE>
   211ec:	a815      	add	r0, sp, #84	@ 0x54
   211ee:	7006      	strb	r6, [r0, #0]
   211f0:	4e10      	ldr	r6, [pc, #64]	@ (21234 <_ZN20complex_dynamic_type3app17h118dfedbb8934398E+0x128>)
   211f2:	2c00      	cmp	r4, #0
   211f4:	d1cd      	bne.n	21192 <_ZN20complex_dynamic_type3app17h118dfedbb8934398E+0x86>
   211f6:	a815      	add	r0, sp, #84	@ 0x54
   211f8:	7804      	ldrb	r4, [r0, #0]
   211fa:	2c02      	cmp	r4, #2
   211fc:	d001      	beq.n	21202 <_ZN20complex_dynamic_type3app17h118dfedbb8934398E+0xf6>
   211fe:	480e      	ldr	r0, [pc, #56]	@ (21238 <_ZN20complex_dynamic_type3app17h118dfedbb8934398E+0x12c>)
   21200:	9005      	str	r0, [sp, #20]
   21202:	9d06      	ldr	r5, [sp, #24]
   21204:	1c68      	adds	r0, r5, #1
   21206:	2234      	movs	r2, #52	@ 0x34
   21208:	9905      	ldr	r1, [sp, #20]
   2120a:	f00a fa1e 	bl	2b64a <__aeabi_memcpy>
   2120e:	2000      	movs	r0, #0
   21210:	2c02      	cmp	r4, #2
   21212:	7028      	strb	r0, [r5, #0]
   21214:	d004      	beq.n	21220 <_ZN20complex_dynamic_type3app17h118dfedbb8934398E+0x114>
   21216:	2102      	movs	r1, #2
   21218:	4630      	mov	r0, r6
   2121a:	4622      	mov	r2, r4
   2121c:	f00a f830 	bl	2b280 <_ZN9allow_pin12dynamic_type7unshare17h19052c50f9e150aeE>
   21220:	a807      	add	r0, sp, #28
   21222:	7802      	ldrb	r2, [r0, #0]
   21224:	2a02      	cmp	r2, #2
   21226:	d003      	beq.n	21230 <_ZN20complex_dynamic_type3app17h118dfedbb8934398E+0x124>
   21228:	2104      	movs	r1, #4
   2122a:	4630      	mov	r0, r6
   2122c:	f00a f828 	bl	2b280 <_ZN9allow_pin12dynamic_type7unshare17h19052c50f9e150aeE>
   21230:	b027      	add	sp, #156	@ 0x9c
   21232:	bdf0      	pop	{r4, r5, r6, r7, pc}
   21234:	000023c6 	.word	0x000023c6
   21238:	00010a05 	.word	0x00010a05

0002123c <_ZN20complex_dynamic_type3app17h12b41397afa06557E>:
   2123c:	b5f0      	push	{r4, r5, r6, r7, lr}
   2123e:	af03      	add	r7, sp, #12
   21240:	b0ad      	sub	sp, #180	@ 0xb4
   21242:	9006      	str	r0, [sp, #24]
   21244:	a807      	add	r0, sp, #28
   21246:	2502      	movs	r5, #2
   21248:	7005      	strb	r5, [r0, #0]
   2124a:	1c40      	adds	r0, r0, #1
   2124c:	9004      	str	r0, [sp, #16]
   2124e:	264f      	movs	r6, #79	@ 0x4f
   21250:	4632      	mov	r2, r6
   21252:	f00a f9fa 	bl	2b64a <__aeabi_memcpy>
   21256:	ac1b      	add	r4, sp, #108	@ 0x6c
   21258:	1c60      	adds	r0, r4, #1
   2125a:	2135      	movs	r1, #53	@ 0x35
   2125c:	9005      	str	r0, [sp, #20]
   2125e:	9103      	str	r1, [sp, #12]
   21260:	f00a f833 	bl	2b2ca <__aeabi_memclr>
   21264:	9502      	str	r5, [sp, #8]
   21266:	7025      	strb	r5, [r4, #0]
   21268:	2404      	movs	r4, #4
   2126a:	9600      	str	r6, [sp, #0]
   2126c:	9401      	str	r4, [sp, #4]
   2126e:	a829      	add	r0, sp, #164	@ 0xa4
   21270:	4e3c      	ldr	r6, [pc, #240]	@ (21364 <_ZN20complex_dynamic_type3app17h12b41397afa06557E+0x128>)
   21272:	2207      	movs	r2, #7
   21274:	4631      	mov	r1, r6
   21276:	9b04      	ldr	r3, [sp, #16]
   21278:	f00a f80f 	bl	2b29a <_ZN9allow_pin13dynamic_allow17h8bfd3764c146b81aE>
   2127c:	9829      	ldr	r0, [sp, #164]	@ 0xa4
   2127e:	2802      	cmp	r0, #2
   21280:	d101      	bne.n	21286 <_ZN20complex_dynamic_type3app17h12b41397afa06557E+0x4a>
   21282:	992a      	ldr	r1, [sp, #168]	@ 0xa8
   21284:	e001      	b.n	2128a <_ZN20complex_dynamic_type3app17h12b41397afa06557E+0x4e>
   21286:	a907      	add	r1, sp, #28
   21288:	700c      	strb	r4, [r1, #0]
   2128a:	2501      	movs	r5, #1
   2128c:	2802      	cmp	r0, #2
   2128e:	d024      	beq.n	212da <_ZN20complex_dynamic_type3app17h12b41397afa06557E+0x9e>
   21290:	a81b      	add	r0, sp, #108	@ 0x6c
   21292:	7800      	ldrb	r0, [r0, #0]
   21294:	2802      	cmp	r0, #2
   21296:	d10e      	bne.n	212b6 <_ZN20complex_dynamic_type3app17h12b41397afa06557E+0x7a>
   21298:	2403      	movs	r4, #3
   2129a:	9803      	ldr	r0, [sp, #12]
   2129c:	9000      	str	r0, [sp, #0]
   2129e:	9401      	str	r4, [sp, #4]
   212a0:	a829      	add	r0, sp, #164	@ 0xa4
   212a2:	2201      	movs	r2, #1
   212a4:	4631      	mov	r1, r6
   212a6:	9b05      	ldr	r3, [sp, #20]
   212a8:	f009 fff7 	bl	2b29a <_ZN9allow_pin13dynamic_allow17h8bfd3764c146b81aE>
   212ac:	9829      	ldr	r0, [sp, #164]	@ 0xa4
   212ae:	2802      	cmp	r0, #2
   212b0:	d106      	bne.n	212c0 <_ZN20complex_dynamic_type3app17h12b41397afa06557E+0x84>
   212b2:	992a      	ldr	r1, [sp, #168]	@ 0xa8
   212b4:	e000      	b.n	212b8 <_ZN20complex_dynamic_type3app17h12b41397afa06557E+0x7c>
   212b6:	2103      	movs	r1, #3
   212b8:	4628      	mov	r0, r5
   212ba:	2800      	cmp	r0, #0
   212bc:	d005      	beq.n	212ca <_ZN20complex_dynamic_type3app17h12b41397afa06557E+0x8e>
   212be:	e00c      	b.n	212da <_ZN20complex_dynamic_type3app17h12b41397afa06557E+0x9e>
   212c0:	a81b      	add	r0, sp, #108	@ 0x6c
   212c2:	7004      	strb	r4, [r0, #0]
   212c4:	2000      	movs	r0, #0
   212c6:	2800      	cmp	r0, #0
   212c8:	d107      	bne.n	212da <_ZN20complex_dynamic_type3app17h12b41397afa06557E+0x9e>
   212ca:	4826      	ldr	r0, [pc, #152]	@ (21364 <_ZN20complex_dynamic_type3app17h12b41397afa06557E+0x128>)
   212cc:	2107      	movs	r1, #7
   212ce:	2201      	movs	r2, #1
   212d0:	2400      	movs	r4, #0
   212d2:	4623      	mov	r3, r4
   212d4:	df02      	svc	2
   212d6:	287f      	cmp	r0, #127	@ 0x7f
   212d8:	d80d      	bhi.n	212f6 <_ZN20complex_dynamic_type3app17h12b41397afa06557E+0xba>
   212da:	462c      	mov	r4, r5
   212dc:	2c00      	cmp	r4, #0
   212de:	d021      	beq.n	21324 <_ZN20complex_dynamic_type3app17h12b41397afa06557E+0xe8>
   212e0:	2001      	movs	r0, #1
   212e2:	9a06      	ldr	r2, [sp, #24]
   212e4:	7010      	strb	r0, [r2, #0]
   212e6:	6051      	str	r1, [r2, #4]
   212e8:	a81b      	add	r0, sp, #108	@ 0x6c
   212ea:	7802      	ldrb	r2, [r0, #0]
   212ec:	2a02      	cmp	r2, #2
   212ee:	d02e      	beq.n	2134e <_ZN20complex_dynamic_type3app17h12b41397afa06557E+0x112>
   212f0:	2101      	movs	r1, #1
   212f2:	4630      	mov	r0, r6
   212f4:	e029      	b.n	2134a <_ZN20complex_dynamic_type3app17h12b41397afa06557E+0x10e>
   212f6:	a807      	add	r0, sp, #28
   212f8:	7802      	ldrb	r2, [r0, #0]
   212fa:	2a02      	cmp	r2, #2
   212fc:	d003      	beq.n	21306 <_ZN20complex_dynamic_type3app17h12b41397afa06557E+0xca>
   212fe:	2107      	movs	r1, #7
   21300:	4630      	mov	r0, r6
   21302:	f009 ffbd 	bl	2b280 <_ZN9allow_pin12dynamic_type7unshare17h19052c50f9e150aeE>
   21306:	a807      	add	r0, sp, #28
   21308:	9d02      	ldr	r5, [sp, #8]
   2130a:	7005      	strb	r5, [r0, #0]
   2130c:	a81b      	add	r0, sp, #108	@ 0x6c
   2130e:	7802      	ldrb	r2, [r0, #0]
   21310:	2a02      	cmp	r2, #2
   21312:	d003      	beq.n	2131c <_ZN20complex_dynamic_type3app17h12b41397afa06557E+0xe0>
   21314:	2101      	movs	r1, #1
   21316:	4630      	mov	r0, r6
   21318:	f009 ffb2 	bl	2b280 <_ZN9allow_pin12dynamic_type7unshare17h19052c50f9e150aeE>
   2131c:	a81b      	add	r0, sp, #108	@ 0x6c
   2131e:	7005      	strb	r5, [r0, #0]
   21320:	2c00      	cmp	r4, #0
   21322:	d1dd      	bne.n	212e0 <_ZN20complex_dynamic_type3app17h12b41397afa06557E+0xa4>
   21324:	a81b      	add	r0, sp, #108	@ 0x6c
   21326:	7804      	ldrb	r4, [r0, #0]
   21328:	2c02      	cmp	r4, #2
   2132a:	d001      	beq.n	21330 <_ZN20complex_dynamic_type3app17h12b41397afa06557E+0xf4>
   2132c:	480e      	ldr	r0, [pc, #56]	@ (21368 <_ZN20complex_dynamic_type3app17h12b41397afa06557E+0x12c>)
   2132e:	9005      	str	r0, [sp, #20]
   21330:	9d06      	ldr	r5, [sp, #24]
   21332:	1c68      	adds	r0, r5, #1
   21334:	2235      	movs	r2, #53	@ 0x35
   21336:	9905      	ldr	r1, [sp, #20]
   21338:	f00a f987 	bl	2b64a <__aeabi_memcpy>
   2133c:	2000      	movs	r0, #0
   2133e:	2c02      	cmp	r4, #2
   21340:	7028      	strb	r0, [r5, #0]
   21342:	d004      	beq.n	2134e <_ZN20complex_dynamic_type3app17h12b41397afa06557E+0x112>
   21344:	2101      	movs	r1, #1
   21346:	4630      	mov	r0, r6
   21348:	4622      	mov	r2, r4
   2134a:	f009 ff99 	bl	2b280 <_ZN9allow_pin12dynamic_type7unshare17h19052c50f9e150aeE>
   2134e:	a807      	add	r0, sp, #28
   21350:	7802      	ldrb	r2, [r0, #0]
   21352:	2a02      	cmp	r2, #2
   21354:	d003      	beq.n	2135e <_ZN20complex_dynamic_type3app17h12b41397afa06557E+0x122>
   21356:	2107      	movs	r1, #7
   21358:	4630      	mov	r0, r6
   2135a:	f009 ff91 	bl	2b280 <_ZN9allow_pin12dynamic_type7unshare17h19052c50f9e150aeE>
   2135e:	b02d      	add	sp, #180	@ 0xb4
   21360:	bdf0      	pop	{r4, r5, r6, r7, pc}
   21362:	46c0      	nop			@ (mov r8, r8)
   21364:	000016d7 	.word	0x000016d7
   21368:	00010662 	.word	0x00010662

0002136c <_ZN20complex_dynamic_type3app17h13f563a535c56b98E>:
   2136c:	b5f0      	push	{r4, r5, r6, r7, lr}
   2136e:	af03      	add	r7, sp, #12
   21370:	b0a3      	sub	sp, #140	@ 0x8c
   21372:	9006      	str	r0, [sp, #24]
   21374:	a807      	add	r0, sp, #28
   21376:	2502      	movs	r5, #2
   21378:	7005      	strb	r5, [r0, #0]
   2137a:	1c40      	adds	r0, r0, #1
   2137c:	9004      	str	r0, [sp, #16]
   2137e:	241e      	movs	r4, #30
   21380:	4622      	mov	r2, r4
   21382:	f00a f962 	bl	2b64a <__aeabi_memcpy>
   21386:	ae0f      	add	r6, sp, #60	@ 0x3c
   21388:	1c70      	adds	r0, r6, #1
   2138a:	213c      	movs	r1, #60	@ 0x3c
   2138c:	9005      	str	r0, [sp, #20]
   2138e:	9103      	str	r1, [sp, #12]
   21390:	f009 ff9b 	bl	2b2ca <__aeabi_memclr>
   21394:	7035      	strb	r5, [r6, #0]
   21396:	2004      	movs	r0, #4
   21398:	9400      	str	r4, [sp, #0]
   2139a:	4604      	mov	r4, r0
   2139c:	9001      	str	r0, [sp, #4]
   2139e:	a81f      	add	r0, sp, #124	@ 0x7c
   213a0:	4e3d      	ldr	r6, [pc, #244]	@ (21498 <_ZN20complex_dynamic_type3app17h13f563a535c56b98E+0x12c>)
   213a2:	4631      	mov	r1, r6
   213a4:	462a      	mov	r2, r5
   213a6:	9b04      	ldr	r3, [sp, #16]
   213a8:	f009 ff77 	bl	2b29a <_ZN9allow_pin13dynamic_allow17h8bfd3764c146b81aE>
   213ac:	981f      	ldr	r0, [sp, #124]	@ 0x7c
   213ae:	2802      	cmp	r0, #2
   213b0:	d101      	bne.n	213b6 <_ZN20complex_dynamic_type3app17h13f563a535c56b98E+0x4a>
   213b2:	9920      	ldr	r1, [sp, #128]	@ 0x80
   213b4:	e001      	b.n	213ba <_ZN20complex_dynamic_type3app17h13f563a535c56b98E+0x4e>
   213b6:	a907      	add	r1, sp, #28
   213b8:	700c      	strb	r4, [r1, #0]
   213ba:	2501      	movs	r5, #1
   213bc:	2802      	cmp	r0, #2
   213be:	d016      	beq.n	213ee <_ZN20complex_dynamic_type3app17h13f563a535c56b98E+0x82>
   213c0:	a80f      	add	r0, sp, #60	@ 0x3c
   213c2:	7800      	ldrb	r0, [r0, #0]
   213c4:	2802      	cmp	r0, #2
   213c6:	d10e      	bne.n	213e6 <_ZN20complex_dynamic_type3app17h13f563a535c56b98E+0x7a>
   213c8:	2403      	movs	r4, #3
   213ca:	9803      	ldr	r0, [sp, #12]
   213cc:	9000      	str	r0, [sp, #0]
   213ce:	9401      	str	r4, [sp, #4]
   213d0:	a81f      	add	r0, sp, #124	@ 0x7c
   213d2:	4631      	mov	r1, r6
   213d4:	4622      	mov	r2, r4
   213d6:	9b05      	ldr	r3, [sp, #20]
   213d8:	f009 ff5f 	bl	2b29a <_ZN9allow_pin13dynamic_allow17h8bfd3764c146b81aE>
   213dc:	981f      	ldr	r0, [sp, #124]	@ 0x7c
   213de:	2802      	cmp	r0, #2
   213e0:	d113      	bne.n	2140a <_ZN20complex_dynamic_type3app17h13f563a535c56b98E+0x9e>
   213e2:	9920      	ldr	r1, [sp, #128]	@ 0x80
   213e4:	e000      	b.n	213e8 <_ZN20complex_dynamic_type3app17h13f563a535c56b98E+0x7c>
   213e6:	2103      	movs	r1, #3
   213e8:	4628      	mov	r0, r5
   213ea:	2800      	cmp	r0, #0
   213ec:	d012      	beq.n	21414 <_ZN20complex_dynamic_type3app17h13f563a535c56b98E+0xa8>
   213ee:	462c      	mov	r4, r5
   213f0:	2c00      	cmp	r4, #0
   213f2:	d031      	beq.n	21458 <_ZN20complex_dynamic_type3app17h13f563a535c56b98E+0xec>
   213f4:	2001      	movs	r0, #1
   213f6:	9a06      	ldr	r2, [sp, #24]
   213f8:	7010      	strb	r0, [r2, #0]
   213fa:	6051      	str	r1, [r2, #4]
   213fc:	a80f      	add	r0, sp, #60	@ 0x3c
   213fe:	7802      	ldrb	r2, [r0, #0]
   21400:	2a02      	cmp	r2, #2
   21402:	d03e      	beq.n	21482 <_ZN20complex_dynamic_type3app17h13f563a535c56b98E+0x116>
   21404:	2103      	movs	r1, #3
   21406:	4630      	mov	r0, r6
   21408:	e039      	b.n	2147e <_ZN20complex_dynamic_type3app17h13f563a535c56b98E+0x112>
   2140a:	a80f      	add	r0, sp, #60	@ 0x3c
   2140c:	7004      	strb	r4, [r0, #0]
   2140e:	2000      	movs	r0, #0
   21410:	2800      	cmp	r0, #0
   21412:	d1ec      	bne.n	213ee <_ZN20complex_dynamic_type3app17h13f563a535c56b98E+0x82>
   21414:	4820      	ldr	r0, [pc, #128]	@ (21498 <_ZN20complex_dynamic_type3app17h13f563a535c56b98E+0x12c>)
   21416:	2102      	movs	r1, #2
   21418:	2203      	movs	r2, #3
   2141a:	2400      	movs	r4, #0
   2141c:	460e      	mov	r6, r1
   2141e:	4623      	mov	r3, r4
   21420:	df02      	svc	2
   21422:	287f      	cmp	r0, #127	@ 0x7f
   21424:	d801      	bhi.n	2142a <_ZN20complex_dynamic_type3app17h13f563a535c56b98E+0xbe>
   21426:	462c      	mov	r4, r5
   21428:	e013      	b.n	21452 <_ZN20complex_dynamic_type3app17h13f563a535c56b98E+0xe6>
   2142a:	a807      	add	r0, sp, #28
   2142c:	7802      	ldrb	r2, [r0, #0]
   2142e:	2a02      	cmp	r2, #2
   21430:	d003      	beq.n	2143a <_ZN20complex_dynamic_type3app17h13f563a535c56b98E+0xce>
   21432:	2102      	movs	r1, #2
   21434:	4818      	ldr	r0, [pc, #96]	@ (21498 <_ZN20complex_dynamic_type3app17h13f563a535c56b98E+0x12c>)
   21436:	f009 ff23 	bl	2b280 <_ZN9allow_pin12dynamic_type7unshare17h19052c50f9e150aeE>
   2143a:	a807      	add	r0, sp, #28
   2143c:	7006      	strb	r6, [r0, #0]
   2143e:	a80f      	add	r0, sp, #60	@ 0x3c
   21440:	7802      	ldrb	r2, [r0, #0]
   21442:	2a02      	cmp	r2, #2
   21444:	d003      	beq.n	2144e <_ZN20complex_dynamic_type3app17h13f563a535c56b98E+0xe2>
   21446:	2103      	movs	r1, #3
   21448:	4813      	ldr	r0, [pc, #76]	@ (21498 <_ZN20complex_dynamic_type3app17h13f563a535c56b98E+0x12c>)
   2144a:	f009 ff19 	bl	2b280 <_ZN9allow_pin12dynamic_type7unshare17h19052c50f9e150aeE>
   2144e:	a80f      	add	r0, sp, #60	@ 0x3c
   21450:	7006      	strb	r6, [r0, #0]
   21452:	4e11      	ldr	r6, [pc, #68]	@ (21498 <_ZN20complex_dynamic_type3app17h13f563a535c56b98E+0x12c>)
   21454:	2c00      	cmp	r4, #0
   21456:	d1cd      	bne.n	213f4 <_ZN20complex_dynamic_type3app17h13f563a535c56b98E+0x88>
   21458:	a80f      	add	r0, sp, #60	@ 0x3c
   2145a:	7804      	ldrb	r4, [r0, #0]
   2145c:	2c02      	cmp	r4, #2
   2145e:	d001      	beq.n	21464 <_ZN20complex_dynamic_type3app17h13f563a535c56b98E+0xf8>
   21460:	480e      	ldr	r0, [pc, #56]	@ (2149c <_ZN20complex_dynamic_type3app17h13f563a535c56b98E+0x130>)
   21462:	9005      	str	r0, [sp, #20]
   21464:	9d06      	ldr	r5, [sp, #24]
   21466:	1c68      	adds	r0, r5, #1
   21468:	223c      	movs	r2, #60	@ 0x3c
   2146a:	9905      	ldr	r1, [sp, #20]
   2146c:	f00a f8ed 	bl	2b64a <__aeabi_memcpy>
   21470:	2000      	movs	r0, #0
   21472:	2c02      	cmp	r4, #2
   21474:	7028      	strb	r0, [r5, #0]
   21476:	d004      	beq.n	21482 <_ZN20complex_dynamic_type3app17h13f563a535c56b98E+0x116>
   21478:	2103      	movs	r1, #3
   2147a:	4630      	mov	r0, r6
   2147c:	4622      	mov	r2, r4
   2147e:	f009 feff 	bl	2b280 <_ZN9allow_pin12dynamic_type7unshare17h19052c50f9e150aeE>
   21482:	a807      	add	r0, sp, #28
   21484:	7802      	ldrb	r2, [r0, #0]
   21486:	2a02      	cmp	r2, #2
   21488:	d003      	beq.n	21492 <_ZN20complex_dynamic_type3app17h13f563a535c56b98E+0x126>
   2148a:	2102      	movs	r1, #2
   2148c:	4630      	mov	r0, r6
   2148e:	f009 fef7 	bl	2b280 <_ZN9allow_pin12dynamic_type7unshare17h19052c50f9e150aeE>
   21492:	b023      	add	sp, #140	@ 0x8c
   21494:	bdf0      	pop	{r4, r5, r6, r7, pc}
   21496:	46c0      	nop			@ (mov r8, r8)
   21498:	00000b3c 	.word	0x00000b3c
   2149c:	000101e2 	.word	0x000101e2

000214a0 <_ZN20complex_dynamic_type3app17h1575082a05297bd1E>:
   214a0:	b5f0      	push	{r4, r5, r6, r7, lr}
   214a2:	af03      	add	r7, sp, #12
   214a4:	b0ab      	sub	sp, #172	@ 0xac
   214a6:	9007      	str	r0, [sp, #28]
   214a8:	a808      	add	r0, sp, #32
   214aa:	2602      	movs	r6, #2
   214ac:	7006      	strb	r6, [r0, #0]
   214ae:	1c40      	adds	r0, r0, #1
   214b0:	9005      	str	r0, [sp, #20]
   214b2:	253c      	movs	r5, #60	@ 0x3c
   214b4:	462a      	mov	r2, r5
   214b6:	f00a f8c8 	bl	2b64a <__aeabi_memcpy>
   214ba:	ac18      	add	r4, sp, #96	@ 0x60
   214bc:	1c60      	adds	r0, r4, #1
   214be:	2138      	movs	r1, #56	@ 0x38
   214c0:	9006      	str	r0, [sp, #24]
   214c2:	9104      	str	r1, [sp, #16]
   214c4:	f009 ff01 	bl	2b2ca <__aeabi_memclr>
   214c8:	9603      	str	r6, [sp, #12]
   214ca:	7026      	strb	r6, [r4, #0]
   214cc:	2404      	movs	r4, #4
   214ce:	9500      	str	r5, [sp, #0]
   214d0:	9401      	str	r4, [sp, #4]
   214d2:	a827      	add	r0, sp, #156	@ 0x9c
   214d4:	493c      	ldr	r1, [pc, #240]	@ (215c8 <_ZN20complex_dynamic_type3app17h1575082a05297bd1E+0x128>)
   214d6:	2503      	movs	r5, #3
   214d8:	462a      	mov	r2, r5
   214da:	9b05      	ldr	r3, [sp, #20]
   214dc:	f009 fedd 	bl	2b29a <_ZN9allow_pin13dynamic_allow17h8bfd3764c146b81aE>
   214e0:	9827      	ldr	r0, [sp, #156]	@ 0x9c
   214e2:	2802      	cmp	r0, #2
   214e4:	d101      	bne.n	214ea <_ZN20complex_dynamic_type3app17h1575082a05297bd1E+0x4a>
   214e6:	9928      	ldr	r1, [sp, #160]	@ 0xa0
   214e8:	e001      	b.n	214ee <_ZN20complex_dynamic_type3app17h1575082a05297bd1E+0x4e>
   214ea:	a908      	add	r1, sp, #32
   214ec:	700c      	strb	r4, [r1, #0]
   214ee:	2601      	movs	r6, #1
   214f0:	2802      	cmp	r0, #2
   214f2:	d024      	beq.n	2153e <_ZN20complex_dynamic_type3app17h1575082a05297bd1E+0x9e>
   214f4:	a818      	add	r0, sp, #96	@ 0x60
   214f6:	7800      	ldrb	r0, [r0, #0]
   214f8:	2802      	cmp	r0, #2
   214fa:	4630      	mov	r0, r6
   214fc:	d10e      	bne.n	2151c <_ZN20complex_dynamic_type3app17h1575082a05297bd1E+0x7c>
   214fe:	2503      	movs	r5, #3
   21500:	9804      	ldr	r0, [sp, #16]
   21502:	9000      	str	r0, [sp, #0]
   21504:	9501      	str	r5, [sp, #4]
   21506:	a827      	add	r0, sp, #156	@ 0x9c
   21508:	492f      	ldr	r1, [pc, #188]	@ (215c8 <_ZN20complex_dynamic_type3app17h1575082a05297bd1E+0x128>)
   2150a:	462a      	mov	r2, r5
   2150c:	9b06      	ldr	r3, [sp, #24]
   2150e:	f009 fec4 	bl	2b29a <_ZN9allow_pin13dynamic_allow17h8bfd3764c146b81aE>
   21512:	9827      	ldr	r0, [sp, #156]	@ 0x9c
   21514:	2802      	cmp	r0, #2
   21516:	d105      	bne.n	21524 <_ZN20complex_dynamic_type3app17h1575082a05297bd1E+0x84>
   21518:	9d28      	ldr	r5, [sp, #160]	@ 0xa0
   2151a:	4630      	mov	r0, r6
   2151c:	2800      	cmp	r0, #0
   2151e:	d006      	beq.n	2152e <_ZN20complex_dynamic_type3app17h1575082a05297bd1E+0x8e>
   21520:	4629      	mov	r1, r5
   21522:	e00c      	b.n	2153e <_ZN20complex_dynamic_type3app17h1575082a05297bd1E+0x9e>
   21524:	a818      	add	r0, sp, #96	@ 0x60
   21526:	7005      	strb	r5, [r0, #0]
   21528:	2000      	movs	r0, #0
   2152a:	2800      	cmp	r0, #0
   2152c:	d1f8      	bne.n	21520 <_ZN20complex_dynamic_type3app17h1575082a05297bd1E+0x80>
   2152e:	4826      	ldr	r0, [pc, #152]	@ (215c8 <_ZN20complex_dynamic_type3app17h1575082a05297bd1E+0x128>)
   21530:	2103      	movs	r1, #3
   21532:	2400      	movs	r4, #0
   21534:	460a      	mov	r2, r1
   21536:	4623      	mov	r3, r4
   21538:	df02      	svc	2
   2153a:	287f      	cmp	r0, #127	@ 0x7f
   2153c:	d80d      	bhi.n	2155a <_ZN20complex_dynamic_type3app17h1575082a05297bd1E+0xba>
   2153e:	4634      	mov	r4, r6
   21540:	2c00      	cmp	r4, #0
   21542:	d021      	beq.n	21588 <_ZN20complex_dynamic_type3app17h1575082a05297bd1E+0xe8>
   21544:	2001      	movs	r0, #1
   21546:	9a07      	ldr	r2, [sp, #28]
   21548:	7010      	strb	r0, [r2, #0]
   2154a:	6051      	str	r1, [r2, #4]
   2154c:	a818      	add	r0, sp, #96	@ 0x60
   2154e:	7802      	ldrb	r2, [r0, #0]
   21550:	2a02      	cmp	r2, #2
   21552:	d02e      	beq.n	215b2 <_ZN20complex_dynamic_type3app17h1575082a05297bd1E+0x112>
   21554:	2103      	movs	r1, #3
   21556:	481c      	ldr	r0, [pc, #112]	@ (215c8 <_ZN20complex_dynamic_type3app17h1575082a05297bd1E+0x128>)
   21558:	e029      	b.n	215ae <_ZN20complex_dynamic_type3app17h1575082a05297bd1E+0x10e>
   2155a:	a808      	add	r0, sp, #32
   2155c:	7802      	ldrb	r2, [r0, #0]
   2155e:	2a02      	cmp	r2, #2
   21560:	d003      	beq.n	2156a <_ZN20complex_dynamic_type3app17h1575082a05297bd1E+0xca>
   21562:	2103      	movs	r1, #3
   21564:	4818      	ldr	r0, [pc, #96]	@ (215c8 <_ZN20complex_dynamic_type3app17h1575082a05297bd1E+0x128>)
   21566:	f009 fe8b 	bl	2b280 <_ZN9allow_pin12dynamic_type7unshare17h19052c50f9e150aeE>
   2156a:	a808      	add	r0, sp, #32
   2156c:	9d03      	ldr	r5, [sp, #12]
   2156e:	7005      	strb	r5, [r0, #0]
   21570:	a818      	add	r0, sp, #96	@ 0x60
   21572:	7802      	ldrb	r2, [r0, #0]
   21574:	2a02      	cmp	r2, #2
   21576:	d003      	beq.n	21580 <_ZN20complex_dynamic_type3app17h1575082a05297bd1E+0xe0>
   21578:	2103      	movs	r1, #3
   2157a:	4813      	ldr	r0, [pc, #76]	@ (215c8 <_ZN20complex_dynamic_type3app17h1575082a05297bd1E+0x128>)
   2157c:	f009 fe80 	bl	2b280 <_ZN9allow_pin12dynamic_type7unshare17h19052c50f9e150aeE>
   21580:	a818      	add	r0, sp, #96	@ 0x60
   21582:	7005      	strb	r5, [r0, #0]
   21584:	2c00      	cmp	r4, #0
   21586:	d1dd      	bne.n	21544 <_ZN20complex_dynamic_type3app17h1575082a05297bd1E+0xa4>
   21588:	a818      	add	r0, sp, #96	@ 0x60
   2158a:	7804      	ldrb	r4, [r0, #0]
   2158c:	2c02      	cmp	r4, #2
   2158e:	d001      	beq.n	21594 <_ZN20complex_dynamic_type3app17h1575082a05297bd1E+0xf4>
   21590:	480e      	ldr	r0, [pc, #56]	@ (215cc <_ZN20complex_dynamic_type3app17h1575082a05297bd1E+0x12c>)
   21592:	9006      	str	r0, [sp, #24]
   21594:	9d07      	ldr	r5, [sp, #28]
   21596:	1c68      	adds	r0, r5, #1
   21598:	2238      	movs	r2, #56	@ 0x38
   2159a:	9906      	ldr	r1, [sp, #24]
   2159c:	f00a f855 	bl	2b64a <__aeabi_memcpy>
   215a0:	2000      	movs	r0, #0
   215a2:	2c02      	cmp	r4, #2
   215a4:	7028      	strb	r0, [r5, #0]
   215a6:	d004      	beq.n	215b2 <_ZN20complex_dynamic_type3app17h1575082a05297bd1E+0x112>
   215a8:	2103      	movs	r1, #3
   215aa:	4807      	ldr	r0, [pc, #28]	@ (215c8 <_ZN20complex_dynamic_type3app17h1575082a05297bd1E+0x128>)
   215ac:	4622      	mov	r2, r4
   215ae:	f009 fe67 	bl	2b280 <_ZN9allow_pin12dynamic_type7unshare17h19052c50f9e150aeE>
   215b2:	a808      	add	r0, sp, #32
   215b4:	7802      	ldrb	r2, [r0, #0]
   215b6:	2a02      	cmp	r2, #2
   215b8:	d003      	beq.n	215c2 <_ZN20complex_dynamic_type3app17h1575082a05297bd1E+0x122>
   215ba:	2103      	movs	r1, #3
   215bc:	4802      	ldr	r0, [pc, #8]	@ (215c8 <_ZN20complex_dynamic_type3app17h1575082a05297bd1E+0x128>)
   215be:	f009 fe5f 	bl	2b280 <_ZN9allow_pin12dynamic_type7unshare17h19052c50f9e150aeE>
   215c2:	b02b      	add	sp, #172	@ 0xac
   215c4:	bdf0      	pop	{r4, r5, r6, r7, pc}
   215c6:	46c0      	nop			@ (mov r8, r8)
   215c8:	00001d19 	.word	0x00001d19
   215cc:	0001082f 	.word	0x0001082f

000215d0 <_ZN20complex_dynamic_type3app17h16a386a4d94a04caE>:
   215d0:	b5f0      	push	{r4, r5, r6, r7, lr}
   215d2:	af03      	add	r7, sp, #12
   215d4:	b0a1      	sub	sp, #132	@ 0x84
   215d6:	9006      	str	r0, [sp, #24]
   215d8:	a807      	add	r0, sp, #28
   215da:	2402      	movs	r4, #2
   215dc:	7004      	strb	r4, [r0, #0]
   215de:	1c40      	adds	r0, r0, #1
   215e0:	9004      	str	r0, [sp, #16]
   215e2:	260f      	movs	r6, #15
   215e4:	4632      	mov	r2, r6
   215e6:	f00a f830 	bl	2b64a <__aeabi_memcpy>
   215ea:	ad0b      	add	r5, sp, #44	@ 0x2c
   215ec:	1c68      	adds	r0, r5, #1
   215ee:	2146      	movs	r1, #70	@ 0x46
   215f0:	9005      	str	r0, [sp, #20]
   215f2:	9103      	str	r1, [sp, #12]
   215f4:	f009 fe69 	bl	2b2ca <__aeabi_memclr>
   215f8:	702c      	strb	r4, [r5, #0]
   215fa:	2404      	movs	r4, #4
   215fc:	9600      	str	r6, [sp, #0]
   215fe:	9401      	str	r4, [sp, #4]
   21600:	a81d      	add	r0, sp, #116	@ 0x74
   21602:	4e3d      	ldr	r6, [pc, #244]	@ (216f8 <_ZN20complex_dynamic_type3app17h16a386a4d94a04caE+0x128>)
   21604:	2209      	movs	r2, #9
   21606:	4631      	mov	r1, r6
   21608:	9b04      	ldr	r3, [sp, #16]
   2160a:	f009 fe46 	bl	2b29a <_ZN9allow_pin13dynamic_allow17h8bfd3764c146b81aE>
   2160e:	981d      	ldr	r0, [sp, #116]	@ 0x74
   21610:	2802      	cmp	r0, #2
   21612:	d101      	bne.n	21618 <_ZN20complex_dynamic_type3app17h16a386a4d94a04caE+0x48>
   21614:	991e      	ldr	r1, [sp, #120]	@ 0x78
   21616:	e001      	b.n	2161c <_ZN20complex_dynamic_type3app17h16a386a4d94a04caE+0x4c>
   21618:	a907      	add	r1, sp, #28
   2161a:	700c      	strb	r4, [r1, #0]
   2161c:	2501      	movs	r5, #1
   2161e:	2802      	cmp	r0, #2
   21620:	d016      	beq.n	21650 <_ZN20complex_dynamic_type3app17h16a386a4d94a04caE+0x80>
   21622:	a80b      	add	r0, sp, #44	@ 0x2c
   21624:	7800      	ldrb	r0, [r0, #0]
   21626:	2802      	cmp	r0, #2
   21628:	d10e      	bne.n	21648 <_ZN20complex_dynamic_type3app17h16a386a4d94a04caE+0x78>
   2162a:	2403      	movs	r4, #3
   2162c:	9803      	ldr	r0, [sp, #12]
   2162e:	9000      	str	r0, [sp, #0]
   21630:	9401      	str	r4, [sp, #4]
   21632:	a81d      	add	r0, sp, #116	@ 0x74
   21634:	2202      	movs	r2, #2
   21636:	4631      	mov	r1, r6
   21638:	9b05      	ldr	r3, [sp, #20]
   2163a:	f009 fe2e 	bl	2b29a <_ZN9allow_pin13dynamic_allow17h8bfd3764c146b81aE>
   2163e:	981d      	ldr	r0, [sp, #116]	@ 0x74
   21640:	2802      	cmp	r0, #2
   21642:	d113      	bne.n	2166c <_ZN20complex_dynamic_type3app17h16a386a4d94a04caE+0x9c>
   21644:	991e      	ldr	r1, [sp, #120]	@ 0x78
   21646:	e000      	b.n	2164a <_ZN20complex_dynamic_type3app17h16a386a4d94a04caE+0x7a>
   21648:	2103      	movs	r1, #3
   2164a:	4628      	mov	r0, r5
   2164c:	2800      	cmp	r0, #0
   2164e:	d012      	beq.n	21676 <_ZN20complex_dynamic_type3app17h16a386a4d94a04caE+0xa6>
   21650:	462c      	mov	r4, r5
   21652:	2c00      	cmp	r4, #0
   21654:	d031      	beq.n	216ba <_ZN20complex_dynamic_type3app17h16a386a4d94a04caE+0xea>
   21656:	2001      	movs	r0, #1
   21658:	9a06      	ldr	r2, [sp, #24]
   2165a:	7010      	strb	r0, [r2, #0]
   2165c:	6051      	str	r1, [r2, #4]
   2165e:	a80b      	add	r0, sp, #44	@ 0x2c
   21660:	7802      	ldrb	r2, [r0, #0]
   21662:	2a02      	cmp	r2, #2
   21664:	d03e      	beq.n	216e4 <_ZN20complex_dynamic_type3app17h16a386a4d94a04caE+0x114>
   21666:	2102      	movs	r1, #2
   21668:	4630      	mov	r0, r6
   2166a:	e039      	b.n	216e0 <_ZN20complex_dynamic_type3app17h16a386a4d94a04caE+0x110>
   2166c:	a80b      	add	r0, sp, #44	@ 0x2c
   2166e:	7004      	strb	r4, [r0, #0]
   21670:	2000      	movs	r0, #0
   21672:	2800      	cmp	r0, #0
   21674:	d1ec      	bne.n	21650 <_ZN20complex_dynamic_type3app17h16a386a4d94a04caE+0x80>
   21676:	4820      	ldr	r0, [pc, #128]	@ (216f8 <_ZN20complex_dynamic_type3app17h16a386a4d94a04caE+0x128>)
   21678:	2109      	movs	r1, #9
   2167a:	2202      	movs	r2, #2
   2167c:	2400      	movs	r4, #0
   2167e:	4616      	mov	r6, r2
   21680:	4623      	mov	r3, r4
   21682:	df02      	svc	2
   21684:	287f      	cmp	r0, #127	@ 0x7f
   21686:	d801      	bhi.n	2168c <_ZN20complex_dynamic_type3app17h16a386a4d94a04caE+0xbc>
   21688:	462c      	mov	r4, r5
   2168a:	e013      	b.n	216b4 <_ZN20complex_dynamic_type3app17h16a386a4d94a04caE+0xe4>
   2168c:	a807      	add	r0, sp, #28
   2168e:	7802      	ldrb	r2, [r0, #0]
   21690:	2a02      	cmp	r2, #2
   21692:	d003      	beq.n	2169c <_ZN20complex_dynamic_type3app17h16a386a4d94a04caE+0xcc>
   21694:	2109      	movs	r1, #9
   21696:	4818      	ldr	r0, [pc, #96]	@ (216f8 <_ZN20complex_dynamic_type3app17h16a386a4d94a04caE+0x128>)
   21698:	f009 fdf2 	bl	2b280 <_ZN9allow_pin12dynamic_type7unshare17h19052c50f9e150aeE>
   2169c:	a807      	add	r0, sp, #28
   2169e:	7006      	strb	r6, [r0, #0]
   216a0:	a80b      	add	r0, sp, #44	@ 0x2c
   216a2:	7802      	ldrb	r2, [r0, #0]
   216a4:	2a02      	cmp	r2, #2
   216a6:	d003      	beq.n	216b0 <_ZN20complex_dynamic_type3app17h16a386a4d94a04caE+0xe0>
   216a8:	2102      	movs	r1, #2
   216aa:	4813      	ldr	r0, [pc, #76]	@ (216f8 <_ZN20complex_dynamic_type3app17h16a386a4d94a04caE+0x128>)
   216ac:	f009 fde8 	bl	2b280 <_ZN9allow_pin12dynamic_type7unshare17h19052c50f9e150aeE>
   216b0:	a80b      	add	r0, sp, #44	@ 0x2c
   216b2:	7006      	strb	r6, [r0, #0]
   216b4:	4e10      	ldr	r6, [pc, #64]	@ (216f8 <_ZN20complex_dynamic_type3app17h16a386a4d94a04caE+0x128>)
   216b6:	2c00      	cmp	r4, #0
   216b8:	d1cd      	bne.n	21656 <_ZN20complex_dynamic_type3app17h16a386a4d94a04caE+0x86>
   216ba:	a80b      	add	r0, sp, #44	@ 0x2c
   216bc:	7804      	ldrb	r4, [r0, #0]
   216be:	2c02      	cmp	r4, #2
   216c0:	d001      	beq.n	216c6 <_ZN20complex_dynamic_type3app17h16a386a4d94a04caE+0xf6>
   216c2:	480e      	ldr	r0, [pc, #56]	@ (216fc <_ZN20complex_dynamic_type3app17h16a386a4d94a04caE+0x12c>)
   216c4:	9005      	str	r0, [sp, #20]
   216c6:	9d06      	ldr	r5, [sp, #24]
   216c8:	1c68      	adds	r0, r5, #1
   216ca:	2246      	movs	r2, #70	@ 0x46
   216cc:	9905      	ldr	r1, [sp, #20]
   216ce:	f009 ffbc 	bl	2b64a <__aeabi_memcpy>
   216d2:	2000      	movs	r0, #0
   216d4:	2c02      	cmp	r4, #2
   216d6:	7028      	strb	r0, [r5, #0]
   216d8:	d004      	beq.n	216e4 <_ZN20complex_dynamic_type3app17h16a386a4d94a04caE+0x114>
   216da:	2102      	movs	r1, #2
   216dc:	4630      	mov	r0, r6
   216de:	4622      	mov	r2, r4
   216e0:	f009 fdce 	bl	2b280 <_ZN9allow_pin12dynamic_type7unshare17h19052c50f9e150aeE>
   216e4:	a807      	add	r0, sp, #28
   216e6:	7802      	ldrb	r2, [r0, #0]
   216e8:	2a02      	cmp	r2, #2
   216ea:	d003      	beq.n	216f4 <_ZN20complex_dynamic_type3app17h16a386a4d94a04caE+0x124>
   216ec:	2109      	movs	r1, #9
   216ee:	4630      	mov	r0, r6
   216f0:	f009 fdc6 	bl	2b280 <_ZN9allow_pin12dynamic_type7unshare17h19052c50f9e150aeE>
   216f4:	b021      	add	sp, #132	@ 0x84
   216f6:	bdf0      	pop	{r4, r5, r6, r7, pc}
   216f8:	00001d7e 	.word	0x00001d7e
   216fc:	0001013f 	.word	0x0001013f

00021700 <_ZN20complex_dynamic_type3app17h19b7ffe200ae93f9E>:
   21700:	b5f0      	push	{r4, r5, r6, r7, lr}
   21702:	af03      	add	r7, sp, #12
   21704:	b0a3      	sub	sp, #140	@ 0x8c
   21706:	9006      	str	r0, [sp, #24]
   21708:	a807      	add	r0, sp, #28
   2170a:	2602      	movs	r6, #2
   2170c:	7006      	strb	r6, [r0, #0]
   2170e:	1c40      	adds	r0, r0, #1
   21710:	9004      	str	r0, [sp, #16]
   21712:	2541      	movs	r5, #65	@ 0x41
   21714:	462a      	mov	r2, r5
   21716:	f009 ff98 	bl	2b64a <__aeabi_memcpy>
   2171a:	ac18      	add	r4, sp, #96	@ 0x60
   2171c:	1c60      	adds	r0, r4, #1
   2171e:	2118      	movs	r1, #24
   21720:	9005      	str	r0, [sp, #20]
   21722:	9103      	str	r1, [sp, #12]
   21724:	f009 fdd1 	bl	2b2ca <__aeabi_memclr>
   21728:	9602      	str	r6, [sp, #8]
   2172a:	7026      	strb	r6, [r4, #0]
   2172c:	2404      	movs	r4, #4
   2172e:	9500      	str	r5, [sp, #0]
   21730:	9401      	str	r4, [sp, #4]
   21732:	a81f      	add	r0, sp, #124	@ 0x7c
   21734:	493c      	ldr	r1, [pc, #240]	@ (21828 <_ZN20complex_dynamic_type3app17h19b7ffe200ae93f9E+0x128>)
   21736:	2501      	movs	r5, #1
   21738:	462a      	mov	r2, r5
   2173a:	9b04      	ldr	r3, [sp, #16]
   2173c:	f009 fdad 	bl	2b29a <_ZN9allow_pin13dynamic_allow17h8bfd3764c146b81aE>
   21740:	981f      	ldr	r0, [sp, #124]	@ 0x7c
   21742:	2802      	cmp	r0, #2
   21744:	d101      	bne.n	2174a <_ZN20complex_dynamic_type3app17h19b7ffe200ae93f9E+0x4a>
   21746:	9920      	ldr	r1, [sp, #128]	@ 0x80
   21748:	e001      	b.n	2174e <_ZN20complex_dynamic_type3app17h19b7ffe200ae93f9E+0x4e>
   2174a:	a907      	add	r1, sp, #28
   2174c:	700c      	strb	r4, [r1, #0]
   2174e:	2802      	cmp	r0, #2
   21750:	4e35      	ldr	r6, [pc, #212]	@ (21828 <_ZN20complex_dynamic_type3app17h19b7ffe200ae93f9E+0x128>)
   21752:	d024      	beq.n	2179e <_ZN20complex_dynamic_type3app17h19b7ffe200ae93f9E+0x9e>
   21754:	a818      	add	r0, sp, #96	@ 0x60
   21756:	7800      	ldrb	r0, [r0, #0]
   21758:	2802      	cmp	r0, #2
   2175a:	d10e      	bne.n	2177a <_ZN20complex_dynamic_type3app17h19b7ffe200ae93f9E+0x7a>
   2175c:	2403      	movs	r4, #3
   2175e:	9803      	ldr	r0, [sp, #12]
   21760:	9000      	str	r0, [sp, #0]
   21762:	9401      	str	r4, [sp, #4]
   21764:	a81f      	add	r0, sp, #124	@ 0x7c
   21766:	2209      	movs	r2, #9
   21768:	4631      	mov	r1, r6
   2176a:	9b05      	ldr	r3, [sp, #20]
   2176c:	f009 fd95 	bl	2b29a <_ZN9allow_pin13dynamic_allow17h8bfd3764c146b81aE>
   21770:	981f      	ldr	r0, [sp, #124]	@ 0x7c
   21772:	2802      	cmp	r0, #2
   21774:	d106      	bne.n	21784 <_ZN20complex_dynamic_type3app17h19b7ffe200ae93f9E+0x84>
   21776:	9920      	ldr	r1, [sp, #128]	@ 0x80
   21778:	e000      	b.n	2177c <_ZN20complex_dynamic_type3app17h19b7ffe200ae93f9E+0x7c>
   2177a:	2103      	movs	r1, #3
   2177c:	4628      	mov	r0, r5
   2177e:	2800      	cmp	r0, #0
   21780:	d005      	beq.n	2178e <_ZN20complex_dynamic_type3app17h19b7ffe200ae93f9E+0x8e>
   21782:	e00c      	b.n	2179e <_ZN20complex_dynamic_type3app17h19b7ffe200ae93f9E+0x9e>
   21784:	a818      	add	r0, sp, #96	@ 0x60
   21786:	7004      	strb	r4, [r0, #0]
   21788:	2000      	movs	r0, #0
   2178a:	2800      	cmp	r0, #0
   2178c:	d107      	bne.n	2179e <_ZN20complex_dynamic_type3app17h19b7ffe200ae93f9E+0x9e>
   2178e:	4826      	ldr	r0, [pc, #152]	@ (21828 <_ZN20complex_dynamic_type3app17h19b7ffe200ae93f9E+0x128>)
   21790:	2101      	movs	r1, #1
   21792:	2209      	movs	r2, #9
   21794:	2400      	movs	r4, #0
   21796:	4623      	mov	r3, r4
   21798:	df02      	svc	2
   2179a:	287f      	cmp	r0, #127	@ 0x7f
   2179c:	d80d      	bhi.n	217ba <_ZN20complex_dynamic_type3app17h19b7ffe200ae93f9E+0xba>
   2179e:	462c      	mov	r4, r5
   217a0:	2c00      	cmp	r4, #0
   217a2:	d021      	beq.n	217e8 <_ZN20complex_dynamic_type3app17h19b7ffe200ae93f9E+0xe8>
   217a4:	2001      	movs	r0, #1
   217a6:	9a06      	ldr	r2, [sp, #24]
   217a8:	7010      	strb	r0, [r2, #0]
   217aa:	6051      	str	r1, [r2, #4]
   217ac:	a818      	add	r0, sp, #96	@ 0x60
   217ae:	7802      	ldrb	r2, [r0, #0]
   217b0:	2a02      	cmp	r2, #2
   217b2:	d02e      	beq.n	21812 <_ZN20complex_dynamic_type3app17h19b7ffe200ae93f9E+0x112>
   217b4:	2109      	movs	r1, #9
   217b6:	4630      	mov	r0, r6
   217b8:	e029      	b.n	2180e <_ZN20complex_dynamic_type3app17h19b7ffe200ae93f9E+0x10e>
   217ba:	a807      	add	r0, sp, #28
   217bc:	7802      	ldrb	r2, [r0, #0]
   217be:	2a02      	cmp	r2, #2
   217c0:	d003      	beq.n	217ca <_ZN20complex_dynamic_type3app17h19b7ffe200ae93f9E+0xca>
   217c2:	2101      	movs	r1, #1
   217c4:	4630      	mov	r0, r6
   217c6:	f009 fd5b 	bl	2b280 <_ZN9allow_pin12dynamic_type7unshare17h19052c50f9e150aeE>
   217ca:	a807      	add	r0, sp, #28
   217cc:	9d02      	ldr	r5, [sp, #8]
   217ce:	7005      	strb	r5, [r0, #0]
   217d0:	a818      	add	r0, sp, #96	@ 0x60
   217d2:	7802      	ldrb	r2, [r0, #0]
   217d4:	2a02      	cmp	r2, #2
   217d6:	d003      	beq.n	217e0 <_ZN20complex_dynamic_type3app17h19b7ffe200ae93f9E+0xe0>
   217d8:	2109      	movs	r1, #9
   217da:	4630      	mov	r0, r6
   217dc:	f009 fd50 	bl	2b280 <_ZN9allow_pin12dynamic_type7unshare17h19052c50f9e150aeE>
   217e0:	a818      	add	r0, sp, #96	@ 0x60
   217e2:	7005      	strb	r5, [r0, #0]
   217e4:	2c00      	cmp	r4, #0
   217e6:	d1dd      	bne.n	217a4 <_ZN20complex_dynamic_type3app17h19b7ffe200ae93f9E+0xa4>
   217e8:	a818      	add	r0, sp, #96	@ 0x60
   217ea:	7804      	ldrb	r4, [r0, #0]
   217ec:	2c02      	cmp	r4, #2
   217ee:	d001      	beq.n	217f4 <_ZN20complex_dynamic_type3app17h19b7ffe200ae93f9E+0xf4>
   217f0:	480e      	ldr	r0, [pc, #56]	@ (2182c <_ZN20complex_dynamic_type3app17h19b7ffe200ae93f9E+0x12c>)
   217f2:	9005      	str	r0, [sp, #20]
   217f4:	9d06      	ldr	r5, [sp, #24]
   217f6:	1c68      	adds	r0, r5, #1
   217f8:	2218      	movs	r2, #24
   217fa:	9905      	ldr	r1, [sp, #20]
   217fc:	f009 ff25 	bl	2b64a <__aeabi_memcpy>
   21800:	2000      	movs	r0, #0
   21802:	2c02      	cmp	r4, #2
   21804:	7028      	strb	r0, [r5, #0]
   21806:	d004      	beq.n	21812 <_ZN20complex_dynamic_type3app17h19b7ffe200ae93f9E+0x112>
   21808:	2109      	movs	r1, #9
   2180a:	4630      	mov	r0, r6
   2180c:	4622      	mov	r2, r4
   2180e:	f009 fd37 	bl	2b280 <_ZN9allow_pin12dynamic_type7unshare17h19052c50f9e150aeE>
   21812:	a807      	add	r0, sp, #28
   21814:	7802      	ldrb	r2, [r0, #0]
   21816:	2a02      	cmp	r2, #2
   21818:	d003      	beq.n	21822 <_ZN20complex_dynamic_type3app17h19b7ffe200ae93f9E+0x122>
   2181a:	2101      	movs	r1, #1
   2181c:	4630      	mov	r0, r6
   2181e:	f009 fd2f 	bl	2b280 <_ZN9allow_pin12dynamic_type7unshare17h19052c50f9e150aeE>
   21822:	b023      	add	sp, #140	@ 0x8c
   21824:	bdf0      	pop	{r4, r5, r6, r7, pc}
   21826:	46c0      	nop			@ (mov r8, r8)
   21828:	00002156 	.word	0x00002156
   2182c:	0001028d 	.word	0x0001028d

00021830 <_ZN20complex_dynamic_type3app17h2876a91bb77fe6f8E>:
   21830:	b5f0      	push	{r4, r5, r6, r7, lr}
   21832:	af03      	add	r7, sp, #12
   21834:	b0ab      	sub	sp, #172	@ 0xac
   21836:	9005      	str	r0, [sp, #20]
   21838:	a806      	add	r0, sp, #24
   2183a:	2502      	movs	r5, #2
   2183c:	7005      	strb	r5, [r0, #0]
   2183e:	1c40      	adds	r0, r0, #1
   21840:	9003      	str	r0, [sp, #12]
   21842:	242d      	movs	r4, #45	@ 0x2d
   21844:	4622      	mov	r2, r4
   21846:	f009 ff00 	bl	2b64a <__aeabi_memcpy>
   2184a:	ae12      	add	r6, sp, #72	@ 0x48
   2184c:	1c70      	adds	r0, r6, #1
   2184e:	2153      	movs	r1, #83	@ 0x53
   21850:	9004      	str	r0, [sp, #16]
   21852:	9102      	str	r1, [sp, #8]
   21854:	f009 fd39 	bl	2b2ca <__aeabi_memclr>
   21858:	7035      	strb	r5, [r6, #0]
   2185a:	2004      	movs	r0, #4
   2185c:	9400      	str	r4, [sp, #0]
   2185e:	4604      	mov	r4, r0
   21860:	9001      	str	r0, [sp, #4]
   21862:	a827      	add	r0, sp, #156	@ 0x9c
   21864:	4e3d      	ldr	r6, [pc, #244]	@ (2195c <_ZN20complex_dynamic_type3app17h2876a91bb77fe6f8E+0x12c>)
   21866:	4631      	mov	r1, r6
   21868:	462a      	mov	r2, r5
   2186a:	9b03      	ldr	r3, [sp, #12]
   2186c:	f009 fd15 	bl	2b29a <_ZN9allow_pin13dynamic_allow17h8bfd3764c146b81aE>
   21870:	9827      	ldr	r0, [sp, #156]	@ 0x9c
   21872:	2802      	cmp	r0, #2
   21874:	d101      	bne.n	2187a <_ZN20complex_dynamic_type3app17h2876a91bb77fe6f8E+0x4a>
   21876:	9928      	ldr	r1, [sp, #160]	@ 0xa0
   21878:	e001      	b.n	2187e <_ZN20complex_dynamic_type3app17h2876a91bb77fe6f8E+0x4e>
   2187a:	a906      	add	r1, sp, #24
   2187c:	700c      	strb	r4, [r1, #0]
   2187e:	2501      	movs	r5, #1
   21880:	2802      	cmp	r0, #2
   21882:	d016      	beq.n	218b2 <_ZN20complex_dynamic_type3app17h2876a91bb77fe6f8E+0x82>
   21884:	a812      	add	r0, sp, #72	@ 0x48
   21886:	7800      	ldrb	r0, [r0, #0]
   21888:	2802      	cmp	r0, #2
   2188a:	d10e      	bne.n	218aa <_ZN20complex_dynamic_type3app17h2876a91bb77fe6f8E+0x7a>
   2188c:	2403      	movs	r4, #3
   2188e:	9802      	ldr	r0, [sp, #8]
   21890:	9000      	str	r0, [sp, #0]
   21892:	9401      	str	r4, [sp, #4]
   21894:	a827      	add	r0, sp, #156	@ 0x9c
   21896:	2207      	movs	r2, #7
   21898:	4631      	mov	r1, r6
   2189a:	9b04      	ldr	r3, [sp, #16]
   2189c:	f009 fcfd 	bl	2b29a <_ZN9allow_pin13dynamic_allow17h8bfd3764c146b81aE>
   218a0:	9827      	ldr	r0, [sp, #156]	@ 0x9c
   218a2:	2802      	cmp	r0, #2
   218a4:	d113      	bne.n	218ce <_ZN20complex_dynamic_type3app17h2876a91bb77fe6f8E+0x9e>
   218a6:	9928      	ldr	r1, [sp, #160]	@ 0xa0
   218a8:	e000      	b.n	218ac <_ZN20complex_dynamic_type3app17h2876a91bb77fe6f8E+0x7c>
   218aa:	2103      	movs	r1, #3
   218ac:	4628      	mov	r0, r5
   218ae:	2800      	cmp	r0, #0
   218b0:	d012      	beq.n	218d8 <_ZN20complex_dynamic_type3app17h2876a91bb77fe6f8E+0xa8>
   218b2:	462c      	mov	r4, r5
   218b4:	2c00      	cmp	r4, #0
   218b6:	d031      	beq.n	2191c <_ZN20complex_dynamic_type3app17h2876a91bb77fe6f8E+0xec>
   218b8:	2001      	movs	r0, #1
   218ba:	9a05      	ldr	r2, [sp, #20]
   218bc:	7010      	strb	r0, [r2, #0]
   218be:	6051      	str	r1, [r2, #4]
   218c0:	a812      	add	r0, sp, #72	@ 0x48
   218c2:	7802      	ldrb	r2, [r0, #0]
   218c4:	2a02      	cmp	r2, #2
   218c6:	d03e      	beq.n	21946 <_ZN20complex_dynamic_type3app17h2876a91bb77fe6f8E+0x116>
   218c8:	2107      	movs	r1, #7
   218ca:	4630      	mov	r0, r6
   218cc:	e039      	b.n	21942 <_ZN20complex_dynamic_type3app17h2876a91bb77fe6f8E+0x112>
   218ce:	a812      	add	r0, sp, #72	@ 0x48
   218d0:	7004      	strb	r4, [r0, #0]
   218d2:	2000      	movs	r0, #0
   218d4:	2800      	cmp	r0, #0
   218d6:	d1ec      	bne.n	218b2 <_ZN20complex_dynamic_type3app17h2876a91bb77fe6f8E+0x82>
   218d8:	4820      	ldr	r0, [pc, #128]	@ (2195c <_ZN20complex_dynamic_type3app17h2876a91bb77fe6f8E+0x12c>)
   218da:	2102      	movs	r1, #2
   218dc:	2207      	movs	r2, #7
   218de:	2400      	movs	r4, #0
   218e0:	460e      	mov	r6, r1
   218e2:	4623      	mov	r3, r4
   218e4:	df02      	svc	2
   218e6:	287f      	cmp	r0, #127	@ 0x7f
   218e8:	d801      	bhi.n	218ee <_ZN20complex_dynamic_type3app17h2876a91bb77fe6f8E+0xbe>
   218ea:	462c      	mov	r4, r5
   218ec:	e013      	b.n	21916 <_ZN20complex_dynamic_type3app17h2876a91bb77fe6f8E+0xe6>
   218ee:	a806      	add	r0, sp, #24
   218f0:	7802      	ldrb	r2, [r0, #0]
   218f2:	2a02      	cmp	r2, #2
   218f4:	d003      	beq.n	218fe <_ZN20complex_dynamic_type3app17h2876a91bb77fe6f8E+0xce>
   218f6:	2102      	movs	r1, #2
   218f8:	4818      	ldr	r0, [pc, #96]	@ (2195c <_ZN20complex_dynamic_type3app17h2876a91bb77fe6f8E+0x12c>)
   218fa:	f009 fcc1 	bl	2b280 <_ZN9allow_pin12dynamic_type7unshare17h19052c50f9e150aeE>
   218fe:	a806      	add	r0, sp, #24
   21900:	7006      	strb	r6, [r0, #0]
   21902:	a812      	add	r0, sp, #72	@ 0x48
   21904:	7802      	ldrb	r2, [r0, #0]
   21906:	2a02      	cmp	r2, #2
   21908:	d003      	beq.n	21912 <_ZN20complex_dynamic_type3app17h2876a91bb77fe6f8E+0xe2>
   2190a:	2107      	movs	r1, #7
   2190c:	4813      	ldr	r0, [pc, #76]	@ (2195c <_ZN20complex_dynamic_type3app17h2876a91bb77fe6f8E+0x12c>)
   2190e:	f009 fcb7 	bl	2b280 <_ZN9allow_pin12dynamic_type7unshare17h19052c50f9e150aeE>
   21912:	a812      	add	r0, sp, #72	@ 0x48
   21914:	7006      	strb	r6, [r0, #0]
   21916:	4e11      	ldr	r6, [pc, #68]	@ (2195c <_ZN20complex_dynamic_type3app17h2876a91bb77fe6f8E+0x12c>)
   21918:	2c00      	cmp	r4, #0
   2191a:	d1cd      	bne.n	218b8 <_ZN20complex_dynamic_type3app17h2876a91bb77fe6f8E+0x88>
   2191c:	a812      	add	r0, sp, #72	@ 0x48
   2191e:	7804      	ldrb	r4, [r0, #0]
   21920:	2c02      	cmp	r4, #2
   21922:	d001      	beq.n	21928 <_ZN20complex_dynamic_type3app17h2876a91bb77fe6f8E+0xf8>
   21924:	480e      	ldr	r0, [pc, #56]	@ (21960 <_ZN20complex_dynamic_type3app17h2876a91bb77fe6f8E+0x130>)
   21926:	9004      	str	r0, [sp, #16]
   21928:	9d05      	ldr	r5, [sp, #20]
   2192a:	1c68      	adds	r0, r5, #1
   2192c:	2253      	movs	r2, #83	@ 0x53
   2192e:	9904      	ldr	r1, [sp, #16]
   21930:	f009 fe8b 	bl	2b64a <__aeabi_memcpy>
   21934:	2000      	movs	r0, #0
   21936:	2c02      	cmp	r4, #2
   21938:	7028      	strb	r0, [r5, #0]
   2193a:	d004      	beq.n	21946 <_ZN20complex_dynamic_type3app17h2876a91bb77fe6f8E+0x116>
   2193c:	2107      	movs	r1, #7
   2193e:	4630      	mov	r0, r6
   21940:	4622      	mov	r2, r4
   21942:	f009 fc9d 	bl	2b280 <_ZN9allow_pin12dynamic_type7unshare17h19052c50f9e150aeE>
   21946:	a806      	add	r0, sp, #24
   21948:	7802      	ldrb	r2, [r0, #0]
   2194a:	2a02      	cmp	r2, #2
   2194c:	d003      	beq.n	21956 <_ZN20complex_dynamic_type3app17h2876a91bb77fe6f8E+0x126>
   2194e:	2102      	movs	r1, #2
   21950:	4630      	mov	r0, r6
   21952:	f009 fc95 	bl	2b280 <_ZN9allow_pin12dynamic_type7unshare17h19052c50f9e150aeE>
   21956:	b02b      	add	sp, #172	@ 0xac
   21958:	bdf0      	pop	{r4, r5, r6, r7, pc}
   2195a:	46c0      	nop			@ (mov r8, r8)
   2195c:	00000ec3 	.word	0x00000ec3
   21960:	000106d5 	.word	0x000106d5

00021964 <_ZN20complex_dynamic_type3app17h2a0a609b4ce7ce1cE>:
   21964:	b5f0      	push	{r4, r5, r6, r7, lr}
   21966:	af03      	add	r7, sp, #12
   21968:	b09f      	sub	sp, #124	@ 0x7c
   2196a:	9006      	str	r0, [sp, #24]
   2196c:	a807      	add	r0, sp, #28
   2196e:	2602      	movs	r6, #2
   21970:	7006      	strb	r6, [r0, #0]
   21972:	1c40      	adds	r0, r0, #1
   21974:	9004      	str	r0, [sp, #16]
   21976:	2521      	movs	r5, #33	@ 0x21
   21978:	462a      	mov	r2, r5
   2197a:	f009 fe66 	bl	2b64a <__aeabi_memcpy>
   2197e:	ac10      	add	r4, sp, #64	@ 0x40
   21980:	1c60      	adds	r0, r4, #1
   21982:	212a      	movs	r1, #42	@ 0x2a
   21984:	9005      	str	r0, [sp, #20]
   21986:	9103      	str	r1, [sp, #12]
   21988:	f009 fc9f 	bl	2b2ca <__aeabi_memclr>
   2198c:	9602      	str	r6, [sp, #8]
   2198e:	7026      	strb	r6, [r4, #0]
   21990:	2404      	movs	r4, #4
   21992:	9500      	str	r5, [sp, #0]
   21994:	9401      	str	r4, [sp, #4]
   21996:	a81b      	add	r0, sp, #108	@ 0x6c
   21998:	493c      	ldr	r1, [pc, #240]	@ (21a8c <_ZN20complex_dynamic_type3app17h2a0a609b4ce7ce1cE+0x128>)
   2199a:	2501      	movs	r5, #1
   2199c:	462a      	mov	r2, r5
   2199e:	9b04      	ldr	r3, [sp, #16]
   219a0:	f009 fc7b 	bl	2b29a <_ZN9allow_pin13dynamic_allow17h8bfd3764c146b81aE>
   219a4:	981b      	ldr	r0, [sp, #108]	@ 0x6c
   219a6:	2802      	cmp	r0, #2
   219a8:	d103      	bne.n	219b2 <_ZN20complex_dynamic_type3app17h2a0a609b4ce7ce1cE+0x4e>
   219aa:	991c      	ldr	r1, [sp, #112]	@ 0x70
   219ac:	2802      	cmp	r0, #2
   219ae:	d029      	beq.n	21a04 <_ZN20complex_dynamic_type3app17h2a0a609b4ce7ce1cE+0xa0>
   219b0:	e003      	b.n	219ba <_ZN20complex_dynamic_type3app17h2a0a609b4ce7ce1cE+0x56>
   219b2:	a907      	add	r1, sp, #28
   219b4:	700c      	strb	r4, [r1, #0]
   219b6:	2802      	cmp	r0, #2
   219b8:	d024      	beq.n	21a04 <_ZN20complex_dynamic_type3app17h2a0a609b4ce7ce1cE+0xa0>
   219ba:	a810      	add	r0, sp, #64	@ 0x40
   219bc:	7800      	ldrb	r0, [r0, #0]
   219be:	2802      	cmp	r0, #2
   219c0:	d10e      	bne.n	219e0 <_ZN20complex_dynamic_type3app17h2a0a609b4ce7ce1cE+0x7c>
   219c2:	2603      	movs	r6, #3
   219c4:	9803      	ldr	r0, [sp, #12]
   219c6:	9000      	str	r0, [sp, #0]
   219c8:	9601      	str	r6, [sp, #4]
   219ca:	a81b      	add	r0, sp, #108	@ 0x6c
   219cc:	492f      	ldr	r1, [pc, #188]	@ (21a8c <_ZN20complex_dynamic_type3app17h2a0a609b4ce7ce1cE+0x128>)
   219ce:	4632      	mov	r2, r6
   219d0:	9b05      	ldr	r3, [sp, #20]
   219d2:	f009 fc62 	bl	2b29a <_ZN9allow_pin13dynamic_allow17h8bfd3764c146b81aE>
   219d6:	981b      	ldr	r0, [sp, #108]	@ 0x6c
   219d8:	2802      	cmp	r0, #2
   219da:	d106      	bne.n	219ea <_ZN20complex_dynamic_type3app17h2a0a609b4ce7ce1cE+0x86>
   219dc:	991c      	ldr	r1, [sp, #112]	@ 0x70
   219de:	e000      	b.n	219e2 <_ZN20complex_dynamic_type3app17h2a0a609b4ce7ce1cE+0x7e>
   219e0:	2103      	movs	r1, #3
   219e2:	4628      	mov	r0, r5
   219e4:	2800      	cmp	r0, #0
   219e6:	d005      	beq.n	219f4 <_ZN20complex_dynamic_type3app17h2a0a609b4ce7ce1cE+0x90>
   219e8:	e00c      	b.n	21a04 <_ZN20complex_dynamic_type3app17h2a0a609b4ce7ce1cE+0xa0>
   219ea:	a810      	add	r0, sp, #64	@ 0x40
   219ec:	7006      	strb	r6, [r0, #0]
   219ee:	2000      	movs	r0, #0
   219f0:	2800      	cmp	r0, #0
   219f2:	d107      	bne.n	21a04 <_ZN20complex_dynamic_type3app17h2a0a609b4ce7ce1cE+0xa0>
   219f4:	4825      	ldr	r0, [pc, #148]	@ (21a8c <_ZN20complex_dynamic_type3app17h2a0a609b4ce7ce1cE+0x128>)
   219f6:	2101      	movs	r1, #1
   219f8:	2203      	movs	r2, #3
   219fa:	2400      	movs	r4, #0
   219fc:	4623      	mov	r3, r4
   219fe:	df02      	svc	2
   21a00:	287f      	cmp	r0, #127	@ 0x7f
   21a02:	d80d      	bhi.n	21a20 <_ZN20complex_dynamic_type3app17h2a0a609b4ce7ce1cE+0xbc>
   21a04:	462c      	mov	r4, r5
   21a06:	2c00      	cmp	r4, #0
   21a08:	d021      	beq.n	21a4e <_ZN20complex_dynamic_type3app17h2a0a609b4ce7ce1cE+0xea>
   21a0a:	2001      	movs	r0, #1
   21a0c:	9a06      	ldr	r2, [sp, #24]
   21a0e:	7010      	strb	r0, [r2, #0]
   21a10:	6051      	str	r1, [r2, #4]
   21a12:	a810      	add	r0, sp, #64	@ 0x40
   21a14:	7802      	ldrb	r2, [r0, #0]
   21a16:	2a02      	cmp	r2, #2
   21a18:	d02e      	beq.n	21a78 <_ZN20complex_dynamic_type3app17h2a0a609b4ce7ce1cE+0x114>
   21a1a:	2103      	movs	r1, #3
   21a1c:	481b      	ldr	r0, [pc, #108]	@ (21a8c <_ZN20complex_dynamic_type3app17h2a0a609b4ce7ce1cE+0x128>)
   21a1e:	e029      	b.n	21a74 <_ZN20complex_dynamic_type3app17h2a0a609b4ce7ce1cE+0x110>
   21a20:	a807      	add	r0, sp, #28
   21a22:	7802      	ldrb	r2, [r0, #0]
   21a24:	2a02      	cmp	r2, #2
   21a26:	d003      	beq.n	21a30 <_ZN20complex_dynamic_type3app17h2a0a609b4ce7ce1cE+0xcc>
   21a28:	2101      	movs	r1, #1
   21a2a:	4818      	ldr	r0, [pc, #96]	@ (21a8c <_ZN20complex_dynamic_type3app17h2a0a609b4ce7ce1cE+0x128>)
   21a2c:	f009 fc28 	bl	2b280 <_ZN9allow_pin12dynamic_type7unshare17h19052c50f9e150aeE>
   21a30:	a807      	add	r0, sp, #28
   21a32:	9d02      	ldr	r5, [sp, #8]
   21a34:	7005      	strb	r5, [r0, #0]
   21a36:	a810      	add	r0, sp, #64	@ 0x40
   21a38:	7802      	ldrb	r2, [r0, #0]
   21a3a:	2a02      	cmp	r2, #2
   21a3c:	d003      	beq.n	21a46 <_ZN20complex_dynamic_type3app17h2a0a609b4ce7ce1cE+0xe2>
   21a3e:	2103      	movs	r1, #3
   21a40:	4812      	ldr	r0, [pc, #72]	@ (21a8c <_ZN20complex_dynamic_type3app17h2a0a609b4ce7ce1cE+0x128>)
   21a42:	f009 fc1d 	bl	2b280 <_ZN9allow_pin12dynamic_type7unshare17h19052c50f9e150aeE>
   21a46:	a810      	add	r0, sp, #64	@ 0x40
   21a48:	7005      	strb	r5, [r0, #0]
   21a4a:	2c00      	cmp	r4, #0
   21a4c:	d1dd      	bne.n	21a0a <_ZN20complex_dynamic_type3app17h2a0a609b4ce7ce1cE+0xa6>
   21a4e:	a810      	add	r0, sp, #64	@ 0x40
   21a50:	7804      	ldrb	r4, [r0, #0]
   21a52:	2c02      	cmp	r4, #2
   21a54:	d001      	beq.n	21a5a <_ZN20complex_dynamic_type3app17h2a0a609b4ce7ce1cE+0xf6>
   21a56:	480e      	ldr	r0, [pc, #56]	@ (21a90 <_ZN20complex_dynamic_type3app17h2a0a609b4ce7ce1cE+0x12c>)
   21a58:	9005      	str	r0, [sp, #20]
   21a5a:	9d06      	ldr	r5, [sp, #24]
   21a5c:	1c68      	adds	r0, r5, #1
   21a5e:	222a      	movs	r2, #42	@ 0x2a
   21a60:	9905      	ldr	r1, [sp, #20]
   21a62:	f009 fdf2 	bl	2b64a <__aeabi_memcpy>
   21a66:	2000      	movs	r0, #0
   21a68:	2c02      	cmp	r4, #2
   21a6a:	7028      	strb	r0, [r5, #0]
   21a6c:	d004      	beq.n	21a78 <_ZN20complex_dynamic_type3app17h2a0a609b4ce7ce1cE+0x114>
   21a6e:	2103      	movs	r1, #3
   21a70:	4806      	ldr	r0, [pc, #24]	@ (21a8c <_ZN20complex_dynamic_type3app17h2a0a609b4ce7ce1cE+0x128>)
   21a72:	4622      	mov	r2, r4
   21a74:	f009 fc04 	bl	2b280 <_ZN9allow_pin12dynamic_type7unshare17h19052c50f9e150aeE>
   21a78:	a807      	add	r0, sp, #28
   21a7a:	7802      	ldrb	r2, [r0, #0]
   21a7c:	2a02      	cmp	r2, #2
   21a7e:	d003      	beq.n	21a88 <_ZN20complex_dynamic_type3app17h2a0a609b4ce7ce1cE+0x124>
   21a80:	2101      	movs	r1, #1
   21a82:	4802      	ldr	r0, [pc, #8]	@ (21a8c <_ZN20complex_dynamic_type3app17h2a0a609b4ce7ce1cE+0x128>)
   21a84:	f009 fbfc 	bl	2b280 <_ZN9allow_pin12dynamic_type7unshare17h19052c50f9e150aeE>
   21a88:	b01f      	add	sp, #124	@ 0x7c
   21a8a:	bdf0      	pop	{r4, r5, r6, r7, pc}
   21a8c:	000015f3 	.word	0x000015f3
   21a90:	000102c6 	.word	0x000102c6

00021a94 <_ZN20complex_dynamic_type3app17h2e6e304bc83911f8E>:
   21a94:	b5f0      	push	{r4, r5, r6, r7, lr}
   21a96:	af03      	add	r7, sp, #12
   21a98:	b099      	sub	sp, #100	@ 0x64
   21a9a:	9006      	str	r0, [sp, #24]
   21a9c:	a807      	add	r0, sp, #28
   21a9e:	2402      	movs	r4, #2
   21aa0:	7004      	strb	r4, [r0, #0]
   21aa2:	1c40      	adds	r0, r0, #1
   21aa4:	9004      	str	r0, [sp, #16]
   21aa6:	250f      	movs	r5, #15
   21aa8:	462a      	mov	r2, r5
   21aaa:	f009 fdce 	bl	2b64a <__aeabi_memcpy>
   21aae:	ae0b      	add	r6, sp, #44	@ 0x2c
   21ab0:	1c70      	adds	r0, r6, #1
   21ab2:	2125      	movs	r1, #37	@ 0x25
   21ab4:	9005      	str	r0, [sp, #20]
   21ab6:	9103      	str	r1, [sp, #12]
   21ab8:	f009 fc07 	bl	2b2ca <__aeabi_memclr>
   21abc:	9402      	str	r4, [sp, #8]
   21abe:	7034      	strb	r4, [r6, #0]
   21ac0:	2604      	movs	r6, #4
   21ac2:	9500      	str	r5, [sp, #0]
   21ac4:	9601      	str	r6, [sp, #4]
   21ac6:	a815      	add	r0, sp, #84	@ 0x54
   21ac8:	21a2      	movs	r1, #162	@ 0xa2
   21aca:	2208      	movs	r2, #8
   21acc:	9b04      	ldr	r3, [sp, #16]
   21ace:	f009 fbe4 	bl	2b29a <_ZN9allow_pin13dynamic_allow17h8bfd3764c146b81aE>
   21ad2:	9815      	ldr	r0, [sp, #84]	@ 0x54
   21ad4:	2802      	cmp	r0, #2
   21ad6:	d101      	bne.n	21adc <_ZN20complex_dynamic_type3app17h2e6e304bc83911f8E+0x48>
   21ad8:	9916      	ldr	r1, [sp, #88]	@ 0x58
   21ada:	e001      	b.n	21ae0 <_ZN20complex_dynamic_type3app17h2e6e304bc83911f8E+0x4c>
   21adc:	a907      	add	r1, sp, #28
   21ade:	700e      	strb	r6, [r1, #0]
   21ae0:	2501      	movs	r5, #1
   21ae2:	2802      	cmp	r0, #2
   21ae4:	d024      	beq.n	21b30 <_ZN20complex_dynamic_type3app17h2e6e304bc83911f8E+0x9c>
   21ae6:	a80b      	add	r0, sp, #44	@ 0x2c
   21ae8:	7800      	ldrb	r0, [r0, #0]
   21aea:	2802      	cmp	r0, #2
   21aec:	d10f      	bne.n	21b0e <_ZN20complex_dynamic_type3app17h2e6e304bc83911f8E+0x7a>
   21aee:	2603      	movs	r6, #3
   21af0:	9803      	ldr	r0, [sp, #12]
   21af2:	9000      	str	r0, [sp, #0]
   21af4:	9601      	str	r6, [sp, #4]
   21af6:	a815      	add	r0, sp, #84	@ 0x54
   21af8:	21a2      	movs	r1, #162	@ 0xa2
   21afa:	2400      	movs	r4, #0
   21afc:	4622      	mov	r2, r4
   21afe:	9b05      	ldr	r3, [sp, #20]
   21b00:	f009 fbcb 	bl	2b29a <_ZN9allow_pin13dynamic_allow17h8bfd3764c146b81aE>
   21b04:	9815      	ldr	r0, [sp, #84]	@ 0x54
   21b06:	2802      	cmp	r0, #2
   21b08:	d106      	bne.n	21b18 <_ZN20complex_dynamic_type3app17h2e6e304bc83911f8E+0x84>
   21b0a:	9916      	ldr	r1, [sp, #88]	@ 0x58
   21b0c:	e000      	b.n	21b10 <_ZN20complex_dynamic_type3app17h2e6e304bc83911f8E+0x7c>
   21b0e:	2103      	movs	r1, #3
   21b10:	462c      	mov	r4, r5
   21b12:	2c00      	cmp	r4, #0
   21b14:	d004      	beq.n	21b20 <_ZN20complex_dynamic_type3app17h2e6e304bc83911f8E+0x8c>
   21b16:	e00b      	b.n	21b30 <_ZN20complex_dynamic_type3app17h2e6e304bc83911f8E+0x9c>
   21b18:	a80b      	add	r0, sp, #44	@ 0x2c
   21b1a:	7006      	strb	r6, [r0, #0]
   21b1c:	2c00      	cmp	r4, #0
   21b1e:	d107      	bne.n	21b30 <_ZN20complex_dynamic_type3app17h2e6e304bc83911f8E+0x9c>
   21b20:	20a2      	movs	r0, #162	@ 0xa2
   21b22:	2108      	movs	r1, #8
   21b24:	2600      	movs	r6, #0
   21b26:	4632      	mov	r2, r6
   21b28:	4633      	mov	r3, r6
   21b2a:	df02      	svc	2
   21b2c:	287f      	cmp	r0, #127	@ 0x7f
   21b2e:	d80d      	bhi.n	21b4c <_ZN20complex_dynamic_type3app17h2e6e304bc83911f8E+0xb8>
   21b30:	462e      	mov	r6, r5
   21b32:	2e00      	cmp	r6, #0
   21b34:	d021      	beq.n	21b7a <_ZN20complex_dynamic_type3app17h2e6e304bc83911f8E+0xe6>
   21b36:	2001      	movs	r0, #1
   21b38:	9a06      	ldr	r2, [sp, #24]
   21b3a:	7010      	strb	r0, [r2, #0]
   21b3c:	6051      	str	r1, [r2, #4]
   21b3e:	a80b      	add	r0, sp, #44	@ 0x2c
   21b40:	7802      	ldrb	r2, [r0, #0]
   21b42:	2a02      	cmp	r2, #2
   21b44:	d02e      	beq.n	21ba4 <_ZN20complex_dynamic_type3app17h2e6e304bc83911f8E+0x110>
   21b46:	20a2      	movs	r0, #162	@ 0xa2
   21b48:	2100      	movs	r1, #0
   21b4a:	e029      	b.n	21ba0 <_ZN20complex_dynamic_type3app17h2e6e304bc83911f8E+0x10c>
   21b4c:	a807      	add	r0, sp, #28
   21b4e:	7802      	ldrb	r2, [r0, #0]
   21b50:	2a02      	cmp	r2, #2
   21b52:	d003      	beq.n	21b5c <_ZN20complex_dynamic_type3app17h2e6e304bc83911f8E+0xc8>
   21b54:	20a2      	movs	r0, #162	@ 0xa2
   21b56:	2108      	movs	r1, #8
   21b58:	f009 fb92 	bl	2b280 <_ZN9allow_pin12dynamic_type7unshare17h19052c50f9e150aeE>
   21b5c:	a807      	add	r0, sp, #28
   21b5e:	9c02      	ldr	r4, [sp, #8]
   21b60:	7004      	strb	r4, [r0, #0]
   21b62:	a80b      	add	r0, sp, #44	@ 0x2c
   21b64:	7802      	ldrb	r2, [r0, #0]
   21b66:	2a02      	cmp	r2, #2
   21b68:	d003      	beq.n	21b72 <_ZN20complex_dynamic_type3app17h2e6e304bc83911f8E+0xde>
   21b6a:	20a2      	movs	r0, #162	@ 0xa2
   21b6c:	2100      	movs	r1, #0
   21b6e:	f009 fb87 	bl	2b280 <_ZN9allow_pin12dynamic_type7unshare17h19052c50f9e150aeE>
   21b72:	a80b      	add	r0, sp, #44	@ 0x2c
   21b74:	7004      	strb	r4, [r0, #0]
   21b76:	2e00      	cmp	r6, #0
   21b78:	d1dd      	bne.n	21b36 <_ZN20complex_dynamic_type3app17h2e6e304bc83911f8E+0xa2>
   21b7a:	a80b      	add	r0, sp, #44	@ 0x2c
   21b7c:	7806      	ldrb	r6, [r0, #0]
   21b7e:	2e02      	cmp	r6, #2
   21b80:	d001      	beq.n	21b86 <_ZN20complex_dynamic_type3app17h2e6e304bc83911f8E+0xf2>
   21b82:	480d      	ldr	r0, [pc, #52]	@ (21bb8 <_ZN20complex_dynamic_type3app17h2e6e304bc83911f8E+0x124>)
   21b84:	9005      	str	r0, [sp, #20]
   21b86:	9c06      	ldr	r4, [sp, #24]
   21b88:	1c60      	adds	r0, r4, #1
   21b8a:	2225      	movs	r2, #37	@ 0x25
   21b8c:	9905      	ldr	r1, [sp, #20]
   21b8e:	f009 fd5c 	bl	2b64a <__aeabi_memcpy>
   21b92:	2000      	movs	r0, #0
   21b94:	2e02      	cmp	r6, #2
   21b96:	7020      	strb	r0, [r4, #0]
   21b98:	d004      	beq.n	21ba4 <_ZN20complex_dynamic_type3app17h2e6e304bc83911f8E+0x110>
   21b9a:	20a2      	movs	r0, #162	@ 0xa2
   21b9c:	2100      	movs	r1, #0
   21b9e:	4632      	mov	r2, r6
   21ba0:	f009 fb6e 	bl	2b280 <_ZN9allow_pin12dynamic_type7unshare17h19052c50f9e150aeE>
   21ba4:	a807      	add	r0, sp, #28
   21ba6:	7802      	ldrb	r2, [r0, #0]
   21ba8:	2a02      	cmp	r2, #2
   21baa:	d003      	beq.n	21bb4 <_ZN20complex_dynamic_type3app17h2e6e304bc83911f8E+0x120>
   21bac:	20a2      	movs	r0, #162	@ 0xa2
   21bae:	2108      	movs	r1, #8
   21bb0:	f009 fb66 	bl	2b280 <_ZN9allow_pin12dynamic_type7unshare17h19052c50f9e150aeE>
   21bb4:	b019      	add	sp, #100	@ 0x64
   21bb6:	bdf0      	pop	{r4, r5, r6, r7, pc}
   21bb8:	0001042e 	.word	0x0001042e

00021bbc <_ZN20complex_dynamic_type3app17h2eb079dcc3ed1afdE>:
   21bbc:	b5f0      	push	{r4, r5, r6, r7, lr}
   21bbe:	af03      	add	r7, sp, #12
   21bc0:	b0a9      	sub	sp, #164	@ 0xa4
   21bc2:	9005      	str	r0, [sp, #20]
   21bc4:	a806      	add	r0, sp, #24
   21bc6:	2502      	movs	r5, #2
   21bc8:	7005      	strb	r5, [r0, #0]
   21bca:	1c40      	adds	r0, r0, #1
   21bcc:	9003      	str	r0, [sp, #12]
   21bce:	244a      	movs	r4, #74	@ 0x4a
   21bd0:	4622      	mov	r2, r4
   21bd2:	f009 fd3a 	bl	2b64a <__aeabi_memcpy>
   21bd6:	ae19      	add	r6, sp, #100	@ 0x64
   21bd8:	1c70      	adds	r0, r6, #1
   21bda:	212d      	movs	r1, #45	@ 0x2d
   21bdc:	9004      	str	r0, [sp, #16]
   21bde:	9102      	str	r1, [sp, #8]
   21be0:	f009 fb73 	bl	2b2ca <__aeabi_memclr>
   21be4:	7035      	strb	r5, [r6, #0]
   21be6:	2004      	movs	r0, #4
   21be8:	9400      	str	r4, [sp, #0]
   21bea:	4604      	mov	r4, r0
   21bec:	9001      	str	r0, [sp, #4]
   21bee:	a825      	add	r0, sp, #148	@ 0x94
   21bf0:	4e3d      	ldr	r6, [pc, #244]	@ (21ce8 <_ZN20complex_dynamic_type3app17h2eb079dcc3ed1afdE+0x12c>)
   21bf2:	4631      	mov	r1, r6
   21bf4:	462a      	mov	r2, r5
   21bf6:	9b03      	ldr	r3, [sp, #12]
   21bf8:	f009 fb4f 	bl	2b29a <_ZN9allow_pin13dynamic_allow17h8bfd3764c146b81aE>
   21bfc:	9825      	ldr	r0, [sp, #148]	@ 0x94
   21bfe:	2802      	cmp	r0, #2
   21c00:	d101      	bne.n	21c06 <_ZN20complex_dynamic_type3app17h2eb079dcc3ed1afdE+0x4a>
   21c02:	9926      	ldr	r1, [sp, #152]	@ 0x98
   21c04:	e001      	b.n	21c0a <_ZN20complex_dynamic_type3app17h2eb079dcc3ed1afdE+0x4e>
   21c06:	a906      	add	r1, sp, #24
   21c08:	700c      	strb	r4, [r1, #0]
   21c0a:	2501      	movs	r5, #1
   21c0c:	2802      	cmp	r0, #2
   21c0e:	d016      	beq.n	21c3e <_ZN20complex_dynamic_type3app17h2eb079dcc3ed1afdE+0x82>
   21c10:	a819      	add	r0, sp, #100	@ 0x64
   21c12:	7800      	ldrb	r0, [r0, #0]
   21c14:	2802      	cmp	r0, #2
   21c16:	d10e      	bne.n	21c36 <_ZN20complex_dynamic_type3app17h2eb079dcc3ed1afdE+0x7a>
   21c18:	2403      	movs	r4, #3
   21c1a:	9802      	ldr	r0, [sp, #8]
   21c1c:	9000      	str	r0, [sp, #0]
   21c1e:	9401      	str	r4, [sp, #4]
   21c20:	a825      	add	r0, sp, #148	@ 0x94
   21c22:	4631      	mov	r1, r6
   21c24:	4622      	mov	r2, r4
   21c26:	9b04      	ldr	r3, [sp, #16]
   21c28:	f009 fb37 	bl	2b29a <_ZN9allow_pin13dynamic_allow17h8bfd3764c146b81aE>
   21c2c:	9825      	ldr	r0, [sp, #148]	@ 0x94
   21c2e:	2802      	cmp	r0, #2
   21c30:	d113      	bne.n	21c5a <_ZN20complex_dynamic_type3app17h2eb079dcc3ed1afdE+0x9e>
   21c32:	9926      	ldr	r1, [sp, #152]	@ 0x98
   21c34:	e000      	b.n	21c38 <_ZN20complex_dynamic_type3app17h2eb079dcc3ed1afdE+0x7c>
   21c36:	2103      	movs	r1, #3
   21c38:	4628      	mov	r0, r5
   21c3a:	2800      	cmp	r0, #0
   21c3c:	d012      	beq.n	21c64 <_ZN20complex_dynamic_type3app17h2eb079dcc3ed1afdE+0xa8>
   21c3e:	462c      	mov	r4, r5
   21c40:	2c00      	cmp	r4, #0
   21c42:	d031      	beq.n	21ca8 <_ZN20complex_dynamic_type3app17h2eb079dcc3ed1afdE+0xec>
   21c44:	2001      	movs	r0, #1
   21c46:	9a05      	ldr	r2, [sp, #20]
   21c48:	7010      	strb	r0, [r2, #0]
   21c4a:	6051      	str	r1, [r2, #4]
   21c4c:	a819      	add	r0, sp, #100	@ 0x64
   21c4e:	7802      	ldrb	r2, [r0, #0]
   21c50:	2a02      	cmp	r2, #2
   21c52:	d03e      	beq.n	21cd2 <_ZN20complex_dynamic_type3app17h2eb079dcc3ed1afdE+0x116>
   21c54:	2103      	movs	r1, #3
   21c56:	4630      	mov	r0, r6
   21c58:	e039      	b.n	21cce <_ZN20complex_dynamic_type3app17h2eb079dcc3ed1afdE+0x112>
   21c5a:	a819      	add	r0, sp, #100	@ 0x64
   21c5c:	7004      	strb	r4, [r0, #0]
   21c5e:	2000      	movs	r0, #0
   21c60:	2800      	cmp	r0, #0
   21c62:	d1ec      	bne.n	21c3e <_ZN20complex_dynamic_type3app17h2eb079dcc3ed1afdE+0x82>
   21c64:	4820      	ldr	r0, [pc, #128]	@ (21ce8 <_ZN20complex_dynamic_type3app17h2eb079dcc3ed1afdE+0x12c>)
   21c66:	2102      	movs	r1, #2
   21c68:	2203      	movs	r2, #3
   21c6a:	2400      	movs	r4, #0
   21c6c:	460e      	mov	r6, r1
   21c6e:	4623      	mov	r3, r4
   21c70:	df02      	svc	2
   21c72:	287f      	cmp	r0, #127	@ 0x7f
   21c74:	d801      	bhi.n	21c7a <_ZN20complex_dynamic_type3app17h2eb079dcc3ed1afdE+0xbe>
   21c76:	462c      	mov	r4, r5
   21c78:	e013      	b.n	21ca2 <_ZN20complex_dynamic_type3app17h2eb079dcc3ed1afdE+0xe6>
   21c7a:	a806      	add	r0, sp, #24
   21c7c:	7802      	ldrb	r2, [r0, #0]
   21c7e:	2a02      	cmp	r2, #2
   21c80:	d003      	beq.n	21c8a <_ZN20complex_dynamic_type3app17h2eb079dcc3ed1afdE+0xce>
   21c82:	2102      	movs	r1, #2
   21c84:	4818      	ldr	r0, [pc, #96]	@ (21ce8 <_ZN20complex_dynamic_type3app17h2eb079dcc3ed1afdE+0x12c>)
   21c86:	f009 fafb 	bl	2b280 <_ZN9allow_pin12dynamic_type7unshare17h19052c50f9e150aeE>
   21c8a:	a806      	add	r0, sp, #24
   21c8c:	7006      	strb	r6, [r0, #0]
   21c8e:	a819      	add	r0, sp, #100	@ 0x64
   21c90:	7802      	ldrb	r2, [r0, #0]
   21c92:	2a02      	cmp	r2, #2
   21c94:	d003      	beq.n	21c9e <_ZN20complex_dynamic_type3app17h2eb079dcc3ed1afdE+0xe2>
   21c96:	2103      	movs	r1, #3
   21c98:	4813      	ldr	r0, [pc, #76]	@ (21ce8 <_ZN20complex_dynamic_type3app17h2eb079dcc3ed1afdE+0x12c>)
   21c9a:	f009 faf1 	bl	2b280 <_ZN9allow_pin12dynamic_type7unshare17h19052c50f9e150aeE>
   21c9e:	a819      	add	r0, sp, #100	@ 0x64
   21ca0:	7006      	strb	r6, [r0, #0]
   21ca2:	4e11      	ldr	r6, [pc, #68]	@ (21ce8 <_ZN20complex_dynamic_type3app17h2eb079dcc3ed1afdE+0x12c>)
   21ca4:	2c00      	cmp	r4, #0
   21ca6:	d1cd      	bne.n	21c44 <_ZN20complex_dynamic_type3app17h2eb079dcc3ed1afdE+0x88>
   21ca8:	a819      	add	r0, sp, #100	@ 0x64
   21caa:	7804      	ldrb	r4, [r0, #0]
   21cac:	2c02      	cmp	r4, #2
   21cae:	d001      	beq.n	21cb4 <_ZN20complex_dynamic_type3app17h2eb079dcc3ed1afdE+0xf8>
   21cb0:	480e      	ldr	r0, [pc, #56]	@ (21cec <_ZN20complex_dynamic_type3app17h2eb079dcc3ed1afdE+0x130>)
   21cb2:	9004      	str	r0, [sp, #16]
   21cb4:	9d05      	ldr	r5, [sp, #20]
   21cb6:	1c68      	adds	r0, r5, #1
   21cb8:	222d      	movs	r2, #45	@ 0x2d
   21cba:	9904      	ldr	r1, [sp, #16]
   21cbc:	f009 fcc5 	bl	2b64a <__aeabi_memcpy>
   21cc0:	2000      	movs	r0, #0
   21cc2:	2c02      	cmp	r4, #2
   21cc4:	7028      	strb	r0, [r5, #0]
   21cc6:	d004      	beq.n	21cd2 <_ZN20complex_dynamic_type3app17h2eb079dcc3ed1afdE+0x116>
   21cc8:	2103      	movs	r1, #3
   21cca:	4630      	mov	r0, r6
   21ccc:	4622      	mov	r2, r4
   21cce:	f009 fad7 	bl	2b280 <_ZN9allow_pin12dynamic_type7unshare17h19052c50f9e150aeE>
   21cd2:	a806      	add	r0, sp, #24
   21cd4:	7802      	ldrb	r2, [r0, #0]
   21cd6:	2a02      	cmp	r2, #2
   21cd8:	d003      	beq.n	21ce2 <_ZN20complex_dynamic_type3app17h2eb079dcc3ed1afdE+0x126>
   21cda:	2102      	movs	r1, #2
   21cdc:	4630      	mov	r0, r6
   21cde:	f009 facf 	bl	2b280 <_ZN9allow_pin12dynamic_type7unshare17h19052c50f9e150aeE>
   21ce2:	b029      	add	sp, #164	@ 0xa4
   21ce4:	bdf0      	pop	{r4, r5, r6, r7, pc}
   21ce6:	46c0      	nop			@ (mov r8, r8)
   21ce8:	00000e3d 	.word	0x00000e3d
   21cec:	00010c17 	.word	0x00010c17

00021cf0 <_ZN20complex_dynamic_type3app17h30ba2712896de2e0E>:
   21cf0:	b5f0      	push	{r4, r5, r6, r7, lr}
   21cf2:	af03      	add	r7, sp, #12
   21cf4:	b0a5      	sub	sp, #148	@ 0x94
   21cf6:	9005      	str	r0, [sp, #20]
   21cf8:	a806      	add	r0, sp, #24
   21cfa:	2502      	movs	r5, #2
   21cfc:	7005      	strb	r5, [r0, #0]
   21cfe:	1c40      	adds	r0, r0, #1
   21d00:	9003      	str	r0, [sp, #12]
   21d02:	2455      	movs	r4, #85	@ 0x55
   21d04:	4622      	mov	r2, r4
   21d06:	f009 fca0 	bl	2b64a <__aeabi_memcpy>
   21d0a:	ae1c      	add	r6, sp, #112	@ 0x70
   21d0c:	1c70      	adds	r0, r6, #1
   21d0e:	2111      	movs	r1, #17
   21d10:	9004      	str	r0, [sp, #16]
   21d12:	9102      	str	r1, [sp, #8]
   21d14:	f009 fad9 	bl	2b2ca <__aeabi_memclr>
   21d18:	7035      	strb	r5, [r6, #0]
   21d1a:	2604      	movs	r6, #4
   21d1c:	9400      	str	r4, [sp, #0]
   21d1e:	9601      	str	r6, [sp, #4]
   21d20:	a821      	add	r0, sp, #132	@ 0x84
   21d22:	493c      	ldr	r1, [pc, #240]	@ (21e14 <_ZN20complex_dynamic_type3app17h30ba2712896de2e0E+0x124>)
   21d24:	462a      	mov	r2, r5
   21d26:	9b03      	ldr	r3, [sp, #12]
   21d28:	f009 fab7 	bl	2b29a <_ZN9allow_pin13dynamic_allow17h8bfd3764c146b81aE>
   21d2c:	9821      	ldr	r0, [sp, #132]	@ 0x84
   21d2e:	2802      	cmp	r0, #2
   21d30:	d101      	bne.n	21d36 <_ZN20complex_dynamic_type3app17h30ba2712896de2e0E+0x46>
   21d32:	9922      	ldr	r1, [sp, #136]	@ 0x88
   21d34:	e001      	b.n	21d3a <_ZN20complex_dynamic_type3app17h30ba2712896de2e0E+0x4a>
   21d36:	a906      	add	r1, sp, #24
   21d38:	700e      	strb	r6, [r1, #0]
   21d3a:	2601      	movs	r6, #1
   21d3c:	2802      	cmp	r0, #2
   21d3e:	d025      	beq.n	21d8c <_ZN20complex_dynamic_type3app17h30ba2712896de2e0E+0x9c>
   21d40:	a81c      	add	r0, sp, #112	@ 0x70
   21d42:	7800      	ldrb	r0, [r0, #0]
   21d44:	2802      	cmp	r0, #2
   21d46:	d10e      	bne.n	21d66 <_ZN20complex_dynamic_type3app17h30ba2712896de2e0E+0x76>
   21d48:	2403      	movs	r4, #3
   21d4a:	9802      	ldr	r0, [sp, #8]
   21d4c:	9000      	str	r0, [sp, #0]
   21d4e:	9401      	str	r4, [sp, #4]
   21d50:	a821      	add	r0, sp, #132	@ 0x84
   21d52:	2202      	movs	r2, #2
   21d54:	492f      	ldr	r1, [pc, #188]	@ (21e14 <_ZN20complex_dynamic_type3app17h30ba2712896de2e0E+0x124>)
   21d56:	9b04      	ldr	r3, [sp, #16]
   21d58:	f009 fa9f 	bl	2b29a <_ZN9allow_pin13dynamic_allow17h8bfd3764c146b81aE>
   21d5c:	9821      	ldr	r0, [sp, #132]	@ 0x84
   21d5e:	2802      	cmp	r0, #2
   21d60:	d106      	bne.n	21d70 <_ZN20complex_dynamic_type3app17h30ba2712896de2e0E+0x80>
   21d62:	9922      	ldr	r1, [sp, #136]	@ 0x88
   21d64:	e000      	b.n	21d68 <_ZN20complex_dynamic_type3app17h30ba2712896de2e0E+0x78>
   21d66:	2103      	movs	r1, #3
   21d68:	4630      	mov	r0, r6
   21d6a:	2800      	cmp	r0, #0
   21d6c:	d005      	beq.n	21d7a <_ZN20complex_dynamic_type3app17h30ba2712896de2e0E+0x8a>
   21d6e:	e00d      	b.n	21d8c <_ZN20complex_dynamic_type3app17h30ba2712896de2e0E+0x9c>
   21d70:	a81c      	add	r0, sp, #112	@ 0x70
   21d72:	7004      	strb	r4, [r0, #0]
   21d74:	2000      	movs	r0, #0
   21d76:	2800      	cmp	r0, #0
   21d78:	d108      	bne.n	21d8c <_ZN20complex_dynamic_type3app17h30ba2712896de2e0E+0x9c>
   21d7a:	4826      	ldr	r0, [pc, #152]	@ (21e14 <_ZN20complex_dynamic_type3app17h30ba2712896de2e0E+0x124>)
   21d7c:	2502      	movs	r5, #2
   21d7e:	2400      	movs	r4, #0
   21d80:	4629      	mov	r1, r5
   21d82:	462a      	mov	r2, r5
   21d84:	4623      	mov	r3, r4
   21d86:	df02      	svc	2
   21d88:	287f      	cmp	r0, #127	@ 0x7f
   21d8a:	d80d      	bhi.n	21da8 <_ZN20complex_dynamic_type3app17h30ba2712896de2e0E+0xb8>
   21d8c:	4634      	mov	r4, r6
   21d8e:	2c00      	cmp	r4, #0
   21d90:	d020      	beq.n	21dd4 <_ZN20complex_dynamic_type3app17h30ba2712896de2e0E+0xe4>
   21d92:	2001      	movs	r0, #1
   21d94:	9a05      	ldr	r2, [sp, #20]
   21d96:	7010      	strb	r0, [r2, #0]
   21d98:	6051      	str	r1, [r2, #4]
   21d9a:	a81c      	add	r0, sp, #112	@ 0x70
   21d9c:	7802      	ldrb	r2, [r0, #0]
   21d9e:	2a02      	cmp	r2, #2
   21da0:	d02d      	beq.n	21dfe <_ZN20complex_dynamic_type3app17h30ba2712896de2e0E+0x10e>
   21da2:	2102      	movs	r1, #2
   21da4:	481b      	ldr	r0, [pc, #108]	@ (21e14 <_ZN20complex_dynamic_type3app17h30ba2712896de2e0E+0x124>)
   21da6:	e028      	b.n	21dfa <_ZN20complex_dynamic_type3app17h30ba2712896de2e0E+0x10a>
   21da8:	a806      	add	r0, sp, #24
   21daa:	7802      	ldrb	r2, [r0, #0]
   21dac:	2a02      	cmp	r2, #2
   21dae:	d003      	beq.n	21db8 <_ZN20complex_dynamic_type3app17h30ba2712896de2e0E+0xc8>
   21db0:	2102      	movs	r1, #2
   21db2:	4818      	ldr	r0, [pc, #96]	@ (21e14 <_ZN20complex_dynamic_type3app17h30ba2712896de2e0E+0x124>)
   21db4:	f009 fa64 	bl	2b280 <_ZN9allow_pin12dynamic_type7unshare17h19052c50f9e150aeE>
   21db8:	a806      	add	r0, sp, #24
   21dba:	7005      	strb	r5, [r0, #0]
   21dbc:	a81c      	add	r0, sp, #112	@ 0x70
   21dbe:	7802      	ldrb	r2, [r0, #0]
   21dc0:	2a02      	cmp	r2, #2
   21dc2:	d003      	beq.n	21dcc <_ZN20complex_dynamic_type3app17h30ba2712896de2e0E+0xdc>
   21dc4:	2102      	movs	r1, #2
   21dc6:	4813      	ldr	r0, [pc, #76]	@ (21e14 <_ZN20complex_dynamic_type3app17h30ba2712896de2e0E+0x124>)
   21dc8:	f009 fa5a 	bl	2b280 <_ZN9allow_pin12dynamic_type7unshare17h19052c50f9e150aeE>
   21dcc:	a81c      	add	r0, sp, #112	@ 0x70
   21dce:	7005      	strb	r5, [r0, #0]
   21dd0:	2c00      	cmp	r4, #0
   21dd2:	d1de      	bne.n	21d92 <_ZN20complex_dynamic_type3app17h30ba2712896de2e0E+0xa2>
   21dd4:	a81c      	add	r0, sp, #112	@ 0x70
   21dd6:	7804      	ldrb	r4, [r0, #0]
   21dd8:	2c02      	cmp	r4, #2
   21dda:	d001      	beq.n	21de0 <_ZN20complex_dynamic_type3app17h30ba2712896de2e0E+0xf0>
   21ddc:	480e      	ldr	r0, [pc, #56]	@ (21e18 <_ZN20complex_dynamic_type3app17h30ba2712896de2e0E+0x128>)
   21dde:	9004      	str	r0, [sp, #16]
   21de0:	9d05      	ldr	r5, [sp, #20]
   21de2:	1c68      	adds	r0, r5, #1
   21de4:	2211      	movs	r2, #17
   21de6:	9904      	ldr	r1, [sp, #16]
   21de8:	f009 fc2f 	bl	2b64a <__aeabi_memcpy>
   21dec:	2000      	movs	r0, #0
   21dee:	2c02      	cmp	r4, #2
   21df0:	7028      	strb	r0, [r5, #0]
   21df2:	d004      	beq.n	21dfe <_ZN20complex_dynamic_type3app17h30ba2712896de2e0E+0x10e>
   21df4:	2102      	movs	r1, #2
   21df6:	4807      	ldr	r0, [pc, #28]	@ (21e14 <_ZN20complex_dynamic_type3app17h30ba2712896de2e0E+0x124>)
   21df8:	4622      	mov	r2, r4
   21dfa:	f009 fa41 	bl	2b280 <_ZN9allow_pin12dynamic_type7unshare17h19052c50f9e150aeE>
   21dfe:	a806      	add	r0, sp, #24
   21e00:	7802      	ldrb	r2, [r0, #0]
   21e02:	2a02      	cmp	r2, #2
   21e04:	d003      	beq.n	21e0e <_ZN20complex_dynamic_type3app17h30ba2712896de2e0E+0x11e>
   21e06:	2102      	movs	r1, #2
   21e08:	4802      	ldr	r0, [pc, #8]	@ (21e14 <_ZN20complex_dynamic_type3app17h30ba2712896de2e0E+0x124>)
   21e0a:	f009 fa39 	bl	2b280 <_ZN9allow_pin12dynamic_type7unshare17h19052c50f9e150aeE>
   21e0e:	b025      	add	sp, #148	@ 0x94
   21e10:	bdf0      	pop	{r4, r5, r6, r7, pc}
   21e12:	46c0      	nop			@ (mov r8, r8)
   21e14:	00000c89 	.word	0x00000c89
   21e18:	00010477 	.word	0x00010477

00021e1c <_ZN20complex_dynamic_type3app17h30dbfff13dde5cfcE>:
   21e1c:	b5f0      	push	{r4, r5, r6, r7, lr}
   21e1e:	af03      	add	r7, sp, #12
   21e20:	b0a9      	sub	sp, #164	@ 0xa4
   21e22:	9006      	str	r0, [sp, #24]
   21e24:	a807      	add	r0, sp, #28
   21e26:	2502      	movs	r5, #2
   21e28:	7005      	strb	r5, [r0, #0]
   21e2a:	1c40      	adds	r0, r0, #1
   21e2c:	9004      	str	r0, [sp, #16]
   21e2e:	2632      	movs	r6, #50	@ 0x32
   21e30:	4632      	mov	r2, r6
   21e32:	f009 fc0a 	bl	2b64a <__aeabi_memcpy>
   21e36:	ac14      	add	r4, sp, #80	@ 0x50
   21e38:	1c60      	adds	r0, r4, #1
   21e3a:	2141      	movs	r1, #65	@ 0x41
   21e3c:	9005      	str	r0, [sp, #20]
   21e3e:	9103      	str	r1, [sp, #12]
   21e40:	f009 fa43 	bl	2b2ca <__aeabi_memclr>
   21e44:	9502      	str	r5, [sp, #8]
   21e46:	7025      	strb	r5, [r4, #0]
   21e48:	2404      	movs	r4, #4
   21e4a:	9600      	str	r6, [sp, #0]
   21e4c:	9401      	str	r4, [sp, #4]
   21e4e:	a825      	add	r0, sp, #148	@ 0x94
   21e50:	4e3c      	ldr	r6, [pc, #240]	@ (21f44 <_ZN20complex_dynamic_type3app17h30dbfff13dde5cfcE+0x128>)
   21e52:	2207      	movs	r2, #7
   21e54:	4631      	mov	r1, r6
   21e56:	9b04      	ldr	r3, [sp, #16]
   21e58:	f009 fa1f 	bl	2b29a <_ZN9allow_pin13dynamic_allow17h8bfd3764c146b81aE>
   21e5c:	9825      	ldr	r0, [sp, #148]	@ 0x94
   21e5e:	2802      	cmp	r0, #2
   21e60:	d101      	bne.n	21e66 <_ZN20complex_dynamic_type3app17h30dbfff13dde5cfcE+0x4a>
   21e62:	9926      	ldr	r1, [sp, #152]	@ 0x98
   21e64:	e001      	b.n	21e6a <_ZN20complex_dynamic_type3app17h30dbfff13dde5cfcE+0x4e>
   21e66:	a907      	add	r1, sp, #28
   21e68:	700c      	strb	r4, [r1, #0]
   21e6a:	2501      	movs	r5, #1
   21e6c:	2802      	cmp	r0, #2
   21e6e:	d024      	beq.n	21eba <_ZN20complex_dynamic_type3app17h30dbfff13dde5cfcE+0x9e>
   21e70:	a814      	add	r0, sp, #80	@ 0x50
   21e72:	7800      	ldrb	r0, [r0, #0]
   21e74:	2802      	cmp	r0, #2
   21e76:	d10e      	bne.n	21e96 <_ZN20complex_dynamic_type3app17h30dbfff13dde5cfcE+0x7a>
   21e78:	2403      	movs	r4, #3
   21e7a:	9803      	ldr	r0, [sp, #12]
   21e7c:	9000      	str	r0, [sp, #0]
   21e7e:	9401      	str	r4, [sp, #4]
   21e80:	a825      	add	r0, sp, #148	@ 0x94
   21e82:	2205      	movs	r2, #5
   21e84:	4631      	mov	r1, r6
   21e86:	9b05      	ldr	r3, [sp, #20]
   21e88:	f009 fa07 	bl	2b29a <_ZN9allow_pin13dynamic_allow17h8bfd3764c146b81aE>
   21e8c:	9825      	ldr	r0, [sp, #148]	@ 0x94
   21e8e:	2802      	cmp	r0, #2
   21e90:	d106      	bne.n	21ea0 <_ZN20complex_dynamic_type3app17h30dbfff13dde5cfcE+0x84>
   21e92:	9926      	ldr	r1, [sp, #152]	@ 0x98
   21e94:	e000      	b.n	21e98 <_ZN20complex_dynamic_type3app17h30dbfff13dde5cfcE+0x7c>
   21e96:	2103      	movs	r1, #3
   21e98:	4628      	mov	r0, r5
   21e9a:	2800      	cmp	r0, #0
   21e9c:	d005      	beq.n	21eaa <_ZN20complex_dynamic_type3app17h30dbfff13dde5cfcE+0x8e>
   21e9e:	e00c      	b.n	21eba <_ZN20complex_dynamic_type3app17h30dbfff13dde5cfcE+0x9e>
   21ea0:	a814      	add	r0, sp, #80	@ 0x50
   21ea2:	7004      	strb	r4, [r0, #0]
   21ea4:	2000      	movs	r0, #0
   21ea6:	2800      	cmp	r0, #0
   21ea8:	d107      	bne.n	21eba <_ZN20complex_dynamic_type3app17h30dbfff13dde5cfcE+0x9e>
   21eaa:	4826      	ldr	r0, [pc, #152]	@ (21f44 <_ZN20complex_dynamic_type3app17h30dbfff13dde5cfcE+0x128>)
   21eac:	2107      	movs	r1, #7
   21eae:	2205      	movs	r2, #5
   21eb0:	2400      	movs	r4, #0
   21eb2:	4623      	mov	r3, r4
   21eb4:	df02      	svc	2
   21eb6:	287f      	cmp	r0, #127	@ 0x7f
   21eb8:	d80d      	bhi.n	21ed6 <_ZN20complex_dynamic_type3app17h30dbfff13dde5cfcE+0xba>
   21eba:	462c      	mov	r4, r5
   21ebc:	2c00      	cmp	r4, #0
   21ebe:	d021      	beq.n	21f04 <_ZN20complex_dynamic_type3app17h30dbfff13dde5cfcE+0xe8>
   21ec0:	2001      	movs	r0, #1
   21ec2:	9a06      	ldr	r2, [sp, #24]
   21ec4:	7010      	strb	r0, [r2, #0]
   21ec6:	6051      	str	r1, [r2, #4]
   21ec8:	a814      	add	r0, sp, #80	@ 0x50
   21eca:	7802      	ldrb	r2, [r0, #0]
   21ecc:	2a02      	cmp	r2, #2
   21ece:	d02e      	beq.n	21f2e <_ZN20complex_dynamic_type3app17h30dbfff13dde5cfcE+0x112>
   21ed0:	2105      	movs	r1, #5
   21ed2:	4630      	mov	r0, r6
   21ed4:	e029      	b.n	21f2a <_ZN20complex_dynamic_type3app17h30dbfff13dde5cfcE+0x10e>
   21ed6:	a807      	add	r0, sp, #28
   21ed8:	7802      	ldrb	r2, [r0, #0]
   21eda:	2a02      	cmp	r2, #2
   21edc:	d003      	beq.n	21ee6 <_ZN20complex_dynamic_type3app17h30dbfff13dde5cfcE+0xca>
   21ede:	2107      	movs	r1, #7
   21ee0:	4630      	mov	r0, r6
   21ee2:	f009 f9cd 	bl	2b280 <_ZN9allow_pin12dynamic_type7unshare17h19052c50f9e150aeE>
   21ee6:	a807      	add	r0, sp, #28
   21ee8:	9d02      	ldr	r5, [sp, #8]
   21eea:	7005      	strb	r5, [r0, #0]
   21eec:	a814      	add	r0, sp, #80	@ 0x50
   21eee:	7802      	ldrb	r2, [r0, #0]
   21ef0:	2a02      	cmp	r2, #2
   21ef2:	d003      	beq.n	21efc <_ZN20complex_dynamic_type3app17h30dbfff13dde5cfcE+0xe0>
   21ef4:	2105      	movs	r1, #5
   21ef6:	4630      	mov	r0, r6
   21ef8:	f009 f9c2 	bl	2b280 <_ZN9allow_pin12dynamic_type7unshare17h19052c50f9e150aeE>
   21efc:	a814      	add	r0, sp, #80	@ 0x50
   21efe:	7005      	strb	r5, [r0, #0]
   21f00:	2c00      	cmp	r4, #0
   21f02:	d1dd      	bne.n	21ec0 <_ZN20complex_dynamic_type3app17h30dbfff13dde5cfcE+0xa4>
   21f04:	a814      	add	r0, sp, #80	@ 0x50
   21f06:	7804      	ldrb	r4, [r0, #0]
   21f08:	2c02      	cmp	r4, #2
   21f0a:	d001      	beq.n	21f10 <_ZN20complex_dynamic_type3app17h30dbfff13dde5cfcE+0xf4>
   21f0c:	480e      	ldr	r0, [pc, #56]	@ (21f48 <_ZN20complex_dynamic_type3app17h30dbfff13dde5cfcE+0x12c>)
   21f0e:	9005      	str	r0, [sp, #20]
   21f10:	9d06      	ldr	r5, [sp, #24]
   21f12:	1c68      	adds	r0, r5, #1
   21f14:	2241      	movs	r2, #65	@ 0x41
   21f16:	9905      	ldr	r1, [sp, #20]
   21f18:	f009 fb97 	bl	2b64a <__aeabi_memcpy>
   21f1c:	2000      	movs	r0, #0
   21f1e:	2c02      	cmp	r4, #2
   21f20:	7028      	strb	r0, [r5, #0]
   21f22:	d004      	beq.n	21f2e <_ZN20complex_dynamic_type3app17h30dbfff13dde5cfcE+0x112>
   21f24:	2105      	movs	r1, #5
   21f26:	4630      	mov	r0, r6
   21f28:	4622      	mov	r2, r4
   21f2a:	f009 f9a9 	bl	2b280 <_ZN9allow_pin12dynamic_type7unshare17h19052c50f9e150aeE>
   21f2e:	a807      	add	r0, sp, #28
   21f30:	7802      	ldrb	r2, [r0, #0]
   21f32:	2a02      	cmp	r2, #2
   21f34:	d003      	beq.n	21f3e <_ZN20complex_dynamic_type3app17h30dbfff13dde5cfcE+0x122>
   21f36:	2107      	movs	r1, #7
   21f38:	4630      	mov	r0, r6
   21f3a:	f009 f9a1 	bl	2b280 <_ZN9allow_pin12dynamic_type7unshare17h19052c50f9e150aeE>
   21f3e:	b029      	add	sp, #164	@ 0xa4
   21f40:	bdf0      	pop	{r4, r5, r6, r7, pc}
   21f42:	46c0      	nop			@ (mov r8, r8)
   21f44:	0000091d 	.word	0x0000091d
   21f48:	000100fe 	.word	0x000100fe

00021f4c <_ZN20complex_dynamic_type3app17h312d3f057ed7ee6fE>:
   21f4c:	b5f0      	push	{r4, r5, r6, r7, lr}
   21f4e:	af03      	add	r7, sp, #12
   21f50:	b0b3      	sub	sp, #204	@ 0xcc
   21f52:	9007      	str	r0, [sp, #28]
   21f54:	a808      	add	r0, sp, #32
   21f56:	2602      	movs	r6, #2
   21f58:	7006      	strb	r6, [r0, #0]
   21f5a:	1c40      	adds	r0, r0, #1
   21f5c:	9005      	str	r0, [sp, #20]
   21f5e:	243a      	movs	r4, #58	@ 0x3a
   21f60:	4622      	mov	r2, r4
   21f62:	f009 fb72 	bl	2b64a <__aeabi_memcpy>
   21f66:	ad17      	add	r5, sp, #92	@ 0x5c
   21f68:	1c68      	adds	r0, r5, #1
   21f6a:	215d      	movs	r1, #93	@ 0x5d
   21f6c:	9006      	str	r0, [sp, #24]
   21f6e:	9104      	str	r1, [sp, #16]
   21f70:	f009 f9ab 	bl	2b2ca <__aeabi_memclr>
   21f74:	9603      	str	r6, [sp, #12]
   21f76:	702e      	strb	r6, [r5, #0]
   21f78:	2504      	movs	r5, #4
   21f7a:	9400      	str	r4, [sp, #0]
   21f7c:	9501      	str	r5, [sp, #4]
   21f7e:	a82f      	add	r0, sp, #188	@ 0xbc
   21f80:	493b      	ldr	r1, [pc, #236]	@ (22070 <_ZN20complex_dynamic_type3app17h312d3f057ed7ee6fE+0x124>)
   21f82:	2400      	movs	r4, #0
   21f84:	4622      	mov	r2, r4
   21f86:	9b05      	ldr	r3, [sp, #20]
   21f88:	f009 f987 	bl	2b29a <_ZN9allow_pin13dynamic_allow17h8bfd3764c146b81aE>
   21f8c:	982f      	ldr	r0, [sp, #188]	@ 0xbc
   21f8e:	2802      	cmp	r0, #2
   21f90:	d101      	bne.n	21f96 <_ZN20complex_dynamic_type3app17h312d3f057ed7ee6fE+0x4a>
   21f92:	9930      	ldr	r1, [sp, #192]	@ 0xc0
   21f94:	e001      	b.n	21f9a <_ZN20complex_dynamic_type3app17h312d3f057ed7ee6fE+0x4e>
   21f96:	a908      	add	r1, sp, #32
   21f98:	700d      	strb	r5, [r1, #0]
   21f9a:	2601      	movs	r6, #1
   21f9c:	2802      	cmp	r0, #2
   21f9e:	d023      	beq.n	21fe8 <_ZN20complex_dynamic_type3app17h312d3f057ed7ee6fE+0x9c>
   21fa0:	a817      	add	r0, sp, #92	@ 0x5c
   21fa2:	7800      	ldrb	r0, [r0, #0]
   21fa4:	2802      	cmp	r0, #2
   21fa6:	d10e      	bne.n	21fc6 <_ZN20complex_dynamic_type3app17h312d3f057ed7ee6fE+0x7a>
   21fa8:	2503      	movs	r5, #3
   21faa:	9804      	ldr	r0, [sp, #16]
   21fac:	9000      	str	r0, [sp, #0]
   21fae:	9501      	str	r5, [sp, #4]
   21fb0:	a82f      	add	r0, sp, #188	@ 0xbc
   21fb2:	2205      	movs	r2, #5
   21fb4:	492e      	ldr	r1, [pc, #184]	@ (22070 <_ZN20complex_dynamic_type3app17h312d3f057ed7ee6fE+0x124>)
   21fb6:	9b06      	ldr	r3, [sp, #24]
   21fb8:	f009 f96f 	bl	2b29a <_ZN9allow_pin13dynamic_allow17h8bfd3764c146b81aE>
   21fbc:	982f      	ldr	r0, [sp, #188]	@ 0xbc
   21fbe:	2802      	cmp	r0, #2
   21fc0:	d106      	bne.n	21fd0 <_ZN20complex_dynamic_type3app17h312d3f057ed7ee6fE+0x84>
   21fc2:	9930      	ldr	r1, [sp, #192]	@ 0xc0
   21fc4:	e000      	b.n	21fc8 <_ZN20complex_dynamic_type3app17h312d3f057ed7ee6fE+0x7c>
   21fc6:	2103      	movs	r1, #3
   21fc8:	4634      	mov	r4, r6
   21fca:	2c00      	cmp	r4, #0
   21fcc:	d004      	beq.n	21fd8 <_ZN20complex_dynamic_type3app17h312d3f057ed7ee6fE+0x8c>
   21fce:	e00b      	b.n	21fe8 <_ZN20complex_dynamic_type3app17h312d3f057ed7ee6fE+0x9c>
   21fd0:	a817      	add	r0, sp, #92	@ 0x5c
   21fd2:	7005      	strb	r5, [r0, #0]
   21fd4:	2c00      	cmp	r4, #0
   21fd6:	d107      	bne.n	21fe8 <_ZN20complex_dynamic_type3app17h312d3f057ed7ee6fE+0x9c>
   21fd8:	4825      	ldr	r0, [pc, #148]	@ (22070 <_ZN20complex_dynamic_type3app17h312d3f057ed7ee6fE+0x124>)
   21fda:	2205      	movs	r2, #5
   21fdc:	2400      	movs	r4, #0
   21fde:	4621      	mov	r1, r4
   21fe0:	4623      	mov	r3, r4
   21fe2:	df02      	svc	2
   21fe4:	287f      	cmp	r0, #127	@ 0x7f
   21fe6:	d80d      	bhi.n	22004 <_ZN20complex_dynamic_type3app17h312d3f057ed7ee6fE+0xb8>
   21fe8:	4634      	mov	r4, r6
   21fea:	2c00      	cmp	r4, #0
   21fec:	d021      	beq.n	22032 <_ZN20complex_dynamic_type3app17h312d3f057ed7ee6fE+0xe6>
   21fee:	2001      	movs	r0, #1
   21ff0:	9a07      	ldr	r2, [sp, #28]
   21ff2:	7010      	strb	r0, [r2, #0]
   21ff4:	6051      	str	r1, [r2, #4]
   21ff6:	a817      	add	r0, sp, #92	@ 0x5c
   21ff8:	7802      	ldrb	r2, [r0, #0]
   21ffa:	2a02      	cmp	r2, #2
   21ffc:	d02e      	beq.n	2205c <_ZN20complex_dynamic_type3app17h312d3f057ed7ee6fE+0x110>
   21ffe:	2105      	movs	r1, #5
   22000:	481b      	ldr	r0, [pc, #108]	@ (22070 <_ZN20complex_dynamic_type3app17h312d3f057ed7ee6fE+0x124>)
   22002:	e029      	b.n	22058 <_ZN20complex_dynamic_type3app17h312d3f057ed7ee6fE+0x10c>
   22004:	a808      	add	r0, sp, #32
   22006:	7802      	ldrb	r2, [r0, #0]
   22008:	2a02      	cmp	r2, #2
   2200a:	d003      	beq.n	22014 <_ZN20complex_dynamic_type3app17h312d3f057ed7ee6fE+0xc8>
   2200c:	2100      	movs	r1, #0
   2200e:	4818      	ldr	r0, [pc, #96]	@ (22070 <_ZN20complex_dynamic_type3app17h312d3f057ed7ee6fE+0x124>)
   22010:	f009 f936 	bl	2b280 <_ZN9allow_pin12dynamic_type7unshare17h19052c50f9e150aeE>
   22014:	a808      	add	r0, sp, #32
   22016:	9d03      	ldr	r5, [sp, #12]
   22018:	7005      	strb	r5, [r0, #0]
   2201a:	a817      	add	r0, sp, #92	@ 0x5c
   2201c:	7802      	ldrb	r2, [r0, #0]
   2201e:	2a02      	cmp	r2, #2
   22020:	d003      	beq.n	2202a <_ZN20complex_dynamic_type3app17h312d3f057ed7ee6fE+0xde>
   22022:	2105      	movs	r1, #5
   22024:	4812      	ldr	r0, [pc, #72]	@ (22070 <_ZN20complex_dynamic_type3app17h312d3f057ed7ee6fE+0x124>)
   22026:	f009 f92b 	bl	2b280 <_ZN9allow_pin12dynamic_type7unshare17h19052c50f9e150aeE>
   2202a:	a817      	add	r0, sp, #92	@ 0x5c
   2202c:	7005      	strb	r5, [r0, #0]
   2202e:	2c00      	cmp	r4, #0
   22030:	d1dd      	bne.n	21fee <_ZN20complex_dynamic_type3app17h312d3f057ed7ee6fE+0xa2>
   22032:	a817      	add	r0, sp, #92	@ 0x5c
   22034:	7804      	ldrb	r4, [r0, #0]
   22036:	2c02      	cmp	r4, #2
   22038:	d001      	beq.n	2203e <_ZN20complex_dynamic_type3app17h312d3f057ed7ee6fE+0xf2>
   2203a:	480e      	ldr	r0, [pc, #56]	@ (22074 <_ZN20complex_dynamic_type3app17h312d3f057ed7ee6fE+0x128>)
   2203c:	9006      	str	r0, [sp, #24]
   2203e:	9d07      	ldr	r5, [sp, #28]
   22040:	1c68      	adds	r0, r5, #1
   22042:	225d      	movs	r2, #93	@ 0x5d
   22044:	9906      	ldr	r1, [sp, #24]
   22046:	f009 fb00 	bl	2b64a <__aeabi_memcpy>
   2204a:	2000      	movs	r0, #0
   2204c:	2c02      	cmp	r4, #2
   2204e:	7028      	strb	r0, [r5, #0]
   22050:	d004      	beq.n	2205c <_ZN20complex_dynamic_type3app17h312d3f057ed7ee6fE+0x110>
   22052:	2105      	movs	r1, #5
   22054:	4806      	ldr	r0, [pc, #24]	@ (22070 <_ZN20complex_dynamic_type3app17h312d3f057ed7ee6fE+0x124>)
   22056:	4622      	mov	r2, r4
   22058:	f009 f912 	bl	2b280 <_ZN9allow_pin12dynamic_type7unshare17h19052c50f9e150aeE>
   2205c:	a808      	add	r0, sp, #32
   2205e:	7802      	ldrb	r2, [r0, #0]
   22060:	2a02      	cmp	r2, #2
   22062:	d003      	beq.n	2206c <_ZN20complex_dynamic_type3app17h312d3f057ed7ee6fE+0x120>
   22064:	2100      	movs	r1, #0
   22066:	4802      	ldr	r0, [pc, #8]	@ (22070 <_ZN20complex_dynamic_type3app17h312d3f057ed7ee6fE+0x124>)
   22068:	f009 f90a 	bl	2b280 <_ZN9allow_pin12dynamic_type7unshare17h19052c50f9e150aeE>
   2206c:	b033      	add	sp, #204	@ 0xcc
   2206e:	bdf0      	pop	{r4, r5, r6, r7, pc}
   22070:	000014a4 	.word	0x000014a4
   22074:	0001096d 	.word	0x0001096d

00022078 <_ZN20complex_dynamic_type3app17h31fb8b986602a432E>:
   22078:	b5f0      	push	{r4, r5, r6, r7, lr}
   2207a:	af03      	add	r7, sp, #12
   2207c:	b0a5      	sub	sp, #148	@ 0x94
   2207e:	9007      	str	r0, [sp, #28]
   22080:	a808      	add	r0, sp, #32
   22082:	2502      	movs	r5, #2
   22084:	7005      	strb	r5, [r0, #0]
   22086:	1c40      	adds	r0, r0, #1
   22088:	9005      	str	r0, [sp, #20]
   2208a:	263b      	movs	r6, #59	@ 0x3b
   2208c:	4632      	mov	r2, r6
   2208e:	f009 fadc 	bl	2b64a <__aeabi_memcpy>
   22092:	ac17      	add	r4, sp, #92	@ 0x5c
   22094:	1c60      	adds	r0, r4, #1
   22096:	2127      	movs	r1, #39	@ 0x27
   22098:	9006      	str	r0, [sp, #24]
   2209a:	9104      	str	r1, [sp, #16]
   2209c:	f009 f915 	bl	2b2ca <__aeabi_memclr>
   220a0:	9503      	str	r5, [sp, #12]
   220a2:	7025      	strb	r5, [r4, #0]
   220a4:	2404      	movs	r4, #4
   220a6:	9600      	str	r6, [sp, #0]
   220a8:	9401      	str	r4, [sp, #4]
   220aa:	a821      	add	r0, sp, #132	@ 0x84
   220ac:	493b      	ldr	r1, [pc, #236]	@ (2219c <_ZN20complex_dynamic_type3app17h31fb8b986602a432E+0x124>)
   220ae:	2205      	movs	r2, #5
   220b0:	9b05      	ldr	r3, [sp, #20]
   220b2:	f009 f8f2 	bl	2b29a <_ZN9allow_pin13dynamic_allow17h8bfd3764c146b81aE>
   220b6:	9821      	ldr	r0, [sp, #132]	@ 0x84
   220b8:	2802      	cmp	r0, #2
   220ba:	d101      	bne.n	220c0 <_ZN20complex_dynamic_type3app17h31fb8b986602a432E+0x48>
   220bc:	9922      	ldr	r1, [sp, #136]	@ 0x88
   220be:	e001      	b.n	220c4 <_ZN20complex_dynamic_type3app17h31fb8b986602a432E+0x4c>
   220c0:	a908      	add	r1, sp, #32
   220c2:	700c      	strb	r4, [r1, #0]
   220c4:	2601      	movs	r6, #1
   220c6:	2802      	cmp	r0, #2
   220c8:	d024      	beq.n	22114 <_ZN20complex_dynamic_type3app17h31fb8b986602a432E+0x9c>
   220ca:	a817      	add	r0, sp, #92	@ 0x5c
   220cc:	7800      	ldrb	r0, [r0, #0]
   220ce:	2802      	cmp	r0, #2
   220d0:	d10e      	bne.n	220f0 <_ZN20complex_dynamic_type3app17h31fb8b986602a432E+0x78>
   220d2:	2503      	movs	r5, #3
   220d4:	9804      	ldr	r0, [sp, #16]
   220d6:	9000      	str	r0, [sp, #0]
   220d8:	9501      	str	r5, [sp, #4]
   220da:	a821      	add	r0, sp, #132	@ 0x84
   220dc:	492f      	ldr	r1, [pc, #188]	@ (2219c <_ZN20complex_dynamic_type3app17h31fb8b986602a432E+0x124>)
   220de:	462a      	mov	r2, r5
   220e0:	9b06      	ldr	r3, [sp, #24]
   220e2:	f009 f8da 	bl	2b29a <_ZN9allow_pin13dynamic_allow17h8bfd3764c146b81aE>
   220e6:	9821      	ldr	r0, [sp, #132]	@ 0x84
   220e8:	2802      	cmp	r0, #2
   220ea:	d106      	bne.n	220fa <_ZN20complex_dynamic_type3app17h31fb8b986602a432E+0x82>
   220ec:	9922      	ldr	r1, [sp, #136]	@ 0x88
   220ee:	e000      	b.n	220f2 <_ZN20complex_dynamic_type3app17h31fb8b986602a432E+0x7a>
   220f0:	2103      	movs	r1, #3
   220f2:	4630      	mov	r0, r6
   220f4:	2800      	cmp	r0, #0
   220f6:	d005      	beq.n	22104 <_ZN20complex_dynamic_type3app17h31fb8b986602a432E+0x8c>
   220f8:	e00c      	b.n	22114 <_ZN20complex_dynamic_type3app17h31fb8b986602a432E+0x9c>
   220fa:	a817      	add	r0, sp, #92	@ 0x5c
   220fc:	7005      	strb	r5, [r0, #0]
   220fe:	2000      	movs	r0, #0
   22100:	2800      	cmp	r0, #0
   22102:	d107      	bne.n	22114 <_ZN20complex_dynamic_type3app17h31fb8b986602a432E+0x9c>
   22104:	4825      	ldr	r0, [pc, #148]	@ (2219c <_ZN20complex_dynamic_type3app17h31fb8b986602a432E+0x124>)
   22106:	2105      	movs	r1, #5
   22108:	2203      	movs	r2, #3
   2210a:	2400      	movs	r4, #0
   2210c:	4623      	mov	r3, r4
   2210e:	df02      	svc	2
   22110:	287f      	cmp	r0, #127	@ 0x7f
   22112:	d80d      	bhi.n	22130 <_ZN20complex_dynamic_type3app17h31fb8b986602a432E+0xb8>
   22114:	4634      	mov	r4, r6
   22116:	2c00      	cmp	r4, #0
   22118:	d021      	beq.n	2215e <_ZN20complex_dynamic_type3app17h31fb8b986602a432E+0xe6>
   2211a:	2001      	movs	r0, #1
   2211c:	9a07      	ldr	r2, [sp, #28]
   2211e:	7010      	strb	r0, [r2, #0]
   22120:	6051      	str	r1, [r2, #4]
   22122:	a817      	add	r0, sp, #92	@ 0x5c
   22124:	7802      	ldrb	r2, [r0, #0]
   22126:	2a02      	cmp	r2, #2
   22128:	d02e      	beq.n	22188 <_ZN20complex_dynamic_type3app17h31fb8b986602a432E+0x110>
   2212a:	2103      	movs	r1, #3
   2212c:	481b      	ldr	r0, [pc, #108]	@ (2219c <_ZN20complex_dynamic_type3app17h31fb8b986602a432E+0x124>)
   2212e:	e029      	b.n	22184 <_ZN20complex_dynamic_type3app17h31fb8b986602a432E+0x10c>
   22130:	a808      	add	r0, sp, #32
   22132:	7802      	ldrb	r2, [r0, #0]
   22134:	2a02      	cmp	r2, #2
   22136:	d003      	beq.n	22140 <_ZN20complex_dynamic_type3app17h31fb8b986602a432E+0xc8>
   22138:	2105      	movs	r1, #5
   2213a:	4818      	ldr	r0, [pc, #96]	@ (2219c <_ZN20complex_dynamic_type3app17h31fb8b986602a432E+0x124>)
   2213c:	f009 f8a0 	bl	2b280 <_ZN9allow_pin12dynamic_type7unshare17h19052c50f9e150aeE>
   22140:	a808      	add	r0, sp, #32
   22142:	9d03      	ldr	r5, [sp, #12]
   22144:	7005      	strb	r5, [r0, #0]
   22146:	a817      	add	r0, sp, #92	@ 0x5c
   22148:	7802      	ldrb	r2, [r0, #0]
   2214a:	2a02      	cmp	r2, #2
   2214c:	d003      	beq.n	22156 <_ZN20complex_dynamic_type3app17h31fb8b986602a432E+0xde>
   2214e:	2103      	movs	r1, #3
   22150:	4812      	ldr	r0, [pc, #72]	@ (2219c <_ZN20complex_dynamic_type3app17h31fb8b986602a432E+0x124>)
   22152:	f009 f895 	bl	2b280 <_ZN9allow_pin12dynamic_type7unshare17h19052c50f9e150aeE>
   22156:	a817      	add	r0, sp, #92	@ 0x5c
   22158:	7005      	strb	r5, [r0, #0]
   2215a:	2c00      	cmp	r4, #0
   2215c:	d1dd      	bne.n	2211a <_ZN20complex_dynamic_type3app17h31fb8b986602a432E+0xa2>
   2215e:	a817      	add	r0, sp, #92	@ 0x5c
   22160:	7804      	ldrb	r4, [r0, #0]
   22162:	2c02      	cmp	r4, #2
   22164:	d001      	beq.n	2216a <_ZN20complex_dynamic_type3app17h31fb8b986602a432E+0xf2>
   22166:	480e      	ldr	r0, [pc, #56]	@ (221a0 <_ZN20complex_dynamic_type3app17h31fb8b986602a432E+0x128>)
   22168:	9006      	str	r0, [sp, #24]
   2216a:	9d07      	ldr	r5, [sp, #28]
   2216c:	1c68      	adds	r0, r5, #1
   2216e:	2227      	movs	r2, #39	@ 0x27
   22170:	9906      	ldr	r1, [sp, #24]
   22172:	f009 fa6a 	bl	2b64a <__aeabi_memcpy>
   22176:	2000      	movs	r0, #0
   22178:	2c02      	cmp	r4, #2
   2217a:	7028      	strb	r0, [r5, #0]
   2217c:	d004      	beq.n	22188 <_ZN20complex_dynamic_type3app17h31fb8b986602a432E+0x110>
   2217e:	2103      	movs	r1, #3
   22180:	4806      	ldr	r0, [pc, #24]	@ (2219c <_ZN20complex_dynamic_type3app17h31fb8b986602a432E+0x124>)
   22182:	4622      	mov	r2, r4
   22184:	f009 f87c 	bl	2b280 <_ZN9allow_pin12dynamic_type7unshare17h19052c50f9e150aeE>
   22188:	a808      	add	r0, sp, #32
   2218a:	7802      	ldrb	r2, [r0, #0]
   2218c:	2a02      	cmp	r2, #2
   2218e:	d003      	beq.n	22198 <_ZN20complex_dynamic_type3app17h31fb8b986602a432E+0x120>
   22190:	2105      	movs	r1, #5
   22192:	4802      	ldr	r0, [pc, #8]	@ (2219c <_ZN20complex_dynamic_type3app17h31fb8b986602a432E+0x124>)
   22194:	f009 f874 	bl	2b280 <_ZN9allow_pin12dynamic_type7unshare17h19052c50f9e150aeE>
   22198:	b025      	add	sp, #148	@ 0x94
   2219a:	bdf0      	pop	{r4, r5, r6, r7, pc}
   2219c:	00000bd3 	.word	0x00000bd3
   221a0:	0001021e 	.word	0x0001021e

000221a4 <_ZN20complex_dynamic_type3app17h3300a91bd8b42340E>:
   221a4:	b5f0      	push	{r4, r5, r6, r7, lr}
   221a6:	af03      	add	r7, sp, #12
   221a8:	b09d      	sub	sp, #116	@ 0x74
   221aa:	9007      	str	r0, [sp, #28]
   221ac:	a808      	add	r0, sp, #32
   221ae:	2502      	movs	r5, #2
   221b0:	7005      	strb	r5, [r0, #0]
   221b2:	1c40      	adds	r0, r0, #1
   221b4:	9005      	str	r0, [sp, #20]
   221b6:	261e      	movs	r6, #30
   221b8:	4632      	mov	r2, r6
   221ba:	f009 fa46 	bl	2b64a <__aeabi_memcpy>
   221be:	ac10      	add	r4, sp, #64	@ 0x40
   221c0:	1c60      	adds	r0, r4, #1
   221c2:	2121      	movs	r1, #33	@ 0x21
   221c4:	9006      	str	r0, [sp, #24]
   221c6:	9104      	str	r1, [sp, #16]
   221c8:	f009 f87f 	bl	2b2ca <__aeabi_memclr>
   221cc:	9503      	str	r5, [sp, #12]
   221ce:	7025      	strb	r5, [r4, #0]
   221d0:	2404      	movs	r4, #4
   221d2:	9600      	str	r6, [sp, #0]
   221d4:	9401      	str	r4, [sp, #4]
   221d6:	a819      	add	r0, sp, #100	@ 0x64
   221d8:	4e3c      	ldr	r6, [pc, #240]	@ (222cc <_ZN20complex_dynamic_type3app17h3300a91bd8b42340E+0x128>)
   221da:	2206      	movs	r2, #6
   221dc:	4631      	mov	r1, r6
   221de:	9b05      	ldr	r3, [sp, #20]
   221e0:	f009 f85b 	bl	2b29a <_ZN9allow_pin13dynamic_allow17h8bfd3764c146b81aE>
   221e4:	9819      	ldr	r0, [sp, #100]	@ 0x64
   221e6:	2802      	cmp	r0, #2
   221e8:	d101      	bne.n	221ee <_ZN20complex_dynamic_type3app17h3300a91bd8b42340E+0x4a>
   221ea:	991a      	ldr	r1, [sp, #104]	@ 0x68
   221ec:	e001      	b.n	221f2 <_ZN20complex_dynamic_type3app17h3300a91bd8b42340E+0x4e>
   221ee:	a908      	add	r1, sp, #32
   221f0:	700c      	strb	r4, [r1, #0]
   221f2:	2501      	movs	r5, #1
   221f4:	2802      	cmp	r0, #2
   221f6:	d024      	beq.n	22242 <_ZN20complex_dynamic_type3app17h3300a91bd8b42340E+0x9e>
   221f8:	a810      	add	r0, sp, #64	@ 0x40
   221fa:	7800      	ldrb	r0, [r0, #0]
   221fc:	2802      	cmp	r0, #2
   221fe:	d10e      	bne.n	2221e <_ZN20complex_dynamic_type3app17h3300a91bd8b42340E+0x7a>
   22200:	2403      	movs	r4, #3
   22202:	9804      	ldr	r0, [sp, #16]
   22204:	9000      	str	r0, [sp, #0]
   22206:	9401      	str	r4, [sp, #4]
   22208:	a819      	add	r0, sp, #100	@ 0x64
   2220a:	2209      	movs	r2, #9
   2220c:	4631      	mov	r1, r6
   2220e:	9b06      	ldr	r3, [sp, #24]
   22210:	f009 f843 	bl	2b29a <_ZN9allow_pin13dynamic_allow17h8bfd3764c146b81aE>
   22214:	9819      	ldr	r0, [sp, #100]	@ 0x64
   22216:	2802      	cmp	r0, #2
   22218:	d106      	bne.n	22228 <_ZN20complex_dynamic_type3app17h3300a91bd8b42340E+0x84>
   2221a:	991a      	ldr	r1, [sp, #104]	@ 0x68
   2221c:	e000      	b.n	22220 <_ZN20complex_dynamic_type3app17h3300a91bd8b42340E+0x7c>
   2221e:	2103      	movs	r1, #3
   22220:	4628      	mov	r0, r5
   22222:	2800      	cmp	r0, #0
   22224:	d005      	beq.n	22232 <_ZN20complex_dynamic_type3app17h3300a91bd8b42340E+0x8e>
   22226:	e00c      	b.n	22242 <_ZN20complex_dynamic_type3app17h3300a91bd8b42340E+0x9e>
   22228:	a810      	add	r0, sp, #64	@ 0x40
   2222a:	7004      	strb	r4, [r0, #0]
   2222c:	2000      	movs	r0, #0
   2222e:	2800      	cmp	r0, #0
   22230:	d107      	bne.n	22242 <_ZN20complex_dynamic_type3app17h3300a91bd8b42340E+0x9e>
   22232:	4826      	ldr	r0, [pc, #152]	@ (222cc <_ZN20complex_dynamic_type3app17h3300a91bd8b42340E+0x128>)
   22234:	2106      	movs	r1, #6
   22236:	2209      	movs	r2, #9
   22238:	2400      	movs	r4, #0
   2223a:	4623      	mov	r3, r4
   2223c:	df02      	svc	2
   2223e:	287f      	cmp	r0, #127	@ 0x7f
   22240:	d80d      	bhi.n	2225e <_ZN20complex_dynamic_type3app17h3300a91bd8b42340E+0xba>
   22242:	462c      	mov	r4, r5
   22244:	2c00      	cmp	r4, #0
   22246:	d021      	beq.n	2228c <_ZN20complex_dynamic_type3app17h3300a91bd8b42340E+0xe8>
   22248:	2001      	movs	r0, #1
   2224a:	9a07      	ldr	r2, [sp, #28]
   2224c:	7010      	strb	r0, [r2, #0]
   2224e:	6051      	str	r1, [r2, #4]
   22250:	a810      	add	r0, sp, #64	@ 0x40
   22252:	7802      	ldrb	r2, [r0, #0]
   22254:	2a02      	cmp	r2, #2
   22256:	d02e      	beq.n	222b6 <_ZN20complex_dynamic_type3app17h3300a91bd8b42340E+0x112>
   22258:	2109      	movs	r1, #9
   2225a:	4630      	mov	r0, r6
   2225c:	e029      	b.n	222b2 <_ZN20complex_dynamic_type3app17h3300a91bd8b42340E+0x10e>
   2225e:	a808      	add	r0, sp, #32
   22260:	7802      	ldrb	r2, [r0, #0]
   22262:	2a02      	cmp	r2, #2
   22264:	d003      	beq.n	2226e <_ZN20complex_dynamic_type3app17h3300a91bd8b42340E+0xca>
   22266:	2106      	movs	r1, #6
   22268:	4630      	mov	r0, r6
   2226a:	f009 f809 	bl	2b280 <_ZN9allow_pin12dynamic_type7unshare17h19052c50f9e150aeE>
   2226e:	a808      	add	r0, sp, #32
   22270:	9d03      	ldr	r5, [sp, #12]
   22272:	7005      	strb	r5, [r0, #0]
   22274:	a810      	add	r0, sp, #64	@ 0x40
   22276:	7802      	ldrb	r2, [r0, #0]
   22278:	2a02      	cmp	r2, #2
   2227a:	d003      	beq.n	22284 <_ZN20complex_dynamic_type3app17h3300a91bd8b42340E+0xe0>
   2227c:	2109      	movs	r1, #9
   2227e:	4630      	mov	r0, r6
   22280:	f008 fffe 	bl	2b280 <_ZN9allow_pin12dynamic_type7unshare17h19052c50f9e150aeE>
   22284:	a810      	add	r0, sp, #64	@ 0x40
   22286:	7005      	strb	r5, [r0, #0]
   22288:	2c00      	cmp	r4, #0
   2228a:	d1dd      	bne.n	22248 <_ZN20complex_dynamic_type3app17h3300a91bd8b42340E+0xa4>
   2228c:	a810      	add	r0, sp, #64	@ 0x40
   2228e:	7804      	ldrb	r4, [r0, #0]
   22290:	2c02      	cmp	r4, #2
   22292:	d001      	beq.n	22298 <_ZN20complex_dynamic_type3app17h3300a91bd8b42340E+0xf4>
   22294:	480e      	ldr	r0, [pc, #56]	@ (222d0 <_ZN20complex_dynamic_type3app17h3300a91bd8b42340E+0x12c>)
   22296:	9006      	str	r0, [sp, #24]
   22298:	9d07      	ldr	r5, [sp, #28]
   2229a:	1c68      	adds	r0, r5, #1
   2229c:	2221      	movs	r2, #33	@ 0x21
   2229e:	9906      	ldr	r1, [sp, #24]
   222a0:	f009 f9d3 	bl	2b64a <__aeabi_memcpy>
   222a4:	2000      	movs	r0, #0
   222a6:	2c02      	cmp	r4, #2
   222a8:	7028      	strb	r0, [r5, #0]
   222aa:	d004      	beq.n	222b6 <_ZN20complex_dynamic_type3app17h3300a91bd8b42340E+0x112>
   222ac:	2109      	movs	r1, #9
   222ae:	4630      	mov	r0, r6
   222b0:	4622      	mov	r2, r4
   222b2:	f008 ffe5 	bl	2b280 <_ZN9allow_pin12dynamic_type7unshare17h19052c50f9e150aeE>
   222b6:	a808      	add	r0, sp, #32
   222b8:	7802      	ldrb	r2, [r0, #0]
   222ba:	2a02      	cmp	r2, #2
   222bc:	d003      	beq.n	222c6 <_ZN20complex_dynamic_type3app17h3300a91bd8b42340E+0x122>
   222be:	2106      	movs	r1, #6
   222c0:	4630      	mov	r0, r6
   222c2:	f008 ffdd 	bl	2b280 <_ZN9allow_pin12dynamic_type7unshare17h19052c50f9e150aeE>
   222c6:	b01d      	add	sp, #116	@ 0x74
   222c8:	bdf0      	pop	{r4, r5, r6, r7, pc}
   222ca:	46c0      	nop			@ (mov r8, r8)
   222cc:	000019b5 	.word	0x000019b5
   222d0:	000102a5 	.word	0x000102a5

000222d4 <_ZN20complex_dynamic_type3app17h33f43e66035d597cE>:
   222d4:	b5f0      	push	{r4, r5, r6, r7, lr}
   222d6:	af03      	add	r7, sp, #12
   222d8:	b0b3      	sub	sp, #204	@ 0xcc
   222da:	9005      	str	r0, [sp, #20]
   222dc:	a806      	add	r0, sp, #24
   222de:	2502      	movs	r5, #2
   222e0:	7005      	strb	r5, [r0, #0]
   222e2:	1c40      	adds	r0, r0, #1
   222e4:	9003      	str	r0, [sp, #12]
   222e6:	2451      	movs	r4, #81	@ 0x51
   222e8:	4622      	mov	r2, r4
   222ea:	f009 f9ae 	bl	2b64a <__aeabi_memcpy>
   222ee:	ae1b      	add	r6, sp, #108	@ 0x6c
   222f0:	1c70      	adds	r0, r6, #1
   222f2:	214f      	movs	r1, #79	@ 0x4f
   222f4:	9004      	str	r0, [sp, #16]
   222f6:	9102      	str	r1, [sp, #8]
   222f8:	f008 ffe7 	bl	2b2ca <__aeabi_memclr>
   222fc:	7035      	strb	r5, [r6, #0]
   222fe:	2004      	movs	r0, #4
   22300:	9400      	str	r4, [sp, #0]
   22302:	4604      	mov	r4, r0
   22304:	9001      	str	r0, [sp, #4]
   22306:	a82f      	add	r0, sp, #188	@ 0xbc
   22308:	4e3d      	ldr	r6, [pc, #244]	@ (22400 <_ZN20complex_dynamic_type3app17h33f43e66035d597cE+0x12c>)
   2230a:	4631      	mov	r1, r6
   2230c:	462a      	mov	r2, r5
   2230e:	9b03      	ldr	r3, [sp, #12]
   22310:	f008 ffc3 	bl	2b29a <_ZN9allow_pin13dynamic_allow17h8bfd3764c146b81aE>
   22314:	982f      	ldr	r0, [sp, #188]	@ 0xbc
   22316:	2802      	cmp	r0, #2
   22318:	d101      	bne.n	2231e <_ZN20complex_dynamic_type3app17h33f43e66035d597cE+0x4a>
   2231a:	9930      	ldr	r1, [sp, #192]	@ 0xc0
   2231c:	e001      	b.n	22322 <_ZN20complex_dynamic_type3app17h33f43e66035d597cE+0x4e>
   2231e:	a906      	add	r1, sp, #24
   22320:	700c      	strb	r4, [r1, #0]
   22322:	2501      	movs	r5, #1
   22324:	2802      	cmp	r0, #2
   22326:	d016      	beq.n	22356 <_ZN20complex_dynamic_type3app17h33f43e66035d597cE+0x82>
   22328:	a81b      	add	r0, sp, #108	@ 0x6c
   2232a:	7800      	ldrb	r0, [r0, #0]
   2232c:	2802      	cmp	r0, #2
   2232e:	d10e      	bne.n	2234e <_ZN20complex_dynamic_type3app17h33f43e66035d597cE+0x7a>
   22330:	2403      	movs	r4, #3
   22332:	9802      	ldr	r0, [sp, #8]
   22334:	9000      	str	r0, [sp, #0]
   22336:	9401      	str	r4, [sp, #4]
   22338:	a82f      	add	r0, sp, #188	@ 0xbc
   2233a:	2204      	movs	r2, #4
   2233c:	4631      	mov	r1, r6
   2233e:	9b04      	ldr	r3, [sp, #16]
   22340:	f008 ffab 	bl	2b29a <_ZN9allow_pin13dynamic_allow17h8bfd3764c146b81aE>
   22344:	982f      	ldr	r0, [sp, #188]	@ 0xbc
   22346:	2802      	cmp	r0, #2
   22348:	d113      	bne.n	22372 <_ZN20complex_dynamic_type3app17h33f43e66035d597cE+0x9e>
   2234a:	9930      	ldr	r1, [sp, #192]	@ 0xc0
   2234c:	e000      	b.n	22350 <_ZN20complex_dynamic_type3app17h33f43e66035d597cE+0x7c>
   2234e:	2103      	movs	r1, #3
   22350:	4628      	mov	r0, r5
   22352:	2800      	cmp	r0, #0
   22354:	d012      	beq.n	2237c <_ZN20complex_dynamic_type3app17h33f43e66035d597cE+0xa8>
   22356:	462c      	mov	r4, r5
   22358:	2c00      	cmp	r4, #0
   2235a:	d031      	beq.n	223c0 <_ZN20complex_dynamic_type3app17h33f43e66035d597cE+0xec>
   2235c:	2001      	movs	r0, #1
   2235e:	9a05      	ldr	r2, [sp, #20]
   22360:	7010      	strb	r0, [r2, #0]
   22362:	6051      	str	r1, [r2, #4]
   22364:	a81b      	add	r0, sp, #108	@ 0x6c
   22366:	7802      	ldrb	r2, [r0, #0]
   22368:	2a02      	cmp	r2, #2
   2236a:	d03e      	beq.n	223ea <_ZN20complex_dynamic_type3app17h33f43e66035d597cE+0x116>
   2236c:	2104      	movs	r1, #4
   2236e:	4630      	mov	r0, r6
   22370:	e039      	b.n	223e6 <_ZN20complex_dynamic_type3app17h33f43e66035d597cE+0x112>
   22372:	a81b      	add	r0, sp, #108	@ 0x6c
   22374:	7004      	strb	r4, [r0, #0]
   22376:	2000      	movs	r0, #0
   22378:	2800      	cmp	r0, #0
   2237a:	d1ec      	bne.n	22356 <_ZN20complex_dynamic_type3app17h33f43e66035d597cE+0x82>
   2237c:	4820      	ldr	r0, [pc, #128]	@ (22400 <_ZN20complex_dynamic_type3app17h33f43e66035d597cE+0x12c>)
   2237e:	2102      	movs	r1, #2
   22380:	2204      	movs	r2, #4
   22382:	2400      	movs	r4, #0
   22384:	460e      	mov	r6, r1
   22386:	4623      	mov	r3, r4
   22388:	df02      	svc	2
   2238a:	287f      	cmp	r0, #127	@ 0x7f
   2238c:	d801      	bhi.n	22392 <_ZN20complex_dynamic_type3app17h33f43e66035d597cE+0xbe>
   2238e:	462c      	mov	r4, r5
   22390:	e013      	b.n	223ba <_ZN20complex_dynamic_type3app17h33f43e66035d597cE+0xe6>
   22392:	a806      	add	r0, sp, #24
   22394:	7802      	ldrb	r2, [r0, #0]
   22396:	2a02      	cmp	r2, #2
   22398:	d003      	beq.n	223a2 <_ZN20complex_dynamic_type3app17h33f43e66035d597cE+0xce>
   2239a:	2102      	movs	r1, #2
   2239c:	4818      	ldr	r0, [pc, #96]	@ (22400 <_ZN20complex_dynamic_type3app17h33f43e66035d597cE+0x12c>)
   2239e:	f008 ff6f 	bl	2b280 <_ZN9allow_pin12dynamic_type7unshare17h19052c50f9e150aeE>
   223a2:	a806      	add	r0, sp, #24
   223a4:	7006      	strb	r6, [r0, #0]
   223a6:	a81b      	add	r0, sp, #108	@ 0x6c
   223a8:	7802      	ldrb	r2, [r0, #0]
   223aa:	2a02      	cmp	r2, #2
   223ac:	d003      	beq.n	223b6 <_ZN20complex_dynamic_type3app17h33f43e66035d597cE+0xe2>
   223ae:	2104      	movs	r1, #4
   223b0:	4813      	ldr	r0, [pc, #76]	@ (22400 <_ZN20complex_dynamic_type3app17h33f43e66035d597cE+0x12c>)
   223b2:	f008 ff65 	bl	2b280 <_ZN9allow_pin12dynamic_type7unshare17h19052c50f9e150aeE>
   223b6:	a81b      	add	r0, sp, #108	@ 0x6c
   223b8:	7006      	strb	r6, [r0, #0]
   223ba:	4e11      	ldr	r6, [pc, #68]	@ (22400 <_ZN20complex_dynamic_type3app17h33f43e66035d597cE+0x12c>)
   223bc:	2c00      	cmp	r4, #0
   223be:	d1cd      	bne.n	2235c <_ZN20complex_dynamic_type3app17h33f43e66035d597cE+0x88>
   223c0:	a81b      	add	r0, sp, #108	@ 0x6c
   223c2:	7804      	ldrb	r4, [r0, #0]
   223c4:	2c02      	cmp	r4, #2
   223c6:	d001      	beq.n	223cc <_ZN20complex_dynamic_type3app17h33f43e66035d597cE+0xf8>
   223c8:	480e      	ldr	r0, [pc, #56]	@ (22404 <_ZN20complex_dynamic_type3app17h33f43e66035d597cE+0x130>)
   223ca:	9004      	str	r0, [sp, #16]
   223cc:	9d05      	ldr	r5, [sp, #20]
   223ce:	1c68      	adds	r0, r5, #1
   223d0:	224f      	movs	r2, #79	@ 0x4f
   223d2:	9904      	ldr	r1, [sp, #16]
   223d4:	f009 f939 	bl	2b64a <__aeabi_memcpy>
   223d8:	2000      	movs	r0, #0
   223da:	2c02      	cmp	r4, #2
   223dc:	7028      	strb	r0, [r5, #0]
   223de:	d004      	beq.n	223ea <_ZN20complex_dynamic_type3app17h33f43e66035d597cE+0x116>
   223e0:	2104      	movs	r1, #4
   223e2:	4630      	mov	r0, r6
   223e4:	4622      	mov	r2, r4
   223e6:	f008 ff4b 	bl	2b280 <_ZN9allow_pin12dynamic_type7unshare17h19052c50f9e150aeE>
   223ea:	a806      	add	r0, sp, #24
   223ec:	7802      	ldrb	r2, [r0, #0]
   223ee:	2a02      	cmp	r2, #2
   223f0:	d003      	beq.n	223fa <_ZN20complex_dynamic_type3app17h33f43e66035d597cE+0x126>
   223f2:	2102      	movs	r1, #2
   223f4:	4630      	mov	r0, r6
   223f6:	f008 ff43 	bl	2b280 <_ZN9allow_pin12dynamic_type7unshare17h19052c50f9e150aeE>
   223fa:	b033      	add	sp, #204	@ 0xcc
   223fc:	bdf0      	pop	{r4, r5, r6, r7, pc}
   223fe:	46c0      	nop			@ (mov r8, r8)
   22400:	00000e16 	.word	0x00000e16
   22404:	000103df 	.word	0x000103df

00022408 <_ZN20complex_dynamic_type3app17h354a2292cc54f62cE>:
   22408:	b5f0      	push	{r4, r5, r6, r7, lr}
   2240a:	af03      	add	r7, sp, #12
   2240c:	b099      	sub	sp, #100	@ 0x64
   2240e:	9006      	str	r0, [sp, #24]
   22410:	a807      	add	r0, sp, #28
   22412:	2402      	movs	r4, #2
   22414:	7004      	strb	r4, [r0, #0]
   22416:	1c40      	adds	r0, r0, #1
   22418:	9004      	str	r0, [sp, #16]
   2241a:	261a      	movs	r6, #26
   2241c:	4632      	mov	r2, r6
   2241e:	f009 f914 	bl	2b64a <__aeabi_memcpy>
   22422:	ad0e      	add	r5, sp, #56	@ 0x38
   22424:	1c68      	adds	r0, r5, #1
   22426:	211b      	movs	r1, #27
   22428:	9005      	str	r0, [sp, #20]
   2242a:	9103      	str	r1, [sp, #12]
   2242c:	f008 ff4d 	bl	2b2ca <__aeabi_memclr>
   22430:	702c      	strb	r4, [r5, #0]
   22432:	2404      	movs	r4, #4
   22434:	9600      	str	r6, [sp, #0]
   22436:	9401      	str	r4, [sp, #4]
   22438:	a815      	add	r0, sp, #84	@ 0x54
   2243a:	4e3d      	ldr	r6, [pc, #244]	@ (22530 <_ZN20complex_dynamic_type3app17h354a2292cc54f62cE+0x128>)
   2243c:	2205      	movs	r2, #5
   2243e:	4631      	mov	r1, r6
   22440:	9b04      	ldr	r3, [sp, #16]
   22442:	f008 ff2a 	bl	2b29a <_ZN9allow_pin13dynamic_allow17h8bfd3764c146b81aE>
   22446:	9815      	ldr	r0, [sp, #84]	@ 0x54
   22448:	2802      	cmp	r0, #2
   2244a:	d101      	bne.n	22450 <_ZN20complex_dynamic_type3app17h354a2292cc54f62cE+0x48>
   2244c:	9916      	ldr	r1, [sp, #88]	@ 0x58
   2244e:	e001      	b.n	22454 <_ZN20complex_dynamic_type3app17h354a2292cc54f62cE+0x4c>
   22450:	a907      	add	r1, sp, #28
   22452:	700c      	strb	r4, [r1, #0]
   22454:	2501      	movs	r5, #1
   22456:	2802      	cmp	r0, #2
   22458:	d016      	beq.n	22488 <_ZN20complex_dynamic_type3app17h354a2292cc54f62cE+0x80>
   2245a:	a80e      	add	r0, sp, #56	@ 0x38
   2245c:	7800      	ldrb	r0, [r0, #0]
   2245e:	2802      	cmp	r0, #2
   22460:	d10e      	bne.n	22480 <_ZN20complex_dynamic_type3app17h354a2292cc54f62cE+0x78>
   22462:	2403      	movs	r4, #3
   22464:	9803      	ldr	r0, [sp, #12]
   22466:	9000      	str	r0, [sp, #0]
   22468:	9401      	str	r4, [sp, #4]
   2246a:	a815      	add	r0, sp, #84	@ 0x54
   2246c:	2202      	movs	r2, #2
   2246e:	4631      	mov	r1, r6
   22470:	9b05      	ldr	r3, [sp, #20]
   22472:	f008 ff12 	bl	2b29a <_ZN9allow_pin13dynamic_allow17h8bfd3764c146b81aE>
   22476:	9815      	ldr	r0, [sp, #84]	@ 0x54
   22478:	2802      	cmp	r0, #2
   2247a:	d113      	bne.n	224a4 <_ZN20complex_dynamic_type3app17h354a2292cc54f62cE+0x9c>
   2247c:	9916      	ldr	r1, [sp, #88]	@ 0x58
   2247e:	e000      	b.n	22482 <_ZN20complex_dynamic_type3app17h354a2292cc54f62cE+0x7a>
   22480:	2103      	movs	r1, #3
   22482:	4628      	mov	r0, r5
   22484:	2800      	cmp	r0, #0
   22486:	d012      	beq.n	224ae <_ZN20complex_dynamic_type3app17h354a2292cc54f62cE+0xa6>
   22488:	462c      	mov	r4, r5
   2248a:	2c00      	cmp	r4, #0
   2248c:	d031      	beq.n	224f2 <_ZN20complex_dynamic_type3app17h354a2292cc54f62cE+0xea>
   2248e:	2001      	movs	r0, #1
   22490:	9a06      	ldr	r2, [sp, #24]
   22492:	7010      	strb	r0, [r2, #0]
   22494:	6051      	str	r1, [r2, #4]
   22496:	a80e      	add	r0, sp, #56	@ 0x38
   22498:	7802      	ldrb	r2, [r0, #0]
   2249a:	2a02      	cmp	r2, #2
   2249c:	d03e      	beq.n	2251c <_ZN20complex_dynamic_type3app17h354a2292cc54f62cE+0x114>
   2249e:	2102      	movs	r1, #2
   224a0:	4630      	mov	r0, r6
   224a2:	e039      	b.n	22518 <_ZN20complex_dynamic_type3app17h354a2292cc54f62cE+0x110>
   224a4:	a80e      	add	r0, sp, #56	@ 0x38
   224a6:	7004      	strb	r4, [r0, #0]
   224a8:	2000      	movs	r0, #0
   224aa:	2800      	cmp	r0, #0
   224ac:	d1ec      	bne.n	22488 <_ZN20complex_dynamic_type3app17h354a2292cc54f62cE+0x80>
   224ae:	4820      	ldr	r0, [pc, #128]	@ (22530 <_ZN20complex_dynamic_type3app17h354a2292cc54f62cE+0x128>)
   224b0:	2105      	movs	r1, #5
   224b2:	2202      	movs	r2, #2
   224b4:	2400      	movs	r4, #0
   224b6:	4616      	mov	r6, r2
   224b8:	4623      	mov	r3, r4
   224ba:	df02      	svc	2
   224bc:	287f      	cmp	r0, #127	@ 0x7f
   224be:	d801      	bhi.n	224c4 <_ZN20complex_dynamic_type3app17h354a2292cc54f62cE+0xbc>
   224c0:	462c      	mov	r4, r5
   224c2:	e013      	b.n	224ec <_ZN20complex_dynamic_type3app17h354a2292cc54f62cE+0xe4>
   224c4:	a807      	add	r0, sp, #28
   224c6:	7802      	ldrb	r2, [r0, #0]
   224c8:	2a02      	cmp	r2, #2
   224ca:	d003      	beq.n	224d4 <_ZN20complex_dynamic_type3app17h354a2292cc54f62cE+0xcc>
   224cc:	2105      	movs	r1, #5
   224ce:	4818      	ldr	r0, [pc, #96]	@ (22530 <_ZN20complex_dynamic_type3app17h354a2292cc54f62cE+0x128>)
   224d0:	f008 fed6 	bl	2b280 <_ZN9allow_pin12dynamic_type7unshare17h19052c50f9e150aeE>
   224d4:	a807      	add	r0, sp, #28
   224d6:	7006      	strb	r6, [r0, #0]
   224d8:	a80e      	add	r0, sp, #56	@ 0x38
   224da:	7802      	ldrb	r2, [r0, #0]
   224dc:	2a02      	cmp	r2, #2
   224de:	d003      	beq.n	224e8 <_ZN20complex_dynamic_type3app17h354a2292cc54f62cE+0xe0>
   224e0:	2102      	movs	r1, #2
   224e2:	4813      	ldr	r0, [pc, #76]	@ (22530 <_ZN20complex_dynamic_type3app17h354a2292cc54f62cE+0x128>)
   224e4:	f008 fecc 	bl	2b280 <_ZN9allow_pin12dynamic_type7unshare17h19052c50f9e150aeE>
   224e8:	a80e      	add	r0, sp, #56	@ 0x38
   224ea:	7006      	strb	r6, [r0, #0]
   224ec:	4e10      	ldr	r6, [pc, #64]	@ (22530 <_ZN20complex_dynamic_type3app17h354a2292cc54f62cE+0x128>)
   224ee:	2c00      	cmp	r4, #0
   224f0:	d1cd      	bne.n	2248e <_ZN20complex_dynamic_type3app17h354a2292cc54f62cE+0x86>
   224f2:	a80e      	add	r0, sp, #56	@ 0x38
   224f4:	7804      	ldrb	r4, [r0, #0]
   224f6:	2c02      	cmp	r4, #2
   224f8:	d001      	beq.n	224fe <_ZN20complex_dynamic_type3app17h354a2292cc54f62cE+0xf6>
   224fa:	480e      	ldr	r0, [pc, #56]	@ (22534 <_ZN20complex_dynamic_type3app17h354a2292cc54f62cE+0x12c>)
   224fc:	9005      	str	r0, [sp, #20]
   224fe:	9d06      	ldr	r5, [sp, #24]
   22500:	1c68      	adds	r0, r5, #1
   22502:	221b      	movs	r2, #27
   22504:	9905      	ldr	r1, [sp, #20]
   22506:	f009 f8a0 	bl	2b64a <__aeabi_memcpy>
   2250a:	2000      	movs	r0, #0
   2250c:	2c02      	cmp	r4, #2
   2250e:	7028      	strb	r0, [r5, #0]
   22510:	d004      	beq.n	2251c <_ZN20complex_dynamic_type3app17h354a2292cc54f62cE+0x114>
   22512:	2102      	movs	r1, #2
   22514:	4630      	mov	r0, r6
   22516:	4622      	mov	r2, r4
   22518:	f008 feb2 	bl	2b280 <_ZN9allow_pin12dynamic_type7unshare17h19052c50f9e150aeE>
   2251c:	a807      	add	r0, sp, #28
   2251e:	7802      	ldrb	r2, [r0, #0]
   22520:	2a02      	cmp	r2, #2
   22522:	d003      	beq.n	2252c <_ZN20complex_dynamic_type3app17h354a2292cc54f62cE+0x124>
   22524:	2105      	movs	r1, #5
   22526:	4630      	mov	r0, r6
   22528:	f008 feaa 	bl	2b280 <_ZN9allow_pin12dynamic_type7unshare17h19052c50f9e150aeE>
   2252c:	b019      	add	sp, #100	@ 0x64
   2252e:	bdf0      	pop	{r4, r5, r6, r7, pc}
   22530:	00001cce 	.word	0x00001cce
   22534:	000103c4 	.word	0x000103c4

00022538 <_ZN20complex_dynamic_type3app17h36e204da69e37869E>:
   22538:	b5f0      	push	{r4, r5, r6, r7, lr}
   2253a:	af03      	add	r7, sp, #12
   2253c:	b0a5      	sub	sp, #148	@ 0x94
   2253e:	9007      	str	r0, [sp, #28]
   22540:	a808      	add	r0, sp, #32
   22542:	2602      	movs	r6, #2
   22544:	7006      	strb	r6, [r0, #0]
   22546:	1c40      	adds	r0, r0, #1
   22548:	9005      	str	r0, [sp, #20]
   2254a:	2451      	movs	r4, #81	@ 0x51
   2254c:	4622      	mov	r2, r4
   2254e:	f009 f87c 	bl	2b64a <__aeabi_memcpy>
   22552:	ad1d      	add	r5, sp, #116	@ 0x74
   22554:	1c68      	adds	r0, r5, #1
   22556:	210f      	movs	r1, #15
   22558:	9006      	str	r0, [sp, #24]
   2255a:	9104      	str	r1, [sp, #16]
   2255c:	f008 feb5 	bl	2b2ca <__aeabi_memclr>
   22560:	9603      	str	r6, [sp, #12]
   22562:	702e      	strb	r6, [r5, #0]
   22564:	2504      	movs	r5, #4
   22566:	9400      	str	r4, [sp, #0]
   22568:	9501      	str	r5, [sp, #4]
   2256a:	a821      	add	r0, sp, #132	@ 0x84
   2256c:	493d      	ldr	r1, [pc, #244]	@ (22664 <_ZN20complex_dynamic_type3app17h36e204da69e37869E+0x12c>)
   2256e:	2400      	movs	r4, #0
   22570:	4622      	mov	r2, r4
   22572:	9b05      	ldr	r3, [sp, #20]
   22574:	f008 fe91 	bl	2b29a <_ZN9allow_pin13dynamic_allow17h8bfd3764c146b81aE>
   22578:	9821      	ldr	r0, [sp, #132]	@ 0x84
   2257a:	2802      	cmp	r0, #2
   2257c:	d101      	bne.n	22582 <_ZN20complex_dynamic_type3app17h36e204da69e37869E+0x4a>
   2257e:	9922      	ldr	r1, [sp, #136]	@ 0x88
   22580:	e001      	b.n	22586 <_ZN20complex_dynamic_type3app17h36e204da69e37869E+0x4e>
   22582:	a908      	add	r1, sp, #32
   22584:	700d      	strb	r5, [r1, #0]
   22586:	2601      	movs	r6, #1
   22588:	2802      	cmp	r0, #2
   2258a:	4d36      	ldr	r5, [pc, #216]	@ (22664 <_ZN20complex_dynamic_type3app17h36e204da69e37869E+0x12c>)
   2258c:	d10d      	bne.n	225aa <_ZN20complex_dynamic_type3app17h36e204da69e37869E+0x72>
   2258e:	4634      	mov	r4, r6
   22590:	2c00      	cmp	r4, #0
   22592:	d047      	beq.n	22624 <_ZN20complex_dynamic_type3app17h36e204da69e37869E+0xec>
   22594:	2001      	movs	r0, #1
   22596:	9a07      	ldr	r2, [sp, #28]
   22598:	7010      	strb	r0, [r2, #0]
   2259a:	6051      	str	r1, [r2, #4]
   2259c:	a81d      	add	r0, sp, #116	@ 0x74
   2259e:	7802      	ldrb	r2, [r0, #0]
   225a0:	2a02      	cmp	r2, #2
   225a2:	d054      	beq.n	2264e <_ZN20complex_dynamic_type3app17h36e204da69e37869E+0x116>
   225a4:	2103      	movs	r1, #3
   225a6:	4628      	mov	r0, r5
   225a8:	e04f      	b.n	2264a <_ZN20complex_dynamic_type3app17h36e204da69e37869E+0x112>
   225aa:	a81d      	add	r0, sp, #116	@ 0x74
   225ac:	7800      	ldrb	r0, [r0, #0]
   225ae:	2802      	cmp	r0, #2
   225b0:	d10f      	bne.n	225d2 <_ZN20complex_dynamic_type3app17h36e204da69e37869E+0x9a>
   225b2:	2203      	movs	r2, #3
   225b4:	9804      	ldr	r0, [sp, #16]
   225b6:	9000      	str	r0, [sp, #0]
   225b8:	9201      	str	r2, [sp, #4]
   225ba:	a821      	add	r0, sp, #132	@ 0x84
   225bc:	4629      	mov	r1, r5
   225be:	4615      	mov	r5, r2
   225c0:	9b06      	ldr	r3, [sp, #24]
   225c2:	f008 fe6a 	bl	2b29a <_ZN9allow_pin13dynamic_allow17h8bfd3764c146b81aE>
   225c6:	9821      	ldr	r0, [sp, #132]	@ 0x84
   225c8:	2802      	cmp	r0, #2
   225ca:	d107      	bne.n	225dc <_ZN20complex_dynamic_type3app17h36e204da69e37869E+0xa4>
   225cc:	9922      	ldr	r1, [sp, #136]	@ 0x88
   225ce:	4634      	mov	r4, r6
   225d0:	e006      	b.n	225e0 <_ZN20complex_dynamic_type3app17h36e204da69e37869E+0xa8>
   225d2:	2103      	movs	r1, #3
   225d4:	4634      	mov	r4, r6
   225d6:	2c00      	cmp	r4, #0
   225d8:	d1d9      	bne.n	2258e <_ZN20complex_dynamic_type3app17h36e204da69e37869E+0x56>
   225da:	e004      	b.n	225e6 <_ZN20complex_dynamic_type3app17h36e204da69e37869E+0xae>
   225dc:	a81d      	add	r0, sp, #116	@ 0x74
   225de:	7005      	strb	r5, [r0, #0]
   225e0:	4d20      	ldr	r5, [pc, #128]	@ (22664 <_ZN20complex_dynamic_type3app17h36e204da69e37869E+0x12c>)
   225e2:	2c00      	cmp	r4, #0
   225e4:	d1d3      	bne.n	2258e <_ZN20complex_dynamic_type3app17h36e204da69e37869E+0x56>
   225e6:	481f      	ldr	r0, [pc, #124]	@ (22664 <_ZN20complex_dynamic_type3app17h36e204da69e37869E+0x12c>)
   225e8:	2203      	movs	r2, #3
   225ea:	2400      	movs	r4, #0
   225ec:	4621      	mov	r1, r4
   225ee:	4623      	mov	r3, r4
   225f0:	df02      	svc	2
   225f2:	287f      	cmp	r0, #127	@ 0x7f
   225f4:	d9cb      	bls.n	2258e <_ZN20complex_dynamic_type3app17h36e204da69e37869E+0x56>
   225f6:	a808      	add	r0, sp, #32
   225f8:	7802      	ldrb	r2, [r0, #0]
   225fa:	2a02      	cmp	r2, #2
   225fc:	d003      	beq.n	22606 <_ZN20complex_dynamic_type3app17h36e204da69e37869E+0xce>
   225fe:	2100      	movs	r1, #0
   22600:	4628      	mov	r0, r5
   22602:	f008 fe3d 	bl	2b280 <_ZN9allow_pin12dynamic_type7unshare17h19052c50f9e150aeE>
   22606:	a808      	add	r0, sp, #32
   22608:	9e03      	ldr	r6, [sp, #12]
   2260a:	7006      	strb	r6, [r0, #0]
   2260c:	a81d      	add	r0, sp, #116	@ 0x74
   2260e:	7802      	ldrb	r2, [r0, #0]
   22610:	2a02      	cmp	r2, #2
   22612:	d003      	beq.n	2261c <_ZN20complex_dynamic_type3app17h36e204da69e37869E+0xe4>
   22614:	2103      	movs	r1, #3
   22616:	4628      	mov	r0, r5
   22618:	f008 fe32 	bl	2b280 <_ZN9allow_pin12dynamic_type7unshare17h19052c50f9e150aeE>
   2261c:	a81d      	add	r0, sp, #116	@ 0x74
   2261e:	7006      	strb	r6, [r0, #0]
   22620:	2c00      	cmp	r4, #0
   22622:	d1b7      	bne.n	22594 <_ZN20complex_dynamic_type3app17h36e204da69e37869E+0x5c>
   22624:	a81d      	add	r0, sp, #116	@ 0x74
   22626:	7804      	ldrb	r4, [r0, #0]
   22628:	2c02      	cmp	r4, #2
   2262a:	d001      	beq.n	22630 <_ZN20complex_dynamic_type3app17h36e204da69e37869E+0xf8>
   2262c:	480e      	ldr	r0, [pc, #56]	@ (22668 <_ZN20complex_dynamic_type3app17h36e204da69e37869E+0x130>)
   2262e:	9006      	str	r0, [sp, #24]
   22630:	9e07      	ldr	r6, [sp, #28]
   22632:	1c70      	adds	r0, r6, #1
   22634:	220f      	movs	r2, #15
   22636:	9906      	ldr	r1, [sp, #24]
   22638:	f009 f807 	bl	2b64a <__aeabi_memcpy>
   2263c:	2000      	movs	r0, #0
   2263e:	2c02      	cmp	r4, #2
   22640:	7030      	strb	r0, [r6, #0]
   22642:	d004      	beq.n	2264e <_ZN20complex_dynamic_type3app17h36e204da69e37869E+0x116>
   22644:	2103      	movs	r1, #3
   22646:	4628      	mov	r0, r5
   22648:	4622      	mov	r2, r4
   2264a:	f008 fe19 	bl	2b280 <_ZN9allow_pin12dynamic_type7unshare17h19052c50f9e150aeE>
   2264e:	a808      	add	r0, sp, #32
   22650:	7802      	ldrb	r2, [r0, #0]
   22652:	2a02      	cmp	r2, #2
   22654:	d003      	beq.n	2265e <_ZN20complex_dynamic_type3app17h36e204da69e37869E+0x126>
   22656:	2100      	movs	r1, #0
   22658:	4628      	mov	r0, r5
   2265a:	f008 fe11 	bl	2b280 <_ZN9allow_pin12dynamic_type7unshare17h19052c50f9e150aeE>
   2265e:	b025      	add	sp, #148	@ 0x94
   22660:	bdf0      	pop	{r4, r5, r6, r7, pc}
   22662:	46c0      	nop			@ (mov r8, r8)
   22664:	000013bf 	.word	0x000013bf
   22668:	00010aa4 	.word	0x00010aa4

0002266c <_ZN20complex_dynamic_type3app17h37c4e828a15c0f37E>:
   2266c:	b5f0      	push	{r4, r5, r6, r7, lr}
   2266e:	af03      	add	r7, sp, #12
   22670:	b0af      	sub	sp, #188	@ 0xbc
   22672:	9007      	str	r0, [sp, #28]
   22674:	a808      	add	r0, sp, #32
   22676:	2502      	movs	r5, #2
   22678:	7005      	strb	r5, [r0, #0]
   2267a:	1c40      	adds	r0, r0, #1
   2267c:	9005      	str	r0, [sp, #20]
   2267e:	264f      	movs	r6, #79	@ 0x4f
   22680:	4632      	mov	r2, r6
   22682:	f008 ffe2 	bl	2b64a <__aeabi_memcpy>
   22686:	ac1c      	add	r4, sp, #112	@ 0x70
   22688:	1c60      	adds	r0, r4, #1
   2268a:	213b      	movs	r1, #59	@ 0x3b
   2268c:	9006      	str	r0, [sp, #24]
   2268e:	9104      	str	r1, [sp, #16]
   22690:	f008 fe1b 	bl	2b2ca <__aeabi_memclr>
   22694:	9503      	str	r5, [sp, #12]
   22696:	7025      	strb	r5, [r4, #0]
   22698:	2404      	movs	r4, #4
   2269a:	9600      	str	r6, [sp, #0]
   2269c:	9401      	str	r4, [sp, #4]
   2269e:	a82b      	add	r0, sp, #172	@ 0xac
   226a0:	4e3c      	ldr	r6, [pc, #240]	@ (22794 <_ZN20complex_dynamic_type3app17h37c4e828a15c0f37E+0x128>)
   226a2:	2208      	movs	r2, #8
   226a4:	4631      	mov	r1, r6
   226a6:	9b05      	ldr	r3, [sp, #20]
   226a8:	f008 fdf7 	bl	2b29a <_ZN9allow_pin13dynamic_allow17h8bfd3764c146b81aE>
   226ac:	982b      	ldr	r0, [sp, #172]	@ 0xac
   226ae:	2802      	cmp	r0, #2
   226b0:	d101      	bne.n	226b6 <_ZN20complex_dynamic_type3app17h37c4e828a15c0f37E+0x4a>
   226b2:	992c      	ldr	r1, [sp, #176]	@ 0xb0
   226b4:	e001      	b.n	226ba <_ZN20complex_dynamic_type3app17h37c4e828a15c0f37E+0x4e>
   226b6:	a908      	add	r1, sp, #32
   226b8:	700c      	strb	r4, [r1, #0]
   226ba:	2501      	movs	r5, #1
   226bc:	2802      	cmp	r0, #2
   226be:	d024      	beq.n	2270a <_ZN20complex_dynamic_type3app17h37c4e828a15c0f37E+0x9e>
   226c0:	a81c      	add	r0, sp, #112	@ 0x70
   226c2:	7800      	ldrb	r0, [r0, #0]
   226c4:	2802      	cmp	r0, #2
   226c6:	d10e      	bne.n	226e6 <_ZN20complex_dynamic_type3app17h37c4e828a15c0f37E+0x7a>
   226c8:	2403      	movs	r4, #3
   226ca:	9804      	ldr	r0, [sp, #16]
   226cc:	9000      	str	r0, [sp, #0]
   226ce:	9401      	str	r4, [sp, #4]
   226d0:	a82b      	add	r0, sp, #172	@ 0xac
   226d2:	2205      	movs	r2, #5
   226d4:	4631      	mov	r1, r6
   226d6:	9b06      	ldr	r3, [sp, #24]
   226d8:	f008 fddf 	bl	2b29a <_ZN9allow_pin13dynamic_allow17h8bfd3764c146b81aE>
   226dc:	982b      	ldr	r0, [sp, #172]	@ 0xac
   226de:	2802      	cmp	r0, #2
   226e0:	d106      	bne.n	226f0 <_ZN20complex_dynamic_type3app17h37c4e828a15c0f37E+0x84>
   226e2:	992c      	ldr	r1, [sp, #176]	@ 0xb0
   226e4:	e000      	b.n	226e8 <_ZN20complex_dynamic_type3app17h37c4e828a15c0f37E+0x7c>
   226e6:	2103      	movs	r1, #3
   226e8:	4628      	mov	r0, r5
   226ea:	2800      	cmp	r0, #0
   226ec:	d005      	beq.n	226fa <_ZN20complex_dynamic_type3app17h37c4e828a15c0f37E+0x8e>
   226ee:	e00c      	b.n	2270a <_ZN20complex_dynamic_type3app17h37c4e828a15c0f37E+0x9e>
   226f0:	a81c      	add	r0, sp, #112	@ 0x70
   226f2:	7004      	strb	r4, [r0, #0]
   226f4:	2000      	movs	r0, #0
   226f6:	2800      	cmp	r0, #0
   226f8:	d107      	bne.n	2270a <_ZN20complex_dynamic_type3app17h37c4e828a15c0f37E+0x9e>
   226fa:	4826      	ldr	r0, [pc, #152]	@ (22794 <_ZN20complex_dynamic_type3app17h37c4e828a15c0f37E+0x128>)
   226fc:	2108      	movs	r1, #8
   226fe:	2205      	movs	r2, #5
   22700:	2400      	movs	r4, #0
   22702:	4623      	mov	r3, r4
   22704:	df02      	svc	2
   22706:	287f      	cmp	r0, #127	@ 0x7f
   22708:	d80d      	bhi.n	22726 <_ZN20complex_dynamic_type3app17h37c4e828a15c0f37E+0xba>
   2270a:	462c      	mov	r4, r5
   2270c:	2c00      	cmp	r4, #0
   2270e:	d021      	beq.n	22754 <_ZN20complex_dynamic_type3app17h37c4e828a15c0f37E+0xe8>
   22710:	2001      	movs	r0, #1
   22712:	9a07      	ldr	r2, [sp, #28]
   22714:	7010      	strb	r0, [r2, #0]
   22716:	6051      	str	r1, [r2, #4]
   22718:	a81c      	add	r0, sp, #112	@ 0x70
   2271a:	7802      	ldrb	r2, [r0, #0]
   2271c:	2a02      	cmp	r2, #2
   2271e:	d02e      	beq.n	2277e <_ZN20complex_dynamic_type3app17h37c4e828a15c0f37E+0x112>
   22720:	2105      	movs	r1, #5
   22722:	4630      	mov	r0, r6
   22724:	e029      	b.n	2277a <_ZN20complex_dynamic_type3app17h37c4e828a15c0f37E+0x10e>
   22726:	a808      	add	r0, sp, #32
   22728:	7802      	ldrb	r2, [r0, #0]
   2272a:	2a02      	cmp	r2, #2
   2272c:	d003      	beq.n	22736 <_ZN20complex_dynamic_type3app17h37c4e828a15c0f37E+0xca>
   2272e:	2108      	movs	r1, #8
   22730:	4630      	mov	r0, r6
   22732:	f008 fda5 	bl	2b280 <_ZN9allow_pin12dynamic_type7unshare17h19052c50f9e150aeE>
   22736:	a808      	add	r0, sp, #32
   22738:	9d03      	ldr	r5, [sp, #12]
   2273a:	7005      	strb	r5, [r0, #0]
   2273c:	a81c      	add	r0, sp, #112	@ 0x70
   2273e:	7802      	ldrb	r2, [r0, #0]
   22740:	2a02      	cmp	r2, #2
   22742:	d003      	beq.n	2274c <_ZN20complex_dynamic_type3app17h37c4e828a15c0f37E+0xe0>
   22744:	2105      	movs	r1, #5
   22746:	4630      	mov	r0, r6
   22748:	f008 fd9a 	bl	2b280 <_ZN9allow_pin12dynamic_type7unshare17h19052c50f9e150aeE>
   2274c:	a81c      	add	r0, sp, #112	@ 0x70
   2274e:	7005      	strb	r5, [r0, #0]
   22750:	2c00      	cmp	r4, #0
   22752:	d1dd      	bne.n	22710 <_ZN20complex_dynamic_type3app17h37c4e828a15c0f37E+0xa4>
   22754:	a81c      	add	r0, sp, #112	@ 0x70
   22756:	7804      	ldrb	r4, [r0, #0]
   22758:	2c02      	cmp	r4, #2
   2275a:	d001      	beq.n	22760 <_ZN20complex_dynamic_type3app17h37c4e828a15c0f37E+0xf4>
   2275c:	480e      	ldr	r0, [pc, #56]	@ (22798 <_ZN20complex_dynamic_type3app17h37c4e828a15c0f37E+0x12c>)
   2275e:	9006      	str	r0, [sp, #24]
   22760:	9d07      	ldr	r5, [sp, #28]
   22762:	1c68      	adds	r0, r5, #1
   22764:	223b      	movs	r2, #59	@ 0x3b
   22766:	9906      	ldr	r1, [sp, #24]
   22768:	f008 ff6f 	bl	2b64a <__aeabi_memcpy>
   2276c:	2000      	movs	r0, #0
   2276e:	2c02      	cmp	r4, #2
   22770:	7028      	strb	r0, [r5, #0]
   22772:	d004      	beq.n	2277e <_ZN20complex_dynamic_type3app17h37c4e828a15c0f37E+0x112>
   22774:	2105      	movs	r1, #5
   22776:	4630      	mov	r0, r6
   22778:	4622      	mov	r2, r4
   2277a:	f008 fd81 	bl	2b280 <_ZN9allow_pin12dynamic_type7unshare17h19052c50f9e150aeE>
   2277e:	a808      	add	r0, sp, #32
   22780:	7802      	ldrb	r2, [r0, #0]
   22782:	2a02      	cmp	r2, #2
   22784:	d003      	beq.n	2278e <_ZN20complex_dynamic_type3app17h37c4e828a15c0f37E+0x122>
   22786:	2108      	movs	r1, #8
   22788:	4630      	mov	r0, r6
   2278a:	f008 fd79 	bl	2b280 <_ZN9allow_pin12dynamic_type7unshare17h19052c50f9e150aeE>
   2278e:	b02f      	add	sp, #188	@ 0xbc
   22790:	bdf0      	pop	{r4, r5, r6, r7, pc}
   22792:	46c0      	nop			@ (mov r8, r8)
   22794:	00000a06 	.word	0x00000a06
   22798:	000109ca 	.word	0x000109ca

0002279c <_ZN20complex_dynamic_type3app17h395ee02c269b00deE>:
   2279c:	b5f0      	push	{r4, r5, r6, r7, lr}
   2279e:	af03      	add	r7, sp, #12
   227a0:	b09b      	sub	sp, #108	@ 0x6c
   227a2:	9006      	str	r0, [sp, #24]
   227a4:	a807      	add	r0, sp, #28
   227a6:	2502      	movs	r5, #2
   227a8:	7005      	strb	r5, [r0, #0]
   227aa:	1c40      	adds	r0, r0, #1
   227ac:	9004      	str	r0, [sp, #16]
   227ae:	2627      	movs	r6, #39	@ 0x27
   227b0:	4632      	mov	r2, r6
   227b2:	f008 ff4a 	bl	2b64a <__aeabi_memcpy>
   227b6:	ac11      	add	r4, sp, #68	@ 0x44
   227b8:	1c60      	adds	r0, r4, #1
   227ba:	2114      	movs	r1, #20
   227bc:	9005      	str	r0, [sp, #20]
   227be:	9103      	str	r1, [sp, #12]
   227c0:	f008 fd83 	bl	2b2ca <__aeabi_memclr>
   227c4:	9502      	str	r5, [sp, #8]
   227c6:	7025      	strb	r5, [r4, #0]
   227c8:	2404      	movs	r4, #4
   227ca:	9600      	str	r6, [sp, #0]
   227cc:	9401      	str	r4, [sp, #4]
   227ce:	a817      	add	r0, sp, #92	@ 0x5c
   227d0:	4e3c      	ldr	r6, [pc, #240]	@ (228c4 <_ZN20complex_dynamic_type3app17h395ee02c269b00deE+0x128>)
   227d2:	2206      	movs	r2, #6
   227d4:	4631      	mov	r1, r6
   227d6:	9b04      	ldr	r3, [sp, #16]
   227d8:	f008 fd5f 	bl	2b29a <_ZN9allow_pin13dynamic_allow17h8bfd3764c146b81aE>
   227dc:	9817      	ldr	r0, [sp, #92]	@ 0x5c
   227de:	2802      	cmp	r0, #2
   227e0:	d101      	bne.n	227e6 <_ZN20complex_dynamic_type3app17h395ee02c269b00deE+0x4a>
   227e2:	9918      	ldr	r1, [sp, #96]	@ 0x60
   227e4:	e001      	b.n	227ea <_ZN20complex_dynamic_type3app17h395ee02c269b00deE+0x4e>
   227e6:	a907      	add	r1, sp, #28
   227e8:	700c      	strb	r4, [r1, #0]
   227ea:	2501      	movs	r5, #1
   227ec:	2802      	cmp	r0, #2
   227ee:	d024      	beq.n	2283a <_ZN20complex_dynamic_type3app17h395ee02c269b00deE+0x9e>
   227f0:	a811      	add	r0, sp, #68	@ 0x44
   227f2:	7800      	ldrb	r0, [r0, #0]
   227f4:	2802      	cmp	r0, #2
   227f6:	d10e      	bne.n	22816 <_ZN20complex_dynamic_type3app17h395ee02c269b00deE+0x7a>
   227f8:	2403      	movs	r4, #3
   227fa:	9803      	ldr	r0, [sp, #12]
   227fc:	9000      	str	r0, [sp, #0]
   227fe:	9401      	str	r4, [sp, #4]
   22800:	a817      	add	r0, sp, #92	@ 0x5c
   22802:	2205      	movs	r2, #5
   22804:	4631      	mov	r1, r6
   22806:	9b05      	ldr	r3, [sp, #20]
   22808:	f008 fd47 	bl	2b29a <_ZN9allow_pin13dynamic_allow17h8bfd3764c146b81aE>
   2280c:	9817      	ldr	r0, [sp, #92]	@ 0x5c
   2280e:	2802      	cmp	r0, #2
   22810:	d106      	bne.n	22820 <_ZN20complex_dynamic_type3app17h395ee02c269b00deE+0x84>
   22812:	9918      	ldr	r1, [sp, #96]	@ 0x60
   22814:	e000      	b.n	22818 <_ZN20complex_dynamic_type3app17h395ee02c269b00deE+0x7c>
   22816:	2103      	movs	r1, #3
   22818:	4628      	mov	r0, r5
   2281a:	2800      	cmp	r0, #0
   2281c:	d005      	beq.n	2282a <_ZN20complex_dynamic_type3app17h395ee02c269b00deE+0x8e>
   2281e:	e00c      	b.n	2283a <_ZN20complex_dynamic_type3app17h395ee02c269b00deE+0x9e>
   22820:	a811      	add	r0, sp, #68	@ 0x44
   22822:	7004      	strb	r4, [r0, #0]
   22824:	2000      	movs	r0, #0
   22826:	2800      	cmp	r0, #0
   22828:	d107      	bne.n	2283a <_ZN20complex_dynamic_type3app17h395ee02c269b00deE+0x9e>
   2282a:	4826      	ldr	r0, [pc, #152]	@ (228c4 <_ZN20complex_dynamic_type3app17h395ee02c269b00deE+0x128>)
   2282c:	2106      	movs	r1, #6
   2282e:	2205      	movs	r2, #5
   22830:	2400      	movs	r4, #0
   22832:	4623      	mov	r3, r4
   22834:	df02      	svc	2
   22836:	287f      	cmp	r0, #127	@ 0x7f
   22838:	d80d      	bhi.n	22856 <_ZN20complex_dynamic_type3app17h395ee02c269b00deE+0xba>
   2283a:	462c      	mov	r4, r5
   2283c:	2c00      	cmp	r4, #0
   2283e:	d021      	beq.n	22884 <_ZN20complex_dynamic_type3app17h395ee02c269b00deE+0xe8>
   22840:	2001      	movs	r0, #1
   22842:	9a06      	ldr	r2, [sp, #24]
   22844:	7010      	strb	r0, [r2, #0]
   22846:	6051      	str	r1, [r2, #4]
   22848:	a811      	add	r0, sp, #68	@ 0x44
   2284a:	7802      	ldrb	r2, [r0, #0]
   2284c:	2a02      	cmp	r2, #2
   2284e:	d02e      	beq.n	228ae <_ZN20complex_dynamic_type3app17h395ee02c269b00deE+0x112>
   22850:	2105      	movs	r1, #5
   22852:	4630      	mov	r0, r6
   22854:	e029      	b.n	228aa <_ZN20complex_dynamic_type3app17h395ee02c269b00deE+0x10e>
   22856:	a807      	add	r0, sp, #28
   22858:	7802      	ldrb	r2, [r0, #0]
   2285a:	2a02      	cmp	r2, #2
   2285c:	d003      	beq.n	22866 <_ZN20complex_dynamic_type3app17h395ee02c269b00deE+0xca>
   2285e:	2106      	movs	r1, #6
   22860:	4630      	mov	r0, r6
   22862:	f008 fd0d 	bl	2b280 <_ZN9allow_pin12dynamic_type7unshare17h19052c50f9e150aeE>
   22866:	a807      	add	r0, sp, #28
   22868:	9d02      	ldr	r5, [sp, #8]
   2286a:	7005      	strb	r5, [r0, #0]
   2286c:	a811      	add	r0, sp, #68	@ 0x44
   2286e:	7802      	ldrb	r2, [r0, #0]
   22870:	2a02      	cmp	r2, #2
   22872:	d003      	beq.n	2287c <_ZN20complex_dynamic_type3app17h395ee02c269b00deE+0xe0>
   22874:	2105      	movs	r1, #5
   22876:	4630      	mov	r0, r6
   22878:	f008 fd02 	bl	2b280 <_ZN9allow_pin12dynamic_type7unshare17h19052c50f9e150aeE>
   2287c:	a811      	add	r0, sp, #68	@ 0x44
   2287e:	7005      	strb	r5, [r0, #0]
   22880:	2c00      	cmp	r4, #0
   22882:	d1dd      	bne.n	22840 <_ZN20complex_dynamic_type3app17h395ee02c269b00deE+0xa4>
   22884:	a811      	add	r0, sp, #68	@ 0x44
   22886:	7804      	ldrb	r4, [r0, #0]
   22888:	2c02      	cmp	r4, #2
   2288a:	d001      	beq.n	22890 <_ZN20complex_dynamic_type3app17h395ee02c269b00deE+0xf4>
   2288c:	480e      	ldr	r0, [pc, #56]	@ (228c8 <_ZN20complex_dynamic_type3app17h395ee02c269b00deE+0x12c>)
   2288e:	9005      	str	r0, [sp, #20]
   22890:	9d06      	ldr	r5, [sp, #24]
   22892:	1c68      	adds	r0, r5, #1
   22894:	2214      	movs	r2, #20
   22896:	9905      	ldr	r1, [sp, #20]
   22898:	f008 fed7 	bl	2b64a <__aeabi_memcpy>
   2289c:	2000      	movs	r0, #0
   2289e:	2c02      	cmp	r4, #2
   228a0:	7028      	strb	r0, [r5, #0]
   228a2:	d004      	beq.n	228ae <_ZN20complex_dynamic_type3app17h395ee02c269b00deE+0x112>
   228a4:	2105      	movs	r1, #5
   228a6:	4630      	mov	r0, r6
   228a8:	4622      	mov	r2, r4
   228aa:	f008 fce9 	bl	2b280 <_ZN9allow_pin12dynamic_type7unshare17h19052c50f9e150aeE>
   228ae:	a807      	add	r0, sp, #28
   228b0:	7802      	ldrb	r2, [r0, #0]
   228b2:	2a02      	cmp	r2, #2
   228b4:	d003      	beq.n	228be <_ZN20complex_dynamic_type3app17h395ee02c269b00deE+0x122>
   228b6:	2106      	movs	r1, #6
   228b8:	4630      	mov	r0, r6
   228ba:	f008 fce1 	bl	2b280 <_ZN9allow_pin12dynamic_type7unshare17h19052c50f9e150aeE>
   228be:	b01b      	add	sp, #108	@ 0x6c
   228c0:	bdf0      	pop	{r4, r5, r6, r7, pc}
   228c2:	46c0      	nop			@ (mov r8, r8)
   228c4:	000022c9 	.word	0x000022c9
   228c8:	00010a39 	.word	0x00010a39

000228cc <_ZN20complex_dynamic_type3app17h3e131643043ff092E>:
   228cc:	b5f0      	push	{r4, r5, r6, r7, lr}
   228ce:	af03      	add	r7, sp, #12
   228d0:	b0af      	sub	sp, #188	@ 0xbc
   228d2:	9006      	str	r0, [sp, #24]
   228d4:	a807      	add	r0, sp, #28
   228d6:	2502      	movs	r5, #2
   228d8:	7005      	strb	r5, [r0, #0]
   228da:	1c40      	adds	r0, r0, #1
   228dc:	9004      	str	r0, [sp, #16]
   228de:	264d      	movs	r6, #77	@ 0x4d
   228e0:	4632      	mov	r2, r6
   228e2:	f008 feb2 	bl	2b64a <__aeabi_memcpy>
   228e6:	ac1b      	add	r4, sp, #108	@ 0x6c
   228e8:	1c60      	adds	r0, r4, #1
   228ea:	213c      	movs	r1, #60	@ 0x3c
   228ec:	9005      	str	r0, [sp, #20]
   228ee:	9103      	str	r1, [sp, #12]
   228f0:	f008 fceb 	bl	2b2ca <__aeabi_memclr>
   228f4:	9502      	str	r5, [sp, #8]
   228f6:	7025      	strb	r5, [r4, #0]
   228f8:	2404      	movs	r4, #4
   228fa:	9600      	str	r6, [sp, #0]
   228fc:	9401      	str	r4, [sp, #4]
   228fe:	a82b      	add	r0, sp, #172	@ 0xac
   22900:	4e3c      	ldr	r6, [pc, #240]	@ (229f4 <_ZN20complex_dynamic_type3app17h3e131643043ff092E+0x128>)
   22902:	4631      	mov	r1, r6
   22904:	4622      	mov	r2, r4
   22906:	9b04      	ldr	r3, [sp, #16]
   22908:	f008 fcc7 	bl	2b29a <_ZN9allow_pin13dynamic_allow17h8bfd3764c146b81aE>
   2290c:	982b      	ldr	r0, [sp, #172]	@ 0xac
   2290e:	2802      	cmp	r0, #2
   22910:	d101      	bne.n	22916 <_ZN20complex_dynamic_type3app17h3e131643043ff092E+0x4a>
   22912:	992c      	ldr	r1, [sp, #176]	@ 0xb0
   22914:	e001      	b.n	2291a <_ZN20complex_dynamic_type3app17h3e131643043ff092E+0x4e>
   22916:	a907      	add	r1, sp, #28
   22918:	700c      	strb	r4, [r1, #0]
   2291a:	2501      	movs	r5, #1
   2291c:	2802      	cmp	r0, #2
   2291e:	d024      	beq.n	2296a <_ZN20complex_dynamic_type3app17h3e131643043ff092E+0x9e>
   22920:	a81b      	add	r0, sp, #108	@ 0x6c
   22922:	7800      	ldrb	r0, [r0, #0]
   22924:	2802      	cmp	r0, #2
   22926:	d10e      	bne.n	22946 <_ZN20complex_dynamic_type3app17h3e131643043ff092E+0x7a>
   22928:	2403      	movs	r4, #3
   2292a:	9803      	ldr	r0, [sp, #12]
   2292c:	9000      	str	r0, [sp, #0]
   2292e:	9401      	str	r4, [sp, #4]
   22930:	a82b      	add	r0, sp, #172	@ 0xac
   22932:	2209      	movs	r2, #9
   22934:	4631      	mov	r1, r6
   22936:	9b05      	ldr	r3, [sp, #20]
   22938:	f008 fcaf 	bl	2b29a <_ZN9allow_pin13dynamic_allow17h8bfd3764c146b81aE>
   2293c:	982b      	ldr	r0, [sp, #172]	@ 0xac
   2293e:	2802      	cmp	r0, #2
   22940:	d106      	bne.n	22950 <_ZN20complex_dynamic_type3app17h3e131643043ff092E+0x84>
   22942:	992c      	ldr	r1, [sp, #176]	@ 0xb0
   22944:	e000      	b.n	22948 <_ZN20complex_dynamic_type3app17h3e131643043ff092E+0x7c>
   22946:	2103      	movs	r1, #3
   22948:	4628      	mov	r0, r5
   2294a:	2800      	cmp	r0, #0
   2294c:	d005      	beq.n	2295a <_ZN20complex_dynamic_type3app17h3e131643043ff092E+0x8e>
   2294e:	e00c      	b.n	2296a <_ZN20complex_dynamic_type3app17h3e131643043ff092E+0x9e>
   22950:	a81b      	add	r0, sp, #108	@ 0x6c
   22952:	7004      	strb	r4, [r0, #0]
   22954:	2000      	movs	r0, #0
   22956:	2800      	cmp	r0, #0
   22958:	d107      	bne.n	2296a <_ZN20complex_dynamic_type3app17h3e131643043ff092E+0x9e>
   2295a:	4826      	ldr	r0, [pc, #152]	@ (229f4 <_ZN20complex_dynamic_type3app17h3e131643043ff092E+0x128>)
   2295c:	2104      	movs	r1, #4
   2295e:	2209      	movs	r2, #9
   22960:	2400      	movs	r4, #0
   22962:	4623      	mov	r3, r4
   22964:	df02      	svc	2
   22966:	287f      	cmp	r0, #127	@ 0x7f
   22968:	d80d      	bhi.n	22986 <_ZN20complex_dynamic_type3app17h3e131643043ff092E+0xba>
   2296a:	462c      	mov	r4, r5
   2296c:	2c00      	cmp	r4, #0
   2296e:	d021      	beq.n	229b4 <_ZN20complex_dynamic_type3app17h3e131643043ff092E+0xe8>
   22970:	2001      	movs	r0, #1
   22972:	9a06      	ldr	r2, [sp, #24]
   22974:	7010      	strb	r0, [r2, #0]
   22976:	6051      	str	r1, [r2, #4]
   22978:	a81b      	add	r0, sp, #108	@ 0x6c
   2297a:	7802      	ldrb	r2, [r0, #0]
   2297c:	2a02      	cmp	r2, #2
   2297e:	d02e      	beq.n	229de <_ZN20complex_dynamic_type3app17h3e131643043ff092E+0x112>
   22980:	2109      	movs	r1, #9
   22982:	4630      	mov	r0, r6
   22984:	e029      	b.n	229da <_ZN20complex_dynamic_type3app17h3e131643043ff092E+0x10e>
   22986:	a807      	add	r0, sp, #28
   22988:	7802      	ldrb	r2, [r0, #0]
   2298a:	2a02      	cmp	r2, #2
   2298c:	d003      	beq.n	22996 <_ZN20complex_dynamic_type3app17h3e131643043ff092E+0xca>
   2298e:	2104      	movs	r1, #4
   22990:	4630      	mov	r0, r6
   22992:	f008 fc75 	bl	2b280 <_ZN9allow_pin12dynamic_type7unshare17h19052c50f9e150aeE>
   22996:	a807      	add	r0, sp, #28
   22998:	9d02      	ldr	r5, [sp, #8]
   2299a:	7005      	strb	r5, [r0, #0]
   2299c:	a81b      	add	r0, sp, #108	@ 0x6c
   2299e:	7802      	ldrb	r2, [r0, #0]
   229a0:	2a02      	cmp	r2, #2
   229a2:	d003      	beq.n	229ac <_ZN20complex_dynamic_type3app17h3e131643043ff092E+0xe0>
   229a4:	2109      	movs	r1, #9
   229a6:	4630      	mov	r0, r6
   229a8:	f008 fc6a 	bl	2b280 <_ZN9allow_pin12dynamic_type7unshare17h19052c50f9e150aeE>
   229ac:	a81b      	add	r0, sp, #108	@ 0x6c
   229ae:	7005      	strb	r5, [r0, #0]
   229b0:	2c00      	cmp	r4, #0
   229b2:	d1dd      	bne.n	22970 <_ZN20complex_dynamic_type3app17h3e131643043ff092E+0xa4>
   229b4:	a81b      	add	r0, sp, #108	@ 0x6c
   229b6:	7804      	ldrb	r4, [r0, #0]
   229b8:	2c02      	cmp	r4, #2
   229ba:	d001      	beq.n	229c0 <_ZN20complex_dynamic_type3app17h3e131643043ff092E+0xf4>
   229bc:	480e      	ldr	r0, [pc, #56]	@ (229f8 <_ZN20complex_dynamic_type3app17h3e131643043ff092E+0x12c>)
   229be:	9005      	str	r0, [sp, #20]
   229c0:	9d06      	ldr	r5, [sp, #24]
   229c2:	1c68      	adds	r0, r5, #1
   229c4:	223c      	movs	r2, #60	@ 0x3c
   229c6:	9905      	ldr	r1, [sp, #20]
   229c8:	f008 fe3f 	bl	2b64a <__aeabi_memcpy>
   229cc:	2000      	movs	r0, #0
   229ce:	2c02      	cmp	r4, #2
   229d0:	7028      	strb	r0, [r5, #0]
   229d2:	d004      	beq.n	229de <_ZN20complex_dynamic_type3app17h3e131643043ff092E+0x112>
   229d4:	2109      	movs	r1, #9
   229d6:	4630      	mov	r0, r6
   229d8:	4622      	mov	r2, r4
   229da:	f008 fc51 	bl	2b280 <_ZN9allow_pin12dynamic_type7unshare17h19052c50f9e150aeE>
   229de:	a807      	add	r0, sp, #28
   229e0:	7802      	ldrb	r2, [r0, #0]
   229e2:	2a02      	cmp	r2, #2
   229e4:	d003      	beq.n	229ee <_ZN20complex_dynamic_type3app17h3e131643043ff092E+0x122>
   229e6:	2104      	movs	r1, #4
   229e8:	4630      	mov	r0, r6
   229ea:	f008 fc49 	bl	2b280 <_ZN9allow_pin12dynamic_type7unshare17h19052c50f9e150aeE>
   229ee:	b02f      	add	sp, #188	@ 0xbc
   229f0:	bdf0      	pop	{r4, r5, r6, r7, pc}
   229f2:	46c0      	nop			@ (mov r8, r8)
   229f4:	000021ab 	.word	0x000021ab
   229f8:	000101e2 	.word	0x000101e2

000229fc <_ZN20complex_dynamic_type3app17h3fb2caca24b3ce4aE>:
   229fc:	b5f0      	push	{r4, r5, r6, r7, lr}
   229fe:	af03      	add	r7, sp, #12
   22a00:	b09d      	sub	sp, #116	@ 0x74
   22a02:	9007      	str	r0, [sp, #28]
   22a04:	a808      	add	r0, sp, #32
   22a06:	2502      	movs	r5, #2
   22a08:	7005      	strb	r5, [r0, #0]
   22a0a:	1c40      	adds	r0, r0, #1
   22a0c:	9005      	str	r0, [sp, #20]
   22a0e:	2614      	movs	r6, #20
   22a10:	4632      	mov	r2, r6
   22a12:	f008 fe1a 	bl	2b64a <__aeabi_memcpy>
   22a16:	ac0e      	add	r4, sp, #56	@ 0x38
   22a18:	1c60      	adds	r0, r4, #1
   22a1a:	212b      	movs	r1, #43	@ 0x2b
   22a1c:	9006      	str	r0, [sp, #24]
   22a1e:	9104      	str	r1, [sp, #16]
   22a20:	f008 fc53 	bl	2b2ca <__aeabi_memclr>
   22a24:	9503      	str	r5, [sp, #12]
   22a26:	7025      	strb	r5, [r4, #0]
   22a28:	2404      	movs	r4, #4
   22a2a:	9600      	str	r6, [sp, #0]
   22a2c:	9401      	str	r4, [sp, #4]
   22a2e:	a819      	add	r0, sp, #100	@ 0x64
   22a30:	4e3c      	ldr	r6, [pc, #240]	@ (22b24 <_ZN20complex_dynamic_type3app17h3fb2caca24b3ce4aE+0x128>)
   22a32:	2208      	movs	r2, #8
   22a34:	4631      	mov	r1, r6
   22a36:	9b05      	ldr	r3, [sp, #20]
   22a38:	f008 fc2f 	bl	2b29a <_ZN9allow_pin13dynamic_allow17h8bfd3764c146b81aE>
   22a3c:	9819      	ldr	r0, [sp, #100]	@ 0x64
   22a3e:	2802      	cmp	r0, #2
   22a40:	d101      	bne.n	22a46 <_ZN20complex_dynamic_type3app17h3fb2caca24b3ce4aE+0x4a>
   22a42:	991a      	ldr	r1, [sp, #104]	@ 0x68
   22a44:	e001      	b.n	22a4a <_ZN20complex_dynamic_type3app17h3fb2caca24b3ce4aE+0x4e>
   22a46:	a908      	add	r1, sp, #32
   22a48:	700c      	strb	r4, [r1, #0]
   22a4a:	2501      	movs	r5, #1
   22a4c:	2802      	cmp	r0, #2
   22a4e:	d024      	beq.n	22a9a <_ZN20complex_dynamic_type3app17h3fb2caca24b3ce4aE+0x9e>
   22a50:	a80e      	add	r0, sp, #56	@ 0x38
   22a52:	7800      	ldrb	r0, [r0, #0]
   22a54:	2802      	cmp	r0, #2
   22a56:	d10e      	bne.n	22a76 <_ZN20complex_dynamic_type3app17h3fb2caca24b3ce4aE+0x7a>
   22a58:	2403      	movs	r4, #3
   22a5a:	9804      	ldr	r0, [sp, #16]
   22a5c:	9000      	str	r0, [sp, #0]
   22a5e:	9401      	str	r4, [sp, #4]
   22a60:	a819      	add	r0, sp, #100	@ 0x64
   22a62:	2204      	movs	r2, #4
   22a64:	4631      	mov	r1, r6
   22a66:	9b06      	ldr	r3, [sp, #24]
   22a68:	f008 fc17 	bl	2b29a <_ZN9allow_pin13dynamic_allow17h8bfd3764c146b81aE>
   22a6c:	9819      	ldr	r0, [sp, #100]	@ 0x64
   22a6e:	2802      	cmp	r0, #2
   22a70:	d106      	bne.n	22a80 <_ZN20complex_dynamic_type3app17h3fb2caca24b3ce4aE+0x84>
   22a72:	991a      	ldr	r1, [sp, #104]	@ 0x68
   22a74:	e000      	b.n	22a78 <_ZN20complex_dynamic_type3app17h3fb2caca24b3ce4aE+0x7c>
   22a76:	2103      	movs	r1, #3
   22a78:	4628      	mov	r0, r5
   22a7a:	2800      	cmp	r0, #0
   22a7c:	d005      	beq.n	22a8a <_ZN20complex_dynamic_type3app17h3fb2caca24b3ce4aE+0x8e>
   22a7e:	e00c      	b.n	22a9a <_ZN20complex_dynamic_type3app17h3fb2caca24b3ce4aE+0x9e>
   22a80:	a80e      	add	r0, sp, #56	@ 0x38
   22a82:	7004      	strb	r4, [r0, #0]
   22a84:	2000      	movs	r0, #0
   22a86:	2800      	cmp	r0, #0
   22a88:	d107      	bne.n	22a9a <_ZN20complex_dynamic_type3app17h3fb2caca24b3ce4aE+0x9e>
   22a8a:	4826      	ldr	r0, [pc, #152]	@ (22b24 <_ZN20complex_dynamic_type3app17h3fb2caca24b3ce4aE+0x128>)
   22a8c:	2108      	movs	r1, #8
   22a8e:	2204      	movs	r2, #4
   22a90:	2400      	movs	r4, #0
   22a92:	4623      	mov	r3, r4
   22a94:	df02      	svc	2
   22a96:	287f      	cmp	r0, #127	@ 0x7f
   22a98:	d80d      	bhi.n	22ab6 <_ZN20complex_dynamic_type3app17h3fb2caca24b3ce4aE+0xba>
   22a9a:	462c      	mov	r4, r5
   22a9c:	2c00      	cmp	r4, #0
   22a9e:	d021      	beq.n	22ae4 <_ZN20complex_dynamic_type3app17h3fb2caca24b3ce4aE+0xe8>
   22aa0:	2001      	movs	r0, #1
   22aa2:	9a07      	ldr	r2, [sp, #28]
   22aa4:	7010      	strb	r0, [r2, #0]
   22aa6:	6051      	str	r1, [r2, #4]
   22aa8:	a80e      	add	r0, sp, #56	@ 0x38
   22aaa:	7802      	ldrb	r2, [r0, #0]
   22aac:	2a02      	cmp	r2, #2
   22aae:	d02e      	beq.n	22b0e <_ZN20complex_dynamic_type3app17h3fb2caca24b3ce4aE+0x112>
   22ab0:	2104      	movs	r1, #4
   22ab2:	4630      	mov	r0, r6
   22ab4:	e029      	b.n	22b0a <_ZN20complex_dynamic_type3app17h3fb2caca24b3ce4aE+0x10e>
   22ab6:	a808      	add	r0, sp, #32
   22ab8:	7802      	ldrb	r2, [r0, #0]
   22aba:	2a02      	cmp	r2, #2
   22abc:	d003      	beq.n	22ac6 <_ZN20complex_dynamic_type3app17h3fb2caca24b3ce4aE+0xca>
   22abe:	2108      	movs	r1, #8
   22ac0:	4630      	mov	r0, r6
   22ac2:	f008 fbdd 	bl	2b280 <_ZN9allow_pin12dynamic_type7unshare17h19052c50f9e150aeE>
   22ac6:	a808      	add	r0, sp, #32
   22ac8:	9d03      	ldr	r5, [sp, #12]
   22aca:	7005      	strb	r5, [r0, #0]
   22acc:	a80e      	add	r0, sp, #56	@ 0x38
   22ace:	7802      	ldrb	r2, [r0, #0]
   22ad0:	2a02      	cmp	r2, #2
   22ad2:	d003      	beq.n	22adc <_ZN20complex_dynamic_type3app17h3fb2caca24b3ce4aE+0xe0>
   22ad4:	2104      	movs	r1, #4
   22ad6:	4630      	mov	r0, r6
   22ad8:	f008 fbd2 	bl	2b280 <_ZN9allow_pin12dynamic_type7unshare17h19052c50f9e150aeE>
   22adc:	a80e      	add	r0, sp, #56	@ 0x38
   22ade:	7005      	strb	r5, [r0, #0]
   22ae0:	2c00      	cmp	r4, #0
   22ae2:	d1dd      	bne.n	22aa0 <_ZN20complex_dynamic_type3app17h3fb2caca24b3ce4aE+0xa4>
   22ae4:	a80e      	add	r0, sp, #56	@ 0x38
   22ae6:	7804      	ldrb	r4, [r0, #0]
   22ae8:	2c02      	cmp	r4, #2
   22aea:	d001      	beq.n	22af0 <_ZN20complex_dynamic_type3app17h3fb2caca24b3ce4aE+0xf4>
   22aec:	480e      	ldr	r0, [pc, #56]	@ (22b28 <_ZN20complex_dynamic_type3app17h3fb2caca24b3ce4aE+0x12c>)
   22aee:	9006      	str	r0, [sp, #24]
   22af0:	9d07      	ldr	r5, [sp, #28]
   22af2:	1c68      	adds	r0, r5, #1
   22af4:	222b      	movs	r2, #43	@ 0x2b
   22af6:	9906      	ldr	r1, [sp, #24]
   22af8:	f008 fda7 	bl	2b64a <__aeabi_memcpy>
   22afc:	2000      	movs	r0, #0
   22afe:	2c02      	cmp	r4, #2
   22b00:	7028      	strb	r0, [r5, #0]
   22b02:	d004      	beq.n	22b0e <_ZN20complex_dynamic_type3app17h3fb2caca24b3ce4aE+0x112>
   22b04:	2104      	movs	r1, #4
   22b06:	4630      	mov	r0, r6
   22b08:	4622      	mov	r2, r4
   22b0a:	f008 fbb9 	bl	2b280 <_ZN9allow_pin12dynamic_type7unshare17h19052c50f9e150aeE>
   22b0e:	a808      	add	r0, sp, #32
   22b10:	7802      	ldrb	r2, [r0, #0]
   22b12:	2a02      	cmp	r2, #2
   22b14:	d003      	beq.n	22b1e <_ZN20complex_dynamic_type3app17h3fb2caca24b3ce4aE+0x122>
   22b16:	2108      	movs	r1, #8
   22b18:	4630      	mov	r0, r6
   22b1a:	f008 fbb1 	bl	2b280 <_ZN9allow_pin12dynamic_type7unshare17h19052c50f9e150aeE>
   22b1e:	b01d      	add	sp, #116	@ 0x74
   22b20:	bdf0      	pop	{r4, r5, r6, r7, pc}
   22b22:	46c0      	nop			@ (mov r8, r8)
   22b24:	0000239f 	.word	0x0000239f
   22b28:	000108e9 	.word	0x000108e9

00022b2c <_ZN20complex_dynamic_type3app17h4126cb70ef422f19E>:
   22b2c:	b5f0      	push	{r4, r5, r6, r7, lr}
   22b2e:	af03      	add	r7, sp, #12
   22b30:	b0a7      	sub	sp, #156	@ 0x9c
   22b32:	9007      	str	r0, [sp, #28]
   22b34:	a808      	add	r0, sp, #32
   22b36:	2502      	movs	r5, #2
   22b38:	7005      	strb	r5, [r0, #0]
   22b3a:	1c40      	adds	r0, r0, #1
   22b3c:	9005      	str	r0, [sp, #20]
   22b3e:	262e      	movs	r6, #46	@ 0x2e
   22b40:	4632      	mov	r2, r6
   22b42:	f008 fd82 	bl	2b64a <__aeabi_memcpy>
   22b46:	ac14      	add	r4, sp, #80	@ 0x50
   22b48:	1c60      	adds	r0, r4, #1
   22b4a:	2138      	movs	r1, #56	@ 0x38
   22b4c:	9006      	str	r0, [sp, #24]
   22b4e:	9104      	str	r1, [sp, #16]
   22b50:	f008 fbbb 	bl	2b2ca <__aeabi_memclr>
   22b54:	9503      	str	r5, [sp, #12]
   22b56:	7025      	strb	r5, [r4, #0]
   22b58:	2404      	movs	r4, #4
   22b5a:	9600      	str	r6, [sp, #0]
   22b5c:	9401      	str	r4, [sp, #4]
   22b5e:	a823      	add	r0, sp, #140	@ 0x8c
   22b60:	4e3c      	ldr	r6, [pc, #240]	@ (22c54 <_ZN20complex_dynamic_type3app17h4126cb70ef422f19E+0x128>)
   22b62:	2209      	movs	r2, #9
   22b64:	4631      	mov	r1, r6
   22b66:	9b05      	ldr	r3, [sp, #20]
   22b68:	f008 fb97 	bl	2b29a <_ZN9allow_pin13dynamic_allow17h8bfd3764c146b81aE>
   22b6c:	9823      	ldr	r0, [sp, #140]	@ 0x8c
   22b6e:	2802      	cmp	r0, #2
   22b70:	d101      	bne.n	22b76 <_ZN20complex_dynamic_type3app17h4126cb70ef422f19E+0x4a>
   22b72:	9924      	ldr	r1, [sp, #144]	@ 0x90
   22b74:	e001      	b.n	22b7a <_ZN20complex_dynamic_type3app17h4126cb70ef422f19E+0x4e>
   22b76:	a908      	add	r1, sp, #32
   22b78:	700c      	strb	r4, [r1, #0]
   22b7a:	2501      	movs	r5, #1
   22b7c:	2802      	cmp	r0, #2
   22b7e:	d024      	beq.n	22bca <_ZN20complex_dynamic_type3app17h4126cb70ef422f19E+0x9e>
   22b80:	a814      	add	r0, sp, #80	@ 0x50
   22b82:	7800      	ldrb	r0, [r0, #0]
   22b84:	2802      	cmp	r0, #2
   22b86:	d10e      	bne.n	22ba6 <_ZN20complex_dynamic_type3app17h4126cb70ef422f19E+0x7a>
   22b88:	2403      	movs	r4, #3
   22b8a:	9804      	ldr	r0, [sp, #16]
   22b8c:	9000      	str	r0, [sp, #0]
   22b8e:	9401      	str	r4, [sp, #4]
   22b90:	a823      	add	r0, sp, #140	@ 0x8c
   22b92:	2209      	movs	r2, #9
   22b94:	4631      	mov	r1, r6
   22b96:	9b06      	ldr	r3, [sp, #24]
   22b98:	f008 fb7f 	bl	2b29a <_ZN9allow_pin13dynamic_allow17h8bfd3764c146b81aE>
   22b9c:	9823      	ldr	r0, [sp, #140]	@ 0x8c
   22b9e:	2802      	cmp	r0, #2
   22ba0:	d106      	bne.n	22bb0 <_ZN20complex_dynamic_type3app17h4126cb70ef422f19E+0x84>
   22ba2:	9924      	ldr	r1, [sp, #144]	@ 0x90
   22ba4:	e000      	b.n	22ba8 <_ZN20complex_dynamic_type3app17h4126cb70ef422f19E+0x7c>
   22ba6:	2103      	movs	r1, #3
   22ba8:	4628      	mov	r0, r5
   22baa:	2800      	cmp	r0, #0
   22bac:	d005      	beq.n	22bba <_ZN20complex_dynamic_type3app17h4126cb70ef422f19E+0x8e>
   22bae:	e00c      	b.n	22bca <_ZN20complex_dynamic_type3app17h4126cb70ef422f19E+0x9e>
   22bb0:	a814      	add	r0, sp, #80	@ 0x50
   22bb2:	7004      	strb	r4, [r0, #0]
   22bb4:	2000      	movs	r0, #0
   22bb6:	2800      	cmp	r0, #0
   22bb8:	d107      	bne.n	22bca <_ZN20complex_dynamic_type3app17h4126cb70ef422f19E+0x9e>
   22bba:	4826      	ldr	r0, [pc, #152]	@ (22c54 <_ZN20complex_dynamic_type3app17h4126cb70ef422f19E+0x128>)
   22bbc:	2109      	movs	r1, #9
   22bbe:	2400      	movs	r4, #0
   22bc0:	460a      	mov	r2, r1
   22bc2:	4623      	mov	r3, r4
   22bc4:	df02      	svc	2
   22bc6:	287f      	cmp	r0, #127	@ 0x7f
   22bc8:	d80d      	bhi.n	22be6 <_ZN20complex_dynamic_type3app17h4126cb70ef422f19E+0xba>
   22bca:	462c      	mov	r4, r5
   22bcc:	2c00      	cmp	r4, #0
   22bce:	d021      	beq.n	22c14 <_ZN20complex_dynamic_type3app17h4126cb70ef422f19E+0xe8>
   22bd0:	2001      	movs	r0, #1
   22bd2:	9a07      	ldr	r2, [sp, #28]
   22bd4:	7010      	strb	r0, [r2, #0]
   22bd6:	6051      	str	r1, [r2, #4]
   22bd8:	a814      	add	r0, sp, #80	@ 0x50
   22bda:	7802      	ldrb	r2, [r0, #0]
   22bdc:	2a02      	cmp	r2, #2
   22bde:	d02e      	beq.n	22c3e <_ZN20complex_dynamic_type3app17h4126cb70ef422f19E+0x112>
   22be0:	2109      	movs	r1, #9
   22be2:	4630      	mov	r0, r6
   22be4:	e029      	b.n	22c3a <_ZN20complex_dynamic_type3app17h4126cb70ef422f19E+0x10e>
   22be6:	a808      	add	r0, sp, #32
   22be8:	7802      	ldrb	r2, [r0, #0]
   22bea:	2a02      	cmp	r2, #2
   22bec:	d003      	beq.n	22bf6 <_ZN20complex_dynamic_type3app17h4126cb70ef422f19E+0xca>
   22bee:	2109      	movs	r1, #9
   22bf0:	4630      	mov	r0, r6
   22bf2:	f008 fb45 	bl	2b280 <_ZN9allow_pin12dynamic_type7unshare17h19052c50f9e150aeE>
   22bf6:	a808      	add	r0, sp, #32
   22bf8:	9d03      	ldr	r5, [sp, #12]
   22bfa:	7005      	strb	r5, [r0, #0]
   22bfc:	a814      	add	r0, sp, #80	@ 0x50
   22bfe:	7802      	ldrb	r2, [r0, #0]
   22c00:	2a02      	cmp	r2, #2
   22c02:	d003      	beq.n	22c0c <_ZN20complex_dynamic_type3app17h4126cb70ef422f19E+0xe0>
   22c04:	2109      	movs	r1, #9
   22c06:	4630      	mov	r0, r6
   22c08:	f008 fb3a 	bl	2b280 <_ZN9allow_pin12dynamic_type7unshare17h19052c50f9e150aeE>
   22c0c:	a814      	add	r0, sp, #80	@ 0x50
   22c0e:	7005      	strb	r5, [r0, #0]
   22c10:	2c00      	cmp	r4, #0
   22c12:	d1dd      	bne.n	22bd0 <_ZN20complex_dynamic_type3app17h4126cb70ef422f19E+0xa4>
   22c14:	a814      	add	r0, sp, #80	@ 0x50
   22c16:	7804      	ldrb	r4, [r0, #0]
   22c18:	2c02      	cmp	r4, #2
   22c1a:	d001      	beq.n	22c20 <_ZN20complex_dynamic_type3app17h4126cb70ef422f19E+0xf4>
   22c1c:	480e      	ldr	r0, [pc, #56]	@ (22c58 <_ZN20complex_dynamic_type3app17h4126cb70ef422f19E+0x12c>)
   22c1e:	9006      	str	r0, [sp, #24]
   22c20:	9d07      	ldr	r5, [sp, #28]
   22c22:	1c68      	adds	r0, r5, #1
   22c24:	2238      	movs	r2, #56	@ 0x38
   22c26:	9906      	ldr	r1, [sp, #24]
   22c28:	f008 fd0f 	bl	2b64a <__aeabi_memcpy>
   22c2c:	2000      	movs	r0, #0
   22c2e:	2c02      	cmp	r4, #2
   22c30:	7028      	strb	r0, [r5, #0]
   22c32:	d004      	beq.n	22c3e <_ZN20complex_dynamic_type3app17h4126cb70ef422f19E+0x112>
   22c34:	2109      	movs	r1, #9
   22c36:	4630      	mov	r0, r6
   22c38:	4622      	mov	r2, r4
   22c3a:	f008 fb21 	bl	2b280 <_ZN9allow_pin12dynamic_type7unshare17h19052c50f9e150aeE>
   22c3e:	a808      	add	r0, sp, #32
   22c40:	7802      	ldrb	r2, [r0, #0]
   22c42:	2a02      	cmp	r2, #2
   22c44:	d003      	beq.n	22c4e <_ZN20complex_dynamic_type3app17h4126cb70ef422f19E+0x122>
   22c46:	2109      	movs	r1, #9
   22c48:	4630      	mov	r0, r6
   22c4a:	f008 fb19 	bl	2b280 <_ZN9allow_pin12dynamic_type7unshare17h19052c50f9e150aeE>
   22c4e:	b027      	add	sp, #156	@ 0x9c
   22c50:	bdf0      	pop	{r4, r5, r6, r7, pc}
   22c52:	46c0      	nop			@ (mov r8, r8)
   22c54:	00000a9d 	.word	0x00000a9d
   22c58:	0001082f 	.word	0x0001082f

00022c5c <_ZN20complex_dynamic_type3app17h419af641a58a519fE>:
   22c5c:	b5f0      	push	{r4, r5, r6, r7, lr}
   22c5e:	af03      	add	r7, sp, #12
   22c60:	b0a7      	sub	sp, #156	@ 0x9c
   22c62:	9005      	str	r0, [sp, #20]
   22c64:	a806      	add	r0, sp, #24
   22c66:	2502      	movs	r5, #2
   22c68:	7005      	strb	r5, [r0, #0]
   22c6a:	1c40      	adds	r0, r0, #1
   22c6c:	9003      	str	r0, [sp, #12]
   22c6e:	245d      	movs	r4, #93	@ 0x5d
   22c70:	4622      	mov	r2, r4
   22c72:	f008 fcea 	bl	2b64a <__aeabi_memcpy>
   22c76:	ae1e      	add	r6, sp, #120	@ 0x78
   22c78:	1c70      	adds	r0, r6, #1
   22c7a:	2112      	movs	r1, #18
   22c7c:	9004      	str	r0, [sp, #16]
   22c7e:	9102      	str	r1, [sp, #8]
   22c80:	f008 fb23 	bl	2b2ca <__aeabi_memclr>
   22c84:	7035      	strb	r5, [r6, #0]
   22c86:	2504      	movs	r5, #4
   22c88:	9400      	str	r4, [sp, #0]
   22c8a:	9501      	str	r5, [sp, #4]
   22c8c:	a823      	add	r0, sp, #140	@ 0x8c
   22c8e:	493c      	ldr	r1, [pc, #240]	@ (22d80 <_ZN20complex_dynamic_type3app17h419af641a58a519fE+0x124>)
   22c90:	2400      	movs	r4, #0
   22c92:	4622      	mov	r2, r4
   22c94:	9b03      	ldr	r3, [sp, #12]
   22c96:	f008 fb00 	bl	2b29a <_ZN9allow_pin13dynamic_allow17h8bfd3764c146b81aE>
   22c9a:	9823      	ldr	r0, [sp, #140]	@ 0x8c
   22c9c:	2802      	cmp	r0, #2
   22c9e:	d101      	bne.n	22ca4 <_ZN20complex_dynamic_type3app17h419af641a58a519fE+0x48>
   22ca0:	9924      	ldr	r1, [sp, #144]	@ 0x90
   22ca2:	e001      	b.n	22ca8 <_ZN20complex_dynamic_type3app17h419af641a58a519fE+0x4c>
   22ca4:	a906      	add	r1, sp, #24
   22ca6:	700d      	strb	r5, [r1, #0]
   22ca8:	2601      	movs	r6, #1
   22caa:	2802      	cmp	r0, #2
   22cac:	d024      	beq.n	22cf8 <_ZN20complex_dynamic_type3app17h419af641a58a519fE+0x9c>
   22cae:	a81e      	add	r0, sp, #120	@ 0x78
   22cb0:	7800      	ldrb	r0, [r0, #0]
   22cb2:	2802      	cmp	r0, #2
   22cb4:	d10e      	bne.n	22cd4 <_ZN20complex_dynamic_type3app17h419af641a58a519fE+0x78>
   22cb6:	2503      	movs	r5, #3
   22cb8:	9802      	ldr	r0, [sp, #8]
   22cba:	9000      	str	r0, [sp, #0]
   22cbc:	9501      	str	r5, [sp, #4]
   22cbe:	a823      	add	r0, sp, #140	@ 0x8c
   22cc0:	2202      	movs	r2, #2
   22cc2:	492f      	ldr	r1, [pc, #188]	@ (22d80 <_ZN20complex_dynamic_type3app17h419af641a58a519fE+0x124>)
   22cc4:	9b04      	ldr	r3, [sp, #16]
   22cc6:	f008 fae8 	bl	2b29a <_ZN9allow_pin13dynamic_allow17h8bfd3764c146b81aE>
   22cca:	9823      	ldr	r0, [sp, #140]	@ 0x8c
   22ccc:	2802      	cmp	r0, #2
   22cce:	d106      	bne.n	22cde <_ZN20complex_dynamic_type3app17h419af641a58a519fE+0x82>
   22cd0:	9924      	ldr	r1, [sp, #144]	@ 0x90
   22cd2:	e000      	b.n	22cd6 <_ZN20complex_dynamic_type3app17h419af641a58a519fE+0x7a>
   22cd4:	2103      	movs	r1, #3
   22cd6:	4634      	mov	r4, r6
   22cd8:	2c00      	cmp	r4, #0
   22cda:	d004      	beq.n	22ce6 <_ZN20complex_dynamic_type3app17h419af641a58a519fE+0x8a>
   22cdc:	e00c      	b.n	22cf8 <_ZN20complex_dynamic_type3app17h419af641a58a519fE+0x9c>
   22cde:	a81e      	add	r0, sp, #120	@ 0x78
   22ce0:	7005      	strb	r5, [r0, #0]
   22ce2:	2c00      	cmp	r4, #0
   22ce4:	d108      	bne.n	22cf8 <_ZN20complex_dynamic_type3app17h419af641a58a519fE+0x9c>
   22ce6:	4826      	ldr	r0, [pc, #152]	@ (22d80 <_ZN20complex_dynamic_type3app17h419af641a58a519fE+0x124>)
   22ce8:	2502      	movs	r5, #2
   22cea:	2400      	movs	r4, #0
   22cec:	4621      	mov	r1, r4
   22cee:	462a      	mov	r2, r5
   22cf0:	4623      	mov	r3, r4
   22cf2:	df02      	svc	2
   22cf4:	287f      	cmp	r0, #127	@ 0x7f
   22cf6:	d80d      	bhi.n	22d14 <_ZN20complex_dynamic_type3app17h419af641a58a519fE+0xb8>
   22cf8:	4634      	mov	r4, r6
   22cfa:	2c00      	cmp	r4, #0
   22cfc:	d020      	beq.n	22d40 <_ZN20complex_dynamic_type3app17h419af641a58a519fE+0xe4>
   22cfe:	2001      	movs	r0, #1
   22d00:	9a05      	ldr	r2, [sp, #20]
   22d02:	7010      	strb	r0, [r2, #0]
   22d04:	6051      	str	r1, [r2, #4]
   22d06:	a81e      	add	r0, sp, #120	@ 0x78
   22d08:	7802      	ldrb	r2, [r0, #0]
   22d0a:	2a02      	cmp	r2, #2
   22d0c:	d02d      	beq.n	22d6a <_ZN20complex_dynamic_type3app17h419af641a58a519fE+0x10e>
   22d0e:	2102      	movs	r1, #2
   22d10:	481b      	ldr	r0, [pc, #108]	@ (22d80 <_ZN20complex_dynamic_type3app17h419af641a58a519fE+0x124>)
   22d12:	e028      	b.n	22d66 <_ZN20complex_dynamic_type3app17h419af641a58a519fE+0x10a>
   22d14:	a806      	add	r0, sp, #24
   22d16:	7802      	ldrb	r2, [r0, #0]
   22d18:	2a02      	cmp	r2, #2
   22d1a:	d003      	beq.n	22d24 <_ZN20complex_dynamic_type3app17h419af641a58a519fE+0xc8>
   22d1c:	2100      	movs	r1, #0
   22d1e:	4818      	ldr	r0, [pc, #96]	@ (22d80 <_ZN20complex_dynamic_type3app17h419af641a58a519fE+0x124>)
   22d20:	f008 faae 	bl	2b280 <_ZN9allow_pin12dynamic_type7unshare17h19052c50f9e150aeE>
   22d24:	a806      	add	r0, sp, #24
   22d26:	7005      	strb	r5, [r0, #0]
   22d28:	a81e      	add	r0, sp, #120	@ 0x78
   22d2a:	7802      	ldrb	r2, [r0, #0]
   22d2c:	2a02      	cmp	r2, #2
   22d2e:	d003      	beq.n	22d38 <_ZN20complex_dynamic_type3app17h419af641a58a519fE+0xdc>
   22d30:	2102      	movs	r1, #2
   22d32:	4813      	ldr	r0, [pc, #76]	@ (22d80 <_ZN20complex_dynamic_type3app17h419af641a58a519fE+0x124>)
   22d34:	f008 faa4 	bl	2b280 <_ZN9allow_pin12dynamic_type7unshare17h19052c50f9e150aeE>
   22d38:	a81e      	add	r0, sp, #120	@ 0x78
   22d3a:	7005      	strb	r5, [r0, #0]
   22d3c:	2c00      	cmp	r4, #0
   22d3e:	d1de      	bne.n	22cfe <_ZN20complex_dynamic_type3app17h419af641a58a519fE+0xa2>
   22d40:	a81e      	add	r0, sp, #120	@ 0x78
   22d42:	7804      	ldrb	r4, [r0, #0]
   22d44:	2c02      	cmp	r4, #2
   22d46:	d001      	beq.n	22d4c <_ZN20complex_dynamic_type3app17h419af641a58a519fE+0xf0>
   22d48:	480e      	ldr	r0, [pc, #56]	@ (22d84 <_ZN20complex_dynamic_type3app17h419af641a58a519fE+0x128>)
   22d4a:	9004      	str	r0, [sp, #16]
   22d4c:	9d05      	ldr	r5, [sp, #20]
   22d4e:	1c68      	adds	r0, r5, #1
   22d50:	2212      	movs	r2, #18
   22d52:	9904      	ldr	r1, [sp, #16]
   22d54:	f008 fc79 	bl	2b64a <__aeabi_memcpy>
   22d58:	2000      	movs	r0, #0
   22d5a:	2c02      	cmp	r4, #2
   22d5c:	7028      	strb	r0, [r5, #0]
   22d5e:	d004      	beq.n	22d6a <_ZN20complex_dynamic_type3app17h419af641a58a519fE+0x10e>
   22d60:	2102      	movs	r1, #2
   22d62:	4807      	ldr	r0, [pc, #28]	@ (22d80 <_ZN20complex_dynamic_type3app17h419af641a58a519fE+0x124>)
   22d64:	4622      	mov	r2, r4
   22d66:	f008 fa8b 	bl	2b280 <_ZN9allow_pin12dynamic_type7unshare17h19052c50f9e150aeE>
   22d6a:	a806      	add	r0, sp, #24
   22d6c:	7802      	ldrb	r2, [r0, #0]
   22d6e:	2a02      	cmp	r2, #2
   22d70:	d003      	beq.n	22d7a <_ZN20complex_dynamic_type3app17h419af641a58a519fE+0x11e>
   22d72:	2100      	movs	r1, #0
   22d74:	4802      	ldr	r0, [pc, #8]	@ (22d80 <_ZN20complex_dynamic_type3app17h419af641a58a519fE+0x124>)
   22d76:	f008 fa83 	bl	2b280 <_ZN9allow_pin12dynamic_type7unshare17h19052c50f9e150aeE>
   22d7a:	b027      	add	sp, #156	@ 0x9c
   22d7c:	bdf0      	pop	{r4, r5, r6, r7, pc}
   22d7e:	46c0      	nop			@ (mov r8, r8)
   22d80:	000015f1 	.word	0x000015f1
   22d84:	00010697 	.word	0x00010697

00022d88 <_ZN20complex_dynamic_type3app17h4c56b25f94ef3122E>:
   22d88:	b5f0      	push	{r4, r5, r6, r7, lr}
   22d8a:	af03      	add	r7, sp, #12
   22d8c:	b0a1      	sub	sp, #132	@ 0x84
   22d8e:	9006      	str	r0, [sp, #24]
   22d90:	a807      	add	r0, sp, #28
   22d92:	2502      	movs	r5, #2
   22d94:	7005      	strb	r5, [r0, #0]
   22d96:	1c40      	adds	r0, r0, #1
   22d98:	9004      	str	r0, [sp, #16]
   22d9a:	2624      	movs	r6, #36	@ 0x24
   22d9c:	4632      	mov	r2, r6
   22d9e:	f008 fc54 	bl	2b64a <__aeabi_memcpy>
   22da2:	ac11      	add	r4, sp, #68	@ 0x44
   22da4:	1c60      	adds	r0, r4, #1
   22da6:	212f      	movs	r1, #47	@ 0x2f
   22da8:	9005      	str	r0, [sp, #20]
   22daa:	9103      	str	r1, [sp, #12]
   22dac:	f008 fa8d 	bl	2b2ca <__aeabi_memclr>
   22db0:	9502      	str	r5, [sp, #8]
   22db2:	7025      	strb	r5, [r4, #0]
   22db4:	2404      	movs	r4, #4
   22db6:	9600      	str	r6, [sp, #0]
   22db8:	9401      	str	r4, [sp, #4]
   22dba:	a81d      	add	r0, sp, #116	@ 0x74
   22dbc:	4e3c      	ldr	r6, [pc, #240]	@ (22eb0 <_ZN20complex_dynamic_type3app17h4c56b25f94ef3122E+0x128>)
   22dbe:	2206      	movs	r2, #6
   22dc0:	4631      	mov	r1, r6
   22dc2:	9b04      	ldr	r3, [sp, #16]
   22dc4:	f008 fa69 	bl	2b29a <_ZN9allow_pin13dynamic_allow17h8bfd3764c146b81aE>
   22dc8:	981d      	ldr	r0, [sp, #116]	@ 0x74
   22dca:	2802      	cmp	r0, #2
   22dcc:	d101      	bne.n	22dd2 <_ZN20complex_dynamic_type3app17h4c56b25f94ef3122E+0x4a>
   22dce:	991e      	ldr	r1, [sp, #120]	@ 0x78
   22dd0:	e001      	b.n	22dd6 <_ZN20complex_dynamic_type3app17h4c56b25f94ef3122E+0x4e>
   22dd2:	a907      	add	r1, sp, #28
   22dd4:	700c      	strb	r4, [r1, #0]
   22dd6:	2501      	movs	r5, #1
   22dd8:	2802      	cmp	r0, #2
   22dda:	d024      	beq.n	22e26 <_ZN20complex_dynamic_type3app17h4c56b25f94ef3122E+0x9e>
   22ddc:	a811      	add	r0, sp, #68	@ 0x44
   22dde:	7800      	ldrb	r0, [r0, #0]
   22de0:	2802      	cmp	r0, #2
   22de2:	d10e      	bne.n	22e02 <_ZN20complex_dynamic_type3app17h4c56b25f94ef3122E+0x7a>
   22de4:	2403      	movs	r4, #3
   22de6:	9803      	ldr	r0, [sp, #12]
   22de8:	9000      	str	r0, [sp, #0]
   22dea:	9401      	str	r4, [sp, #4]
   22dec:	a81d      	add	r0, sp, #116	@ 0x74
   22dee:	2209      	movs	r2, #9
   22df0:	4631      	mov	r1, r6
   22df2:	9b05      	ldr	r3, [sp, #20]
   22df4:	f008 fa51 	bl	2b29a <_ZN9allow_pin13dynamic_allow17h8bfd3764c146b81aE>
   22df8:	981d      	ldr	r0, [sp, #116]	@ 0x74
   22dfa:	2802      	cmp	r0, #2
   22dfc:	d106      	bne.n	22e0c <_ZN20complex_dynamic_type3app17h4c56b25f94ef3122E+0x84>
   22dfe:	991e      	ldr	r1, [sp, #120]	@ 0x78
   22e00:	e000      	b.n	22e04 <_ZN20complex_dynamic_type3app17h4c56b25f94ef3122E+0x7c>
   22e02:	2103      	movs	r1, #3
   22e04:	4628      	mov	r0, r5
   22e06:	2800      	cmp	r0, #0
   22e08:	d005      	beq.n	22e16 <_ZN20complex_dynamic_type3app17h4c56b25f94ef3122E+0x8e>
   22e0a:	e00c      	b.n	22e26 <_ZN20complex_dynamic_type3app17h4c56b25f94ef3122E+0x9e>
   22e0c:	a811      	add	r0, sp, #68	@ 0x44
   22e0e:	7004      	strb	r4, [r0, #0]
   22e10:	2000      	movs	r0, #0
   22e12:	2800      	cmp	r0, #0
   22e14:	d107      	bne.n	22e26 <_ZN20complex_dynamic_type3app17h4c56b25f94ef3122E+0x9e>
   22e16:	4826      	ldr	r0, [pc, #152]	@ (22eb0 <_ZN20complex_dynamic_type3app17h4c56b25f94ef3122E+0x128>)
   22e18:	2106      	movs	r1, #6
   22e1a:	2209      	movs	r2, #9
   22e1c:	2400      	movs	r4, #0
   22e1e:	4623      	mov	r3, r4
   22e20:	df02      	svc	2
   22e22:	287f      	cmp	r0, #127	@ 0x7f
   22e24:	d80d      	bhi.n	22e42 <_ZN20complex_dynamic_type3app17h4c56b25f94ef3122E+0xba>
   22e26:	462c      	mov	r4, r5
   22e28:	2c00      	cmp	r4, #0
   22e2a:	d021      	beq.n	22e70 <_ZN20complex_dynamic_type3app17h4c56b25f94ef3122E+0xe8>
   22e2c:	2001      	movs	r0, #1
   22e2e:	9a06      	ldr	r2, [sp, #24]
   22e30:	7010      	strb	r0, [r2, #0]
   22e32:	6051      	str	r1, [r2, #4]
   22e34:	a811      	add	r0, sp, #68	@ 0x44
   22e36:	7802      	ldrb	r2, [r0, #0]
   22e38:	2a02      	cmp	r2, #2
   22e3a:	d02e      	beq.n	22e9a <_ZN20complex_dynamic_type3app17h4c56b25f94ef3122E+0x112>
   22e3c:	2109      	movs	r1, #9
   22e3e:	4630      	mov	r0, r6
   22e40:	e029      	b.n	22e96 <_ZN20complex_dynamic_type3app17h4c56b25f94ef3122E+0x10e>
   22e42:	a807      	add	r0, sp, #28
   22e44:	7802      	ldrb	r2, [r0, #0]
   22e46:	2a02      	cmp	r2, #2
   22e48:	d003      	beq.n	22e52 <_ZN20complex_dynamic_type3app17h4c56b25f94ef3122E+0xca>
   22e4a:	2106      	movs	r1, #6
   22e4c:	4630      	mov	r0, r6
   22e4e:	f008 fa17 	bl	2b280 <_ZN9allow_pin12dynamic_type7unshare17h19052c50f9e150aeE>
   22e52:	a807      	add	r0, sp, #28
   22e54:	9d02      	ldr	r5, [sp, #8]
   22e56:	7005      	strb	r5, [r0, #0]
   22e58:	a811      	add	r0, sp, #68	@ 0x44
   22e5a:	7802      	ldrb	r2, [r0, #0]
   22e5c:	2a02      	cmp	r2, #2
   22e5e:	d003      	beq.n	22e68 <_ZN20complex_dynamic_type3app17h4c56b25f94ef3122E+0xe0>
   22e60:	2109      	movs	r1, #9
   22e62:	4630      	mov	r0, r6
   22e64:	f008 fa0c 	bl	2b280 <_ZN9allow_pin12dynamic_type7unshare17h19052c50f9e150aeE>
   22e68:	a811      	add	r0, sp, #68	@ 0x44
   22e6a:	7005      	strb	r5, [r0, #0]
   22e6c:	2c00      	cmp	r4, #0
   22e6e:	d1dd      	bne.n	22e2c <_ZN20complex_dynamic_type3app17h4c56b25f94ef3122E+0xa4>
   22e70:	a811      	add	r0, sp, #68	@ 0x44
   22e72:	7804      	ldrb	r4, [r0, #0]
   22e74:	2c02      	cmp	r4, #2
   22e76:	d001      	beq.n	22e7c <_ZN20complex_dynamic_type3app17h4c56b25f94ef3122E+0xf4>
   22e78:	480e      	ldr	r0, [pc, #56]	@ (22eb4 <_ZN20complex_dynamic_type3app17h4c56b25f94ef3122E+0x12c>)
   22e7a:	9005      	str	r0, [sp, #20]
   22e7c:	9d06      	ldr	r5, [sp, #24]
   22e7e:	1c68      	adds	r0, r5, #1
   22e80:	222f      	movs	r2, #47	@ 0x2f
   22e82:	9905      	ldr	r1, [sp, #20]
   22e84:	f008 fbe1 	bl	2b64a <__aeabi_memcpy>
   22e88:	2000      	movs	r0, #0
   22e8a:	2c02      	cmp	r4, #2
   22e8c:	7028      	strb	r0, [r5, #0]
   22e8e:	d004      	beq.n	22e9a <_ZN20complex_dynamic_type3app17h4c56b25f94ef3122E+0x112>
   22e90:	2109      	movs	r1, #9
   22e92:	4630      	mov	r0, r6
   22e94:	4622      	mov	r2, r4
   22e96:	f008 f9f3 	bl	2b280 <_ZN9allow_pin12dynamic_type7unshare17h19052c50f9e150aeE>
   22e9a:	a807      	add	r0, sp, #28
   22e9c:	7802      	ldrb	r2, [r0, #0]
   22e9e:	2a02      	cmp	r2, #2
   22ea0:	d003      	beq.n	22eaa <_ZN20complex_dynamic_type3app17h4c56b25f94ef3122E+0x122>
   22ea2:	2106      	movs	r1, #6
   22ea4:	4630      	mov	r0, r6
   22ea6:	f008 f9eb 	bl	2b280 <_ZN9allow_pin12dynamic_type7unshare17h19052c50f9e150aeE>
   22eaa:	b021      	add	sp, #132	@ 0x84
   22eac:	bdf0      	pop	{r4, r5, r6, r7, pc}
   22eae:	46c0      	nop			@ (mov r8, r8)
   22eb0:	00001273 	.word	0x00001273
   22eb4:	00010a4d 	.word	0x00010a4d

00022eb8 <_ZN20complex_dynamic_type3app17h4e25f044d9f5d5adE>:
   22eb8:	b5f0      	push	{r4, r5, r6, r7, lr}
   22eba:	af03      	add	r7, sp, #12
   22ebc:	b0a9      	sub	sp, #164	@ 0xa4
   22ebe:	9006      	str	r0, [sp, #24]
   22ec0:	a807      	add	r0, sp, #28
   22ec2:	2602      	movs	r6, #2
   22ec4:	7006      	strb	r6, [r0, #0]
   22ec6:	1c40      	adds	r0, r0, #1
   22ec8:	9004      	str	r0, [sp, #16]
   22eca:	2435      	movs	r4, #53	@ 0x35
   22ecc:	4622      	mov	r2, r4
   22ece:	f008 fbbc 	bl	2b64a <__aeabi_memcpy>
   22ed2:	ad15      	add	r5, sp, #84	@ 0x54
   22ed4:	1c68      	adds	r0, r5, #1
   22ed6:	213f      	movs	r1, #63	@ 0x3f
   22ed8:	9005      	str	r0, [sp, #20]
   22eda:	9103      	str	r1, [sp, #12]
   22edc:	f008 f9f5 	bl	2b2ca <__aeabi_memclr>
   22ee0:	9602      	str	r6, [sp, #8]
   22ee2:	702e      	strb	r6, [r5, #0]
   22ee4:	2504      	movs	r5, #4
   22ee6:	9400      	str	r4, [sp, #0]
   22ee8:	9501      	str	r5, [sp, #4]
   22eea:	a825      	add	r0, sp, #148	@ 0x94
   22eec:	493d      	ldr	r1, [pc, #244]	@ (22fe4 <_ZN20complex_dynamic_type3app17h4e25f044d9f5d5adE+0x12c>)
   22eee:	2400      	movs	r4, #0
   22ef0:	4622      	mov	r2, r4
   22ef2:	9b04      	ldr	r3, [sp, #16]
   22ef4:	f008 f9d1 	bl	2b29a <_ZN9allow_pin13dynamic_allow17h8bfd3764c146b81aE>
   22ef8:	9825      	ldr	r0, [sp, #148]	@ 0x94
   22efa:	2802      	cmp	r0, #2
   22efc:	d101      	bne.n	22f02 <_ZN20complex_dynamic_type3app17h4e25f044d9f5d5adE+0x4a>
   22efe:	9926      	ldr	r1, [sp, #152]	@ 0x98
   22f00:	e001      	b.n	22f06 <_ZN20complex_dynamic_type3app17h4e25f044d9f5d5adE+0x4e>
   22f02:	a907      	add	r1, sp, #28
   22f04:	700d      	strb	r5, [r1, #0]
   22f06:	2601      	movs	r6, #1
   22f08:	2802      	cmp	r0, #2
   22f0a:	4d36      	ldr	r5, [pc, #216]	@ (22fe4 <_ZN20complex_dynamic_type3app17h4e25f044d9f5d5adE+0x12c>)
   22f0c:	d10d      	bne.n	22f2a <_ZN20complex_dynamic_type3app17h4e25f044d9f5d5adE+0x72>
   22f0e:	4634      	mov	r4, r6
   22f10:	2c00      	cmp	r4, #0
   22f12:	d047      	beq.n	22fa4 <_ZN20complex_dynamic_type3app17h4e25f044d9f5d5adE+0xec>
   22f14:	2001      	movs	r0, #1
   22f16:	9a06      	ldr	r2, [sp, #24]
   22f18:	7010      	strb	r0, [r2, #0]
   22f1a:	6051      	str	r1, [r2, #4]
   22f1c:	a815      	add	r0, sp, #84	@ 0x54
   22f1e:	7802      	ldrb	r2, [r0, #0]
   22f20:	2a02      	cmp	r2, #2
   22f22:	d054      	beq.n	22fce <_ZN20complex_dynamic_type3app17h4e25f044d9f5d5adE+0x116>
   22f24:	2103      	movs	r1, #3
   22f26:	4628      	mov	r0, r5
   22f28:	e04f      	b.n	22fca <_ZN20complex_dynamic_type3app17h4e25f044d9f5d5adE+0x112>
   22f2a:	a815      	add	r0, sp, #84	@ 0x54
   22f2c:	7800      	ldrb	r0, [r0, #0]
   22f2e:	2802      	cmp	r0, #2
   22f30:	d10f      	bne.n	22f52 <_ZN20complex_dynamic_type3app17h4e25f044d9f5d5adE+0x9a>
   22f32:	2203      	movs	r2, #3
   22f34:	9803      	ldr	r0, [sp, #12]
   22f36:	9000      	str	r0, [sp, #0]
   22f38:	9201      	str	r2, [sp, #4]
   22f3a:	a825      	add	r0, sp, #148	@ 0x94
   22f3c:	4629      	mov	r1, r5
   22f3e:	4615      	mov	r5, r2
   22f40:	9b05      	ldr	r3, [sp, #20]
   22f42:	f008 f9aa 	bl	2b29a <_ZN9allow_pin13dynamic_allow17h8bfd3764c146b81aE>
   22f46:	9825      	ldr	r0, [sp, #148]	@ 0x94
   22f48:	2802      	cmp	r0, #2
   22f4a:	d107      	bne.n	22f5c <_ZN20complex_dynamic_type3app17h4e25f044d9f5d5adE+0xa4>
   22f4c:	9926      	ldr	r1, [sp, #152]	@ 0x98
   22f4e:	4634      	mov	r4, r6
   22f50:	e006      	b.n	22f60 <_ZN20complex_dynamic_type3app17h4e25f044d9f5d5adE+0xa8>
   22f52:	2103      	movs	r1, #3
   22f54:	4634      	mov	r4, r6
   22f56:	2c00      	cmp	r4, #0
   22f58:	d1d9      	bne.n	22f0e <_ZN20complex_dynamic_type3app17h4e25f044d9f5d5adE+0x56>
   22f5a:	e004      	b.n	22f66 <_ZN20complex_dynamic_type3app17h4e25f044d9f5d5adE+0xae>
   22f5c:	a815      	add	r0, sp, #84	@ 0x54
   22f5e:	7005      	strb	r5, [r0, #0]
   22f60:	4d20      	ldr	r5, [pc, #128]	@ (22fe4 <_ZN20complex_dynamic_type3app17h4e25f044d9f5d5adE+0x12c>)
   22f62:	2c00      	cmp	r4, #0
   22f64:	d1d3      	bne.n	22f0e <_ZN20complex_dynamic_type3app17h4e25f044d9f5d5adE+0x56>
   22f66:	481f      	ldr	r0, [pc, #124]	@ (22fe4 <_ZN20complex_dynamic_type3app17h4e25f044d9f5d5adE+0x12c>)
   22f68:	2203      	movs	r2, #3
   22f6a:	2400      	movs	r4, #0
   22f6c:	4621      	mov	r1, r4
   22f6e:	4623      	mov	r3, r4
   22f70:	df02      	svc	2
   22f72:	287f      	cmp	r0, #127	@ 0x7f
   22f74:	d9cb      	bls.n	22f0e <_ZN20complex_dynamic_type3app17h4e25f044d9f5d5adE+0x56>
   22f76:	a807      	add	r0, sp, #28
   22f78:	7802      	ldrb	r2, [r0, #0]
   22f7a:	2a02      	cmp	r2, #2
   22f7c:	d003      	beq.n	22f86 <_ZN20complex_dynamic_type3app17h4e25f044d9f5d5adE+0xce>
   22f7e:	2100      	movs	r1, #0
   22f80:	4628      	mov	r0, r5
   22f82:	f008 f97d 	bl	2b280 <_ZN9allow_pin12dynamic_type7unshare17h19052c50f9e150aeE>
   22f86:	a807      	add	r0, sp, #28
   22f88:	9e02      	ldr	r6, [sp, #8]
   22f8a:	7006      	strb	r6, [r0, #0]
   22f8c:	a815      	add	r0, sp, #84	@ 0x54
   22f8e:	7802      	ldrb	r2, [r0, #0]
   22f90:	2a02      	cmp	r2, #2
   22f92:	d003      	beq.n	22f9c <_ZN20complex_dynamic_type3app17h4e25f044d9f5d5adE+0xe4>
   22f94:	2103      	movs	r1, #3
   22f96:	4628      	mov	r0, r5
   22f98:	f008 f972 	bl	2b280 <_ZN9allow_pin12dynamic_type7unshare17h19052c50f9e150aeE>
   22f9c:	a815      	add	r0, sp, #84	@ 0x54
   22f9e:	7006      	strb	r6, [r0, #0]
   22fa0:	2c00      	cmp	r4, #0
   22fa2:	d1b7      	bne.n	22f14 <_ZN20complex_dynamic_type3app17h4e25f044d9f5d5adE+0x5c>
   22fa4:	a815      	add	r0, sp, #84	@ 0x54
   22fa6:	7804      	ldrb	r4, [r0, #0]
   22fa8:	2c02      	cmp	r4, #2
   22faa:	d001      	beq.n	22fb0 <_ZN20complex_dynamic_type3app17h4e25f044d9f5d5adE+0xf8>
   22fac:	480e      	ldr	r0, [pc, #56]	@ (22fe8 <_ZN20complex_dynamic_type3app17h4e25f044d9f5d5adE+0x130>)
   22fae:	9005      	str	r0, [sp, #20]
   22fb0:	9e06      	ldr	r6, [sp, #24]
   22fb2:	1c70      	adds	r0, r6, #1
   22fb4:	223f      	movs	r2, #63	@ 0x3f
   22fb6:	9905      	ldr	r1, [sp, #20]
   22fb8:	f008 fb47 	bl	2b64a <__aeabi_memcpy>
   22fbc:	2000      	movs	r0, #0
   22fbe:	2c02      	cmp	r4, #2
   22fc0:	7030      	strb	r0, [r6, #0]
   22fc2:	d004      	beq.n	22fce <_ZN20complex_dynamic_type3app17h4e25f044d9f5d5adE+0x116>
   22fc4:	2103      	movs	r1, #3
   22fc6:	4628      	mov	r0, r5
   22fc8:	4622      	mov	r2, r4
   22fca:	f008 f959 	bl	2b280 <_ZN9allow_pin12dynamic_type7unshare17h19052c50f9e150aeE>
   22fce:	a807      	add	r0, sp, #28
   22fd0:	7802      	ldrb	r2, [r0, #0]
   22fd2:	2a02      	cmp	r2, #2
   22fd4:	d003      	beq.n	22fde <_ZN20complex_dynamic_type3app17h4e25f044d9f5d5adE+0x126>
   22fd6:	2100      	movs	r1, #0
   22fd8:	4628      	mov	r0, r5
   22fda:	f008 f951 	bl	2b280 <_ZN9allow_pin12dynamic_type7unshare17h19052c50f9e150aeE>
   22fde:	b029      	add	sp, #164	@ 0xa4
   22fe0:	bdf0      	pop	{r4, r5, r6, r7, pc}
   22fe2:	46c0      	nop			@ (mov r8, r8)
   22fe4:	00000e57 	.word	0x00000e57
   22fe8:	000101a3 	.word	0x000101a3

00022fec <_ZN20complex_dynamic_type3app17h50a8689a49ae3c26E>:
   22fec:	b5f0      	push	{r4, r5, r6, r7, lr}
   22fee:	af03      	add	r7, sp, #12
   22ff0:	b0b5      	sub	sp, #212	@ 0xd4
   22ff2:	9007      	str	r0, [sp, #28]
   22ff4:	a808      	add	r0, sp, #32
   22ff6:	2502      	movs	r5, #2
   22ff8:	7005      	strb	r5, [r0, #0]
   22ffa:	1c40      	adds	r0, r0, #1
   22ffc:	9005      	str	r0, [sp, #20]
   22ffe:	2653      	movs	r6, #83	@ 0x53
   23000:	4632      	mov	r2, r6
   23002:	f008 fb22 	bl	2b64a <__aeabi_memcpy>
   23006:	ac1d      	add	r4, sp, #116	@ 0x74
   23008:	1c60      	adds	r0, r4, #1
   2300a:	214d      	movs	r1, #77	@ 0x4d
   2300c:	9006      	str	r0, [sp, #24]
   2300e:	9104      	str	r1, [sp, #16]
   23010:	f008 f95b 	bl	2b2ca <__aeabi_memclr>
   23014:	9503      	str	r5, [sp, #12]
   23016:	7025      	strb	r5, [r4, #0]
   23018:	2404      	movs	r4, #4
   2301a:	9600      	str	r6, [sp, #0]
   2301c:	9401      	str	r4, [sp, #4]
   2301e:	a831      	add	r0, sp, #196	@ 0xc4
   23020:	4e3c      	ldr	r6, [pc, #240]	@ (23114 <_ZN20complex_dynamic_type3app17h50a8689a49ae3c26E+0x128>)
   23022:	2209      	movs	r2, #9
   23024:	4631      	mov	r1, r6
   23026:	9b05      	ldr	r3, [sp, #20]
   23028:	f008 f937 	bl	2b29a <_ZN9allow_pin13dynamic_allow17h8bfd3764c146b81aE>
   2302c:	9831      	ldr	r0, [sp, #196]	@ 0xc4
   2302e:	2802      	cmp	r0, #2
   23030:	d101      	bne.n	23036 <_ZN20complex_dynamic_type3app17h50a8689a49ae3c26E+0x4a>
   23032:	9932      	ldr	r1, [sp, #200]	@ 0xc8
   23034:	e001      	b.n	2303a <_ZN20complex_dynamic_type3app17h50a8689a49ae3c26E+0x4e>
   23036:	a908      	add	r1, sp, #32
   23038:	700c      	strb	r4, [r1, #0]
   2303a:	2501      	movs	r5, #1
   2303c:	2802      	cmp	r0, #2
   2303e:	d024      	beq.n	2308a <_ZN20complex_dynamic_type3app17h50a8689a49ae3c26E+0x9e>
   23040:	a81d      	add	r0, sp, #116	@ 0x74
   23042:	7800      	ldrb	r0, [r0, #0]
   23044:	2802      	cmp	r0, #2
   23046:	d10e      	bne.n	23066 <_ZN20complex_dynamic_type3app17h50a8689a49ae3c26E+0x7a>
   23048:	2403      	movs	r4, #3
   2304a:	9804      	ldr	r0, [sp, #16]
   2304c:	9000      	str	r0, [sp, #0]
   2304e:	9401      	str	r4, [sp, #4]
   23050:	a831      	add	r0, sp, #196	@ 0xc4
   23052:	2204      	movs	r2, #4
   23054:	4631      	mov	r1, r6
   23056:	9b06      	ldr	r3, [sp, #24]
   23058:	f008 f91f 	bl	2b29a <_ZN9allow_pin13dynamic_allow17h8bfd3764c146b81aE>
   2305c:	9831      	ldr	r0, [sp, #196]	@ 0xc4
   2305e:	2802      	cmp	r0, #2
   23060:	d106      	bne.n	23070 <_ZN20complex_dynamic_type3app17h50a8689a49ae3c26E+0x84>
   23062:	9932      	ldr	r1, [sp, #200]	@ 0xc8
   23064:	e000      	b.n	23068 <_ZN20complex_dynamic_type3app17h50a8689a49ae3c26E+0x7c>
   23066:	2103      	movs	r1, #3
   23068:	4628      	mov	r0, r5
   2306a:	2800      	cmp	r0, #0
   2306c:	d005      	beq.n	2307a <_ZN20complex_dynamic_type3app17h50a8689a49ae3c26E+0x8e>
   2306e:	e00c      	b.n	2308a <_ZN20complex_dynamic_type3app17h50a8689a49ae3c26E+0x9e>
   23070:	a81d      	add	r0, sp, #116	@ 0x74
   23072:	7004      	strb	r4, [r0, #0]
   23074:	2000      	movs	r0, #0
   23076:	2800      	cmp	r0, #0
   23078:	d107      	bne.n	2308a <_ZN20complex_dynamic_type3app17h50a8689a49ae3c26E+0x9e>
   2307a:	4826      	ldr	r0, [pc, #152]	@ (23114 <_ZN20complex_dynamic_type3app17h50a8689a49ae3c26E+0x128>)
   2307c:	2109      	movs	r1, #9
   2307e:	2204      	movs	r2, #4
   23080:	2400      	movs	r4, #0
   23082:	4623      	mov	r3, r4
   23084:	df02      	svc	2
   23086:	287f      	cmp	r0, #127	@ 0x7f
   23088:	d80d      	bhi.n	230a6 <_ZN20complex_dynamic_type3app17h50a8689a49ae3c26E+0xba>
   2308a:	462c      	mov	r4, r5
   2308c:	2c00      	cmp	r4, #0
   2308e:	d021      	beq.n	230d4 <_ZN20complex_dynamic_type3app17h50a8689a49ae3c26E+0xe8>
   23090:	2001      	movs	r0, #1
   23092:	9a07      	ldr	r2, [sp, #28]
   23094:	7010      	strb	r0, [r2, #0]
   23096:	6051      	str	r1, [r2, #4]
   23098:	a81d      	add	r0, sp, #116	@ 0x74
   2309a:	7802      	ldrb	r2, [r0, #0]
   2309c:	2a02      	cmp	r2, #2
   2309e:	d02e      	beq.n	230fe <_ZN20complex_dynamic_type3app17h50a8689a49ae3c26E+0x112>
   230a0:	2104      	movs	r1, #4
   230a2:	4630      	mov	r0, r6
   230a4:	e029      	b.n	230fa <_ZN20complex_dynamic_type3app17h50a8689a49ae3c26E+0x10e>
   230a6:	a808      	add	r0, sp, #32
   230a8:	7802      	ldrb	r2, [r0, #0]
   230aa:	2a02      	cmp	r2, #2
   230ac:	d003      	beq.n	230b6 <_ZN20complex_dynamic_type3app17h50a8689a49ae3c26E+0xca>
   230ae:	2109      	movs	r1, #9
   230b0:	4630      	mov	r0, r6
   230b2:	f008 f8e5 	bl	2b280 <_ZN9allow_pin12dynamic_type7unshare17h19052c50f9e150aeE>
   230b6:	a808      	add	r0, sp, #32
   230b8:	9d03      	ldr	r5, [sp, #12]
   230ba:	7005      	strb	r5, [r0, #0]
   230bc:	a81d      	add	r0, sp, #116	@ 0x74
   230be:	7802      	ldrb	r2, [r0, #0]
   230c0:	2a02      	cmp	r2, #2
   230c2:	d003      	beq.n	230cc <_ZN20complex_dynamic_type3app17h50a8689a49ae3c26E+0xe0>
   230c4:	2104      	movs	r1, #4
   230c6:	4630      	mov	r0, r6
   230c8:	f008 f8da 	bl	2b280 <_ZN9allow_pin12dynamic_type7unshare17h19052c50f9e150aeE>
   230cc:	a81d      	add	r0, sp, #116	@ 0x74
   230ce:	7005      	strb	r5, [r0, #0]
   230d0:	2c00      	cmp	r4, #0
   230d2:	d1dd      	bne.n	23090 <_ZN20complex_dynamic_type3app17h50a8689a49ae3c26E+0xa4>
   230d4:	a81d      	add	r0, sp, #116	@ 0x74
   230d6:	7804      	ldrb	r4, [r0, #0]
   230d8:	2c02      	cmp	r4, #2
   230da:	d001      	beq.n	230e0 <_ZN20complex_dynamic_type3app17h50a8689a49ae3c26E+0xf4>
   230dc:	480e      	ldr	r0, [pc, #56]	@ (23118 <_ZN20complex_dynamic_type3app17h50a8689a49ae3c26E+0x12c>)
   230de:	9006      	str	r0, [sp, #24]
   230e0:	9d07      	ldr	r5, [sp, #28]
   230e2:	1c68      	adds	r0, r5, #1
   230e4:	224d      	movs	r2, #77	@ 0x4d
   230e6:	9906      	ldr	r1, [sp, #24]
   230e8:	f008 faaf 	bl	2b64a <__aeabi_memcpy>
   230ec:	2000      	movs	r0, #0
   230ee:	2c02      	cmp	r4, #2
   230f0:	7028      	strb	r0, [r5, #0]
   230f2:	d004      	beq.n	230fe <_ZN20complex_dynamic_type3app17h50a8689a49ae3c26E+0x112>
   230f4:	2104      	movs	r1, #4
   230f6:	4630      	mov	r0, r6
   230f8:	4622      	mov	r2, r4
   230fa:	f008 f8c1 	bl	2b280 <_ZN9allow_pin12dynamic_type7unshare17h19052c50f9e150aeE>
   230fe:	a808      	add	r0, sp, #32
   23100:	7802      	ldrb	r2, [r0, #0]
   23102:	2a02      	cmp	r2, #2
   23104:	d003      	beq.n	2310e <_ZN20complex_dynamic_type3app17h50a8689a49ae3c26E+0x122>
   23106:	2109      	movs	r1, #9
   23108:	4630      	mov	r0, r6
   2310a:	f008 f8b9 	bl	2b280 <_ZN9allow_pin12dynamic_type7unshare17h19052c50f9e150aeE>
   2310e:	b035      	add	sp, #212	@ 0xd4
   23110:	bdf0      	pop	{r4, r5, r6, r7, pc}
   23112:	46c0      	nop			@ (mov r8, r8)
   23114:	000016ba 	.word	0x000016ba
   23118:	00010341 	.word	0x00010341

0002311c <_ZN20complex_dynamic_type3app17h64093c23c79e3773E>:
   2311c:	b5f0      	push	{r4, r5, r6, r7, lr}
   2311e:	af03      	add	r7, sp, #12
   23120:	b0b5      	sub	sp, #212	@ 0xd4
   23122:	9006      	str	r0, [sp, #24]
   23124:	a807      	add	r0, sp, #28
   23126:	2602      	movs	r6, #2
   23128:	7006      	strb	r6, [r0, #0]
   2312a:	1c40      	adds	r0, r0, #1
   2312c:	9004      	str	r0, [sp, #16]
   2312e:	2459      	movs	r4, #89	@ 0x59
   23130:	4622      	mov	r2, r4
   23132:	f008 fa8a 	bl	2b64a <__aeabi_memcpy>
   23136:	ad1e      	add	r5, sp, #120	@ 0x78
   23138:	1c68      	adds	r0, r5, #1
   2313a:	214a      	movs	r1, #74	@ 0x4a
   2313c:	9005      	str	r0, [sp, #20]
   2313e:	9103      	str	r1, [sp, #12]
   23140:	f008 f8c3 	bl	2b2ca <__aeabi_memclr>
   23144:	9602      	str	r6, [sp, #8]
   23146:	702e      	strb	r6, [r5, #0]
   23148:	2504      	movs	r5, #4
   2314a:	9400      	str	r4, [sp, #0]
   2314c:	9501      	str	r5, [sp, #4]
   2314e:	a831      	add	r0, sp, #196	@ 0xc4
   23150:	493b      	ldr	r1, [pc, #236]	@ (23240 <_ZN20complex_dynamic_type3app17h64093c23c79e3773E+0x124>)
   23152:	2400      	movs	r4, #0
   23154:	4622      	mov	r2, r4
   23156:	9b04      	ldr	r3, [sp, #16]
   23158:	f008 f89f 	bl	2b29a <_ZN9allow_pin13dynamic_allow17h8bfd3764c146b81aE>
   2315c:	9831      	ldr	r0, [sp, #196]	@ 0xc4
   2315e:	2802      	cmp	r0, #2
   23160:	d101      	bne.n	23166 <_ZN20complex_dynamic_type3app17h64093c23c79e3773E+0x4a>
   23162:	9932      	ldr	r1, [sp, #200]	@ 0xc8
   23164:	e001      	b.n	2316a <_ZN20complex_dynamic_type3app17h64093c23c79e3773E+0x4e>
   23166:	a907      	add	r1, sp, #28
   23168:	700d      	strb	r5, [r1, #0]
   2316a:	2601      	movs	r6, #1
   2316c:	2802      	cmp	r0, #2
   2316e:	d023      	beq.n	231b8 <_ZN20complex_dynamic_type3app17h64093c23c79e3773E+0x9c>
   23170:	a81e      	add	r0, sp, #120	@ 0x78
   23172:	7800      	ldrb	r0, [r0, #0]
   23174:	2802      	cmp	r0, #2
   23176:	d10e      	bne.n	23196 <_ZN20complex_dynamic_type3app17h64093c23c79e3773E+0x7a>
   23178:	2503      	movs	r5, #3
   2317a:	9803      	ldr	r0, [sp, #12]
   2317c:	9000      	str	r0, [sp, #0]
   2317e:	9501      	str	r5, [sp, #4]
   23180:	a831      	add	r0, sp, #196	@ 0xc4
   23182:	2204      	movs	r2, #4
   23184:	492e      	ldr	r1, [pc, #184]	@ (23240 <_ZN20complex_dynamic_type3app17h64093c23c79e3773E+0x124>)
   23186:	9b05      	ldr	r3, [sp, #20]
   23188:	f008 f887 	bl	2b29a <_ZN9allow_pin13dynamic_allow17h8bfd3764c146b81aE>
   2318c:	9831      	ldr	r0, [sp, #196]	@ 0xc4
   2318e:	2802      	cmp	r0, #2
   23190:	d106      	bne.n	231a0 <_ZN20complex_dynamic_type3app17h64093c23c79e3773E+0x84>
   23192:	9932      	ldr	r1, [sp, #200]	@ 0xc8
   23194:	e000      	b.n	23198 <_ZN20complex_dynamic_type3app17h64093c23c79e3773E+0x7c>
   23196:	2103      	movs	r1, #3
   23198:	4634      	mov	r4, r6
   2319a:	2c00      	cmp	r4, #0
   2319c:	d004      	beq.n	231a8 <_ZN20complex_dynamic_type3app17h64093c23c79e3773E+0x8c>
   2319e:	e00b      	b.n	231b8 <_ZN20complex_dynamic_type3app17h64093c23c79e3773E+0x9c>
   231a0:	a81e      	add	r0, sp, #120	@ 0x78
   231a2:	7005      	strb	r5, [r0, #0]
   231a4:	2c00      	cmp	r4, #0
   231a6:	d107      	bne.n	231b8 <_ZN20complex_dynamic_type3app17h64093c23c79e3773E+0x9c>
   231a8:	4825      	ldr	r0, [pc, #148]	@ (23240 <_ZN20complex_dynamic_type3app17h64093c23c79e3773E+0x124>)
   231aa:	2204      	movs	r2, #4
   231ac:	2400      	movs	r4, #0
   231ae:	4621      	mov	r1, r4
   231b0:	4623      	mov	r3, r4
   231b2:	df02      	svc	2
   231b4:	287f      	cmp	r0, #127	@ 0x7f
   231b6:	d80d      	bhi.n	231d4 <_ZN20complex_dynamic_type3app17h64093c23c79e3773E+0xb8>
   231b8:	4634      	mov	r4, r6
   231ba:	2c00      	cmp	r4, #0
   231bc:	d021      	beq.n	23202 <_ZN20complex_dynamic_type3app17h64093c23c79e3773E+0xe6>
   231be:	2001      	movs	r0, #1
   231c0:	9a06      	ldr	r2, [sp, #24]
   231c2:	7010      	strb	r0, [r2, #0]
   231c4:	6051      	str	r1, [r2, #4]
   231c6:	a81e      	add	r0, sp, #120	@ 0x78
   231c8:	7802      	ldrb	r2, [r0, #0]
   231ca:	2a02      	cmp	r2, #2
   231cc:	d02e      	beq.n	2322c <_ZN20complex_dynamic_type3app17h64093c23c79e3773E+0x110>
   231ce:	2104      	movs	r1, #4
   231d0:	481b      	ldr	r0, [pc, #108]	@ (23240 <_ZN20complex_dynamic_type3app17h64093c23c79e3773E+0x124>)
   231d2:	e029      	b.n	23228 <_ZN20complex_dynamic_type3app17h64093c23c79e3773E+0x10c>
   231d4:	a807      	add	r0, sp, #28
   231d6:	7802      	ldrb	r2, [r0, #0]
   231d8:	2a02      	cmp	r2, #2
   231da:	d003      	beq.n	231e4 <_ZN20complex_dynamic_type3app17h64093c23c79e3773E+0xc8>
   231dc:	2100      	movs	r1, #0
   231de:	4818      	ldr	r0, [pc, #96]	@ (23240 <_ZN20complex_dynamic_type3app17h64093c23c79e3773E+0x124>)
   231e0:	f008 f84e 	bl	2b280 <_ZN9allow_pin12dynamic_type7unshare17h19052c50f9e150aeE>
   231e4:	a807      	add	r0, sp, #28
   231e6:	9d02      	ldr	r5, [sp, #8]
   231e8:	7005      	strb	r5, [r0, #0]
   231ea:	a81e      	add	r0, sp, #120	@ 0x78
   231ec:	7802      	ldrb	r2, [r0, #0]
   231ee:	2a02      	cmp	r2, #2
   231f0:	d003      	beq.n	231fa <_ZN20complex_dynamic_type3app17h64093c23c79e3773E+0xde>
   231f2:	2104      	movs	r1, #4
   231f4:	4812      	ldr	r0, [pc, #72]	@ (23240 <_ZN20complex_dynamic_type3app17h64093c23c79e3773E+0x124>)
   231f6:	f008 f843 	bl	2b280 <_ZN9allow_pin12dynamic_type7unshare17h19052c50f9e150aeE>
   231fa:	a81e      	add	r0, sp, #120	@ 0x78
   231fc:	7005      	strb	r5, [r0, #0]
   231fe:	2c00      	cmp	r4, #0
   23200:	d1dd      	bne.n	231be <_ZN20complex_dynamic_type3app17h64093c23c79e3773E+0xa2>
   23202:	a81e      	add	r0, sp, #120	@ 0x78
   23204:	7804      	ldrb	r4, [r0, #0]
   23206:	2c02      	cmp	r4, #2
   23208:	d001      	beq.n	2320e <_ZN20complex_dynamic_type3app17h64093c23c79e3773E+0xf2>
   2320a:	480e      	ldr	r0, [pc, #56]	@ (23244 <_ZN20complex_dynamic_type3app17h64093c23c79e3773E+0x128>)
   2320c:	9005      	str	r0, [sp, #20]
   2320e:	9d06      	ldr	r5, [sp, #24]
   23210:	1c68      	adds	r0, r5, #1
   23212:	224a      	movs	r2, #74	@ 0x4a
   23214:	9905      	ldr	r1, [sp, #20]
   23216:	f008 fa18 	bl	2b64a <__aeabi_memcpy>
   2321a:	2000      	movs	r0, #0
   2321c:	2c02      	cmp	r4, #2
   2321e:	7028      	strb	r0, [r5, #0]
   23220:	d004      	beq.n	2322c <_ZN20complex_dynamic_type3app17h64093c23c79e3773E+0x110>
   23222:	2104      	movs	r1, #4
   23224:	4806      	ldr	r0, [pc, #24]	@ (23240 <_ZN20complex_dynamic_type3app17h64093c23c79e3773E+0x124>)
   23226:	4622      	mov	r2, r4
   23228:	f008 f82a 	bl	2b280 <_ZN9allow_pin12dynamic_type7unshare17h19052c50f9e150aeE>
   2322c:	a807      	add	r0, sp, #28
   2322e:	7802      	ldrb	r2, [r0, #0]
   23230:	2a02      	cmp	r2, #2
   23232:	d003      	beq.n	2323c <_ZN20complex_dynamic_type3app17h64093c23c79e3773E+0x120>
   23234:	2100      	movs	r1, #0
   23236:	4802      	ldr	r0, [pc, #8]	@ (23240 <_ZN20complex_dynamic_type3app17h64093c23c79e3773E+0x124>)
   23238:	f008 f822 	bl	2b280 <_ZN9allow_pin12dynamic_type7unshare17h19052c50f9e150aeE>
   2323c:	b035      	add	sp, #212	@ 0xd4
   2323e:	bdf0      	pop	{r4, r5, r6, r7, pc}
   23240:	00001484 	.word	0x00001484
   23244:	0001049b 	.word	0x0001049b

00023248 <_ZN20complex_dynamic_type3app17h649112c45f58b54dE>:
   23248:	b5f0      	push	{r4, r5, r6, r7, lr}
   2324a:	af03      	add	r7, sp, #12
   2324c:	b0b3      	sub	sp, #204	@ 0xcc
   2324e:	9006      	str	r0, [sp, #24]
   23250:	a807      	add	r0, sp, #28
   23252:	2502      	movs	r5, #2
   23254:	7005      	strb	r5, [r0, #0]
   23256:	1c40      	adds	r0, r0, #1
   23258:	9004      	str	r0, [sp, #16]
   2325a:	2646      	movs	r6, #70	@ 0x46
   2325c:	4632      	mov	r2, r6
   2325e:	f008 f9f4 	bl	2b64a <__aeabi_memcpy>
   23262:	ac19      	add	r4, sp, #100	@ 0x64
   23264:	1c60      	adds	r0, r4, #1
   23266:	2156      	movs	r1, #86	@ 0x56
   23268:	9005      	str	r0, [sp, #20]
   2326a:	9103      	str	r1, [sp, #12]
   2326c:	f008 f82d 	bl	2b2ca <__aeabi_memclr>
   23270:	9502      	str	r5, [sp, #8]
   23272:	7025      	strb	r5, [r4, #0]
   23274:	2404      	movs	r4, #4
   23276:	9600      	str	r6, [sp, #0]
   23278:	9401      	str	r4, [sp, #4]
   2327a:	a82f      	add	r0, sp, #188	@ 0xbc
   2327c:	493b      	ldr	r1, [pc, #236]	@ (2336c <_ZN20complex_dynamic_type3app17h649112c45f58b54dE+0x124>)
   2327e:	2207      	movs	r2, #7
   23280:	9b04      	ldr	r3, [sp, #16]
   23282:	f008 f80a 	bl	2b29a <_ZN9allow_pin13dynamic_allow17h8bfd3764c146b81aE>
   23286:	982f      	ldr	r0, [sp, #188]	@ 0xbc
   23288:	2802      	cmp	r0, #2
   2328a:	d101      	bne.n	23290 <_ZN20complex_dynamic_type3app17h649112c45f58b54dE+0x48>
   2328c:	9930      	ldr	r1, [sp, #192]	@ 0xc0
   2328e:	e001      	b.n	23294 <_ZN20complex_dynamic_type3app17h649112c45f58b54dE+0x4c>
   23290:	a907      	add	r1, sp, #28
   23292:	700c      	strb	r4, [r1, #0]
   23294:	2601      	movs	r6, #1
   23296:	2802      	cmp	r0, #2
   23298:	d024      	beq.n	232e4 <_ZN20complex_dynamic_type3app17h649112c45f58b54dE+0x9c>
   2329a:	a819      	add	r0, sp, #100	@ 0x64
   2329c:	7800      	ldrb	r0, [r0, #0]
   2329e:	2802      	cmp	r0, #2
   232a0:	d10e      	bne.n	232c0 <_ZN20complex_dynamic_type3app17h649112c45f58b54dE+0x78>
   232a2:	2503      	movs	r5, #3
   232a4:	9803      	ldr	r0, [sp, #12]
   232a6:	9000      	str	r0, [sp, #0]
   232a8:	9501      	str	r5, [sp, #4]
   232aa:	a82f      	add	r0, sp, #188	@ 0xbc
   232ac:	492f      	ldr	r1, [pc, #188]	@ (2336c <_ZN20complex_dynamic_type3app17h649112c45f58b54dE+0x124>)
   232ae:	462a      	mov	r2, r5
   232b0:	9b05      	ldr	r3, [sp, #20]
   232b2:	f007 fff2 	bl	2b29a <_ZN9allow_pin13dynamic_allow17h8bfd3764c146b81aE>
   232b6:	982f      	ldr	r0, [sp, #188]	@ 0xbc
   232b8:	2802      	cmp	r0, #2
   232ba:	d106      	bne.n	232ca <_ZN20complex_dynamic_type3app17h649112c45f58b54dE+0x82>
   232bc:	9930      	ldr	r1, [sp, #192]	@ 0xc0
   232be:	e000      	b.n	232c2 <_ZN20complex_dynamic_type3app17h649112c45f58b54dE+0x7a>
   232c0:	2103      	movs	r1, #3
   232c2:	4630      	mov	r0, r6
   232c4:	2800      	cmp	r0, #0
   232c6:	d005      	beq.n	232d4 <_ZN20complex_dynamic_type3app17h649112c45f58b54dE+0x8c>
   232c8:	e00c      	b.n	232e4 <_ZN20complex_dynamic_type3app17h649112c45f58b54dE+0x9c>
   232ca:	a819      	add	r0, sp, #100	@ 0x64
   232cc:	7005      	strb	r5, [r0, #0]
   232ce:	2000      	movs	r0, #0
   232d0:	2800      	cmp	r0, #0
   232d2:	d107      	bne.n	232e4 <_ZN20complex_dynamic_type3app17h649112c45f58b54dE+0x9c>
   232d4:	4825      	ldr	r0, [pc, #148]	@ (2336c <_ZN20complex_dynamic_type3app17h649112c45f58b54dE+0x124>)
   232d6:	2107      	movs	r1, #7
   232d8:	2203      	movs	r2, #3
   232da:	2400      	movs	r4, #0
   232dc:	4623      	mov	r3, r4
   232de:	df02      	svc	2
   232e0:	287f      	cmp	r0, #127	@ 0x7f
   232e2:	d80d      	bhi.n	23300 <_ZN20complex_dynamic_type3app17h649112c45f58b54dE+0xb8>
   232e4:	4634      	mov	r4, r6
   232e6:	2c00      	cmp	r4, #0
   232e8:	d021      	beq.n	2332e <_ZN20complex_dynamic_type3app17h649112c45f58b54dE+0xe6>
   232ea:	2001      	movs	r0, #1
   232ec:	9a06      	ldr	r2, [sp, #24]
   232ee:	7010      	strb	r0, [r2, #0]
   232f0:	6051      	str	r1, [r2, #4]
   232f2:	a819      	add	r0, sp, #100	@ 0x64
   232f4:	7802      	ldrb	r2, [r0, #0]
   232f6:	2a02      	cmp	r2, #2
   232f8:	d02e      	beq.n	23358 <_ZN20complex_dynamic_type3app17h649112c45f58b54dE+0x110>
   232fa:	2103      	movs	r1, #3
   232fc:	481b      	ldr	r0, [pc, #108]	@ (2336c <_ZN20complex_dynamic_type3app17h649112c45f58b54dE+0x124>)
   232fe:	e029      	b.n	23354 <_ZN20complex_dynamic_type3app17h649112c45f58b54dE+0x10c>
   23300:	a807      	add	r0, sp, #28
   23302:	7802      	ldrb	r2, [r0, #0]
   23304:	2a02      	cmp	r2, #2
   23306:	d003      	beq.n	23310 <_ZN20complex_dynamic_type3app17h649112c45f58b54dE+0xc8>
   23308:	2107      	movs	r1, #7
   2330a:	4818      	ldr	r0, [pc, #96]	@ (2336c <_ZN20complex_dynamic_type3app17h649112c45f58b54dE+0x124>)
   2330c:	f007 ffb8 	bl	2b280 <_ZN9allow_pin12dynamic_type7unshare17h19052c50f9e150aeE>
   23310:	a807      	add	r0, sp, #28
   23312:	9d02      	ldr	r5, [sp, #8]
   23314:	7005      	strb	r5, [r0, #0]
   23316:	a819      	add	r0, sp, #100	@ 0x64
   23318:	7802      	ldrb	r2, [r0, #0]
   2331a:	2a02      	cmp	r2, #2
   2331c:	d003      	beq.n	23326 <_ZN20complex_dynamic_type3app17h649112c45f58b54dE+0xde>
   2331e:	2103      	movs	r1, #3
   23320:	4812      	ldr	r0, [pc, #72]	@ (2336c <_ZN20complex_dynamic_type3app17h649112c45f58b54dE+0x124>)
   23322:	f007 ffad 	bl	2b280 <_ZN9allow_pin12dynamic_type7unshare17h19052c50f9e150aeE>
   23326:	a819      	add	r0, sp, #100	@ 0x64
   23328:	7005      	strb	r5, [r0, #0]
   2332a:	2c00      	cmp	r4, #0
   2332c:	d1dd      	bne.n	232ea <_ZN20complex_dynamic_type3app17h649112c45f58b54dE+0xa2>
   2332e:	a819      	add	r0, sp, #100	@ 0x64
   23330:	7804      	ldrb	r4, [r0, #0]
   23332:	2c02      	cmp	r4, #2
   23334:	d001      	beq.n	2333a <_ZN20complex_dynamic_type3app17h649112c45f58b54dE+0xf2>
   23336:	480e      	ldr	r0, [pc, #56]	@ (23370 <_ZN20complex_dynamic_type3app17h649112c45f58b54dE+0x128>)
   23338:	9005      	str	r0, [sp, #20]
   2333a:	9d06      	ldr	r5, [sp, #24]
   2333c:	1c68      	adds	r0, r5, #1
   2333e:	2256      	movs	r2, #86	@ 0x56
   23340:	9905      	ldr	r1, [sp, #20]
   23342:	f008 f982 	bl	2b64a <__aeabi_memcpy>
   23346:	2000      	movs	r0, #0
   23348:	2c02      	cmp	r4, #2
   2334a:	7028      	strb	r0, [r5, #0]
   2334c:	d004      	beq.n	23358 <_ZN20complex_dynamic_type3app17h649112c45f58b54dE+0x110>
   2334e:	2103      	movs	r1, #3
   23350:	4806      	ldr	r0, [pc, #24]	@ (2336c <_ZN20complex_dynamic_type3app17h649112c45f58b54dE+0x124>)
   23352:	4622      	mov	r2, r4
   23354:	f007 ff94 	bl	2b280 <_ZN9allow_pin12dynamic_type7unshare17h19052c50f9e150aeE>
   23358:	a807      	add	r0, sp, #28
   2335a:	7802      	ldrb	r2, [r0, #0]
   2335c:	2a02      	cmp	r2, #2
   2335e:	d003      	beq.n	23368 <_ZN20complex_dynamic_type3app17h649112c45f58b54dE+0x120>
   23360:	2107      	movs	r1, #7
   23362:	4802      	ldr	r0, [pc, #8]	@ (2336c <_ZN20complex_dynamic_type3app17h649112c45f58b54dE+0x124>)
   23364:	f007 ff8c 	bl	2b280 <_ZN9allow_pin12dynamic_type7unshare17h19052c50f9e150aeE>
   23368:	b033      	add	sp, #204	@ 0xcc
   2336a:	bdf0      	pop	{r4, r5, r6, r7, pc}
   2336c:	00001e50 	.word	0x00001e50
   23370:	00010565 	.word	0x00010565

00023374 <_ZN20complex_dynamic_type3app17h663567edf28461c2E>:
   23374:	b5f0      	push	{r4, r5, r6, r7, lr}
   23376:	af03      	add	r7, sp, #12
   23378:	b0b9      	sub	sp, #228	@ 0xe4
   2337a:	9006      	str	r0, [sp, #24]
   2337c:	a807      	add	r0, sp, #28
   2337e:	2502      	movs	r5, #2
   23380:	7005      	strb	r5, [r0, #0]
   23382:	1c40      	adds	r0, r0, #1
   23384:	9004      	str	r0, [sp, #16]
   23386:	265e      	movs	r6, #94	@ 0x5e
   23388:	4632      	mov	r2, r6
   2338a:	f008 f95e 	bl	2b64a <__aeabi_memcpy>
   2338e:	ac1f      	add	r4, sp, #124	@ 0x7c
   23390:	1c60      	adds	r0, r4, #1
   23392:	2155      	movs	r1, #85	@ 0x55
   23394:	9005      	str	r0, [sp, #20]
   23396:	9103      	str	r1, [sp, #12]
   23398:	f007 ff97 	bl	2b2ca <__aeabi_memclr>
   2339c:	9502      	str	r5, [sp, #8]
   2339e:	7025      	strb	r5, [r4, #0]
   233a0:	2404      	movs	r4, #4
   233a2:	9600      	str	r6, [sp, #0]
   233a4:	9401      	str	r4, [sp, #4]
   233a6:	a835      	add	r0, sp, #212	@ 0xd4
   233a8:	493b      	ldr	r1, [pc, #236]	@ (23498 <_ZN20complex_dynamic_type3app17h663567edf28461c2E+0x124>)
   233aa:	2207      	movs	r2, #7
   233ac:	9b04      	ldr	r3, [sp, #16]
   233ae:	f007 ff74 	bl	2b29a <_ZN9allow_pin13dynamic_allow17h8bfd3764c146b81aE>
   233b2:	9835      	ldr	r0, [sp, #212]	@ 0xd4
   233b4:	2802      	cmp	r0, #2
   233b6:	d101      	bne.n	233bc <_ZN20complex_dynamic_type3app17h663567edf28461c2E+0x48>
   233b8:	9936      	ldr	r1, [sp, #216]	@ 0xd8
   233ba:	e001      	b.n	233c0 <_ZN20complex_dynamic_type3app17h663567edf28461c2E+0x4c>
   233bc:	a907      	add	r1, sp, #28
   233be:	700c      	strb	r4, [r1, #0]
   233c0:	2601      	movs	r6, #1
   233c2:	2802      	cmp	r0, #2
   233c4:	d024      	beq.n	23410 <_ZN20complex_dynamic_type3app17h663567edf28461c2E+0x9c>
   233c6:	a81f      	add	r0, sp, #124	@ 0x7c
   233c8:	7800      	ldrb	r0, [r0, #0]
   233ca:	2802      	cmp	r0, #2
   233cc:	d10e      	bne.n	233ec <_ZN20complex_dynamic_type3app17h663567edf28461c2E+0x78>
   233ce:	2503      	movs	r5, #3
   233d0:	9803      	ldr	r0, [sp, #12]
   233d2:	9000      	str	r0, [sp, #0]
   233d4:	9501      	str	r5, [sp, #4]
   233d6:	a835      	add	r0, sp, #212	@ 0xd4
   233d8:	492f      	ldr	r1, [pc, #188]	@ (23498 <_ZN20complex_dynamic_type3app17h663567edf28461c2E+0x124>)
   233da:	462a      	mov	r2, r5
   233dc:	9b05      	ldr	r3, [sp, #20]
   233de:	f007 ff5c 	bl	2b29a <_ZN9allow_pin13dynamic_allow17h8bfd3764c146b81aE>
   233e2:	9835      	ldr	r0, [sp, #212]	@ 0xd4
   233e4:	2802      	cmp	r0, #2
   233e6:	d106      	bne.n	233f6 <_ZN20complex_dynamic_type3app17h663567edf28461c2E+0x82>
   233e8:	9936      	ldr	r1, [sp, #216]	@ 0xd8
   233ea:	e000      	b.n	233ee <_ZN20complex_dynamic_type3app17h663567edf28461c2E+0x7a>
   233ec:	2103      	movs	r1, #3
   233ee:	4630      	mov	r0, r6
   233f0:	2800      	cmp	r0, #0
   233f2:	d005      	beq.n	23400 <_ZN20complex_dynamic_type3app17h663567edf28461c2E+0x8c>
   233f4:	e00c      	b.n	23410 <_ZN20complex_dynamic_type3app17h663567edf28461c2E+0x9c>
   233f6:	a81f      	add	r0, sp, #124	@ 0x7c
   233f8:	7005      	strb	r5, [r0, #0]
   233fa:	2000      	movs	r0, #0
   233fc:	2800      	cmp	r0, #0
   233fe:	d107      	bne.n	23410 <_ZN20complex_dynamic_type3app17h663567edf28461c2E+0x9c>
   23400:	4825      	ldr	r0, [pc, #148]	@ (23498 <_ZN20complex_dynamic_type3app17h663567edf28461c2E+0x124>)
   23402:	2107      	movs	r1, #7
   23404:	2203      	movs	r2, #3
   23406:	2400      	movs	r4, #0
   23408:	4623      	mov	r3, r4
   2340a:	df02      	svc	2
   2340c:	287f      	cmp	r0, #127	@ 0x7f
   2340e:	d80d      	bhi.n	2342c <_ZN20complex_dynamic_type3app17h663567edf28461c2E+0xb8>
   23410:	4634      	mov	r4, r6
   23412:	2c00      	cmp	r4, #0
   23414:	d021      	beq.n	2345a <_ZN20complex_dynamic_type3app17h663567edf28461c2E+0xe6>
   23416:	2001      	movs	r0, #1
   23418:	9a06      	ldr	r2, [sp, #24]
   2341a:	7010      	strb	r0, [r2, #0]
   2341c:	6051      	str	r1, [r2, #4]
   2341e:	a81f      	add	r0, sp, #124	@ 0x7c
   23420:	7802      	ldrb	r2, [r0, #0]
   23422:	2a02      	cmp	r2, #2
   23424:	d02e      	beq.n	23484 <_ZN20complex_dynamic_type3app17h663567edf28461c2E+0x110>
   23426:	2103      	movs	r1, #3
   23428:	481b      	ldr	r0, [pc, #108]	@ (23498 <_ZN20complex_dynamic_type3app17h663567edf28461c2E+0x124>)
   2342a:	e029      	b.n	23480 <_ZN20complex_dynamic_type3app17h663567edf28461c2E+0x10c>
   2342c:	a807      	add	r0, sp, #28
   2342e:	7802      	ldrb	r2, [r0, #0]
   23430:	2a02      	cmp	r2, #2
   23432:	d003      	beq.n	2343c <_ZN20complex_dynamic_type3app17h663567edf28461c2E+0xc8>
   23434:	2107      	movs	r1, #7
   23436:	4818      	ldr	r0, [pc, #96]	@ (23498 <_ZN20complex_dynamic_type3app17h663567edf28461c2E+0x124>)
   23438:	f007 ff22 	bl	2b280 <_ZN9allow_pin12dynamic_type7unshare17h19052c50f9e150aeE>
   2343c:	a807      	add	r0, sp, #28
   2343e:	9d02      	ldr	r5, [sp, #8]
   23440:	7005      	strb	r5, [r0, #0]
   23442:	a81f      	add	r0, sp, #124	@ 0x7c
   23444:	7802      	ldrb	r2, [r0, #0]
   23446:	2a02      	cmp	r2, #2
   23448:	d003      	beq.n	23452 <_ZN20complex_dynamic_type3app17h663567edf28461c2E+0xde>
   2344a:	2103      	movs	r1, #3
   2344c:	4812      	ldr	r0, [pc, #72]	@ (23498 <_ZN20complex_dynamic_type3app17h663567edf28461c2E+0x124>)
   2344e:	f007 ff17 	bl	2b280 <_ZN9allow_pin12dynamic_type7unshare17h19052c50f9e150aeE>
   23452:	a81f      	add	r0, sp, #124	@ 0x7c
   23454:	7005      	strb	r5, [r0, #0]
   23456:	2c00      	cmp	r4, #0
   23458:	d1dd      	bne.n	23416 <_ZN20complex_dynamic_type3app17h663567edf28461c2E+0xa2>
   2345a:	a81f      	add	r0, sp, #124	@ 0x7c
   2345c:	7804      	ldrb	r4, [r0, #0]
   2345e:	2c02      	cmp	r4, #2
   23460:	d001      	beq.n	23466 <_ZN20complex_dynamic_type3app17h663567edf28461c2E+0xf2>
   23462:	480e      	ldr	r0, [pc, #56]	@ (2349c <_ZN20complex_dynamic_type3app17h663567edf28461c2E+0x128>)
   23464:	9005      	str	r0, [sp, #20]
   23466:	9d06      	ldr	r5, [sp, #24]
   23468:	1c68      	adds	r0, r5, #1
   2346a:	2255      	movs	r2, #85	@ 0x55
   2346c:	9905      	ldr	r1, [sp, #20]
   2346e:	f008 f8ec 	bl	2b64a <__aeabi_memcpy>
   23472:	2000      	movs	r0, #0
   23474:	2c02      	cmp	r4, #2
   23476:	7028      	strb	r0, [r5, #0]
   23478:	d004      	beq.n	23484 <_ZN20complex_dynamic_type3app17h663567edf28461c2E+0x110>
   2347a:	2103      	movs	r1, #3
   2347c:	4806      	ldr	r0, [pc, #24]	@ (23498 <_ZN20complex_dynamic_type3app17h663567edf28461c2E+0x124>)
   2347e:	4622      	mov	r2, r4
   23480:	f007 fefe 	bl	2b280 <_ZN9allow_pin12dynamic_type7unshare17h19052c50f9e150aeE>
   23484:	a807      	add	r0, sp, #28
   23486:	7802      	ldrb	r2, [r0, #0]
   23488:	2a02      	cmp	r2, #2
   2348a:	d003      	beq.n	23494 <_ZN20complex_dynamic_type3app17h663567edf28461c2E+0x120>
   2348c:	2107      	movs	r1, #7
   2348e:	4802      	ldr	r0, [pc, #8]	@ (23498 <_ZN20complex_dynamic_type3app17h663567edf28461c2E+0x124>)
   23490:	f007 fef6 	bl	2b280 <_ZN9allow_pin12dynamic_type7unshare17h19052c50f9e150aeE>
   23494:	b039      	add	sp, #228	@ 0xe4
   23496:	bdf0      	pop	{r4, r5, r6, r7, pc}
   23498:	0000178a 	.word	0x0000178a
   2349c:	00010ab3 	.word	0x00010ab3

000234a0 <_ZN20complex_dynamic_type3app17h681b86d914387271E>:
   234a0:	b5f0      	push	{r4, r5, r6, r7, lr}
   234a2:	af03      	add	r7, sp, #12
   234a4:	b09f      	sub	sp, #124	@ 0x7c
   234a6:	9007      	str	r0, [sp, #28]
   234a8:	a808      	add	r0, sp, #32
   234aa:	2502      	movs	r5, #2
   234ac:	7005      	strb	r5, [r0, #0]
   234ae:	1c40      	adds	r0, r0, #1
   234b0:	9005      	str	r0, [sp, #20]
   234b2:	262b      	movs	r6, #43	@ 0x2b
   234b4:	4632      	mov	r2, r6
   234b6:	f008 f8c8 	bl	2b64a <__aeabi_memcpy>
   234ba:	ac13      	add	r4, sp, #76	@ 0x4c
   234bc:	1c60      	adds	r0, r4, #1
   234be:	211e      	movs	r1, #30
   234c0:	9006      	str	r0, [sp, #24]
   234c2:	9104      	str	r1, [sp, #16]
   234c4:	f007 ff01 	bl	2b2ca <__aeabi_memclr>
   234c8:	9503      	str	r5, [sp, #12]
   234ca:	7025      	strb	r5, [r4, #0]
   234cc:	2404      	movs	r4, #4
   234ce:	9600      	str	r6, [sp, #0]
   234d0:	9401      	str	r4, [sp, #4]
   234d2:	a81b      	add	r0, sp, #108	@ 0x6c
   234d4:	4e3c      	ldr	r6, [pc, #240]	@ (235c8 <_ZN20complex_dynamic_type3app17h681b86d914387271E+0x128>)
   234d6:	2207      	movs	r2, #7
   234d8:	4631      	mov	r1, r6
   234da:	9b05      	ldr	r3, [sp, #20]
   234dc:	f007 fedd 	bl	2b29a <_ZN9allow_pin13dynamic_allow17h8bfd3764c146b81aE>
   234e0:	981b      	ldr	r0, [sp, #108]	@ 0x6c
   234e2:	2802      	cmp	r0, #2
   234e4:	d101      	bne.n	234ea <_ZN20complex_dynamic_type3app17h681b86d914387271E+0x4a>
   234e6:	991c      	ldr	r1, [sp, #112]	@ 0x70
   234e8:	e001      	b.n	234ee <_ZN20complex_dynamic_type3app17h681b86d914387271E+0x4e>
   234ea:	a908      	add	r1, sp, #32
   234ec:	700c      	strb	r4, [r1, #0]
   234ee:	2501      	movs	r5, #1
   234f0:	2802      	cmp	r0, #2
   234f2:	d024      	beq.n	2353e <_ZN20complex_dynamic_type3app17h681b86d914387271E+0x9e>
   234f4:	a813      	add	r0, sp, #76	@ 0x4c
   234f6:	7800      	ldrb	r0, [r0, #0]
   234f8:	2802      	cmp	r0, #2
   234fa:	d10e      	bne.n	2351a <_ZN20complex_dynamic_type3app17h681b86d914387271E+0x7a>
   234fc:	2403      	movs	r4, #3
   234fe:	9804      	ldr	r0, [sp, #16]
   23500:	9000      	str	r0, [sp, #0]
   23502:	9401      	str	r4, [sp, #4]
   23504:	a81b      	add	r0, sp, #108	@ 0x6c
   23506:	2208      	movs	r2, #8
   23508:	4631      	mov	r1, r6
   2350a:	9b06      	ldr	r3, [sp, #24]
   2350c:	f007 fec5 	bl	2b29a <_ZN9allow_pin13dynamic_allow17h8bfd3764c146b81aE>
   23510:	981b      	ldr	r0, [sp, #108]	@ 0x6c
   23512:	2802      	cmp	r0, #2
   23514:	d106      	bne.n	23524 <_ZN20complex_dynamic_type3app17h681b86d914387271E+0x84>
   23516:	991c      	ldr	r1, [sp, #112]	@ 0x70
   23518:	e000      	b.n	2351c <_ZN20complex_dynamic_type3app17h681b86d914387271E+0x7c>
   2351a:	2103      	movs	r1, #3
   2351c:	4628      	mov	r0, r5
   2351e:	2800      	cmp	r0, #0
   23520:	d005      	beq.n	2352e <_ZN20complex_dynamic_type3app17h681b86d914387271E+0x8e>
   23522:	e00c      	b.n	2353e <_ZN20complex_dynamic_type3app17h681b86d914387271E+0x9e>
   23524:	a813      	add	r0, sp, #76	@ 0x4c
   23526:	7004      	strb	r4, [r0, #0]
   23528:	2000      	movs	r0, #0
   2352a:	2800      	cmp	r0, #0
   2352c:	d107      	bne.n	2353e <_ZN20complex_dynamic_type3app17h681b86d914387271E+0x9e>
   2352e:	4826      	ldr	r0, [pc, #152]	@ (235c8 <_ZN20complex_dynamic_type3app17h681b86d914387271E+0x128>)
   23530:	2107      	movs	r1, #7
   23532:	2208      	movs	r2, #8
   23534:	2400      	movs	r4, #0
   23536:	4623      	mov	r3, r4
   23538:	df02      	svc	2
   2353a:	287f      	cmp	r0, #127	@ 0x7f
   2353c:	d80d      	bhi.n	2355a <_ZN20complex_dynamic_type3app17h681b86d914387271E+0xba>
   2353e:	462c      	mov	r4, r5
   23540:	2c00      	cmp	r4, #0
   23542:	d021      	beq.n	23588 <_ZN20complex_dynamic_type3app17h681b86d914387271E+0xe8>
   23544:	2001      	movs	r0, #1
   23546:	9a07      	ldr	r2, [sp, #28]
   23548:	7010      	strb	r0, [r2, #0]
   2354a:	6051      	str	r1, [r2, #4]
   2354c:	a813      	add	r0, sp, #76	@ 0x4c
   2354e:	7802      	ldrb	r2, [r0, #0]
   23550:	2a02      	cmp	r2, #2
   23552:	d02e      	beq.n	235b2 <_ZN20complex_dynamic_type3app17h681b86d914387271E+0x112>
   23554:	2108      	movs	r1, #8
   23556:	4630      	mov	r0, r6
   23558:	e029      	b.n	235ae <_ZN20complex_dynamic_type3app17h681b86d914387271E+0x10e>
   2355a:	a808      	add	r0, sp, #32
   2355c:	7802      	ldrb	r2, [r0, #0]
   2355e:	2a02      	cmp	r2, #2
   23560:	d003      	beq.n	2356a <_ZN20complex_dynamic_type3app17h681b86d914387271E+0xca>
   23562:	2107      	movs	r1, #7
   23564:	4630      	mov	r0, r6
   23566:	f007 fe8b 	bl	2b280 <_ZN9allow_pin12dynamic_type7unshare17h19052c50f9e150aeE>
   2356a:	a808      	add	r0, sp, #32
   2356c:	9d03      	ldr	r5, [sp, #12]
   2356e:	7005      	strb	r5, [r0, #0]
   23570:	a813      	add	r0, sp, #76	@ 0x4c
   23572:	7802      	ldrb	r2, [r0, #0]
   23574:	2a02      	cmp	r2, #2
   23576:	d003      	beq.n	23580 <_ZN20complex_dynamic_type3app17h681b86d914387271E+0xe0>
   23578:	2108      	movs	r1, #8
   2357a:	4630      	mov	r0, r6
   2357c:	f007 fe80 	bl	2b280 <_ZN9allow_pin12dynamic_type7unshare17h19052c50f9e150aeE>
   23580:	a813      	add	r0, sp, #76	@ 0x4c
   23582:	7005      	strb	r5, [r0, #0]
   23584:	2c00      	cmp	r4, #0
   23586:	d1dd      	bne.n	23544 <_ZN20complex_dynamic_type3app17h681b86d914387271E+0xa4>
   23588:	a813      	add	r0, sp, #76	@ 0x4c
   2358a:	7804      	ldrb	r4, [r0, #0]
   2358c:	2c02      	cmp	r4, #2
   2358e:	d001      	beq.n	23594 <_ZN20complex_dynamic_type3app17h681b86d914387271E+0xf4>
   23590:	480e      	ldr	r0, [pc, #56]	@ (235cc <_ZN20complex_dynamic_type3app17h681b86d914387271E+0x12c>)
   23592:	9006      	str	r0, [sp, #24]
   23594:	9d07      	ldr	r5, [sp, #28]
   23596:	1c68      	adds	r0, r5, #1
   23598:	221e      	movs	r2, #30
   2359a:	9906      	ldr	r1, [sp, #24]
   2359c:	f008 f855 	bl	2b64a <__aeabi_memcpy>
   235a0:	2000      	movs	r0, #0
   235a2:	2c02      	cmp	r4, #2
   235a4:	7028      	strb	r0, [r5, #0]
   235a6:	d004      	beq.n	235b2 <_ZN20complex_dynamic_type3app17h681b86d914387271E+0x112>
   235a8:	2108      	movs	r1, #8
   235aa:	4630      	mov	r0, r6
   235ac:	4622      	mov	r2, r4
   235ae:	f007 fe67 	bl	2b280 <_ZN9allow_pin12dynamic_type7unshare17h19052c50f9e150aeE>
   235b2:	a808      	add	r0, sp, #32
   235b4:	7802      	ldrb	r2, [r0, #0]
   235b6:	2a02      	cmp	r2, #2
   235b8:	d003      	beq.n	235c2 <_ZN20complex_dynamic_type3app17h681b86d914387271E+0x122>
   235ba:	2107      	movs	r1, #7
   235bc:	4630      	mov	r0, r6
   235be:	f007 fe5f 	bl	2b280 <_ZN9allow_pin12dynamic_type7unshare17h19052c50f9e150aeE>
   235c2:	b01f      	add	sp, #124	@ 0x7c
   235c4:	bdf0      	pop	{r4, r5, r6, r7, pc}
   235c6:	46c0      	nop			@ (mov r8, r8)
   235c8:	000007e3 	.word	0x000007e3
   235cc:	00010185 	.word	0x00010185

000235d0 <_ZN20complex_dynamic_type3app17h6b1ea9566d48d3edE>:
   235d0:	b5f0      	push	{r4, r5, r6, r7, lr}
   235d2:	af03      	add	r7, sp, #12
   235d4:	b0a1      	sub	sp, #132	@ 0x84
   235d6:	9006      	str	r0, [sp, #24]
   235d8:	a807      	add	r0, sp, #28
   235da:	2602      	movs	r6, #2
   235dc:	7006      	strb	r6, [r0, #0]
   235de:	1c40      	adds	r0, r0, #1
   235e0:	9004      	str	r0, [sp, #16]
   235e2:	252c      	movs	r5, #44	@ 0x2c
   235e4:	462a      	mov	r2, r5
   235e6:	f008 f830 	bl	2b64a <__aeabi_memcpy>
   235ea:	ac13      	add	r4, sp, #76	@ 0x4c
   235ec:	1c60      	adds	r0, r4, #1
   235ee:	2125      	movs	r1, #37	@ 0x25
   235f0:	9005      	str	r0, [sp, #20]
   235f2:	9103      	str	r1, [sp, #12]
   235f4:	f007 fe69 	bl	2b2ca <__aeabi_memclr>
   235f8:	9602      	str	r6, [sp, #8]
   235fa:	7026      	strb	r6, [r4, #0]
   235fc:	2404      	movs	r4, #4
   235fe:	9500      	str	r5, [sp, #0]
   23600:	9401      	str	r4, [sp, #4]
   23602:	a81d      	add	r0, sp, #116	@ 0x74
   23604:	493f      	ldr	r1, [pc, #252]	@ (23704 <_ZN20complex_dynamic_type3app17h6b1ea9566d48d3edE+0x134>)
   23606:	2503      	movs	r5, #3
   23608:	462a      	mov	r2, r5
   2360a:	9b04      	ldr	r3, [sp, #16]
   2360c:	f007 fe45 	bl	2b29a <_ZN9allow_pin13dynamic_allow17h8bfd3764c146b81aE>
   23610:	981d      	ldr	r0, [sp, #116]	@ 0x74
   23612:	2802      	cmp	r0, #2
   23614:	d101      	bne.n	2361a <_ZN20complex_dynamic_type3app17h6b1ea9566d48d3edE+0x4a>
   23616:	991e      	ldr	r1, [sp, #120]	@ 0x78
   23618:	e001      	b.n	2361e <_ZN20complex_dynamic_type3app17h6b1ea9566d48d3edE+0x4e>
   2361a:	a907      	add	r1, sp, #28
   2361c:	700c      	strb	r4, [r1, #0]
   2361e:	2401      	movs	r4, #1
   23620:	2802      	cmp	r0, #2
   23622:	d02b      	beq.n	2367c <_ZN20complex_dynamic_type3app17h6b1ea9566d48d3edE+0xac>
   23624:	a813      	add	r0, sp, #76	@ 0x4c
   23626:	7800      	ldrb	r0, [r0, #0]
   23628:	2802      	cmp	r0, #2
   2362a:	4626      	mov	r6, r4
   2362c:	d111      	bne.n	23652 <_ZN20complex_dynamic_type3app17h6b1ea9566d48d3edE+0x82>
   2362e:	9404      	str	r4, [sp, #16]
   23630:	2403      	movs	r4, #3
   23632:	9803      	ldr	r0, [sp, #12]
   23634:	9000      	str	r0, [sp, #0]
   23636:	9401      	str	r4, [sp, #4]
   23638:	a81d      	add	r0, sp, #116	@ 0x74
   2363a:	2600      	movs	r6, #0
   2363c:	4931      	ldr	r1, [pc, #196]	@ (23704 <_ZN20complex_dynamic_type3app17h6b1ea9566d48d3edE+0x134>)
   2363e:	4632      	mov	r2, r6
   23640:	9b05      	ldr	r3, [sp, #20]
   23642:	f007 fe2a 	bl	2b29a <_ZN9allow_pin13dynamic_allow17h8bfd3764c146b81aE>
   23646:	981d      	ldr	r0, [sp, #116]	@ 0x74
   23648:	2802      	cmp	r0, #2
   2364a:	d108      	bne.n	2365e <_ZN20complex_dynamic_type3app17h6b1ea9566d48d3edE+0x8e>
   2364c:	9d1e      	ldr	r5, [sp, #120]	@ 0x78
   2364e:	9c04      	ldr	r4, [sp, #16]
   23650:	4626      	mov	r6, r4
   23652:	2e00      	cmp	r6, #0
   23654:	d008      	beq.n	23668 <_ZN20complex_dynamic_type3app17h6b1ea9566d48d3edE+0x98>
   23656:	4629      	mov	r1, r5
   23658:	2c00      	cmp	r4, #0
   2365a:	d111      	bne.n	23680 <_ZN20complex_dynamic_type3app17h6b1ea9566d48d3edE+0xb0>
   2365c:	e032      	b.n	236c4 <_ZN20complex_dynamic_type3app17h6b1ea9566d48d3edE+0xf4>
   2365e:	a813      	add	r0, sp, #76	@ 0x4c
   23660:	7004      	strb	r4, [r0, #0]
   23662:	9c04      	ldr	r4, [sp, #16]
   23664:	2e00      	cmp	r6, #0
   23666:	d1f6      	bne.n	23656 <_ZN20complex_dynamic_type3app17h6b1ea9566d48d3edE+0x86>
   23668:	4625      	mov	r5, r4
   2366a:	4826      	ldr	r0, [pc, #152]	@ (23704 <_ZN20complex_dynamic_type3app17h6b1ea9566d48d3edE+0x134>)
   2366c:	2103      	movs	r1, #3
   2366e:	2400      	movs	r4, #0
   23670:	4622      	mov	r2, r4
   23672:	4623      	mov	r3, r4
   23674:	df02      	svc	2
   23676:	287f      	cmp	r0, #127	@ 0x7f
   23678:	d80d      	bhi.n	23696 <_ZN20complex_dynamic_type3app17h6b1ea9566d48d3edE+0xc6>
   2367a:	462c      	mov	r4, r5
   2367c:	2c00      	cmp	r4, #0
   2367e:	d021      	beq.n	236c4 <_ZN20complex_dynamic_type3app17h6b1ea9566d48d3edE+0xf4>
   23680:	2001      	movs	r0, #1
   23682:	9a06      	ldr	r2, [sp, #24]
   23684:	7010      	strb	r0, [r2, #0]
   23686:	6051      	str	r1, [r2, #4]
   23688:	a813      	add	r0, sp, #76	@ 0x4c
   2368a:	7802      	ldrb	r2, [r0, #0]
   2368c:	2a02      	cmp	r2, #2
   2368e:	d02e      	beq.n	236ee <_ZN20complex_dynamic_type3app17h6b1ea9566d48d3edE+0x11e>
   23690:	2100      	movs	r1, #0
   23692:	481c      	ldr	r0, [pc, #112]	@ (23704 <_ZN20complex_dynamic_type3app17h6b1ea9566d48d3edE+0x134>)
   23694:	e029      	b.n	236ea <_ZN20complex_dynamic_type3app17h6b1ea9566d48d3edE+0x11a>
   23696:	a807      	add	r0, sp, #28
   23698:	7802      	ldrb	r2, [r0, #0]
   2369a:	2a02      	cmp	r2, #2
   2369c:	d003      	beq.n	236a6 <_ZN20complex_dynamic_type3app17h6b1ea9566d48d3edE+0xd6>
   2369e:	2103      	movs	r1, #3
   236a0:	4818      	ldr	r0, [pc, #96]	@ (23704 <_ZN20complex_dynamic_type3app17h6b1ea9566d48d3edE+0x134>)
   236a2:	f007 fded 	bl	2b280 <_ZN9allow_pin12dynamic_type7unshare17h19052c50f9e150aeE>
   236a6:	a807      	add	r0, sp, #28
   236a8:	9d02      	ldr	r5, [sp, #8]
   236aa:	7005      	strb	r5, [r0, #0]
   236ac:	a813      	add	r0, sp, #76	@ 0x4c
   236ae:	7802      	ldrb	r2, [r0, #0]
   236b0:	2a02      	cmp	r2, #2
   236b2:	d003      	beq.n	236bc <_ZN20complex_dynamic_type3app17h6b1ea9566d48d3edE+0xec>
   236b4:	2100      	movs	r1, #0
   236b6:	4813      	ldr	r0, [pc, #76]	@ (23704 <_ZN20complex_dynamic_type3app17h6b1ea9566d48d3edE+0x134>)
   236b8:	f007 fde2 	bl	2b280 <_ZN9allow_pin12dynamic_type7unshare17h19052c50f9e150aeE>
   236bc:	a813      	add	r0, sp, #76	@ 0x4c
   236be:	7005      	strb	r5, [r0, #0]
   236c0:	2c00      	cmp	r4, #0
   236c2:	d1dd      	bne.n	23680 <_ZN20complex_dynamic_type3app17h6b1ea9566d48d3edE+0xb0>
   236c4:	a813      	add	r0, sp, #76	@ 0x4c
   236c6:	7804      	ldrb	r4, [r0, #0]
   236c8:	2c02      	cmp	r4, #2
   236ca:	d001      	beq.n	236d0 <_ZN20complex_dynamic_type3app17h6b1ea9566d48d3edE+0x100>
   236cc:	480e      	ldr	r0, [pc, #56]	@ (23708 <_ZN20complex_dynamic_type3app17h6b1ea9566d48d3edE+0x138>)
   236ce:	9005      	str	r0, [sp, #20]
   236d0:	9d06      	ldr	r5, [sp, #24]
   236d2:	1c68      	adds	r0, r5, #1
   236d4:	2225      	movs	r2, #37	@ 0x25
   236d6:	9905      	ldr	r1, [sp, #20]
   236d8:	f007 ffb7 	bl	2b64a <__aeabi_memcpy>
   236dc:	2000      	movs	r0, #0
   236de:	2c02      	cmp	r4, #2
   236e0:	7028      	strb	r0, [r5, #0]
   236e2:	d004      	beq.n	236ee <_ZN20complex_dynamic_type3app17h6b1ea9566d48d3edE+0x11e>
   236e4:	2100      	movs	r1, #0
   236e6:	4807      	ldr	r0, [pc, #28]	@ (23704 <_ZN20complex_dynamic_type3app17h6b1ea9566d48d3edE+0x134>)
   236e8:	4622      	mov	r2, r4
   236ea:	f007 fdc9 	bl	2b280 <_ZN9allow_pin12dynamic_type7unshare17h19052c50f9e150aeE>
   236ee:	a807      	add	r0, sp, #28
   236f0:	7802      	ldrb	r2, [r0, #0]
   236f2:	2a02      	cmp	r2, #2
   236f4:	d003      	beq.n	236fe <_ZN20complex_dynamic_type3app17h6b1ea9566d48d3edE+0x12e>
   236f6:	2103      	movs	r1, #3
   236f8:	4802      	ldr	r0, [pc, #8]	@ (23704 <_ZN20complex_dynamic_type3app17h6b1ea9566d48d3edE+0x134>)
   236fa:	f007 fdc1 	bl	2b280 <_ZN9allow_pin12dynamic_type7unshare17h19052c50f9e150aeE>
   236fe:	b021      	add	sp, #132	@ 0x84
   23700:	bdf0      	pop	{r4, r5, r6, r7, pc}
   23702:	46c0      	nop			@ (mov r8, r8)
   23704:	0000077f 	.word	0x0000077f
   23708:	0001042e 	.word	0x0001042e

0002370c <_ZN20complex_dynamic_type3app17h6b50811d245ca515E>:
   2370c:	b5f0      	push	{r4, r5, r6, r7, lr}
   2370e:	af03      	add	r7, sp, #12
   23710:	b0af      	sub	sp, #188	@ 0xbc
   23712:	9006      	str	r0, [sp, #24]
   23714:	a807      	add	r0, sp, #28
   23716:	2502      	movs	r5, #2
   23718:	7005      	strb	r5, [r0, #0]
   2371a:	1c40      	adds	r0, r0, #1
   2371c:	9004      	str	r0, [sp, #16]
   2371e:	262a      	movs	r6, #42	@ 0x2a
   23720:	4632      	mov	r2, r6
   23722:	f007 ff92 	bl	2b64a <__aeabi_memcpy>
   23726:	ac12      	add	r4, sp, #72	@ 0x48
   23728:	1c60      	adds	r0, r4, #1
   2372a:	2163      	movs	r1, #99	@ 0x63
   2372c:	9005      	str	r0, [sp, #20]
   2372e:	9103      	str	r1, [sp, #12]
   23730:	f007 fdcb 	bl	2b2ca <__aeabi_memclr>
   23734:	9502      	str	r5, [sp, #8]
   23736:	7025      	strb	r5, [r4, #0]
   23738:	2404      	movs	r4, #4
   2373a:	9600      	str	r6, [sp, #0]
   2373c:	9401      	str	r4, [sp, #4]
   2373e:	a82b      	add	r0, sp, #172	@ 0xac
   23740:	4e3d      	ldr	r6, [pc, #244]	@ (23838 <_ZN20complex_dynamic_type3app17h6b50811d245ca515E+0x12c>)
   23742:	4631      	mov	r1, r6
   23744:	4622      	mov	r2, r4
   23746:	9b04      	ldr	r3, [sp, #16]
   23748:	f007 fda7 	bl	2b29a <_ZN9allow_pin13dynamic_allow17h8bfd3764c146b81aE>
   2374c:	982b      	ldr	r0, [sp, #172]	@ 0xac
   2374e:	2802      	cmp	r0, #2
   23750:	d101      	bne.n	23756 <_ZN20complex_dynamic_type3app17h6b50811d245ca515E+0x4a>
   23752:	992c      	ldr	r1, [sp, #176]	@ 0xb0
   23754:	e001      	b.n	2375a <_ZN20complex_dynamic_type3app17h6b50811d245ca515E+0x4e>
   23756:	a907      	add	r1, sp, #28
   23758:	700c      	strb	r4, [r1, #0]
   2375a:	2501      	movs	r5, #1
   2375c:	2802      	cmp	r0, #2
   2375e:	d10d      	bne.n	2377c <_ZN20complex_dynamic_type3app17h6b50811d245ca515E+0x70>
   23760:	462c      	mov	r4, r5
   23762:	2c00      	cmp	r4, #0
   23764:	d048      	beq.n	237f8 <_ZN20complex_dynamic_type3app17h6b50811d245ca515E+0xec>
   23766:	2001      	movs	r0, #1
   23768:	9a06      	ldr	r2, [sp, #24]
   2376a:	7010      	strb	r0, [r2, #0]
   2376c:	6051      	str	r1, [r2, #4]
   2376e:	a812      	add	r0, sp, #72	@ 0x48
   23770:	7802      	ldrb	r2, [r0, #0]
   23772:	2a02      	cmp	r2, #2
   23774:	d055      	beq.n	23822 <_ZN20complex_dynamic_type3app17h6b50811d245ca515E+0x116>
   23776:	2100      	movs	r1, #0
   23778:	4630      	mov	r0, r6
   2377a:	e050      	b.n	2381e <_ZN20complex_dynamic_type3app17h6b50811d245ca515E+0x112>
   2377c:	a812      	add	r0, sp, #72	@ 0x48
   2377e:	7800      	ldrb	r0, [r0, #0]
   23780:	2802      	cmp	r0, #2
   23782:	d110      	bne.n	237a6 <_ZN20complex_dynamic_type3app17h6b50811d245ca515E+0x9a>
   23784:	4631      	mov	r1, r6
   23786:	2603      	movs	r6, #3
   23788:	9803      	ldr	r0, [sp, #12]
   2378a:	9000      	str	r0, [sp, #0]
   2378c:	9601      	str	r6, [sp, #4]
   2378e:	a82b      	add	r0, sp, #172	@ 0xac
   23790:	2400      	movs	r4, #0
   23792:	4622      	mov	r2, r4
   23794:	9b05      	ldr	r3, [sp, #20]
   23796:	f007 fd80 	bl	2b29a <_ZN9allow_pin13dynamic_allow17h8bfd3764c146b81aE>
   2379a:	982b      	ldr	r0, [sp, #172]	@ 0xac
   2379c:	2802      	cmp	r0, #2
   2379e:	d107      	bne.n	237b0 <_ZN20complex_dynamic_type3app17h6b50811d245ca515E+0xa4>
   237a0:	992c      	ldr	r1, [sp, #176]	@ 0xb0
   237a2:	462c      	mov	r4, r5
   237a4:	e006      	b.n	237b4 <_ZN20complex_dynamic_type3app17h6b50811d245ca515E+0xa8>
   237a6:	2103      	movs	r1, #3
   237a8:	462c      	mov	r4, r5
   237aa:	2c00      	cmp	r4, #0
   237ac:	d1d8      	bne.n	23760 <_ZN20complex_dynamic_type3app17h6b50811d245ca515E+0x54>
   237ae:	e004      	b.n	237ba <_ZN20complex_dynamic_type3app17h6b50811d245ca515E+0xae>
   237b0:	a812      	add	r0, sp, #72	@ 0x48
   237b2:	7006      	strb	r6, [r0, #0]
   237b4:	4e20      	ldr	r6, [pc, #128]	@ (23838 <_ZN20complex_dynamic_type3app17h6b50811d245ca515E+0x12c>)
   237b6:	2c00      	cmp	r4, #0
   237b8:	d1d2      	bne.n	23760 <_ZN20complex_dynamic_type3app17h6b50811d245ca515E+0x54>
   237ba:	481f      	ldr	r0, [pc, #124]	@ (23838 <_ZN20complex_dynamic_type3app17h6b50811d245ca515E+0x12c>)
   237bc:	2104      	movs	r1, #4
   237be:	2400      	movs	r4, #0
   237c0:	4622      	mov	r2, r4
   237c2:	4623      	mov	r3, r4
   237c4:	df02      	svc	2
   237c6:	287f      	cmp	r0, #127	@ 0x7f
   237c8:	d9ca      	bls.n	23760 <_ZN20complex_dynamic_type3app17h6b50811d245ca515E+0x54>
   237ca:	a807      	add	r0, sp, #28
   237cc:	7802      	ldrb	r2, [r0, #0]
   237ce:	2a02      	cmp	r2, #2
   237d0:	d003      	beq.n	237da <_ZN20complex_dynamic_type3app17h6b50811d245ca515E+0xce>
   237d2:	2104      	movs	r1, #4
   237d4:	4630      	mov	r0, r6
   237d6:	f007 fd53 	bl	2b280 <_ZN9allow_pin12dynamic_type7unshare17h19052c50f9e150aeE>
   237da:	a807      	add	r0, sp, #28
   237dc:	9d02      	ldr	r5, [sp, #8]
   237de:	7005      	strb	r5, [r0, #0]
   237e0:	a812      	add	r0, sp, #72	@ 0x48
   237e2:	7802      	ldrb	r2, [r0, #0]
   237e4:	2a02      	cmp	r2, #2
   237e6:	d003      	beq.n	237f0 <_ZN20complex_dynamic_type3app17h6b50811d245ca515E+0xe4>
   237e8:	2100      	movs	r1, #0
   237ea:	4630      	mov	r0, r6
   237ec:	f007 fd48 	bl	2b280 <_ZN9allow_pin12dynamic_type7unshare17h19052c50f9e150aeE>
   237f0:	a812      	add	r0, sp, #72	@ 0x48
   237f2:	7005      	strb	r5, [r0, #0]
   237f4:	2c00      	cmp	r4, #0
   237f6:	d1b6      	bne.n	23766 <_ZN20complex_dynamic_type3app17h6b50811d245ca515E+0x5a>
   237f8:	a812      	add	r0, sp, #72	@ 0x48
   237fa:	7804      	ldrb	r4, [r0, #0]
   237fc:	2c02      	cmp	r4, #2
   237fe:	d001      	beq.n	23804 <_ZN20complex_dynamic_type3app17h6b50811d245ca515E+0xf8>
   23800:	480e      	ldr	r0, [pc, #56]	@ (2383c <_ZN20complex_dynamic_type3app17h6b50811d245ca515E+0x130>)
   23802:	9005      	str	r0, [sp, #20]
   23804:	9d06      	ldr	r5, [sp, #24]
   23806:	1c68      	adds	r0, r5, #1
   23808:	2263      	movs	r2, #99	@ 0x63
   2380a:	9905      	ldr	r1, [sp, #20]
   2380c:	f007 ff1d 	bl	2b64a <__aeabi_memcpy>
   23810:	2000      	movs	r0, #0
   23812:	2c02      	cmp	r4, #2
   23814:	7028      	strb	r0, [r5, #0]
   23816:	d004      	beq.n	23822 <_ZN20complex_dynamic_type3app17h6b50811d245ca515E+0x116>
   23818:	2100      	movs	r1, #0
   2381a:	4630      	mov	r0, r6
   2381c:	4622      	mov	r2, r4
   2381e:	f007 fd2f 	bl	2b280 <_ZN9allow_pin12dynamic_type7unshare17h19052c50f9e150aeE>
   23822:	a807      	add	r0, sp, #28
   23824:	7802      	ldrb	r2, [r0, #0]
   23826:	2a02      	cmp	r2, #2
   23828:	d003      	beq.n	23832 <_ZN20complex_dynamic_type3app17h6b50811d245ca515E+0x126>
   2382a:	2104      	movs	r1, #4
   2382c:	4630      	mov	r0, r6
   2382e:	f007 fd27 	bl	2b280 <_ZN9allow_pin12dynamic_type7unshare17h19052c50f9e150aeE>
   23832:	b02f      	add	sp, #188	@ 0xbc
   23834:	bdf0      	pop	{r4, r5, r6, r7, pc}
   23836:	46c0      	nop			@ (mov r8, r8)
   23838:	00001c7c 	.word	0x00001c7c
   2383c:	000105ff 	.word	0x000105ff

00023840 <_ZN20complex_dynamic_type3app17h6dedd859d192b599E>:
   23840:	b5f0      	push	{r4, r5, r6, r7, lr}
   23842:	af03      	add	r7, sp, #12
   23844:	b0b1      	sub	sp, #196	@ 0xc4
   23846:	9007      	str	r0, [sp, #28]
   23848:	a808      	add	r0, sp, #32
   2384a:	2402      	movs	r4, #2
   2384c:	7004      	strb	r4, [r0, #0]
   2384e:	1c40      	adds	r0, r0, #1
   23850:	9005      	str	r0, [sp, #20]
   23852:	2563      	movs	r5, #99	@ 0x63
   23854:	462a      	mov	r2, r5
   23856:	f007 fef8 	bl	2b64a <__aeabi_memcpy>
   2385a:	ae21      	add	r6, sp, #132	@ 0x84
   2385c:	1c70      	adds	r0, r6, #1
   2385e:	212c      	movs	r1, #44	@ 0x2c
   23860:	9006      	str	r0, [sp, #24]
   23862:	9104      	str	r1, [sp, #16]
   23864:	f007 fd31 	bl	2b2ca <__aeabi_memclr>
   23868:	9403      	str	r4, [sp, #12]
   2386a:	7034      	strb	r4, [r6, #0]
   2386c:	2604      	movs	r6, #4
   2386e:	9500      	str	r5, [sp, #0]
   23870:	9601      	str	r6, [sp, #4]
   23872:	a82d      	add	r0, sp, #180	@ 0xb4
   23874:	2118      	movs	r1, #24
   23876:	2205      	movs	r2, #5
   23878:	9b05      	ldr	r3, [sp, #20]
   2387a:	f007 fd0e 	bl	2b29a <_ZN9allow_pin13dynamic_allow17h8bfd3764c146b81aE>
   2387e:	982d      	ldr	r0, [sp, #180]	@ 0xb4
   23880:	2802      	cmp	r0, #2
   23882:	d101      	bne.n	23888 <_ZN20complex_dynamic_type3app17h6dedd859d192b599E+0x48>
   23884:	992e      	ldr	r1, [sp, #184]	@ 0xb8
   23886:	e001      	b.n	2388c <_ZN20complex_dynamic_type3app17h6dedd859d192b599E+0x4c>
   23888:	a908      	add	r1, sp, #32
   2388a:	700e      	strb	r6, [r1, #0]
   2388c:	2501      	movs	r5, #1
   2388e:	2802      	cmp	r0, #2
   23890:	d024      	beq.n	238dc <_ZN20complex_dynamic_type3app17h6dedd859d192b599E+0x9c>
   23892:	a821      	add	r0, sp, #132	@ 0x84
   23894:	7800      	ldrb	r0, [r0, #0]
   23896:	2802      	cmp	r0, #2
   23898:	d10e      	bne.n	238b8 <_ZN20complex_dynamic_type3app17h6dedd859d192b599E+0x78>
   2389a:	2403      	movs	r4, #3
   2389c:	9804      	ldr	r0, [sp, #16]
   2389e:	9000      	str	r0, [sp, #0]
   238a0:	9401      	str	r4, [sp, #4]
   238a2:	a82d      	add	r0, sp, #180	@ 0xb4
   238a4:	2118      	movs	r1, #24
   238a6:	4622      	mov	r2, r4
   238a8:	9b06      	ldr	r3, [sp, #24]
   238aa:	f007 fcf6 	bl	2b29a <_ZN9allow_pin13dynamic_allow17h8bfd3764c146b81aE>
   238ae:	982d      	ldr	r0, [sp, #180]	@ 0xb4
   238b0:	2802      	cmp	r0, #2
   238b2:	d106      	bne.n	238c2 <_ZN20complex_dynamic_type3app17h6dedd859d192b599E+0x82>
   238b4:	992e      	ldr	r1, [sp, #184]	@ 0xb8
   238b6:	e000      	b.n	238ba <_ZN20complex_dynamic_type3app17h6dedd859d192b599E+0x7a>
   238b8:	2103      	movs	r1, #3
   238ba:	4628      	mov	r0, r5
   238bc:	2800      	cmp	r0, #0
   238be:	d005      	beq.n	238cc <_ZN20complex_dynamic_type3app17h6dedd859d192b599E+0x8c>
   238c0:	e00c      	b.n	238dc <_ZN20complex_dynamic_type3app17h6dedd859d192b599E+0x9c>
   238c2:	a821      	add	r0, sp, #132	@ 0x84
   238c4:	7004      	strb	r4, [r0, #0]
   238c6:	2000      	movs	r0, #0
   238c8:	2800      	cmp	r0, #0
   238ca:	d107      	bne.n	238dc <_ZN20complex_dynamic_type3app17h6dedd859d192b599E+0x9c>
   238cc:	2018      	movs	r0, #24
   238ce:	2105      	movs	r1, #5
   238d0:	2203      	movs	r2, #3
   238d2:	2600      	movs	r6, #0
   238d4:	4633      	mov	r3, r6
   238d6:	df02      	svc	2
   238d8:	287f      	cmp	r0, #127	@ 0x7f
   238da:	d80d      	bhi.n	238f8 <_ZN20complex_dynamic_type3app17h6dedd859d192b599E+0xb8>
   238dc:	462e      	mov	r6, r5
   238de:	2e00      	cmp	r6, #0
   238e0:	d021      	beq.n	23926 <_ZN20complex_dynamic_type3app17h6dedd859d192b599E+0xe6>
   238e2:	2001      	movs	r0, #1
   238e4:	9a07      	ldr	r2, [sp, #28]
   238e6:	7010      	strb	r0, [r2, #0]
   238e8:	6051      	str	r1, [r2, #4]
   238ea:	a821      	add	r0, sp, #132	@ 0x84
   238ec:	7802      	ldrb	r2, [r0, #0]
   238ee:	2a02      	cmp	r2, #2
   238f0:	d02e      	beq.n	23950 <_ZN20complex_dynamic_type3app17h6dedd859d192b599E+0x110>
   238f2:	2018      	movs	r0, #24
   238f4:	2103      	movs	r1, #3
   238f6:	e029      	b.n	2394c <_ZN20complex_dynamic_type3app17h6dedd859d192b599E+0x10c>
   238f8:	a808      	add	r0, sp, #32
   238fa:	7802      	ldrb	r2, [r0, #0]
   238fc:	2a02      	cmp	r2, #2
   238fe:	d003      	beq.n	23908 <_ZN20complex_dynamic_type3app17h6dedd859d192b599E+0xc8>
   23900:	2018      	movs	r0, #24
   23902:	2105      	movs	r1, #5
   23904:	f007 fcbc 	bl	2b280 <_ZN9allow_pin12dynamic_type7unshare17h19052c50f9e150aeE>
   23908:	a808      	add	r0, sp, #32
   2390a:	9c03      	ldr	r4, [sp, #12]
   2390c:	7004      	strb	r4, [r0, #0]
   2390e:	a821      	add	r0, sp, #132	@ 0x84
   23910:	7802      	ldrb	r2, [r0, #0]
   23912:	2a02      	cmp	r2, #2
   23914:	d003      	beq.n	2391e <_ZN20complex_dynamic_type3app17h6dedd859d192b599E+0xde>
   23916:	2018      	movs	r0, #24
   23918:	2103      	movs	r1, #3
   2391a:	f007 fcb1 	bl	2b280 <_ZN9allow_pin12dynamic_type7unshare17h19052c50f9e150aeE>
   2391e:	a821      	add	r0, sp, #132	@ 0x84
   23920:	7004      	strb	r4, [r0, #0]
   23922:	2e00      	cmp	r6, #0
   23924:	d1dd      	bne.n	238e2 <_ZN20complex_dynamic_type3app17h6dedd859d192b599E+0xa2>
   23926:	a821      	add	r0, sp, #132	@ 0x84
   23928:	7806      	ldrb	r6, [r0, #0]
   2392a:	2e02      	cmp	r6, #2
   2392c:	d001      	beq.n	23932 <_ZN20complex_dynamic_type3app17h6dedd859d192b599E+0xf2>
   2392e:	480d      	ldr	r0, [pc, #52]	@ (23964 <_ZN20complex_dynamic_type3app17h6dedd859d192b599E+0x124>)
   23930:	9006      	str	r0, [sp, #24]
   23932:	9c07      	ldr	r4, [sp, #28]
   23934:	1c60      	adds	r0, r4, #1
   23936:	222c      	movs	r2, #44	@ 0x2c
   23938:	9906      	ldr	r1, [sp, #24]
   2393a:	f007 fe86 	bl	2b64a <__aeabi_memcpy>
   2393e:	2000      	movs	r0, #0
   23940:	2e02      	cmp	r6, #2
   23942:	7020      	strb	r0, [r4, #0]
   23944:	d004      	beq.n	23950 <_ZN20complex_dynamic_type3app17h6dedd859d192b599E+0x110>
   23946:	2018      	movs	r0, #24
   23948:	2103      	movs	r1, #3
   2394a:	4632      	mov	r2, r6
   2394c:	f007 fc98 	bl	2b280 <_ZN9allow_pin12dynamic_type7unshare17h19052c50f9e150aeE>
   23950:	a808      	add	r0, sp, #32
   23952:	7802      	ldrb	r2, [r0, #0]
   23954:	2a02      	cmp	r2, #2
   23956:	d003      	beq.n	23960 <_ZN20complex_dynamic_type3app17h6dedd859d192b599E+0x120>
   23958:	2018      	movs	r0, #24
   2395a:	2105      	movs	r1, #5
   2395c:	f007 fc90 	bl	2b280 <_ZN9allow_pin12dynamic_type7unshare17h19052c50f9e150aeE>
   23960:	b031      	add	sp, #196	@ 0xc4
   23962:	bdf0      	pop	{r4, r5, r6, r7, pc}
   23964:	000106a9 	.word	0x000106a9

00023968 <_ZN20complex_dynamic_type3app17h70ad632becce09b3E>:
   23968:	b5f0      	push	{r4, r5, r6, r7, lr}
   2396a:	af03      	add	r7, sp, #12
   2396c:	b0b1      	sub	sp, #196	@ 0xc4
   2396e:	9007      	str	r0, [sp, #28]
   23970:	a808      	add	r0, sp, #32
   23972:	2602      	movs	r6, #2
   23974:	7006      	strb	r6, [r0, #0]
   23976:	1c40      	adds	r0, r0, #1
   23978:	9005      	str	r0, [sp, #20]
   2397a:	2550      	movs	r5, #80	@ 0x50
   2397c:	462a      	mov	r2, r5
   2397e:	f007 fe64 	bl	2b64a <__aeabi_memcpy>
   23982:	ac1d      	add	r4, sp, #116	@ 0x74
   23984:	1c60      	adds	r0, r4, #1
   23986:	213c      	movs	r1, #60	@ 0x3c
   23988:	9006      	str	r0, [sp, #24]
   2398a:	9104      	str	r1, [sp, #16]
   2398c:	f007 fc9d 	bl	2b2ca <__aeabi_memclr>
   23990:	9603      	str	r6, [sp, #12]
   23992:	7026      	strb	r6, [r4, #0]
   23994:	2404      	movs	r4, #4
   23996:	9500      	str	r5, [sp, #0]
   23998:	9401      	str	r4, [sp, #4]
   2399a:	a82d      	add	r0, sp, #180	@ 0xb4
   2399c:	493c      	ldr	r1, [pc, #240]	@ (23a90 <_ZN20complex_dynamic_type3app17h70ad632becce09b3E+0x128>)
   2399e:	2503      	movs	r5, #3
   239a0:	462a      	mov	r2, r5
   239a2:	9b05      	ldr	r3, [sp, #20]
   239a4:	f007 fc79 	bl	2b29a <_ZN9allow_pin13dynamic_allow17h8bfd3764c146b81aE>
   239a8:	982d      	ldr	r0, [sp, #180]	@ 0xb4
   239aa:	2802      	cmp	r0, #2
   239ac:	d101      	bne.n	239b2 <_ZN20complex_dynamic_type3app17h70ad632becce09b3E+0x4a>
   239ae:	992e      	ldr	r1, [sp, #184]	@ 0xb8
   239b0:	e001      	b.n	239b6 <_ZN20complex_dynamic_type3app17h70ad632becce09b3E+0x4e>
   239b2:	a908      	add	r1, sp, #32
   239b4:	700c      	strb	r4, [r1, #0]
   239b6:	2601      	movs	r6, #1
   239b8:	2802      	cmp	r0, #2
   239ba:	d024      	beq.n	23a06 <_ZN20complex_dynamic_type3app17h70ad632becce09b3E+0x9e>
   239bc:	a81d      	add	r0, sp, #116	@ 0x74
   239be:	7800      	ldrb	r0, [r0, #0]
   239c0:	2802      	cmp	r0, #2
   239c2:	4630      	mov	r0, r6
   239c4:	d10e      	bne.n	239e4 <_ZN20complex_dynamic_type3app17h70ad632becce09b3E+0x7c>
   239c6:	2403      	movs	r4, #3
   239c8:	9804      	ldr	r0, [sp, #16]
   239ca:	9000      	str	r0, [sp, #0]
   239cc:	9401      	str	r4, [sp, #4]
   239ce:	a82d      	add	r0, sp, #180	@ 0xb4
   239d0:	2209      	movs	r2, #9
   239d2:	492f      	ldr	r1, [pc, #188]	@ (23a90 <_ZN20complex_dynamic_type3app17h70ad632becce09b3E+0x128>)
   239d4:	9b06      	ldr	r3, [sp, #24]
   239d6:	f007 fc60 	bl	2b29a <_ZN9allow_pin13dynamic_allow17h8bfd3764c146b81aE>
   239da:	982d      	ldr	r0, [sp, #180]	@ 0xb4
   239dc:	2802      	cmp	r0, #2
   239de:	d105      	bne.n	239ec <_ZN20complex_dynamic_type3app17h70ad632becce09b3E+0x84>
   239e0:	9d2e      	ldr	r5, [sp, #184]	@ 0xb8
   239e2:	4630      	mov	r0, r6
   239e4:	2800      	cmp	r0, #0
   239e6:	d006      	beq.n	239f6 <_ZN20complex_dynamic_type3app17h70ad632becce09b3E+0x8e>
   239e8:	4629      	mov	r1, r5
   239ea:	e00c      	b.n	23a06 <_ZN20complex_dynamic_type3app17h70ad632becce09b3E+0x9e>
   239ec:	a81d      	add	r0, sp, #116	@ 0x74
   239ee:	7004      	strb	r4, [r0, #0]
   239f0:	2000      	movs	r0, #0
   239f2:	2800      	cmp	r0, #0
   239f4:	d1f8      	bne.n	239e8 <_ZN20complex_dynamic_type3app17h70ad632becce09b3E+0x80>
   239f6:	4826      	ldr	r0, [pc, #152]	@ (23a90 <_ZN20complex_dynamic_type3app17h70ad632becce09b3E+0x128>)
   239f8:	2103      	movs	r1, #3
   239fa:	2209      	movs	r2, #9
   239fc:	2400      	movs	r4, #0
   239fe:	4623      	mov	r3, r4
   23a00:	df02      	svc	2
   23a02:	287f      	cmp	r0, #127	@ 0x7f
   23a04:	d80d      	bhi.n	23a22 <_ZN20complex_dynamic_type3app17h70ad632becce09b3E+0xba>
   23a06:	4634      	mov	r4, r6
   23a08:	2c00      	cmp	r4, #0
   23a0a:	d021      	beq.n	23a50 <_ZN20complex_dynamic_type3app17h70ad632becce09b3E+0xe8>
   23a0c:	2001      	movs	r0, #1
   23a0e:	9a07      	ldr	r2, [sp, #28]
   23a10:	7010      	strb	r0, [r2, #0]
   23a12:	6051      	str	r1, [r2, #4]
   23a14:	a81d      	add	r0, sp, #116	@ 0x74
   23a16:	7802      	ldrb	r2, [r0, #0]
   23a18:	2a02      	cmp	r2, #2
   23a1a:	d02e      	beq.n	23a7a <_ZN20complex_dynamic_type3app17h70ad632becce09b3E+0x112>
   23a1c:	2109      	movs	r1, #9
   23a1e:	481c      	ldr	r0, [pc, #112]	@ (23a90 <_ZN20complex_dynamic_type3app17h70ad632becce09b3E+0x128>)
   23a20:	e029      	b.n	23a76 <_ZN20complex_dynamic_type3app17h70ad632becce09b3E+0x10e>
   23a22:	a808      	add	r0, sp, #32
   23a24:	7802      	ldrb	r2, [r0, #0]
   23a26:	2a02      	cmp	r2, #2
   23a28:	d003      	beq.n	23a32 <_ZN20complex_dynamic_type3app17h70ad632becce09b3E+0xca>
   23a2a:	2103      	movs	r1, #3
   23a2c:	4818      	ldr	r0, [pc, #96]	@ (23a90 <_ZN20complex_dynamic_type3app17h70ad632becce09b3E+0x128>)
   23a2e:	f007 fc27 	bl	2b280 <_ZN9allow_pin12dynamic_type7unshare17h19052c50f9e150aeE>
   23a32:	a808      	add	r0, sp, #32
   23a34:	9d03      	ldr	r5, [sp, #12]
   23a36:	7005      	strb	r5, [r0, #0]
   23a38:	a81d      	add	r0, sp, #116	@ 0x74
   23a3a:	7802      	ldrb	r2, [r0, #0]
   23a3c:	2a02      	cmp	r2, #2
   23a3e:	d003      	beq.n	23a48 <_ZN20complex_dynamic_type3app17h70ad632becce09b3E+0xe0>
   23a40:	2109      	movs	r1, #9
   23a42:	4813      	ldr	r0, [pc, #76]	@ (23a90 <_ZN20complex_dynamic_type3app17h70ad632becce09b3E+0x128>)
   23a44:	f007 fc1c 	bl	2b280 <_ZN9allow_pin12dynamic_type7unshare17h19052c50f9e150aeE>
   23a48:	a81d      	add	r0, sp, #116	@ 0x74
   23a4a:	7005      	strb	r5, [r0, #0]
   23a4c:	2c00      	cmp	r4, #0
   23a4e:	d1dd      	bne.n	23a0c <_ZN20complex_dynamic_type3app17h70ad632becce09b3E+0xa4>
   23a50:	a81d      	add	r0, sp, #116	@ 0x74
   23a52:	7804      	ldrb	r4, [r0, #0]
   23a54:	2c02      	cmp	r4, #2
   23a56:	d001      	beq.n	23a5c <_ZN20complex_dynamic_type3app17h70ad632becce09b3E+0xf4>
   23a58:	480e      	ldr	r0, [pc, #56]	@ (23a94 <_ZN20complex_dynamic_type3app17h70ad632becce09b3E+0x12c>)
   23a5a:	9006      	str	r0, [sp, #24]
   23a5c:	9d07      	ldr	r5, [sp, #28]
   23a5e:	1c68      	adds	r0, r5, #1
   23a60:	223c      	movs	r2, #60	@ 0x3c
   23a62:	9906      	ldr	r1, [sp, #24]
   23a64:	f007 fdf1 	bl	2b64a <__aeabi_memcpy>
   23a68:	2000      	movs	r0, #0
   23a6a:	2c02      	cmp	r4, #2
   23a6c:	7028      	strb	r0, [r5, #0]
   23a6e:	d004      	beq.n	23a7a <_ZN20complex_dynamic_type3app17h70ad632becce09b3E+0x112>
   23a70:	2109      	movs	r1, #9
   23a72:	4807      	ldr	r0, [pc, #28]	@ (23a90 <_ZN20complex_dynamic_type3app17h70ad632becce09b3E+0x128>)
   23a74:	4622      	mov	r2, r4
   23a76:	f007 fc03 	bl	2b280 <_ZN9allow_pin12dynamic_type7unshare17h19052c50f9e150aeE>
   23a7a:	a808      	add	r0, sp, #32
   23a7c:	7802      	ldrb	r2, [r0, #0]
   23a7e:	2a02      	cmp	r2, #2
   23a80:	d003      	beq.n	23a8a <_ZN20complex_dynamic_type3app17h70ad632becce09b3E+0x122>
   23a82:	2103      	movs	r1, #3
   23a84:	4802      	ldr	r0, [pc, #8]	@ (23a90 <_ZN20complex_dynamic_type3app17h70ad632becce09b3E+0x128>)
   23a86:	f007 fbfb 	bl	2b280 <_ZN9allow_pin12dynamic_type7unshare17h19052c50f9e150aeE>
   23a8a:	b031      	add	sp, #196	@ 0xc4
   23a8c:	bdf0      	pop	{r4, r5, r6, r7, pc}
   23a8e:	46c0      	nop			@ (mov r8, r8)
   23a90:	00000d7a 	.word	0x00000d7a
   23a94:	000101e2 	.word	0x000101e2

00023a98 <_ZN20complex_dynamic_type3app17h72c4ef658043868fE>:
   23a98:	b5f0      	push	{r4, r5, r6, r7, lr}
   23a9a:	af03      	add	r7, sp, #12
   23a9c:	b0a9      	sub	sp, #164	@ 0xa4
   23a9e:	9006      	str	r0, [sp, #24]
   23aa0:	a807      	add	r0, sp, #28
   23aa2:	2602      	movs	r6, #2
   23aa4:	7006      	strb	r6, [r0, #0]
   23aa6:	1c40      	adds	r0, r0, #1
   23aa8:	9004      	str	r0, [sp, #16]
   23aaa:	2548      	movs	r5, #72	@ 0x48
   23aac:	462a      	mov	r2, r5
   23aae:	f007 fdcc 	bl	2b64a <__aeabi_memcpy>
   23ab2:	ac1a      	add	r4, sp, #104	@ 0x68
   23ab4:	1c60      	adds	r0, r4, #1
   23ab6:	2129      	movs	r1, #41	@ 0x29
   23ab8:	9005      	str	r0, [sp, #20]
   23aba:	9103      	str	r1, [sp, #12]
   23abc:	f007 fc05 	bl	2b2ca <__aeabi_memclr>
   23ac0:	9602      	str	r6, [sp, #8]
   23ac2:	7026      	strb	r6, [r4, #0]
   23ac4:	2404      	movs	r4, #4
   23ac6:	9500      	str	r5, [sp, #0]
   23ac8:	9401      	str	r4, [sp, #4]
   23aca:	a825      	add	r0, sp, #148	@ 0x94
   23acc:	493c      	ldr	r1, [pc, #240]	@ (23bc0 <_ZN20complex_dynamic_type3app17h72c4ef658043868fE+0x128>)
   23ace:	2503      	movs	r5, #3
   23ad0:	462a      	mov	r2, r5
   23ad2:	9b04      	ldr	r3, [sp, #16]
   23ad4:	f007 fbe1 	bl	2b29a <_ZN9allow_pin13dynamic_allow17h8bfd3764c146b81aE>
   23ad8:	9825      	ldr	r0, [sp, #148]	@ 0x94
   23ada:	2802      	cmp	r0, #2
   23adc:	d101      	bne.n	23ae2 <_ZN20complex_dynamic_type3app17h72c4ef658043868fE+0x4a>
   23ade:	9926      	ldr	r1, [sp, #152]	@ 0x98
   23ae0:	e001      	b.n	23ae6 <_ZN20complex_dynamic_type3app17h72c4ef658043868fE+0x4e>
   23ae2:	a907      	add	r1, sp, #28
   23ae4:	700c      	strb	r4, [r1, #0]
   23ae6:	2601      	movs	r6, #1
   23ae8:	2802      	cmp	r0, #2
   23aea:	d024      	beq.n	23b36 <_ZN20complex_dynamic_type3app17h72c4ef658043868fE+0x9e>
   23aec:	a81a      	add	r0, sp, #104	@ 0x68
   23aee:	7800      	ldrb	r0, [r0, #0]
   23af0:	2802      	cmp	r0, #2
   23af2:	4630      	mov	r0, r6
   23af4:	d10e      	bne.n	23b14 <_ZN20complex_dynamic_type3app17h72c4ef658043868fE+0x7c>
   23af6:	2403      	movs	r4, #3
   23af8:	9803      	ldr	r0, [sp, #12]
   23afa:	9000      	str	r0, [sp, #0]
   23afc:	9401      	str	r4, [sp, #4]
   23afe:	a825      	add	r0, sp, #148	@ 0x94
   23b00:	2204      	movs	r2, #4
   23b02:	492f      	ldr	r1, [pc, #188]	@ (23bc0 <_ZN20complex_dynamic_type3app17h72c4ef658043868fE+0x128>)
   23b04:	9b05      	ldr	r3, [sp, #20]
   23b06:	f007 fbc8 	bl	2b29a <_ZN9allow_pin13dynamic_allow17h8bfd3764c146b81aE>
   23b0a:	9825      	ldr	r0, [sp, #148]	@ 0x94
   23b0c:	2802      	cmp	r0, #2
   23b0e:	d105      	bne.n	23b1c <_ZN20complex_dynamic_type3app17h72c4ef658043868fE+0x84>
   23b10:	9d26      	ldr	r5, [sp, #152]	@ 0x98
   23b12:	4630      	mov	r0, r6
   23b14:	2800      	cmp	r0, #0
   23b16:	d006      	beq.n	23b26 <_ZN20complex_dynamic_type3app17h72c4ef658043868fE+0x8e>
   23b18:	4629      	mov	r1, r5
   23b1a:	e00c      	b.n	23b36 <_ZN20complex_dynamic_type3app17h72c4ef658043868fE+0x9e>
   23b1c:	a81a      	add	r0, sp, #104	@ 0x68
   23b1e:	7004      	strb	r4, [r0, #0]
   23b20:	2000      	movs	r0, #0
   23b22:	2800      	cmp	r0, #0
   23b24:	d1f8      	bne.n	23b18 <_ZN20complex_dynamic_type3app17h72c4ef658043868fE+0x80>
   23b26:	4826      	ldr	r0, [pc, #152]	@ (23bc0 <_ZN20complex_dynamic_type3app17h72c4ef658043868fE+0x128>)
   23b28:	2103      	movs	r1, #3
   23b2a:	2204      	movs	r2, #4
   23b2c:	2400      	movs	r4, #0
   23b2e:	4623      	mov	r3, r4
   23b30:	df02      	svc	2
   23b32:	287f      	cmp	r0, #127	@ 0x7f
   23b34:	d80d      	bhi.n	23b52 <_ZN20complex_dynamic_type3app17h72c4ef658043868fE+0xba>
   23b36:	4634      	mov	r4, r6
   23b38:	2c00      	cmp	r4, #0
   23b3a:	d021      	beq.n	23b80 <_ZN20complex_dynamic_type3app17h72c4ef658043868fE+0xe8>
   23b3c:	2001      	movs	r0, #1
   23b3e:	9a06      	ldr	r2, [sp, #24]
   23b40:	7010      	strb	r0, [r2, #0]
   23b42:	6051      	str	r1, [r2, #4]
   23b44:	a81a      	add	r0, sp, #104	@ 0x68
   23b46:	7802      	ldrb	r2, [r0, #0]
   23b48:	2a02      	cmp	r2, #2
   23b4a:	d02e      	beq.n	23baa <_ZN20complex_dynamic_type3app17h72c4ef658043868fE+0x112>
   23b4c:	2104      	movs	r1, #4
   23b4e:	481c      	ldr	r0, [pc, #112]	@ (23bc0 <_ZN20complex_dynamic_type3app17h72c4ef658043868fE+0x128>)
   23b50:	e029      	b.n	23ba6 <_ZN20complex_dynamic_type3app17h72c4ef658043868fE+0x10e>
   23b52:	a807      	add	r0, sp, #28
   23b54:	7802      	ldrb	r2, [r0, #0]
   23b56:	2a02      	cmp	r2, #2
   23b58:	d003      	beq.n	23b62 <_ZN20complex_dynamic_type3app17h72c4ef658043868fE+0xca>
   23b5a:	2103      	movs	r1, #3
   23b5c:	4818      	ldr	r0, [pc, #96]	@ (23bc0 <_ZN20complex_dynamic_type3app17h72c4ef658043868fE+0x128>)
   23b5e:	f007 fb8f 	bl	2b280 <_ZN9allow_pin12dynamic_type7unshare17h19052c50f9e150aeE>
   23b62:	a807      	add	r0, sp, #28
   23b64:	9d02      	ldr	r5, [sp, #8]
   23b66:	7005      	strb	r5, [r0, #0]
   23b68:	a81a      	add	r0, sp, #104	@ 0x68
   23b6a:	7802      	ldrb	r2, [r0, #0]
   23b6c:	2a02      	cmp	r2, #2
   23b6e:	d003      	beq.n	23b78 <_ZN20complex_dynamic_type3app17h72c4ef658043868fE+0xe0>
   23b70:	2104      	movs	r1, #4
   23b72:	4813      	ldr	r0, [pc, #76]	@ (23bc0 <_ZN20complex_dynamic_type3app17h72c4ef658043868fE+0x128>)
   23b74:	f007 fb84 	bl	2b280 <_ZN9allow_pin12dynamic_type7unshare17h19052c50f9e150aeE>
   23b78:	a81a      	add	r0, sp, #104	@ 0x68
   23b7a:	7005      	strb	r5, [r0, #0]
   23b7c:	2c00      	cmp	r4, #0
   23b7e:	d1dd      	bne.n	23b3c <_ZN20complex_dynamic_type3app17h72c4ef658043868fE+0xa4>
   23b80:	a81a      	add	r0, sp, #104	@ 0x68
   23b82:	7804      	ldrb	r4, [r0, #0]
   23b84:	2c02      	cmp	r4, #2
   23b86:	d001      	beq.n	23b8c <_ZN20complex_dynamic_type3app17h72c4ef658043868fE+0xf4>
   23b88:	480e      	ldr	r0, [pc, #56]	@ (23bc4 <_ZN20complex_dynamic_type3app17h72c4ef658043868fE+0x12c>)
   23b8a:	9005      	str	r0, [sp, #20]
   23b8c:	9d06      	ldr	r5, [sp, #24]
   23b8e:	1c68      	adds	r0, r5, #1
   23b90:	2229      	movs	r2, #41	@ 0x29
   23b92:	9905      	ldr	r1, [sp, #20]
   23b94:	f007 fd59 	bl	2b64a <__aeabi_memcpy>
   23b98:	2000      	movs	r0, #0
   23b9a:	2c02      	cmp	r4, #2
   23b9c:	7028      	strb	r0, [r5, #0]
   23b9e:	d004      	beq.n	23baa <_ZN20complex_dynamic_type3app17h72c4ef658043868fE+0x112>
   23ba0:	2104      	movs	r1, #4
   23ba2:	4807      	ldr	r0, [pc, #28]	@ (23bc0 <_ZN20complex_dynamic_type3app17h72c4ef658043868fE+0x128>)
   23ba4:	4622      	mov	r2, r4
   23ba6:	f007 fb6b 	bl	2b280 <_ZN9allow_pin12dynamic_type7unshare17h19052c50f9e150aeE>
   23baa:	a807      	add	r0, sp, #28
   23bac:	7802      	ldrb	r2, [r0, #0]
   23bae:	2a02      	cmp	r2, #2
   23bb0:	d003      	beq.n	23bba <_ZN20complex_dynamic_type3app17h72c4ef658043868fE+0x122>
   23bb2:	2103      	movs	r1, #3
   23bb4:	4802      	ldr	r0, [pc, #8]	@ (23bc0 <_ZN20complex_dynamic_type3app17h72c4ef658043868fE+0x128>)
   23bb6:	f007 fb63 	bl	2b280 <_ZN9allow_pin12dynamic_type7unshare17h19052c50f9e150aeE>
   23bba:	b029      	add	sp, #164	@ 0xa4
   23bbc:	bdf0      	pop	{r4, r5, r6, r7, pc}
   23bbe:	46c0      	nop			@ (mov r8, r8)
   23bc0:	000026a4 	.word	0x000026a4
   23bc4:	00010b18 	.word	0x00010b18

00023bc8 <_ZN20complex_dynamic_type3app17h73474d01e84c111cE>:
   23bc8:	b5f0      	push	{r4, r5, r6, r7, lr}
   23bca:	af03      	add	r7, sp, #12
   23bcc:	b09b      	sub	sp, #108	@ 0x6c
   23bce:	9007      	str	r0, [sp, #28]
   23bd0:	a808      	add	r0, sp, #32
   23bd2:	2502      	movs	r5, #2
   23bd4:	7005      	strb	r5, [r0, #0]
   23bd6:	1c40      	adds	r0, r0, #1
   23bd8:	9005      	str	r0, [sp, #20]
   23bda:	262b      	movs	r6, #43	@ 0x2b
   23bdc:	4632      	mov	r2, r6
   23bde:	f007 fd34 	bl	2b64a <__aeabi_memcpy>
   23be2:	ac13      	add	r4, sp, #76	@ 0x4c
   23be4:	1c60      	adds	r0, r4, #1
   23be6:	210d      	movs	r1, #13
   23be8:	9006      	str	r0, [sp, #24]
   23bea:	9104      	str	r1, [sp, #16]
   23bec:	f007 fb6d 	bl	2b2ca <__aeabi_memclr>
   23bf0:	9503      	str	r5, [sp, #12]
   23bf2:	7025      	strb	r5, [r4, #0]
   23bf4:	2404      	movs	r4, #4
   23bf6:	9600      	str	r6, [sp, #0]
   23bf8:	9401      	str	r4, [sp, #4]
   23bfa:	a817      	add	r0, sp, #92	@ 0x5c
   23bfc:	4e3d      	ldr	r6, [pc, #244]	@ (23cf4 <_ZN20complex_dynamic_type3app17h73474d01e84c111cE+0x12c>)
   23bfe:	2206      	movs	r2, #6
   23c00:	4631      	mov	r1, r6
   23c02:	9b05      	ldr	r3, [sp, #20]
   23c04:	f007 fb49 	bl	2b29a <_ZN9allow_pin13dynamic_allow17h8bfd3764c146b81aE>
   23c08:	9817      	ldr	r0, [sp, #92]	@ 0x5c
   23c0a:	2802      	cmp	r0, #2
   23c0c:	d101      	bne.n	23c12 <_ZN20complex_dynamic_type3app17h73474d01e84c111cE+0x4a>
   23c0e:	9918      	ldr	r1, [sp, #96]	@ 0x60
   23c10:	e001      	b.n	23c16 <_ZN20complex_dynamic_type3app17h73474d01e84c111cE+0x4e>
   23c12:	a908      	add	r1, sp, #32
   23c14:	700c      	strb	r4, [r1, #0]
   23c16:	2501      	movs	r5, #1
   23c18:	2802      	cmp	r0, #2
   23c1a:	d10d      	bne.n	23c38 <_ZN20complex_dynamic_type3app17h73474d01e84c111cE+0x70>
   23c1c:	462c      	mov	r4, r5
   23c1e:	2c00      	cmp	r4, #0
   23c20:	d048      	beq.n	23cb4 <_ZN20complex_dynamic_type3app17h73474d01e84c111cE+0xec>
   23c22:	2001      	movs	r0, #1
   23c24:	9a07      	ldr	r2, [sp, #28]
   23c26:	7010      	strb	r0, [r2, #0]
   23c28:	6051      	str	r1, [r2, #4]
   23c2a:	a813      	add	r0, sp, #76	@ 0x4c
   23c2c:	7802      	ldrb	r2, [r0, #0]
   23c2e:	2a02      	cmp	r2, #2
   23c30:	d055      	beq.n	23cde <_ZN20complex_dynamic_type3app17h73474d01e84c111cE+0x116>
   23c32:	2100      	movs	r1, #0
   23c34:	4630      	mov	r0, r6
   23c36:	e050      	b.n	23cda <_ZN20complex_dynamic_type3app17h73474d01e84c111cE+0x112>
   23c38:	a813      	add	r0, sp, #76	@ 0x4c
   23c3a:	7800      	ldrb	r0, [r0, #0]
   23c3c:	2802      	cmp	r0, #2
   23c3e:	d110      	bne.n	23c62 <_ZN20complex_dynamic_type3app17h73474d01e84c111cE+0x9a>
   23c40:	4631      	mov	r1, r6
   23c42:	2603      	movs	r6, #3
   23c44:	9804      	ldr	r0, [sp, #16]
   23c46:	9000      	str	r0, [sp, #0]
   23c48:	9601      	str	r6, [sp, #4]
   23c4a:	a817      	add	r0, sp, #92	@ 0x5c
   23c4c:	2400      	movs	r4, #0
   23c4e:	4622      	mov	r2, r4
   23c50:	9b06      	ldr	r3, [sp, #24]
   23c52:	f007 fb22 	bl	2b29a <_ZN9allow_pin13dynamic_allow17h8bfd3764c146b81aE>
   23c56:	9817      	ldr	r0, [sp, #92]	@ 0x5c
   23c58:	2802      	cmp	r0, #2
   23c5a:	d107      	bne.n	23c6c <_ZN20complex_dynamic_type3app17h73474d01e84c111cE+0xa4>
   23c5c:	9918      	ldr	r1, [sp, #96]	@ 0x60
   23c5e:	462c      	mov	r4, r5
   23c60:	e006      	b.n	23c70 <_ZN20complex_dynamic_type3app17h73474d01e84c111cE+0xa8>
   23c62:	2103      	movs	r1, #3
   23c64:	462c      	mov	r4, r5
   23c66:	2c00      	cmp	r4, #0
   23c68:	d1d8      	bne.n	23c1c <_ZN20complex_dynamic_type3app17h73474d01e84c111cE+0x54>
   23c6a:	e004      	b.n	23c76 <_ZN20complex_dynamic_type3app17h73474d01e84c111cE+0xae>
   23c6c:	a813      	add	r0, sp, #76	@ 0x4c
   23c6e:	7006      	strb	r6, [r0, #0]
   23c70:	4e20      	ldr	r6, [pc, #128]	@ (23cf4 <_ZN20complex_dynamic_type3app17h73474d01e84c111cE+0x12c>)
   23c72:	2c00      	cmp	r4, #0
   23c74:	d1d2      	bne.n	23c1c <_ZN20complex_dynamic_type3app17h73474d01e84c111cE+0x54>
   23c76:	481f      	ldr	r0, [pc, #124]	@ (23cf4 <_ZN20complex_dynamic_type3app17h73474d01e84c111cE+0x12c>)
   23c78:	2106      	movs	r1, #6
   23c7a:	2400      	movs	r4, #0
   23c7c:	4622      	mov	r2, r4
   23c7e:	4623      	mov	r3, r4
   23c80:	df02      	svc	2
   23c82:	287f      	cmp	r0, #127	@ 0x7f
   23c84:	d9ca      	bls.n	23c1c <_ZN20complex_dynamic_type3app17h73474d01e84c111cE+0x54>
   23c86:	a808      	add	r0, sp, #32
   23c88:	7802      	ldrb	r2, [r0, #0]
   23c8a:	2a02      	cmp	r2, #2
   23c8c:	d003      	beq.n	23c96 <_ZN20complex_dynamic_type3app17h73474d01e84c111cE+0xce>
   23c8e:	2106      	movs	r1, #6
   23c90:	4630      	mov	r0, r6
   23c92:	f007 faf5 	bl	2b280 <_ZN9allow_pin12dynamic_type7unshare17h19052c50f9e150aeE>
   23c96:	a808      	add	r0, sp, #32
   23c98:	9d03      	ldr	r5, [sp, #12]
   23c9a:	7005      	strb	r5, [r0, #0]
   23c9c:	a813      	add	r0, sp, #76	@ 0x4c
   23c9e:	7802      	ldrb	r2, [r0, #0]
   23ca0:	2a02      	cmp	r2, #2
   23ca2:	d003      	beq.n	23cac <_ZN20complex_dynamic_type3app17h73474d01e84c111cE+0xe4>
   23ca4:	2100      	movs	r1, #0
   23ca6:	4630      	mov	r0, r6
   23ca8:	f007 faea 	bl	2b280 <_ZN9allow_pin12dynamic_type7unshare17h19052c50f9e150aeE>
   23cac:	a813      	add	r0, sp, #76	@ 0x4c
   23cae:	7005      	strb	r5, [r0, #0]
   23cb0:	2c00      	cmp	r4, #0
   23cb2:	d1b6      	bne.n	23c22 <_ZN20complex_dynamic_type3app17h73474d01e84c111cE+0x5a>
   23cb4:	a813      	add	r0, sp, #76	@ 0x4c
   23cb6:	7804      	ldrb	r4, [r0, #0]
   23cb8:	2c02      	cmp	r4, #2
   23cba:	d001      	beq.n	23cc0 <_ZN20complex_dynamic_type3app17h73474d01e84c111cE+0xf8>
   23cbc:	480e      	ldr	r0, [pc, #56]	@ (23cf8 <_ZN20complex_dynamic_type3app17h73474d01e84c111cE+0x130>)
   23cbe:	9006      	str	r0, [sp, #24]
   23cc0:	9d07      	ldr	r5, [sp, #28]
   23cc2:	1c68      	adds	r0, r5, #1
   23cc4:	220d      	movs	r2, #13
   23cc6:	9906      	ldr	r1, [sp, #24]
   23cc8:	f007 fcbf 	bl	2b64a <__aeabi_memcpy>
   23ccc:	2000      	movs	r0, #0
   23cce:	2c02      	cmp	r4, #2
   23cd0:	7028      	strb	r0, [r5, #0]
   23cd2:	d004      	beq.n	23cde <_ZN20complex_dynamic_type3app17h73474d01e84c111cE+0x116>
   23cd4:	2100      	movs	r1, #0
   23cd6:	4630      	mov	r0, r6
   23cd8:	4622      	mov	r2, r4
   23cda:	f007 fad1 	bl	2b280 <_ZN9allow_pin12dynamic_type7unshare17h19052c50f9e150aeE>
   23cde:	a808      	add	r0, sp, #32
   23ce0:	7802      	ldrb	r2, [r0, #0]
   23ce2:	2a02      	cmp	r2, #2
   23ce4:	d003      	beq.n	23cee <_ZN20complex_dynamic_type3app17h73474d01e84c111cE+0x126>
   23ce6:	2106      	movs	r1, #6
   23ce8:	4630      	mov	r0, r6
   23cea:	f007 fac9 	bl	2b280 <_ZN9allow_pin12dynamic_type7unshare17h19052c50f9e150aeE>
   23cee:	b01b      	add	sp, #108	@ 0x6c
   23cf0:	bdf0      	pop	{r4, r5, r6, r7, pc}
   23cf2:	46c0      	nop			@ (mov r8, r8)
   23cf4:	00001465 	.word	0x00001465
   23cf8:	00010b6f 	.word	0x00010b6f

00023cfc <_ZN20complex_dynamic_type3app17h7739e179100a642dE>:
   23cfc:	b5f0      	push	{r4, r5, r6, r7, lr}
   23cfe:	af03      	add	r7, sp, #12
   23d00:	b0a7      	sub	sp, #156	@ 0x9c
   23d02:	9005      	str	r0, [sp, #20]
   23d04:	a806      	add	r0, sp, #24
   23d06:	2502      	movs	r5, #2
   23d08:	7005      	strb	r5, [r0, #0]
   23d0a:	1c40      	adds	r0, r0, #1
   23d0c:	9003      	str	r0, [sp, #12]
   23d0e:	241e      	movs	r4, #30
   23d10:	4622      	mov	r2, r4
   23d12:	f007 fc9a 	bl	2b64a <__aeabi_memcpy>
   23d16:	ae0e      	add	r6, sp, #56	@ 0x38
   23d18:	1c70      	adds	r0, r6, #1
   23d1a:	2151      	movs	r1, #81	@ 0x51
   23d1c:	9004      	str	r0, [sp, #16]
   23d1e:	9102      	str	r1, [sp, #8]
   23d20:	f007 fad3 	bl	2b2ca <__aeabi_memclr>
   23d24:	7035      	strb	r5, [r6, #0]
   23d26:	2004      	movs	r0, #4
   23d28:	9400      	str	r4, [sp, #0]
   23d2a:	4604      	mov	r4, r0
   23d2c:	9001      	str	r0, [sp, #4]
   23d2e:	a823      	add	r0, sp, #140	@ 0x8c
   23d30:	4e3d      	ldr	r6, [pc, #244]	@ (23e28 <_ZN20complex_dynamic_type3app17h7739e179100a642dE+0x12c>)
   23d32:	4631      	mov	r1, r6
   23d34:	462a      	mov	r2, r5
   23d36:	9b03      	ldr	r3, [sp, #12]
   23d38:	f007 faaf 	bl	2b29a <_ZN9allow_pin13dynamic_allow17h8bfd3764c146b81aE>
   23d3c:	9823      	ldr	r0, [sp, #140]	@ 0x8c
   23d3e:	2802      	cmp	r0, #2
   23d40:	d101      	bne.n	23d46 <_ZN20complex_dynamic_type3app17h7739e179100a642dE+0x4a>
   23d42:	9924      	ldr	r1, [sp, #144]	@ 0x90
   23d44:	e001      	b.n	23d4a <_ZN20complex_dynamic_type3app17h7739e179100a642dE+0x4e>
   23d46:	a906      	add	r1, sp, #24
   23d48:	700c      	strb	r4, [r1, #0]
   23d4a:	2501      	movs	r5, #1
   23d4c:	2802      	cmp	r0, #2
   23d4e:	d10d      	bne.n	23d6c <_ZN20complex_dynamic_type3app17h7739e179100a642dE+0x70>
   23d50:	462c      	mov	r4, r5
   23d52:	2c00      	cmp	r4, #0
   23d54:	d049      	beq.n	23dea <_ZN20complex_dynamic_type3app17h7739e179100a642dE+0xee>
   23d56:	2001      	movs	r0, #1
   23d58:	9a05      	ldr	r2, [sp, #20]
   23d5a:	7010      	strb	r0, [r2, #0]
   23d5c:	6051      	str	r1, [r2, #4]
   23d5e:	a80e      	add	r0, sp, #56	@ 0x38
   23d60:	7802      	ldrb	r2, [r0, #0]
   23d62:	2a02      	cmp	r2, #2
   23d64:	d056      	beq.n	23e14 <_ZN20complex_dynamic_type3app17h7739e179100a642dE+0x118>
   23d66:	2100      	movs	r1, #0
   23d68:	4630      	mov	r0, r6
   23d6a:	e051      	b.n	23e10 <_ZN20complex_dynamic_type3app17h7739e179100a642dE+0x114>
   23d6c:	a80e      	add	r0, sp, #56	@ 0x38
   23d6e:	7800      	ldrb	r0, [r0, #0]
   23d70:	2802      	cmp	r0, #2
   23d72:	d110      	bne.n	23d96 <_ZN20complex_dynamic_type3app17h7739e179100a642dE+0x9a>
   23d74:	4631      	mov	r1, r6
   23d76:	2603      	movs	r6, #3
   23d78:	9802      	ldr	r0, [sp, #8]
   23d7a:	9000      	str	r0, [sp, #0]
   23d7c:	9601      	str	r6, [sp, #4]
   23d7e:	a823      	add	r0, sp, #140	@ 0x8c
   23d80:	2400      	movs	r4, #0
   23d82:	4622      	mov	r2, r4
   23d84:	9b04      	ldr	r3, [sp, #16]
   23d86:	f007 fa88 	bl	2b29a <_ZN9allow_pin13dynamic_allow17h8bfd3764c146b81aE>
   23d8a:	9823      	ldr	r0, [sp, #140]	@ 0x8c
   23d8c:	2802      	cmp	r0, #2
   23d8e:	d107      	bne.n	23da0 <_ZN20complex_dynamic_type3app17h7739e179100a642dE+0xa4>
   23d90:	9924      	ldr	r1, [sp, #144]	@ 0x90
   23d92:	462c      	mov	r4, r5
   23d94:	e006      	b.n	23da4 <_ZN20complex_dynamic_type3app17h7739e179100a642dE+0xa8>
   23d96:	2103      	movs	r1, #3
   23d98:	462c      	mov	r4, r5
   23d9a:	2c00      	cmp	r4, #0
   23d9c:	d1d8      	bne.n	23d50 <_ZN20complex_dynamic_type3app17h7739e179100a642dE+0x54>
   23d9e:	e004      	b.n	23daa <_ZN20complex_dynamic_type3app17h7739e179100a642dE+0xae>
   23da0:	a80e      	add	r0, sp, #56	@ 0x38
   23da2:	7006      	strb	r6, [r0, #0]
   23da4:	4e20      	ldr	r6, [pc, #128]	@ (23e28 <_ZN20complex_dynamic_type3app17h7739e179100a642dE+0x12c>)
   23da6:	2c00      	cmp	r4, #0
   23da8:	d1d2      	bne.n	23d50 <_ZN20complex_dynamic_type3app17h7739e179100a642dE+0x54>
   23daa:	481f      	ldr	r0, [pc, #124]	@ (23e28 <_ZN20complex_dynamic_type3app17h7739e179100a642dE+0x12c>)
   23dac:	2102      	movs	r1, #2
   23dae:	2400      	movs	r4, #0
   23db0:	9103      	str	r1, [sp, #12]
   23db2:	4622      	mov	r2, r4
   23db4:	4623      	mov	r3, r4
   23db6:	df02      	svc	2
   23db8:	287f      	cmp	r0, #127	@ 0x7f
   23dba:	d9c9      	bls.n	23d50 <_ZN20complex_dynamic_type3app17h7739e179100a642dE+0x54>
   23dbc:	a806      	add	r0, sp, #24
   23dbe:	7802      	ldrb	r2, [r0, #0]
   23dc0:	2a02      	cmp	r2, #2
   23dc2:	d003      	beq.n	23dcc <_ZN20complex_dynamic_type3app17h7739e179100a642dE+0xd0>
   23dc4:	2102      	movs	r1, #2
   23dc6:	4630      	mov	r0, r6
   23dc8:	f007 fa5a 	bl	2b280 <_ZN9allow_pin12dynamic_type7unshare17h19052c50f9e150aeE>
   23dcc:	a806      	add	r0, sp, #24
   23dce:	9d03      	ldr	r5, [sp, #12]
   23dd0:	7005      	strb	r5, [r0, #0]
   23dd2:	a80e      	add	r0, sp, #56	@ 0x38
   23dd4:	7802      	ldrb	r2, [r0, #0]
   23dd6:	2a02      	cmp	r2, #2
   23dd8:	d003      	beq.n	23de2 <_ZN20complex_dynamic_type3app17h7739e179100a642dE+0xe6>
   23dda:	2100      	movs	r1, #0
   23ddc:	4630      	mov	r0, r6
   23dde:	f007 fa4f 	bl	2b280 <_ZN9allow_pin12dynamic_type7unshare17h19052c50f9e150aeE>
   23de2:	a80e      	add	r0, sp, #56	@ 0x38
   23de4:	7005      	strb	r5, [r0, #0]
   23de6:	2c00      	cmp	r4, #0
   23de8:	d1b5      	bne.n	23d56 <_ZN20complex_dynamic_type3app17h7739e179100a642dE+0x5a>
   23dea:	a80e      	add	r0, sp, #56	@ 0x38
   23dec:	7804      	ldrb	r4, [r0, #0]
   23dee:	2c02      	cmp	r4, #2
   23df0:	d001      	beq.n	23df6 <_ZN20complex_dynamic_type3app17h7739e179100a642dE+0xfa>
   23df2:	480e      	ldr	r0, [pc, #56]	@ (23e2c <_ZN20complex_dynamic_type3app17h7739e179100a642dE+0x130>)
   23df4:	9004      	str	r0, [sp, #16]
   23df6:	9d05      	ldr	r5, [sp, #20]
   23df8:	1c68      	adds	r0, r5, #1
   23dfa:	2251      	movs	r2, #81	@ 0x51
   23dfc:	9904      	ldr	r1, [sp, #16]
   23dfe:	f007 fc24 	bl	2b64a <__aeabi_memcpy>
   23e02:	2000      	movs	r0, #0
   23e04:	2c02      	cmp	r4, #2
   23e06:	7028      	strb	r0, [r5, #0]
   23e08:	d004      	beq.n	23e14 <_ZN20complex_dynamic_type3app17h7739e179100a642dE+0x118>
   23e0a:	2100      	movs	r1, #0
   23e0c:	4630      	mov	r0, r6
   23e0e:	4622      	mov	r2, r4
   23e10:	f007 fa36 	bl	2b280 <_ZN9allow_pin12dynamic_type7unshare17h19052c50f9e150aeE>
   23e14:	a806      	add	r0, sp, #24
   23e16:	7802      	ldrb	r2, [r0, #0]
   23e18:	2a02      	cmp	r2, #2
   23e1a:	d003      	beq.n	23e24 <_ZN20complex_dynamic_type3app17h7739e179100a642dE+0x128>
   23e1c:	2102      	movs	r1, #2
   23e1e:	4630      	mov	r0, r6
   23e20:	f007 fa2e 	bl	2b280 <_ZN9allow_pin12dynamic_type7unshare17h19052c50f9e150aeE>
   23e24:	b027      	add	sp, #156	@ 0x9c
   23e26:	bdf0      	pop	{r4, r5, r6, r7, pc}
   23e28:	0000196b 	.word	0x0000196b
   23e2c:	000102f0 	.word	0x000102f0

00023e30 <_ZN20complex_dynamic_type3app17h7a0fc4e0c5399d5eE>:
   23e30:	b5f0      	push	{r4, r5, r6, r7, lr}
   23e32:	af03      	add	r7, sp, #12
   23e34:	b0a7      	sub	sp, #156	@ 0x9c
   23e36:	9006      	str	r0, [sp, #24]
   23e38:	a807      	add	r0, sp, #28
   23e3a:	2502      	movs	r5, #2
   23e3c:	7005      	strb	r5, [r0, #0]
   23e3e:	1c40      	adds	r0, r0, #1
   23e40:	9004      	str	r0, [sp, #16]
   23e42:	263c      	movs	r6, #60	@ 0x3c
   23e44:	4632      	mov	r2, r6
   23e46:	f007 fc00 	bl	2b64a <__aeabi_memcpy>
   23e4a:	ac17      	add	r4, sp, #92	@ 0x5c
   23e4c:	1c60      	adds	r0, r4, #1
   23e4e:	212c      	movs	r1, #44	@ 0x2c
   23e50:	9005      	str	r0, [sp, #20]
   23e52:	9103      	str	r1, [sp, #12]
   23e54:	f007 fa39 	bl	2b2ca <__aeabi_memclr>
   23e58:	9502      	str	r5, [sp, #8]
   23e5a:	7025      	strb	r5, [r4, #0]
   23e5c:	2404      	movs	r4, #4
   23e5e:	9600      	str	r6, [sp, #0]
   23e60:	9401      	str	r4, [sp, #4]
   23e62:	a823      	add	r0, sp, #140	@ 0x8c
   23e64:	4e3c      	ldr	r6, [pc, #240]	@ (23f58 <_ZN20complex_dynamic_type3app17h7a0fc4e0c5399d5eE+0x128>)
   23e66:	2205      	movs	r2, #5
   23e68:	4631      	mov	r1, r6
   23e6a:	9b04      	ldr	r3, [sp, #16]
   23e6c:	f007 fa15 	bl	2b29a <_ZN9allow_pin13dynamic_allow17h8bfd3764c146b81aE>
   23e70:	9823      	ldr	r0, [sp, #140]	@ 0x8c
   23e72:	2802      	cmp	r0, #2
   23e74:	d101      	bne.n	23e7a <_ZN20complex_dynamic_type3app17h7a0fc4e0c5399d5eE+0x4a>
   23e76:	9924      	ldr	r1, [sp, #144]	@ 0x90
   23e78:	e001      	b.n	23e7e <_ZN20complex_dynamic_type3app17h7a0fc4e0c5399d5eE+0x4e>
   23e7a:	a907      	add	r1, sp, #28
   23e7c:	700c      	strb	r4, [r1, #0]
   23e7e:	2501      	movs	r5, #1
   23e80:	2802      	cmp	r0, #2
   23e82:	d024      	beq.n	23ece <_ZN20complex_dynamic_type3app17h7a0fc4e0c5399d5eE+0x9e>
   23e84:	a817      	add	r0, sp, #92	@ 0x5c
   23e86:	7800      	ldrb	r0, [r0, #0]
   23e88:	2802      	cmp	r0, #2
   23e8a:	d10e      	bne.n	23eaa <_ZN20complex_dynamic_type3app17h7a0fc4e0c5399d5eE+0x7a>
   23e8c:	2403      	movs	r4, #3
   23e8e:	9803      	ldr	r0, [sp, #12]
   23e90:	9000      	str	r0, [sp, #0]
   23e92:	9401      	str	r4, [sp, #4]
   23e94:	a823      	add	r0, sp, #140	@ 0x8c
   23e96:	2207      	movs	r2, #7
   23e98:	4631      	mov	r1, r6
   23e9a:	9b05      	ldr	r3, [sp, #20]
   23e9c:	f007 f9fd 	bl	2b29a <_ZN9allow_pin13dynamic_allow17h8bfd3764c146b81aE>
   23ea0:	9823      	ldr	r0, [sp, #140]	@ 0x8c
   23ea2:	2802      	cmp	r0, #2
   23ea4:	d106      	bne.n	23eb4 <_ZN20complex_dynamic_type3app17h7a0fc4e0c5399d5eE+0x84>
   23ea6:	9924      	ldr	r1, [sp, #144]	@ 0x90
   23ea8:	e000      	b.n	23eac <_ZN20complex_dynamic_type3app17h7a0fc4e0c5399d5eE+0x7c>
   23eaa:	2103      	movs	r1, #3
   23eac:	4628      	mov	r0, r5
   23eae:	2800      	cmp	r0, #0
   23eb0:	d005      	beq.n	23ebe <_ZN20complex_dynamic_type3app17h7a0fc4e0c5399d5eE+0x8e>
   23eb2:	e00c      	b.n	23ece <_ZN20complex_dynamic_type3app17h7a0fc4e0c5399d5eE+0x9e>
   23eb4:	a817      	add	r0, sp, #92	@ 0x5c
   23eb6:	7004      	strb	r4, [r0, #0]
   23eb8:	2000      	movs	r0, #0
   23eba:	2800      	cmp	r0, #0
   23ebc:	d107      	bne.n	23ece <_ZN20complex_dynamic_type3app17h7a0fc4e0c5399d5eE+0x9e>
   23ebe:	4826      	ldr	r0, [pc, #152]	@ (23f58 <_ZN20complex_dynamic_type3app17h7a0fc4e0c5399d5eE+0x128>)
   23ec0:	2105      	movs	r1, #5
   23ec2:	2207      	movs	r2, #7
   23ec4:	2400      	movs	r4, #0
   23ec6:	4623      	mov	r3, r4
   23ec8:	df02      	svc	2
   23eca:	287f      	cmp	r0, #127	@ 0x7f
   23ecc:	d80d      	bhi.n	23eea <_ZN20complex_dynamic_type3app17h7a0fc4e0c5399d5eE+0xba>
   23ece:	462c      	mov	r4, r5
   23ed0:	2c00      	cmp	r4, #0
   23ed2:	d021      	beq.n	23f18 <_ZN20complex_dynamic_type3app17h7a0fc4e0c5399d5eE+0xe8>
   23ed4:	2001      	movs	r0, #1
   23ed6:	9a06      	ldr	r2, [sp, #24]
   23ed8:	7010      	strb	r0, [r2, #0]
   23eda:	6051      	str	r1, [r2, #4]
   23edc:	a817      	add	r0, sp, #92	@ 0x5c
   23ede:	7802      	ldrb	r2, [r0, #0]
   23ee0:	2a02      	cmp	r2, #2
   23ee2:	d02e      	beq.n	23f42 <_ZN20complex_dynamic_type3app17h7a0fc4e0c5399d5eE+0x112>
   23ee4:	2107      	movs	r1, #7
   23ee6:	4630      	mov	r0, r6
   23ee8:	e029      	b.n	23f3e <_ZN20complex_dynamic_type3app17h7a0fc4e0c5399d5eE+0x10e>
   23eea:	a807      	add	r0, sp, #28
   23eec:	7802      	ldrb	r2, [r0, #0]
   23eee:	2a02      	cmp	r2, #2
   23ef0:	d003      	beq.n	23efa <_ZN20complex_dynamic_type3app17h7a0fc4e0c5399d5eE+0xca>
   23ef2:	2105      	movs	r1, #5
   23ef4:	4630      	mov	r0, r6
   23ef6:	f007 f9c3 	bl	2b280 <_ZN9allow_pin12dynamic_type7unshare17h19052c50f9e150aeE>
   23efa:	a807      	add	r0, sp, #28
   23efc:	9d02      	ldr	r5, [sp, #8]
   23efe:	7005      	strb	r5, [r0, #0]
   23f00:	a817      	add	r0, sp, #92	@ 0x5c
   23f02:	7802      	ldrb	r2, [r0, #0]
   23f04:	2a02      	cmp	r2, #2
   23f06:	d003      	beq.n	23f10 <_ZN20complex_dynamic_type3app17h7a0fc4e0c5399d5eE+0xe0>
   23f08:	2107      	movs	r1, #7
   23f0a:	4630      	mov	r0, r6
   23f0c:	f007 f9b8 	bl	2b280 <_ZN9allow_pin12dynamic_type7unshare17h19052c50f9e150aeE>
   23f10:	a817      	add	r0, sp, #92	@ 0x5c
   23f12:	7005      	strb	r5, [r0, #0]
   23f14:	2c00      	cmp	r4, #0
   23f16:	d1dd      	bne.n	23ed4 <_ZN20complex_dynamic_type3app17h7a0fc4e0c5399d5eE+0xa4>
   23f18:	a817      	add	r0, sp, #92	@ 0x5c
   23f1a:	7804      	ldrb	r4, [r0, #0]
   23f1c:	2c02      	cmp	r4, #2
   23f1e:	d001      	beq.n	23f24 <_ZN20complex_dynamic_type3app17h7a0fc4e0c5399d5eE+0xf4>
   23f20:	480e      	ldr	r0, [pc, #56]	@ (23f5c <_ZN20complex_dynamic_type3app17h7a0fc4e0c5399d5eE+0x12c>)
   23f22:	9005      	str	r0, [sp, #20]
   23f24:	9d06      	ldr	r5, [sp, #24]
   23f26:	1c68      	adds	r0, r5, #1
   23f28:	222c      	movs	r2, #44	@ 0x2c
   23f2a:	9905      	ldr	r1, [sp, #20]
   23f2c:	f007 fb8d 	bl	2b64a <__aeabi_memcpy>
   23f30:	2000      	movs	r0, #0
   23f32:	2c02      	cmp	r4, #2
   23f34:	7028      	strb	r0, [r5, #0]
   23f36:	d004      	beq.n	23f42 <_ZN20complex_dynamic_type3app17h7a0fc4e0c5399d5eE+0x112>
   23f38:	2107      	movs	r1, #7
   23f3a:	4630      	mov	r0, r6
   23f3c:	4622      	mov	r2, r4
   23f3e:	f007 f99f 	bl	2b280 <_ZN9allow_pin12dynamic_type7unshare17h19052c50f9e150aeE>
   23f42:	a807      	add	r0, sp, #28
   23f44:	7802      	ldrb	r2, [r0, #0]
   23f46:	2a02      	cmp	r2, #2
   23f48:	d003      	beq.n	23f52 <_ZN20complex_dynamic_type3app17h7a0fc4e0c5399d5eE+0x122>
   23f4a:	2105      	movs	r1, #5
   23f4c:	4630      	mov	r0, r6
   23f4e:	f007 f997 	bl	2b280 <_ZN9allow_pin12dynamic_type7unshare17h19052c50f9e150aeE>
   23f52:	b027      	add	sp, #156	@ 0x9c
   23f54:	bdf0      	pop	{r4, r5, r6, r7, pc}
   23f56:	46c0      	nop			@ (mov r8, r8)
   23f58:	00001eac 	.word	0x00001eac
   23f5c:	000106a9 	.word	0x000106a9

00023f60 <_ZN20complex_dynamic_type3app17h7a1139a52cbf0fe8E>:
   23f60:	b5f0      	push	{r4, r5, r6, r7, lr}
   23f62:	af03      	add	r7, sp, #12
   23f64:	b0a9      	sub	sp, #164	@ 0xa4
   23f66:	9006      	str	r0, [sp, #24]
   23f68:	a807      	add	r0, sp, #28
   23f6a:	2502      	movs	r5, #2
   23f6c:	7005      	strb	r5, [r0, #0]
   23f6e:	1c40      	adds	r0, r0, #1
   23f70:	9004      	str	r0, [sp, #16]
   23f72:	2627      	movs	r6, #39	@ 0x27
   23f74:	4632      	mov	r2, r6
   23f76:	f007 fb68 	bl	2b64a <__aeabi_memcpy>
   23f7a:	ac11      	add	r4, sp, #68	@ 0x44
   23f7c:	1c60      	adds	r0, r4, #1
   23f7e:	214f      	movs	r1, #79	@ 0x4f
   23f80:	9005      	str	r0, [sp, #20]
   23f82:	9103      	str	r1, [sp, #12]
   23f84:	f007 f9a1 	bl	2b2ca <__aeabi_memclr>
   23f88:	9502      	str	r5, [sp, #8]
   23f8a:	7025      	strb	r5, [r4, #0]
   23f8c:	2404      	movs	r4, #4
   23f8e:	9600      	str	r6, [sp, #0]
   23f90:	9401      	str	r4, [sp, #4]
   23f92:	a825      	add	r0, sp, #148	@ 0x94
   23f94:	4e3d      	ldr	r6, [pc, #244]	@ (2408c <_ZN20complex_dynamic_type3app17h7a1139a52cbf0fe8E+0x12c>)
   23f96:	2209      	movs	r2, #9
   23f98:	4631      	mov	r1, r6
   23f9a:	9b04      	ldr	r3, [sp, #16]
   23f9c:	f007 f97d 	bl	2b29a <_ZN9allow_pin13dynamic_allow17h8bfd3764c146b81aE>
   23fa0:	9825      	ldr	r0, [sp, #148]	@ 0x94
   23fa2:	2802      	cmp	r0, #2
   23fa4:	d101      	bne.n	23faa <_ZN20complex_dynamic_type3app17h7a1139a52cbf0fe8E+0x4a>
   23fa6:	9926      	ldr	r1, [sp, #152]	@ 0x98
   23fa8:	e001      	b.n	23fae <_ZN20complex_dynamic_type3app17h7a1139a52cbf0fe8E+0x4e>
   23faa:	a907      	add	r1, sp, #28
   23fac:	700c      	strb	r4, [r1, #0]
   23fae:	2501      	movs	r5, #1
   23fb0:	2802      	cmp	r0, #2
   23fb2:	d10d      	bne.n	23fd0 <_ZN20complex_dynamic_type3app17h7a1139a52cbf0fe8E+0x70>
   23fb4:	462c      	mov	r4, r5
   23fb6:	2c00      	cmp	r4, #0
   23fb8:	d048      	beq.n	2404c <_ZN20complex_dynamic_type3app17h7a1139a52cbf0fe8E+0xec>
   23fba:	2001      	movs	r0, #1
   23fbc:	9a06      	ldr	r2, [sp, #24]
   23fbe:	7010      	strb	r0, [r2, #0]
   23fc0:	6051      	str	r1, [r2, #4]
   23fc2:	a811      	add	r0, sp, #68	@ 0x44
   23fc4:	7802      	ldrb	r2, [r0, #0]
   23fc6:	2a02      	cmp	r2, #2
   23fc8:	d055      	beq.n	24076 <_ZN20complex_dynamic_type3app17h7a1139a52cbf0fe8E+0x116>
   23fca:	2100      	movs	r1, #0
   23fcc:	4630      	mov	r0, r6
   23fce:	e050      	b.n	24072 <_ZN20complex_dynamic_type3app17h7a1139a52cbf0fe8E+0x112>
   23fd0:	a811      	add	r0, sp, #68	@ 0x44
   23fd2:	7800      	ldrb	r0, [r0, #0]
   23fd4:	2802      	cmp	r0, #2
   23fd6:	d110      	bne.n	23ffa <_ZN20complex_dynamic_type3app17h7a1139a52cbf0fe8E+0x9a>
   23fd8:	4631      	mov	r1, r6
   23fda:	2603      	movs	r6, #3
   23fdc:	9803      	ldr	r0, [sp, #12]
   23fde:	9000      	str	r0, [sp, #0]
   23fe0:	9601      	str	r6, [sp, #4]
   23fe2:	a825      	add	r0, sp, #148	@ 0x94
   23fe4:	2400      	movs	r4, #0
   23fe6:	4622      	mov	r2, r4
   23fe8:	9b05      	ldr	r3, [sp, #20]
   23fea:	f007 f956 	bl	2b29a <_ZN9allow_pin13dynamic_allow17h8bfd3764c146b81aE>
   23fee:	9825      	ldr	r0, [sp, #148]	@ 0x94
   23ff0:	2802      	cmp	r0, #2
   23ff2:	d107      	bne.n	24004 <_ZN20complex_dynamic_type3app17h7a1139a52cbf0fe8E+0xa4>
   23ff4:	9926      	ldr	r1, [sp, #152]	@ 0x98
   23ff6:	462c      	mov	r4, r5
   23ff8:	e006      	b.n	24008 <_ZN20complex_dynamic_type3app17h7a1139a52cbf0fe8E+0xa8>
   23ffa:	2103      	movs	r1, #3
   23ffc:	462c      	mov	r4, r5
   23ffe:	2c00      	cmp	r4, #0
   24000:	d1d8      	bne.n	23fb4 <_ZN20complex_dynamic_type3app17h7a1139a52cbf0fe8E+0x54>
   24002:	e004      	b.n	2400e <_ZN20complex_dynamic_type3app17h7a1139a52cbf0fe8E+0xae>
   24004:	a811      	add	r0, sp, #68	@ 0x44
   24006:	7006      	strb	r6, [r0, #0]
   24008:	4e20      	ldr	r6, [pc, #128]	@ (2408c <_ZN20complex_dynamic_type3app17h7a1139a52cbf0fe8E+0x12c>)
   2400a:	2c00      	cmp	r4, #0
   2400c:	d1d2      	bne.n	23fb4 <_ZN20complex_dynamic_type3app17h7a1139a52cbf0fe8E+0x54>
   2400e:	481f      	ldr	r0, [pc, #124]	@ (2408c <_ZN20complex_dynamic_type3app17h7a1139a52cbf0fe8E+0x12c>)
   24010:	2109      	movs	r1, #9
   24012:	2400      	movs	r4, #0
   24014:	4622      	mov	r2, r4
   24016:	4623      	mov	r3, r4
   24018:	df02      	svc	2
   2401a:	287f      	cmp	r0, #127	@ 0x7f
   2401c:	d9ca      	bls.n	23fb4 <_ZN20complex_dynamic_type3app17h7a1139a52cbf0fe8E+0x54>
   2401e:	a807      	add	r0, sp, #28
   24020:	7802      	ldrb	r2, [r0, #0]
   24022:	2a02      	cmp	r2, #2
   24024:	d003      	beq.n	2402e <_ZN20complex_dynamic_type3app17h7a1139a52cbf0fe8E+0xce>
   24026:	2109      	movs	r1, #9
   24028:	4630      	mov	r0, r6
   2402a:	f007 f929 	bl	2b280 <_ZN9allow_pin12dynamic_type7unshare17h19052c50f9e150aeE>
   2402e:	a807      	add	r0, sp, #28
   24030:	9d02      	ldr	r5, [sp, #8]
   24032:	7005      	strb	r5, [r0, #0]
   24034:	a811      	add	r0, sp, #68	@ 0x44
   24036:	7802      	ldrb	r2, [r0, #0]
   24038:	2a02      	cmp	r2, #2
   2403a:	d003      	beq.n	24044 <_ZN20complex_dynamic_type3app17h7a1139a52cbf0fe8E+0xe4>
   2403c:	2100      	movs	r1, #0
   2403e:	4630      	mov	r0, r6
   24040:	f007 f91e 	bl	2b280 <_ZN9allow_pin12dynamic_type7unshare17h19052c50f9e150aeE>
   24044:	a811      	add	r0, sp, #68	@ 0x44
   24046:	7005      	strb	r5, [r0, #0]
   24048:	2c00      	cmp	r4, #0
   2404a:	d1b6      	bne.n	23fba <_ZN20complex_dynamic_type3app17h7a1139a52cbf0fe8E+0x5a>
   2404c:	a811      	add	r0, sp, #68	@ 0x44
   2404e:	7804      	ldrb	r4, [r0, #0]
   24050:	2c02      	cmp	r4, #2
   24052:	d001      	beq.n	24058 <_ZN20complex_dynamic_type3app17h7a1139a52cbf0fe8E+0xf8>
   24054:	480e      	ldr	r0, [pc, #56]	@ (24090 <_ZN20complex_dynamic_type3app17h7a1139a52cbf0fe8E+0x130>)
   24056:	9005      	str	r0, [sp, #20]
   24058:	9d06      	ldr	r5, [sp, #24]
   2405a:	1c68      	adds	r0, r5, #1
   2405c:	224f      	movs	r2, #79	@ 0x4f
   2405e:	9905      	ldr	r1, [sp, #20]
   24060:	f007 faf3 	bl	2b64a <__aeabi_memcpy>
   24064:	2000      	movs	r0, #0
   24066:	2c02      	cmp	r4, #2
   24068:	7028      	strb	r0, [r5, #0]
   2406a:	d004      	beq.n	24076 <_ZN20complex_dynamic_type3app17h7a1139a52cbf0fe8E+0x116>
   2406c:	2100      	movs	r1, #0
   2406e:	4630      	mov	r0, r6
   24070:	4622      	mov	r2, r4
   24072:	f007 f905 	bl	2b280 <_ZN9allow_pin12dynamic_type7unshare17h19052c50f9e150aeE>
   24076:	a807      	add	r0, sp, #28
   24078:	7802      	ldrb	r2, [r0, #0]
   2407a:	2a02      	cmp	r2, #2
   2407c:	d003      	beq.n	24086 <_ZN20complex_dynamic_type3app17h7a1139a52cbf0fe8E+0x126>
   2407e:	2109      	movs	r1, #9
   24080:	4630      	mov	r0, r6
   24082:	f007 f8fd 	bl	2b280 <_ZN9allow_pin12dynamic_type7unshare17h19052c50f9e150aeE>
   24086:	b029      	add	sp, #164	@ 0xa4
   24088:	bdf0      	pop	{r4, r5, r6, r7, pc}
   2408a:	46c0      	nop			@ (mov r8, r8)
   2408c:	00000b4c 	.word	0x00000b4c
   24090:	000103df 	.word	0x000103df

00024094 <_ZN20complex_dynamic_type3app17h7a2942304ae837acE>:
   24094:	b5f0      	push	{r4, r5, r6, r7, lr}
   24096:	af03      	add	r7, sp, #12
   24098:	b0a7      	sub	sp, #156	@ 0x9c
   2409a:	9006      	str	r0, [sp, #24]
   2409c:	a807      	add	r0, sp, #28
   2409e:	2502      	movs	r5, #2
   240a0:	7005      	strb	r5, [r0, #0]
   240a2:	1c40      	adds	r0, r0, #1
   240a4:	9004      	str	r0, [sp, #16]
   240a6:	261a      	movs	r6, #26
   240a8:	4632      	mov	r2, r6
   240aa:	f007 face 	bl	2b64a <__aeabi_memcpy>
   240ae:	ac0e      	add	r4, sp, #56	@ 0x38
   240b0:	1c60      	adds	r0, r4, #1
   240b2:	2150      	movs	r1, #80	@ 0x50
   240b4:	9005      	str	r0, [sp, #20]
   240b6:	9103      	str	r1, [sp, #12]
   240b8:	f007 f907 	bl	2b2ca <__aeabi_memclr>
   240bc:	9502      	str	r5, [sp, #8]
   240be:	7025      	strb	r5, [r4, #0]
   240c0:	2404      	movs	r4, #4
   240c2:	9600      	str	r6, [sp, #0]
   240c4:	9401      	str	r4, [sp, #4]
   240c6:	a823      	add	r0, sp, #140	@ 0x8c
   240c8:	4e3c      	ldr	r6, [pc, #240]	@ (241bc <_ZN20complex_dynamic_type3app17h7a2942304ae837acE+0x128>)
   240ca:	2207      	movs	r2, #7
   240cc:	4631      	mov	r1, r6
   240ce:	9b04      	ldr	r3, [sp, #16]
   240d0:	f007 f8e3 	bl	2b29a <_ZN9allow_pin13dynamic_allow17h8bfd3764c146b81aE>
   240d4:	9823      	ldr	r0, [sp, #140]	@ 0x8c
   240d6:	2802      	cmp	r0, #2
   240d8:	d101      	bne.n	240de <_ZN20complex_dynamic_type3app17h7a2942304ae837acE+0x4a>
   240da:	9924      	ldr	r1, [sp, #144]	@ 0x90
   240dc:	e001      	b.n	240e2 <_ZN20complex_dynamic_type3app17h7a2942304ae837acE+0x4e>
   240de:	a907      	add	r1, sp, #28
   240e0:	700c      	strb	r4, [r1, #0]
   240e2:	2501      	movs	r5, #1
   240e4:	2802      	cmp	r0, #2
   240e6:	d024      	beq.n	24132 <_ZN20complex_dynamic_type3app17h7a2942304ae837acE+0x9e>
   240e8:	a80e      	add	r0, sp, #56	@ 0x38
   240ea:	7800      	ldrb	r0, [r0, #0]
   240ec:	2802      	cmp	r0, #2
   240ee:	d10e      	bne.n	2410e <_ZN20complex_dynamic_type3app17h7a2942304ae837acE+0x7a>
   240f0:	2403      	movs	r4, #3
   240f2:	9803      	ldr	r0, [sp, #12]
   240f4:	9000      	str	r0, [sp, #0]
   240f6:	9401      	str	r4, [sp, #4]
   240f8:	a823      	add	r0, sp, #140	@ 0x8c
   240fa:	2204      	movs	r2, #4
   240fc:	4631      	mov	r1, r6
   240fe:	9b05      	ldr	r3, [sp, #20]
   24100:	f007 f8cb 	bl	2b29a <_ZN9allow_pin13dynamic_allow17h8bfd3764c146b81aE>
   24104:	9823      	ldr	r0, [sp, #140]	@ 0x8c
   24106:	2802      	cmp	r0, #2
   24108:	d106      	bne.n	24118 <_ZN20complex_dynamic_type3app17h7a2942304ae837acE+0x84>
   2410a:	9924      	ldr	r1, [sp, #144]	@ 0x90
   2410c:	e000      	b.n	24110 <_ZN20complex_dynamic_type3app17h7a2942304ae837acE+0x7c>
   2410e:	2103      	movs	r1, #3
   24110:	4628      	mov	r0, r5
   24112:	2800      	cmp	r0, #0
   24114:	d005      	beq.n	24122 <_ZN20complex_dynamic_type3app17h7a2942304ae837acE+0x8e>
   24116:	e00c      	b.n	24132 <_ZN20complex_dynamic_type3app17h7a2942304ae837acE+0x9e>
   24118:	a80e      	add	r0, sp, #56	@ 0x38
   2411a:	7004      	strb	r4, [r0, #0]
   2411c:	2000      	movs	r0, #0
   2411e:	2800      	cmp	r0, #0
   24120:	d107      	bne.n	24132 <_ZN20complex_dynamic_type3app17h7a2942304ae837acE+0x9e>
   24122:	4826      	ldr	r0, [pc, #152]	@ (241bc <_ZN20complex_dynamic_type3app17h7a2942304ae837acE+0x128>)
   24124:	2107      	movs	r1, #7
   24126:	2204      	movs	r2, #4
   24128:	2400      	movs	r4, #0
   2412a:	4623      	mov	r3, r4
   2412c:	df02      	svc	2
   2412e:	287f      	cmp	r0, #127	@ 0x7f
   24130:	d80d      	bhi.n	2414e <_ZN20complex_dynamic_type3app17h7a2942304ae837acE+0xba>
   24132:	462c      	mov	r4, r5
   24134:	2c00      	cmp	r4, #0
   24136:	d021      	beq.n	2417c <_ZN20complex_dynamic_type3app17h7a2942304ae837acE+0xe8>
   24138:	2001      	movs	r0, #1
   2413a:	9a06      	ldr	r2, [sp, #24]
   2413c:	7010      	strb	r0, [r2, #0]
   2413e:	6051      	str	r1, [r2, #4]
   24140:	a80e      	add	r0, sp, #56	@ 0x38
   24142:	7802      	ldrb	r2, [r0, #0]
   24144:	2a02      	cmp	r2, #2
   24146:	d02e      	beq.n	241a6 <_ZN20complex_dynamic_type3app17h7a2942304ae837acE+0x112>
   24148:	2104      	movs	r1, #4
   2414a:	4630      	mov	r0, r6
   2414c:	e029      	b.n	241a2 <_ZN20complex_dynamic_type3app17h7a2942304ae837acE+0x10e>
   2414e:	a807      	add	r0, sp, #28
   24150:	7802      	ldrb	r2, [r0, #0]
   24152:	2a02      	cmp	r2, #2
   24154:	d003      	beq.n	2415e <_ZN20complex_dynamic_type3app17h7a2942304ae837acE+0xca>
   24156:	2107      	movs	r1, #7
   24158:	4630      	mov	r0, r6
   2415a:	f007 f891 	bl	2b280 <_ZN9allow_pin12dynamic_type7unshare17h19052c50f9e150aeE>
   2415e:	a807      	add	r0, sp, #28
   24160:	9d02      	ldr	r5, [sp, #8]
   24162:	7005      	strb	r5, [r0, #0]
   24164:	a80e      	add	r0, sp, #56	@ 0x38
   24166:	7802      	ldrb	r2, [r0, #0]
   24168:	2a02      	cmp	r2, #2
   2416a:	d003      	beq.n	24174 <_ZN20complex_dynamic_type3app17h7a2942304ae837acE+0xe0>
   2416c:	2104      	movs	r1, #4
   2416e:	4630      	mov	r0, r6
   24170:	f007 f886 	bl	2b280 <_ZN9allow_pin12dynamic_type7unshare17h19052c50f9e150aeE>
   24174:	a80e      	add	r0, sp, #56	@ 0x38
   24176:	7005      	strb	r5, [r0, #0]
   24178:	2c00      	cmp	r4, #0
   2417a:	d1dd      	bne.n	24138 <_ZN20complex_dynamic_type3app17h7a2942304ae837acE+0xa4>
   2417c:	a80e      	add	r0, sp, #56	@ 0x38
   2417e:	7804      	ldrb	r4, [r0, #0]
   24180:	2c02      	cmp	r4, #2
   24182:	d001      	beq.n	24188 <_ZN20complex_dynamic_type3app17h7a2942304ae837acE+0xf4>
   24184:	480e      	ldr	r0, [pc, #56]	@ (241c0 <_ZN20complex_dynamic_type3app17h7a2942304ae837acE+0x12c>)
   24186:	9005      	str	r0, [sp, #20]
   24188:	9d06      	ldr	r5, [sp, #24]
   2418a:	1c68      	adds	r0, r5, #1
   2418c:	2250      	movs	r2, #80	@ 0x50
   2418e:	9905      	ldr	r1, [sp, #20]
   24190:	f007 fa5b 	bl	2b64a <__aeabi_memcpy>
   24194:	2000      	movs	r0, #0
   24196:	2c02      	cmp	r4, #2
   24198:	7028      	strb	r0, [r5, #0]
   2419a:	d004      	beq.n	241a6 <_ZN20complex_dynamic_type3app17h7a2942304ae837acE+0x112>
   2419c:	2104      	movs	r1, #4
   2419e:	4630      	mov	r0, r6
   241a0:	4622      	mov	r2, r4
   241a2:	f007 f86d 	bl	2b280 <_ZN9allow_pin12dynamic_type7unshare17h19052c50f9e150aeE>
   241a6:	a807      	add	r0, sp, #28
   241a8:	7802      	ldrb	r2, [r0, #0]
   241aa:	2a02      	cmp	r2, #2
   241ac:	d003      	beq.n	241b6 <_ZN20complex_dynamic_type3app17h7a2942304ae837acE+0x122>
   241ae:	2107      	movs	r1, #7
   241b0:	4630      	mov	r0, r6
   241b2:	f007 f865 	bl	2b280 <_ZN9allow_pin12dynamic_type7unshare17h19052c50f9e150aeE>
   241b6:	b027      	add	sp, #156	@ 0x9c
   241b8:	bdf0      	pop	{r4, r5, r6, r7, pc}
   241ba:	46c0      	nop			@ (mov r8, r8)
   241bc:	00000aee 	.word	0x00000aee
   241c0:	00010899 	.word	0x00010899

000241c4 <_ZN20complex_dynamic_type3app17h7a9ae0772e7bb5d3E>:
   241c4:	b5f0      	push	{r4, r5, r6, r7, lr}
   241c6:	af03      	add	r7, sp, #12
   241c8:	b0a1      	sub	sp, #132	@ 0x84
   241ca:	9007      	str	r0, [sp, #28]
   241cc:	a808      	add	r0, sp, #32
   241ce:	2402      	movs	r4, #2
   241d0:	7004      	strb	r4, [r0, #0]
   241d2:	1c40      	adds	r0, r0, #1
   241d4:	9005      	str	r0, [sp, #20]
   241d6:	2611      	movs	r6, #17
   241d8:	4632      	mov	r2, r6
   241da:	f007 fa36 	bl	2b64a <__aeabi_memcpy>
   241de:	ad0d      	add	r5, sp, #52	@ 0x34
   241e0:	1c68      	adds	r0, r5, #1
   241e2:	213f      	movs	r1, #63	@ 0x3f
   241e4:	9006      	str	r0, [sp, #24]
   241e6:	9104      	str	r1, [sp, #16]
   241e8:	f007 f86f 	bl	2b2ca <__aeabi_memclr>
   241ec:	9403      	str	r4, [sp, #12]
   241ee:	702c      	strb	r4, [r5, #0]
   241f0:	2504      	movs	r5, #4
   241f2:	9600      	str	r6, [sp, #0]
   241f4:	9501      	str	r5, [sp, #4]
   241f6:	20cb      	movs	r0, #203	@ 0xcb
   241f8:	0106      	lsls	r6, r0, #4
   241fa:	a81d      	add	r0, sp, #116	@ 0x74
   241fc:	2207      	movs	r2, #7
   241fe:	4631      	mov	r1, r6
   24200:	9b05      	ldr	r3, [sp, #20]
   24202:	f007 f84a 	bl	2b29a <_ZN9allow_pin13dynamic_allow17h8bfd3764c146b81aE>
   24206:	981d      	ldr	r0, [sp, #116]	@ 0x74
   24208:	2802      	cmp	r0, #2
   2420a:	d101      	bne.n	24210 <_ZN20complex_dynamic_type3app17h7a9ae0772e7bb5d3E+0x4c>
   2420c:	991e      	ldr	r1, [sp, #120]	@ 0x78
   2420e:	e001      	b.n	24214 <_ZN20complex_dynamic_type3app17h7a9ae0772e7bb5d3E+0x50>
   24210:	a908      	add	r1, sp, #32
   24212:	700d      	strb	r5, [r1, #0]
   24214:	2401      	movs	r4, #1
   24216:	2802      	cmp	r0, #2
   24218:	d024      	beq.n	24264 <_ZN20complex_dynamic_type3app17h7a9ae0772e7bb5d3E+0xa0>
   2421a:	a80d      	add	r0, sp, #52	@ 0x34
   2421c:	7800      	ldrb	r0, [r0, #0]
   2421e:	2802      	cmp	r0, #2
   24220:	d10e      	bne.n	24240 <_ZN20complex_dynamic_type3app17h7a9ae0772e7bb5d3E+0x7c>
   24222:	2503      	movs	r5, #3
   24224:	9804      	ldr	r0, [sp, #16]
   24226:	9000      	str	r0, [sp, #0]
   24228:	9501      	str	r5, [sp, #4]
   2422a:	a81d      	add	r0, sp, #116	@ 0x74
   2422c:	2204      	movs	r2, #4
   2422e:	4631      	mov	r1, r6
   24230:	9b06      	ldr	r3, [sp, #24]
   24232:	f007 f832 	bl	2b29a <_ZN9allow_pin13dynamic_allow17h8bfd3764c146b81aE>
   24236:	981d      	ldr	r0, [sp, #116]	@ 0x74
   24238:	2802      	cmp	r0, #2
   2423a:	d106      	bne.n	2424a <_ZN20complex_dynamic_type3app17h7a9ae0772e7bb5d3E+0x86>
   2423c:	991e      	ldr	r1, [sp, #120]	@ 0x78
   2423e:	e000      	b.n	24242 <_ZN20complex_dynamic_type3app17h7a9ae0772e7bb5d3E+0x7e>
   24240:	2103      	movs	r1, #3
   24242:	4620      	mov	r0, r4
   24244:	2800      	cmp	r0, #0
   24246:	d005      	beq.n	24254 <_ZN20complex_dynamic_type3app17h7a9ae0772e7bb5d3E+0x90>
   24248:	e00c      	b.n	24264 <_ZN20complex_dynamic_type3app17h7a9ae0772e7bb5d3E+0xa0>
   2424a:	a80d      	add	r0, sp, #52	@ 0x34
   2424c:	7005      	strb	r5, [r0, #0]
   2424e:	2000      	movs	r0, #0
   24250:	2800      	cmp	r0, #0
   24252:	d107      	bne.n	24264 <_ZN20complex_dynamic_type3app17h7a9ae0772e7bb5d3E+0xa0>
   24254:	2107      	movs	r1, #7
   24256:	2204      	movs	r2, #4
   24258:	2500      	movs	r5, #0
   2425a:	4630      	mov	r0, r6
   2425c:	462b      	mov	r3, r5
   2425e:	df02      	svc	2
   24260:	287f      	cmp	r0, #127	@ 0x7f
   24262:	d80d      	bhi.n	24280 <_ZN20complex_dynamic_type3app17h7a9ae0772e7bb5d3E+0xbc>
   24264:	4625      	mov	r5, r4
   24266:	2d00      	cmp	r5, #0
   24268:	d021      	beq.n	242ae <_ZN20complex_dynamic_type3app17h7a9ae0772e7bb5d3E+0xea>
   2426a:	2001      	movs	r0, #1
   2426c:	9a07      	ldr	r2, [sp, #28]
   2426e:	7010      	strb	r0, [r2, #0]
   24270:	6051      	str	r1, [r2, #4]
   24272:	a80d      	add	r0, sp, #52	@ 0x34
   24274:	7802      	ldrb	r2, [r0, #0]
   24276:	2a02      	cmp	r2, #2
   24278:	d02e      	beq.n	242d8 <_ZN20complex_dynamic_type3app17h7a9ae0772e7bb5d3E+0x114>
   2427a:	2104      	movs	r1, #4
   2427c:	4630      	mov	r0, r6
   2427e:	e029      	b.n	242d4 <_ZN20complex_dynamic_type3app17h7a9ae0772e7bb5d3E+0x110>
   24280:	a808      	add	r0, sp, #32
   24282:	7802      	ldrb	r2, [r0, #0]
   24284:	2a02      	cmp	r2, #2
   24286:	d003      	beq.n	24290 <_ZN20complex_dynamic_type3app17h7a9ae0772e7bb5d3E+0xcc>
   24288:	2107      	movs	r1, #7
   2428a:	4630      	mov	r0, r6
   2428c:	f006 fff8 	bl	2b280 <_ZN9allow_pin12dynamic_type7unshare17h19052c50f9e150aeE>
   24290:	a808      	add	r0, sp, #32
   24292:	9c03      	ldr	r4, [sp, #12]
   24294:	7004      	strb	r4, [r0, #0]
   24296:	a80d      	add	r0, sp, #52	@ 0x34
   24298:	7802      	ldrb	r2, [r0, #0]
   2429a:	2a02      	cmp	r2, #2
   2429c:	d003      	beq.n	242a6 <_ZN20complex_dynamic_type3app17h7a9ae0772e7bb5d3E+0xe2>
   2429e:	2104      	movs	r1, #4
   242a0:	4630      	mov	r0, r6
   242a2:	f006 ffed 	bl	2b280 <_ZN9allow_pin12dynamic_type7unshare17h19052c50f9e150aeE>
   242a6:	a80d      	add	r0, sp, #52	@ 0x34
   242a8:	7004      	strb	r4, [r0, #0]
   242aa:	2d00      	cmp	r5, #0
   242ac:	d1dd      	bne.n	2426a <_ZN20complex_dynamic_type3app17h7a9ae0772e7bb5d3E+0xa6>
   242ae:	a80d      	add	r0, sp, #52	@ 0x34
   242b0:	7805      	ldrb	r5, [r0, #0]
   242b2:	2d02      	cmp	r5, #2
   242b4:	d001      	beq.n	242ba <_ZN20complex_dynamic_type3app17h7a9ae0772e7bb5d3E+0xf6>
   242b6:	480d      	ldr	r0, [pc, #52]	@ (242ec <_ZN20complex_dynamic_type3app17h7a9ae0772e7bb5d3E+0x128>)
   242b8:	9006      	str	r0, [sp, #24]
   242ba:	9c07      	ldr	r4, [sp, #28]
   242bc:	1c60      	adds	r0, r4, #1
   242be:	223f      	movs	r2, #63	@ 0x3f
   242c0:	9906      	ldr	r1, [sp, #24]
   242c2:	f007 f9c2 	bl	2b64a <__aeabi_memcpy>
   242c6:	2000      	movs	r0, #0
   242c8:	2d02      	cmp	r5, #2
   242ca:	7020      	strb	r0, [r4, #0]
   242cc:	d004      	beq.n	242d8 <_ZN20complex_dynamic_type3app17h7a9ae0772e7bb5d3E+0x114>
   242ce:	2104      	movs	r1, #4
   242d0:	4630      	mov	r0, r6
   242d2:	462a      	mov	r2, r5
   242d4:	f006 ffd4 	bl	2b280 <_ZN9allow_pin12dynamic_type7unshare17h19052c50f9e150aeE>
   242d8:	a808      	add	r0, sp, #32
   242da:	7802      	ldrb	r2, [r0, #0]
   242dc:	2a02      	cmp	r2, #2
   242de:	d003      	beq.n	242e8 <_ZN20complex_dynamic_type3app17h7a9ae0772e7bb5d3E+0x124>
   242e0:	2107      	movs	r1, #7
   242e2:	4630      	mov	r0, r6
   242e4:	f006 ffcc 	bl	2b280 <_ZN9allow_pin12dynamic_type7unshare17h19052c50f9e150aeE>
   242e8:	b021      	add	sp, #132	@ 0x84
   242ea:	bdf0      	pop	{r4, r5, r6, r7, pc}
   242ec:	000101a3 	.word	0x000101a3

000242f0 <_ZN20complex_dynamic_type3app17h84a56c60306bdfcfE>:
   242f0:	b5f0      	push	{r4, r5, r6, r7, lr}
   242f2:	af03      	add	r7, sp, #12
   242f4:	b0a1      	sub	sp, #132	@ 0x84
   242f6:	9006      	str	r0, [sp, #24]
   242f8:	a807      	add	r0, sp, #28
   242fa:	2502      	movs	r5, #2
   242fc:	7005      	strb	r5, [r0, #0]
   242fe:	1c40      	adds	r0, r0, #1
   24300:	9004      	str	r0, [sp, #16]
   24302:	262c      	movs	r6, #44	@ 0x2c
   24304:	4632      	mov	r2, r6
   24306:	f007 f9a0 	bl	2b64a <__aeabi_memcpy>
   2430a:	ac13      	add	r4, sp, #76	@ 0x4c
   2430c:	1c60      	adds	r0, r4, #1
   2430e:	2127      	movs	r1, #39	@ 0x27
   24310:	9005      	str	r0, [sp, #20]
   24312:	9103      	str	r1, [sp, #12]
   24314:	f006 ffd9 	bl	2b2ca <__aeabi_memclr>
   24318:	9502      	str	r5, [sp, #8]
   2431a:	7025      	strb	r5, [r4, #0]
   2431c:	2404      	movs	r4, #4
   2431e:	9600      	str	r6, [sp, #0]
   24320:	9401      	str	r4, [sp, #4]
   24322:	a81d      	add	r0, sp, #116	@ 0x74
   24324:	4e3c      	ldr	r6, [pc, #240]	@ (24418 <_ZN20complex_dynamic_type3app17h84a56c60306bdfcfE+0x128>)
   24326:	4631      	mov	r1, r6
   24328:	4622      	mov	r2, r4
   2432a:	9b04      	ldr	r3, [sp, #16]
   2432c:	f006 ffb5 	bl	2b29a <_ZN9allow_pin13dynamic_allow17h8bfd3764c146b81aE>
   24330:	981d      	ldr	r0, [sp, #116]	@ 0x74
   24332:	2802      	cmp	r0, #2
   24334:	d101      	bne.n	2433a <_ZN20complex_dynamic_type3app17h84a56c60306bdfcfE+0x4a>
   24336:	991e      	ldr	r1, [sp, #120]	@ 0x78
   24338:	e001      	b.n	2433e <_ZN20complex_dynamic_type3app17h84a56c60306bdfcfE+0x4e>
   2433a:	a907      	add	r1, sp, #28
   2433c:	700c      	strb	r4, [r1, #0]
   2433e:	2501      	movs	r5, #1
   24340:	2802      	cmp	r0, #2
   24342:	d024      	beq.n	2438e <_ZN20complex_dynamic_type3app17h84a56c60306bdfcfE+0x9e>
   24344:	a813      	add	r0, sp, #76	@ 0x4c
   24346:	7800      	ldrb	r0, [r0, #0]
   24348:	2802      	cmp	r0, #2
   2434a:	d10e      	bne.n	2436a <_ZN20complex_dynamic_type3app17h84a56c60306bdfcfE+0x7a>
   2434c:	2403      	movs	r4, #3
   2434e:	9803      	ldr	r0, [sp, #12]
   24350:	9000      	str	r0, [sp, #0]
   24352:	9401      	str	r4, [sp, #4]
   24354:	a81d      	add	r0, sp, #116	@ 0x74
   24356:	4631      	mov	r1, r6
   24358:	4622      	mov	r2, r4
   2435a:	9b05      	ldr	r3, [sp, #20]
   2435c:	f006 ff9d 	bl	2b29a <_ZN9allow_pin13dynamic_allow17h8bfd3764c146b81aE>
   24360:	981d      	ldr	r0, [sp, #116]	@ 0x74
   24362:	2802      	cmp	r0, #2
   24364:	d106      	bne.n	24374 <_ZN20complex_dynamic_type3app17h84a56c60306bdfcfE+0x84>
   24366:	991e      	ldr	r1, [sp, #120]	@ 0x78
   24368:	e000      	b.n	2436c <_ZN20complex_dynamic_type3app17h84a56c60306bdfcfE+0x7c>
   2436a:	2103      	movs	r1, #3
   2436c:	4628      	mov	r0, r5
   2436e:	2800      	cmp	r0, #0
   24370:	d005      	beq.n	2437e <_ZN20complex_dynamic_type3app17h84a56c60306bdfcfE+0x8e>
   24372:	e00c      	b.n	2438e <_ZN20complex_dynamic_type3app17h84a56c60306bdfcfE+0x9e>
   24374:	a813      	add	r0, sp, #76	@ 0x4c
   24376:	7004      	strb	r4, [r0, #0]
   24378:	2000      	movs	r0, #0
   2437a:	2800      	cmp	r0, #0
   2437c:	d107      	bne.n	2438e <_ZN20complex_dynamic_type3app17h84a56c60306bdfcfE+0x9e>
   2437e:	4826      	ldr	r0, [pc, #152]	@ (24418 <_ZN20complex_dynamic_type3app17h84a56c60306bdfcfE+0x128>)
   24380:	2104      	movs	r1, #4
   24382:	2203      	movs	r2, #3
   24384:	2400      	movs	r4, #0
   24386:	4623      	mov	r3, r4
   24388:	df02      	svc	2
   2438a:	287f      	cmp	r0, #127	@ 0x7f
   2438c:	d80d      	bhi.n	243aa <_ZN20complex_dynamic_type3app17h84a56c60306bdfcfE+0xba>
   2438e:	462c      	mov	r4, r5
   24390:	2c00      	cmp	r4, #0
   24392:	d021      	beq.n	243d8 <_ZN20complex_dynamic_type3app17h84a56c60306bdfcfE+0xe8>
   24394:	2001      	movs	r0, #1
   24396:	9a06      	ldr	r2, [sp, #24]
   24398:	7010      	strb	r0, [r2, #0]
   2439a:	6051      	str	r1, [r2, #4]
   2439c:	a813      	add	r0, sp, #76	@ 0x4c
   2439e:	7802      	ldrb	r2, [r0, #0]
   243a0:	2a02      	cmp	r2, #2
   243a2:	d02e      	beq.n	24402 <_ZN20complex_dynamic_type3app17h84a56c60306bdfcfE+0x112>
   243a4:	2103      	movs	r1, #3
   243a6:	4630      	mov	r0, r6
   243a8:	e029      	b.n	243fe <_ZN20complex_dynamic_type3app17h84a56c60306bdfcfE+0x10e>
   243aa:	a807      	add	r0, sp, #28
   243ac:	7802      	ldrb	r2, [r0, #0]
   243ae:	2a02      	cmp	r2, #2
   243b0:	d003      	beq.n	243ba <_ZN20complex_dynamic_type3app17h84a56c60306bdfcfE+0xca>
   243b2:	2104      	movs	r1, #4
   243b4:	4630      	mov	r0, r6
   243b6:	f006 ff63 	bl	2b280 <_ZN9allow_pin12dynamic_type7unshare17h19052c50f9e150aeE>
   243ba:	a807      	add	r0, sp, #28
   243bc:	9d02      	ldr	r5, [sp, #8]
   243be:	7005      	strb	r5, [r0, #0]
   243c0:	a813      	add	r0, sp, #76	@ 0x4c
   243c2:	7802      	ldrb	r2, [r0, #0]
   243c4:	2a02      	cmp	r2, #2
   243c6:	d003      	beq.n	243d0 <_ZN20complex_dynamic_type3app17h84a56c60306bdfcfE+0xe0>
   243c8:	2103      	movs	r1, #3
   243ca:	4630      	mov	r0, r6
   243cc:	f006 ff58 	bl	2b280 <_ZN9allow_pin12dynamic_type7unshare17h19052c50f9e150aeE>
   243d0:	a813      	add	r0, sp, #76	@ 0x4c
   243d2:	7005      	strb	r5, [r0, #0]
   243d4:	2c00      	cmp	r4, #0
   243d6:	d1dd      	bne.n	24394 <_ZN20complex_dynamic_type3app17h84a56c60306bdfcfE+0xa4>
   243d8:	a813      	add	r0, sp, #76	@ 0x4c
   243da:	7804      	ldrb	r4, [r0, #0]
   243dc:	2c02      	cmp	r4, #2
   243de:	d001      	beq.n	243e4 <_ZN20complex_dynamic_type3app17h84a56c60306bdfcfE+0xf4>
   243e0:	480e      	ldr	r0, [pc, #56]	@ (2441c <_ZN20complex_dynamic_type3app17h84a56c60306bdfcfE+0x12c>)
   243e2:	9005      	str	r0, [sp, #20]
   243e4:	9d06      	ldr	r5, [sp, #24]
   243e6:	1c68      	adds	r0, r5, #1
   243e8:	2227      	movs	r2, #39	@ 0x27
   243ea:	9905      	ldr	r1, [sp, #20]
   243ec:	f007 f92d 	bl	2b64a <__aeabi_memcpy>
   243f0:	2000      	movs	r0, #0
   243f2:	2c02      	cmp	r4, #2
   243f4:	7028      	strb	r0, [r5, #0]
   243f6:	d004      	beq.n	24402 <_ZN20complex_dynamic_type3app17h84a56c60306bdfcfE+0x112>
   243f8:	2103      	movs	r1, #3
   243fa:	4630      	mov	r0, r6
   243fc:	4622      	mov	r2, r4
   243fe:	f006 ff3f 	bl	2b280 <_ZN9allow_pin12dynamic_type7unshare17h19052c50f9e150aeE>
   24402:	a807      	add	r0, sp, #28
   24404:	7802      	ldrb	r2, [r0, #0]
   24406:	2a02      	cmp	r2, #2
   24408:	d003      	beq.n	24412 <_ZN20complex_dynamic_type3app17h84a56c60306bdfcfE+0x122>
   2440a:	2104      	movs	r1, #4
   2440c:	4630      	mov	r0, r6
   2440e:	f006 ff37 	bl	2b280 <_ZN9allow_pin12dynamic_type7unshare17h19052c50f9e150aeE>
   24412:	b021      	add	sp, #132	@ 0x84
   24414:	bdf0      	pop	{r4, r5, r6, r7, pc}
   24416:	46c0      	nop			@ (mov r8, r8)
   24418:	000011b5 	.word	0x000011b5
   2441c:	0001021e 	.word	0x0001021e

00024420 <_ZN20complex_dynamic_type3app17h88839b9c22ed05edE>:
   24420:	b5f0      	push	{r4, r5, r6, r7, lr}
   24422:	af03      	add	r7, sp, #12
   24424:	b09f      	sub	sp, #124	@ 0x7c
   24426:	9007      	str	r0, [sp, #28]
   24428:	a808      	add	r0, sp, #32
   2442a:	2502      	movs	r5, #2
   2442c:	7005      	strb	r5, [r0, #0]
   2442e:	1c40      	adds	r0, r0, #1
   24430:	9005      	str	r0, [sp, #20]
   24432:	2623      	movs	r6, #35	@ 0x23
   24434:	4632      	mov	r2, r6
   24436:	f007 f908 	bl	2b64a <__aeabi_memcpy>
   2443a:	ac11      	add	r4, sp, #68	@ 0x44
   2443c:	1c60      	adds	r0, r4, #1
   2443e:	2124      	movs	r1, #36	@ 0x24
   24440:	9006      	str	r0, [sp, #24]
   24442:	9104      	str	r1, [sp, #16]
   24444:	f006 ff41 	bl	2b2ca <__aeabi_memclr>
   24448:	9503      	str	r5, [sp, #12]
   2444a:	7025      	strb	r5, [r4, #0]
   2444c:	2404      	movs	r4, #4
   2444e:	9600      	str	r6, [sp, #0]
   24450:	9401      	str	r4, [sp, #4]
   24452:	a81b      	add	r0, sp, #108	@ 0x6c
   24454:	4e3c      	ldr	r6, [pc, #240]	@ (24548 <_ZN20complex_dynamic_type3app17h88839b9c22ed05edE+0x128>)
   24456:	4631      	mov	r1, r6
   24458:	4622      	mov	r2, r4
   2445a:	9b05      	ldr	r3, [sp, #20]
   2445c:	f006 ff1d 	bl	2b29a <_ZN9allow_pin13dynamic_allow17h8bfd3764c146b81aE>
   24460:	981b      	ldr	r0, [sp, #108]	@ 0x6c
   24462:	2802      	cmp	r0, #2
   24464:	d101      	bne.n	2446a <_ZN20complex_dynamic_type3app17h88839b9c22ed05edE+0x4a>
   24466:	991c      	ldr	r1, [sp, #112]	@ 0x70
   24468:	e001      	b.n	2446e <_ZN20complex_dynamic_type3app17h88839b9c22ed05edE+0x4e>
   2446a:	a908      	add	r1, sp, #32
   2446c:	700c      	strb	r4, [r1, #0]
   2446e:	2501      	movs	r5, #1
   24470:	2802      	cmp	r0, #2
   24472:	d024      	beq.n	244be <_ZN20complex_dynamic_type3app17h88839b9c22ed05edE+0x9e>
   24474:	a811      	add	r0, sp, #68	@ 0x44
   24476:	7800      	ldrb	r0, [r0, #0]
   24478:	2802      	cmp	r0, #2
   2447a:	d10e      	bne.n	2449a <_ZN20complex_dynamic_type3app17h88839b9c22ed05edE+0x7a>
   2447c:	2403      	movs	r4, #3
   2447e:	9804      	ldr	r0, [sp, #16]
   24480:	9000      	str	r0, [sp, #0]
   24482:	9401      	str	r4, [sp, #4]
   24484:	a81b      	add	r0, sp, #108	@ 0x6c
   24486:	2208      	movs	r2, #8
   24488:	4631      	mov	r1, r6
   2448a:	9b06      	ldr	r3, [sp, #24]
   2448c:	f006 ff05 	bl	2b29a <_ZN9allow_pin13dynamic_allow17h8bfd3764c146b81aE>
   24490:	981b      	ldr	r0, [sp, #108]	@ 0x6c
   24492:	2802      	cmp	r0, #2
   24494:	d106      	bne.n	244a4 <_ZN20complex_dynamic_type3app17h88839b9c22ed05edE+0x84>
   24496:	991c      	ldr	r1, [sp, #112]	@ 0x70
   24498:	e000      	b.n	2449c <_ZN20complex_dynamic_type3app17h88839b9c22ed05edE+0x7c>
   2449a:	2103      	movs	r1, #3
   2449c:	4628      	mov	r0, r5
   2449e:	2800      	cmp	r0, #0
   244a0:	d005      	beq.n	244ae <_ZN20complex_dynamic_type3app17h88839b9c22ed05edE+0x8e>
   244a2:	e00c      	b.n	244be <_ZN20complex_dynamic_type3app17h88839b9c22ed05edE+0x9e>
   244a4:	a811      	add	r0, sp, #68	@ 0x44
   244a6:	7004      	strb	r4, [r0, #0]
   244a8:	2000      	movs	r0, #0
   244aa:	2800      	cmp	r0, #0
   244ac:	d107      	bne.n	244be <_ZN20complex_dynamic_type3app17h88839b9c22ed05edE+0x9e>
   244ae:	4826      	ldr	r0, [pc, #152]	@ (24548 <_ZN20complex_dynamic_type3app17h88839b9c22ed05edE+0x128>)
   244b0:	2104      	movs	r1, #4
   244b2:	2208      	movs	r2, #8
   244b4:	2400      	movs	r4, #0
   244b6:	4623      	mov	r3, r4
   244b8:	df02      	svc	2
   244ba:	287f      	cmp	r0, #127	@ 0x7f
   244bc:	d80d      	bhi.n	244da <_ZN20complex_dynamic_type3app17h88839b9c22ed05edE+0xba>
   244be:	462c      	mov	r4, r5
   244c0:	2c00      	cmp	r4, #0
   244c2:	d021      	beq.n	24508 <_ZN20complex_dynamic_type3app17h88839b9c22ed05edE+0xe8>
   244c4:	2001      	movs	r0, #1
   244c6:	9a07      	ldr	r2, [sp, #28]
   244c8:	7010      	strb	r0, [r2, #0]
   244ca:	6051      	str	r1, [r2, #4]
   244cc:	a811      	add	r0, sp, #68	@ 0x44
   244ce:	7802      	ldrb	r2, [r0, #0]
   244d0:	2a02      	cmp	r2, #2
   244d2:	d02e      	beq.n	24532 <_ZN20complex_dynamic_type3app17h88839b9c22ed05edE+0x112>
   244d4:	2108      	movs	r1, #8
   244d6:	4630      	mov	r0, r6
   244d8:	e029      	b.n	2452e <_ZN20complex_dynamic_type3app17h88839b9c22ed05edE+0x10e>
   244da:	a808      	add	r0, sp, #32
   244dc:	7802      	ldrb	r2, [r0, #0]
   244de:	2a02      	cmp	r2, #2
   244e0:	d003      	beq.n	244ea <_ZN20complex_dynamic_type3app17h88839b9c22ed05edE+0xca>
   244e2:	2104      	movs	r1, #4
   244e4:	4630      	mov	r0, r6
   244e6:	f006 fecb 	bl	2b280 <_ZN9allow_pin12dynamic_type7unshare17h19052c50f9e150aeE>
   244ea:	a808      	add	r0, sp, #32
   244ec:	9d03      	ldr	r5, [sp, #12]
   244ee:	7005      	strb	r5, [r0, #0]
   244f0:	a811      	add	r0, sp, #68	@ 0x44
   244f2:	7802      	ldrb	r2, [r0, #0]
   244f4:	2a02      	cmp	r2, #2
   244f6:	d003      	beq.n	24500 <_ZN20complex_dynamic_type3app17h88839b9c22ed05edE+0xe0>
   244f8:	2108      	movs	r1, #8
   244fa:	4630      	mov	r0, r6
   244fc:	f006 fec0 	bl	2b280 <_ZN9allow_pin12dynamic_type7unshare17h19052c50f9e150aeE>
   24500:	a811      	add	r0, sp, #68	@ 0x44
   24502:	7005      	strb	r5, [r0, #0]
   24504:	2c00      	cmp	r4, #0
   24506:	d1dd      	bne.n	244c4 <_ZN20complex_dynamic_type3app17h88839b9c22ed05edE+0xa4>
   24508:	a811      	add	r0, sp, #68	@ 0x44
   2450a:	7804      	ldrb	r4, [r0, #0]
   2450c:	2c02      	cmp	r4, #2
   2450e:	d001      	beq.n	24514 <_ZN20complex_dynamic_type3app17h88839b9c22ed05edE+0xf4>
   24510:	480e      	ldr	r0, [pc, #56]	@ (2454c <_ZN20complex_dynamic_type3app17h88839b9c22ed05edE+0x12c>)
   24512:	9006      	str	r0, [sp, #24]
   24514:	9d07      	ldr	r5, [sp, #28]
   24516:	1c68      	adds	r0, r5, #1
   24518:	2224      	movs	r2, #36	@ 0x24
   2451a:	9906      	ldr	r1, [sp, #24]
   2451c:	f007 f895 	bl	2b64a <__aeabi_memcpy>
   24520:	2000      	movs	r0, #0
   24522:	2c02      	cmp	r4, #2
   24524:	7028      	strb	r0, [r5, #0]
   24526:	d004      	beq.n	24532 <_ZN20complex_dynamic_type3app17h88839b9c22ed05edE+0x112>
   24528:	2108      	movs	r1, #8
   2452a:	4630      	mov	r0, r6
   2452c:	4622      	mov	r2, r4
   2452e:	f006 fea7 	bl	2b280 <_ZN9allow_pin12dynamic_type7unshare17h19052c50f9e150aeE>
   24532:	a808      	add	r0, sp, #32
   24534:	7802      	ldrb	r2, [r0, #0]
   24536:	2a02      	cmp	r2, #2
   24538:	d003      	beq.n	24542 <_ZN20complex_dynamic_type3app17h88839b9c22ed05edE+0x122>
   2453a:	2104      	movs	r1, #4
   2453c:	4630      	mov	r0, r6
   2453e:	f006 fe9f 	bl	2b280 <_ZN9allow_pin12dynamic_type7unshare17h19052c50f9e150aeE>
   24542:	b01f      	add	sp, #124	@ 0x7c
   24544:	bdf0      	pop	{r4, r5, r6, r7, pc}
   24546:	46c0      	nop			@ (mov r8, r8)
   24548:	00001bd6 	.word	0x00001bd6
   2454c:	00010453 	.word	0x00010453

00024550 <_ZN20complex_dynamic_type3app17h8c22f3f5950cf90cE>:
   24550:	b5f0      	push	{r4, r5, r6, r7, lr}
   24552:	af03      	add	r7, sp, #12
   24554:	b0ad      	sub	sp, #180	@ 0xb4
   24556:	9007      	str	r0, [sp, #28]
   24558:	a808      	add	r0, sp, #32
   2455a:	2402      	movs	r4, #2
   2455c:	7004      	strb	r4, [r0, #0]
   2455e:	1c40      	adds	r0, r0, #1
   24560:	9005      	str	r0, [sp, #20]
   24562:	2561      	movs	r5, #97	@ 0x61
   24564:	462a      	mov	r2, r5
   24566:	f007 f870 	bl	2b64a <__aeabi_memcpy>
   2456a:	ae21      	add	r6, sp, #132	@ 0x84
   2456c:	1c70      	adds	r0, r6, #1
   2456e:	211e      	movs	r1, #30
   24570:	9006      	str	r0, [sp, #24]
   24572:	9104      	str	r1, [sp, #16]
   24574:	f006 fea9 	bl	2b2ca <__aeabi_memclr>
   24578:	9403      	str	r4, [sp, #12]
   2457a:	7034      	strb	r4, [r6, #0]
   2457c:	2604      	movs	r6, #4
   2457e:	9500      	str	r5, [sp, #0]
   24580:	9601      	str	r6, [sp, #4]
   24582:	2031      	movs	r0, #49	@ 0x31
   24584:	00c1      	lsls	r1, r0, #3
   24586:	a829      	add	r0, sp, #164	@ 0xa4
   24588:	460d      	mov	r5, r1
   2458a:	4632      	mov	r2, r6
   2458c:	9b05      	ldr	r3, [sp, #20]
   2458e:	f006 fe84 	bl	2b29a <_ZN9allow_pin13dynamic_allow17h8bfd3764c146b81aE>
   24592:	9829      	ldr	r0, [sp, #164]	@ 0xa4
   24594:	2802      	cmp	r0, #2
   24596:	d101      	bne.n	2459c <_ZN20complex_dynamic_type3app17h8c22f3f5950cf90cE+0x4c>
   24598:	992a      	ldr	r1, [sp, #168]	@ 0xa8
   2459a:	e001      	b.n	245a0 <_ZN20complex_dynamic_type3app17h8c22f3f5950cf90cE+0x50>
   2459c:	a908      	add	r1, sp, #32
   2459e:	700e      	strb	r6, [r1, #0]
   245a0:	2401      	movs	r4, #1
   245a2:	2802      	cmp	r0, #2
   245a4:	462e      	mov	r6, r5
   245a6:	d024      	beq.n	245f2 <_ZN20complex_dynamic_type3app17h8c22f3f5950cf90cE+0xa2>
   245a8:	a821      	add	r0, sp, #132	@ 0x84
   245aa:	7800      	ldrb	r0, [r0, #0]
   245ac:	2802      	cmp	r0, #2
   245ae:	d10e      	bne.n	245ce <_ZN20complex_dynamic_type3app17h8c22f3f5950cf90cE+0x7e>
   245b0:	2503      	movs	r5, #3
   245b2:	9804      	ldr	r0, [sp, #16]
   245b4:	9000      	str	r0, [sp, #0]
   245b6:	9501      	str	r5, [sp, #4]
   245b8:	a829      	add	r0, sp, #164	@ 0xa4
   245ba:	2206      	movs	r2, #6
   245bc:	4631      	mov	r1, r6
   245be:	9b06      	ldr	r3, [sp, #24]
   245c0:	f006 fe6b 	bl	2b29a <_ZN9allow_pin13dynamic_allow17h8bfd3764c146b81aE>
   245c4:	9829      	ldr	r0, [sp, #164]	@ 0xa4
   245c6:	2802      	cmp	r0, #2
   245c8:	d106      	bne.n	245d8 <_ZN20complex_dynamic_type3app17h8c22f3f5950cf90cE+0x88>
   245ca:	992a      	ldr	r1, [sp, #168]	@ 0xa8
   245cc:	e000      	b.n	245d0 <_ZN20complex_dynamic_type3app17h8c22f3f5950cf90cE+0x80>
   245ce:	2103      	movs	r1, #3
   245d0:	4620      	mov	r0, r4
   245d2:	2800      	cmp	r0, #0
   245d4:	d005      	beq.n	245e2 <_ZN20complex_dynamic_type3app17h8c22f3f5950cf90cE+0x92>
   245d6:	e00c      	b.n	245f2 <_ZN20complex_dynamic_type3app17h8c22f3f5950cf90cE+0xa2>
   245d8:	a821      	add	r0, sp, #132	@ 0x84
   245da:	7005      	strb	r5, [r0, #0]
   245dc:	2000      	movs	r0, #0
   245de:	2800      	cmp	r0, #0
   245e0:	d107      	bne.n	245f2 <_ZN20complex_dynamic_type3app17h8c22f3f5950cf90cE+0xa2>
   245e2:	2104      	movs	r1, #4
   245e4:	2206      	movs	r2, #6
   245e6:	2500      	movs	r5, #0
   245e8:	4630      	mov	r0, r6
   245ea:	462b      	mov	r3, r5
   245ec:	df02      	svc	2
   245ee:	287f      	cmp	r0, #127	@ 0x7f
   245f0:	d80d      	bhi.n	2460e <_ZN20complex_dynamic_type3app17h8c22f3f5950cf90cE+0xbe>
   245f2:	4625      	mov	r5, r4
   245f4:	2d00      	cmp	r5, #0
   245f6:	d021      	beq.n	2463c <_ZN20complex_dynamic_type3app17h8c22f3f5950cf90cE+0xec>
   245f8:	2001      	movs	r0, #1
   245fa:	9a07      	ldr	r2, [sp, #28]
   245fc:	7010      	strb	r0, [r2, #0]
   245fe:	6051      	str	r1, [r2, #4]
   24600:	a821      	add	r0, sp, #132	@ 0x84
   24602:	7802      	ldrb	r2, [r0, #0]
   24604:	2a02      	cmp	r2, #2
   24606:	d02e      	beq.n	24666 <_ZN20complex_dynamic_type3app17h8c22f3f5950cf90cE+0x116>
   24608:	2106      	movs	r1, #6
   2460a:	4630      	mov	r0, r6
   2460c:	e029      	b.n	24662 <_ZN20complex_dynamic_type3app17h8c22f3f5950cf90cE+0x112>
   2460e:	a808      	add	r0, sp, #32
   24610:	7802      	ldrb	r2, [r0, #0]
   24612:	2a02      	cmp	r2, #2
   24614:	d003      	beq.n	2461e <_ZN20complex_dynamic_type3app17h8c22f3f5950cf90cE+0xce>
   24616:	2104      	movs	r1, #4
   24618:	4630      	mov	r0, r6
   2461a:	f006 fe31 	bl	2b280 <_ZN9allow_pin12dynamic_type7unshare17h19052c50f9e150aeE>
   2461e:	a808      	add	r0, sp, #32
   24620:	9c03      	ldr	r4, [sp, #12]
   24622:	7004      	strb	r4, [r0, #0]
   24624:	a821      	add	r0, sp, #132	@ 0x84
   24626:	7802      	ldrb	r2, [r0, #0]
   24628:	2a02      	cmp	r2, #2
   2462a:	d003      	beq.n	24634 <_ZN20complex_dynamic_type3app17h8c22f3f5950cf90cE+0xe4>
   2462c:	2106      	movs	r1, #6
   2462e:	4630      	mov	r0, r6
   24630:	f006 fe26 	bl	2b280 <_ZN9allow_pin12dynamic_type7unshare17h19052c50f9e150aeE>
   24634:	a821      	add	r0, sp, #132	@ 0x84
   24636:	7004      	strb	r4, [r0, #0]
   24638:	2d00      	cmp	r5, #0
   2463a:	d1dd      	bne.n	245f8 <_ZN20complex_dynamic_type3app17h8c22f3f5950cf90cE+0xa8>
   2463c:	a821      	add	r0, sp, #132	@ 0x84
   2463e:	7805      	ldrb	r5, [r0, #0]
   24640:	2d02      	cmp	r5, #2
   24642:	d001      	beq.n	24648 <_ZN20complex_dynamic_type3app17h8c22f3f5950cf90cE+0xf8>
   24644:	480d      	ldr	r0, [pc, #52]	@ (2467c <_ZN20complex_dynamic_type3app17h8c22f3f5950cf90cE+0x12c>)
   24646:	9006      	str	r0, [sp, #24]
   24648:	9c07      	ldr	r4, [sp, #28]
   2464a:	1c60      	adds	r0, r4, #1
   2464c:	221e      	movs	r2, #30
   2464e:	9906      	ldr	r1, [sp, #24]
   24650:	f006 fffb 	bl	2b64a <__aeabi_memcpy>
   24654:	2000      	movs	r0, #0
   24656:	2d02      	cmp	r5, #2
   24658:	7020      	strb	r0, [r4, #0]
   2465a:	d004      	beq.n	24666 <_ZN20complex_dynamic_type3app17h8c22f3f5950cf90cE+0x116>
   2465c:	2106      	movs	r1, #6
   2465e:	4630      	mov	r0, r6
   24660:	462a      	mov	r2, r5
   24662:	f006 fe0d 	bl	2b280 <_ZN9allow_pin12dynamic_type7unshare17h19052c50f9e150aeE>
   24666:	a808      	add	r0, sp, #32
   24668:	7802      	ldrb	r2, [r0, #0]
   2466a:	2a02      	cmp	r2, #2
   2466c:	d003      	beq.n	24676 <_ZN20complex_dynamic_type3app17h8c22f3f5950cf90cE+0x126>
   2466e:	2104      	movs	r1, #4
   24670:	4630      	mov	r0, r6
   24672:	f006 fe05 	bl	2b280 <_ZN9allow_pin12dynamic_type7unshare17h19052c50f9e150aeE>
   24676:	b02d      	add	sp, #180	@ 0xb4
   24678:	bdf0      	pop	{r4, r5, r6, r7, pc}
   2467a:	46c0      	nop			@ (mov r8, r8)
   2467c:	00010185 	.word	0x00010185

00024680 <_ZN20complex_dynamic_type3app17h8cc992bac07367f0E>:
   24680:	b5f0      	push	{r4, r5, r6, r7, lr}
   24682:	af03      	add	r7, sp, #12
   24684:	b0a1      	sub	sp, #132	@ 0x84
   24686:	9007      	str	r0, [sp, #28]
   24688:	a808      	add	r0, sp, #32
   2468a:	2602      	movs	r6, #2
   2468c:	7006      	strb	r6, [r0, #0]
   2468e:	1c40      	adds	r0, r0, #1
   24690:	9005      	str	r0, [sp, #20]
   24692:	2425      	movs	r4, #37	@ 0x25
   24694:	4622      	mov	r2, r4
   24696:	f006 ffd8 	bl	2b64a <__aeabi_memcpy>
   2469a:	ad12      	add	r5, sp, #72	@ 0x48
   2469c:	1c68      	adds	r0, r5, #1
   2469e:	212a      	movs	r1, #42	@ 0x2a
   246a0:	9006      	str	r0, [sp, #24]
   246a2:	9104      	str	r1, [sp, #16]
   246a4:	f006 fe11 	bl	2b2ca <__aeabi_memclr>
   246a8:	9603      	str	r6, [sp, #12]
   246aa:	702e      	strb	r6, [r5, #0]
   246ac:	2504      	movs	r5, #4
   246ae:	9400      	str	r4, [sp, #0]
   246b0:	9501      	str	r5, [sp, #4]
   246b2:	a81d      	add	r0, sp, #116	@ 0x74
   246b4:	493d      	ldr	r1, [pc, #244]	@ (247ac <_ZN20complex_dynamic_type3app17h8cc992bac07367f0E+0x12c>)
   246b6:	2400      	movs	r4, #0
   246b8:	4622      	mov	r2, r4
   246ba:	9b05      	ldr	r3, [sp, #20]
   246bc:	f006 fded 	bl	2b29a <_ZN9allow_pin13dynamic_allow17h8bfd3764c146b81aE>
   246c0:	981d      	ldr	r0, [sp, #116]	@ 0x74
   246c2:	2802      	cmp	r0, #2
   246c4:	d101      	bne.n	246ca <_ZN20complex_dynamic_type3app17h8cc992bac07367f0E+0x4a>
   246c6:	991e      	ldr	r1, [sp, #120]	@ 0x78
   246c8:	e001      	b.n	246ce <_ZN20complex_dynamic_type3app17h8cc992bac07367f0E+0x4e>
   246ca:	a908      	add	r1, sp, #32
   246cc:	700d      	strb	r5, [r1, #0]
   246ce:	2601      	movs	r6, #1
   246d0:	2802      	cmp	r0, #2
   246d2:	4d36      	ldr	r5, [pc, #216]	@ (247ac <_ZN20complex_dynamic_type3app17h8cc992bac07367f0E+0x12c>)
   246d4:	d10d      	bne.n	246f2 <_ZN20complex_dynamic_type3app17h8cc992bac07367f0E+0x72>
   246d6:	4634      	mov	r4, r6
   246d8:	2c00      	cmp	r4, #0
   246da:	d047      	beq.n	2476c <_ZN20complex_dynamic_type3app17h8cc992bac07367f0E+0xec>
   246dc:	2001      	movs	r0, #1
   246de:	9a07      	ldr	r2, [sp, #28]
   246e0:	7010      	strb	r0, [r2, #0]
   246e2:	6051      	str	r1, [r2, #4]
   246e4:	a812      	add	r0, sp, #72	@ 0x48
   246e6:	7802      	ldrb	r2, [r0, #0]
   246e8:	2a02      	cmp	r2, #2
   246ea:	d054      	beq.n	24796 <_ZN20complex_dynamic_type3app17h8cc992bac07367f0E+0x116>
   246ec:	2103      	movs	r1, #3
   246ee:	4628      	mov	r0, r5
   246f0:	e04f      	b.n	24792 <_ZN20complex_dynamic_type3app17h8cc992bac07367f0E+0x112>
   246f2:	a812      	add	r0, sp, #72	@ 0x48
   246f4:	7800      	ldrb	r0, [r0, #0]
   246f6:	2802      	cmp	r0, #2
   246f8:	d10f      	bne.n	2471a <_ZN20complex_dynamic_type3app17h8cc992bac07367f0E+0x9a>
   246fa:	2203      	movs	r2, #3
   246fc:	9804      	ldr	r0, [sp, #16]
   246fe:	9000      	str	r0, [sp, #0]
   24700:	9201      	str	r2, [sp, #4]
   24702:	a81d      	add	r0, sp, #116	@ 0x74
   24704:	4629      	mov	r1, r5
   24706:	4615      	mov	r5, r2
   24708:	9b06      	ldr	r3, [sp, #24]
   2470a:	f006 fdc6 	bl	2b29a <_ZN9allow_pin13dynamic_allow17h8bfd3764c146b81aE>
   2470e:	981d      	ldr	r0, [sp, #116]	@ 0x74
   24710:	2802      	cmp	r0, #2
   24712:	d107      	bne.n	24724 <_ZN20complex_dynamic_type3app17h8cc992bac07367f0E+0xa4>
   24714:	991e      	ldr	r1, [sp, #120]	@ 0x78
   24716:	4634      	mov	r4, r6
   24718:	e006      	b.n	24728 <_ZN20complex_dynamic_type3app17h8cc992bac07367f0E+0xa8>
   2471a:	2103      	movs	r1, #3
   2471c:	4634      	mov	r4, r6
   2471e:	2c00      	cmp	r4, #0
   24720:	d1d9      	bne.n	246d6 <_ZN20complex_dynamic_type3app17h8cc992bac07367f0E+0x56>
   24722:	e004      	b.n	2472e <_ZN20complex_dynamic_type3app17h8cc992bac07367f0E+0xae>
   24724:	a812      	add	r0, sp, #72	@ 0x48
   24726:	7005      	strb	r5, [r0, #0]
   24728:	4d20      	ldr	r5, [pc, #128]	@ (247ac <_ZN20complex_dynamic_type3app17h8cc992bac07367f0E+0x12c>)
   2472a:	2c00      	cmp	r4, #0
   2472c:	d1d3      	bne.n	246d6 <_ZN20complex_dynamic_type3app17h8cc992bac07367f0E+0x56>
   2472e:	481f      	ldr	r0, [pc, #124]	@ (247ac <_ZN20complex_dynamic_type3app17h8cc992bac07367f0E+0x12c>)
   24730:	2203      	movs	r2, #3
   24732:	2400      	movs	r4, #0
   24734:	4621      	mov	r1, r4
   24736:	4623      	mov	r3, r4
   24738:	df02      	svc	2
   2473a:	287f      	cmp	r0, #127	@ 0x7f
   2473c:	d9cb      	bls.n	246d6 <_ZN20complex_dynamic_type3app17h8cc992bac07367f0E+0x56>
   2473e:	a808      	add	r0, sp, #32
   24740:	7802      	ldrb	r2, [r0, #0]
   24742:	2a02      	cmp	r2, #2
   24744:	d003      	beq.n	2474e <_ZN20complex_dynamic_type3app17h8cc992bac07367f0E+0xce>
   24746:	2100      	movs	r1, #0
   24748:	4628      	mov	r0, r5
   2474a:	f006 fd99 	bl	2b280 <_ZN9allow_pin12dynamic_type7unshare17h19052c50f9e150aeE>
   2474e:	a808      	add	r0, sp, #32
   24750:	9e03      	ldr	r6, [sp, #12]
   24752:	7006      	strb	r6, [r0, #0]
   24754:	a812      	add	r0, sp, #72	@ 0x48
   24756:	7802      	ldrb	r2, [r0, #0]
   24758:	2a02      	cmp	r2, #2
   2475a:	d003      	beq.n	24764 <_ZN20complex_dynamic_type3app17h8cc992bac07367f0E+0xe4>
   2475c:	2103      	movs	r1, #3
   2475e:	4628      	mov	r0, r5
   24760:	f006 fd8e 	bl	2b280 <_ZN9allow_pin12dynamic_type7unshare17h19052c50f9e150aeE>
   24764:	a812      	add	r0, sp, #72	@ 0x48
   24766:	7006      	strb	r6, [r0, #0]
   24768:	2c00      	cmp	r4, #0
   2476a:	d1b7      	bne.n	246dc <_ZN20complex_dynamic_type3app17h8cc992bac07367f0E+0x5c>
   2476c:	a812      	add	r0, sp, #72	@ 0x48
   2476e:	7804      	ldrb	r4, [r0, #0]
   24770:	2c02      	cmp	r4, #2
   24772:	d001      	beq.n	24778 <_ZN20complex_dynamic_type3app17h8cc992bac07367f0E+0xf8>
   24774:	480e      	ldr	r0, [pc, #56]	@ (247b0 <_ZN20complex_dynamic_type3app17h8cc992bac07367f0E+0x130>)
   24776:	9006      	str	r0, [sp, #24]
   24778:	9e07      	ldr	r6, [sp, #28]
   2477a:	1c70      	adds	r0, r6, #1
   2477c:	222a      	movs	r2, #42	@ 0x2a
   2477e:	9906      	ldr	r1, [sp, #24]
   24780:	f006 ff63 	bl	2b64a <__aeabi_memcpy>
   24784:	2000      	movs	r0, #0
   24786:	2c02      	cmp	r4, #2
   24788:	7030      	strb	r0, [r6, #0]
   2478a:	d004      	beq.n	24796 <_ZN20complex_dynamic_type3app17h8cc992bac07367f0E+0x116>
   2478c:	2103      	movs	r1, #3
   2478e:	4628      	mov	r0, r5
   24790:	4622      	mov	r2, r4
   24792:	f006 fd75 	bl	2b280 <_ZN9allow_pin12dynamic_type7unshare17h19052c50f9e150aeE>
   24796:	a808      	add	r0, sp, #32
   24798:	7802      	ldrb	r2, [r0, #0]
   2479a:	2a02      	cmp	r2, #2
   2479c:	d003      	beq.n	247a6 <_ZN20complex_dynamic_type3app17h8cc992bac07367f0E+0x126>
   2479e:	2100      	movs	r1, #0
   247a0:	4628      	mov	r0, r5
   247a2:	f006 fd6d 	bl	2b280 <_ZN9allow_pin12dynamic_type7unshare17h19052c50f9e150aeE>
   247a6:	b021      	add	sp, #132	@ 0x84
   247a8:	bdf0      	pop	{r4, r5, r6, r7, pc}
   247aa:	46c0      	nop			@ (mov r8, r8)
   247ac:	0000093c 	.word	0x0000093c
   247b0:	000102c6 	.word	0x000102c6

000247b4 <_ZN20complex_dynamic_type3app17h904b8b1bdd20cff0E>:
   247b4:	b5f0      	push	{r4, r5, r6, r7, lr}
   247b6:	af03      	add	r7, sp, #12
   247b8:	b0ab      	sub	sp, #172	@ 0xac
   247ba:	9006      	str	r0, [sp, #24]
   247bc:	a807      	add	r0, sp, #28
   247be:	2502      	movs	r5, #2
   247c0:	7005      	strb	r5, [r0, #0]
   247c2:	1c40      	adds	r0, r0, #1
   247c4:	9004      	str	r0, [sp, #16]
   247c6:	2631      	movs	r6, #49	@ 0x31
   247c8:	4632      	mov	r2, r6
   247ca:	f006 ff3e 	bl	2b64a <__aeabi_memcpy>
   247ce:	ac14      	add	r4, sp, #80	@ 0x50
   247d0:	1c60      	adds	r0, r4, #1
   247d2:	2148      	movs	r1, #72	@ 0x48
   247d4:	9005      	str	r0, [sp, #20]
   247d6:	9103      	str	r1, [sp, #12]
   247d8:	f006 fd77 	bl	2b2ca <__aeabi_memclr>
   247dc:	9502      	str	r5, [sp, #8]
   247de:	7025      	strb	r5, [r4, #0]
   247e0:	2404      	movs	r4, #4
   247e2:	9600      	str	r6, [sp, #0]
   247e4:	9401      	str	r4, [sp, #4]
   247e6:	a827      	add	r0, sp, #156	@ 0x9c
   247e8:	4e3c      	ldr	r6, [pc, #240]	@ (248dc <_ZN20complex_dynamic_type3app17h904b8b1bdd20cff0E+0x128>)
   247ea:	4631      	mov	r1, r6
   247ec:	4622      	mov	r2, r4
   247ee:	9b04      	ldr	r3, [sp, #16]
   247f0:	f006 fd53 	bl	2b29a <_ZN9allow_pin13dynamic_allow17h8bfd3764c146b81aE>
   247f4:	9827      	ldr	r0, [sp, #156]	@ 0x9c
   247f6:	2802      	cmp	r0, #2
   247f8:	d101      	bne.n	247fe <_ZN20complex_dynamic_type3app17h904b8b1bdd20cff0E+0x4a>
   247fa:	9928      	ldr	r1, [sp, #160]	@ 0xa0
   247fc:	e001      	b.n	24802 <_ZN20complex_dynamic_type3app17h904b8b1bdd20cff0E+0x4e>
   247fe:	a907      	add	r1, sp, #28
   24800:	700c      	strb	r4, [r1, #0]
   24802:	2501      	movs	r5, #1
   24804:	2802      	cmp	r0, #2
   24806:	d024      	beq.n	24852 <_ZN20complex_dynamic_type3app17h904b8b1bdd20cff0E+0x9e>
   24808:	a814      	add	r0, sp, #80	@ 0x50
   2480a:	7800      	ldrb	r0, [r0, #0]
   2480c:	2802      	cmp	r0, #2
   2480e:	d10e      	bne.n	2482e <_ZN20complex_dynamic_type3app17h904b8b1bdd20cff0E+0x7a>
   24810:	2403      	movs	r4, #3
   24812:	9803      	ldr	r0, [sp, #12]
   24814:	9000      	str	r0, [sp, #0]
   24816:	9401      	str	r4, [sp, #4]
   24818:	a827      	add	r0, sp, #156	@ 0x9c
   2481a:	4631      	mov	r1, r6
   2481c:	4622      	mov	r2, r4
   2481e:	9b05      	ldr	r3, [sp, #20]
   24820:	f006 fd3b 	bl	2b29a <_ZN9allow_pin13dynamic_allow17h8bfd3764c146b81aE>
   24824:	9827      	ldr	r0, [sp, #156]	@ 0x9c
   24826:	2802      	cmp	r0, #2
   24828:	d106      	bne.n	24838 <_ZN20complex_dynamic_type3app17h904b8b1bdd20cff0E+0x84>
   2482a:	9928      	ldr	r1, [sp, #160]	@ 0xa0
   2482c:	e000      	b.n	24830 <_ZN20complex_dynamic_type3app17h904b8b1bdd20cff0E+0x7c>
   2482e:	2103      	movs	r1, #3
   24830:	4628      	mov	r0, r5
   24832:	2800      	cmp	r0, #0
   24834:	d005      	beq.n	24842 <_ZN20complex_dynamic_type3app17h904b8b1bdd20cff0E+0x8e>
   24836:	e00c      	b.n	24852 <_ZN20complex_dynamic_type3app17h904b8b1bdd20cff0E+0x9e>
   24838:	a814      	add	r0, sp, #80	@ 0x50
   2483a:	7004      	strb	r4, [r0, #0]
   2483c:	2000      	movs	r0, #0
   2483e:	2800      	cmp	r0, #0
   24840:	d107      	bne.n	24852 <_ZN20complex_dynamic_type3app17h904b8b1bdd20cff0E+0x9e>
   24842:	4826      	ldr	r0, [pc, #152]	@ (248dc <_ZN20complex_dynamic_type3app17h904b8b1bdd20cff0E+0x128>)
   24844:	2104      	movs	r1, #4
   24846:	2203      	movs	r2, #3
   24848:	2400      	movs	r4, #0
   2484a:	4623      	mov	r3, r4
   2484c:	df02      	svc	2
   2484e:	287f      	cmp	r0, #127	@ 0x7f
   24850:	d80d      	bhi.n	2486e <_ZN20complex_dynamic_type3app17h904b8b1bdd20cff0E+0xba>
   24852:	462c      	mov	r4, r5
   24854:	2c00      	cmp	r4, #0
   24856:	d021      	beq.n	2489c <_ZN20complex_dynamic_type3app17h904b8b1bdd20cff0E+0xe8>
   24858:	2001      	movs	r0, #1
   2485a:	9a06      	ldr	r2, [sp, #24]
   2485c:	7010      	strb	r0, [r2, #0]
   2485e:	6051      	str	r1, [r2, #4]
   24860:	a814      	add	r0, sp, #80	@ 0x50
   24862:	7802      	ldrb	r2, [r0, #0]
   24864:	2a02      	cmp	r2, #2
   24866:	d02e      	beq.n	248c6 <_ZN20complex_dynamic_type3app17h904b8b1bdd20cff0E+0x112>
   24868:	2103      	movs	r1, #3
   2486a:	4630      	mov	r0, r6
   2486c:	e029      	b.n	248c2 <_ZN20complex_dynamic_type3app17h904b8b1bdd20cff0E+0x10e>
   2486e:	a807      	add	r0, sp, #28
   24870:	7802      	ldrb	r2, [r0, #0]
   24872:	2a02      	cmp	r2, #2
   24874:	d003      	beq.n	2487e <_ZN20complex_dynamic_type3app17h904b8b1bdd20cff0E+0xca>
   24876:	2104      	movs	r1, #4
   24878:	4630      	mov	r0, r6
   2487a:	f006 fd01 	bl	2b280 <_ZN9allow_pin12dynamic_type7unshare17h19052c50f9e150aeE>
   2487e:	a807      	add	r0, sp, #28
   24880:	9d02      	ldr	r5, [sp, #8]
   24882:	7005      	strb	r5, [r0, #0]
   24884:	a814      	add	r0, sp, #80	@ 0x50
   24886:	7802      	ldrb	r2, [r0, #0]
   24888:	2a02      	cmp	r2, #2
   2488a:	d003      	beq.n	24894 <_ZN20complex_dynamic_type3app17h904b8b1bdd20cff0E+0xe0>
   2488c:	2103      	movs	r1, #3
   2488e:	4630      	mov	r0, r6
   24890:	f006 fcf6 	bl	2b280 <_ZN9allow_pin12dynamic_type7unshare17h19052c50f9e150aeE>
   24894:	a814      	add	r0, sp, #80	@ 0x50
   24896:	7005      	strb	r5, [r0, #0]
   24898:	2c00      	cmp	r4, #0
   2489a:	d1dd      	bne.n	24858 <_ZN20complex_dynamic_type3app17h904b8b1bdd20cff0E+0xa4>
   2489c:	a814      	add	r0, sp, #80	@ 0x50
   2489e:	7804      	ldrb	r4, [r0, #0]
   248a0:	2c02      	cmp	r4, #2
   248a2:	d001      	beq.n	248a8 <_ZN20complex_dynamic_type3app17h904b8b1bdd20cff0E+0xf4>
   248a4:	480e      	ldr	r0, [pc, #56]	@ (248e0 <_ZN20complex_dynamic_type3app17h904b8b1bdd20cff0E+0x12c>)
   248a6:	9005      	str	r0, [sp, #20]
   248a8:	9d06      	ldr	r5, [sp, #24]
   248aa:	1c68      	adds	r0, r5, #1
   248ac:	2248      	movs	r2, #72	@ 0x48
   248ae:	9905      	ldr	r1, [sp, #20]
   248b0:	f006 fecb 	bl	2b64a <__aeabi_memcpy>
   248b4:	2000      	movs	r0, #0
   248b6:	2c02      	cmp	r4, #2
   248b8:	7028      	strb	r0, [r5, #0]
   248ba:	d004      	beq.n	248c6 <_ZN20complex_dynamic_type3app17h904b8b1bdd20cff0E+0x112>
   248bc:	2103      	movs	r1, #3
   248be:	4630      	mov	r0, r6
   248c0:	4622      	mov	r2, r4
   248c2:	f006 fcdd 	bl	2b280 <_ZN9allow_pin12dynamic_type7unshare17h19052c50f9e150aeE>
   248c6:	a807      	add	r0, sp, #28
   248c8:	7802      	ldrb	r2, [r0, #0]
   248ca:	2a02      	cmp	r2, #2
   248cc:	d003      	beq.n	248d6 <_ZN20complex_dynamic_type3app17h904b8b1bdd20cff0E+0x122>
   248ce:	2104      	movs	r1, #4
   248d0:	4630      	mov	r0, r6
   248d2:	f006 fcd5 	bl	2b280 <_ZN9allow_pin12dynamic_type7unshare17h19052c50f9e150aeE>
   248d6:	b02b      	add	sp, #172	@ 0xac
   248d8:	bdf0      	pop	{r4, r5, r6, r7, pc}
   248da:	46c0      	nop			@ (mov r8, r8)
   248dc:	0000180e 	.word	0x0000180e
   248e0:	00010245 	.word	0x00010245

000248e4 <_ZN20complex_dynamic_type3app17h9327bf04e47d0831E>:
   248e4:	b5f0      	push	{r4, r5, r6, r7, lr}
   248e6:	af03      	add	r7, sp, #12
   248e8:	b0a9      	sub	sp, #164	@ 0xa4
   248ea:	9006      	str	r0, [sp, #24]
   248ec:	a807      	add	r0, sp, #28
   248ee:	2502      	movs	r5, #2
   248f0:	7005      	strb	r5, [r0, #0]
   248f2:	1c40      	adds	r0, r0, #1
   248f4:	9004      	str	r0, [sp, #16]
   248f6:	2640      	movs	r6, #64	@ 0x40
   248f8:	4632      	mov	r2, r6
   248fa:	f006 fea6 	bl	2b64a <__aeabi_memcpy>
   248fe:	ac18      	add	r4, sp, #96	@ 0x60
   24900:	1c60      	adds	r0, r4, #1
   24902:	2131      	movs	r1, #49	@ 0x31
   24904:	9005      	str	r0, [sp, #20]
   24906:	9103      	str	r1, [sp, #12]
   24908:	f006 fcdf 	bl	2b2ca <__aeabi_memclr>
   2490c:	9502      	str	r5, [sp, #8]
   2490e:	7025      	strb	r5, [r4, #0]
   24910:	2404      	movs	r4, #4
   24912:	9600      	str	r6, [sp, #0]
   24914:	9401      	str	r4, [sp, #4]
   24916:	a825      	add	r0, sp, #148	@ 0x94
   24918:	4e3c      	ldr	r6, [pc, #240]	@ (24a0c <_ZN20complex_dynamic_type3app17h9327bf04e47d0831E+0x128>)
   2491a:	2208      	movs	r2, #8
   2491c:	4631      	mov	r1, r6
   2491e:	9b04      	ldr	r3, [sp, #16]
   24920:	f006 fcbb 	bl	2b29a <_ZN9allow_pin13dynamic_allow17h8bfd3764c146b81aE>
   24924:	9825      	ldr	r0, [sp, #148]	@ 0x94
   24926:	2802      	cmp	r0, #2
   24928:	d101      	bne.n	2492e <_ZN20complex_dynamic_type3app17h9327bf04e47d0831E+0x4a>
   2492a:	9926      	ldr	r1, [sp, #152]	@ 0x98
   2492c:	e001      	b.n	24932 <_ZN20complex_dynamic_type3app17h9327bf04e47d0831E+0x4e>
   2492e:	a907      	add	r1, sp, #28
   24930:	700c      	strb	r4, [r1, #0]
   24932:	2501      	movs	r5, #1
   24934:	2802      	cmp	r0, #2
   24936:	d024      	beq.n	24982 <_ZN20complex_dynamic_type3app17h9327bf04e47d0831E+0x9e>
   24938:	a818      	add	r0, sp, #96	@ 0x60
   2493a:	7800      	ldrb	r0, [r0, #0]
   2493c:	2802      	cmp	r0, #2
   2493e:	d10e      	bne.n	2495e <_ZN20complex_dynamic_type3app17h9327bf04e47d0831E+0x7a>
   24940:	2403      	movs	r4, #3
   24942:	9803      	ldr	r0, [sp, #12]
   24944:	9000      	str	r0, [sp, #0]
   24946:	9401      	str	r4, [sp, #4]
   24948:	a825      	add	r0, sp, #148	@ 0x94
   2494a:	2205      	movs	r2, #5
   2494c:	4631      	mov	r1, r6
   2494e:	9b05      	ldr	r3, [sp, #20]
   24950:	f006 fca3 	bl	2b29a <_ZN9allow_pin13dynamic_allow17h8bfd3764c146b81aE>
   24954:	9825      	ldr	r0, [sp, #148]	@ 0x94
   24956:	2802      	cmp	r0, #2
   24958:	d106      	bne.n	24968 <_ZN20complex_dynamic_type3app17h9327bf04e47d0831E+0x84>
   2495a:	9926      	ldr	r1, [sp, #152]	@ 0x98
   2495c:	e000      	b.n	24960 <_ZN20complex_dynamic_type3app17h9327bf04e47d0831E+0x7c>
   2495e:	2103      	movs	r1, #3
   24960:	4628      	mov	r0, r5
   24962:	2800      	cmp	r0, #0
   24964:	d005      	beq.n	24972 <_ZN20complex_dynamic_type3app17h9327bf04e47d0831E+0x8e>
   24966:	e00c      	b.n	24982 <_ZN20complex_dynamic_type3app17h9327bf04e47d0831E+0x9e>
   24968:	a818      	add	r0, sp, #96	@ 0x60
   2496a:	7004      	strb	r4, [r0, #0]
   2496c:	2000      	movs	r0, #0
   2496e:	2800      	cmp	r0, #0
   24970:	d107      	bne.n	24982 <_ZN20complex_dynamic_type3app17h9327bf04e47d0831E+0x9e>
   24972:	4826      	ldr	r0, [pc, #152]	@ (24a0c <_ZN20complex_dynamic_type3app17h9327bf04e47d0831E+0x128>)
   24974:	2108      	movs	r1, #8
   24976:	2205      	movs	r2, #5
   24978:	2400      	movs	r4, #0
   2497a:	4623      	mov	r3, r4
   2497c:	df02      	svc	2
   2497e:	287f      	cmp	r0, #127	@ 0x7f
   24980:	d80d      	bhi.n	2499e <_ZN20complex_dynamic_type3app17h9327bf04e47d0831E+0xba>
   24982:	462c      	mov	r4, r5
   24984:	2c00      	cmp	r4, #0
   24986:	d021      	beq.n	249cc <_ZN20complex_dynamic_type3app17h9327bf04e47d0831E+0xe8>
   24988:	2001      	movs	r0, #1
   2498a:	9a06      	ldr	r2, [sp, #24]
   2498c:	7010      	strb	r0, [r2, #0]
   2498e:	6051      	str	r1, [r2, #4]
   24990:	a818      	add	r0, sp, #96	@ 0x60
   24992:	7802      	ldrb	r2, [r0, #0]
   24994:	2a02      	cmp	r2, #2
   24996:	d02e      	beq.n	249f6 <_ZN20complex_dynamic_type3app17h9327bf04e47d0831E+0x112>
   24998:	2105      	movs	r1, #5
   2499a:	4630      	mov	r0, r6
   2499c:	e029      	b.n	249f2 <_ZN20complex_dynamic_type3app17h9327bf04e47d0831E+0x10e>
   2499e:	a807      	add	r0, sp, #28
   249a0:	7802      	ldrb	r2, [r0, #0]
   249a2:	2a02      	cmp	r2, #2
   249a4:	d003      	beq.n	249ae <_ZN20complex_dynamic_type3app17h9327bf04e47d0831E+0xca>
   249a6:	2108      	movs	r1, #8
   249a8:	4630      	mov	r0, r6
   249aa:	f006 fc69 	bl	2b280 <_ZN9allow_pin12dynamic_type7unshare17h19052c50f9e150aeE>
   249ae:	a807      	add	r0, sp, #28
   249b0:	9d02      	ldr	r5, [sp, #8]
   249b2:	7005      	strb	r5, [r0, #0]
   249b4:	a818      	add	r0, sp, #96	@ 0x60
   249b6:	7802      	ldrb	r2, [r0, #0]
   249b8:	2a02      	cmp	r2, #2
   249ba:	d003      	beq.n	249c4 <_ZN20complex_dynamic_type3app17h9327bf04e47d0831E+0xe0>
   249bc:	2105      	movs	r1, #5
   249be:	4630      	mov	r0, r6
   249c0:	f006 fc5e 	bl	2b280 <_ZN9allow_pin12dynamic_type7unshare17h19052c50f9e150aeE>
   249c4:	a818      	add	r0, sp, #96	@ 0x60
   249c6:	7005      	strb	r5, [r0, #0]
   249c8:	2c00      	cmp	r4, #0
   249ca:	d1dd      	bne.n	24988 <_ZN20complex_dynamic_type3app17h9327bf04e47d0831E+0xa4>
   249cc:	a818      	add	r0, sp, #96	@ 0x60
   249ce:	7804      	ldrb	r4, [r0, #0]
   249d0:	2c02      	cmp	r4, #2
   249d2:	d001      	beq.n	249d8 <_ZN20complex_dynamic_type3app17h9327bf04e47d0831E+0xf4>
   249d4:	480e      	ldr	r0, [pc, #56]	@ (24a10 <_ZN20complex_dynamic_type3app17h9327bf04e47d0831E+0x12c>)
   249d6:	9005      	str	r0, [sp, #20]
   249d8:	9d06      	ldr	r5, [sp, #24]
   249da:	1c68      	adds	r0, r5, #1
   249dc:	2231      	movs	r2, #49	@ 0x31
   249de:	9905      	ldr	r1, [sp, #20]
   249e0:	f006 fe33 	bl	2b64a <__aeabi_memcpy>
   249e4:	2000      	movs	r0, #0
   249e6:	2c02      	cmp	r4, #2
   249e8:	7028      	strb	r0, [r5, #0]
   249ea:	d004      	beq.n	249f6 <_ZN20complex_dynamic_type3app17h9327bf04e47d0831E+0x112>
   249ec:	2105      	movs	r1, #5
   249ee:	4630      	mov	r0, r6
   249f0:	4622      	mov	r2, r4
   249f2:	f006 fc45 	bl	2b280 <_ZN9allow_pin12dynamic_type7unshare17h19052c50f9e150aeE>
   249f6:	a807      	add	r0, sp, #28
   249f8:	7802      	ldrb	r2, [r0, #0]
   249fa:	2a02      	cmp	r2, #2
   249fc:	d003      	beq.n	24a06 <_ZN20complex_dynamic_type3app17h9327bf04e47d0831E+0x122>
   249fe:	2108      	movs	r1, #8
   24a00:	4630      	mov	r0, r6
   24a02:	f006 fc3d 	bl	2b280 <_ZN9allow_pin12dynamic_type7unshare17h19052c50f9e150aeE>
   24a06:	b029      	add	sp, #164	@ 0xa4
   24a08:	bdf0      	pop	{r4, r5, r6, r7, pc}
   24a0a:	46c0      	nop			@ (mov r8, r8)
   24a0c:	00000fce 	.word	0x00000fce
   24a10:	00010bbc 	.word	0x00010bbc

00024a14 <_ZN20complex_dynamic_type3app17h96bf8c5c4ddbe9d3E>:
   24a14:	b5f0      	push	{r4, r5, r6, r7, lr}
   24a16:	af03      	add	r7, sp, #12
   24a18:	b09d      	sub	sp, #116	@ 0x74
   24a1a:	9006      	str	r0, [sp, #24]
   24a1c:	a807      	add	r0, sp, #28
   24a1e:	2502      	movs	r5, #2
   24a20:	7005      	strb	r5, [r0, #0]
   24a22:	1c40      	adds	r0, r0, #1
   24a24:	9004      	str	r0, [sp, #16]
   24a26:	2636      	movs	r6, #54	@ 0x36
   24a28:	4632      	mov	r2, r6
   24a2a:	f006 fe0e 	bl	2b64a <__aeabi_memcpy>
   24a2e:	ac15      	add	r4, sp, #84	@ 0x54
   24a30:	1c60      	adds	r0, r4, #1
   24a32:	210f      	movs	r1, #15
   24a34:	9005      	str	r0, [sp, #20]
   24a36:	9103      	str	r1, [sp, #12]
   24a38:	f006 fc47 	bl	2b2ca <__aeabi_memclr>
   24a3c:	9502      	str	r5, [sp, #8]
   24a3e:	7025      	strb	r5, [r4, #0]
   24a40:	2404      	movs	r4, #4
   24a42:	9600      	str	r6, [sp, #0]
   24a44:	9401      	str	r4, [sp, #4]
   24a46:	a819      	add	r0, sp, #100	@ 0x64
   24a48:	493b      	ldr	r1, [pc, #236]	@ (24b38 <_ZN20complex_dynamic_type3app17h96bf8c5c4ddbe9d3E+0x124>)
   24a4a:	2205      	movs	r2, #5
   24a4c:	9b04      	ldr	r3, [sp, #16]
   24a4e:	f006 fc24 	bl	2b29a <_ZN9allow_pin13dynamic_allow17h8bfd3764c146b81aE>
   24a52:	9819      	ldr	r0, [sp, #100]	@ 0x64
   24a54:	2802      	cmp	r0, #2
   24a56:	d101      	bne.n	24a5c <_ZN20complex_dynamic_type3app17h96bf8c5c4ddbe9d3E+0x48>
   24a58:	991a      	ldr	r1, [sp, #104]	@ 0x68
   24a5a:	e001      	b.n	24a60 <_ZN20complex_dynamic_type3app17h96bf8c5c4ddbe9d3E+0x4c>
   24a5c:	a907      	add	r1, sp, #28
   24a5e:	700c      	strb	r4, [r1, #0]
   24a60:	2601      	movs	r6, #1
   24a62:	2802      	cmp	r0, #2
   24a64:	d024      	beq.n	24ab0 <_ZN20complex_dynamic_type3app17h96bf8c5c4ddbe9d3E+0x9c>
   24a66:	a815      	add	r0, sp, #84	@ 0x54
   24a68:	7800      	ldrb	r0, [r0, #0]
   24a6a:	2802      	cmp	r0, #2
   24a6c:	d10e      	bne.n	24a8c <_ZN20complex_dynamic_type3app17h96bf8c5c4ddbe9d3E+0x78>
   24a6e:	2503      	movs	r5, #3
   24a70:	9803      	ldr	r0, [sp, #12]
   24a72:	9000      	str	r0, [sp, #0]
   24a74:	9501      	str	r5, [sp, #4]
   24a76:	a819      	add	r0, sp, #100	@ 0x64
   24a78:	492f      	ldr	r1, [pc, #188]	@ (24b38 <_ZN20complex_dynamic_type3app17h96bf8c5c4ddbe9d3E+0x124>)
   24a7a:	462a      	mov	r2, r5
   24a7c:	9b05      	ldr	r3, [sp, #20]
   24a7e:	f006 fc0c 	bl	2b29a <_ZN9allow_pin13dynamic_allow17h8bfd3764c146b81aE>
   24a82:	9819      	ldr	r0, [sp, #100]	@ 0x64
   24a84:	2802      	cmp	r0, #2
   24a86:	d106      	bne.n	24a96 <_ZN20complex_dynamic_type3app17h96bf8c5c4ddbe9d3E+0x82>
   24a88:	991a      	ldr	r1, [sp, #104]	@ 0x68
   24a8a:	e000      	b.n	24a8e <_ZN20complex_dynamic_type3app17h96bf8c5c4ddbe9d3E+0x7a>
   24a8c:	2103      	movs	r1, #3
   24a8e:	4630      	mov	r0, r6
   24a90:	2800      	cmp	r0, #0
   24a92:	d005      	beq.n	24aa0 <_ZN20complex_dynamic_type3app17h96bf8c5c4ddbe9d3E+0x8c>
   24a94:	e00c      	b.n	24ab0 <_ZN20complex_dynamic_type3app17h96bf8c5c4ddbe9d3E+0x9c>
   24a96:	a815      	add	r0, sp, #84	@ 0x54
   24a98:	7005      	strb	r5, [r0, #0]
   24a9a:	2000      	movs	r0, #0
   24a9c:	2800      	cmp	r0, #0
   24a9e:	d107      	bne.n	24ab0 <_ZN20complex_dynamic_type3app17h96bf8c5c4ddbe9d3E+0x9c>
   24aa0:	4825      	ldr	r0, [pc, #148]	@ (24b38 <_ZN20complex_dynamic_type3app17h96bf8c5c4ddbe9d3E+0x124>)
   24aa2:	2105      	movs	r1, #5
   24aa4:	2203      	movs	r2, #3
   24aa6:	2400      	movs	r4, #0
   24aa8:	4623      	mov	r3, r4
   24aaa:	df02      	svc	2
   24aac:	287f      	cmp	r0, #127	@ 0x7f
   24aae:	d80d      	bhi.n	24acc <_ZN20complex_dynamic_type3app17h96bf8c5c4ddbe9d3E+0xb8>
   24ab0:	4634      	mov	r4, r6
   24ab2:	2c00      	cmp	r4, #0
   24ab4:	d021      	beq.n	24afa <_ZN20complex_dynamic_type3app17h96bf8c5c4ddbe9d3E+0xe6>
   24ab6:	2001      	movs	r0, #1
   24ab8:	9a06      	ldr	r2, [sp, #24]
   24aba:	7010      	strb	r0, [r2, #0]
   24abc:	6051      	str	r1, [r2, #4]
   24abe:	a815      	add	r0, sp, #84	@ 0x54
   24ac0:	7802      	ldrb	r2, [r0, #0]
   24ac2:	2a02      	cmp	r2, #2
   24ac4:	d02e      	beq.n	24b24 <_ZN20complex_dynamic_type3app17h96bf8c5c4ddbe9d3E+0x110>
   24ac6:	2103      	movs	r1, #3
   24ac8:	481b      	ldr	r0, [pc, #108]	@ (24b38 <_ZN20complex_dynamic_type3app17h96bf8c5c4ddbe9d3E+0x124>)
   24aca:	e029      	b.n	24b20 <_ZN20complex_dynamic_type3app17h96bf8c5c4ddbe9d3E+0x10c>
   24acc:	a807      	add	r0, sp, #28
   24ace:	7802      	ldrb	r2, [r0, #0]
   24ad0:	2a02      	cmp	r2, #2
   24ad2:	d003      	beq.n	24adc <_ZN20complex_dynamic_type3app17h96bf8c5c4ddbe9d3E+0xc8>
   24ad4:	2105      	movs	r1, #5
   24ad6:	4818      	ldr	r0, [pc, #96]	@ (24b38 <_ZN20complex_dynamic_type3app17h96bf8c5c4ddbe9d3E+0x124>)
   24ad8:	f006 fbd2 	bl	2b280 <_ZN9allow_pin12dynamic_type7unshare17h19052c50f9e150aeE>
   24adc:	a807      	add	r0, sp, #28
   24ade:	9d02      	ldr	r5, [sp, #8]
   24ae0:	7005      	strb	r5, [r0, #0]
   24ae2:	a815      	add	r0, sp, #84	@ 0x54
   24ae4:	7802      	ldrb	r2, [r0, #0]
   24ae6:	2a02      	cmp	r2, #2
   24ae8:	d003      	beq.n	24af2 <_ZN20complex_dynamic_type3app17h96bf8c5c4ddbe9d3E+0xde>
   24aea:	2103      	movs	r1, #3
   24aec:	4812      	ldr	r0, [pc, #72]	@ (24b38 <_ZN20complex_dynamic_type3app17h96bf8c5c4ddbe9d3E+0x124>)
   24aee:	f006 fbc7 	bl	2b280 <_ZN9allow_pin12dynamic_type7unshare17h19052c50f9e150aeE>
   24af2:	a815      	add	r0, sp, #84	@ 0x54
   24af4:	7005      	strb	r5, [r0, #0]
   24af6:	2c00      	cmp	r4, #0
   24af8:	d1dd      	bne.n	24ab6 <_ZN20complex_dynamic_type3app17h96bf8c5c4ddbe9d3E+0xa2>
   24afa:	a815      	add	r0, sp, #84	@ 0x54
   24afc:	7804      	ldrb	r4, [r0, #0]
   24afe:	2c02      	cmp	r4, #2
   24b00:	d001      	beq.n	24b06 <_ZN20complex_dynamic_type3app17h96bf8c5c4ddbe9d3E+0xf2>
   24b02:	480e      	ldr	r0, [pc, #56]	@ (24b3c <_ZN20complex_dynamic_type3app17h96bf8c5c4ddbe9d3E+0x128>)
   24b04:	9005      	str	r0, [sp, #20]
   24b06:	9d06      	ldr	r5, [sp, #24]
   24b08:	1c68      	adds	r0, r5, #1
   24b0a:	220f      	movs	r2, #15
   24b0c:	9905      	ldr	r1, [sp, #20]
   24b0e:	f006 fd9c 	bl	2b64a <__aeabi_memcpy>
   24b12:	2000      	movs	r0, #0
   24b14:	2c02      	cmp	r4, #2
   24b16:	7028      	strb	r0, [r5, #0]
   24b18:	d004      	beq.n	24b24 <_ZN20complex_dynamic_type3app17h96bf8c5c4ddbe9d3E+0x110>
   24b1a:	2103      	movs	r1, #3
   24b1c:	4806      	ldr	r0, [pc, #24]	@ (24b38 <_ZN20complex_dynamic_type3app17h96bf8c5c4ddbe9d3E+0x124>)
   24b1e:	4622      	mov	r2, r4
   24b20:	f006 fbae 	bl	2b280 <_ZN9allow_pin12dynamic_type7unshare17h19052c50f9e150aeE>
   24b24:	a807      	add	r0, sp, #28
   24b26:	7802      	ldrb	r2, [r0, #0]
   24b28:	2a02      	cmp	r2, #2
   24b2a:	d003      	beq.n	24b34 <_ZN20complex_dynamic_type3app17h96bf8c5c4ddbe9d3E+0x120>
   24b2c:	2105      	movs	r1, #5
   24b2e:	4802      	ldr	r0, [pc, #8]	@ (24b38 <_ZN20complex_dynamic_type3app17h96bf8c5c4ddbe9d3E+0x124>)
   24b30:	f006 fba6 	bl	2b280 <_ZN9allow_pin12dynamic_type7unshare17h19052c50f9e150aeE>
   24b34:	b01d      	add	sp, #116	@ 0x74
   24b36:	bdf0      	pop	{r4, r5, r6, r7, pc}
   24b38:	00000653 	.word	0x00000653
   24b3c:	00010aa4 	.word	0x00010aa4

00024b40 <_ZN20complex_dynamic_type3app17h97b514cab00671c3E>:
   24b40:	b5f0      	push	{r4, r5, r6, r7, lr}
   24b42:	af03      	add	r7, sp, #12
   24b44:	b0b7      	sub	sp, #220	@ 0xdc
   24b46:	9005      	str	r0, [sp, #20]
   24b48:	a806      	add	r0, sp, #24
   24b4a:	2402      	movs	r4, #2
   24b4c:	7004      	strb	r4, [r0, #0]
   24b4e:	1c40      	adds	r0, r0, #1
   24b50:	9003      	str	r0, [sp, #12]
   24b52:	254f      	movs	r5, #79	@ 0x4f
   24b54:	462a      	mov	r2, r5
   24b56:	f006 fd78 	bl	2b64a <__aeabi_memcpy>
   24b5a:	ae1a      	add	r6, sp, #104	@ 0x68
   24b5c:	1c70      	adds	r0, r6, #1
   24b5e:	2161      	movs	r1, #97	@ 0x61
   24b60:	9004      	str	r0, [sp, #16]
   24b62:	9102      	str	r1, [sp, #8]
   24b64:	f006 fbb1 	bl	2b2ca <__aeabi_memclr>
   24b68:	7034      	strb	r4, [r6, #0]
   24b6a:	2004      	movs	r0, #4
   24b6c:	9500      	str	r5, [sp, #0]
   24b6e:	4605      	mov	r5, r0
   24b70:	9001      	str	r0, [sp, #4]
   24b72:	20db      	movs	r0, #219	@ 0xdb
   24b74:	0046      	lsls	r6, r0, #1
   24b76:	a833      	add	r0, sp, #204	@ 0xcc
   24b78:	4631      	mov	r1, r6
   24b7a:	4622      	mov	r2, r4
   24b7c:	9b03      	ldr	r3, [sp, #12]
   24b7e:	f006 fb8c 	bl	2b29a <_ZN9allow_pin13dynamic_allow17h8bfd3764c146b81aE>
   24b82:	9833      	ldr	r0, [sp, #204]	@ 0xcc
   24b84:	2802      	cmp	r0, #2
   24b86:	d101      	bne.n	24b8c <_ZN20complex_dynamic_type3app17h97b514cab00671c3E+0x4c>
   24b88:	9934      	ldr	r1, [sp, #208]	@ 0xd0
   24b8a:	e001      	b.n	24b90 <_ZN20complex_dynamic_type3app17h97b514cab00671c3E+0x50>
   24b8c:	a906      	add	r1, sp, #24
   24b8e:	700d      	strb	r5, [r1, #0]
   24b90:	2401      	movs	r4, #1
   24b92:	2802      	cmp	r0, #2
   24b94:	d025      	beq.n	24be2 <_ZN20complex_dynamic_type3app17h97b514cab00671c3E+0xa2>
   24b96:	a81a      	add	r0, sp, #104	@ 0x68
   24b98:	7800      	ldrb	r0, [r0, #0]
   24b9a:	2802      	cmp	r0, #2
   24b9c:	d10e      	bne.n	24bbc <_ZN20complex_dynamic_type3app17h97b514cab00671c3E+0x7c>
   24b9e:	2503      	movs	r5, #3
   24ba0:	9802      	ldr	r0, [sp, #8]
   24ba2:	9000      	str	r0, [sp, #0]
   24ba4:	9501      	str	r5, [sp, #4]
   24ba6:	a833      	add	r0, sp, #204	@ 0xcc
   24ba8:	2208      	movs	r2, #8
   24baa:	4631      	mov	r1, r6
   24bac:	9b04      	ldr	r3, [sp, #16]
   24bae:	f006 fb74 	bl	2b29a <_ZN9allow_pin13dynamic_allow17h8bfd3764c146b81aE>
   24bb2:	9833      	ldr	r0, [sp, #204]	@ 0xcc
   24bb4:	2802      	cmp	r0, #2
   24bb6:	d106      	bne.n	24bc6 <_ZN20complex_dynamic_type3app17h97b514cab00671c3E+0x86>
   24bb8:	9934      	ldr	r1, [sp, #208]	@ 0xd0
   24bba:	e000      	b.n	24bbe <_ZN20complex_dynamic_type3app17h97b514cab00671c3E+0x7e>
   24bbc:	2103      	movs	r1, #3
   24bbe:	4620      	mov	r0, r4
   24bc0:	2800      	cmp	r0, #0
   24bc2:	d005      	beq.n	24bd0 <_ZN20complex_dynamic_type3app17h97b514cab00671c3E+0x90>
   24bc4:	e00d      	b.n	24be2 <_ZN20complex_dynamic_type3app17h97b514cab00671c3E+0xa2>
   24bc6:	a81a      	add	r0, sp, #104	@ 0x68
   24bc8:	7005      	strb	r5, [r0, #0]
   24bca:	2000      	movs	r0, #0
   24bcc:	2800      	cmp	r0, #0
   24bce:	d108      	bne.n	24be2 <_ZN20complex_dynamic_type3app17h97b514cab00671c3E+0xa2>
   24bd0:	2102      	movs	r1, #2
   24bd2:	2208      	movs	r2, #8
   24bd4:	2500      	movs	r5, #0
   24bd6:	4630      	mov	r0, r6
   24bd8:	9103      	str	r1, [sp, #12]
   24bda:	462b      	mov	r3, r5
   24bdc:	df02      	svc	2
   24bde:	287f      	cmp	r0, #127	@ 0x7f
   24be0:	d80d      	bhi.n	24bfe <_ZN20complex_dynamic_type3app17h97b514cab00671c3E+0xbe>
   24be2:	4625      	mov	r5, r4
   24be4:	2d00      	cmp	r5, #0
   24be6:	d021      	beq.n	24c2c <_ZN20complex_dynamic_type3app17h97b514cab00671c3E+0xec>
   24be8:	2001      	movs	r0, #1
   24bea:	9a05      	ldr	r2, [sp, #20]
   24bec:	7010      	strb	r0, [r2, #0]
   24bee:	6051      	str	r1, [r2, #4]
   24bf0:	a81a      	add	r0, sp, #104	@ 0x68
   24bf2:	7802      	ldrb	r2, [r0, #0]
   24bf4:	2a02      	cmp	r2, #2
   24bf6:	d02e      	beq.n	24c56 <_ZN20complex_dynamic_type3app17h97b514cab00671c3E+0x116>
   24bf8:	2108      	movs	r1, #8
   24bfa:	4630      	mov	r0, r6
   24bfc:	e029      	b.n	24c52 <_ZN20complex_dynamic_type3app17h97b514cab00671c3E+0x112>
   24bfe:	a806      	add	r0, sp, #24
   24c00:	7802      	ldrb	r2, [r0, #0]
   24c02:	2a02      	cmp	r2, #2
   24c04:	d003      	beq.n	24c0e <_ZN20complex_dynamic_type3app17h97b514cab00671c3E+0xce>
   24c06:	2102      	movs	r1, #2
   24c08:	4630      	mov	r0, r6
   24c0a:	f006 fb39 	bl	2b280 <_ZN9allow_pin12dynamic_type7unshare17h19052c50f9e150aeE>
   24c0e:	a806      	add	r0, sp, #24
   24c10:	9c03      	ldr	r4, [sp, #12]
   24c12:	7004      	strb	r4, [r0, #0]
   24c14:	a81a      	add	r0, sp, #104	@ 0x68
   24c16:	7802      	ldrb	r2, [r0, #0]
   24c18:	2a02      	cmp	r2, #2
   24c1a:	d003      	beq.n	24c24 <_ZN20complex_dynamic_type3app17h97b514cab00671c3E+0xe4>
   24c1c:	2108      	movs	r1, #8
   24c1e:	4630      	mov	r0, r6
   24c20:	f006 fb2e 	bl	2b280 <_ZN9allow_pin12dynamic_type7unshare17h19052c50f9e150aeE>
   24c24:	a81a      	add	r0, sp, #104	@ 0x68
   24c26:	7004      	strb	r4, [r0, #0]
   24c28:	2d00      	cmp	r5, #0
   24c2a:	d1dd      	bne.n	24be8 <_ZN20complex_dynamic_type3app17h97b514cab00671c3E+0xa8>
   24c2c:	a81a      	add	r0, sp, #104	@ 0x68
   24c2e:	7804      	ldrb	r4, [r0, #0]
   24c30:	2c02      	cmp	r4, #2
   24c32:	d001      	beq.n	24c38 <_ZN20complex_dynamic_type3app17h97b514cab00671c3E+0xf8>
   24c34:	480d      	ldr	r0, [pc, #52]	@ (24c6c <_ZN20complex_dynamic_type3app17h97b514cab00671c3E+0x12c>)
   24c36:	9004      	str	r0, [sp, #16]
   24c38:	9d05      	ldr	r5, [sp, #20]
   24c3a:	1c68      	adds	r0, r5, #1
   24c3c:	2261      	movs	r2, #97	@ 0x61
   24c3e:	9904      	ldr	r1, [sp, #16]
   24c40:	f006 fd03 	bl	2b64a <__aeabi_memcpy>
   24c44:	2000      	movs	r0, #0
   24c46:	2c02      	cmp	r4, #2
   24c48:	7028      	strb	r0, [r5, #0]
   24c4a:	d004      	beq.n	24c56 <_ZN20complex_dynamic_type3app17h97b514cab00671c3E+0x116>
   24c4c:	2108      	movs	r1, #8
   24c4e:	4630      	mov	r0, r6
   24c50:	4622      	mov	r2, r4
   24c52:	f006 fb15 	bl	2b280 <_ZN9allow_pin12dynamic_type7unshare17h19052c50f9e150aeE>
   24c56:	a806      	add	r0, sp, #24
   24c58:	7802      	ldrb	r2, [r0, #0]
   24c5a:	2a02      	cmp	r2, #2
   24c5c:	d003      	beq.n	24c66 <_ZN20complex_dynamic_type3app17h97b514cab00671c3E+0x126>
   24c5e:	2102      	movs	r1, #2
   24c60:	4630      	mov	r0, r6
   24c62:	f006 fb0d 	bl	2b280 <_ZN9allow_pin12dynamic_type7unshare17h19052c50f9e150aeE>
   24c66:	b037      	add	sp, #220	@ 0xdc
   24c68:	bdf0      	pop	{r4, r5, r6, r7, pc}
   24c6a:	46c0      	nop			@ (mov r8, r8)
   24c6c:	000107ce 	.word	0x000107ce

00024c70 <_ZN20complex_dynamic_type3app17h98b7850245d40627E>:
   24c70:	b5f0      	push	{r4, r5, r6, r7, lr}
   24c72:	af03      	add	r7, sp, #12
   24c74:	b0a3      	sub	sp, #140	@ 0x8c
   24c76:	9006      	str	r0, [sp, #24]
   24c78:	a807      	add	r0, sp, #28
   24c7a:	2402      	movs	r4, #2
   24c7c:	7004      	strb	r4, [r0, #0]
   24c7e:	1c40      	adds	r0, r0, #1
   24c80:	9004      	str	r0, [sp, #16]
   24c82:	261b      	movs	r6, #27
   24c84:	4632      	mov	r2, r6
   24c86:	f006 fce0 	bl	2b64a <__aeabi_memcpy>
   24c8a:	ad0e      	add	r5, sp, #56	@ 0x38
   24c8c:	1c68      	adds	r0, r5, #1
   24c8e:	2141      	movs	r1, #65	@ 0x41
   24c90:	9005      	str	r0, [sp, #20]
   24c92:	9103      	str	r1, [sp, #12]
   24c94:	f006 fb19 	bl	2b2ca <__aeabi_memclr>
   24c98:	9402      	str	r4, [sp, #8]
   24c9a:	702c      	strb	r4, [r5, #0]
   24c9c:	2504      	movs	r5, #4
   24c9e:	9600      	str	r6, [sp, #0]
   24ca0:	9501      	str	r5, [sp, #4]
   24ca2:	2005      	movs	r0, #5
   24ca4:	0186      	lsls	r6, r0, #6
   24ca6:	a81f      	add	r0, sp, #124	@ 0x7c
   24ca8:	2208      	movs	r2, #8
   24caa:	4631      	mov	r1, r6
   24cac:	9b04      	ldr	r3, [sp, #16]
   24cae:	f006 faf4 	bl	2b29a <_ZN9allow_pin13dynamic_allow17h8bfd3764c146b81aE>
   24cb2:	981f      	ldr	r0, [sp, #124]	@ 0x7c
   24cb4:	2802      	cmp	r0, #2
   24cb6:	d101      	bne.n	24cbc <_ZN20complex_dynamic_type3app17h98b7850245d40627E+0x4c>
   24cb8:	9920      	ldr	r1, [sp, #128]	@ 0x80
   24cba:	e001      	b.n	24cc0 <_ZN20complex_dynamic_type3app17h98b7850245d40627E+0x50>
   24cbc:	a907      	add	r1, sp, #28
   24cbe:	700d      	strb	r5, [r1, #0]
   24cc0:	2401      	movs	r4, #1
   24cc2:	2802      	cmp	r0, #2
   24cc4:	d024      	beq.n	24d10 <_ZN20complex_dynamic_type3app17h98b7850245d40627E+0xa0>
   24cc6:	a80e      	add	r0, sp, #56	@ 0x38
   24cc8:	7800      	ldrb	r0, [r0, #0]
   24cca:	2802      	cmp	r0, #2
   24ccc:	d10e      	bne.n	24cec <_ZN20complex_dynamic_type3app17h98b7850245d40627E+0x7c>
   24cce:	2503      	movs	r5, #3
   24cd0:	9803      	ldr	r0, [sp, #12]
   24cd2:	9000      	str	r0, [sp, #0]
   24cd4:	9501      	str	r5, [sp, #4]
   24cd6:	a81f      	add	r0, sp, #124	@ 0x7c
   24cd8:	2209      	movs	r2, #9
   24cda:	4631      	mov	r1, r6
   24cdc:	9b05      	ldr	r3, [sp, #20]
   24cde:	f006 fadc 	bl	2b29a <_ZN9allow_pin13dynamic_allow17h8bfd3764c146b81aE>
   24ce2:	981f      	ldr	r0, [sp, #124]	@ 0x7c
   24ce4:	2802      	cmp	r0, #2
   24ce6:	d106      	bne.n	24cf6 <_ZN20complex_dynamic_type3app17h98b7850245d40627E+0x86>
   24ce8:	9920      	ldr	r1, [sp, #128]	@ 0x80
   24cea:	e000      	b.n	24cee <_ZN20complex_dynamic_type3app17h98b7850245d40627E+0x7e>
   24cec:	2103      	movs	r1, #3
   24cee:	4620      	mov	r0, r4
   24cf0:	2800      	cmp	r0, #0
   24cf2:	d005      	beq.n	24d00 <_ZN20complex_dynamic_type3app17h98b7850245d40627E+0x90>
   24cf4:	e00c      	b.n	24d10 <_ZN20complex_dynamic_type3app17h98b7850245d40627E+0xa0>
   24cf6:	a80e      	add	r0, sp, #56	@ 0x38
   24cf8:	7005      	strb	r5, [r0, #0]
   24cfa:	2000      	movs	r0, #0
   24cfc:	2800      	cmp	r0, #0
   24cfe:	d107      	bne.n	24d10 <_ZN20complex_dynamic_type3app17h98b7850245d40627E+0xa0>
   24d00:	2108      	movs	r1, #8
   24d02:	2209      	movs	r2, #9
   24d04:	2500      	movs	r5, #0
   24d06:	4630      	mov	r0, r6
   24d08:	462b      	mov	r3, r5
   24d0a:	df02      	svc	2
   24d0c:	287f      	cmp	r0, #127	@ 0x7f
   24d0e:	d80d      	bhi.n	24d2c <_ZN20complex_dynamic_type3app17h98b7850245d40627E+0xbc>
   24d10:	4625      	mov	r5, r4
   24d12:	2d00      	cmp	r5, #0
   24d14:	d021      	beq.n	24d5a <_ZN20complex_dynamic_type3app17h98b7850245d40627E+0xea>
   24d16:	2001      	movs	r0, #1
   24d18:	9a06      	ldr	r2, [sp, #24]
   24d1a:	7010      	strb	r0, [r2, #0]
   24d1c:	6051      	str	r1, [r2, #4]
   24d1e:	a80e      	add	r0, sp, #56	@ 0x38
   24d20:	7802      	ldrb	r2, [r0, #0]
   24d22:	2a02      	cmp	r2, #2
   24d24:	d02e      	beq.n	24d84 <_ZN20complex_dynamic_type3app17h98b7850245d40627E+0x114>
   24d26:	2109      	movs	r1, #9
   24d28:	4630      	mov	r0, r6
   24d2a:	e029      	b.n	24d80 <_ZN20complex_dynamic_type3app17h98b7850245d40627E+0x110>
   24d2c:	a807      	add	r0, sp, #28
   24d2e:	7802      	ldrb	r2, [r0, #0]
   24d30:	2a02      	cmp	r2, #2
   24d32:	d003      	beq.n	24d3c <_ZN20complex_dynamic_type3app17h98b7850245d40627E+0xcc>
   24d34:	2108      	movs	r1, #8
   24d36:	4630      	mov	r0, r6
   24d38:	f006 faa2 	bl	2b280 <_ZN9allow_pin12dynamic_type7unshare17h19052c50f9e150aeE>
   24d3c:	a807      	add	r0, sp, #28
   24d3e:	9c02      	ldr	r4, [sp, #8]
   24d40:	7004      	strb	r4, [r0, #0]
   24d42:	a80e      	add	r0, sp, #56	@ 0x38
   24d44:	7802      	ldrb	r2, [r0, #0]
   24d46:	2a02      	cmp	r2, #2
   24d48:	d003      	beq.n	24d52 <_ZN20complex_dynamic_type3app17h98b7850245d40627E+0xe2>
   24d4a:	2109      	movs	r1, #9
   24d4c:	4630      	mov	r0, r6
   24d4e:	f006 fa97 	bl	2b280 <_ZN9allow_pin12dynamic_type7unshare17h19052c50f9e150aeE>
   24d52:	a80e      	add	r0, sp, #56	@ 0x38
   24d54:	7004      	strb	r4, [r0, #0]
   24d56:	2d00      	cmp	r5, #0
   24d58:	d1dd      	bne.n	24d16 <_ZN20complex_dynamic_type3app17h98b7850245d40627E+0xa6>
   24d5a:	a80e      	add	r0, sp, #56	@ 0x38
   24d5c:	7805      	ldrb	r5, [r0, #0]
   24d5e:	2d02      	cmp	r5, #2
   24d60:	d001      	beq.n	24d66 <_ZN20complex_dynamic_type3app17h98b7850245d40627E+0xf6>
   24d62:	480d      	ldr	r0, [pc, #52]	@ (24d98 <_ZN20complex_dynamic_type3app17h98b7850245d40627E+0x128>)
   24d64:	9005      	str	r0, [sp, #20]
   24d66:	9c06      	ldr	r4, [sp, #24]
   24d68:	1c60      	adds	r0, r4, #1
   24d6a:	2241      	movs	r2, #65	@ 0x41
   24d6c:	9905      	ldr	r1, [sp, #20]
   24d6e:	f006 fc6c 	bl	2b64a <__aeabi_memcpy>
   24d72:	2000      	movs	r0, #0
   24d74:	2d02      	cmp	r5, #2
   24d76:	7020      	strb	r0, [r4, #0]
   24d78:	d004      	beq.n	24d84 <_ZN20complex_dynamic_type3app17h98b7850245d40627E+0x114>
   24d7a:	2109      	movs	r1, #9
   24d7c:	4630      	mov	r0, r6
   24d7e:	462a      	mov	r2, r5
   24d80:	f006 fa7e 	bl	2b280 <_ZN9allow_pin12dynamic_type7unshare17h19052c50f9e150aeE>
   24d84:	a807      	add	r0, sp, #28
   24d86:	7802      	ldrb	r2, [r0, #0]
   24d88:	2a02      	cmp	r2, #2
   24d8a:	d003      	beq.n	24d94 <_ZN20complex_dynamic_type3app17h98b7850245d40627E+0x124>
   24d8c:	2108      	movs	r1, #8
   24d8e:	4630      	mov	r0, r6
   24d90:	f006 fa76 	bl	2b280 <_ZN9allow_pin12dynamic_type7unshare17h19052c50f9e150aeE>
   24d94:	b023      	add	sp, #140	@ 0x8c
   24d96:	bdf0      	pop	{r4, r5, r6, r7, pc}
   24d98:	000100fe 	.word	0x000100fe

00024d9c <_ZN20complex_dynamic_type3app17h9e036daf3c0a155bE>:
   24d9c:	b5f0      	push	{r4, r5, r6, r7, lr}
   24d9e:	af03      	add	r7, sp, #12
   24da0:	b099      	sub	sp, #100	@ 0x64
   24da2:	9007      	str	r0, [sp, #28]
   24da4:	a808      	add	r0, sp, #32
   24da6:	2502      	movs	r5, #2
   24da8:	7005      	strb	r5, [r0, #0]
   24daa:	1c40      	adds	r0, r0, #1
   24dac:	9005      	str	r0, [sp, #20]
   24dae:	260d      	movs	r6, #13
   24db0:	4632      	mov	r2, r6
   24db2:	f006 fc4a 	bl	2b64a <__aeabi_memcpy>
   24db6:	ac0c      	add	r4, sp, #48	@ 0x30
   24db8:	1c60      	adds	r0, r4, #1
   24dba:	2121      	movs	r1, #33	@ 0x21
   24dbc:	9006      	str	r0, [sp, #24]
   24dbe:	9103      	str	r1, [sp, #12]
   24dc0:	f006 fa83 	bl	2b2ca <__aeabi_memclr>
   24dc4:	9502      	str	r5, [sp, #8]
   24dc6:	7025      	strb	r5, [r4, #0]
   24dc8:	2404      	movs	r4, #4
   24dca:	9600      	str	r6, [sp, #0]
   24dcc:	9401      	str	r4, [sp, #4]
   24dce:	a815      	add	r0, sp, #84	@ 0x54
   24dd0:	4e3d      	ldr	r6, [pc, #244]	@ (24ec8 <_ZN20complex_dynamic_type3app17h9e036daf3c0a155bE+0x12c>)
   24dd2:	2200      	movs	r2, #0
   24dd4:	4631      	mov	r1, r6
   24dd6:	9204      	str	r2, [sp, #16]
   24dd8:	9b05      	ldr	r3, [sp, #20]
   24dda:	f006 fa5e 	bl	2b29a <_ZN9allow_pin13dynamic_allow17h8bfd3764c146b81aE>
   24dde:	9815      	ldr	r0, [sp, #84]	@ 0x54
   24de0:	2802      	cmp	r0, #2
   24de2:	d101      	bne.n	24de8 <_ZN20complex_dynamic_type3app17h9e036daf3c0a155bE+0x4c>
   24de4:	9916      	ldr	r1, [sp, #88]	@ 0x58
   24de6:	e001      	b.n	24dec <_ZN20complex_dynamic_type3app17h9e036daf3c0a155bE+0x50>
   24de8:	a908      	add	r1, sp, #32
   24dea:	700c      	strb	r4, [r1, #0]
   24dec:	2501      	movs	r5, #1
   24dee:	2802      	cmp	r0, #2
   24df0:	d10d      	bne.n	24e0e <_ZN20complex_dynamic_type3app17h9e036daf3c0a155bE+0x72>
   24df2:	462c      	mov	r4, r5
   24df4:	2c00      	cmp	r4, #0
   24df6:	d048      	beq.n	24e8a <_ZN20complex_dynamic_type3app17h9e036daf3c0a155bE+0xee>
   24df8:	2001      	movs	r0, #1
   24dfa:	9a07      	ldr	r2, [sp, #28]
   24dfc:	7010      	strb	r0, [r2, #0]
   24dfe:	6051      	str	r1, [r2, #4]
   24e00:	a80c      	add	r0, sp, #48	@ 0x30
   24e02:	7802      	ldrb	r2, [r0, #0]
   24e04:	2a02      	cmp	r2, #2
   24e06:	d055      	beq.n	24eb4 <_ZN20complex_dynamic_type3app17h9e036daf3c0a155bE+0x118>
   24e08:	2100      	movs	r1, #0
   24e0a:	4630      	mov	r0, r6
   24e0c:	e050      	b.n	24eb0 <_ZN20complex_dynamic_type3app17h9e036daf3c0a155bE+0x114>
   24e0e:	a80c      	add	r0, sp, #48	@ 0x30
   24e10:	7800      	ldrb	r0, [r0, #0]
   24e12:	2802      	cmp	r0, #2
   24e14:	d110      	bne.n	24e38 <_ZN20complex_dynamic_type3app17h9e036daf3c0a155bE+0x9c>
   24e16:	4631      	mov	r1, r6
   24e18:	2603      	movs	r6, #3
   24e1a:	9803      	ldr	r0, [sp, #12]
   24e1c:	9000      	str	r0, [sp, #0]
   24e1e:	9601      	str	r6, [sp, #4]
   24e20:	a815      	add	r0, sp, #84	@ 0x54
   24e22:	2400      	movs	r4, #0
   24e24:	4622      	mov	r2, r4
   24e26:	9b06      	ldr	r3, [sp, #24]
   24e28:	f006 fa37 	bl	2b29a <_ZN9allow_pin13dynamic_allow17h8bfd3764c146b81aE>
   24e2c:	9815      	ldr	r0, [sp, #84]	@ 0x54
   24e2e:	2802      	cmp	r0, #2
   24e30:	d107      	bne.n	24e42 <_ZN20complex_dynamic_type3app17h9e036daf3c0a155bE+0xa6>
   24e32:	9916      	ldr	r1, [sp, #88]	@ 0x58
   24e34:	462c      	mov	r4, r5
   24e36:	e006      	b.n	24e46 <_ZN20complex_dynamic_type3app17h9e036daf3c0a155bE+0xaa>
   24e38:	2103      	movs	r1, #3
   24e3a:	462c      	mov	r4, r5
   24e3c:	2c00      	cmp	r4, #0
   24e3e:	d1d8      	bne.n	24df2 <_ZN20complex_dynamic_type3app17h9e036daf3c0a155bE+0x56>
   24e40:	e004      	b.n	24e4c <_ZN20complex_dynamic_type3app17h9e036daf3c0a155bE+0xb0>
   24e42:	a80c      	add	r0, sp, #48	@ 0x30
   24e44:	7006      	strb	r6, [r0, #0]
   24e46:	4e20      	ldr	r6, [pc, #128]	@ (24ec8 <_ZN20complex_dynamic_type3app17h9e036daf3c0a155bE+0x12c>)
   24e48:	2c00      	cmp	r4, #0
   24e4a:	d1d2      	bne.n	24df2 <_ZN20complex_dynamic_type3app17h9e036daf3c0a155bE+0x56>
   24e4c:	481e      	ldr	r0, [pc, #120]	@ (24ec8 <_ZN20complex_dynamic_type3app17h9e036daf3c0a155bE+0x12c>)
   24e4e:	2400      	movs	r4, #0
   24e50:	4621      	mov	r1, r4
   24e52:	4622      	mov	r2, r4
   24e54:	4623      	mov	r3, r4
   24e56:	df02      	svc	2
   24e58:	287f      	cmp	r0, #127	@ 0x7f
   24e5a:	d9ca      	bls.n	24df2 <_ZN20complex_dynamic_type3app17h9e036daf3c0a155bE+0x56>
   24e5c:	a808      	add	r0, sp, #32
   24e5e:	7802      	ldrb	r2, [r0, #0]
   24e60:	2a02      	cmp	r2, #2
   24e62:	d003      	beq.n	24e6c <_ZN20complex_dynamic_type3app17h9e036daf3c0a155bE+0xd0>
   24e64:	2100      	movs	r1, #0
   24e66:	4630      	mov	r0, r6
   24e68:	f006 fa0a 	bl	2b280 <_ZN9allow_pin12dynamic_type7unshare17h19052c50f9e150aeE>
   24e6c:	a808      	add	r0, sp, #32
   24e6e:	9d02      	ldr	r5, [sp, #8]
   24e70:	7005      	strb	r5, [r0, #0]
   24e72:	a80c      	add	r0, sp, #48	@ 0x30
   24e74:	7802      	ldrb	r2, [r0, #0]
   24e76:	2a02      	cmp	r2, #2
   24e78:	d003      	beq.n	24e82 <_ZN20complex_dynamic_type3app17h9e036daf3c0a155bE+0xe6>
   24e7a:	2100      	movs	r1, #0
   24e7c:	4630      	mov	r0, r6
   24e7e:	f006 f9ff 	bl	2b280 <_ZN9allow_pin12dynamic_type7unshare17h19052c50f9e150aeE>
   24e82:	a80c      	add	r0, sp, #48	@ 0x30
   24e84:	7005      	strb	r5, [r0, #0]
   24e86:	2c00      	cmp	r4, #0
   24e88:	d1b6      	bne.n	24df8 <_ZN20complex_dynamic_type3app17h9e036daf3c0a155bE+0x5c>
   24e8a:	a80c      	add	r0, sp, #48	@ 0x30
   24e8c:	7804      	ldrb	r4, [r0, #0]
   24e8e:	2c02      	cmp	r4, #2
   24e90:	d001      	beq.n	24e96 <_ZN20complex_dynamic_type3app17h9e036daf3c0a155bE+0xfa>
   24e92:	480e      	ldr	r0, [pc, #56]	@ (24ecc <_ZN20complex_dynamic_type3app17h9e036daf3c0a155bE+0x130>)
   24e94:	9006      	str	r0, [sp, #24]
   24e96:	9d07      	ldr	r5, [sp, #28]
   24e98:	1c68      	adds	r0, r5, #1
   24e9a:	2221      	movs	r2, #33	@ 0x21
   24e9c:	9906      	ldr	r1, [sp, #24]
   24e9e:	f006 fbd4 	bl	2b64a <__aeabi_memcpy>
   24ea2:	2c02      	cmp	r4, #2
   24ea4:	9804      	ldr	r0, [sp, #16]
   24ea6:	7028      	strb	r0, [r5, #0]
   24ea8:	d004      	beq.n	24eb4 <_ZN20complex_dynamic_type3app17h9e036daf3c0a155bE+0x118>
   24eaa:	2100      	movs	r1, #0
   24eac:	4630      	mov	r0, r6
   24eae:	4622      	mov	r2, r4
   24eb0:	f006 f9e6 	bl	2b280 <_ZN9allow_pin12dynamic_type7unshare17h19052c50f9e150aeE>
   24eb4:	a808      	add	r0, sp, #32
   24eb6:	7802      	ldrb	r2, [r0, #0]
   24eb8:	2a02      	cmp	r2, #2
   24eba:	d003      	beq.n	24ec4 <_ZN20complex_dynamic_type3app17h9e036daf3c0a155bE+0x128>
   24ebc:	2100      	movs	r1, #0
   24ebe:	4630      	mov	r0, r6
   24ec0:	f006 f9de 	bl	2b280 <_ZN9allow_pin12dynamic_type7unshare17h19052c50f9e150aeE>
   24ec4:	b019      	add	sp, #100	@ 0x64
   24ec6:	bdf0      	pop	{r4, r5, r6, r7, pc}
   24ec8:	000016b0 	.word	0x000016b0
   24ecc:	000102a5 	.word	0x000102a5

00024ed0 <_ZN20complex_dynamic_type3app17h9ed4bf16c74afc28E>:
   24ed0:	b5f0      	push	{r4, r5, r6, r7, lr}
   24ed2:	af03      	add	r7, sp, #12
   24ed4:	b09d      	sub	sp, #116	@ 0x74
   24ed6:	9006      	str	r0, [sp, #24]
   24ed8:	a807      	add	r0, sp, #28
   24eda:	2502      	movs	r5, #2
   24edc:	7005      	strb	r5, [r0, #0]
   24ede:	1c40      	adds	r0, r0, #1
   24ee0:	9004      	str	r0, [sp, #16]
   24ee2:	2632      	movs	r6, #50	@ 0x32
   24ee4:	4632      	mov	r2, r6
   24ee6:	f006 fbb0 	bl	2b64a <__aeabi_memcpy>
   24eea:	ac14      	add	r4, sp, #80	@ 0x50
   24eec:	1c60      	adds	r0, r4, #1
   24eee:	2110      	movs	r1, #16
   24ef0:	9005      	str	r0, [sp, #20]
   24ef2:	9103      	str	r1, [sp, #12]
   24ef4:	f006 f9e9 	bl	2b2ca <__aeabi_memclr>
   24ef8:	9502      	str	r5, [sp, #8]
   24efa:	7025      	strb	r5, [r4, #0]
   24efc:	2404      	movs	r4, #4
   24efe:	9600      	str	r6, [sp, #0]
   24f00:	9401      	str	r4, [sp, #4]
   24f02:	a819      	add	r0, sp, #100	@ 0x64
   24f04:	4e3c      	ldr	r6, [pc, #240]	@ (24ff8 <_ZN20complex_dynamic_type3app17h9ed4bf16c74afc28E+0x128>)
   24f06:	4631      	mov	r1, r6
   24f08:	4622      	mov	r2, r4
   24f0a:	9b04      	ldr	r3, [sp, #16]
   24f0c:	f006 f9c5 	bl	2b29a <_ZN9allow_pin13dynamic_allow17h8bfd3764c146b81aE>
   24f10:	9819      	ldr	r0, [sp, #100]	@ 0x64
   24f12:	2802      	cmp	r0, #2
   24f14:	d101      	bne.n	24f1a <_ZN20complex_dynamic_type3app17h9ed4bf16c74afc28E+0x4a>
   24f16:	991a      	ldr	r1, [sp, #104]	@ 0x68
   24f18:	e001      	b.n	24f1e <_ZN20complex_dynamic_type3app17h9ed4bf16c74afc28E+0x4e>
   24f1a:	a907      	add	r1, sp, #28
   24f1c:	700c      	strb	r4, [r1, #0]
   24f1e:	2501      	movs	r5, #1
   24f20:	2802      	cmp	r0, #2
   24f22:	d024      	beq.n	24f6e <_ZN20complex_dynamic_type3app17h9ed4bf16c74afc28E+0x9e>
   24f24:	a814      	add	r0, sp, #80	@ 0x50
   24f26:	7800      	ldrb	r0, [r0, #0]
   24f28:	2802      	cmp	r0, #2
   24f2a:	d10e      	bne.n	24f4a <_ZN20complex_dynamic_type3app17h9ed4bf16c74afc28E+0x7a>
   24f2c:	2403      	movs	r4, #3
   24f2e:	9803      	ldr	r0, [sp, #12]
   24f30:	9000      	str	r0, [sp, #0]
   24f32:	9401      	str	r4, [sp, #4]
   24f34:	a819      	add	r0, sp, #100	@ 0x64
   24f36:	2209      	movs	r2, #9
   24f38:	4631      	mov	r1, r6
   24f3a:	9b05      	ldr	r3, [sp, #20]
   24f3c:	f006 f9ad 	bl	2b29a <_ZN9allow_pin13dynamic_allow17h8bfd3764c146b81aE>
   24f40:	9819      	ldr	r0, [sp, #100]	@ 0x64
   24f42:	2802      	cmp	r0, #2
   24f44:	d106      	bne.n	24f54 <_ZN20complex_dynamic_type3app17h9ed4bf16c74afc28E+0x84>
   24f46:	991a      	ldr	r1, [sp, #104]	@ 0x68
   24f48:	e000      	b.n	24f4c <_ZN20complex_dynamic_type3app17h9ed4bf16c74afc28E+0x7c>
   24f4a:	2103      	movs	r1, #3
   24f4c:	4628      	mov	r0, r5
   24f4e:	2800      	cmp	r0, #0
   24f50:	d005      	beq.n	24f5e <_ZN20complex_dynamic_type3app17h9ed4bf16c74afc28E+0x8e>
   24f52:	e00c      	b.n	24f6e <_ZN20complex_dynamic_type3app17h9ed4bf16c74afc28E+0x9e>
   24f54:	a814      	add	r0, sp, #80	@ 0x50
   24f56:	7004      	strb	r4, [r0, #0]
   24f58:	2000      	movs	r0, #0
   24f5a:	2800      	cmp	r0, #0
   24f5c:	d107      	bne.n	24f6e <_ZN20complex_dynamic_type3app17h9ed4bf16c74afc28E+0x9e>
   24f5e:	4826      	ldr	r0, [pc, #152]	@ (24ff8 <_ZN20complex_dynamic_type3app17h9ed4bf16c74afc28E+0x128>)
   24f60:	2104      	movs	r1, #4
   24f62:	2209      	movs	r2, #9
   24f64:	2400      	movs	r4, #0
   24f66:	4623      	mov	r3, r4
   24f68:	df02      	svc	2
   24f6a:	287f      	cmp	r0, #127	@ 0x7f
   24f6c:	d80d      	bhi.n	24f8a <_ZN20complex_dynamic_type3app17h9ed4bf16c74afc28E+0xba>
   24f6e:	462c      	mov	r4, r5
   24f70:	2c00      	cmp	r4, #0
   24f72:	d021      	beq.n	24fb8 <_ZN20complex_dynamic_type3app17h9ed4bf16c74afc28E+0xe8>
   24f74:	2001      	movs	r0, #1
   24f76:	9a06      	ldr	r2, [sp, #24]
   24f78:	7010      	strb	r0, [r2, #0]
   24f7a:	6051      	str	r1, [r2, #4]
   24f7c:	a814      	add	r0, sp, #80	@ 0x50
   24f7e:	7802      	ldrb	r2, [r0, #0]
   24f80:	2a02      	cmp	r2, #2
   24f82:	d02e      	beq.n	24fe2 <_ZN20complex_dynamic_type3app17h9ed4bf16c74afc28E+0x112>
   24f84:	2109      	movs	r1, #9
   24f86:	4630      	mov	r0, r6
   24f88:	e029      	b.n	24fde <_ZN20complex_dynamic_type3app17h9ed4bf16c74afc28E+0x10e>
   24f8a:	a807      	add	r0, sp, #28
   24f8c:	7802      	ldrb	r2, [r0, #0]
   24f8e:	2a02      	cmp	r2, #2
   24f90:	d003      	beq.n	24f9a <_ZN20complex_dynamic_type3app17h9ed4bf16c74afc28E+0xca>
   24f92:	2104      	movs	r1, #4
   24f94:	4630      	mov	r0, r6
   24f96:	f006 f973 	bl	2b280 <_ZN9allow_pin12dynamic_type7unshare17h19052c50f9e150aeE>
   24f9a:	a807      	add	r0, sp, #28
   24f9c:	9d02      	ldr	r5, [sp, #8]
   24f9e:	7005      	strb	r5, [r0, #0]
   24fa0:	a814      	add	r0, sp, #80	@ 0x50
   24fa2:	7802      	ldrb	r2, [r0, #0]
   24fa4:	2a02      	cmp	r2, #2
   24fa6:	d003      	beq.n	24fb0 <_ZN20complex_dynamic_type3app17h9ed4bf16c74afc28E+0xe0>
   24fa8:	2109      	movs	r1, #9
   24faa:	4630      	mov	r0, r6
   24fac:	f006 f968 	bl	2b280 <_ZN9allow_pin12dynamic_type7unshare17h19052c50f9e150aeE>
   24fb0:	a814      	add	r0, sp, #80	@ 0x50
   24fb2:	7005      	strb	r5, [r0, #0]
   24fb4:	2c00      	cmp	r4, #0
   24fb6:	d1dd      	bne.n	24f74 <_ZN20complex_dynamic_type3app17h9ed4bf16c74afc28E+0xa4>
   24fb8:	a814      	add	r0, sp, #80	@ 0x50
   24fba:	7804      	ldrb	r4, [r0, #0]
   24fbc:	2c02      	cmp	r4, #2
   24fbe:	d001      	beq.n	24fc4 <_ZN20complex_dynamic_type3app17h9ed4bf16c74afc28E+0xf4>
   24fc0:	480e      	ldr	r0, [pc, #56]	@ (24ffc <_ZN20complex_dynamic_type3app17h9ed4bf16c74afc28E+0x12c>)
   24fc2:	9005      	str	r0, [sp, #20]
   24fc4:	9d06      	ldr	r5, [sp, #24]
   24fc6:	1c68      	adds	r0, r5, #1
   24fc8:	2210      	movs	r2, #16
   24fca:	9905      	ldr	r1, [sp, #20]
   24fcc:	f006 fb3d 	bl	2b64a <__aeabi_memcpy>
   24fd0:	2000      	movs	r0, #0
   24fd2:	2c02      	cmp	r4, #2
   24fd4:	7028      	strb	r0, [r5, #0]
   24fd6:	d004      	beq.n	24fe2 <_ZN20complex_dynamic_type3app17h9ed4bf16c74afc28E+0x112>
   24fd8:	2109      	movs	r1, #9
   24fda:	4630      	mov	r0, r6
   24fdc:	4622      	mov	r2, r4
   24fde:	f006 f94f 	bl	2b280 <_ZN9allow_pin12dynamic_type7unshare17h19052c50f9e150aeE>
   24fe2:	a807      	add	r0, sp, #28
   24fe4:	7802      	ldrb	r2, [r0, #0]
   24fe6:	2a02      	cmp	r2, #2
   24fe8:	d003      	beq.n	24ff2 <_ZN20complex_dynamic_type3app17h9ed4bf16c74afc28E+0x122>
   24fea:	2104      	movs	r1, #4
   24fec:	4630      	mov	r0, r6
   24fee:	f006 f947 	bl	2b280 <_ZN9allow_pin12dynamic_type7unshare17h19052c50f9e150aeE>
   24ff2:	b01d      	add	sp, #116	@ 0x74
   24ff4:	bdf0      	pop	{r4, r5, r6, r7, pc}
   24ff6:	46c0      	nop			@ (mov r8, r8)
   24ff8:	000019d6 	.word	0x000019d6
   24ffc:	00010b08 	.word	0x00010b08

00025000 <_ZN20complex_dynamic_type3app17ha0b5e970c5f5168bE>:
   25000:	b5f0      	push	{r4, r5, r6, r7, lr}
   25002:	af03      	add	r7, sp, #12
   25004:	b0a3      	sub	sp, #140	@ 0x8c
   25006:	9007      	str	r0, [sp, #28]
   25008:	a808      	add	r0, sp, #32
   2500a:	2602      	movs	r6, #2
   2500c:	7006      	strb	r6, [r0, #0]
   2500e:	1c40      	adds	r0, r0, #1
   25010:	9005      	str	r0, [sp, #20]
   25012:	252c      	movs	r5, #44	@ 0x2c
   25014:	462a      	mov	r2, r5
   25016:	f006 fb18 	bl	2b64a <__aeabi_memcpy>
   2501a:	ac14      	add	r4, sp, #80	@ 0x50
   2501c:	1c60      	adds	r0, r4, #1
   2501e:	212a      	movs	r1, #42	@ 0x2a
   25020:	9006      	str	r0, [sp, #24]
   25022:	9104      	str	r1, [sp, #16]
   25024:	f006 f951 	bl	2b2ca <__aeabi_memclr>
   25028:	9603      	str	r6, [sp, #12]
   2502a:	7026      	strb	r6, [r4, #0]
   2502c:	2404      	movs	r4, #4
   2502e:	9500      	str	r5, [sp, #0]
   25030:	9401      	str	r4, [sp, #4]
   25032:	a81f      	add	r0, sp, #124	@ 0x7c
   25034:	493f      	ldr	r1, [pc, #252]	@ (25134 <_ZN20complex_dynamic_type3app17ha0b5e970c5f5168bE+0x134>)
   25036:	2503      	movs	r5, #3
   25038:	462a      	mov	r2, r5
   2503a:	9b05      	ldr	r3, [sp, #20]
   2503c:	f006 f92d 	bl	2b29a <_ZN9allow_pin13dynamic_allow17h8bfd3764c146b81aE>
   25040:	981f      	ldr	r0, [sp, #124]	@ 0x7c
   25042:	2802      	cmp	r0, #2
   25044:	d101      	bne.n	2504a <_ZN20complex_dynamic_type3app17ha0b5e970c5f5168bE+0x4a>
   25046:	9920      	ldr	r1, [sp, #128]	@ 0x80
   25048:	e001      	b.n	2504e <_ZN20complex_dynamic_type3app17ha0b5e970c5f5168bE+0x4e>
   2504a:	a908      	add	r1, sp, #32
   2504c:	700c      	strb	r4, [r1, #0]
   2504e:	2401      	movs	r4, #1
   25050:	2802      	cmp	r0, #2
   25052:	d02b      	beq.n	250ac <_ZN20complex_dynamic_type3app17ha0b5e970c5f5168bE+0xac>
   25054:	a814      	add	r0, sp, #80	@ 0x50
   25056:	7800      	ldrb	r0, [r0, #0]
   25058:	2802      	cmp	r0, #2
   2505a:	4626      	mov	r6, r4
   2505c:	d111      	bne.n	25082 <_ZN20complex_dynamic_type3app17ha0b5e970c5f5168bE+0x82>
   2505e:	9405      	str	r4, [sp, #20]
   25060:	2403      	movs	r4, #3
   25062:	9804      	ldr	r0, [sp, #16]
   25064:	9000      	str	r0, [sp, #0]
   25066:	9401      	str	r4, [sp, #4]
   25068:	a81f      	add	r0, sp, #124	@ 0x7c
   2506a:	2600      	movs	r6, #0
   2506c:	4931      	ldr	r1, [pc, #196]	@ (25134 <_ZN20complex_dynamic_type3app17ha0b5e970c5f5168bE+0x134>)
   2506e:	4632      	mov	r2, r6
   25070:	9b06      	ldr	r3, [sp, #24]
   25072:	f006 f912 	bl	2b29a <_ZN9allow_pin13dynamic_allow17h8bfd3764c146b81aE>
   25076:	981f      	ldr	r0, [sp, #124]	@ 0x7c
   25078:	2802      	cmp	r0, #2
   2507a:	d108      	bne.n	2508e <_ZN20complex_dynamic_type3app17ha0b5e970c5f5168bE+0x8e>
   2507c:	9d20      	ldr	r5, [sp, #128]	@ 0x80
   2507e:	9c05      	ldr	r4, [sp, #20]
   25080:	4626      	mov	r6, r4
   25082:	2e00      	cmp	r6, #0
   25084:	d008      	beq.n	25098 <_ZN20complex_dynamic_type3app17ha0b5e970c5f5168bE+0x98>
   25086:	4629      	mov	r1, r5
   25088:	2c00      	cmp	r4, #0
   2508a:	d111      	bne.n	250b0 <_ZN20complex_dynamic_type3app17ha0b5e970c5f5168bE+0xb0>
   2508c:	e032      	b.n	250f4 <_ZN20complex_dynamic_type3app17ha0b5e970c5f5168bE+0xf4>
   2508e:	a814      	add	r0, sp, #80	@ 0x50
   25090:	7004      	strb	r4, [r0, #0]
   25092:	9c05      	ldr	r4, [sp, #20]
   25094:	2e00      	cmp	r6, #0
   25096:	d1f6      	bne.n	25086 <_ZN20complex_dynamic_type3app17ha0b5e970c5f5168bE+0x86>
   25098:	4625      	mov	r5, r4
   2509a:	4826      	ldr	r0, [pc, #152]	@ (25134 <_ZN20complex_dynamic_type3app17ha0b5e970c5f5168bE+0x134>)
   2509c:	2103      	movs	r1, #3
   2509e:	2400      	movs	r4, #0
   250a0:	4622      	mov	r2, r4
   250a2:	4623      	mov	r3, r4
   250a4:	df02      	svc	2
   250a6:	287f      	cmp	r0, #127	@ 0x7f
   250a8:	d80d      	bhi.n	250c6 <_ZN20complex_dynamic_type3app17ha0b5e970c5f5168bE+0xc6>
   250aa:	462c      	mov	r4, r5
   250ac:	2c00      	cmp	r4, #0
   250ae:	d021      	beq.n	250f4 <_ZN20complex_dynamic_type3app17ha0b5e970c5f5168bE+0xf4>
   250b0:	2001      	movs	r0, #1
   250b2:	9a07      	ldr	r2, [sp, #28]
   250b4:	7010      	strb	r0, [r2, #0]
   250b6:	6051      	str	r1, [r2, #4]
   250b8:	a814      	add	r0, sp, #80	@ 0x50
   250ba:	7802      	ldrb	r2, [r0, #0]
   250bc:	2a02      	cmp	r2, #2
   250be:	d02e      	beq.n	2511e <_ZN20complex_dynamic_type3app17ha0b5e970c5f5168bE+0x11e>
   250c0:	2100      	movs	r1, #0
   250c2:	481c      	ldr	r0, [pc, #112]	@ (25134 <_ZN20complex_dynamic_type3app17ha0b5e970c5f5168bE+0x134>)
   250c4:	e029      	b.n	2511a <_ZN20complex_dynamic_type3app17ha0b5e970c5f5168bE+0x11a>
   250c6:	a808      	add	r0, sp, #32
   250c8:	7802      	ldrb	r2, [r0, #0]
   250ca:	2a02      	cmp	r2, #2
   250cc:	d003      	beq.n	250d6 <_ZN20complex_dynamic_type3app17ha0b5e970c5f5168bE+0xd6>
   250ce:	2103      	movs	r1, #3
   250d0:	4818      	ldr	r0, [pc, #96]	@ (25134 <_ZN20complex_dynamic_type3app17ha0b5e970c5f5168bE+0x134>)
   250d2:	f006 f8d5 	bl	2b280 <_ZN9allow_pin12dynamic_type7unshare17h19052c50f9e150aeE>
   250d6:	a808      	add	r0, sp, #32
   250d8:	9d03      	ldr	r5, [sp, #12]
   250da:	7005      	strb	r5, [r0, #0]
   250dc:	a814      	add	r0, sp, #80	@ 0x50
   250de:	7802      	ldrb	r2, [r0, #0]
   250e0:	2a02      	cmp	r2, #2
   250e2:	d003      	beq.n	250ec <_ZN20complex_dynamic_type3app17ha0b5e970c5f5168bE+0xec>
   250e4:	2100      	movs	r1, #0
   250e6:	4813      	ldr	r0, [pc, #76]	@ (25134 <_ZN20complex_dynamic_type3app17ha0b5e970c5f5168bE+0x134>)
   250e8:	f006 f8ca 	bl	2b280 <_ZN9allow_pin12dynamic_type7unshare17h19052c50f9e150aeE>
   250ec:	a814      	add	r0, sp, #80	@ 0x50
   250ee:	7005      	strb	r5, [r0, #0]
   250f0:	2c00      	cmp	r4, #0
   250f2:	d1dd      	bne.n	250b0 <_ZN20complex_dynamic_type3app17ha0b5e970c5f5168bE+0xb0>
   250f4:	a814      	add	r0, sp, #80	@ 0x50
   250f6:	7804      	ldrb	r4, [r0, #0]
   250f8:	2c02      	cmp	r4, #2
   250fa:	d001      	beq.n	25100 <_ZN20complex_dynamic_type3app17ha0b5e970c5f5168bE+0x100>
   250fc:	480e      	ldr	r0, [pc, #56]	@ (25138 <_ZN20complex_dynamic_type3app17ha0b5e970c5f5168bE+0x138>)
   250fe:	9006      	str	r0, [sp, #24]
   25100:	9d07      	ldr	r5, [sp, #28]
   25102:	1c68      	adds	r0, r5, #1
   25104:	222a      	movs	r2, #42	@ 0x2a
   25106:	9906      	ldr	r1, [sp, #24]
   25108:	f006 fa9f 	bl	2b64a <__aeabi_memcpy>
   2510c:	2000      	movs	r0, #0
   2510e:	2c02      	cmp	r4, #2
   25110:	7028      	strb	r0, [r5, #0]
   25112:	d004      	beq.n	2511e <_ZN20complex_dynamic_type3app17ha0b5e970c5f5168bE+0x11e>
   25114:	2100      	movs	r1, #0
   25116:	4807      	ldr	r0, [pc, #28]	@ (25134 <_ZN20complex_dynamic_type3app17ha0b5e970c5f5168bE+0x134>)
   25118:	4622      	mov	r2, r4
   2511a:	f006 f8b1 	bl	2b280 <_ZN9allow_pin12dynamic_type7unshare17h19052c50f9e150aeE>
   2511e:	a808      	add	r0, sp, #32
   25120:	7802      	ldrb	r2, [r0, #0]
   25122:	2a02      	cmp	r2, #2
   25124:	d003      	beq.n	2512e <_ZN20complex_dynamic_type3app17ha0b5e970c5f5168bE+0x12e>
   25126:	2103      	movs	r1, #3
   25128:	4802      	ldr	r0, [pc, #8]	@ (25134 <_ZN20complex_dynamic_type3app17ha0b5e970c5f5168bE+0x134>)
   2512a:	f006 f8a9 	bl	2b280 <_ZN9allow_pin12dynamic_type7unshare17h19052c50f9e150aeE>
   2512e:	b023      	add	sp, #140	@ 0x8c
   25130:	bdf0      	pop	{r4, r5, r6, r7, pc}
   25132:	46c0      	nop			@ (mov r8, r8)
   25134:	000024f0 	.word	0x000024f0
   25138:	000102c6 	.word	0x000102c6

0002513c <_ZN20complex_dynamic_type3app17ha214e72c658a7d5aE>:
   2513c:	b5f0      	push	{r4, r5, r6, r7, lr}
   2513e:	af03      	add	r7, sp, #12
   25140:	b0af      	sub	sp, #188	@ 0xbc
   25142:	9007      	str	r0, [sp, #28]
   25144:	a808      	add	r0, sp, #32
   25146:	2502      	movs	r5, #2
   25148:	7005      	strb	r5, [r0, #0]
   2514a:	1c40      	adds	r0, r0, #1
   2514c:	9005      	str	r0, [sp, #20]
   2514e:	2655      	movs	r6, #85	@ 0x55
   25150:	4632      	mov	r2, r6
   25152:	f006 fa7a 	bl	2b64a <__aeabi_memcpy>
   25156:	ac1e      	add	r4, sp, #120	@ 0x78
   25158:	1c60      	adds	r0, r4, #1
   2515a:	2132      	movs	r1, #50	@ 0x32
   2515c:	9006      	str	r0, [sp, #24]
   2515e:	9104      	str	r1, [sp, #16]
   25160:	f006 f8b3 	bl	2b2ca <__aeabi_memclr>
   25164:	9503      	str	r5, [sp, #12]
   25166:	7025      	strb	r5, [r4, #0]
   25168:	2404      	movs	r4, #4
   2516a:	9600      	str	r6, [sp, #0]
   2516c:	9401      	str	r4, [sp, #4]
   2516e:	a82b      	add	r0, sp, #172	@ 0xac
   25170:	4e3c      	ldr	r6, [pc, #240]	@ (25264 <_ZN20complex_dynamic_type3app17ha214e72c658a7d5aE+0x128>)
   25172:	2208      	movs	r2, #8
   25174:	4631      	mov	r1, r6
   25176:	9b05      	ldr	r3, [sp, #20]
   25178:	f006 f88f 	bl	2b29a <_ZN9allow_pin13dynamic_allow17h8bfd3764c146b81aE>
   2517c:	982b      	ldr	r0, [sp, #172]	@ 0xac
   2517e:	2802      	cmp	r0, #2
   25180:	d101      	bne.n	25186 <_ZN20complex_dynamic_type3app17ha214e72c658a7d5aE+0x4a>
   25182:	992c      	ldr	r1, [sp, #176]	@ 0xb0
   25184:	e001      	b.n	2518a <_ZN20complex_dynamic_type3app17ha214e72c658a7d5aE+0x4e>
   25186:	a908      	add	r1, sp, #32
   25188:	700c      	strb	r4, [r1, #0]
   2518a:	2501      	movs	r5, #1
   2518c:	2802      	cmp	r0, #2
   2518e:	d024      	beq.n	251da <_ZN20complex_dynamic_type3app17ha214e72c658a7d5aE+0x9e>
   25190:	a81e      	add	r0, sp, #120	@ 0x78
   25192:	7800      	ldrb	r0, [r0, #0]
   25194:	2802      	cmp	r0, #2
   25196:	d10e      	bne.n	251b6 <_ZN20complex_dynamic_type3app17ha214e72c658a7d5aE+0x7a>
   25198:	2403      	movs	r4, #3
   2519a:	9804      	ldr	r0, [sp, #16]
   2519c:	9000      	str	r0, [sp, #0]
   2519e:	9401      	str	r4, [sp, #4]
   251a0:	a82b      	add	r0, sp, #172	@ 0xac
   251a2:	2208      	movs	r2, #8
   251a4:	4631      	mov	r1, r6
   251a6:	9b06      	ldr	r3, [sp, #24]
   251a8:	f006 f877 	bl	2b29a <_ZN9allow_pin13dynamic_allow17h8bfd3764c146b81aE>
   251ac:	982b      	ldr	r0, [sp, #172]	@ 0xac
   251ae:	2802      	cmp	r0, #2
   251b0:	d106      	bne.n	251c0 <_ZN20complex_dynamic_type3app17ha214e72c658a7d5aE+0x84>
   251b2:	992c      	ldr	r1, [sp, #176]	@ 0xb0
   251b4:	e000      	b.n	251b8 <_ZN20complex_dynamic_type3app17ha214e72c658a7d5aE+0x7c>
   251b6:	2103      	movs	r1, #3
   251b8:	4628      	mov	r0, r5
   251ba:	2800      	cmp	r0, #0
   251bc:	d005      	beq.n	251ca <_ZN20complex_dynamic_type3app17ha214e72c658a7d5aE+0x8e>
   251be:	e00c      	b.n	251da <_ZN20complex_dynamic_type3app17ha214e72c658a7d5aE+0x9e>
   251c0:	a81e      	add	r0, sp, #120	@ 0x78
   251c2:	7004      	strb	r4, [r0, #0]
   251c4:	2000      	movs	r0, #0
   251c6:	2800      	cmp	r0, #0
   251c8:	d107      	bne.n	251da <_ZN20complex_dynamic_type3app17ha214e72c658a7d5aE+0x9e>
   251ca:	4826      	ldr	r0, [pc, #152]	@ (25264 <_ZN20complex_dynamic_type3app17ha214e72c658a7d5aE+0x128>)
   251cc:	2108      	movs	r1, #8
   251ce:	2400      	movs	r4, #0
   251d0:	460a      	mov	r2, r1
   251d2:	4623      	mov	r3, r4
   251d4:	df02      	svc	2
   251d6:	287f      	cmp	r0, #127	@ 0x7f
   251d8:	d80d      	bhi.n	251f6 <_ZN20complex_dynamic_type3app17ha214e72c658a7d5aE+0xba>
   251da:	462c      	mov	r4, r5
   251dc:	2c00      	cmp	r4, #0
   251de:	d021      	beq.n	25224 <_ZN20complex_dynamic_type3app17ha214e72c658a7d5aE+0xe8>
   251e0:	2001      	movs	r0, #1
   251e2:	9a07      	ldr	r2, [sp, #28]
   251e4:	7010      	strb	r0, [r2, #0]
   251e6:	6051      	str	r1, [r2, #4]
   251e8:	a81e      	add	r0, sp, #120	@ 0x78
   251ea:	7802      	ldrb	r2, [r0, #0]
   251ec:	2a02      	cmp	r2, #2
   251ee:	d02e      	beq.n	2524e <_ZN20complex_dynamic_type3app17ha214e72c658a7d5aE+0x112>
   251f0:	2108      	movs	r1, #8
   251f2:	4630      	mov	r0, r6
   251f4:	e029      	b.n	2524a <_ZN20complex_dynamic_type3app17ha214e72c658a7d5aE+0x10e>
   251f6:	a808      	add	r0, sp, #32
   251f8:	7802      	ldrb	r2, [r0, #0]
   251fa:	2a02      	cmp	r2, #2
   251fc:	d003      	beq.n	25206 <_ZN20complex_dynamic_type3app17ha214e72c658a7d5aE+0xca>
   251fe:	2108      	movs	r1, #8
   25200:	4630      	mov	r0, r6
   25202:	f006 f83d 	bl	2b280 <_ZN9allow_pin12dynamic_type7unshare17h19052c50f9e150aeE>
   25206:	a808      	add	r0, sp, #32
   25208:	9d03      	ldr	r5, [sp, #12]
   2520a:	7005      	strb	r5, [r0, #0]
   2520c:	a81e      	add	r0, sp, #120	@ 0x78
   2520e:	7802      	ldrb	r2, [r0, #0]
   25210:	2a02      	cmp	r2, #2
   25212:	d003      	beq.n	2521c <_ZN20complex_dynamic_type3app17ha214e72c658a7d5aE+0xe0>
   25214:	2108      	movs	r1, #8
   25216:	4630      	mov	r0, r6
   25218:	f006 f832 	bl	2b280 <_ZN9allow_pin12dynamic_type7unshare17h19052c50f9e150aeE>
   2521c:	a81e      	add	r0, sp, #120	@ 0x78
   2521e:	7005      	strb	r5, [r0, #0]
   25220:	2c00      	cmp	r4, #0
   25222:	d1dd      	bne.n	251e0 <_ZN20complex_dynamic_type3app17ha214e72c658a7d5aE+0xa4>
   25224:	a81e      	add	r0, sp, #120	@ 0x78
   25226:	7804      	ldrb	r4, [r0, #0]
   25228:	2c02      	cmp	r4, #2
   2522a:	d001      	beq.n	25230 <_ZN20complex_dynamic_type3app17ha214e72c658a7d5aE+0xf4>
   2522c:	480e      	ldr	r0, [pc, #56]	@ (25268 <_ZN20complex_dynamic_type3app17ha214e72c658a7d5aE+0x12c>)
   2522e:	9006      	str	r0, [sp, #24]
   25230:	9d07      	ldr	r5, [sp, #28]
   25232:	1c68      	adds	r0, r5, #1
   25234:	2232      	movs	r2, #50	@ 0x32
   25236:	9906      	ldr	r1, [sp, #24]
   25238:	f006 fa07 	bl	2b64a <__aeabi_memcpy>
   2523c:	2000      	movs	r0, #0
   2523e:	2c02      	cmp	r4, #2
   25240:	7028      	strb	r0, [r5, #0]
   25242:	d004      	beq.n	2524e <_ZN20complex_dynamic_type3app17ha214e72c658a7d5aE+0x112>
   25244:	2108      	movs	r1, #8
   25246:	4630      	mov	r0, r6
   25248:	4622      	mov	r2, r4
   2524a:	f006 f819 	bl	2b280 <_ZN9allow_pin12dynamic_type7unshare17h19052c50f9e150aeE>
   2524e:	a808      	add	r0, sp, #32
   25250:	7802      	ldrb	r2, [r0, #0]
   25252:	2a02      	cmp	r2, #2
   25254:	d003      	beq.n	2525e <_ZN20complex_dynamic_type3app17ha214e72c658a7d5aE+0x122>
   25256:	2108      	movs	r1, #8
   25258:	4630      	mov	r0, r6
   2525a:	f006 f811 	bl	2b280 <_ZN9allow_pin12dynamic_type7unshare17h19052c50f9e150aeE>
   2525e:	b02f      	add	sp, #188	@ 0xbc
   25260:	bdf0      	pop	{r4, r5, r6, r7, pc}
   25262:	46c0      	nop			@ (mov r8, r8)
   25264:	00002095 	.word	0x00002095
   25268:	00010867 	.word	0x00010867

0002526c <_ZN20complex_dynamic_type3app17ha3b11aefc1594aefE>:
   2526c:	b5f0      	push	{r4, r5, r6, r7, lr}
   2526e:	af03      	add	r7, sp, #12
   25270:	b0a1      	sub	sp, #132	@ 0x84
   25272:	9007      	str	r0, [sp, #28]
   25274:	a808      	add	r0, sp, #32
   25276:	2602      	movs	r6, #2
   25278:	7006      	strb	r6, [r0, #0]
   2527a:	1c40      	adds	r0, r0, #1
   2527c:	9005      	str	r0, [sp, #20]
   2527e:	2434      	movs	r4, #52	@ 0x34
   25280:	4622      	mov	r2, r4
   25282:	f006 f9e2 	bl	2b64a <__aeabi_memcpy>
   25286:	ad16      	add	r5, sp, #88	@ 0x58
   25288:	1c68      	adds	r0, r5, #1
   2528a:	211a      	movs	r1, #26
   2528c:	9006      	str	r0, [sp, #24]
   2528e:	9104      	str	r1, [sp, #16]
   25290:	f006 f81b 	bl	2b2ca <__aeabi_memclr>
   25294:	9603      	str	r6, [sp, #12]
   25296:	702e      	strb	r6, [r5, #0]
   25298:	2504      	movs	r5, #4
   2529a:	9400      	str	r4, [sp, #0]
   2529c:	9501      	str	r5, [sp, #4]
   2529e:	a81d      	add	r0, sp, #116	@ 0x74
   252a0:	493b      	ldr	r1, [pc, #236]	@ (25390 <_ZN20complex_dynamic_type3app17ha3b11aefc1594aefE+0x124>)
   252a2:	2400      	movs	r4, #0
   252a4:	4622      	mov	r2, r4
   252a6:	9b05      	ldr	r3, [sp, #20]
   252a8:	f005 fff7 	bl	2b29a <_ZN9allow_pin13dynamic_allow17h8bfd3764c146b81aE>
   252ac:	981d      	ldr	r0, [sp, #116]	@ 0x74
   252ae:	2802      	cmp	r0, #2
   252b0:	d101      	bne.n	252b6 <_ZN20complex_dynamic_type3app17ha3b11aefc1594aefE+0x4a>
   252b2:	991e      	ldr	r1, [sp, #120]	@ 0x78
   252b4:	e001      	b.n	252ba <_ZN20complex_dynamic_type3app17ha3b11aefc1594aefE+0x4e>
   252b6:	a908      	add	r1, sp, #32
   252b8:	700d      	strb	r5, [r1, #0]
   252ba:	2601      	movs	r6, #1
   252bc:	2802      	cmp	r0, #2
   252be:	d023      	beq.n	25308 <_ZN20complex_dynamic_type3app17ha3b11aefc1594aefE+0x9c>
   252c0:	a816      	add	r0, sp, #88	@ 0x58
   252c2:	7800      	ldrb	r0, [r0, #0]
   252c4:	2802      	cmp	r0, #2
   252c6:	d10e      	bne.n	252e6 <_ZN20complex_dynamic_type3app17ha3b11aefc1594aefE+0x7a>
   252c8:	2503      	movs	r5, #3
   252ca:	9804      	ldr	r0, [sp, #16]
   252cc:	9000      	str	r0, [sp, #0]
   252ce:	9501      	str	r5, [sp, #4]
   252d0:	a81d      	add	r0, sp, #116	@ 0x74
   252d2:	2205      	movs	r2, #5
   252d4:	492e      	ldr	r1, [pc, #184]	@ (25390 <_ZN20complex_dynamic_type3app17ha3b11aefc1594aefE+0x124>)
   252d6:	9b06      	ldr	r3, [sp, #24]
   252d8:	f005 ffdf 	bl	2b29a <_ZN9allow_pin13dynamic_allow17h8bfd3764c146b81aE>
   252dc:	981d      	ldr	r0, [sp, #116]	@ 0x74
   252de:	2802      	cmp	r0, #2
   252e0:	d106      	bne.n	252f0 <_ZN20complex_dynamic_type3app17ha3b11aefc1594aefE+0x84>
   252e2:	991e      	ldr	r1, [sp, #120]	@ 0x78
   252e4:	e000      	b.n	252e8 <_ZN20complex_dynamic_type3app17ha3b11aefc1594aefE+0x7c>
   252e6:	2103      	movs	r1, #3
   252e8:	4634      	mov	r4, r6
   252ea:	2c00      	cmp	r4, #0
   252ec:	d004      	beq.n	252f8 <_ZN20complex_dynamic_type3app17ha3b11aefc1594aefE+0x8c>
   252ee:	e00b      	b.n	25308 <_ZN20complex_dynamic_type3app17ha3b11aefc1594aefE+0x9c>
   252f0:	a816      	add	r0, sp, #88	@ 0x58
   252f2:	7005      	strb	r5, [r0, #0]
   252f4:	2c00      	cmp	r4, #0
   252f6:	d107      	bne.n	25308 <_ZN20complex_dynamic_type3app17ha3b11aefc1594aefE+0x9c>
   252f8:	4825      	ldr	r0, [pc, #148]	@ (25390 <_ZN20complex_dynamic_type3app17ha3b11aefc1594aefE+0x124>)
   252fa:	2205      	movs	r2, #5
   252fc:	2400      	movs	r4, #0
   252fe:	4621      	mov	r1, r4
   25300:	4623      	mov	r3, r4
   25302:	df02      	svc	2
   25304:	287f      	cmp	r0, #127	@ 0x7f
   25306:	d80d      	bhi.n	25324 <_ZN20complex_dynamic_type3app17ha3b11aefc1594aefE+0xb8>
   25308:	4634      	mov	r4, r6
   2530a:	2c00      	cmp	r4, #0
   2530c:	d021      	beq.n	25352 <_ZN20complex_dynamic_type3app17ha3b11aefc1594aefE+0xe6>
   2530e:	2001      	movs	r0, #1
   25310:	9a07      	ldr	r2, [sp, #28]
   25312:	7010      	strb	r0, [r2, #0]
   25314:	6051      	str	r1, [r2, #4]
   25316:	a816      	add	r0, sp, #88	@ 0x58
   25318:	7802      	ldrb	r2, [r0, #0]
   2531a:	2a02      	cmp	r2, #2
   2531c:	d02e      	beq.n	2537c <_ZN20complex_dynamic_type3app17ha3b11aefc1594aefE+0x110>
   2531e:	2105      	movs	r1, #5
   25320:	481b      	ldr	r0, [pc, #108]	@ (25390 <_ZN20complex_dynamic_type3app17ha3b11aefc1594aefE+0x124>)
   25322:	e029      	b.n	25378 <_ZN20complex_dynamic_type3app17ha3b11aefc1594aefE+0x10c>
   25324:	a808      	add	r0, sp, #32
   25326:	7802      	ldrb	r2, [r0, #0]
   25328:	2a02      	cmp	r2, #2
   2532a:	d003      	beq.n	25334 <_ZN20complex_dynamic_type3app17ha3b11aefc1594aefE+0xc8>
   2532c:	2100      	movs	r1, #0
   2532e:	4818      	ldr	r0, [pc, #96]	@ (25390 <_ZN20complex_dynamic_type3app17ha3b11aefc1594aefE+0x124>)
   25330:	f005 ffa6 	bl	2b280 <_ZN9allow_pin12dynamic_type7unshare17h19052c50f9e150aeE>
   25334:	a808      	add	r0, sp, #32
   25336:	9d03      	ldr	r5, [sp, #12]
   25338:	7005      	strb	r5, [r0, #0]
   2533a:	a816      	add	r0, sp, #88	@ 0x58
   2533c:	7802      	ldrb	r2, [r0, #0]
   2533e:	2a02      	cmp	r2, #2
   25340:	d003      	beq.n	2534a <_ZN20complex_dynamic_type3app17ha3b11aefc1594aefE+0xde>
   25342:	2105      	movs	r1, #5
   25344:	4812      	ldr	r0, [pc, #72]	@ (25390 <_ZN20complex_dynamic_type3app17ha3b11aefc1594aefE+0x124>)
   25346:	f005 ff9b 	bl	2b280 <_ZN9allow_pin12dynamic_type7unshare17h19052c50f9e150aeE>
   2534a:	a816      	add	r0, sp, #88	@ 0x58
   2534c:	7005      	strb	r5, [r0, #0]
   2534e:	2c00      	cmp	r4, #0
   25350:	d1dd      	bne.n	2530e <_ZN20complex_dynamic_type3app17ha3b11aefc1594aefE+0xa2>
   25352:	a816      	add	r0, sp, #88	@ 0x58
   25354:	7804      	ldrb	r4, [r0, #0]
   25356:	2c02      	cmp	r4, #2
   25358:	d001      	beq.n	2535e <_ZN20complex_dynamic_type3app17ha3b11aefc1594aefE+0xf2>
   2535a:	480e      	ldr	r0, [pc, #56]	@ (25394 <_ZN20complex_dynamic_type3app17ha3b11aefc1594aefE+0x128>)
   2535c:	9006      	str	r0, [sp, #24]
   2535e:	9d07      	ldr	r5, [sp, #28]
   25360:	1c68      	adds	r0, r5, #1
   25362:	221a      	movs	r2, #26
   25364:	9906      	ldr	r1, [sp, #24]
   25366:	f006 f970 	bl	2b64a <__aeabi_memcpy>
   2536a:	2000      	movs	r0, #0
   2536c:	2c02      	cmp	r4, #2
   2536e:	7028      	strb	r0, [r5, #0]
   25370:	d004      	beq.n	2537c <_ZN20complex_dynamic_type3app17ha3b11aefc1594aefE+0x110>
   25372:	2105      	movs	r1, #5
   25374:	4806      	ldr	r0, [pc, #24]	@ (25390 <_ZN20complex_dynamic_type3app17ha3b11aefc1594aefE+0x124>)
   25376:	4622      	mov	r2, r4
   25378:	f005 ff82 	bl	2b280 <_ZN9allow_pin12dynamic_type7unshare17h19052c50f9e150aeE>
   2537c:	a808      	add	r0, sp, #32
   2537e:	7802      	ldrb	r2, [r0, #0]
   25380:	2a02      	cmp	r2, #2
   25382:	d003      	beq.n	2538c <_ZN20complex_dynamic_type3app17ha3b11aefc1594aefE+0x120>
   25384:	2100      	movs	r1, #0
   25386:	4802      	ldr	r0, [pc, #8]	@ (25390 <_ZN20complex_dynamic_type3app17ha3b11aefc1594aefE+0x124>)
   25388:	f005 ff7a 	bl	2b280 <_ZN9allow_pin12dynamic_type7unshare17h19052c50f9e150aeE>
   2538c:	b021      	add	sp, #132	@ 0x84
   2538e:	bdf0      	pop	{r4, r5, r6, r7, pc}
   25390:	000012cc 	.word	0x000012cc
   25394:	000100e4 	.word	0x000100e4

00025398 <_ZN20complex_dynamic_type3app17ha525db5679aa8fc9E>:
   25398:	b5f0      	push	{r4, r5, r6, r7, lr}
   2539a:	af03      	add	r7, sp, #12
   2539c:	b0b5      	sub	sp, #212	@ 0xd4
   2539e:	9007      	str	r0, [sp, #28]
   253a0:	a808      	add	r0, sp, #32
   253a2:	2502      	movs	r5, #2
   253a4:	7005      	strb	r5, [r0, #0]
   253a6:	1c40      	adds	r0, r0, #1
   253a8:	9005      	str	r0, [sp, #20]
   253aa:	2651      	movs	r6, #81	@ 0x51
   253ac:	4632      	mov	r2, r6
   253ae:	f006 f94c 	bl	2b64a <__aeabi_memcpy>
   253b2:	ac1d      	add	r4, sp, #116	@ 0x74
   253b4:	1c60      	adds	r0, r4, #1
   253b6:	214f      	movs	r1, #79	@ 0x4f
   253b8:	9006      	str	r0, [sp, #24]
   253ba:	9104      	str	r1, [sp, #16]
   253bc:	f005 ff85 	bl	2b2ca <__aeabi_memclr>
   253c0:	9503      	str	r5, [sp, #12]
   253c2:	7025      	strb	r5, [r4, #0]
   253c4:	2404      	movs	r4, #4
   253c6:	9600      	str	r6, [sp, #0]
   253c8:	9401      	str	r4, [sp, #4]
   253ca:	a831      	add	r0, sp, #196	@ 0xc4
   253cc:	4e3c      	ldr	r6, [pc, #240]	@ (254c0 <_ZN20complex_dynamic_type3app17ha525db5679aa8fc9E+0x128>)
   253ce:	4631      	mov	r1, r6
   253d0:	4622      	mov	r2, r4
   253d2:	9b05      	ldr	r3, [sp, #20]
   253d4:	f005 ff61 	bl	2b29a <_ZN9allow_pin13dynamic_allow17h8bfd3764c146b81aE>
   253d8:	9831      	ldr	r0, [sp, #196]	@ 0xc4
   253da:	2802      	cmp	r0, #2
   253dc:	d101      	bne.n	253e2 <_ZN20complex_dynamic_type3app17ha525db5679aa8fc9E+0x4a>
   253de:	9932      	ldr	r1, [sp, #200]	@ 0xc8
   253e0:	e001      	b.n	253e6 <_ZN20complex_dynamic_type3app17ha525db5679aa8fc9E+0x4e>
   253e2:	a908      	add	r1, sp, #32
   253e4:	700c      	strb	r4, [r1, #0]
   253e6:	2501      	movs	r5, #1
   253e8:	2802      	cmp	r0, #2
   253ea:	d024      	beq.n	25436 <_ZN20complex_dynamic_type3app17ha525db5679aa8fc9E+0x9e>
   253ec:	a81d      	add	r0, sp, #116	@ 0x74
   253ee:	7800      	ldrb	r0, [r0, #0]
   253f0:	2802      	cmp	r0, #2
   253f2:	d10e      	bne.n	25412 <_ZN20complex_dynamic_type3app17ha525db5679aa8fc9E+0x7a>
   253f4:	2403      	movs	r4, #3
   253f6:	9804      	ldr	r0, [sp, #16]
   253f8:	9000      	str	r0, [sp, #0]
   253fa:	9401      	str	r4, [sp, #4]
   253fc:	a831      	add	r0, sp, #196	@ 0xc4
   253fe:	2209      	movs	r2, #9
   25400:	4631      	mov	r1, r6
   25402:	9b06      	ldr	r3, [sp, #24]
   25404:	f005 ff49 	bl	2b29a <_ZN9allow_pin13dynamic_allow17h8bfd3764c146b81aE>
   25408:	9831      	ldr	r0, [sp, #196]	@ 0xc4
   2540a:	2802      	cmp	r0, #2
   2540c:	d106      	bne.n	2541c <_ZN20complex_dynamic_type3app17ha525db5679aa8fc9E+0x84>
   2540e:	9932      	ldr	r1, [sp, #200]	@ 0xc8
   25410:	e000      	b.n	25414 <_ZN20complex_dynamic_type3app17ha525db5679aa8fc9E+0x7c>
   25412:	2103      	movs	r1, #3
   25414:	4628      	mov	r0, r5
   25416:	2800      	cmp	r0, #0
   25418:	d005      	beq.n	25426 <_ZN20complex_dynamic_type3app17ha525db5679aa8fc9E+0x8e>
   2541a:	e00c      	b.n	25436 <_ZN20complex_dynamic_type3app17ha525db5679aa8fc9E+0x9e>
   2541c:	a81d      	add	r0, sp, #116	@ 0x74
   2541e:	7004      	strb	r4, [r0, #0]
   25420:	2000      	movs	r0, #0
   25422:	2800      	cmp	r0, #0
   25424:	d107      	bne.n	25436 <_ZN20complex_dynamic_type3app17ha525db5679aa8fc9E+0x9e>
   25426:	4826      	ldr	r0, [pc, #152]	@ (254c0 <_ZN20complex_dynamic_type3app17ha525db5679aa8fc9E+0x128>)
   25428:	2104      	movs	r1, #4
   2542a:	2209      	movs	r2, #9
   2542c:	2400      	movs	r4, #0
   2542e:	4623      	mov	r3, r4
   25430:	df02      	svc	2
   25432:	287f      	cmp	r0, #127	@ 0x7f
   25434:	d80d      	bhi.n	25452 <_ZN20complex_dynamic_type3app17ha525db5679aa8fc9E+0xba>
   25436:	462c      	mov	r4, r5
   25438:	2c00      	cmp	r4, #0
   2543a:	d021      	beq.n	25480 <_ZN20complex_dynamic_type3app17ha525db5679aa8fc9E+0xe8>
   2543c:	2001      	movs	r0, #1
   2543e:	9a07      	ldr	r2, [sp, #28]
   25440:	7010      	strb	r0, [r2, #0]
   25442:	6051      	str	r1, [r2, #4]
   25444:	a81d      	add	r0, sp, #116	@ 0x74
   25446:	7802      	ldrb	r2, [r0, #0]
   25448:	2a02      	cmp	r2, #2
   2544a:	d02e      	beq.n	254aa <_ZN20complex_dynamic_type3app17ha525db5679aa8fc9E+0x112>
   2544c:	2109      	movs	r1, #9
   2544e:	4630      	mov	r0, r6
   25450:	e029      	b.n	254a6 <_ZN20complex_dynamic_type3app17ha525db5679aa8fc9E+0x10e>
   25452:	a808      	add	r0, sp, #32
   25454:	7802      	ldrb	r2, [r0, #0]
   25456:	2a02      	cmp	r2, #2
   25458:	d003      	beq.n	25462 <_ZN20complex_dynamic_type3app17ha525db5679aa8fc9E+0xca>
   2545a:	2104      	movs	r1, #4
   2545c:	4630      	mov	r0, r6
   2545e:	f005 ff0f 	bl	2b280 <_ZN9allow_pin12dynamic_type7unshare17h19052c50f9e150aeE>
   25462:	a808      	add	r0, sp, #32
   25464:	9d03      	ldr	r5, [sp, #12]
   25466:	7005      	strb	r5, [r0, #0]
   25468:	a81d      	add	r0, sp, #116	@ 0x74
   2546a:	7802      	ldrb	r2, [r0, #0]
   2546c:	2a02      	cmp	r2, #2
   2546e:	d003      	beq.n	25478 <_ZN20complex_dynamic_type3app17ha525db5679aa8fc9E+0xe0>
   25470:	2109      	movs	r1, #9
   25472:	4630      	mov	r0, r6
   25474:	f005 ff04 	bl	2b280 <_ZN9allow_pin12dynamic_type7unshare17h19052c50f9e150aeE>
   25478:	a81d      	add	r0, sp, #116	@ 0x74
   2547a:	7005      	strb	r5, [r0, #0]
   2547c:	2c00      	cmp	r4, #0
   2547e:	d1dd      	bne.n	2543c <_ZN20complex_dynamic_type3app17ha525db5679aa8fc9E+0xa4>
   25480:	a81d      	add	r0, sp, #116	@ 0x74
   25482:	7804      	ldrb	r4, [r0, #0]
   25484:	2c02      	cmp	r4, #2
   25486:	d001      	beq.n	2548c <_ZN20complex_dynamic_type3app17ha525db5679aa8fc9E+0xf4>
   25488:	480e      	ldr	r0, [pc, #56]	@ (254c4 <_ZN20complex_dynamic_type3app17ha525db5679aa8fc9E+0x12c>)
   2548a:	9006      	str	r0, [sp, #24]
   2548c:	9d07      	ldr	r5, [sp, #28]
   2548e:	1c68      	adds	r0, r5, #1
   25490:	224f      	movs	r2, #79	@ 0x4f
   25492:	9906      	ldr	r1, [sp, #24]
   25494:	f006 f8d9 	bl	2b64a <__aeabi_memcpy>
   25498:	2000      	movs	r0, #0
   2549a:	2c02      	cmp	r4, #2
   2549c:	7028      	strb	r0, [r5, #0]
   2549e:	d004      	beq.n	254aa <_ZN20complex_dynamic_type3app17ha525db5679aa8fc9E+0x112>
   254a0:	2109      	movs	r1, #9
   254a2:	4630      	mov	r0, r6
   254a4:	4622      	mov	r2, r4
   254a6:	f005 feeb 	bl	2b280 <_ZN9allow_pin12dynamic_type7unshare17h19052c50f9e150aeE>
   254aa:	a808      	add	r0, sp, #32
   254ac:	7802      	ldrb	r2, [r0, #0]
   254ae:	2a02      	cmp	r2, #2
   254b0:	d003      	beq.n	254ba <_ZN20complex_dynamic_type3app17ha525db5679aa8fc9E+0x122>
   254b2:	2104      	movs	r1, #4
   254b4:	4630      	mov	r0, r6
   254b6:	f005 fee3 	bl	2b280 <_ZN9allow_pin12dynamic_type7unshare17h19052c50f9e150aeE>
   254ba:	b035      	add	sp, #212	@ 0xd4
   254bc:	bdf0      	pop	{r4, r5, r6, r7, pc}
   254be:	46c0      	nop			@ (mov r8, r8)
   254c0:	000020ee 	.word	0x000020ee
   254c4:	000103df 	.word	0x000103df

000254c8 <_ZN20complex_dynamic_type3app17ha5da907fd440902cE>:
   254c8:	b5f0      	push	{r4, r5, r6, r7, lr}
   254ca:	af03      	add	r7, sp, #12
   254cc:	b0a9      	sub	sp, #164	@ 0xa4
   254ce:	9006      	str	r0, [sp, #24]
   254d0:	a808      	add	r0, sp, #32
   254d2:	2402      	movs	r4, #2
   254d4:	7004      	strb	r4, [r0, #0]
   254d6:	1c40      	adds	r0, r0, #1
   254d8:	9004      	str	r0, [sp, #16]
   254da:	2638      	movs	r6, #56	@ 0x38
   254dc:	4632      	mov	r2, r6
   254de:	f006 f8b4 	bl	2b64a <__aeabi_memcpy>
   254e2:	ad17      	add	r5, sp, #92	@ 0x5c
   254e4:	1c68      	adds	r0, r5, #1
   254e6:	2134      	movs	r1, #52	@ 0x34
   254e8:	9005      	str	r0, [sp, #20]
   254ea:	9103      	str	r1, [sp, #12]
   254ec:	f005 feed 	bl	2b2ca <__aeabi_memclr>
   254f0:	9402      	str	r4, [sp, #8]
   254f2:	702c      	strb	r4, [r5, #0]
   254f4:	2504      	movs	r5, #4
   254f6:	9600      	str	r6, [sp, #0]
   254f8:	9501      	str	r5, [sp, #4]
   254fa:	2097      	movs	r0, #151	@ 0x97
   254fc:	0041      	lsls	r1, r0, #1
   254fe:	a825      	add	r0, sp, #148	@ 0x94
   25500:	2208      	movs	r2, #8
   25502:	9107      	str	r1, [sp, #28]
   25504:	9b04      	ldr	r3, [sp, #16]
   25506:	f005 fec8 	bl	2b29a <_ZN9allow_pin13dynamic_allow17h8bfd3764c146b81aE>
   2550a:	9825      	ldr	r0, [sp, #148]	@ 0x94
   2550c:	2802      	cmp	r0, #2
   2550e:	d101      	bne.n	25514 <_ZN20complex_dynamic_type3app17ha5da907fd440902cE+0x4c>
   25510:	9926      	ldr	r1, [sp, #152]	@ 0x98
   25512:	e001      	b.n	25518 <_ZN20complex_dynamic_type3app17ha5da907fd440902cE+0x50>
   25514:	a908      	add	r1, sp, #32
   25516:	700d      	strb	r5, [r1, #0]
   25518:	2601      	movs	r6, #1
   2551a:	2802      	cmp	r0, #2
   2551c:	d024      	beq.n	25568 <_ZN20complex_dynamic_type3app17ha5da907fd440902cE+0xa0>
   2551e:	a817      	add	r0, sp, #92	@ 0x5c
   25520:	7800      	ldrb	r0, [r0, #0]
   25522:	2802      	cmp	r0, #2
   25524:	d10e      	bne.n	25544 <_ZN20complex_dynamic_type3app17ha5da907fd440902cE+0x7c>
   25526:	2403      	movs	r4, #3
   25528:	9803      	ldr	r0, [sp, #12]
   2552a:	9000      	str	r0, [sp, #0]
   2552c:	9401      	str	r4, [sp, #4]
   2552e:	a825      	add	r0, sp, #148	@ 0x94
   25530:	9907      	ldr	r1, [sp, #28]
   25532:	4622      	mov	r2, r4
   25534:	9b05      	ldr	r3, [sp, #20]
   25536:	f005 feb0 	bl	2b29a <_ZN9allow_pin13dynamic_allow17h8bfd3764c146b81aE>
   2553a:	9825      	ldr	r0, [sp, #148]	@ 0x94
   2553c:	2802      	cmp	r0, #2
   2553e:	d106      	bne.n	2554e <_ZN20complex_dynamic_type3app17ha5da907fd440902cE+0x86>
   25540:	9926      	ldr	r1, [sp, #152]	@ 0x98
   25542:	e000      	b.n	25546 <_ZN20complex_dynamic_type3app17ha5da907fd440902cE+0x7e>
   25544:	2103      	movs	r1, #3
   25546:	4630      	mov	r0, r6
   25548:	2800      	cmp	r0, #0
   2554a:	d005      	beq.n	25558 <_ZN20complex_dynamic_type3app17ha5da907fd440902cE+0x90>
   2554c:	e00c      	b.n	25568 <_ZN20complex_dynamic_type3app17ha5da907fd440902cE+0xa0>
   2554e:	a817      	add	r0, sp, #92	@ 0x5c
   25550:	7004      	strb	r4, [r0, #0]
   25552:	2000      	movs	r0, #0
   25554:	2800      	cmp	r0, #0
   25556:	d107      	bne.n	25568 <_ZN20complex_dynamic_type3app17ha5da907fd440902cE+0xa0>
   25558:	2108      	movs	r1, #8
   2555a:	2203      	movs	r2, #3
   2555c:	2500      	movs	r5, #0
   2555e:	9807      	ldr	r0, [sp, #28]
   25560:	462b      	mov	r3, r5
   25562:	df02      	svc	2
   25564:	287f      	cmp	r0, #127	@ 0x7f
   25566:	d80d      	bhi.n	25584 <_ZN20complex_dynamic_type3app17ha5da907fd440902cE+0xbc>
   25568:	4635      	mov	r5, r6
   2556a:	2d00      	cmp	r5, #0
   2556c:	d021      	beq.n	255b2 <_ZN20complex_dynamic_type3app17ha5da907fd440902cE+0xea>
   2556e:	2001      	movs	r0, #1
   25570:	9a06      	ldr	r2, [sp, #24]
   25572:	7010      	strb	r0, [r2, #0]
   25574:	6051      	str	r1, [r2, #4]
   25576:	a817      	add	r0, sp, #92	@ 0x5c
   25578:	7802      	ldrb	r2, [r0, #0]
   2557a:	2a02      	cmp	r2, #2
   2557c:	d02e      	beq.n	255dc <_ZN20complex_dynamic_type3app17ha5da907fd440902cE+0x114>
   2557e:	2103      	movs	r1, #3
   25580:	9807      	ldr	r0, [sp, #28]
   25582:	e029      	b.n	255d8 <_ZN20complex_dynamic_type3app17ha5da907fd440902cE+0x110>
   25584:	a808      	add	r0, sp, #32
   25586:	7802      	ldrb	r2, [r0, #0]
   25588:	2a02      	cmp	r2, #2
   2558a:	d003      	beq.n	25594 <_ZN20complex_dynamic_type3app17ha5da907fd440902cE+0xcc>
   2558c:	2108      	movs	r1, #8
   2558e:	9807      	ldr	r0, [sp, #28]
   25590:	f005 fe76 	bl	2b280 <_ZN9allow_pin12dynamic_type7unshare17h19052c50f9e150aeE>
   25594:	a808      	add	r0, sp, #32
   25596:	9c02      	ldr	r4, [sp, #8]
   25598:	7004      	strb	r4, [r0, #0]
   2559a:	a817      	add	r0, sp, #92	@ 0x5c
   2559c:	7802      	ldrb	r2, [r0, #0]
   2559e:	2a02      	cmp	r2, #2
   255a0:	d003      	beq.n	255aa <_ZN20complex_dynamic_type3app17ha5da907fd440902cE+0xe2>
   255a2:	2103      	movs	r1, #3
   255a4:	9807      	ldr	r0, [sp, #28]
   255a6:	f005 fe6b 	bl	2b280 <_ZN9allow_pin12dynamic_type7unshare17h19052c50f9e150aeE>
   255aa:	a817      	add	r0, sp, #92	@ 0x5c
   255ac:	7004      	strb	r4, [r0, #0]
   255ae:	2d00      	cmp	r5, #0
   255b0:	d1dd      	bne.n	2556e <_ZN20complex_dynamic_type3app17ha5da907fd440902cE+0xa6>
   255b2:	a817      	add	r0, sp, #92	@ 0x5c
   255b4:	7805      	ldrb	r5, [r0, #0]
   255b6:	2d02      	cmp	r5, #2
   255b8:	d001      	beq.n	255be <_ZN20complex_dynamic_type3app17ha5da907fd440902cE+0xf6>
   255ba:	480d      	ldr	r0, [pc, #52]	@ (255f0 <_ZN20complex_dynamic_type3app17ha5da907fd440902cE+0x128>)
   255bc:	9005      	str	r0, [sp, #20]
   255be:	9c06      	ldr	r4, [sp, #24]
   255c0:	1c60      	adds	r0, r4, #1
   255c2:	2234      	movs	r2, #52	@ 0x34
   255c4:	9905      	ldr	r1, [sp, #20]
   255c6:	f006 f840 	bl	2b64a <__aeabi_memcpy>
   255ca:	2000      	movs	r0, #0
   255cc:	2d02      	cmp	r5, #2
   255ce:	7020      	strb	r0, [r4, #0]
   255d0:	d004      	beq.n	255dc <_ZN20complex_dynamic_type3app17ha5da907fd440902cE+0x114>
   255d2:	2103      	movs	r1, #3
   255d4:	9807      	ldr	r0, [sp, #28]
   255d6:	462a      	mov	r2, r5
   255d8:	f005 fe52 	bl	2b280 <_ZN9allow_pin12dynamic_type7unshare17h19052c50f9e150aeE>
   255dc:	a808      	add	r0, sp, #32
   255de:	7802      	ldrb	r2, [r0, #0]
   255e0:	2a02      	cmp	r2, #2
   255e2:	d003      	beq.n	255ec <_ZN20complex_dynamic_type3app17ha5da907fd440902cE+0x124>
   255e4:	2108      	movs	r1, #8
   255e6:	9807      	ldr	r0, [sp, #28]
   255e8:	f005 fe4a 	bl	2b280 <_ZN9allow_pin12dynamic_type7unshare17h19052c50f9e150aeE>
   255ec:	b029      	add	sp, #164	@ 0xa4
   255ee:	bdf0      	pop	{r4, r5, r6, r7, pc}
   255f0:	00010a05 	.word	0x00010a05

000255f4 <_ZN20complex_dynamic_type3app17ha90a3e1dc6b13d95E>:
   255f4:	b5f0      	push	{r4, r5, r6, r7, lr}
   255f6:	af03      	add	r7, sp, #12
   255f8:	b0ad      	sub	sp, #180	@ 0xb4
   255fa:	9006      	str	r0, [sp, #24]
   255fc:	a807      	add	r0, sp, #28
   255fe:	2602      	movs	r6, #2
   25600:	7006      	strb	r6, [r0, #0]
   25602:	1c40      	adds	r0, r0, #1
   25604:	9004      	str	r0, [sp, #16]
   25606:	252a      	movs	r5, #42	@ 0x2a
   25608:	462a      	mov	r2, r5
   2560a:	f006 f81e 	bl	2b64a <__aeabi_memcpy>
   2560e:	ac12      	add	r4, sp, #72	@ 0x48
   25610:	1c60      	adds	r0, r4, #1
   25612:	2159      	movs	r1, #89	@ 0x59
   25614:	9005      	str	r0, [sp, #20]
   25616:	9103      	str	r1, [sp, #12]
   25618:	f005 fe57 	bl	2b2ca <__aeabi_memclr>
   2561c:	9602      	str	r6, [sp, #8]
   2561e:	7026      	strb	r6, [r4, #0]
   25620:	2404      	movs	r4, #4
   25622:	9500      	str	r5, [sp, #0]
   25624:	9401      	str	r4, [sp, #4]
   25626:	a829      	add	r0, sp, #164	@ 0xa4
   25628:	493c      	ldr	r1, [pc, #240]	@ (2571c <_ZN20complex_dynamic_type3app17ha90a3e1dc6b13d95E+0x128>)
   2562a:	2501      	movs	r5, #1
   2562c:	462a      	mov	r2, r5
   2562e:	9b04      	ldr	r3, [sp, #16]
   25630:	f005 fe33 	bl	2b29a <_ZN9allow_pin13dynamic_allow17h8bfd3764c146b81aE>
   25634:	9829      	ldr	r0, [sp, #164]	@ 0xa4
   25636:	2802      	cmp	r0, #2
   25638:	d103      	bne.n	25642 <_ZN20complex_dynamic_type3app17ha90a3e1dc6b13d95E+0x4e>
   2563a:	992a      	ldr	r1, [sp, #168]	@ 0xa8
   2563c:	2802      	cmp	r0, #2
   2563e:	d029      	beq.n	25694 <_ZN20complex_dynamic_type3app17ha90a3e1dc6b13d95E+0xa0>
   25640:	e003      	b.n	2564a <_ZN20complex_dynamic_type3app17ha90a3e1dc6b13d95E+0x56>
   25642:	a907      	add	r1, sp, #28
   25644:	700c      	strb	r4, [r1, #0]
   25646:	2802      	cmp	r0, #2
   25648:	d024      	beq.n	25694 <_ZN20complex_dynamic_type3app17ha90a3e1dc6b13d95E+0xa0>
   2564a:	a812      	add	r0, sp, #72	@ 0x48
   2564c:	7800      	ldrb	r0, [r0, #0]
   2564e:	2802      	cmp	r0, #2
   25650:	d10e      	bne.n	25670 <_ZN20complex_dynamic_type3app17ha90a3e1dc6b13d95E+0x7c>
   25652:	2603      	movs	r6, #3
   25654:	9803      	ldr	r0, [sp, #12]
   25656:	9000      	str	r0, [sp, #0]
   25658:	9601      	str	r6, [sp, #4]
   2565a:	a829      	add	r0, sp, #164	@ 0xa4
   2565c:	492f      	ldr	r1, [pc, #188]	@ (2571c <_ZN20complex_dynamic_type3app17ha90a3e1dc6b13d95E+0x128>)
   2565e:	4632      	mov	r2, r6
   25660:	9b05      	ldr	r3, [sp, #20]
   25662:	f005 fe1a 	bl	2b29a <_ZN9allow_pin13dynamic_allow17h8bfd3764c146b81aE>
   25666:	9829      	ldr	r0, [sp, #164]	@ 0xa4
   25668:	2802      	cmp	r0, #2
   2566a:	d106      	bne.n	2567a <_ZN20complex_dynamic_type3app17ha90a3e1dc6b13d95E+0x86>
   2566c:	992a      	ldr	r1, [sp, #168]	@ 0xa8
   2566e:	e000      	b.n	25672 <_ZN20complex_dynamic_type3app17ha90a3e1dc6b13d95E+0x7e>
   25670:	2103      	movs	r1, #3
   25672:	4628      	mov	r0, r5
   25674:	2800      	cmp	r0, #0
   25676:	d005      	beq.n	25684 <_ZN20complex_dynamic_type3app17ha90a3e1dc6b13d95E+0x90>
   25678:	e00c      	b.n	25694 <_ZN20complex_dynamic_type3app17ha90a3e1dc6b13d95E+0xa0>
   2567a:	a812      	add	r0, sp, #72	@ 0x48
   2567c:	7006      	strb	r6, [r0, #0]
   2567e:	2000      	movs	r0, #0
   25680:	2800      	cmp	r0, #0
   25682:	d107      	bne.n	25694 <_ZN20complex_dynamic_type3app17ha90a3e1dc6b13d95E+0xa0>
   25684:	4825      	ldr	r0, [pc, #148]	@ (2571c <_ZN20complex_dynamic_type3app17ha90a3e1dc6b13d95E+0x128>)
   25686:	2101      	movs	r1, #1
   25688:	2203      	movs	r2, #3
   2568a:	2400      	movs	r4, #0
   2568c:	4623      	mov	r3, r4
   2568e:	df02      	svc	2
   25690:	287f      	cmp	r0, #127	@ 0x7f
   25692:	d80d      	bhi.n	256b0 <_ZN20complex_dynamic_type3app17ha90a3e1dc6b13d95E+0xbc>
   25694:	462c      	mov	r4, r5
   25696:	2c00      	cmp	r4, #0
   25698:	d021      	beq.n	256de <_ZN20complex_dynamic_type3app17ha90a3e1dc6b13d95E+0xea>
   2569a:	2001      	movs	r0, #1
   2569c:	9a06      	ldr	r2, [sp, #24]
   2569e:	7010      	strb	r0, [r2, #0]
   256a0:	6051      	str	r1, [r2, #4]
   256a2:	a812      	add	r0, sp, #72	@ 0x48
   256a4:	7802      	ldrb	r2, [r0, #0]
   256a6:	2a02      	cmp	r2, #2
   256a8:	d02e      	beq.n	25708 <_ZN20complex_dynamic_type3app17ha90a3e1dc6b13d95E+0x114>
   256aa:	2103      	movs	r1, #3
   256ac:	481b      	ldr	r0, [pc, #108]	@ (2571c <_ZN20complex_dynamic_type3app17ha90a3e1dc6b13d95E+0x128>)
   256ae:	e029      	b.n	25704 <_ZN20complex_dynamic_type3app17ha90a3e1dc6b13d95E+0x110>
   256b0:	a807      	add	r0, sp, #28
   256b2:	7802      	ldrb	r2, [r0, #0]
   256b4:	2a02      	cmp	r2, #2
   256b6:	d003      	beq.n	256c0 <_ZN20complex_dynamic_type3app17ha90a3e1dc6b13d95E+0xcc>
   256b8:	2101      	movs	r1, #1
   256ba:	4818      	ldr	r0, [pc, #96]	@ (2571c <_ZN20complex_dynamic_type3app17ha90a3e1dc6b13d95E+0x128>)
   256bc:	f005 fde0 	bl	2b280 <_ZN9allow_pin12dynamic_type7unshare17h19052c50f9e150aeE>
   256c0:	a807      	add	r0, sp, #28
   256c2:	9d02      	ldr	r5, [sp, #8]
   256c4:	7005      	strb	r5, [r0, #0]
   256c6:	a812      	add	r0, sp, #72	@ 0x48
   256c8:	7802      	ldrb	r2, [r0, #0]
   256ca:	2a02      	cmp	r2, #2
   256cc:	d003      	beq.n	256d6 <_ZN20complex_dynamic_type3app17ha90a3e1dc6b13d95E+0xe2>
   256ce:	2103      	movs	r1, #3
   256d0:	4812      	ldr	r0, [pc, #72]	@ (2571c <_ZN20complex_dynamic_type3app17ha90a3e1dc6b13d95E+0x128>)
   256d2:	f005 fdd5 	bl	2b280 <_ZN9allow_pin12dynamic_type7unshare17h19052c50f9e150aeE>
   256d6:	a812      	add	r0, sp, #72	@ 0x48
   256d8:	7005      	strb	r5, [r0, #0]
   256da:	2c00      	cmp	r4, #0
   256dc:	d1dd      	bne.n	2569a <_ZN20complex_dynamic_type3app17ha90a3e1dc6b13d95E+0xa6>
   256de:	a812      	add	r0, sp, #72	@ 0x48
   256e0:	7804      	ldrb	r4, [r0, #0]
   256e2:	2c02      	cmp	r4, #2
   256e4:	d001      	beq.n	256ea <_ZN20complex_dynamic_type3app17ha90a3e1dc6b13d95E+0xf6>
   256e6:	480e      	ldr	r0, [pc, #56]	@ (25720 <_ZN20complex_dynamic_type3app17ha90a3e1dc6b13d95E+0x12c>)
   256e8:	9005      	str	r0, [sp, #20]
   256ea:	9d06      	ldr	r5, [sp, #24]
   256ec:	1c68      	adds	r0, r5, #1
   256ee:	2259      	movs	r2, #89	@ 0x59
   256f0:	9905      	ldr	r1, [sp, #20]
   256f2:	f005 ffaa 	bl	2b64a <__aeabi_memcpy>
   256f6:	2000      	movs	r0, #0
   256f8:	2c02      	cmp	r4, #2
   256fa:	7028      	strb	r0, [r5, #0]
   256fc:	d004      	beq.n	25708 <_ZN20complex_dynamic_type3app17ha90a3e1dc6b13d95E+0x114>
   256fe:	2103      	movs	r1, #3
   25700:	4806      	ldr	r0, [pc, #24]	@ (2571c <_ZN20complex_dynamic_type3app17ha90a3e1dc6b13d95E+0x128>)
   25702:	4622      	mov	r2, r4
   25704:	f005 fdbc 	bl	2b280 <_ZN9allow_pin12dynamic_type7unshare17h19052c50f9e150aeE>
   25708:	a807      	add	r0, sp, #28
   2570a:	7802      	ldrb	r2, [r0, #0]
   2570c:	2a02      	cmp	r2, #2
   2570e:	d003      	beq.n	25718 <_ZN20complex_dynamic_type3app17ha90a3e1dc6b13d95E+0x124>
   25710:	2101      	movs	r1, #1
   25712:	4802      	ldr	r0, [pc, #8]	@ (2571c <_ZN20complex_dynamic_type3app17ha90a3e1dc6b13d95E+0x128>)
   25714:	f005 fdb4 	bl	2b280 <_ZN9allow_pin12dynamic_type7unshare17h19052c50f9e150aeE>
   25718:	b02d      	add	sp, #180	@ 0xb4
   2571a:	bdf0      	pop	{r4, r5, r6, r7, pc}
   2571c:	00000ed2 	.word	0x00000ed2
   25720:	00010914 	.word	0x00010914

00025724 <_ZN20complex_dynamic_type3app17hab60092d724ae3e3E>:
   25724:	b5f0      	push	{r4, r5, r6, r7, lr}
   25726:	af03      	add	r7, sp, #12
   25728:	b0a5      	sub	sp, #148	@ 0x94
   2572a:	9006      	str	r0, [sp, #24]
   2572c:	a807      	add	r0, sp, #28
   2572e:	2602      	movs	r6, #2
   25730:	7006      	strb	r6, [r0, #0]
   25732:	1c40      	adds	r0, r0, #1
   25734:	9004      	str	r0, [sp, #16]
   25736:	2541      	movs	r5, #65	@ 0x41
   25738:	462a      	mov	r2, r5
   2573a:	f005 ff86 	bl	2b64a <__aeabi_memcpy>
   2573e:	ac18      	add	r4, sp, #96	@ 0x60
   25740:	1c60      	adds	r0, r4, #1
   25742:	2122      	movs	r1, #34	@ 0x22
   25744:	9005      	str	r0, [sp, #20]
   25746:	9103      	str	r1, [sp, #12]
   25748:	f005 fdbf 	bl	2b2ca <__aeabi_memclr>
   2574c:	9602      	str	r6, [sp, #8]
   2574e:	7026      	strb	r6, [r4, #0]
   25750:	2404      	movs	r4, #4
   25752:	9500      	str	r5, [sp, #0]
   25754:	9401      	str	r4, [sp, #4]
   25756:	a821      	add	r0, sp, #132	@ 0x84
   25758:	493c      	ldr	r1, [pc, #240]	@ (2584c <_ZN20complex_dynamic_type3app17hab60092d724ae3e3E+0x128>)
   2575a:	2501      	movs	r5, #1
   2575c:	462a      	mov	r2, r5
   2575e:	9b04      	ldr	r3, [sp, #16]
   25760:	f005 fd9b 	bl	2b29a <_ZN9allow_pin13dynamic_allow17h8bfd3764c146b81aE>
   25764:	9821      	ldr	r0, [sp, #132]	@ 0x84
   25766:	2802      	cmp	r0, #2
   25768:	d103      	bne.n	25772 <_ZN20complex_dynamic_type3app17hab60092d724ae3e3E+0x4e>
   2576a:	9922      	ldr	r1, [sp, #136]	@ 0x88
   2576c:	2802      	cmp	r0, #2
   2576e:	d029      	beq.n	257c4 <_ZN20complex_dynamic_type3app17hab60092d724ae3e3E+0xa0>
   25770:	e003      	b.n	2577a <_ZN20complex_dynamic_type3app17hab60092d724ae3e3E+0x56>
   25772:	a907      	add	r1, sp, #28
   25774:	700c      	strb	r4, [r1, #0]
   25776:	2802      	cmp	r0, #2
   25778:	d024      	beq.n	257c4 <_ZN20complex_dynamic_type3app17hab60092d724ae3e3E+0xa0>
   2577a:	a818      	add	r0, sp, #96	@ 0x60
   2577c:	7800      	ldrb	r0, [r0, #0]
   2577e:	2802      	cmp	r0, #2
   25780:	d10f      	bne.n	257a2 <_ZN20complex_dynamic_type3app17hab60092d724ae3e3E+0x7e>
   25782:	2603      	movs	r6, #3
   25784:	9803      	ldr	r0, [sp, #12]
   25786:	9000      	str	r0, [sp, #0]
   25788:	9601      	str	r6, [sp, #4]
   2578a:	a821      	add	r0, sp, #132	@ 0x84
   2578c:	2400      	movs	r4, #0
   2578e:	492f      	ldr	r1, [pc, #188]	@ (2584c <_ZN20complex_dynamic_type3app17hab60092d724ae3e3E+0x128>)
   25790:	4622      	mov	r2, r4
   25792:	9b05      	ldr	r3, [sp, #20]
   25794:	f005 fd81 	bl	2b29a <_ZN9allow_pin13dynamic_allow17h8bfd3764c146b81aE>
   25798:	9821      	ldr	r0, [sp, #132]	@ 0x84
   2579a:	2802      	cmp	r0, #2
   2579c:	d106      	bne.n	257ac <_ZN20complex_dynamic_type3app17hab60092d724ae3e3E+0x88>
   2579e:	9922      	ldr	r1, [sp, #136]	@ 0x88
   257a0:	e000      	b.n	257a4 <_ZN20complex_dynamic_type3app17hab60092d724ae3e3E+0x80>
   257a2:	2103      	movs	r1, #3
   257a4:	462c      	mov	r4, r5
   257a6:	2c00      	cmp	r4, #0
   257a8:	d004      	beq.n	257b4 <_ZN20complex_dynamic_type3app17hab60092d724ae3e3E+0x90>
   257aa:	e00b      	b.n	257c4 <_ZN20complex_dynamic_type3app17hab60092d724ae3e3E+0xa0>
   257ac:	a818      	add	r0, sp, #96	@ 0x60
   257ae:	7006      	strb	r6, [r0, #0]
   257b0:	2c00      	cmp	r4, #0
   257b2:	d107      	bne.n	257c4 <_ZN20complex_dynamic_type3app17hab60092d724ae3e3E+0xa0>
   257b4:	4825      	ldr	r0, [pc, #148]	@ (2584c <_ZN20complex_dynamic_type3app17hab60092d724ae3e3E+0x128>)
   257b6:	2101      	movs	r1, #1
   257b8:	2400      	movs	r4, #0
   257ba:	4622      	mov	r2, r4
   257bc:	4623      	mov	r3, r4
   257be:	df02      	svc	2
   257c0:	287f      	cmp	r0, #127	@ 0x7f
   257c2:	d80d      	bhi.n	257e0 <_ZN20complex_dynamic_type3app17hab60092d724ae3e3E+0xbc>
   257c4:	462c      	mov	r4, r5
   257c6:	2c00      	cmp	r4, #0
   257c8:	d021      	beq.n	2580e <_ZN20complex_dynamic_type3app17hab60092d724ae3e3E+0xea>
   257ca:	2001      	movs	r0, #1
   257cc:	9a06      	ldr	r2, [sp, #24]
   257ce:	7010      	strb	r0, [r2, #0]
   257d0:	6051      	str	r1, [r2, #4]
   257d2:	a818      	add	r0, sp, #96	@ 0x60
   257d4:	7802      	ldrb	r2, [r0, #0]
   257d6:	2a02      	cmp	r2, #2
   257d8:	d02e      	beq.n	25838 <_ZN20complex_dynamic_type3app17hab60092d724ae3e3E+0x114>
   257da:	2100      	movs	r1, #0
   257dc:	481b      	ldr	r0, [pc, #108]	@ (2584c <_ZN20complex_dynamic_type3app17hab60092d724ae3e3E+0x128>)
   257de:	e029      	b.n	25834 <_ZN20complex_dynamic_type3app17hab60092d724ae3e3E+0x110>
   257e0:	a807      	add	r0, sp, #28
   257e2:	7802      	ldrb	r2, [r0, #0]
   257e4:	2a02      	cmp	r2, #2
   257e6:	d003      	beq.n	257f0 <_ZN20complex_dynamic_type3app17hab60092d724ae3e3E+0xcc>
   257e8:	2101      	movs	r1, #1
   257ea:	4818      	ldr	r0, [pc, #96]	@ (2584c <_ZN20complex_dynamic_type3app17hab60092d724ae3e3E+0x128>)
   257ec:	f005 fd48 	bl	2b280 <_ZN9allow_pin12dynamic_type7unshare17h19052c50f9e150aeE>
   257f0:	a807      	add	r0, sp, #28
   257f2:	9d02      	ldr	r5, [sp, #8]
   257f4:	7005      	strb	r5, [r0, #0]
   257f6:	a818      	add	r0, sp, #96	@ 0x60
   257f8:	7802      	ldrb	r2, [r0, #0]
   257fa:	2a02      	cmp	r2, #2
   257fc:	d003      	beq.n	25806 <_ZN20complex_dynamic_type3app17hab60092d724ae3e3E+0xe2>
   257fe:	2100      	movs	r1, #0
   25800:	4812      	ldr	r0, [pc, #72]	@ (2584c <_ZN20complex_dynamic_type3app17hab60092d724ae3e3E+0x128>)
   25802:	f005 fd3d 	bl	2b280 <_ZN9allow_pin12dynamic_type7unshare17h19052c50f9e150aeE>
   25806:	a818      	add	r0, sp, #96	@ 0x60
   25808:	7005      	strb	r5, [r0, #0]
   2580a:	2c00      	cmp	r4, #0
   2580c:	d1dd      	bne.n	257ca <_ZN20complex_dynamic_type3app17hab60092d724ae3e3E+0xa6>
   2580e:	a818      	add	r0, sp, #96	@ 0x60
   25810:	7804      	ldrb	r4, [r0, #0]
   25812:	2c02      	cmp	r4, #2
   25814:	d001      	beq.n	2581a <_ZN20complex_dynamic_type3app17hab60092d724ae3e3E+0xf6>
   25816:	480e      	ldr	r0, [pc, #56]	@ (25850 <_ZN20complex_dynamic_type3app17hab60092d724ae3e3E+0x12c>)
   25818:	9005      	str	r0, [sp, #20]
   2581a:	9d06      	ldr	r5, [sp, #24]
   2581c:	1c68      	adds	r0, r5, #1
   2581e:	2222      	movs	r2, #34	@ 0x22
   25820:	9905      	ldr	r1, [sp, #20]
   25822:	f005 ff12 	bl	2b64a <__aeabi_memcpy>
   25826:	2000      	movs	r0, #0
   25828:	2c02      	cmp	r4, #2
   2582a:	7028      	strb	r0, [r5, #0]
   2582c:	d004      	beq.n	25838 <_ZN20complex_dynamic_type3app17hab60092d724ae3e3E+0x114>
   2582e:	2100      	movs	r1, #0
   25830:	4806      	ldr	r0, [pc, #24]	@ (2584c <_ZN20complex_dynamic_type3app17hab60092d724ae3e3E+0x128>)
   25832:	4622      	mov	r2, r4
   25834:	f005 fd24 	bl	2b280 <_ZN9allow_pin12dynamic_type7unshare17h19052c50f9e150aeE>
   25838:	a807      	add	r0, sp, #28
   2583a:	7802      	ldrb	r2, [r0, #0]
   2583c:	2a02      	cmp	r2, #2
   2583e:	d003      	beq.n	25848 <_ZN20complex_dynamic_type3app17hab60092d724ae3e3E+0x124>
   25840:	2101      	movs	r1, #1
   25842:	4802      	ldr	r0, [pc, #8]	@ (2584c <_ZN20complex_dynamic_type3app17hab60092d724ae3e3E+0x128>)
   25844:	f005 fd1c 	bl	2b280 <_ZN9allow_pin12dynamic_type7unshare17h19052c50f9e150aeE>
   25848:	b025      	add	sp, #148	@ 0x94
   2584a:	bdf0      	pop	{r4, r5, r6, r7, pc}
   2584c:	0000247c 	.word	0x0000247c
   25850:	00010543 	.word	0x00010543

00025854 <_ZN20complex_dynamic_type3app17haf07e3932ad70628E>:
   25854:	b5f0      	push	{r4, r5, r6, r7, lr}
   25856:	af03      	add	r7, sp, #12
   25858:	b0af      	sub	sp, #188	@ 0xbc
   2585a:	9007      	str	r0, [sp, #28]
   2585c:	a808      	add	r0, sp, #32
   2585e:	2502      	movs	r5, #2
   25860:	7005      	strb	r5, [r0, #0]
   25862:	1c40      	adds	r0, r0, #1
   25864:	9005      	str	r0, [sp, #20]
   25866:	2663      	movs	r6, #99	@ 0x63
   25868:	4632      	mov	r2, r6
   2586a:	f005 feee 	bl	2b64a <__aeabi_memcpy>
   2586e:	ac21      	add	r4, sp, #132	@ 0x84
   25870:	1c60      	adds	r0, r4, #1
   25872:	2127      	movs	r1, #39	@ 0x27
   25874:	9006      	str	r0, [sp, #24]
   25876:	9104      	str	r1, [sp, #16]
   25878:	f005 fd27 	bl	2b2ca <__aeabi_memclr>
   2587c:	9503      	str	r5, [sp, #12]
   2587e:	7025      	strb	r5, [r4, #0]
   25880:	2404      	movs	r4, #4
   25882:	9600      	str	r6, [sp, #0]
   25884:	9401      	str	r4, [sp, #4]
   25886:	a82b      	add	r0, sp, #172	@ 0xac
   25888:	4e3d      	ldr	r6, [pc, #244]	@ (25980 <_ZN20complex_dynamic_type3app17haf07e3932ad70628E+0x12c>)
   2588a:	2207      	movs	r2, #7
   2588c:	4631      	mov	r1, r6
   2588e:	9b05      	ldr	r3, [sp, #20]
   25890:	f005 fd03 	bl	2b29a <_ZN9allow_pin13dynamic_allow17h8bfd3764c146b81aE>
   25894:	982b      	ldr	r0, [sp, #172]	@ 0xac
   25896:	2802      	cmp	r0, #2
   25898:	d101      	bne.n	2589e <_ZN20complex_dynamic_type3app17haf07e3932ad70628E+0x4a>
   2589a:	992c      	ldr	r1, [sp, #176]	@ 0xb0
   2589c:	e001      	b.n	258a2 <_ZN20complex_dynamic_type3app17haf07e3932ad70628E+0x4e>
   2589e:	a908      	add	r1, sp, #32
   258a0:	700c      	strb	r4, [r1, #0]
   258a2:	2501      	movs	r5, #1
   258a4:	2802      	cmp	r0, #2
   258a6:	d10d      	bne.n	258c4 <_ZN20complex_dynamic_type3app17haf07e3932ad70628E+0x70>
   258a8:	462c      	mov	r4, r5
   258aa:	2c00      	cmp	r4, #0
   258ac:	d048      	beq.n	25940 <_ZN20complex_dynamic_type3app17haf07e3932ad70628E+0xec>
   258ae:	2001      	movs	r0, #1
   258b0:	9a07      	ldr	r2, [sp, #28]
   258b2:	7010      	strb	r0, [r2, #0]
   258b4:	6051      	str	r1, [r2, #4]
   258b6:	a821      	add	r0, sp, #132	@ 0x84
   258b8:	7802      	ldrb	r2, [r0, #0]
   258ba:	2a02      	cmp	r2, #2
   258bc:	d055      	beq.n	2596a <_ZN20complex_dynamic_type3app17haf07e3932ad70628E+0x116>
   258be:	2100      	movs	r1, #0
   258c0:	4630      	mov	r0, r6
   258c2:	e050      	b.n	25966 <_ZN20complex_dynamic_type3app17haf07e3932ad70628E+0x112>
   258c4:	a821      	add	r0, sp, #132	@ 0x84
   258c6:	7800      	ldrb	r0, [r0, #0]
   258c8:	2802      	cmp	r0, #2
   258ca:	d110      	bne.n	258ee <_ZN20complex_dynamic_type3app17haf07e3932ad70628E+0x9a>
   258cc:	4631      	mov	r1, r6
   258ce:	2603      	movs	r6, #3
   258d0:	9804      	ldr	r0, [sp, #16]
   258d2:	9000      	str	r0, [sp, #0]
   258d4:	9601      	str	r6, [sp, #4]
   258d6:	a82b      	add	r0, sp, #172	@ 0xac
   258d8:	2400      	movs	r4, #0
   258da:	4622      	mov	r2, r4
   258dc:	9b06      	ldr	r3, [sp, #24]
   258de:	f005 fcdc 	bl	2b29a <_ZN9allow_pin13dynamic_allow17h8bfd3764c146b81aE>
   258e2:	982b      	ldr	r0, [sp, #172]	@ 0xac
   258e4:	2802      	cmp	r0, #2
   258e6:	d107      	bne.n	258f8 <_ZN20complex_dynamic_type3app17haf07e3932ad70628E+0xa4>
   258e8:	992c      	ldr	r1, [sp, #176]	@ 0xb0
   258ea:	462c      	mov	r4, r5
   258ec:	e006      	b.n	258fc <_ZN20complex_dynamic_type3app17haf07e3932ad70628E+0xa8>
   258ee:	2103      	movs	r1, #3
   258f0:	462c      	mov	r4, r5
   258f2:	2c00      	cmp	r4, #0
   258f4:	d1d8      	bne.n	258a8 <_ZN20complex_dynamic_type3app17haf07e3932ad70628E+0x54>
   258f6:	e004      	b.n	25902 <_ZN20complex_dynamic_type3app17haf07e3932ad70628E+0xae>
   258f8:	a821      	add	r0, sp, #132	@ 0x84
   258fa:	7006      	strb	r6, [r0, #0]
   258fc:	4e20      	ldr	r6, [pc, #128]	@ (25980 <_ZN20complex_dynamic_type3app17haf07e3932ad70628E+0x12c>)
   258fe:	2c00      	cmp	r4, #0
   25900:	d1d2      	bne.n	258a8 <_ZN20complex_dynamic_type3app17haf07e3932ad70628E+0x54>
   25902:	481f      	ldr	r0, [pc, #124]	@ (25980 <_ZN20complex_dynamic_type3app17haf07e3932ad70628E+0x12c>)
   25904:	2107      	movs	r1, #7
   25906:	2400      	movs	r4, #0
   25908:	4622      	mov	r2, r4
   2590a:	4623      	mov	r3, r4
   2590c:	df02      	svc	2
   2590e:	287f      	cmp	r0, #127	@ 0x7f
   25910:	d9ca      	bls.n	258a8 <_ZN20complex_dynamic_type3app17haf07e3932ad70628E+0x54>
   25912:	a808      	add	r0, sp, #32
   25914:	7802      	ldrb	r2, [r0, #0]
   25916:	2a02      	cmp	r2, #2
   25918:	d003      	beq.n	25922 <_ZN20complex_dynamic_type3app17haf07e3932ad70628E+0xce>
   2591a:	2107      	movs	r1, #7
   2591c:	4630      	mov	r0, r6
   2591e:	f005 fcaf 	bl	2b280 <_ZN9allow_pin12dynamic_type7unshare17h19052c50f9e150aeE>
   25922:	a808      	add	r0, sp, #32
   25924:	9d03      	ldr	r5, [sp, #12]
   25926:	7005      	strb	r5, [r0, #0]
   25928:	a821      	add	r0, sp, #132	@ 0x84
   2592a:	7802      	ldrb	r2, [r0, #0]
   2592c:	2a02      	cmp	r2, #2
   2592e:	d003      	beq.n	25938 <_ZN20complex_dynamic_type3app17haf07e3932ad70628E+0xe4>
   25930:	2100      	movs	r1, #0
   25932:	4630      	mov	r0, r6
   25934:	f005 fca4 	bl	2b280 <_ZN9allow_pin12dynamic_type7unshare17h19052c50f9e150aeE>
   25938:	a821      	add	r0, sp, #132	@ 0x84
   2593a:	7005      	strb	r5, [r0, #0]
   2593c:	2c00      	cmp	r4, #0
   2593e:	d1b6      	bne.n	258ae <_ZN20complex_dynamic_type3app17haf07e3932ad70628E+0x5a>
   25940:	a821      	add	r0, sp, #132	@ 0x84
   25942:	7804      	ldrb	r4, [r0, #0]
   25944:	2c02      	cmp	r4, #2
   25946:	d001      	beq.n	2594c <_ZN20complex_dynamic_type3app17haf07e3932ad70628E+0xf8>
   25948:	480e      	ldr	r0, [pc, #56]	@ (25984 <_ZN20complex_dynamic_type3app17haf07e3932ad70628E+0x130>)
   2594a:	9006      	str	r0, [sp, #24]
   2594c:	9d07      	ldr	r5, [sp, #28]
   2594e:	1c68      	adds	r0, r5, #1
   25950:	2227      	movs	r2, #39	@ 0x27
   25952:	9906      	ldr	r1, [sp, #24]
   25954:	f005 fe79 	bl	2b64a <__aeabi_memcpy>
   25958:	2000      	movs	r0, #0
   2595a:	2c02      	cmp	r4, #2
   2595c:	7028      	strb	r0, [r5, #0]
   2595e:	d004      	beq.n	2596a <_ZN20complex_dynamic_type3app17haf07e3932ad70628E+0x116>
   25960:	2100      	movs	r1, #0
   25962:	4630      	mov	r0, r6
   25964:	4622      	mov	r2, r4
   25966:	f005 fc8b 	bl	2b280 <_ZN9allow_pin12dynamic_type7unshare17h19052c50f9e150aeE>
   2596a:	a808      	add	r0, sp, #32
   2596c:	7802      	ldrb	r2, [r0, #0]
   2596e:	2a02      	cmp	r2, #2
   25970:	d003      	beq.n	2597a <_ZN20complex_dynamic_type3app17haf07e3932ad70628E+0x126>
   25972:	2107      	movs	r1, #7
   25974:	4630      	mov	r0, r6
   25976:	f005 fc83 	bl	2b280 <_ZN9allow_pin12dynamic_type7unshare17h19052c50f9e150aeE>
   2597a:	b02f      	add	sp, #188	@ 0xbc
   2597c:	bdf0      	pop	{r4, r5, r6, r7, pc}
   2597e:	46c0      	nop			@ (mov r8, r8)
   25980:	00001e54 	.word	0x00001e54
   25984:	0001021e 	.word	0x0001021e

00025988 <_ZN20complex_dynamic_type3app17hb0e0831485dc8f1dE>:
   25988:	b5f0      	push	{r4, r5, r6, r7, lr}
   2598a:	af03      	add	r7, sp, #12
   2598c:	b0a7      	sub	sp, #156	@ 0x9c
   2598e:	9007      	str	r0, [sp, #28]
   25990:	a808      	add	r0, sp, #32
   25992:	2502      	movs	r5, #2
   25994:	7005      	strb	r5, [r0, #0]
   25996:	1c40      	adds	r0, r0, #1
   25998:	9005      	str	r0, [sp, #20]
   2599a:	2613      	movs	r6, #19
   2599c:	4632      	mov	r2, r6
   2599e:	f005 fe54 	bl	2b64a <__aeabi_memcpy>
   259a2:	ac0d      	add	r4, sp, #52	@ 0x34
   259a4:	1c60      	adds	r0, r4, #1
   259a6:	2155      	movs	r1, #85	@ 0x55
   259a8:	9006      	str	r0, [sp, #24]
   259aa:	9104      	str	r1, [sp, #16]
   259ac:	f005 fc8d 	bl	2b2ca <__aeabi_memclr>
   259b0:	9503      	str	r5, [sp, #12]
   259b2:	7025      	strb	r5, [r4, #0]
   259b4:	2404      	movs	r4, #4
   259b6:	9600      	str	r6, [sp, #0]
   259b8:	9401      	str	r4, [sp, #4]
   259ba:	a823      	add	r0, sp, #140	@ 0x8c
   259bc:	4e3c      	ldr	r6, [pc, #240]	@ (25ab0 <_ZN20complex_dynamic_type3app17hb0e0831485dc8f1dE+0x128>)
   259be:	2209      	movs	r2, #9
   259c0:	4631      	mov	r1, r6
   259c2:	9b05      	ldr	r3, [sp, #20]
   259c4:	f005 fc69 	bl	2b29a <_ZN9allow_pin13dynamic_allow17h8bfd3764c146b81aE>
   259c8:	9823      	ldr	r0, [sp, #140]	@ 0x8c
   259ca:	2802      	cmp	r0, #2
   259cc:	d101      	bne.n	259d2 <_ZN20complex_dynamic_type3app17hb0e0831485dc8f1dE+0x4a>
   259ce:	9924      	ldr	r1, [sp, #144]	@ 0x90
   259d0:	e001      	b.n	259d6 <_ZN20complex_dynamic_type3app17hb0e0831485dc8f1dE+0x4e>
   259d2:	a908      	add	r1, sp, #32
   259d4:	700c      	strb	r4, [r1, #0]
   259d6:	2501      	movs	r5, #1
   259d8:	2802      	cmp	r0, #2
   259da:	d024      	beq.n	25a26 <_ZN20complex_dynamic_type3app17hb0e0831485dc8f1dE+0x9e>
   259dc:	a80d      	add	r0, sp, #52	@ 0x34
   259de:	7800      	ldrb	r0, [r0, #0]
   259e0:	2802      	cmp	r0, #2
   259e2:	d10e      	bne.n	25a02 <_ZN20complex_dynamic_type3app17hb0e0831485dc8f1dE+0x7a>
   259e4:	2403      	movs	r4, #3
   259e6:	9804      	ldr	r0, [sp, #16]
   259e8:	9000      	str	r0, [sp, #0]
   259ea:	9401      	str	r4, [sp, #4]
   259ec:	a823      	add	r0, sp, #140	@ 0x8c
   259ee:	2207      	movs	r2, #7
   259f0:	4631      	mov	r1, r6
   259f2:	9b06      	ldr	r3, [sp, #24]
   259f4:	f005 fc51 	bl	2b29a <_ZN9allow_pin13dynamic_allow17h8bfd3764c146b81aE>
   259f8:	9823      	ldr	r0, [sp, #140]	@ 0x8c
   259fa:	2802      	cmp	r0, #2
   259fc:	d106      	bne.n	25a0c <_ZN20complex_dynamic_type3app17hb0e0831485dc8f1dE+0x84>
   259fe:	9924      	ldr	r1, [sp, #144]	@ 0x90
   25a00:	e000      	b.n	25a04 <_ZN20complex_dynamic_type3app17hb0e0831485dc8f1dE+0x7c>
   25a02:	2103      	movs	r1, #3
   25a04:	4628      	mov	r0, r5
   25a06:	2800      	cmp	r0, #0
   25a08:	d005      	beq.n	25a16 <_ZN20complex_dynamic_type3app17hb0e0831485dc8f1dE+0x8e>
   25a0a:	e00c      	b.n	25a26 <_ZN20complex_dynamic_type3app17hb0e0831485dc8f1dE+0x9e>
   25a0c:	a80d      	add	r0, sp, #52	@ 0x34
   25a0e:	7004      	strb	r4, [r0, #0]
   25a10:	2000      	movs	r0, #0
   25a12:	2800      	cmp	r0, #0
   25a14:	d107      	bne.n	25a26 <_ZN20complex_dynamic_type3app17hb0e0831485dc8f1dE+0x9e>
   25a16:	4826      	ldr	r0, [pc, #152]	@ (25ab0 <_ZN20complex_dynamic_type3app17hb0e0831485dc8f1dE+0x128>)
   25a18:	2109      	movs	r1, #9
   25a1a:	2207      	movs	r2, #7
   25a1c:	2400      	movs	r4, #0
   25a1e:	4623      	mov	r3, r4
   25a20:	df02      	svc	2
   25a22:	287f      	cmp	r0, #127	@ 0x7f
   25a24:	d80d      	bhi.n	25a42 <_ZN20complex_dynamic_type3app17hb0e0831485dc8f1dE+0xba>
   25a26:	462c      	mov	r4, r5
   25a28:	2c00      	cmp	r4, #0
   25a2a:	d021      	beq.n	25a70 <_ZN20complex_dynamic_type3app17hb0e0831485dc8f1dE+0xe8>
   25a2c:	2001      	movs	r0, #1
   25a2e:	9a07      	ldr	r2, [sp, #28]
   25a30:	7010      	strb	r0, [r2, #0]
   25a32:	6051      	str	r1, [r2, #4]
   25a34:	a80d      	add	r0, sp, #52	@ 0x34
   25a36:	7802      	ldrb	r2, [r0, #0]
   25a38:	2a02      	cmp	r2, #2
   25a3a:	d02e      	beq.n	25a9a <_ZN20complex_dynamic_type3app17hb0e0831485dc8f1dE+0x112>
   25a3c:	2107      	movs	r1, #7
   25a3e:	4630      	mov	r0, r6
   25a40:	e029      	b.n	25a96 <_ZN20complex_dynamic_type3app17hb0e0831485dc8f1dE+0x10e>
   25a42:	a808      	add	r0, sp, #32
   25a44:	7802      	ldrb	r2, [r0, #0]
   25a46:	2a02      	cmp	r2, #2
   25a48:	d003      	beq.n	25a52 <_ZN20complex_dynamic_type3app17hb0e0831485dc8f1dE+0xca>
   25a4a:	2109      	movs	r1, #9
   25a4c:	4630      	mov	r0, r6
   25a4e:	f005 fc17 	bl	2b280 <_ZN9allow_pin12dynamic_type7unshare17h19052c50f9e150aeE>
   25a52:	a808      	add	r0, sp, #32
   25a54:	9d03      	ldr	r5, [sp, #12]
   25a56:	7005      	strb	r5, [r0, #0]
   25a58:	a80d      	add	r0, sp, #52	@ 0x34
   25a5a:	7802      	ldrb	r2, [r0, #0]
   25a5c:	2a02      	cmp	r2, #2
   25a5e:	d003      	beq.n	25a68 <_ZN20complex_dynamic_type3app17hb0e0831485dc8f1dE+0xe0>
   25a60:	2107      	movs	r1, #7
   25a62:	4630      	mov	r0, r6
   25a64:	f005 fc0c 	bl	2b280 <_ZN9allow_pin12dynamic_type7unshare17h19052c50f9e150aeE>
   25a68:	a80d      	add	r0, sp, #52	@ 0x34
   25a6a:	7005      	strb	r5, [r0, #0]
   25a6c:	2c00      	cmp	r4, #0
   25a6e:	d1dd      	bne.n	25a2c <_ZN20complex_dynamic_type3app17hb0e0831485dc8f1dE+0xa4>
   25a70:	a80d      	add	r0, sp, #52	@ 0x34
   25a72:	7804      	ldrb	r4, [r0, #0]
   25a74:	2c02      	cmp	r4, #2
   25a76:	d001      	beq.n	25a7c <_ZN20complex_dynamic_type3app17hb0e0831485dc8f1dE+0xf4>
   25a78:	480e      	ldr	r0, [pc, #56]	@ (25ab4 <_ZN20complex_dynamic_type3app17hb0e0831485dc8f1dE+0x12c>)
   25a7a:	9006      	str	r0, [sp, #24]
   25a7c:	9d07      	ldr	r5, [sp, #28]
   25a7e:	1c68      	adds	r0, r5, #1
   25a80:	2255      	movs	r2, #85	@ 0x55
   25a82:	9906      	ldr	r1, [sp, #24]
   25a84:	f005 fde1 	bl	2b64a <__aeabi_memcpy>
   25a88:	2000      	movs	r0, #0
   25a8a:	2c02      	cmp	r4, #2
   25a8c:	7028      	strb	r0, [r5, #0]
   25a8e:	d004      	beq.n	25a9a <_ZN20complex_dynamic_type3app17hb0e0831485dc8f1dE+0x112>
   25a90:	2107      	movs	r1, #7
   25a92:	4630      	mov	r0, r6
   25a94:	4622      	mov	r2, r4
   25a96:	f005 fbf3 	bl	2b280 <_ZN9allow_pin12dynamic_type7unshare17h19052c50f9e150aeE>
   25a9a:	a808      	add	r0, sp, #32
   25a9c:	7802      	ldrb	r2, [r0, #0]
   25a9e:	2a02      	cmp	r2, #2
   25aa0:	d003      	beq.n	25aaa <_ZN20complex_dynamic_type3app17hb0e0831485dc8f1dE+0x122>
   25aa2:	2109      	movs	r1, #9
   25aa4:	4630      	mov	r0, r6
   25aa6:	f005 fbeb 	bl	2b280 <_ZN9allow_pin12dynamic_type7unshare17h19052c50f9e150aeE>
   25aaa:	b027      	add	sp, #156	@ 0x9c
   25aac:	bdf0      	pop	{r4, r5, r6, r7, pc}
   25aae:	46c0      	nop			@ (mov r8, r8)
   25ab0:	0000032e 	.word	0x0000032e
   25ab4:	00010ab3 	.word	0x00010ab3

00025ab8 <_ZN20complex_dynamic_type3app17hb28eb690065b0eefE>:
   25ab8:	b5f0      	push	{r4, r5, r6, r7, lr}
   25aba:	af03      	add	r7, sp, #12
   25abc:	b0a3      	sub	sp, #140	@ 0x8c
   25abe:	9005      	str	r0, [sp, #20]
   25ac0:	a806      	add	r0, sp, #24
   25ac2:	2502      	movs	r5, #2
   25ac4:	7005      	strb	r5, [r0, #0]
   25ac6:	1c40      	adds	r0, r0, #1
   25ac8:	9003      	str	r0, [sp, #12]
   25aca:	2438      	movs	r4, #56	@ 0x38
   25acc:	4622      	mov	r2, r4
   25ace:	f005 fdbc 	bl	2b64a <__aeabi_memcpy>
   25ad2:	ae15      	add	r6, sp, #84	@ 0x54
   25ad4:	1c70      	adds	r0, r6, #1
   25ad6:	2127      	movs	r1, #39	@ 0x27
   25ad8:	9004      	str	r0, [sp, #16]
   25ada:	9102      	str	r1, [sp, #8]
   25adc:	f005 fbf5 	bl	2b2ca <__aeabi_memclr>
   25ae0:	7035      	strb	r5, [r6, #0]
   25ae2:	2004      	movs	r0, #4
   25ae4:	9400      	str	r4, [sp, #0]
   25ae6:	4604      	mov	r4, r0
   25ae8:	9001      	str	r0, [sp, #4]
   25aea:	a81f      	add	r0, sp, #124	@ 0x7c
   25aec:	4e3d      	ldr	r6, [pc, #244]	@ (25be4 <_ZN20complex_dynamic_type3app17hb28eb690065b0eefE+0x12c>)
   25aee:	4631      	mov	r1, r6
   25af0:	462a      	mov	r2, r5
   25af2:	9b03      	ldr	r3, [sp, #12]
   25af4:	f005 fbd1 	bl	2b29a <_ZN9allow_pin13dynamic_allow17h8bfd3764c146b81aE>
   25af8:	981f      	ldr	r0, [sp, #124]	@ 0x7c
   25afa:	2802      	cmp	r0, #2
   25afc:	d101      	bne.n	25b02 <_ZN20complex_dynamic_type3app17hb28eb690065b0eefE+0x4a>
   25afe:	9920      	ldr	r1, [sp, #128]	@ 0x80
   25b00:	e001      	b.n	25b06 <_ZN20complex_dynamic_type3app17hb28eb690065b0eefE+0x4e>
   25b02:	a906      	add	r1, sp, #24
   25b04:	700c      	strb	r4, [r1, #0]
   25b06:	2501      	movs	r5, #1
   25b08:	2802      	cmp	r0, #2
   25b0a:	d016      	beq.n	25b3a <_ZN20complex_dynamic_type3app17hb28eb690065b0eefE+0x82>
   25b0c:	a815      	add	r0, sp, #84	@ 0x54
   25b0e:	7800      	ldrb	r0, [r0, #0]
   25b10:	2802      	cmp	r0, #2
   25b12:	d10e      	bne.n	25b32 <_ZN20complex_dynamic_type3app17hb28eb690065b0eefE+0x7a>
   25b14:	2403      	movs	r4, #3
   25b16:	9802      	ldr	r0, [sp, #8]
   25b18:	9000      	str	r0, [sp, #0]
   25b1a:	9401      	str	r4, [sp, #4]
   25b1c:	a81f      	add	r0, sp, #124	@ 0x7c
   25b1e:	2208      	movs	r2, #8
   25b20:	4631      	mov	r1, r6
   25b22:	9b04      	ldr	r3, [sp, #16]
   25b24:	f005 fbb9 	bl	2b29a <_ZN9allow_pin13dynamic_allow17h8bfd3764c146b81aE>
   25b28:	981f      	ldr	r0, [sp, #124]	@ 0x7c
   25b2a:	2802      	cmp	r0, #2
   25b2c:	d113      	bne.n	25b56 <_ZN20complex_dynamic_type3app17hb28eb690065b0eefE+0x9e>
   25b2e:	9920      	ldr	r1, [sp, #128]	@ 0x80
   25b30:	e000      	b.n	25b34 <_ZN20complex_dynamic_type3app17hb28eb690065b0eefE+0x7c>
   25b32:	2103      	movs	r1, #3
   25b34:	4628      	mov	r0, r5
   25b36:	2800      	cmp	r0, #0
   25b38:	d012      	beq.n	25b60 <_ZN20complex_dynamic_type3app17hb28eb690065b0eefE+0xa8>
   25b3a:	462c      	mov	r4, r5
   25b3c:	2c00      	cmp	r4, #0
   25b3e:	d031      	beq.n	25ba4 <_ZN20complex_dynamic_type3app17hb28eb690065b0eefE+0xec>
   25b40:	2001      	movs	r0, #1
   25b42:	9a05      	ldr	r2, [sp, #20]
   25b44:	7010      	strb	r0, [r2, #0]
   25b46:	6051      	str	r1, [r2, #4]
   25b48:	a815      	add	r0, sp, #84	@ 0x54
   25b4a:	7802      	ldrb	r2, [r0, #0]
   25b4c:	2a02      	cmp	r2, #2
   25b4e:	d03e      	beq.n	25bce <_ZN20complex_dynamic_type3app17hb28eb690065b0eefE+0x116>
   25b50:	2108      	movs	r1, #8
   25b52:	4630      	mov	r0, r6
   25b54:	e039      	b.n	25bca <_ZN20complex_dynamic_type3app17hb28eb690065b0eefE+0x112>
   25b56:	a815      	add	r0, sp, #84	@ 0x54
   25b58:	7004      	strb	r4, [r0, #0]
   25b5a:	2000      	movs	r0, #0
   25b5c:	2800      	cmp	r0, #0
   25b5e:	d1ec      	bne.n	25b3a <_ZN20complex_dynamic_type3app17hb28eb690065b0eefE+0x82>
   25b60:	4820      	ldr	r0, [pc, #128]	@ (25be4 <_ZN20complex_dynamic_type3app17hb28eb690065b0eefE+0x12c>)
   25b62:	2102      	movs	r1, #2
   25b64:	2208      	movs	r2, #8
   25b66:	2400      	movs	r4, #0
   25b68:	460e      	mov	r6, r1
   25b6a:	4623      	mov	r3, r4
   25b6c:	df02      	svc	2
   25b6e:	287f      	cmp	r0, #127	@ 0x7f
   25b70:	d801      	bhi.n	25b76 <_ZN20complex_dynamic_type3app17hb28eb690065b0eefE+0xbe>
   25b72:	462c      	mov	r4, r5
   25b74:	e013      	b.n	25b9e <_ZN20complex_dynamic_type3app17hb28eb690065b0eefE+0xe6>
   25b76:	a806      	add	r0, sp, #24
   25b78:	7802      	ldrb	r2, [r0, #0]
   25b7a:	2a02      	cmp	r2, #2
   25b7c:	d003      	beq.n	25b86 <_ZN20complex_dynamic_type3app17hb28eb690065b0eefE+0xce>
   25b7e:	2102      	movs	r1, #2
   25b80:	4818      	ldr	r0, [pc, #96]	@ (25be4 <_ZN20complex_dynamic_type3app17hb28eb690065b0eefE+0x12c>)
   25b82:	f005 fb7d 	bl	2b280 <_ZN9allow_pin12dynamic_type7unshare17h19052c50f9e150aeE>
   25b86:	a806      	add	r0, sp, #24
   25b88:	7006      	strb	r6, [r0, #0]
   25b8a:	a815      	add	r0, sp, #84	@ 0x54
   25b8c:	7802      	ldrb	r2, [r0, #0]
   25b8e:	2a02      	cmp	r2, #2
   25b90:	d003      	beq.n	25b9a <_ZN20complex_dynamic_type3app17hb28eb690065b0eefE+0xe2>
   25b92:	2108      	movs	r1, #8
   25b94:	4813      	ldr	r0, [pc, #76]	@ (25be4 <_ZN20complex_dynamic_type3app17hb28eb690065b0eefE+0x12c>)
   25b96:	f005 fb73 	bl	2b280 <_ZN9allow_pin12dynamic_type7unshare17h19052c50f9e150aeE>
   25b9a:	a815      	add	r0, sp, #84	@ 0x54
   25b9c:	7006      	strb	r6, [r0, #0]
   25b9e:	4e11      	ldr	r6, [pc, #68]	@ (25be4 <_ZN20complex_dynamic_type3app17hb28eb690065b0eefE+0x12c>)
   25ba0:	2c00      	cmp	r4, #0
   25ba2:	d1cd      	bne.n	25b40 <_ZN20complex_dynamic_type3app17hb28eb690065b0eefE+0x88>
   25ba4:	a815      	add	r0, sp, #84	@ 0x54
   25ba6:	7804      	ldrb	r4, [r0, #0]
   25ba8:	2c02      	cmp	r4, #2
   25baa:	d001      	beq.n	25bb0 <_ZN20complex_dynamic_type3app17hb28eb690065b0eefE+0xf8>
   25bac:	480e      	ldr	r0, [pc, #56]	@ (25be8 <_ZN20complex_dynamic_type3app17hb28eb690065b0eefE+0x130>)
   25bae:	9004      	str	r0, [sp, #16]
   25bb0:	9d05      	ldr	r5, [sp, #20]
   25bb2:	1c68      	adds	r0, r5, #1
   25bb4:	2227      	movs	r2, #39	@ 0x27
   25bb6:	9904      	ldr	r1, [sp, #16]
   25bb8:	f005 fd47 	bl	2b64a <__aeabi_memcpy>
   25bbc:	2000      	movs	r0, #0
   25bbe:	2c02      	cmp	r4, #2
   25bc0:	7028      	strb	r0, [r5, #0]
   25bc2:	d004      	beq.n	25bce <_ZN20complex_dynamic_type3app17hb28eb690065b0eefE+0x116>
   25bc4:	2108      	movs	r1, #8
   25bc6:	4630      	mov	r0, r6
   25bc8:	4622      	mov	r2, r4
   25bca:	f005 fb59 	bl	2b280 <_ZN9allow_pin12dynamic_type7unshare17h19052c50f9e150aeE>
   25bce:	a806      	add	r0, sp, #24
   25bd0:	7802      	ldrb	r2, [r0, #0]
   25bd2:	2a02      	cmp	r2, #2
   25bd4:	d003      	beq.n	25bde <_ZN20complex_dynamic_type3app17hb28eb690065b0eefE+0x126>
   25bd6:	2102      	movs	r1, #2
   25bd8:	4630      	mov	r0, r6
   25bda:	f005 fb51 	bl	2b280 <_ZN9allow_pin12dynamic_type7unshare17h19052c50f9e150aeE>
   25bde:	b023      	add	sp, #140	@ 0x8c
   25be0:	bdf0      	pop	{r4, r5, r6, r7, pc}
   25be2:	46c0      	nop			@ (mov r8, r8)
   25be4:	00000e2b 	.word	0x00000e2b
   25be8:	0001021e 	.word	0x0001021e

00025bec <_ZN20complex_dynamic_type3app17hbbbf09012022e254E>:
   25bec:	b5f0      	push	{r4, r5, r6, r7, lr}
   25bee:	af03      	add	r7, sp, #12
   25bf0:	b0a7      	sub	sp, #156	@ 0x9c
   25bf2:	9006      	str	r0, [sp, #24]
   25bf4:	a807      	add	r0, sp, #28
   25bf6:	2502      	movs	r5, #2
   25bf8:	7005      	strb	r5, [r0, #0]
   25bfa:	1c40      	adds	r0, r0, #1
   25bfc:	9004      	str	r0, [sp, #16]
   25bfe:	2649      	movs	r6, #73	@ 0x49
   25c00:	4632      	mov	r2, r6
   25c02:	f005 fd22 	bl	2b64a <__aeabi_memcpy>
   25c06:	ac1a      	add	r4, sp, #104	@ 0x68
   25c08:	1c60      	adds	r0, r4, #1
   25c0a:	2123      	movs	r1, #35	@ 0x23
   25c0c:	9005      	str	r0, [sp, #20]
   25c0e:	9103      	str	r1, [sp, #12]
   25c10:	f005 fb5b 	bl	2b2ca <__aeabi_memclr>
   25c14:	9502      	str	r5, [sp, #8]
   25c16:	7025      	strb	r5, [r4, #0]
   25c18:	2404      	movs	r4, #4
   25c1a:	9600      	str	r6, [sp, #0]
   25c1c:	9401      	str	r4, [sp, #4]
   25c1e:	a823      	add	r0, sp, #140	@ 0x8c
   25c20:	4e3c      	ldr	r6, [pc, #240]	@ (25d14 <_ZN20complex_dynamic_type3app17hbbbf09012022e254E+0x128>)
   25c22:	2207      	movs	r2, #7
   25c24:	4631      	mov	r1, r6
   25c26:	9b04      	ldr	r3, [sp, #16]
   25c28:	f005 fb37 	bl	2b29a <_ZN9allow_pin13dynamic_allow17h8bfd3764c146b81aE>
   25c2c:	9823      	ldr	r0, [sp, #140]	@ 0x8c
   25c2e:	2802      	cmp	r0, #2
   25c30:	d101      	bne.n	25c36 <_ZN20complex_dynamic_type3app17hbbbf09012022e254E+0x4a>
   25c32:	9924      	ldr	r1, [sp, #144]	@ 0x90
   25c34:	e001      	b.n	25c3a <_ZN20complex_dynamic_type3app17hbbbf09012022e254E+0x4e>
   25c36:	a907      	add	r1, sp, #28
   25c38:	700c      	strb	r4, [r1, #0]
   25c3a:	2501      	movs	r5, #1
   25c3c:	2802      	cmp	r0, #2
   25c3e:	d024      	beq.n	25c8a <_ZN20complex_dynamic_type3app17hbbbf09012022e254E+0x9e>
   25c40:	a81a      	add	r0, sp, #104	@ 0x68
   25c42:	7800      	ldrb	r0, [r0, #0]
   25c44:	2802      	cmp	r0, #2
   25c46:	d10e      	bne.n	25c66 <_ZN20complex_dynamic_type3app17hbbbf09012022e254E+0x7a>
   25c48:	2403      	movs	r4, #3
   25c4a:	9803      	ldr	r0, [sp, #12]
   25c4c:	9000      	str	r0, [sp, #0]
   25c4e:	9401      	str	r4, [sp, #4]
   25c50:	a823      	add	r0, sp, #140	@ 0x8c
   25c52:	2201      	movs	r2, #1
   25c54:	4631      	mov	r1, r6
   25c56:	9b05      	ldr	r3, [sp, #20]
   25c58:	f005 fb1f 	bl	2b29a <_ZN9allow_pin13dynamic_allow17h8bfd3764c146b81aE>
   25c5c:	9823      	ldr	r0, [sp, #140]	@ 0x8c
   25c5e:	2802      	cmp	r0, #2
   25c60:	d106      	bne.n	25c70 <_ZN20complex_dynamic_type3app17hbbbf09012022e254E+0x84>
   25c62:	9924      	ldr	r1, [sp, #144]	@ 0x90
   25c64:	e000      	b.n	25c68 <_ZN20complex_dynamic_type3app17hbbbf09012022e254E+0x7c>
   25c66:	2103      	movs	r1, #3
   25c68:	4628      	mov	r0, r5
   25c6a:	2800      	cmp	r0, #0
   25c6c:	d005      	beq.n	25c7a <_ZN20complex_dynamic_type3app17hbbbf09012022e254E+0x8e>
   25c6e:	e00c      	b.n	25c8a <_ZN20complex_dynamic_type3app17hbbbf09012022e254E+0x9e>
   25c70:	a81a      	add	r0, sp, #104	@ 0x68
   25c72:	7004      	strb	r4, [r0, #0]
   25c74:	2000      	movs	r0, #0
   25c76:	2800      	cmp	r0, #0
   25c78:	d107      	bne.n	25c8a <_ZN20complex_dynamic_type3app17hbbbf09012022e254E+0x9e>
   25c7a:	4826      	ldr	r0, [pc, #152]	@ (25d14 <_ZN20complex_dynamic_type3app17hbbbf09012022e254E+0x128>)
   25c7c:	2107      	movs	r1, #7
   25c7e:	2201      	movs	r2, #1
   25c80:	2400      	movs	r4, #0
   25c82:	4623      	mov	r3, r4
   25c84:	df02      	svc	2
   25c86:	287f      	cmp	r0, #127	@ 0x7f
   25c88:	d80d      	bhi.n	25ca6 <_ZN20complex_dynamic_type3app17hbbbf09012022e254E+0xba>
   25c8a:	462c      	mov	r4, r5
   25c8c:	2c00      	cmp	r4, #0
   25c8e:	d021      	beq.n	25cd4 <_ZN20complex_dynamic_type3app17hbbbf09012022e254E+0xe8>
   25c90:	2001      	movs	r0, #1
   25c92:	9a06      	ldr	r2, [sp, #24]
   25c94:	7010      	strb	r0, [r2, #0]
   25c96:	6051      	str	r1, [r2, #4]
   25c98:	a81a      	add	r0, sp, #104	@ 0x68
   25c9a:	7802      	ldrb	r2, [r0, #0]
   25c9c:	2a02      	cmp	r2, #2
   25c9e:	d02e      	beq.n	25cfe <_ZN20complex_dynamic_type3app17hbbbf09012022e254E+0x112>
   25ca0:	2101      	movs	r1, #1
   25ca2:	4630      	mov	r0, r6
   25ca4:	e029      	b.n	25cfa <_ZN20complex_dynamic_type3app17hbbbf09012022e254E+0x10e>
   25ca6:	a807      	add	r0, sp, #28
   25ca8:	7802      	ldrb	r2, [r0, #0]
   25caa:	2a02      	cmp	r2, #2
   25cac:	d003      	beq.n	25cb6 <_ZN20complex_dynamic_type3app17hbbbf09012022e254E+0xca>
   25cae:	2107      	movs	r1, #7
   25cb0:	4630      	mov	r0, r6
   25cb2:	f005 fae5 	bl	2b280 <_ZN9allow_pin12dynamic_type7unshare17h19052c50f9e150aeE>
   25cb6:	a807      	add	r0, sp, #28
   25cb8:	9d02      	ldr	r5, [sp, #8]
   25cba:	7005      	strb	r5, [r0, #0]
   25cbc:	a81a      	add	r0, sp, #104	@ 0x68
   25cbe:	7802      	ldrb	r2, [r0, #0]
   25cc0:	2a02      	cmp	r2, #2
   25cc2:	d003      	beq.n	25ccc <_ZN20complex_dynamic_type3app17hbbbf09012022e254E+0xe0>
   25cc4:	2101      	movs	r1, #1
   25cc6:	4630      	mov	r0, r6
   25cc8:	f005 fada 	bl	2b280 <_ZN9allow_pin12dynamic_type7unshare17h19052c50f9e150aeE>
   25ccc:	a81a      	add	r0, sp, #104	@ 0x68
   25cce:	7005      	strb	r5, [r0, #0]
   25cd0:	2c00      	cmp	r4, #0
   25cd2:	d1dd      	bne.n	25c90 <_ZN20complex_dynamic_type3app17hbbbf09012022e254E+0xa4>
   25cd4:	a81a      	add	r0, sp, #104	@ 0x68
   25cd6:	7804      	ldrb	r4, [r0, #0]
   25cd8:	2c02      	cmp	r4, #2
   25cda:	d001      	beq.n	25ce0 <_ZN20complex_dynamic_type3app17hbbbf09012022e254E+0xf4>
   25cdc:	480e      	ldr	r0, [pc, #56]	@ (25d18 <_ZN20complex_dynamic_type3app17hbbbf09012022e254E+0x12c>)
   25cde:	9005      	str	r0, [sp, #20]
   25ce0:	9d06      	ldr	r5, [sp, #24]
   25ce2:	1c68      	adds	r0, r5, #1
   25ce4:	2223      	movs	r2, #35	@ 0x23
   25ce6:	9905      	ldr	r1, [sp, #20]
   25ce8:	f005 fcaf 	bl	2b64a <__aeabi_memcpy>
   25cec:	2000      	movs	r0, #0
   25cee:	2c02      	cmp	r4, #2
   25cf0:	7028      	strb	r0, [r5, #0]
   25cf2:	d004      	beq.n	25cfe <_ZN20complex_dynamic_type3app17hbbbf09012022e254E+0x112>
   25cf4:	2101      	movs	r1, #1
   25cf6:	4630      	mov	r0, r6
   25cf8:	4622      	mov	r2, r4
   25cfa:	f005 fac1 	bl	2b280 <_ZN9allow_pin12dynamic_type7unshare17h19052c50f9e150aeE>
   25cfe:	a807      	add	r0, sp, #28
   25d00:	7802      	ldrb	r2, [r0, #0]
   25d02:	2a02      	cmp	r2, #2
   25d04:	d003      	beq.n	25d0e <_ZN20complex_dynamic_type3app17hbbbf09012022e254E+0x122>
   25d06:	2107      	movs	r1, #7
   25d08:	4630      	mov	r0, r6
   25d0a:	f005 fab9 	bl	2b280 <_ZN9allow_pin12dynamic_type7unshare17h19052c50f9e150aeE>
   25d0e:	b027      	add	sp, #156	@ 0x9c
   25d10:	bdf0      	pop	{r4, r5, r6, r7, pc}
   25d12:	46c0      	nop			@ (mov r8, r8)
   25d14:	00001551 	.word	0x00001551
   25d18:	00010771 	.word	0x00010771

00025d1c <_ZN20complex_dynamic_type3app17hbcd5d4564ea8f10aE>:
   25d1c:	b5f0      	push	{r4, r5, r6, r7, lr}
   25d1e:	af03      	add	r7, sp, #12
   25d20:	b09d      	sub	sp, #116	@ 0x74
   25d22:	9006      	str	r0, [sp, #24]
   25d24:	a807      	add	r0, sp, #28
   25d26:	2602      	movs	r6, #2
   25d28:	7006      	strb	r6, [r0, #0]
   25d2a:	1c40      	adds	r0, r0, #1
   25d2c:	9004      	str	r0, [sp, #16]
   25d2e:	2527      	movs	r5, #39	@ 0x27
   25d30:	462a      	mov	r2, r5
   25d32:	f005 fc8a 	bl	2b64a <__aeabi_memcpy>
   25d36:	ac11      	add	r4, sp, #68	@ 0x44
   25d38:	1c60      	adds	r0, r4, #1
   25d3a:	211e      	movs	r1, #30
   25d3c:	9005      	str	r0, [sp, #20]
   25d3e:	9103      	str	r1, [sp, #12]
   25d40:	f005 fac3 	bl	2b2ca <__aeabi_memclr>
   25d44:	9602      	str	r6, [sp, #8]
   25d46:	7026      	strb	r6, [r4, #0]
   25d48:	2404      	movs	r4, #4
   25d4a:	9500      	str	r5, [sp, #0]
   25d4c:	9401      	str	r4, [sp, #4]
   25d4e:	a819      	add	r0, sp, #100	@ 0x64
   25d50:	493c      	ldr	r1, [pc, #240]	@ (25e44 <_ZN20complex_dynamic_type3app17hbcd5d4564ea8f10aE+0x128>)
   25d52:	2503      	movs	r5, #3
   25d54:	462a      	mov	r2, r5
   25d56:	9b04      	ldr	r3, [sp, #16]
   25d58:	f005 fa9f 	bl	2b29a <_ZN9allow_pin13dynamic_allow17h8bfd3764c146b81aE>
   25d5c:	9819      	ldr	r0, [sp, #100]	@ 0x64
   25d5e:	2802      	cmp	r0, #2
   25d60:	d101      	bne.n	25d66 <_ZN20complex_dynamic_type3app17hbcd5d4564ea8f10aE+0x4a>
   25d62:	991a      	ldr	r1, [sp, #104]	@ 0x68
   25d64:	e001      	b.n	25d6a <_ZN20complex_dynamic_type3app17hbcd5d4564ea8f10aE+0x4e>
   25d66:	a907      	add	r1, sp, #28
   25d68:	700c      	strb	r4, [r1, #0]
   25d6a:	2601      	movs	r6, #1
   25d6c:	2802      	cmp	r0, #2
   25d6e:	d024      	beq.n	25dba <_ZN20complex_dynamic_type3app17hbcd5d4564ea8f10aE+0x9e>
   25d70:	a811      	add	r0, sp, #68	@ 0x44
   25d72:	7800      	ldrb	r0, [r0, #0]
   25d74:	2802      	cmp	r0, #2
   25d76:	4630      	mov	r0, r6
   25d78:	d10e      	bne.n	25d98 <_ZN20complex_dynamic_type3app17hbcd5d4564ea8f10aE+0x7c>
   25d7a:	2503      	movs	r5, #3
   25d7c:	9803      	ldr	r0, [sp, #12]
   25d7e:	9000      	str	r0, [sp, #0]
   25d80:	9501      	str	r5, [sp, #4]
   25d82:	a819      	add	r0, sp, #100	@ 0x64
   25d84:	492f      	ldr	r1, [pc, #188]	@ (25e44 <_ZN20complex_dynamic_type3app17hbcd5d4564ea8f10aE+0x128>)
   25d86:	462a      	mov	r2, r5
   25d88:	9b05      	ldr	r3, [sp, #20]
   25d8a:	f005 fa86 	bl	2b29a <_ZN9allow_pin13dynamic_allow17h8bfd3764c146b81aE>
   25d8e:	9819      	ldr	r0, [sp, #100]	@ 0x64
   25d90:	2802      	cmp	r0, #2
   25d92:	d105      	bne.n	25da0 <_ZN20complex_dynamic_type3app17hbcd5d4564ea8f10aE+0x84>
   25d94:	9d1a      	ldr	r5, [sp, #104]	@ 0x68
   25d96:	4630      	mov	r0, r6
   25d98:	2800      	cmp	r0, #0
   25d9a:	d006      	beq.n	25daa <_ZN20complex_dynamic_type3app17hbcd5d4564ea8f10aE+0x8e>
   25d9c:	4629      	mov	r1, r5
   25d9e:	e00c      	b.n	25dba <_ZN20complex_dynamic_type3app17hbcd5d4564ea8f10aE+0x9e>
   25da0:	a811      	add	r0, sp, #68	@ 0x44
   25da2:	7005      	strb	r5, [r0, #0]
   25da4:	2000      	movs	r0, #0
   25da6:	2800      	cmp	r0, #0
   25da8:	d1f8      	bne.n	25d9c <_ZN20complex_dynamic_type3app17hbcd5d4564ea8f10aE+0x80>
   25daa:	4826      	ldr	r0, [pc, #152]	@ (25e44 <_ZN20complex_dynamic_type3app17hbcd5d4564ea8f10aE+0x128>)
   25dac:	2103      	movs	r1, #3
   25dae:	2400      	movs	r4, #0
   25db0:	460a      	mov	r2, r1
   25db2:	4623      	mov	r3, r4
   25db4:	df02      	svc	2
   25db6:	287f      	cmp	r0, #127	@ 0x7f
   25db8:	d80d      	bhi.n	25dd6 <_ZN20complex_dynamic_type3app17hbcd5d4564ea8f10aE+0xba>
   25dba:	4634      	mov	r4, r6
   25dbc:	2c00      	cmp	r4, #0
   25dbe:	d021      	beq.n	25e04 <_ZN20complex_dynamic_type3app17hbcd5d4564ea8f10aE+0xe8>
   25dc0:	2001      	movs	r0, #1
   25dc2:	9a06      	ldr	r2, [sp, #24]
   25dc4:	7010      	strb	r0, [r2, #0]
   25dc6:	6051      	str	r1, [r2, #4]
   25dc8:	a811      	add	r0, sp, #68	@ 0x44
   25dca:	7802      	ldrb	r2, [r0, #0]
   25dcc:	2a02      	cmp	r2, #2
   25dce:	d02e      	beq.n	25e2e <_ZN20complex_dynamic_type3app17hbcd5d4564ea8f10aE+0x112>
   25dd0:	2103      	movs	r1, #3
   25dd2:	481c      	ldr	r0, [pc, #112]	@ (25e44 <_ZN20complex_dynamic_type3app17hbcd5d4564ea8f10aE+0x128>)
   25dd4:	e029      	b.n	25e2a <_ZN20complex_dynamic_type3app17hbcd5d4564ea8f10aE+0x10e>
   25dd6:	a807      	add	r0, sp, #28
   25dd8:	7802      	ldrb	r2, [r0, #0]
   25dda:	2a02      	cmp	r2, #2
   25ddc:	d003      	beq.n	25de6 <_ZN20complex_dynamic_type3app17hbcd5d4564ea8f10aE+0xca>
   25dde:	2103      	movs	r1, #3
   25de0:	4818      	ldr	r0, [pc, #96]	@ (25e44 <_ZN20complex_dynamic_type3app17hbcd5d4564ea8f10aE+0x128>)
   25de2:	f005 fa4d 	bl	2b280 <_ZN9allow_pin12dynamic_type7unshare17h19052c50f9e150aeE>
   25de6:	a807      	add	r0, sp, #28
   25de8:	9d02      	ldr	r5, [sp, #8]
   25dea:	7005      	strb	r5, [r0, #0]
   25dec:	a811      	add	r0, sp, #68	@ 0x44
   25dee:	7802      	ldrb	r2, [r0, #0]
   25df0:	2a02      	cmp	r2, #2
   25df2:	d003      	beq.n	25dfc <_ZN20complex_dynamic_type3app17hbcd5d4564ea8f10aE+0xe0>
   25df4:	2103      	movs	r1, #3
   25df6:	4813      	ldr	r0, [pc, #76]	@ (25e44 <_ZN20complex_dynamic_type3app17hbcd5d4564ea8f10aE+0x128>)
   25df8:	f005 fa42 	bl	2b280 <_ZN9allow_pin12dynamic_type7unshare17h19052c50f9e150aeE>
   25dfc:	a811      	add	r0, sp, #68	@ 0x44
   25dfe:	7005      	strb	r5, [r0, #0]
   25e00:	2c00      	cmp	r4, #0
   25e02:	d1dd      	bne.n	25dc0 <_ZN20complex_dynamic_type3app17hbcd5d4564ea8f10aE+0xa4>
   25e04:	a811      	add	r0, sp, #68	@ 0x44
   25e06:	7804      	ldrb	r4, [r0, #0]
   25e08:	2c02      	cmp	r4, #2
   25e0a:	d001      	beq.n	25e10 <_ZN20complex_dynamic_type3app17hbcd5d4564ea8f10aE+0xf4>
   25e0c:	480e      	ldr	r0, [pc, #56]	@ (25e48 <_ZN20complex_dynamic_type3app17hbcd5d4564ea8f10aE+0x12c>)
   25e0e:	9005      	str	r0, [sp, #20]
   25e10:	9d06      	ldr	r5, [sp, #24]
   25e12:	1c68      	adds	r0, r5, #1
   25e14:	221e      	movs	r2, #30
   25e16:	9905      	ldr	r1, [sp, #20]
   25e18:	f005 fc17 	bl	2b64a <__aeabi_memcpy>
   25e1c:	2000      	movs	r0, #0
   25e1e:	2c02      	cmp	r4, #2
   25e20:	7028      	strb	r0, [r5, #0]
   25e22:	d004      	beq.n	25e2e <_ZN20complex_dynamic_type3app17hbcd5d4564ea8f10aE+0x112>
   25e24:	2103      	movs	r1, #3
   25e26:	4807      	ldr	r0, [pc, #28]	@ (25e44 <_ZN20complex_dynamic_type3app17hbcd5d4564ea8f10aE+0x128>)
   25e28:	4622      	mov	r2, r4
   25e2a:	f005 fa29 	bl	2b280 <_ZN9allow_pin12dynamic_type7unshare17h19052c50f9e150aeE>
   25e2e:	a807      	add	r0, sp, #28
   25e30:	7802      	ldrb	r2, [r0, #0]
   25e32:	2a02      	cmp	r2, #2
   25e34:	d003      	beq.n	25e3e <_ZN20complex_dynamic_type3app17hbcd5d4564ea8f10aE+0x122>
   25e36:	2103      	movs	r1, #3
   25e38:	4802      	ldr	r0, [pc, #8]	@ (25e44 <_ZN20complex_dynamic_type3app17hbcd5d4564ea8f10aE+0x128>)
   25e3a:	f005 fa21 	bl	2b280 <_ZN9allow_pin12dynamic_type7unshare17h19052c50f9e150aeE>
   25e3e:	b01d      	add	sp, #116	@ 0x74
   25e40:	bdf0      	pop	{r4, r5, r6, r7, pc}
   25e42:	46c0      	nop			@ (mov r8, r8)
   25e44:	000010e2 	.word	0x000010e2
   25e48:	00010185 	.word	0x00010185

00025e4c <_ZN20complex_dynamic_type3app17hbe89ea35b15ae176E>:
   25e4c:	b5f0      	push	{r4, r5, r6, r7, lr}
   25e4e:	af03      	add	r7, sp, #12
   25e50:	b0a1      	sub	sp, #132	@ 0x84
   25e52:	9007      	str	r0, [sp, #28]
   25e54:	a808      	add	r0, sp, #32
   25e56:	2402      	movs	r4, #2
   25e58:	7004      	strb	r4, [r0, #0]
   25e5a:	1c40      	adds	r0, r0, #1
   25e5c:	9005      	str	r0, [sp, #20]
   25e5e:	2518      	movs	r5, #24
   25e60:	462a      	mov	r2, r5
   25e62:	f005 fbf2 	bl	2b64a <__aeabi_memcpy>
   25e66:	ae0f      	add	r6, sp, #60	@ 0x3c
   25e68:	1c70      	adds	r0, r6, #1
   25e6a:	2136      	movs	r1, #54	@ 0x36
   25e6c:	9006      	str	r0, [sp, #24]
   25e6e:	9104      	str	r1, [sp, #16]
   25e70:	f005 fa2b 	bl	2b2ca <__aeabi_memclr>
   25e74:	9403      	str	r4, [sp, #12]
   25e76:	7034      	strb	r4, [r6, #0]
   25e78:	2604      	movs	r6, #4
   25e7a:	9500      	str	r5, [sp, #0]
   25e7c:	9601      	str	r6, [sp, #4]
   25e7e:	a81d      	add	r0, sp, #116	@ 0x74
   25e80:	21f3      	movs	r1, #243	@ 0xf3
   25e82:	2208      	movs	r2, #8
   25e84:	9b05      	ldr	r3, [sp, #20]
   25e86:	f005 fa08 	bl	2b29a <_ZN9allow_pin13dynamic_allow17h8bfd3764c146b81aE>
   25e8a:	981d      	ldr	r0, [sp, #116]	@ 0x74
   25e8c:	2802      	cmp	r0, #2
   25e8e:	d101      	bne.n	25e94 <_ZN20complex_dynamic_type3app17hbe89ea35b15ae176E+0x48>
   25e90:	991e      	ldr	r1, [sp, #120]	@ 0x78
   25e92:	e001      	b.n	25e98 <_ZN20complex_dynamic_type3app17hbe89ea35b15ae176E+0x4c>
   25e94:	a908      	add	r1, sp, #32
   25e96:	700e      	strb	r6, [r1, #0]
   25e98:	2401      	movs	r4, #1
   25e9a:	2802      	cmp	r0, #2
   25e9c:	d024      	beq.n	25ee8 <_ZN20complex_dynamic_type3app17hbe89ea35b15ae176E+0x9c>
   25e9e:	a80f      	add	r0, sp, #60	@ 0x3c
   25ea0:	7800      	ldrb	r0, [r0, #0]
   25ea2:	2802      	cmp	r0, #2
   25ea4:	d10e      	bne.n	25ec4 <_ZN20complex_dynamic_type3app17hbe89ea35b15ae176E+0x78>
   25ea6:	2503      	movs	r5, #3
   25ea8:	9804      	ldr	r0, [sp, #16]
   25eaa:	9000      	str	r0, [sp, #0]
   25eac:	9501      	str	r5, [sp, #4]
   25eae:	a81d      	add	r0, sp, #116	@ 0x74
   25eb0:	21f3      	movs	r1, #243	@ 0xf3
   25eb2:	2204      	movs	r2, #4
   25eb4:	9b06      	ldr	r3, [sp, #24]
   25eb6:	f005 f9f0 	bl	2b29a <_ZN9allow_pin13dynamic_allow17h8bfd3764c146b81aE>
   25eba:	981d      	ldr	r0, [sp, #116]	@ 0x74
   25ebc:	2802      	cmp	r0, #2
   25ebe:	d106      	bne.n	25ece <_ZN20complex_dynamic_type3app17hbe89ea35b15ae176E+0x82>
   25ec0:	991e      	ldr	r1, [sp, #120]	@ 0x78
   25ec2:	e000      	b.n	25ec6 <_ZN20complex_dynamic_type3app17hbe89ea35b15ae176E+0x7a>
   25ec4:	2103      	movs	r1, #3
   25ec6:	4620      	mov	r0, r4
   25ec8:	2800      	cmp	r0, #0
   25eca:	d005      	beq.n	25ed8 <_ZN20complex_dynamic_type3app17hbe89ea35b15ae176E+0x8c>
   25ecc:	e00c      	b.n	25ee8 <_ZN20complex_dynamic_type3app17hbe89ea35b15ae176E+0x9c>
   25ece:	a80f      	add	r0, sp, #60	@ 0x3c
   25ed0:	7005      	strb	r5, [r0, #0]
   25ed2:	2000      	movs	r0, #0
   25ed4:	2800      	cmp	r0, #0
   25ed6:	d107      	bne.n	25ee8 <_ZN20complex_dynamic_type3app17hbe89ea35b15ae176E+0x9c>
   25ed8:	20f3      	movs	r0, #243	@ 0xf3
   25eda:	2108      	movs	r1, #8
   25edc:	2204      	movs	r2, #4
   25ede:	2600      	movs	r6, #0
   25ee0:	4633      	mov	r3, r6
   25ee2:	df02      	svc	2
   25ee4:	287f      	cmp	r0, #127	@ 0x7f
   25ee6:	d80d      	bhi.n	25f04 <_ZN20complex_dynamic_type3app17hbe89ea35b15ae176E+0xb8>
   25ee8:	4626      	mov	r6, r4
   25eea:	2e00      	cmp	r6, #0
   25eec:	d021      	beq.n	25f32 <_ZN20complex_dynamic_type3app17hbe89ea35b15ae176E+0xe6>
   25eee:	2001      	movs	r0, #1
   25ef0:	9a07      	ldr	r2, [sp, #28]
   25ef2:	7010      	strb	r0, [r2, #0]
   25ef4:	6051      	str	r1, [r2, #4]
   25ef6:	a80f      	add	r0, sp, #60	@ 0x3c
   25ef8:	7802      	ldrb	r2, [r0, #0]
   25efa:	2a02      	cmp	r2, #2
   25efc:	d02e      	beq.n	25f5c <_ZN20complex_dynamic_type3app17hbe89ea35b15ae176E+0x110>
   25efe:	20f3      	movs	r0, #243	@ 0xf3
   25f00:	2104      	movs	r1, #4
   25f02:	e029      	b.n	25f58 <_ZN20complex_dynamic_type3app17hbe89ea35b15ae176E+0x10c>
   25f04:	a808      	add	r0, sp, #32
   25f06:	7802      	ldrb	r2, [r0, #0]
   25f08:	2a02      	cmp	r2, #2
   25f0a:	d003      	beq.n	25f14 <_ZN20complex_dynamic_type3app17hbe89ea35b15ae176E+0xc8>
   25f0c:	20f3      	movs	r0, #243	@ 0xf3
   25f0e:	2108      	movs	r1, #8
   25f10:	f005 f9b6 	bl	2b280 <_ZN9allow_pin12dynamic_type7unshare17h19052c50f9e150aeE>
   25f14:	a808      	add	r0, sp, #32
   25f16:	9c03      	ldr	r4, [sp, #12]
   25f18:	7004      	strb	r4, [r0, #0]
   25f1a:	a80f      	add	r0, sp, #60	@ 0x3c
   25f1c:	7802      	ldrb	r2, [r0, #0]
   25f1e:	2a02      	cmp	r2, #2
   25f20:	d003      	beq.n	25f2a <_ZN20complex_dynamic_type3app17hbe89ea35b15ae176E+0xde>
   25f22:	20f3      	movs	r0, #243	@ 0xf3
   25f24:	2104      	movs	r1, #4
   25f26:	f005 f9ab 	bl	2b280 <_ZN9allow_pin12dynamic_type7unshare17h19052c50f9e150aeE>
   25f2a:	a80f      	add	r0, sp, #60	@ 0x3c
   25f2c:	7004      	strb	r4, [r0, #0]
   25f2e:	2e00      	cmp	r6, #0
   25f30:	d1dd      	bne.n	25eee <_ZN20complex_dynamic_type3app17hbe89ea35b15ae176E+0xa2>
   25f32:	a80f      	add	r0, sp, #60	@ 0x3c
   25f34:	7806      	ldrb	r6, [r0, #0]
   25f36:	2e02      	cmp	r6, #2
   25f38:	d001      	beq.n	25f3e <_ZN20complex_dynamic_type3app17hbe89ea35b15ae176E+0xf2>
   25f3a:	480d      	ldr	r0, [pc, #52]	@ (25f70 <_ZN20complex_dynamic_type3app17hbe89ea35b15ae176E+0x124>)
   25f3c:	9006      	str	r0, [sp, #24]
   25f3e:	9c07      	ldr	r4, [sp, #28]
   25f40:	1c60      	adds	r0, r4, #1
   25f42:	2236      	movs	r2, #54	@ 0x36
   25f44:	9906      	ldr	r1, [sp, #24]
   25f46:	f005 fb80 	bl	2b64a <__aeabi_memcpy>
   25f4a:	2000      	movs	r0, #0
   25f4c:	2e02      	cmp	r6, #2
   25f4e:	7020      	strb	r0, [r4, #0]
   25f50:	d004      	beq.n	25f5c <_ZN20complex_dynamic_type3app17hbe89ea35b15ae176E+0x110>
   25f52:	20f3      	movs	r0, #243	@ 0xf3
   25f54:	2104      	movs	r1, #4
   25f56:	4632      	mov	r2, r6
   25f58:	f005 f992 	bl	2b280 <_ZN9allow_pin12dynamic_type7unshare17h19052c50f9e150aeE>
   25f5c:	a808      	add	r0, sp, #32
   25f5e:	7802      	ldrb	r2, [r0, #0]
   25f60:	2a02      	cmp	r2, #2
   25f62:	d003      	beq.n	25f6c <_ZN20complex_dynamic_type3app17hbe89ea35b15ae176E+0x120>
   25f64:	20f3      	movs	r0, #243	@ 0xf3
   25f66:	2108      	movs	r1, #8
   25f68:	f005 f98a 	bl	2b280 <_ZN9allow_pin12dynamic_type7unshare17h19052c50f9e150aeE>
   25f6c:	b021      	add	sp, #132	@ 0x84
   25f6e:	bdf0      	pop	{r4, r5, r6, r7, pc}
   25f70:	0001038e 	.word	0x0001038e

00025f74 <_ZN20complex_dynamic_type3app17hbff0e8e1cb39e66cE>:
   25f74:	b5f0      	push	{r4, r5, r6, r7, lr}
   25f76:	af03      	add	r7, sp, #12
   25f78:	b0a5      	sub	sp, #148	@ 0x94
   25f7a:	9006      	str	r0, [sp, #24]
   25f7c:	a807      	add	r0, sp, #28
   25f7e:	2402      	movs	r4, #2
   25f80:	7004      	strb	r4, [r0, #0]
   25f82:	1c40      	adds	r0, r0, #1
   25f84:	9004      	str	r0, [sp, #16]
   25f86:	2632      	movs	r6, #50	@ 0x32
   25f88:	4632      	mov	r2, r6
   25f8a:	f005 fb5e 	bl	2b64a <__aeabi_memcpy>
   25f8e:	ad14      	add	r5, sp, #80	@ 0x50
   25f90:	1c68      	adds	r0, r5, #1
   25f92:	9005      	str	r0, [sp, #20]
   25f94:	4631      	mov	r1, r6
   25f96:	f005 f998 	bl	2b2ca <__aeabi_memclr>
   25f9a:	9402      	str	r4, [sp, #8]
   25f9c:	702c      	strb	r4, [r5, #0]
   25f9e:	4634      	mov	r4, r6
   25fa0:	2504      	movs	r5, #4
   25fa2:	9600      	str	r6, [sp, #0]
   25fa4:	9501      	str	r5, [sp, #4]
   25fa6:	a821      	add	r0, sp, #132	@ 0x84
   25fa8:	493c      	ldr	r1, [pc, #240]	@ (2609c <_ZN20complex_dynamic_type3app17hbff0e8e1cb39e66cE+0x128>)
   25faa:	2203      	movs	r2, #3
   25fac:	9203      	str	r2, [sp, #12]
   25fae:	9b04      	ldr	r3, [sp, #16]
   25fb0:	f005 f973 	bl	2b29a <_ZN9allow_pin13dynamic_allow17h8bfd3764c146b81aE>
   25fb4:	9821      	ldr	r0, [sp, #132]	@ 0x84
   25fb6:	2802      	cmp	r0, #2
   25fb8:	d101      	bne.n	25fbe <_ZN20complex_dynamic_type3app17hbff0e8e1cb39e66cE+0x4a>
   25fba:	9922      	ldr	r1, [sp, #136]	@ 0x88
   25fbc:	e001      	b.n	25fc2 <_ZN20complex_dynamic_type3app17hbff0e8e1cb39e66cE+0x4e>
   25fbe:	a907      	add	r1, sp, #28
   25fc0:	700d      	strb	r5, [r1, #0]
   25fc2:	2601      	movs	r6, #1
   25fc4:	2802      	cmp	r0, #2
   25fc6:	d024      	beq.n	26012 <_ZN20complex_dynamic_type3app17hbff0e8e1cb39e66cE+0x9e>
   25fc8:	a814      	add	r0, sp, #80	@ 0x50
   25fca:	7800      	ldrb	r0, [r0, #0]
   25fcc:	2802      	cmp	r0, #2
   25fce:	4630      	mov	r0, r6
   25fd0:	d10e      	bne.n	25ff0 <_ZN20complex_dynamic_type3app17hbff0e8e1cb39e66cE+0x7c>
   25fd2:	2503      	movs	r5, #3
   25fd4:	9400      	str	r4, [sp, #0]
   25fd6:	9501      	str	r5, [sp, #4]
   25fd8:	a821      	add	r0, sp, #132	@ 0x84
   25fda:	2201      	movs	r2, #1
   25fdc:	492f      	ldr	r1, [pc, #188]	@ (2609c <_ZN20complex_dynamic_type3app17hbff0e8e1cb39e66cE+0x128>)
   25fde:	9b05      	ldr	r3, [sp, #20]
   25fe0:	f005 f95b 	bl	2b29a <_ZN9allow_pin13dynamic_allow17h8bfd3764c146b81aE>
   25fe4:	9821      	ldr	r0, [sp, #132]	@ 0x84
   25fe6:	2802      	cmp	r0, #2
   25fe8:	d106      	bne.n	25ff8 <_ZN20complex_dynamic_type3app17hbff0e8e1cb39e66cE+0x84>
   25fea:	9822      	ldr	r0, [sp, #136]	@ 0x88
   25fec:	9003      	str	r0, [sp, #12]
   25fee:	4630      	mov	r0, r6
   25ff0:	2800      	cmp	r0, #0
   25ff2:	d006      	beq.n	26002 <_ZN20complex_dynamic_type3app17hbff0e8e1cb39e66cE+0x8e>
   25ff4:	9903      	ldr	r1, [sp, #12]
   25ff6:	e00c      	b.n	26012 <_ZN20complex_dynamic_type3app17hbff0e8e1cb39e66cE+0x9e>
   25ff8:	a814      	add	r0, sp, #80	@ 0x50
   25ffa:	7005      	strb	r5, [r0, #0]
   25ffc:	2000      	movs	r0, #0
   25ffe:	2800      	cmp	r0, #0
   26000:	d1f8      	bne.n	25ff4 <_ZN20complex_dynamic_type3app17hbff0e8e1cb39e66cE+0x80>
   26002:	4826      	ldr	r0, [pc, #152]	@ (2609c <_ZN20complex_dynamic_type3app17hbff0e8e1cb39e66cE+0x128>)
   26004:	2103      	movs	r1, #3
   26006:	2201      	movs	r2, #1
   26008:	2400      	movs	r4, #0
   2600a:	4623      	mov	r3, r4
   2600c:	df02      	svc	2
   2600e:	287f      	cmp	r0, #127	@ 0x7f
   26010:	d80d      	bhi.n	2602e <_ZN20complex_dynamic_type3app17hbff0e8e1cb39e66cE+0xba>
   26012:	4634      	mov	r4, r6
   26014:	2c00      	cmp	r4, #0
   26016:	d021      	beq.n	2605c <_ZN20complex_dynamic_type3app17hbff0e8e1cb39e66cE+0xe8>
   26018:	2001      	movs	r0, #1
   2601a:	9a06      	ldr	r2, [sp, #24]
   2601c:	7010      	strb	r0, [r2, #0]
   2601e:	6051      	str	r1, [r2, #4]
   26020:	a814      	add	r0, sp, #80	@ 0x50
   26022:	7802      	ldrb	r2, [r0, #0]
   26024:	2a02      	cmp	r2, #2
   26026:	d02e      	beq.n	26086 <_ZN20complex_dynamic_type3app17hbff0e8e1cb39e66cE+0x112>
   26028:	2101      	movs	r1, #1
   2602a:	481c      	ldr	r0, [pc, #112]	@ (2609c <_ZN20complex_dynamic_type3app17hbff0e8e1cb39e66cE+0x128>)
   2602c:	e029      	b.n	26082 <_ZN20complex_dynamic_type3app17hbff0e8e1cb39e66cE+0x10e>
   2602e:	a807      	add	r0, sp, #28
   26030:	7802      	ldrb	r2, [r0, #0]
   26032:	2a02      	cmp	r2, #2
   26034:	d003      	beq.n	2603e <_ZN20complex_dynamic_type3app17hbff0e8e1cb39e66cE+0xca>
   26036:	2103      	movs	r1, #3
   26038:	4818      	ldr	r0, [pc, #96]	@ (2609c <_ZN20complex_dynamic_type3app17hbff0e8e1cb39e66cE+0x128>)
   2603a:	f005 f921 	bl	2b280 <_ZN9allow_pin12dynamic_type7unshare17h19052c50f9e150aeE>
   2603e:	a807      	add	r0, sp, #28
   26040:	9d02      	ldr	r5, [sp, #8]
   26042:	7005      	strb	r5, [r0, #0]
   26044:	a814      	add	r0, sp, #80	@ 0x50
   26046:	7802      	ldrb	r2, [r0, #0]
   26048:	2a02      	cmp	r2, #2
   2604a:	d003      	beq.n	26054 <_ZN20complex_dynamic_type3app17hbff0e8e1cb39e66cE+0xe0>
   2604c:	2101      	movs	r1, #1
   2604e:	4813      	ldr	r0, [pc, #76]	@ (2609c <_ZN20complex_dynamic_type3app17hbff0e8e1cb39e66cE+0x128>)
   26050:	f005 f916 	bl	2b280 <_ZN9allow_pin12dynamic_type7unshare17h19052c50f9e150aeE>
   26054:	a814      	add	r0, sp, #80	@ 0x50
   26056:	7005      	strb	r5, [r0, #0]
   26058:	2c00      	cmp	r4, #0
   2605a:	d1dd      	bne.n	26018 <_ZN20complex_dynamic_type3app17hbff0e8e1cb39e66cE+0xa4>
   2605c:	a814      	add	r0, sp, #80	@ 0x50
   2605e:	7804      	ldrb	r4, [r0, #0]
   26060:	2c02      	cmp	r4, #2
   26062:	d001      	beq.n	26068 <_ZN20complex_dynamic_type3app17hbff0e8e1cb39e66cE+0xf4>
   26064:	480e      	ldr	r0, [pc, #56]	@ (260a0 <_ZN20complex_dynamic_type3app17hbff0e8e1cb39e66cE+0x12c>)
   26066:	9005      	str	r0, [sp, #20]
   26068:	9d06      	ldr	r5, [sp, #24]
   2606a:	1c68      	adds	r0, r5, #1
   2606c:	2232      	movs	r2, #50	@ 0x32
   2606e:	9905      	ldr	r1, [sp, #20]
   26070:	f005 faeb 	bl	2b64a <__aeabi_memcpy>
   26074:	2000      	movs	r0, #0
   26076:	2c02      	cmp	r4, #2
   26078:	7028      	strb	r0, [r5, #0]
   2607a:	d004      	beq.n	26086 <_ZN20complex_dynamic_type3app17hbff0e8e1cb39e66cE+0x112>
   2607c:	2101      	movs	r1, #1
   2607e:	4807      	ldr	r0, [pc, #28]	@ (2609c <_ZN20complex_dynamic_type3app17hbff0e8e1cb39e66cE+0x128>)
   26080:	4622      	mov	r2, r4
   26082:	f005 f8fd 	bl	2b280 <_ZN9allow_pin12dynamic_type7unshare17h19052c50f9e150aeE>
   26086:	a807      	add	r0, sp, #28
   26088:	7802      	ldrb	r2, [r0, #0]
   2608a:	2a02      	cmp	r2, #2
   2608c:	d003      	beq.n	26096 <_ZN20complex_dynamic_type3app17hbff0e8e1cb39e66cE+0x122>
   2608e:	2103      	movs	r1, #3
   26090:	4802      	ldr	r0, [pc, #8]	@ (2609c <_ZN20complex_dynamic_type3app17hbff0e8e1cb39e66cE+0x128>)
   26092:	f005 f8f5 	bl	2b280 <_ZN9allow_pin12dynamic_type7unshare17h19052c50f9e150aeE>
   26096:	b025      	add	sp, #148	@ 0x94
   26098:	bdf0      	pop	{r4, r5, r6, r7, pc}
   2609a:	46c0      	nop			@ (mov r8, r8)
   2609c:	00001f07 	.word	0x00001f07
   260a0:	00010867 	.word	0x00010867

000260a4 <_ZN20complex_dynamic_type3app17hc6fda0c46f4c8243E>:
   260a4:	b5f0      	push	{r4, r5, r6, r7, lr}
   260a6:	af03      	add	r7, sp, #12
   260a8:	b0a3      	sub	sp, #140	@ 0x8c
   260aa:	9006      	str	r0, [sp, #24]
   260ac:	a807      	add	r0, sp, #28
   260ae:	2502      	movs	r5, #2
   260b0:	7005      	strb	r5, [r0, #0]
   260b2:	1c40      	adds	r0, r0, #1
   260b4:	9004      	str	r0, [sp, #16]
   260b6:	263f      	movs	r6, #63	@ 0x3f
   260b8:	4632      	mov	r2, r6
   260ba:	f005 fac6 	bl	2b64a <__aeabi_memcpy>
   260be:	ac17      	add	r4, sp, #92	@ 0x5c
   260c0:	1c60      	adds	r0, r4, #1
   260c2:	211c      	movs	r1, #28
   260c4:	9005      	str	r0, [sp, #20]
   260c6:	9103      	str	r1, [sp, #12]
   260c8:	f005 f8ff 	bl	2b2ca <__aeabi_memclr>
   260cc:	9502      	str	r5, [sp, #8]
   260ce:	7025      	strb	r5, [r4, #0]
   260d0:	2404      	movs	r4, #4
   260d2:	9600      	str	r6, [sp, #0]
   260d4:	9401      	str	r4, [sp, #4]
   260d6:	a81f      	add	r0, sp, #124	@ 0x7c
   260d8:	4e3c      	ldr	r6, [pc, #240]	@ (261cc <_ZN20complex_dynamic_type3app17hc6fda0c46f4c8243E+0x128>)
   260da:	2205      	movs	r2, #5
   260dc:	4631      	mov	r1, r6
   260de:	9b04      	ldr	r3, [sp, #16]
   260e0:	f005 f8db 	bl	2b29a <_ZN9allow_pin13dynamic_allow17h8bfd3764c146b81aE>
   260e4:	981f      	ldr	r0, [sp, #124]	@ 0x7c
   260e6:	2802      	cmp	r0, #2
   260e8:	d101      	bne.n	260ee <_ZN20complex_dynamic_type3app17hc6fda0c46f4c8243E+0x4a>
   260ea:	9920      	ldr	r1, [sp, #128]	@ 0x80
   260ec:	e001      	b.n	260f2 <_ZN20complex_dynamic_type3app17hc6fda0c46f4c8243E+0x4e>
   260ee:	a907      	add	r1, sp, #28
   260f0:	700c      	strb	r4, [r1, #0]
   260f2:	2501      	movs	r5, #1
   260f4:	2802      	cmp	r0, #2
   260f6:	d024      	beq.n	26142 <_ZN20complex_dynamic_type3app17hc6fda0c46f4c8243E+0x9e>
   260f8:	a817      	add	r0, sp, #92	@ 0x5c
   260fa:	7800      	ldrb	r0, [r0, #0]
   260fc:	2802      	cmp	r0, #2
   260fe:	d10e      	bne.n	2611e <_ZN20complex_dynamic_type3app17hc6fda0c46f4c8243E+0x7a>
   26100:	2403      	movs	r4, #3
   26102:	9803      	ldr	r0, [sp, #12]
   26104:	9000      	str	r0, [sp, #0]
   26106:	9401      	str	r4, [sp, #4]
   26108:	a81f      	add	r0, sp, #124	@ 0x7c
   2610a:	2209      	movs	r2, #9
   2610c:	4631      	mov	r1, r6
   2610e:	9b05      	ldr	r3, [sp, #20]
   26110:	f005 f8c3 	bl	2b29a <_ZN9allow_pin13dynamic_allow17h8bfd3764c146b81aE>
   26114:	981f      	ldr	r0, [sp, #124]	@ 0x7c
   26116:	2802      	cmp	r0, #2
   26118:	d106      	bne.n	26128 <_ZN20complex_dynamic_type3app17hc6fda0c46f4c8243E+0x84>
   2611a:	9920      	ldr	r1, [sp, #128]	@ 0x80
   2611c:	e000      	b.n	26120 <_ZN20complex_dynamic_type3app17hc6fda0c46f4c8243E+0x7c>
   2611e:	2103      	movs	r1, #3
   26120:	4628      	mov	r0, r5
   26122:	2800      	cmp	r0, #0
   26124:	d005      	beq.n	26132 <_ZN20complex_dynamic_type3app17hc6fda0c46f4c8243E+0x8e>
   26126:	e00c      	b.n	26142 <_ZN20complex_dynamic_type3app17hc6fda0c46f4c8243E+0x9e>
   26128:	a817      	add	r0, sp, #92	@ 0x5c
   2612a:	7004      	strb	r4, [r0, #0]
   2612c:	2000      	movs	r0, #0
   2612e:	2800      	cmp	r0, #0
   26130:	d107      	bne.n	26142 <_ZN20complex_dynamic_type3app17hc6fda0c46f4c8243E+0x9e>
   26132:	4826      	ldr	r0, [pc, #152]	@ (261cc <_ZN20complex_dynamic_type3app17hc6fda0c46f4c8243E+0x128>)
   26134:	2105      	movs	r1, #5
   26136:	2209      	movs	r2, #9
   26138:	2400      	movs	r4, #0
   2613a:	4623      	mov	r3, r4
   2613c:	df02      	svc	2
   2613e:	287f      	cmp	r0, #127	@ 0x7f
   26140:	d80d      	bhi.n	2615e <_ZN20complex_dynamic_type3app17hc6fda0c46f4c8243E+0xba>
   26142:	462c      	mov	r4, r5
   26144:	2c00      	cmp	r4, #0
   26146:	d021      	beq.n	2618c <_ZN20complex_dynamic_type3app17hc6fda0c46f4c8243E+0xe8>
   26148:	2001      	movs	r0, #1
   2614a:	9a06      	ldr	r2, [sp, #24]
   2614c:	7010      	strb	r0, [r2, #0]
   2614e:	6051      	str	r1, [r2, #4]
   26150:	a817      	add	r0, sp, #92	@ 0x5c
   26152:	7802      	ldrb	r2, [r0, #0]
   26154:	2a02      	cmp	r2, #2
   26156:	d02e      	beq.n	261b6 <_ZN20complex_dynamic_type3app17hc6fda0c46f4c8243E+0x112>
   26158:	2109      	movs	r1, #9
   2615a:	4630      	mov	r0, r6
   2615c:	e029      	b.n	261b2 <_ZN20complex_dynamic_type3app17hc6fda0c46f4c8243E+0x10e>
   2615e:	a807      	add	r0, sp, #28
   26160:	7802      	ldrb	r2, [r0, #0]
   26162:	2a02      	cmp	r2, #2
   26164:	d003      	beq.n	2616e <_ZN20complex_dynamic_type3app17hc6fda0c46f4c8243E+0xca>
   26166:	2105      	movs	r1, #5
   26168:	4630      	mov	r0, r6
   2616a:	f005 f889 	bl	2b280 <_ZN9allow_pin12dynamic_type7unshare17h19052c50f9e150aeE>
   2616e:	a807      	add	r0, sp, #28
   26170:	9d02      	ldr	r5, [sp, #8]
   26172:	7005      	strb	r5, [r0, #0]
   26174:	a817      	add	r0, sp, #92	@ 0x5c
   26176:	7802      	ldrb	r2, [r0, #0]
   26178:	2a02      	cmp	r2, #2
   2617a:	d003      	beq.n	26184 <_ZN20complex_dynamic_type3app17hc6fda0c46f4c8243E+0xe0>
   2617c:	2109      	movs	r1, #9
   2617e:	4630      	mov	r0, r6
   26180:	f005 f87e 	bl	2b280 <_ZN9allow_pin12dynamic_type7unshare17h19052c50f9e150aeE>
   26184:	a817      	add	r0, sp, #92	@ 0x5c
   26186:	7005      	strb	r5, [r0, #0]
   26188:	2c00      	cmp	r4, #0
   2618a:	d1dd      	bne.n	26148 <_ZN20complex_dynamic_type3app17hc6fda0c46f4c8243E+0xa4>
   2618c:	a817      	add	r0, sp, #92	@ 0x5c
   2618e:	7804      	ldrb	r4, [r0, #0]
   26190:	2c02      	cmp	r4, #2
   26192:	d001      	beq.n	26198 <_ZN20complex_dynamic_type3app17hc6fda0c46f4c8243E+0xf4>
   26194:	480e      	ldr	r0, [pc, #56]	@ (261d0 <_ZN20complex_dynamic_type3app17hc6fda0c46f4c8243E+0x12c>)
   26196:	9005      	str	r0, [sp, #20]
   26198:	9d06      	ldr	r5, [sp, #24]
   2619a:	1c68      	adds	r0, r5, #1
   2619c:	221c      	movs	r2, #28
   2619e:	9905      	ldr	r1, [sp, #20]
   261a0:	f005 fa53 	bl	2b64a <__aeabi_memcpy>
   261a4:	2000      	movs	r0, #0
   261a6:	2c02      	cmp	r4, #2
   261a8:	7028      	strb	r0, [r5, #0]
   261aa:	d004      	beq.n	261b6 <_ZN20complex_dynamic_type3app17hc6fda0c46f4c8243E+0x112>
   261ac:	2109      	movs	r1, #9
   261ae:	4630      	mov	r0, r6
   261b0:	4622      	mov	r2, r4
   261b2:	f005 f865 	bl	2b280 <_ZN9allow_pin12dynamic_type7unshare17h19052c50f9e150aeE>
   261b6:	a807      	add	r0, sp, #28
   261b8:	7802      	ldrb	r2, [r0, #0]
   261ba:	2a02      	cmp	r2, #2
   261bc:	d003      	beq.n	261c6 <_ZN20complex_dynamic_type3app17hc6fda0c46f4c8243E+0x122>
   261be:	2105      	movs	r1, #5
   261c0:	4630      	mov	r0, r6
   261c2:	f005 f85d 	bl	2b280 <_ZN9allow_pin12dynamic_type7unshare17h19052c50f9e150aeE>
   261c6:	b023      	add	sp, #140	@ 0x8c
   261c8:	bdf0      	pop	{r4, r5, r6, r7, pc}
   261ca:	46c0      	nop			@ (mov r8, r8)
   261cc:	00001694 	.word	0x00001694
   261d0:	00010bfb 	.word	0x00010bfb

000261d4 <_ZN20complex_dynamic_type3app17hd1764c7217dc943cE>:
   261d4:	b5f0      	push	{r4, r5, r6, r7, lr}
   261d6:	af03      	add	r7, sp, #12
   261d8:	b0b5      	sub	sp, #212	@ 0xd4
   261da:	9007      	str	r0, [sp, #28]
   261dc:	a808      	add	r0, sp, #32
   261de:	2502      	movs	r5, #2
   261e0:	7005      	strb	r5, [r0, #0]
   261e2:	1c40      	adds	r0, r0, #1
   261e4:	9005      	str	r0, [sp, #20]
   261e6:	2656      	movs	r6, #86	@ 0x56
   261e8:	4632      	mov	r2, r6
   261ea:	f005 fa2e 	bl	2b64a <__aeabi_memcpy>
   261ee:	ac1e      	add	r4, sp, #120	@ 0x78
   261f0:	1c60      	adds	r0, r4, #1
   261f2:	2149      	movs	r1, #73	@ 0x49
   261f4:	9006      	str	r0, [sp, #24]
   261f6:	9104      	str	r1, [sp, #16]
   261f8:	f005 f867 	bl	2b2ca <__aeabi_memclr>
   261fc:	9503      	str	r5, [sp, #12]
   261fe:	7025      	strb	r5, [r4, #0]
   26200:	2404      	movs	r4, #4
   26202:	9600      	str	r6, [sp, #0]
   26204:	9401      	str	r4, [sp, #4]
   26206:	a831      	add	r0, sp, #196	@ 0xc4
   26208:	4e3c      	ldr	r6, [pc, #240]	@ (262fc <_ZN20complex_dynamic_type3app17hd1764c7217dc943cE+0x128>)
   2620a:	2206      	movs	r2, #6
   2620c:	4631      	mov	r1, r6
   2620e:	9b05      	ldr	r3, [sp, #20]
   26210:	f005 f843 	bl	2b29a <_ZN9allow_pin13dynamic_allow17h8bfd3764c146b81aE>
   26214:	9831      	ldr	r0, [sp, #196]	@ 0xc4
   26216:	2802      	cmp	r0, #2
   26218:	d101      	bne.n	2621e <_ZN20complex_dynamic_type3app17hd1764c7217dc943cE+0x4a>
   2621a:	9932      	ldr	r1, [sp, #200]	@ 0xc8
   2621c:	e001      	b.n	26222 <_ZN20complex_dynamic_type3app17hd1764c7217dc943cE+0x4e>
   2621e:	a908      	add	r1, sp, #32
   26220:	700c      	strb	r4, [r1, #0]
   26222:	2501      	movs	r5, #1
   26224:	2802      	cmp	r0, #2
   26226:	d024      	beq.n	26272 <_ZN20complex_dynamic_type3app17hd1764c7217dc943cE+0x9e>
   26228:	a81e      	add	r0, sp, #120	@ 0x78
   2622a:	7800      	ldrb	r0, [r0, #0]
   2622c:	2802      	cmp	r0, #2
   2622e:	d10e      	bne.n	2624e <_ZN20complex_dynamic_type3app17hd1764c7217dc943cE+0x7a>
   26230:	2403      	movs	r4, #3
   26232:	9804      	ldr	r0, [sp, #16]
   26234:	9000      	str	r0, [sp, #0]
   26236:	9401      	str	r4, [sp, #4]
   26238:	a831      	add	r0, sp, #196	@ 0xc4
   2623a:	2206      	movs	r2, #6
   2623c:	4631      	mov	r1, r6
   2623e:	9b06      	ldr	r3, [sp, #24]
   26240:	f005 f82b 	bl	2b29a <_ZN9allow_pin13dynamic_allow17h8bfd3764c146b81aE>
   26244:	9831      	ldr	r0, [sp, #196]	@ 0xc4
   26246:	2802      	cmp	r0, #2
   26248:	d106      	bne.n	26258 <_ZN20complex_dynamic_type3app17hd1764c7217dc943cE+0x84>
   2624a:	9932      	ldr	r1, [sp, #200]	@ 0xc8
   2624c:	e000      	b.n	26250 <_ZN20complex_dynamic_type3app17hd1764c7217dc943cE+0x7c>
   2624e:	2103      	movs	r1, #3
   26250:	4628      	mov	r0, r5
   26252:	2800      	cmp	r0, #0
   26254:	d005      	beq.n	26262 <_ZN20complex_dynamic_type3app17hd1764c7217dc943cE+0x8e>
   26256:	e00c      	b.n	26272 <_ZN20complex_dynamic_type3app17hd1764c7217dc943cE+0x9e>
   26258:	a81e      	add	r0, sp, #120	@ 0x78
   2625a:	7004      	strb	r4, [r0, #0]
   2625c:	2000      	movs	r0, #0
   2625e:	2800      	cmp	r0, #0
   26260:	d107      	bne.n	26272 <_ZN20complex_dynamic_type3app17hd1764c7217dc943cE+0x9e>
   26262:	4826      	ldr	r0, [pc, #152]	@ (262fc <_ZN20complex_dynamic_type3app17hd1764c7217dc943cE+0x128>)
   26264:	2106      	movs	r1, #6
   26266:	2400      	movs	r4, #0
   26268:	460a      	mov	r2, r1
   2626a:	4623      	mov	r3, r4
   2626c:	df02      	svc	2
   2626e:	287f      	cmp	r0, #127	@ 0x7f
   26270:	d80d      	bhi.n	2628e <_ZN20complex_dynamic_type3app17hd1764c7217dc943cE+0xba>
   26272:	462c      	mov	r4, r5
   26274:	2c00      	cmp	r4, #0
   26276:	d021      	beq.n	262bc <_ZN20complex_dynamic_type3app17hd1764c7217dc943cE+0xe8>
   26278:	2001      	movs	r0, #1
   2627a:	9a07      	ldr	r2, [sp, #28]
   2627c:	7010      	strb	r0, [r2, #0]
   2627e:	6051      	str	r1, [r2, #4]
   26280:	a81e      	add	r0, sp, #120	@ 0x78
   26282:	7802      	ldrb	r2, [r0, #0]
   26284:	2a02      	cmp	r2, #2
   26286:	d02e      	beq.n	262e6 <_ZN20complex_dynamic_type3app17hd1764c7217dc943cE+0x112>
   26288:	2106      	movs	r1, #6
   2628a:	4630      	mov	r0, r6
   2628c:	e029      	b.n	262e2 <_ZN20complex_dynamic_type3app17hd1764c7217dc943cE+0x10e>
   2628e:	a808      	add	r0, sp, #32
   26290:	7802      	ldrb	r2, [r0, #0]
   26292:	2a02      	cmp	r2, #2
   26294:	d003      	beq.n	2629e <_ZN20complex_dynamic_type3app17hd1764c7217dc943cE+0xca>
   26296:	2106      	movs	r1, #6
   26298:	4630      	mov	r0, r6
   2629a:	f004 fff1 	bl	2b280 <_ZN9allow_pin12dynamic_type7unshare17h19052c50f9e150aeE>
   2629e:	a808      	add	r0, sp, #32
   262a0:	9d03      	ldr	r5, [sp, #12]
   262a2:	7005      	strb	r5, [r0, #0]
   262a4:	a81e      	add	r0, sp, #120	@ 0x78
   262a6:	7802      	ldrb	r2, [r0, #0]
   262a8:	2a02      	cmp	r2, #2
   262aa:	d003      	beq.n	262b4 <_ZN20complex_dynamic_type3app17hd1764c7217dc943cE+0xe0>
   262ac:	2106      	movs	r1, #6
   262ae:	4630      	mov	r0, r6
   262b0:	f004 ffe6 	bl	2b280 <_ZN9allow_pin12dynamic_type7unshare17h19052c50f9e150aeE>
   262b4:	a81e      	add	r0, sp, #120	@ 0x78
   262b6:	7005      	strb	r5, [r0, #0]
   262b8:	2c00      	cmp	r4, #0
   262ba:	d1dd      	bne.n	26278 <_ZN20complex_dynamic_type3app17hd1764c7217dc943cE+0xa4>
   262bc:	a81e      	add	r0, sp, #120	@ 0x78
   262be:	7804      	ldrb	r4, [r0, #0]
   262c0:	2c02      	cmp	r4, #2
   262c2:	d001      	beq.n	262c8 <_ZN20complex_dynamic_type3app17hd1764c7217dc943cE+0xf4>
   262c4:	480e      	ldr	r0, [pc, #56]	@ (26300 <_ZN20complex_dynamic_type3app17hd1764c7217dc943cE+0x12c>)
   262c6:	9006      	str	r0, [sp, #24]
   262c8:	9d07      	ldr	r5, [sp, #28]
   262ca:	1c68      	adds	r0, r5, #1
   262cc:	2249      	movs	r2, #73	@ 0x49
   262ce:	9906      	ldr	r1, [sp, #24]
   262d0:	f005 f9bb 	bl	2b64a <__aeabi_memcpy>
   262d4:	2000      	movs	r0, #0
   262d6:	2c02      	cmp	r4, #2
   262d8:	7028      	strb	r0, [r5, #0]
   262da:	d004      	beq.n	262e6 <_ZN20complex_dynamic_type3app17hd1764c7217dc943cE+0x112>
   262dc:	2106      	movs	r1, #6
   262de:	4630      	mov	r0, r6
   262e0:	4622      	mov	r2, r4
   262e2:	f004 ffcd 	bl	2b280 <_ZN9allow_pin12dynamic_type7unshare17h19052c50f9e150aeE>
   262e6:	a808      	add	r0, sp, #32
   262e8:	7802      	ldrb	r2, [r0, #0]
   262ea:	2a02      	cmp	r2, #2
   262ec:	d003      	beq.n	262f6 <_ZN20complex_dynamic_type3app17hd1764c7217dc943cE+0x122>
   262ee:	2106      	movs	r1, #6
   262f0:	4630      	mov	r0, r6
   262f2:	f004 ffc5 	bl	2b280 <_ZN9allow_pin12dynamic_type7unshare17h19052c50f9e150aeE>
   262f6:	b035      	add	sp, #212	@ 0xd4
   262f8:	bdf0      	pop	{r4, r5, r6, r7, pc}
   262fa:	46c0      	nop			@ (mov r8, r8)
   262fc:	00001c6b 	.word	0x00001c6b
   26300:	00010728 	.word	0x00010728

00026304 <_ZN20complex_dynamic_type3app17hd2308e003146416bE>:
   26304:	b5f0      	push	{r4, r5, r6, r7, lr}
   26306:	af03      	add	r7, sp, #12
   26308:	b0b5      	sub	sp, #212	@ 0xd4
   2630a:	9007      	str	r0, [sp, #28]
   2630c:	a808      	add	r0, sp, #32
   2630e:	2502      	movs	r5, #2
   26310:	7005      	strb	r5, [r0, #0]
   26312:	1c40      	adds	r0, r0, #1
   26314:	9005      	str	r0, [sp, #20]
   26316:	265d      	movs	r6, #93	@ 0x5d
   26318:	4632      	mov	r2, r6
   2631a:	f005 f996 	bl	2b64a <__aeabi_memcpy>
   2631e:	ac20      	add	r4, sp, #128	@ 0x80
   26320:	1c60      	adds	r0, r4, #1
   26322:	2140      	movs	r1, #64	@ 0x40
   26324:	9006      	str	r0, [sp, #24]
   26326:	9104      	str	r1, [sp, #16]
   26328:	f004 ffcf 	bl	2b2ca <__aeabi_memclr>
   2632c:	9503      	str	r5, [sp, #12]
   2632e:	7025      	strb	r5, [r4, #0]
   26330:	2404      	movs	r4, #4
   26332:	9600      	str	r6, [sp, #0]
   26334:	9401      	str	r4, [sp, #4]
   26336:	a831      	add	r0, sp, #196	@ 0xc4
   26338:	4e3c      	ldr	r6, [pc, #240]	@ (2642c <_ZN20complex_dynamic_type3app17hd2308e003146416bE+0x128>)
   2633a:	2208      	movs	r2, #8
   2633c:	4631      	mov	r1, r6
   2633e:	9b05      	ldr	r3, [sp, #20]
   26340:	f004 ffab 	bl	2b29a <_ZN9allow_pin13dynamic_allow17h8bfd3764c146b81aE>
   26344:	9831      	ldr	r0, [sp, #196]	@ 0xc4
   26346:	2802      	cmp	r0, #2
   26348:	d101      	bne.n	2634e <_ZN20complex_dynamic_type3app17hd2308e003146416bE+0x4a>
   2634a:	9932      	ldr	r1, [sp, #200]	@ 0xc8
   2634c:	e001      	b.n	26352 <_ZN20complex_dynamic_type3app17hd2308e003146416bE+0x4e>
   2634e:	a908      	add	r1, sp, #32
   26350:	700c      	strb	r4, [r1, #0]
   26352:	2501      	movs	r5, #1
   26354:	2802      	cmp	r0, #2
   26356:	d024      	beq.n	263a2 <_ZN20complex_dynamic_type3app17hd2308e003146416bE+0x9e>
   26358:	a820      	add	r0, sp, #128	@ 0x80
   2635a:	7800      	ldrb	r0, [r0, #0]
   2635c:	2802      	cmp	r0, #2
   2635e:	d10e      	bne.n	2637e <_ZN20complex_dynamic_type3app17hd2308e003146416bE+0x7a>
   26360:	2403      	movs	r4, #3
   26362:	9804      	ldr	r0, [sp, #16]
   26364:	9000      	str	r0, [sp, #0]
   26366:	9401      	str	r4, [sp, #4]
   26368:	a831      	add	r0, sp, #196	@ 0xc4
   2636a:	2204      	movs	r2, #4
   2636c:	4631      	mov	r1, r6
   2636e:	9b06      	ldr	r3, [sp, #24]
   26370:	f004 ff93 	bl	2b29a <_ZN9allow_pin13dynamic_allow17h8bfd3764c146b81aE>
   26374:	9831      	ldr	r0, [sp, #196]	@ 0xc4
   26376:	2802      	cmp	r0, #2
   26378:	d106      	bne.n	26388 <_ZN20complex_dynamic_type3app17hd2308e003146416bE+0x84>
   2637a:	9932      	ldr	r1, [sp, #200]	@ 0xc8
   2637c:	e000      	b.n	26380 <_ZN20complex_dynamic_type3app17hd2308e003146416bE+0x7c>
   2637e:	2103      	movs	r1, #3
   26380:	4628      	mov	r0, r5
   26382:	2800      	cmp	r0, #0
   26384:	d005      	beq.n	26392 <_ZN20complex_dynamic_type3app17hd2308e003146416bE+0x8e>
   26386:	e00c      	b.n	263a2 <_ZN20complex_dynamic_type3app17hd2308e003146416bE+0x9e>
   26388:	a820      	add	r0, sp, #128	@ 0x80
   2638a:	7004      	strb	r4, [r0, #0]
   2638c:	2000      	movs	r0, #0
   2638e:	2800      	cmp	r0, #0
   26390:	d107      	bne.n	263a2 <_ZN20complex_dynamic_type3app17hd2308e003146416bE+0x9e>
   26392:	4826      	ldr	r0, [pc, #152]	@ (2642c <_ZN20complex_dynamic_type3app17hd2308e003146416bE+0x128>)
   26394:	2108      	movs	r1, #8
   26396:	2204      	movs	r2, #4
   26398:	2400      	movs	r4, #0
   2639a:	4623      	mov	r3, r4
   2639c:	df02      	svc	2
   2639e:	287f      	cmp	r0, #127	@ 0x7f
   263a0:	d80d      	bhi.n	263be <_ZN20complex_dynamic_type3app17hd2308e003146416bE+0xba>
   263a2:	462c      	mov	r4, r5
   263a4:	2c00      	cmp	r4, #0
   263a6:	d021      	beq.n	263ec <_ZN20complex_dynamic_type3app17hd2308e003146416bE+0xe8>
   263a8:	2001      	movs	r0, #1
   263aa:	9a07      	ldr	r2, [sp, #28]
   263ac:	7010      	strb	r0, [r2, #0]
   263ae:	6051      	str	r1, [r2, #4]
   263b0:	a820      	add	r0, sp, #128	@ 0x80
   263b2:	7802      	ldrb	r2, [r0, #0]
   263b4:	2a02      	cmp	r2, #2
   263b6:	d02e      	beq.n	26416 <_ZN20complex_dynamic_type3app17hd2308e003146416bE+0x112>
   263b8:	2104      	movs	r1, #4
   263ba:	4630      	mov	r0, r6
   263bc:	e029      	b.n	26412 <_ZN20complex_dynamic_type3app17hd2308e003146416bE+0x10e>
   263be:	a808      	add	r0, sp, #32
   263c0:	7802      	ldrb	r2, [r0, #0]
   263c2:	2a02      	cmp	r2, #2
   263c4:	d003      	beq.n	263ce <_ZN20complex_dynamic_type3app17hd2308e003146416bE+0xca>
   263c6:	2108      	movs	r1, #8
   263c8:	4630      	mov	r0, r6
   263ca:	f004 ff59 	bl	2b280 <_ZN9allow_pin12dynamic_type7unshare17h19052c50f9e150aeE>
   263ce:	a808      	add	r0, sp, #32
   263d0:	9d03      	ldr	r5, [sp, #12]
   263d2:	7005      	strb	r5, [r0, #0]
   263d4:	a820      	add	r0, sp, #128	@ 0x80
   263d6:	7802      	ldrb	r2, [r0, #0]
   263d8:	2a02      	cmp	r2, #2
   263da:	d003      	beq.n	263e4 <_ZN20complex_dynamic_type3app17hd2308e003146416bE+0xe0>
   263dc:	2104      	movs	r1, #4
   263de:	4630      	mov	r0, r6
   263e0:	f004 ff4e 	bl	2b280 <_ZN9allow_pin12dynamic_type7unshare17h19052c50f9e150aeE>
   263e4:	a820      	add	r0, sp, #128	@ 0x80
   263e6:	7005      	strb	r5, [r0, #0]
   263e8:	2c00      	cmp	r4, #0
   263ea:	d1dd      	bne.n	263a8 <_ZN20complex_dynamic_type3app17hd2308e003146416bE+0xa4>
   263ec:	a820      	add	r0, sp, #128	@ 0x80
   263ee:	7804      	ldrb	r4, [r0, #0]
   263f0:	2c02      	cmp	r4, #2
   263f2:	d001      	beq.n	263f8 <_ZN20complex_dynamic_type3app17hd2308e003146416bE+0xf4>
   263f4:	480e      	ldr	r0, [pc, #56]	@ (26430 <_ZN20complex_dynamic_type3app17hd2308e003146416bE+0x12c>)
   263f6:	9006      	str	r0, [sp, #24]
   263f8:	9d07      	ldr	r5, [sp, #28]
   263fa:	1c68      	adds	r0, r5, #1
   263fc:	2240      	movs	r2, #64	@ 0x40
   263fe:	9906      	ldr	r1, [sp, #24]
   26400:	f005 f923 	bl	2b64a <__aeabi_memcpy>
   26404:	2000      	movs	r0, #0
   26406:	2c02      	cmp	r4, #2
   26408:	7028      	strb	r0, [r5, #0]
   2640a:	d004      	beq.n	26416 <_ZN20complex_dynamic_type3app17hd2308e003146416bE+0x112>
   2640c:	2104      	movs	r1, #4
   2640e:	4630      	mov	r0, r6
   26410:	4622      	mov	r2, r4
   26412:	f004 ff35 	bl	2b280 <_ZN9allow_pin12dynamic_type7unshare17h19052c50f9e150aeE>
   26416:	a808      	add	r0, sp, #32
   26418:	7802      	ldrb	r2, [r0, #0]
   2641a:	2a02      	cmp	r2, #2
   2641c:	d003      	beq.n	26426 <_ZN20complex_dynamic_type3app17hd2308e003146416bE+0x122>
   2641e:	2108      	movs	r1, #8
   26420:	4630      	mov	r0, r6
   26422:	f004 ff2d 	bl	2b280 <_ZN9allow_pin12dynamic_type7unshare17h19052c50f9e150aeE>
   26426:	b035      	add	sp, #212	@ 0xd4
   26428:	bdf0      	pop	{r4, r5, r6, r7, pc}
   2642a:	46c0      	nop			@ (mov r8, r8)
   2642c:	00001028 	.word	0x00001028
   26430:	00010b7c 	.word	0x00010b7c

00026434 <_ZN20complex_dynamic_type3app17hd49d8ea07a2f4ecfE>:
   26434:	b5f0      	push	{r4, r5, r6, r7, lr}
   26436:	af03      	add	r7, sp, #12
   26438:	b0a1      	sub	sp, #132	@ 0x84
   2643a:	9005      	str	r0, [sp, #20]
   2643c:	a806      	add	r0, sp, #24
   2643e:	2502      	movs	r5, #2
   26440:	7005      	strb	r5, [r0, #0]
   26442:	1c40      	adds	r0, r0, #1
   26444:	9003      	str	r0, [sp, #12]
   26446:	2412      	movs	r4, #18
   26448:	4622      	mov	r2, r4
   2644a:	f005 f8fe 	bl	2b64a <__aeabi_memcpy>
   2644e:	ae0b      	add	r6, sp, #44	@ 0x2c
   26450:	1c70      	adds	r0, r6, #1
   26452:	2144      	movs	r1, #68	@ 0x44
   26454:	9004      	str	r0, [sp, #16]
   26456:	9102      	str	r1, [sp, #8]
   26458:	f004 ff37 	bl	2b2ca <__aeabi_memclr>
   2645c:	7035      	strb	r5, [r6, #0]
   2645e:	2004      	movs	r0, #4
   26460:	9400      	str	r4, [sp, #0]
   26462:	4604      	mov	r4, r0
   26464:	9001      	str	r0, [sp, #4]
   26466:	a81d      	add	r0, sp, #116	@ 0x74
   26468:	4e3d      	ldr	r6, [pc, #244]	@ (26560 <_ZN20complex_dynamic_type3app17hd49d8ea07a2f4ecfE+0x12c>)
   2646a:	4631      	mov	r1, r6
   2646c:	462a      	mov	r2, r5
   2646e:	9b03      	ldr	r3, [sp, #12]
   26470:	f004 ff13 	bl	2b29a <_ZN9allow_pin13dynamic_allow17h8bfd3764c146b81aE>
   26474:	981d      	ldr	r0, [sp, #116]	@ 0x74
   26476:	2802      	cmp	r0, #2
   26478:	d101      	bne.n	2647e <_ZN20complex_dynamic_type3app17hd49d8ea07a2f4ecfE+0x4a>
   2647a:	991e      	ldr	r1, [sp, #120]	@ 0x78
   2647c:	e001      	b.n	26482 <_ZN20complex_dynamic_type3app17hd49d8ea07a2f4ecfE+0x4e>
   2647e:	a906      	add	r1, sp, #24
   26480:	700c      	strb	r4, [r1, #0]
   26482:	2501      	movs	r5, #1
   26484:	2802      	cmp	r0, #2
   26486:	d016      	beq.n	264b6 <_ZN20complex_dynamic_type3app17hd49d8ea07a2f4ecfE+0x82>
   26488:	a80b      	add	r0, sp, #44	@ 0x2c
   2648a:	7800      	ldrb	r0, [r0, #0]
   2648c:	2802      	cmp	r0, #2
   2648e:	d10e      	bne.n	264ae <_ZN20complex_dynamic_type3app17hd49d8ea07a2f4ecfE+0x7a>
   26490:	2403      	movs	r4, #3
   26492:	9802      	ldr	r0, [sp, #8]
   26494:	9000      	str	r0, [sp, #0]
   26496:	9401      	str	r4, [sp, #4]
   26498:	a81d      	add	r0, sp, #116	@ 0x74
   2649a:	2209      	movs	r2, #9
   2649c:	4631      	mov	r1, r6
   2649e:	9b04      	ldr	r3, [sp, #16]
   264a0:	f004 fefb 	bl	2b29a <_ZN9allow_pin13dynamic_allow17h8bfd3764c146b81aE>
   264a4:	981d      	ldr	r0, [sp, #116]	@ 0x74
   264a6:	2802      	cmp	r0, #2
   264a8:	d113      	bne.n	264d2 <_ZN20complex_dynamic_type3app17hd49d8ea07a2f4ecfE+0x9e>
   264aa:	991e      	ldr	r1, [sp, #120]	@ 0x78
   264ac:	e000      	b.n	264b0 <_ZN20complex_dynamic_type3app17hd49d8ea07a2f4ecfE+0x7c>
   264ae:	2103      	movs	r1, #3
   264b0:	4628      	mov	r0, r5
   264b2:	2800      	cmp	r0, #0
   264b4:	d012      	beq.n	264dc <_ZN20complex_dynamic_type3app17hd49d8ea07a2f4ecfE+0xa8>
   264b6:	462c      	mov	r4, r5
   264b8:	2c00      	cmp	r4, #0
   264ba:	d031      	beq.n	26520 <_ZN20complex_dynamic_type3app17hd49d8ea07a2f4ecfE+0xec>
   264bc:	2001      	movs	r0, #1
   264be:	9a05      	ldr	r2, [sp, #20]
   264c0:	7010      	strb	r0, [r2, #0]
   264c2:	6051      	str	r1, [r2, #4]
   264c4:	a80b      	add	r0, sp, #44	@ 0x2c
   264c6:	7802      	ldrb	r2, [r0, #0]
   264c8:	2a02      	cmp	r2, #2
   264ca:	d03e      	beq.n	2654a <_ZN20complex_dynamic_type3app17hd49d8ea07a2f4ecfE+0x116>
   264cc:	2109      	movs	r1, #9
   264ce:	4630      	mov	r0, r6
   264d0:	e039      	b.n	26546 <_ZN20complex_dynamic_type3app17hd49d8ea07a2f4ecfE+0x112>
   264d2:	a80b      	add	r0, sp, #44	@ 0x2c
   264d4:	7004      	strb	r4, [r0, #0]
   264d6:	2000      	movs	r0, #0
   264d8:	2800      	cmp	r0, #0
   264da:	d1ec      	bne.n	264b6 <_ZN20complex_dynamic_type3app17hd49d8ea07a2f4ecfE+0x82>
   264dc:	4820      	ldr	r0, [pc, #128]	@ (26560 <_ZN20complex_dynamic_type3app17hd49d8ea07a2f4ecfE+0x12c>)
   264de:	2102      	movs	r1, #2
   264e0:	2209      	movs	r2, #9
   264e2:	2400      	movs	r4, #0
   264e4:	460e      	mov	r6, r1
   264e6:	4623      	mov	r3, r4
   264e8:	df02      	svc	2
   264ea:	287f      	cmp	r0, #127	@ 0x7f
   264ec:	d801      	bhi.n	264f2 <_ZN20complex_dynamic_type3app17hd49d8ea07a2f4ecfE+0xbe>
   264ee:	462c      	mov	r4, r5
   264f0:	e013      	b.n	2651a <_ZN20complex_dynamic_type3app17hd49d8ea07a2f4ecfE+0xe6>
   264f2:	a806      	add	r0, sp, #24
   264f4:	7802      	ldrb	r2, [r0, #0]
   264f6:	2a02      	cmp	r2, #2
   264f8:	d003      	beq.n	26502 <_ZN20complex_dynamic_type3app17hd49d8ea07a2f4ecfE+0xce>
   264fa:	2102      	movs	r1, #2
   264fc:	4818      	ldr	r0, [pc, #96]	@ (26560 <_ZN20complex_dynamic_type3app17hd49d8ea07a2f4ecfE+0x12c>)
   264fe:	f004 febf 	bl	2b280 <_ZN9allow_pin12dynamic_type7unshare17h19052c50f9e150aeE>
   26502:	a806      	add	r0, sp, #24
   26504:	7006      	strb	r6, [r0, #0]
   26506:	a80b      	add	r0, sp, #44	@ 0x2c
   26508:	7802      	ldrb	r2, [r0, #0]
   2650a:	2a02      	cmp	r2, #2
   2650c:	d003      	beq.n	26516 <_ZN20complex_dynamic_type3app17hd49d8ea07a2f4ecfE+0xe2>
   2650e:	2109      	movs	r1, #9
   26510:	4813      	ldr	r0, [pc, #76]	@ (26560 <_ZN20complex_dynamic_type3app17hd49d8ea07a2f4ecfE+0x12c>)
   26512:	f004 feb5 	bl	2b280 <_ZN9allow_pin12dynamic_type7unshare17h19052c50f9e150aeE>
   26516:	a80b      	add	r0, sp, #44	@ 0x2c
   26518:	7006      	strb	r6, [r0, #0]
   2651a:	4e11      	ldr	r6, [pc, #68]	@ (26560 <_ZN20complex_dynamic_type3app17hd49d8ea07a2f4ecfE+0x12c>)
   2651c:	2c00      	cmp	r4, #0
   2651e:	d1cd      	bne.n	264bc <_ZN20complex_dynamic_type3app17hd49d8ea07a2f4ecfE+0x88>
   26520:	a80b      	add	r0, sp, #44	@ 0x2c
   26522:	7804      	ldrb	r4, [r0, #0]
   26524:	2c02      	cmp	r4, #2
   26526:	d001      	beq.n	2652c <_ZN20complex_dynamic_type3app17hd49d8ea07a2f4ecfE+0xf8>
   26528:	480e      	ldr	r0, [pc, #56]	@ (26564 <_ZN20complex_dynamic_type3app17hd49d8ea07a2f4ecfE+0x130>)
   2652a:	9004      	str	r0, [sp, #16]
   2652c:	9d05      	ldr	r5, [sp, #20]
   2652e:	1c68      	adds	r0, r5, #1
   26530:	2244      	movs	r2, #68	@ 0x44
   26532:	9904      	ldr	r1, [sp, #16]
   26534:	f005 f889 	bl	2b64a <__aeabi_memcpy>
   26538:	2000      	movs	r0, #0
   2653a:	2c02      	cmp	r4, #2
   2653c:	7028      	strb	r0, [r5, #0]
   2653e:	d004      	beq.n	2654a <_ZN20complex_dynamic_type3app17hd49d8ea07a2f4ecfE+0x116>
   26540:	2109      	movs	r1, #9
   26542:	4630      	mov	r0, r6
   26544:	4622      	mov	r2, r4
   26546:	f004 fe9b 	bl	2b280 <_ZN9allow_pin12dynamic_type7unshare17h19052c50f9e150aeE>
   2654a:	a806      	add	r0, sp, #24
   2654c:	7802      	ldrb	r2, [r0, #0]
   2654e:	2a02      	cmp	r2, #2
   26550:	d003      	beq.n	2655a <_ZN20complex_dynamic_type3app17hd49d8ea07a2f4ecfE+0x126>
   26552:	2102      	movs	r1, #2
   26554:	4630      	mov	r0, r6
   26556:	f004 fe93 	bl	2b280 <_ZN9allow_pin12dynamic_type7unshare17h19052c50f9e150aeE>
   2655a:	b021      	add	sp, #132	@ 0x84
   2655c:	bdf0      	pop	{r4, r5, r6, r7, pc}
   2655e:	46c0      	nop			@ (mov r8, r8)
   26560:	00002432 	.word	0x00002432
   26564:	000105bb 	.word	0x000105bb

00026568 <_ZN20complex_dynamic_type3app17hd65d792d2399a054E>:
   26568:	b5f0      	push	{r4, r5, r6, r7, lr}
   2656a:	af03      	add	r7, sp, #12
   2656c:	b0a9      	sub	sp, #164	@ 0xa4
   2656e:	9006      	str	r0, [sp, #24]
   26570:	a807      	add	r0, sp, #28
   26572:	2502      	movs	r5, #2
   26574:	7005      	strb	r5, [r0, #0]
   26576:	1c40      	adds	r0, r0, #1
   26578:	9004      	str	r0, [sp, #16]
   2657a:	2421      	movs	r4, #33	@ 0x21
   2657c:	4622      	mov	r2, r4
   2657e:	f005 f864 	bl	2b64a <__aeabi_memcpy>
   26582:	ae10      	add	r6, sp, #64	@ 0x40
   26584:	1c70      	adds	r0, r6, #1
   26586:	2153      	movs	r1, #83	@ 0x53
   26588:	9005      	str	r0, [sp, #20]
   2658a:	9103      	str	r1, [sp, #12]
   2658c:	f004 fe9d 	bl	2b2ca <__aeabi_memclr>
   26590:	7035      	strb	r5, [r6, #0]
   26592:	2004      	movs	r0, #4
   26594:	9400      	str	r4, [sp, #0]
   26596:	4604      	mov	r4, r0
   26598:	9001      	str	r0, [sp, #4]
   2659a:	a825      	add	r0, sp, #148	@ 0x94
   2659c:	4e3d      	ldr	r6, [pc, #244]	@ (26694 <_ZN20complex_dynamic_type3app17hd65d792d2399a054E+0x12c>)
   2659e:	4631      	mov	r1, r6
   265a0:	462a      	mov	r2, r5
   265a2:	9b04      	ldr	r3, [sp, #16]
   265a4:	f004 fe79 	bl	2b29a <_ZN9allow_pin13dynamic_allow17h8bfd3764c146b81aE>
   265a8:	9825      	ldr	r0, [sp, #148]	@ 0x94
   265aa:	2802      	cmp	r0, #2
   265ac:	d101      	bne.n	265b2 <_ZN20complex_dynamic_type3app17hd65d792d2399a054E+0x4a>
   265ae:	9926      	ldr	r1, [sp, #152]	@ 0x98
   265b0:	e001      	b.n	265b6 <_ZN20complex_dynamic_type3app17hd65d792d2399a054E+0x4e>
   265b2:	a907      	add	r1, sp, #28
   265b4:	700c      	strb	r4, [r1, #0]
   265b6:	2501      	movs	r5, #1
   265b8:	2802      	cmp	r0, #2
   265ba:	d016      	beq.n	265ea <_ZN20complex_dynamic_type3app17hd65d792d2399a054E+0x82>
   265bc:	a810      	add	r0, sp, #64	@ 0x40
   265be:	7800      	ldrb	r0, [r0, #0]
   265c0:	2802      	cmp	r0, #2
   265c2:	d10e      	bne.n	265e2 <_ZN20complex_dynamic_type3app17hd65d792d2399a054E+0x7a>
   265c4:	2403      	movs	r4, #3
   265c6:	9803      	ldr	r0, [sp, #12]
   265c8:	9000      	str	r0, [sp, #0]
   265ca:	9401      	str	r4, [sp, #4]
   265cc:	a825      	add	r0, sp, #148	@ 0x94
   265ce:	2208      	movs	r2, #8
   265d0:	4631      	mov	r1, r6
   265d2:	9b05      	ldr	r3, [sp, #20]
   265d4:	f004 fe61 	bl	2b29a <_ZN9allow_pin13dynamic_allow17h8bfd3764c146b81aE>
   265d8:	9825      	ldr	r0, [sp, #148]	@ 0x94
   265da:	2802      	cmp	r0, #2
   265dc:	d113      	bne.n	26606 <_ZN20complex_dynamic_type3app17hd65d792d2399a054E+0x9e>
   265de:	9926      	ldr	r1, [sp, #152]	@ 0x98
   265e0:	e000      	b.n	265e4 <_ZN20complex_dynamic_type3app17hd65d792d2399a054E+0x7c>
   265e2:	2103      	movs	r1, #3
   265e4:	4628      	mov	r0, r5
   265e6:	2800      	cmp	r0, #0
   265e8:	d012      	beq.n	26610 <_ZN20complex_dynamic_type3app17hd65d792d2399a054E+0xa8>
   265ea:	462c      	mov	r4, r5
   265ec:	2c00      	cmp	r4, #0
   265ee:	d031      	beq.n	26654 <_ZN20complex_dynamic_type3app17hd65d792d2399a054E+0xec>
   265f0:	2001      	movs	r0, #1
   265f2:	9a06      	ldr	r2, [sp, #24]
   265f4:	7010      	strb	r0, [r2, #0]
   265f6:	6051      	str	r1, [r2, #4]
   265f8:	a810      	add	r0, sp, #64	@ 0x40
   265fa:	7802      	ldrb	r2, [r0, #0]
   265fc:	2a02      	cmp	r2, #2
   265fe:	d03e      	beq.n	2667e <_ZN20complex_dynamic_type3app17hd65d792d2399a054E+0x116>
   26600:	2108      	movs	r1, #8
   26602:	4630      	mov	r0, r6
   26604:	e039      	b.n	2667a <_ZN20complex_dynamic_type3app17hd65d792d2399a054E+0x112>
   26606:	a810      	add	r0, sp, #64	@ 0x40
   26608:	7004      	strb	r4, [r0, #0]
   2660a:	2000      	movs	r0, #0
   2660c:	2800      	cmp	r0, #0
   2660e:	d1ec      	bne.n	265ea <_ZN20complex_dynamic_type3app17hd65d792d2399a054E+0x82>
   26610:	4820      	ldr	r0, [pc, #128]	@ (26694 <_ZN20complex_dynamic_type3app17hd65d792d2399a054E+0x12c>)
   26612:	2102      	movs	r1, #2
   26614:	2208      	movs	r2, #8
   26616:	2400      	movs	r4, #0
   26618:	460e      	mov	r6, r1
   2661a:	4623      	mov	r3, r4
   2661c:	df02      	svc	2
   2661e:	287f      	cmp	r0, #127	@ 0x7f
   26620:	d801      	bhi.n	26626 <_ZN20complex_dynamic_type3app17hd65d792d2399a054E+0xbe>
   26622:	462c      	mov	r4, r5
   26624:	e013      	b.n	2664e <_ZN20complex_dynamic_type3app17hd65d792d2399a054E+0xe6>
   26626:	a807      	add	r0, sp, #28
   26628:	7802      	ldrb	r2, [r0, #0]
   2662a:	2a02      	cmp	r2, #2
   2662c:	d003      	beq.n	26636 <_ZN20complex_dynamic_type3app17hd65d792d2399a054E+0xce>
   2662e:	2102      	movs	r1, #2
   26630:	4818      	ldr	r0, [pc, #96]	@ (26694 <_ZN20complex_dynamic_type3app17hd65d792d2399a054E+0x12c>)
   26632:	f004 fe25 	bl	2b280 <_ZN9allow_pin12dynamic_type7unshare17h19052c50f9e150aeE>
   26636:	a807      	add	r0, sp, #28
   26638:	7006      	strb	r6, [r0, #0]
   2663a:	a810      	add	r0, sp, #64	@ 0x40
   2663c:	7802      	ldrb	r2, [r0, #0]
   2663e:	2a02      	cmp	r2, #2
   26640:	d003      	beq.n	2664a <_ZN20complex_dynamic_type3app17hd65d792d2399a054E+0xe2>
   26642:	2108      	movs	r1, #8
   26644:	4813      	ldr	r0, [pc, #76]	@ (26694 <_ZN20complex_dynamic_type3app17hd65d792d2399a054E+0x12c>)
   26646:	f004 fe1b 	bl	2b280 <_ZN9allow_pin12dynamic_type7unshare17h19052c50f9e150aeE>
   2664a:	a810      	add	r0, sp, #64	@ 0x40
   2664c:	7006      	strb	r6, [r0, #0]
   2664e:	4e11      	ldr	r6, [pc, #68]	@ (26694 <_ZN20complex_dynamic_type3app17hd65d792d2399a054E+0x12c>)
   26650:	2c00      	cmp	r4, #0
   26652:	d1cd      	bne.n	265f0 <_ZN20complex_dynamic_type3app17hd65d792d2399a054E+0x88>
   26654:	a810      	add	r0, sp, #64	@ 0x40
   26656:	7804      	ldrb	r4, [r0, #0]
   26658:	2c02      	cmp	r4, #2
   2665a:	d001      	beq.n	26660 <_ZN20complex_dynamic_type3app17hd65d792d2399a054E+0xf8>
   2665c:	480e      	ldr	r0, [pc, #56]	@ (26698 <_ZN20complex_dynamic_type3app17hd65d792d2399a054E+0x130>)
   2665e:	9005      	str	r0, [sp, #20]
   26660:	9d06      	ldr	r5, [sp, #24]
   26662:	1c68      	adds	r0, r5, #1
   26664:	2253      	movs	r2, #83	@ 0x53
   26666:	9905      	ldr	r1, [sp, #20]
   26668:	f004 ffef 	bl	2b64a <__aeabi_memcpy>
   2666c:	2000      	movs	r0, #0
   2666e:	2c02      	cmp	r4, #2
   26670:	7028      	strb	r0, [r5, #0]
   26672:	d004      	beq.n	2667e <_ZN20complex_dynamic_type3app17hd65d792d2399a054E+0x116>
   26674:	2108      	movs	r1, #8
   26676:	4630      	mov	r0, r6
   26678:	4622      	mov	r2, r4
   2667a:	f004 fe01 	bl	2b280 <_ZN9allow_pin12dynamic_type7unshare17h19052c50f9e150aeE>
   2667e:	a807      	add	r0, sp, #28
   26680:	7802      	ldrb	r2, [r0, #0]
   26682:	2a02      	cmp	r2, #2
   26684:	d003      	beq.n	2668e <_ZN20complex_dynamic_type3app17hd65d792d2399a054E+0x126>
   26686:	2102      	movs	r1, #2
   26688:	4630      	mov	r0, r6
   2668a:	f004 fdf9 	bl	2b280 <_ZN9allow_pin12dynamic_type7unshare17h19052c50f9e150aeE>
   2668e:	b029      	add	sp, #164	@ 0xa4
   26690:	bdf0      	pop	{r4, r5, r6, r7, pc}
   26692:	46c0      	nop			@ (mov r8, r8)
   26694:	0000253e 	.word	0x0000253e
   26698:	000106d5 	.word	0x000106d5

0002669c <_ZN20complex_dynamic_type3app17hd6df84068c6378f1E>:
   2669c:	b5f0      	push	{r4, r5, r6, r7, lr}
   2669e:	af03      	add	r7, sp, #12
   266a0:	b0a5      	sub	sp, #148	@ 0x94
   266a2:	9006      	str	r0, [sp, #24]
   266a4:	a807      	add	r0, sp, #28
   266a6:	2502      	movs	r5, #2
   266a8:	7005      	strb	r5, [r0, #0]
   266aa:	1c40      	adds	r0, r0, #1
   266ac:	9004      	str	r0, [sp, #16]
   266ae:	2434      	movs	r4, #52	@ 0x34
   266b0:	4622      	mov	r2, r4
   266b2:	f004 ffca 	bl	2b64a <__aeabi_memcpy>
   266b6:	ae15      	add	r6, sp, #84	@ 0x54
   266b8:	1c70      	adds	r0, r6, #1
   266ba:	212e      	movs	r1, #46	@ 0x2e
   266bc:	9005      	str	r0, [sp, #20]
   266be:	9103      	str	r1, [sp, #12]
   266c0:	f004 fe03 	bl	2b2ca <__aeabi_memclr>
   266c4:	7035      	strb	r5, [r6, #0]
   266c6:	2004      	movs	r0, #4
   266c8:	9400      	str	r4, [sp, #0]
   266ca:	4604      	mov	r4, r0
   266cc:	9001      	str	r0, [sp, #4]
   266ce:	a821      	add	r0, sp, #132	@ 0x84
   266d0:	4e3d      	ldr	r6, [pc, #244]	@ (267c8 <_ZN20complex_dynamic_type3app17hd6df84068c6378f1E+0x12c>)
   266d2:	4631      	mov	r1, r6
   266d4:	462a      	mov	r2, r5
   266d6:	9b04      	ldr	r3, [sp, #16]
   266d8:	f004 fddf 	bl	2b29a <_ZN9allow_pin13dynamic_allow17h8bfd3764c146b81aE>
   266dc:	9821      	ldr	r0, [sp, #132]	@ 0x84
   266de:	2802      	cmp	r0, #2
   266e0:	d101      	bne.n	266e6 <_ZN20complex_dynamic_type3app17hd6df84068c6378f1E+0x4a>
   266e2:	9922      	ldr	r1, [sp, #136]	@ 0x88
   266e4:	e001      	b.n	266ea <_ZN20complex_dynamic_type3app17hd6df84068c6378f1E+0x4e>
   266e6:	a907      	add	r1, sp, #28
   266e8:	700c      	strb	r4, [r1, #0]
   266ea:	2501      	movs	r5, #1
   266ec:	2802      	cmp	r0, #2
   266ee:	d016      	beq.n	2671e <_ZN20complex_dynamic_type3app17hd6df84068c6378f1E+0x82>
   266f0:	a815      	add	r0, sp, #84	@ 0x54
   266f2:	7800      	ldrb	r0, [r0, #0]
   266f4:	2802      	cmp	r0, #2
   266f6:	d10e      	bne.n	26716 <_ZN20complex_dynamic_type3app17hd6df84068c6378f1E+0x7a>
   266f8:	2403      	movs	r4, #3
   266fa:	9803      	ldr	r0, [sp, #12]
   266fc:	9000      	str	r0, [sp, #0]
   266fe:	9401      	str	r4, [sp, #4]
   26700:	a821      	add	r0, sp, #132	@ 0x84
   26702:	2208      	movs	r2, #8
   26704:	4631      	mov	r1, r6
   26706:	9b05      	ldr	r3, [sp, #20]
   26708:	f004 fdc7 	bl	2b29a <_ZN9allow_pin13dynamic_allow17h8bfd3764c146b81aE>
   2670c:	9821      	ldr	r0, [sp, #132]	@ 0x84
   2670e:	2802      	cmp	r0, #2
   26710:	d113      	bne.n	2673a <_ZN20complex_dynamic_type3app17hd6df84068c6378f1E+0x9e>
   26712:	9922      	ldr	r1, [sp, #136]	@ 0x88
   26714:	e000      	b.n	26718 <_ZN20complex_dynamic_type3app17hd6df84068c6378f1E+0x7c>
   26716:	2103      	movs	r1, #3
   26718:	4628      	mov	r0, r5
   2671a:	2800      	cmp	r0, #0
   2671c:	d012      	beq.n	26744 <_ZN20complex_dynamic_type3app17hd6df84068c6378f1E+0xa8>
   2671e:	462c      	mov	r4, r5
   26720:	2c00      	cmp	r4, #0
   26722:	d031      	beq.n	26788 <_ZN20complex_dynamic_type3app17hd6df84068c6378f1E+0xec>
   26724:	2001      	movs	r0, #1
   26726:	9a06      	ldr	r2, [sp, #24]
   26728:	7010      	strb	r0, [r2, #0]
   2672a:	6051      	str	r1, [r2, #4]
   2672c:	a815      	add	r0, sp, #84	@ 0x54
   2672e:	7802      	ldrb	r2, [r0, #0]
   26730:	2a02      	cmp	r2, #2
   26732:	d03e      	beq.n	267b2 <_ZN20complex_dynamic_type3app17hd6df84068c6378f1E+0x116>
   26734:	2108      	movs	r1, #8
   26736:	4630      	mov	r0, r6
   26738:	e039      	b.n	267ae <_ZN20complex_dynamic_type3app17hd6df84068c6378f1E+0x112>
   2673a:	a815      	add	r0, sp, #84	@ 0x54
   2673c:	7004      	strb	r4, [r0, #0]
   2673e:	2000      	movs	r0, #0
   26740:	2800      	cmp	r0, #0
   26742:	d1ec      	bne.n	2671e <_ZN20complex_dynamic_type3app17hd6df84068c6378f1E+0x82>
   26744:	4820      	ldr	r0, [pc, #128]	@ (267c8 <_ZN20complex_dynamic_type3app17hd6df84068c6378f1E+0x12c>)
   26746:	2102      	movs	r1, #2
   26748:	2208      	movs	r2, #8
   2674a:	2400      	movs	r4, #0
   2674c:	460e      	mov	r6, r1
   2674e:	4623      	mov	r3, r4
   26750:	df02      	svc	2
   26752:	287f      	cmp	r0, #127	@ 0x7f
   26754:	d801      	bhi.n	2675a <_ZN20complex_dynamic_type3app17hd6df84068c6378f1E+0xbe>
   26756:	462c      	mov	r4, r5
   26758:	e013      	b.n	26782 <_ZN20complex_dynamic_type3app17hd6df84068c6378f1E+0xe6>
   2675a:	a807      	add	r0, sp, #28
   2675c:	7802      	ldrb	r2, [r0, #0]
   2675e:	2a02      	cmp	r2, #2
   26760:	d003      	beq.n	2676a <_ZN20complex_dynamic_type3app17hd6df84068c6378f1E+0xce>
   26762:	2102      	movs	r1, #2
   26764:	4818      	ldr	r0, [pc, #96]	@ (267c8 <_ZN20complex_dynamic_type3app17hd6df84068c6378f1E+0x12c>)
   26766:	f004 fd8b 	bl	2b280 <_ZN9allow_pin12dynamic_type7unshare17h19052c50f9e150aeE>
   2676a:	a807      	add	r0, sp, #28
   2676c:	7006      	strb	r6, [r0, #0]
   2676e:	a815      	add	r0, sp, #84	@ 0x54
   26770:	7802      	ldrb	r2, [r0, #0]
   26772:	2a02      	cmp	r2, #2
   26774:	d003      	beq.n	2677e <_ZN20complex_dynamic_type3app17hd6df84068c6378f1E+0xe2>
   26776:	2108      	movs	r1, #8
   26778:	4813      	ldr	r0, [pc, #76]	@ (267c8 <_ZN20complex_dynamic_type3app17hd6df84068c6378f1E+0x12c>)
   2677a:	f004 fd81 	bl	2b280 <_ZN9allow_pin12dynamic_type7unshare17h19052c50f9e150aeE>
   2677e:	a815      	add	r0, sp, #84	@ 0x54
   26780:	7006      	strb	r6, [r0, #0]
   26782:	4e11      	ldr	r6, [pc, #68]	@ (267c8 <_ZN20complex_dynamic_type3app17hd6df84068c6378f1E+0x12c>)
   26784:	2c00      	cmp	r4, #0
   26786:	d1cd      	bne.n	26724 <_ZN20complex_dynamic_type3app17hd6df84068c6378f1E+0x88>
   26788:	a815      	add	r0, sp, #84	@ 0x54
   2678a:	7804      	ldrb	r4, [r0, #0]
   2678c:	2c02      	cmp	r4, #2
   2678e:	d001      	beq.n	26794 <_ZN20complex_dynamic_type3app17hd6df84068c6378f1E+0xf8>
   26790:	480e      	ldr	r0, [pc, #56]	@ (267cc <_ZN20complex_dynamic_type3app17hd6df84068c6378f1E+0x130>)
   26792:	9005      	str	r0, [sp, #20]
   26794:	9d06      	ldr	r5, [sp, #24]
   26796:	1c68      	adds	r0, r5, #1
   26798:	222e      	movs	r2, #46	@ 0x2e
   2679a:	9905      	ldr	r1, [sp, #20]
   2679c:	f004 ff55 	bl	2b64a <__aeabi_memcpy>
   267a0:	2000      	movs	r0, #0
   267a2:	2c02      	cmp	r4, #2
   267a4:	7028      	strb	r0, [r5, #0]
   267a6:	d004      	beq.n	267b2 <_ZN20complex_dynamic_type3app17hd6df84068c6378f1E+0x116>
   267a8:	2108      	movs	r1, #8
   267aa:	4630      	mov	r0, r6
   267ac:	4622      	mov	r2, r4
   267ae:	f004 fd67 	bl	2b280 <_ZN9allow_pin12dynamic_type7unshare17h19052c50f9e150aeE>
   267b2:	a807      	add	r0, sp, #28
   267b4:	7802      	ldrb	r2, [r0, #0]
   267b6:	2a02      	cmp	r2, #2
   267b8:	d003      	beq.n	267c2 <_ZN20complex_dynamic_type3app17hd6df84068c6378f1E+0x126>
   267ba:	2102      	movs	r1, #2
   267bc:	4630      	mov	r0, r6
   267be:	f004 fd5f 	bl	2b280 <_ZN9allow_pin12dynamic_type7unshare17h19052c50f9e150aeE>
   267c2:	b025      	add	sp, #148	@ 0x94
   267c4:	bdf0      	pop	{r4, r5, r6, r7, pc}
   267c6:	46c0      	nop			@ (mov r8, r8)
   267c8:	00000209 	.word	0x00000209
   267cc:	00010b41 	.word	0x00010b41

000267d0 <_ZN20complex_dynamic_type3app17hd83aa7a42fe38979E>:
   267d0:	b5f0      	push	{r4, r5, r6, r7, lr}
   267d2:	af03      	add	r7, sp, #12
   267d4:	b0a3      	sub	sp, #140	@ 0x8c
   267d6:	9007      	str	r0, [sp, #28]
   267d8:	a808      	add	r0, sp, #32
   267da:	2502      	movs	r5, #2
   267dc:	7005      	strb	r5, [r0, #0]
   267de:	1c40      	adds	r0, r0, #1
   267e0:	9005      	str	r0, [sp, #20]
   267e2:	2648      	movs	r6, #72	@ 0x48
   267e4:	4632      	mov	r2, r6
   267e6:	f004 ff30 	bl	2b64a <__aeabi_memcpy>
   267ea:	ac1b      	add	r4, sp, #108	@ 0x6c
   267ec:	1c60      	adds	r0, r4, #1
   267ee:	210f      	movs	r1, #15
   267f0:	9006      	str	r0, [sp, #24]
   267f2:	9104      	str	r1, [sp, #16]
   267f4:	f004 fd69 	bl	2b2ca <__aeabi_memclr>
   267f8:	9503      	str	r5, [sp, #12]
   267fa:	7025      	strb	r5, [r4, #0]
   267fc:	2404      	movs	r4, #4
   267fe:	9600      	str	r6, [sp, #0]
   26800:	9401      	str	r4, [sp, #4]
   26802:	a81f      	add	r0, sp, #124	@ 0x7c
   26804:	4e3c      	ldr	r6, [pc, #240]	@ (268f8 <_ZN20complex_dynamic_type3app17hd83aa7a42fe38979E+0x128>)
   26806:	2208      	movs	r2, #8
   26808:	4631      	mov	r1, r6
   2680a:	9b05      	ldr	r3, [sp, #20]
   2680c:	f004 fd45 	bl	2b29a <_ZN9allow_pin13dynamic_allow17h8bfd3764c146b81aE>
   26810:	981f      	ldr	r0, [sp, #124]	@ 0x7c
   26812:	2802      	cmp	r0, #2
   26814:	d101      	bne.n	2681a <_ZN20complex_dynamic_type3app17hd83aa7a42fe38979E+0x4a>
   26816:	9920      	ldr	r1, [sp, #128]	@ 0x80
   26818:	e001      	b.n	2681e <_ZN20complex_dynamic_type3app17hd83aa7a42fe38979E+0x4e>
   2681a:	a908      	add	r1, sp, #32
   2681c:	700c      	strb	r4, [r1, #0]
   2681e:	2501      	movs	r5, #1
   26820:	2802      	cmp	r0, #2
   26822:	d024      	beq.n	2686e <_ZN20complex_dynamic_type3app17hd83aa7a42fe38979E+0x9e>
   26824:	a81b      	add	r0, sp, #108	@ 0x6c
   26826:	7800      	ldrb	r0, [r0, #0]
   26828:	2802      	cmp	r0, #2
   2682a:	d10e      	bne.n	2684a <_ZN20complex_dynamic_type3app17hd83aa7a42fe38979E+0x7a>
   2682c:	2403      	movs	r4, #3
   2682e:	9804      	ldr	r0, [sp, #16]
   26830:	9000      	str	r0, [sp, #0]
   26832:	9401      	str	r4, [sp, #4]
   26834:	a81f      	add	r0, sp, #124	@ 0x7c
   26836:	2209      	movs	r2, #9
   26838:	4631      	mov	r1, r6
   2683a:	9b06      	ldr	r3, [sp, #24]
   2683c:	f004 fd2d 	bl	2b29a <_ZN9allow_pin13dynamic_allow17h8bfd3764c146b81aE>
   26840:	981f      	ldr	r0, [sp, #124]	@ 0x7c
   26842:	2802      	cmp	r0, #2
   26844:	d106      	bne.n	26854 <_ZN20complex_dynamic_type3app17hd83aa7a42fe38979E+0x84>
   26846:	9920      	ldr	r1, [sp, #128]	@ 0x80
   26848:	e000      	b.n	2684c <_ZN20complex_dynamic_type3app17hd83aa7a42fe38979E+0x7c>
   2684a:	2103      	movs	r1, #3
   2684c:	4628      	mov	r0, r5
   2684e:	2800      	cmp	r0, #0
   26850:	d005      	beq.n	2685e <_ZN20complex_dynamic_type3app17hd83aa7a42fe38979E+0x8e>
   26852:	e00c      	b.n	2686e <_ZN20complex_dynamic_type3app17hd83aa7a42fe38979E+0x9e>
   26854:	a81b      	add	r0, sp, #108	@ 0x6c
   26856:	7004      	strb	r4, [r0, #0]
   26858:	2000      	movs	r0, #0
   2685a:	2800      	cmp	r0, #0
   2685c:	d107      	bne.n	2686e <_ZN20complex_dynamic_type3app17hd83aa7a42fe38979E+0x9e>
   2685e:	4826      	ldr	r0, [pc, #152]	@ (268f8 <_ZN20complex_dynamic_type3app17hd83aa7a42fe38979E+0x128>)
   26860:	2108      	movs	r1, #8
   26862:	2209      	movs	r2, #9
   26864:	2400      	movs	r4, #0
   26866:	4623      	mov	r3, r4
   26868:	df02      	svc	2
   2686a:	287f      	cmp	r0, #127	@ 0x7f
   2686c:	d80d      	bhi.n	2688a <_ZN20complex_dynamic_type3app17hd83aa7a42fe38979E+0xba>
   2686e:	462c      	mov	r4, r5
   26870:	2c00      	cmp	r4, #0
   26872:	d021      	beq.n	268b8 <_ZN20complex_dynamic_type3app17hd83aa7a42fe38979E+0xe8>
   26874:	2001      	movs	r0, #1
   26876:	9a07      	ldr	r2, [sp, #28]
   26878:	7010      	strb	r0, [r2, #0]
   2687a:	6051      	str	r1, [r2, #4]
   2687c:	a81b      	add	r0, sp, #108	@ 0x6c
   2687e:	7802      	ldrb	r2, [r0, #0]
   26880:	2a02      	cmp	r2, #2
   26882:	d02e      	beq.n	268e2 <_ZN20complex_dynamic_type3app17hd83aa7a42fe38979E+0x112>
   26884:	2109      	movs	r1, #9
   26886:	4630      	mov	r0, r6
   26888:	e029      	b.n	268de <_ZN20complex_dynamic_type3app17hd83aa7a42fe38979E+0x10e>
   2688a:	a808      	add	r0, sp, #32
   2688c:	7802      	ldrb	r2, [r0, #0]
   2688e:	2a02      	cmp	r2, #2
   26890:	d003      	beq.n	2689a <_ZN20complex_dynamic_type3app17hd83aa7a42fe38979E+0xca>
   26892:	2108      	movs	r1, #8
   26894:	4630      	mov	r0, r6
   26896:	f004 fcf3 	bl	2b280 <_ZN9allow_pin12dynamic_type7unshare17h19052c50f9e150aeE>
   2689a:	a808      	add	r0, sp, #32
   2689c:	9d03      	ldr	r5, [sp, #12]
   2689e:	7005      	strb	r5, [r0, #0]
   268a0:	a81b      	add	r0, sp, #108	@ 0x6c
   268a2:	7802      	ldrb	r2, [r0, #0]
   268a4:	2a02      	cmp	r2, #2
   268a6:	d003      	beq.n	268b0 <_ZN20complex_dynamic_type3app17hd83aa7a42fe38979E+0xe0>
   268a8:	2109      	movs	r1, #9
   268aa:	4630      	mov	r0, r6
   268ac:	f004 fce8 	bl	2b280 <_ZN9allow_pin12dynamic_type7unshare17h19052c50f9e150aeE>
   268b0:	a81b      	add	r0, sp, #108	@ 0x6c
   268b2:	7005      	strb	r5, [r0, #0]
   268b4:	2c00      	cmp	r4, #0
   268b6:	d1dd      	bne.n	26874 <_ZN20complex_dynamic_type3app17hd83aa7a42fe38979E+0xa4>
   268b8:	a81b      	add	r0, sp, #108	@ 0x6c
   268ba:	7804      	ldrb	r4, [r0, #0]
   268bc:	2c02      	cmp	r4, #2
   268be:	d001      	beq.n	268c4 <_ZN20complex_dynamic_type3app17hd83aa7a42fe38979E+0xf4>
   268c0:	480e      	ldr	r0, [pc, #56]	@ (268fc <_ZN20complex_dynamic_type3app17hd83aa7a42fe38979E+0x12c>)
   268c2:	9006      	str	r0, [sp, #24]
   268c4:	9d07      	ldr	r5, [sp, #28]
   268c6:	1c68      	adds	r0, r5, #1
   268c8:	220f      	movs	r2, #15
   268ca:	9906      	ldr	r1, [sp, #24]
   268cc:	f004 febd 	bl	2b64a <__aeabi_memcpy>
   268d0:	2000      	movs	r0, #0
   268d2:	2c02      	cmp	r4, #2
   268d4:	7028      	strb	r0, [r5, #0]
   268d6:	d004      	beq.n	268e2 <_ZN20complex_dynamic_type3app17hd83aa7a42fe38979E+0x112>
   268d8:	2109      	movs	r1, #9
   268da:	4630      	mov	r0, r6
   268dc:	4622      	mov	r2, r4
   268de:	f004 fccf 	bl	2b280 <_ZN9allow_pin12dynamic_type7unshare17h19052c50f9e150aeE>
   268e2:	a808      	add	r0, sp, #32
   268e4:	7802      	ldrb	r2, [r0, #0]
   268e6:	2a02      	cmp	r2, #2
   268e8:	d003      	beq.n	268f2 <_ZN20complex_dynamic_type3app17hd83aa7a42fe38979E+0x122>
   268ea:	2108      	movs	r1, #8
   268ec:	4630      	mov	r0, r6
   268ee:	f004 fcc7 	bl	2b280 <_ZN9allow_pin12dynamic_type7unshare17h19052c50f9e150aeE>
   268f2:	b023      	add	sp, #140	@ 0x8c
   268f4:	bdf0      	pop	{r4, r5, r6, r7, pc}
   268f6:	46c0      	nop			@ (mov r8, r8)
   268f8:	0000111d 	.word	0x0000111d
   268fc:	00010aa4 	.word	0x00010aa4

00026900 <_ZN20complex_dynamic_type3app17hddfa95a86ed89b41E>:
   26900:	b5f0      	push	{r4, r5, r6, r7, lr}
   26902:	af03      	add	r7, sp, #12
   26904:	b09b      	sub	sp, #108	@ 0x6c
   26906:	9007      	str	r0, [sp, #28]
   26908:	a808      	add	r0, sp, #32
   2690a:	2502      	movs	r5, #2
   2690c:	7005      	strb	r5, [r0, #0]
   2690e:	1c40      	adds	r0, r0, #1
   26910:	9005      	str	r0, [sp, #20]
   26912:	2618      	movs	r6, #24
   26914:	4632      	mov	r2, r6
   26916:	f004 fe98 	bl	2b64a <__aeabi_memcpy>
   2691a:	ac0f      	add	r4, sp, #60	@ 0x3c
   2691c:	1c60      	adds	r0, r4, #1
   2691e:	211e      	movs	r1, #30
   26920:	9006      	str	r0, [sp, #24]
   26922:	9104      	str	r1, [sp, #16]
   26924:	f004 fcd1 	bl	2b2ca <__aeabi_memclr>
   26928:	9503      	str	r5, [sp, #12]
   2692a:	7025      	strb	r5, [r4, #0]
   2692c:	2404      	movs	r4, #4
   2692e:	9600      	str	r6, [sp, #0]
   26930:	9401      	str	r4, [sp, #4]
   26932:	a817      	add	r0, sp, #92	@ 0x5c
   26934:	4e3c      	ldr	r6, [pc, #240]	@ (26a28 <_ZN20complex_dynamic_type3app17hddfa95a86ed89b41E+0x128>)
   26936:	2209      	movs	r2, #9
   26938:	4631      	mov	r1, r6
   2693a:	9b05      	ldr	r3, [sp, #20]
   2693c:	f004 fcad 	bl	2b29a <_ZN9allow_pin13dynamic_allow17h8bfd3764c146b81aE>
   26940:	9817      	ldr	r0, [sp, #92]	@ 0x5c
   26942:	2802      	cmp	r0, #2
   26944:	d101      	bne.n	2694a <_ZN20complex_dynamic_type3app17hddfa95a86ed89b41E+0x4a>
   26946:	9918      	ldr	r1, [sp, #96]	@ 0x60
   26948:	e001      	b.n	2694e <_ZN20complex_dynamic_type3app17hddfa95a86ed89b41E+0x4e>
   2694a:	a908      	add	r1, sp, #32
   2694c:	700c      	strb	r4, [r1, #0]
   2694e:	2501      	movs	r5, #1
   26950:	2802      	cmp	r0, #2
   26952:	d024      	beq.n	2699e <_ZN20complex_dynamic_type3app17hddfa95a86ed89b41E+0x9e>
   26954:	a80f      	add	r0, sp, #60	@ 0x3c
   26956:	7800      	ldrb	r0, [r0, #0]
   26958:	2802      	cmp	r0, #2
   2695a:	d10e      	bne.n	2697a <_ZN20complex_dynamic_type3app17hddfa95a86ed89b41E+0x7a>
   2695c:	2403      	movs	r4, #3
   2695e:	9804      	ldr	r0, [sp, #16]
   26960:	9000      	str	r0, [sp, #0]
   26962:	9401      	str	r4, [sp, #4]
   26964:	a817      	add	r0, sp, #92	@ 0x5c
   26966:	2205      	movs	r2, #5
   26968:	4631      	mov	r1, r6
   2696a:	9b06      	ldr	r3, [sp, #24]
   2696c:	f004 fc95 	bl	2b29a <_ZN9allow_pin13dynamic_allow17h8bfd3764c146b81aE>
   26970:	9817      	ldr	r0, [sp, #92]	@ 0x5c
   26972:	2802      	cmp	r0, #2
   26974:	d106      	bne.n	26984 <_ZN20complex_dynamic_type3app17hddfa95a86ed89b41E+0x84>
   26976:	9918      	ldr	r1, [sp, #96]	@ 0x60
   26978:	e000      	b.n	2697c <_ZN20complex_dynamic_type3app17hddfa95a86ed89b41E+0x7c>
   2697a:	2103      	movs	r1, #3
   2697c:	4628      	mov	r0, r5
   2697e:	2800      	cmp	r0, #0
   26980:	d005      	beq.n	2698e <_ZN20complex_dynamic_type3app17hddfa95a86ed89b41E+0x8e>
   26982:	e00c      	b.n	2699e <_ZN20complex_dynamic_type3app17hddfa95a86ed89b41E+0x9e>
   26984:	a80f      	add	r0, sp, #60	@ 0x3c
   26986:	7004      	strb	r4, [r0, #0]
   26988:	2000      	movs	r0, #0
   2698a:	2800      	cmp	r0, #0
   2698c:	d107      	bne.n	2699e <_ZN20complex_dynamic_type3app17hddfa95a86ed89b41E+0x9e>
   2698e:	4826      	ldr	r0, [pc, #152]	@ (26a28 <_ZN20complex_dynamic_type3app17hddfa95a86ed89b41E+0x128>)
   26990:	2109      	movs	r1, #9
   26992:	2205      	movs	r2, #5
   26994:	2400      	movs	r4, #0
   26996:	4623      	mov	r3, r4
   26998:	df02      	svc	2
   2699a:	287f      	cmp	r0, #127	@ 0x7f
   2699c:	d80d      	bhi.n	269ba <_ZN20complex_dynamic_type3app17hddfa95a86ed89b41E+0xba>
   2699e:	462c      	mov	r4, r5
   269a0:	2c00      	cmp	r4, #0
   269a2:	d021      	beq.n	269e8 <_ZN20complex_dynamic_type3app17hddfa95a86ed89b41E+0xe8>
   269a4:	2001      	movs	r0, #1
   269a6:	9a07      	ldr	r2, [sp, #28]
   269a8:	7010      	strb	r0, [r2, #0]
   269aa:	6051      	str	r1, [r2, #4]
   269ac:	a80f      	add	r0, sp, #60	@ 0x3c
   269ae:	7802      	ldrb	r2, [r0, #0]
   269b0:	2a02      	cmp	r2, #2
   269b2:	d02e      	beq.n	26a12 <_ZN20complex_dynamic_type3app17hddfa95a86ed89b41E+0x112>
   269b4:	2105      	movs	r1, #5
   269b6:	4630      	mov	r0, r6
   269b8:	e029      	b.n	26a0e <_ZN20complex_dynamic_type3app17hddfa95a86ed89b41E+0x10e>
   269ba:	a808      	add	r0, sp, #32
   269bc:	7802      	ldrb	r2, [r0, #0]
   269be:	2a02      	cmp	r2, #2
   269c0:	d003      	beq.n	269ca <_ZN20complex_dynamic_type3app17hddfa95a86ed89b41E+0xca>
   269c2:	2109      	movs	r1, #9
   269c4:	4630      	mov	r0, r6
   269c6:	f004 fc5b 	bl	2b280 <_ZN9allow_pin12dynamic_type7unshare17h19052c50f9e150aeE>
   269ca:	a808      	add	r0, sp, #32
   269cc:	9d03      	ldr	r5, [sp, #12]
   269ce:	7005      	strb	r5, [r0, #0]
   269d0:	a80f      	add	r0, sp, #60	@ 0x3c
   269d2:	7802      	ldrb	r2, [r0, #0]
   269d4:	2a02      	cmp	r2, #2
   269d6:	d003      	beq.n	269e0 <_ZN20complex_dynamic_type3app17hddfa95a86ed89b41E+0xe0>
   269d8:	2105      	movs	r1, #5
   269da:	4630      	mov	r0, r6
   269dc:	f004 fc50 	bl	2b280 <_ZN9allow_pin12dynamic_type7unshare17h19052c50f9e150aeE>
   269e0:	a80f      	add	r0, sp, #60	@ 0x3c
   269e2:	7005      	strb	r5, [r0, #0]
   269e4:	2c00      	cmp	r4, #0
   269e6:	d1dd      	bne.n	269a4 <_ZN20complex_dynamic_type3app17hddfa95a86ed89b41E+0xa4>
   269e8:	a80f      	add	r0, sp, #60	@ 0x3c
   269ea:	7804      	ldrb	r4, [r0, #0]
   269ec:	2c02      	cmp	r4, #2
   269ee:	d001      	beq.n	269f4 <_ZN20complex_dynamic_type3app17hddfa95a86ed89b41E+0xf4>
   269f0:	480e      	ldr	r0, [pc, #56]	@ (26a2c <_ZN20complex_dynamic_type3app17hddfa95a86ed89b41E+0x12c>)
   269f2:	9006      	str	r0, [sp, #24]
   269f4:	9d07      	ldr	r5, [sp, #28]
   269f6:	1c68      	adds	r0, r5, #1
   269f8:	221e      	movs	r2, #30
   269fa:	9906      	ldr	r1, [sp, #24]
   269fc:	f004 fe25 	bl	2b64a <__aeabi_memcpy>
   26a00:	2000      	movs	r0, #0
   26a02:	2c02      	cmp	r4, #2
   26a04:	7028      	strb	r0, [r5, #0]
   26a06:	d004      	beq.n	26a12 <_ZN20complex_dynamic_type3app17hddfa95a86ed89b41E+0x112>
   26a08:	2105      	movs	r1, #5
   26a0a:	4630      	mov	r0, r6
   26a0c:	4622      	mov	r2, r4
   26a0e:	f004 fc37 	bl	2b280 <_ZN9allow_pin12dynamic_type7unshare17h19052c50f9e150aeE>
   26a12:	a808      	add	r0, sp, #32
   26a14:	7802      	ldrb	r2, [r0, #0]
   26a16:	2a02      	cmp	r2, #2
   26a18:	d003      	beq.n	26a22 <_ZN20complex_dynamic_type3app17hddfa95a86ed89b41E+0x122>
   26a1a:	2109      	movs	r1, #9
   26a1c:	4630      	mov	r0, r6
   26a1e:	f004 fc2f 	bl	2b280 <_ZN9allow_pin12dynamic_type7unshare17h19052c50f9e150aeE>
   26a22:	b01b      	add	sp, #108	@ 0x6c
   26a24:	bdf0      	pop	{r4, r5, r6, r7, pc}
   26a26:	46c0      	nop			@ (mov r8, r8)
   26a28:	00000cbb 	.word	0x00000cbb
   26a2c:	00010185 	.word	0x00010185

00026a30 <_ZN20complex_dynamic_type3app17he0b96e98f14ae7bfE>:
   26a30:	b5f0      	push	{r4, r5, r6, r7, lr}
   26a32:	af03      	add	r7, sp, #12
   26a34:	b0a7      	sub	sp, #156	@ 0x9c
   26a36:	9006      	str	r0, [sp, #24]
   26a38:	a807      	add	r0, sp, #28
   26a3a:	2402      	movs	r4, #2
   26a3c:	7004      	strb	r4, [r0, #0]
   26a3e:	1c40      	adds	r0, r0, #1
   26a40:	9004      	str	r0, [sp, #16]
   26a42:	2550      	movs	r5, #80	@ 0x50
   26a44:	462a      	mov	r2, r5
   26a46:	f004 fe00 	bl	2b64a <__aeabi_memcpy>
   26a4a:	ae1c      	add	r6, sp, #112	@ 0x70
   26a4c:	1c70      	adds	r0, r6, #1
   26a4e:	211b      	movs	r1, #27
   26a50:	9005      	str	r0, [sp, #20]
   26a52:	9103      	str	r1, [sp, #12]
   26a54:	f004 fc39 	bl	2b2ca <__aeabi_memclr>
   26a58:	7034      	strb	r4, [r6, #0]
   26a5a:	2404      	movs	r4, #4
   26a5c:	9500      	str	r5, [sp, #0]
   26a5e:	9401      	str	r4, [sp, #4]
   26a60:	a823      	add	r0, sp, #140	@ 0x8c
   26a62:	4e3e      	ldr	r6, [pc, #248]	@ (26b5c <_ZN20complex_dynamic_type3app17he0b96e98f14ae7bfE+0x12c>)
   26a64:	2501      	movs	r5, #1
   26a66:	4631      	mov	r1, r6
   26a68:	462a      	mov	r2, r5
   26a6a:	9b04      	ldr	r3, [sp, #16]
   26a6c:	f004 fc15 	bl	2b29a <_ZN9allow_pin13dynamic_allow17h8bfd3764c146b81aE>
   26a70:	9823      	ldr	r0, [sp, #140]	@ 0x8c
   26a72:	2802      	cmp	r0, #2
   26a74:	d103      	bne.n	26a7e <_ZN20complex_dynamic_type3app17he0b96e98f14ae7bfE+0x4e>
   26a76:	9924      	ldr	r1, [sp, #144]	@ 0x90
   26a78:	2802      	cmp	r0, #2
   26a7a:	d01b      	beq.n	26ab4 <_ZN20complex_dynamic_type3app17he0b96e98f14ae7bfE+0x84>
   26a7c:	e003      	b.n	26a86 <_ZN20complex_dynamic_type3app17he0b96e98f14ae7bfE+0x56>
   26a7e:	a907      	add	r1, sp, #28
   26a80:	700c      	strb	r4, [r1, #0]
   26a82:	2802      	cmp	r0, #2
   26a84:	d016      	beq.n	26ab4 <_ZN20complex_dynamic_type3app17he0b96e98f14ae7bfE+0x84>
   26a86:	a81c      	add	r0, sp, #112	@ 0x70
   26a88:	7800      	ldrb	r0, [r0, #0]
   26a8a:	2802      	cmp	r0, #2
   26a8c:	d10e      	bne.n	26aac <_ZN20complex_dynamic_type3app17he0b96e98f14ae7bfE+0x7c>
   26a8e:	2403      	movs	r4, #3
   26a90:	9803      	ldr	r0, [sp, #12]
   26a92:	9000      	str	r0, [sp, #0]
   26a94:	9401      	str	r4, [sp, #4]
   26a96:	a823      	add	r0, sp, #140	@ 0x8c
   26a98:	2202      	movs	r2, #2
   26a9a:	4631      	mov	r1, r6
   26a9c:	9b05      	ldr	r3, [sp, #20]
   26a9e:	f004 fbfc 	bl	2b29a <_ZN9allow_pin13dynamic_allow17h8bfd3764c146b81aE>
   26aa2:	9823      	ldr	r0, [sp, #140]	@ 0x8c
   26aa4:	2802      	cmp	r0, #2
   26aa6:	d113      	bne.n	26ad0 <_ZN20complex_dynamic_type3app17he0b96e98f14ae7bfE+0xa0>
   26aa8:	9924      	ldr	r1, [sp, #144]	@ 0x90
   26aaa:	e000      	b.n	26aae <_ZN20complex_dynamic_type3app17he0b96e98f14ae7bfE+0x7e>
   26aac:	2103      	movs	r1, #3
   26aae:	4628      	mov	r0, r5
   26ab0:	2800      	cmp	r0, #0
   26ab2:	d012      	beq.n	26ada <_ZN20complex_dynamic_type3app17he0b96e98f14ae7bfE+0xaa>
   26ab4:	462c      	mov	r4, r5
   26ab6:	2c00      	cmp	r4, #0
   26ab8:	d031      	beq.n	26b1e <_ZN20complex_dynamic_type3app17he0b96e98f14ae7bfE+0xee>
   26aba:	2001      	movs	r0, #1
   26abc:	9a06      	ldr	r2, [sp, #24]
   26abe:	7010      	strb	r0, [r2, #0]
   26ac0:	6051      	str	r1, [r2, #4]
   26ac2:	a81c      	add	r0, sp, #112	@ 0x70
   26ac4:	7802      	ldrb	r2, [r0, #0]
   26ac6:	2a02      	cmp	r2, #2
   26ac8:	d03e      	beq.n	26b48 <_ZN20complex_dynamic_type3app17he0b96e98f14ae7bfE+0x118>
   26aca:	2102      	movs	r1, #2
   26acc:	4630      	mov	r0, r6
   26ace:	e039      	b.n	26b44 <_ZN20complex_dynamic_type3app17he0b96e98f14ae7bfE+0x114>
   26ad0:	a81c      	add	r0, sp, #112	@ 0x70
   26ad2:	7004      	strb	r4, [r0, #0]
   26ad4:	2000      	movs	r0, #0
   26ad6:	2800      	cmp	r0, #0
   26ad8:	d1ec      	bne.n	26ab4 <_ZN20complex_dynamic_type3app17he0b96e98f14ae7bfE+0x84>
   26ada:	4820      	ldr	r0, [pc, #128]	@ (26b5c <_ZN20complex_dynamic_type3app17he0b96e98f14ae7bfE+0x12c>)
   26adc:	2101      	movs	r1, #1
   26ade:	2202      	movs	r2, #2
   26ae0:	2400      	movs	r4, #0
   26ae2:	4616      	mov	r6, r2
   26ae4:	4623      	mov	r3, r4
   26ae6:	df02      	svc	2
   26ae8:	287f      	cmp	r0, #127	@ 0x7f
   26aea:	d801      	bhi.n	26af0 <_ZN20complex_dynamic_type3app17he0b96e98f14ae7bfE+0xc0>
   26aec:	462c      	mov	r4, r5
   26aee:	e013      	b.n	26b18 <_ZN20complex_dynamic_type3app17he0b96e98f14ae7bfE+0xe8>
   26af0:	a807      	add	r0, sp, #28
   26af2:	7802      	ldrb	r2, [r0, #0]
   26af4:	2a02      	cmp	r2, #2
   26af6:	d003      	beq.n	26b00 <_ZN20complex_dynamic_type3app17he0b96e98f14ae7bfE+0xd0>
   26af8:	2101      	movs	r1, #1
   26afa:	4818      	ldr	r0, [pc, #96]	@ (26b5c <_ZN20complex_dynamic_type3app17he0b96e98f14ae7bfE+0x12c>)
   26afc:	f004 fbc0 	bl	2b280 <_ZN9allow_pin12dynamic_type7unshare17h19052c50f9e150aeE>
   26b00:	a807      	add	r0, sp, #28
   26b02:	7006      	strb	r6, [r0, #0]
   26b04:	a81c      	add	r0, sp, #112	@ 0x70
   26b06:	7802      	ldrb	r2, [r0, #0]
   26b08:	2a02      	cmp	r2, #2
   26b0a:	d003      	beq.n	26b14 <_ZN20complex_dynamic_type3app17he0b96e98f14ae7bfE+0xe4>
   26b0c:	2102      	movs	r1, #2
   26b0e:	4813      	ldr	r0, [pc, #76]	@ (26b5c <_ZN20complex_dynamic_type3app17he0b96e98f14ae7bfE+0x12c>)
   26b10:	f004 fbb6 	bl	2b280 <_ZN9allow_pin12dynamic_type7unshare17h19052c50f9e150aeE>
   26b14:	a81c      	add	r0, sp, #112	@ 0x70
   26b16:	7006      	strb	r6, [r0, #0]
   26b18:	4e10      	ldr	r6, [pc, #64]	@ (26b5c <_ZN20complex_dynamic_type3app17he0b96e98f14ae7bfE+0x12c>)
   26b1a:	2c00      	cmp	r4, #0
   26b1c:	d1cd      	bne.n	26aba <_ZN20complex_dynamic_type3app17he0b96e98f14ae7bfE+0x8a>
   26b1e:	a81c      	add	r0, sp, #112	@ 0x70
   26b20:	7804      	ldrb	r4, [r0, #0]
   26b22:	2c02      	cmp	r4, #2
   26b24:	d001      	beq.n	26b2a <_ZN20complex_dynamic_type3app17he0b96e98f14ae7bfE+0xfa>
   26b26:	480e      	ldr	r0, [pc, #56]	@ (26b60 <_ZN20complex_dynamic_type3app17he0b96e98f14ae7bfE+0x130>)
   26b28:	9005      	str	r0, [sp, #20]
   26b2a:	9d06      	ldr	r5, [sp, #24]
   26b2c:	1c68      	adds	r0, r5, #1
   26b2e:	221b      	movs	r2, #27
   26b30:	9905      	ldr	r1, [sp, #20]
   26b32:	f004 fd8a 	bl	2b64a <__aeabi_memcpy>
   26b36:	2000      	movs	r0, #0
   26b38:	2c02      	cmp	r4, #2
   26b3a:	7028      	strb	r0, [r5, #0]
   26b3c:	d004      	beq.n	26b48 <_ZN20complex_dynamic_type3app17he0b96e98f14ae7bfE+0x118>
   26b3e:	2102      	movs	r1, #2
   26b40:	4630      	mov	r0, r6
   26b42:	4622      	mov	r2, r4
   26b44:	f004 fb9c 	bl	2b280 <_ZN9allow_pin12dynamic_type7unshare17h19052c50f9e150aeE>
   26b48:	a807      	add	r0, sp, #28
   26b4a:	7802      	ldrb	r2, [r0, #0]
   26b4c:	2a02      	cmp	r2, #2
   26b4e:	d003      	beq.n	26b58 <_ZN20complex_dynamic_type3app17he0b96e98f14ae7bfE+0x128>
   26b50:	2101      	movs	r1, #1
   26b52:	4630      	mov	r0, r6
   26b54:	f004 fb94 	bl	2b280 <_ZN9allow_pin12dynamic_type7unshare17h19052c50f9e150aeE>
   26b58:	b027      	add	sp, #156	@ 0x9c
   26b5a:	bdf0      	pop	{r4, r5, r6, r7, pc}
   26b5c:	000003d9 	.word	0x000003d9
   26b60:	000103c4 	.word	0x000103c4

00026b64 <_ZN20complex_dynamic_type3app17he36a43c671c7aea2E>:
   26b64:	b5f0      	push	{r4, r5, r6, r7, lr}
   26b66:	af03      	add	r7, sp, #12
   26b68:	b0ab      	sub	sp, #172	@ 0xac
   26b6a:	9006      	str	r0, [sp, #24]
   26b6c:	a807      	add	r0, sp, #28
   26b6e:	2502      	movs	r5, #2
   26b70:	7005      	strb	r5, [r0, #0]
   26b72:	1c40      	adds	r0, r0, #1
   26b74:	9004      	str	r0, [sp, #16]
   26b76:	261c      	movs	r6, #28
   26b78:	4632      	mov	r2, r6
   26b7a:	f004 fd66 	bl	2b64a <__aeabi_memcpy>
   26b7e:	ac0f      	add	r4, sp, #60	@ 0x3c
   26b80:	1c60      	adds	r0, r4, #1
   26b82:	215d      	movs	r1, #93	@ 0x5d
   26b84:	9005      	str	r0, [sp, #20]
   26b86:	9103      	str	r1, [sp, #12]
   26b88:	f004 fb9f 	bl	2b2ca <__aeabi_memclr>
   26b8c:	9502      	str	r5, [sp, #8]
   26b8e:	7025      	strb	r5, [r4, #0]
   26b90:	2404      	movs	r4, #4
   26b92:	9600      	str	r6, [sp, #0]
   26b94:	9401      	str	r4, [sp, #4]
   26b96:	a827      	add	r0, sp, #156	@ 0x9c
   26b98:	4e3c      	ldr	r6, [pc, #240]	@ (26c8c <_ZN20complex_dynamic_type3app17he36a43c671c7aea2E+0x128>)
   26b9a:	2208      	movs	r2, #8
   26b9c:	4631      	mov	r1, r6
   26b9e:	9b04      	ldr	r3, [sp, #16]
   26ba0:	f004 fb7b 	bl	2b29a <_ZN9allow_pin13dynamic_allow17h8bfd3764c146b81aE>
   26ba4:	9827      	ldr	r0, [sp, #156]	@ 0x9c
   26ba6:	2802      	cmp	r0, #2
   26ba8:	d101      	bne.n	26bae <_ZN20complex_dynamic_type3app17he36a43c671c7aea2E+0x4a>
   26baa:	9928      	ldr	r1, [sp, #160]	@ 0xa0
   26bac:	e001      	b.n	26bb2 <_ZN20complex_dynamic_type3app17he36a43c671c7aea2E+0x4e>
   26bae:	a907      	add	r1, sp, #28
   26bb0:	700c      	strb	r4, [r1, #0]
   26bb2:	2501      	movs	r5, #1
   26bb4:	2802      	cmp	r0, #2
   26bb6:	d024      	beq.n	26c02 <_ZN20complex_dynamic_type3app17he36a43c671c7aea2E+0x9e>
   26bb8:	a80f      	add	r0, sp, #60	@ 0x3c
   26bba:	7800      	ldrb	r0, [r0, #0]
   26bbc:	2802      	cmp	r0, #2
   26bbe:	d10e      	bne.n	26bde <_ZN20complex_dynamic_type3app17he36a43c671c7aea2E+0x7a>
   26bc0:	2403      	movs	r4, #3
   26bc2:	9803      	ldr	r0, [sp, #12]
   26bc4:	9000      	str	r0, [sp, #0]
   26bc6:	9401      	str	r4, [sp, #4]
   26bc8:	a827      	add	r0, sp, #156	@ 0x9c
   26bca:	2205      	movs	r2, #5
   26bcc:	4631      	mov	r1, r6
   26bce:	9b05      	ldr	r3, [sp, #20]
   26bd0:	f004 fb63 	bl	2b29a <_ZN9allow_pin13dynamic_allow17h8bfd3764c146b81aE>
   26bd4:	9827      	ldr	r0, [sp, #156]	@ 0x9c
   26bd6:	2802      	cmp	r0, #2
   26bd8:	d106      	bne.n	26be8 <_ZN20complex_dynamic_type3app17he36a43c671c7aea2E+0x84>
   26bda:	9928      	ldr	r1, [sp, #160]	@ 0xa0
   26bdc:	e000      	b.n	26be0 <_ZN20complex_dynamic_type3app17he36a43c671c7aea2E+0x7c>
   26bde:	2103      	movs	r1, #3
   26be0:	4628      	mov	r0, r5
   26be2:	2800      	cmp	r0, #0
   26be4:	d005      	beq.n	26bf2 <_ZN20complex_dynamic_type3app17he36a43c671c7aea2E+0x8e>
   26be6:	e00c      	b.n	26c02 <_ZN20complex_dynamic_type3app17he36a43c671c7aea2E+0x9e>
   26be8:	a80f      	add	r0, sp, #60	@ 0x3c
   26bea:	7004      	strb	r4, [r0, #0]
   26bec:	2000      	movs	r0, #0
   26bee:	2800      	cmp	r0, #0
   26bf0:	d107      	bne.n	26c02 <_ZN20complex_dynamic_type3app17he36a43c671c7aea2E+0x9e>
   26bf2:	4826      	ldr	r0, [pc, #152]	@ (26c8c <_ZN20complex_dynamic_type3app17he36a43c671c7aea2E+0x128>)
   26bf4:	2108      	movs	r1, #8
   26bf6:	2205      	movs	r2, #5
   26bf8:	2400      	movs	r4, #0
   26bfa:	4623      	mov	r3, r4
   26bfc:	df02      	svc	2
   26bfe:	287f      	cmp	r0, #127	@ 0x7f
   26c00:	d80d      	bhi.n	26c1e <_ZN20complex_dynamic_type3app17he36a43c671c7aea2E+0xba>
   26c02:	462c      	mov	r4, r5
   26c04:	2c00      	cmp	r4, #0
   26c06:	d021      	beq.n	26c4c <_ZN20complex_dynamic_type3app17he36a43c671c7aea2E+0xe8>
   26c08:	2001      	movs	r0, #1
   26c0a:	9a06      	ldr	r2, [sp, #24]
   26c0c:	7010      	strb	r0, [r2, #0]
   26c0e:	6051      	str	r1, [r2, #4]
   26c10:	a80f      	add	r0, sp, #60	@ 0x3c
   26c12:	7802      	ldrb	r2, [r0, #0]
   26c14:	2a02      	cmp	r2, #2
   26c16:	d02e      	beq.n	26c76 <_ZN20complex_dynamic_type3app17he36a43c671c7aea2E+0x112>
   26c18:	2105      	movs	r1, #5
   26c1a:	4630      	mov	r0, r6
   26c1c:	e029      	b.n	26c72 <_ZN20complex_dynamic_type3app17he36a43c671c7aea2E+0x10e>
   26c1e:	a807      	add	r0, sp, #28
   26c20:	7802      	ldrb	r2, [r0, #0]
   26c22:	2a02      	cmp	r2, #2
   26c24:	d003      	beq.n	26c2e <_ZN20complex_dynamic_type3app17he36a43c671c7aea2E+0xca>
   26c26:	2108      	movs	r1, #8
   26c28:	4630      	mov	r0, r6
   26c2a:	f004 fb29 	bl	2b280 <_ZN9allow_pin12dynamic_type7unshare17h19052c50f9e150aeE>
   26c2e:	a807      	add	r0, sp, #28
   26c30:	9d02      	ldr	r5, [sp, #8]
   26c32:	7005      	strb	r5, [r0, #0]
   26c34:	a80f      	add	r0, sp, #60	@ 0x3c
   26c36:	7802      	ldrb	r2, [r0, #0]
   26c38:	2a02      	cmp	r2, #2
   26c3a:	d003      	beq.n	26c44 <_ZN20complex_dynamic_type3app17he36a43c671c7aea2E+0xe0>
   26c3c:	2105      	movs	r1, #5
   26c3e:	4630      	mov	r0, r6
   26c40:	f004 fb1e 	bl	2b280 <_ZN9allow_pin12dynamic_type7unshare17h19052c50f9e150aeE>
   26c44:	a80f      	add	r0, sp, #60	@ 0x3c
   26c46:	7005      	strb	r5, [r0, #0]
   26c48:	2c00      	cmp	r4, #0
   26c4a:	d1dd      	bne.n	26c08 <_ZN20complex_dynamic_type3app17he36a43c671c7aea2E+0xa4>
   26c4c:	a80f      	add	r0, sp, #60	@ 0x3c
   26c4e:	7804      	ldrb	r4, [r0, #0]
   26c50:	2c02      	cmp	r4, #2
   26c52:	d001      	beq.n	26c58 <_ZN20complex_dynamic_type3app17he36a43c671c7aea2E+0xf4>
   26c54:	480e      	ldr	r0, [pc, #56]	@ (26c90 <_ZN20complex_dynamic_type3app17he36a43c671c7aea2E+0x12c>)
   26c56:	9005      	str	r0, [sp, #20]
   26c58:	9d06      	ldr	r5, [sp, #24]
   26c5a:	1c68      	adds	r0, r5, #1
   26c5c:	225d      	movs	r2, #93	@ 0x5d
   26c5e:	9905      	ldr	r1, [sp, #20]
   26c60:	f004 fcf3 	bl	2b64a <__aeabi_memcpy>
   26c64:	2000      	movs	r0, #0
   26c66:	2c02      	cmp	r4, #2
   26c68:	7028      	strb	r0, [r5, #0]
   26c6a:	d004      	beq.n	26c76 <_ZN20complex_dynamic_type3app17he36a43c671c7aea2E+0x112>
   26c6c:	2105      	movs	r1, #5
   26c6e:	4630      	mov	r0, r6
   26c70:	4622      	mov	r2, r4
   26c72:	f004 fb05 	bl	2b280 <_ZN9allow_pin12dynamic_type7unshare17h19052c50f9e150aeE>
   26c76:	a807      	add	r0, sp, #28
   26c78:	7802      	ldrb	r2, [r0, #0]
   26c7a:	2a02      	cmp	r2, #2
   26c7c:	d003      	beq.n	26c86 <_ZN20complex_dynamic_type3app17he36a43c671c7aea2E+0x122>
   26c7e:	2108      	movs	r1, #8
   26c80:	4630      	mov	r0, r6
   26c82:	f004 fafd 	bl	2b280 <_ZN9allow_pin12dynamic_type7unshare17h19052c50f9e150aeE>
   26c86:	b02b      	add	sp, #172	@ 0xac
   26c88:	bdf0      	pop	{r4, r5, r6, r7, pc}
   26c8a:	46c0      	nop			@ (mov r8, r8)
   26c8c:	00000c3e 	.word	0x00000c3e
   26c90:	0001096d 	.word	0x0001096d

00026c94 <_ZN20complex_dynamic_type3app17he5c76f5b720d3a43E>:
   26c94:	b5f0      	push	{r4, r5, r6, r7, lr}
   26c96:	af03      	add	r7, sp, #12
   26c98:	b09f      	sub	sp, #124	@ 0x7c
   26c9a:	9007      	str	r0, [sp, #28]
   26c9c:	a808      	add	r0, sp, #32
   26c9e:	2602      	movs	r6, #2
   26ca0:	7006      	strb	r6, [r0, #0]
   26ca2:	1c40      	adds	r0, r0, #1
   26ca4:	9005      	str	r0, [sp, #20]
   26ca6:	2510      	movs	r5, #16
   26ca8:	462a      	mov	r2, r5
   26caa:	f004 fcce 	bl	2b64a <__aeabi_memcpy>
   26cae:	ac0d      	add	r4, sp, #52	@ 0x34
   26cb0:	1c60      	adds	r0, r4, #1
   26cb2:	2136      	movs	r1, #54	@ 0x36
   26cb4:	9006      	str	r0, [sp, #24]
   26cb6:	9104      	str	r1, [sp, #16]
   26cb8:	f004 fb07 	bl	2b2ca <__aeabi_memclr>
   26cbc:	9603      	str	r6, [sp, #12]
   26cbe:	7026      	strb	r6, [r4, #0]
   26cc0:	2404      	movs	r4, #4
   26cc2:	9500      	str	r5, [sp, #0]
   26cc4:	9401      	str	r4, [sp, #4]
   26cc6:	a81b      	add	r0, sp, #108	@ 0x6c
   26cc8:	493c      	ldr	r1, [pc, #240]	@ (26dbc <_ZN20complex_dynamic_type3app17he5c76f5b720d3a43E+0x128>)
   26cca:	2501      	movs	r5, #1
   26ccc:	462a      	mov	r2, r5
   26cce:	9b05      	ldr	r3, [sp, #20]
   26cd0:	f004 fae3 	bl	2b29a <_ZN9allow_pin13dynamic_allow17h8bfd3764c146b81aE>
   26cd4:	981b      	ldr	r0, [sp, #108]	@ 0x6c
   26cd6:	2802      	cmp	r0, #2
   26cd8:	d101      	bne.n	26cde <_ZN20complex_dynamic_type3app17he5c76f5b720d3a43E+0x4a>
   26cda:	991c      	ldr	r1, [sp, #112]	@ 0x70
   26cdc:	e001      	b.n	26ce2 <_ZN20complex_dynamic_type3app17he5c76f5b720d3a43E+0x4e>
   26cde:	a908      	add	r1, sp, #32
   26ce0:	700c      	strb	r4, [r1, #0]
   26ce2:	2802      	cmp	r0, #2
   26ce4:	4e35      	ldr	r6, [pc, #212]	@ (26dbc <_ZN20complex_dynamic_type3app17he5c76f5b720d3a43E+0x128>)
   26ce6:	d024      	beq.n	26d32 <_ZN20complex_dynamic_type3app17he5c76f5b720d3a43E+0x9e>
   26ce8:	a80d      	add	r0, sp, #52	@ 0x34
   26cea:	7800      	ldrb	r0, [r0, #0]
   26cec:	2802      	cmp	r0, #2
   26cee:	d10e      	bne.n	26d0e <_ZN20complex_dynamic_type3app17he5c76f5b720d3a43E+0x7a>
   26cf0:	2403      	movs	r4, #3
   26cf2:	9804      	ldr	r0, [sp, #16]
   26cf4:	9000      	str	r0, [sp, #0]
   26cf6:	9401      	str	r4, [sp, #4]
   26cf8:	a81b      	add	r0, sp, #108	@ 0x6c
   26cfa:	2207      	movs	r2, #7
   26cfc:	4631      	mov	r1, r6
   26cfe:	9b06      	ldr	r3, [sp, #24]
   26d00:	f004 facb 	bl	2b29a <_ZN9allow_pin13dynamic_allow17h8bfd3764c146b81aE>
   26d04:	981b      	ldr	r0, [sp, #108]	@ 0x6c
   26d06:	2802      	cmp	r0, #2
   26d08:	d106      	bne.n	26d18 <_ZN20complex_dynamic_type3app17he5c76f5b720d3a43E+0x84>
   26d0a:	991c      	ldr	r1, [sp, #112]	@ 0x70
   26d0c:	e000      	b.n	26d10 <_ZN20complex_dynamic_type3app17he5c76f5b720d3a43E+0x7c>
   26d0e:	2103      	movs	r1, #3
   26d10:	4628      	mov	r0, r5
   26d12:	2800      	cmp	r0, #0
   26d14:	d005      	beq.n	26d22 <_ZN20complex_dynamic_type3app17he5c76f5b720d3a43E+0x8e>
   26d16:	e00c      	b.n	26d32 <_ZN20complex_dynamic_type3app17he5c76f5b720d3a43E+0x9e>
   26d18:	a80d      	add	r0, sp, #52	@ 0x34
   26d1a:	7004      	strb	r4, [r0, #0]
   26d1c:	2000      	movs	r0, #0
   26d1e:	2800      	cmp	r0, #0
   26d20:	d107      	bne.n	26d32 <_ZN20complex_dynamic_type3app17he5c76f5b720d3a43E+0x9e>
   26d22:	4826      	ldr	r0, [pc, #152]	@ (26dbc <_ZN20complex_dynamic_type3app17he5c76f5b720d3a43E+0x128>)
   26d24:	2101      	movs	r1, #1
   26d26:	2207      	movs	r2, #7
   26d28:	2400      	movs	r4, #0
   26d2a:	4623      	mov	r3, r4
   26d2c:	df02      	svc	2
   26d2e:	287f      	cmp	r0, #127	@ 0x7f
   26d30:	d80d      	bhi.n	26d4e <_ZN20complex_dynamic_type3app17he5c76f5b720d3a43E+0xba>
   26d32:	462c      	mov	r4, r5
   26d34:	2c00      	cmp	r4, #0
   26d36:	d021      	beq.n	26d7c <_ZN20complex_dynamic_type3app17he5c76f5b720d3a43E+0xe8>
   26d38:	2001      	movs	r0, #1
   26d3a:	9a07      	ldr	r2, [sp, #28]
   26d3c:	7010      	strb	r0, [r2, #0]
   26d3e:	6051      	str	r1, [r2, #4]
   26d40:	a80d      	add	r0, sp, #52	@ 0x34
   26d42:	7802      	ldrb	r2, [r0, #0]
   26d44:	2a02      	cmp	r2, #2
   26d46:	d02e      	beq.n	26da6 <_ZN20complex_dynamic_type3app17he5c76f5b720d3a43E+0x112>
   26d48:	2107      	movs	r1, #7
   26d4a:	4630      	mov	r0, r6
   26d4c:	e029      	b.n	26da2 <_ZN20complex_dynamic_type3app17he5c76f5b720d3a43E+0x10e>
   26d4e:	a808      	add	r0, sp, #32
   26d50:	7802      	ldrb	r2, [r0, #0]
   26d52:	2a02      	cmp	r2, #2
   26d54:	d003      	beq.n	26d5e <_ZN20complex_dynamic_type3app17he5c76f5b720d3a43E+0xca>
   26d56:	2101      	movs	r1, #1
   26d58:	4630      	mov	r0, r6
   26d5a:	f004 fa91 	bl	2b280 <_ZN9allow_pin12dynamic_type7unshare17h19052c50f9e150aeE>
   26d5e:	a808      	add	r0, sp, #32
   26d60:	9d03      	ldr	r5, [sp, #12]
   26d62:	7005      	strb	r5, [r0, #0]
   26d64:	a80d      	add	r0, sp, #52	@ 0x34
   26d66:	7802      	ldrb	r2, [r0, #0]
   26d68:	2a02      	cmp	r2, #2
   26d6a:	d003      	beq.n	26d74 <_ZN20complex_dynamic_type3app17he5c76f5b720d3a43E+0xe0>
   26d6c:	2107      	movs	r1, #7
   26d6e:	4630      	mov	r0, r6
   26d70:	f004 fa86 	bl	2b280 <_ZN9allow_pin12dynamic_type7unshare17h19052c50f9e150aeE>
   26d74:	a80d      	add	r0, sp, #52	@ 0x34
   26d76:	7005      	strb	r5, [r0, #0]
   26d78:	2c00      	cmp	r4, #0
   26d7a:	d1dd      	bne.n	26d38 <_ZN20complex_dynamic_type3app17he5c76f5b720d3a43E+0xa4>
   26d7c:	a80d      	add	r0, sp, #52	@ 0x34
   26d7e:	7804      	ldrb	r4, [r0, #0]
   26d80:	2c02      	cmp	r4, #2
   26d82:	d001      	beq.n	26d88 <_ZN20complex_dynamic_type3app17he5c76f5b720d3a43E+0xf4>
   26d84:	480e      	ldr	r0, [pc, #56]	@ (26dc0 <_ZN20complex_dynamic_type3app17he5c76f5b720d3a43E+0x12c>)
   26d86:	9006      	str	r0, [sp, #24]
   26d88:	9d07      	ldr	r5, [sp, #28]
   26d8a:	1c68      	adds	r0, r5, #1
   26d8c:	2236      	movs	r2, #54	@ 0x36
   26d8e:	9906      	ldr	r1, [sp, #24]
   26d90:	f004 fc5b 	bl	2b64a <__aeabi_memcpy>
   26d94:	2000      	movs	r0, #0
   26d96:	2c02      	cmp	r4, #2
   26d98:	7028      	strb	r0, [r5, #0]
   26d9a:	d004      	beq.n	26da6 <_ZN20complex_dynamic_type3app17he5c76f5b720d3a43E+0x112>
   26d9c:	2107      	movs	r1, #7
   26d9e:	4630      	mov	r0, r6
   26da0:	4622      	mov	r2, r4
   26da2:	f004 fa6d 	bl	2b280 <_ZN9allow_pin12dynamic_type7unshare17h19052c50f9e150aeE>
   26da6:	a808      	add	r0, sp, #32
   26da8:	7802      	ldrb	r2, [r0, #0]
   26daa:	2a02      	cmp	r2, #2
   26dac:	d003      	beq.n	26db6 <_ZN20complex_dynamic_type3app17he5c76f5b720d3a43E+0x122>
   26dae:	2101      	movs	r1, #1
   26db0:	4630      	mov	r0, r6
   26db2:	f004 fa65 	bl	2b280 <_ZN9allow_pin12dynamic_type7unshare17h19052c50f9e150aeE>
   26db6:	b01f      	add	sp, #124	@ 0x7c
   26db8:	bdf0      	pop	{r4, r5, r6, r7, pc}
   26dba:	46c0      	nop			@ (mov r8, r8)
   26dbc:	00001989 	.word	0x00001989
   26dc0:	0001038e 	.word	0x0001038e

00026dc4 <_ZN20complex_dynamic_type3app17he7b91582ff896ce2E>:
   26dc4:	b5f0      	push	{r4, r5, r6, r7, lr}
   26dc6:	af03      	add	r7, sp, #12
   26dc8:	b0a5      	sub	sp, #148	@ 0x94
   26dca:	9006      	str	r0, [sp, #24]
   26dcc:	a807      	add	r0, sp, #28
   26dce:	2502      	movs	r5, #2
   26dd0:	7005      	strb	r5, [r0, #0]
   26dd2:	1c40      	adds	r0, r0, #1
   26dd4:	9004      	str	r0, [sp, #16]
   26dd6:	2611      	movs	r6, #17
   26dd8:	4632      	mov	r2, r6
   26dda:	f004 fc36 	bl	2b64a <__aeabi_memcpy>
   26dde:	ac0c      	add	r4, sp, #48	@ 0x30
   26de0:	1c60      	adds	r0, r4, #1
   26de2:	2150      	movs	r1, #80	@ 0x50
   26de4:	9005      	str	r0, [sp, #20]
   26de6:	9103      	str	r1, [sp, #12]
   26de8:	f004 fa6f 	bl	2b2ca <__aeabi_memclr>
   26dec:	9502      	str	r5, [sp, #8]
   26dee:	7025      	strb	r5, [r4, #0]
   26df0:	2404      	movs	r4, #4
   26df2:	9600      	str	r6, [sp, #0]
   26df4:	9401      	str	r4, [sp, #4]
   26df6:	a821      	add	r0, sp, #132	@ 0x84
   26df8:	4e3c      	ldr	r6, [pc, #240]	@ (26eec <_ZN20complex_dynamic_type3app17he7b91582ff896ce2E+0x128>)
   26dfa:	2206      	movs	r2, #6
   26dfc:	4631      	mov	r1, r6
   26dfe:	9b04      	ldr	r3, [sp, #16]
   26e00:	f004 fa4b 	bl	2b29a <_ZN9allow_pin13dynamic_allow17h8bfd3764c146b81aE>
   26e04:	9821      	ldr	r0, [sp, #132]	@ 0x84
   26e06:	2802      	cmp	r0, #2
   26e08:	d101      	bne.n	26e0e <_ZN20complex_dynamic_type3app17he7b91582ff896ce2E+0x4a>
   26e0a:	9922      	ldr	r1, [sp, #136]	@ 0x88
   26e0c:	e001      	b.n	26e12 <_ZN20complex_dynamic_type3app17he7b91582ff896ce2E+0x4e>
   26e0e:	a907      	add	r1, sp, #28
   26e10:	700c      	strb	r4, [r1, #0]
   26e12:	2501      	movs	r5, #1
   26e14:	2802      	cmp	r0, #2
   26e16:	d024      	beq.n	26e62 <_ZN20complex_dynamic_type3app17he7b91582ff896ce2E+0x9e>
   26e18:	a80c      	add	r0, sp, #48	@ 0x30
   26e1a:	7800      	ldrb	r0, [r0, #0]
   26e1c:	2802      	cmp	r0, #2
   26e1e:	d10e      	bne.n	26e3e <_ZN20complex_dynamic_type3app17he7b91582ff896ce2E+0x7a>
   26e20:	2403      	movs	r4, #3
   26e22:	9803      	ldr	r0, [sp, #12]
   26e24:	9000      	str	r0, [sp, #0]
   26e26:	9401      	str	r4, [sp, #4]
   26e28:	a821      	add	r0, sp, #132	@ 0x84
   26e2a:	2205      	movs	r2, #5
   26e2c:	4631      	mov	r1, r6
   26e2e:	9b05      	ldr	r3, [sp, #20]
   26e30:	f004 fa33 	bl	2b29a <_ZN9allow_pin13dynamic_allow17h8bfd3764c146b81aE>
   26e34:	9821      	ldr	r0, [sp, #132]	@ 0x84
   26e36:	2802      	cmp	r0, #2
   26e38:	d106      	bne.n	26e48 <_ZN20complex_dynamic_type3app17he7b91582ff896ce2E+0x84>
   26e3a:	9922      	ldr	r1, [sp, #136]	@ 0x88
   26e3c:	e000      	b.n	26e40 <_ZN20complex_dynamic_type3app17he7b91582ff896ce2E+0x7c>
   26e3e:	2103      	movs	r1, #3
   26e40:	4628      	mov	r0, r5
   26e42:	2800      	cmp	r0, #0
   26e44:	d005      	beq.n	26e52 <_ZN20complex_dynamic_type3app17he7b91582ff896ce2E+0x8e>
   26e46:	e00c      	b.n	26e62 <_ZN20complex_dynamic_type3app17he7b91582ff896ce2E+0x9e>
   26e48:	a80c      	add	r0, sp, #48	@ 0x30
   26e4a:	7004      	strb	r4, [r0, #0]
   26e4c:	2000      	movs	r0, #0
   26e4e:	2800      	cmp	r0, #0
   26e50:	d107      	bne.n	26e62 <_ZN20complex_dynamic_type3app17he7b91582ff896ce2E+0x9e>
   26e52:	4826      	ldr	r0, [pc, #152]	@ (26eec <_ZN20complex_dynamic_type3app17he7b91582ff896ce2E+0x128>)
   26e54:	2106      	movs	r1, #6
   26e56:	2205      	movs	r2, #5
   26e58:	2400      	movs	r4, #0
   26e5a:	4623      	mov	r3, r4
   26e5c:	df02      	svc	2
   26e5e:	287f      	cmp	r0, #127	@ 0x7f
   26e60:	d80d      	bhi.n	26e7e <_ZN20complex_dynamic_type3app17he7b91582ff896ce2E+0xba>
   26e62:	462c      	mov	r4, r5
   26e64:	2c00      	cmp	r4, #0
   26e66:	d021      	beq.n	26eac <_ZN20complex_dynamic_type3app17he7b91582ff896ce2E+0xe8>
   26e68:	2001      	movs	r0, #1
   26e6a:	9a06      	ldr	r2, [sp, #24]
   26e6c:	7010      	strb	r0, [r2, #0]
   26e6e:	6051      	str	r1, [r2, #4]
   26e70:	a80c      	add	r0, sp, #48	@ 0x30
   26e72:	7802      	ldrb	r2, [r0, #0]
   26e74:	2a02      	cmp	r2, #2
   26e76:	d02e      	beq.n	26ed6 <_ZN20complex_dynamic_type3app17he7b91582ff896ce2E+0x112>
   26e78:	2105      	movs	r1, #5
   26e7a:	4630      	mov	r0, r6
   26e7c:	e029      	b.n	26ed2 <_ZN20complex_dynamic_type3app17he7b91582ff896ce2E+0x10e>
   26e7e:	a807      	add	r0, sp, #28
   26e80:	7802      	ldrb	r2, [r0, #0]
   26e82:	2a02      	cmp	r2, #2
   26e84:	d003      	beq.n	26e8e <_ZN20complex_dynamic_type3app17he7b91582ff896ce2E+0xca>
   26e86:	2106      	movs	r1, #6
   26e88:	4630      	mov	r0, r6
   26e8a:	f004 f9f9 	bl	2b280 <_ZN9allow_pin12dynamic_type7unshare17h19052c50f9e150aeE>
   26e8e:	a807      	add	r0, sp, #28
   26e90:	9d02      	ldr	r5, [sp, #8]
   26e92:	7005      	strb	r5, [r0, #0]
   26e94:	a80c      	add	r0, sp, #48	@ 0x30
   26e96:	7802      	ldrb	r2, [r0, #0]
   26e98:	2a02      	cmp	r2, #2
   26e9a:	d003      	beq.n	26ea4 <_ZN20complex_dynamic_type3app17he7b91582ff896ce2E+0xe0>
   26e9c:	2105      	movs	r1, #5
   26e9e:	4630      	mov	r0, r6
   26ea0:	f004 f9ee 	bl	2b280 <_ZN9allow_pin12dynamic_type7unshare17h19052c50f9e150aeE>
   26ea4:	a80c      	add	r0, sp, #48	@ 0x30
   26ea6:	7005      	strb	r5, [r0, #0]
   26ea8:	2c00      	cmp	r4, #0
   26eaa:	d1dd      	bne.n	26e68 <_ZN20complex_dynamic_type3app17he7b91582ff896ce2E+0xa4>
   26eac:	a80c      	add	r0, sp, #48	@ 0x30
   26eae:	7804      	ldrb	r4, [r0, #0]
   26eb0:	2c02      	cmp	r4, #2
   26eb2:	d001      	beq.n	26eb8 <_ZN20complex_dynamic_type3app17he7b91582ff896ce2E+0xf4>
   26eb4:	480e      	ldr	r0, [pc, #56]	@ (26ef0 <_ZN20complex_dynamic_type3app17he7b91582ff896ce2E+0x12c>)
   26eb6:	9005      	str	r0, [sp, #20]
   26eb8:	9d06      	ldr	r5, [sp, #24]
   26eba:	1c68      	adds	r0, r5, #1
   26ebc:	2250      	movs	r2, #80	@ 0x50
   26ebe:	9905      	ldr	r1, [sp, #20]
   26ec0:	f004 fbc3 	bl	2b64a <__aeabi_memcpy>
   26ec4:	2000      	movs	r0, #0
   26ec6:	2c02      	cmp	r4, #2
   26ec8:	7028      	strb	r0, [r5, #0]
   26eca:	d004      	beq.n	26ed6 <_ZN20complex_dynamic_type3app17he7b91582ff896ce2E+0x112>
   26ecc:	2105      	movs	r1, #5
   26ece:	4630      	mov	r0, r6
   26ed0:	4622      	mov	r2, r4
   26ed2:	f004 f9d5 	bl	2b280 <_ZN9allow_pin12dynamic_type7unshare17h19052c50f9e150aeE>
   26ed6:	a807      	add	r0, sp, #28
   26ed8:	7802      	ldrb	r2, [r0, #0]
   26eda:	2a02      	cmp	r2, #2
   26edc:	d003      	beq.n	26ee6 <_ZN20complex_dynamic_type3app17he7b91582ff896ce2E+0x122>
   26ede:	2106      	movs	r1, #6
   26ee0:	4630      	mov	r0, r6
   26ee2:	f004 f9cd 	bl	2b280 <_ZN9allow_pin12dynamic_type7unshare17h19052c50f9e150aeE>
   26ee6:	b025      	add	sp, #148	@ 0x94
   26ee8:	bdf0      	pop	{r4, r5, r6, r7, pc}
   26eea:	46c0      	nop			@ (mov r8, r8)
   26eec:	00001aa9 	.word	0x00001aa9
   26ef0:	00010899 	.word	0x00010899

00026ef4 <_ZN20complex_dynamic_type3app17he8f3f63dc57d7cd7E>:
   26ef4:	b5f0      	push	{r4, r5, r6, r7, lr}
   26ef6:	af03      	add	r7, sp, #12
   26ef8:	b09f      	sub	sp, #124	@ 0x7c
   26efa:	9006      	str	r0, [sp, #24]
   26efc:	a807      	add	r0, sp, #28
   26efe:	2502      	movs	r5, #2
   26f00:	7005      	strb	r5, [r0, #0]
   26f02:	1c40      	adds	r0, r0, #1
   26f04:	9004      	str	r0, [sp, #16]
   26f06:	261e      	movs	r6, #30
   26f08:	4632      	mov	r2, r6
   26f0a:	f004 fb9e 	bl	2b64a <__aeabi_memcpy>
   26f0e:	ac0f      	add	r4, sp, #60	@ 0x3c
   26f10:	1c60      	adds	r0, r4, #1
   26f12:	212c      	movs	r1, #44	@ 0x2c
   26f14:	9005      	str	r0, [sp, #20]
   26f16:	9103      	str	r1, [sp, #12]
   26f18:	f004 f9d7 	bl	2b2ca <__aeabi_memclr>
   26f1c:	9502      	str	r5, [sp, #8]
   26f1e:	7025      	strb	r5, [r4, #0]
   26f20:	2404      	movs	r4, #4
   26f22:	9600      	str	r6, [sp, #0]
   26f24:	9401      	str	r4, [sp, #4]
   26f26:	a81b      	add	r0, sp, #108	@ 0x6c
   26f28:	4e3d      	ldr	r6, [pc, #244]	@ (27020 <_ZN20complex_dynamic_type3app17he8f3f63dc57d7cd7E+0x12c>)
   26f2a:	2207      	movs	r2, #7
   26f2c:	4631      	mov	r1, r6
   26f2e:	9b04      	ldr	r3, [sp, #16]
   26f30:	f004 f9b3 	bl	2b29a <_ZN9allow_pin13dynamic_allow17h8bfd3764c146b81aE>
   26f34:	981b      	ldr	r0, [sp, #108]	@ 0x6c
   26f36:	2802      	cmp	r0, #2
   26f38:	d101      	bne.n	26f3e <_ZN20complex_dynamic_type3app17he8f3f63dc57d7cd7E+0x4a>
   26f3a:	991c      	ldr	r1, [sp, #112]	@ 0x70
   26f3c:	e001      	b.n	26f42 <_ZN20complex_dynamic_type3app17he8f3f63dc57d7cd7E+0x4e>
   26f3e:	a907      	add	r1, sp, #28
   26f40:	700c      	strb	r4, [r1, #0]
   26f42:	2501      	movs	r5, #1
   26f44:	2802      	cmp	r0, #2
   26f46:	d10d      	bne.n	26f64 <_ZN20complex_dynamic_type3app17he8f3f63dc57d7cd7E+0x70>
   26f48:	462c      	mov	r4, r5
   26f4a:	2c00      	cmp	r4, #0
   26f4c:	d048      	beq.n	26fe0 <_ZN20complex_dynamic_type3app17he8f3f63dc57d7cd7E+0xec>
   26f4e:	2001      	movs	r0, #1
   26f50:	9a06      	ldr	r2, [sp, #24]
   26f52:	7010      	strb	r0, [r2, #0]
   26f54:	6051      	str	r1, [r2, #4]
   26f56:	a80f      	add	r0, sp, #60	@ 0x3c
   26f58:	7802      	ldrb	r2, [r0, #0]
   26f5a:	2a02      	cmp	r2, #2
   26f5c:	d055      	beq.n	2700a <_ZN20complex_dynamic_type3app17he8f3f63dc57d7cd7E+0x116>
   26f5e:	2100      	movs	r1, #0
   26f60:	4630      	mov	r0, r6
   26f62:	e050      	b.n	27006 <_ZN20complex_dynamic_type3app17he8f3f63dc57d7cd7E+0x112>
   26f64:	a80f      	add	r0, sp, #60	@ 0x3c
   26f66:	7800      	ldrb	r0, [r0, #0]
   26f68:	2802      	cmp	r0, #2
   26f6a:	d110      	bne.n	26f8e <_ZN20complex_dynamic_type3app17he8f3f63dc57d7cd7E+0x9a>
   26f6c:	4631      	mov	r1, r6
   26f6e:	2603      	movs	r6, #3
   26f70:	9803      	ldr	r0, [sp, #12]
   26f72:	9000      	str	r0, [sp, #0]
   26f74:	9601      	str	r6, [sp, #4]
   26f76:	a81b      	add	r0, sp, #108	@ 0x6c
   26f78:	2400      	movs	r4, #0
   26f7a:	4622      	mov	r2, r4
   26f7c:	9b05      	ldr	r3, [sp, #20]
   26f7e:	f004 f98c 	bl	2b29a <_ZN9allow_pin13dynamic_allow17h8bfd3764c146b81aE>
   26f82:	981b      	ldr	r0, [sp, #108]	@ 0x6c
   26f84:	2802      	cmp	r0, #2
   26f86:	d107      	bne.n	26f98 <_ZN20complex_dynamic_type3app17he8f3f63dc57d7cd7E+0xa4>
   26f88:	991c      	ldr	r1, [sp, #112]	@ 0x70
   26f8a:	462c      	mov	r4, r5
   26f8c:	e006      	b.n	26f9c <_ZN20complex_dynamic_type3app17he8f3f63dc57d7cd7E+0xa8>
   26f8e:	2103      	movs	r1, #3
   26f90:	462c      	mov	r4, r5
   26f92:	2c00      	cmp	r4, #0
   26f94:	d1d8      	bne.n	26f48 <_ZN20complex_dynamic_type3app17he8f3f63dc57d7cd7E+0x54>
   26f96:	e004      	b.n	26fa2 <_ZN20complex_dynamic_type3app17he8f3f63dc57d7cd7E+0xae>
   26f98:	a80f      	add	r0, sp, #60	@ 0x3c
   26f9a:	7006      	strb	r6, [r0, #0]
   26f9c:	4e20      	ldr	r6, [pc, #128]	@ (27020 <_ZN20complex_dynamic_type3app17he8f3f63dc57d7cd7E+0x12c>)
   26f9e:	2c00      	cmp	r4, #0
   26fa0:	d1d2      	bne.n	26f48 <_ZN20complex_dynamic_type3app17he8f3f63dc57d7cd7E+0x54>
   26fa2:	481f      	ldr	r0, [pc, #124]	@ (27020 <_ZN20complex_dynamic_type3app17he8f3f63dc57d7cd7E+0x12c>)
   26fa4:	2107      	movs	r1, #7
   26fa6:	2400      	movs	r4, #0
   26fa8:	4622      	mov	r2, r4
   26faa:	4623      	mov	r3, r4
   26fac:	df02      	svc	2
   26fae:	287f      	cmp	r0, #127	@ 0x7f
   26fb0:	d9ca      	bls.n	26f48 <_ZN20complex_dynamic_type3app17he8f3f63dc57d7cd7E+0x54>
   26fb2:	a807      	add	r0, sp, #28
   26fb4:	7802      	ldrb	r2, [r0, #0]
   26fb6:	2a02      	cmp	r2, #2
   26fb8:	d003      	beq.n	26fc2 <_ZN20complex_dynamic_type3app17he8f3f63dc57d7cd7E+0xce>
   26fba:	2107      	movs	r1, #7
   26fbc:	4630      	mov	r0, r6
   26fbe:	f004 f95f 	bl	2b280 <_ZN9allow_pin12dynamic_type7unshare17h19052c50f9e150aeE>
   26fc2:	a807      	add	r0, sp, #28
   26fc4:	9d02      	ldr	r5, [sp, #8]
   26fc6:	7005      	strb	r5, [r0, #0]
   26fc8:	a80f      	add	r0, sp, #60	@ 0x3c
   26fca:	7802      	ldrb	r2, [r0, #0]
   26fcc:	2a02      	cmp	r2, #2
   26fce:	d003      	beq.n	26fd8 <_ZN20complex_dynamic_type3app17he8f3f63dc57d7cd7E+0xe4>
   26fd0:	2100      	movs	r1, #0
   26fd2:	4630      	mov	r0, r6
   26fd4:	f004 f954 	bl	2b280 <_ZN9allow_pin12dynamic_type7unshare17h19052c50f9e150aeE>
   26fd8:	a80f      	add	r0, sp, #60	@ 0x3c
   26fda:	7005      	strb	r5, [r0, #0]
   26fdc:	2c00      	cmp	r4, #0
   26fde:	d1b6      	bne.n	26f4e <_ZN20complex_dynamic_type3app17he8f3f63dc57d7cd7E+0x5a>
   26fe0:	a80f      	add	r0, sp, #60	@ 0x3c
   26fe2:	7804      	ldrb	r4, [r0, #0]
   26fe4:	2c02      	cmp	r4, #2
   26fe6:	d001      	beq.n	26fec <_ZN20complex_dynamic_type3app17he8f3f63dc57d7cd7E+0xf8>
   26fe8:	480e      	ldr	r0, [pc, #56]	@ (27024 <_ZN20complex_dynamic_type3app17he8f3f63dc57d7cd7E+0x130>)
   26fea:	9005      	str	r0, [sp, #20]
   26fec:	9d06      	ldr	r5, [sp, #24]
   26fee:	1c68      	adds	r0, r5, #1
   26ff0:	222c      	movs	r2, #44	@ 0x2c
   26ff2:	9905      	ldr	r1, [sp, #20]
   26ff4:	f004 fb29 	bl	2b64a <__aeabi_memcpy>
   26ff8:	2000      	movs	r0, #0
   26ffa:	2c02      	cmp	r4, #2
   26ffc:	7028      	strb	r0, [r5, #0]
   26ffe:	d004      	beq.n	2700a <_ZN20complex_dynamic_type3app17he8f3f63dc57d7cd7E+0x116>
   27000:	2100      	movs	r1, #0
   27002:	4630      	mov	r0, r6
   27004:	4622      	mov	r2, r4
   27006:	f004 f93b 	bl	2b280 <_ZN9allow_pin12dynamic_type7unshare17h19052c50f9e150aeE>
   2700a:	a807      	add	r0, sp, #28
   2700c:	7802      	ldrb	r2, [r0, #0]
   2700e:	2a02      	cmp	r2, #2
   27010:	d003      	beq.n	2701a <_ZN20complex_dynamic_type3app17he8f3f63dc57d7cd7E+0x126>
   27012:	2107      	movs	r1, #7
   27014:	4630      	mov	r0, r6
   27016:	f004 f933 	bl	2b280 <_ZN9allow_pin12dynamic_type7unshare17h19052c50f9e150aeE>
   2701a:	b01f      	add	sp, #124	@ 0x7c
   2701c:	bdf0      	pop	{r4, r5, r6, r7, pc}
   2701e:	46c0      	nop			@ (mov r8, r8)
   27020:	000003fb 	.word	0x000003fb
   27024:	000106a9 	.word	0x000106a9

00027028 <_ZN20complex_dynamic_type3app17he97e79da1458cbb4E>:
   27028:	b5f0      	push	{r4, r5, r6, r7, lr}
   2702a:	af03      	add	r7, sp, #12
   2702c:	b09f      	sub	sp, #124	@ 0x7c
   2702e:	9006      	str	r0, [sp, #24]
   27030:	a807      	add	r0, sp, #28
   27032:	2502      	movs	r5, #2
   27034:	7005      	strb	r5, [r0, #0]
   27036:	1c40      	adds	r0, r0, #1
   27038:	9004      	str	r0, [sp, #16]
   2703a:	2423      	movs	r4, #35	@ 0x23
   2703c:	4622      	mov	r2, r4
   2703e:	f004 fb04 	bl	2b64a <__aeabi_memcpy>
   27042:	ae10      	add	r6, sp, #64	@ 0x40
   27044:	1c70      	adds	r0, r6, #1
   27046:	212b      	movs	r1, #43	@ 0x2b
   27048:	9005      	str	r0, [sp, #20]
   2704a:	9103      	str	r1, [sp, #12]
   2704c:	f004 f93d 	bl	2b2ca <__aeabi_memclr>
   27050:	7035      	strb	r5, [r6, #0]
   27052:	2004      	movs	r0, #4
   27054:	9400      	str	r4, [sp, #0]
   27056:	4604      	mov	r4, r0
   27058:	9001      	str	r0, [sp, #4]
   2705a:	a81b      	add	r0, sp, #108	@ 0x6c
   2705c:	4e3d      	ldr	r6, [pc, #244]	@ (27154 <_ZN20complex_dynamic_type3app17he97e79da1458cbb4E+0x12c>)
   2705e:	4631      	mov	r1, r6
   27060:	462a      	mov	r2, r5
   27062:	9b04      	ldr	r3, [sp, #16]
   27064:	f004 f919 	bl	2b29a <_ZN9allow_pin13dynamic_allow17h8bfd3764c146b81aE>
   27068:	981b      	ldr	r0, [sp, #108]	@ 0x6c
   2706a:	2802      	cmp	r0, #2
   2706c:	d101      	bne.n	27072 <_ZN20complex_dynamic_type3app17he97e79da1458cbb4E+0x4a>
   2706e:	991c      	ldr	r1, [sp, #112]	@ 0x70
   27070:	e001      	b.n	27076 <_ZN20complex_dynamic_type3app17he97e79da1458cbb4E+0x4e>
   27072:	a907      	add	r1, sp, #28
   27074:	700c      	strb	r4, [r1, #0]
   27076:	2501      	movs	r5, #1
   27078:	2802      	cmp	r0, #2
   2707a:	d10d      	bne.n	27098 <_ZN20complex_dynamic_type3app17he97e79da1458cbb4E+0x70>
   2707c:	462c      	mov	r4, r5
   2707e:	2c00      	cmp	r4, #0
   27080:	d049      	beq.n	27116 <_ZN20complex_dynamic_type3app17he97e79da1458cbb4E+0xee>
   27082:	2001      	movs	r0, #1
   27084:	9a06      	ldr	r2, [sp, #24]
   27086:	7010      	strb	r0, [r2, #0]
   27088:	6051      	str	r1, [r2, #4]
   2708a:	a810      	add	r0, sp, #64	@ 0x40
   2708c:	7802      	ldrb	r2, [r0, #0]
   2708e:	2a02      	cmp	r2, #2
   27090:	d056      	beq.n	27140 <_ZN20complex_dynamic_type3app17he97e79da1458cbb4E+0x118>
   27092:	2100      	movs	r1, #0
   27094:	4630      	mov	r0, r6
   27096:	e051      	b.n	2713c <_ZN20complex_dynamic_type3app17he97e79da1458cbb4E+0x114>
   27098:	a810      	add	r0, sp, #64	@ 0x40
   2709a:	7800      	ldrb	r0, [r0, #0]
   2709c:	2802      	cmp	r0, #2
   2709e:	d110      	bne.n	270c2 <_ZN20complex_dynamic_type3app17he97e79da1458cbb4E+0x9a>
   270a0:	4631      	mov	r1, r6
   270a2:	2603      	movs	r6, #3
   270a4:	9803      	ldr	r0, [sp, #12]
   270a6:	9000      	str	r0, [sp, #0]
   270a8:	9601      	str	r6, [sp, #4]
   270aa:	a81b      	add	r0, sp, #108	@ 0x6c
   270ac:	2400      	movs	r4, #0
   270ae:	4622      	mov	r2, r4
   270b0:	9b05      	ldr	r3, [sp, #20]
   270b2:	f004 f8f2 	bl	2b29a <_ZN9allow_pin13dynamic_allow17h8bfd3764c146b81aE>
   270b6:	981b      	ldr	r0, [sp, #108]	@ 0x6c
   270b8:	2802      	cmp	r0, #2
   270ba:	d107      	bne.n	270cc <_ZN20complex_dynamic_type3app17he97e79da1458cbb4E+0xa4>
   270bc:	991c      	ldr	r1, [sp, #112]	@ 0x70
   270be:	462c      	mov	r4, r5
   270c0:	e006      	b.n	270d0 <_ZN20complex_dynamic_type3app17he97e79da1458cbb4E+0xa8>
   270c2:	2103      	movs	r1, #3
   270c4:	462c      	mov	r4, r5
   270c6:	2c00      	cmp	r4, #0
   270c8:	d1d8      	bne.n	2707c <_ZN20complex_dynamic_type3app17he97e79da1458cbb4E+0x54>
   270ca:	e004      	b.n	270d6 <_ZN20complex_dynamic_type3app17he97e79da1458cbb4E+0xae>
   270cc:	a810      	add	r0, sp, #64	@ 0x40
   270ce:	7006      	strb	r6, [r0, #0]
   270d0:	4e20      	ldr	r6, [pc, #128]	@ (27154 <_ZN20complex_dynamic_type3app17he97e79da1458cbb4E+0x12c>)
   270d2:	2c00      	cmp	r4, #0
   270d4:	d1d2      	bne.n	2707c <_ZN20complex_dynamic_type3app17he97e79da1458cbb4E+0x54>
   270d6:	481f      	ldr	r0, [pc, #124]	@ (27154 <_ZN20complex_dynamic_type3app17he97e79da1458cbb4E+0x12c>)
   270d8:	2102      	movs	r1, #2
   270da:	2400      	movs	r4, #0
   270dc:	9104      	str	r1, [sp, #16]
   270de:	4622      	mov	r2, r4
   270e0:	4623      	mov	r3, r4
   270e2:	df02      	svc	2
   270e4:	287f      	cmp	r0, #127	@ 0x7f
   270e6:	d9c9      	bls.n	2707c <_ZN20complex_dynamic_type3app17he97e79da1458cbb4E+0x54>
   270e8:	a807      	add	r0, sp, #28
   270ea:	7802      	ldrb	r2, [r0, #0]
   270ec:	2a02      	cmp	r2, #2
   270ee:	d003      	beq.n	270f8 <_ZN20complex_dynamic_type3app17he97e79da1458cbb4E+0xd0>
   270f0:	2102      	movs	r1, #2
   270f2:	4630      	mov	r0, r6
   270f4:	f004 f8c4 	bl	2b280 <_ZN9allow_pin12dynamic_type7unshare17h19052c50f9e150aeE>
   270f8:	a807      	add	r0, sp, #28
   270fa:	9d04      	ldr	r5, [sp, #16]
   270fc:	7005      	strb	r5, [r0, #0]
   270fe:	a810      	add	r0, sp, #64	@ 0x40
   27100:	7802      	ldrb	r2, [r0, #0]
   27102:	2a02      	cmp	r2, #2
   27104:	d003      	beq.n	2710e <_ZN20complex_dynamic_type3app17he97e79da1458cbb4E+0xe6>
   27106:	2100      	movs	r1, #0
   27108:	4630      	mov	r0, r6
   2710a:	f004 f8b9 	bl	2b280 <_ZN9allow_pin12dynamic_type7unshare17h19052c50f9e150aeE>
   2710e:	a810      	add	r0, sp, #64	@ 0x40
   27110:	7005      	strb	r5, [r0, #0]
   27112:	2c00      	cmp	r4, #0
   27114:	d1b5      	bne.n	27082 <_ZN20complex_dynamic_type3app17he97e79da1458cbb4E+0x5a>
   27116:	a810      	add	r0, sp, #64	@ 0x40
   27118:	7804      	ldrb	r4, [r0, #0]
   2711a:	2c02      	cmp	r4, #2
   2711c:	d001      	beq.n	27122 <_ZN20complex_dynamic_type3app17he97e79da1458cbb4E+0xfa>
   2711e:	480e      	ldr	r0, [pc, #56]	@ (27158 <_ZN20complex_dynamic_type3app17he97e79da1458cbb4E+0x130>)
   27120:	9005      	str	r0, [sp, #20]
   27122:	9d06      	ldr	r5, [sp, #24]
   27124:	1c68      	adds	r0, r5, #1
   27126:	222b      	movs	r2, #43	@ 0x2b
   27128:	9905      	ldr	r1, [sp, #20]
   2712a:	f004 fa8e 	bl	2b64a <__aeabi_memcpy>
   2712e:	2000      	movs	r0, #0
   27130:	2c02      	cmp	r4, #2
   27132:	7028      	strb	r0, [r5, #0]
   27134:	d004      	beq.n	27140 <_ZN20complex_dynamic_type3app17he97e79da1458cbb4E+0x118>
   27136:	2100      	movs	r1, #0
   27138:	4630      	mov	r0, r6
   2713a:	4622      	mov	r2, r4
   2713c:	f004 f8a0 	bl	2b280 <_ZN9allow_pin12dynamic_type7unshare17h19052c50f9e150aeE>
   27140:	a807      	add	r0, sp, #28
   27142:	7802      	ldrb	r2, [r0, #0]
   27144:	2a02      	cmp	r2, #2
   27146:	d003      	beq.n	27150 <_ZN20complex_dynamic_type3app17he97e79da1458cbb4E+0x128>
   27148:	2102      	movs	r1, #2
   2714a:	4630      	mov	r0, r6
   2714c:	f004 f898 	bl	2b280 <_ZN9allow_pin12dynamic_type7unshare17h19052c50f9e150aeE>
   27150:	b01f      	add	sp, #124	@ 0x7c
   27152:	bdf0      	pop	{r4, r5, r6, r7, pc}
   27154:	00000d5d 	.word	0x00000d5d
   27158:	000108e9 	.word	0x000108e9

0002715c <_ZN20complex_dynamic_type3app17heb3e9e98739aa606E>:
   2715c:	b5f0      	push	{r4, r5, r6, r7, lr}
   2715e:	af03      	add	r7, sp, #12
   27160:	b0a1      	sub	sp, #132	@ 0x84
   27162:	9007      	str	r0, [sp, #28]
   27164:	a808      	add	r0, sp, #32
   27166:	2502      	movs	r5, #2
   27168:	7005      	strb	r5, [r0, #0]
   2716a:	1c40      	adds	r0, r0, #1
   2716c:	9005      	str	r0, [sp, #20]
   2716e:	263f      	movs	r6, #63	@ 0x3f
   27170:	4632      	mov	r2, r6
   27172:	f004 fa6a 	bl	2b64a <__aeabi_memcpy>
   27176:	ac18      	add	r4, sp, #96	@ 0x60
   27178:	1c60      	adds	r0, r4, #1
   2717a:	2111      	movs	r1, #17
   2717c:	9006      	str	r0, [sp, #24]
   2717e:	9104      	str	r1, [sp, #16]
   27180:	f004 f8a3 	bl	2b2ca <__aeabi_memclr>
   27184:	9503      	str	r5, [sp, #12]
   27186:	7025      	strb	r5, [r4, #0]
   27188:	2404      	movs	r4, #4
   2718a:	9600      	str	r6, [sp, #0]
   2718c:	9401      	str	r4, [sp, #4]
   2718e:	a81d      	add	r0, sp, #116	@ 0x74
   27190:	4e3c      	ldr	r6, [pc, #240]	@ (27284 <_ZN20complex_dynamic_type3app17heb3e9e98739aa606E+0x128>)
   27192:	4631      	mov	r1, r6
   27194:	4622      	mov	r2, r4
   27196:	9b05      	ldr	r3, [sp, #20]
   27198:	f004 f87f 	bl	2b29a <_ZN9allow_pin13dynamic_allow17h8bfd3764c146b81aE>
   2719c:	981d      	ldr	r0, [sp, #116]	@ 0x74
   2719e:	2802      	cmp	r0, #2
   271a0:	d101      	bne.n	271a6 <_ZN20complex_dynamic_type3app17heb3e9e98739aa606E+0x4a>
   271a2:	991e      	ldr	r1, [sp, #120]	@ 0x78
   271a4:	e001      	b.n	271aa <_ZN20complex_dynamic_type3app17heb3e9e98739aa606E+0x4e>
   271a6:	a908      	add	r1, sp, #32
   271a8:	700c      	strb	r4, [r1, #0]
   271aa:	2501      	movs	r5, #1
   271ac:	2802      	cmp	r0, #2
   271ae:	d024      	beq.n	271fa <_ZN20complex_dynamic_type3app17heb3e9e98739aa606E+0x9e>
   271b0:	a818      	add	r0, sp, #96	@ 0x60
   271b2:	7800      	ldrb	r0, [r0, #0]
   271b4:	2802      	cmp	r0, #2
   271b6:	d10e      	bne.n	271d6 <_ZN20complex_dynamic_type3app17heb3e9e98739aa606E+0x7a>
   271b8:	2403      	movs	r4, #3
   271ba:	9804      	ldr	r0, [sp, #16]
   271bc:	9000      	str	r0, [sp, #0]
   271be:	9401      	str	r4, [sp, #4]
   271c0:	a81d      	add	r0, sp, #116	@ 0x74
   271c2:	4631      	mov	r1, r6
   271c4:	4622      	mov	r2, r4
   271c6:	9b06      	ldr	r3, [sp, #24]
   271c8:	f004 f867 	bl	2b29a <_ZN9allow_pin13dynamic_allow17h8bfd3764c146b81aE>
   271cc:	981d      	ldr	r0, [sp, #116]	@ 0x74
   271ce:	2802      	cmp	r0, #2
   271d0:	d106      	bne.n	271e0 <_ZN20complex_dynamic_type3app17heb3e9e98739aa606E+0x84>
   271d2:	991e      	ldr	r1, [sp, #120]	@ 0x78
   271d4:	e000      	b.n	271d8 <_ZN20complex_dynamic_type3app17heb3e9e98739aa606E+0x7c>
   271d6:	2103      	movs	r1, #3
   271d8:	4628      	mov	r0, r5
   271da:	2800      	cmp	r0, #0
   271dc:	d005      	beq.n	271ea <_ZN20complex_dynamic_type3app17heb3e9e98739aa606E+0x8e>
   271de:	e00c      	b.n	271fa <_ZN20complex_dynamic_type3app17heb3e9e98739aa606E+0x9e>
   271e0:	a818      	add	r0, sp, #96	@ 0x60
   271e2:	7004      	strb	r4, [r0, #0]
   271e4:	2000      	movs	r0, #0
   271e6:	2800      	cmp	r0, #0
   271e8:	d107      	bne.n	271fa <_ZN20complex_dynamic_type3app17heb3e9e98739aa606E+0x9e>
   271ea:	4826      	ldr	r0, [pc, #152]	@ (27284 <_ZN20complex_dynamic_type3app17heb3e9e98739aa606E+0x128>)
   271ec:	2104      	movs	r1, #4
   271ee:	2203      	movs	r2, #3
   271f0:	2400      	movs	r4, #0
   271f2:	4623      	mov	r3, r4
   271f4:	df02      	svc	2
   271f6:	287f      	cmp	r0, #127	@ 0x7f
   271f8:	d80d      	bhi.n	27216 <_ZN20complex_dynamic_type3app17heb3e9e98739aa606E+0xba>
   271fa:	462c      	mov	r4, r5
   271fc:	2c00      	cmp	r4, #0
   271fe:	d021      	beq.n	27244 <_ZN20complex_dynamic_type3app17heb3e9e98739aa606E+0xe8>
   27200:	2001      	movs	r0, #1
   27202:	9a07      	ldr	r2, [sp, #28]
   27204:	7010      	strb	r0, [r2, #0]
   27206:	6051      	str	r1, [r2, #4]
   27208:	a818      	add	r0, sp, #96	@ 0x60
   2720a:	7802      	ldrb	r2, [r0, #0]
   2720c:	2a02      	cmp	r2, #2
   2720e:	d02e      	beq.n	2726e <_ZN20complex_dynamic_type3app17heb3e9e98739aa606E+0x112>
   27210:	2103      	movs	r1, #3
   27212:	4630      	mov	r0, r6
   27214:	e029      	b.n	2726a <_ZN20complex_dynamic_type3app17heb3e9e98739aa606E+0x10e>
   27216:	a808      	add	r0, sp, #32
   27218:	7802      	ldrb	r2, [r0, #0]
   2721a:	2a02      	cmp	r2, #2
   2721c:	d003      	beq.n	27226 <_ZN20complex_dynamic_type3app17heb3e9e98739aa606E+0xca>
   2721e:	2104      	movs	r1, #4
   27220:	4630      	mov	r0, r6
   27222:	f004 f82d 	bl	2b280 <_ZN9allow_pin12dynamic_type7unshare17h19052c50f9e150aeE>
   27226:	a808      	add	r0, sp, #32
   27228:	9d03      	ldr	r5, [sp, #12]
   2722a:	7005      	strb	r5, [r0, #0]
   2722c:	a818      	add	r0, sp, #96	@ 0x60
   2722e:	7802      	ldrb	r2, [r0, #0]
   27230:	2a02      	cmp	r2, #2
   27232:	d003      	beq.n	2723c <_ZN20complex_dynamic_type3app17heb3e9e98739aa606E+0xe0>
   27234:	2103      	movs	r1, #3
   27236:	4630      	mov	r0, r6
   27238:	f004 f822 	bl	2b280 <_ZN9allow_pin12dynamic_type7unshare17h19052c50f9e150aeE>
   2723c:	a818      	add	r0, sp, #96	@ 0x60
   2723e:	7005      	strb	r5, [r0, #0]
   27240:	2c00      	cmp	r4, #0
   27242:	d1dd      	bne.n	27200 <_ZN20complex_dynamic_type3app17heb3e9e98739aa606E+0xa4>
   27244:	a818      	add	r0, sp, #96	@ 0x60
   27246:	7804      	ldrb	r4, [r0, #0]
   27248:	2c02      	cmp	r4, #2
   2724a:	d001      	beq.n	27250 <_ZN20complex_dynamic_type3app17heb3e9e98739aa606E+0xf4>
   2724c:	480e      	ldr	r0, [pc, #56]	@ (27288 <_ZN20complex_dynamic_type3app17heb3e9e98739aa606E+0x12c>)
   2724e:	9006      	str	r0, [sp, #24]
   27250:	9d07      	ldr	r5, [sp, #28]
   27252:	1c68      	adds	r0, r5, #1
   27254:	2211      	movs	r2, #17
   27256:	9906      	ldr	r1, [sp, #24]
   27258:	f004 f9f7 	bl	2b64a <__aeabi_memcpy>
   2725c:	2000      	movs	r0, #0
   2725e:	2c02      	cmp	r4, #2
   27260:	7028      	strb	r0, [r5, #0]
   27262:	d004      	beq.n	2726e <_ZN20complex_dynamic_type3app17heb3e9e98739aa606E+0x112>
   27264:	2103      	movs	r1, #3
   27266:	4630      	mov	r0, r6
   27268:	4622      	mov	r2, r4
   2726a:	f004 f809 	bl	2b280 <_ZN9allow_pin12dynamic_type7unshare17h19052c50f9e150aeE>
   2726e:	a808      	add	r0, sp, #32
   27270:	7802      	ldrb	r2, [r0, #0]
   27272:	2a02      	cmp	r2, #2
   27274:	d003      	beq.n	2727e <_ZN20complex_dynamic_type3app17heb3e9e98739aa606E+0x122>
   27276:	2104      	movs	r1, #4
   27278:	4630      	mov	r0, r6
   2727a:	f004 f801 	bl	2b280 <_ZN9allow_pin12dynamic_type7unshare17h19052c50f9e150aeE>
   2727e:	b021      	add	sp, #132	@ 0x84
   27280:	bdf0      	pop	{r4, r5, r6, r7, pc}
   27282:	46c0      	nop			@ (mov r8, r8)
   27284:	000014d7 	.word	0x000014d7
   27288:	00010477 	.word	0x00010477

0002728c <_ZN20complex_dynamic_type3app17hed3873d622d10833E>:
   2728c:	b5f0      	push	{r4, r5, r6, r7, lr}
   2728e:	af03      	add	r7, sp, #12
   27290:	b0ab      	sub	sp, #172	@ 0xac
   27292:	9006      	str	r0, [sp, #24]
   27294:	a807      	add	r0, sp, #28
   27296:	2602      	movs	r6, #2
   27298:	7006      	strb	r6, [r0, #0]
   2729a:	1c40      	adds	r0, r0, #1
   2729c:	9004      	str	r0, [sp, #16]
   2729e:	251b      	movs	r5, #27
   272a0:	462a      	mov	r2, r5
   272a2:	f004 f9d2 	bl	2b64a <__aeabi_memcpy>
   272a6:	ac0e      	add	r4, sp, #56	@ 0x38
   272a8:	1c60      	adds	r0, r4, #1
   272aa:	2163      	movs	r1, #99	@ 0x63
   272ac:	9005      	str	r0, [sp, #20]
   272ae:	9103      	str	r1, [sp, #12]
   272b0:	f004 f80b 	bl	2b2ca <__aeabi_memclr>
   272b4:	9602      	str	r6, [sp, #8]
   272b6:	7026      	strb	r6, [r4, #0]
   272b8:	2404      	movs	r4, #4
   272ba:	9500      	str	r5, [sp, #0]
   272bc:	9401      	str	r4, [sp, #4]
   272be:	a827      	add	r0, sp, #156	@ 0x9c
   272c0:	493c      	ldr	r1, [pc, #240]	@ (273b4 <_ZN20complex_dynamic_type3app17hed3873d622d10833E+0x128>)
   272c2:	2503      	movs	r5, #3
   272c4:	462a      	mov	r2, r5
   272c6:	9b04      	ldr	r3, [sp, #16]
   272c8:	f003 ffe7 	bl	2b29a <_ZN9allow_pin13dynamic_allow17h8bfd3764c146b81aE>
   272cc:	9827      	ldr	r0, [sp, #156]	@ 0x9c
   272ce:	2802      	cmp	r0, #2
   272d0:	d101      	bne.n	272d6 <_ZN20complex_dynamic_type3app17hed3873d622d10833E+0x4a>
   272d2:	9928      	ldr	r1, [sp, #160]	@ 0xa0
   272d4:	e001      	b.n	272da <_ZN20complex_dynamic_type3app17hed3873d622d10833E+0x4e>
   272d6:	a907      	add	r1, sp, #28
   272d8:	700c      	strb	r4, [r1, #0]
   272da:	2601      	movs	r6, #1
   272dc:	2802      	cmp	r0, #2
   272de:	d024      	beq.n	2732a <_ZN20complex_dynamic_type3app17hed3873d622d10833E+0x9e>
   272e0:	a80e      	add	r0, sp, #56	@ 0x38
   272e2:	7800      	ldrb	r0, [r0, #0]
   272e4:	2802      	cmp	r0, #2
   272e6:	4630      	mov	r0, r6
   272e8:	d10e      	bne.n	27308 <_ZN20complex_dynamic_type3app17hed3873d622d10833E+0x7c>
   272ea:	2503      	movs	r5, #3
   272ec:	9803      	ldr	r0, [sp, #12]
   272ee:	9000      	str	r0, [sp, #0]
   272f0:	9501      	str	r5, [sp, #4]
   272f2:	a827      	add	r0, sp, #156	@ 0x9c
   272f4:	492f      	ldr	r1, [pc, #188]	@ (273b4 <_ZN20complex_dynamic_type3app17hed3873d622d10833E+0x128>)
   272f6:	462a      	mov	r2, r5
   272f8:	9b05      	ldr	r3, [sp, #20]
   272fa:	f003 ffce 	bl	2b29a <_ZN9allow_pin13dynamic_allow17h8bfd3764c146b81aE>
   272fe:	9827      	ldr	r0, [sp, #156]	@ 0x9c
   27300:	2802      	cmp	r0, #2
   27302:	d105      	bne.n	27310 <_ZN20complex_dynamic_type3app17hed3873d622d10833E+0x84>
   27304:	9d28      	ldr	r5, [sp, #160]	@ 0xa0
   27306:	4630      	mov	r0, r6
   27308:	2800      	cmp	r0, #0
   2730a:	d006      	beq.n	2731a <_ZN20complex_dynamic_type3app17hed3873d622d10833E+0x8e>
   2730c:	4629      	mov	r1, r5
   2730e:	e00c      	b.n	2732a <_ZN20complex_dynamic_type3app17hed3873d622d10833E+0x9e>
   27310:	a80e      	add	r0, sp, #56	@ 0x38
   27312:	7005      	strb	r5, [r0, #0]
   27314:	2000      	movs	r0, #0
   27316:	2800      	cmp	r0, #0
   27318:	d1f8      	bne.n	2730c <_ZN20complex_dynamic_type3app17hed3873d622d10833E+0x80>
   2731a:	4826      	ldr	r0, [pc, #152]	@ (273b4 <_ZN20complex_dynamic_type3app17hed3873d622d10833E+0x128>)
   2731c:	2103      	movs	r1, #3
   2731e:	2400      	movs	r4, #0
   27320:	460a      	mov	r2, r1
   27322:	4623      	mov	r3, r4
   27324:	df02      	svc	2
   27326:	287f      	cmp	r0, #127	@ 0x7f
   27328:	d80d      	bhi.n	27346 <_ZN20complex_dynamic_type3app17hed3873d622d10833E+0xba>
   2732a:	4634      	mov	r4, r6
   2732c:	2c00      	cmp	r4, #0
   2732e:	d021      	beq.n	27374 <_ZN20complex_dynamic_type3app17hed3873d622d10833E+0xe8>
   27330:	2001      	movs	r0, #1
   27332:	9a06      	ldr	r2, [sp, #24]
   27334:	7010      	strb	r0, [r2, #0]
   27336:	6051      	str	r1, [r2, #4]
   27338:	a80e      	add	r0, sp, #56	@ 0x38
   2733a:	7802      	ldrb	r2, [r0, #0]
   2733c:	2a02      	cmp	r2, #2
   2733e:	d02e      	beq.n	2739e <_ZN20complex_dynamic_type3app17hed3873d622d10833E+0x112>
   27340:	2103      	movs	r1, #3
   27342:	481c      	ldr	r0, [pc, #112]	@ (273b4 <_ZN20complex_dynamic_type3app17hed3873d622d10833E+0x128>)
   27344:	e029      	b.n	2739a <_ZN20complex_dynamic_type3app17hed3873d622d10833E+0x10e>
   27346:	a807      	add	r0, sp, #28
   27348:	7802      	ldrb	r2, [r0, #0]
   2734a:	2a02      	cmp	r2, #2
   2734c:	d003      	beq.n	27356 <_ZN20complex_dynamic_type3app17hed3873d622d10833E+0xca>
   2734e:	2103      	movs	r1, #3
   27350:	4818      	ldr	r0, [pc, #96]	@ (273b4 <_ZN20complex_dynamic_type3app17hed3873d622d10833E+0x128>)
   27352:	f003 ff95 	bl	2b280 <_ZN9allow_pin12dynamic_type7unshare17h19052c50f9e150aeE>
   27356:	a807      	add	r0, sp, #28
   27358:	9d02      	ldr	r5, [sp, #8]
   2735a:	7005      	strb	r5, [r0, #0]
   2735c:	a80e      	add	r0, sp, #56	@ 0x38
   2735e:	7802      	ldrb	r2, [r0, #0]
   27360:	2a02      	cmp	r2, #2
   27362:	d003      	beq.n	2736c <_ZN20complex_dynamic_type3app17hed3873d622d10833E+0xe0>
   27364:	2103      	movs	r1, #3
   27366:	4813      	ldr	r0, [pc, #76]	@ (273b4 <_ZN20complex_dynamic_type3app17hed3873d622d10833E+0x128>)
   27368:	f003 ff8a 	bl	2b280 <_ZN9allow_pin12dynamic_type7unshare17h19052c50f9e150aeE>
   2736c:	a80e      	add	r0, sp, #56	@ 0x38
   2736e:	7005      	strb	r5, [r0, #0]
   27370:	2c00      	cmp	r4, #0
   27372:	d1dd      	bne.n	27330 <_ZN20complex_dynamic_type3app17hed3873d622d10833E+0xa4>
   27374:	a80e      	add	r0, sp, #56	@ 0x38
   27376:	7804      	ldrb	r4, [r0, #0]
   27378:	2c02      	cmp	r4, #2
   2737a:	d001      	beq.n	27380 <_ZN20complex_dynamic_type3app17hed3873d622d10833E+0xf4>
   2737c:	480e      	ldr	r0, [pc, #56]	@ (273b8 <_ZN20complex_dynamic_type3app17hed3873d622d10833E+0x12c>)
   2737e:	9005      	str	r0, [sp, #20]
   27380:	9d06      	ldr	r5, [sp, #24]
   27382:	1c68      	adds	r0, r5, #1
   27384:	2263      	movs	r2, #99	@ 0x63
   27386:	9905      	ldr	r1, [sp, #20]
   27388:	f004 f95f 	bl	2b64a <__aeabi_memcpy>
   2738c:	2000      	movs	r0, #0
   2738e:	2c02      	cmp	r4, #2
   27390:	7028      	strb	r0, [r5, #0]
   27392:	d004      	beq.n	2739e <_ZN20complex_dynamic_type3app17hed3873d622d10833E+0x112>
   27394:	2103      	movs	r1, #3
   27396:	4807      	ldr	r0, [pc, #28]	@ (273b4 <_ZN20complex_dynamic_type3app17hed3873d622d10833E+0x128>)
   27398:	4622      	mov	r2, r4
   2739a:	f003 ff71 	bl	2b280 <_ZN9allow_pin12dynamic_type7unshare17h19052c50f9e150aeE>
   2739e:	a807      	add	r0, sp, #28
   273a0:	7802      	ldrb	r2, [r0, #0]
   273a2:	2a02      	cmp	r2, #2
   273a4:	d003      	beq.n	273ae <_ZN20complex_dynamic_type3app17hed3873d622d10833E+0x122>
   273a6:	2103      	movs	r1, #3
   273a8:	4802      	ldr	r0, [pc, #8]	@ (273b4 <_ZN20complex_dynamic_type3app17hed3873d622d10833E+0x128>)
   273aa:	f003 ff69 	bl	2b280 <_ZN9allow_pin12dynamic_type7unshare17h19052c50f9e150aeE>
   273ae:	b02b      	add	sp, #172	@ 0xac
   273b0:	bdf0      	pop	{r4, r5, r6, r7, pc}
   273b2:	46c0      	nop			@ (mov r8, r8)
   273b4:	00002548 	.word	0x00002548
   273b8:	000105ff 	.word	0x000105ff

000273bc <_ZN20complex_dynamic_type3app17hf09dc304de6b0732E>:
   273bc:	b5f0      	push	{r4, r5, r6, r7, lr}
   273be:	af03      	add	r7, sp, #12
   273c0:	b09d      	sub	sp, #116	@ 0x74
   273c2:	9006      	str	r0, [sp, #24]
   273c4:	a807      	add	r0, sp, #28
   273c6:	2502      	movs	r5, #2
   273c8:	7005      	strb	r5, [r0, #0]
   273ca:	1c40      	adds	r0, r0, #1
   273cc:	9004      	str	r0, [sp, #16]
   273ce:	2629      	movs	r6, #41	@ 0x29
   273d0:	4632      	mov	r2, r6
   273d2:	f004 f93a 	bl	2b64a <__aeabi_memcpy>
   273d6:	ac12      	add	r4, sp, #72	@ 0x48
   273d8:	1c60      	adds	r0, r4, #1
   273da:	211a      	movs	r1, #26
   273dc:	9005      	str	r0, [sp, #20]
   273de:	9103      	str	r1, [sp, #12]
   273e0:	f003 ff73 	bl	2b2ca <__aeabi_memclr>
   273e4:	9502      	str	r5, [sp, #8]
   273e6:	7025      	strb	r5, [r4, #0]
   273e8:	2404      	movs	r4, #4
   273ea:	9600      	str	r6, [sp, #0]
   273ec:	9401      	str	r4, [sp, #4]
   273ee:	a819      	add	r0, sp, #100	@ 0x64
   273f0:	493b      	ldr	r1, [pc, #236]	@ (274e0 <_ZN20complex_dynamic_type3app17hf09dc304de6b0732E+0x124>)
   273f2:	2205      	movs	r2, #5
   273f4:	9b04      	ldr	r3, [sp, #16]
   273f6:	f003 ff50 	bl	2b29a <_ZN9allow_pin13dynamic_allow17h8bfd3764c146b81aE>
   273fa:	9819      	ldr	r0, [sp, #100]	@ 0x64
   273fc:	2802      	cmp	r0, #2
   273fe:	d101      	bne.n	27404 <_ZN20complex_dynamic_type3app17hf09dc304de6b0732E+0x48>
   27400:	991a      	ldr	r1, [sp, #104]	@ 0x68
   27402:	e001      	b.n	27408 <_ZN20complex_dynamic_type3app17hf09dc304de6b0732E+0x4c>
   27404:	a907      	add	r1, sp, #28
   27406:	700c      	strb	r4, [r1, #0]
   27408:	2601      	movs	r6, #1
   2740a:	2802      	cmp	r0, #2
   2740c:	d024      	beq.n	27458 <_ZN20complex_dynamic_type3app17hf09dc304de6b0732E+0x9c>
   2740e:	a812      	add	r0, sp, #72	@ 0x48
   27410:	7800      	ldrb	r0, [r0, #0]
   27412:	2802      	cmp	r0, #2
   27414:	d10e      	bne.n	27434 <_ZN20complex_dynamic_type3app17hf09dc304de6b0732E+0x78>
   27416:	2503      	movs	r5, #3
   27418:	9803      	ldr	r0, [sp, #12]
   2741a:	9000      	str	r0, [sp, #0]
   2741c:	9501      	str	r5, [sp, #4]
   2741e:	a819      	add	r0, sp, #100	@ 0x64
   27420:	492f      	ldr	r1, [pc, #188]	@ (274e0 <_ZN20complex_dynamic_type3app17hf09dc304de6b0732E+0x124>)
   27422:	462a      	mov	r2, r5
   27424:	9b05      	ldr	r3, [sp, #20]
   27426:	f003 ff38 	bl	2b29a <_ZN9allow_pin13dynamic_allow17h8bfd3764c146b81aE>
   2742a:	9819      	ldr	r0, [sp, #100]	@ 0x64
   2742c:	2802      	cmp	r0, #2
   2742e:	d106      	bne.n	2743e <_ZN20complex_dynamic_type3app17hf09dc304de6b0732E+0x82>
   27430:	991a      	ldr	r1, [sp, #104]	@ 0x68
   27432:	e000      	b.n	27436 <_ZN20complex_dynamic_type3app17hf09dc304de6b0732E+0x7a>
   27434:	2103      	movs	r1, #3
   27436:	4630      	mov	r0, r6
   27438:	2800      	cmp	r0, #0
   2743a:	d005      	beq.n	27448 <_ZN20complex_dynamic_type3app17hf09dc304de6b0732E+0x8c>
   2743c:	e00c      	b.n	27458 <_ZN20complex_dynamic_type3app17hf09dc304de6b0732E+0x9c>
   2743e:	a812      	add	r0, sp, #72	@ 0x48
   27440:	7005      	strb	r5, [r0, #0]
   27442:	2000      	movs	r0, #0
   27444:	2800      	cmp	r0, #0
   27446:	d107      	bne.n	27458 <_ZN20complex_dynamic_type3app17hf09dc304de6b0732E+0x9c>
   27448:	4825      	ldr	r0, [pc, #148]	@ (274e0 <_ZN20complex_dynamic_type3app17hf09dc304de6b0732E+0x124>)
   2744a:	2105      	movs	r1, #5
   2744c:	2203      	movs	r2, #3
   2744e:	2400      	movs	r4, #0
   27450:	4623      	mov	r3, r4
   27452:	df02      	svc	2
   27454:	287f      	cmp	r0, #127	@ 0x7f
   27456:	d80d      	bhi.n	27474 <_ZN20complex_dynamic_type3app17hf09dc304de6b0732E+0xb8>
   27458:	4634      	mov	r4, r6
   2745a:	2c00      	cmp	r4, #0
   2745c:	d021      	beq.n	274a2 <_ZN20complex_dynamic_type3app17hf09dc304de6b0732E+0xe6>
   2745e:	2001      	movs	r0, #1
   27460:	9a06      	ldr	r2, [sp, #24]
   27462:	7010      	strb	r0, [r2, #0]
   27464:	6051      	str	r1, [r2, #4]
   27466:	a812      	add	r0, sp, #72	@ 0x48
   27468:	7802      	ldrb	r2, [r0, #0]
   2746a:	2a02      	cmp	r2, #2
   2746c:	d02e      	beq.n	274cc <_ZN20complex_dynamic_type3app17hf09dc304de6b0732E+0x110>
   2746e:	2103      	movs	r1, #3
   27470:	481b      	ldr	r0, [pc, #108]	@ (274e0 <_ZN20complex_dynamic_type3app17hf09dc304de6b0732E+0x124>)
   27472:	e029      	b.n	274c8 <_ZN20complex_dynamic_type3app17hf09dc304de6b0732E+0x10c>
   27474:	a807      	add	r0, sp, #28
   27476:	7802      	ldrb	r2, [r0, #0]
   27478:	2a02      	cmp	r2, #2
   2747a:	d003      	beq.n	27484 <_ZN20complex_dynamic_type3app17hf09dc304de6b0732E+0xc8>
   2747c:	2105      	movs	r1, #5
   2747e:	4818      	ldr	r0, [pc, #96]	@ (274e0 <_ZN20complex_dynamic_type3app17hf09dc304de6b0732E+0x124>)
   27480:	f003 fefe 	bl	2b280 <_ZN9allow_pin12dynamic_type7unshare17h19052c50f9e150aeE>
   27484:	a807      	add	r0, sp, #28
   27486:	9d02      	ldr	r5, [sp, #8]
   27488:	7005      	strb	r5, [r0, #0]
   2748a:	a812      	add	r0, sp, #72	@ 0x48
   2748c:	7802      	ldrb	r2, [r0, #0]
   2748e:	2a02      	cmp	r2, #2
   27490:	d003      	beq.n	2749a <_ZN20complex_dynamic_type3app17hf09dc304de6b0732E+0xde>
   27492:	2103      	movs	r1, #3
   27494:	4812      	ldr	r0, [pc, #72]	@ (274e0 <_ZN20complex_dynamic_type3app17hf09dc304de6b0732E+0x124>)
   27496:	f003 fef3 	bl	2b280 <_ZN9allow_pin12dynamic_type7unshare17h19052c50f9e150aeE>
   2749a:	a812      	add	r0, sp, #72	@ 0x48
   2749c:	7005      	strb	r5, [r0, #0]
   2749e:	2c00      	cmp	r4, #0
   274a0:	d1dd      	bne.n	2745e <_ZN20complex_dynamic_type3app17hf09dc304de6b0732E+0xa2>
   274a2:	a812      	add	r0, sp, #72	@ 0x48
   274a4:	7804      	ldrb	r4, [r0, #0]
   274a6:	2c02      	cmp	r4, #2
   274a8:	d001      	beq.n	274ae <_ZN20complex_dynamic_type3app17hf09dc304de6b0732E+0xf2>
   274aa:	480e      	ldr	r0, [pc, #56]	@ (274e4 <_ZN20complex_dynamic_type3app17hf09dc304de6b0732E+0x128>)
   274ac:	9005      	str	r0, [sp, #20]
   274ae:	9d06      	ldr	r5, [sp, #24]
   274b0:	1c68      	adds	r0, r5, #1
   274b2:	221a      	movs	r2, #26
   274b4:	9905      	ldr	r1, [sp, #20]
   274b6:	f004 f8c8 	bl	2b64a <__aeabi_memcpy>
   274ba:	2000      	movs	r0, #0
   274bc:	2c02      	cmp	r4, #2
   274be:	7028      	strb	r0, [r5, #0]
   274c0:	d004      	beq.n	274cc <_ZN20complex_dynamic_type3app17hf09dc304de6b0732E+0x110>
   274c2:	2103      	movs	r1, #3
   274c4:	4806      	ldr	r0, [pc, #24]	@ (274e0 <_ZN20complex_dynamic_type3app17hf09dc304de6b0732E+0x124>)
   274c6:	4622      	mov	r2, r4
   274c8:	f003 feda 	bl	2b280 <_ZN9allow_pin12dynamic_type7unshare17h19052c50f9e150aeE>
   274cc:	a807      	add	r0, sp, #28
   274ce:	7802      	ldrb	r2, [r0, #0]
   274d0:	2a02      	cmp	r2, #2
   274d2:	d003      	beq.n	274dc <_ZN20complex_dynamic_type3app17hf09dc304de6b0732E+0x120>
   274d4:	2105      	movs	r1, #5
   274d6:	4802      	ldr	r0, [pc, #8]	@ (274e0 <_ZN20complex_dynamic_type3app17hf09dc304de6b0732E+0x124>)
   274d8:	f003 fed2 	bl	2b280 <_ZN9allow_pin12dynamic_type7unshare17h19052c50f9e150aeE>
   274dc:	b01d      	add	sp, #116	@ 0x74
   274de:	bdf0      	pop	{r4, r5, r6, r7, pc}
   274e0:	00002048 	.word	0x00002048
   274e4:	000100e4 	.word	0x000100e4

000274e8 <_ZN20complex_dynamic_type3app17hf1c64e3a3d97ec09E>:
   274e8:	b5f0      	push	{r4, r5, r6, r7, lr}
   274ea:	af03      	add	r7, sp, #12
   274ec:	b0a9      	sub	sp, #164	@ 0xa4
   274ee:	9007      	str	r0, [sp, #28]
   274f0:	a808      	add	r0, sp, #32
   274f2:	2502      	movs	r5, #2
   274f4:	7005      	strb	r5, [r0, #0]
   274f6:	1c40      	adds	r0, r0, #1
   274f8:	9005      	str	r0, [sp, #20]
   274fa:	263c      	movs	r6, #60	@ 0x3c
   274fc:	4632      	mov	r2, r6
   274fe:	f004 f8a4 	bl	2b64a <__aeabi_memcpy>
   27502:	ac18      	add	r4, sp, #96	@ 0x60
   27504:	1c60      	adds	r0, r4, #1
   27506:	2132      	movs	r1, #50	@ 0x32
   27508:	9006      	str	r0, [sp, #24]
   2750a:	9104      	str	r1, [sp, #16]
   2750c:	f003 fedd 	bl	2b2ca <__aeabi_memclr>
   27510:	9503      	str	r5, [sp, #12]
   27512:	7025      	strb	r5, [r4, #0]
   27514:	2404      	movs	r4, #4
   27516:	9600      	str	r6, [sp, #0]
   27518:	9401      	str	r4, [sp, #4]
   2751a:	a825      	add	r0, sp, #148	@ 0x94
   2751c:	4e3c      	ldr	r6, [pc, #240]	@ (27610 <_ZN20complex_dynamic_type3app17hf1c64e3a3d97ec09E+0x128>)
   2751e:	2206      	movs	r2, #6
   27520:	4631      	mov	r1, r6
   27522:	9b05      	ldr	r3, [sp, #20]
   27524:	f003 feb9 	bl	2b29a <_ZN9allow_pin13dynamic_allow17h8bfd3764c146b81aE>
   27528:	9825      	ldr	r0, [sp, #148]	@ 0x94
   2752a:	2802      	cmp	r0, #2
   2752c:	d101      	bne.n	27532 <_ZN20complex_dynamic_type3app17hf1c64e3a3d97ec09E+0x4a>
   2752e:	9926      	ldr	r1, [sp, #152]	@ 0x98
   27530:	e001      	b.n	27536 <_ZN20complex_dynamic_type3app17hf1c64e3a3d97ec09E+0x4e>
   27532:	a908      	add	r1, sp, #32
   27534:	700c      	strb	r4, [r1, #0]
   27536:	2501      	movs	r5, #1
   27538:	2802      	cmp	r0, #2
   2753a:	d024      	beq.n	27586 <_ZN20complex_dynamic_type3app17hf1c64e3a3d97ec09E+0x9e>
   2753c:	a818      	add	r0, sp, #96	@ 0x60
   2753e:	7800      	ldrb	r0, [r0, #0]
   27540:	2802      	cmp	r0, #2
   27542:	d10e      	bne.n	27562 <_ZN20complex_dynamic_type3app17hf1c64e3a3d97ec09E+0x7a>
   27544:	2403      	movs	r4, #3
   27546:	9804      	ldr	r0, [sp, #16]
   27548:	9000      	str	r0, [sp, #0]
   2754a:	9401      	str	r4, [sp, #4]
   2754c:	a825      	add	r0, sp, #148	@ 0x94
   2754e:	2208      	movs	r2, #8
   27550:	4631      	mov	r1, r6
   27552:	9b06      	ldr	r3, [sp, #24]
   27554:	f003 fea1 	bl	2b29a <_ZN9allow_pin13dynamic_allow17h8bfd3764c146b81aE>
   27558:	9825      	ldr	r0, [sp, #148]	@ 0x94
   2755a:	2802      	cmp	r0, #2
   2755c:	d106      	bne.n	2756c <_ZN20complex_dynamic_type3app17hf1c64e3a3d97ec09E+0x84>
   2755e:	9926      	ldr	r1, [sp, #152]	@ 0x98
   27560:	e000      	b.n	27564 <_ZN20complex_dynamic_type3app17hf1c64e3a3d97ec09E+0x7c>
   27562:	2103      	movs	r1, #3
   27564:	4628      	mov	r0, r5
   27566:	2800      	cmp	r0, #0
   27568:	d005      	beq.n	27576 <_ZN20complex_dynamic_type3app17hf1c64e3a3d97ec09E+0x8e>
   2756a:	e00c      	b.n	27586 <_ZN20complex_dynamic_type3app17hf1c64e3a3d97ec09E+0x9e>
   2756c:	a818      	add	r0, sp, #96	@ 0x60
   2756e:	7004      	strb	r4, [r0, #0]
   27570:	2000      	movs	r0, #0
   27572:	2800      	cmp	r0, #0
   27574:	d107      	bne.n	27586 <_ZN20complex_dynamic_type3app17hf1c64e3a3d97ec09E+0x9e>
   27576:	4826      	ldr	r0, [pc, #152]	@ (27610 <_ZN20complex_dynamic_type3app17hf1c64e3a3d97ec09E+0x128>)
   27578:	2106      	movs	r1, #6
   2757a:	2208      	movs	r2, #8
   2757c:	2400      	movs	r4, #0
   2757e:	4623      	mov	r3, r4
   27580:	df02      	svc	2
   27582:	287f      	cmp	r0, #127	@ 0x7f
   27584:	d80d      	bhi.n	275a2 <_ZN20complex_dynamic_type3app17hf1c64e3a3d97ec09E+0xba>
   27586:	462c      	mov	r4, r5
   27588:	2c00      	cmp	r4, #0
   2758a:	d021      	beq.n	275d0 <_ZN20complex_dynamic_type3app17hf1c64e3a3d97ec09E+0xe8>
   2758c:	2001      	movs	r0, #1
   2758e:	9a07      	ldr	r2, [sp, #28]
   27590:	7010      	strb	r0, [r2, #0]
   27592:	6051      	str	r1, [r2, #4]
   27594:	a818      	add	r0, sp, #96	@ 0x60
   27596:	7802      	ldrb	r2, [r0, #0]
   27598:	2a02      	cmp	r2, #2
   2759a:	d02e      	beq.n	275fa <_ZN20complex_dynamic_type3app17hf1c64e3a3d97ec09E+0x112>
   2759c:	2108      	movs	r1, #8
   2759e:	4630      	mov	r0, r6
   275a0:	e029      	b.n	275f6 <_ZN20complex_dynamic_type3app17hf1c64e3a3d97ec09E+0x10e>
   275a2:	a808      	add	r0, sp, #32
   275a4:	7802      	ldrb	r2, [r0, #0]
   275a6:	2a02      	cmp	r2, #2
   275a8:	d003      	beq.n	275b2 <_ZN20complex_dynamic_type3app17hf1c64e3a3d97ec09E+0xca>
   275aa:	2106      	movs	r1, #6
   275ac:	4630      	mov	r0, r6
   275ae:	f003 fe67 	bl	2b280 <_ZN9allow_pin12dynamic_type7unshare17h19052c50f9e150aeE>
   275b2:	a808      	add	r0, sp, #32
   275b4:	9d03      	ldr	r5, [sp, #12]
   275b6:	7005      	strb	r5, [r0, #0]
   275b8:	a818      	add	r0, sp, #96	@ 0x60
   275ba:	7802      	ldrb	r2, [r0, #0]
   275bc:	2a02      	cmp	r2, #2
   275be:	d003      	beq.n	275c8 <_ZN20complex_dynamic_type3app17hf1c64e3a3d97ec09E+0xe0>
   275c0:	2108      	movs	r1, #8
   275c2:	4630      	mov	r0, r6
   275c4:	f003 fe5c 	bl	2b280 <_ZN9allow_pin12dynamic_type7unshare17h19052c50f9e150aeE>
   275c8:	a818      	add	r0, sp, #96	@ 0x60
   275ca:	7005      	strb	r5, [r0, #0]
   275cc:	2c00      	cmp	r4, #0
   275ce:	d1dd      	bne.n	2758c <_ZN20complex_dynamic_type3app17hf1c64e3a3d97ec09E+0xa4>
   275d0:	a818      	add	r0, sp, #96	@ 0x60
   275d2:	7804      	ldrb	r4, [r0, #0]
   275d4:	2c02      	cmp	r4, #2
   275d6:	d001      	beq.n	275dc <_ZN20complex_dynamic_type3app17hf1c64e3a3d97ec09E+0xf4>
   275d8:	480e      	ldr	r0, [pc, #56]	@ (27614 <_ZN20complex_dynamic_type3app17hf1c64e3a3d97ec09E+0x12c>)
   275da:	9006      	str	r0, [sp, #24]
   275dc:	9d07      	ldr	r5, [sp, #28]
   275de:	1c68      	adds	r0, r5, #1
   275e0:	2232      	movs	r2, #50	@ 0x32
   275e2:	9906      	ldr	r1, [sp, #24]
   275e4:	f004 f831 	bl	2b64a <__aeabi_memcpy>
   275e8:	2000      	movs	r0, #0
   275ea:	2c02      	cmp	r4, #2
   275ec:	7028      	strb	r0, [r5, #0]
   275ee:	d004      	beq.n	275fa <_ZN20complex_dynamic_type3app17hf1c64e3a3d97ec09E+0x112>
   275f0:	2108      	movs	r1, #8
   275f2:	4630      	mov	r0, r6
   275f4:	4622      	mov	r2, r4
   275f6:	f003 fe43 	bl	2b280 <_ZN9allow_pin12dynamic_type7unshare17h19052c50f9e150aeE>
   275fa:	a808      	add	r0, sp, #32
   275fc:	7802      	ldrb	r2, [r0, #0]
   275fe:	2a02      	cmp	r2, #2
   27600:	d003      	beq.n	2760a <_ZN20complex_dynamic_type3app17hf1c64e3a3d97ec09E+0x122>
   27602:	2106      	movs	r1, #6
   27604:	4630      	mov	r0, r6
   27606:	f003 fe3b 	bl	2b280 <_ZN9allow_pin12dynamic_type7unshare17h19052c50f9e150aeE>
   2760a:	b029      	add	sp, #164	@ 0xa4
   2760c:	bdf0      	pop	{r4, r5, r6, r7, pc}
   2760e:	46c0      	nop			@ (mov r8, r8)
   27610:	00001b1e 	.word	0x00001b1e
   27614:	00010867 	.word	0x00010867

00027618 <_ZN20complex_dynamic_type3app17hf36395a1c626f03fE>:
   27618:	b5f0      	push	{r4, r5, r6, r7, lr}
   2761a:	af03      	add	r7, sp, #12
   2761c:	b0a7      	sub	sp, #156	@ 0x9c
   2761e:	9007      	str	r0, [sp, #28]
   27620:	a808      	add	r0, sp, #32
   27622:	2502      	movs	r5, #2
   27624:	7005      	strb	r5, [r0, #0]
   27626:	1c40      	adds	r0, r0, #1
   27628:	9005      	str	r0, [sp, #20]
   2762a:	2644      	movs	r6, #68	@ 0x44
   2762c:	4632      	mov	r2, r6
   2762e:	f004 f80c 	bl	2b64a <__aeabi_memcpy>
   27632:	ac1a      	add	r4, sp, #104	@ 0x68
   27634:	1c60      	adds	r0, r4, #1
   27636:	2123      	movs	r1, #35	@ 0x23
   27638:	9006      	str	r0, [sp, #24]
   2763a:	9104      	str	r1, [sp, #16]
   2763c:	f003 fe45 	bl	2b2ca <__aeabi_memclr>
   27640:	9503      	str	r5, [sp, #12]
   27642:	7025      	strb	r5, [r4, #0]
   27644:	2404      	movs	r4, #4
   27646:	9600      	str	r6, [sp, #0]
   27648:	9401      	str	r4, [sp, #4]
   2764a:	a823      	add	r0, sp, #140	@ 0x8c
   2764c:	493b      	ldr	r1, [pc, #236]	@ (2773c <_ZN20complex_dynamic_type3app17hf36395a1c626f03fE+0x124>)
   2764e:	2206      	movs	r2, #6
   27650:	9b05      	ldr	r3, [sp, #20]
   27652:	f003 fe22 	bl	2b29a <_ZN9allow_pin13dynamic_allow17h8bfd3764c146b81aE>
   27656:	9823      	ldr	r0, [sp, #140]	@ 0x8c
   27658:	2802      	cmp	r0, #2
   2765a:	d101      	bne.n	27660 <_ZN20complex_dynamic_type3app17hf36395a1c626f03fE+0x48>
   2765c:	9924      	ldr	r1, [sp, #144]	@ 0x90
   2765e:	e001      	b.n	27664 <_ZN20complex_dynamic_type3app17hf36395a1c626f03fE+0x4c>
   27660:	a908      	add	r1, sp, #32
   27662:	700c      	strb	r4, [r1, #0]
   27664:	2601      	movs	r6, #1
   27666:	2802      	cmp	r0, #2
   27668:	d024      	beq.n	276b4 <_ZN20complex_dynamic_type3app17hf36395a1c626f03fE+0x9c>
   2766a:	a81a      	add	r0, sp, #104	@ 0x68
   2766c:	7800      	ldrb	r0, [r0, #0]
   2766e:	2802      	cmp	r0, #2
   27670:	d10e      	bne.n	27690 <_ZN20complex_dynamic_type3app17hf36395a1c626f03fE+0x78>
   27672:	2503      	movs	r5, #3
   27674:	9804      	ldr	r0, [sp, #16]
   27676:	9000      	str	r0, [sp, #0]
   27678:	9501      	str	r5, [sp, #4]
   2767a:	a823      	add	r0, sp, #140	@ 0x8c
   2767c:	492f      	ldr	r1, [pc, #188]	@ (2773c <_ZN20complex_dynamic_type3app17hf36395a1c626f03fE+0x124>)
   2767e:	462a      	mov	r2, r5
   27680:	9b06      	ldr	r3, [sp, #24]
   27682:	f003 fe0a 	bl	2b29a <_ZN9allow_pin13dynamic_allow17h8bfd3764c146b81aE>
   27686:	9823      	ldr	r0, [sp, #140]	@ 0x8c
   27688:	2802      	cmp	r0, #2
   2768a:	d106      	bne.n	2769a <_ZN20complex_dynamic_type3app17hf36395a1c626f03fE+0x82>
   2768c:	9924      	ldr	r1, [sp, #144]	@ 0x90
   2768e:	e000      	b.n	27692 <_ZN20complex_dynamic_type3app17hf36395a1c626f03fE+0x7a>
   27690:	2103      	movs	r1, #3
   27692:	4630      	mov	r0, r6
   27694:	2800      	cmp	r0, #0
   27696:	d005      	beq.n	276a4 <_ZN20complex_dynamic_type3app17hf36395a1c626f03fE+0x8c>
   27698:	e00c      	b.n	276b4 <_ZN20complex_dynamic_type3app17hf36395a1c626f03fE+0x9c>
   2769a:	a81a      	add	r0, sp, #104	@ 0x68
   2769c:	7005      	strb	r5, [r0, #0]
   2769e:	2000      	movs	r0, #0
   276a0:	2800      	cmp	r0, #0
   276a2:	d107      	bne.n	276b4 <_ZN20complex_dynamic_type3app17hf36395a1c626f03fE+0x9c>
   276a4:	4825      	ldr	r0, [pc, #148]	@ (2773c <_ZN20complex_dynamic_type3app17hf36395a1c626f03fE+0x124>)
   276a6:	2106      	movs	r1, #6
   276a8:	2203      	movs	r2, #3
   276aa:	2400      	movs	r4, #0
   276ac:	4623      	mov	r3, r4
   276ae:	df02      	svc	2
   276b0:	287f      	cmp	r0, #127	@ 0x7f
   276b2:	d80d      	bhi.n	276d0 <_ZN20complex_dynamic_type3app17hf36395a1c626f03fE+0xb8>
   276b4:	4634      	mov	r4, r6
   276b6:	2c00      	cmp	r4, #0
   276b8:	d021      	beq.n	276fe <_ZN20complex_dynamic_type3app17hf36395a1c626f03fE+0xe6>
   276ba:	2001      	movs	r0, #1
   276bc:	9a07      	ldr	r2, [sp, #28]
   276be:	7010      	strb	r0, [r2, #0]
   276c0:	6051      	str	r1, [r2, #4]
   276c2:	a81a      	add	r0, sp, #104	@ 0x68
   276c4:	7802      	ldrb	r2, [r0, #0]
   276c6:	2a02      	cmp	r2, #2
   276c8:	d02e      	beq.n	27728 <_ZN20complex_dynamic_type3app17hf36395a1c626f03fE+0x110>
   276ca:	2103      	movs	r1, #3
   276cc:	481b      	ldr	r0, [pc, #108]	@ (2773c <_ZN20complex_dynamic_type3app17hf36395a1c626f03fE+0x124>)
   276ce:	e029      	b.n	27724 <_ZN20complex_dynamic_type3app17hf36395a1c626f03fE+0x10c>
   276d0:	a808      	add	r0, sp, #32
   276d2:	7802      	ldrb	r2, [r0, #0]
   276d4:	2a02      	cmp	r2, #2
   276d6:	d003      	beq.n	276e0 <_ZN20complex_dynamic_type3app17hf36395a1c626f03fE+0xc8>
   276d8:	2106      	movs	r1, #6
   276da:	4818      	ldr	r0, [pc, #96]	@ (2773c <_ZN20complex_dynamic_type3app17hf36395a1c626f03fE+0x124>)
   276dc:	f003 fdd0 	bl	2b280 <_ZN9allow_pin12dynamic_type7unshare17h19052c50f9e150aeE>
   276e0:	a808      	add	r0, sp, #32
   276e2:	9d03      	ldr	r5, [sp, #12]
   276e4:	7005      	strb	r5, [r0, #0]
   276e6:	a81a      	add	r0, sp, #104	@ 0x68
   276e8:	7802      	ldrb	r2, [r0, #0]
   276ea:	2a02      	cmp	r2, #2
   276ec:	d003      	beq.n	276f6 <_ZN20complex_dynamic_type3app17hf36395a1c626f03fE+0xde>
   276ee:	2103      	movs	r1, #3
   276f0:	4812      	ldr	r0, [pc, #72]	@ (2773c <_ZN20complex_dynamic_type3app17hf36395a1c626f03fE+0x124>)
   276f2:	f003 fdc5 	bl	2b280 <_ZN9allow_pin12dynamic_type7unshare17h19052c50f9e150aeE>
   276f6:	a81a      	add	r0, sp, #104	@ 0x68
   276f8:	7005      	strb	r5, [r0, #0]
   276fa:	2c00      	cmp	r4, #0
   276fc:	d1dd      	bne.n	276ba <_ZN20complex_dynamic_type3app17hf36395a1c626f03fE+0xa2>
   276fe:	a81a      	add	r0, sp, #104	@ 0x68
   27700:	7804      	ldrb	r4, [r0, #0]
   27702:	2c02      	cmp	r4, #2
   27704:	d001      	beq.n	2770a <_ZN20complex_dynamic_type3app17hf36395a1c626f03fE+0xf2>
   27706:	480e      	ldr	r0, [pc, #56]	@ (27740 <_ZN20complex_dynamic_type3app17hf36395a1c626f03fE+0x128>)
   27708:	9006      	str	r0, [sp, #24]
   2770a:	9d07      	ldr	r5, [sp, #28]
   2770c:	1c68      	adds	r0, r5, #1
   2770e:	2223      	movs	r2, #35	@ 0x23
   27710:	9906      	ldr	r1, [sp, #24]
   27712:	f003 ff9a 	bl	2b64a <__aeabi_memcpy>
   27716:	2000      	movs	r0, #0
   27718:	2c02      	cmp	r4, #2
   2771a:	7028      	strb	r0, [r5, #0]
   2771c:	d004      	beq.n	27728 <_ZN20complex_dynamic_type3app17hf36395a1c626f03fE+0x110>
   2771e:	2103      	movs	r1, #3
   27720:	4806      	ldr	r0, [pc, #24]	@ (2773c <_ZN20complex_dynamic_type3app17hf36395a1c626f03fE+0x124>)
   27722:	4622      	mov	r2, r4
   27724:	f003 fdac 	bl	2b280 <_ZN9allow_pin12dynamic_type7unshare17h19052c50f9e150aeE>
   27728:	a808      	add	r0, sp, #32
   2772a:	7802      	ldrb	r2, [r0, #0]
   2772c:	2a02      	cmp	r2, #2
   2772e:	d003      	beq.n	27738 <_ZN20complex_dynamic_type3app17hf36395a1c626f03fE+0x120>
   27730:	2106      	movs	r1, #6
   27732:	4802      	ldr	r0, [pc, #8]	@ (2773c <_ZN20complex_dynamic_type3app17hf36395a1c626f03fE+0x124>)
   27734:	f003 fda4 	bl	2b280 <_ZN9allow_pin12dynamic_type7unshare17h19052c50f9e150aeE>
   27738:	b027      	add	sp, #156	@ 0x9c
   2773a:	bdf0      	pop	{r4, r5, r6, r7, pc}
   2773c:	000009bf 	.word	0x000009bf
   27740:	00010771 	.word	0x00010771

00027744 <_ZN20complex_dynamic_type3app17hf3682c46a808e1fbE>:
   27744:	b5f0      	push	{r4, r5, r6, r7, lr}
   27746:	af03      	add	r7, sp, #12
   27748:	b0a3      	sub	sp, #140	@ 0x8c
   2774a:	9007      	str	r0, [sp, #28]
   2774c:	a808      	add	r0, sp, #32
   2774e:	2602      	movs	r6, #2
   27750:	7006      	strb	r6, [r0, #0]
   27752:	1c40      	adds	r0, r0, #1
   27754:	9005      	str	r0, [sp, #20]
   27756:	250e      	movs	r5, #14
   27758:	462a      	mov	r2, r5
   2775a:	f003 ff76 	bl	2b64a <__aeabi_memcpy>
   2775e:	ac0c      	add	r4, sp, #48	@ 0x30
   27760:	1c60      	adds	r0, r4, #1
   27762:	2148      	movs	r1, #72	@ 0x48
   27764:	9006      	str	r0, [sp, #24]
   27766:	9104      	str	r1, [sp, #16]
   27768:	f003 fdaf 	bl	2b2ca <__aeabi_memclr>
   2776c:	9603      	str	r6, [sp, #12]
   2776e:	7026      	strb	r6, [r4, #0]
   27770:	2404      	movs	r4, #4
   27772:	9500      	str	r5, [sp, #0]
   27774:	9401      	str	r4, [sp, #4]
   27776:	a81f      	add	r0, sp, #124	@ 0x7c
   27778:	493c      	ldr	r1, [pc, #240]	@ (2786c <_ZN20complex_dynamic_type3app17hf3682c46a808e1fbE+0x128>)
   2777a:	2503      	movs	r5, #3
   2777c:	462a      	mov	r2, r5
   2777e:	9b05      	ldr	r3, [sp, #20]
   27780:	f003 fd8b 	bl	2b29a <_ZN9allow_pin13dynamic_allow17h8bfd3764c146b81aE>
   27784:	981f      	ldr	r0, [sp, #124]	@ 0x7c
   27786:	2802      	cmp	r0, #2
   27788:	d101      	bne.n	2778e <_ZN20complex_dynamic_type3app17hf3682c46a808e1fbE+0x4a>
   2778a:	9920      	ldr	r1, [sp, #128]	@ 0x80
   2778c:	e001      	b.n	27792 <_ZN20complex_dynamic_type3app17hf3682c46a808e1fbE+0x4e>
   2778e:	a908      	add	r1, sp, #32
   27790:	700c      	strb	r4, [r1, #0]
   27792:	2601      	movs	r6, #1
   27794:	2802      	cmp	r0, #2
   27796:	d024      	beq.n	277e2 <_ZN20complex_dynamic_type3app17hf3682c46a808e1fbE+0x9e>
   27798:	a80c      	add	r0, sp, #48	@ 0x30
   2779a:	7800      	ldrb	r0, [r0, #0]
   2779c:	2802      	cmp	r0, #2
   2779e:	4630      	mov	r0, r6
   277a0:	d10e      	bne.n	277c0 <_ZN20complex_dynamic_type3app17hf3682c46a808e1fbE+0x7c>
   277a2:	2403      	movs	r4, #3
   277a4:	9804      	ldr	r0, [sp, #16]
   277a6:	9000      	str	r0, [sp, #0]
   277a8:	9401      	str	r4, [sp, #4]
   277aa:	a81f      	add	r0, sp, #124	@ 0x7c
   277ac:	2208      	movs	r2, #8
   277ae:	492f      	ldr	r1, [pc, #188]	@ (2786c <_ZN20complex_dynamic_type3app17hf3682c46a808e1fbE+0x128>)
   277b0:	9b06      	ldr	r3, [sp, #24]
   277b2:	f003 fd72 	bl	2b29a <_ZN9allow_pin13dynamic_allow17h8bfd3764c146b81aE>
   277b6:	981f      	ldr	r0, [sp, #124]	@ 0x7c
   277b8:	2802      	cmp	r0, #2
   277ba:	d105      	bne.n	277c8 <_ZN20complex_dynamic_type3app17hf3682c46a808e1fbE+0x84>
   277bc:	9d20      	ldr	r5, [sp, #128]	@ 0x80
   277be:	4630      	mov	r0, r6
   277c0:	2800      	cmp	r0, #0
   277c2:	d006      	beq.n	277d2 <_ZN20complex_dynamic_type3app17hf3682c46a808e1fbE+0x8e>
   277c4:	4629      	mov	r1, r5
   277c6:	e00c      	b.n	277e2 <_ZN20complex_dynamic_type3app17hf3682c46a808e1fbE+0x9e>
   277c8:	a80c      	add	r0, sp, #48	@ 0x30
   277ca:	7004      	strb	r4, [r0, #0]
   277cc:	2000      	movs	r0, #0
   277ce:	2800      	cmp	r0, #0
   277d0:	d1f8      	bne.n	277c4 <_ZN20complex_dynamic_type3app17hf3682c46a808e1fbE+0x80>
   277d2:	4826      	ldr	r0, [pc, #152]	@ (2786c <_ZN20complex_dynamic_type3app17hf3682c46a808e1fbE+0x128>)
   277d4:	2103      	movs	r1, #3
   277d6:	2208      	movs	r2, #8
   277d8:	2400      	movs	r4, #0
   277da:	4623      	mov	r3, r4
   277dc:	df02      	svc	2
   277de:	287f      	cmp	r0, #127	@ 0x7f
   277e0:	d80d      	bhi.n	277fe <_ZN20complex_dynamic_type3app17hf3682c46a808e1fbE+0xba>
   277e2:	4634      	mov	r4, r6
   277e4:	2c00      	cmp	r4, #0
   277e6:	d021      	beq.n	2782c <_ZN20complex_dynamic_type3app17hf3682c46a808e1fbE+0xe8>
   277e8:	2001      	movs	r0, #1
   277ea:	9a07      	ldr	r2, [sp, #28]
   277ec:	7010      	strb	r0, [r2, #0]
   277ee:	6051      	str	r1, [r2, #4]
   277f0:	a80c      	add	r0, sp, #48	@ 0x30
   277f2:	7802      	ldrb	r2, [r0, #0]
   277f4:	2a02      	cmp	r2, #2
   277f6:	d02e      	beq.n	27856 <_ZN20complex_dynamic_type3app17hf3682c46a808e1fbE+0x112>
   277f8:	2108      	movs	r1, #8
   277fa:	481c      	ldr	r0, [pc, #112]	@ (2786c <_ZN20complex_dynamic_type3app17hf3682c46a808e1fbE+0x128>)
   277fc:	e029      	b.n	27852 <_ZN20complex_dynamic_type3app17hf3682c46a808e1fbE+0x10e>
   277fe:	a808      	add	r0, sp, #32
   27800:	7802      	ldrb	r2, [r0, #0]
   27802:	2a02      	cmp	r2, #2
   27804:	d003      	beq.n	2780e <_ZN20complex_dynamic_type3app17hf3682c46a808e1fbE+0xca>
   27806:	2103      	movs	r1, #3
   27808:	4818      	ldr	r0, [pc, #96]	@ (2786c <_ZN20complex_dynamic_type3app17hf3682c46a808e1fbE+0x128>)
   2780a:	f003 fd39 	bl	2b280 <_ZN9allow_pin12dynamic_type7unshare17h19052c50f9e150aeE>
   2780e:	a808      	add	r0, sp, #32
   27810:	9d03      	ldr	r5, [sp, #12]
   27812:	7005      	strb	r5, [r0, #0]
   27814:	a80c      	add	r0, sp, #48	@ 0x30
   27816:	7802      	ldrb	r2, [r0, #0]
   27818:	2a02      	cmp	r2, #2
   2781a:	d003      	beq.n	27824 <_ZN20complex_dynamic_type3app17hf3682c46a808e1fbE+0xe0>
   2781c:	2108      	movs	r1, #8
   2781e:	4813      	ldr	r0, [pc, #76]	@ (2786c <_ZN20complex_dynamic_type3app17hf3682c46a808e1fbE+0x128>)
   27820:	f003 fd2e 	bl	2b280 <_ZN9allow_pin12dynamic_type7unshare17h19052c50f9e150aeE>
   27824:	a80c      	add	r0, sp, #48	@ 0x30
   27826:	7005      	strb	r5, [r0, #0]
   27828:	2c00      	cmp	r4, #0
   2782a:	d1dd      	bne.n	277e8 <_ZN20complex_dynamic_type3app17hf3682c46a808e1fbE+0xa4>
   2782c:	a80c      	add	r0, sp, #48	@ 0x30
   2782e:	7804      	ldrb	r4, [r0, #0]
   27830:	2c02      	cmp	r4, #2
   27832:	d001      	beq.n	27838 <_ZN20complex_dynamic_type3app17hf3682c46a808e1fbE+0xf4>
   27834:	480e      	ldr	r0, [pc, #56]	@ (27870 <_ZN20complex_dynamic_type3app17hf3682c46a808e1fbE+0x12c>)
   27836:	9006      	str	r0, [sp, #24]
   27838:	9d07      	ldr	r5, [sp, #28]
   2783a:	1c68      	adds	r0, r5, #1
   2783c:	2248      	movs	r2, #72	@ 0x48
   2783e:	9906      	ldr	r1, [sp, #24]
   27840:	f003 ff03 	bl	2b64a <__aeabi_memcpy>
   27844:	2000      	movs	r0, #0
   27846:	2c02      	cmp	r4, #2
   27848:	7028      	strb	r0, [r5, #0]
   2784a:	d004      	beq.n	27856 <_ZN20complex_dynamic_type3app17hf3682c46a808e1fbE+0x112>
   2784c:	2108      	movs	r1, #8
   2784e:	4807      	ldr	r0, [pc, #28]	@ (2786c <_ZN20complex_dynamic_type3app17hf3682c46a808e1fbE+0x128>)
   27850:	4622      	mov	r2, r4
   27852:	f003 fd15 	bl	2b280 <_ZN9allow_pin12dynamic_type7unshare17h19052c50f9e150aeE>
   27856:	a808      	add	r0, sp, #32
   27858:	7802      	ldrb	r2, [r0, #0]
   2785a:	2a02      	cmp	r2, #2
   2785c:	d003      	beq.n	27866 <_ZN20complex_dynamic_type3app17hf3682c46a808e1fbE+0x122>
   2785e:	2103      	movs	r1, #3
   27860:	4802      	ldr	r0, [pc, #8]	@ (2786c <_ZN20complex_dynamic_type3app17hf3682c46a808e1fbE+0x128>)
   27862:	f003 fd0d 	bl	2b280 <_ZN9allow_pin12dynamic_type7unshare17h19052c50f9e150aeE>
   27866:	b023      	add	sp, #140	@ 0x8c
   27868:	bdf0      	pop	{r4, r5, r6, r7, pc}
   2786a:	46c0      	nop			@ (mov r8, r8)
   2786c:	000012d1 	.word	0x000012d1
   27870:	00010245 	.word	0x00010245

00027874 <_ZN20complex_dynamic_type3app17hf49d2f47e146ec92E>:
   27874:	b5f0      	push	{r4, r5, r6, r7, lr}
   27876:	af03      	add	r7, sp, #12
   27878:	b0ab      	sub	sp, #172	@ 0xac
   2787a:	9007      	str	r0, [sp, #28]
   2787c:	a808      	add	r0, sp, #32
   2787e:	2602      	movs	r6, #2
   27880:	7006      	strb	r6, [r0, #0]
   27882:	1c40      	adds	r0, r0, #1
   27884:	9005      	str	r0, [sp, #20]
   27886:	2427      	movs	r4, #39	@ 0x27
   27888:	4622      	mov	r2, r4
   2788a:	f003 fede 	bl	2b64a <__aeabi_memcpy>
   2788e:	ad12      	add	r5, sp, #72	@ 0x48
   27890:	1c68      	adds	r0, r5, #1
   27892:	2151      	movs	r1, #81	@ 0x51
   27894:	9006      	str	r0, [sp, #24]
   27896:	9104      	str	r1, [sp, #16]
   27898:	f003 fd17 	bl	2b2ca <__aeabi_memclr>
   2789c:	9603      	str	r6, [sp, #12]
   2789e:	702e      	strb	r6, [r5, #0]
   278a0:	2504      	movs	r5, #4
   278a2:	9400      	str	r4, [sp, #0]
   278a4:	9501      	str	r5, [sp, #4]
   278a6:	a827      	add	r0, sp, #156	@ 0x9c
   278a8:	493b      	ldr	r1, [pc, #236]	@ (27998 <_ZN20complex_dynamic_type3app17hf49d2f47e146ec92E+0x124>)
   278aa:	2400      	movs	r4, #0
   278ac:	4622      	mov	r2, r4
   278ae:	9b05      	ldr	r3, [sp, #20]
   278b0:	f003 fcf3 	bl	2b29a <_ZN9allow_pin13dynamic_allow17h8bfd3764c146b81aE>
   278b4:	9827      	ldr	r0, [sp, #156]	@ 0x9c
   278b6:	2802      	cmp	r0, #2
   278b8:	d101      	bne.n	278be <_ZN20complex_dynamic_type3app17hf49d2f47e146ec92E+0x4a>
   278ba:	9928      	ldr	r1, [sp, #160]	@ 0xa0
   278bc:	e001      	b.n	278c2 <_ZN20complex_dynamic_type3app17hf49d2f47e146ec92E+0x4e>
   278be:	a908      	add	r1, sp, #32
   278c0:	700d      	strb	r5, [r1, #0]
   278c2:	2601      	movs	r6, #1
   278c4:	2802      	cmp	r0, #2
   278c6:	d023      	beq.n	27910 <_ZN20complex_dynamic_type3app17hf49d2f47e146ec92E+0x9c>
   278c8:	a812      	add	r0, sp, #72	@ 0x48
   278ca:	7800      	ldrb	r0, [r0, #0]
   278cc:	2802      	cmp	r0, #2
   278ce:	d10e      	bne.n	278ee <_ZN20complex_dynamic_type3app17hf49d2f47e146ec92E+0x7a>
   278d0:	2503      	movs	r5, #3
   278d2:	9804      	ldr	r0, [sp, #16]
   278d4:	9000      	str	r0, [sp, #0]
   278d6:	9501      	str	r5, [sp, #4]
   278d8:	a827      	add	r0, sp, #156	@ 0x9c
   278da:	2204      	movs	r2, #4
   278dc:	492e      	ldr	r1, [pc, #184]	@ (27998 <_ZN20complex_dynamic_type3app17hf49d2f47e146ec92E+0x124>)
   278de:	9b06      	ldr	r3, [sp, #24]
   278e0:	f003 fcdb 	bl	2b29a <_ZN9allow_pin13dynamic_allow17h8bfd3764c146b81aE>
   278e4:	9827      	ldr	r0, [sp, #156]	@ 0x9c
   278e6:	2802      	cmp	r0, #2
   278e8:	d106      	bne.n	278f8 <_ZN20complex_dynamic_type3app17hf49d2f47e146ec92E+0x84>
   278ea:	9928      	ldr	r1, [sp, #160]	@ 0xa0
   278ec:	e000      	b.n	278f0 <_ZN20complex_dynamic_type3app17hf49d2f47e146ec92E+0x7c>
   278ee:	2103      	movs	r1, #3
   278f0:	4634      	mov	r4, r6
   278f2:	2c00      	cmp	r4, #0
   278f4:	d004      	beq.n	27900 <_ZN20complex_dynamic_type3app17hf49d2f47e146ec92E+0x8c>
   278f6:	e00b      	b.n	27910 <_ZN20complex_dynamic_type3app17hf49d2f47e146ec92E+0x9c>
   278f8:	a812      	add	r0, sp, #72	@ 0x48
   278fa:	7005      	strb	r5, [r0, #0]
   278fc:	2c00      	cmp	r4, #0
   278fe:	d107      	bne.n	27910 <_ZN20complex_dynamic_type3app17hf49d2f47e146ec92E+0x9c>
   27900:	4825      	ldr	r0, [pc, #148]	@ (27998 <_ZN20complex_dynamic_type3app17hf49d2f47e146ec92E+0x124>)
   27902:	2204      	movs	r2, #4
   27904:	2400      	movs	r4, #0
   27906:	4621      	mov	r1, r4
   27908:	4623      	mov	r3, r4
   2790a:	df02      	svc	2
   2790c:	287f      	cmp	r0, #127	@ 0x7f
   2790e:	d80d      	bhi.n	2792c <_ZN20complex_dynamic_type3app17hf49d2f47e146ec92E+0xb8>
   27910:	4634      	mov	r4, r6
   27912:	2c00      	cmp	r4, #0
   27914:	d021      	beq.n	2795a <_ZN20complex_dynamic_type3app17hf49d2f47e146ec92E+0xe6>
   27916:	2001      	movs	r0, #1
   27918:	9a07      	ldr	r2, [sp, #28]
   2791a:	7010      	strb	r0, [r2, #0]
   2791c:	6051      	str	r1, [r2, #4]
   2791e:	a812      	add	r0, sp, #72	@ 0x48
   27920:	7802      	ldrb	r2, [r0, #0]
   27922:	2a02      	cmp	r2, #2
   27924:	d02e      	beq.n	27984 <_ZN20complex_dynamic_type3app17hf49d2f47e146ec92E+0x110>
   27926:	2104      	movs	r1, #4
   27928:	481b      	ldr	r0, [pc, #108]	@ (27998 <_ZN20complex_dynamic_type3app17hf49d2f47e146ec92E+0x124>)
   2792a:	e029      	b.n	27980 <_ZN20complex_dynamic_type3app17hf49d2f47e146ec92E+0x10c>
   2792c:	a808      	add	r0, sp, #32
   2792e:	7802      	ldrb	r2, [r0, #0]
   27930:	2a02      	cmp	r2, #2
   27932:	d003      	beq.n	2793c <_ZN20complex_dynamic_type3app17hf49d2f47e146ec92E+0xc8>
   27934:	2100      	movs	r1, #0
   27936:	4818      	ldr	r0, [pc, #96]	@ (27998 <_ZN20complex_dynamic_type3app17hf49d2f47e146ec92E+0x124>)
   27938:	f003 fca2 	bl	2b280 <_ZN9allow_pin12dynamic_type7unshare17h19052c50f9e150aeE>
   2793c:	a808      	add	r0, sp, #32
   2793e:	9d03      	ldr	r5, [sp, #12]
   27940:	7005      	strb	r5, [r0, #0]
   27942:	a812      	add	r0, sp, #72	@ 0x48
   27944:	7802      	ldrb	r2, [r0, #0]
   27946:	2a02      	cmp	r2, #2
   27948:	d003      	beq.n	27952 <_ZN20complex_dynamic_type3app17hf49d2f47e146ec92E+0xde>
   2794a:	2104      	movs	r1, #4
   2794c:	4812      	ldr	r0, [pc, #72]	@ (27998 <_ZN20complex_dynamic_type3app17hf49d2f47e146ec92E+0x124>)
   2794e:	f003 fc97 	bl	2b280 <_ZN9allow_pin12dynamic_type7unshare17h19052c50f9e150aeE>
   27952:	a812      	add	r0, sp, #72	@ 0x48
   27954:	7005      	strb	r5, [r0, #0]
   27956:	2c00      	cmp	r4, #0
   27958:	d1dd      	bne.n	27916 <_ZN20complex_dynamic_type3app17hf49d2f47e146ec92E+0xa2>
   2795a:	a812      	add	r0, sp, #72	@ 0x48
   2795c:	7804      	ldrb	r4, [r0, #0]
   2795e:	2c02      	cmp	r4, #2
   27960:	d001      	beq.n	27966 <_ZN20complex_dynamic_type3app17hf49d2f47e146ec92E+0xf2>
   27962:	480e      	ldr	r0, [pc, #56]	@ (2799c <_ZN20complex_dynamic_type3app17hf49d2f47e146ec92E+0x128>)
   27964:	9006      	str	r0, [sp, #24]
   27966:	9d07      	ldr	r5, [sp, #28]
   27968:	1c68      	adds	r0, r5, #1
   2796a:	2251      	movs	r2, #81	@ 0x51
   2796c:	9906      	ldr	r1, [sp, #24]
   2796e:	f003 fe6c 	bl	2b64a <__aeabi_memcpy>
   27972:	2000      	movs	r0, #0
   27974:	2c02      	cmp	r4, #2
   27976:	7028      	strb	r0, [r5, #0]
   27978:	d004      	beq.n	27984 <_ZN20complex_dynamic_type3app17hf49d2f47e146ec92E+0x110>
   2797a:	2104      	movs	r1, #4
   2797c:	4806      	ldr	r0, [pc, #24]	@ (27998 <_ZN20complex_dynamic_type3app17hf49d2f47e146ec92E+0x124>)
   2797e:	4622      	mov	r2, r4
   27980:	f003 fc7e 	bl	2b280 <_ZN9allow_pin12dynamic_type7unshare17h19052c50f9e150aeE>
   27984:	a808      	add	r0, sp, #32
   27986:	7802      	ldrb	r2, [r0, #0]
   27988:	2a02      	cmp	r2, #2
   2798a:	d003      	beq.n	27994 <_ZN20complex_dynamic_type3app17hf49d2f47e146ec92E+0x120>
   2798c:	2100      	movs	r1, #0
   2798e:	4802      	ldr	r0, [pc, #8]	@ (27998 <_ZN20complex_dynamic_type3app17hf49d2f47e146ec92E+0x124>)
   27990:	f003 fc76 	bl	2b280 <_ZN9allow_pin12dynamic_type7unshare17h19052c50f9e150aeE>
   27994:	b02b      	add	sp, #172	@ 0xac
   27996:	bdf0      	pop	{r4, r5, r6, r7, pc}
   27998:	00000a36 	.word	0x00000a36
   2799c:	000102f0 	.word	0x000102f0

000279a0 <_ZN20complex_dynamic_type3app17hf90a62d765733414E>:
   279a0:	b5f0      	push	{r4, r5, r6, r7, lr}
   279a2:	af03      	add	r7, sp, #12
   279a4:	b0af      	sub	sp, #188	@ 0xbc
   279a6:	9006      	str	r0, [sp, #24]
   279a8:	a807      	add	r0, sp, #28
   279aa:	2502      	movs	r5, #2
   279ac:	7005      	strb	r5, [r0, #0]
   279ae:	1c40      	adds	r0, r0, #1
   279b0:	9004      	str	r0, [sp, #16]
   279b2:	2653      	movs	r6, #83	@ 0x53
   279b4:	4632      	mov	r2, r6
   279b6:	f003 fe48 	bl	2b64a <__aeabi_memcpy>
   279ba:	ac1c      	add	r4, sp, #112	@ 0x70
   279bc:	1c60      	adds	r0, r4, #1
   279be:	213a      	movs	r1, #58	@ 0x3a
   279c0:	9005      	str	r0, [sp, #20]
   279c2:	9103      	str	r1, [sp, #12]
   279c4:	f003 fc81 	bl	2b2ca <__aeabi_memclr>
   279c8:	9502      	str	r5, [sp, #8]
   279ca:	7025      	strb	r5, [r4, #0]
   279cc:	2404      	movs	r4, #4
   279ce:	9600      	str	r6, [sp, #0]
   279d0:	9401      	str	r4, [sp, #4]
   279d2:	a82b      	add	r0, sp, #172	@ 0xac
   279d4:	4e3c      	ldr	r6, [pc, #240]	@ (27ac8 <_ZN20complex_dynamic_type3app17hf90a62d765733414E+0x128>)
   279d6:	2206      	movs	r2, #6
   279d8:	4631      	mov	r1, r6
   279da:	9b04      	ldr	r3, [sp, #16]
   279dc:	f003 fc5d 	bl	2b29a <_ZN9allow_pin13dynamic_allow17h8bfd3764c146b81aE>
   279e0:	982b      	ldr	r0, [sp, #172]	@ 0xac
   279e2:	2802      	cmp	r0, #2
   279e4:	d101      	bne.n	279ea <_ZN20complex_dynamic_type3app17hf90a62d765733414E+0x4a>
   279e6:	992c      	ldr	r1, [sp, #176]	@ 0xb0
   279e8:	e001      	b.n	279ee <_ZN20complex_dynamic_type3app17hf90a62d765733414E+0x4e>
   279ea:	a907      	add	r1, sp, #28
   279ec:	700c      	strb	r4, [r1, #0]
   279ee:	2501      	movs	r5, #1
   279f0:	2802      	cmp	r0, #2
   279f2:	d024      	beq.n	27a3e <_ZN20complex_dynamic_type3app17hf90a62d765733414E+0x9e>
   279f4:	a81c      	add	r0, sp, #112	@ 0x70
   279f6:	7800      	ldrb	r0, [r0, #0]
   279f8:	2802      	cmp	r0, #2
   279fa:	d10e      	bne.n	27a1a <_ZN20complex_dynamic_type3app17hf90a62d765733414E+0x7a>
   279fc:	2403      	movs	r4, #3
   279fe:	9803      	ldr	r0, [sp, #12]
   27a00:	9000      	str	r0, [sp, #0]
   27a02:	9401      	str	r4, [sp, #4]
   27a04:	a82b      	add	r0, sp, #172	@ 0xac
   27a06:	2207      	movs	r2, #7
   27a08:	4631      	mov	r1, r6
   27a0a:	9b05      	ldr	r3, [sp, #20]
   27a0c:	f003 fc45 	bl	2b29a <_ZN9allow_pin13dynamic_allow17h8bfd3764c146b81aE>
   27a10:	982b      	ldr	r0, [sp, #172]	@ 0xac
   27a12:	2802      	cmp	r0, #2
   27a14:	d106      	bne.n	27a24 <_ZN20complex_dynamic_type3app17hf90a62d765733414E+0x84>
   27a16:	992c      	ldr	r1, [sp, #176]	@ 0xb0
   27a18:	e000      	b.n	27a1c <_ZN20complex_dynamic_type3app17hf90a62d765733414E+0x7c>
   27a1a:	2103      	movs	r1, #3
   27a1c:	4628      	mov	r0, r5
   27a1e:	2800      	cmp	r0, #0
   27a20:	d005      	beq.n	27a2e <_ZN20complex_dynamic_type3app17hf90a62d765733414E+0x8e>
   27a22:	e00c      	b.n	27a3e <_ZN20complex_dynamic_type3app17hf90a62d765733414E+0x9e>
   27a24:	a81c      	add	r0, sp, #112	@ 0x70
   27a26:	7004      	strb	r4, [r0, #0]
   27a28:	2000      	movs	r0, #0
   27a2a:	2800      	cmp	r0, #0
   27a2c:	d107      	bne.n	27a3e <_ZN20complex_dynamic_type3app17hf90a62d765733414E+0x9e>
   27a2e:	4826      	ldr	r0, [pc, #152]	@ (27ac8 <_ZN20complex_dynamic_type3app17hf90a62d765733414E+0x128>)
   27a30:	2106      	movs	r1, #6
   27a32:	2207      	movs	r2, #7
   27a34:	2400      	movs	r4, #0
   27a36:	4623      	mov	r3, r4
   27a38:	df02      	svc	2
   27a3a:	287f      	cmp	r0, #127	@ 0x7f
   27a3c:	d80d      	bhi.n	27a5a <_ZN20complex_dynamic_type3app17hf90a62d765733414E+0xba>
   27a3e:	462c      	mov	r4, r5
   27a40:	2c00      	cmp	r4, #0
   27a42:	d021      	beq.n	27a88 <_ZN20complex_dynamic_type3app17hf90a62d765733414E+0xe8>
   27a44:	2001      	movs	r0, #1
   27a46:	9a06      	ldr	r2, [sp, #24]
   27a48:	7010      	strb	r0, [r2, #0]
   27a4a:	6051      	str	r1, [r2, #4]
   27a4c:	a81c      	add	r0, sp, #112	@ 0x70
   27a4e:	7802      	ldrb	r2, [r0, #0]
   27a50:	2a02      	cmp	r2, #2
   27a52:	d02e      	beq.n	27ab2 <_ZN20complex_dynamic_type3app17hf90a62d765733414E+0x112>
   27a54:	2107      	movs	r1, #7
   27a56:	4630      	mov	r0, r6
   27a58:	e029      	b.n	27aae <_ZN20complex_dynamic_type3app17hf90a62d765733414E+0x10e>
   27a5a:	a807      	add	r0, sp, #28
   27a5c:	7802      	ldrb	r2, [r0, #0]
   27a5e:	2a02      	cmp	r2, #2
   27a60:	d003      	beq.n	27a6a <_ZN20complex_dynamic_type3app17hf90a62d765733414E+0xca>
   27a62:	2106      	movs	r1, #6
   27a64:	4630      	mov	r0, r6
   27a66:	f003 fc0b 	bl	2b280 <_ZN9allow_pin12dynamic_type7unshare17h19052c50f9e150aeE>
   27a6a:	a807      	add	r0, sp, #28
   27a6c:	9d02      	ldr	r5, [sp, #8]
   27a6e:	7005      	strb	r5, [r0, #0]
   27a70:	a81c      	add	r0, sp, #112	@ 0x70
   27a72:	7802      	ldrb	r2, [r0, #0]
   27a74:	2a02      	cmp	r2, #2
   27a76:	d003      	beq.n	27a80 <_ZN20complex_dynamic_type3app17hf90a62d765733414E+0xe0>
   27a78:	2107      	movs	r1, #7
   27a7a:	4630      	mov	r0, r6
   27a7c:	f003 fc00 	bl	2b280 <_ZN9allow_pin12dynamic_type7unshare17h19052c50f9e150aeE>
   27a80:	a81c      	add	r0, sp, #112	@ 0x70
   27a82:	7005      	strb	r5, [r0, #0]
   27a84:	2c00      	cmp	r4, #0
   27a86:	d1dd      	bne.n	27a44 <_ZN20complex_dynamic_type3app17hf90a62d765733414E+0xa4>
   27a88:	a81c      	add	r0, sp, #112	@ 0x70
   27a8a:	7804      	ldrb	r4, [r0, #0]
   27a8c:	2c02      	cmp	r4, #2
   27a8e:	d001      	beq.n	27a94 <_ZN20complex_dynamic_type3app17hf90a62d765733414E+0xf4>
   27a90:	480e      	ldr	r0, [pc, #56]	@ (27acc <_ZN20complex_dynamic_type3app17hf90a62d765733414E+0x12c>)
   27a92:	9005      	str	r0, [sp, #20]
   27a94:	9d06      	ldr	r5, [sp, #24]
   27a96:	1c68      	adds	r0, r5, #1
   27a98:	223a      	movs	r2, #58	@ 0x3a
   27a9a:	9905      	ldr	r1, [sp, #20]
   27a9c:	f003 fdd5 	bl	2b64a <__aeabi_memcpy>
   27aa0:	2000      	movs	r0, #0
   27aa2:	2c02      	cmp	r4, #2
   27aa4:	7028      	strb	r0, [r5, #0]
   27aa6:	d004      	beq.n	27ab2 <_ZN20complex_dynamic_type3app17hf90a62d765733414E+0x112>
   27aa8:	2107      	movs	r1, #7
   27aaa:	4630      	mov	r0, r6
   27aac:	4622      	mov	r2, r4
   27aae:	f003 fbe7 	bl	2b280 <_ZN9allow_pin12dynamic_type7unshare17h19052c50f9e150aeE>
   27ab2:	a807      	add	r0, sp, #28
   27ab4:	7802      	ldrb	r2, [r0, #0]
   27ab6:	2a02      	cmp	r2, #2
   27ab8:	d003      	beq.n	27ac2 <_ZN20complex_dynamic_type3app17hf90a62d765733414E+0x122>
   27aba:	2106      	movs	r1, #6
   27abc:	4630      	mov	r0, r6
   27abe:	f003 fbdf 	bl	2b280 <_ZN9allow_pin12dynamic_type7unshare17h19052c50f9e150aeE>
   27ac2:	b02f      	add	sp, #188	@ 0xbc
   27ac4:	bdf0      	pop	{r4, r5, r6, r7, pc}
   27ac6:	46c0      	nop			@ (mov r8, r8)
   27ac8:	00002645 	.word	0x00002645
   27acc:	00010794 	.word	0x00010794

00027ad0 <_ZN20complex_dynamic_type3app17hfb36a16400c72b35E>:
   27ad0:	b5f0      	push	{r4, r5, r6, r7, lr}
   27ad2:	af03      	add	r7, sp, #12
   27ad4:	b0a1      	sub	sp, #132	@ 0x84
   27ad6:	9006      	str	r0, [sp, #24]
   27ad8:	a807      	add	r0, sp, #28
   27ada:	2502      	movs	r5, #2
   27adc:	7005      	strb	r5, [r0, #0]
   27ade:	1c40      	adds	r0, r0, #1
   27ae0:	9004      	str	r0, [sp, #16]
   27ae2:	262a      	movs	r6, #42	@ 0x2a
   27ae4:	4632      	mov	r2, r6
   27ae6:	f003 fdb0 	bl	2b64a <__aeabi_memcpy>
   27aea:	ac12      	add	r4, sp, #72	@ 0x48
   27aec:	1c60      	adds	r0, r4, #1
   27aee:	2128      	movs	r1, #40	@ 0x28
   27af0:	9005      	str	r0, [sp, #20]
   27af2:	9103      	str	r1, [sp, #12]
   27af4:	f003 fbe9 	bl	2b2ca <__aeabi_memclr>
   27af8:	9502      	str	r5, [sp, #8]
   27afa:	7025      	strb	r5, [r4, #0]
   27afc:	2404      	movs	r4, #4
   27afe:	9600      	str	r6, [sp, #0]
   27b00:	9401      	str	r4, [sp, #4]
   27b02:	a81d      	add	r0, sp, #116	@ 0x74
   27b04:	4e3c      	ldr	r6, [pc, #240]	@ (27bf8 <_ZN20complex_dynamic_type3app17hfb36a16400c72b35E+0x128>)
   27b06:	4631      	mov	r1, r6
   27b08:	4622      	mov	r2, r4
   27b0a:	9b04      	ldr	r3, [sp, #16]
   27b0c:	f003 fbc5 	bl	2b29a <_ZN9allow_pin13dynamic_allow17h8bfd3764c146b81aE>
   27b10:	981d      	ldr	r0, [sp, #116]	@ 0x74
   27b12:	2802      	cmp	r0, #2
   27b14:	d101      	bne.n	27b1a <_ZN20complex_dynamic_type3app17hfb36a16400c72b35E+0x4a>
   27b16:	991e      	ldr	r1, [sp, #120]	@ 0x78
   27b18:	e001      	b.n	27b1e <_ZN20complex_dynamic_type3app17hfb36a16400c72b35E+0x4e>
   27b1a:	a907      	add	r1, sp, #28
   27b1c:	700c      	strb	r4, [r1, #0]
   27b1e:	2501      	movs	r5, #1
   27b20:	2802      	cmp	r0, #2
   27b22:	d024      	beq.n	27b6e <_ZN20complex_dynamic_type3app17hfb36a16400c72b35E+0x9e>
   27b24:	a812      	add	r0, sp, #72	@ 0x48
   27b26:	7800      	ldrb	r0, [r0, #0]
   27b28:	2802      	cmp	r0, #2
   27b2a:	d10e      	bne.n	27b4a <_ZN20complex_dynamic_type3app17hfb36a16400c72b35E+0x7a>
   27b2c:	2403      	movs	r4, #3
   27b2e:	9803      	ldr	r0, [sp, #12]
   27b30:	9000      	str	r0, [sp, #0]
   27b32:	9401      	str	r4, [sp, #4]
   27b34:	a81d      	add	r0, sp, #116	@ 0x74
   27b36:	2208      	movs	r2, #8
   27b38:	4631      	mov	r1, r6
   27b3a:	9b05      	ldr	r3, [sp, #20]
   27b3c:	f003 fbad 	bl	2b29a <_ZN9allow_pin13dynamic_allow17h8bfd3764c146b81aE>
   27b40:	981d      	ldr	r0, [sp, #116]	@ 0x74
   27b42:	2802      	cmp	r0, #2
   27b44:	d106      	bne.n	27b54 <_ZN20complex_dynamic_type3app17hfb36a16400c72b35E+0x84>
   27b46:	991e      	ldr	r1, [sp, #120]	@ 0x78
   27b48:	e000      	b.n	27b4c <_ZN20complex_dynamic_type3app17hfb36a16400c72b35E+0x7c>
   27b4a:	2103      	movs	r1, #3
   27b4c:	4628      	mov	r0, r5
   27b4e:	2800      	cmp	r0, #0
   27b50:	d005      	beq.n	27b5e <_ZN20complex_dynamic_type3app17hfb36a16400c72b35E+0x8e>
   27b52:	e00c      	b.n	27b6e <_ZN20complex_dynamic_type3app17hfb36a16400c72b35E+0x9e>
   27b54:	a812      	add	r0, sp, #72	@ 0x48
   27b56:	7004      	strb	r4, [r0, #0]
   27b58:	2000      	movs	r0, #0
   27b5a:	2800      	cmp	r0, #0
   27b5c:	d107      	bne.n	27b6e <_ZN20complex_dynamic_type3app17hfb36a16400c72b35E+0x9e>
   27b5e:	4826      	ldr	r0, [pc, #152]	@ (27bf8 <_ZN20complex_dynamic_type3app17hfb36a16400c72b35E+0x128>)
   27b60:	2104      	movs	r1, #4
   27b62:	2208      	movs	r2, #8
   27b64:	2400      	movs	r4, #0
   27b66:	4623      	mov	r3, r4
   27b68:	df02      	svc	2
   27b6a:	287f      	cmp	r0, #127	@ 0x7f
   27b6c:	d80d      	bhi.n	27b8a <_ZN20complex_dynamic_type3app17hfb36a16400c72b35E+0xba>
   27b6e:	462c      	mov	r4, r5
   27b70:	2c00      	cmp	r4, #0
   27b72:	d021      	beq.n	27bb8 <_ZN20complex_dynamic_type3app17hfb36a16400c72b35E+0xe8>
   27b74:	2001      	movs	r0, #1
   27b76:	9a06      	ldr	r2, [sp, #24]
   27b78:	7010      	strb	r0, [r2, #0]
   27b7a:	6051      	str	r1, [r2, #4]
   27b7c:	a812      	add	r0, sp, #72	@ 0x48
   27b7e:	7802      	ldrb	r2, [r0, #0]
   27b80:	2a02      	cmp	r2, #2
   27b82:	d02e      	beq.n	27be2 <_ZN20complex_dynamic_type3app17hfb36a16400c72b35E+0x112>
   27b84:	2108      	movs	r1, #8
   27b86:	4630      	mov	r0, r6
   27b88:	e029      	b.n	27bde <_ZN20complex_dynamic_type3app17hfb36a16400c72b35E+0x10e>
   27b8a:	a807      	add	r0, sp, #28
   27b8c:	7802      	ldrb	r2, [r0, #0]
   27b8e:	2a02      	cmp	r2, #2
   27b90:	d003      	beq.n	27b9a <_ZN20complex_dynamic_type3app17hfb36a16400c72b35E+0xca>
   27b92:	2104      	movs	r1, #4
   27b94:	4630      	mov	r0, r6
   27b96:	f003 fb73 	bl	2b280 <_ZN9allow_pin12dynamic_type7unshare17h19052c50f9e150aeE>
   27b9a:	a807      	add	r0, sp, #28
   27b9c:	9d02      	ldr	r5, [sp, #8]
   27b9e:	7005      	strb	r5, [r0, #0]
   27ba0:	a812      	add	r0, sp, #72	@ 0x48
   27ba2:	7802      	ldrb	r2, [r0, #0]
   27ba4:	2a02      	cmp	r2, #2
   27ba6:	d003      	beq.n	27bb0 <_ZN20complex_dynamic_type3app17hfb36a16400c72b35E+0xe0>
   27ba8:	2108      	movs	r1, #8
   27baa:	4630      	mov	r0, r6
   27bac:	f003 fb68 	bl	2b280 <_ZN9allow_pin12dynamic_type7unshare17h19052c50f9e150aeE>
   27bb0:	a812      	add	r0, sp, #72	@ 0x48
   27bb2:	7005      	strb	r5, [r0, #0]
   27bb4:	2c00      	cmp	r4, #0
   27bb6:	d1dd      	bne.n	27b74 <_ZN20complex_dynamic_type3app17hfb36a16400c72b35E+0xa4>
   27bb8:	a812      	add	r0, sp, #72	@ 0x48
   27bba:	7804      	ldrb	r4, [r0, #0]
   27bbc:	2c02      	cmp	r4, #2
   27bbe:	d001      	beq.n	27bc4 <_ZN20complex_dynamic_type3app17hfb36a16400c72b35E+0xf4>
   27bc0:	480e      	ldr	r0, [pc, #56]	@ (27bfc <_ZN20complex_dynamic_type3app17hfb36a16400c72b35E+0x12c>)
   27bc2:	9005      	str	r0, [sp, #20]
   27bc4:	9d06      	ldr	r5, [sp, #24]
   27bc6:	1c68      	adds	r0, r5, #1
   27bc8:	2228      	movs	r2, #40	@ 0x28
   27bca:	9905      	ldr	r1, [sp, #20]
   27bcc:	f003 fd3d 	bl	2b64a <__aeabi_memcpy>
   27bd0:	2000      	movs	r0, #0
   27bd2:	2c02      	cmp	r4, #2
   27bd4:	7028      	strb	r0, [r5, #0]
   27bd6:	d004      	beq.n	27be2 <_ZN20complex_dynamic_type3app17hfb36a16400c72b35E+0x112>
   27bd8:	2108      	movs	r1, #8
   27bda:	4630      	mov	r0, r6
   27bdc:	4622      	mov	r2, r4
   27bde:	f003 fb4f 	bl	2b280 <_ZN9allow_pin12dynamic_type7unshare17h19052c50f9e150aeE>
   27be2:	a807      	add	r0, sp, #28
   27be4:	7802      	ldrb	r2, [r0, #0]
   27be6:	2a02      	cmp	r2, #2
   27be8:	d003      	beq.n	27bf2 <_ZN20complex_dynamic_type3app17hfb36a16400c72b35E+0x122>
   27bea:	2104      	movs	r1, #4
   27bec:	4630      	mov	r0, r6
   27bee:	f003 fb47 	bl	2b280 <_ZN9allow_pin12dynamic_type7unshare17h19052c50f9e150aeE>
   27bf2:	b021      	add	sp, #132	@ 0x84
   27bf4:	bdf0      	pop	{r4, r5, r6, r7, pc}
   27bf6:	46c0      	nop			@ (mov r8, r8)
   27bf8:	00001efa 	.word	0x00001efa
   27bfc:	00010a7c 	.word	0x00010a7c

00027c00 <_start>:
   27c00:	b5f0      	push	{r4, r5, r6, r7, lr}
   27c02:	af03      	add	r7, sp, #12
   27c04:	4ef3      	ldr	r6, [pc, #972]	@ (27fd4 <_start+0x3d4>)
   27c06:	44b5      	add	sp, r6
   27c08:	48f3      	ldr	r0, [pc, #972]	@ (27fd8 <_start+0x3d8>)
   27c0a:	4468      	add	r0, sp
   27c0c:	900d      	str	r0, [sp, #52]	@ 0x34
   27c0e:	48f3      	ldr	r0, [pc, #972]	@ (27fdc <_start+0x3dc>)
   27c10:	4468      	add	r0, sp
   27c12:	9009      	str	r0, [sp, #36]	@ 0x24
   27c14:	ac23      	add	r4, sp, #140	@ 0x8c
   27c16:	1c60      	adds	r0, r4, #1
   27c18:	900e      	str	r0, [sp, #56]	@ 0x38
   27c1a:	2628      	movs	r6, #40	@ 0x28
   27c1c:	4631      	mov	r1, r6
   27c1e:	f003 fb54 	bl	2b2ca <__aeabi_memclr>
   27c22:	2502      	movs	r5, #2
   27c24:	7025      	strb	r5, [r4, #0]
   27c26:	4cee      	ldr	r4, [pc, #952]	@ (27fe0 <_start+0x3e0>)
   27c28:	446c      	add	r4, sp
   27c2a:	1c60      	adds	r0, r4, #1
   27c2c:	2151      	movs	r1, #81	@ 0x51
   27c2e:	900f      	str	r0, [sp, #60]	@ 0x3c
   27c30:	910a      	str	r1, [sp, #40]	@ 0x28
   27c32:	f003 fb4a 	bl	2b2ca <__aeabi_memclr>
   27c36:	950c      	str	r5, [sp, #48]	@ 0x30
   27c38:	7025      	strb	r5, [r4, #0]
   27c3a:	2504      	movs	r5, #4
   27c3c:	9600      	str	r6, [sp, #0]
   27c3e:	9501      	str	r5, [sp, #4]
   27c40:	a833      	add	r0, sp, #204	@ 0xcc
   27c42:	49e8      	ldr	r1, [pc, #928]	@ (27fe4 <_start+0x3e4>)
   27c44:	2209      	movs	r2, #9
   27c46:	9b0e      	ldr	r3, [sp, #56]	@ 0x38
   27c48:	f003 fb27 	bl	2b29a <_ZN9allow_pin13dynamic_allow17h8bfd3764c146b81aE>
   27c4c:	9833      	ldr	r0, [sp, #204]	@ 0xcc
   27c4e:	a94f      	add	r1, sp, #316	@ 0x13c
   27c50:	9108      	str	r1, [sp, #32]
   27c52:	49e5      	ldr	r1, [pc, #916]	@ (27fe8 <_start+0x3e8>)
   27c54:	4469      	add	r1, sp
   27c56:	9107      	str	r1, [sp, #28]
   27c58:	4ce4      	ldr	r4, [pc, #912]	@ (27fec <_start+0x3ec>)
   27c5a:	446c      	add	r4, sp
   27c5c:	2802      	cmp	r0, #2
   27c5e:	950b      	str	r5, [sp, #44]	@ 0x2c
   27c60:	d101      	bne.n	27c66 <_start+0x66>
   27c62:	9934      	ldr	r1, [sp, #208]	@ 0xd0
   27c64:	e001      	b.n	27c6a <_start+0x6a>
   27c66:	a923      	add	r1, sp, #140	@ 0x8c
   27c68:	700d      	strb	r5, [r1, #0]
   27c6a:	2601      	movs	r6, #1
   27c6c:	2802      	cmp	r0, #2
   27c6e:	4635      	mov	r5, r6
   27c70:	d040      	beq.n	27cf4 <_start+0xf4>
   27c72:	48db      	ldr	r0, [pc, #876]	@ (27fe0 <_start+0x3e0>)
   27c74:	4468      	add	r0, sp
   27c76:	7800      	ldrb	r0, [r0, #0]
   27c78:	2802      	cmp	r0, #2
   27c7a:	d10f      	bne.n	27c9c <_start+0x9c>
   27c7c:	2503      	movs	r5, #3
   27c7e:	980a      	ldr	r0, [sp, #40]	@ 0x28
   27c80:	9000      	str	r0, [sp, #0]
   27c82:	9501      	str	r5, [sp, #4]
   27c84:	a833      	add	r0, sp, #204	@ 0xcc
   27c86:	2209      	movs	r2, #9
   27c88:	49d6      	ldr	r1, [pc, #856]	@ (27fe4 <_start+0x3e4>)
   27c8a:	9b0f      	ldr	r3, [sp, #60]	@ 0x3c
   27c8c:	f003 fb05 	bl	2b29a <_ZN9allow_pin13dynamic_allow17h8bfd3764c146b81aE>
   27c90:	9833      	ldr	r0, [sp, #204]	@ 0xcc
   27c92:	2802      	cmp	r0, #2
   27c94:	d105      	bne.n	27ca2 <_start+0xa2>
   27c96:	9934      	ldr	r1, [sp, #208]	@ 0xd0
   27c98:	4630      	mov	r0, r6
   27c9a:	e006      	b.n	27caa <_start+0xaa>
   27c9c:	2103      	movs	r1, #3
   27c9e:	4630      	mov	r0, r6
   27ca0:	e003      	b.n	27caa <_start+0xaa>
   27ca2:	48cf      	ldr	r0, [pc, #828]	@ (27fe0 <_start+0x3e0>)
   27ca4:	4468      	add	r0, sp
   27ca6:	7005      	strb	r5, [r0, #0]
   27ca8:	2000      	movs	r0, #0
   27caa:	2800      	cmp	r0, #0
   27cac:	4635      	mov	r5, r6
   27cae:	d121      	bne.n	27cf4 <_start+0xf4>
   27cb0:	48cc      	ldr	r0, [pc, #816]	@ (27fe4 <_start+0x3e4>)
   27cb2:	2109      	movs	r1, #9
   27cb4:	2500      	movs	r5, #0
   27cb6:	460a      	mov	r2, r1
   27cb8:	462b      	mov	r3, r5
   27cba:	df02      	svc	2
   27cbc:	287f      	cmp	r0, #127	@ 0x7f
   27cbe:	d801      	bhi.n	27cc4 <_start+0xc4>
   27cc0:	4635      	mov	r5, r6
   27cc2:	e017      	b.n	27cf4 <_start+0xf4>
   27cc4:	a823      	add	r0, sp, #140	@ 0x8c
   27cc6:	7802      	ldrb	r2, [r0, #0]
   27cc8:	2a02      	cmp	r2, #2
   27cca:	d003      	beq.n	27cd4 <_start+0xd4>
   27ccc:	2109      	movs	r1, #9
   27cce:	48c5      	ldr	r0, [pc, #788]	@ (27fe4 <_start+0x3e4>)
   27cd0:	f003 fad6 	bl	2b280 <_ZN9allow_pin12dynamic_type7unshare17h19052c50f9e150aeE>
   27cd4:	a823      	add	r0, sp, #140	@ 0x8c
   27cd6:	990c      	ldr	r1, [sp, #48]	@ 0x30
   27cd8:	7001      	strb	r1, [r0, #0]
   27cda:	48c1      	ldr	r0, [pc, #772]	@ (27fe0 <_start+0x3e0>)
   27cdc:	4468      	add	r0, sp
   27cde:	7802      	ldrb	r2, [r0, #0]
   27ce0:	2a02      	cmp	r2, #2
   27ce2:	d003      	beq.n	27cec <_start+0xec>
   27ce4:	2109      	movs	r1, #9
   27ce6:	48bf      	ldr	r0, [pc, #764]	@ (27fe4 <_start+0x3e4>)
   27ce8:	f003 faca 	bl	2b280 <_ZN9allow_pin12dynamic_type7unshare17h19052c50f9e150aeE>
   27cec:	48bc      	ldr	r0, [pc, #752]	@ (27fe0 <_start+0x3e0>)
   27cee:	4468      	add	r0, sp
   27cf0:	990c      	ldr	r1, [sp, #48]	@ 0x30
   27cf2:	7001      	strb	r1, [r0, #0]
   27cf4:	960e      	str	r6, [sp, #56]	@ 0x38
   27cf6:	48ba      	ldr	r0, [pc, #744]	@ (27fe0 <_start+0x3e0>)
   27cf8:	4468      	add	r0, sp
   27cfa:	7806      	ldrb	r6, [r0, #0]
   27cfc:	2d00      	cmp	r5, #0
   27cfe:	d003      	beq.n	27d08 <_start+0x108>
   27d00:	910f      	str	r1, [sp, #60]	@ 0x3c
   27d02:	2e02      	cmp	r6, #2
   27d04:	d120      	bne.n	27d48 <_start+0x148>
   27d06:	e024      	b.n	27d52 <_start+0x152>
   27d08:	4bb9      	ldr	r3, [pc, #740]	@ (27ff0 <_start+0x3f0>)
   27d0a:	1dda      	adds	r2, r3, #7
   27d0c:	49b4      	ldr	r1, [pc, #720]	@ (27fe0 <_start+0x3e0>)
   27d0e:	4469      	add	r1, sp
   27d10:	3108      	adds	r1, #8
   27d12:	a838      	add	r0, sp, #224	@ 0xe0
   27d14:	2e02      	cmp	r6, #2
   27d16:	d000      	beq.n	27d1a <_start+0x11a>
   27d18:	930f      	str	r3, [sp, #60]	@ 0x3c
   27d1a:	9b0f      	ldr	r3, [sp, #60]	@ 0x3c
   27d1c:	789b      	ldrb	r3, [r3, #2]
   27d1e:	7083      	strb	r3, [r0, #2]
   27d20:	d000      	beq.n	27d24 <_start+0x124>
   27d22:	4611      	mov	r1, r2
   27d24:	9b0f      	ldr	r3, [sp, #60]	@ 0x3c
   27d26:	781a      	ldrb	r2, [r3, #0]
   27d28:	785b      	ldrb	r3, [r3, #1]
   27d2a:	021b      	lsls	r3, r3, #8
   27d2c:	189a      	adds	r2, r3, r2
   27d2e:	8002      	strh	r2, [r0, #0]
   27d30:	980d      	ldr	r0, [sp, #52]	@ 0x34
   27d32:	6e00      	ldr	r0, [r0, #96]	@ 0x60
   27d34:	900f      	str	r0, [sp, #60]	@ 0x3c
   27d36:	a810      	add	r0, sp, #64	@ 0x40
   27d38:	224a      	movs	r2, #74	@ 0x4a
   27d3a:	f003 fc86 	bl	2b64a <__aeabi_memcpy>
   27d3e:	2000      	movs	r0, #0
   27d40:	2e02      	cmp	r6, #2
   27d42:	d000      	beq.n	27d46 <_start+0x146>
   27d44:	900f      	str	r0, [sp, #60]	@ 0x3c
   27d46:	d004      	beq.n	27d52 <_start+0x152>
   27d48:	2109      	movs	r1, #9
   27d4a:	48a6      	ldr	r0, [pc, #664]	@ (27fe4 <_start+0x3e4>)
   27d4c:	4632      	mov	r2, r6
   27d4e:	f003 fa97 	bl	2b280 <_ZN9allow_pin12dynamic_type7unshare17h19052c50f9e150aeE>
   27d52:	a823      	add	r0, sp, #140	@ 0x8c
   27d54:	7802      	ldrb	r2, [r0, #0]
   27d56:	2a02      	cmp	r2, #2
   27d58:	d003      	beq.n	27d62 <_start+0x162>
   27d5a:	2109      	movs	r1, #9
   27d5c:	48a1      	ldr	r0, [pc, #644]	@ (27fe4 <_start+0x3e4>)
   27d5e:	f003 fa8f 	bl	2b280 <_ZN9allow_pin12dynamic_type7unshare17h19052c50f9e150aeE>
   27d62:	2d00      	cmp	r5, #0
   27d64:	d001      	beq.n	27d6a <_start+0x16a>
   27d66:	f003 fa4c 	bl	2b202 <_start+0x3602>
   27d6a:	9405      	str	r4, [sp, #20]
   27d6c:	4e9c      	ldr	r6, [pc, #624]	@ (27fe0 <_start+0x3e0>)
   27d6e:	446e      	add	r6, sp
   27d70:	9838      	ldr	r0, [sp, #224]	@ 0xe0
   27d72:	7070      	strb	r0, [r6, #1]
   27d74:	a838      	add	r0, sp, #224	@ 0xe0
   27d76:	7881      	ldrb	r1, [r0, #2]
   27d78:	70f1      	strb	r1, [r6, #3]
   27d7a:	7840      	ldrb	r0, [r0, #1]
   27d7c:	70b0      	strb	r0, [r6, #2]
   27d7e:	4c96      	ldr	r4, [pc, #600]	@ (27fd8 <_start+0x3d8>)
   27d80:	446c      	add	r4, sp
   27d82:	a910      	add	r1, sp, #64	@ 0x40
   27d84:	254a      	movs	r5, #74	@ 0x4a
   27d86:	4620      	mov	r0, r4
   27d88:	462a      	mov	r2, r5
   27d8a:	f003 fafe 	bl	2b38a <__aeabi_memcpy4>
   27d8e:	4630      	mov	r0, r6
   27d90:	3008      	adds	r0, #8
   27d92:	4621      	mov	r1, r4
   27d94:	462a      	mov	r2, r5
   27d96:	f003 faf8 	bl	2b38a <__aeabi_memcpy4>
   27d9a:	9c0c      	ldr	r4, [sp, #48]	@ 0x30
   27d9c:	7034      	strb	r4, [r6, #0]
   27d9e:	980d      	ldr	r0, [sp, #52]	@ 0x34
   27da0:	990f      	ldr	r1, [sp, #60]	@ 0x3c
   27da2:	6601      	str	r1, [r0, #96]	@ 0x60
   27da4:	4d8c      	ldr	r5, [pc, #560]	@ (27fd8 <_start+0x3d8>)
   27da6:	446d      	add	r5, sp
   27da8:	1c68      	adds	r0, r5, #1
   27daa:	2146      	movs	r1, #70	@ 0x46
   27dac:	900f      	str	r0, [sp, #60]	@ 0x3c
   27dae:	9106      	str	r1, [sp, #24]
   27db0:	f003 fa8b 	bl	2b2ca <__aeabi_memclr>
   27db4:	702c      	strb	r4, [r5, #0]
   27db6:	980a      	ldr	r0, [sp, #40]	@ 0x28
   27db8:	9000      	str	r0, [sp, #0]
   27dba:	9c0b      	ldr	r4, [sp, #44]	@ 0x2c
   27dbc:	9401      	str	r4, [sp, #4]
   27dbe:	4989      	ldr	r1, [pc, #548]	@ (27fe4 <_start+0x3e4>)
   27dc0:	31be      	adds	r1, #190	@ 0xbe
   27dc2:	1c73      	adds	r3, r6, #1
   27dc4:	a833      	add	r0, sp, #204	@ 0xcc
   27dc6:	2207      	movs	r2, #7
   27dc8:	910a      	str	r1, [sp, #40]	@ 0x28
   27dca:	f003 fa66 	bl	2b29a <_ZN9allow_pin13dynamic_allow17h8bfd3764c146b81aE>
   27dce:	9833      	ldr	r0, [sp, #204]	@ 0xcc
   27dd0:	2802      	cmp	r0, #2
   27dd2:	d101      	bne.n	27dd8 <_start+0x1d8>
   27dd4:	9934      	ldr	r1, [sp, #208]	@ 0xd0
   27dd6:	e002      	b.n	27dde <_start+0x1de>
   27dd8:	4981      	ldr	r1, [pc, #516]	@ (27fe0 <_start+0x3e0>)
   27dda:	4469      	add	r1, sp
   27ddc:	700c      	strb	r4, [r1, #0]
   27dde:	9e0e      	ldr	r6, [sp, #56]	@ 0x38
   27de0:	2802      	cmp	r0, #2
   27de2:	4635      	mov	r5, r6
   27de4:	9c0f      	ldr	r4, [sp, #60]	@ 0x3c
   27de6:	d044      	beq.n	27e72 <_start+0x272>
   27de8:	487b      	ldr	r0, [pc, #492]	@ (27fd8 <_start+0x3d8>)
   27dea:	4468      	add	r0, sp
   27dec:	7800      	ldrb	r0, [r0, #0]
   27dee:	2802      	cmp	r0, #2
   27df0:	d111      	bne.n	27e16 <_start+0x216>
   27df2:	2603      	movs	r6, #3
   27df4:	9806      	ldr	r0, [sp, #24]
   27df6:	9000      	str	r0, [sp, #0]
   27df8:	9601      	str	r6, [sp, #4]
   27dfa:	a833      	add	r0, sp, #204	@ 0xcc
   27dfc:	2500      	movs	r5, #0
   27dfe:	990a      	ldr	r1, [sp, #40]	@ 0x28
   27e00:	462a      	mov	r2, r5
   27e02:	4623      	mov	r3, r4
   27e04:	f003 fa49 	bl	2b29a <_ZN9allow_pin13dynamic_allow17h8bfd3764c146b81aE>
   27e08:	9833      	ldr	r0, [sp, #204]	@ 0xcc
   27e0a:	2802      	cmp	r0, #2
   27e0c:	d106      	bne.n	27e1c <_start+0x21c>
   27e0e:	9934      	ldr	r1, [sp, #208]	@ 0xd0
   27e10:	9e0e      	ldr	r6, [sp, #56]	@ 0x38
   27e12:	4635      	mov	r5, r6
   27e14:	e006      	b.n	27e24 <_start+0x224>
   27e16:	2103      	movs	r1, #3
   27e18:	4635      	mov	r5, r6
   27e1a:	e003      	b.n	27e24 <_start+0x224>
   27e1c:	486e      	ldr	r0, [pc, #440]	@ (27fd8 <_start+0x3d8>)
   27e1e:	4468      	add	r0, sp
   27e20:	7006      	strb	r6, [r0, #0]
   27e22:	9e0e      	ldr	r6, [sp, #56]	@ 0x38
   27e24:	2d00      	cmp	r5, #0
   27e26:	4635      	mov	r5, r6
   27e28:	d123      	bne.n	27e72 <_start+0x272>
   27e2a:	4872      	ldr	r0, [pc, #456]	@ (27ff4 <_start+0x3f4>)
   27e2c:	2107      	movs	r1, #7
   27e2e:	2500      	movs	r5, #0
   27e30:	462a      	mov	r2, r5
   27e32:	462b      	mov	r3, r5
   27e34:	df02      	svc	2
   27e36:	287f      	cmp	r0, #127	@ 0x7f
   27e38:	d801      	bhi.n	27e3e <_start+0x23e>
   27e3a:	4635      	mov	r5, r6
   27e3c:	e019      	b.n	27e72 <_start+0x272>
   27e3e:	4868      	ldr	r0, [pc, #416]	@ (27fe0 <_start+0x3e0>)
   27e40:	4468      	add	r0, sp
   27e42:	7802      	ldrb	r2, [r0, #0]
   27e44:	2a02      	cmp	r2, #2
   27e46:	d003      	beq.n	27e50 <_start+0x250>
   27e48:	2107      	movs	r1, #7
   27e4a:	980a      	ldr	r0, [sp, #40]	@ 0x28
   27e4c:	f003 fa18 	bl	2b280 <_ZN9allow_pin12dynamic_type7unshare17h19052c50f9e150aeE>
   27e50:	4863      	ldr	r0, [pc, #396]	@ (27fe0 <_start+0x3e0>)
   27e52:	4468      	add	r0, sp
   27e54:	990c      	ldr	r1, [sp, #48]	@ 0x30
   27e56:	7001      	strb	r1, [r0, #0]
   27e58:	485f      	ldr	r0, [pc, #380]	@ (27fd8 <_start+0x3d8>)
   27e5a:	4468      	add	r0, sp
   27e5c:	7802      	ldrb	r2, [r0, #0]
   27e5e:	2a02      	cmp	r2, #2
   27e60:	d003      	beq.n	27e6a <_start+0x26a>
   27e62:	2100      	movs	r1, #0
   27e64:	980a      	ldr	r0, [sp, #40]	@ 0x28
   27e66:	f003 fa0b 	bl	2b280 <_ZN9allow_pin12dynamic_type7unshare17h19052c50f9e150aeE>
   27e6a:	485b      	ldr	r0, [pc, #364]	@ (27fd8 <_start+0x3d8>)
   27e6c:	4468      	add	r0, sp
   27e6e:	990c      	ldr	r1, [sp, #48]	@ 0x30
   27e70:	7001      	strb	r1, [r0, #0]
   27e72:	4859      	ldr	r0, [pc, #356]	@ (27fd8 <_start+0x3d8>)
   27e74:	4468      	add	r0, sp
   27e76:	7806      	ldrb	r6, [r0, #0]
   27e78:	2d00      	cmp	r5, #0
   27e7a:	d003      	beq.n	27e84 <_start+0x284>
   27e7c:	910f      	str	r1, [sp, #60]	@ 0x3c
   27e7e:	2e02      	cmp	r6, #2
   27e80:	d11e      	bne.n	27ec0 <_start+0x2c0>
   27e82:	e022      	b.n	27eca <_start+0x2ca>
   27e84:	4b5c      	ldr	r3, [pc, #368]	@ (27ff8 <_start+0x3f8>)
   27e86:	1dda      	adds	r2, r3, #7
   27e88:	4953      	ldr	r1, [pc, #332]	@ (27fd8 <_start+0x3d8>)
   27e8a:	4469      	add	r1, sp
   27e8c:	3108      	adds	r1, #8
   27e8e:	a838      	add	r0, sp, #224	@ 0xe0
   27e90:	2e02      	cmp	r6, #2
   27e92:	d000      	beq.n	27e96 <_start+0x296>
   27e94:	461c      	mov	r4, r3
   27e96:	78a3      	ldrb	r3, [r4, #2]
   27e98:	7083      	strb	r3, [r0, #2]
   27e9a:	d000      	beq.n	27e9e <_start+0x29e>
   27e9c:	4611      	mov	r1, r2
   27e9e:	7822      	ldrb	r2, [r4, #0]
   27ea0:	7863      	ldrb	r3, [r4, #1]
   27ea2:	021b      	lsls	r3, r3, #8
   27ea4:	189a      	adds	r2, r3, r2
   27ea6:	8002      	strh	r2, [r0, #0]
   27ea8:	9809      	ldr	r0, [sp, #36]	@ 0x24
   27eaa:	6800      	ldr	r0, [r0, #0]
   27eac:	900f      	str	r0, [sp, #60]	@ 0x3c
   27eae:	a823      	add	r0, sp, #140	@ 0x8c
   27eb0:	223f      	movs	r2, #63	@ 0x3f
   27eb2:	f003 fbca 	bl	2b64a <__aeabi_memcpy>
   27eb6:	2000      	movs	r0, #0
   27eb8:	2e02      	cmp	r6, #2
   27eba:	d000      	beq.n	27ebe <_start+0x2be>
   27ebc:	900f      	str	r0, [sp, #60]	@ 0x3c
   27ebe:	d004      	beq.n	27eca <_start+0x2ca>
   27ec0:	2100      	movs	r1, #0
   27ec2:	980a      	ldr	r0, [sp, #40]	@ 0x28
   27ec4:	4632      	mov	r2, r6
   27ec6:	f003 f9db 	bl	2b280 <_ZN9allow_pin12dynamic_type7unshare17h19052c50f9e150aeE>
   27eca:	4845      	ldr	r0, [pc, #276]	@ (27fe0 <_start+0x3e0>)
   27ecc:	4468      	add	r0, sp
   27ece:	7802      	ldrb	r2, [r0, #0]
   27ed0:	2a02      	cmp	r2, #2
   27ed2:	d003      	beq.n	27edc <_start+0x2dc>
   27ed4:	2107      	movs	r1, #7
   27ed6:	980a      	ldr	r0, [sp, #40]	@ 0x28
   27ed8:	f003 f9d2 	bl	2b280 <_ZN9allow_pin12dynamic_type7unshare17h19052c50f9e150aeE>
   27edc:	2d00      	cmp	r5, #0
   27ede:	d001      	beq.n	27ee4 <_start+0x2e4>
   27ee0:	f003 f98f 	bl	2b202 <_start+0x3602>
   27ee4:	4a3e      	ldr	r2, [pc, #248]	@ (27fe0 <_start+0x3e0>)
   27ee6:	446a      	add	r2, sp
   27ee8:	920a      	str	r2, [sp, #40]	@ 0x28
   27eea:	9838      	ldr	r0, [sp, #224]	@ 0xe0
   27eec:	7050      	strb	r0, [r2, #1]
   27eee:	a838      	add	r0, sp, #224	@ 0xe0
   27ef0:	7881      	ldrb	r1, [r0, #2]
   27ef2:	70d1      	strb	r1, [r2, #3]
   27ef4:	7840      	ldrb	r0, [r0, #1]
   27ef6:	7090      	strb	r0, [r2, #2]
   27ef8:	a923      	add	r1, sp, #140	@ 0x8c
   27efa:	a810      	add	r0, sp, #64	@ 0x40
   27efc:	4602      	mov	r2, r0
   27efe:	c968      	ldmia	r1!, {r3, r5, r6}
   27f00:	c268      	stmia	r2!, {r3, r5, r6}
   27f02:	c978      	ldmia	r1!, {r3, r4, r5, r6}
   27f04:	c278      	stmia	r2!, {r3, r4, r5, r6}
   27f06:	c978      	ldmia	r1!, {r3, r4, r5, r6}
   27f08:	c278      	stmia	r2!, {r3, r4, r5, r6}
   27f0a:	c978      	ldmia	r1!, {r3, r4, r5, r6}
   27f0c:	c278      	stmia	r2!, {r3, r4, r5, r6}
   27f0e:	880b      	ldrh	r3, [r1, #0]
   27f10:	8013      	strh	r3, [r2, #0]
   27f12:	7889      	ldrb	r1, [r1, #2]
   27f14:	7091      	strb	r1, [r2, #2]
   27f16:	9e0a      	ldr	r6, [sp, #40]	@ 0x28
   27f18:	4631      	mov	r1, r6
   27f1a:	3108      	adds	r1, #8
   27f1c:	c81c      	ldmia	r0!, {r2, r3, r4}
   27f1e:	c11c      	stmia	r1!, {r2, r3, r4}
   27f20:	c83c      	ldmia	r0!, {r2, r3, r4, r5}
   27f22:	c13c      	stmia	r1!, {r2, r3, r4, r5}
   27f24:	c83c      	ldmia	r0!, {r2, r3, r4, r5}
   27f26:	c13c      	stmia	r1!, {r2, r3, r4, r5}
   27f28:	c83c      	ldmia	r0!, {r2, r3, r4, r5}
   27f2a:	c13c      	stmia	r1!, {r2, r3, r4, r5}
   27f2c:	8802      	ldrh	r2, [r0, #0]
   27f2e:	800a      	strh	r2, [r1, #0]
   27f30:	7880      	ldrb	r0, [r0, #2]
   27f32:	7088      	strb	r0, [r1, #2]
   27f34:	9d0c      	ldr	r5, [sp, #48]	@ 0x30
   27f36:	7035      	strb	r5, [r6, #0]
   27f38:	980d      	ldr	r0, [sp, #52]	@ 0x34
   27f3a:	990f      	ldr	r1, [sp, #60]	@ 0x3c
   27f3c:	6601      	str	r1, [r0, #96]	@ 0x60
   27f3e:	4c26      	ldr	r4, [pc, #152]	@ (27fd8 <_start+0x3d8>)
   27f40:	446c      	add	r4, sp
   27f42:	1c60      	adds	r0, r4, #1
   27f44:	2118      	movs	r1, #24
   27f46:	900f      	str	r0, [sp, #60]	@ 0x3c
   27f48:	9104      	str	r1, [sp, #16]
   27f4a:	f003 f9be 	bl	2b2ca <__aeabi_memclr>
   27f4e:	7025      	strb	r5, [r4, #0]
   27f50:	9806      	ldr	r0, [sp, #24]
   27f52:	9000      	str	r0, [sp, #0]
   27f54:	9c0b      	ldr	r4, [sp, #44]	@ 0x2c
   27f56:	9401      	str	r4, [sp, #4]
   27f58:	1c73      	adds	r3, r6, #1
   27f5a:	a823      	add	r0, sp, #140	@ 0x8c
   27f5c:	4927      	ldr	r1, [pc, #156]	@ (27ffc <_start+0x3fc>)
   27f5e:	2503      	movs	r5, #3
   27f60:	462a      	mov	r2, r5
   27f62:	f003 f99a 	bl	2b29a <_ZN9allow_pin13dynamic_allow17h8bfd3764c146b81aE>
   27f66:	9823      	ldr	r0, [sp, #140]	@ 0x8c
   27f68:	2802      	cmp	r0, #2
   27f6a:	d101      	bne.n	27f70 <_start+0x370>
   27f6c:	9924      	ldr	r1, [sp, #144]	@ 0x90
   27f6e:	e002      	b.n	27f76 <_start+0x376>
   27f70:	491b      	ldr	r1, [pc, #108]	@ (27fe0 <_start+0x3e0>)
   27f72:	4469      	add	r1, sp
   27f74:	700c      	strb	r4, [r1, #0]
   27f76:	2802      	cmp	r0, #2
   27f78:	9c0e      	ldr	r4, [sp, #56]	@ 0x38
   27f7a:	9e0f      	ldr	r6, [sp, #60]	@ 0x3c
   27f7c:	d058      	beq.n	28030 <_start+0x430>
   27f7e:	4816      	ldr	r0, [pc, #88]	@ (27fd8 <_start+0x3d8>)
   27f80:	4468      	add	r0, sp
   27f82:	7800      	ldrb	r0, [r0, #0]
   27f84:	2802      	cmp	r0, #2
   27f86:	4629      	mov	r1, r5
   27f88:	9c0e      	ldr	r4, [sp, #56]	@ 0x38
   27f8a:	4620      	mov	r0, r4
   27f8c:	d115      	bne.n	27fba <_start+0x3ba>
   27f8e:	2403      	movs	r4, #3
   27f90:	9804      	ldr	r0, [sp, #16]
   27f92:	9000      	str	r0, [sp, #0]
   27f94:	9401      	str	r4, [sp, #4]
   27f96:	a823      	add	r0, sp, #140	@ 0x8c
   27f98:	2202      	movs	r2, #2
   27f9a:	4918      	ldr	r1, [pc, #96]	@ (27ffc <_start+0x3fc>)
   27f9c:	4633      	mov	r3, r6
   27f9e:	f003 f97c 	bl	2b29a <_ZN9allow_pin13dynamic_allow17h8bfd3764c146b81aE>
   27fa2:	9823      	ldr	r0, [sp, #140]	@ 0x8c
   27fa4:	2802      	cmp	r0, #2
   27fa6:	d103      	bne.n	27fb0 <_start+0x3b0>
   27fa8:	9924      	ldr	r1, [sp, #144]	@ 0x90
   27faa:	9c0e      	ldr	r4, [sp, #56]	@ 0x38
   27fac:	4620      	mov	r0, r4
   27fae:	e004      	b.n	27fba <_start+0x3ba>
   27fb0:	4809      	ldr	r0, [pc, #36]	@ (27fd8 <_start+0x3d8>)
   27fb2:	4468      	add	r0, sp
   27fb4:	7004      	strb	r4, [r0, #0]
   27fb6:	2000      	movs	r0, #0
   27fb8:	9c0e      	ldr	r4, [sp, #56]	@ 0x38
   27fba:	2800      	cmp	r0, #0
   27fbc:	d138      	bne.n	28030 <_start+0x430>
   27fbe:	480f      	ldr	r0, [pc, #60]	@ (27ffc <_start+0x3fc>)
   27fc0:	2103      	movs	r1, #3
   27fc2:	2502      	movs	r5, #2
   27fc4:	2400      	movs	r4, #0
   27fc6:	462a      	mov	r2, r5
   27fc8:	4623      	mov	r3, r4
   27fca:	df02      	svc	2
   27fcc:	287f      	cmp	r0, #127	@ 0x7f
   27fce:	d817      	bhi.n	28000 <_start+0x400>
   27fd0:	9c0e      	ldr	r4, [sp, #56]	@ 0x38
   27fd2:	e02d      	b.n	28030 <_start+0x430>
   27fd4:	ffffeacc 	.word	0xffffeacc
   27fd8:	000013b8 	.word	0x000013b8
   27fdc:	000013bc 	.word	0x000013bc
   27fe0:	00001414 	.word	0x00001414
   27fe4:	00002006 	.word	0x00002006
   27fe8:	00000518 	.word	0x00000518
   27fec:	000007ec 	.word	0x000007ec
   27ff0:	000102f0 	.word	0x000102f0
   27ff4:	000020c4 	.word	0x000020c4
   27ff8:	0001013f 	.word	0x0001013f
   27ffc:	000023cf 	.word	0x000023cf
   28000:	48cd      	ldr	r0, [pc, #820]	@ (28338 <_start+0x738>)
   28002:	4468      	add	r0, sp
   28004:	7802      	ldrb	r2, [r0, #0]
   28006:	2a02      	cmp	r2, #2
   28008:	d003      	beq.n	28012 <_start+0x412>
   2800a:	2103      	movs	r1, #3
   2800c:	48cb      	ldr	r0, [pc, #812]	@ (2833c <_start+0x73c>)
   2800e:	f003 f937 	bl	2b280 <_ZN9allow_pin12dynamic_type7unshare17h19052c50f9e150aeE>
   28012:	48c9      	ldr	r0, [pc, #804]	@ (28338 <_start+0x738>)
   28014:	4468      	add	r0, sp
   28016:	7005      	strb	r5, [r0, #0]
   28018:	48c9      	ldr	r0, [pc, #804]	@ (28340 <_start+0x740>)
   2801a:	4468      	add	r0, sp
   2801c:	7802      	ldrb	r2, [r0, #0]
   2801e:	2a02      	cmp	r2, #2
   28020:	d003      	beq.n	2802a <_start+0x42a>
   28022:	2102      	movs	r1, #2
   28024:	48c5      	ldr	r0, [pc, #788]	@ (2833c <_start+0x73c>)
   28026:	f003 f92b 	bl	2b280 <_ZN9allow_pin12dynamic_type7unshare17h19052c50f9e150aeE>
   2802a:	48c5      	ldr	r0, [pc, #788]	@ (28340 <_start+0x740>)
   2802c:	4468      	add	r0, sp
   2802e:	7005      	strb	r5, [r0, #0]
   28030:	48c3      	ldr	r0, [pc, #780]	@ (28340 <_start+0x740>)
   28032:	4468      	add	r0, sp
   28034:	7805      	ldrb	r5, [r0, #0]
   28036:	2c00      	cmp	r4, #0
   28038:	d003      	beq.n	28042 <_start+0x442>
   2803a:	910f      	str	r1, [sp, #60]	@ 0x3c
   2803c:	2d02      	cmp	r5, #2
   2803e:	d11e      	bne.n	2807e <_start+0x47e>
   28040:	e022      	b.n	28088 <_start+0x488>
   28042:	4bc0      	ldr	r3, [pc, #768]	@ (28344 <_start+0x744>)
   28044:	1dda      	adds	r2, r3, #7
   28046:	49be      	ldr	r1, [pc, #760]	@ (28340 <_start+0x740>)
   28048:	4469      	add	r1, sp
   2804a:	3108      	adds	r1, #8
   2804c:	a838      	add	r0, sp, #224	@ 0xe0
   2804e:	2d02      	cmp	r5, #2
   28050:	d000      	beq.n	28054 <_start+0x454>
   28052:	461e      	mov	r6, r3
   28054:	78b3      	ldrb	r3, [r6, #2]
   28056:	7083      	strb	r3, [r0, #2]
   28058:	d000      	beq.n	2805c <_start+0x45c>
   2805a:	4611      	mov	r1, r2
   2805c:	7832      	ldrb	r2, [r6, #0]
   2805e:	7873      	ldrb	r3, [r6, #1]
   28060:	021b      	lsls	r3, r3, #8
   28062:	189a      	adds	r2, r3, r2
   28064:	8002      	strh	r2, [r0, #0]
   28066:	9809      	ldr	r0, [sp, #36]	@ 0x24
   28068:	6800      	ldr	r0, [r0, #0]
   2806a:	900f      	str	r0, [sp, #60]	@ 0x3c
   2806c:	a833      	add	r0, sp, #204	@ 0xcc
   2806e:	2211      	movs	r2, #17
   28070:	f003 faeb 	bl	2b64a <__aeabi_memcpy>
   28074:	2000      	movs	r0, #0
   28076:	2d02      	cmp	r5, #2
   28078:	d000      	beq.n	2807c <_start+0x47c>
   2807a:	900f      	str	r0, [sp, #60]	@ 0x3c
   2807c:	d004      	beq.n	28088 <_start+0x488>
   2807e:	2102      	movs	r1, #2
   28080:	48ae      	ldr	r0, [pc, #696]	@ (2833c <_start+0x73c>)
   28082:	462a      	mov	r2, r5
   28084:	f003 f8fc 	bl	2b280 <_ZN9allow_pin12dynamic_type7unshare17h19052c50f9e150aeE>
   28088:	48ab      	ldr	r0, [pc, #684]	@ (28338 <_start+0x738>)
   2808a:	4468      	add	r0, sp
   2808c:	7802      	ldrb	r2, [r0, #0]
   2808e:	2a02      	cmp	r2, #2
   28090:	d003      	beq.n	2809a <_start+0x49a>
   28092:	2103      	movs	r1, #3
   28094:	48a9      	ldr	r0, [pc, #676]	@ (2833c <_start+0x73c>)
   28096:	f003 f8f3 	bl	2b280 <_ZN9allow_pin12dynamic_type7unshare17h19052c50f9e150aeE>
   2809a:	2c00      	cmp	r4, #0
   2809c:	d001      	beq.n	280a2 <_start+0x4a2>
   2809e:	f003 f8b0 	bl	2b202 <_start+0x3602>
   280a2:	aa23      	add	r2, sp, #140	@ 0x8c
   280a4:	920a      	str	r2, [sp, #40]	@ 0x28
   280a6:	9838      	ldr	r0, [sp, #224]	@ 0xe0
   280a8:	7050      	strb	r0, [r2, #1]
   280aa:	a838      	add	r0, sp, #224	@ 0xe0
   280ac:	7881      	ldrb	r1, [r0, #2]
   280ae:	70d1      	strb	r1, [r2, #3]
   280b0:	7840      	ldrb	r0, [r0, #1]
   280b2:	7090      	strb	r0, [r2, #2]
   280b4:	a833      	add	r0, sp, #204	@ 0xcc
   280b6:	a910      	add	r1, sp, #64	@ 0x40
   280b8:	460a      	mov	r2, r1
   280ba:	c878      	ldmia	r0!, {r3, r4, r5, r6}
   280bc:	c278      	stmia	r2!, {r3, r4, r5, r6}
   280be:	7800      	ldrb	r0, [r0, #0]
   280c0:	7010      	strb	r0, [r2, #0]
   280c2:	9e0a      	ldr	r6, [sp, #40]	@ 0x28
   280c4:	4630      	mov	r0, r6
   280c6:	3008      	adds	r0, #8
   280c8:	c93c      	ldmia	r1!, {r2, r3, r4, r5}
   280ca:	c03c      	stmia	r0!, {r2, r3, r4, r5}
   280cc:	7809      	ldrb	r1, [r1, #0]
   280ce:	7001      	strb	r1, [r0, #0]
   280d0:	9d0c      	ldr	r5, [sp, #48]	@ 0x30
   280d2:	7035      	strb	r5, [r6, #0]
   280d4:	980f      	ldr	r0, [sp, #60]	@ 0x3c
   280d6:	9024      	str	r0, [sp, #144]	@ 0x90
   280d8:	4c97      	ldr	r4, [pc, #604]	@ (28338 <_start+0x738>)
   280da:	446c      	add	r4, sp
   280dc:	1c60      	adds	r0, r4, #1
   280de:	2136      	movs	r1, #54	@ 0x36
   280e0:	900f      	str	r0, [sp, #60]	@ 0x3c
   280e2:	9106      	str	r1, [sp, #24]
   280e4:	f003 f8f1 	bl	2b2ca <__aeabi_memclr>
   280e8:	7025      	strb	r5, [r4, #0]
   280ea:	9804      	ldr	r0, [sp, #16]
   280ec:	9000      	str	r0, [sp, #0]
   280ee:	9d0b      	ldr	r5, [sp, #44]	@ 0x2c
   280f0:	9501      	str	r5, [sp, #4]
   280f2:	1c73      	adds	r3, r6, #1
   280f4:	a833      	add	r0, sp, #204	@ 0xcc
   280f6:	4994      	ldr	r1, [pc, #592]	@ (28348 <_start+0x748>)
   280f8:	2400      	movs	r4, #0
   280fa:	4622      	mov	r2, r4
   280fc:	f003 f8cd 	bl	2b29a <_ZN9allow_pin13dynamic_allow17h8bfd3764c146b81aE>
   28100:	9833      	ldr	r0, [sp, #204]	@ 0xcc
   28102:	2802      	cmp	r0, #2
   28104:	d101      	bne.n	2810a <_start+0x50a>
   28106:	9934      	ldr	r1, [sp, #208]	@ 0xd0
   28108:	e001      	b.n	2810e <_start+0x50e>
   2810a:	a923      	add	r1, sp, #140	@ 0x8c
   2810c:	700d      	strb	r5, [r1, #0]
   2810e:	2802      	cmp	r0, #2
   28110:	9d0e      	ldr	r5, [sp, #56]	@ 0x38
   28112:	9e0f      	ldr	r6, [sp, #60]	@ 0x3c
   28114:	d041      	beq.n	2819a <_start+0x59a>
   28116:	4888      	ldr	r0, [pc, #544]	@ (28338 <_start+0x738>)
   28118:	4468      	add	r0, sp
   2811a:	7800      	ldrb	r0, [r0, #0]
   2811c:	2802      	cmp	r0, #2
   2811e:	d10e      	bne.n	2813e <_start+0x53e>
   28120:	2503      	movs	r5, #3
   28122:	9806      	ldr	r0, [sp, #24]
   28124:	9000      	str	r0, [sp, #0]
   28126:	9501      	str	r5, [sp, #4]
   28128:	a833      	add	r0, sp, #204	@ 0xcc
   2812a:	2207      	movs	r2, #7
   2812c:	4986      	ldr	r1, [pc, #536]	@ (28348 <_start+0x748>)
   2812e:	4633      	mov	r3, r6
   28130:	f003 f8b3 	bl	2b29a <_ZN9allow_pin13dynamic_allow17h8bfd3764c146b81aE>
   28134:	9833      	ldr	r0, [sp, #204]	@ 0xcc
   28136:	2802      	cmp	r0, #2
   28138:	d107      	bne.n	2814a <_start+0x54a>
   2813a:	9934      	ldr	r1, [sp, #208]	@ 0xd0
   2813c:	e000      	b.n	28140 <_start+0x540>
   2813e:	2103      	movs	r1, #3
   28140:	9d0e      	ldr	r5, [sp, #56]	@ 0x38
   28142:	462c      	mov	r4, r5
   28144:	2c00      	cmp	r4, #0
   28146:	d006      	beq.n	28156 <_start+0x556>
   28148:	e027      	b.n	2819a <_start+0x59a>
   2814a:	487b      	ldr	r0, [pc, #492]	@ (28338 <_start+0x738>)
   2814c:	4468      	add	r0, sp
   2814e:	7005      	strb	r5, [r0, #0]
   28150:	9d0e      	ldr	r5, [sp, #56]	@ 0x38
   28152:	2c00      	cmp	r4, #0
   28154:	d121      	bne.n	2819a <_start+0x59a>
   28156:	487c      	ldr	r0, [pc, #496]	@ (28348 <_start+0x748>)
   28158:	2207      	movs	r2, #7
   2815a:	2500      	movs	r5, #0
   2815c:	4629      	mov	r1, r5
   2815e:	462b      	mov	r3, r5
   28160:	df02      	svc	2
   28162:	287f      	cmp	r0, #127	@ 0x7f
   28164:	d801      	bhi.n	2816a <_start+0x56a>
   28166:	9d0e      	ldr	r5, [sp, #56]	@ 0x38
   28168:	e017      	b.n	2819a <_start+0x59a>
   2816a:	a823      	add	r0, sp, #140	@ 0x8c
   2816c:	7802      	ldrb	r2, [r0, #0]
   2816e:	2a02      	cmp	r2, #2
   28170:	d003      	beq.n	2817a <_start+0x57a>
   28172:	2100      	movs	r1, #0
   28174:	4874      	ldr	r0, [pc, #464]	@ (28348 <_start+0x748>)
   28176:	f003 f883 	bl	2b280 <_ZN9allow_pin12dynamic_type7unshare17h19052c50f9e150aeE>
   2817a:	a823      	add	r0, sp, #140	@ 0x8c
   2817c:	990c      	ldr	r1, [sp, #48]	@ 0x30
   2817e:	7001      	strb	r1, [r0, #0]
   28180:	486d      	ldr	r0, [pc, #436]	@ (28338 <_start+0x738>)
   28182:	4468      	add	r0, sp
   28184:	7802      	ldrb	r2, [r0, #0]
   28186:	2a02      	cmp	r2, #2
   28188:	d003      	beq.n	28192 <_start+0x592>
   2818a:	2107      	movs	r1, #7
   2818c:	486e      	ldr	r0, [pc, #440]	@ (28348 <_start+0x748>)
   2818e:	f003 f877 	bl	2b280 <_ZN9allow_pin12dynamic_type7unshare17h19052c50f9e150aeE>
   28192:	4869      	ldr	r0, [pc, #420]	@ (28338 <_start+0x738>)
   28194:	4468      	add	r0, sp
   28196:	990c      	ldr	r1, [sp, #48]	@ 0x30
   28198:	7001      	strb	r1, [r0, #0]
   2819a:	4867      	ldr	r0, [pc, #412]	@ (28338 <_start+0x738>)
   2819c:	4468      	add	r0, sp
   2819e:	7804      	ldrb	r4, [r0, #0]
   281a0:	2d00      	cmp	r5, #0
   281a2:	d003      	beq.n	281ac <_start+0x5ac>
   281a4:	910f      	str	r1, [sp, #60]	@ 0x3c
   281a6:	2c02      	cmp	r4, #2
   281a8:	d11e      	bne.n	281e8 <_start+0x5e8>
   281aa:	e022      	b.n	281f2 <_start+0x5f2>
   281ac:	4b67      	ldr	r3, [pc, #412]	@ (2834c <_start+0x74c>)
   281ae:	1dda      	adds	r2, r3, #7
   281b0:	4961      	ldr	r1, [pc, #388]	@ (28338 <_start+0x738>)
   281b2:	4469      	add	r1, sp
   281b4:	3108      	adds	r1, #8
   281b6:	a838      	add	r0, sp, #224	@ 0xe0
   281b8:	2c02      	cmp	r4, #2
   281ba:	d000      	beq.n	281be <_start+0x5be>
   281bc:	461e      	mov	r6, r3
   281be:	78b3      	ldrb	r3, [r6, #2]
   281c0:	7083      	strb	r3, [r0, #2]
   281c2:	d000      	beq.n	281c6 <_start+0x5c6>
   281c4:	4611      	mov	r1, r2
   281c6:	7832      	ldrb	r2, [r6, #0]
   281c8:	7873      	ldrb	r3, [r6, #1]
   281ca:	021b      	lsls	r3, r3, #8
   281cc:	189a      	adds	r2, r3, r2
   281ce:	8002      	strh	r2, [r0, #0]
   281d0:	9e0d      	ldr	r6, [sp, #52]	@ 0x34
   281d2:	6e30      	ldr	r0, [r6, #96]	@ 0x60
   281d4:	900f      	str	r0, [sp, #60]	@ 0x3c
   281d6:	a810      	add	r0, sp, #64	@ 0x40
   281d8:	222f      	movs	r2, #47	@ 0x2f
   281da:	f003 fa36 	bl	2b64a <__aeabi_memcpy>
   281de:	2000      	movs	r0, #0
   281e0:	2c02      	cmp	r4, #2
   281e2:	d000      	beq.n	281e6 <_start+0x5e6>
   281e4:	900f      	str	r0, [sp, #60]	@ 0x3c
   281e6:	d004      	beq.n	281f2 <_start+0x5f2>
   281e8:	2107      	movs	r1, #7
   281ea:	4857      	ldr	r0, [pc, #348]	@ (28348 <_start+0x748>)
   281ec:	4622      	mov	r2, r4
   281ee:	f003 f847 	bl	2b280 <_ZN9allow_pin12dynamic_type7unshare17h19052c50f9e150aeE>
   281f2:	a823      	add	r0, sp, #140	@ 0x8c
   281f4:	7802      	ldrb	r2, [r0, #0]
   281f6:	2a02      	cmp	r2, #2
   281f8:	d003      	beq.n	28202 <_start+0x602>
   281fa:	2100      	movs	r1, #0
   281fc:	4852      	ldr	r0, [pc, #328]	@ (28348 <_start+0x748>)
   281fe:	f003 f83f 	bl	2b280 <_ZN9allow_pin12dynamic_type7unshare17h19052c50f9e150aeE>
   28202:	2d00      	cmp	r5, #0
   28204:	d001      	beq.n	2820a <_start+0x60a>
   28206:	f002 fffc 	bl	2b202 <_start+0x3602>
   2820a:	4a4b      	ldr	r2, [pc, #300]	@ (28338 <_start+0x738>)
   2820c:	446a      	add	r2, sp
   2820e:	920a      	str	r2, [sp, #40]	@ 0x28
   28210:	9838      	ldr	r0, [sp, #224]	@ 0xe0
   28212:	7050      	strb	r0, [r2, #1]
   28214:	a838      	add	r0, sp, #224	@ 0xe0
   28216:	7881      	ldrb	r1, [r0, #2]
   28218:	70d1      	strb	r1, [r2, #3]
   2821a:	7840      	ldrb	r0, [r0, #1]
   2821c:	7090      	strb	r0, [r2, #2]
   2821e:	a910      	add	r1, sp, #64	@ 0x40
   28220:	4847      	ldr	r0, [pc, #284]	@ (28340 <_start+0x740>)
   28222:	4468      	add	r0, sp
   28224:	4602      	mov	r2, r0
   28226:	c968      	ldmia	r1!, {r3, r5, r6}
   28228:	c268      	stmia	r2!, {r3, r5, r6}
   2822a:	c978      	ldmia	r1!, {r3, r4, r5, r6}
   2822c:	c278      	stmia	r2!, {r3, r4, r5, r6}
   2822e:	c978      	ldmia	r1!, {r3, r4, r5, r6}
   28230:	c278      	stmia	r2!, {r3, r4, r5, r6}
   28232:	880b      	ldrh	r3, [r1, #0]
   28234:	8013      	strh	r3, [r2, #0]
   28236:	7889      	ldrb	r1, [r1, #2]
   28238:	7091      	strb	r1, [r2, #2]
   2823a:	9e0a      	ldr	r6, [sp, #40]	@ 0x28
   2823c:	4631      	mov	r1, r6
   2823e:	3108      	adds	r1, #8
   28240:	c81c      	ldmia	r0!, {r2, r3, r4}
   28242:	c11c      	stmia	r1!, {r2, r3, r4}
   28244:	c83c      	ldmia	r0!, {r2, r3, r4, r5}
   28246:	c13c      	stmia	r1!, {r2, r3, r4, r5}
   28248:	c83c      	ldmia	r0!, {r2, r3, r4, r5}
   2824a:	c13c      	stmia	r1!, {r2, r3, r4, r5}
   2824c:	8802      	ldrh	r2, [r0, #0]
   2824e:	800a      	strh	r2, [r1, #0]
   28250:	7880      	ldrb	r0, [r0, #2]
   28252:	7088      	strb	r0, [r1, #2]
   28254:	9d0c      	ldr	r5, [sp, #48]	@ 0x30
   28256:	7035      	strb	r5, [r6, #0]
   28258:	980f      	ldr	r0, [sp, #60]	@ 0x3c
   2825a:	990d      	ldr	r1, [sp, #52]	@ 0x34
   2825c:	6608      	str	r0, [r1, #96]	@ 0x60
   2825e:	4c38      	ldr	r4, [pc, #224]	@ (28340 <_start+0x740>)
   28260:	446c      	add	r4, sp
   28262:	1c60      	adds	r0, r4, #1
   28264:	2125      	movs	r1, #37	@ 0x25
   28266:	900f      	str	r0, [sp, #60]	@ 0x3c
   28268:	9104      	str	r1, [sp, #16]
   2826a:	f003 f82e 	bl	2b2ca <__aeabi_memclr>
   2826e:	7025      	strb	r5, [r4, #0]
   28270:	9806      	ldr	r0, [sp, #24]
   28272:	9000      	str	r0, [sp, #0]
   28274:	9c0b      	ldr	r4, [sp, #44]	@ 0x2c
   28276:	9401      	str	r4, [sp, #4]
   28278:	1c73      	adds	r3, r6, #1
   2827a:	a833      	add	r0, sp, #204	@ 0xcc
   2827c:	4934      	ldr	r1, [pc, #208]	@ (28350 <_start+0x750>)
   2827e:	2207      	movs	r2, #7
   28280:	f003 f80b 	bl	2b29a <_ZN9allow_pin13dynamic_allow17h8bfd3764c146b81aE>
   28284:	9833      	ldr	r0, [sp, #204]	@ 0xcc
   28286:	2802      	cmp	r0, #2
   28288:	d101      	bne.n	2828e <_start+0x68e>
   2828a:	9934      	ldr	r1, [sp, #208]	@ 0xd0
   2828c:	e002      	b.n	28294 <_start+0x694>
   2828e:	492a      	ldr	r1, [pc, #168]	@ (28338 <_start+0x738>)
   28290:	4469      	add	r1, sp
   28292:	700c      	strb	r4, [r1, #0]
   28294:	2802      	cmp	r0, #2
   28296:	9c0e      	ldr	r4, [sp, #56]	@ 0x38
   28298:	9e0f      	ldr	r6, [sp, #60]	@ 0x3c
   2829a:	d043      	beq.n	28324 <_start+0x724>
   2829c:	4828      	ldr	r0, [pc, #160]	@ (28340 <_start+0x740>)
   2829e:	4468      	add	r0, sp
   282a0:	7800      	ldrb	r0, [r0, #0]
   282a2:	2802      	cmp	r0, #2
   282a4:	d10f      	bne.n	282c6 <_start+0x6c6>
   282a6:	2503      	movs	r5, #3
   282a8:	9804      	ldr	r0, [sp, #16]
   282aa:	9000      	str	r0, [sp, #0]
   282ac:	9501      	str	r5, [sp, #4]
   282ae:	a833      	add	r0, sp, #204	@ 0xcc
   282b0:	2400      	movs	r4, #0
   282b2:	4927      	ldr	r1, [pc, #156]	@ (28350 <_start+0x750>)
   282b4:	4622      	mov	r2, r4
   282b6:	4633      	mov	r3, r6
   282b8:	f002 ffef 	bl	2b29a <_ZN9allow_pin13dynamic_allow17h8bfd3764c146b81aE>
   282bc:	9833      	ldr	r0, [sp, #204]	@ 0xcc
   282be:	2802      	cmp	r0, #2
   282c0:	d105      	bne.n	282ce <_start+0x6ce>
   282c2:	9934      	ldr	r1, [sp, #208]	@ 0xd0
   282c4:	e000      	b.n	282c8 <_start+0x6c8>
   282c6:	2103      	movs	r1, #3
   282c8:	980e      	ldr	r0, [sp, #56]	@ 0x38
   282ca:	4604      	mov	r4, r0
   282cc:	e003      	b.n	282d6 <_start+0x6d6>
   282ce:	481c      	ldr	r0, [pc, #112]	@ (28340 <_start+0x740>)
   282d0:	4468      	add	r0, sp
   282d2:	7005      	strb	r5, [r0, #0]
   282d4:	980e      	ldr	r0, [sp, #56]	@ 0x38
   282d6:	2c00      	cmp	r4, #0
   282d8:	4604      	mov	r4, r0
   282da:	d123      	bne.n	28324 <_start+0x724>
   282dc:	481c      	ldr	r0, [pc, #112]	@ (28350 <_start+0x750>)
   282de:	2107      	movs	r1, #7
   282e0:	2400      	movs	r4, #0
   282e2:	4622      	mov	r2, r4
   282e4:	4623      	mov	r3, r4
   282e6:	df02      	svc	2
   282e8:	287f      	cmp	r0, #127	@ 0x7f
   282ea:	d801      	bhi.n	282f0 <_start+0x6f0>
   282ec:	9c0e      	ldr	r4, [sp, #56]	@ 0x38
   282ee:	e019      	b.n	28324 <_start+0x724>
   282f0:	4811      	ldr	r0, [pc, #68]	@ (28338 <_start+0x738>)
   282f2:	4468      	add	r0, sp
   282f4:	7802      	ldrb	r2, [r0, #0]
   282f6:	2a02      	cmp	r2, #2
   282f8:	d003      	beq.n	28302 <_start+0x702>
   282fa:	2107      	movs	r1, #7
   282fc:	4814      	ldr	r0, [pc, #80]	@ (28350 <_start+0x750>)
   282fe:	f002 ffbf 	bl	2b280 <_ZN9allow_pin12dynamic_type7unshare17h19052c50f9e150aeE>
   28302:	480d      	ldr	r0, [pc, #52]	@ (28338 <_start+0x738>)
   28304:	4468      	add	r0, sp
   28306:	990c      	ldr	r1, [sp, #48]	@ 0x30
   28308:	7001      	strb	r1, [r0, #0]
   2830a:	480d      	ldr	r0, [pc, #52]	@ (28340 <_start+0x740>)
   2830c:	4468      	add	r0, sp
   2830e:	7802      	ldrb	r2, [r0, #0]
   28310:	2a02      	cmp	r2, #2
   28312:	d003      	beq.n	2831c <_start+0x71c>
   28314:	2100      	movs	r1, #0
   28316:	480e      	ldr	r0, [pc, #56]	@ (28350 <_start+0x750>)
   28318:	f002 ffb2 	bl	2b280 <_ZN9allow_pin12dynamic_type7unshare17h19052c50f9e150aeE>
   2831c:	4808      	ldr	r0, [pc, #32]	@ (28340 <_start+0x740>)
   2831e:	4468      	add	r0, sp
   28320:	990c      	ldr	r1, [sp, #48]	@ 0x30
   28322:	7001      	strb	r1, [r0, #0]
   28324:	4806      	ldr	r0, [pc, #24]	@ (28340 <_start+0x740>)
   28326:	4468      	add	r0, sp
   28328:	7805      	ldrb	r5, [r0, #0]
   2832a:	2c00      	cmp	r4, #0
   2832c:	d012      	beq.n	28354 <_start+0x754>
   2832e:	910f      	str	r1, [sp, #60]	@ 0x3c
   28330:	2d02      	cmp	r5, #2
   28332:	d12d      	bne.n	28390 <_start+0x790>
   28334:	e031      	b.n	2839a <_start+0x79a>
   28336:	46c0      	nop			@ (mov r8, r8)
   28338:	00001414 	.word	0x00001414
   2833c:	000023cf 	.word	0x000023cf
   28340:	000013b8 	.word	0x000013b8
   28344:	0001028d 	.word	0x0001028d
   28348:	0000021f 	.word	0x0000021f
   2834c:	0001038e 	.word	0x0001038e
   28350:	00001597 	.word	0x00001597
   28354:	4be7      	ldr	r3, [pc, #924]	@ (286f4 <_start+0xaf4>)
   28356:	1dda      	adds	r2, r3, #7
   28358:	49e7      	ldr	r1, [pc, #924]	@ (286f8 <_start+0xaf8>)
   2835a:	4469      	add	r1, sp
   2835c:	3108      	adds	r1, #8
   2835e:	a838      	add	r0, sp, #224	@ 0xe0
   28360:	2d02      	cmp	r5, #2
   28362:	d000      	beq.n	28366 <_start+0x766>
   28364:	461e      	mov	r6, r3
   28366:	78b3      	ldrb	r3, [r6, #2]
   28368:	7083      	strb	r3, [r0, #2]
   2836a:	d000      	beq.n	2836e <_start+0x76e>
   2836c:	4611      	mov	r1, r2
   2836e:	7832      	ldrb	r2, [r6, #0]
   28370:	7873      	ldrb	r3, [r6, #1]
   28372:	021b      	lsls	r3, r3, #8
   28374:	189a      	adds	r2, r3, r2
   28376:	8002      	strh	r2, [r0, #0]
   28378:	9809      	ldr	r0, [sp, #36]	@ 0x24
   2837a:	6800      	ldr	r0, [r0, #0]
   2837c:	900f      	str	r0, [sp, #60]	@ 0x3c
   2837e:	a823      	add	r0, sp, #140	@ 0x8c
   28380:	221e      	movs	r2, #30
   28382:	f003 f962 	bl	2b64a <__aeabi_memcpy>
   28386:	2000      	movs	r0, #0
   28388:	2d02      	cmp	r5, #2
   2838a:	d000      	beq.n	2838e <_start+0x78e>
   2838c:	900f      	str	r0, [sp, #60]	@ 0x3c
   2838e:	d004      	beq.n	2839a <_start+0x79a>
   28390:	2100      	movs	r1, #0
   28392:	48da      	ldr	r0, [pc, #872]	@ (286fc <_start+0xafc>)
   28394:	462a      	mov	r2, r5
   28396:	f002 ff73 	bl	2b280 <_ZN9allow_pin12dynamic_type7unshare17h19052c50f9e150aeE>
   2839a:	48d9      	ldr	r0, [pc, #868]	@ (28700 <_start+0xb00>)
   2839c:	4468      	add	r0, sp
   2839e:	7802      	ldrb	r2, [r0, #0]
   283a0:	2a02      	cmp	r2, #2
   283a2:	d003      	beq.n	283ac <_start+0x7ac>
   283a4:	2107      	movs	r1, #7
   283a6:	48d5      	ldr	r0, [pc, #852]	@ (286fc <_start+0xafc>)
   283a8:	f002 ff6a 	bl	2b280 <_ZN9allow_pin12dynamic_type7unshare17h19052c50f9e150aeE>
   283ac:	2c00      	cmp	r4, #0
   283ae:	d001      	beq.n	283b4 <_start+0x7b4>
   283b0:	f002 ff27 	bl	2b202 <_start+0x3602>
   283b4:	4ad2      	ldr	r2, [pc, #840]	@ (28700 <_start+0xb00>)
   283b6:	446a      	add	r2, sp
   283b8:	920a      	str	r2, [sp, #40]	@ 0x28
   283ba:	9838      	ldr	r0, [sp, #224]	@ 0xe0
   283bc:	7050      	strb	r0, [r2, #1]
   283be:	a838      	add	r0, sp, #224	@ 0xe0
   283c0:	7881      	ldrb	r1, [r0, #2]
   283c2:	70d1      	strb	r1, [r2, #3]
   283c4:	7840      	ldrb	r0, [r0, #1]
   283c6:	7090      	strb	r0, [r2, #2]
   283c8:	a923      	add	r1, sp, #140	@ 0x8c
   283ca:	a810      	add	r0, sp, #64	@ 0x40
   283cc:	4602      	mov	r2, r0
   283ce:	c958      	ldmia	r1!, {r3, r4, r6}
   283d0:	c258      	stmia	r2!, {r3, r4, r6}
   283d2:	c978      	ldmia	r1!, {r3, r4, r5, r6}
   283d4:	c278      	stmia	r2!, {r3, r4, r5, r6}
   283d6:	8809      	ldrh	r1, [r1, #0]
   283d8:	8011      	strh	r1, [r2, #0]
   283da:	9e0a      	ldr	r6, [sp, #40]	@ 0x28
   283dc:	4631      	mov	r1, r6
   283de:	3108      	adds	r1, #8
   283e0:	c81c      	ldmia	r0!, {r2, r3, r4}
   283e2:	c11c      	stmia	r1!, {r2, r3, r4}
   283e4:	c83c      	ldmia	r0!, {r2, r3, r4, r5}
   283e6:	c13c      	stmia	r1!, {r2, r3, r4, r5}
   283e8:	8800      	ldrh	r0, [r0, #0]
   283ea:	8008      	strh	r0, [r1, #0]
   283ec:	9c0c      	ldr	r4, [sp, #48]	@ 0x30
   283ee:	7034      	strb	r4, [r6, #0]
   283f0:	9e0d      	ldr	r6, [sp, #52]	@ 0x34
   283f2:	980f      	ldr	r0, [sp, #60]	@ 0x3c
   283f4:	6630      	str	r0, [r6, #96]	@ 0x60
   283f6:	ad10      	add	r5, sp, #64	@ 0x40
   283f8:	1c68      	adds	r0, r5, #1
   283fa:	210e      	movs	r1, #14
   283fc:	9006      	str	r0, [sp, #24]
   283fe:	910f      	str	r1, [sp, #60]	@ 0x3c
   28400:	f002 ff63 	bl	2b2ca <__aeabi_memclr>
   28404:	702c      	strb	r4, [r5, #0]
   28406:	9804      	ldr	r0, [sp, #16]
   28408:	9000      	str	r0, [sp, #0]
   2840a:	9d0b      	ldr	r5, [sp, #44]	@ 0x2c
   2840c:	9501      	str	r5, [sp, #4]
   2840e:	980a      	ldr	r0, [sp, #40]	@ 0x28
   28410:	1c43      	adds	r3, r0, #1
   28412:	48b9      	ldr	r0, [pc, #740]	@ (286f8 <_start+0xaf8>)
   28414:	4468      	add	r0, sp
   28416:	49bb      	ldr	r1, [pc, #748]	@ (28704 <_start+0xb04>)
   28418:	4622      	mov	r2, r4
   2841a:	f002 ff3e 	bl	2b29a <_ZN9allow_pin13dynamic_allow17h8bfd3764c146b81aE>
   2841e:	6830      	ldr	r0, [r6, #0]
   28420:	2802      	cmp	r0, #2
   28422:	d102      	bne.n	2842a <_start+0x82a>
   28424:	9909      	ldr	r1, [sp, #36]	@ 0x24
   28426:	6809      	ldr	r1, [r1, #0]
   28428:	e002      	b.n	28430 <_start+0x830>
   2842a:	49b5      	ldr	r1, [pc, #724]	@ (28700 <_start+0xb00>)
   2842c:	4469      	add	r1, sp
   2842e:	700d      	strb	r5, [r1, #0]
   28430:	2802      	cmp	r0, #2
   28432:	d026      	beq.n	28482 <_start+0x882>
   28434:	a810      	add	r0, sp, #64	@ 0x40
   28436:	7800      	ldrb	r0, [r0, #0]
   28438:	2802      	cmp	r0, #2
   2843a:	d110      	bne.n	2845e <_start+0x85e>
   2843c:	2503      	movs	r5, #3
   2843e:	980f      	ldr	r0, [sp, #60]	@ 0x3c
   28440:	9000      	str	r0, [sp, #0]
   28442:	9501      	str	r5, [sp, #4]
   28444:	48ac      	ldr	r0, [pc, #688]	@ (286f8 <_start+0xaf8>)
   28446:	4468      	add	r0, sp
   28448:	2208      	movs	r2, #8
   2844a:	49ae      	ldr	r1, [pc, #696]	@ (28704 <_start+0xb04>)
   2844c:	9b06      	ldr	r3, [sp, #24]
   2844e:	f002 ff24 	bl	2b29a <_ZN9allow_pin13dynamic_allow17h8bfd3764c146b81aE>
   28452:	6830      	ldr	r0, [r6, #0]
   28454:	2802      	cmp	r0, #2
   28456:	d105      	bne.n	28464 <_start+0x864>
   28458:	6871      	ldr	r1, [r6, #4]
   2845a:	980e      	ldr	r0, [sp, #56]	@ 0x38
   2845c:	e005      	b.n	2846a <_start+0x86a>
   2845e:	2103      	movs	r1, #3
   28460:	980e      	ldr	r0, [sp, #56]	@ 0x38
   28462:	e002      	b.n	2846a <_start+0x86a>
   28464:	a810      	add	r0, sp, #64	@ 0x40
   28466:	7005      	strb	r5, [r0, #0]
   28468:	2000      	movs	r0, #0
   2846a:	2800      	cmp	r0, #0
   2846c:	d109      	bne.n	28482 <_start+0x882>
   2846e:	48a5      	ldr	r0, [pc, #660]	@ (28704 <_start+0xb04>)
   28470:	2402      	movs	r4, #2
   28472:	2208      	movs	r2, #8
   28474:	2500      	movs	r5, #0
   28476:	4621      	mov	r1, r4
   28478:	462b      	mov	r3, r5
   2847a:	df02      	svc	2
   2847c:	287f      	cmp	r0, #127	@ 0x7f
   2847e:	d900      	bls.n	28482 <_start+0x882>
   28480:	e0a9      	b.n	285d6 <_start+0x9d6>
   28482:	9d0e      	ldr	r5, [sp, #56]	@ 0x38
   28484:	a810      	add	r0, sp, #64	@ 0x40
   28486:	7802      	ldrb	r2, [r0, #0]
   28488:	2d00      	cmp	r5, #0
   2848a:	d003      	beq.n	28494 <_start+0x894>
   2848c:	910f      	str	r1, [sp, #60]	@ 0x3c
   2848e:	2a02      	cmp	r2, #2
   28490:	d134      	bne.n	284fc <_start+0x8fc>
   28492:	e037      	b.n	28504 <_start+0x904>
   28494:	4b9c      	ldr	r3, [pc, #624]	@ (28708 <_start+0xb08>)
   28496:	1dd9      	adds	r1, r3, #7
   28498:	a810      	add	r0, sp, #64	@ 0x40
   2849a:	3008      	adds	r0, #8
   2849c:	2a02      	cmp	r2, #2
   2849e:	d000      	beq.n	284a2 <_start+0x8a2>
   284a0:	9306      	str	r3, [sp, #24]
   284a2:	920e      	str	r2, [sp, #56]	@ 0x38
   284a4:	950c      	str	r5, [sp, #48]	@ 0x30
   284a6:	d000      	beq.n	284aa <_start+0x8aa>
   284a8:	4608      	mov	r0, r1
   284aa:	7801      	ldrb	r1, [r0, #0]
   284ac:	7843      	ldrb	r3, [r0, #1]
   284ae:	021b      	lsls	r3, r3, #8
   284b0:	1859      	adds	r1, r3, r1
   284b2:	7883      	ldrb	r3, [r0, #2]
   284b4:	041b      	lsls	r3, r3, #16
   284b6:	78c4      	ldrb	r4, [r0, #3]
   284b8:	0624      	lsls	r4, r4, #24
   284ba:	18e3      	adds	r3, r4, r3
   284bc:	1859      	adds	r1, r3, r1
   284be:	910b      	str	r1, [sp, #44]	@ 0x2c
   284c0:	7903      	ldrb	r3, [r0, #4]
   284c2:	7944      	ldrb	r4, [r0, #5]
   284c4:	0224      	lsls	r4, r4, #8
   284c6:	18e3      	adds	r3, r4, r3
   284c8:	9a06      	ldr	r2, [sp, #24]
   284ca:	7814      	ldrb	r4, [r2, #0]
   284cc:	7855      	ldrb	r5, [r2, #1]
   284ce:	022d      	lsls	r5, r5, #8
   284d0:	192c      	adds	r4, r5, r4
   284d2:	2100      	movs	r1, #0
   284d4:	910f      	str	r1, [sp, #60]	@ 0x3c
   284d6:	ad33      	add	r5, sp, #204	@ 0xcc
   284d8:	ae38      	add	r6, sp, #224	@ 0xe0
   284da:	990e      	ldr	r1, [sp, #56]	@ 0x38
   284dc:	2902      	cmp	r1, #2
   284de:	7891      	ldrb	r1, [r2, #2]
   284e0:	70b1      	strb	r1, [r6, #2]
   284e2:	7980      	ldrb	r0, [r0, #6]
   284e4:	71a8      	strb	r0, [r5, #6]
   284e6:	8034      	strh	r4, [r6, #0]
   284e8:	80ab      	strh	r3, [r5, #4]
   284ea:	980b      	ldr	r0, [sp, #44]	@ 0x2c
   284ec:	9033      	str	r0, [sp, #204]	@ 0xcc
   284ee:	d101      	bne.n	284f4 <_start+0x8f4>
   284f0:	9811      	ldr	r0, [sp, #68]	@ 0x44
   284f2:	900f      	str	r0, [sp, #60]	@ 0x3c
   284f4:	9e0d      	ldr	r6, [sp, #52]	@ 0x34
   284f6:	9d0c      	ldr	r5, [sp, #48]	@ 0x30
   284f8:	9a0e      	ldr	r2, [sp, #56]	@ 0x38
   284fa:	d003      	beq.n	28504 <_start+0x904>
   284fc:	2108      	movs	r1, #8
   284fe:	4881      	ldr	r0, [pc, #516]	@ (28704 <_start+0xb04>)
   28500:	f002 febe 	bl	2b280 <_ZN9allow_pin12dynamic_type7unshare17h19052c50f9e150aeE>
   28504:	487e      	ldr	r0, [pc, #504]	@ (28700 <_start+0xb00>)
   28506:	4468      	add	r0, sp
   28508:	7802      	ldrb	r2, [r0, #0]
   2850a:	2a02      	cmp	r2, #2
   2850c:	d003      	beq.n	28516 <_start+0x916>
   2850e:	2102      	movs	r1, #2
   28510:	487c      	ldr	r0, [pc, #496]	@ (28704 <_start+0xb04>)
   28512:	f002 feb5 	bl	2b280 <_ZN9allow_pin12dynamic_type7unshare17h19052c50f9e150aeE>
   28516:	2d00      	cmp	r5, #0
   28518:	d001      	beq.n	2851e <_start+0x91e>
   2851a:	f002 fe72 	bl	2b202 <_start+0x3602>
   2851e:	ac39      	add	r4, sp, #228	@ 0xe4
   28520:	9838      	ldr	r0, [sp, #224]	@ 0xe0
   28522:	8020      	strh	r0, [r4, #0]
   28524:	a923      	add	r1, sp, #140	@ 0x8c
   28526:	9834      	ldr	r0, [sp, #208]	@ 0xd0
   28528:	8088      	strh	r0, [r1, #4]
   2852a:	a838      	add	r0, sp, #224	@ 0xe0
   2852c:	7880      	ldrb	r0, [r0, #2]
   2852e:	70a0      	strb	r0, [r4, #2]
   28530:	a833      	add	r0, sp, #204	@ 0xcc
   28532:	7980      	ldrb	r0, [r0, #6]
   28534:	7188      	strb	r0, [r1, #6]
   28536:	9a0f      	ldr	r2, [sp, #60]	@ 0x3c
   28538:	70e2      	strb	r2, [r4, #3]
   2853a:	0e10      	lsrs	r0, r2, #24
   2853c:	71a0      	strb	r0, [r4, #6]
   2853e:	0c10      	lsrs	r0, r2, #16
   28540:	7160      	strb	r0, [r4, #5]
   28542:	0a10      	lsrs	r0, r2, #8
   28544:	7120      	strb	r0, [r4, #4]
   28546:	9833      	ldr	r0, [sp, #204]	@ 0xcc
   28548:	9023      	str	r0, [sp, #140]	@ 0x8c
   2854a:	1de0      	adds	r0, r4, #7
   2854c:	2207      	movs	r2, #7
   2854e:	f003 f87c 	bl	2b64a <__aeabi_memcpy>
   28552:	4d6b      	ldr	r5, [pc, #428]	@ (28700 <_start+0xb00>)
   28554:	446d      	add	r5, sp
   28556:	4628      	mov	r0, r5
   28558:	4621      	mov	r1, r4
   2855a:	f7ff f8f3 	bl	27744 <_ZN20complex_dynamic_type3app17hf3682c46a808e1fbE>
   2855e:	782c      	ldrb	r4, [r5, #0]
   28560:	2c00      	cmp	r4, #0
   28562:	d002      	beq.n	2856a <_start+0x96a>
   28564:	6e30      	ldr	r0, [r6, #96]	@ 0x60
   28566:	900f      	str	r0, [sp, #60]	@ 0x3c
   28568:	e011      	b.n	2858e <_start+0x98e>
   2856a:	4965      	ldr	r1, [pc, #404]	@ (28700 <_start+0xb00>)
   2856c:	4469      	add	r1, sp
   2856e:	78c8      	ldrb	r0, [r1, #3]
   28570:	aa10      	add	r2, sp, #64	@ 0x40
   28572:	7090      	strb	r0, [r2, #2]
   28574:	7848      	ldrb	r0, [r1, #1]
   28576:	788b      	ldrb	r3, [r1, #2]
   28578:	021b      	lsls	r3, r3, #8
   2857a:	1818      	adds	r0, r3, r0
   2857c:	8010      	strh	r0, [r2, #0]
   2857e:	6e30      	ldr	r0, [r6, #96]	@ 0x60
   28580:	900f      	str	r0, [sp, #60]	@ 0x3c
   28582:	3108      	adds	r1, #8
   28584:	485c      	ldr	r0, [pc, #368]	@ (286f8 <_start+0xaf8>)
   28586:	4468      	add	r0, sp
   28588:	2241      	movs	r2, #65	@ 0x41
   2858a:	f002 fefe 	bl	2b38a <__aeabi_memcpy4>
   2858e:	2c00      	cmp	r4, #0
   28590:	d001      	beq.n	28596 <_start+0x996>
   28592:	f002 fe36 	bl	2b202 <_start+0x3602>
   28596:	ac3d      	add	r4, sp, #244	@ 0xf4
   28598:	990f      	ldr	r1, [sp, #60]	@ 0x3c
   2859a:	70e1      	strb	r1, [r4, #3]
   2859c:	9810      	ldr	r0, [sp, #64]	@ 0x40
   2859e:	8020      	strh	r0, [r4, #0]
   285a0:	0e08      	lsrs	r0, r1, #24
   285a2:	71a0      	strb	r0, [r4, #6]
   285a4:	0c08      	lsrs	r0, r1, #16
   285a6:	7160      	strb	r0, [r4, #5]
   285a8:	0a08      	lsrs	r0, r1, #8
   285aa:	7120      	strb	r0, [r4, #4]
   285ac:	a810      	add	r0, sp, #64	@ 0x40
   285ae:	7880      	ldrb	r0, [r0, #2]
   285b0:	70a0      	strb	r0, [r4, #2]
   285b2:	1de0      	adds	r0, r4, #7
   285b4:	4950      	ldr	r1, [pc, #320]	@ (286f8 <_start+0xaf8>)
   285b6:	4469      	add	r1, sp
   285b8:	2241      	movs	r2, #65	@ 0x41
   285ba:	f003 f846 	bl	2b64a <__aeabi_memcpy>
   285be:	4d50      	ldr	r5, [pc, #320]	@ (28700 <_start+0xb00>)
   285c0:	446d      	add	r5, sp
   285c2:	4628      	mov	r0, r5
   285c4:	4621      	mov	r1, r4
   285c6:	f7fe f903 	bl	267d0 <_ZN20complex_dynamic_type3app17hd83aa7a42fe38979E>
   285ca:	7829      	ldrb	r1, [r5, #0]
   285cc:	2901      	cmp	r1, #1
   285ce:	d119      	bne.n	28604 <_start+0xa04>
   285d0:	6e30      	ldr	r0, [r6, #96]	@ 0x60
   285d2:	900f      	str	r0, [sp, #60]	@ 0x3c
   285d4:	e025      	b.n	28622 <_start+0xa22>
   285d6:	484a      	ldr	r0, [pc, #296]	@ (28700 <_start+0xb00>)
   285d8:	4468      	add	r0, sp
   285da:	7802      	ldrb	r2, [r0, #0]
   285dc:	2a02      	cmp	r2, #2
   285de:	d003      	beq.n	285e8 <_start+0x9e8>
   285e0:	2102      	movs	r1, #2
   285e2:	4848      	ldr	r0, [pc, #288]	@ (28704 <_start+0xb04>)
   285e4:	f002 fe4c 	bl	2b280 <_ZN9allow_pin12dynamic_type7unshare17h19052c50f9e150aeE>
   285e8:	4845      	ldr	r0, [pc, #276]	@ (28700 <_start+0xb00>)
   285ea:	4468      	add	r0, sp
   285ec:	7004      	strb	r4, [r0, #0]
   285ee:	a810      	add	r0, sp, #64	@ 0x40
   285f0:	7802      	ldrb	r2, [r0, #0]
   285f2:	2a02      	cmp	r2, #2
   285f4:	d003      	beq.n	285fe <_start+0x9fe>
   285f6:	2108      	movs	r1, #8
   285f8:	4842      	ldr	r0, [pc, #264]	@ (28704 <_start+0xb04>)
   285fa:	f002 fe41 	bl	2b280 <_ZN9allow_pin12dynamic_type7unshare17h19052c50f9e150aeE>
   285fe:	a810      	add	r0, sp, #64	@ 0x40
   28600:	7004      	strb	r4, [r0, #0]
   28602:	e73f      	b.n	28484 <_start+0x884>
   28604:	483e      	ldr	r0, [pc, #248]	@ (28700 <_start+0xb00>)
   28606:	4468      	add	r0, sp
   28608:	78c2      	ldrb	r2, [r0, #3]
   2860a:	4b3b      	ldr	r3, [pc, #236]	@ (286f8 <_start+0xaf8>)
   2860c:	446b      	add	r3, sp
   2860e:	709a      	strb	r2, [r3, #2]
   28610:	7842      	ldrb	r2, [r0, #1]
   28612:	7880      	ldrb	r0, [r0, #2]
   28614:	0200      	lsls	r0, r0, #8
   28616:	1880      	adds	r0, r0, r2
   28618:	8018      	strh	r0, [r3, #0]
   2861a:	6e30      	ldr	r0, [r6, #96]	@ 0x60
   2861c:	900f      	str	r0, [sp, #60]	@ 0x3c
   2861e:	6e72      	ldr	r2, [r6, #100]	@ 0x64
   28620:	6eb0      	ldr	r0, [r6, #104]	@ 0x68
   28622:	2900      	cmp	r1, #0
   28624:	d001      	beq.n	2862a <_start+0xa2a>
   28626:	f002 fdec 	bl	2b202 <_start+0x3602>
   2862a:	9908      	ldr	r1, [sp, #32]
   2862c:	1ccb      	adds	r3, r1, #3
   2862e:	711a      	strb	r2, [r3, #4]
   28630:	9d0f      	ldr	r5, [sp, #60]	@ 0x3c
   28632:	701d      	strb	r5, [r3, #0]
   28634:	a94f      	add	r1, sp, #316	@ 0x13c
   28636:	6834      	ldr	r4, [r6, #0]
   28638:	800c      	strh	r4, [r1, #0]
   2863a:	7218      	strb	r0, [r3, #8]
   2863c:	0e14      	lsrs	r4, r2, #24
   2863e:	71dc      	strb	r4, [r3, #7]
   28640:	0c14      	lsrs	r4, r2, #16
   28642:	719c      	strb	r4, [r3, #6]
   28644:	0a12      	lsrs	r2, r2, #8
   28646:	715a      	strb	r2, [r3, #5]
   28648:	0e2a      	lsrs	r2, r5, #24
   2864a:	70da      	strb	r2, [r3, #3]
   2864c:	0c2a      	lsrs	r2, r5, #16
   2864e:	709a      	strb	r2, [r3, #2]
   28650:	0a2a      	lsrs	r2, r5, #8
   28652:	705a      	strb	r2, [r3, #1]
   28654:	4a28      	ldr	r2, [pc, #160]	@ (286f8 <_start+0xaf8>)
   28656:	446a      	add	r2, sp
   28658:	7892      	ldrb	r2, [r2, #2]
   2865a:	708a      	strb	r2, [r1, #2]
   2865c:	0e02      	lsrs	r2, r0, #24
   2865e:	72da      	strb	r2, [r3, #11]
   28660:	0c02      	lsrs	r2, r0, #16
   28662:	729a      	strb	r2, [r3, #10]
   28664:	0a00      	lsrs	r0, r0, #8
   28666:	7258      	strb	r0, [r3, #9]
   28668:	4c25      	ldr	r4, [pc, #148]	@ (28700 <_start+0xb00>)
   2866a:	446c      	add	r4, sp
   2866c:	4620      	mov	r0, r4
   2866e:	f7f9 fa11 	bl	21a94 <_ZN20complex_dynamic_type3app17h2e6e304bc83911f8E>
   28672:	7820      	ldrb	r0, [r4, #0]
   28674:	2801      	cmp	r0, #1
   28676:	d102      	bne.n	2867e <_start+0xa7e>
   28678:	6e31      	ldr	r1, [r6, #96]	@ 0x60
   2867a:	910f      	str	r1, [sp, #60]	@ 0x3c
   2867c:	e015      	b.n	286aa <_start+0xaaa>
   2867e:	4920      	ldr	r1, [pc, #128]	@ (28700 <_start+0xb00>)
   28680:	4469      	add	r1, sp
   28682:	78ca      	ldrb	r2, [r1, #3]
   28684:	ab10      	add	r3, sp, #64	@ 0x40
   28686:	709a      	strb	r2, [r3, #2]
   28688:	784a      	ldrb	r2, [r1, #1]
   2868a:	788c      	ldrb	r4, [r1, #2]
   2868c:	0224      	lsls	r4, r4, #8
   2868e:	18a2      	adds	r2, r4, r2
   28690:	801a      	strh	r2, [r3, #0]
   28692:	3108      	adds	r1, #8
   28694:	6e32      	ldr	r2, [r6, #96]	@ 0x60
   28696:	920f      	str	r2, [sp, #60]	@ 0x3c
   28698:	4a17      	ldr	r2, [pc, #92]	@ (286f8 <_start+0xaf8>)
   2869a:	446a      	add	r2, sp
   2869c:	c938      	ldmia	r1!, {r3, r4, r5}
   2869e:	c238      	stmia	r2!, {r3, r4, r5}
   286a0:	c978      	ldmia	r1!, {r3, r4, r5, r6}
   286a2:	c278      	stmia	r2!, {r3, r4, r5, r6}
   286a4:	9e0d      	ldr	r6, [sp, #52]	@ 0x34
   286a6:	8809      	ldrh	r1, [r1, #0]
   286a8:	8011      	strh	r1, [r2, #0]
   286aa:	2800      	cmp	r0, #0
   286ac:	d001      	beq.n	286b2 <_start+0xab2>
   286ae:	f002 fda8 	bl	2b202 <_start+0x3602>
   286b2:	ac53      	add	r4, sp, #332	@ 0x14c
   286b4:	990f      	ldr	r1, [sp, #60]	@ 0x3c
   286b6:	70e1      	strb	r1, [r4, #3]
   286b8:	9810      	ldr	r0, [sp, #64]	@ 0x40
   286ba:	8020      	strh	r0, [r4, #0]
   286bc:	0e08      	lsrs	r0, r1, #24
   286be:	71a0      	strb	r0, [r4, #6]
   286c0:	0c08      	lsrs	r0, r1, #16
   286c2:	7160      	strb	r0, [r4, #5]
   286c4:	0a08      	lsrs	r0, r1, #8
   286c6:	7120      	strb	r0, [r4, #4]
   286c8:	a810      	add	r0, sp, #64	@ 0x40
   286ca:	7880      	ldrb	r0, [r0, #2]
   286cc:	70a0      	strb	r0, [r4, #2]
   286ce:	1de0      	adds	r0, r4, #7
   286d0:	4909      	ldr	r1, [pc, #36]	@ (286f8 <_start+0xaf8>)
   286d2:	4469      	add	r1, sp
   286d4:	221e      	movs	r2, #30
   286d6:	f002 ffb8 	bl	2b64a <__aeabi_memcpy>
   286da:	4d09      	ldr	r5, [pc, #36]	@ (28700 <_start+0xb00>)
   286dc:	446d      	add	r5, sp
   286de:	4628      	mov	r0, r5
   286e0:	4621      	mov	r1, r4
   286e2:	f7fb ffcd 	bl	24680 <_ZN20complex_dynamic_type3app17h8cc992bac07367f0E>
   286e6:	7828      	ldrb	r0, [r5, #0]
   286e8:	2801      	cmp	r0, #1
   286ea:	d10f      	bne.n	2870c <_start+0xb0c>
   286ec:	6e31      	ldr	r1, [r6, #96]	@ 0x60
   286ee:	910f      	str	r1, [sp, #60]	@ 0x3c
   286f0:	e024      	b.n	2873c <_start+0xb3c>
   286f2:	46c0      	nop			@ (mov r8, r8)
   286f4:	0001042e 	.word	0x0001042e
   286f8:	000013b8 	.word	0x000013b8
   286fc:	00001597 	.word	0x00001597
   28700:	00001414 	.word	0x00001414
   28704:	00000667 	.word	0x00000667
   28708:	00010bed 	.word	0x00010bed
   2870c:	49e8      	ldr	r1, [pc, #928]	@ (28ab0 <_start+0xeb0>)
   2870e:	4469      	add	r1, sp
   28710:	78ca      	ldrb	r2, [r1, #3]
   28712:	ab10      	add	r3, sp, #64	@ 0x40
   28714:	709a      	strb	r2, [r3, #2]
   28716:	784a      	ldrb	r2, [r1, #1]
   28718:	788c      	ldrb	r4, [r1, #2]
   2871a:	0224      	lsls	r4, r4, #8
   2871c:	18a2      	adds	r2, r4, r2
   2871e:	801a      	strh	r2, [r3, #0]
   28720:	3108      	adds	r1, #8
   28722:	6e32      	ldr	r2, [r6, #96]	@ 0x60
   28724:	920f      	str	r2, [sp, #60]	@ 0x3c
   28726:	4ae3      	ldr	r2, [pc, #908]	@ (28ab4 <_start+0xeb4>)
   28728:	446a      	add	r2, sp
   2872a:	c978      	ldmia	r1!, {r3, r4, r5, r6}
   2872c:	c278      	stmia	r2!, {r3, r4, r5, r6}
   2872e:	c978      	ldmia	r1!, {r3, r4, r5, r6}
   28730:	c278      	stmia	r2!, {r3, r4, r5, r6}
   28732:	9e0d      	ldr	r6, [sp, #52]	@ 0x34
   28734:	880b      	ldrh	r3, [r1, #0]
   28736:	8013      	strh	r3, [r2, #0]
   28738:	7889      	ldrb	r1, [r1, #2]
   2873a:	7091      	strb	r1, [r2, #2]
   2873c:	2800      	cmp	r0, #0
   2873e:	d001      	beq.n	28744 <_start+0xb44>
   28740:	f002 fd5f 	bl	2b202 <_start+0x3602>
   28744:	ac5d      	add	r4, sp, #372	@ 0x174
   28746:	990f      	ldr	r1, [sp, #60]	@ 0x3c
   28748:	70e1      	strb	r1, [r4, #3]
   2874a:	9810      	ldr	r0, [sp, #64]	@ 0x40
   2874c:	8020      	strh	r0, [r4, #0]
   2874e:	0e08      	lsrs	r0, r1, #24
   28750:	71a0      	strb	r0, [r4, #6]
   28752:	0c08      	lsrs	r0, r1, #16
   28754:	7160      	strb	r0, [r4, #5]
   28756:	0a08      	lsrs	r0, r1, #8
   28758:	7120      	strb	r0, [r4, #4]
   2875a:	a810      	add	r0, sp, #64	@ 0x40
   2875c:	7880      	ldrb	r0, [r0, #2]
   2875e:	70a0      	strb	r0, [r4, #2]
   28760:	1de0      	adds	r0, r4, #7
   28762:	49f5      	ldr	r1, [pc, #980]	@ (28b38 <_start+0xf38>)
   28764:	4469      	add	r1, sp
   28766:	2223      	movs	r2, #35	@ 0x23
   28768:	f002 ff6f 	bl	2b64a <__aeabi_memcpy>
   2876c:	4df1      	ldr	r5, [pc, #964]	@ (28b34 <_start+0xf34>)
   2876e:	446d      	add	r5, sp
   28770:	4628      	mov	r0, r5
   28772:	4621      	mov	r1, r4
   28774:	f7fa ffca 	bl	2370c <_ZN20complex_dynamic_type3app17h6b50811d245ca515E>
   28778:	782c      	ldrb	r4, [r5, #0]
   2877a:	2c01      	cmp	r4, #1
   2877c:	d102      	bne.n	28784 <_start+0xb84>
   2877e:	6e30      	ldr	r0, [r6, #96]	@ 0x60
   28780:	900f      	str	r0, [sp, #60]	@ 0x3c
   28782:	e011      	b.n	287a8 <_start+0xba8>
   28784:	49eb      	ldr	r1, [pc, #940]	@ (28b34 <_start+0xf34>)
   28786:	4469      	add	r1, sp
   28788:	78c8      	ldrb	r0, [r1, #3]
   2878a:	aa10      	add	r2, sp, #64	@ 0x40
   2878c:	7090      	strb	r0, [r2, #2]
   2878e:	7848      	ldrb	r0, [r1, #1]
   28790:	788b      	ldrb	r3, [r1, #2]
   28792:	021b      	lsls	r3, r3, #8
   28794:	1818      	adds	r0, r3, r0
   28796:	8010      	strh	r0, [r2, #0]
   28798:	6e30      	ldr	r0, [r6, #96]	@ 0x60
   2879a:	900f      	str	r0, [sp, #60]	@ 0x3c
   2879c:	3108      	adds	r1, #8
   2879e:	48e6      	ldr	r0, [pc, #920]	@ (28b38 <_start+0xf38>)
   287a0:	4468      	add	r0, sp
   287a2:	225c      	movs	r2, #92	@ 0x5c
   287a4:	f002 fdf1 	bl	2b38a <__aeabi_memcpy4>
   287a8:	2c00      	cmp	r4, #0
   287aa:	d001      	beq.n	287b0 <_start+0xbb0>
   287ac:	f002 fd29 	bl	2b202 <_start+0x3602>
   287b0:	ac68      	add	r4, sp, #416	@ 0x1a0
   287b2:	990f      	ldr	r1, [sp, #60]	@ 0x3c
   287b4:	70e1      	strb	r1, [r4, #3]
   287b6:	9810      	ldr	r0, [sp, #64]	@ 0x40
   287b8:	8020      	strh	r0, [r4, #0]
   287ba:	0e08      	lsrs	r0, r1, #24
   287bc:	71a0      	strb	r0, [r4, #6]
   287be:	0c08      	lsrs	r0, r1, #16
   287c0:	7160      	strb	r0, [r4, #5]
   287c2:	0a08      	lsrs	r0, r1, #8
   287c4:	7120      	strb	r0, [r4, #4]
   287c6:	a810      	add	r0, sp, #64	@ 0x40
   287c8:	7880      	ldrb	r0, [r0, #2]
   287ca:	70a0      	strb	r0, [r4, #2]
   287cc:	1de0      	adds	r0, r4, #7
   287ce:	49da      	ldr	r1, [pc, #872]	@ (28b38 <_start+0xf38>)
   287d0:	4469      	add	r1, sp
   287d2:	225c      	movs	r2, #92	@ 0x5c
   287d4:	f002 ff39 	bl	2b64a <__aeabi_memcpy>
   287d8:	4dd6      	ldr	r5, [pc, #856]	@ (28b34 <_start+0xf34>)
   287da:	446d      	add	r5, sp
   287dc:	4628      	mov	r0, r5
   287de:	4621      	mov	r1, r4
   287e0:	f7fd f838 	bl	25854 <_ZN20complex_dynamic_type3app17haf07e3932ad70628E>
   287e4:	7828      	ldrb	r0, [r5, #0]
   287e6:	2801      	cmp	r0, #1
   287e8:	d102      	bne.n	287f0 <_start+0xbf0>
   287ea:	6e31      	ldr	r1, [r6, #96]	@ 0x60
   287ec:	910f      	str	r1, [sp, #60]	@ 0x3c
   287ee:	e013      	b.n	28818 <_start+0xc18>
   287f0:	49d0      	ldr	r1, [pc, #832]	@ (28b34 <_start+0xf34>)
   287f2:	4469      	add	r1, sp
   287f4:	78ca      	ldrb	r2, [r1, #3]
   287f6:	ab10      	add	r3, sp, #64	@ 0x40
   287f8:	709a      	strb	r2, [r3, #2]
   287fa:	784a      	ldrb	r2, [r1, #1]
   287fc:	788c      	ldrb	r4, [r1, #2]
   287fe:	0224      	lsls	r4, r4, #8
   28800:	18a2      	adds	r2, r4, r2
   28802:	801a      	strh	r2, [r3, #0]
   28804:	3108      	adds	r1, #8
   28806:	6e32      	ldr	r2, [r6, #96]	@ 0x60
   28808:	920f      	str	r2, [sp, #60]	@ 0x3c
   2880a:	4acb      	ldr	r2, [pc, #812]	@ (28b38 <_start+0xf38>)
   2880c:	446a      	add	r2, sp
   2880e:	c978      	ldmia	r1!, {r3, r4, r5, r6}
   28810:	c278      	stmia	r2!, {r3, r4, r5, r6}
   28812:	c978      	ldmia	r1!, {r3, r4, r5, r6}
   28814:	c278      	stmia	r2!, {r3, r4, r5, r6}
   28816:	9e0d      	ldr	r6, [sp, #52]	@ 0x34
   28818:	2800      	cmp	r0, #0
   2881a:	d001      	beq.n	28820 <_start+0xc20>
   2881c:	f002 fcf1 	bl	2b202 <_start+0x3602>
   28820:	ac81      	add	r4, sp, #516	@ 0x204
   28822:	990f      	ldr	r1, [sp, #60]	@ 0x3c
   28824:	70e1      	strb	r1, [r4, #3]
   28826:	9810      	ldr	r0, [sp, #64]	@ 0x40
   28828:	8020      	strh	r0, [r4, #0]
   2882a:	0e08      	lsrs	r0, r1, #24
   2882c:	71a0      	strb	r0, [r4, #6]
   2882e:	0c08      	lsrs	r0, r1, #16
   28830:	7160      	strb	r0, [r4, #5]
   28832:	0a08      	lsrs	r0, r1, #8
   28834:	7120      	strb	r0, [r4, #4]
   28836:	a810      	add	r0, sp, #64	@ 0x40
   28838:	7880      	ldrb	r0, [r0, #2]
   2883a:	70a0      	strb	r0, [r4, #2]
   2883c:	1de0      	adds	r0, r4, #7
   2883e:	49be      	ldr	r1, [pc, #760]	@ (28b38 <_start+0xf38>)
   28840:	4469      	add	r1, sp
   28842:	2220      	movs	r2, #32
   28844:	f002 ff01 	bl	2b64a <__aeabi_memcpy>
   28848:	4dba      	ldr	r5, [pc, #744]	@ (28b34 <_start+0xf34>)
   2884a:	446d      	add	r5, sp
   2884c:	4628      	mov	r0, r5
   2884e:	4621      	mov	r1, r4
   28850:	f7fd fa64 	bl	25d1c <_ZN20complex_dynamic_type3app17hbcd5d4564ea8f10aE>
   28854:	7828      	ldrb	r0, [r5, #0]
   28856:	2801      	cmp	r0, #1
   28858:	d102      	bne.n	28860 <_start+0xc60>
   2885a:	6e31      	ldr	r1, [r6, #96]	@ 0x60
   2885c:	910f      	str	r1, [sp, #60]	@ 0x3c
   2885e:	e016      	b.n	2888e <_start+0xc8e>
   28860:	49b4      	ldr	r1, [pc, #720]	@ (28b34 <_start+0xf34>)
   28862:	4469      	add	r1, sp
   28864:	78ca      	ldrb	r2, [r1, #3]
   28866:	ab10      	add	r3, sp, #64	@ 0x40
   28868:	709a      	strb	r2, [r3, #2]
   2886a:	784a      	ldrb	r2, [r1, #1]
   2886c:	788c      	ldrb	r4, [r1, #2]
   2886e:	0224      	lsls	r4, r4, #8
   28870:	18a2      	adds	r2, r4, r2
   28872:	801a      	strh	r2, [r3, #0]
   28874:	3108      	adds	r1, #8
   28876:	6e32      	ldr	r2, [r6, #96]	@ 0x60
   28878:	920f      	str	r2, [sp, #60]	@ 0x3c
   2887a:	4aaf      	ldr	r2, [pc, #700]	@ (28b38 <_start+0xf38>)
   2887c:	446a      	add	r2, sp
   2887e:	c918      	ldmia	r1!, {r3, r4}
   28880:	c218      	stmia	r2!, {r3, r4}
   28882:	c938      	ldmia	r1!, {r3, r4, r5}
   28884:	c238      	stmia	r2!, {r3, r4, r5}
   28886:	880b      	ldrh	r3, [r1, #0]
   28888:	8013      	strh	r3, [r2, #0]
   2888a:	7889      	ldrb	r1, [r1, #2]
   2888c:	7091      	strb	r1, [r2, #2]
   2888e:	2800      	cmp	r0, #0
   28890:	d001      	beq.n	28896 <_start+0xc96>
   28892:	f002 fcb6 	bl	2b202 <_start+0x3602>
   28896:	ac8b      	add	r4, sp, #556	@ 0x22c
   28898:	990f      	ldr	r1, [sp, #60]	@ 0x3c
   2889a:	70e1      	strb	r1, [r4, #3]
   2889c:	9810      	ldr	r0, [sp, #64]	@ 0x40
   2889e:	8020      	strh	r0, [r4, #0]
   288a0:	0e08      	lsrs	r0, r1, #24
   288a2:	71a0      	strb	r0, [r4, #6]
   288a4:	0c08      	lsrs	r0, r1, #16
   288a6:	7160      	strb	r0, [r4, #5]
   288a8:	0a08      	lsrs	r0, r1, #8
   288aa:	7120      	strb	r0, [r4, #4]
   288ac:	a810      	add	r0, sp, #64	@ 0x40
   288ae:	7880      	ldrb	r0, [r0, #2]
   288b0:	70a0      	strb	r0, [r4, #2]
   288b2:	1de0      	adds	r0, r4, #7
   288b4:	49a0      	ldr	r1, [pc, #640]	@ (28b38 <_start+0xf38>)
   288b6:	4469      	add	r1, sp
   288b8:	2217      	movs	r2, #23
   288ba:	f002 fec6 	bl	2b64a <__aeabi_memcpy>
   288be:	4d9d      	ldr	r5, [pc, #628]	@ (28b34 <_start+0xf34>)
   288c0:	446d      	add	r5, sp
   288c2:	4628      	mov	r0, r5
   288c4:	4621      	mov	r1, r4
   288c6:	f7fe fb15 	bl	26ef4 <_ZN20complex_dynamic_type3app17he8f3f63dc57d7cd7E>
   288ca:	7828      	ldrb	r0, [r5, #0]
   288cc:	2801      	cmp	r0, #1
   288ce:	d102      	bne.n	288d6 <_start+0xcd6>
   288d0:	6e31      	ldr	r1, [r6, #96]	@ 0x60
   288d2:	910f      	str	r1, [sp, #60]	@ 0x3c
   288d4:	e016      	b.n	28904 <_start+0xd04>
   288d6:	4997      	ldr	r1, [pc, #604]	@ (28b34 <_start+0xf34>)
   288d8:	4469      	add	r1, sp
   288da:	78ca      	ldrb	r2, [r1, #3]
   288dc:	ab10      	add	r3, sp, #64	@ 0x40
   288de:	709a      	strb	r2, [r3, #2]
   288e0:	784a      	ldrb	r2, [r1, #1]
   288e2:	788c      	ldrb	r4, [r1, #2]
   288e4:	0224      	lsls	r4, r4, #8
   288e6:	18a2      	adds	r2, r4, r2
   288e8:	801a      	strh	r2, [r3, #0]
   288ea:	3108      	adds	r1, #8
   288ec:	6e32      	ldr	r2, [r6, #96]	@ 0x60
   288ee:	920f      	str	r2, [sp, #60]	@ 0x3c
   288f0:	4a91      	ldr	r2, [pc, #580]	@ (28b38 <_start+0xf38>)
   288f2:	446a      	add	r2, sp
   288f4:	c938      	ldmia	r1!, {r3, r4, r5}
   288f6:	c238      	stmia	r2!, {r3, r4, r5}
   288f8:	c938      	ldmia	r1!, {r3, r4, r5}
   288fa:	c238      	stmia	r2!, {r3, r4, r5}
   288fc:	c938      	ldmia	r1!, {r3, r4, r5}
   288fe:	c238      	stmia	r2!, {r3, r4, r5}
   28900:	7809      	ldrb	r1, [r1, #0]
   28902:	7011      	strb	r1, [r2, #0]
   28904:	2800      	cmp	r0, #0
   28906:	d001      	beq.n	2890c <_start+0xd0c>
   28908:	f002 fc7b 	bl	2b202 <_start+0x3602>
   2890c:	ac93      	add	r4, sp, #588	@ 0x24c
   2890e:	990f      	ldr	r1, [sp, #60]	@ 0x3c
   28910:	70e1      	strb	r1, [r4, #3]
   28912:	9810      	ldr	r0, [sp, #64]	@ 0x40
   28914:	8020      	strh	r0, [r4, #0]
   28916:	0e08      	lsrs	r0, r1, #24
   28918:	71a0      	strb	r0, [r4, #6]
   2891a:	0c08      	lsrs	r0, r1, #16
   2891c:	7160      	strb	r0, [r4, #5]
   2891e:	0a08      	lsrs	r0, r1, #8
   28920:	7120      	strb	r0, [r4, #4]
   28922:	a810      	add	r0, sp, #64	@ 0x40
   28924:	7880      	ldrb	r0, [r0, #2]
   28926:	70a0      	strb	r0, [r4, #2]
   28928:	1de0      	adds	r0, r4, #7
   2892a:	4983      	ldr	r1, [pc, #524]	@ (28b38 <_start+0xf38>)
   2892c:	4469      	add	r1, sp
   2892e:	2225      	movs	r2, #37	@ 0x25
   28930:	f002 fe8b 	bl	2b64a <__aeabi_memcpy>
   28934:	4d7f      	ldr	r5, [pc, #508]	@ (28b34 <_start+0xf34>)
   28936:	446d      	add	r5, sp
   28938:	4628      	mov	r0, r5
   2893a:	4621      	mov	r1, r4
   2893c:	f7fa fe48 	bl	235d0 <_ZN20complex_dynamic_type3app17h6b1ea9566d48d3edE>
   28940:	7828      	ldrb	r0, [r5, #0]
   28942:	2801      	cmp	r0, #1
   28944:	d102      	bne.n	2894c <_start+0xd4c>
   28946:	6e31      	ldr	r1, [r6, #96]	@ 0x60
   28948:	910f      	str	r1, [sp, #60]	@ 0x3c
   2894a:	e014      	b.n	28976 <_start+0xd76>
   2894c:	4979      	ldr	r1, [pc, #484]	@ (28b34 <_start+0xf34>)
   2894e:	4469      	add	r1, sp
   28950:	78ca      	ldrb	r2, [r1, #3]
   28952:	ab10      	add	r3, sp, #64	@ 0x40
   28954:	709a      	strb	r2, [r3, #2]
   28956:	784a      	ldrb	r2, [r1, #1]
   28958:	788c      	ldrb	r4, [r1, #2]
   2895a:	0224      	lsls	r4, r4, #8
   2895c:	18a2      	adds	r2, r4, r2
   2895e:	801a      	strh	r2, [r3, #0]
   28960:	3108      	adds	r1, #8
   28962:	6e32      	ldr	r2, [r6, #96]	@ 0x60
   28964:	920f      	str	r2, [sp, #60]	@ 0x3c
   28966:	4a74      	ldr	r2, [pc, #464]	@ (28b38 <_start+0xf38>)
   28968:	446a      	add	r2, sp
   2896a:	c938      	ldmia	r1!, {r3, r4, r5}
   2896c:	c238      	stmia	r2!, {r3, r4, r5}
   2896e:	c978      	ldmia	r1!, {r3, r4, r5, r6}
   28970:	c278      	stmia	r2!, {r3, r4, r5, r6}
   28972:	8809      	ldrh	r1, [r1, #0]
   28974:	8011      	strh	r1, [r2, #0]
   28976:	2800      	cmp	r0, #0
   28978:	d001      	beq.n	2897e <_start+0xd7e>
   2897a:	f002 fc42 	bl	2b202 <_start+0x3602>
   2897e:	ac9e      	add	r4, sp, #632	@ 0x278
   28980:	990f      	ldr	r1, [sp, #60]	@ 0x3c
   28982:	70e1      	strb	r1, [r4, #3]
   28984:	9810      	ldr	r0, [sp, #64]	@ 0x40
   28986:	8020      	strh	r0, [r4, #0]
   28988:	0e08      	lsrs	r0, r1, #24
   2898a:	71a0      	strb	r0, [r4, #6]
   2898c:	0c08      	lsrs	r0, r1, #16
   2898e:	7160      	strb	r0, [r4, #5]
   28990:	0a08      	lsrs	r0, r1, #8
   28992:	7120      	strb	r0, [r4, #4]
   28994:	a810      	add	r0, sp, #64	@ 0x40
   28996:	7880      	ldrb	r0, [r0, #2]
   28998:	70a0      	strb	r0, [r4, #2]
   2899a:	1de0      	adds	r0, r4, #7
   2899c:	4966      	ldr	r1, [pc, #408]	@ (28b38 <_start+0xf38>)
   2899e:	4469      	add	r1, sp
   289a0:	221e      	movs	r2, #30
   289a2:	f002 fe52 	bl	2b64a <__aeabi_memcpy>
   289a6:	4d63      	ldr	r5, [pc, #396]	@ (28b34 <_start+0xf34>)
   289a8:	446d      	add	r5, sp
   289aa:	4628      	mov	r0, r5
   289ac:	4621      	mov	r1, r4
   289ae:	f7f8 fa79 	bl	20ea4 <_ZN20complex_dynamic_type3app17h0f405cdfb4201c01E>
   289b2:	7828      	ldrb	r0, [r5, #0]
   289b4:	2801      	cmp	r0, #1
   289b6:	d103      	bne.n	289c0 <_start+0xdc0>
   289b8:	990d      	ldr	r1, [sp, #52]	@ 0x34
   289ba:	6e09      	ldr	r1, [r1, #96]	@ 0x60
   289bc:	910f      	str	r1, [sp, #60]	@ 0x3c
   289be:	e013      	b.n	289e8 <_start+0xde8>
   289c0:	495c      	ldr	r1, [pc, #368]	@ (28b34 <_start+0xf34>)
   289c2:	4469      	add	r1, sp
   289c4:	78ca      	ldrb	r2, [r1, #3]
   289c6:	ab10      	add	r3, sp, #64	@ 0x40
   289c8:	709a      	strb	r2, [r3, #2]
   289ca:	784a      	ldrb	r2, [r1, #1]
   289cc:	788c      	ldrb	r4, [r1, #2]
   289ce:	0224      	lsls	r4, r4, #8
   289d0:	18a2      	adds	r2, r4, r2
   289d2:	801a      	strh	r2, [r3, #0]
   289d4:	3108      	adds	r1, #8
   289d6:	9a0d      	ldr	r2, [sp, #52]	@ 0x34
   289d8:	6e12      	ldr	r2, [r2, #96]	@ 0x60
   289da:	920f      	str	r2, [sp, #60]	@ 0x3c
   289dc:	4a56      	ldr	r2, [pc, #344]	@ (28b38 <_start+0xf38>)
   289de:	446a      	add	r2, sp
   289e0:	c978      	ldmia	r1!, {r3, r4, r5, r6}
   289e2:	c278      	stmia	r2!, {r3, r4, r5, r6}
   289e4:	7809      	ldrb	r1, [r1, #0]
   289e6:	7011      	strb	r1, [r2, #0]
   289e8:	2800      	cmp	r0, #0
   289ea:	d001      	beq.n	289f0 <_start+0xdf0>
   289ec:	f002 fc09 	bl	2b202 <_start+0x3602>
   289f0:	aca8      	add	r4, sp, #672	@ 0x2a0
   289f2:	990f      	ldr	r1, [sp, #60]	@ 0x3c
   289f4:	70e1      	strb	r1, [r4, #3]
   289f6:	9810      	ldr	r0, [sp, #64]	@ 0x40
   289f8:	8020      	strh	r0, [r4, #0]
   289fa:	0e08      	lsrs	r0, r1, #24
   289fc:	71a0      	strb	r0, [r4, #6]
   289fe:	0c08      	lsrs	r0, r1, #16
   28a00:	7160      	strb	r0, [r4, #5]
   28a02:	0a08      	lsrs	r0, r1, #8
   28a04:	7120      	strb	r0, [r4, #4]
   28a06:	a810      	add	r0, sp, #64	@ 0x40
   28a08:	7880      	ldrb	r0, [r0, #2]
   28a0a:	70a0      	strb	r0, [r4, #2]
   28a0c:	1de0      	adds	r0, r4, #7
   28a0e:	494a      	ldr	r1, [pc, #296]	@ (28b38 <_start+0xf38>)
   28a10:	4469      	add	r1, sp
   28a12:	2211      	movs	r2, #17
   28a14:	f002 fe19 	bl	2b64a <__aeabi_memcpy>
   28a18:	4d46      	ldr	r5, [pc, #280]	@ (28b34 <_start+0xf34>)
   28a1a:	446d      	add	r5, sp
   28a1c:	4628      	mov	r0, r5
   28a1e:	4621      	mov	r1, r4
   28a20:	f7fd fa14 	bl	25e4c <_ZN20complex_dynamic_type3app17hbe89ea35b15ae176E>
   28a24:	7828      	ldrb	r0, [r5, #0]
   28a26:	2801      	cmp	r0, #1
   28a28:	d103      	bne.n	28a32 <_start+0xe32>
   28a2a:	990d      	ldr	r1, [sp, #52]	@ 0x34
   28a2c:	6e09      	ldr	r1, [r1, #96]	@ 0x60
   28a2e:	910f      	str	r1, [sp, #60]	@ 0x3c
   28a30:	e019      	b.n	28a66 <_start+0xe66>
   28a32:	4940      	ldr	r1, [pc, #256]	@ (28b34 <_start+0xf34>)
   28a34:	4469      	add	r1, sp
   28a36:	78ca      	ldrb	r2, [r1, #3]
   28a38:	ab10      	add	r3, sp, #64	@ 0x40
   28a3a:	709a      	strb	r2, [r3, #2]
   28a3c:	784a      	ldrb	r2, [r1, #1]
   28a3e:	788c      	ldrb	r4, [r1, #2]
   28a40:	0224      	lsls	r4, r4, #8
   28a42:	18a2      	adds	r2, r4, r2
   28a44:	801a      	strh	r2, [r3, #0]
   28a46:	3108      	adds	r1, #8
   28a48:	9a0d      	ldr	r2, [sp, #52]	@ 0x34
   28a4a:	6e12      	ldr	r2, [r2, #96]	@ 0x60
   28a4c:	920f      	str	r2, [sp, #60]	@ 0x3c
   28a4e:	4a3a      	ldr	r2, [pc, #232]	@ (28b38 <_start+0xf38>)
   28a50:	446a      	add	r2, sp
   28a52:	c938      	ldmia	r1!, {r3, r4, r5}
   28a54:	c238      	stmia	r2!, {r3, r4, r5}
   28a56:	c978      	ldmia	r1!, {r3, r4, r5, r6}
   28a58:	c278      	stmia	r2!, {r3, r4, r5, r6}
   28a5a:	c978      	ldmia	r1!, {r3, r4, r5, r6}
   28a5c:	c278      	stmia	r2!, {r3, r4, r5, r6}
   28a5e:	880b      	ldrh	r3, [r1, #0]
   28a60:	8013      	strh	r3, [r2, #0]
   28a62:	7889      	ldrb	r1, [r1, #2]
   28a64:	7091      	strb	r1, [r2, #2]
   28a66:	2800      	cmp	r0, #0
   28a68:	d001      	beq.n	28a6e <_start+0xe6e>
   28a6a:	f002 fbca 	bl	2b202 <_start+0x3602>
   28a6e:	acae      	add	r4, sp, #696	@ 0x2b8
   28a70:	990f      	ldr	r1, [sp, #60]	@ 0x3c
   28a72:	70e1      	strb	r1, [r4, #3]
   28a74:	9810      	ldr	r0, [sp, #64]	@ 0x40
   28a76:	8020      	strh	r0, [r4, #0]
   28a78:	0e08      	lsrs	r0, r1, #24
   28a7a:	71a0      	strb	r0, [r4, #6]
   28a7c:	0c08      	lsrs	r0, r1, #16
   28a7e:	7160      	strb	r0, [r4, #5]
   28a80:	0a08      	lsrs	r0, r1, #8
   28a82:	7120      	strb	r0, [r4, #4]
   28a84:	a810      	add	r0, sp, #64	@ 0x40
   28a86:	7880      	ldrb	r0, [r0, #2]
   28a88:	70a0      	strb	r0, [r4, #2]
   28a8a:	1de0      	adds	r0, r4, #7
   28a8c:	492a      	ldr	r1, [pc, #168]	@ (28b38 <_start+0xf38>)
   28a8e:	4469      	add	r1, sp
   28a90:	222f      	movs	r2, #47	@ 0x2f
   28a92:	f002 fdda 	bl	2b64a <__aeabi_memcpy>
   28a96:	4d27      	ldr	r5, [pc, #156]	@ (28b34 <_start+0xf34>)
   28a98:	446d      	add	r5, sp
   28a9a:	4628      	mov	r0, r5
   28a9c:	4621      	mov	r1, r4
   28a9e:	f7f8 fb35 	bl	2110c <_ZN20complex_dynamic_type3app17h118dfedbb8934398E>
   28aa2:	7828      	ldrb	r0, [r5, #0]
   28aa4:	2801      	cmp	r0, #1
   28aa6:	d107      	bne.n	28ab8 <_start+0xeb8>
   28aa8:	990d      	ldr	r1, [sp, #52]	@ 0x34
   28aaa:	6e09      	ldr	r1, [r1, #96]	@ 0x60
   28aac:	910f      	str	r1, [sp, #60]	@ 0x3c
   28aae:	e01b      	b.n	28ae8 <_start+0xee8>
   28ab0:	00001414 	.word	0x00001414
   28ab4:	000013b8 	.word	0x000013b8
   28ab8:	491e      	ldr	r1, [pc, #120]	@ (28b34 <_start+0xf34>)
   28aba:	4469      	add	r1, sp
   28abc:	78ca      	ldrb	r2, [r1, #3]
   28abe:	ab10      	add	r3, sp, #64	@ 0x40
   28ac0:	709a      	strb	r2, [r3, #2]
   28ac2:	784a      	ldrb	r2, [r1, #1]
   28ac4:	788c      	ldrb	r4, [r1, #2]
   28ac6:	0224      	lsls	r4, r4, #8
   28ac8:	18a2      	adds	r2, r4, r2
   28aca:	801a      	strh	r2, [r3, #0]
   28acc:	3108      	adds	r1, #8
   28ace:	9a0d      	ldr	r2, [sp, #52]	@ 0x34
   28ad0:	6e12      	ldr	r2, [r2, #96]	@ 0x60
   28ad2:	920f      	str	r2, [sp, #60]	@ 0x3c
   28ad4:	4a18      	ldr	r2, [pc, #96]	@ (28b38 <_start+0xf38>)
   28ad6:	446a      	add	r2, sp
   28ad8:	c938      	ldmia	r1!, {r3, r4, r5}
   28ada:	c238      	stmia	r2!, {r3, r4, r5}
   28adc:	c978      	ldmia	r1!, {r3, r4, r5, r6}
   28ade:	c278      	stmia	r2!, {r3, r4, r5, r6}
   28ae0:	c978      	ldmia	r1!, {r3, r4, r5, r6}
   28ae2:	c278      	stmia	r2!, {r3, r4, r5, r6}
   28ae4:	7809      	ldrb	r1, [r1, #0]
   28ae6:	7011      	strb	r1, [r2, #0]
   28ae8:	2800      	cmp	r0, #0
   28aea:	d001      	beq.n	28af0 <_start+0xef0>
   28aec:	f002 fb89 	bl	2b202 <_start+0x3602>
   28af0:	acbc      	add	r4, sp, #752	@ 0x2f0
   28af2:	990f      	ldr	r1, [sp, #60]	@ 0x3c
   28af4:	70e1      	strb	r1, [r4, #3]
   28af6:	9810      	ldr	r0, [sp, #64]	@ 0x40
   28af8:	8020      	strh	r0, [r4, #0]
   28afa:	0e08      	lsrs	r0, r1, #24
   28afc:	71a0      	strb	r0, [r4, #6]
   28afe:	0c08      	lsrs	r0, r1, #16
   28b00:	7160      	strb	r0, [r4, #5]
   28b02:	0a08      	lsrs	r0, r1, #8
   28b04:	7120      	strb	r0, [r4, #4]
   28b06:	a810      	add	r0, sp, #64	@ 0x40
   28b08:	7880      	ldrb	r0, [r0, #2]
   28b0a:	70a0      	strb	r0, [r4, #2]
   28b0c:	1de0      	adds	r0, r4, #7
   28b0e:	490a      	ldr	r1, [pc, #40]	@ (28b38 <_start+0xf38>)
   28b10:	4469      	add	r1, sp
   28b12:	222d      	movs	r2, #45	@ 0x2d
   28b14:	f002 fd99 	bl	2b64a <__aeabi_memcpy>
   28b18:	4d06      	ldr	r5, [pc, #24]	@ (28b34 <_start+0xf34>)
   28b1a:	446d      	add	r5, sp
   28b1c:	4628      	mov	r0, r5
   28b1e:	4621      	mov	r1, r4
   28b20:	f7fd fdbc 	bl	2669c <_ZN20complex_dynamic_type3app17hd6df84068c6378f1E>
   28b24:	7828      	ldrb	r0, [r5, #0]
   28b26:	2801      	cmp	r0, #1
   28b28:	d108      	bne.n	28b3c <_start+0xf3c>
   28b2a:	990d      	ldr	r1, [sp, #52]	@ 0x34
   28b2c:	6e09      	ldr	r1, [r1, #96]	@ 0x60
   28b2e:	910f      	str	r1, [sp, #60]	@ 0x3c
   28b30:	e01e      	b.n	28b70 <_start+0xf70>
   28b32:	46c0      	nop			@ (mov r8, r8)
   28b34:	00001414 	.word	0x00001414
   28b38:	000013b8 	.word	0x000013b8
   28b3c:	49f5      	ldr	r1, [pc, #980]	@ (28f14 <_start+0x1314>)
   28b3e:	4469      	add	r1, sp
   28b40:	78ca      	ldrb	r2, [r1, #3]
   28b42:	ab10      	add	r3, sp, #64	@ 0x40
   28b44:	709a      	strb	r2, [r3, #2]
   28b46:	784a      	ldrb	r2, [r1, #1]
   28b48:	788c      	ldrb	r4, [r1, #2]
   28b4a:	0224      	lsls	r4, r4, #8
   28b4c:	18a2      	adds	r2, r4, r2
   28b4e:	801a      	strh	r2, [r3, #0]
   28b50:	3108      	adds	r1, #8
   28b52:	9a0d      	ldr	r2, [sp, #52]	@ 0x34
   28b54:	6e12      	ldr	r2, [r2, #96]	@ 0x60
   28b56:	920f      	str	r2, [sp, #60]	@ 0x3c
   28b58:	4aef      	ldr	r2, [pc, #956]	@ (28f18 <_start+0x1318>)
   28b5a:	446a      	add	r2, sp
   28b5c:	c938      	ldmia	r1!, {r3, r4, r5}
   28b5e:	c238      	stmia	r2!, {r3, r4, r5}
   28b60:	c938      	ldmia	r1!, {r3, r4, r5}
   28b62:	c238      	stmia	r2!, {r3, r4, r5}
   28b64:	c938      	ldmia	r1!, {r3, r4, r5}
   28b66:	c238      	stmia	r2!, {r3, r4, r5}
   28b68:	880b      	ldrh	r3, [r1, #0]
   28b6a:	8013      	strh	r3, [r2, #0]
   28b6c:	7889      	ldrb	r1, [r1, #2]
   28b6e:	7091      	strb	r1, [r2, #2]
   28b70:	2800      	cmp	r0, #0
   28b72:	d001      	beq.n	28b78 <_start+0xf78>
   28b74:	f002 fb45 	bl	2b202 <_start+0x3602>
   28b78:	acc9      	add	r4, sp, #804	@ 0x324
   28b7a:	990f      	ldr	r1, [sp, #60]	@ 0x3c
   28b7c:	70e1      	strb	r1, [r4, #3]
   28b7e:	9810      	ldr	r0, [sp, #64]	@ 0x40
   28b80:	8020      	strh	r0, [r4, #0]
   28b82:	0e08      	lsrs	r0, r1, #24
   28b84:	71a0      	strb	r0, [r4, #6]
   28b86:	0c08      	lsrs	r0, r1, #16
   28b88:	7160      	strb	r0, [r4, #5]
   28b8a:	0a08      	lsrs	r0, r1, #8
   28b8c:	7120      	strb	r0, [r4, #4]
   28b8e:	a810      	add	r0, sp, #64	@ 0x40
   28b90:	7880      	ldrb	r0, [r0, #2]
   28b92:	70a0      	strb	r0, [r4, #2]
   28b94:	1de0      	adds	r0, r4, #7
   28b96:	49e0      	ldr	r1, [pc, #896]	@ (28f18 <_start+0x1318>)
   28b98:	4469      	add	r1, sp
   28b9a:	2227      	movs	r2, #39	@ 0x27
   28b9c:	f002 fd55 	bl	2b64a <__aeabi_memcpy>
   28ba0:	4ddc      	ldr	r5, [pc, #880]	@ (28f14 <_start+0x1314>)
   28ba2:	446d      	add	r5, sp
   28ba4:	4628      	mov	r0, r5
   28ba6:	4621      	mov	r1, r4
   28ba8:	f7f9 ffc0 	bl	22b2c <_ZN20complex_dynamic_type3app17h4126cb70ef422f19E>
   28bac:	7828      	ldrb	r0, [r5, #0]
   28bae:	2801      	cmp	r0, #1
   28bb0:	d103      	bne.n	28bba <_start+0xfba>
   28bb2:	990d      	ldr	r1, [sp, #52]	@ 0x34
   28bb4:	6e09      	ldr	r1, [r1, #96]	@ 0x60
   28bb6:	910f      	str	r1, [sp, #60]	@ 0x3c
   28bb8:	e017      	b.n	28bea <_start+0xfea>
   28bba:	49d6      	ldr	r1, [pc, #856]	@ (28f14 <_start+0x1314>)
   28bbc:	4469      	add	r1, sp
   28bbe:	78ca      	ldrb	r2, [r1, #3]
   28bc0:	ab10      	add	r3, sp, #64	@ 0x40
   28bc2:	709a      	strb	r2, [r3, #2]
   28bc4:	784a      	ldrb	r2, [r1, #1]
   28bc6:	788c      	ldrb	r4, [r1, #2]
   28bc8:	0224      	lsls	r4, r4, #8
   28bca:	18a2      	adds	r2, r4, r2
   28bcc:	801a      	strh	r2, [r3, #0]
   28bce:	3108      	adds	r1, #8
   28bd0:	9a0d      	ldr	r2, [sp, #52]	@ 0x34
   28bd2:	6e12      	ldr	r2, [r2, #96]	@ 0x60
   28bd4:	920f      	str	r2, [sp, #60]	@ 0x3c
   28bd6:	4ad0      	ldr	r2, [pc, #832]	@ (28f18 <_start+0x1318>)
   28bd8:	446a      	add	r2, sp
   28bda:	c978      	ldmia	r1!, {r3, r4, r5, r6}
   28bdc:	c278      	stmia	r2!, {r3, r4, r5, r6}
   28bde:	c978      	ldmia	r1!, {r3, r4, r5, r6}
   28be0:	c278      	stmia	r2!, {r3, r4, r5, r6}
   28be2:	c978      	ldmia	r1!, {r3, r4, r5, r6}
   28be4:	c278      	stmia	r2!, {r3, r4, r5, r6}
   28be6:	7809      	ldrb	r1, [r1, #0]
   28be8:	7011      	strb	r1, [r2, #0]
   28bea:	2800      	cmp	r0, #0
   28bec:	d001      	beq.n	28bf2 <_start+0xff2>
   28bee:	f002 fb08 	bl	2b202 <_start+0x3602>
   28bf2:	acd5      	add	r4, sp, #852	@ 0x354
   28bf4:	990f      	ldr	r1, [sp, #60]	@ 0x3c
   28bf6:	70e1      	strb	r1, [r4, #3]
   28bf8:	9810      	ldr	r0, [sp, #64]	@ 0x40
   28bfa:	8020      	strh	r0, [r4, #0]
   28bfc:	0e08      	lsrs	r0, r1, #24
   28bfe:	71a0      	strb	r0, [r4, #6]
   28c00:	0c08      	lsrs	r0, r1, #16
   28c02:	7160      	strb	r0, [r4, #5]
   28c04:	0a08      	lsrs	r0, r1, #8
   28c06:	7120      	strb	r0, [r4, #4]
   28c08:	a810      	add	r0, sp, #64	@ 0x40
   28c0a:	7880      	ldrb	r0, [r0, #2]
   28c0c:	70a0      	strb	r0, [r4, #2]
   28c0e:	1de0      	adds	r0, r4, #7
   28c10:	49c1      	ldr	r1, [pc, #772]	@ (28f18 <_start+0x1318>)
   28c12:	4469      	add	r1, sp
   28c14:	2231      	movs	r2, #49	@ 0x31
   28c16:	f002 fd18 	bl	2b64a <__aeabi_memcpy>
   28c1a:	4dbe      	ldr	r5, [pc, #760]	@ (28f14 <_start+0x1314>)
   28c1c:	446d      	add	r5, sp
   28c1e:	4628      	mov	r0, r5
   28c20:	4621      	mov	r1, r4
   28c22:	f7fc fc51 	bl	254c8 <_ZN20complex_dynamic_type3app17ha5da907fd440902cE>
   28c26:	7828      	ldrb	r0, [r5, #0]
   28c28:	2801      	cmp	r0, #1
   28c2a:	d103      	bne.n	28c34 <_start+0x1034>
   28c2c:	990d      	ldr	r1, [sp, #52]	@ 0x34
   28c2e:	6e09      	ldr	r1, [r1, #96]	@ 0x60
   28c30:	910f      	str	r1, [sp, #60]	@ 0x3c
   28c32:	e017      	b.n	28c64 <_start+0x1064>
   28c34:	49b7      	ldr	r1, [pc, #732]	@ (28f14 <_start+0x1314>)
   28c36:	4469      	add	r1, sp
   28c38:	78ca      	ldrb	r2, [r1, #3]
   28c3a:	ab10      	add	r3, sp, #64	@ 0x40
   28c3c:	709a      	strb	r2, [r3, #2]
   28c3e:	784a      	ldrb	r2, [r1, #1]
   28c40:	788c      	ldrb	r4, [r1, #2]
   28c42:	0224      	lsls	r4, r4, #8
   28c44:	18a2      	adds	r2, r4, r2
   28c46:	801a      	strh	r2, [r3, #0]
   28c48:	3108      	adds	r1, #8
   28c4a:	9a0d      	ldr	r2, [sp, #52]	@ 0x34
   28c4c:	6e12      	ldr	r2, [r2, #96]	@ 0x60
   28c4e:	920f      	str	r2, [sp, #60]	@ 0x3c
   28c50:	4ab1      	ldr	r2, [pc, #708]	@ (28f18 <_start+0x1318>)
   28c52:	446a      	add	r2, sp
   28c54:	c938      	ldmia	r1!, {r3, r4, r5}
   28c56:	c238      	stmia	r2!, {r3, r4, r5}
   28c58:	c978      	ldmia	r1!, {r3, r4, r5, r6}
   28c5a:	c278      	stmia	r2!, {r3, r4, r5, r6}
   28c5c:	c978      	ldmia	r1!, {r3, r4, r5, r6}
   28c5e:	c278      	stmia	r2!, {r3, r4, r5, r6}
   28c60:	7809      	ldrb	r1, [r1, #0]
   28c62:	7011      	strb	r1, [r2, #0]
   28c64:	2800      	cmp	r0, #0
   28c66:	d001      	beq.n	28c6c <_start+0x106c>
   28c68:	f002 facb 	bl	2b202 <_start+0x3602>
   28c6c:	ace3      	add	r4, sp, #908	@ 0x38c
   28c6e:	990f      	ldr	r1, [sp, #60]	@ 0x3c
   28c70:	70e1      	strb	r1, [r4, #3]
   28c72:	9810      	ldr	r0, [sp, #64]	@ 0x40
   28c74:	8020      	strh	r0, [r4, #0]
   28c76:	0e08      	lsrs	r0, r1, #24
   28c78:	71a0      	strb	r0, [r4, #6]
   28c7a:	0c08      	lsrs	r0, r1, #16
   28c7c:	7160      	strb	r0, [r4, #5]
   28c7e:	0a08      	lsrs	r0, r1, #8
   28c80:	7120      	strb	r0, [r4, #4]
   28c82:	a810      	add	r0, sp, #64	@ 0x40
   28c84:	7880      	ldrb	r0, [r0, #2]
   28c86:	70a0      	strb	r0, [r4, #2]
   28c88:	1de0      	adds	r0, r4, #7
   28c8a:	49a3      	ldr	r1, [pc, #652]	@ (28f18 <_start+0x1318>)
   28c8c:	4469      	add	r1, sp
   28c8e:	222d      	movs	r2, #45	@ 0x2d
   28c90:	f002 fcdb 	bl	2b64a <__aeabi_memcpy>
   28c94:	4d9f      	ldr	r5, [pc, #636]	@ (28f14 <_start+0x1314>)
   28c96:	446d      	add	r5, sp
   28c98:	4628      	mov	r0, r5
   28c9a:	4621      	mov	r1, r4
   28c9c:	f7fc fae6 	bl	2526c <_ZN20complex_dynamic_type3app17ha3b11aefc1594aefE>
   28ca0:	7828      	ldrb	r0, [r5, #0]
   28ca2:	2801      	cmp	r0, #1
   28ca4:	d103      	bne.n	28cae <_start+0x10ae>
   28ca6:	990d      	ldr	r1, [sp, #52]	@ 0x34
   28ca8:	6e09      	ldr	r1, [r1, #96]	@ 0x60
   28caa:	910f      	str	r1, [sp, #60]	@ 0x3c
   28cac:	e015      	b.n	28cda <_start+0x10da>
   28cae:	4999      	ldr	r1, [pc, #612]	@ (28f14 <_start+0x1314>)
   28cb0:	4469      	add	r1, sp
   28cb2:	78ca      	ldrb	r2, [r1, #3]
   28cb4:	ab10      	add	r3, sp, #64	@ 0x40
   28cb6:	709a      	strb	r2, [r3, #2]
   28cb8:	784a      	ldrb	r2, [r1, #1]
   28cba:	788c      	ldrb	r4, [r1, #2]
   28cbc:	0224      	lsls	r4, r4, #8
   28cbe:	18a2      	adds	r2, r4, r2
   28cc0:	801a      	strh	r2, [r3, #0]
   28cc2:	3108      	adds	r1, #8
   28cc4:	9a0d      	ldr	r2, [sp, #52]	@ 0x34
   28cc6:	6e12      	ldr	r2, [r2, #96]	@ 0x60
   28cc8:	920f      	str	r2, [sp, #60]	@ 0x3c
   28cca:	4a93      	ldr	r2, [pc, #588]	@ (28f18 <_start+0x1318>)
   28ccc:	446a      	add	r2, sp
   28cce:	c978      	ldmia	r1!, {r3, r4, r5, r6}
   28cd0:	c278      	stmia	r2!, {r3, r4, r5, r6}
   28cd2:	880b      	ldrh	r3, [r1, #0]
   28cd4:	8013      	strh	r3, [r2, #0]
   28cd6:	7889      	ldrb	r1, [r1, #2]
   28cd8:	7091      	strb	r1, [r2, #2]
   28cda:	2800      	cmp	r0, #0
   28cdc:	d001      	beq.n	28ce2 <_start+0x10e2>
   28cde:	f002 fa90 	bl	2b202 <_start+0x3602>
   28ce2:	acf0      	add	r4, sp, #960	@ 0x3c0
   28ce4:	990f      	ldr	r1, [sp, #60]	@ 0x3c
   28ce6:	70e1      	strb	r1, [r4, #3]
   28ce8:	9810      	ldr	r0, [sp, #64]	@ 0x40
   28cea:	8020      	strh	r0, [r4, #0]
   28cec:	0e08      	lsrs	r0, r1, #24
   28cee:	71a0      	strb	r0, [r4, #6]
   28cf0:	0c08      	lsrs	r0, r1, #16
   28cf2:	7160      	strb	r0, [r4, #5]
   28cf4:	0a08      	lsrs	r0, r1, #8
   28cf6:	7120      	strb	r0, [r4, #4]
   28cf8:	a810      	add	r0, sp, #64	@ 0x40
   28cfa:	7880      	ldrb	r0, [r0, #2]
   28cfc:	70a0      	strb	r0, [r4, #2]
   28cfe:	1de0      	adds	r0, r4, #7
   28d00:	4985      	ldr	r1, [pc, #532]	@ (28f18 <_start+0x1318>)
   28d02:	4469      	add	r1, sp
   28d04:	2213      	movs	r2, #19
   28d06:	f002 fca0 	bl	2b64a <__aeabi_memcpy>
   28d0a:	4d82      	ldr	r5, [pc, #520]	@ (28f14 <_start+0x1314>)
   28d0c:	446d      	add	r5, sp
   28d0e:	4628      	mov	r0, r5
   28d10:	4621      	mov	r1, r4
   28d12:	f7fb f9bf 	bl	24094 <_ZN20complex_dynamic_type3app17h7a2942304ae837acE>
   28d16:	782c      	ldrb	r4, [r5, #0]
   28d18:	2c01      	cmp	r4, #1
   28d1a:	d103      	bne.n	28d24 <_start+0x1124>
   28d1c:	980d      	ldr	r0, [sp, #52]	@ 0x34
   28d1e:	6e00      	ldr	r0, [r0, #96]	@ 0x60
   28d20:	900f      	str	r0, [sp, #60]	@ 0x3c
   28d22:	e012      	b.n	28d4a <_start+0x114a>
   28d24:	497b      	ldr	r1, [pc, #492]	@ (28f14 <_start+0x1314>)
   28d26:	4469      	add	r1, sp
   28d28:	78c8      	ldrb	r0, [r1, #3]
   28d2a:	aa10      	add	r2, sp, #64	@ 0x40
   28d2c:	7090      	strb	r0, [r2, #2]
   28d2e:	7848      	ldrb	r0, [r1, #1]
   28d30:	788b      	ldrb	r3, [r1, #2]
   28d32:	021b      	lsls	r3, r3, #8
   28d34:	1818      	adds	r0, r3, r0
   28d36:	8010      	strh	r0, [r2, #0]
   28d38:	980d      	ldr	r0, [sp, #52]	@ 0x34
   28d3a:	6e00      	ldr	r0, [r0, #96]	@ 0x60
   28d3c:	900f      	str	r0, [sp, #60]	@ 0x3c
   28d3e:	3108      	adds	r1, #8
   28d40:	4875      	ldr	r0, [pc, #468]	@ (28f18 <_start+0x1318>)
   28d42:	4468      	add	r0, sp
   28d44:	2249      	movs	r2, #73	@ 0x49
   28d46:	f002 fb20 	bl	2b38a <__aeabi_memcpy4>
   28d4a:	2c00      	cmp	r4, #0
   28d4c:	d001      	beq.n	28d52 <_start+0x1152>
   28d4e:	f002 fa58 	bl	2b202 <_start+0x3602>
   28d52:	acf7      	add	r4, sp, #988	@ 0x3dc
   28d54:	990f      	ldr	r1, [sp, #60]	@ 0x3c
   28d56:	70e1      	strb	r1, [r4, #3]
   28d58:	9810      	ldr	r0, [sp, #64]	@ 0x40
   28d5a:	8020      	strh	r0, [r4, #0]
   28d5c:	0e08      	lsrs	r0, r1, #24
   28d5e:	71a0      	strb	r0, [r4, #6]
   28d60:	0c08      	lsrs	r0, r1, #16
   28d62:	7160      	strb	r0, [r4, #5]
   28d64:	0a08      	lsrs	r0, r1, #8
   28d66:	7120      	strb	r0, [r4, #4]
   28d68:	a810      	add	r0, sp, #64	@ 0x40
   28d6a:	7880      	ldrb	r0, [r0, #2]
   28d6c:	70a0      	strb	r0, [r4, #2]
   28d6e:	1de0      	adds	r0, r4, #7
   28d70:	4969      	ldr	r1, [pc, #420]	@ (28f18 <_start+0x1318>)
   28d72:	4469      	add	r1, sp
   28d74:	2249      	movs	r2, #73	@ 0x49
   28d76:	f002 fc68 	bl	2b64a <__aeabi_memcpy>
   28d7a:	4d66      	ldr	r5, [pc, #408]	@ (28f14 <_start+0x1314>)
   28d7c:	446d      	add	r5, sp
   28d7e:	4628      	mov	r0, r5
   28d80:	4621      	mov	r1, r4
   28d82:	f7fa fdf1 	bl	23968 <_ZN20complex_dynamic_type3app17h70ad632becce09b3E>
   28d86:	7828      	ldrb	r0, [r5, #0]
   28d88:	2801      	cmp	r0, #1
   28d8a:	d103      	bne.n	28d94 <_start+0x1194>
   28d8c:	990d      	ldr	r1, [sp, #52]	@ 0x34
   28d8e:	6e09      	ldr	r1, [r1, #96]	@ 0x60
   28d90:	910f      	str	r1, [sp, #60]	@ 0x3c
   28d92:	e019      	b.n	28dc8 <_start+0x11c8>
   28d94:	495f      	ldr	r1, [pc, #380]	@ (28f14 <_start+0x1314>)
   28d96:	4469      	add	r1, sp
   28d98:	78ca      	ldrb	r2, [r1, #3]
   28d9a:	ab10      	add	r3, sp, #64	@ 0x40
   28d9c:	709a      	strb	r2, [r3, #2]
   28d9e:	784a      	ldrb	r2, [r1, #1]
   28da0:	788c      	ldrb	r4, [r1, #2]
   28da2:	0224      	lsls	r4, r4, #8
   28da4:	18a2      	adds	r2, r4, r2
   28da6:	801a      	strh	r2, [r3, #0]
   28da8:	3108      	adds	r1, #8
   28daa:	9a0d      	ldr	r2, [sp, #52]	@ 0x34
   28dac:	6e12      	ldr	r2, [r2, #96]	@ 0x60
   28dae:	920f      	str	r2, [sp, #60]	@ 0x3c
   28db0:	4a59      	ldr	r2, [pc, #356]	@ (28f18 <_start+0x1318>)
   28db2:	446a      	add	r2, sp
   28db4:	c938      	ldmia	r1!, {r3, r4, r5}
   28db6:	c238      	stmia	r2!, {r3, r4, r5}
   28db8:	c938      	ldmia	r1!, {r3, r4, r5}
   28dba:	c238      	stmia	r2!, {r3, r4, r5}
   28dbc:	c938      	ldmia	r1!, {r3, r4, r5}
   28dbe:	c238      	stmia	r2!, {r3, r4, r5}
   28dc0:	c978      	ldmia	r1!, {r3, r4, r5, r6}
   28dc2:	c278      	stmia	r2!, {r3, r4, r5, r6}
   28dc4:	7809      	ldrb	r1, [r1, #0]
   28dc6:	7011      	strb	r1, [r2, #0]
   28dc8:	2800      	cmp	r0, #0
   28dca:	d001      	beq.n	28dd0 <_start+0x11d0>
   28dcc:	f002 fa19 	bl	2b202 <_start+0x3602>
   28dd0:	acff      	add	r4, sp, #1020	@ 0x3fc
   28dd2:	3430      	adds	r4, #48	@ 0x30
   28dd4:	990f      	ldr	r1, [sp, #60]	@ 0x3c
   28dd6:	70e1      	strb	r1, [r4, #3]
   28dd8:	9810      	ldr	r0, [sp, #64]	@ 0x40
   28dda:	8020      	strh	r0, [r4, #0]
   28ddc:	0e08      	lsrs	r0, r1, #24
   28dde:	71a0      	strb	r0, [r4, #6]
   28de0:	0c08      	lsrs	r0, r1, #16
   28de2:	7160      	strb	r0, [r4, #5]
   28de4:	0a08      	lsrs	r0, r1, #8
   28de6:	7120      	strb	r0, [r4, #4]
   28de8:	a810      	add	r0, sp, #64	@ 0x40
   28dea:	7880      	ldrb	r0, [r0, #2]
   28dec:	70a0      	strb	r0, [r4, #2]
   28dee:	1de0      	adds	r0, r4, #7
   28df0:	4949      	ldr	r1, [pc, #292]	@ (28f18 <_start+0x1318>)
   28df2:	4469      	add	r1, sp
   28df4:	2235      	movs	r2, #53	@ 0x35
   28df6:	f002 fc28 	bl	2b64a <__aeabi_memcpy>
   28dfa:	4d46      	ldr	r5, [pc, #280]	@ (28f14 <_start+0x1314>)
   28dfc:	446d      	add	r5, sp
   28dfe:	4628      	mov	r0, r5
   28e00:	4621      	mov	r1, r4
   28e02:	f7fe fb71 	bl	274e8 <_ZN20complex_dynamic_type3app17hf1c64e3a3d97ec09E>
   28e06:	7828      	ldrb	r0, [r5, #0]
   28e08:	2801      	cmp	r0, #1
   28e0a:	d103      	bne.n	28e14 <_start+0x1214>
   28e0c:	990d      	ldr	r1, [sp, #52]	@ 0x34
   28e0e:	6e09      	ldr	r1, [r1, #96]	@ 0x60
   28e10:	910f      	str	r1, [sp, #60]	@ 0x3c
   28e12:	e019      	b.n	28e48 <_start+0x1248>
   28e14:	493f      	ldr	r1, [pc, #252]	@ (28f14 <_start+0x1314>)
   28e16:	4469      	add	r1, sp
   28e18:	78ca      	ldrb	r2, [r1, #3]
   28e1a:	ab10      	add	r3, sp, #64	@ 0x40
   28e1c:	709a      	strb	r2, [r3, #2]
   28e1e:	784a      	ldrb	r2, [r1, #1]
   28e20:	788c      	ldrb	r4, [r1, #2]
   28e22:	0224      	lsls	r4, r4, #8
   28e24:	18a2      	adds	r2, r4, r2
   28e26:	801a      	strh	r2, [r3, #0]
   28e28:	3108      	adds	r1, #8
   28e2a:	9a0d      	ldr	r2, [sp, #52]	@ 0x34
   28e2c:	6e12      	ldr	r2, [r2, #96]	@ 0x60
   28e2e:	920f      	str	r2, [sp, #60]	@ 0x3c
   28e30:	4a39      	ldr	r2, [pc, #228]	@ (28f18 <_start+0x1318>)
   28e32:	446a      	add	r2, sp
   28e34:	c938      	ldmia	r1!, {r3, r4, r5}
   28e36:	c238      	stmia	r2!, {r3, r4, r5}
   28e38:	c938      	ldmia	r1!, {r3, r4, r5}
   28e3a:	c238      	stmia	r2!, {r3, r4, r5}
   28e3c:	c978      	ldmia	r1!, {r3, r4, r5, r6}
   28e3e:	c278      	stmia	r2!, {r3, r4, r5, r6}
   28e40:	880b      	ldrh	r3, [r1, #0]
   28e42:	8013      	strh	r3, [r2, #0]
   28e44:	7889      	ldrb	r1, [r1, #2]
   28e46:	7091      	strb	r1, [r2, #2]
   28e48:	2800      	cmp	r0, #0
   28e4a:	d001      	beq.n	28e50 <_start+0x1250>
   28e4c:	f002 f9d9 	bl	2b202 <_start+0x3602>
   28e50:	acff      	add	r4, sp, #1020	@ 0x3fc
   28e52:	346c      	adds	r4, #108	@ 0x6c
   28e54:	990f      	ldr	r1, [sp, #60]	@ 0x3c
   28e56:	70e1      	strb	r1, [r4, #3]
   28e58:	9810      	ldr	r0, [sp, #64]	@ 0x40
   28e5a:	8020      	strh	r0, [r4, #0]
   28e5c:	0e08      	lsrs	r0, r1, #24
   28e5e:	71a0      	strb	r0, [r4, #6]
   28e60:	0c08      	lsrs	r0, r1, #16
   28e62:	7160      	strb	r0, [r4, #5]
   28e64:	0a08      	lsrs	r0, r1, #8
   28e66:	7120      	strb	r0, [r4, #4]
   28e68:	a810      	add	r0, sp, #64	@ 0x40
   28e6a:	7880      	ldrb	r0, [r0, #2]
   28e6c:	70a0      	strb	r0, [r4, #2]
   28e6e:	1de0      	adds	r0, r4, #7
   28e70:	4929      	ldr	r1, [pc, #164]	@ (28f18 <_start+0x1318>)
   28e72:	4469      	add	r1, sp
   28e74:	222b      	movs	r2, #43	@ 0x2b
   28e76:	f002 fbe8 	bl	2b64a <__aeabi_memcpy>
   28e7a:	4d26      	ldr	r5, [pc, #152]	@ (28f14 <_start+0x1314>)
   28e7c:	446d      	add	r5, sp
   28e7e:	4628      	mov	r0, r5
   28e80:	4621      	mov	r1, r4
   28e82:	f7fd f877 	bl	25f74 <_ZN20complex_dynamic_type3app17hbff0e8e1cb39e66cE>
   28e86:	7828      	ldrb	r0, [r5, #0]
   28e88:	2801      	cmp	r0, #1
   28e8a:	d103      	bne.n	28e94 <_start+0x1294>
   28e8c:	990d      	ldr	r1, [sp, #52]	@ 0x34
   28e8e:	6e09      	ldr	r1, [r1, #96]	@ 0x60
   28e90:	910f      	str	r1, [sp, #60]	@ 0x3c
   28e92:	e019      	b.n	28ec8 <_start+0x12c8>
   28e94:	491f      	ldr	r1, [pc, #124]	@ (28f14 <_start+0x1314>)
   28e96:	4469      	add	r1, sp
   28e98:	78ca      	ldrb	r2, [r1, #3]
   28e9a:	ab10      	add	r3, sp, #64	@ 0x40
   28e9c:	709a      	strb	r2, [r3, #2]
   28e9e:	784a      	ldrb	r2, [r1, #1]
   28ea0:	788c      	ldrb	r4, [r1, #2]
   28ea2:	0224      	lsls	r4, r4, #8
   28ea4:	18a2      	adds	r2, r4, r2
   28ea6:	801a      	strh	r2, [r3, #0]
   28ea8:	3108      	adds	r1, #8
   28eaa:	9a0d      	ldr	r2, [sp, #52]	@ 0x34
   28eac:	6e12      	ldr	r2, [r2, #96]	@ 0x60
   28eae:	920f      	str	r2, [sp, #60]	@ 0x3c
   28eb0:	4a19      	ldr	r2, [pc, #100]	@ (28f18 <_start+0x1318>)
   28eb2:	446a      	add	r2, sp
   28eb4:	c938      	ldmia	r1!, {r3, r4, r5}
   28eb6:	c238      	stmia	r2!, {r3, r4, r5}
   28eb8:	c938      	ldmia	r1!, {r3, r4, r5}
   28eba:	c238      	stmia	r2!, {r3, r4, r5}
   28ebc:	c978      	ldmia	r1!, {r3, r4, r5, r6}
   28ebe:	c278      	stmia	r2!, {r3, r4, r5, r6}
   28ec0:	880b      	ldrh	r3, [r1, #0]
   28ec2:	8013      	strh	r3, [r2, #0]
   28ec4:	7889      	ldrb	r1, [r1, #2]
   28ec6:	7091      	strb	r1, [r2, #2]
   28ec8:	2800      	cmp	r0, #0
   28eca:	d001      	beq.n	28ed0 <_start+0x12d0>
   28ecc:	f002 f999 	bl	2b202 <_start+0x3602>
   28ed0:	acff      	add	r4, sp, #1020	@ 0x3fc
   28ed2:	34a0      	adds	r4, #160	@ 0xa0
   28ed4:	990f      	ldr	r1, [sp, #60]	@ 0x3c
   28ed6:	70e1      	strb	r1, [r4, #3]
   28ed8:	9810      	ldr	r0, [sp, #64]	@ 0x40
   28eda:	8020      	strh	r0, [r4, #0]
   28edc:	0e08      	lsrs	r0, r1, #24
   28ede:	71a0      	strb	r0, [r4, #6]
   28ee0:	0c08      	lsrs	r0, r1, #16
   28ee2:	7160      	strb	r0, [r4, #5]
   28ee4:	0a08      	lsrs	r0, r1, #8
   28ee6:	7120      	strb	r0, [r4, #4]
   28ee8:	a810      	add	r0, sp, #64	@ 0x40
   28eea:	7880      	ldrb	r0, [r0, #2]
   28eec:	70a0      	strb	r0, [r4, #2]
   28eee:	1de0      	adds	r0, r4, #7
   28ef0:	4909      	ldr	r1, [pc, #36]	@ (28f18 <_start+0x1318>)
   28ef2:	4469      	add	r1, sp
   28ef4:	222b      	movs	r2, #43	@ 0x2b
   28ef6:	f002 fba8 	bl	2b64a <__aeabi_memcpy>
   28efa:	4d06      	ldr	r5, [pc, #24]	@ (28f14 <_start+0x1314>)
   28efc:	446d      	add	r5, sp
   28efe:	4628      	mov	r0, r5
   28f00:	4621      	mov	r1, r4
   28f02:	f7fb ffe5 	bl	24ed0 <_ZN20complex_dynamic_type3app17h9ed4bf16c74afc28E>
   28f06:	7828      	ldrb	r0, [r5, #0]
   28f08:	2801      	cmp	r0, #1
   28f0a:	d107      	bne.n	28f1c <_start+0x131c>
   28f0c:	990d      	ldr	r1, [sp, #52]	@ 0x34
   28f0e:	6e09      	ldr	r1, [r1, #96]	@ 0x60
   28f10:	e017      	b.n	28f42 <_start+0x1342>
   28f12:	46c0      	nop			@ (mov r8, r8)
   28f14:	00001414 	.word	0x00001414
   28f18:	000013b8 	.word	0x000013b8
   28f1c:	49f4      	ldr	r1, [pc, #976]	@ (292f0 <_start+0x16f0>)
   28f1e:	4469      	add	r1, sp
   28f20:	9c0d      	ldr	r4, [sp, #52]	@ 0x34
   28f22:	6ee2      	ldr	r2, [r4, #108]	@ 0x6c
   28f24:	720a      	strb	r2, [r1, #8]
   28f26:	49f3      	ldr	r1, [pc, #972]	@ (292f4 <_start+0x16f4>)
   28f28:	4469      	add	r1, sp
   28f2a:	78ca      	ldrb	r2, [r1, #3]
   28f2c:	ab10      	add	r3, sp, #64	@ 0x40
   28f2e:	709a      	strb	r2, [r3, #2]
   28f30:	784a      	ldrb	r2, [r1, #1]
   28f32:	7889      	ldrb	r1, [r1, #2]
   28f34:	0209      	lsls	r1, r1, #8
   28f36:	1889      	adds	r1, r1, r2
   28f38:	8019      	strh	r1, [r3, #0]
   28f3a:	6e61      	ldr	r1, [r4, #100]	@ 0x64
   28f3c:	6ea2      	ldr	r2, [r4, #104]	@ 0x68
   28f3e:	c406      	stmia	r4!, {r1, r2}
   28f40:	6da1      	ldr	r1, [r4, #88]	@ 0x58
   28f42:	910f      	str	r1, [sp, #60]	@ 0x3c
   28f44:	2800      	cmp	r0, #0
   28f46:	d001      	beq.n	28f4c <_start+0x134c>
   28f48:	f002 f95b 	bl	2b202 <_start+0x3602>
   28f4c:	acff      	add	r4, sp, #1020	@ 0x3fc
   28f4e:	34d4      	adds	r4, #212	@ 0xd4
   28f50:	990f      	ldr	r1, [sp, #60]	@ 0x3c
   28f52:	70e1      	strb	r1, [r4, #3]
   28f54:	9810      	ldr	r0, [sp, #64]	@ 0x40
   28f56:	8020      	strh	r0, [r4, #0]
   28f58:	0e08      	lsrs	r0, r1, #24
   28f5a:	71a0      	strb	r0, [r4, #6]
   28f5c:	0c08      	lsrs	r0, r1, #16
   28f5e:	7160      	strb	r0, [r4, #5]
   28f60:	0a08      	lsrs	r0, r1, #8
   28f62:	7120      	strb	r0, [r4, #4]
   28f64:	a810      	add	r0, sp, #64	@ 0x40
   28f66:	7880      	ldrb	r0, [r0, #2]
   28f68:	70a0      	strb	r0, [r4, #2]
   28f6a:	1de0      	adds	r0, r4, #7
   28f6c:	49e0      	ldr	r1, [pc, #896]	@ (292f0 <_start+0x16f0>)
   28f6e:	4469      	add	r1, sp
   28f70:	2209      	movs	r2, #9
   28f72:	f002 fb6a 	bl	2b64a <__aeabi_memcpy>
   28f76:	4ddf      	ldr	r5, [pc, #892]	@ (292f4 <_start+0x16f4>)
   28f78:	446d      	add	r5, sp
   28f7a:	4628      	mov	r0, r5
   28f7c:	4621      	mov	r1, r4
   28f7e:	f7fd fe89 	bl	26c94 <_ZN20complex_dynamic_type3app17he5c76f5b720d3a43E>
   28f82:	7828      	ldrb	r0, [r5, #0]
   28f84:	2801      	cmp	r0, #1
   28f86:	d103      	bne.n	28f90 <_start+0x1390>
   28f88:	990d      	ldr	r1, [sp, #52]	@ 0x34
   28f8a:	6e09      	ldr	r1, [r1, #96]	@ 0x60
   28f8c:	910f      	str	r1, [sp, #60]	@ 0x3c
   28f8e:	e019      	b.n	28fc4 <_start+0x13c4>
   28f90:	49d8      	ldr	r1, [pc, #864]	@ (292f4 <_start+0x16f4>)
   28f92:	4469      	add	r1, sp
   28f94:	78ca      	ldrb	r2, [r1, #3]
   28f96:	ab10      	add	r3, sp, #64	@ 0x40
   28f98:	709a      	strb	r2, [r3, #2]
   28f9a:	784a      	ldrb	r2, [r1, #1]
   28f9c:	788c      	ldrb	r4, [r1, #2]
   28f9e:	0224      	lsls	r4, r4, #8
   28fa0:	18a2      	adds	r2, r4, r2
   28fa2:	801a      	strh	r2, [r3, #0]
   28fa4:	3108      	adds	r1, #8
   28fa6:	9a0d      	ldr	r2, [sp, #52]	@ 0x34
   28fa8:	6e12      	ldr	r2, [r2, #96]	@ 0x60
   28faa:	920f      	str	r2, [sp, #60]	@ 0x3c
   28fac:	4ad0      	ldr	r2, [pc, #832]	@ (292f0 <_start+0x16f0>)
   28fae:	446a      	add	r2, sp
   28fb0:	c938      	ldmia	r1!, {r3, r4, r5}
   28fb2:	c238      	stmia	r2!, {r3, r4, r5}
   28fb4:	c978      	ldmia	r1!, {r3, r4, r5, r6}
   28fb6:	c278      	stmia	r2!, {r3, r4, r5, r6}
   28fb8:	c978      	ldmia	r1!, {r3, r4, r5, r6}
   28fba:	c278      	stmia	r2!, {r3, r4, r5, r6}
   28fbc:	880b      	ldrh	r3, [r1, #0]
   28fbe:	8013      	strh	r3, [r2, #0]
   28fc0:	7889      	ldrb	r1, [r1, #2]
   28fc2:	7091      	strb	r1, [r2, #2]
   28fc4:	2800      	cmp	r0, #0
   28fc6:	d001      	beq.n	28fcc <_start+0x13cc>
   28fc8:	f002 f91b 	bl	2b202 <_start+0x3602>
   28fcc:	acff      	add	r4, sp, #1020	@ 0x3fc
   28fce:	34e4      	adds	r4, #228	@ 0xe4
   28fd0:	990f      	ldr	r1, [sp, #60]	@ 0x3c
   28fd2:	70e1      	strb	r1, [r4, #3]
   28fd4:	9810      	ldr	r0, [sp, #64]	@ 0x40
   28fd6:	8020      	strh	r0, [r4, #0]
   28fd8:	0e08      	lsrs	r0, r1, #24
   28fda:	71a0      	strb	r0, [r4, #6]
   28fdc:	0c08      	lsrs	r0, r1, #16
   28fde:	7160      	strb	r0, [r4, #5]
   28fe0:	0a08      	lsrs	r0, r1, #8
   28fe2:	7120      	strb	r0, [r4, #4]
   28fe4:	a810      	add	r0, sp, #64	@ 0x40
   28fe6:	7880      	ldrb	r0, [r0, #2]
   28fe8:	70a0      	strb	r0, [r4, #2]
   28fea:	1de0      	adds	r0, r4, #7
   28fec:	49c0      	ldr	r1, [pc, #768]	@ (292f0 <_start+0x16f0>)
   28fee:	4469      	add	r1, sp
   28ff0:	222f      	movs	r2, #47	@ 0x2f
   28ff2:	f002 fb2a 	bl	2b64a <__aeabi_memcpy>
   28ff6:	4dbf      	ldr	r5, [pc, #764]	@ (292f4 <_start+0x16f4>)
   28ff8:	446d      	add	r5, sp
   28ffa:	4628      	mov	r0, r5
   28ffc:	4621      	mov	r1, r4
   28ffe:	f7fb fd09 	bl	24a14 <_ZN20complex_dynamic_type3app17h96bf8c5c4ddbe9d3E>
   29002:	7829      	ldrb	r1, [r5, #0]
   29004:	2901      	cmp	r1, #1
   29006:	d103      	bne.n	29010 <_start+0x1410>
   29008:	980d      	ldr	r0, [sp, #52]	@ 0x34
   2900a:	6e00      	ldr	r0, [r0, #96]	@ 0x60
   2900c:	900f      	str	r0, [sp, #60]	@ 0x3c
   2900e:	e00f      	b.n	29030 <_start+0x1430>
   29010:	48b8      	ldr	r0, [pc, #736]	@ (292f4 <_start+0x16f4>)
   29012:	4468      	add	r0, sp
   29014:	78c2      	ldrb	r2, [r0, #3]
   29016:	4bb6      	ldr	r3, [pc, #728]	@ (292f0 <_start+0x16f0>)
   29018:	446b      	add	r3, sp
   2901a:	709a      	strb	r2, [r3, #2]
   2901c:	7842      	ldrb	r2, [r0, #1]
   2901e:	7880      	ldrb	r0, [r0, #2]
   29020:	0200      	lsls	r0, r0, #8
   29022:	1880      	adds	r0, r0, r2
   29024:	8018      	strh	r0, [r3, #0]
   29026:	980d      	ldr	r0, [sp, #52]	@ 0x34
   29028:	6e02      	ldr	r2, [r0, #96]	@ 0x60
   2902a:	920f      	str	r2, [sp, #60]	@ 0x3c
   2902c:	6e42      	ldr	r2, [r0, #100]	@ 0x64
   2902e:	6e80      	ldr	r0, [r0, #104]	@ 0x68
   29030:	2900      	cmp	r1, #0
   29032:	d001      	beq.n	29038 <_start+0x1438>
   29034:	f002 f8e5 	bl	2b202 <_start+0x3602>
   29038:	9907      	ldr	r1, [sp, #28]
   2903a:	1ccb      	adds	r3, r1, #3
   2903c:	711a      	strb	r2, [r3, #4]
   2903e:	9d0f      	ldr	r5, [sp, #60]	@ 0x3c
   29040:	701d      	strb	r5, [r3, #0]
   29042:	49ad      	ldr	r1, [pc, #692]	@ (292f8 <_start+0x16f8>)
   29044:	4469      	add	r1, sp
   29046:	9c0d      	ldr	r4, [sp, #52]	@ 0x34
   29048:	6824      	ldr	r4, [r4, #0]
   2904a:	800c      	strh	r4, [r1, #0]
   2904c:	7218      	strb	r0, [r3, #8]
   2904e:	0e14      	lsrs	r4, r2, #24
   29050:	71dc      	strb	r4, [r3, #7]
   29052:	0c14      	lsrs	r4, r2, #16
   29054:	719c      	strb	r4, [r3, #6]
   29056:	0a12      	lsrs	r2, r2, #8
   29058:	715a      	strb	r2, [r3, #5]
   2905a:	0e2a      	lsrs	r2, r5, #24
   2905c:	70da      	strb	r2, [r3, #3]
   2905e:	0c2a      	lsrs	r2, r5, #16
   29060:	709a      	strb	r2, [r3, #2]
   29062:	0a2a      	lsrs	r2, r5, #8
   29064:	705a      	strb	r2, [r3, #1]
   29066:	4aa2      	ldr	r2, [pc, #648]	@ (292f0 <_start+0x16f0>)
   29068:	446a      	add	r2, sp
   2906a:	7892      	ldrb	r2, [r2, #2]
   2906c:	708a      	strb	r2, [r1, #2]
   2906e:	0e02      	lsrs	r2, r0, #24
   29070:	72da      	strb	r2, [r3, #11]
   29072:	0c02      	lsrs	r2, r0, #16
   29074:	729a      	strb	r2, [r3, #10]
   29076:	0a00      	lsrs	r0, r0, #8
   29078:	7258      	strb	r0, [r3, #9]
   2907a:	4c9e      	ldr	r4, [pc, #632]	@ (292f4 <_start+0x16f4>)
   2907c:	446c      	add	r4, sp
   2907e:	4620      	mov	r0, r4
   29080:	f7f7 ffa6 	bl	20fd0 <_ZN20complex_dynamic_type3app17h1118b81bad6ee3f9E>
   29084:	7820      	ldrb	r0, [r4, #0]
   29086:	2801      	cmp	r0, #1
   29088:	d103      	bne.n	29092 <_start+0x1492>
   2908a:	990d      	ldr	r1, [sp, #52]	@ 0x34
   2908c:	6e09      	ldr	r1, [r1, #96]	@ 0x60
   2908e:	910f      	str	r1, [sp, #60]	@ 0x3c
   29090:	e010      	b.n	290b4 <_start+0x14b4>
   29092:	4998      	ldr	r1, [pc, #608]	@ (292f4 <_start+0x16f4>)
   29094:	4469      	add	r1, sp
   29096:	78ca      	ldrb	r2, [r1, #3]
   29098:	ab10      	add	r3, sp, #64	@ 0x40
   2909a:	709a      	strb	r2, [r3, #2]
   2909c:	784a      	ldrb	r2, [r1, #1]
   2909e:	7889      	ldrb	r1, [r1, #2]
   290a0:	0209      	lsls	r1, r1, #8
   290a2:	1889      	adds	r1, r1, r2
   290a4:	8019      	strh	r1, [r3, #0]
   290a6:	9c0d      	ldr	r4, [sp, #52]	@ 0x34
   290a8:	6e21      	ldr	r1, [r4, #96]	@ 0x60
   290aa:	910f      	str	r1, [sp, #60]	@ 0x3c
   290ac:	4623      	mov	r3, r4
   290ae:	3364      	adds	r3, #100	@ 0x64
   290b0:	cb0e      	ldmia	r3, {r1, r2, r3}
   290b2:	c40e      	stmia	r4!, {r1, r2, r3}
   290b4:	2800      	cmp	r0, #0
   290b6:	d001      	beq.n	290bc <_start+0x14bc>
   290b8:	f002 f8a3 	bl	2b202 <_start+0x3602>
   290bc:	4c8f      	ldr	r4, [pc, #572]	@ (292fc <_start+0x16fc>)
   290be:	446c      	add	r4, sp
   290c0:	990f      	ldr	r1, [sp, #60]	@ 0x3c
   290c2:	70e1      	strb	r1, [r4, #3]
   290c4:	9810      	ldr	r0, [sp, #64]	@ 0x40
   290c6:	8020      	strh	r0, [r4, #0]
   290c8:	0e08      	lsrs	r0, r1, #24
   290ca:	71a0      	strb	r0, [r4, #6]
   290cc:	0c08      	lsrs	r0, r1, #16
   290ce:	7160      	strb	r0, [r4, #5]
   290d0:	0a08      	lsrs	r0, r1, #8
   290d2:	7120      	strb	r0, [r4, #4]
   290d4:	a810      	add	r0, sp, #64	@ 0x40
   290d6:	7880      	ldrb	r0, [r0, #2]
   290d8:	70a0      	strb	r0, [r4, #2]
   290da:	1de0      	adds	r0, r4, #7
   290dc:	4984      	ldr	r1, [pc, #528]	@ (292f0 <_start+0x16f0>)
   290de:	4469      	add	r1, sp
   290e0:	220c      	movs	r2, #12
   290e2:	f002 fab2 	bl	2b64a <__aeabi_memcpy>
   290e6:	4d83      	ldr	r5, [pc, #524]	@ (292f4 <_start+0x16f4>)
   290e8:	446d      	add	r5, sp
   290ea:	4628      	mov	r0, r5
   290ec:	4621      	mov	r1, r4
   290ee:	f7fc fc4b 	bl	25988 <_ZN20complex_dynamic_type3app17hb0e0831485dc8f1dE>
   290f2:	782c      	ldrb	r4, [r5, #0]
   290f4:	2c01      	cmp	r4, #1
   290f6:	d103      	bne.n	29100 <_start+0x1500>
   290f8:	980d      	ldr	r0, [sp, #52]	@ 0x34
   290fa:	6e00      	ldr	r0, [r0, #96]	@ 0x60
   290fc:	900f      	str	r0, [sp, #60]	@ 0x3c
   290fe:	e012      	b.n	29126 <_start+0x1526>
   29100:	497c      	ldr	r1, [pc, #496]	@ (292f4 <_start+0x16f4>)
   29102:	4469      	add	r1, sp
   29104:	78c8      	ldrb	r0, [r1, #3]
   29106:	aa10      	add	r2, sp, #64	@ 0x40
   29108:	7090      	strb	r0, [r2, #2]
   2910a:	7848      	ldrb	r0, [r1, #1]
   2910c:	788b      	ldrb	r3, [r1, #2]
   2910e:	021b      	lsls	r3, r3, #8
   29110:	1818      	adds	r0, r3, r0
   29112:	8010      	strh	r0, [r2, #0]
   29114:	980d      	ldr	r0, [sp, #52]	@ 0x34
   29116:	6e00      	ldr	r0, [r0, #96]	@ 0x60
   29118:	900f      	str	r0, [sp, #60]	@ 0x3c
   2911a:	3108      	adds	r1, #8
   2911c:	4874      	ldr	r0, [pc, #464]	@ (292f0 <_start+0x16f0>)
   2911e:	4468      	add	r0, sp
   29120:	224e      	movs	r2, #78	@ 0x4e
   29122:	f002 f932 	bl	2b38a <__aeabi_memcpy4>
   29126:	2c00      	cmp	r4, #0
   29128:	d001      	beq.n	2912e <_start+0x152e>
   2912a:	f002 f86a 	bl	2b202 <_start+0x3602>
   2912e:	4c74      	ldr	r4, [pc, #464]	@ (29300 <_start+0x1700>)
   29130:	446c      	add	r4, sp
   29132:	990f      	ldr	r1, [sp, #60]	@ 0x3c
   29134:	70e1      	strb	r1, [r4, #3]
   29136:	9810      	ldr	r0, [sp, #64]	@ 0x40
   29138:	8020      	strh	r0, [r4, #0]
   2913a:	0e08      	lsrs	r0, r1, #24
   2913c:	71a0      	strb	r0, [r4, #6]
   2913e:	0c08      	lsrs	r0, r1, #16
   29140:	7160      	strb	r0, [r4, #5]
   29142:	0a08      	lsrs	r0, r1, #8
   29144:	7120      	strb	r0, [r4, #4]
   29146:	a810      	add	r0, sp, #64	@ 0x40
   29148:	7880      	ldrb	r0, [r0, #2]
   2914a:	70a0      	strb	r0, [r4, #2]
   2914c:	1de0      	adds	r0, r4, #7
   2914e:	4968      	ldr	r1, [pc, #416]	@ (292f0 <_start+0x16f0>)
   29150:	4469      	add	r1, sp
   29152:	224e      	movs	r2, #78	@ 0x4e
   29154:	f002 fa79 	bl	2b64a <__aeabi_memcpy>
   29158:	4d66      	ldr	r5, [pc, #408]	@ (292f4 <_start+0x16f4>)
   2915a:	446d      	add	r5, sp
   2915c:	4628      	mov	r0, r5
   2915e:	4621      	mov	r1, r4
   29160:	f7fb ffec 	bl	2513c <_ZN20complex_dynamic_type3app17ha214e72c658a7d5aE>
   29164:	7828      	ldrb	r0, [r5, #0]
   29166:	2801      	cmp	r0, #1
   29168:	d103      	bne.n	29172 <_start+0x1572>
   2916a:	990d      	ldr	r1, [sp, #52]	@ 0x34
   2916c:	6e09      	ldr	r1, [r1, #96]	@ 0x60
   2916e:	910f      	str	r1, [sp, #60]	@ 0x3c
   29170:	e019      	b.n	291a6 <_start+0x15a6>
   29172:	4960      	ldr	r1, [pc, #384]	@ (292f4 <_start+0x16f4>)
   29174:	4469      	add	r1, sp
   29176:	78ca      	ldrb	r2, [r1, #3]
   29178:	ab10      	add	r3, sp, #64	@ 0x40
   2917a:	709a      	strb	r2, [r3, #2]
   2917c:	784a      	ldrb	r2, [r1, #1]
   2917e:	788c      	ldrb	r4, [r1, #2]
   29180:	0224      	lsls	r4, r4, #8
   29182:	18a2      	adds	r2, r4, r2
   29184:	801a      	strh	r2, [r3, #0]
   29186:	3108      	adds	r1, #8
   29188:	9a0d      	ldr	r2, [sp, #52]	@ 0x34
   2918a:	6e12      	ldr	r2, [r2, #96]	@ 0x60
   2918c:	920f      	str	r2, [sp, #60]	@ 0x3c
   2918e:	4a58      	ldr	r2, [pc, #352]	@ (292f0 <_start+0x16f0>)
   29190:	446a      	add	r2, sp
   29192:	c938      	ldmia	r1!, {r3, r4, r5}
   29194:	c238      	stmia	r2!, {r3, r4, r5}
   29196:	c938      	ldmia	r1!, {r3, r4, r5}
   29198:	c238      	stmia	r2!, {r3, r4, r5}
   2919a:	c978      	ldmia	r1!, {r3, r4, r5, r6}
   2919c:	c278      	stmia	r2!, {r3, r4, r5, r6}
   2919e:	880b      	ldrh	r3, [r1, #0]
   291a0:	8013      	strh	r3, [r2, #0]
   291a2:	7889      	ldrb	r1, [r1, #2]
   291a4:	7091      	strb	r1, [r2, #2]
   291a6:	2800      	cmp	r0, #0
   291a8:	d001      	beq.n	291ae <_start+0x15ae>
   291aa:	f002 f82a 	bl	2b202 <_start+0x3602>
   291ae:	4c55      	ldr	r4, [pc, #340]	@ (29304 <_start+0x1704>)
   291b0:	446c      	add	r4, sp
   291b2:	990f      	ldr	r1, [sp, #60]	@ 0x3c
   291b4:	70e1      	strb	r1, [r4, #3]
   291b6:	9810      	ldr	r0, [sp, #64]	@ 0x40
   291b8:	8020      	strh	r0, [r4, #0]
   291ba:	0e08      	lsrs	r0, r1, #24
   291bc:	71a0      	strb	r0, [r4, #6]
   291be:	0c08      	lsrs	r0, r1, #16
   291c0:	7160      	strb	r0, [r4, #5]
   291c2:	0a08      	lsrs	r0, r1, #8
   291c4:	7120      	strb	r0, [r4, #4]
   291c6:	a810      	add	r0, sp, #64	@ 0x40
   291c8:	7880      	ldrb	r0, [r0, #2]
   291ca:	70a0      	strb	r0, [r4, #2]
   291cc:	1de0      	adds	r0, r4, #7
   291ce:	4948      	ldr	r1, [pc, #288]	@ (292f0 <_start+0x16f0>)
   291d0:	4469      	add	r1, sp
   291d2:	222b      	movs	r2, #43	@ 0x2b
   291d4:	f002 fa39 	bl	2b64a <__aeabi_memcpy>
   291d8:	4d46      	ldr	r5, [pc, #280]	@ (292f4 <_start+0x16f4>)
   291da:	446d      	add	r5, sp
   291dc:	4628      	mov	r0, r5
   291de:	4621      	mov	r1, r4
   291e0:	f7f8 fe1c 	bl	21e1c <_ZN20complex_dynamic_type3app17h30dbfff13dde5cfcE>
   291e4:	7828      	ldrb	r0, [r5, #0]
   291e6:	2801      	cmp	r0, #1
   291e8:	d103      	bne.n	291f2 <_start+0x15f2>
   291ea:	990d      	ldr	r1, [sp, #52]	@ 0x34
   291ec:	6e09      	ldr	r1, [r1, #96]	@ 0x60
   291ee:	910f      	str	r1, [sp, #60]	@ 0x3c
   291f0:	e019      	b.n	29226 <_start+0x1626>
   291f2:	4940      	ldr	r1, [pc, #256]	@ (292f4 <_start+0x16f4>)
   291f4:	4469      	add	r1, sp
   291f6:	78ca      	ldrb	r2, [r1, #3]
   291f8:	ab10      	add	r3, sp, #64	@ 0x40
   291fa:	709a      	strb	r2, [r3, #2]
   291fc:	784a      	ldrb	r2, [r1, #1]
   291fe:	788c      	ldrb	r4, [r1, #2]
   29200:	0224      	lsls	r4, r4, #8
   29202:	18a2      	adds	r2, r4, r2
   29204:	801a      	strh	r2, [r3, #0]
   29206:	3108      	adds	r1, #8
   29208:	9a0d      	ldr	r2, [sp, #52]	@ 0x34
   2920a:	6e12      	ldr	r2, [r2, #96]	@ 0x60
   2920c:	920f      	str	r2, [sp, #60]	@ 0x3c
   2920e:	4a38      	ldr	r2, [pc, #224]	@ (292f0 <_start+0x16f0>)
   29210:	446a      	add	r2, sp
   29212:	c938      	ldmia	r1!, {r3, r4, r5}
   29214:	c238      	stmia	r2!, {r3, r4, r5}
   29216:	c978      	ldmia	r1!, {r3, r4, r5, r6}
   29218:	c278      	stmia	r2!, {r3, r4, r5, r6}
   2921a:	c938      	ldmia	r1!, {r3, r4, r5}
   2921c:	c238      	stmia	r2!, {r3, r4, r5}
   2921e:	c978      	ldmia	r1!, {r3, r4, r5, r6}
   29220:	c278      	stmia	r2!, {r3, r4, r5, r6}
   29222:	8809      	ldrh	r1, [r1, #0]
   29224:	8011      	strh	r1, [r2, #0]
   29226:	2800      	cmp	r0, #0
   29228:	d001      	beq.n	2922e <_start+0x162e>
   2922a:	f001 ffea 	bl	2b202 <_start+0x3602>
   2922e:	4c36      	ldr	r4, [pc, #216]	@ (29308 <_start+0x1708>)
   29230:	446c      	add	r4, sp
   29232:	990f      	ldr	r1, [sp, #60]	@ 0x3c
   29234:	70e1      	strb	r1, [r4, #3]
   29236:	9810      	ldr	r0, [sp, #64]	@ 0x40
   29238:	8020      	strh	r0, [r4, #0]
   2923a:	0e08      	lsrs	r0, r1, #24
   2923c:	71a0      	strb	r0, [r4, #6]
   2923e:	0c08      	lsrs	r0, r1, #16
   29240:	7160      	strb	r0, [r4, #5]
   29242:	0a08      	lsrs	r0, r1, #8
   29244:	7120      	strb	r0, [r4, #4]
   29246:	a810      	add	r0, sp, #64	@ 0x40
   29248:	7880      	ldrb	r0, [r0, #2]
   2924a:	70a0      	strb	r0, [r4, #2]
   2924c:	1de0      	adds	r0, r4, #7
   2924e:	4928      	ldr	r1, [pc, #160]	@ (292f0 <_start+0x16f0>)
   29250:	4469      	add	r1, sp
   29252:	223a      	movs	r2, #58	@ 0x3a
   29254:	f002 f9f9 	bl	2b64a <__aeabi_memcpy>
   29258:	4d26      	ldr	r5, [pc, #152]	@ (292f4 <_start+0x16f4>)
   2925a:	446d      	add	r5, sp
   2925c:	4628      	mov	r0, r5
   2925e:	4621      	mov	r1, r4
   29260:	f7fc fa60 	bl	25724 <_ZN20complex_dynamic_type3app17hab60092d724ae3e3E>
   29264:	7828      	ldrb	r0, [r5, #0]
   29266:	2801      	cmp	r0, #1
   29268:	d103      	bne.n	29272 <_start+0x1672>
   2926a:	990d      	ldr	r1, [sp, #52]	@ 0x34
   2926c:	6e09      	ldr	r1, [r1, #96]	@ 0x60
   2926e:	910f      	str	r1, [sp, #60]	@ 0x3c
   29270:	e017      	b.n	292a2 <_start+0x16a2>
   29272:	4920      	ldr	r1, [pc, #128]	@ (292f4 <_start+0x16f4>)
   29274:	4469      	add	r1, sp
   29276:	78ca      	ldrb	r2, [r1, #3]
   29278:	ab10      	add	r3, sp, #64	@ 0x40
   2927a:	709a      	strb	r2, [r3, #2]
   2927c:	784a      	ldrb	r2, [r1, #1]
   2927e:	788c      	ldrb	r4, [r1, #2]
   29280:	0224      	lsls	r4, r4, #8
   29282:	18a2      	adds	r2, r4, r2
   29284:	801a      	strh	r2, [r3, #0]
   29286:	3108      	adds	r1, #8
   29288:	9a0d      	ldr	r2, [sp, #52]	@ 0x34
   2928a:	6e12      	ldr	r2, [r2, #96]	@ 0x60
   2928c:	920f      	str	r2, [sp, #60]	@ 0x3c
   2928e:	4a18      	ldr	r2, [pc, #96]	@ (292f0 <_start+0x16f0>)
   29290:	446a      	add	r2, sp
   29292:	c938      	ldmia	r1!, {r3, r4, r5}
   29294:	c238      	stmia	r2!, {r3, r4, r5}
   29296:	c938      	ldmia	r1!, {r3, r4, r5}
   29298:	c238      	stmia	r2!, {r3, r4, r5}
   2929a:	880b      	ldrh	r3, [r1, #0]
   2929c:	8013      	strh	r3, [r2, #0]
   2929e:	7889      	ldrb	r1, [r1, #2]
   292a0:	7091      	strb	r1, [r2, #2]
   292a2:	2800      	cmp	r0, #0
   292a4:	d001      	beq.n	292aa <_start+0x16aa>
   292a6:	f001 ffac 	bl	2b202 <_start+0x3602>
   292aa:	4c18      	ldr	r4, [pc, #96]	@ (2930c <_start+0x170c>)
   292ac:	446c      	add	r4, sp
   292ae:	990f      	ldr	r1, [sp, #60]	@ 0x3c
   292b0:	70e1      	strb	r1, [r4, #3]
   292b2:	9810      	ldr	r0, [sp, #64]	@ 0x40
   292b4:	8020      	strh	r0, [r4, #0]
   292b6:	0e08      	lsrs	r0, r1, #24
   292b8:	71a0      	strb	r0, [r4, #6]
   292ba:	0c08      	lsrs	r0, r1, #16
   292bc:	7160      	strb	r0, [r4, #5]
   292be:	0a08      	lsrs	r0, r1, #8
   292c0:	7120      	strb	r0, [r4, #4]
   292c2:	a810      	add	r0, sp, #64	@ 0x40
   292c4:	7880      	ldrb	r0, [r0, #2]
   292c6:	70a0      	strb	r0, [r4, #2]
   292c8:	1de0      	adds	r0, r4, #7
   292ca:	4909      	ldr	r1, [pc, #36]	@ (292f0 <_start+0x16f0>)
   292cc:	4469      	add	r1, sp
   292ce:	221b      	movs	r2, #27
   292d0:	f002 f9bb 	bl	2b64a <__aeabi_memcpy>
   292d4:	4d07      	ldr	r5, [pc, #28]	@ (292f4 <_start+0x16f4>)
   292d6:	446d      	add	r5, sp
   292d8:	4628      	mov	r0, r5
   292da:	4621      	mov	r1, r4
   292dc:	f7f7 fd4a 	bl	20d74 <_ZN20complex_dynamic_type3app17h09c9ccb1614fed4cE>
   292e0:	782c      	ldrb	r4, [r5, #0]
   292e2:	2c01      	cmp	r4, #1
   292e4:	d114      	bne.n	29310 <_start+0x1710>
   292e6:	980d      	ldr	r0, [sp, #52]	@ 0x34
   292e8:	6e00      	ldr	r0, [r0, #96]	@ 0x60
   292ea:	900f      	str	r0, [sp, #60]	@ 0x3c
   292ec:	e023      	b.n	29336 <_start+0x1736>
   292ee:	46c0      	nop			@ (mov r8, r8)
   292f0:	000013b8 	.word	0x000013b8
   292f4:	00001414 	.word	0x00001414
   292f8:	00000518 	.word	0x00000518
   292fc:	00000528 	.word	0x00000528
   29300:	0000053c 	.word	0x0000053c
   29304:	00000594 	.word	0x00000594
   29308:	000005c8 	.word	0x000005c8
   2930c:	0000060c 	.word	0x0000060c
   29310:	49eb      	ldr	r1, [pc, #940]	@ (296c0 <_start+0x1ac0>)
   29312:	4469      	add	r1, sp
   29314:	78c8      	ldrb	r0, [r1, #3]
   29316:	aa10      	add	r2, sp, #64	@ 0x40
   29318:	7090      	strb	r0, [r2, #2]
   2931a:	7848      	ldrb	r0, [r1, #1]
   2931c:	788b      	ldrb	r3, [r1, #2]
   2931e:	021b      	lsls	r3, r3, #8
   29320:	1818      	adds	r0, r3, r0
   29322:	8010      	strh	r0, [r2, #0]
   29324:	980d      	ldr	r0, [sp, #52]	@ 0x34
   29326:	6e00      	ldr	r0, [r0, #96]	@ 0x60
   29328:	900f      	str	r0, [sp, #60]	@ 0x3c
   2932a:	3108      	adds	r1, #8
   2932c:	48e5      	ldr	r0, [pc, #916]	@ (296c4 <_start+0x1ac4>)
   2932e:	4468      	add	r0, sp
   29330:	224a      	movs	r2, #74	@ 0x4a
   29332:	f002 f82a 	bl	2b38a <__aeabi_memcpy4>
   29336:	2c00      	cmp	r4, #0
   29338:	d001      	beq.n	2933e <_start+0x173e>
   2933a:	f001 ff62 	bl	2b202 <_start+0x3602>
   2933e:	4ce2      	ldr	r4, [pc, #904]	@ (296c8 <_start+0x1ac8>)
   29340:	446c      	add	r4, sp
   29342:	990f      	ldr	r1, [sp, #60]	@ 0x3c
   29344:	70e1      	strb	r1, [r4, #3]
   29346:	9810      	ldr	r0, [sp, #64]	@ 0x40
   29348:	8020      	strh	r0, [r4, #0]
   2934a:	0e08      	lsrs	r0, r1, #24
   2934c:	71a0      	strb	r0, [r4, #6]
   2934e:	0c08      	lsrs	r0, r1, #16
   29350:	7160      	strb	r0, [r4, #5]
   29352:	0a08      	lsrs	r0, r1, #8
   29354:	7120      	strb	r0, [r4, #4]
   29356:	a810      	add	r0, sp, #64	@ 0x40
   29358:	7880      	ldrb	r0, [r0, #2]
   2935a:	70a0      	strb	r0, [r4, #2]
   2935c:	1de0      	adds	r0, r4, #7
   2935e:	49d9      	ldr	r1, [pc, #868]	@ (296c4 <_start+0x1ac4>)
   29360:	4469      	add	r1, sp
   29362:	224a      	movs	r2, #74	@ 0x4a
   29364:	f002 f971 	bl	2b64a <__aeabi_memcpy>
   29368:	4dd5      	ldr	r5, [pc, #852]	@ (296c0 <_start+0x1ac0>)
   2936a:	446d      	add	r5, sp
   2936c:	4628      	mov	r0, r5
   2936e:	4621      	mov	r1, r4
   29370:	f7f8 ffb0 	bl	222d4 <_ZN20complex_dynamic_type3app17h33f43e66035d597cE>
   29374:	782c      	ldrb	r4, [r5, #0]
   29376:	2c01      	cmp	r4, #1
   29378:	d103      	bne.n	29382 <_start+0x1782>
   2937a:	980d      	ldr	r0, [sp, #52]	@ 0x34
   2937c:	6e00      	ldr	r0, [r0, #96]	@ 0x60
   2937e:	900f      	str	r0, [sp, #60]	@ 0x3c
   29380:	e012      	b.n	293a8 <_start+0x17a8>
   29382:	49cf      	ldr	r1, [pc, #828]	@ (296c0 <_start+0x1ac0>)
   29384:	4469      	add	r1, sp
   29386:	78c8      	ldrb	r0, [r1, #3]
   29388:	aa10      	add	r2, sp, #64	@ 0x40
   2938a:	7090      	strb	r0, [r2, #2]
   2938c:	7848      	ldrb	r0, [r1, #1]
   2938e:	788b      	ldrb	r3, [r1, #2]
   29390:	021b      	lsls	r3, r3, #8
   29392:	1818      	adds	r0, r3, r0
   29394:	8010      	strh	r0, [r2, #0]
   29396:	980d      	ldr	r0, [sp, #52]	@ 0x34
   29398:	6e00      	ldr	r0, [r0, #96]	@ 0x60
   2939a:	900f      	str	r0, [sp, #60]	@ 0x3c
   2939c:	3108      	adds	r1, #8
   2939e:	48c9      	ldr	r0, [pc, #804]	@ (296c4 <_start+0x1ac4>)
   293a0:	4468      	add	r0, sp
   293a2:	2248      	movs	r2, #72	@ 0x48
   293a4:	f001 fff1 	bl	2b38a <__aeabi_memcpy4>
   293a8:	2c00      	cmp	r4, #0
   293aa:	d001      	beq.n	293b0 <_start+0x17b0>
   293ac:	f001 ff29 	bl	2b202 <_start+0x3602>
   293b0:	4cc6      	ldr	r4, [pc, #792]	@ (296cc <_start+0x1acc>)
   293b2:	446c      	add	r4, sp
   293b4:	990f      	ldr	r1, [sp, #60]	@ 0x3c
   293b6:	70e1      	strb	r1, [r4, #3]
   293b8:	9810      	ldr	r0, [sp, #64]	@ 0x40
   293ba:	8020      	strh	r0, [r4, #0]
   293bc:	0e08      	lsrs	r0, r1, #24
   293be:	71a0      	strb	r0, [r4, #6]
   293c0:	0c08      	lsrs	r0, r1, #16
   293c2:	7160      	strb	r0, [r4, #5]
   293c4:	0a08      	lsrs	r0, r1, #8
   293c6:	7120      	strb	r0, [r4, #4]
   293c8:	a810      	add	r0, sp, #64	@ 0x40
   293ca:	7880      	ldrb	r0, [r0, #2]
   293cc:	70a0      	strb	r0, [r4, #2]
   293ce:	1de0      	adds	r0, r4, #7
   293d0:	49bc      	ldr	r1, [pc, #752]	@ (296c4 <_start+0x1ac4>)
   293d2:	4469      	add	r1, sp
   293d4:	2248      	movs	r2, #72	@ 0x48
   293d6:	f002 f938 	bl	2b64a <__aeabi_memcpy>
   293da:	4db9      	ldr	r5, [pc, #740]	@ (296c0 <_start+0x1ac0>)
   293dc:	446d      	add	r5, sp
   293de:	4628      	mov	r0, r5
   293e0:	4621      	mov	r1, r4
   293e2:	f7f9 f943 	bl	2266c <_ZN20complex_dynamic_type3app17h37c4e828a15c0f37E>
   293e6:	7828      	ldrb	r0, [r5, #0]
   293e8:	2801      	cmp	r0, #1
   293ea:	d103      	bne.n	293f4 <_start+0x17f4>
   293ec:	990d      	ldr	r1, [sp, #52]	@ 0x34
   293ee:	6e09      	ldr	r1, [r1, #96]	@ 0x60
   293f0:	910f      	str	r1, [sp, #60]	@ 0x3c
   293f2:	e017      	b.n	29424 <_start+0x1824>
   293f4:	49b2      	ldr	r1, [pc, #712]	@ (296c0 <_start+0x1ac0>)
   293f6:	4469      	add	r1, sp
   293f8:	78ca      	ldrb	r2, [r1, #3]
   293fa:	ab10      	add	r3, sp, #64	@ 0x40
   293fc:	709a      	strb	r2, [r3, #2]
   293fe:	784a      	ldrb	r2, [r1, #1]
   29400:	788c      	ldrb	r4, [r1, #2]
   29402:	0224      	lsls	r4, r4, #8
   29404:	18a2      	adds	r2, r4, r2
   29406:	801a      	strh	r2, [r3, #0]
   29408:	3108      	adds	r1, #8
   2940a:	9a0d      	ldr	r2, [sp, #52]	@ 0x34
   2940c:	6e12      	ldr	r2, [r2, #96]	@ 0x60
   2940e:	920f      	str	r2, [sp, #60]	@ 0x3c
   29410:	4aac      	ldr	r2, [pc, #688]	@ (296c4 <_start+0x1ac4>)
   29412:	446a      	add	r2, sp
   29414:	c938      	ldmia	r1!, {r3, r4, r5}
   29416:	c238      	stmia	r2!, {r3, r4, r5}
   29418:	c938      	ldmia	r1!, {r3, r4, r5}
   2941a:	c238      	stmia	r2!, {r3, r4, r5}
   2941c:	c938      	ldmia	r1!, {r3, r4, r5}
   2941e:	c238      	stmia	r2!, {r3, r4, r5}
   29420:	c978      	ldmia	r1!, {r3, r4, r5, r6}
   29422:	c278      	stmia	r2!, {r3, r4, r5, r6}
   29424:	2800      	cmp	r0, #0
   29426:	d001      	beq.n	2942c <_start+0x182c>
   29428:	f001 feeb 	bl	2b202 <_start+0x3602>
   2942c:	4ca8      	ldr	r4, [pc, #672]	@ (296d0 <_start+0x1ad0>)
   2942e:	446c      	add	r4, sp
   29430:	990f      	ldr	r1, [sp, #60]	@ 0x3c
   29432:	70e1      	strb	r1, [r4, #3]
   29434:	9810      	ldr	r0, [sp, #64]	@ 0x40
   29436:	8020      	strh	r0, [r4, #0]
   29438:	0e08      	lsrs	r0, r1, #24
   2943a:	71a0      	strb	r0, [r4, #6]
   2943c:	0c08      	lsrs	r0, r1, #16
   2943e:	7160      	strb	r0, [r4, #5]
   29440:	0a08      	lsrs	r0, r1, #8
   29442:	7120      	strb	r0, [r4, #4]
   29444:	a810      	add	r0, sp, #64	@ 0x40
   29446:	7880      	ldrb	r0, [r0, #2]
   29448:	70a0      	strb	r0, [r4, #2]
   2944a:	1de0      	adds	r0, r4, #7
   2944c:	499d      	ldr	r1, [pc, #628]	@ (296c4 <_start+0x1ac4>)
   2944e:	4469      	add	r1, sp
   29450:	2234      	movs	r2, #52	@ 0x34
   29452:	f002 f8fa 	bl	2b64a <__aeabi_memcpy>
   29456:	4d9a      	ldr	r5, [pc, #616]	@ (296c0 <_start+0x1ac0>)
   29458:	446d      	add	r5, sp
   2945a:	4628      	mov	r0, r5
   2945c:	4621      	mov	r1, r4
   2945e:	f7f8 fe0b 	bl	22078 <_ZN20complex_dynamic_type3app17h31fb8b986602a432E>
   29462:	7828      	ldrb	r0, [r5, #0]
   29464:	2801      	cmp	r0, #1
   29466:	d103      	bne.n	29470 <_start+0x1870>
   29468:	990d      	ldr	r1, [sp, #52]	@ 0x34
   2946a:	6e09      	ldr	r1, [r1, #96]	@ 0x60
   2946c:	910f      	str	r1, [sp, #60]	@ 0x3c
   2946e:	e013      	b.n	29498 <_start+0x1898>
   29470:	4993      	ldr	r1, [pc, #588]	@ (296c0 <_start+0x1ac0>)
   29472:	4469      	add	r1, sp
   29474:	78ca      	ldrb	r2, [r1, #3]
   29476:	ab10      	add	r3, sp, #64	@ 0x40
   29478:	709a      	strb	r2, [r3, #2]
   2947a:	784a      	ldrb	r2, [r1, #1]
   2947c:	788c      	ldrb	r4, [r1, #2]
   2947e:	0224      	lsls	r4, r4, #8
   29480:	18a2      	adds	r2, r4, r2
   29482:	801a      	strh	r2, [r3, #0]
   29484:	3108      	adds	r1, #8
   29486:	9a0d      	ldr	r2, [sp, #52]	@ 0x34
   29488:	6e12      	ldr	r2, [r2, #96]	@ 0x60
   2948a:	920f      	str	r2, [sp, #60]	@ 0x3c
   2948c:	4a8d      	ldr	r2, [pc, #564]	@ (296c4 <_start+0x1ac4>)
   2948e:	446a      	add	r2, sp
   29490:	c978      	ldmia	r1!, {r3, r4, r5, r6}
   29492:	c278      	stmia	r2!, {r3, r4, r5, r6}
   29494:	c978      	ldmia	r1!, {r3, r4, r5, r6}
   29496:	c278      	stmia	r2!, {r3, r4, r5, r6}
   29498:	2800      	cmp	r0, #0
   2949a:	d001      	beq.n	294a0 <_start+0x18a0>
   2949c:	f001 feb1 	bl	2b202 <_start+0x3602>
   294a0:	4c8c      	ldr	r4, [pc, #560]	@ (296d4 <_start+0x1ad4>)
   294a2:	446c      	add	r4, sp
   294a4:	990f      	ldr	r1, [sp, #60]	@ 0x3c
   294a6:	70e1      	strb	r1, [r4, #3]
   294a8:	9810      	ldr	r0, [sp, #64]	@ 0x40
   294aa:	8020      	strh	r0, [r4, #0]
   294ac:	0e08      	lsrs	r0, r1, #24
   294ae:	71a0      	strb	r0, [r4, #6]
   294b0:	0c08      	lsrs	r0, r1, #16
   294b2:	7160      	strb	r0, [r4, #5]
   294b4:	0a08      	lsrs	r0, r1, #8
   294b6:	7120      	strb	r0, [r4, #4]
   294b8:	a810      	add	r0, sp, #64	@ 0x40
   294ba:	7880      	ldrb	r0, [r0, #2]
   294bc:	70a0      	strb	r0, [r4, #2]
   294be:	1de0      	adds	r0, r4, #7
   294c0:	4980      	ldr	r1, [pc, #512]	@ (296c4 <_start+0x1ac4>)
   294c2:	4469      	add	r1, sp
   294c4:	2220      	movs	r2, #32
   294c6:	f002 f8c0 	bl	2b64a <__aeabi_memcpy>
   294ca:	4d7d      	ldr	r5, [pc, #500]	@ (296c0 <_start+0x1ac0>)
   294cc:	446d      	add	r5, sp
   294ce:	4628      	mov	r0, r5
   294d0:	4621      	mov	r1, r4
   294d2:	f7f9 f963 	bl	2279c <_ZN20complex_dynamic_type3app17h395ee02c269b00deE>
   294d6:	7828      	ldrb	r0, [r5, #0]
   294d8:	2801      	cmp	r0, #1
   294da:	d102      	bne.n	294e2 <_start+0x18e2>
   294dc:	990d      	ldr	r1, [sp, #52]	@ 0x34
   294de:	6e09      	ldr	r1, [r1, #96]	@ 0x60
   294e0:	e013      	b.n	2950a <_start+0x190a>
   294e2:	4978      	ldr	r1, [pc, #480]	@ (296c4 <_start+0x1ac4>)
   294e4:	4469      	add	r1, sp
   294e6:	9c0d      	ldr	r4, [sp, #52]	@ 0x34
   294e8:	6f22      	ldr	r2, [r4, #112]	@ 0x70
   294ea:	730a      	strb	r2, [r1, #12]
   294ec:	4974      	ldr	r1, [pc, #464]	@ (296c0 <_start+0x1ac0>)
   294ee:	4469      	add	r1, sp
   294f0:	78ca      	ldrb	r2, [r1, #3]
   294f2:	ab10      	add	r3, sp, #64	@ 0x40
   294f4:	709a      	strb	r2, [r3, #2]
   294f6:	784a      	ldrb	r2, [r1, #1]
   294f8:	7889      	ldrb	r1, [r1, #2]
   294fa:	0209      	lsls	r1, r1, #8
   294fc:	1889      	adds	r1, r1, r2
   294fe:	8019      	strh	r1, [r3, #0]
   29500:	4623      	mov	r3, r4
   29502:	3364      	adds	r3, #100	@ 0x64
   29504:	cb0e      	ldmia	r3, {r1, r2, r3}
   29506:	c40e      	stmia	r4!, {r1, r2, r3}
   29508:	6d61      	ldr	r1, [r4, #84]	@ 0x54
   2950a:	910f      	str	r1, [sp, #60]	@ 0x3c
   2950c:	2800      	cmp	r0, #0
   2950e:	d001      	beq.n	29514 <_start+0x1914>
   29510:	f001 fe77 	bl	2b202 <_start+0x3602>
   29514:	4c70      	ldr	r4, [pc, #448]	@ (296d8 <_start+0x1ad8>)
   29516:	446c      	add	r4, sp
   29518:	990f      	ldr	r1, [sp, #60]	@ 0x3c
   2951a:	70e1      	strb	r1, [r4, #3]
   2951c:	9810      	ldr	r0, [sp, #64]	@ 0x40
   2951e:	8020      	strh	r0, [r4, #0]
   29520:	0e08      	lsrs	r0, r1, #24
   29522:	71a0      	strb	r0, [r4, #6]
   29524:	0c08      	lsrs	r0, r1, #16
   29526:	7160      	strb	r0, [r4, #5]
   29528:	0a08      	lsrs	r0, r1, #8
   2952a:	7120      	strb	r0, [r4, #4]
   2952c:	a810      	add	r0, sp, #64	@ 0x40
   2952e:	7880      	ldrb	r0, [r0, #2]
   29530:	70a0      	strb	r0, [r4, #2]
   29532:	1de0      	adds	r0, r4, #7
   29534:	4963      	ldr	r1, [pc, #396]	@ (296c4 <_start+0x1ac4>)
   29536:	4469      	add	r1, sp
   29538:	220d      	movs	r2, #13
   2953a:	f002 f886 	bl	2b64a <__aeabi_memcpy>
   2953e:	4d60      	ldr	r5, [pc, #384]	@ (296c0 <_start+0x1ac0>)
   29540:	446d      	add	r5, sp
   29542:	4628      	mov	r0, r5
   29544:	4621      	mov	r1, r4
   29546:	f7f9 fa59 	bl	229fc <_ZN20complex_dynamic_type3app17h3fb2caca24b3ce4aE>
   2954a:	7828      	ldrb	r0, [r5, #0]
   2954c:	2801      	cmp	r0, #1
   2954e:	d103      	bne.n	29558 <_start+0x1958>
   29550:	990d      	ldr	r1, [sp, #52]	@ 0x34
   29552:	6e09      	ldr	r1, [r1, #96]	@ 0x60
   29554:	910f      	str	r1, [sp, #60]	@ 0x3c
   29556:	e015      	b.n	29584 <_start+0x1984>
   29558:	4959      	ldr	r1, [pc, #356]	@ (296c0 <_start+0x1ac0>)
   2955a:	4469      	add	r1, sp
   2955c:	78ca      	ldrb	r2, [r1, #3]
   2955e:	ab10      	add	r3, sp, #64	@ 0x40
   29560:	709a      	strb	r2, [r3, #2]
   29562:	784a      	ldrb	r2, [r1, #1]
   29564:	788c      	ldrb	r4, [r1, #2]
   29566:	0224      	lsls	r4, r4, #8
   29568:	18a2      	adds	r2, r4, r2
   2956a:	801a      	strh	r2, [r3, #0]
   2956c:	3108      	adds	r1, #8
   2956e:	9a0d      	ldr	r2, [sp, #52]	@ 0x34
   29570:	6e12      	ldr	r2, [r2, #96]	@ 0x60
   29572:	920f      	str	r2, [sp, #60]	@ 0x3c
   29574:	4a53      	ldr	r2, [pc, #332]	@ (296c4 <_start+0x1ac4>)
   29576:	446a      	add	r2, sp
   29578:	c938      	ldmia	r1!, {r3, r4, r5}
   2957a:	c238      	stmia	r2!, {r3, r4, r5}
   2957c:	c938      	ldmia	r1!, {r3, r4, r5}
   2957e:	c238      	stmia	r2!, {r3, r4, r5}
   29580:	c938      	ldmia	r1!, {r3, r4, r5}
   29582:	c238      	stmia	r2!, {r3, r4, r5}
   29584:	2800      	cmp	r0, #0
   29586:	d001      	beq.n	2958c <_start+0x198c>
   29588:	f001 fe3b 	bl	2b202 <_start+0x3602>
   2958c:	4c53      	ldr	r4, [pc, #332]	@ (296dc <_start+0x1adc>)
   2958e:	446c      	add	r4, sp
   29590:	990f      	ldr	r1, [sp, #60]	@ 0x3c
   29592:	70e1      	strb	r1, [r4, #3]
   29594:	9810      	ldr	r0, [sp, #64]	@ 0x40
   29596:	8020      	strh	r0, [r4, #0]
   29598:	0e08      	lsrs	r0, r1, #24
   2959a:	71a0      	strb	r0, [r4, #6]
   2959c:	0c08      	lsrs	r0, r1, #16
   2959e:	7160      	strb	r0, [r4, #5]
   295a0:	0a08      	lsrs	r0, r1, #8
   295a2:	7120      	strb	r0, [r4, #4]
   295a4:	a810      	add	r0, sp, #64	@ 0x40
   295a6:	7880      	ldrb	r0, [r0, #2]
   295a8:	70a0      	strb	r0, [r4, #2]
   295aa:	1de0      	adds	r0, r4, #7
   295ac:	4945      	ldr	r1, [pc, #276]	@ (296c4 <_start+0x1ac4>)
   295ae:	4469      	add	r1, sp
   295b0:	2224      	movs	r2, #36	@ 0x24
   295b2:	f002 f84a 	bl	2b64a <__aeabi_memcpy>
   295b6:	4d42      	ldr	r5, [pc, #264]	@ (296c0 <_start+0x1ac0>)
   295b8:	446d      	add	r5, sp
   295ba:	4628      	mov	r0, r5
   295bc:	4621      	mov	r1, r4
   295be:	f7f9 ff6f 	bl	234a0 <_ZN20complex_dynamic_type3app17h681b86d914387271E>
   295c2:	7828      	ldrb	r0, [r5, #0]
   295c4:	2801      	cmp	r0, #1
   295c6:	d103      	bne.n	295d0 <_start+0x19d0>
   295c8:	990d      	ldr	r1, [sp, #52]	@ 0x34
   295ca:	6e09      	ldr	r1, [r1, #96]	@ 0x60
   295cc:	910f      	str	r1, [sp, #60]	@ 0x3c
   295ce:	e017      	b.n	29600 <_start+0x1a00>
   295d0:	493b      	ldr	r1, [pc, #236]	@ (296c0 <_start+0x1ac0>)
   295d2:	4469      	add	r1, sp
   295d4:	78ca      	ldrb	r2, [r1, #3]
   295d6:	ab10      	add	r3, sp, #64	@ 0x40
   295d8:	709a      	strb	r2, [r3, #2]
   295da:	784a      	ldrb	r2, [r1, #1]
   295dc:	788c      	ldrb	r4, [r1, #2]
   295de:	0224      	lsls	r4, r4, #8
   295e0:	18a2      	adds	r2, r4, r2
   295e2:	801a      	strh	r2, [r3, #0]
   295e4:	3108      	adds	r1, #8
   295e6:	9a0d      	ldr	r2, [sp, #52]	@ 0x34
   295e8:	6e12      	ldr	r2, [r2, #96]	@ 0x60
   295ea:	920f      	str	r2, [sp, #60]	@ 0x3c
   295ec:	4a35      	ldr	r2, [pc, #212]	@ (296c4 <_start+0x1ac4>)
   295ee:	446a      	add	r2, sp
   295f0:	c918      	ldmia	r1!, {r3, r4}
   295f2:	c218      	stmia	r2!, {r3, r4}
   295f4:	c938      	ldmia	r1!, {r3, r4, r5}
   295f6:	c238      	stmia	r2!, {r3, r4, r5}
   295f8:	880b      	ldrh	r3, [r1, #0]
   295fa:	8013      	strh	r3, [r2, #0]
   295fc:	7889      	ldrb	r1, [r1, #2]
   295fe:	7091      	strb	r1, [r2, #2]
   29600:	2800      	cmp	r0, #0
   29602:	d001      	beq.n	29608 <_start+0x1a08>
   29604:	f001 fdfd 	bl	2b202 <_start+0x3602>
   29608:	4c35      	ldr	r4, [pc, #212]	@ (296e0 <_start+0x1ae0>)
   2960a:	446c      	add	r4, sp
   2960c:	990f      	ldr	r1, [sp, #60]	@ 0x3c
   2960e:	70e1      	strb	r1, [r4, #3]
   29610:	9810      	ldr	r0, [sp, #64]	@ 0x40
   29612:	8020      	strh	r0, [r4, #0]
   29614:	0e08      	lsrs	r0, r1, #24
   29616:	71a0      	strb	r0, [r4, #6]
   29618:	0c08      	lsrs	r0, r1, #16
   2961a:	7160      	strb	r0, [r4, #5]
   2961c:	0a08      	lsrs	r0, r1, #8
   2961e:	7120      	strb	r0, [r4, #4]
   29620:	a810      	add	r0, sp, #64	@ 0x40
   29622:	7880      	ldrb	r0, [r0, #2]
   29624:	70a0      	strb	r0, [r4, #2]
   29626:	1de0      	adds	r0, r4, #7
   29628:	4926      	ldr	r1, [pc, #152]	@ (296c4 <_start+0x1ac4>)
   2962a:	4469      	add	r1, sp
   2962c:	2217      	movs	r2, #23
   2962e:	f002 f80c 	bl	2b64a <__aeabi_memcpy>
   29632:	4d23      	ldr	r5, [pc, #140]	@ (296c0 <_start+0x1ac0>)
   29634:	446d      	add	r5, sp
   29636:	4628      	mov	r0, r5
   29638:	4621      	mov	r1, r4
   2963a:	f7fa fb5f 	bl	23cfc <_ZN20complex_dynamic_type3app17h7739e179100a642dE>
   2963e:	782c      	ldrb	r4, [r5, #0]
   29640:	2c01      	cmp	r4, #1
   29642:	d103      	bne.n	2964c <_start+0x1a4c>
   29644:	980d      	ldr	r0, [sp, #52]	@ 0x34
   29646:	6e00      	ldr	r0, [r0, #96]	@ 0x60
   29648:	900f      	str	r0, [sp, #60]	@ 0x3c
   2964a:	e012      	b.n	29672 <_start+0x1a72>
   2964c:	491c      	ldr	r1, [pc, #112]	@ (296c0 <_start+0x1ac0>)
   2964e:	4469      	add	r1, sp
   29650:	78c8      	ldrb	r0, [r1, #3]
   29652:	aa10      	add	r2, sp, #64	@ 0x40
   29654:	7090      	strb	r0, [r2, #2]
   29656:	7848      	ldrb	r0, [r1, #1]
   29658:	788b      	ldrb	r3, [r1, #2]
   2965a:	021b      	lsls	r3, r3, #8
   2965c:	1818      	adds	r0, r3, r0
   2965e:	8010      	strh	r0, [r2, #0]
   29660:	980d      	ldr	r0, [sp, #52]	@ 0x34
   29662:	6e00      	ldr	r0, [r0, #96]	@ 0x60
   29664:	900f      	str	r0, [sp, #60]	@ 0x3c
   29666:	3108      	adds	r1, #8
   29668:	4816      	ldr	r0, [pc, #88]	@ (296c4 <_start+0x1ac4>)
   2966a:	4468      	add	r0, sp
   2966c:	224a      	movs	r2, #74	@ 0x4a
   2966e:	f001 fe8c 	bl	2b38a <__aeabi_memcpy4>
   29672:	2c00      	cmp	r4, #0
   29674:	d001      	beq.n	2967a <_start+0x1a7a>
   29676:	f001 fdc4 	bl	2b202 <_start+0x3602>
   2967a:	4c1a      	ldr	r4, [pc, #104]	@ (296e4 <_start+0x1ae4>)
   2967c:	446c      	add	r4, sp
   2967e:	990f      	ldr	r1, [sp, #60]	@ 0x3c
   29680:	70e1      	strb	r1, [r4, #3]
   29682:	9810      	ldr	r0, [sp, #64]	@ 0x40
   29684:	8020      	strh	r0, [r4, #0]
   29686:	0e08      	lsrs	r0, r1, #24
   29688:	71a0      	strb	r0, [r4, #6]
   2968a:	0c08      	lsrs	r0, r1, #16
   2968c:	7160      	strb	r0, [r4, #5]
   2968e:	0a08      	lsrs	r0, r1, #8
   29690:	7120      	strb	r0, [r4, #4]
   29692:	a810      	add	r0, sp, #64	@ 0x40
   29694:	7880      	ldrb	r0, [r0, #2]
   29696:	70a0      	strb	r0, [r4, #2]
   29698:	1de0      	adds	r0, r4, #7
   2969a:	490a      	ldr	r1, [pc, #40]	@ (296c4 <_start+0x1ac4>)
   2969c:	4469      	add	r1, sp
   2969e:	224a      	movs	r2, #74	@ 0x4a
   296a0:	f001 ffd3 	bl	2b64a <__aeabi_memcpy>
   296a4:	4d06      	ldr	r5, [pc, #24]	@ (296c0 <_start+0x1ac0>)
   296a6:	446d      	add	r5, sp
   296a8:	4628      	mov	r0, r5
   296aa:	4621      	mov	r1, r4
   296ac:	f7f8 ff44 	bl	22538 <_ZN20complex_dynamic_type3app17h36e204da69e37869E>
   296b0:	7829      	ldrb	r1, [r5, #0]
   296b2:	2901      	cmp	r1, #1
   296b4:	d118      	bne.n	296e8 <_start+0x1ae8>
   296b6:	980d      	ldr	r0, [sp, #52]	@ 0x34
   296b8:	6e00      	ldr	r0, [r0, #96]	@ 0x60
   296ba:	900f      	str	r0, [sp, #60]	@ 0x3c
   296bc:	e024      	b.n	29708 <_start+0x1b08>
   296be:	46c0      	nop			@ (mov r8, r8)
   296c0:	00001414 	.word	0x00001414
   296c4:	000013b8 	.word	0x000013b8
   296c8:	00000630 	.word	0x00000630
   296cc:	00000684 	.word	0x00000684
   296d0:	000006d4 	.word	0x000006d4
   296d4:	00000710 	.word	0x00000710
   296d8:	00000738 	.word	0x00000738
   296dc:	0000074c 	.word	0x0000074c
   296e0:	00000778 	.word	0x00000778
   296e4:	00000798 	.word	0x00000798
   296e8:	48ef      	ldr	r0, [pc, #956]	@ (29aa8 <_start+0x1ea8>)
   296ea:	4468      	add	r0, sp
   296ec:	78c2      	ldrb	r2, [r0, #3]
   296ee:	4bef      	ldr	r3, [pc, #956]	@ (29aac <_start+0x1eac>)
   296f0:	446b      	add	r3, sp
   296f2:	709a      	strb	r2, [r3, #2]
   296f4:	7842      	ldrb	r2, [r0, #1]
   296f6:	7880      	ldrb	r0, [r0, #2]
   296f8:	0200      	lsls	r0, r0, #8
   296fa:	1880      	adds	r0, r0, r2
   296fc:	8018      	strh	r0, [r3, #0]
   296fe:	980d      	ldr	r0, [sp, #52]	@ 0x34
   29700:	6e02      	ldr	r2, [r0, #96]	@ 0x60
   29702:	920f      	str	r2, [sp, #60]	@ 0x3c
   29704:	6e42      	ldr	r2, [r0, #100]	@ 0x64
   29706:	6e80      	ldr	r0, [r0, #104]	@ 0x68
   29708:	2900      	cmp	r1, #0
   2970a:	d001      	beq.n	29710 <_start+0x1b10>
   2970c:	f001 fd79 	bl	2b202 <_start+0x3602>
   29710:	9905      	ldr	r1, [sp, #20]
   29712:	1ccb      	adds	r3, r1, #3
   29714:	711a      	strb	r2, [r3, #4]
   29716:	9d0f      	ldr	r5, [sp, #60]	@ 0x3c
   29718:	701d      	strb	r5, [r3, #0]
   2971a:	49e5      	ldr	r1, [pc, #916]	@ (29ab0 <_start+0x1eb0>)
   2971c:	4469      	add	r1, sp
   2971e:	9c0d      	ldr	r4, [sp, #52]	@ 0x34
   29720:	6824      	ldr	r4, [r4, #0]
   29722:	800c      	strh	r4, [r1, #0]
   29724:	7218      	strb	r0, [r3, #8]
   29726:	0e14      	lsrs	r4, r2, #24
   29728:	71dc      	strb	r4, [r3, #7]
   2972a:	0c14      	lsrs	r4, r2, #16
   2972c:	719c      	strb	r4, [r3, #6]
   2972e:	0a12      	lsrs	r2, r2, #8
   29730:	715a      	strb	r2, [r3, #5]
   29732:	0e2a      	lsrs	r2, r5, #24
   29734:	70da      	strb	r2, [r3, #3]
   29736:	0c2a      	lsrs	r2, r5, #16
   29738:	709a      	strb	r2, [r3, #2]
   2973a:	0a2a      	lsrs	r2, r5, #8
   2973c:	705a      	strb	r2, [r3, #1]
   2973e:	4adb      	ldr	r2, [pc, #876]	@ (29aac <_start+0x1eac>)
   29740:	446a      	add	r2, sp
   29742:	7892      	ldrb	r2, [r2, #2]
   29744:	708a      	strb	r2, [r1, #2]
   29746:	0e02      	lsrs	r2, r0, #24
   29748:	72da      	strb	r2, [r3, #11]
   2974a:	0c02      	lsrs	r2, r0, #16
   2974c:	729a      	strb	r2, [r3, #10]
   2974e:	0a00      	lsrs	r0, r0, #8
   29750:	7258      	strb	r0, [r3, #9]
   29752:	4cd5      	ldr	r4, [pc, #852]	@ (29aa8 <_start+0x1ea8>)
   29754:	446c      	add	r4, sp
   29756:	4620      	mov	r0, r4
   29758:	f7f7 ff3a 	bl	215d0 <_ZN20complex_dynamic_type3app17h16a386a4d94a04caE>
   2975c:	7820      	ldrb	r0, [r4, #0]
   2975e:	2801      	cmp	r0, #1
   29760:	d103      	bne.n	2976a <_start+0x1b6a>
   29762:	990d      	ldr	r1, [sp, #52]	@ 0x34
   29764:	6e09      	ldr	r1, [r1, #96]	@ 0x60
   29766:	910f      	str	r1, [sp, #60]	@ 0x3c
   29768:	e01b      	b.n	297a2 <_start+0x1ba2>
   2976a:	49cf      	ldr	r1, [pc, #828]	@ (29aa8 <_start+0x1ea8>)
   2976c:	4469      	add	r1, sp
   2976e:	78ca      	ldrb	r2, [r1, #3]
   29770:	ab10      	add	r3, sp, #64	@ 0x40
   29772:	709a      	strb	r2, [r3, #2]
   29774:	784a      	ldrb	r2, [r1, #1]
   29776:	788c      	ldrb	r4, [r1, #2]
   29778:	0224      	lsls	r4, r4, #8
   2977a:	18a2      	adds	r2, r4, r2
   2977c:	801a      	strh	r2, [r3, #0]
   2977e:	3108      	adds	r1, #8
   29780:	9a0d      	ldr	r2, [sp, #52]	@ 0x34
   29782:	6e12      	ldr	r2, [r2, #96]	@ 0x60
   29784:	920f      	str	r2, [sp, #60]	@ 0x3c
   29786:	4ac9      	ldr	r2, [pc, #804]	@ (29aac <_start+0x1eac>)
   29788:	446a      	add	r2, sp
   2978a:	c938      	ldmia	r1!, {r3, r4, r5}
   2978c:	c238      	stmia	r2!, {r3, r4, r5}
   2978e:	c978      	ldmia	r1!, {r3, r4, r5, r6}
   29790:	c278      	stmia	r2!, {r3, r4, r5, r6}
   29792:	c978      	ldmia	r1!, {r3, r4, r5, r6}
   29794:	c278      	stmia	r2!, {r3, r4, r5, r6}
   29796:	c978      	ldmia	r1!, {r3, r4, r5, r6}
   29798:	c278      	stmia	r2!, {r3, r4, r5, r6}
   2979a:	880b      	ldrh	r3, [r1, #0]
   2979c:	8013      	strh	r3, [r2, #0]
   2979e:	7889      	ldrb	r1, [r1, #2]
   297a0:	7091      	strb	r1, [r2, #2]
   297a2:	2800      	cmp	r0, #0
   297a4:	d001      	beq.n	297aa <_start+0x1baa>
   297a6:	f001 fd2c 	bl	2b202 <_start+0x3602>
   297aa:	4cc2      	ldr	r4, [pc, #776]	@ (29ab4 <_start+0x1eb4>)
   297ac:	446c      	add	r4, sp
   297ae:	990f      	ldr	r1, [sp, #60]	@ 0x3c
   297b0:	70e1      	strb	r1, [r4, #3]
   297b2:	9810      	ldr	r0, [sp, #64]	@ 0x40
   297b4:	8020      	strh	r0, [r4, #0]
   297b6:	0e08      	lsrs	r0, r1, #24
   297b8:	71a0      	strb	r0, [r4, #6]
   297ba:	0c08      	lsrs	r0, r1, #16
   297bc:	7160      	strb	r0, [r4, #5]
   297be:	0a08      	lsrs	r0, r1, #8
   297c0:	7120      	strb	r0, [r4, #4]
   297c2:	a810      	add	r0, sp, #64	@ 0x40
   297c4:	7880      	ldrb	r0, [r0, #2]
   297c6:	70a0      	strb	r0, [r4, #2]
   297c8:	1de0      	adds	r0, r4, #7
   297ca:	49b8      	ldr	r1, [pc, #736]	@ (29aac <_start+0x1eac>)
   297cc:	4469      	add	r1, sp
   297ce:	223f      	movs	r2, #63	@ 0x3f
   297d0:	f001 ff3b 	bl	2b64a <__aeabi_memcpy>
   297d4:	4db4      	ldr	r5, [pc, #720]	@ (29aa8 <_start+0x1ea8>)
   297d6:	446d      	add	r5, sp
   297d8:	4628      	mov	r0, r5
   297da:	4621      	mov	r1, r4
   297dc:	f7f9 fd34 	bl	23248 <_ZN20complex_dynamic_type3app17h649112c45f58b54dE>
   297e0:	782c      	ldrb	r4, [r5, #0]
   297e2:	2c01      	cmp	r4, #1
   297e4:	d103      	bne.n	297ee <_start+0x1bee>
   297e6:	980d      	ldr	r0, [sp, #52]	@ 0x34
   297e8:	6e00      	ldr	r0, [r0, #96]	@ 0x60
   297ea:	900f      	str	r0, [sp, #60]	@ 0x3c
   297ec:	e012      	b.n	29814 <_start+0x1c14>
   297ee:	49ae      	ldr	r1, [pc, #696]	@ (29aa8 <_start+0x1ea8>)
   297f0:	4469      	add	r1, sp
   297f2:	78c8      	ldrb	r0, [r1, #3]
   297f4:	aa10      	add	r2, sp, #64	@ 0x40
   297f6:	7090      	strb	r0, [r2, #2]
   297f8:	7848      	ldrb	r0, [r1, #1]
   297fa:	788b      	ldrb	r3, [r1, #2]
   297fc:	021b      	lsls	r3, r3, #8
   297fe:	1818      	adds	r0, r3, r0
   29800:	8010      	strh	r0, [r2, #0]
   29802:	980d      	ldr	r0, [sp, #52]	@ 0x34
   29804:	6e00      	ldr	r0, [r0, #96]	@ 0x60
   29806:	900f      	str	r0, [sp, #60]	@ 0x3c
   29808:	3108      	adds	r1, #8
   2980a:	48a8      	ldr	r0, [pc, #672]	@ (29aac <_start+0x1eac>)
   2980c:	4468      	add	r0, sp
   2980e:	224f      	movs	r2, #79	@ 0x4f
   29810:	f001 fdbb 	bl	2b38a <__aeabi_memcpy4>
   29814:	2c00      	cmp	r4, #0
   29816:	d001      	beq.n	2981c <_start+0x1c1c>
   29818:	f001 fcf3 	bl	2b202 <_start+0x3602>
   2981c:	4ca6      	ldr	r4, [pc, #664]	@ (29ab8 <_start+0x1eb8>)
   2981e:	446c      	add	r4, sp
   29820:	990f      	ldr	r1, [sp, #60]	@ 0x3c
   29822:	70e1      	strb	r1, [r4, #3]
   29824:	9810      	ldr	r0, [sp, #64]	@ 0x40
   29826:	8020      	strh	r0, [r4, #0]
   29828:	0e08      	lsrs	r0, r1, #24
   2982a:	71a0      	strb	r0, [r4, #6]
   2982c:	0c08      	lsrs	r0, r1, #16
   2982e:	7160      	strb	r0, [r4, #5]
   29830:	0a08      	lsrs	r0, r1, #8
   29832:	7120      	strb	r0, [r4, #4]
   29834:	a810      	add	r0, sp, #64	@ 0x40
   29836:	7880      	ldrb	r0, [r0, #2]
   29838:	70a0      	strb	r0, [r4, #2]
   2983a:	1de0      	adds	r0, r4, #7
   2983c:	499b      	ldr	r1, [pc, #620]	@ (29aac <_start+0x1eac>)
   2983e:	4469      	add	r1, sp
   29840:	224f      	movs	r2, #79	@ 0x4f
   29842:	f001 ff02 	bl	2b64a <__aeabi_memcpy>
   29846:	4d98      	ldr	r5, [pc, #608]	@ (29aa8 <_start+0x1ea8>)
   29848:	446d      	add	r5, sp
   2984a:	4628      	mov	r0, r5
   2984c:	4621      	mov	r1, r4
   2984e:	f7fc fcc1 	bl	261d4 <_ZN20complex_dynamic_type3app17hd1764c7217dc943cE>
   29852:	782c      	ldrb	r4, [r5, #0]
   29854:	2c01      	cmp	r4, #1
   29856:	d103      	bne.n	29860 <_start+0x1c60>
   29858:	980d      	ldr	r0, [sp, #52]	@ 0x34
   2985a:	6e00      	ldr	r0, [r0, #96]	@ 0x60
   2985c:	900f      	str	r0, [sp, #60]	@ 0x3c
   2985e:	e012      	b.n	29886 <_start+0x1c86>
   29860:	4991      	ldr	r1, [pc, #580]	@ (29aa8 <_start+0x1ea8>)
   29862:	4469      	add	r1, sp
   29864:	78c8      	ldrb	r0, [r1, #3]
   29866:	aa10      	add	r2, sp, #64	@ 0x40
   29868:	7090      	strb	r0, [r2, #2]
   2986a:	7848      	ldrb	r0, [r1, #1]
   2986c:	788b      	ldrb	r3, [r1, #2]
   2986e:	021b      	lsls	r3, r3, #8
   29870:	1818      	adds	r0, r3, r0
   29872:	8010      	strh	r0, [r2, #0]
   29874:	980d      	ldr	r0, [sp, #52]	@ 0x34
   29876:	6e00      	ldr	r0, [r0, #96]	@ 0x60
   29878:	900f      	str	r0, [sp, #60]	@ 0x3c
   2987a:	3108      	adds	r1, #8
   2987c:	488b      	ldr	r0, [pc, #556]	@ (29aac <_start+0x1eac>)
   2987e:	4468      	add	r0, sp
   29880:	2242      	movs	r2, #66	@ 0x42
   29882:	f001 fd82 	bl	2b38a <__aeabi_memcpy4>
   29886:	2c00      	cmp	r4, #0
   29888:	d001      	beq.n	2988e <_start+0x1c8e>
   2988a:	f001 fcba 	bl	2b202 <_start+0x3602>
   2988e:	4c8b      	ldr	r4, [pc, #556]	@ (29abc <_start+0x1ebc>)
   29890:	446c      	add	r4, sp
   29892:	990f      	ldr	r1, [sp, #60]	@ 0x3c
   29894:	70e1      	strb	r1, [r4, #3]
   29896:	9810      	ldr	r0, [sp, #64]	@ 0x40
   29898:	8020      	strh	r0, [r4, #0]
   2989a:	0e08      	lsrs	r0, r1, #24
   2989c:	71a0      	strb	r0, [r4, #6]
   2989e:	0c08      	lsrs	r0, r1, #16
   298a0:	7160      	strb	r0, [r4, #5]
   298a2:	0a08      	lsrs	r0, r1, #8
   298a4:	7120      	strb	r0, [r4, #4]
   298a6:	a810      	add	r0, sp, #64	@ 0x40
   298a8:	7880      	ldrb	r0, [r0, #2]
   298aa:	70a0      	strb	r0, [r4, #2]
   298ac:	1de0      	adds	r0, r4, #7
   298ae:	497f      	ldr	r1, [pc, #508]	@ (29aac <_start+0x1eac>)
   298b0:	4469      	add	r1, sp
   298b2:	2242      	movs	r2, #66	@ 0x42
   298b4:	f001 fec9 	bl	2b64a <__aeabi_memcpy>
   298b8:	4d7b      	ldr	r5, [pc, #492]	@ (29aa8 <_start+0x1ea8>)
   298ba:	446d      	add	r5, sp
   298bc:	4628      	mov	r0, r5
   298be:	4621      	mov	r1, r4
   298c0:	f7fc f994 	bl	25bec <_ZN20complex_dynamic_type3app17hbbbf09012022e254E>
   298c4:	7828      	ldrb	r0, [r5, #0]
   298c6:	2801      	cmp	r0, #1
   298c8:	d103      	bne.n	298d2 <_start+0x1cd2>
   298ca:	990d      	ldr	r1, [sp, #52]	@ 0x34
   298cc:	6e09      	ldr	r1, [r1, #96]	@ 0x60
   298ce:	910f      	str	r1, [sp, #60]	@ 0x3c
   298d0:	e013      	b.n	298fa <_start+0x1cfa>
   298d2:	4975      	ldr	r1, [pc, #468]	@ (29aa8 <_start+0x1ea8>)
   298d4:	4469      	add	r1, sp
   298d6:	78ca      	ldrb	r2, [r1, #3]
   298d8:	ab10      	add	r3, sp, #64	@ 0x40
   298da:	709a      	strb	r2, [r3, #2]
   298dc:	784a      	ldrb	r2, [r1, #1]
   298de:	788c      	ldrb	r4, [r1, #2]
   298e0:	0224      	lsls	r4, r4, #8
   298e2:	18a2      	adds	r2, r4, r2
   298e4:	801a      	strh	r2, [r3, #0]
   298e6:	3108      	adds	r1, #8
   298e8:	9a0d      	ldr	r2, [sp, #52]	@ 0x34
   298ea:	6e12      	ldr	r2, [r2, #96]	@ 0x60
   298ec:	920f      	str	r2, [sp, #60]	@ 0x3c
   298ee:	4a6f      	ldr	r2, [pc, #444]	@ (29aac <_start+0x1eac>)
   298f0:	446a      	add	r2, sp
   298f2:	c938      	ldmia	r1!, {r3, r4, r5}
   298f4:	c238      	stmia	r2!, {r3, r4, r5}
   298f6:	c978      	ldmia	r1!, {r3, r4, r5, r6}
   298f8:	c278      	stmia	r2!, {r3, r4, r5, r6}
   298fa:	2800      	cmp	r0, #0
   298fc:	d001      	beq.n	29902 <_start+0x1d02>
   298fe:	f001 fc80 	bl	2b202 <_start+0x3602>
   29902:	4c6f      	ldr	r4, [pc, #444]	@ (29ac0 <_start+0x1ec0>)
   29904:	446c      	add	r4, sp
   29906:	990f      	ldr	r1, [sp, #60]	@ 0x3c
   29908:	70e1      	strb	r1, [r4, #3]
   2990a:	9810      	ldr	r0, [sp, #64]	@ 0x40
   2990c:	8020      	strh	r0, [r4, #0]
   2990e:	0e08      	lsrs	r0, r1, #24
   29910:	71a0      	strb	r0, [r4, #6]
   29912:	0c08      	lsrs	r0, r1, #16
   29914:	7160      	strb	r0, [r4, #5]
   29916:	0a08      	lsrs	r0, r1, #8
   29918:	7120      	strb	r0, [r4, #4]
   2991a:	a810      	add	r0, sp, #64	@ 0x40
   2991c:	7880      	ldrb	r0, [r0, #2]
   2991e:	70a0      	strb	r0, [r4, #2]
   29920:	1de0      	adds	r0, r4, #7
   29922:	4962      	ldr	r1, [pc, #392]	@ (29aac <_start+0x1eac>)
   29924:	4469      	add	r1, sp
   29926:	221c      	movs	r2, #28
   29928:	f001 fe8f 	bl	2b64a <__aeabi_memcpy>
   2992c:	4d5e      	ldr	r5, [pc, #376]	@ (29aa8 <_start+0x1ea8>)
   2992e:	446d      	add	r5, sp
   29930:	4628      	mov	r0, r5
   29932:	4621      	mov	r1, r4
   29934:	f7fd fb78 	bl	27028 <_ZN20complex_dynamic_type3app17he97e79da1458cbb4E>
   29938:	7828      	ldrb	r0, [r5, #0]
   2993a:	2801      	cmp	r0, #1
   2993c:	d103      	bne.n	29946 <_start+0x1d46>
   2993e:	990d      	ldr	r1, [sp, #52]	@ 0x34
   29940:	6e09      	ldr	r1, [r1, #96]	@ 0x60
   29942:	910f      	str	r1, [sp, #60]	@ 0x3c
   29944:	e015      	b.n	29972 <_start+0x1d72>
   29946:	4958      	ldr	r1, [pc, #352]	@ (29aa8 <_start+0x1ea8>)
   29948:	4469      	add	r1, sp
   2994a:	78ca      	ldrb	r2, [r1, #3]
   2994c:	ab10      	add	r3, sp, #64	@ 0x40
   2994e:	709a      	strb	r2, [r3, #2]
   29950:	784a      	ldrb	r2, [r1, #1]
   29952:	788c      	ldrb	r4, [r1, #2]
   29954:	0224      	lsls	r4, r4, #8
   29956:	18a2      	adds	r2, r4, r2
   29958:	801a      	strh	r2, [r3, #0]
   2995a:	3108      	adds	r1, #8
   2995c:	9a0d      	ldr	r2, [sp, #52]	@ 0x34
   2995e:	6e12      	ldr	r2, [r2, #96]	@ 0x60
   29960:	920f      	str	r2, [sp, #60]	@ 0x3c
   29962:	4a52      	ldr	r2, [pc, #328]	@ (29aac <_start+0x1eac>)
   29964:	446a      	add	r2, sp
   29966:	c938      	ldmia	r1!, {r3, r4, r5}
   29968:	c238      	stmia	r2!, {r3, r4, r5}
   2996a:	c938      	ldmia	r1!, {r3, r4, r5}
   2996c:	c238      	stmia	r2!, {r3, r4, r5}
   2996e:	c938      	ldmia	r1!, {r3, r4, r5}
   29970:	c238      	stmia	r2!, {r3, r4, r5}
   29972:	2800      	cmp	r0, #0
   29974:	d001      	beq.n	2997a <_start+0x1d7a>
   29976:	f001 fc44 	bl	2b202 <_start+0x3602>
   2997a:	4c52      	ldr	r4, [pc, #328]	@ (29ac4 <_start+0x1ec4>)
   2997c:	446c      	add	r4, sp
   2997e:	990f      	ldr	r1, [sp, #60]	@ 0x3c
   29980:	70e1      	strb	r1, [r4, #3]
   29982:	9810      	ldr	r0, [sp, #64]	@ 0x40
   29984:	8020      	strh	r0, [r4, #0]
   29986:	0e08      	lsrs	r0, r1, #24
   29988:	71a0      	strb	r0, [r4, #6]
   2998a:	0c08      	lsrs	r0, r1, #16
   2998c:	7160      	strb	r0, [r4, #5]
   2998e:	0a08      	lsrs	r0, r1, #8
   29990:	7120      	strb	r0, [r4, #4]
   29992:	a810      	add	r0, sp, #64	@ 0x40
   29994:	7880      	ldrb	r0, [r0, #2]
   29996:	70a0      	strb	r0, [r4, #2]
   29998:	1de0      	adds	r0, r4, #7
   2999a:	4944      	ldr	r1, [pc, #272]	@ (29aac <_start+0x1eac>)
   2999c:	4469      	add	r1, sp
   2999e:	2224      	movs	r2, #36	@ 0x24
   299a0:	f001 fe53 	bl	2b64a <__aeabi_memcpy>
   299a4:	4d40      	ldr	r5, [pc, #256]	@ (29aa8 <_start+0x1ea8>)
   299a6:	446d      	add	r5, sp
   299a8:	4628      	mov	r0, r5
   299aa:	4621      	mov	r1, r4
   299ac:	f7fa f90c 	bl	23bc8 <_ZN20complex_dynamic_type3app17h73474d01e84c111cE>
   299b0:	7828      	ldrb	r0, [r5, #0]
   299b2:	2801      	cmp	r0, #1
   299b4:	d102      	bne.n	299bc <_start+0x1dbc>
   299b6:	990d      	ldr	r1, [sp, #52]	@ 0x34
   299b8:	6e09      	ldr	r1, [r1, #96]	@ 0x60
   299ba:	e011      	b.n	299e0 <_start+0x1de0>
   299bc:	493b      	ldr	r1, [pc, #236]	@ (29aac <_start+0x1eac>)
   299be:	4469      	add	r1, sp
   299c0:	9c0d      	ldr	r4, [sp, #52]	@ 0x34
   299c2:	6ea2      	ldr	r2, [r4, #104]	@ 0x68
   299c4:	808a      	strh	r2, [r1, #4]
   299c6:	4938      	ldr	r1, [pc, #224]	@ (29aa8 <_start+0x1ea8>)
   299c8:	4469      	add	r1, sp
   299ca:	78ca      	ldrb	r2, [r1, #3]
   299cc:	ab10      	add	r3, sp, #64	@ 0x40
   299ce:	709a      	strb	r2, [r3, #2]
   299d0:	784a      	ldrb	r2, [r1, #1]
   299d2:	7889      	ldrb	r1, [r1, #2]
   299d4:	0209      	lsls	r1, r1, #8
   299d6:	1889      	adds	r1, r1, r2
   299d8:	8019      	strh	r1, [r3, #0]
   299da:	6e61      	ldr	r1, [r4, #100]	@ 0x64
   299dc:	6021      	str	r1, [r4, #0]
   299de:	6e21      	ldr	r1, [r4, #96]	@ 0x60
   299e0:	910f      	str	r1, [sp, #60]	@ 0x3c
   299e2:	2800      	cmp	r0, #0
   299e4:	d001      	beq.n	299ea <_start+0x1dea>
   299e6:	f001 fc0c 	bl	2b202 <_start+0x3602>
   299ea:	4c37      	ldr	r4, [pc, #220]	@ (29ac8 <_start+0x1ec8>)
   299ec:	446c      	add	r4, sp
   299ee:	990f      	ldr	r1, [sp, #60]	@ 0x3c
   299f0:	70e1      	strb	r1, [r4, #3]
   299f2:	9810      	ldr	r0, [sp, #64]	@ 0x40
   299f4:	8020      	strh	r0, [r4, #0]
   299f6:	0e08      	lsrs	r0, r1, #24
   299f8:	71a0      	strb	r0, [r4, #6]
   299fa:	0c08      	lsrs	r0, r1, #16
   299fc:	7160      	strb	r0, [r4, #5]
   299fe:	0a08      	lsrs	r0, r1, #8
   29a00:	7120      	strb	r0, [r4, #4]
   29a02:	a810      	add	r0, sp, #64	@ 0x40
   29a04:	7880      	ldrb	r0, [r0, #2]
   29a06:	70a0      	strb	r0, [r4, #2]
   29a08:	1de0      	adds	r0, r4, #7
   29a0a:	4928      	ldr	r1, [pc, #160]	@ (29aac <_start+0x1eac>)
   29a0c:	4469      	add	r1, sp
   29a0e:	2206      	movs	r2, #6
   29a10:	f001 fe1b 	bl	2b64a <__aeabi_memcpy>
   29a14:	4d24      	ldr	r5, [pc, #144]	@ (29aa8 <_start+0x1ea8>)
   29a16:	446d      	add	r5, sp
   29a18:	4628      	mov	r0, r5
   29a1a:	4621      	mov	r1, r4
   29a1c:	f7fb f9be 	bl	24d9c <_ZN20complex_dynamic_type3app17h9e036daf3c0a155bE>
   29a20:	7828      	ldrb	r0, [r5, #0]
   29a22:	2801      	cmp	r0, #1
   29a24:	d103      	bne.n	29a2e <_start+0x1e2e>
   29a26:	990d      	ldr	r1, [sp, #52]	@ 0x34
   29a28:	6e09      	ldr	r1, [r1, #96]	@ 0x60
   29a2a:	910f      	str	r1, [sp, #60]	@ 0x3c
   29a2c:	e015      	b.n	29a5a <_start+0x1e5a>
   29a2e:	491e      	ldr	r1, [pc, #120]	@ (29aa8 <_start+0x1ea8>)
   29a30:	4469      	add	r1, sp
   29a32:	78ca      	ldrb	r2, [r1, #3]
   29a34:	ab10      	add	r3, sp, #64	@ 0x40
   29a36:	709a      	strb	r2, [r3, #2]
   29a38:	784a      	ldrb	r2, [r1, #1]
   29a3a:	788c      	ldrb	r4, [r1, #2]
   29a3c:	0224      	lsls	r4, r4, #8
   29a3e:	18a2      	adds	r2, r4, r2
   29a40:	801a      	strh	r2, [r3, #0]
   29a42:	3108      	adds	r1, #8
   29a44:	9a0d      	ldr	r2, [sp, #52]	@ 0x34
   29a46:	6e12      	ldr	r2, [r2, #96]	@ 0x60
   29a48:	920f      	str	r2, [sp, #60]	@ 0x3c
   29a4a:	4a18      	ldr	r2, [pc, #96]	@ (29aac <_start+0x1eac>)
   29a4c:	446a      	add	r2, sp
   29a4e:	c938      	ldmia	r1!, {r3, r4, r5}
   29a50:	c238      	stmia	r2!, {r3, r4, r5}
   29a52:	c938      	ldmia	r1!, {r3, r4, r5}
   29a54:	c238      	stmia	r2!, {r3, r4, r5}
   29a56:	8809      	ldrh	r1, [r1, #0]
   29a58:	8011      	strh	r1, [r2, #0]
   29a5a:	2800      	cmp	r0, #0
   29a5c:	d001      	beq.n	29a62 <_start+0x1e62>
   29a5e:	f001 fbd0 	bl	2b202 <_start+0x3602>
   29a62:	4c1a      	ldr	r4, [pc, #104]	@ (29acc <_start+0x1ecc>)
   29a64:	446c      	add	r4, sp
   29a66:	990f      	ldr	r1, [sp, #60]	@ 0x3c
   29a68:	70e1      	strb	r1, [r4, #3]
   29a6a:	9810      	ldr	r0, [sp, #64]	@ 0x40
   29a6c:	8020      	strh	r0, [r4, #0]
   29a6e:	0e08      	lsrs	r0, r1, #24
   29a70:	71a0      	strb	r0, [r4, #6]
   29a72:	0c08      	lsrs	r0, r1, #16
   29a74:	7160      	strb	r0, [r4, #5]
   29a76:	0a08      	lsrs	r0, r1, #8
   29a78:	7120      	strb	r0, [r4, #4]
   29a7a:	a810      	add	r0, sp, #64	@ 0x40
   29a7c:	7880      	ldrb	r0, [r0, #2]
   29a7e:	70a0      	strb	r0, [r4, #2]
   29a80:	1de0      	adds	r0, r4, #7
   29a82:	490a      	ldr	r1, [pc, #40]	@ (29aac <_start+0x1eac>)
   29a84:	4469      	add	r1, sp
   29a86:	221a      	movs	r2, #26
   29a88:	f001 fddf 	bl	2b64a <__aeabi_memcpy>
   29a8c:	4d06      	ldr	r5, [pc, #24]	@ (29aa8 <_start+0x1ea8>)
   29a8e:	446d      	add	r5, sp
   29a90:	4628      	mov	r0, r5
   29a92:	4621      	mov	r1, r4
   29a94:	f7fc fd68 	bl	26568 <_ZN20complex_dynamic_type3app17hd65d792d2399a054E>
   29a98:	782c      	ldrb	r4, [r5, #0]
   29a9a:	2c01      	cmp	r4, #1
   29a9c:	d118      	bne.n	29ad0 <_start+0x1ed0>
   29a9e:	980d      	ldr	r0, [sp, #52]	@ 0x34
   29aa0:	6e00      	ldr	r0, [r0, #96]	@ 0x60
   29aa2:	900f      	str	r0, [sp, #60]	@ 0x3c
   29aa4:	e027      	b.n	29af6 <_start+0x1ef6>
   29aa6:	46c0      	nop			@ (mov r8, r8)
   29aa8:	00001414 	.word	0x00001414
   29aac:	000013b8 	.word	0x000013b8
   29ab0:	000007ec 	.word	0x000007ec
   29ab4:	000007fc 	.word	0x000007fc
   29ab8:	00000844 	.word	0x00000844
   29abc:	0000089c 	.word	0x0000089c
   29ac0:	000008e8 	.word	0x000008e8
   29ac4:	0000090c 	.word	0x0000090c
   29ac8:	00000938 	.word	0x00000938
   29acc:	00000948 	.word	0x00000948
   29ad0:	49ea      	ldr	r1, [pc, #936]	@ (29e7c <_start+0x227c>)
   29ad2:	4469      	add	r1, sp
   29ad4:	78c8      	ldrb	r0, [r1, #3]
   29ad6:	aa10      	add	r2, sp, #64	@ 0x40
   29ad8:	7090      	strb	r0, [r2, #2]
   29ada:	7848      	ldrb	r0, [r1, #1]
   29adc:	788b      	ldrb	r3, [r1, #2]
   29ade:	021b      	lsls	r3, r3, #8
   29ae0:	1818      	adds	r0, r3, r0
   29ae2:	8010      	strh	r0, [r2, #0]
   29ae4:	980d      	ldr	r0, [sp, #52]	@ 0x34
   29ae6:	6e00      	ldr	r0, [r0, #96]	@ 0x60
   29ae8:	900f      	str	r0, [sp, #60]	@ 0x3c
   29aea:	3108      	adds	r1, #8
   29aec:	48e4      	ldr	r0, [pc, #912]	@ (29e80 <_start+0x2280>)
   29aee:	4468      	add	r0, sp
   29af0:	224c      	movs	r2, #76	@ 0x4c
   29af2:	f001 fc4a 	bl	2b38a <__aeabi_memcpy4>
   29af6:	2c00      	cmp	r4, #0
   29af8:	d001      	beq.n	29afe <_start+0x1efe>
   29afa:	f001 fb82 	bl	2b202 <_start+0x3602>
   29afe:	4ce1      	ldr	r4, [pc, #900]	@ (29e84 <_start+0x2284>)
   29b00:	446c      	add	r4, sp
   29b02:	990f      	ldr	r1, [sp, #60]	@ 0x3c
   29b04:	70e1      	strb	r1, [r4, #3]
   29b06:	9810      	ldr	r0, [sp, #64]	@ 0x40
   29b08:	8020      	strh	r0, [r4, #0]
   29b0a:	0e08      	lsrs	r0, r1, #24
   29b0c:	71a0      	strb	r0, [r4, #6]
   29b0e:	0c08      	lsrs	r0, r1, #16
   29b10:	7160      	strb	r0, [r4, #5]
   29b12:	0a08      	lsrs	r0, r1, #8
   29b14:	7120      	strb	r0, [r4, #4]
   29b16:	a810      	add	r0, sp, #64	@ 0x40
   29b18:	7880      	ldrb	r0, [r0, #2]
   29b1a:	70a0      	strb	r0, [r4, #2]
   29b1c:	1de0      	adds	r0, r4, #7
   29b1e:	49d8      	ldr	r1, [pc, #864]	@ (29e80 <_start+0x2280>)
   29b20:	4469      	add	r1, sp
   29b22:	224c      	movs	r2, #76	@ 0x4c
   29b24:	f001 fd91 	bl	2b64a <__aeabi_memcpy>
   29b28:	4dd4      	ldr	r5, [pc, #848]	@ (29e7c <_start+0x227c>)
   29b2a:	446d      	add	r5, sp
   29b2c:	4628      	mov	r0, r5
   29b2e:	4621      	mov	r1, r4
   29b30:	f7f9 fa5c 	bl	22fec <_ZN20complex_dynamic_type3app17h50a8689a49ae3c26E>
   29b34:	782c      	ldrb	r4, [r5, #0]
   29b36:	2c01      	cmp	r4, #1
   29b38:	d103      	bne.n	29b42 <_start+0x1f42>
   29b3a:	980d      	ldr	r0, [sp, #52]	@ 0x34
   29b3c:	6e00      	ldr	r0, [r0, #96]	@ 0x60
   29b3e:	900f      	str	r0, [sp, #60]	@ 0x3c
   29b40:	e012      	b.n	29b68 <_start+0x1f68>
   29b42:	49ce      	ldr	r1, [pc, #824]	@ (29e7c <_start+0x227c>)
   29b44:	4469      	add	r1, sp
   29b46:	78c8      	ldrb	r0, [r1, #3]
   29b48:	aa10      	add	r2, sp, #64	@ 0x40
   29b4a:	7090      	strb	r0, [r2, #2]
   29b4c:	7848      	ldrb	r0, [r1, #1]
   29b4e:	788b      	ldrb	r3, [r1, #2]
   29b50:	021b      	lsls	r3, r3, #8
   29b52:	1818      	adds	r0, r3, r0
   29b54:	8010      	strh	r0, [r2, #0]
   29b56:	980d      	ldr	r0, [sp, #52]	@ 0x34
   29b58:	6e00      	ldr	r0, [r0, #96]	@ 0x60
   29b5a:	900f      	str	r0, [sp, #60]	@ 0x3c
   29b5c:	3108      	adds	r1, #8
   29b5e:	48c8      	ldr	r0, [pc, #800]	@ (29e80 <_start+0x2280>)
   29b60:	4468      	add	r0, sp
   29b62:	2246      	movs	r2, #70	@ 0x46
   29b64:	f001 fc11 	bl	2b38a <__aeabi_memcpy4>
   29b68:	2c00      	cmp	r4, #0
   29b6a:	d001      	beq.n	29b70 <_start+0x1f70>
   29b6c:	f001 fb49 	bl	2b202 <_start+0x3602>
   29b70:	4cc5      	ldr	r4, [pc, #788]	@ (29e88 <_start+0x2288>)
   29b72:	446c      	add	r4, sp
   29b74:	990f      	ldr	r1, [sp, #60]	@ 0x3c
   29b76:	70e1      	strb	r1, [r4, #3]
   29b78:	9810      	ldr	r0, [sp, #64]	@ 0x40
   29b7a:	8020      	strh	r0, [r4, #0]
   29b7c:	0e08      	lsrs	r0, r1, #24
   29b7e:	71a0      	strb	r0, [r4, #6]
   29b80:	0c08      	lsrs	r0, r1, #16
   29b82:	7160      	strb	r0, [r4, #5]
   29b84:	0a08      	lsrs	r0, r1, #8
   29b86:	7120      	strb	r0, [r4, #4]
   29b88:	a810      	add	r0, sp, #64	@ 0x40
   29b8a:	7880      	ldrb	r0, [r0, #2]
   29b8c:	70a0      	strb	r0, [r4, #2]
   29b8e:	1de0      	adds	r0, r4, #7
   29b90:	49bb      	ldr	r1, [pc, #748]	@ (29e80 <_start+0x2280>)
   29b92:	4469      	add	r1, sp
   29b94:	2246      	movs	r2, #70	@ 0x46
   29b96:	f001 fd58 	bl	2b64a <__aeabi_memcpy>
   29b9a:	4db8      	ldr	r5, [pc, #736]	@ (29e7c <_start+0x227c>)
   29b9c:	446d      	add	r5, sp
   29b9e:	4628      	mov	r0, r5
   29ba0:	4621      	mov	r1, r4
   29ba2:	f7f8 fe93 	bl	228cc <_ZN20complex_dynamic_type3app17h3e131643043ff092E>
   29ba6:	7828      	ldrb	r0, [r5, #0]
   29ba8:	2801      	cmp	r0, #1
   29baa:	d103      	bne.n	29bb4 <_start+0x1fb4>
   29bac:	990d      	ldr	r1, [sp, #52]	@ 0x34
   29bae:	6e09      	ldr	r1, [r1, #96]	@ 0x60
   29bb0:	910f      	str	r1, [sp, #60]	@ 0x3c
   29bb2:	e019      	b.n	29be8 <_start+0x1fe8>
   29bb4:	49b1      	ldr	r1, [pc, #708]	@ (29e7c <_start+0x227c>)
   29bb6:	4469      	add	r1, sp
   29bb8:	78ca      	ldrb	r2, [r1, #3]
   29bba:	ab10      	add	r3, sp, #64	@ 0x40
   29bbc:	709a      	strb	r2, [r3, #2]
   29bbe:	784a      	ldrb	r2, [r1, #1]
   29bc0:	788c      	ldrb	r4, [r1, #2]
   29bc2:	0224      	lsls	r4, r4, #8
   29bc4:	18a2      	adds	r2, r4, r2
   29bc6:	801a      	strh	r2, [r3, #0]
   29bc8:	3108      	adds	r1, #8
   29bca:	9a0d      	ldr	r2, [sp, #52]	@ 0x34
   29bcc:	6e12      	ldr	r2, [r2, #96]	@ 0x60
   29bce:	920f      	str	r2, [sp, #60]	@ 0x3c
   29bd0:	4aab      	ldr	r2, [pc, #684]	@ (29e80 <_start+0x2280>)
   29bd2:	446a      	add	r2, sp
   29bd4:	c938      	ldmia	r1!, {r3, r4, r5}
   29bd6:	c238      	stmia	r2!, {r3, r4, r5}
   29bd8:	c938      	ldmia	r1!, {r3, r4, r5}
   29bda:	c238      	stmia	r2!, {r3, r4, r5}
   29bdc:	c938      	ldmia	r1!, {r3, r4, r5}
   29bde:	c238      	stmia	r2!, {r3, r4, r5}
   29be0:	c978      	ldmia	r1!, {r3, r4, r5, r6}
   29be2:	c278      	stmia	r2!, {r3, r4, r5, r6}
   29be4:	7809      	ldrb	r1, [r1, #0]
   29be6:	7011      	strb	r1, [r2, #0]
   29be8:	2800      	cmp	r0, #0
   29bea:	d001      	beq.n	29bf0 <_start+0x1ff0>
   29bec:	f001 fb09 	bl	2b202 <_start+0x3602>
   29bf0:	4ca6      	ldr	r4, [pc, #664]	@ (29e8c <_start+0x228c>)
   29bf2:	446c      	add	r4, sp
   29bf4:	990f      	ldr	r1, [sp, #60]	@ 0x3c
   29bf6:	70e1      	strb	r1, [r4, #3]
   29bf8:	9810      	ldr	r0, [sp, #64]	@ 0x40
   29bfa:	8020      	strh	r0, [r4, #0]
   29bfc:	0e08      	lsrs	r0, r1, #24
   29bfe:	71a0      	strb	r0, [r4, #6]
   29c00:	0c08      	lsrs	r0, r1, #16
   29c02:	7160      	strb	r0, [r4, #5]
   29c04:	0a08      	lsrs	r0, r1, #8
   29c06:	7120      	strb	r0, [r4, #4]
   29c08:	a810      	add	r0, sp, #64	@ 0x40
   29c0a:	7880      	ldrb	r0, [r0, #2]
   29c0c:	70a0      	strb	r0, [r4, #2]
   29c0e:	1de0      	adds	r0, r4, #7
   29c10:	499b      	ldr	r1, [pc, #620]	@ (29e80 <_start+0x2280>)
   29c12:	4469      	add	r1, sp
   29c14:	2235      	movs	r2, #53	@ 0x35
   29c16:	f001 fd18 	bl	2b64a <__aeabi_memcpy>
   29c1a:	4d98      	ldr	r5, [pc, #608]	@ (29e7c <_start+0x227c>)
   29c1c:	446d      	add	r5, sp
   29c1e:	4628      	mov	r0, r5
   29c20:	4621      	mov	r1, r4
   29c22:	f7f7 fc3d 	bl	214a0 <_ZN20complex_dynamic_type3app17h1575082a05297bd1E>
   29c26:	7828      	ldrb	r0, [r5, #0]
   29c28:	2801      	cmp	r0, #1
   29c2a:	d103      	bne.n	29c34 <_start+0x2034>
   29c2c:	990d      	ldr	r1, [sp, #52]	@ 0x34
   29c2e:	6e09      	ldr	r1, [r1, #96]	@ 0x60
   29c30:	910f      	str	r1, [sp, #60]	@ 0x3c
   29c32:	e017      	b.n	29c64 <_start+0x2064>
   29c34:	4991      	ldr	r1, [pc, #580]	@ (29e7c <_start+0x227c>)
   29c36:	4469      	add	r1, sp
   29c38:	78ca      	ldrb	r2, [r1, #3]
   29c3a:	ab10      	add	r3, sp, #64	@ 0x40
   29c3c:	709a      	strb	r2, [r3, #2]
   29c3e:	784a      	ldrb	r2, [r1, #1]
   29c40:	788c      	ldrb	r4, [r1, #2]
   29c42:	0224      	lsls	r4, r4, #8
   29c44:	18a2      	adds	r2, r4, r2
   29c46:	801a      	strh	r2, [r3, #0]
   29c48:	3108      	adds	r1, #8
   29c4a:	9a0d      	ldr	r2, [sp, #52]	@ 0x34
   29c4c:	6e12      	ldr	r2, [r2, #96]	@ 0x60
   29c4e:	920f      	str	r2, [sp, #60]	@ 0x3c
   29c50:	4a8b      	ldr	r2, [pc, #556]	@ (29e80 <_start+0x2280>)
   29c52:	446a      	add	r2, sp
   29c54:	c978      	ldmia	r1!, {r3, r4, r5, r6}
   29c56:	c278      	stmia	r2!, {r3, r4, r5, r6}
   29c58:	c978      	ldmia	r1!, {r3, r4, r5, r6}
   29c5a:	c278      	stmia	r2!, {r3, r4, r5, r6}
   29c5c:	c978      	ldmia	r1!, {r3, r4, r5, r6}
   29c5e:	c278      	stmia	r2!, {r3, r4, r5, r6}
   29c60:	7809      	ldrb	r1, [r1, #0]
   29c62:	7011      	strb	r1, [r2, #0]
   29c64:	2800      	cmp	r0, #0
   29c66:	d001      	beq.n	29c6c <_start+0x206c>
   29c68:	f001 facb 	bl	2b202 <_start+0x3602>
   29c6c:	4c88      	ldr	r4, [pc, #544]	@ (29e90 <_start+0x2290>)
   29c6e:	446c      	add	r4, sp
   29c70:	990f      	ldr	r1, [sp, #60]	@ 0x3c
   29c72:	70e1      	strb	r1, [r4, #3]
   29c74:	9810      	ldr	r0, [sp, #64]	@ 0x40
   29c76:	8020      	strh	r0, [r4, #0]
   29c78:	0e08      	lsrs	r0, r1, #24
   29c7a:	71a0      	strb	r0, [r4, #6]
   29c7c:	0c08      	lsrs	r0, r1, #16
   29c7e:	7160      	strb	r0, [r4, #5]
   29c80:	0a08      	lsrs	r0, r1, #8
   29c82:	7120      	strb	r0, [r4, #4]
   29c84:	a810      	add	r0, sp, #64	@ 0x40
   29c86:	7880      	ldrb	r0, [r0, #2]
   29c88:	70a0      	strb	r0, [r4, #2]
   29c8a:	1de0      	adds	r0, r4, #7
   29c8c:	497c      	ldr	r1, [pc, #496]	@ (29e80 <_start+0x2280>)
   29c8e:	4469      	add	r1, sp
   29c90:	2231      	movs	r2, #49	@ 0x31
   29c92:	f001 fcda 	bl	2b64a <__aeabi_memcpy>
   29c96:	4d79      	ldr	r5, [pc, #484]	@ (29e7c <_start+0x227c>)
   29c98:	446d      	add	r5, sp
   29c9a:	4628      	mov	r0, r5
   29c9c:	4621      	mov	r1, r4
   29c9e:	f7fb ff0b 	bl	25ab8 <_ZN20complex_dynamic_type3app17hb28eb690065b0eefE>
   29ca2:	7828      	ldrb	r0, [r5, #0]
   29ca4:	2801      	cmp	r0, #1
   29ca6:	d103      	bne.n	29cb0 <_start+0x20b0>
   29ca8:	990d      	ldr	r1, [sp, #52]	@ 0x34
   29caa:	6e09      	ldr	r1, [r1, #96]	@ 0x60
   29cac:	910f      	str	r1, [sp, #60]	@ 0x3c
   29cae:	e013      	b.n	29cd8 <_start+0x20d8>
   29cb0:	4972      	ldr	r1, [pc, #456]	@ (29e7c <_start+0x227c>)
   29cb2:	4469      	add	r1, sp
   29cb4:	78ca      	ldrb	r2, [r1, #3]
   29cb6:	ab10      	add	r3, sp, #64	@ 0x40
   29cb8:	709a      	strb	r2, [r3, #2]
   29cba:	784a      	ldrb	r2, [r1, #1]
   29cbc:	788c      	ldrb	r4, [r1, #2]
   29cbe:	0224      	lsls	r4, r4, #8
   29cc0:	18a2      	adds	r2, r4, r2
   29cc2:	801a      	strh	r2, [r3, #0]
   29cc4:	3108      	adds	r1, #8
   29cc6:	9a0d      	ldr	r2, [sp, #52]	@ 0x34
   29cc8:	6e12      	ldr	r2, [r2, #96]	@ 0x60
   29cca:	920f      	str	r2, [sp, #60]	@ 0x3c
   29ccc:	4a6c      	ldr	r2, [pc, #432]	@ (29e80 <_start+0x2280>)
   29cce:	446a      	add	r2, sp
   29cd0:	c978      	ldmia	r1!, {r3, r4, r5, r6}
   29cd2:	c278      	stmia	r2!, {r3, r4, r5, r6}
   29cd4:	c978      	ldmia	r1!, {r3, r4, r5, r6}
   29cd6:	c278      	stmia	r2!, {r3, r4, r5, r6}
   29cd8:	2800      	cmp	r0, #0
   29cda:	d001      	beq.n	29ce0 <_start+0x20e0>
   29cdc:	f001 fa91 	bl	2b202 <_start+0x3602>
   29ce0:	4c6c      	ldr	r4, [pc, #432]	@ (29e94 <_start+0x2294>)
   29ce2:	446c      	add	r4, sp
   29ce4:	990f      	ldr	r1, [sp, #60]	@ 0x3c
   29ce6:	70e1      	strb	r1, [r4, #3]
   29ce8:	9810      	ldr	r0, [sp, #64]	@ 0x40
   29cea:	8020      	strh	r0, [r4, #0]
   29cec:	0e08      	lsrs	r0, r1, #24
   29cee:	71a0      	strb	r0, [r4, #6]
   29cf0:	0c08      	lsrs	r0, r1, #16
   29cf2:	7160      	strb	r0, [r4, #5]
   29cf4:	0a08      	lsrs	r0, r1, #8
   29cf6:	7120      	strb	r0, [r4, #4]
   29cf8:	a810      	add	r0, sp, #64	@ 0x40
   29cfa:	7880      	ldrb	r0, [r0, #2]
   29cfc:	70a0      	strb	r0, [r4, #2]
   29cfe:	1de0      	adds	r0, r4, #7
   29d00:	495f      	ldr	r1, [pc, #380]	@ (29e80 <_start+0x2280>)
   29d02:	4469      	add	r1, sp
   29d04:	2220      	movs	r2, #32
   29d06:	f001 fca0 	bl	2b64a <__aeabi_memcpy>
   29d0a:	4d5c      	ldr	r5, [pc, #368]	@ (29e7c <_start+0x227c>)
   29d0c:	446d      	add	r5, sp
   29d0e:	4628      	mov	r0, r5
   29d10:	4621      	mov	r1, r4
   29d12:	f7fd fdaf 	bl	27874 <_ZN20complex_dynamic_type3app17hf49d2f47e146ec92E>
   29d16:	782c      	ldrb	r4, [r5, #0]
   29d18:	2c01      	cmp	r4, #1
   29d1a:	d103      	bne.n	29d24 <_start+0x2124>
   29d1c:	980d      	ldr	r0, [sp, #52]	@ 0x34
   29d1e:	6e00      	ldr	r0, [r0, #96]	@ 0x60
   29d20:	900f      	str	r0, [sp, #60]	@ 0x3c
   29d22:	e012      	b.n	29d4a <_start+0x214a>
   29d24:	4955      	ldr	r1, [pc, #340]	@ (29e7c <_start+0x227c>)
   29d26:	4469      	add	r1, sp
   29d28:	78c8      	ldrb	r0, [r1, #3]
   29d2a:	aa10      	add	r2, sp, #64	@ 0x40
   29d2c:	7090      	strb	r0, [r2, #2]
   29d2e:	7848      	ldrb	r0, [r1, #1]
   29d30:	788b      	ldrb	r3, [r1, #2]
   29d32:	021b      	lsls	r3, r3, #8
   29d34:	1818      	adds	r0, r3, r0
   29d36:	8010      	strh	r0, [r2, #0]
   29d38:	980d      	ldr	r0, [sp, #52]	@ 0x34
   29d3a:	6e00      	ldr	r0, [r0, #96]	@ 0x60
   29d3c:	900f      	str	r0, [sp, #60]	@ 0x3c
   29d3e:	3108      	adds	r1, #8
   29d40:	484f      	ldr	r0, [pc, #316]	@ (29e80 <_start+0x2280>)
   29d42:	4468      	add	r0, sp
   29d44:	224a      	movs	r2, #74	@ 0x4a
   29d46:	f001 fb20 	bl	2b38a <__aeabi_memcpy4>
   29d4a:	2c00      	cmp	r4, #0
   29d4c:	d001      	beq.n	29d52 <_start+0x2152>
   29d4e:	f001 fa58 	bl	2b202 <_start+0x3602>
   29d52:	4c51      	ldr	r4, [pc, #324]	@ (29e98 <_start+0x2298>)
   29d54:	446c      	add	r4, sp
   29d56:	990f      	ldr	r1, [sp, #60]	@ 0x3c
   29d58:	70e1      	strb	r1, [r4, #3]
   29d5a:	9810      	ldr	r0, [sp, #64]	@ 0x40
   29d5c:	8020      	strh	r0, [r4, #0]
   29d5e:	0e08      	lsrs	r0, r1, #24
   29d60:	71a0      	strb	r0, [r4, #6]
   29d62:	0c08      	lsrs	r0, r1, #16
   29d64:	7160      	strb	r0, [r4, #5]
   29d66:	0a08      	lsrs	r0, r1, #8
   29d68:	7120      	strb	r0, [r4, #4]
   29d6a:	a810      	add	r0, sp, #64	@ 0x40
   29d6c:	7880      	ldrb	r0, [r0, #2]
   29d6e:	70a0      	strb	r0, [r4, #2]
   29d70:	1de0      	adds	r0, r4, #7
   29d72:	4943      	ldr	r1, [pc, #268]	@ (29e80 <_start+0x2280>)
   29d74:	4469      	add	r1, sp
   29d76:	224a      	movs	r2, #74	@ 0x4a
   29d78:	f001 fc67 	bl	2b64a <__aeabi_memcpy>
   29d7c:	4d3f      	ldr	r5, [pc, #252]	@ (29e7c <_start+0x227c>)
   29d7e:	446d      	add	r5, sp
   29d80:	4628      	mov	r0, r5
   29d82:	4621      	mov	r1, r4
   29d84:	f7fb fb08 	bl	25398 <_ZN20complex_dynamic_type3app17ha525db5679aa8fc9E>
   29d88:	782c      	ldrb	r4, [r5, #0]
   29d8a:	2c01      	cmp	r4, #1
   29d8c:	d103      	bne.n	29d96 <_start+0x2196>
   29d8e:	980d      	ldr	r0, [sp, #52]	@ 0x34
   29d90:	6e00      	ldr	r0, [r0, #96]	@ 0x60
   29d92:	900f      	str	r0, [sp, #60]	@ 0x3c
   29d94:	e012      	b.n	29dbc <_start+0x21bc>
   29d96:	4939      	ldr	r1, [pc, #228]	@ (29e7c <_start+0x227c>)
   29d98:	4469      	add	r1, sp
   29d9a:	78c8      	ldrb	r0, [r1, #3]
   29d9c:	aa10      	add	r2, sp, #64	@ 0x40
   29d9e:	7090      	strb	r0, [r2, #2]
   29da0:	7848      	ldrb	r0, [r1, #1]
   29da2:	788b      	ldrb	r3, [r1, #2]
   29da4:	021b      	lsls	r3, r3, #8
   29da6:	1818      	adds	r0, r3, r0
   29da8:	8010      	strh	r0, [r2, #0]
   29daa:	980d      	ldr	r0, [sp, #52]	@ 0x34
   29dac:	6e00      	ldr	r0, [r0, #96]	@ 0x60
   29dae:	900f      	str	r0, [sp, #60]	@ 0x3c
   29db0:	3108      	adds	r1, #8
   29db2:	4833      	ldr	r0, [pc, #204]	@ (29e80 <_start+0x2280>)
   29db4:	4468      	add	r0, sp
   29db6:	2248      	movs	r2, #72	@ 0x48
   29db8:	f001 fae7 	bl	2b38a <__aeabi_memcpy4>
   29dbc:	2c00      	cmp	r4, #0
   29dbe:	d001      	beq.n	29dc4 <_start+0x21c4>
   29dc0:	f001 fa1f 	bl	2b202 <_start+0x3602>
   29dc4:	4c35      	ldr	r4, [pc, #212]	@ (29e9c <_start+0x229c>)
   29dc6:	446c      	add	r4, sp
   29dc8:	990f      	ldr	r1, [sp, #60]	@ 0x3c
   29dca:	70e1      	strb	r1, [r4, #3]
   29dcc:	9810      	ldr	r0, [sp, #64]	@ 0x40
   29dce:	8020      	strh	r0, [r4, #0]
   29dd0:	0e08      	lsrs	r0, r1, #24
   29dd2:	71a0      	strb	r0, [r4, #6]
   29dd4:	0c08      	lsrs	r0, r1, #16
   29dd6:	7160      	strb	r0, [r4, #5]
   29dd8:	0a08      	lsrs	r0, r1, #8
   29dda:	7120      	strb	r0, [r4, #4]
   29ddc:	a810      	add	r0, sp, #64	@ 0x40
   29dde:	7880      	ldrb	r0, [r0, #2]
   29de0:	70a0      	strb	r0, [r4, #2]
   29de2:	1de0      	adds	r0, r4, #7
   29de4:	4926      	ldr	r1, [pc, #152]	@ (29e80 <_start+0x2280>)
   29de6:	4469      	add	r1, sp
   29de8:	2248      	movs	r2, #72	@ 0x48
   29dea:	f001 fc2e 	bl	2b64a <__aeabi_memcpy>
   29dee:	4d23      	ldr	r5, [pc, #140]	@ (29e7c <_start+0x227c>)
   29df0:	446d      	add	r5, sp
   29df2:	4628      	mov	r0, r5
   29df4:	4621      	mov	r1, r4
   29df6:	f7fa fea3 	bl	24b40 <_ZN20complex_dynamic_type3app17h97b514cab00671c3E>
   29dfa:	782c      	ldrb	r4, [r5, #0]
   29dfc:	2c01      	cmp	r4, #1
   29dfe:	d103      	bne.n	29e08 <_start+0x2208>
   29e00:	980d      	ldr	r0, [sp, #52]	@ 0x34
   29e02:	6e00      	ldr	r0, [r0, #96]	@ 0x60
   29e04:	900f      	str	r0, [sp, #60]	@ 0x3c
   29e06:	e012      	b.n	29e2e <_start+0x222e>
   29e08:	491c      	ldr	r1, [pc, #112]	@ (29e7c <_start+0x227c>)
   29e0a:	4469      	add	r1, sp
   29e0c:	78c8      	ldrb	r0, [r1, #3]
   29e0e:	aa10      	add	r2, sp, #64	@ 0x40
   29e10:	7090      	strb	r0, [r2, #2]
   29e12:	7848      	ldrb	r0, [r1, #1]
   29e14:	788b      	ldrb	r3, [r1, #2]
   29e16:	021b      	lsls	r3, r3, #8
   29e18:	1818      	adds	r0, r3, r0
   29e1a:	8010      	strh	r0, [r2, #0]
   29e1c:	980d      	ldr	r0, [sp, #52]	@ 0x34
   29e1e:	6e00      	ldr	r0, [r0, #96]	@ 0x60
   29e20:	900f      	str	r0, [sp, #60]	@ 0x3c
   29e22:	3108      	adds	r1, #8
   29e24:	4816      	ldr	r0, [pc, #88]	@ (29e80 <_start+0x2280>)
   29e26:	4468      	add	r0, sp
   29e28:	225a      	movs	r2, #90	@ 0x5a
   29e2a:	f001 faae 	bl	2b38a <__aeabi_memcpy4>
   29e2e:	2c00      	cmp	r4, #0
   29e30:	d001      	beq.n	29e36 <_start+0x2236>
   29e32:	f001 f9e6 	bl	2b202 <_start+0x3602>
   29e36:	4c1a      	ldr	r4, [pc, #104]	@ (29ea0 <_start+0x22a0>)
   29e38:	446c      	add	r4, sp
   29e3a:	990f      	ldr	r1, [sp, #60]	@ 0x3c
   29e3c:	70e1      	strb	r1, [r4, #3]
   29e3e:	9810      	ldr	r0, [sp, #64]	@ 0x40
   29e40:	8020      	strh	r0, [r4, #0]
   29e42:	0e08      	lsrs	r0, r1, #24
   29e44:	71a0      	strb	r0, [r4, #6]
   29e46:	0c08      	lsrs	r0, r1, #16
   29e48:	7160      	strb	r0, [r4, #5]
   29e4a:	0a08      	lsrs	r0, r1, #8
   29e4c:	7120      	strb	r0, [r4, #4]
   29e4e:	a810      	add	r0, sp, #64	@ 0x40
   29e50:	7880      	ldrb	r0, [r0, #2]
   29e52:	70a0      	strb	r0, [r4, #2]
   29e54:	1de0      	adds	r0, r4, #7
   29e56:	490a      	ldr	r1, [pc, #40]	@ (29e80 <_start+0x2280>)
   29e58:	4469      	add	r1, sp
   29e5a:	225a      	movs	r2, #90	@ 0x5a
   29e5c:	f001 fbf5 	bl	2b64a <__aeabi_memcpy>
   29e60:	4d06      	ldr	r5, [pc, #24]	@ (29e7c <_start+0x227c>)
   29e62:	446d      	add	r5, sp
   29e64:	4628      	mov	r0, r5
   29e66:	4621      	mov	r1, r4
   29e68:	f7fa fb72 	bl	24550 <_ZN20complex_dynamic_type3app17h8c22f3f5950cf90cE>
   29e6c:	7828      	ldrb	r0, [r5, #0]
   29e6e:	2801      	cmp	r0, #1
   29e70:	d118      	bne.n	29ea4 <_start+0x22a4>
   29e72:	990d      	ldr	r1, [sp, #52]	@ 0x34
   29e74:	6e09      	ldr	r1, [r1, #96]	@ 0x60
   29e76:	910f      	str	r1, [sp, #60]	@ 0x3c
   29e78:	e02c      	b.n	29ed4 <_start+0x22d4>
   29e7a:	46c0      	nop			@ (mov r8, r8)
   29e7c:	00001414 	.word	0x00001414
   29e80:	000013b8 	.word	0x000013b8
   29e84:	0000096c 	.word	0x0000096c
   29e88:	000009c0 	.word	0x000009c0
   29e8c:	00000a10 	.word	0x00000a10
   29e90:	00000a4c 	.word	0x00000a4c
   29e94:	00000a84 	.word	0x00000a84
   29e98:	00000aac 	.word	0x00000aac
   29e9c:	00000b00 	.word	0x00000b00
   29ea0:	00000b50 	.word	0x00000b50
   29ea4:	49f0      	ldr	r1, [pc, #960]	@ (2a268 <_start+0x2668>)
   29ea6:	4469      	add	r1, sp
   29ea8:	78ca      	ldrb	r2, [r1, #3]
   29eaa:	ab10      	add	r3, sp, #64	@ 0x40
   29eac:	709a      	strb	r2, [r3, #2]
   29eae:	784a      	ldrb	r2, [r1, #1]
   29eb0:	788c      	ldrb	r4, [r1, #2]
   29eb2:	0224      	lsls	r4, r4, #8
   29eb4:	18a2      	adds	r2, r4, r2
   29eb6:	801a      	strh	r2, [r3, #0]
   29eb8:	3108      	adds	r1, #8
   29eba:	9a0d      	ldr	r2, [sp, #52]	@ 0x34
   29ebc:	6e12      	ldr	r2, [r2, #96]	@ 0x60
   29ebe:	920f      	str	r2, [sp, #60]	@ 0x3c
   29ec0:	4aea      	ldr	r2, [pc, #936]	@ (2a26c <_start+0x266c>)
   29ec2:	446a      	add	r2, sp
   29ec4:	c918      	ldmia	r1!, {r3, r4}
   29ec6:	c218      	stmia	r2!, {r3, r4}
   29ec8:	c938      	ldmia	r1!, {r3, r4, r5}
   29eca:	c238      	stmia	r2!, {r3, r4, r5}
   29ecc:	880b      	ldrh	r3, [r1, #0]
   29ece:	8013      	strh	r3, [r2, #0]
   29ed0:	7889      	ldrb	r1, [r1, #2]
   29ed2:	7091      	strb	r1, [r2, #2]
   29ed4:	2800      	cmp	r0, #0
   29ed6:	d001      	beq.n	29edc <_start+0x22dc>
   29ed8:	f001 f993 	bl	2b202 <_start+0x3602>
   29edc:	4ce4      	ldr	r4, [pc, #912]	@ (2a270 <_start+0x2670>)
   29ede:	446c      	add	r4, sp
   29ee0:	990f      	ldr	r1, [sp, #60]	@ 0x3c
   29ee2:	70e1      	strb	r1, [r4, #3]
   29ee4:	9810      	ldr	r0, [sp, #64]	@ 0x40
   29ee6:	8020      	strh	r0, [r4, #0]
   29ee8:	0e08      	lsrs	r0, r1, #24
   29eea:	71a0      	strb	r0, [r4, #6]
   29eec:	0c08      	lsrs	r0, r1, #16
   29eee:	7160      	strb	r0, [r4, #5]
   29ef0:	0a08      	lsrs	r0, r1, #8
   29ef2:	7120      	strb	r0, [r4, #4]
   29ef4:	a810      	add	r0, sp, #64	@ 0x40
   29ef6:	7880      	ldrb	r0, [r0, #2]
   29ef8:	70a0      	strb	r0, [r4, #2]
   29efa:	1de0      	adds	r0, r4, #7
   29efc:	49db      	ldr	r1, [pc, #876]	@ (2a26c <_start+0x266c>)
   29efe:	4469      	add	r1, sp
   29f00:	2217      	movs	r2, #23
   29f02:	f001 fba2 	bl	2b64a <__aeabi_memcpy>
   29f06:	4dd8      	ldr	r5, [pc, #864]	@ (2a268 <_start+0x2668>)
   29f08:	446d      	add	r5, sp
   29f0a:	4628      	mov	r0, r5
   29f0c:	4621      	mov	r1, r4
   29f0e:	f7f8 f949 	bl	221a4 <_ZN20complex_dynamic_type3app17h3300a91bd8b42340E>
   29f12:	7828      	ldrb	r0, [r5, #0]
   29f14:	2801      	cmp	r0, #1
   29f16:	d103      	bne.n	29f20 <_start+0x2320>
   29f18:	990d      	ldr	r1, [sp, #52]	@ 0x34
   29f1a:	6e09      	ldr	r1, [r1, #96]	@ 0x60
   29f1c:	910f      	str	r1, [sp, #60]	@ 0x3c
   29f1e:	e015      	b.n	29f4c <_start+0x234c>
   29f20:	49d1      	ldr	r1, [pc, #836]	@ (2a268 <_start+0x2668>)
   29f22:	4469      	add	r1, sp
   29f24:	78ca      	ldrb	r2, [r1, #3]
   29f26:	ab10      	add	r3, sp, #64	@ 0x40
   29f28:	709a      	strb	r2, [r3, #2]
   29f2a:	784a      	ldrb	r2, [r1, #1]
   29f2c:	788c      	ldrb	r4, [r1, #2]
   29f2e:	0224      	lsls	r4, r4, #8
   29f30:	18a2      	adds	r2, r4, r2
   29f32:	801a      	strh	r2, [r3, #0]
   29f34:	3108      	adds	r1, #8
   29f36:	9a0d      	ldr	r2, [sp, #52]	@ 0x34
   29f38:	6e12      	ldr	r2, [r2, #96]	@ 0x60
   29f3a:	920f      	str	r2, [sp, #60]	@ 0x3c
   29f3c:	4acb      	ldr	r2, [pc, #812]	@ (2a26c <_start+0x266c>)
   29f3e:	446a      	add	r2, sp
   29f40:	c938      	ldmia	r1!, {r3, r4, r5}
   29f42:	c238      	stmia	r2!, {r3, r4, r5}
   29f44:	c938      	ldmia	r1!, {r3, r4, r5}
   29f46:	c238      	stmia	r2!, {r3, r4, r5}
   29f48:	8809      	ldrh	r1, [r1, #0]
   29f4a:	8011      	strh	r1, [r2, #0]
   29f4c:	2800      	cmp	r0, #0
   29f4e:	d001      	beq.n	29f54 <_start+0x2354>
   29f50:	f001 f957 	bl	2b202 <_start+0x3602>
   29f54:	4cc7      	ldr	r4, [pc, #796]	@ (2a274 <_start+0x2674>)
   29f56:	446c      	add	r4, sp
   29f58:	990f      	ldr	r1, [sp, #60]	@ 0x3c
   29f5a:	70e1      	strb	r1, [r4, #3]
   29f5c:	9810      	ldr	r0, [sp, #64]	@ 0x40
   29f5e:	8020      	strh	r0, [r4, #0]
   29f60:	0e08      	lsrs	r0, r1, #24
   29f62:	71a0      	strb	r0, [r4, #6]
   29f64:	0c08      	lsrs	r0, r1, #16
   29f66:	7160      	strb	r0, [r4, #5]
   29f68:	0a08      	lsrs	r0, r1, #8
   29f6a:	7120      	strb	r0, [r4, #4]
   29f6c:	a810      	add	r0, sp, #64	@ 0x40
   29f6e:	7880      	ldrb	r0, [r0, #2]
   29f70:	70a0      	strb	r0, [r4, #2]
   29f72:	1de0      	adds	r0, r4, #7
   29f74:	49bd      	ldr	r1, [pc, #756]	@ (2a26c <_start+0x266c>)
   29f76:	4469      	add	r1, sp
   29f78:	221a      	movs	r2, #26
   29f7a:	f001 fb66 	bl	2b64a <__aeabi_memcpy>
   29f7e:	4dba      	ldr	r5, [pc, #744]	@ (2a268 <_start+0x2668>)
   29f80:	446d      	add	r5, sp
   29f82:	4628      	mov	r0, r5
   29f84:	4621      	mov	r1, r4
   29f86:	f7f7 fced 	bl	21964 <_ZN20complex_dynamic_type3app17h2a0a609b4ce7ce1cE>
   29f8a:	7828      	ldrb	r0, [r5, #0]
   29f8c:	2801      	cmp	r0, #1
   29f8e:	d103      	bne.n	29f98 <_start+0x2398>
   29f90:	990d      	ldr	r1, [sp, #52]	@ 0x34
   29f92:	6e09      	ldr	r1, [r1, #96]	@ 0x60
   29f94:	910f      	str	r1, [sp, #60]	@ 0x3c
   29f96:	e017      	b.n	29fc8 <_start+0x23c8>
   29f98:	49b3      	ldr	r1, [pc, #716]	@ (2a268 <_start+0x2668>)
   29f9a:	4469      	add	r1, sp
   29f9c:	78ca      	ldrb	r2, [r1, #3]
   29f9e:	ab10      	add	r3, sp, #64	@ 0x40
   29fa0:	709a      	strb	r2, [r3, #2]
   29fa2:	784a      	ldrb	r2, [r1, #1]
   29fa4:	788c      	ldrb	r4, [r1, #2]
   29fa6:	0224      	lsls	r4, r4, #8
   29fa8:	18a2      	adds	r2, r4, r2
   29faa:	801a      	strh	r2, [r3, #0]
   29fac:	3108      	adds	r1, #8
   29fae:	9a0d      	ldr	r2, [sp, #52]	@ 0x34
   29fb0:	6e12      	ldr	r2, [r2, #96]	@ 0x60
   29fb2:	920f      	str	r2, [sp, #60]	@ 0x3c
   29fb4:	4aad      	ldr	r2, [pc, #692]	@ (2a26c <_start+0x266c>)
   29fb6:	446a      	add	r2, sp
   29fb8:	c978      	ldmia	r1!, {r3, r4, r5, r6}
   29fba:	c278      	stmia	r2!, {r3, r4, r5, r6}
   29fbc:	c978      	ldmia	r1!, {r3, r4, r5, r6}
   29fbe:	c278      	stmia	r2!, {r3, r4, r5, r6}
   29fc0:	880b      	ldrh	r3, [r1, #0]
   29fc2:	8013      	strh	r3, [r2, #0]
   29fc4:	7889      	ldrb	r1, [r1, #2]
   29fc6:	7091      	strb	r1, [r2, #2]
   29fc8:	2800      	cmp	r0, #0
   29fca:	d001      	beq.n	29fd0 <_start+0x23d0>
   29fcc:	f001 f919 	bl	2b202 <_start+0x3602>
   29fd0:	4ca9      	ldr	r4, [pc, #676]	@ (2a278 <_start+0x2678>)
   29fd2:	446c      	add	r4, sp
   29fd4:	990f      	ldr	r1, [sp, #60]	@ 0x3c
   29fd6:	70e1      	strb	r1, [r4, #3]
   29fd8:	9810      	ldr	r0, [sp, #64]	@ 0x40
   29fda:	8020      	strh	r0, [r4, #0]
   29fdc:	0e08      	lsrs	r0, r1, #24
   29fde:	71a0      	strb	r0, [r4, #6]
   29fe0:	0c08      	lsrs	r0, r1, #16
   29fe2:	7160      	strb	r0, [r4, #5]
   29fe4:	0a08      	lsrs	r0, r1, #8
   29fe6:	7120      	strb	r0, [r4, #4]
   29fe8:	a810      	add	r0, sp, #64	@ 0x40
   29fea:	7880      	ldrb	r0, [r0, #2]
   29fec:	70a0      	strb	r0, [r4, #2]
   29fee:	1de0      	adds	r0, r4, #7
   29ff0:	499e      	ldr	r1, [pc, #632]	@ (2a26c <_start+0x266c>)
   29ff2:	4469      	add	r1, sp
   29ff4:	2223      	movs	r2, #35	@ 0x23
   29ff6:	f001 fb28 	bl	2b64a <__aeabi_memcpy>
   29ffa:	4d9b      	ldr	r5, [pc, #620]	@ (2a268 <_start+0x2668>)
   29ffc:	446d      	add	r5, sp
   29ffe:	4628      	mov	r0, r5
   2a000:	4621      	mov	r1, r4
   2a002:	f7fb faf7 	bl	255f4 <_ZN20complex_dynamic_type3app17ha90a3e1dc6b13d95E>
   2a006:	782c      	ldrb	r4, [r5, #0]
   2a008:	2c01      	cmp	r4, #1
   2a00a:	d103      	bne.n	2a014 <_start+0x2414>
   2a00c:	980d      	ldr	r0, [sp, #52]	@ 0x34
   2a00e:	6e00      	ldr	r0, [r0, #96]	@ 0x60
   2a010:	900f      	str	r0, [sp, #60]	@ 0x3c
   2a012:	e012      	b.n	2a03a <_start+0x243a>
   2a014:	4994      	ldr	r1, [pc, #592]	@ (2a268 <_start+0x2668>)
   2a016:	4469      	add	r1, sp
   2a018:	78c8      	ldrb	r0, [r1, #3]
   2a01a:	aa10      	add	r2, sp, #64	@ 0x40
   2a01c:	7090      	strb	r0, [r2, #2]
   2a01e:	7848      	ldrb	r0, [r1, #1]
   2a020:	788b      	ldrb	r3, [r1, #2]
   2a022:	021b      	lsls	r3, r3, #8
   2a024:	1818      	adds	r0, r3, r0
   2a026:	8010      	strh	r0, [r2, #0]
   2a028:	980d      	ldr	r0, [sp, #52]	@ 0x34
   2a02a:	6e00      	ldr	r0, [r0, #96]	@ 0x60
   2a02c:	900f      	str	r0, [sp, #60]	@ 0x3c
   2a02e:	3108      	adds	r1, #8
   2a030:	488e      	ldr	r0, [pc, #568]	@ (2a26c <_start+0x266c>)
   2a032:	4468      	add	r0, sp
   2a034:	2252      	movs	r2, #82	@ 0x52
   2a036:	f001 f9a8 	bl	2b38a <__aeabi_memcpy4>
   2a03a:	2c00      	cmp	r4, #0
   2a03c:	d001      	beq.n	2a042 <_start+0x2442>
   2a03e:	f001 f8e0 	bl	2b202 <_start+0x3602>
   2a042:	4c8e      	ldr	r4, [pc, #568]	@ (2a27c <_start+0x267c>)
   2a044:	446c      	add	r4, sp
   2a046:	990f      	ldr	r1, [sp, #60]	@ 0x3c
   2a048:	70e1      	strb	r1, [r4, #3]
   2a04a:	9810      	ldr	r0, [sp, #64]	@ 0x40
   2a04c:	8020      	strh	r0, [r4, #0]
   2a04e:	0e08      	lsrs	r0, r1, #24
   2a050:	71a0      	strb	r0, [r4, #6]
   2a052:	0c08      	lsrs	r0, r1, #16
   2a054:	7160      	strb	r0, [r4, #5]
   2a056:	0a08      	lsrs	r0, r1, #8
   2a058:	7120      	strb	r0, [r4, #4]
   2a05a:	a810      	add	r0, sp, #64	@ 0x40
   2a05c:	7880      	ldrb	r0, [r0, #2]
   2a05e:	70a0      	strb	r0, [r4, #2]
   2a060:	1de0      	adds	r0, r4, #7
   2a062:	4982      	ldr	r1, [pc, #520]	@ (2a26c <_start+0x266c>)
   2a064:	4469      	add	r1, sp
   2a066:	2252      	movs	r2, #82	@ 0x52
   2a068:	f001 faef 	bl	2b64a <__aeabi_memcpy>
   2a06c:	4d7e      	ldr	r5, [pc, #504]	@ (2a268 <_start+0x2668>)
   2a06e:	446d      	add	r5, sp
   2a070:	4628      	mov	r0, r5
   2a072:	4621      	mov	r1, r4
   2a074:	f7f9 f852 	bl	2311c <_ZN20complex_dynamic_type3app17h64093c23c79e3773E>
   2a078:	782c      	ldrb	r4, [r5, #0]
   2a07a:	2c01      	cmp	r4, #1
   2a07c:	d103      	bne.n	2a086 <_start+0x2486>
   2a07e:	980d      	ldr	r0, [sp, #52]	@ 0x34
   2a080:	6e00      	ldr	r0, [r0, #96]	@ 0x60
   2a082:	900f      	str	r0, [sp, #60]	@ 0x3c
   2a084:	e012      	b.n	2a0ac <_start+0x24ac>
   2a086:	4978      	ldr	r1, [pc, #480]	@ (2a268 <_start+0x2668>)
   2a088:	4469      	add	r1, sp
   2a08a:	78c8      	ldrb	r0, [r1, #3]
   2a08c:	aa10      	add	r2, sp, #64	@ 0x40
   2a08e:	7090      	strb	r0, [r2, #2]
   2a090:	7848      	ldrb	r0, [r1, #1]
   2a092:	788b      	ldrb	r3, [r1, #2]
   2a094:	021b      	lsls	r3, r3, #8
   2a096:	1818      	adds	r0, r3, r0
   2a098:	8010      	strh	r0, [r2, #0]
   2a09a:	980d      	ldr	r0, [sp, #52]	@ 0x34
   2a09c:	6e00      	ldr	r0, [r0, #96]	@ 0x60
   2a09e:	900f      	str	r0, [sp, #60]	@ 0x3c
   2a0a0:	3108      	adds	r1, #8
   2a0a2:	4872      	ldr	r0, [pc, #456]	@ (2a26c <_start+0x266c>)
   2a0a4:	4468      	add	r0, sp
   2a0a6:	2243      	movs	r2, #67	@ 0x43
   2a0a8:	f001 f96f 	bl	2b38a <__aeabi_memcpy4>
   2a0ac:	2c00      	cmp	r4, #0
   2a0ae:	d001      	beq.n	2a0b4 <_start+0x24b4>
   2a0b0:	f001 f8a7 	bl	2b202 <_start+0x3602>
   2a0b4:	4c72      	ldr	r4, [pc, #456]	@ (2a280 <_start+0x2680>)
   2a0b6:	446c      	add	r4, sp
   2a0b8:	990f      	ldr	r1, [sp, #60]	@ 0x3c
   2a0ba:	70e1      	strb	r1, [r4, #3]
   2a0bc:	9810      	ldr	r0, [sp, #64]	@ 0x40
   2a0be:	8020      	strh	r0, [r4, #0]
   2a0c0:	0e08      	lsrs	r0, r1, #24
   2a0c2:	71a0      	strb	r0, [r4, #6]
   2a0c4:	0c08      	lsrs	r0, r1, #16
   2a0c6:	7160      	strb	r0, [r4, #5]
   2a0c8:	0a08      	lsrs	r0, r1, #8
   2a0ca:	7120      	strb	r0, [r4, #4]
   2a0cc:	a810      	add	r0, sp, #64	@ 0x40
   2a0ce:	7880      	ldrb	r0, [r0, #2]
   2a0d0:	70a0      	strb	r0, [r4, #2]
   2a0d2:	1de0      	adds	r0, r4, #7
   2a0d4:	4965      	ldr	r1, [pc, #404]	@ (2a26c <_start+0x266c>)
   2a0d6:	4469      	add	r1, sp
   2a0d8:	2243      	movs	r2, #67	@ 0x43
   2a0da:	f001 fab6 	bl	2b64a <__aeabi_memcpy>
   2a0de:	4d62      	ldr	r5, [pc, #392]	@ (2a268 <_start+0x2668>)
   2a0e0:	446d      	add	r5, sp
   2a0e2:	4628      	mov	r0, r5
   2a0e4:	4621      	mov	r1, r4
   2a0e6:	f7f7 fd69 	bl	21bbc <_ZN20complex_dynamic_type3app17h2eb079dcc3ed1afdE>
   2a0ea:	7828      	ldrb	r0, [r5, #0]
   2a0ec:	2801      	cmp	r0, #1
   2a0ee:	d103      	bne.n	2a0f8 <_start+0x24f8>
   2a0f0:	990d      	ldr	r1, [sp, #52]	@ 0x34
   2a0f2:	6e09      	ldr	r1, [r1, #96]	@ 0x60
   2a0f4:	910f      	str	r1, [sp, #60]	@ 0x3c
   2a0f6:	e017      	b.n	2a128 <_start+0x2528>
   2a0f8:	495b      	ldr	r1, [pc, #364]	@ (2a268 <_start+0x2668>)
   2a0fa:	4469      	add	r1, sp
   2a0fc:	78ca      	ldrb	r2, [r1, #3]
   2a0fe:	ab10      	add	r3, sp, #64	@ 0x40
   2a100:	709a      	strb	r2, [r3, #2]
   2a102:	784a      	ldrb	r2, [r1, #1]
   2a104:	788c      	ldrb	r4, [r1, #2]
   2a106:	0224      	lsls	r4, r4, #8
   2a108:	18a2      	adds	r2, r4, r2
   2a10a:	801a      	strh	r2, [r3, #0]
   2a10c:	3108      	adds	r1, #8
   2a10e:	9a0d      	ldr	r2, [sp, #52]	@ 0x34
   2a110:	6e12      	ldr	r2, [r2, #96]	@ 0x60
   2a112:	920f      	str	r2, [sp, #60]	@ 0x3c
   2a114:	4a55      	ldr	r2, [pc, #340]	@ (2a26c <_start+0x266c>)
   2a116:	446a      	add	r2, sp
   2a118:	c938      	ldmia	r1!, {r3, r4, r5}
   2a11a:	c238      	stmia	r2!, {r3, r4, r5}
   2a11c:	c938      	ldmia	r1!, {r3, r4, r5}
   2a11e:	c238      	stmia	r2!, {r3, r4, r5}
   2a120:	c938      	ldmia	r1!, {r3, r4, r5}
   2a122:	c238      	stmia	r2!, {r3, r4, r5}
   2a124:	8809      	ldrh	r1, [r1, #0]
   2a126:	8011      	strh	r1, [r2, #0]
   2a128:	2800      	cmp	r0, #0
   2a12a:	d001      	beq.n	2a130 <_start+0x2530>
   2a12c:	f001 f869 	bl	2b202 <_start+0x3602>
   2a130:	4c54      	ldr	r4, [pc, #336]	@ (2a284 <_start+0x2684>)
   2a132:	446c      	add	r4, sp
   2a134:	990f      	ldr	r1, [sp, #60]	@ 0x3c
   2a136:	70e1      	strb	r1, [r4, #3]
   2a138:	9810      	ldr	r0, [sp, #64]	@ 0x40
   2a13a:	8020      	strh	r0, [r4, #0]
   2a13c:	0e08      	lsrs	r0, r1, #24
   2a13e:	71a0      	strb	r0, [r4, #6]
   2a140:	0c08      	lsrs	r0, r1, #16
   2a142:	7160      	strb	r0, [r4, #5]
   2a144:	0a08      	lsrs	r0, r1, #8
   2a146:	7120      	strb	r0, [r4, #4]
   2a148:	a810      	add	r0, sp, #64	@ 0x40
   2a14a:	7880      	ldrb	r0, [r0, #2]
   2a14c:	70a0      	strb	r0, [r4, #2]
   2a14e:	1de0      	adds	r0, r4, #7
   2a150:	4946      	ldr	r1, [pc, #280]	@ (2a26c <_start+0x266c>)
   2a152:	4469      	add	r1, sp
   2a154:	2226      	movs	r2, #38	@ 0x26
   2a156:	f001 fa78 	bl	2b64a <__aeabi_memcpy>
   2a15a:	4d43      	ldr	r5, [pc, #268]	@ (2a268 <_start+0x2668>)
   2a15c:	446d      	add	r5, sp
   2a15e:	4628      	mov	r0, r5
   2a160:	4621      	mov	r1, r4
   2a162:	f7f7 fb65 	bl	21830 <_ZN20complex_dynamic_type3app17h2876a91bb77fe6f8E>
   2a166:	782c      	ldrb	r4, [r5, #0]
   2a168:	2c01      	cmp	r4, #1
   2a16a:	d103      	bne.n	2a174 <_start+0x2574>
   2a16c:	980d      	ldr	r0, [sp, #52]	@ 0x34
   2a16e:	6e00      	ldr	r0, [r0, #96]	@ 0x60
   2a170:	900f      	str	r0, [sp, #60]	@ 0x3c
   2a172:	e012      	b.n	2a19a <_start+0x259a>
   2a174:	493c      	ldr	r1, [pc, #240]	@ (2a268 <_start+0x2668>)
   2a176:	4469      	add	r1, sp
   2a178:	78c8      	ldrb	r0, [r1, #3]
   2a17a:	aa10      	add	r2, sp, #64	@ 0x40
   2a17c:	7090      	strb	r0, [r2, #2]
   2a17e:	7848      	ldrb	r0, [r1, #1]
   2a180:	788b      	ldrb	r3, [r1, #2]
   2a182:	021b      	lsls	r3, r3, #8
   2a184:	1818      	adds	r0, r3, r0
   2a186:	8010      	strh	r0, [r2, #0]
   2a188:	980d      	ldr	r0, [sp, #52]	@ 0x34
   2a18a:	6e00      	ldr	r0, [r0, #96]	@ 0x60
   2a18c:	900f      	str	r0, [sp, #60]	@ 0x3c
   2a18e:	3108      	adds	r1, #8
   2a190:	4836      	ldr	r0, [pc, #216]	@ (2a26c <_start+0x266c>)
   2a192:	4468      	add	r0, sp
   2a194:	224c      	movs	r2, #76	@ 0x4c
   2a196:	f001 f8f8 	bl	2b38a <__aeabi_memcpy4>
   2a19a:	2c00      	cmp	r4, #0
   2a19c:	d001      	beq.n	2a1a2 <_start+0x25a2>
   2a19e:	f001 f830 	bl	2b202 <_start+0x3602>
   2a1a2:	4c39      	ldr	r4, [pc, #228]	@ (2a288 <_start+0x2688>)
   2a1a4:	446c      	add	r4, sp
   2a1a6:	990f      	ldr	r1, [sp, #60]	@ 0x3c
   2a1a8:	70e1      	strb	r1, [r4, #3]
   2a1aa:	9810      	ldr	r0, [sp, #64]	@ 0x40
   2a1ac:	8020      	strh	r0, [r4, #0]
   2a1ae:	0e08      	lsrs	r0, r1, #24
   2a1b0:	71a0      	strb	r0, [r4, #6]
   2a1b2:	0c08      	lsrs	r0, r1, #16
   2a1b4:	7160      	strb	r0, [r4, #5]
   2a1b6:	0a08      	lsrs	r0, r1, #8
   2a1b8:	7120      	strb	r0, [r4, #4]
   2a1ba:	a810      	add	r0, sp, #64	@ 0x40
   2a1bc:	7880      	ldrb	r0, [r0, #2]
   2a1be:	70a0      	strb	r0, [r4, #2]
   2a1c0:	1de0      	adds	r0, r4, #7
   2a1c2:	492a      	ldr	r1, [pc, #168]	@ (2a26c <_start+0x266c>)
   2a1c4:	4469      	add	r1, sp
   2a1c6:	224c      	movs	r2, #76	@ 0x4c
   2a1c8:	f001 fa3f 	bl	2b64a <__aeabi_memcpy>
   2a1cc:	4d26      	ldr	r5, [pc, #152]	@ (2a268 <_start+0x2668>)
   2a1ce:	446d      	add	r5, sp
   2a1d0:	4628      	mov	r0, r5
   2a1d2:	4621      	mov	r1, r4
   2a1d4:	f7fd fbe4 	bl	279a0 <_ZN20complex_dynamic_type3app17hf90a62d765733414E>
   2a1d8:	7828      	ldrb	r0, [r5, #0]
   2a1da:	2801      	cmp	r0, #1
   2a1dc:	d103      	bne.n	2a1e6 <_start+0x25e6>
   2a1de:	990d      	ldr	r1, [sp, #52]	@ 0x34
   2a1e0:	6e09      	ldr	r1, [r1, #96]	@ 0x60
   2a1e2:	910f      	str	r1, [sp, #60]	@ 0x3c
   2a1e4:	e019      	b.n	2a21a <_start+0x261a>
   2a1e6:	4920      	ldr	r1, [pc, #128]	@ (2a268 <_start+0x2668>)
   2a1e8:	4469      	add	r1, sp
   2a1ea:	78ca      	ldrb	r2, [r1, #3]
   2a1ec:	ab10      	add	r3, sp, #64	@ 0x40
   2a1ee:	709a      	strb	r2, [r3, #2]
   2a1f0:	784a      	ldrb	r2, [r1, #1]
   2a1f2:	788c      	ldrb	r4, [r1, #2]
   2a1f4:	0224      	lsls	r4, r4, #8
   2a1f6:	18a2      	adds	r2, r4, r2
   2a1f8:	801a      	strh	r2, [r3, #0]
   2a1fa:	3108      	adds	r1, #8
   2a1fc:	9a0d      	ldr	r2, [sp, #52]	@ 0x34
   2a1fe:	6e12      	ldr	r2, [r2, #96]	@ 0x60
   2a200:	920f      	str	r2, [sp, #60]	@ 0x3c
   2a202:	4a1a      	ldr	r2, [pc, #104]	@ (2a26c <_start+0x266c>)
   2a204:	446a      	add	r2, sp
   2a206:	c978      	ldmia	r1!, {r3, r4, r5, r6}
   2a208:	c278      	stmia	r2!, {r3, r4, r5, r6}
   2a20a:	c978      	ldmia	r1!, {r3, r4, r5, r6}
   2a20c:	c278      	stmia	r2!, {r3, r4, r5, r6}
   2a20e:	c978      	ldmia	r1!, {r3, r4, r5, r6}
   2a210:	c278      	stmia	r2!, {r3, r4, r5, r6}
   2a212:	880b      	ldrh	r3, [r1, #0]
   2a214:	8013      	strh	r3, [r2, #0]
   2a216:	7889      	ldrb	r1, [r1, #2]
   2a218:	7091      	strb	r1, [r2, #2]
   2a21a:	2800      	cmp	r0, #0
   2a21c:	d001      	beq.n	2a222 <_start+0x2622>
   2a21e:	f000 fff0 	bl	2b202 <_start+0x3602>
   2a222:	4c1a      	ldr	r4, [pc, #104]	@ (2a28c <_start+0x268c>)
   2a224:	446c      	add	r4, sp
   2a226:	990f      	ldr	r1, [sp, #60]	@ 0x3c
   2a228:	70e1      	strb	r1, [r4, #3]
   2a22a:	9810      	ldr	r0, [sp, #64]	@ 0x40
   2a22c:	8020      	strh	r0, [r4, #0]
   2a22e:	0e08      	lsrs	r0, r1, #24
   2a230:	71a0      	strb	r0, [r4, #6]
   2a232:	0c08      	lsrs	r0, r1, #16
   2a234:	7160      	strb	r0, [r4, #5]
   2a236:	0a08      	lsrs	r0, r1, #8
   2a238:	7120      	strb	r0, [r4, #4]
   2a23a:	a810      	add	r0, sp, #64	@ 0x40
   2a23c:	7880      	ldrb	r0, [r0, #2]
   2a23e:	70a0      	strb	r0, [r4, #2]
   2a240:	1de0      	adds	r0, r4, #7
   2a242:	490a      	ldr	r1, [pc, #40]	@ (2a26c <_start+0x266c>)
   2a244:	4469      	add	r1, sp
   2a246:	2233      	movs	r2, #51	@ 0x33
   2a248:	f001 f9ff 	bl	2b64a <__aeabi_memcpy>
   2a24c:	4d06      	ldr	r5, [pc, #24]	@ (2a268 <_start+0x2668>)
   2a24e:	446d      	add	r5, sp
   2a250:	4628      	mov	r0, r5
   2a252:	4621      	mov	r1, r4
   2a254:	f7f7 fe7a 	bl	21f4c <_ZN20complex_dynamic_type3app17h312d3f057ed7ee6fE>
   2a258:	782c      	ldrb	r4, [r5, #0]
   2a25a:	2c01      	cmp	r4, #1
   2a25c:	d118      	bne.n	2a290 <_start+0x2690>
   2a25e:	980d      	ldr	r0, [sp, #52]	@ 0x34
   2a260:	6e00      	ldr	r0, [r0, #96]	@ 0x60
   2a262:	900f      	str	r0, [sp, #60]	@ 0x3c
   2a264:	e027      	b.n	2a2b6 <_start+0x26b6>
   2a266:	46c0      	nop			@ (mov r8, r8)
   2a268:	00001414 	.word	0x00001414
   2a26c:	000013b8 	.word	0x000013b8
   2a270:	00000bb4 	.word	0x00000bb4
   2a274:	00000bd4 	.word	0x00000bd4
   2a278:	00000bf8 	.word	0x00000bf8
   2a27c:	00000c24 	.word	0x00000c24
   2a280:	00000c80 	.word	0x00000c80
   2a284:	00000ccc 	.word	0x00000ccc
   2a288:	00000cfc 	.word	0x00000cfc
   2a28c:	00000d50 	.word	0x00000d50
   2a290:	49f0      	ldr	r1, [pc, #960]	@ (2a654 <_start+0x2a54>)
   2a292:	4469      	add	r1, sp
   2a294:	78c8      	ldrb	r0, [r1, #3]
   2a296:	aa10      	add	r2, sp, #64	@ 0x40
   2a298:	7090      	strb	r0, [r2, #2]
   2a29a:	7848      	ldrb	r0, [r1, #1]
   2a29c:	788b      	ldrb	r3, [r1, #2]
   2a29e:	021b      	lsls	r3, r3, #8
   2a2a0:	1818      	adds	r0, r3, r0
   2a2a2:	8010      	strh	r0, [r2, #0]
   2a2a4:	980d      	ldr	r0, [sp, #52]	@ 0x34
   2a2a6:	6e00      	ldr	r0, [r0, #96]	@ 0x60
   2a2a8:	900f      	str	r0, [sp, #60]	@ 0x3c
   2a2aa:	3108      	adds	r1, #8
   2a2ac:	48ea      	ldr	r0, [pc, #936]	@ (2a658 <_start+0x2a58>)
   2a2ae:	4468      	add	r0, sp
   2a2b0:	2256      	movs	r2, #86	@ 0x56
   2a2b2:	f001 f86a 	bl	2b38a <__aeabi_memcpy4>
   2a2b6:	2c00      	cmp	r4, #0
   2a2b8:	d001      	beq.n	2a2be <_start+0x26be>
   2a2ba:	f000 ffa2 	bl	2b202 <_start+0x3602>
   2a2be:	4ce7      	ldr	r4, [pc, #924]	@ (2a65c <_start+0x2a5c>)
   2a2c0:	446c      	add	r4, sp
   2a2c2:	990f      	ldr	r1, [sp, #60]	@ 0x3c
   2a2c4:	70e1      	strb	r1, [r4, #3]
   2a2c6:	9810      	ldr	r0, [sp, #64]	@ 0x40
   2a2c8:	8020      	strh	r0, [r4, #0]
   2a2ca:	0e08      	lsrs	r0, r1, #24
   2a2cc:	71a0      	strb	r0, [r4, #6]
   2a2ce:	0c08      	lsrs	r0, r1, #16
   2a2d0:	7160      	strb	r0, [r4, #5]
   2a2d2:	0a08      	lsrs	r0, r1, #8
   2a2d4:	7120      	strb	r0, [r4, #4]
   2a2d6:	a810      	add	r0, sp, #64	@ 0x40
   2a2d8:	7880      	ldrb	r0, [r0, #2]
   2a2da:	70a0      	strb	r0, [r4, #2]
   2a2dc:	1de0      	adds	r0, r4, #7
   2a2de:	49de      	ldr	r1, [pc, #888]	@ (2a658 <_start+0x2a58>)
   2a2e0:	4469      	add	r1, sp
   2a2e2:	2256      	movs	r2, #86	@ 0x56
   2a2e4:	f001 f9b1 	bl	2b64a <__aeabi_memcpy>
   2a2e8:	4dda      	ldr	r5, [pc, #872]	@ (2a654 <_start+0x2a54>)
   2a2ea:	446d      	add	r5, sp
   2a2ec:	4628      	mov	r0, r5
   2a2ee:	4621      	mov	r1, r4
   2a2f0:	f7fc f808 	bl	26304 <_ZN20complex_dynamic_type3app17hd2308e003146416bE>
   2a2f4:	7828      	ldrb	r0, [r5, #0]
   2a2f6:	2801      	cmp	r0, #1
   2a2f8:	d103      	bne.n	2a302 <_start+0x2702>
   2a2fa:	990d      	ldr	r1, [sp, #52]	@ 0x34
   2a2fc:	6e09      	ldr	r1, [r1, #96]	@ 0x60
   2a2fe:	910f      	str	r1, [sp, #60]	@ 0x3c
   2a300:	e019      	b.n	2a336 <_start+0x2736>
   2a302:	49d4      	ldr	r1, [pc, #848]	@ (2a654 <_start+0x2a54>)
   2a304:	4469      	add	r1, sp
   2a306:	78ca      	ldrb	r2, [r1, #3]
   2a308:	ab10      	add	r3, sp, #64	@ 0x40
   2a30a:	709a      	strb	r2, [r3, #2]
   2a30c:	784a      	ldrb	r2, [r1, #1]
   2a30e:	788c      	ldrb	r4, [r1, #2]
   2a310:	0224      	lsls	r4, r4, #8
   2a312:	18a2      	adds	r2, r4, r2
   2a314:	801a      	strh	r2, [r3, #0]
   2a316:	3108      	adds	r1, #8
   2a318:	9a0d      	ldr	r2, [sp, #52]	@ 0x34
   2a31a:	6e12      	ldr	r2, [r2, #96]	@ 0x60
   2a31c:	920f      	str	r2, [sp, #60]	@ 0x3c
   2a31e:	4ace      	ldr	r2, [pc, #824]	@ (2a658 <_start+0x2a58>)
   2a320:	446a      	add	r2, sp
   2a322:	c938      	ldmia	r1!, {r3, r4, r5}
   2a324:	c238      	stmia	r2!, {r3, r4, r5}
   2a326:	c978      	ldmia	r1!, {r3, r4, r5, r6}
   2a328:	c278      	stmia	r2!, {r3, r4, r5, r6}
   2a32a:	c938      	ldmia	r1!, {r3, r4, r5}
   2a32c:	c238      	stmia	r2!, {r3, r4, r5}
   2a32e:	c978      	ldmia	r1!, {r3, r4, r5, r6}
   2a330:	c278      	stmia	r2!, {r3, r4, r5, r6}
   2a332:	7809      	ldrb	r1, [r1, #0]
   2a334:	7011      	strb	r1, [r2, #0]
   2a336:	2800      	cmp	r0, #0
   2a338:	d001      	beq.n	2a33e <_start+0x273e>
   2a33a:	f000 ff62 	bl	2b202 <_start+0x3602>
   2a33e:	4cc8      	ldr	r4, [pc, #800]	@ (2a660 <_start+0x2a60>)
   2a340:	446c      	add	r4, sp
   2a342:	990f      	ldr	r1, [sp, #60]	@ 0x3c
   2a344:	70e1      	strb	r1, [r4, #3]
   2a346:	9810      	ldr	r0, [sp, #64]	@ 0x40
   2a348:	8020      	strh	r0, [r4, #0]
   2a34a:	0e08      	lsrs	r0, r1, #24
   2a34c:	71a0      	strb	r0, [r4, #6]
   2a34e:	0c08      	lsrs	r0, r1, #16
   2a350:	7160      	strb	r0, [r4, #5]
   2a352:	0a08      	lsrs	r0, r1, #8
   2a354:	7120      	strb	r0, [r4, #4]
   2a356:	a810      	add	r0, sp, #64	@ 0x40
   2a358:	7880      	ldrb	r0, [r0, #2]
   2a35a:	70a0      	strb	r0, [r4, #2]
   2a35c:	1de0      	adds	r0, r4, #7
   2a35e:	49be      	ldr	r1, [pc, #760]	@ (2a658 <_start+0x2a58>)
   2a360:	4469      	add	r1, sp
   2a362:	2239      	movs	r2, #57	@ 0x39
   2a364:	f001 f971 	bl	2b64a <__aeabi_memcpy>
   2a368:	4dba      	ldr	r5, [pc, #744]	@ (2a654 <_start+0x2a54>)
   2a36a:	446d      	add	r5, sp
   2a36c:	4628      	mov	r0, r5
   2a36e:	4621      	mov	r1, r4
   2a370:	f7fa fab8 	bl	248e4 <_ZN20complex_dynamic_type3app17h9327bf04e47d0831E>
   2a374:	7828      	ldrb	r0, [r5, #0]
   2a376:	2801      	cmp	r0, #1
   2a378:	d103      	bne.n	2a382 <_start+0x2782>
   2a37a:	990d      	ldr	r1, [sp, #52]	@ 0x34
   2a37c:	6e09      	ldr	r1, [r1, #96]	@ 0x60
   2a37e:	910f      	str	r1, [sp, #60]	@ 0x3c
   2a380:	e017      	b.n	2a3b2 <_start+0x27b2>
   2a382:	49b4      	ldr	r1, [pc, #720]	@ (2a654 <_start+0x2a54>)
   2a384:	4469      	add	r1, sp
   2a386:	78ca      	ldrb	r2, [r1, #3]
   2a388:	ab10      	add	r3, sp, #64	@ 0x40
   2a38a:	709a      	strb	r2, [r3, #2]
   2a38c:	784a      	ldrb	r2, [r1, #1]
   2a38e:	788c      	ldrb	r4, [r1, #2]
   2a390:	0224      	lsls	r4, r4, #8
   2a392:	18a2      	adds	r2, r4, r2
   2a394:	801a      	strh	r2, [r3, #0]
   2a396:	3108      	adds	r1, #8
   2a398:	9a0d      	ldr	r2, [sp, #52]	@ 0x34
   2a39a:	6e12      	ldr	r2, [r2, #96]	@ 0x60
   2a39c:	920f      	str	r2, [sp, #60]	@ 0x3c
   2a39e:	4aae      	ldr	r2, [pc, #696]	@ (2a658 <_start+0x2a58>)
   2a3a0:	446a      	add	r2, sp
   2a3a2:	c938      	ldmia	r1!, {r3, r4, r5}
   2a3a4:	c238      	stmia	r2!, {r3, r4, r5}
   2a3a6:	c938      	ldmia	r1!, {r3, r4, r5}
   2a3a8:	c238      	stmia	r2!, {r3, r4, r5}
   2a3aa:	c978      	ldmia	r1!, {r3, r4, r5, r6}
   2a3ac:	c278      	stmia	r2!, {r3, r4, r5, r6}
   2a3ae:	8809      	ldrh	r1, [r1, #0]
   2a3b0:	8011      	strh	r1, [r2, #0]
   2a3b2:	2800      	cmp	r0, #0
   2a3b4:	d001      	beq.n	2a3ba <_start+0x27ba>
   2a3b6:	f000 ff24 	bl	2b202 <_start+0x3602>
   2a3ba:	4caa      	ldr	r4, [pc, #680]	@ (2a664 <_start+0x2a64>)
   2a3bc:	446c      	add	r4, sp
   2a3be:	990f      	ldr	r1, [sp, #60]	@ 0x3c
   2a3c0:	70e1      	strb	r1, [r4, #3]
   2a3c2:	9810      	ldr	r0, [sp, #64]	@ 0x40
   2a3c4:	8020      	strh	r0, [r4, #0]
   2a3c6:	0e08      	lsrs	r0, r1, #24
   2a3c8:	71a0      	strb	r0, [r4, #6]
   2a3ca:	0c08      	lsrs	r0, r1, #16
   2a3cc:	7160      	strb	r0, [r4, #5]
   2a3ce:	0a08      	lsrs	r0, r1, #8
   2a3d0:	7120      	strb	r0, [r4, #4]
   2a3d2:	a810      	add	r0, sp, #64	@ 0x40
   2a3d4:	7880      	ldrb	r0, [r0, #2]
   2a3d6:	70a0      	strb	r0, [r4, #2]
   2a3d8:	1de0      	adds	r0, r4, #7
   2a3da:	499f      	ldr	r1, [pc, #636]	@ (2a658 <_start+0x2a58>)
   2a3dc:	4469      	add	r1, sp
   2a3de:	222a      	movs	r2, #42	@ 0x2a
   2a3e0:	f001 f933 	bl	2b64a <__aeabi_memcpy>
   2a3e4:	4d9b      	ldr	r5, [pc, #620]	@ (2a654 <_start+0x2a54>)
   2a3e6:	446d      	add	r5, sp
   2a3e8:	4628      	mov	r0, r5
   2a3ea:	4621      	mov	r1, r4
   2a3ec:	f7fa f9e2 	bl	247b4 <_ZN20complex_dynamic_type3app17h904b8b1bdd20cff0E>
   2a3f0:	782c      	ldrb	r4, [r5, #0]
   2a3f2:	2c01      	cmp	r4, #1
   2a3f4:	d103      	bne.n	2a3fe <_start+0x27fe>
   2a3f6:	980d      	ldr	r0, [sp, #52]	@ 0x34
   2a3f8:	6e00      	ldr	r0, [r0, #96]	@ 0x60
   2a3fa:	900f      	str	r0, [sp, #60]	@ 0x3c
   2a3fc:	e012      	b.n	2a424 <_start+0x2824>
   2a3fe:	4995      	ldr	r1, [pc, #596]	@ (2a654 <_start+0x2a54>)
   2a400:	4469      	add	r1, sp
   2a402:	78c8      	ldrb	r0, [r1, #3]
   2a404:	aa10      	add	r2, sp, #64	@ 0x40
   2a406:	7090      	strb	r0, [r2, #2]
   2a408:	7848      	ldrb	r0, [r1, #1]
   2a40a:	788b      	ldrb	r3, [r1, #2]
   2a40c:	021b      	lsls	r3, r3, #8
   2a40e:	1818      	adds	r0, r3, r0
   2a410:	8010      	strh	r0, [r2, #0]
   2a412:	980d      	ldr	r0, [sp, #52]	@ 0x34
   2a414:	6e00      	ldr	r0, [r0, #96]	@ 0x60
   2a416:	900f      	str	r0, [sp, #60]	@ 0x3c
   2a418:	3108      	adds	r1, #8
   2a41a:	488f      	ldr	r0, [pc, #572]	@ (2a658 <_start+0x2a58>)
   2a41c:	4468      	add	r0, sp
   2a41e:	2241      	movs	r2, #65	@ 0x41
   2a420:	f000 ffb3 	bl	2b38a <__aeabi_memcpy4>
   2a424:	2c00      	cmp	r4, #0
   2a426:	d001      	beq.n	2a42c <_start+0x282c>
   2a428:	f000 feeb 	bl	2b202 <_start+0x3602>
   2a42c:	4c8e      	ldr	r4, [pc, #568]	@ (2a668 <_start+0x2a68>)
   2a42e:	446c      	add	r4, sp
   2a430:	990f      	ldr	r1, [sp, #60]	@ 0x3c
   2a432:	70e1      	strb	r1, [r4, #3]
   2a434:	9810      	ldr	r0, [sp, #64]	@ 0x40
   2a436:	8020      	strh	r0, [r4, #0]
   2a438:	0e08      	lsrs	r0, r1, #24
   2a43a:	71a0      	strb	r0, [r4, #6]
   2a43c:	0c08      	lsrs	r0, r1, #16
   2a43e:	7160      	strb	r0, [r4, #5]
   2a440:	0a08      	lsrs	r0, r1, #8
   2a442:	7120      	strb	r0, [r4, #4]
   2a444:	a810      	add	r0, sp, #64	@ 0x40
   2a446:	7880      	ldrb	r0, [r0, #2]
   2a448:	70a0      	strb	r0, [r4, #2]
   2a44a:	1de0      	adds	r0, r4, #7
   2a44c:	4982      	ldr	r1, [pc, #520]	@ (2a658 <_start+0x2a58>)
   2a44e:	4469      	add	r1, sp
   2a450:	2241      	movs	r2, #65	@ 0x41
   2a452:	f001 f8fa 	bl	2b64a <__aeabi_memcpy>
   2a456:	4d7f      	ldr	r5, [pc, #508]	@ (2a654 <_start+0x2a54>)
   2a458:	446d      	add	r5, sp
   2a45a:	4628      	mov	r0, r5
   2a45c:	4621      	mov	r1, r4
   2a45e:	f7f9 fb1b 	bl	23a98 <_ZN20complex_dynamic_type3app17h72c4ef658043868fE>
   2a462:	7828      	ldrb	r0, [r5, #0]
   2a464:	2801      	cmp	r0, #1
   2a466:	d103      	bne.n	2a470 <_start+0x2870>
   2a468:	990d      	ldr	r1, [sp, #52]	@ 0x34
   2a46a:	6e09      	ldr	r1, [r1, #96]	@ 0x60
   2a46c:	910f      	str	r1, [sp, #60]	@ 0x3c
   2a46e:	e015      	b.n	2a49c <_start+0x289c>
   2a470:	4978      	ldr	r1, [pc, #480]	@ (2a654 <_start+0x2a54>)
   2a472:	4469      	add	r1, sp
   2a474:	78ca      	ldrb	r2, [r1, #3]
   2a476:	ab10      	add	r3, sp, #64	@ 0x40
   2a478:	709a      	strb	r2, [r3, #2]
   2a47a:	784a      	ldrb	r2, [r1, #1]
   2a47c:	788c      	ldrb	r4, [r1, #2]
   2a47e:	0224      	lsls	r4, r4, #8
   2a480:	18a2      	adds	r2, r4, r2
   2a482:	801a      	strh	r2, [r3, #0]
   2a484:	3108      	adds	r1, #8
   2a486:	9a0d      	ldr	r2, [sp, #52]	@ 0x34
   2a488:	6e12      	ldr	r2, [r2, #96]	@ 0x60
   2a48a:	920f      	str	r2, [sp, #60]	@ 0x3c
   2a48c:	4a72      	ldr	r2, [pc, #456]	@ (2a658 <_start+0x2a58>)
   2a48e:	446a      	add	r2, sp
   2a490:	c978      	ldmia	r1!, {r3, r4, r5, r6}
   2a492:	c278      	stmia	r2!, {r3, r4, r5, r6}
   2a494:	c978      	ldmia	r1!, {r3, r4, r5, r6}
   2a496:	c278      	stmia	r2!, {r3, r4, r5, r6}
   2a498:	8809      	ldrh	r1, [r1, #0]
   2a49a:	8011      	strh	r1, [r2, #0]
   2a49c:	2800      	cmp	r0, #0
   2a49e:	d001      	beq.n	2a4a4 <_start+0x28a4>
   2a4a0:	f000 feaf 	bl	2b202 <_start+0x3602>
   2a4a4:	4c71      	ldr	r4, [pc, #452]	@ (2a66c <_start+0x2a6c>)
   2a4a6:	446c      	add	r4, sp
   2a4a8:	990f      	ldr	r1, [sp, #60]	@ 0x3c
   2a4aa:	70e1      	strb	r1, [r4, #3]
   2a4ac:	9810      	ldr	r0, [sp, #64]	@ 0x40
   2a4ae:	8020      	strh	r0, [r4, #0]
   2a4b0:	0e08      	lsrs	r0, r1, #24
   2a4b2:	71a0      	strb	r0, [r4, #6]
   2a4b4:	0c08      	lsrs	r0, r1, #16
   2a4b6:	7160      	strb	r0, [r4, #5]
   2a4b8:	0a08      	lsrs	r0, r1, #8
   2a4ba:	7120      	strb	r0, [r4, #4]
   2a4bc:	a810      	add	r0, sp, #64	@ 0x40
   2a4be:	7880      	ldrb	r0, [r0, #2]
   2a4c0:	70a0      	strb	r0, [r4, #2]
   2a4c2:	1de0      	adds	r0, r4, #7
   2a4c4:	4964      	ldr	r1, [pc, #400]	@ (2a658 <_start+0x2a58>)
   2a4c6:	4469      	add	r1, sp
   2a4c8:	2222      	movs	r2, #34	@ 0x22
   2a4ca:	f001 f8be 	bl	2b64a <__aeabi_memcpy>
   2a4ce:	4d61      	ldr	r5, [pc, #388]	@ (2a654 <_start+0x2a54>)
   2a4d0:	446d      	add	r5, sp
   2a4d2:	4628      	mov	r0, r5
   2a4d4:	4621      	mov	r1, r4
   2a4d6:	f7fc ff71 	bl	273bc <_ZN20complex_dynamic_type3app17hf09dc304de6b0732E>
   2a4da:	7828      	ldrb	r0, [r5, #0]
   2a4dc:	2801      	cmp	r0, #1
   2a4de:	d103      	bne.n	2a4e8 <_start+0x28e8>
   2a4e0:	990d      	ldr	r1, [sp, #52]	@ 0x34
   2a4e2:	6e09      	ldr	r1, [r1, #96]	@ 0x60
   2a4e4:	910f      	str	r1, [sp, #60]	@ 0x3c
   2a4e6:	e015      	b.n	2a514 <_start+0x2914>
   2a4e8:	495a      	ldr	r1, [pc, #360]	@ (2a654 <_start+0x2a54>)
   2a4ea:	4469      	add	r1, sp
   2a4ec:	78ca      	ldrb	r2, [r1, #3]
   2a4ee:	ab10      	add	r3, sp, #64	@ 0x40
   2a4f0:	709a      	strb	r2, [r3, #2]
   2a4f2:	784a      	ldrb	r2, [r1, #1]
   2a4f4:	788c      	ldrb	r4, [r1, #2]
   2a4f6:	0224      	lsls	r4, r4, #8
   2a4f8:	18a2      	adds	r2, r4, r2
   2a4fa:	801a      	strh	r2, [r3, #0]
   2a4fc:	3108      	adds	r1, #8
   2a4fe:	9a0d      	ldr	r2, [sp, #52]	@ 0x34
   2a500:	6e12      	ldr	r2, [r2, #96]	@ 0x60
   2a502:	920f      	str	r2, [sp, #60]	@ 0x3c
   2a504:	4a54      	ldr	r2, [pc, #336]	@ (2a658 <_start+0x2a58>)
   2a506:	446a      	add	r2, sp
   2a508:	c978      	ldmia	r1!, {r3, r4, r5, r6}
   2a50a:	c278      	stmia	r2!, {r3, r4, r5, r6}
   2a50c:	880b      	ldrh	r3, [r1, #0]
   2a50e:	8013      	strh	r3, [r2, #0]
   2a510:	7889      	ldrb	r1, [r1, #2]
   2a512:	7091      	strb	r1, [r2, #2]
   2a514:	2800      	cmp	r0, #0
   2a516:	d001      	beq.n	2a51c <_start+0x291c>
   2a518:	f000 fe73 	bl	2b202 <_start+0x3602>
   2a51c:	4c54      	ldr	r4, [pc, #336]	@ (2a670 <_start+0x2a70>)
   2a51e:	446c      	add	r4, sp
   2a520:	990f      	ldr	r1, [sp, #60]	@ 0x3c
   2a522:	70e1      	strb	r1, [r4, #3]
   2a524:	9810      	ldr	r0, [sp, #64]	@ 0x40
   2a526:	8020      	strh	r0, [r4, #0]
   2a528:	0e08      	lsrs	r0, r1, #24
   2a52a:	71a0      	strb	r0, [r4, #6]
   2a52c:	0c08      	lsrs	r0, r1, #16
   2a52e:	7160      	strb	r0, [r4, #5]
   2a530:	0a08      	lsrs	r0, r1, #8
   2a532:	7120      	strb	r0, [r4, #4]
   2a534:	a810      	add	r0, sp, #64	@ 0x40
   2a536:	7880      	ldrb	r0, [r0, #2]
   2a538:	70a0      	strb	r0, [r4, #2]
   2a53a:	1de0      	adds	r0, r4, #7
   2a53c:	4946      	ldr	r1, [pc, #280]	@ (2a658 <_start+0x2a58>)
   2a53e:	4469      	add	r1, sp
   2a540:	2213      	movs	r2, #19
   2a542:	f001 f882 	bl	2b64a <__aeabi_memcpy>
   2a546:	4d43      	ldr	r5, [pc, #268]	@ (2a654 <_start+0x2a54>)
   2a548:	446d      	add	r5, sp
   2a54a:	4628      	mov	r0, r5
   2a54c:	4621      	mov	r1, r4
   2a54e:	f7f7 ff5b 	bl	22408 <_ZN20complex_dynamic_type3app17h354a2292cc54f62cE>
   2a552:	7828      	ldrb	r0, [r5, #0]
   2a554:	2801      	cmp	r0, #1
   2a556:	d103      	bne.n	2a560 <_start+0x2960>
   2a558:	990d      	ldr	r1, [sp, #52]	@ 0x34
   2a55a:	6e09      	ldr	r1, [r1, #96]	@ 0x60
   2a55c:	910f      	str	r1, [sp, #60]	@ 0x3c
   2a55e:	e013      	b.n	2a588 <_start+0x2988>
   2a560:	493c      	ldr	r1, [pc, #240]	@ (2a654 <_start+0x2a54>)
   2a562:	4469      	add	r1, sp
   2a564:	78ca      	ldrb	r2, [r1, #3]
   2a566:	ab10      	add	r3, sp, #64	@ 0x40
   2a568:	709a      	strb	r2, [r3, #2]
   2a56a:	784a      	ldrb	r2, [r1, #1]
   2a56c:	788c      	ldrb	r4, [r1, #2]
   2a56e:	0224      	lsls	r4, r4, #8
   2a570:	18a2      	adds	r2, r4, r2
   2a572:	801a      	strh	r2, [r3, #0]
   2a574:	3108      	adds	r1, #8
   2a576:	9a0d      	ldr	r2, [sp, #52]	@ 0x34
   2a578:	6e12      	ldr	r2, [r2, #96]	@ 0x60
   2a57a:	920f      	str	r2, [sp, #60]	@ 0x3c
   2a57c:	4a36      	ldr	r2, [pc, #216]	@ (2a658 <_start+0x2a58>)
   2a57e:	446a      	add	r2, sp
   2a580:	c918      	ldmia	r1!, {r3, r4}
   2a582:	c218      	stmia	r2!, {r3, r4}
   2a584:	c938      	ldmia	r1!, {r3, r4, r5}
   2a586:	c238      	stmia	r2!, {r3, r4, r5}
   2a588:	2800      	cmp	r0, #0
   2a58a:	d001      	beq.n	2a590 <_start+0x2990>
   2a58c:	f000 fe39 	bl	2b202 <_start+0x3602>
   2a590:	4c38      	ldr	r4, [pc, #224]	@ (2a674 <_start+0x2a74>)
   2a592:	446c      	add	r4, sp
   2a594:	990f      	ldr	r1, [sp, #60]	@ 0x3c
   2a596:	70e1      	strb	r1, [r4, #3]
   2a598:	9810      	ldr	r0, [sp, #64]	@ 0x40
   2a59a:	8020      	strh	r0, [r4, #0]
   2a59c:	0e08      	lsrs	r0, r1, #24
   2a59e:	71a0      	strb	r0, [r4, #6]
   2a5a0:	0c08      	lsrs	r0, r1, #16
   2a5a2:	7160      	strb	r0, [r4, #5]
   2a5a4:	0a08      	lsrs	r0, r1, #8
   2a5a6:	7120      	strb	r0, [r4, #4]
   2a5a8:	a810      	add	r0, sp, #64	@ 0x40
   2a5aa:	7880      	ldrb	r0, [r0, #2]
   2a5ac:	70a0      	strb	r0, [r4, #2]
   2a5ae:	1de0      	adds	r0, r4, #7
   2a5b0:	4929      	ldr	r1, [pc, #164]	@ (2a658 <_start+0x2a58>)
   2a5b2:	4469      	add	r1, sp
   2a5b4:	2214      	movs	r2, #20
   2a5b6:	f001 f848 	bl	2b64a <__aeabi_memcpy>
   2a5ba:	4d26      	ldr	r5, [pc, #152]	@ (2a654 <_start+0x2a54>)
   2a5bc:	446d      	add	r5, sp
   2a5be:	4628      	mov	r0, r5
   2a5c0:	4621      	mov	r1, r4
   2a5c2:	f7fa fb55 	bl	24c70 <_ZN20complex_dynamic_type3app17h98b7850245d40627E>
   2a5c6:	7828      	ldrb	r0, [r5, #0]
   2a5c8:	2801      	cmp	r0, #1
   2a5ca:	d103      	bne.n	2a5d4 <_start+0x29d4>
   2a5cc:	990d      	ldr	r1, [sp, #52]	@ 0x34
   2a5ce:	6e09      	ldr	r1, [r1, #96]	@ 0x60
   2a5d0:	910f      	str	r1, [sp, #60]	@ 0x3c
   2a5d2:	e019      	b.n	2a608 <_start+0x2a08>
   2a5d4:	491f      	ldr	r1, [pc, #124]	@ (2a654 <_start+0x2a54>)
   2a5d6:	4469      	add	r1, sp
   2a5d8:	78ca      	ldrb	r2, [r1, #3]
   2a5da:	ab10      	add	r3, sp, #64	@ 0x40
   2a5dc:	709a      	strb	r2, [r3, #2]
   2a5de:	784a      	ldrb	r2, [r1, #1]
   2a5e0:	788c      	ldrb	r4, [r1, #2]
   2a5e2:	0224      	lsls	r4, r4, #8
   2a5e4:	18a2      	adds	r2, r4, r2
   2a5e6:	801a      	strh	r2, [r3, #0]
   2a5e8:	3108      	adds	r1, #8
   2a5ea:	9a0d      	ldr	r2, [sp, #52]	@ 0x34
   2a5ec:	6e12      	ldr	r2, [r2, #96]	@ 0x60
   2a5ee:	920f      	str	r2, [sp, #60]	@ 0x3c
   2a5f0:	4a19      	ldr	r2, [pc, #100]	@ (2a658 <_start+0x2a58>)
   2a5f2:	446a      	add	r2, sp
   2a5f4:	c938      	ldmia	r1!, {r3, r4, r5}
   2a5f6:	c238      	stmia	r2!, {r3, r4, r5}
   2a5f8:	c978      	ldmia	r1!, {r3, r4, r5, r6}
   2a5fa:	c278      	stmia	r2!, {r3, r4, r5, r6}
   2a5fc:	c938      	ldmia	r1!, {r3, r4, r5}
   2a5fe:	c238      	stmia	r2!, {r3, r4, r5}
   2a600:	c978      	ldmia	r1!, {r3, r4, r5, r6}
   2a602:	c278      	stmia	r2!, {r3, r4, r5, r6}
   2a604:	8809      	ldrh	r1, [r1, #0]
   2a606:	8011      	strh	r1, [r2, #0]
   2a608:	2800      	cmp	r0, #0
   2a60a:	d001      	beq.n	2a610 <_start+0x2a10>
   2a60c:	f000 fdf9 	bl	2b202 <_start+0x3602>
   2a610:	4c19      	ldr	r4, [pc, #100]	@ (2a678 <_start+0x2a78>)
   2a612:	446c      	add	r4, sp
   2a614:	990f      	ldr	r1, [sp, #60]	@ 0x3c
   2a616:	70e1      	strb	r1, [r4, #3]
   2a618:	9810      	ldr	r0, [sp, #64]	@ 0x40
   2a61a:	8020      	strh	r0, [r4, #0]
   2a61c:	0e08      	lsrs	r0, r1, #24
   2a61e:	71a0      	strb	r0, [r4, #6]
   2a620:	0c08      	lsrs	r0, r1, #16
   2a622:	7160      	strb	r0, [r4, #5]
   2a624:	0a08      	lsrs	r0, r1, #8
   2a626:	7120      	strb	r0, [r4, #4]
   2a628:	a810      	add	r0, sp, #64	@ 0x40
   2a62a:	7880      	ldrb	r0, [r0, #2]
   2a62c:	70a0      	strb	r0, [r4, #2]
   2a62e:	1de0      	adds	r0, r4, #7
   2a630:	4909      	ldr	r1, [pc, #36]	@ (2a658 <_start+0x2a58>)
   2a632:	4469      	add	r1, sp
   2a634:	223a      	movs	r2, #58	@ 0x3a
   2a636:	f001 f808 	bl	2b64a <__aeabi_memcpy>
   2a63a:	4d06      	ldr	r5, [pc, #24]	@ (2a654 <_start+0x2a54>)
   2a63c:	446d      	add	r5, sp
   2a63e:	4628      	mov	r0, r5
   2a640:	4621      	mov	r1, r4
   2a642:	f7f7 f85d 	bl	21700 <_ZN20complex_dynamic_type3app17h19b7ffe200ae93f9E>
   2a646:	7828      	ldrb	r0, [r5, #0]
   2a648:	2801      	cmp	r0, #1
   2a64a:	d117      	bne.n	2a67c <_start+0x2a7c>
   2a64c:	990d      	ldr	r1, [sp, #52]	@ 0x34
   2a64e:	6e09      	ldr	r1, [r1, #96]	@ 0x60
   2a650:	910f      	str	r1, [sp, #60]	@ 0x3c
   2a652:	e027      	b.n	2a6a4 <_start+0x2aa4>
   2a654:	00001414 	.word	0x00001414
   2a658:	000013b8 	.word	0x000013b8
   2a65c:	00000d8c 	.word	0x00000d8c
   2a660:	00000dec 	.word	0x00000dec
   2a664:	00000e2c 	.word	0x00000e2c
   2a668:	00000e60 	.word	0x00000e60
   2a66c:	00000ea8 	.word	0x00000ea8
   2a670:	00000ed4 	.word	0x00000ed4
   2a674:	00000ef0 	.word	0x00000ef0
   2a678:	00000f0c 	.word	0x00000f0c
   2a67c:	49f1      	ldr	r1, [pc, #964]	@ (2aa44 <_start+0x2e44>)
   2a67e:	4469      	add	r1, sp
   2a680:	78ca      	ldrb	r2, [r1, #3]
   2a682:	ab10      	add	r3, sp, #64	@ 0x40
   2a684:	709a      	strb	r2, [r3, #2]
   2a686:	784a      	ldrb	r2, [r1, #1]
   2a688:	788c      	ldrb	r4, [r1, #2]
   2a68a:	0224      	lsls	r4, r4, #8
   2a68c:	18a2      	adds	r2, r4, r2
   2a68e:	801a      	strh	r2, [r3, #0]
   2a690:	3108      	adds	r1, #8
   2a692:	9a0d      	ldr	r2, [sp, #52]	@ 0x34
   2a694:	6e12      	ldr	r2, [r2, #96]	@ 0x60
   2a696:	920f      	str	r2, [sp, #60]	@ 0x3c
   2a698:	4aeb      	ldr	r2, [pc, #940]	@ (2aa48 <_start+0x2e48>)
   2a69a:	446a      	add	r2, sp
   2a69c:	c978      	ldmia	r1!, {r3, r4, r5, r6}
   2a69e:	c278      	stmia	r2!, {r3, r4, r5, r6}
   2a6a0:	7809      	ldrb	r1, [r1, #0]
   2a6a2:	7011      	strb	r1, [r2, #0]
   2a6a4:	2800      	cmp	r0, #0
   2a6a6:	d001      	beq.n	2a6ac <_start+0x2aac>
   2a6a8:	f000 fdab 	bl	2b202 <_start+0x3602>
   2a6ac:	4ce7      	ldr	r4, [pc, #924]	@ (2aa4c <_start+0x2e4c>)
   2a6ae:	446c      	add	r4, sp
   2a6b0:	990f      	ldr	r1, [sp, #60]	@ 0x3c
   2a6b2:	70e1      	strb	r1, [r4, #3]
   2a6b4:	9810      	ldr	r0, [sp, #64]	@ 0x40
   2a6b6:	8020      	strh	r0, [r4, #0]
   2a6b8:	0e08      	lsrs	r0, r1, #24
   2a6ba:	71a0      	strb	r0, [r4, #6]
   2a6bc:	0c08      	lsrs	r0, r1, #16
   2a6be:	7160      	strb	r0, [r4, #5]
   2a6c0:	0a08      	lsrs	r0, r1, #8
   2a6c2:	7120      	strb	r0, [r4, #4]
   2a6c4:	a810      	add	r0, sp, #64	@ 0x40
   2a6c6:	7880      	ldrb	r0, [r0, #2]
   2a6c8:	70a0      	strb	r0, [r4, #2]
   2a6ca:	1de0      	adds	r0, r4, #7
   2a6cc:	49de      	ldr	r1, [pc, #888]	@ (2aa48 <_start+0x2e48>)
   2a6ce:	4469      	add	r1, sp
   2a6d0:	2211      	movs	r2, #17
   2a6d2:	f000 ffba 	bl	2b64a <__aeabi_memcpy>
   2a6d6:	4ddb      	ldr	r5, [pc, #876]	@ (2aa44 <_start+0x2e44>)
   2a6d8:	446d      	add	r5, sp
   2a6da:	4628      	mov	r0, r5
   2a6dc:	4621      	mov	r1, r4
   2a6de:	f7fc f90f 	bl	26900 <_ZN20complex_dynamic_type3app17hddfa95a86ed89b41E>
   2a6e2:	7828      	ldrb	r0, [r5, #0]
   2a6e4:	2801      	cmp	r0, #1
   2a6e6:	d103      	bne.n	2a6f0 <_start+0x2af0>
   2a6e8:	990d      	ldr	r1, [sp, #52]	@ 0x34
   2a6ea:	6e09      	ldr	r1, [r1, #96]	@ 0x60
   2a6ec:	910f      	str	r1, [sp, #60]	@ 0x3c
   2a6ee:	e017      	b.n	2a720 <_start+0x2b20>
   2a6f0:	49d4      	ldr	r1, [pc, #848]	@ (2aa44 <_start+0x2e44>)
   2a6f2:	4469      	add	r1, sp
   2a6f4:	78ca      	ldrb	r2, [r1, #3]
   2a6f6:	ab10      	add	r3, sp, #64	@ 0x40
   2a6f8:	709a      	strb	r2, [r3, #2]
   2a6fa:	784a      	ldrb	r2, [r1, #1]
   2a6fc:	788c      	ldrb	r4, [r1, #2]
   2a6fe:	0224      	lsls	r4, r4, #8
   2a700:	18a2      	adds	r2, r4, r2
   2a702:	801a      	strh	r2, [r3, #0]
   2a704:	3108      	adds	r1, #8
   2a706:	9a0d      	ldr	r2, [sp, #52]	@ 0x34
   2a708:	6e12      	ldr	r2, [r2, #96]	@ 0x60
   2a70a:	920f      	str	r2, [sp, #60]	@ 0x3c
   2a70c:	4ace      	ldr	r2, [pc, #824]	@ (2aa48 <_start+0x2e48>)
   2a70e:	446a      	add	r2, sp
   2a710:	c918      	ldmia	r1!, {r3, r4}
   2a712:	c218      	stmia	r2!, {r3, r4}
   2a714:	c938      	ldmia	r1!, {r3, r4, r5}
   2a716:	c238      	stmia	r2!, {r3, r4, r5}
   2a718:	880b      	ldrh	r3, [r1, #0]
   2a71a:	8013      	strh	r3, [r2, #0]
   2a71c:	7889      	ldrb	r1, [r1, #2]
   2a71e:	7091      	strb	r1, [r2, #2]
   2a720:	2800      	cmp	r0, #0
   2a722:	d001      	beq.n	2a728 <_start+0x2b28>
   2a724:	f000 fd6d 	bl	2b202 <_start+0x3602>
   2a728:	4cc9      	ldr	r4, [pc, #804]	@ (2aa50 <_start+0x2e50>)
   2a72a:	446c      	add	r4, sp
   2a72c:	990f      	ldr	r1, [sp, #60]	@ 0x3c
   2a72e:	70e1      	strb	r1, [r4, #3]
   2a730:	9810      	ldr	r0, [sp, #64]	@ 0x40
   2a732:	8020      	strh	r0, [r4, #0]
   2a734:	0e08      	lsrs	r0, r1, #24
   2a736:	71a0      	strb	r0, [r4, #6]
   2a738:	0c08      	lsrs	r0, r1, #16
   2a73a:	7160      	strb	r0, [r4, #5]
   2a73c:	0a08      	lsrs	r0, r1, #8
   2a73e:	7120      	strb	r0, [r4, #4]
   2a740:	a810      	add	r0, sp, #64	@ 0x40
   2a742:	7880      	ldrb	r0, [r0, #2]
   2a744:	70a0      	strb	r0, [r4, #2]
   2a746:	1de0      	adds	r0, r4, #7
   2a748:	49bf      	ldr	r1, [pc, #764]	@ (2aa48 <_start+0x2e48>)
   2a74a:	4469      	add	r1, sp
   2a74c:	2217      	movs	r2, #23
   2a74e:	f000 ff7c 	bl	2b64a <__aeabi_memcpy>
   2a752:	4dbc      	ldr	r5, [pc, #752]	@ (2aa44 <_start+0x2e44>)
   2a754:	446d      	add	r5, sp
   2a756:	4628      	mov	r0, r5
   2a758:	4621      	mov	r1, r4
   2a75a:	f7f6 fe07 	bl	2136c <_ZN20complex_dynamic_type3app17h13f563a535c56b98E>
   2a75e:	7828      	ldrb	r0, [r5, #0]
   2a760:	2801      	cmp	r0, #1
   2a762:	d103      	bne.n	2a76c <_start+0x2b6c>
   2a764:	990d      	ldr	r1, [sp, #52]	@ 0x34
   2a766:	6e09      	ldr	r1, [r1, #96]	@ 0x60
   2a768:	910f      	str	r1, [sp, #60]	@ 0x3c
   2a76a:	e019      	b.n	2a7a0 <_start+0x2ba0>
   2a76c:	49b5      	ldr	r1, [pc, #724]	@ (2aa44 <_start+0x2e44>)
   2a76e:	4469      	add	r1, sp
   2a770:	78ca      	ldrb	r2, [r1, #3]
   2a772:	ab10      	add	r3, sp, #64	@ 0x40
   2a774:	709a      	strb	r2, [r3, #2]
   2a776:	784a      	ldrb	r2, [r1, #1]
   2a778:	788c      	ldrb	r4, [r1, #2]
   2a77a:	0224      	lsls	r4, r4, #8
   2a77c:	18a2      	adds	r2, r4, r2
   2a77e:	801a      	strh	r2, [r3, #0]
   2a780:	3108      	adds	r1, #8
   2a782:	9a0d      	ldr	r2, [sp, #52]	@ 0x34
   2a784:	6e12      	ldr	r2, [r2, #96]	@ 0x60
   2a786:	920f      	str	r2, [sp, #60]	@ 0x3c
   2a788:	4aaf      	ldr	r2, [pc, #700]	@ (2aa48 <_start+0x2e48>)
   2a78a:	446a      	add	r2, sp
   2a78c:	c938      	ldmia	r1!, {r3, r4, r5}
   2a78e:	c238      	stmia	r2!, {r3, r4, r5}
   2a790:	c938      	ldmia	r1!, {r3, r4, r5}
   2a792:	c238      	stmia	r2!, {r3, r4, r5}
   2a794:	c938      	ldmia	r1!, {r3, r4, r5}
   2a796:	c238      	stmia	r2!, {r3, r4, r5}
   2a798:	c978      	ldmia	r1!, {r3, r4, r5, r6}
   2a79a:	c278      	stmia	r2!, {r3, r4, r5, r6}
   2a79c:	7809      	ldrb	r1, [r1, #0]
   2a79e:	7011      	strb	r1, [r2, #0]
   2a7a0:	2800      	cmp	r0, #0
   2a7a2:	d001      	beq.n	2a7a8 <_start+0x2ba8>
   2a7a4:	f000 fd2d 	bl	2b202 <_start+0x3602>
   2a7a8:	4caa      	ldr	r4, [pc, #680]	@ (2aa54 <_start+0x2e54>)
   2a7aa:	446c      	add	r4, sp
   2a7ac:	990f      	ldr	r1, [sp, #60]	@ 0x3c
   2a7ae:	70e1      	strb	r1, [r4, #3]
   2a7b0:	9810      	ldr	r0, [sp, #64]	@ 0x40
   2a7b2:	8020      	strh	r0, [r4, #0]
   2a7b4:	0e08      	lsrs	r0, r1, #24
   2a7b6:	71a0      	strb	r0, [r4, #6]
   2a7b8:	0c08      	lsrs	r0, r1, #16
   2a7ba:	7160      	strb	r0, [r4, #5]
   2a7bc:	0a08      	lsrs	r0, r1, #8
   2a7be:	7120      	strb	r0, [r4, #4]
   2a7c0:	a810      	add	r0, sp, #64	@ 0x40
   2a7c2:	7880      	ldrb	r0, [r0, #2]
   2a7c4:	70a0      	strb	r0, [r4, #2]
   2a7c6:	1de0      	adds	r0, r4, #7
   2a7c8:	499f      	ldr	r1, [pc, #636]	@ (2aa48 <_start+0x2e48>)
   2a7ca:	4469      	add	r1, sp
   2a7cc:	2235      	movs	r2, #53	@ 0x35
   2a7ce:	f000 ff3c 	bl	2b64a <__aeabi_memcpy>
   2a7d2:	4d9c      	ldr	r5, [pc, #624]	@ (2aa44 <_start+0x2e44>)
   2a7d4:	446d      	add	r5, sp
   2a7d6:	4628      	mov	r0, r5
   2a7d8:	4621      	mov	r1, r4
   2a7da:	f7f9 fb29 	bl	23e30 <_ZN20complex_dynamic_type3app17h7a0fc4e0c5399d5eE>
   2a7de:	7828      	ldrb	r0, [r5, #0]
   2a7e0:	2801      	cmp	r0, #1
   2a7e2:	d103      	bne.n	2a7ec <_start+0x2bec>
   2a7e4:	990d      	ldr	r1, [sp, #52]	@ 0x34
   2a7e6:	6e09      	ldr	r1, [r1, #96]	@ 0x60
   2a7e8:	910f      	str	r1, [sp, #60]	@ 0x3c
   2a7ea:	e017      	b.n	2a81c <_start+0x2c1c>
   2a7ec:	4995      	ldr	r1, [pc, #596]	@ (2aa44 <_start+0x2e44>)
   2a7ee:	4469      	add	r1, sp
   2a7f0:	78ca      	ldrb	r2, [r1, #3]
   2a7f2:	ab10      	add	r3, sp, #64	@ 0x40
   2a7f4:	709a      	strb	r2, [r3, #2]
   2a7f6:	784a      	ldrb	r2, [r1, #1]
   2a7f8:	788c      	ldrb	r4, [r1, #2]
   2a7fa:	0224      	lsls	r4, r4, #8
   2a7fc:	18a2      	adds	r2, r4, r2
   2a7fe:	801a      	strh	r2, [r3, #0]
   2a800:	3108      	adds	r1, #8
   2a802:	9a0d      	ldr	r2, [sp, #52]	@ 0x34
   2a804:	6e12      	ldr	r2, [r2, #96]	@ 0x60
   2a806:	920f      	str	r2, [sp, #60]	@ 0x3c
   2a808:	4a8f      	ldr	r2, [pc, #572]	@ (2aa48 <_start+0x2e48>)
   2a80a:	446a      	add	r2, sp
   2a80c:	c938      	ldmia	r1!, {r3, r4, r5}
   2a80e:	c238      	stmia	r2!, {r3, r4, r5}
   2a810:	c938      	ldmia	r1!, {r3, r4, r5}
   2a812:	c238      	stmia	r2!, {r3, r4, r5}
   2a814:	c938      	ldmia	r1!, {r3, r4, r5}
   2a816:	c238      	stmia	r2!, {r3, r4, r5}
   2a818:	7809      	ldrb	r1, [r1, #0]
   2a81a:	7011      	strb	r1, [r2, #0]
   2a81c:	2800      	cmp	r0, #0
   2a81e:	d001      	beq.n	2a824 <_start+0x2c24>
   2a820:	f000 fcef 	bl	2b202 <_start+0x3602>
   2a824:	4c8c      	ldr	r4, [pc, #560]	@ (2aa58 <_start+0x2e58>)
   2a826:	446c      	add	r4, sp
   2a828:	990f      	ldr	r1, [sp, #60]	@ 0x3c
   2a82a:	70e1      	strb	r1, [r4, #3]
   2a82c:	9810      	ldr	r0, [sp, #64]	@ 0x40
   2a82e:	8020      	strh	r0, [r4, #0]
   2a830:	0e08      	lsrs	r0, r1, #24
   2a832:	71a0      	strb	r0, [r4, #6]
   2a834:	0c08      	lsrs	r0, r1, #16
   2a836:	7160      	strb	r0, [r4, #5]
   2a838:	0a08      	lsrs	r0, r1, #8
   2a83a:	7120      	strb	r0, [r4, #4]
   2a83c:	a810      	add	r0, sp, #64	@ 0x40
   2a83e:	7880      	ldrb	r0, [r0, #2]
   2a840:	70a0      	strb	r0, [r4, #2]
   2a842:	1de0      	adds	r0, r4, #7
   2a844:	4980      	ldr	r1, [pc, #512]	@ (2aa48 <_start+0x2e48>)
   2a846:	4469      	add	r1, sp
   2a848:	2225      	movs	r2, #37	@ 0x25
   2a84a:	f000 fefe 	bl	2b64a <__aeabi_memcpy>
   2a84e:	4d7d      	ldr	r5, [pc, #500]	@ (2aa44 <_start+0x2e44>)
   2a850:	446d      	add	r5, sp
   2a852:	4628      	mov	r0, r5
   2a854:	4621      	mov	r1, r4
   2a856:	f7f9 fd4b 	bl	242f0 <_ZN20complex_dynamic_type3app17h84a56c60306bdfcfE>
   2a85a:	7828      	ldrb	r0, [r5, #0]
   2a85c:	2801      	cmp	r0, #1
   2a85e:	d103      	bne.n	2a868 <_start+0x2c68>
   2a860:	990d      	ldr	r1, [sp, #52]	@ 0x34
   2a862:	6e09      	ldr	r1, [r1, #96]	@ 0x60
   2a864:	910f      	str	r1, [sp, #60]	@ 0x3c
   2a866:	e013      	b.n	2a890 <_start+0x2c90>
   2a868:	4976      	ldr	r1, [pc, #472]	@ (2aa44 <_start+0x2e44>)
   2a86a:	4469      	add	r1, sp
   2a86c:	78ca      	ldrb	r2, [r1, #3]
   2a86e:	ab10      	add	r3, sp, #64	@ 0x40
   2a870:	709a      	strb	r2, [r3, #2]
   2a872:	784a      	ldrb	r2, [r1, #1]
   2a874:	788c      	ldrb	r4, [r1, #2]
   2a876:	0224      	lsls	r4, r4, #8
   2a878:	18a2      	adds	r2, r4, r2
   2a87a:	801a      	strh	r2, [r3, #0]
   2a87c:	3108      	adds	r1, #8
   2a87e:	9a0d      	ldr	r2, [sp, #52]	@ 0x34
   2a880:	6e12      	ldr	r2, [r2, #96]	@ 0x60
   2a882:	920f      	str	r2, [sp, #60]	@ 0x3c
   2a884:	4a70      	ldr	r2, [pc, #448]	@ (2aa48 <_start+0x2e48>)
   2a886:	446a      	add	r2, sp
   2a888:	c978      	ldmia	r1!, {r3, r4, r5, r6}
   2a88a:	c278      	stmia	r2!, {r3, r4, r5, r6}
   2a88c:	c978      	ldmia	r1!, {r3, r4, r5, r6}
   2a88e:	c278      	stmia	r2!, {r3, r4, r5, r6}
   2a890:	2800      	cmp	r0, #0
   2a892:	d001      	beq.n	2a898 <_start+0x2c98>
   2a894:	f000 fcb5 	bl	2b202 <_start+0x3602>
   2a898:	4c70      	ldr	r4, [pc, #448]	@ (2aa5c <_start+0x2e5c>)
   2a89a:	446c      	add	r4, sp
   2a89c:	990f      	ldr	r1, [sp, #60]	@ 0x3c
   2a89e:	70e1      	strb	r1, [r4, #3]
   2a8a0:	9810      	ldr	r0, [sp, #64]	@ 0x40
   2a8a2:	8020      	strh	r0, [r4, #0]
   2a8a4:	0e08      	lsrs	r0, r1, #24
   2a8a6:	71a0      	strb	r0, [r4, #6]
   2a8a8:	0c08      	lsrs	r0, r1, #16
   2a8aa:	7160      	strb	r0, [r4, #5]
   2a8ac:	0a08      	lsrs	r0, r1, #8
   2a8ae:	7120      	strb	r0, [r4, #4]
   2a8b0:	a810      	add	r0, sp, #64	@ 0x40
   2a8b2:	7880      	ldrb	r0, [r0, #2]
   2a8b4:	70a0      	strb	r0, [r4, #2]
   2a8b6:	1de0      	adds	r0, r4, #7
   2a8b8:	4963      	ldr	r1, [pc, #396]	@ (2aa48 <_start+0x2e48>)
   2a8ba:	4469      	add	r1, sp
   2a8bc:	2220      	movs	r2, #32
   2a8be:	f000 fec4 	bl	2b64a <__aeabi_memcpy>
   2a8c2:	4d60      	ldr	r5, [pc, #384]	@ (2aa44 <_start+0x2e44>)
   2a8c4:	446d      	add	r5, sp
   2a8c6:	4628      	mov	r0, r5
   2a8c8:	4621      	mov	r1, r4
   2a8ca:	f7f9 fb49 	bl	23f60 <_ZN20complex_dynamic_type3app17h7a1139a52cbf0fe8E>
   2a8ce:	782c      	ldrb	r4, [r5, #0]
   2a8d0:	2c01      	cmp	r4, #1
   2a8d2:	d103      	bne.n	2a8dc <_start+0x2cdc>
   2a8d4:	980d      	ldr	r0, [sp, #52]	@ 0x34
   2a8d6:	6e00      	ldr	r0, [r0, #96]	@ 0x60
   2a8d8:	900f      	str	r0, [sp, #60]	@ 0x3c
   2a8da:	e012      	b.n	2a902 <_start+0x2d02>
   2a8dc:	4959      	ldr	r1, [pc, #356]	@ (2aa44 <_start+0x2e44>)
   2a8de:	4469      	add	r1, sp
   2a8e0:	78c8      	ldrb	r0, [r1, #3]
   2a8e2:	aa10      	add	r2, sp, #64	@ 0x40
   2a8e4:	7090      	strb	r0, [r2, #2]
   2a8e6:	7848      	ldrb	r0, [r1, #1]
   2a8e8:	788b      	ldrb	r3, [r1, #2]
   2a8ea:	021b      	lsls	r3, r3, #8
   2a8ec:	1818      	adds	r0, r3, r0
   2a8ee:	8010      	strh	r0, [r2, #0]
   2a8f0:	980d      	ldr	r0, [sp, #52]	@ 0x34
   2a8f2:	6e00      	ldr	r0, [r0, #96]	@ 0x60
   2a8f4:	900f      	str	r0, [sp, #60]	@ 0x3c
   2a8f6:	3108      	adds	r1, #8
   2a8f8:	4853      	ldr	r0, [pc, #332]	@ (2aa48 <_start+0x2e48>)
   2a8fa:	4468      	add	r0, sp
   2a8fc:	2248      	movs	r2, #72	@ 0x48
   2a8fe:	f000 fd44 	bl	2b38a <__aeabi_memcpy4>
   2a902:	2c00      	cmp	r4, #0
   2a904:	d001      	beq.n	2a90a <_start+0x2d0a>
   2a906:	f000 fc7c 	bl	2b202 <_start+0x3602>
   2a90a:	4c55      	ldr	r4, [pc, #340]	@ (2aa60 <_start+0x2e60>)
   2a90c:	446c      	add	r4, sp
   2a90e:	990f      	ldr	r1, [sp, #60]	@ 0x3c
   2a910:	70e1      	strb	r1, [r4, #3]
   2a912:	9810      	ldr	r0, [sp, #64]	@ 0x40
   2a914:	8020      	strh	r0, [r4, #0]
   2a916:	0e08      	lsrs	r0, r1, #24
   2a918:	71a0      	strb	r0, [r4, #6]
   2a91a:	0c08      	lsrs	r0, r1, #16
   2a91c:	7160      	strb	r0, [r4, #5]
   2a91e:	0a08      	lsrs	r0, r1, #8
   2a920:	7120      	strb	r0, [r4, #4]
   2a922:	a810      	add	r0, sp, #64	@ 0x40
   2a924:	7880      	ldrb	r0, [r0, #2]
   2a926:	70a0      	strb	r0, [r4, #2]
   2a928:	1de0      	adds	r0, r4, #7
   2a92a:	4947      	ldr	r1, [pc, #284]	@ (2aa48 <_start+0x2e48>)
   2a92c:	4469      	add	r1, sp
   2a92e:	2248      	movs	r2, #72	@ 0x48
   2a930:	f000 fe8b 	bl	2b64a <__aeabi_memcpy>
   2a934:	4d43      	ldr	r5, [pc, #268]	@ (2aa44 <_start+0x2e44>)
   2a936:	446d      	add	r5, sp
   2a938:	4628      	mov	r0, r5
   2a93a:	4621      	mov	r1, r4
   2a93c:	f7f6 fc7e 	bl	2123c <_ZN20complex_dynamic_type3app17h12b41397afa06557E>
   2a940:	7828      	ldrb	r0, [r5, #0]
   2a942:	2801      	cmp	r0, #1
   2a944:	d103      	bne.n	2a94e <_start+0x2d4e>
   2a946:	990d      	ldr	r1, [sp, #52]	@ 0x34
   2a948:	6e09      	ldr	r1, [r1, #96]	@ 0x60
   2a94a:	910f      	str	r1, [sp, #60]	@ 0x3c
   2a94c:	e017      	b.n	2a97e <_start+0x2d7e>
   2a94e:	493d      	ldr	r1, [pc, #244]	@ (2aa44 <_start+0x2e44>)
   2a950:	4469      	add	r1, sp
   2a952:	78ca      	ldrb	r2, [r1, #3]
   2a954:	ab10      	add	r3, sp, #64	@ 0x40
   2a956:	709a      	strb	r2, [r3, #2]
   2a958:	784a      	ldrb	r2, [r1, #1]
   2a95a:	788c      	ldrb	r4, [r1, #2]
   2a95c:	0224      	lsls	r4, r4, #8
   2a95e:	18a2      	adds	r2, r4, r2
   2a960:	801a      	strh	r2, [r3, #0]
   2a962:	3108      	adds	r1, #8
   2a964:	9a0d      	ldr	r2, [sp, #52]	@ 0x34
   2a966:	6e12      	ldr	r2, [r2, #96]	@ 0x60
   2a968:	920f      	str	r2, [sp, #60]	@ 0x3c
   2a96a:	4a37      	ldr	r2, [pc, #220]	@ (2aa48 <_start+0x2e48>)
   2a96c:	446a      	add	r2, sp
   2a96e:	c938      	ldmia	r1!, {r3, r4, r5}
   2a970:	c238      	stmia	r2!, {r3, r4, r5}
   2a972:	c978      	ldmia	r1!, {r3, r4, r5, r6}
   2a974:	c278      	stmia	r2!, {r3, r4, r5, r6}
   2a976:	c978      	ldmia	r1!, {r3, r4, r5, r6}
   2a978:	c278      	stmia	r2!, {r3, r4, r5, r6}
   2a97a:	8809      	ldrh	r1, [r1, #0]
   2a97c:	8011      	strh	r1, [r2, #0]
   2a97e:	2800      	cmp	r0, #0
   2a980:	d001      	beq.n	2a986 <_start+0x2d86>
   2a982:	f000 fc3e 	bl	2b202 <_start+0x3602>
   2a986:	4c37      	ldr	r4, [pc, #220]	@ (2aa64 <_start+0x2e64>)
   2a988:	446c      	add	r4, sp
   2a98a:	990f      	ldr	r1, [sp, #60]	@ 0x3c
   2a98c:	70e1      	strb	r1, [r4, #3]
   2a98e:	9810      	ldr	r0, [sp, #64]	@ 0x40
   2a990:	8020      	strh	r0, [r4, #0]
   2a992:	0e08      	lsrs	r0, r1, #24
   2a994:	71a0      	strb	r0, [r4, #6]
   2a996:	0c08      	lsrs	r0, r1, #16
   2a998:	7160      	strb	r0, [r4, #5]
   2a99a:	0a08      	lsrs	r0, r1, #8
   2a99c:	7120      	strb	r0, [r4, #4]
   2a99e:	a810      	add	r0, sp, #64	@ 0x40
   2a9a0:	7880      	ldrb	r0, [r0, #2]
   2a9a2:	70a0      	strb	r0, [r4, #2]
   2a9a4:	1de0      	adds	r0, r4, #7
   2a9a6:	4928      	ldr	r1, [pc, #160]	@ (2aa48 <_start+0x2e48>)
   2a9a8:	4469      	add	r1, sp
   2a9aa:	222e      	movs	r2, #46	@ 0x2e
   2a9ac:	f000 fe4d 	bl	2b64a <__aeabi_memcpy>
   2a9b0:	4d24      	ldr	r5, [pc, #144]	@ (2aa44 <_start+0x2e44>)
   2a9b2:	446d      	add	r5, sp
   2a9b4:	4628      	mov	r0, r5
   2a9b6:	4621      	mov	r1, r4
   2a9b8:	f7f8 fa7e 	bl	22eb8 <_ZN20complex_dynamic_type3app17h4e25f044d9f5d5adE>
   2a9bc:	7828      	ldrb	r0, [r5, #0]
   2a9be:	2801      	cmp	r0, #1
   2a9c0:	d103      	bne.n	2a9ca <_start+0x2dca>
   2a9c2:	990d      	ldr	r1, [sp, #52]	@ 0x34
   2a9c4:	6e09      	ldr	r1, [r1, #96]	@ 0x60
   2a9c6:	910f      	str	r1, [sp, #60]	@ 0x3c
   2a9c8:	e017      	b.n	2a9fa <_start+0x2dfa>
   2a9ca:	491e      	ldr	r1, [pc, #120]	@ (2aa44 <_start+0x2e44>)
   2a9cc:	4469      	add	r1, sp
   2a9ce:	78ca      	ldrb	r2, [r1, #3]
   2a9d0:	ab10      	add	r3, sp, #64	@ 0x40
   2a9d2:	709a      	strb	r2, [r3, #2]
   2a9d4:	784a      	ldrb	r2, [r1, #1]
   2a9d6:	788c      	ldrb	r4, [r1, #2]
   2a9d8:	0224      	lsls	r4, r4, #8
   2a9da:	18a2      	adds	r2, r4, r2
   2a9dc:	801a      	strh	r2, [r3, #0]
   2a9de:	3108      	adds	r1, #8
   2a9e0:	9a0d      	ldr	r2, [sp, #52]	@ 0x34
   2a9e2:	6e12      	ldr	r2, [r2, #96]	@ 0x60
   2a9e4:	920f      	str	r2, [sp, #60]	@ 0x3c
   2a9e6:	4a18      	ldr	r2, [pc, #96]	@ (2aa48 <_start+0x2e48>)
   2a9e8:	446a      	add	r2, sp
   2a9ea:	c938      	ldmia	r1!, {r3, r4, r5}
   2a9ec:	c238      	stmia	r2!, {r3, r4, r5}
   2a9ee:	c978      	ldmia	r1!, {r3, r4, r5, r6}
   2a9f0:	c278      	stmia	r2!, {r3, r4, r5, r6}
   2a9f2:	c938      	ldmia	r1!, {r3, r4, r5}
   2a9f4:	c238      	stmia	r2!, {r3, r4, r5}
   2a9f6:	c978      	ldmia	r1!, {r3, r4, r5, r6}
   2a9f8:	c278      	stmia	r2!, {r3, r4, r5, r6}
   2a9fa:	2800      	cmp	r0, #0
   2a9fc:	d001      	beq.n	2aa02 <_start+0x2e02>
   2a9fe:	f000 fc00 	bl	2b202 <_start+0x3602>
   2aa02:	4c19      	ldr	r4, [pc, #100]	@ (2aa68 <_start+0x2e68>)
   2aa04:	446c      	add	r4, sp
   2aa06:	990f      	ldr	r1, [sp, #60]	@ 0x3c
   2aa08:	70e1      	strb	r1, [r4, #3]
   2aa0a:	9810      	ldr	r0, [sp, #64]	@ 0x40
   2aa0c:	8020      	strh	r0, [r4, #0]
   2aa0e:	0e08      	lsrs	r0, r1, #24
   2aa10:	71a0      	strb	r0, [r4, #6]
   2aa12:	0c08      	lsrs	r0, r1, #16
   2aa14:	7160      	strb	r0, [r4, #5]
   2aa16:	0a08      	lsrs	r0, r1, #8
   2aa18:	7120      	strb	r0, [r4, #4]
   2aa1a:	a810      	add	r0, sp, #64	@ 0x40
   2aa1c:	7880      	ldrb	r0, [r0, #2]
   2aa1e:	70a0      	strb	r0, [r4, #2]
   2aa20:	1de0      	adds	r0, r4, #7
   2aa22:	4909      	ldr	r1, [pc, #36]	@ (2aa48 <_start+0x2e48>)
   2aa24:	4469      	add	r1, sp
   2aa26:	2238      	movs	r2, #56	@ 0x38
   2aa28:	f000 fe0f 	bl	2b64a <__aeabi_memcpy>
   2aa2c:	4d05      	ldr	r5, [pc, #20]	@ (2aa44 <_start+0x2e44>)
   2aa2e:	446d      	add	r5, sp
   2aa30:	4628      	mov	r0, r5
   2aa32:	4621      	mov	r1, r4
   2aa34:	f7fc fb92 	bl	2715c <_ZN20complex_dynamic_type3app17heb3e9e98739aa606E>
   2aa38:	7828      	ldrb	r0, [r5, #0]
   2aa3a:	2801      	cmp	r0, #1
   2aa3c:	d116      	bne.n	2aa6c <_start+0x2e6c>
   2aa3e:	990d      	ldr	r1, [sp, #52]	@ 0x34
   2aa40:	6e09      	ldr	r1, [r1, #96]	@ 0x60
   2aa42:	e026      	b.n	2aa92 <_start+0x2e92>
   2aa44:	00001414 	.word	0x00001414
   2aa48:	000013b8 	.word	0x000013b8
   2aa4c:	00000f50 	.word	0x00000f50
   2aa50:	00000f68 	.word	0x00000f68
   2aa54:	00000f88 	.word	0x00000f88
   2aa58:	00000fc4 	.word	0x00000fc4
   2aa5c:	00000ff0 	.word	0x00000ff0
   2aa60:	00001018 	.word	0x00001018
   2aa64:	00001068 	.word	0x00001068
   2aa68:	000010a0 	.word	0x000010a0
   2aa6c:	49ea      	ldr	r1, [pc, #936]	@ (2ae18 <_start+0x3218>)
   2aa6e:	4469      	add	r1, sp
   2aa70:	9c0d      	ldr	r4, [sp, #52]	@ 0x34
   2aa72:	6ee2      	ldr	r2, [r4, #108]	@ 0x6c
   2aa74:	810a      	strh	r2, [r1, #8]
   2aa76:	49e9      	ldr	r1, [pc, #932]	@ (2ae1c <_start+0x321c>)
   2aa78:	4469      	add	r1, sp
   2aa7a:	78ca      	ldrb	r2, [r1, #3]
   2aa7c:	ab10      	add	r3, sp, #64	@ 0x40
   2aa7e:	709a      	strb	r2, [r3, #2]
   2aa80:	784a      	ldrb	r2, [r1, #1]
   2aa82:	7889      	ldrb	r1, [r1, #2]
   2aa84:	0209      	lsls	r1, r1, #8
   2aa86:	1889      	adds	r1, r1, r2
   2aa88:	8019      	strh	r1, [r3, #0]
   2aa8a:	6e61      	ldr	r1, [r4, #100]	@ 0x64
   2aa8c:	6ea2      	ldr	r2, [r4, #104]	@ 0x68
   2aa8e:	c406      	stmia	r4!, {r1, r2}
   2aa90:	6da1      	ldr	r1, [r4, #88]	@ 0x58
   2aa92:	910f      	str	r1, [sp, #60]	@ 0x3c
   2aa94:	2800      	cmp	r0, #0
   2aa96:	d000      	beq.n	2aa9a <_start+0x2e9a>
   2aa98:	e3b3      	b.n	2b202 <_start+0x3602>
   2aa9a:	4ce1      	ldr	r4, [pc, #900]	@ (2ae20 <_start+0x3220>)
   2aa9c:	446c      	add	r4, sp
   2aa9e:	990f      	ldr	r1, [sp, #60]	@ 0x3c
   2aaa0:	70e1      	strb	r1, [r4, #3]
   2aaa2:	9810      	ldr	r0, [sp, #64]	@ 0x40
   2aaa4:	8020      	strh	r0, [r4, #0]
   2aaa6:	0e08      	lsrs	r0, r1, #24
   2aaa8:	71a0      	strb	r0, [r4, #6]
   2aaaa:	0c08      	lsrs	r0, r1, #16
   2aaac:	7160      	strb	r0, [r4, #5]
   2aaae:	0a08      	lsrs	r0, r1, #8
   2aab0:	7120      	strb	r0, [r4, #4]
   2aab2:	a810      	add	r0, sp, #64	@ 0x40
   2aab4:	7880      	ldrb	r0, [r0, #2]
   2aab6:	70a0      	strb	r0, [r4, #2]
   2aab8:	1de0      	adds	r0, r4, #7
   2aaba:	49d7      	ldr	r1, [pc, #860]	@ (2ae18 <_start+0x3218>)
   2aabc:	4469      	add	r1, sp
   2aabe:	220a      	movs	r2, #10
   2aac0:	f000 fdc3 	bl	2b64a <__aeabi_memcpy>
   2aac4:	4dd5      	ldr	r5, [pc, #852]	@ (2ae1c <_start+0x321c>)
   2aac6:	446d      	add	r5, sp
   2aac8:	4628      	mov	r0, r5
   2aaca:	4621      	mov	r1, r4
   2aacc:	f7f9 fb7a 	bl	241c4 <_ZN20complex_dynamic_type3app17h7a9ae0772e7bb5d3E>
   2aad0:	7828      	ldrb	r0, [r5, #0]
   2aad2:	2801      	cmp	r0, #1
   2aad4:	d103      	bne.n	2aade <_start+0x2ede>
   2aad6:	990d      	ldr	r1, [sp, #52]	@ 0x34
   2aad8:	6e09      	ldr	r1, [r1, #96]	@ 0x60
   2aada:	910f      	str	r1, [sp, #60]	@ 0x3c
   2aadc:	e017      	b.n	2ab0e <_start+0x2f0e>
   2aade:	49cf      	ldr	r1, [pc, #828]	@ (2ae1c <_start+0x321c>)
   2aae0:	4469      	add	r1, sp
   2aae2:	78ca      	ldrb	r2, [r1, #3]
   2aae4:	ab10      	add	r3, sp, #64	@ 0x40
   2aae6:	709a      	strb	r2, [r3, #2]
   2aae8:	784a      	ldrb	r2, [r1, #1]
   2aaea:	788c      	ldrb	r4, [r1, #2]
   2aaec:	0224      	lsls	r4, r4, #8
   2aaee:	18a2      	adds	r2, r4, r2
   2aaf0:	801a      	strh	r2, [r3, #0]
   2aaf2:	3108      	adds	r1, #8
   2aaf4:	9a0d      	ldr	r2, [sp, #52]	@ 0x34
   2aaf6:	6e12      	ldr	r2, [r2, #96]	@ 0x60
   2aaf8:	920f      	str	r2, [sp, #60]	@ 0x3c
   2aafa:	4ac7      	ldr	r2, [pc, #796]	@ (2ae18 <_start+0x3218>)
   2aafc:	446a      	add	r2, sp
   2aafe:	c938      	ldmia	r1!, {r3, r4, r5}
   2ab00:	c238      	stmia	r2!, {r3, r4, r5}
   2ab02:	c978      	ldmia	r1!, {r3, r4, r5, r6}
   2ab04:	c278      	stmia	r2!, {r3, r4, r5, r6}
   2ab06:	c938      	ldmia	r1!, {r3, r4, r5}
   2ab08:	c238      	stmia	r2!, {r3, r4, r5}
   2ab0a:	c978      	ldmia	r1!, {r3, r4, r5, r6}
   2ab0c:	c278      	stmia	r2!, {r3, r4, r5, r6}
   2ab0e:	2800      	cmp	r0, #0
   2ab10:	d000      	beq.n	2ab14 <_start+0x2f14>
   2ab12:	e376      	b.n	2b202 <_start+0x3602>
   2ab14:	4cc3      	ldr	r4, [pc, #780]	@ (2ae24 <_start+0x3224>)
   2ab16:	446c      	add	r4, sp
   2ab18:	990f      	ldr	r1, [sp, #60]	@ 0x3c
   2ab1a:	70e1      	strb	r1, [r4, #3]
   2ab1c:	9810      	ldr	r0, [sp, #64]	@ 0x40
   2ab1e:	8020      	strh	r0, [r4, #0]
   2ab20:	0e08      	lsrs	r0, r1, #24
   2ab22:	71a0      	strb	r0, [r4, #6]
   2ab24:	0c08      	lsrs	r0, r1, #16
   2ab26:	7160      	strb	r0, [r4, #5]
   2ab28:	0a08      	lsrs	r0, r1, #8
   2ab2a:	7120      	strb	r0, [r4, #4]
   2ab2c:	a810      	add	r0, sp, #64	@ 0x40
   2ab2e:	7880      	ldrb	r0, [r0, #2]
   2ab30:	70a0      	strb	r0, [r4, #2]
   2ab32:	1de0      	adds	r0, r4, #7
   2ab34:	49b8      	ldr	r1, [pc, #736]	@ (2ae18 <_start+0x3218>)
   2ab36:	4469      	add	r1, sp
   2ab38:	2238      	movs	r2, #56	@ 0x38
   2ab3a:	f000 fd86 	bl	2b64a <__aeabi_memcpy>
   2ab3e:	4db7      	ldr	r5, [pc, #732]	@ (2ae1c <_start+0x321c>)
   2ab40:	446d      	add	r5, sp
   2ab42:	4628      	mov	r0, r5
   2ab44:	4621      	mov	r1, r4
   2ab46:	f7fb faad 	bl	260a4 <_ZN20complex_dynamic_type3app17hc6fda0c46f4c8243E>
   2ab4a:	7828      	ldrb	r0, [r5, #0]
   2ab4c:	2801      	cmp	r0, #1
   2ab4e:	d103      	bne.n	2ab58 <_start+0x2f58>
   2ab50:	990d      	ldr	r1, [sp, #52]	@ 0x34
   2ab52:	6e09      	ldr	r1, [r1, #96]	@ 0x60
   2ab54:	910f      	str	r1, [sp, #60]	@ 0x3c
   2ab56:	e015      	b.n	2ab84 <_start+0x2f84>
   2ab58:	49b0      	ldr	r1, [pc, #704]	@ (2ae1c <_start+0x321c>)
   2ab5a:	4469      	add	r1, sp
   2ab5c:	78ca      	ldrb	r2, [r1, #3]
   2ab5e:	ab10      	add	r3, sp, #64	@ 0x40
   2ab60:	709a      	strb	r2, [r3, #2]
   2ab62:	784a      	ldrb	r2, [r1, #1]
   2ab64:	788c      	ldrb	r4, [r1, #2]
   2ab66:	0224      	lsls	r4, r4, #8
   2ab68:	18a2      	adds	r2, r4, r2
   2ab6a:	801a      	strh	r2, [r3, #0]
   2ab6c:	3108      	adds	r1, #8
   2ab6e:	9a0d      	ldr	r2, [sp, #52]	@ 0x34
   2ab70:	6e12      	ldr	r2, [r2, #96]	@ 0x60
   2ab72:	920f      	str	r2, [sp, #60]	@ 0x3c
   2ab74:	4aa8      	ldr	r2, [pc, #672]	@ (2ae18 <_start+0x3218>)
   2ab76:	446a      	add	r2, sp
   2ab78:	c918      	ldmia	r1!, {r3, r4}
   2ab7a:	c218      	stmia	r2!, {r3, r4}
   2ab7c:	c938      	ldmia	r1!, {r3, r4, r5}
   2ab7e:	c238      	stmia	r2!, {r3, r4, r5}
   2ab80:	7809      	ldrb	r1, [r1, #0]
   2ab82:	7011      	strb	r1, [r2, #0]
   2ab84:	2800      	cmp	r0, #0
   2ab86:	d000      	beq.n	2ab8a <_start+0x2f8a>
   2ab88:	e33b      	b.n	2b202 <_start+0x3602>
   2ab8a:	4ca7      	ldr	r4, [pc, #668]	@ (2ae28 <_start+0x3228>)
   2ab8c:	446c      	add	r4, sp
   2ab8e:	990f      	ldr	r1, [sp, #60]	@ 0x3c
   2ab90:	70e1      	strb	r1, [r4, #3]
   2ab92:	9810      	ldr	r0, [sp, #64]	@ 0x40
   2ab94:	8020      	strh	r0, [r4, #0]
   2ab96:	0e08      	lsrs	r0, r1, #24
   2ab98:	71a0      	strb	r0, [r4, #6]
   2ab9a:	0c08      	lsrs	r0, r1, #16
   2ab9c:	7160      	strb	r0, [r4, #5]
   2ab9e:	0a08      	lsrs	r0, r1, #8
   2aba0:	7120      	strb	r0, [r4, #4]
   2aba2:	a810      	add	r0, sp, #64	@ 0x40
   2aba4:	7880      	ldrb	r0, [r0, #2]
   2aba6:	70a0      	strb	r0, [r4, #2]
   2aba8:	1de0      	adds	r0, r4, #7
   2abaa:	499b      	ldr	r1, [pc, #620]	@ (2ae18 <_start+0x3218>)
   2abac:	4469      	add	r1, sp
   2abae:	2215      	movs	r2, #21
   2abb0:	f000 fd4b 	bl	2b64a <__aeabi_memcpy>
   2abb4:	4d99      	ldr	r5, [pc, #612]	@ (2ae1c <_start+0x321c>)
   2abb6:	446d      	add	r5, sp
   2abb8:	4628      	mov	r0, r5
   2abba:	4621      	mov	r1, r4
   2abbc:	f7fb ffd2 	bl	26b64 <_ZN20complex_dynamic_type3app17he36a43c671c7aea2E>
   2abc0:	782c      	ldrb	r4, [r5, #0]
   2abc2:	2c01      	cmp	r4, #1
   2abc4:	d103      	bne.n	2abce <_start+0x2fce>
   2abc6:	980d      	ldr	r0, [sp, #52]	@ 0x34
   2abc8:	6e00      	ldr	r0, [r0, #96]	@ 0x60
   2abca:	900f      	str	r0, [sp, #60]	@ 0x3c
   2abcc:	e012      	b.n	2abf4 <_start+0x2ff4>
   2abce:	4993      	ldr	r1, [pc, #588]	@ (2ae1c <_start+0x321c>)
   2abd0:	4469      	add	r1, sp
   2abd2:	78c8      	ldrb	r0, [r1, #3]
   2abd4:	aa10      	add	r2, sp, #64	@ 0x40
   2abd6:	7090      	strb	r0, [r2, #2]
   2abd8:	7848      	ldrb	r0, [r1, #1]
   2abda:	788b      	ldrb	r3, [r1, #2]
   2abdc:	021b      	lsls	r3, r3, #8
   2abde:	1818      	adds	r0, r3, r0
   2abe0:	8010      	strh	r0, [r2, #0]
   2abe2:	980d      	ldr	r0, [sp, #52]	@ 0x34
   2abe4:	6e00      	ldr	r0, [r0, #96]	@ 0x60
   2abe6:	900f      	str	r0, [sp, #60]	@ 0x3c
   2abe8:	3108      	adds	r1, #8
   2abea:	488b      	ldr	r0, [pc, #556]	@ (2ae18 <_start+0x3218>)
   2abec:	4468      	add	r0, sp
   2abee:	2256      	movs	r2, #86	@ 0x56
   2abf0:	f000 fbcb 	bl	2b38a <__aeabi_memcpy4>
   2abf4:	2c00      	cmp	r4, #0
   2abf6:	d000      	beq.n	2abfa <_start+0x2ffa>
   2abf8:	e303      	b.n	2b202 <_start+0x3602>
   2abfa:	4c8c      	ldr	r4, [pc, #560]	@ (2ae2c <_start+0x322c>)
   2abfc:	446c      	add	r4, sp
   2abfe:	990f      	ldr	r1, [sp, #60]	@ 0x3c
   2ac00:	70e1      	strb	r1, [r4, #3]
   2ac02:	9810      	ldr	r0, [sp, #64]	@ 0x40
   2ac04:	8020      	strh	r0, [r4, #0]
   2ac06:	0e08      	lsrs	r0, r1, #24
   2ac08:	71a0      	strb	r0, [r4, #6]
   2ac0a:	0c08      	lsrs	r0, r1, #16
   2ac0c:	7160      	strb	r0, [r4, #5]
   2ac0e:	0a08      	lsrs	r0, r1, #8
   2ac10:	7120      	strb	r0, [r4, #4]
   2ac12:	a810      	add	r0, sp, #64	@ 0x40
   2ac14:	7880      	ldrb	r0, [r0, #2]
   2ac16:	70a0      	strb	r0, [r4, #2]
   2ac18:	1de0      	adds	r0, r4, #7
   2ac1a:	497f      	ldr	r1, [pc, #508]	@ (2ae18 <_start+0x3218>)
   2ac1c:	4469      	add	r1, sp
   2ac1e:	2256      	movs	r2, #86	@ 0x56
   2ac20:	f000 fd13 	bl	2b64a <__aeabi_memcpy>
   2ac24:	4d7d      	ldr	r5, [pc, #500]	@ (2ae1c <_start+0x321c>)
   2ac26:	446d      	add	r5, sp
   2ac28:	4628      	mov	r0, r5
   2ac2a:	4621      	mov	r1, r4
   2ac2c:	f7f8 f816 	bl	22c5c <_ZN20complex_dynamic_type3app17h419af641a58a519fE>
   2ac30:	7828      	ldrb	r0, [r5, #0]
   2ac32:	2801      	cmp	r0, #1
   2ac34:	d102      	bne.n	2ac3c <_start+0x303c>
   2ac36:	990d      	ldr	r1, [sp, #52]	@ 0x34
   2ac38:	6e09      	ldr	r1, [r1, #96]	@ 0x60
   2ac3a:	e014      	b.n	2ac66 <_start+0x3066>
   2ac3c:	4976      	ldr	r1, [pc, #472]	@ (2ae18 <_start+0x3218>)
   2ac3e:	4469      	add	r1, sp
   2ac40:	9d0d      	ldr	r5, [sp, #52]	@ 0x34
   2ac42:	6eea      	ldr	r2, [r5, #108]	@ 0x6c
   2ac44:	810a      	strh	r2, [r1, #8]
   2ac46:	4a75      	ldr	r2, [pc, #468]	@ (2ae1c <_start+0x321c>)
   2ac48:	446a      	add	r2, sp
   2ac4a:	78d3      	ldrb	r3, [r2, #3]
   2ac4c:	ac10      	add	r4, sp, #64	@ 0x40
   2ac4e:	70a3      	strb	r3, [r4, #2]
   2ac50:	7c93      	ldrb	r3, [r2, #18]
   2ac52:	728b      	strb	r3, [r1, #10]
   2ac54:	7851      	ldrb	r1, [r2, #1]
   2ac56:	7892      	ldrb	r2, [r2, #2]
   2ac58:	0212      	lsls	r2, r2, #8
   2ac5a:	1851      	adds	r1, r2, r1
   2ac5c:	8021      	strh	r1, [r4, #0]
   2ac5e:	6e69      	ldr	r1, [r5, #100]	@ 0x64
   2ac60:	6eaa      	ldr	r2, [r5, #104]	@ 0x68
   2ac62:	c506      	stmia	r5!, {r1, r2}
   2ac64:	6da9      	ldr	r1, [r5, #88]	@ 0x58
   2ac66:	910f      	str	r1, [sp, #60]	@ 0x3c
   2ac68:	2800      	cmp	r0, #0
   2ac6a:	d000      	beq.n	2ac6e <_start+0x306e>
   2ac6c:	e2c9      	b.n	2b202 <_start+0x3602>
   2ac6e:	4c70      	ldr	r4, [pc, #448]	@ (2ae30 <_start+0x3230>)
   2ac70:	446c      	add	r4, sp
   2ac72:	990f      	ldr	r1, [sp, #60]	@ 0x3c
   2ac74:	70e1      	strb	r1, [r4, #3]
   2ac76:	9810      	ldr	r0, [sp, #64]	@ 0x40
   2ac78:	8020      	strh	r0, [r4, #0]
   2ac7a:	0e08      	lsrs	r0, r1, #24
   2ac7c:	71a0      	strb	r0, [r4, #6]
   2ac7e:	0c08      	lsrs	r0, r1, #16
   2ac80:	7160      	strb	r0, [r4, #5]
   2ac82:	0a08      	lsrs	r0, r1, #8
   2ac84:	7120      	strb	r0, [r4, #4]
   2ac86:	a810      	add	r0, sp, #64	@ 0x40
   2ac88:	7880      	ldrb	r0, [r0, #2]
   2ac8a:	70a0      	strb	r0, [r4, #2]
   2ac8c:	1de0      	adds	r0, r4, #7
   2ac8e:	4962      	ldr	r1, [pc, #392]	@ (2ae18 <_start+0x3218>)
   2ac90:	4469      	add	r1, sp
   2ac92:	220b      	movs	r2, #11
   2ac94:	f000 fcd9 	bl	2b64a <__aeabi_memcpy>
   2ac98:	4d60      	ldr	r5, [pc, #384]	@ (2ae1c <_start+0x321c>)
   2ac9a:	446d      	add	r5, sp
   2ac9c:	4628      	mov	r0, r5
   2ac9e:	4621      	mov	r1, r4
   2aca0:	f7fb fbc8 	bl	26434 <_ZN20complex_dynamic_type3app17hd49d8ea07a2f4ecfE>
   2aca4:	7828      	ldrb	r0, [r5, #0]
   2aca6:	2801      	cmp	r0, #1
   2aca8:	d103      	bne.n	2acb2 <_start+0x30b2>
   2acaa:	990d      	ldr	r1, [sp, #52]	@ 0x34
   2acac:	6e09      	ldr	r1, [r1, #96]	@ 0x60
   2acae:	910f      	str	r1, [sp, #60]	@ 0x3c
   2acb0:	e019      	b.n	2ace6 <_start+0x30e6>
   2acb2:	495a      	ldr	r1, [pc, #360]	@ (2ae1c <_start+0x321c>)
   2acb4:	4469      	add	r1, sp
   2acb6:	78ca      	ldrb	r2, [r1, #3]
   2acb8:	ab10      	add	r3, sp, #64	@ 0x40
   2acba:	709a      	strb	r2, [r3, #2]
   2acbc:	784a      	ldrb	r2, [r1, #1]
   2acbe:	788c      	ldrb	r4, [r1, #2]
   2acc0:	0224      	lsls	r4, r4, #8
   2acc2:	18a2      	adds	r2, r4, r2
   2acc4:	801a      	strh	r2, [r3, #0]
   2acc6:	3108      	adds	r1, #8
   2acc8:	9a0d      	ldr	r2, [sp, #52]	@ 0x34
   2acca:	6e12      	ldr	r2, [r2, #96]	@ 0x60
   2accc:	920f      	str	r2, [sp, #60]	@ 0x3c
   2acce:	4a52      	ldr	r2, [pc, #328]	@ (2ae18 <_start+0x3218>)
   2acd0:	446a      	add	r2, sp
   2acd2:	c938      	ldmia	r1!, {r3, r4, r5}
   2acd4:	c238      	stmia	r2!, {r3, r4, r5}
   2acd6:	c978      	ldmia	r1!, {r3, r4, r5, r6}
   2acd8:	c278      	stmia	r2!, {r3, r4, r5, r6}
   2acda:	c978      	ldmia	r1!, {r3, r4, r5, r6}
   2acdc:	c278      	stmia	r2!, {r3, r4, r5, r6}
   2acde:	c978      	ldmia	r1!, {r3, r4, r5, r6}
   2ace0:	c278      	stmia	r2!, {r3, r4, r5, r6}
   2ace2:	7809      	ldrb	r1, [r1, #0]
   2ace4:	7011      	strb	r1, [r2, #0]
   2ace6:	2800      	cmp	r0, #0
   2ace8:	d000      	beq.n	2acec <_start+0x30ec>
   2acea:	e28a      	b.n	2b202 <_start+0x3602>
   2acec:	4c51      	ldr	r4, [pc, #324]	@ (2ae34 <_start+0x3234>)
   2acee:	446c      	add	r4, sp
   2acf0:	990f      	ldr	r1, [sp, #60]	@ 0x3c
   2acf2:	70e1      	strb	r1, [r4, #3]
   2acf4:	9810      	ldr	r0, [sp, #64]	@ 0x40
   2acf6:	8020      	strh	r0, [r4, #0]
   2acf8:	0e08      	lsrs	r0, r1, #24
   2acfa:	71a0      	strb	r0, [r4, #6]
   2acfc:	0c08      	lsrs	r0, r1, #16
   2acfe:	7160      	strb	r0, [r4, #5]
   2ad00:	0a08      	lsrs	r0, r1, #8
   2ad02:	7120      	strb	r0, [r4, #4]
   2ad04:	a810      	add	r0, sp, #64	@ 0x40
   2ad06:	7880      	ldrb	r0, [r0, #2]
   2ad08:	70a0      	strb	r0, [r4, #2]
   2ad0a:	1de0      	adds	r0, r4, #7
   2ad0c:	4942      	ldr	r1, [pc, #264]	@ (2ae18 <_start+0x3218>)
   2ad0e:	4469      	add	r1, sp
   2ad10:	223d      	movs	r2, #61	@ 0x3d
   2ad12:	f000 fc9a 	bl	2b64a <__aeabi_memcpy>
   2ad16:	4d41      	ldr	r5, [pc, #260]	@ (2ae1c <_start+0x321c>)
   2ad18:	446d      	add	r5, sp
   2ad1a:	4628      	mov	r0, r5
   2ad1c:	4621      	mov	r1, r4
   2ad1e:	f7fc fc7b 	bl	27618 <_ZN20complex_dynamic_type3app17hf36395a1c626f03fE>
   2ad22:	7828      	ldrb	r0, [r5, #0]
   2ad24:	2801      	cmp	r0, #1
   2ad26:	d103      	bne.n	2ad30 <_start+0x3130>
   2ad28:	990d      	ldr	r1, [sp, #52]	@ 0x34
   2ad2a:	6e09      	ldr	r1, [r1, #96]	@ 0x60
   2ad2c:	910f      	str	r1, [sp, #60]	@ 0x3c
   2ad2e:	e013      	b.n	2ad58 <_start+0x3158>
   2ad30:	493a      	ldr	r1, [pc, #232]	@ (2ae1c <_start+0x321c>)
   2ad32:	4469      	add	r1, sp
   2ad34:	78ca      	ldrb	r2, [r1, #3]
   2ad36:	ab10      	add	r3, sp, #64	@ 0x40
   2ad38:	709a      	strb	r2, [r3, #2]
   2ad3a:	784a      	ldrb	r2, [r1, #1]
   2ad3c:	788c      	ldrb	r4, [r1, #2]
   2ad3e:	0224      	lsls	r4, r4, #8
   2ad40:	18a2      	adds	r2, r4, r2
   2ad42:	801a      	strh	r2, [r3, #0]
   2ad44:	3108      	adds	r1, #8
   2ad46:	9a0d      	ldr	r2, [sp, #52]	@ 0x34
   2ad48:	6e12      	ldr	r2, [r2, #96]	@ 0x60
   2ad4a:	920f      	str	r2, [sp, #60]	@ 0x3c
   2ad4c:	4a32      	ldr	r2, [pc, #200]	@ (2ae18 <_start+0x3218>)
   2ad4e:	446a      	add	r2, sp
   2ad50:	c938      	ldmia	r1!, {r3, r4, r5}
   2ad52:	c238      	stmia	r2!, {r3, r4, r5}
   2ad54:	c978      	ldmia	r1!, {r3, r4, r5, r6}
   2ad56:	c278      	stmia	r2!, {r3, r4, r5, r6}
   2ad58:	2800      	cmp	r0, #0
   2ad5a:	d000      	beq.n	2ad5e <_start+0x315e>
   2ad5c:	e251      	b.n	2b202 <_start+0x3602>
   2ad5e:	4c36      	ldr	r4, [pc, #216]	@ (2ae38 <_start+0x3238>)
   2ad60:	446c      	add	r4, sp
   2ad62:	990f      	ldr	r1, [sp, #60]	@ 0x3c
   2ad64:	70e1      	strb	r1, [r4, #3]
   2ad66:	9810      	ldr	r0, [sp, #64]	@ 0x40
   2ad68:	8020      	strh	r0, [r4, #0]
   2ad6a:	0e08      	lsrs	r0, r1, #24
   2ad6c:	71a0      	strb	r0, [r4, #6]
   2ad6e:	0c08      	lsrs	r0, r1, #16
   2ad70:	7160      	strb	r0, [r4, #5]
   2ad72:	0a08      	lsrs	r0, r1, #8
   2ad74:	7120      	strb	r0, [r4, #4]
   2ad76:	a810      	add	r0, sp, #64	@ 0x40
   2ad78:	7880      	ldrb	r0, [r0, #2]
   2ad7a:	70a0      	strb	r0, [r4, #2]
   2ad7c:	1de0      	adds	r0, r4, #7
   2ad7e:	4926      	ldr	r1, [pc, #152]	@ (2ae18 <_start+0x3218>)
   2ad80:	4469      	add	r1, sp
   2ad82:	221c      	movs	r2, #28
   2ad84:	f000 fc61 	bl	2b64a <__aeabi_memcpy>
   2ad88:	4d24      	ldr	r5, [pc, #144]	@ (2ae1c <_start+0x321c>)
   2ad8a:	446d      	add	r5, sp
   2ad8c:	4628      	mov	r0, r5
   2ad8e:	4621      	mov	r1, r4
   2ad90:	f7f9 fb46 	bl	24420 <_ZN20complex_dynamic_type3app17h88839b9c22ed05edE>
   2ad94:	7828      	ldrb	r0, [r5, #0]
   2ad96:	2801      	cmp	r0, #1
   2ad98:	d103      	bne.n	2ada2 <_start+0x31a2>
   2ad9a:	990d      	ldr	r1, [sp, #52]	@ 0x34
   2ad9c:	6e09      	ldr	r1, [r1, #96]	@ 0x60
   2ad9e:	910f      	str	r1, [sp, #60]	@ 0x3c
   2ada0:	e015      	b.n	2adce <_start+0x31ce>
   2ada2:	491e      	ldr	r1, [pc, #120]	@ (2ae1c <_start+0x321c>)
   2ada4:	4469      	add	r1, sp
   2ada6:	78ca      	ldrb	r2, [r1, #3]
   2ada8:	ab10      	add	r3, sp, #64	@ 0x40
   2adaa:	709a      	strb	r2, [r3, #2]
   2adac:	784a      	ldrb	r2, [r1, #1]
   2adae:	788c      	ldrb	r4, [r1, #2]
   2adb0:	0224      	lsls	r4, r4, #8
   2adb2:	18a2      	adds	r2, r4, r2
   2adb4:	801a      	strh	r2, [r3, #0]
   2adb6:	3108      	adds	r1, #8
   2adb8:	9a0d      	ldr	r2, [sp, #52]	@ 0x34
   2adba:	6e12      	ldr	r2, [r2, #96]	@ 0x60
   2adbc:	920f      	str	r2, [sp, #60]	@ 0x3c
   2adbe:	4a16      	ldr	r2, [pc, #88]	@ (2ae18 <_start+0x3218>)
   2adc0:	446a      	add	r2, sp
   2adc2:	c938      	ldmia	r1!, {r3, r4, r5}
   2adc4:	c238      	stmia	r2!, {r3, r4, r5}
   2adc6:	c978      	ldmia	r1!, {r3, r4, r5, r6}
   2adc8:	c278      	stmia	r2!, {r3, r4, r5, r6}
   2adca:	7809      	ldrb	r1, [r1, #0]
   2adcc:	7011      	strb	r1, [r2, #0]
   2adce:	2800      	cmp	r0, #0
   2add0:	d000      	beq.n	2add4 <_start+0x31d4>
   2add2:	e216      	b.n	2b202 <_start+0x3602>
   2add4:	4c19      	ldr	r4, [pc, #100]	@ (2ae3c <_start+0x323c>)
   2add6:	446c      	add	r4, sp
   2add8:	990f      	ldr	r1, [sp, #60]	@ 0x3c
   2adda:	70e1      	strb	r1, [r4, #3]
   2addc:	9810      	ldr	r0, [sp, #64]	@ 0x40
   2adde:	8020      	strh	r0, [r4, #0]
   2ade0:	0e08      	lsrs	r0, r1, #24
   2ade2:	71a0      	strb	r0, [r4, #6]
   2ade4:	0c08      	lsrs	r0, r1, #16
   2ade6:	7160      	strb	r0, [r4, #5]
   2ade8:	0a08      	lsrs	r0, r1, #8
   2adea:	7120      	strb	r0, [r4, #4]
   2adec:	a810      	add	r0, sp, #64	@ 0x40
   2adee:	7880      	ldrb	r0, [r0, #2]
   2adf0:	70a0      	strb	r0, [r4, #2]
   2adf2:	1de0      	adds	r0, r4, #7
   2adf4:	4908      	ldr	r1, [pc, #32]	@ (2ae18 <_start+0x3218>)
   2adf6:	4469      	add	r1, sp
   2adf8:	221d      	movs	r2, #29
   2adfa:	f000 fc26 	bl	2b64a <__aeabi_memcpy>
   2adfe:	4d07      	ldr	r5, [pc, #28]	@ (2ae1c <_start+0x321c>)
   2ae00:	446d      	add	r5, sp
   2ae02:	4628      	mov	r0, r5
   2ae04:	4621      	mov	r1, r4
   2ae06:	f7f7 ffbf 	bl	22d88 <_ZN20complex_dynamic_type3app17h4c56b25f94ef3122E>
   2ae0a:	7828      	ldrb	r0, [r5, #0]
   2ae0c:	2801      	cmp	r0, #1
   2ae0e:	d117      	bne.n	2ae40 <_start+0x3240>
   2ae10:	990d      	ldr	r1, [sp, #52]	@ 0x34
   2ae12:	6e09      	ldr	r1, [r1, #96]	@ 0x60
   2ae14:	910f      	str	r1, [sp, #60]	@ 0x3c
   2ae16:	e029      	b.n	2ae6c <_start+0x326c>
   2ae18:	000013b8 	.word	0x000013b8
   2ae1c:	00001414 	.word	0x00001414
   2ae20:	000010e0 	.word	0x000010e0
   2ae24:	000010f4 	.word	0x000010f4
   2ae28:	00001134 	.word	0x00001134
   2ae2c:	00001150 	.word	0x00001150
   2ae30:	000011b0 	.word	0x000011b0
   2ae34:	000011c4 	.word	0x000011c4
   2ae38:	00001208 	.word	0x00001208
   2ae3c:	0000122c 	.word	0x0000122c
   2ae40:	49f3      	ldr	r1, [pc, #972]	@ (2b210 <_start+0x3610>)
   2ae42:	4469      	add	r1, sp
   2ae44:	78ca      	ldrb	r2, [r1, #3]
   2ae46:	ab10      	add	r3, sp, #64	@ 0x40
   2ae48:	709a      	strb	r2, [r3, #2]
   2ae4a:	784a      	ldrb	r2, [r1, #1]
   2ae4c:	788c      	ldrb	r4, [r1, #2]
   2ae4e:	0224      	lsls	r4, r4, #8
   2ae50:	18a2      	adds	r2, r4, r2
   2ae52:	801a      	strh	r2, [r3, #0]
   2ae54:	3108      	adds	r1, #8
   2ae56:	9a0d      	ldr	r2, [sp, #52]	@ 0x34
   2ae58:	6e12      	ldr	r2, [r2, #96]	@ 0x60
   2ae5a:	920f      	str	r2, [sp, #60]	@ 0x3c
   2ae5c:	4afe      	ldr	r2, [pc, #1016]	@ (2b258 <_start+0x3658>)
   2ae5e:	446a      	add	r2, sp
   2ae60:	c938      	ldmia	r1!, {r3, r4, r5}
   2ae62:	c238      	stmia	r2!, {r3, r4, r5}
   2ae64:	c938      	ldmia	r1!, {r3, r4, r5}
   2ae66:	c238      	stmia	r2!, {r3, r4, r5}
   2ae68:	c978      	ldmia	r1!, {r3, r4, r5, r6}
   2ae6a:	c278      	stmia	r2!, {r3, r4, r5, r6}
   2ae6c:	2800      	cmp	r0, #0
   2ae6e:	d000      	beq.n	2ae72 <_start+0x3272>
   2ae70:	e1c7      	b.n	2b202 <_start+0x3602>
   2ae72:	4cfa      	ldr	r4, [pc, #1000]	@ (2b25c <_start+0x365c>)
   2ae74:	446c      	add	r4, sp
   2ae76:	990f      	ldr	r1, [sp, #60]	@ 0x3c
   2ae78:	70e1      	strb	r1, [r4, #3]
   2ae7a:	9810      	ldr	r0, [sp, #64]	@ 0x40
   2ae7c:	8020      	strh	r0, [r4, #0]
   2ae7e:	0e08      	lsrs	r0, r1, #24
   2ae80:	71a0      	strb	r0, [r4, #6]
   2ae82:	0c08      	lsrs	r0, r1, #16
   2ae84:	7160      	strb	r0, [r4, #5]
   2ae86:	0a08      	lsrs	r0, r1, #8
   2ae88:	7120      	strb	r0, [r4, #4]
   2ae8a:	a810      	add	r0, sp, #64	@ 0x40
   2ae8c:	7880      	ldrb	r0, [r0, #2]
   2ae8e:	70a0      	strb	r0, [r4, #2]
   2ae90:	1de0      	adds	r0, r4, #7
   2ae92:	49f1      	ldr	r1, [pc, #964]	@ (2b258 <_start+0x3658>)
   2ae94:	4469      	add	r1, sp
   2ae96:	2228      	movs	r2, #40	@ 0x28
   2ae98:	f000 fbd7 	bl	2b64a <__aeabi_memcpy>
   2ae9c:	4ded      	ldr	r5, [pc, #948]	@ (2b254 <_start+0x3654>)
   2ae9e:	446d      	add	r5, sp
   2aea0:	4628      	mov	r0, r5
   2aea2:	4621      	mov	r1, r4
   2aea4:	f7f5 fece 	bl	20c44 <_ZN20complex_dynamic_type3app17h03b484af11d2d891E>
   2aea8:	782c      	ldrb	r4, [r5, #0]
   2aeaa:	2c01      	cmp	r4, #1
   2aeac:	d103      	bne.n	2aeb6 <_start+0x32b6>
   2aeae:	980d      	ldr	r0, [sp, #52]	@ 0x34
   2aeb0:	6e00      	ldr	r0, [r0, #96]	@ 0x60
   2aeb2:	900f      	str	r0, [sp, #60]	@ 0x3c
   2aeb4:	e012      	b.n	2aedc <_start+0x32dc>
   2aeb6:	49e7      	ldr	r1, [pc, #924]	@ (2b254 <_start+0x3654>)
   2aeb8:	4469      	add	r1, sp
   2aeba:	78c8      	ldrb	r0, [r1, #3]
   2aebc:	aa10      	add	r2, sp, #64	@ 0x40
   2aebe:	7090      	strb	r0, [r2, #2]
   2aec0:	7848      	ldrb	r0, [r1, #1]
   2aec2:	788b      	ldrb	r3, [r1, #2]
   2aec4:	021b      	lsls	r3, r3, #8
   2aec6:	1818      	adds	r0, r3, r0
   2aec8:	8010      	strh	r0, [r2, #0]
   2aeca:	980d      	ldr	r0, [sp, #52]	@ 0x34
   2aecc:	6e00      	ldr	r0, [r0, #96]	@ 0x60
   2aece:	900f      	str	r0, [sp, #60]	@ 0x3c
   2aed0:	3108      	adds	r1, #8
   2aed2:	48e1      	ldr	r0, [pc, #900]	@ (2b258 <_start+0x3658>)
   2aed4:	4468      	add	r0, sp
   2aed6:	2257      	movs	r2, #87	@ 0x57
   2aed8:	f000 fa57 	bl	2b38a <__aeabi_memcpy4>
   2aedc:	2c00      	cmp	r4, #0
   2aede:	d000      	beq.n	2aee2 <_start+0x32e2>
   2aee0:	e18f      	b.n	2b202 <_start+0x3602>
   2aee2:	4cdf      	ldr	r4, [pc, #892]	@ (2b260 <_start+0x3660>)
   2aee4:	446c      	add	r4, sp
   2aee6:	990f      	ldr	r1, [sp, #60]	@ 0x3c
   2aee8:	70e1      	strb	r1, [r4, #3]
   2aeea:	9810      	ldr	r0, [sp, #64]	@ 0x40
   2aeec:	8020      	strh	r0, [r4, #0]
   2aeee:	0e08      	lsrs	r0, r1, #24
   2aef0:	71a0      	strb	r0, [r4, #6]
   2aef2:	0c08      	lsrs	r0, r1, #16
   2aef4:	7160      	strb	r0, [r4, #5]
   2aef6:	0a08      	lsrs	r0, r1, #8
   2aef8:	7120      	strb	r0, [r4, #4]
   2aefa:	a810      	add	r0, sp, #64	@ 0x40
   2aefc:	7880      	ldrb	r0, [r0, #2]
   2aefe:	70a0      	strb	r0, [r4, #2]
   2af00:	1de0      	adds	r0, r4, #7
   2af02:	49d5      	ldr	r1, [pc, #852]	@ (2b258 <_start+0x3658>)
   2af04:	4469      	add	r1, sp
   2af06:	2257      	movs	r2, #87	@ 0x57
   2af08:	f000 fb9f 	bl	2b64a <__aeabi_memcpy>
   2af0c:	4dd1      	ldr	r5, [pc, #836]	@ (2b254 <_start+0x3654>)
   2af0e:	446d      	add	r5, sp
   2af10:	4628      	mov	r0, r5
   2af12:	4621      	mov	r1, r4
   2af14:	f7f8 fa2e 	bl	23374 <_ZN20complex_dynamic_type3app17h663567edf28461c2E>
   2af18:	782c      	ldrb	r4, [r5, #0]
   2af1a:	2c01      	cmp	r4, #1
   2af1c:	d103      	bne.n	2af26 <_start+0x3326>
   2af1e:	980d      	ldr	r0, [sp, #52]	@ 0x34
   2af20:	6e00      	ldr	r0, [r0, #96]	@ 0x60
   2af22:	900f      	str	r0, [sp, #60]	@ 0x3c
   2af24:	e012      	b.n	2af4c <_start+0x334c>
   2af26:	49cb      	ldr	r1, [pc, #812]	@ (2b254 <_start+0x3654>)
   2af28:	4469      	add	r1, sp
   2af2a:	78c8      	ldrb	r0, [r1, #3]
   2af2c:	aa10      	add	r2, sp, #64	@ 0x40
   2af2e:	7090      	strb	r0, [r2, #2]
   2af30:	7848      	ldrb	r0, [r1, #1]
   2af32:	788b      	ldrb	r3, [r1, #2]
   2af34:	021b      	lsls	r3, r3, #8
   2af36:	1818      	adds	r0, r3, r0
   2af38:	8010      	strh	r0, [r2, #0]
   2af3a:	980d      	ldr	r0, [sp, #52]	@ 0x34
   2af3c:	6e00      	ldr	r0, [r0, #96]	@ 0x60
   2af3e:	900f      	str	r0, [sp, #60]	@ 0x3c
   2af40:	3108      	adds	r1, #8
   2af42:	48c5      	ldr	r0, [pc, #788]	@ (2b258 <_start+0x3658>)
   2af44:	4468      	add	r0, sp
   2af46:	224e      	movs	r2, #78	@ 0x4e
   2af48:	f000 fa1f 	bl	2b38a <__aeabi_memcpy4>
   2af4c:	2c00      	cmp	r4, #0
   2af4e:	d000      	beq.n	2af52 <_start+0x3352>
   2af50:	e157      	b.n	2b202 <_start+0x3602>
   2af52:	4cc4      	ldr	r4, [pc, #784]	@ (2b264 <_start+0x3664>)
   2af54:	446c      	add	r4, sp
   2af56:	990f      	ldr	r1, [sp, #60]	@ 0x3c
   2af58:	70e1      	strb	r1, [r4, #3]
   2af5a:	9810      	ldr	r0, [sp, #64]	@ 0x40
   2af5c:	8020      	strh	r0, [r4, #0]
   2af5e:	0e08      	lsrs	r0, r1, #24
   2af60:	71a0      	strb	r0, [r4, #6]
   2af62:	0c08      	lsrs	r0, r1, #16
   2af64:	7160      	strb	r0, [r4, #5]
   2af66:	0a08      	lsrs	r0, r1, #8
   2af68:	7120      	strb	r0, [r4, #4]
   2af6a:	a810      	add	r0, sp, #64	@ 0x40
   2af6c:	7880      	ldrb	r0, [r0, #2]
   2af6e:	70a0      	strb	r0, [r4, #2]
   2af70:	1de0      	adds	r0, r4, #7
   2af72:	49b9      	ldr	r1, [pc, #740]	@ (2b258 <_start+0x3658>)
   2af74:	4469      	add	r1, sp
   2af76:	224e      	movs	r2, #78	@ 0x4e
   2af78:	f000 fb67 	bl	2b64a <__aeabi_memcpy>
   2af7c:	4db5      	ldr	r5, [pc, #724]	@ (2b254 <_start+0x3654>)
   2af7e:	446d      	add	r5, sp
   2af80:	4628      	mov	r0, r5
   2af82:	4621      	mov	r1, r4
   2af84:	f7f6 feb4 	bl	21cf0 <_ZN20complex_dynamic_type3app17h30ba2712896de2e0E>
   2af88:	7828      	ldrb	r0, [r5, #0]
   2af8a:	2801      	cmp	r0, #1
   2af8c:	d102      	bne.n	2af94 <_start+0x3394>
   2af8e:	990d      	ldr	r1, [sp, #52]	@ 0x34
   2af90:	6e09      	ldr	r1, [r1, #96]	@ 0x60
   2af92:	e012      	b.n	2afba <_start+0x33ba>
   2af94:	49b0      	ldr	r1, [pc, #704]	@ (2b258 <_start+0x3658>)
   2af96:	4469      	add	r1, sp
   2af98:	9c0d      	ldr	r4, [sp, #52]	@ 0x34
   2af9a:	6ee2      	ldr	r2, [r4, #108]	@ 0x6c
   2af9c:	810a      	strh	r2, [r1, #8]
   2af9e:	49ad      	ldr	r1, [pc, #692]	@ (2b254 <_start+0x3654>)
   2afa0:	4469      	add	r1, sp
   2afa2:	78ca      	ldrb	r2, [r1, #3]
   2afa4:	ab10      	add	r3, sp, #64	@ 0x40
   2afa6:	709a      	strb	r2, [r3, #2]
   2afa8:	784a      	ldrb	r2, [r1, #1]
   2afaa:	7889      	ldrb	r1, [r1, #2]
   2afac:	0209      	lsls	r1, r1, #8
   2afae:	1889      	adds	r1, r1, r2
   2afb0:	8019      	strh	r1, [r3, #0]
   2afb2:	6e61      	ldr	r1, [r4, #100]	@ 0x64
   2afb4:	6ea2      	ldr	r2, [r4, #104]	@ 0x68
   2afb6:	c406      	stmia	r4!, {r1, r2}
   2afb8:	6da1      	ldr	r1, [r4, #88]	@ 0x58
   2afba:	910f      	str	r1, [sp, #60]	@ 0x3c
   2afbc:	2800      	cmp	r0, #0
   2afbe:	d000      	beq.n	2afc2 <_start+0x33c2>
   2afc0:	e11f      	b.n	2b202 <_start+0x3602>
   2afc2:	4ca9      	ldr	r4, [pc, #676]	@ (2b268 <_start+0x3668>)
   2afc4:	446c      	add	r4, sp
   2afc6:	990f      	ldr	r1, [sp, #60]	@ 0x3c
   2afc8:	70e1      	strb	r1, [r4, #3]
   2afca:	9810      	ldr	r0, [sp, #64]	@ 0x40
   2afcc:	8020      	strh	r0, [r4, #0]
   2afce:	0e08      	lsrs	r0, r1, #24
   2afd0:	71a0      	strb	r0, [r4, #6]
   2afd2:	0c08      	lsrs	r0, r1, #16
   2afd4:	7160      	strb	r0, [r4, #5]
   2afd6:	0a08      	lsrs	r0, r1, #8
   2afd8:	7120      	strb	r0, [r4, #4]
   2afda:	a810      	add	r0, sp, #64	@ 0x40
   2afdc:	7880      	ldrb	r0, [r0, #2]
   2afde:	70a0      	strb	r0, [r4, #2]
   2afe0:	1de0      	adds	r0, r4, #7
   2afe2:	499d      	ldr	r1, [pc, #628]	@ (2b258 <_start+0x3658>)
   2afe4:	4469      	add	r1, sp
   2afe6:	220a      	movs	r2, #10
   2afe8:	f000 fb2f 	bl	2b64a <__aeabi_memcpy>
   2afec:	4d99      	ldr	r5, [pc, #612]	@ (2b254 <_start+0x3654>)
   2afee:	446d      	add	r5, sp
   2aff0:	4628      	mov	r0, r5
   2aff2:	4621      	mov	r1, r4
   2aff4:	f7fb fee6 	bl	26dc4 <_ZN20complex_dynamic_type3app17he7b91582ff896ce2E>
   2aff8:	782c      	ldrb	r4, [r5, #0]
   2affa:	2c01      	cmp	r4, #1
   2affc:	d103      	bne.n	2b006 <_start+0x3406>
   2affe:	980d      	ldr	r0, [sp, #52]	@ 0x34
   2b000:	6e00      	ldr	r0, [r0, #96]	@ 0x60
   2b002:	900f      	str	r0, [sp, #60]	@ 0x3c
   2b004:	e012      	b.n	2b02c <_start+0x342c>
   2b006:	4993      	ldr	r1, [pc, #588]	@ (2b254 <_start+0x3654>)
   2b008:	4469      	add	r1, sp
   2b00a:	78c8      	ldrb	r0, [r1, #3]
   2b00c:	aa10      	add	r2, sp, #64	@ 0x40
   2b00e:	7090      	strb	r0, [r2, #2]
   2b010:	7848      	ldrb	r0, [r1, #1]
   2b012:	788b      	ldrb	r3, [r1, #2]
   2b014:	021b      	lsls	r3, r3, #8
   2b016:	1818      	adds	r0, r3, r0
   2b018:	8010      	strh	r0, [r2, #0]
   2b01a:	980d      	ldr	r0, [sp, #52]	@ 0x34
   2b01c:	6e00      	ldr	r0, [r0, #96]	@ 0x60
   2b01e:	900f      	str	r0, [sp, #60]	@ 0x3c
   2b020:	3108      	adds	r1, #8
   2b022:	488d      	ldr	r0, [pc, #564]	@ (2b258 <_start+0x3658>)
   2b024:	4468      	add	r0, sp
   2b026:	2249      	movs	r2, #73	@ 0x49
   2b028:	f000 f9af 	bl	2b38a <__aeabi_memcpy4>
   2b02c:	2c00      	cmp	r4, #0
   2b02e:	d000      	beq.n	2b032 <_start+0x3432>
   2b030:	e0e7      	b.n	2b202 <_start+0x3602>
   2b032:	4c8e      	ldr	r4, [pc, #568]	@ (2b26c <_start+0x366c>)
   2b034:	446c      	add	r4, sp
   2b036:	990f      	ldr	r1, [sp, #60]	@ 0x3c
   2b038:	70e1      	strb	r1, [r4, #3]
   2b03a:	9810      	ldr	r0, [sp, #64]	@ 0x40
   2b03c:	8020      	strh	r0, [r4, #0]
   2b03e:	0e08      	lsrs	r0, r1, #24
   2b040:	71a0      	strb	r0, [r4, #6]
   2b042:	0c08      	lsrs	r0, r1, #16
   2b044:	7160      	strb	r0, [r4, #5]
   2b046:	0a08      	lsrs	r0, r1, #8
   2b048:	7120      	strb	r0, [r4, #4]
   2b04a:	a810      	add	r0, sp, #64	@ 0x40
   2b04c:	7880      	ldrb	r0, [r0, #2]
   2b04e:	70a0      	strb	r0, [r4, #2]
   2b050:	1de0      	adds	r0, r4, #7
   2b052:	4981      	ldr	r1, [pc, #516]	@ (2b258 <_start+0x3658>)
   2b054:	4469      	add	r1, sp
   2b056:	2249      	movs	r2, #73	@ 0x49
   2b058:	f000 faf7 	bl	2b64a <__aeabi_memcpy>
   2b05c:	4d7d      	ldr	r5, [pc, #500]	@ (2b254 <_start+0x3654>)
   2b05e:	446d      	add	r5, sp
   2b060:	4628      	mov	r0, r5
   2b062:	4621      	mov	r1, r4
   2b064:	f7fb fce4 	bl	26a30 <_ZN20complex_dynamic_type3app17he0b96e98f14ae7bfE>
   2b068:	7828      	ldrb	r0, [r5, #0]
   2b06a:	2801      	cmp	r0, #1
   2b06c:	d103      	bne.n	2b076 <_start+0x3476>
   2b06e:	990d      	ldr	r1, [sp, #52]	@ 0x34
   2b070:	6e09      	ldr	r1, [r1, #96]	@ 0x60
   2b072:	910f      	str	r1, [sp, #60]	@ 0x3c
   2b074:	e013      	b.n	2b09e <_start+0x349e>
   2b076:	4977      	ldr	r1, [pc, #476]	@ (2b254 <_start+0x3654>)
   2b078:	4469      	add	r1, sp
   2b07a:	78ca      	ldrb	r2, [r1, #3]
   2b07c:	ab10      	add	r3, sp, #64	@ 0x40
   2b07e:	709a      	strb	r2, [r3, #2]
   2b080:	784a      	ldrb	r2, [r1, #1]
   2b082:	788c      	ldrb	r4, [r1, #2]
   2b084:	0224      	lsls	r4, r4, #8
   2b086:	18a2      	adds	r2, r4, r2
   2b088:	801a      	strh	r2, [r3, #0]
   2b08a:	3108      	adds	r1, #8
   2b08c:	9a0d      	ldr	r2, [sp, #52]	@ 0x34
   2b08e:	6e12      	ldr	r2, [r2, #96]	@ 0x60
   2b090:	920f      	str	r2, [sp, #60]	@ 0x3c
   2b092:	4a71      	ldr	r2, [pc, #452]	@ (2b258 <_start+0x3658>)
   2b094:	446a      	add	r2, sp
   2b096:	c918      	ldmia	r1!, {r3, r4}
   2b098:	c218      	stmia	r2!, {r3, r4}
   2b09a:	c938      	ldmia	r1!, {r3, r4, r5}
   2b09c:	c238      	stmia	r2!, {r3, r4, r5}
   2b09e:	2800      	cmp	r0, #0
   2b0a0:	d000      	beq.n	2b0a4 <_start+0x34a4>
   2b0a2:	e0ae      	b.n	2b202 <_start+0x3602>
   2b0a4:	4c72      	ldr	r4, [pc, #456]	@ (2b270 <_start+0x3670>)
   2b0a6:	446c      	add	r4, sp
   2b0a8:	990f      	ldr	r1, [sp, #60]	@ 0x3c
   2b0aa:	70e1      	strb	r1, [r4, #3]
   2b0ac:	9810      	ldr	r0, [sp, #64]	@ 0x40
   2b0ae:	8020      	strh	r0, [r4, #0]
   2b0b0:	0e08      	lsrs	r0, r1, #24
   2b0b2:	71a0      	strb	r0, [r4, #6]
   2b0b4:	0c08      	lsrs	r0, r1, #16
   2b0b6:	7160      	strb	r0, [r4, #5]
   2b0b8:	0a08      	lsrs	r0, r1, #8
   2b0ba:	7120      	strb	r0, [r4, #4]
   2b0bc:	a810      	add	r0, sp, #64	@ 0x40
   2b0be:	7880      	ldrb	r0, [r0, #2]
   2b0c0:	70a0      	strb	r0, [r4, #2]
   2b0c2:	1de0      	adds	r0, r4, #7
   2b0c4:	4964      	ldr	r1, [pc, #400]	@ (2b258 <_start+0x3658>)
   2b0c6:	4469      	add	r1, sp
   2b0c8:	2214      	movs	r2, #20
   2b0ca:	f000 fabe 	bl	2b64a <__aeabi_memcpy>
   2b0ce:	4d61      	ldr	r5, [pc, #388]	@ (2b254 <_start+0x3654>)
   2b0d0:	446d      	add	r5, sp
   2b0d2:	4628      	mov	r0, r5
   2b0d4:	4621      	mov	r1, r4
   2b0d6:	f7fc f8d9 	bl	2728c <_ZN20complex_dynamic_type3app17hed3873d622d10833E>
   2b0da:	782c      	ldrb	r4, [r5, #0]
   2b0dc:	2c01      	cmp	r4, #1
   2b0de:	d103      	bne.n	2b0e8 <_start+0x34e8>
   2b0e0:	980d      	ldr	r0, [sp, #52]	@ 0x34
   2b0e2:	6e00      	ldr	r0, [r0, #96]	@ 0x60
   2b0e4:	900f      	str	r0, [sp, #60]	@ 0x3c
   2b0e6:	e012      	b.n	2b10e <_start+0x350e>
   2b0e8:	495a      	ldr	r1, [pc, #360]	@ (2b254 <_start+0x3654>)
   2b0ea:	4469      	add	r1, sp
   2b0ec:	78c8      	ldrb	r0, [r1, #3]
   2b0ee:	aa10      	add	r2, sp, #64	@ 0x40
   2b0f0:	7090      	strb	r0, [r2, #2]
   2b0f2:	7848      	ldrb	r0, [r1, #1]
   2b0f4:	788b      	ldrb	r3, [r1, #2]
   2b0f6:	021b      	lsls	r3, r3, #8
   2b0f8:	1818      	adds	r0, r3, r0
   2b0fa:	8010      	strh	r0, [r2, #0]
   2b0fc:	980d      	ldr	r0, [sp, #52]	@ 0x34
   2b0fe:	6e00      	ldr	r0, [r0, #96]	@ 0x60
   2b100:	900f      	str	r0, [sp, #60]	@ 0x3c
   2b102:	3108      	adds	r1, #8
   2b104:	4854      	ldr	r0, [pc, #336]	@ (2b258 <_start+0x3658>)
   2b106:	4468      	add	r0, sp
   2b108:	225c      	movs	r2, #92	@ 0x5c
   2b10a:	f000 f93e 	bl	2b38a <__aeabi_memcpy4>
   2b10e:	2c00      	cmp	r4, #0
   2b110:	d177      	bne.n	2b202 <_start+0x3602>
   2b112:	4c58      	ldr	r4, [pc, #352]	@ (2b274 <_start+0x3674>)
   2b114:	446c      	add	r4, sp
   2b116:	990f      	ldr	r1, [sp, #60]	@ 0x3c
   2b118:	70e1      	strb	r1, [r4, #3]
   2b11a:	9810      	ldr	r0, [sp, #64]	@ 0x40
   2b11c:	8020      	strh	r0, [r4, #0]
   2b11e:	0e08      	lsrs	r0, r1, #24
   2b120:	71a0      	strb	r0, [r4, #6]
   2b122:	0c08      	lsrs	r0, r1, #16
   2b124:	7160      	strb	r0, [r4, #5]
   2b126:	0a08      	lsrs	r0, r1, #8
   2b128:	7120      	strb	r0, [r4, #4]
   2b12a:	a810      	add	r0, sp, #64	@ 0x40
   2b12c:	7880      	ldrb	r0, [r0, #2]
   2b12e:	70a0      	strb	r0, [r4, #2]
   2b130:	1de0      	adds	r0, r4, #7
   2b132:	4949      	ldr	r1, [pc, #292]	@ (2b258 <_start+0x3658>)
   2b134:	4469      	add	r1, sp
   2b136:	225c      	movs	r2, #92	@ 0x5c
   2b138:	f000 fa87 	bl	2b64a <__aeabi_memcpy>
   2b13c:	4d45      	ldr	r5, [pc, #276]	@ (2b254 <_start+0x3654>)
   2b13e:	446d      	add	r5, sp
   2b140:	4628      	mov	r0, r5
   2b142:	4621      	mov	r1, r4
   2b144:	f7f8 fb7c 	bl	23840 <_ZN20complex_dynamic_type3app17h6dedd859d192b599E>
   2b148:	7828      	ldrb	r0, [r5, #0]
   2b14a:	2801      	cmp	r0, #1
   2b14c:	d103      	bne.n	2b156 <_start+0x3556>
   2b14e:	990d      	ldr	r1, [sp, #52]	@ 0x34
   2b150:	6e09      	ldr	r1, [r1, #96]	@ 0x60
   2b152:	910f      	str	r1, [sp, #60]	@ 0x3c
   2b154:	e017      	b.n	2b186 <_start+0x3586>
   2b156:	493f      	ldr	r1, [pc, #252]	@ (2b254 <_start+0x3654>)
   2b158:	4469      	add	r1, sp
   2b15a:	78ca      	ldrb	r2, [r1, #3]
   2b15c:	ab10      	add	r3, sp, #64	@ 0x40
   2b15e:	709a      	strb	r2, [r3, #2]
   2b160:	784a      	ldrb	r2, [r1, #1]
   2b162:	788c      	ldrb	r4, [r1, #2]
   2b164:	0224      	lsls	r4, r4, #8
   2b166:	18a2      	adds	r2, r4, r2
   2b168:	801a      	strh	r2, [r3, #0]
   2b16a:	3108      	adds	r1, #8
   2b16c:	9a0d      	ldr	r2, [sp, #52]	@ 0x34
   2b16e:	6e12      	ldr	r2, [r2, #96]	@ 0x60
   2b170:	920f      	str	r2, [sp, #60]	@ 0x3c
   2b172:	4a39      	ldr	r2, [pc, #228]	@ (2b258 <_start+0x3658>)
   2b174:	446a      	add	r2, sp
   2b176:	c938      	ldmia	r1!, {r3, r4, r5}
   2b178:	c238      	stmia	r2!, {r3, r4, r5}
   2b17a:	c938      	ldmia	r1!, {r3, r4, r5}
   2b17c:	c238      	stmia	r2!, {r3, r4, r5}
   2b17e:	c938      	ldmia	r1!, {r3, r4, r5}
   2b180:	c238      	stmia	r2!, {r3, r4, r5}
   2b182:	7809      	ldrb	r1, [r1, #0]
   2b184:	7011      	strb	r1, [r2, #0]
   2b186:	2800      	cmp	r0, #0
   2b188:	d13b      	bne.n	2b202 <_start+0x3602>
   2b18a:	4c3b      	ldr	r4, [pc, #236]	@ (2b278 <_start+0x3678>)
   2b18c:	446c      	add	r4, sp
   2b18e:	990f      	ldr	r1, [sp, #60]	@ 0x3c
   2b190:	70e1      	strb	r1, [r4, #3]
   2b192:	9810      	ldr	r0, [sp, #64]	@ 0x40
   2b194:	8020      	strh	r0, [r4, #0]
   2b196:	0e08      	lsrs	r0, r1, #24
   2b198:	71a0      	strb	r0, [r4, #6]
   2b19a:	0c08      	lsrs	r0, r1, #16
   2b19c:	7160      	strb	r0, [r4, #5]
   2b19e:	0a08      	lsrs	r0, r1, #8
   2b1a0:	7120      	strb	r0, [r4, #4]
   2b1a2:	a810      	add	r0, sp, #64	@ 0x40
   2b1a4:	7880      	ldrb	r0, [r0, #2]
   2b1a6:	70a0      	strb	r0, [r4, #2]
   2b1a8:	1de0      	adds	r0, r4, #7
   2b1aa:	492b      	ldr	r1, [pc, #172]	@ (2b258 <_start+0x3658>)
   2b1ac:	4469      	add	r1, sp
   2b1ae:	2225      	movs	r2, #37	@ 0x25
   2b1b0:	f000 fa4b 	bl	2b64a <__aeabi_memcpy>
   2b1b4:	4d27      	ldr	r5, [pc, #156]	@ (2b254 <_start+0x3654>)
   2b1b6:	446d      	add	r5, sp
   2b1b8:	4628      	mov	r0, r5
   2b1ba:	4621      	mov	r1, r4
   2b1bc:	f7f9 ff20 	bl	25000 <_ZN20complex_dynamic_type3app17ha0b5e970c5f5168bE>
   2b1c0:	7828      	ldrb	r0, [r5, #0]
   2b1c2:	2801      	cmp	r0, #1
   2b1c4:	d103      	bne.n	2b1ce <_start+0x35ce>
   2b1c6:	990d      	ldr	r1, [sp, #52]	@ 0x34
   2b1c8:	6e09      	ldr	r1, [r1, #96]	@ 0x60
   2b1ca:	910f      	str	r1, [sp, #60]	@ 0x3c
   2b1cc:	e017      	b.n	2b1fe <_start+0x35fe>
   2b1ce:	4921      	ldr	r1, [pc, #132]	@ (2b254 <_start+0x3654>)
   2b1d0:	4469      	add	r1, sp
   2b1d2:	78ca      	ldrb	r2, [r1, #3]
   2b1d4:	ab10      	add	r3, sp, #64	@ 0x40
   2b1d6:	709a      	strb	r2, [r3, #2]
   2b1d8:	784a      	ldrb	r2, [r1, #1]
   2b1da:	788c      	ldrb	r4, [r1, #2]
   2b1dc:	0224      	lsls	r4, r4, #8
   2b1de:	18a2      	adds	r2, r4, r2
   2b1e0:	801a      	strh	r2, [r3, #0]
   2b1e2:	3108      	adds	r1, #8
   2b1e4:	9a0d      	ldr	r2, [sp, #52]	@ 0x34
   2b1e6:	6e12      	ldr	r2, [r2, #96]	@ 0x60
   2b1e8:	920f      	str	r2, [sp, #60]	@ 0x3c
   2b1ea:	4a1b      	ldr	r2, [pc, #108]	@ (2b258 <_start+0x3658>)
   2b1ec:	446a      	add	r2, sp
   2b1ee:	c978      	ldmia	r1!, {r3, r4, r5, r6}
   2b1f0:	c278      	stmia	r2!, {r3, r4, r5, r6}
   2b1f2:	c978      	ldmia	r1!, {r3, r4, r5, r6}
   2b1f4:	c278      	stmia	r2!, {r3, r4, r5, r6}
   2b1f6:	880b      	ldrh	r3, [r1, #0]
   2b1f8:	8013      	strh	r3, [r2, #0]
   2b1fa:	7889      	ldrb	r1, [r1, #2]
   2b1fc:	7091      	strb	r1, [r2, #2]
   2b1fe:	2800      	cmp	r0, #0
   2b200:	d008      	beq.n	2b214 <_start+0x3614>
   2b202:	2001      	movs	r0, #1
   2b204:	990f      	ldr	r1, [sp, #60]	@ 0x3c
   2b206:	1ffe      	subs	r6, r7, #7
   2b208:	3e05      	subs	r6, #5
   2b20a:	46b5      	mov	sp, r6
   2b20c:	bdf0      	pop	{r4, r5, r6, r7, pc}
   2b20e:	46c0      	nop			@ (mov r8, r8)
   2b210:	00001414 	.word	0x00001414
   2b214:	4c19      	ldr	r4, [pc, #100]	@ (2b27c <_start+0x367c>)
   2b216:	446c      	add	r4, sp
   2b218:	990f      	ldr	r1, [sp, #60]	@ 0x3c
   2b21a:	70e1      	strb	r1, [r4, #3]
   2b21c:	9810      	ldr	r0, [sp, #64]	@ 0x40
   2b21e:	8020      	strh	r0, [r4, #0]
   2b220:	0e08      	lsrs	r0, r1, #24
   2b222:	71a0      	strb	r0, [r4, #6]
   2b224:	0c08      	lsrs	r0, r1, #16
   2b226:	7160      	strb	r0, [r4, #5]
   2b228:	0a08      	lsrs	r0, r1, #8
   2b22a:	7120      	strb	r0, [r4, #4]
   2b22c:	a810      	add	r0, sp, #64	@ 0x40
   2b22e:	7880      	ldrb	r0, [r0, #2]
   2b230:	70a0      	strb	r0, [r4, #2]
   2b232:	1de0      	adds	r0, r4, #7
   2b234:	4908      	ldr	r1, [pc, #32]	@ (2b258 <_start+0x3658>)
   2b236:	4469      	add	r1, sp
   2b238:	2223      	movs	r2, #35	@ 0x23
   2b23a:	f000 fa06 	bl	2b64a <__aeabi_memcpy>
   2b23e:	4d05      	ldr	r5, [pc, #20]	@ (2b254 <_start+0x3654>)
   2b240:	446d      	add	r5, sp
   2b242:	4628      	mov	r0, r5
   2b244:	4621      	mov	r1, r4
   2b246:	f7fc fc43 	bl	27ad0 <_ZN20complex_dynamic_type3app17hfb36a16400c72b35E>
   2b24a:	7828      	ldrb	r0, [r5, #0]
   2b24c:	990d      	ldr	r1, [sp, #52]	@ 0x34
   2b24e:	6e09      	ldr	r1, [r1, #96]	@ 0x60
   2b250:	910f      	str	r1, [sp, #60]	@ 0x3c
   2b252:	e7d7      	b.n	2b204 <_start+0x3604>
   2b254:	00001414 	.word	0x00001414
   2b258:	000013b8 	.word	0x000013b8
   2b25c:	00001250 	.word	0x00001250
   2b260:	00001280 	.word	0x00001280
   2b264:	000012e0 	.word	0x000012e0
   2b268:	00001338 	.word	0x00001338
   2b26c:	0000134c 	.word	0x0000134c
   2b270:	0000139c 	.word	0x0000139c
   2b274:	00001478 	.word	0x00001478
   2b278:	000014dc 	.word	0x000014dc
   2b27c:	00001508 	.word	0x00001508

0002b280 <_ZN9allow_pin12dynamic_type7unshare17h19052c50f9e150aeE>:
   2b280:	b580      	push	{r7, lr}
   2b282:	af00      	add	r7, sp, #0
   2b284:	b2d2      	uxtb	r2, r2
   2b286:	2a03      	cmp	r2, #3
   2b288:	d103      	bne.n	2b292 <_ZN9allow_pin12dynamic_type7unshare17h19052c50f9e150aeE+0x12>
   2b28a:	2200      	movs	r2, #0
   2b28c:	4613      	mov	r3, r2
   2b28e:	df03      	svc	3
   2b290:	bd80      	pop	{r7, pc}
   2b292:	2200      	movs	r2, #0
   2b294:	4613      	mov	r3, r2
   2b296:	df04      	svc	4
   2b298:	bd80      	pop	{r7, pc}

0002b29a <_ZN9allow_pin13dynamic_allow17h8bfd3764c146b81aE>:
   2b29a:	b5b0      	push	{r4, r5, r7, lr}
   2b29c:	af02      	add	r7, sp, #8
   2b29e:	461d      	mov	r5, r3
   2b2a0:	4604      	mov	r4, r0
   2b2a2:	1df8      	adds	r0, r7, #7
   2b2a4:	3005      	adds	r0, #5
   2b2a6:	7800      	ldrb	r0, [r0, #0]
   2b2a8:	68bb      	ldr	r3, [r7, #8]
   2b2aa:	2803      	cmp	r0, #3
   2b2ac:	d104      	bne.n	2b2b8 <_ZN9allow_pin13dynamic_allow17h8bfd3764c146b81aE+0x1e>
   2b2ae:	4608      	mov	r0, r1
   2b2b0:	4611      	mov	r1, r2
   2b2b2:	462a      	mov	r2, r5
   2b2b4:	df03      	svc	3
   2b2b6:	e003      	b.n	2b2c0 <_ZN9allow_pin13dynamic_allow17h8bfd3764c146b81aE+0x26>
   2b2b8:	4608      	mov	r0, r1
   2b2ba:	4611      	mov	r1, r2
   2b2bc:	462a      	mov	r2, r5
   2b2be:	df04      	svc	4
   2b2c0:	6020      	str	r0, [r4, #0]
   2b2c2:	6061      	str	r1, [r4, #4]
   2b2c4:	60a2      	str	r2, [r4, #8]
   2b2c6:	60e3      	str	r3, [r4, #12]
   2b2c8:	bdb0      	pop	{r4, r5, r7, pc}

0002b2ca <__aeabi_memclr>:
   2b2ca:	b5f0      	push	{r4, r5, r6, r7, lr}
   2b2cc:	af03      	add	r7, sp, #12
   2b2ce:	2910      	cmp	r1, #16
   2b2d0:	d332      	bcc.n	2b338 <__aeabi_memclr+0x6e>
   2b2d2:	4244      	negs	r4, r0
   2b2d4:	2203      	movs	r2, #3
   2b2d6:	4014      	ands	r4, r2
   2b2d8:	1903      	adds	r3, r0, r4
   2b2da:	4298      	cmp	r0, r3
   2b2dc:	d218      	bcs.n	2b310 <__aeabi_memclr+0x46>
   2b2de:	1e65      	subs	r5, r4, #1
   2b2e0:	2c00      	cmp	r4, #0
   2b2e2:	d00b      	beq.n	2b2fc <__aeabi_memclr+0x32>
   2b2e4:	2600      	movs	r6, #0
   2b2e6:	7006      	strb	r6, [r0, #0]
   2b2e8:	2c01      	cmp	r4, #1
   2b2ea:	d103      	bne.n	2b2f4 <__aeabi_memclr+0x2a>
   2b2ec:	1c40      	adds	r0, r0, #1
   2b2ee:	2d03      	cmp	r5, #3
   2b2f0:	d206      	bcs.n	2b300 <__aeabi_memclr+0x36>
   2b2f2:	e00d      	b.n	2b310 <__aeabi_memclr+0x46>
   2b2f4:	7046      	strb	r6, [r0, #1]
   2b2f6:	2c02      	cmp	r4, #2
   2b2f8:	d142      	bne.n	2b380 <__aeabi_memclr+0xb6>
   2b2fa:	1c80      	adds	r0, r0, #2
   2b2fc:	2d03      	cmp	r5, #3
   2b2fe:	d307      	bcc.n	2b310 <__aeabi_memclr+0x46>
   2b300:	2500      	movs	r5, #0
   2b302:	70c5      	strb	r5, [r0, #3]
   2b304:	7085      	strb	r5, [r0, #2]
   2b306:	7045      	strb	r5, [r0, #1]
   2b308:	7005      	strb	r5, [r0, #0]
   2b30a:	1d00      	adds	r0, r0, #4
   2b30c:	4298      	cmp	r0, r3
   2b30e:	d1f7      	bne.n	2b300 <__aeabi_memclr+0x36>
   2b310:	1b09      	subs	r1, r1, r4
   2b312:	4608      	mov	r0, r1
   2b314:	4390      	bics	r0, r2
   2b316:	1818      	adds	r0, r3, r0
   2b318:	4283      	cmp	r3, r0
   2b31a:	d20c      	bcs.n	2b336 <__aeabi_memclr+0x6c>
   2b31c:	2400      	movs	r4, #0
   2b31e:	c310      	stmia	r3!, {r4}
   2b320:	4283      	cmp	r3, r0
   2b322:	d208      	bcs.n	2b336 <__aeabi_memclr+0x6c>
   2b324:	c310      	stmia	r3!, {r4}
   2b326:	4283      	cmp	r3, r0
   2b328:	d205      	bcs.n	2b336 <__aeabi_memclr+0x6c>
   2b32a:	c310      	stmia	r3!, {r4}
   2b32c:	4283      	cmp	r3, r0
   2b32e:	d202      	bcs.n	2b336 <__aeabi_memclr+0x6c>
   2b330:	c310      	stmia	r3!, {r4}
   2b332:	4283      	cmp	r3, r0
   2b334:	d3f2      	bcc.n	2b31c <__aeabi_memclr+0x52>
   2b336:	4011      	ands	r1, r2
   2b338:	1842      	adds	r2, r0, r1
   2b33a:	4290      	cmp	r0, r2
   2b33c:	d21a      	bcs.n	2b374 <__aeabi_memclr+0xaa>
   2b33e:	2303      	movs	r3, #3
   2b340:	400b      	ands	r3, r1
   2b342:	1e49      	subs	r1, r1, #1
   2b344:	2b00      	cmp	r3, #0
   2b346:	d00b      	beq.n	2b360 <__aeabi_memclr+0x96>
   2b348:	2400      	movs	r4, #0
   2b34a:	7004      	strb	r4, [r0, #0]
   2b34c:	2b01      	cmp	r3, #1
   2b34e:	d103      	bne.n	2b358 <__aeabi_memclr+0x8e>
   2b350:	1c40      	adds	r0, r0, #1
   2b352:	2903      	cmp	r1, #3
   2b354:	d206      	bcs.n	2b364 <__aeabi_memclr+0x9a>
   2b356:	e00d      	b.n	2b374 <__aeabi_memclr+0xaa>
   2b358:	7044      	strb	r4, [r0, #1]
   2b35a:	2b02      	cmp	r3, #2
   2b35c:	d10b      	bne.n	2b376 <__aeabi_memclr+0xac>
   2b35e:	1c80      	adds	r0, r0, #2
   2b360:	2903      	cmp	r1, #3
   2b362:	d307      	bcc.n	2b374 <__aeabi_memclr+0xaa>
   2b364:	2100      	movs	r1, #0
   2b366:	70c1      	strb	r1, [r0, #3]
   2b368:	7081      	strb	r1, [r0, #2]
   2b36a:	7041      	strb	r1, [r0, #1]
   2b36c:	7001      	strb	r1, [r0, #0]
   2b36e:	1d00      	adds	r0, r0, #4
   2b370:	4290      	cmp	r0, r2
   2b372:	d1f7      	bne.n	2b364 <__aeabi_memclr+0x9a>
   2b374:	bdf0      	pop	{r4, r5, r6, r7, pc}
   2b376:	7084      	strb	r4, [r0, #2]
   2b378:	1cc0      	adds	r0, r0, #3
   2b37a:	2903      	cmp	r1, #3
   2b37c:	d2f2      	bcs.n	2b364 <__aeabi_memclr+0x9a>
   2b37e:	e7f9      	b.n	2b374 <__aeabi_memclr+0xaa>
   2b380:	7086      	strb	r6, [r0, #2]
   2b382:	1cc0      	adds	r0, r0, #3
   2b384:	2d03      	cmp	r5, #3
   2b386:	d2bb      	bcs.n	2b300 <__aeabi_memclr+0x36>
   2b388:	e7c2      	b.n	2b310 <__aeabi_memclr+0x46>

0002b38a <__aeabi_memcpy4>:
   2b38a:	b5f0      	push	{r4, r5, r6, r7, lr}
   2b38c:	af03      	add	r7, sp, #12
   2b38e:	b081      	sub	sp, #4
   2b390:	2a04      	cmp	r2, #4
   2b392:	d32d      	bcc.n	2b3f0 <__aeabi_memcpy4+0x66>
   2b394:	1f13      	subs	r3, r2, #4
   2b396:	250c      	movs	r5, #12
   2b398:	401d      	ands	r5, r3
   2b39a:	2d0c      	cmp	r5, #12
   2b39c:	d019      	beq.n	2b3d2 <__aeabi_memcpy4+0x48>
   2b39e:	9200      	str	r2, [sp, #0]
   2b3a0:	460e      	mov	r6, r1
   2b3a2:	c904      	ldmia	r1!, {r2}
   2b3a4:	4604      	mov	r4, r0
   2b3a6:	c004      	stmia	r0!, {r2}
   2b3a8:	071a      	lsls	r2, r3, #28
   2b3aa:	0f92      	lsrs	r2, r2, #30
   2b3ac:	461a      	mov	r2, r3
   2b3ae:	d010      	beq.n	2b3d2 <__aeabi_memcpy4+0x48>
   2b3b0:	4631      	mov	r1, r6
   2b3b2:	6872      	ldr	r2, [r6, #4]
   2b3b4:	6062      	str	r2, [r4, #4]
   2b3b6:	2d04      	cmp	r5, #4
   2b3b8:	d104      	bne.n	2b3c4 <__aeabi_memcpy4+0x3a>
   2b3ba:	9a00      	ldr	r2, [sp, #0]
   2b3bc:	3a08      	subs	r2, #8
   2b3be:	3108      	adds	r1, #8
   2b3c0:	3408      	adds	r4, #8
   2b3c2:	e005      	b.n	2b3d0 <__aeabi_memcpy4+0x46>
   2b3c4:	688a      	ldr	r2, [r1, #8]
   2b3c6:	60a2      	str	r2, [r4, #8]
   2b3c8:	9a00      	ldr	r2, [sp, #0]
   2b3ca:	3a0c      	subs	r2, #12
   2b3cc:	310c      	adds	r1, #12
   2b3ce:	340c      	adds	r4, #12
   2b3d0:	4620      	mov	r0, r4
   2b3d2:	2b0c      	cmp	r3, #12
   2b3d4:	d30c      	bcc.n	2b3f0 <__aeabi_memcpy4+0x66>
   2b3d6:	680b      	ldr	r3, [r1, #0]
   2b3d8:	6003      	str	r3, [r0, #0]
   2b3da:	684b      	ldr	r3, [r1, #4]
   2b3dc:	6043      	str	r3, [r0, #4]
   2b3de:	688b      	ldr	r3, [r1, #8]
   2b3e0:	6083      	str	r3, [r0, #8]
   2b3e2:	68cb      	ldr	r3, [r1, #12]
   2b3e4:	60c3      	str	r3, [r0, #12]
   2b3e6:	3110      	adds	r1, #16
   2b3e8:	3010      	adds	r0, #16
   2b3ea:	3a10      	subs	r2, #16
   2b3ec:	2a03      	cmp	r2, #3
   2b3ee:	d8f2      	bhi.n	2b3d6 <__aeabi_memcpy4+0x4c>
   2b3f0:	f000 f802 	bl	2b3f8 <_ZN17compiler_builtins3mem6memcpy17h1f9dbb1c3fd18e2fE>
   2b3f4:	b001      	add	sp, #4
   2b3f6:	bdf0      	pop	{r4, r5, r6, r7, pc}

0002b3f8 <_ZN17compiler_builtins3mem6memcpy17h1f9dbb1c3fd18e2fE>:
   2b3f8:	b5f0      	push	{r4, r5, r6, r7, lr}
   2b3fa:	af03      	add	r7, sp, #12
   2b3fc:	b08f      	sub	sp, #60	@ 0x3c
   2b3fe:	2a10      	cmp	r2, #16
   2b400:	d315      	bcc.n	2b42e <_ZN17compiler_builtins3mem6memcpy17h1f9dbb1c3fd18e2fE+0x36>
   2b402:	920b      	str	r2, [sp, #44]	@ 0x2c
   2b404:	4242      	negs	r2, r0
   2b406:	2303      	movs	r3, #3
   2b408:	9308      	str	r3, [sp, #32]
   2b40a:	401a      	ands	r2, r3
   2b40c:	1885      	adds	r5, r0, r2
   2b40e:	900a      	str	r0, [sp, #40]	@ 0x28
   2b410:	42a8      	cmp	r0, r5
   2b412:	d22a      	bcs.n	2b46a <_ZN17compiler_builtins3mem6memcpy17h1f9dbb1c3fd18e2fE+0x72>
   2b414:	1e54      	subs	r4, r2, #1
   2b416:	2a00      	cmp	r2, #0
   2b418:	980a      	ldr	r0, [sp, #40]	@ 0x28
   2b41a:	4606      	mov	r6, r0
   2b41c:	460b      	mov	r3, r1
   2b41e:	d016      	beq.n	2b44e <_ZN17compiler_builtins3mem6memcpy17h1f9dbb1c3fd18e2fE+0x56>
   2b420:	780b      	ldrb	r3, [r1, #0]
   2b422:	7003      	strb	r3, [r0, #0]
   2b424:	2a01      	cmp	r2, #1
   2b426:	d107      	bne.n	2b438 <_ZN17compiler_builtins3mem6memcpy17h1f9dbb1c3fd18e2fE+0x40>
   2b428:	1c4b      	adds	r3, r1, #1
   2b42a:	1c46      	adds	r6, r0, #1
   2b42c:	e00f      	b.n	2b44e <_ZN17compiler_builtins3mem6memcpy17h1f9dbb1c3fd18e2fE+0x56>
   2b42e:	4603      	mov	r3, r0
   2b430:	189c      	adds	r4, r3, r2
   2b432:	42a3      	cmp	r3, r4
   2b434:	d341      	bcc.n	2b4ba <_ZN17compiler_builtins3mem6memcpy17h1f9dbb1c3fd18e2fE+0xc2>
   2b436:	e062      	b.n	2b4fe <_ZN17compiler_builtins3mem6memcpy17h1f9dbb1c3fd18e2fE+0x106>
   2b438:	784b      	ldrb	r3, [r1, #1]
   2b43a:	7043      	strb	r3, [r0, #1]
   2b43c:	2a02      	cmp	r2, #2
   2b43e:	d102      	bne.n	2b446 <_ZN17compiler_builtins3mem6memcpy17h1f9dbb1c3fd18e2fE+0x4e>
   2b440:	1c8b      	adds	r3, r1, #2
   2b442:	1c86      	adds	r6, r0, #2
   2b444:	e003      	b.n	2b44e <_ZN17compiler_builtins3mem6memcpy17h1f9dbb1c3fd18e2fE+0x56>
   2b446:	788b      	ldrb	r3, [r1, #2]
   2b448:	7083      	strb	r3, [r0, #2]
   2b44a:	1ccb      	adds	r3, r1, #3
   2b44c:	1cc6      	adds	r6, r0, #3
   2b44e:	2c03      	cmp	r4, #3
   2b450:	d30b      	bcc.n	2b46a <_ZN17compiler_builtins3mem6memcpy17h1f9dbb1c3fd18e2fE+0x72>
   2b452:	781c      	ldrb	r4, [r3, #0]
   2b454:	7034      	strb	r4, [r6, #0]
   2b456:	785c      	ldrb	r4, [r3, #1]
   2b458:	7074      	strb	r4, [r6, #1]
   2b45a:	789c      	ldrb	r4, [r3, #2]
   2b45c:	70b4      	strb	r4, [r6, #2]
   2b45e:	78dc      	ldrb	r4, [r3, #3]
   2b460:	70f4      	strb	r4, [r6, #3]
   2b462:	1d1b      	adds	r3, r3, #4
   2b464:	1d36      	adds	r6, r6, #4
   2b466:	42ae      	cmp	r6, r5
   2b468:	d1f3      	bne.n	2b452 <_ZN17compiler_builtins3mem6memcpy17h1f9dbb1c3fd18e2fE+0x5a>
   2b46a:	980b      	ldr	r0, [sp, #44]	@ 0x2c
   2b46c:	1a80      	subs	r0, r0, r2
   2b46e:	900b      	str	r0, [sp, #44]	@ 0x2c
   2b470:	9c08      	ldr	r4, [sp, #32]
   2b472:	43a0      	bics	r0, r4
   2b474:	182b      	adds	r3, r5, r0
   2b476:	188e      	adds	r6, r1, r2
   2b478:	9609      	str	r6, [sp, #36]	@ 0x24
   2b47a:	4026      	ands	r6, r4
   2b47c:	9007      	str	r0, [sp, #28]
   2b47e:	d147      	bne.n	2b510 <_ZN17compiler_builtins3mem6memcpy17h1f9dbb1c3fd18e2fE+0x118>
   2b480:	429d      	cmp	r5, r3
   2b482:	9a0b      	ldr	r2, [sp, #44]	@ 0x2c
   2b484:	9e09      	ldr	r6, [sp, #36]	@ 0x24
   2b486:	d211      	bcs.n	2b4ac <_ZN17compiler_builtins3mem6memcpy17h1f9dbb1c3fd18e2fE+0xb4>
   2b488:	4631      	mov	r1, r6
   2b48a:	6808      	ldr	r0, [r1, #0]
   2b48c:	c501      	stmia	r5!, {r0}
   2b48e:	429d      	cmp	r5, r3
   2b490:	d20c      	bcs.n	2b4ac <_ZN17compiler_builtins3mem6memcpy17h1f9dbb1c3fd18e2fE+0xb4>
   2b492:	6848      	ldr	r0, [r1, #4]
   2b494:	c501      	stmia	r5!, {r0}
   2b496:	429d      	cmp	r5, r3
   2b498:	d208      	bcs.n	2b4ac <_ZN17compiler_builtins3mem6memcpy17h1f9dbb1c3fd18e2fE+0xb4>
   2b49a:	6888      	ldr	r0, [r1, #8]
   2b49c:	c501      	stmia	r5!, {r0}
   2b49e:	429d      	cmp	r5, r3
   2b4a0:	d204      	bcs.n	2b4ac <_ZN17compiler_builtins3mem6memcpy17h1f9dbb1c3fd18e2fE+0xb4>
   2b4a2:	68c8      	ldr	r0, [r1, #12]
   2b4a4:	c501      	stmia	r5!, {r0}
   2b4a6:	3110      	adds	r1, #16
   2b4a8:	429d      	cmp	r5, r3
   2b4aa:	d3ee      	bcc.n	2b48a <_ZN17compiler_builtins3mem6memcpy17h1f9dbb1c3fd18e2fE+0x92>
   2b4ac:	4022      	ands	r2, r4
   2b4ae:	9807      	ldr	r0, [sp, #28]
   2b4b0:	1831      	adds	r1, r6, r0
   2b4b2:	980a      	ldr	r0, [sp, #40]	@ 0x28
   2b4b4:	189c      	adds	r4, r3, r2
   2b4b6:	42a3      	cmp	r3, r4
   2b4b8:	d221      	bcs.n	2b4fe <_ZN17compiler_builtins3mem6memcpy17h1f9dbb1c3fd18e2fE+0x106>
   2b4ba:	2503      	movs	r5, #3
   2b4bc:	4015      	ands	r5, r2
   2b4be:	1e52      	subs	r2, r2, #1
   2b4c0:	2d00      	cmp	r5, #0
   2b4c2:	d00e      	beq.n	2b4e2 <_ZN17compiler_builtins3mem6memcpy17h1f9dbb1c3fd18e2fE+0xea>
   2b4c4:	780e      	ldrb	r6, [r1, #0]
   2b4c6:	701e      	strb	r6, [r3, #0]
   2b4c8:	2d01      	cmp	r5, #1
   2b4ca:	d104      	bne.n	2b4d6 <_ZN17compiler_builtins3mem6memcpy17h1f9dbb1c3fd18e2fE+0xde>
   2b4cc:	1c49      	adds	r1, r1, #1
   2b4ce:	1c5b      	adds	r3, r3, #1
   2b4d0:	2a03      	cmp	r2, #3
   2b4d2:	d208      	bcs.n	2b4e6 <_ZN17compiler_builtins3mem6memcpy17h1f9dbb1c3fd18e2fE+0xee>
   2b4d4:	e013      	b.n	2b4fe <_ZN17compiler_builtins3mem6memcpy17h1f9dbb1c3fd18e2fE+0x106>
   2b4d6:	784e      	ldrb	r6, [r1, #1]
   2b4d8:	705e      	strb	r6, [r3, #1]
   2b4da:	2d02      	cmp	r5, #2
   2b4dc:	d111      	bne.n	2b502 <_ZN17compiler_builtins3mem6memcpy17h1f9dbb1c3fd18e2fE+0x10a>
   2b4de:	1c89      	adds	r1, r1, #2
   2b4e0:	1c9b      	adds	r3, r3, #2
   2b4e2:	2a03      	cmp	r2, #3
   2b4e4:	d30b      	bcc.n	2b4fe <_ZN17compiler_builtins3mem6memcpy17h1f9dbb1c3fd18e2fE+0x106>
   2b4e6:	780a      	ldrb	r2, [r1, #0]
   2b4e8:	701a      	strb	r2, [r3, #0]
   2b4ea:	784a      	ldrb	r2, [r1, #1]
   2b4ec:	705a      	strb	r2, [r3, #1]
   2b4ee:	788a      	ldrb	r2, [r1, #2]
   2b4f0:	709a      	strb	r2, [r3, #2]
   2b4f2:	78ca      	ldrb	r2, [r1, #3]
   2b4f4:	70da      	strb	r2, [r3, #3]
   2b4f6:	1d09      	adds	r1, r1, #4
   2b4f8:	1d1b      	adds	r3, r3, #4
   2b4fa:	42a3      	cmp	r3, r4
   2b4fc:	d1f3      	bne.n	2b4e6 <_ZN17compiler_builtins3mem6memcpy17h1f9dbb1c3fd18e2fE+0xee>
   2b4fe:	b00f      	add	sp, #60	@ 0x3c
   2b500:	bdf0      	pop	{r4, r5, r6, r7, pc}
   2b502:	788d      	ldrb	r5, [r1, #2]
   2b504:	709d      	strb	r5, [r3, #2]
   2b506:	1cc9      	adds	r1, r1, #3
   2b508:	1cdb      	adds	r3, r3, #3
   2b50a:	2a03      	cmp	r2, #3
   2b50c:	d2eb      	bcs.n	2b4e6 <_ZN17compiler_builtins3mem6memcpy17h1f9dbb1c3fd18e2fE+0xee>
   2b50e:	e7f6      	b.n	2b4fe <_ZN17compiler_builtins3mem6memcpy17h1f9dbb1c3fd18e2fE+0x106>
   2b510:	2400      	movs	r4, #0
   2b512:	9406      	str	r4, [sp, #24]
   2b514:	940e      	str	r4, [sp, #56]	@ 0x38
   2b516:	ac0e      	add	r4, sp, #56	@ 0x38
   2b518:	19a4      	adds	r4, r4, r6
   2b51a:	9405      	str	r4, [sp, #20]
   2b51c:	2404      	movs	r4, #4
   2b51e:	1ba4      	subs	r4, r4, r6
   2b520:	9404      	str	r4, [sp, #16]
   2b522:	07e4      	lsls	r4, r4, #31
   2b524:	9600      	str	r6, [sp, #0]
   2b526:	d006      	beq.n	2b536 <_ZN17compiler_builtins3mem6memcpy17h1f9dbb1c3fd18e2fE+0x13e>
   2b528:	9c09      	ldr	r4, [sp, #36]	@ 0x24
   2b52a:	7824      	ldrb	r4, [r4, #0]
   2b52c:	9e05      	ldr	r6, [sp, #20]
   2b52e:	7034      	strb	r4, [r6, #0]
   2b530:	9e00      	ldr	r6, [sp, #0]
   2b532:	2401      	movs	r4, #1
   2b534:	9406      	str	r4, [sp, #24]
   2b536:	9c04      	ldr	r4, [sp, #16]
   2b538:	07a4      	lsls	r4, r4, #30
   2b53a:	d508      	bpl.n	2b54e <_ZN17compiler_builtins3mem6memcpy17h1f9dbb1c3fd18e2fE+0x156>
   2b53c:	9c09      	ldr	r4, [sp, #36]	@ 0x24
   2b53e:	9204      	str	r2, [sp, #16]
   2b540:	9a06      	ldr	r2, [sp, #24]
   2b542:	5aa4      	ldrh	r4, [r4, r2]
   2b544:	9e05      	ldr	r6, [sp, #20]
   2b546:	9a06      	ldr	r2, [sp, #24]
   2b548:	52b4      	strh	r4, [r6, r2]
   2b54a:	9a04      	ldr	r2, [sp, #16]
   2b54c:	9e00      	ldr	r6, [sp, #0]
   2b54e:	00f4      	lsls	r4, r6, #3
   2b550:	9403      	str	r4, [sp, #12]
   2b552:	9c0e      	ldr	r4, [sp, #56]	@ 0x38
   2b554:	9406      	str	r4, [sp, #24]
   2b556:	1d2c      	adds	r4, r5, #4
   2b558:	429c      	cmp	r4, r3
   2b55a:	d236      	bcs.n	2b5ca <_ZN17compiler_builtins3mem6memcpy17h1f9dbb1c3fd18e2fE+0x1d2>
   2b55c:	4274      	negs	r4, r6
   2b55e:	1909      	adds	r1, r1, r4
   2b560:	9105      	str	r1, [sp, #20]
   2b562:	9d03      	ldr	r5, [sp, #12]
   2b564:	4269      	negs	r1, r5
   2b566:	2418      	movs	r4, #24
   2b568:	400c      	ands	r4, r1
   2b56a:	9402      	str	r4, [sp, #8]
   2b56c:	990a      	ldr	r1, [sp, #40]	@ 0x28
   2b56e:	9104      	str	r1, [sp, #16]
   2b570:	4629      	mov	r1, r5
   2b572:	9c06      	ldr	r4, [sp, #24]
   2b574:	40cc      	lsrs	r4, r1
   2b576:	9406      	str	r4, [sp, #24]
   2b578:	9905      	ldr	r1, [sp, #20]
   2b57a:	1889      	adds	r1, r1, r2
   2b57c:	9101      	str	r1, [sp, #4]
   2b57e:	6849      	ldr	r1, [r1, #4]
   2b580:	460c      	mov	r4, r1
   2b582:	9d02      	ldr	r5, [sp, #8]
   2b584:	40ac      	lsls	r4, r5
   2b586:	9d06      	ldr	r5, [sp, #24]
   2b588:	432c      	orrs	r4, r5
   2b58a:	9d04      	ldr	r5, [sp, #16]
   2b58c:	50ac      	str	r4, [r5, r2]
   2b58e:	18ad      	adds	r5, r5, r2
   2b590:	462c      	mov	r4, r5
   2b592:	3408      	adds	r4, #8
   2b594:	429c      	cmp	r4, r3
   2b596:	d21c      	bcs.n	2b5d2 <_ZN17compiler_builtins3mem6memcpy17h1f9dbb1c3fd18e2fE+0x1da>
   2b598:	9c03      	ldr	r4, [sp, #12]
   2b59a:	40e1      	lsrs	r1, r4
   2b59c:	9c01      	ldr	r4, [sp, #4]
   2b59e:	68a4      	ldr	r4, [r4, #8]
   2b5a0:	9406      	str	r4, [sp, #24]
   2b5a2:	9501      	str	r5, [sp, #4]
   2b5a4:	9d02      	ldr	r5, [sp, #8]
   2b5a6:	40ac      	lsls	r4, r5
   2b5a8:	430c      	orrs	r4, r1
   2b5aa:	9901      	ldr	r1, [sp, #4]
   2b5ac:	604c      	str	r4, [r1, #4]
   2b5ae:	9904      	ldr	r1, [sp, #16]
   2b5b0:	3108      	adds	r1, #8
   2b5b2:	9104      	str	r1, [sp, #16]
   2b5b4:	188d      	adds	r5, r1, r2
   2b5b6:	1d29      	adds	r1, r5, #4
   2b5b8:	9c05      	ldr	r4, [sp, #20]
   2b5ba:	3408      	adds	r4, #8
   2b5bc:	9405      	str	r4, [sp, #20]
   2b5be:	4299      	cmp	r1, r3
   2b5c0:	9903      	ldr	r1, [sp, #12]
   2b5c2:	d3d6      	bcc.n	2b572 <_ZN17compiler_builtins3mem6memcpy17h1f9dbb1c3fd18e2fE+0x17a>
   2b5c4:	9805      	ldr	r0, [sp, #20]
   2b5c6:	1880      	adds	r0, r0, r2
   2b5c8:	e001      	b.n	2b5ce <_ZN17compiler_builtins3mem6memcpy17h1f9dbb1c3fd18e2fE+0x1d6>
   2b5ca:	9809      	ldr	r0, [sp, #36]	@ 0x24
   2b5cc:	1b80      	subs	r0, r0, r6
   2b5ce:	9005      	str	r0, [sp, #20]
   2b5d0:	e004      	b.n	2b5dc <_ZN17compiler_builtins3mem6memcpy17h1f9dbb1c3fd18e2fE+0x1e4>
   2b5d2:	9801      	ldr	r0, [sp, #4]
   2b5d4:	1d00      	adds	r0, r0, #4
   2b5d6:	9005      	str	r0, [sp, #20]
   2b5d8:	1d2d      	adds	r5, r5, #4
   2b5da:	9106      	str	r1, [sp, #24]
   2b5dc:	a80d      	add	r0, sp, #52	@ 0x34
   2b5de:	2100      	movs	r1, #0
   2b5e0:	9004      	str	r0, [sp, #16]
   2b5e2:	7001      	strb	r1, [r0, #0]
   2b5e4:	a80c      	add	r0, sp, #48	@ 0x30
   2b5e6:	7001      	strb	r1, [r0, #0]
   2b5e8:	2e01      	cmp	r6, #1
   2b5ea:	460e      	mov	r6, r1
   2b5ec:	460c      	mov	r4, r1
   2b5ee:	9102      	str	r1, [sp, #8]
   2b5f0:	9a0b      	ldr	r2, [sp, #44]	@ 0x2c
   2b5f2:	d009      	beq.n	2b608 <_ZN17compiler_builtins3mem6memcpy17h1f9dbb1c3fd18e2fE+0x210>
   2b5f4:	9c05      	ldr	r4, [sp, #20]
   2b5f6:	7960      	ldrb	r0, [r4, #5]
   2b5f8:	7926      	ldrb	r6, [r4, #4]
   2b5fa:	ac0d      	add	r4, sp, #52	@ 0x34
   2b5fc:	7026      	strb	r6, [r4, #0]
   2b5fe:	0204      	lsls	r4, r0, #8
   2b600:	2002      	movs	r0, #2
   2b602:	9002      	str	r0, [sp, #8]
   2b604:	a80c      	add	r0, sp, #48	@ 0x30
   2b606:	9004      	str	r0, [sp, #16]
   2b608:	9809      	ldr	r0, [sp, #36]	@ 0x24
   2b60a:	07c0      	lsls	r0, r0, #31
   2b60c:	d00a      	beq.n	2b624 <_ZN17compiler_builtins3mem6memcpy17h1f9dbb1c3fd18e2fE+0x22c>
   2b60e:	9805      	ldr	r0, [sp, #20]
   2b610:	1d00      	adds	r0, r0, #4
   2b612:	9902      	ldr	r1, [sp, #8]
   2b614:	5c40      	ldrb	r0, [r0, r1]
   2b616:	9904      	ldr	r1, [sp, #16]
   2b618:	7008      	strb	r0, [r1, #0]
   2b61a:	a80d      	add	r0, sp, #52	@ 0x34
   2b61c:	7806      	ldrb	r6, [r0, #0]
   2b61e:	a80c      	add	r0, sp, #48	@ 0x30
   2b620:	7800      	ldrb	r0, [r0, #0]
   2b622:	0401      	lsls	r1, r0, #16
   2b624:	9605      	str	r6, [sp, #20]
   2b626:	9803      	ldr	r0, [sp, #12]
   2b628:	4240      	negs	r0, r0
   2b62a:	9004      	str	r0, [sp, #16]
   2b62c:	2618      	movs	r6, #24
   2b62e:	9804      	ldr	r0, [sp, #16]
   2b630:	4006      	ands	r6, r0
   2b632:	430c      	orrs	r4, r1
   2b634:	9905      	ldr	r1, [sp, #20]
   2b636:	430c      	orrs	r4, r1
   2b638:	40b4      	lsls	r4, r6
   2b63a:	9906      	ldr	r1, [sp, #24]
   2b63c:	9803      	ldr	r0, [sp, #12]
   2b63e:	40c1      	lsrs	r1, r0
   2b640:	4321      	orrs	r1, r4
   2b642:	6029      	str	r1, [r5, #0]
   2b644:	9c08      	ldr	r4, [sp, #32]
   2b646:	9e09      	ldr	r6, [sp, #36]	@ 0x24
   2b648:	e730      	b.n	2b4ac <_ZN17compiler_builtins3mem6memcpy17h1f9dbb1c3fd18e2fE+0xb4>

0002b64a <__aeabi_memcpy>:
   2b64a:	b580      	push	{r7, lr}
   2b64c:	af00      	add	r7, sp, #0
   2b64e:	f7ff fed3 	bl	2b3f8 <_ZN17compiler_builtins3mem6memcpy17h1f9dbb1c3fd18e2fE>
   2b652:	bd80      	pop	{r7, pc}
