
target/riscv32imc-unknown-none-elf/opt-s/examples/complex_dynamic_type:     file format elf32-littleriscv

Sections:
Idx Name          Size      VMA       LMA       File off  Algn
  0 .eh_frame     00000060  000100d4  000100d4  000000d4  2**2
                  CONTENTS, ALLOC, LOAD, READONLY, DATA
  1 .text         0000c7e8  00011134  00011134  00000134  2**1
                  CONTENTS, ALLOC, LOAD, READONLY, CODE
  2 .comment      0000008b  00000000  00000000  0000c91c  2**0
                  CONTENTS, READONLY
  3 .riscv.attributes 0000002f  00000000  00000000  0000c9a7  2**0
                  CONTENTS, READONLY

Disassembly of section .text:

00011134 <_ZN20complex_dynamic_type3app17h019d1868e204a024E>:
   11134:	7135                	addi	sp,sp,-160
   11136:	cf06                	sw	ra,156(sp)
   11138:	cd22                	sw	s0,152(sp)
   1113a:	cb26                	sw	s1,148(sp)
   1113c:	c94a                	sw	s2,144(sp)
   1113e:	c74e                	sw	s3,140(sp)
   11140:	89aa                	mv	s3,a0
   11142:	4409                	li	s0,2
   11144:	008103a3          	sb	s0,7(sp)
   11148:	0024                	addi	s1,sp,8
   1114a:	02a00613          	li	a2,42
   1114e:	8526                	mv	a0,s1
   11150:	0000c097          	auipc	ra,0xc
   11154:	626080e7          	jalr	1574(ra) # 1d776 <memcpy>
   11158:	03310913          	addi	s2,sp,51
   1115c:	05900613          	li	a2,89
   11160:	854a                	mv	a0,s2
   11162:	4581                	li	a1,0
   11164:	0000c097          	auipc	ra,0xc
   11168:	5a6080e7          	jalr	1446(ra) # 1d70a <memset>
   1116c:	8626                	mv	a2,s1
   1116e:	02810923          	sb	s0,50(sp)
   11172:	6505                	lui	a0,0x1
   11174:	4805                	li	a6,1
   11176:	4491                	li	s1,4
   11178:	4585                	li	a1,1
   1117a:	ed250793          	addi	a5,a0,-302 # ed2 <.Lline_table_start1+0xca7>
   1117e:	02a00693          	li	a3,42
   11182:	4711                	li	a4,4
   11184:	853e                	mv	a0,a5
   11186:	00000073          	ecall
   1118a:	00851763          	bne	a0,s0,11198 <_ZN20complex_dynamic_type3app17h019d1868e204a024E+0x64>
   1118e:	01098023          	sb	a6,0(s3)
   11192:	00b9a223          	sw	a1,4(s3)
   11196:	a0bd                	j	11204 <_ZN20complex_dynamic_type3app17h019d1868e204a024E+0xd0>
   11198:	853e                	mv	a0,a5
   1119a:	864a                	mv	a2,s2
   1119c:	009103a3          	sb	s1,7(sp)
   111a0:	478d                	li	a5,3
   111a2:	458d                	li	a1,3
   111a4:	05900693          	li	a3,89
   111a8:	470d                	li	a4,3
   111aa:	00000073          	ecall
   111ae:	00851d63          	bne	a0,s0,111c8 <_ZN20complex_dynamic_type3app17h019d1868e204a024E+0x94>
   111b2:	03214703          	lbu	a4,50(sp)
   111b6:	4505                	li	a0,1
   111b8:	4609                	li	a2,2
   111ba:	00a98023          	sb	a0,0(s3)
   111be:	00b9a223          	sw	a1,4(s3)
   111c2:	02c71963          	bne	a4,a2,111f4 <_ZN20complex_dynamic_type3app17h019d1868e204a024E+0xc0>
   111c6:	a83d                	j	11204 <_ZN20complex_dynamic_type3app17h019d1868e204a024E+0xd0>
   111c8:	4681                	li	a3,0
   111ca:	02f10923          	sb	a5,50(sp)
   111ce:	6505                	lui	a0,0x1
   111d0:	4785                	li	a5,1
   111d2:	4585                	li	a1,1
   111d4:	460d                	li	a2,3
   111d6:	4709                	li	a4,2
   111d8:	ed250513          	addi	a0,a0,-302 # ed2 <.Lline_table_start1+0xca7>
   111dc:	07f00493          	li	s1,127
   111e0:	00000073          	ecall
   111e4:	4609                	li	a2,2
   111e6:	04a4e463          	bltu	s1,a0,1122e <_ZN20complex_dynamic_type3app17h019d1868e204a024E+0xfa>
   111ea:	00f98023          	sb	a5,0(s3)
   111ee:	00b9a223          	sw	a1,4(s3)
   111f2:	470d                	li	a4,3
   111f4:	6505                	lui	a0,0x1
   111f6:	ed250513          	addi	a0,a0,-302 # ed2 <.Lline_table_start1+0xca7>
   111fa:	458d                	li	a1,3
   111fc:	4601                	li	a2,0
   111fe:	4681                	li	a3,0
   11200:	00000073          	ecall
   11204:	00714483          	lbu	s1,7(sp)
   11208:	4509                	li	a0,2
   1120a:	00a48b63          	beq	s1,a0,11220 <_ZN20complex_dynamic_type3app17h019d1868e204a024E+0xec>
   1120e:	6505                	lui	a0,0x1
   11210:	ed250513          	addi	a0,a0,-302 # ed2 <.Lline_table_start1+0xca7>
   11214:	4585                	li	a1,1
   11216:	4601                	li	a2,0
   11218:	4681                	li	a3,0
   1121a:	8726                	mv	a4,s1
   1121c:	00000073          	ecall
   11220:	40fa                	lw	ra,156(sp)
   11222:	446a                	lw	s0,152(sp)
   11224:	44da                	lw	s1,148(sp)
   11226:	494a                	lw	s2,144(sp)
   11228:	49ba                	lw	s3,140(sp)
   1122a:	610d                	addi	sp,sp,160
   1122c:	8082                	ret
   1122e:	00714703          	lbu	a4,7(sp)
   11232:	00c71463          	bne	a4,a2,1123a <_ZN20complex_dynamic_type3app17h019d1868e204a024E+0x106>
   11236:	470d                	li	a4,3
   11238:	a825                	j	11270 <_ZN20complex_dynamic_type3app17h019d1868e204a024E+0x13c>
   1123a:	6505                	lui	a0,0x1
   1123c:	ed250513          	addi	a0,a0,-302 # ed2 <.Lline_table_start1+0xca7>
   11240:	4585                	li	a1,1
   11242:	4601                	li	a2,0
   11244:	4681                	li	a3,0
   11246:	00000073          	ecall
   1124a:	03214703          	lbu	a4,50(sp)
   1124e:	4509                	li	a0,2
   11250:	00a103a3          	sb	a0,7(sp)
   11254:	00a71e63          	bne	a4,a0,11270 <_ZN20complex_dynamic_type3app17h019d1868e204a024E+0x13c>
   11258:	00198513          	addi	a0,s3,1
   1125c:	05900613          	li	a2,89
   11260:	85ca                	mv	a1,s2
   11262:	0000c097          	auipc	ra,0xc
   11266:	514080e7          	jalr	1300(ra) # 1d776 <memcpy>
   1126a:	00098023          	sb	zero,0(s3)
   1126e:	bf4d                	j	11220 <_ZN20complex_dynamic_type3app17h019d1868e204a024E+0xec>
   11270:	6505                	lui	a0,0x1
   11272:	ed250513          	addi	a0,a0,-302 # ed2 <.Lline_table_start1+0xca7>
   11276:	458d                	li	a1,3
   11278:	4601                	li	a2,0
   1127a:	4681                	li	a3,0
   1127c:	00000073          	ecall
   11280:	00714483          	lbu	s1,7(sp)
   11284:	00198513          	addi	a0,s3,1
   11288:	05900613          	li	a2,89
   1128c:	85ca                	mv	a1,s2
   1128e:	0000c097          	auipc	ra,0xc
   11292:	4e8080e7          	jalr	1256(ra) # 1d776 <memcpy>
   11296:	4509                	li	a0,2
   11298:	00098023          	sb	zero,0(s3)
   1129c:	f6a499e3          	bne	s1,a0,1120e <_ZN20complex_dynamic_type3app17h019d1868e204a024E+0xda>
   112a0:	b741                	j	11220 <_ZN20complex_dynamic_type3app17h019d1868e204a024E+0xec>

000112a2 <_ZN20complex_dynamic_type3app17h04b0b8545ea2f98aE>:
   112a2:	7159                	addi	sp,sp,-112
   112a4:	d686                	sw	ra,108(sp)
   112a6:	d4a2                	sw	s0,104(sp)
   112a8:	d2a6                	sw	s1,100(sp)
   112aa:	d0ca                	sw	s2,96(sp)
   112ac:	cece                	sw	s3,92(sp)
   112ae:	89aa                	mv	s3,a0
   112b0:	4409                	li	s0,2
   112b2:	00810223          	sb	s0,4(sp)
   112b6:	00510493          	addi	s1,sp,5
   112ba:	4649                	li	a2,18
   112bc:	8526                	mv	a0,s1
   112be:	0000c097          	auipc	ra,0xc
   112c2:	4b8080e7          	jalr	1208(ra) # 1d776 <memcpy>
   112c6:	01810913          	addi	s2,sp,24
   112ca:	04400613          	li	a2,68
   112ce:	854a                	mv	a0,s2
   112d0:	4581                	li	a1,0
   112d2:	0000c097          	auipc	ra,0xc
   112d6:	438080e7          	jalr	1080(ra) # 1d70a <memset>
   112da:	8626                	mv	a2,s1
   112dc:	00810ba3          	sb	s0,23(sp)
   112e0:	6509                	lui	a0,0x2
   112e2:	4491                	li	s1,4
   112e4:	4589                	li	a1,2
   112e6:	43250793          	addi	a5,a0,1074 # 2432 <.Lline_table_start1+0x2207>
   112ea:	46c9                	li	a3,18
   112ec:	4711                	li	a4,4
   112ee:	853e                	mv	a0,a5
   112f0:	00000073          	ecall
   112f4:	00851863          	bne	a0,s0,11304 <_ZN20complex_dynamic_type3app17h04b0b8545ea2f98aE+0x62>
   112f8:	4505                	li	a0,1
   112fa:	00a98023          	sb	a0,0(s3)
   112fe:	00b9a223          	sw	a1,4(s3)
   11302:	a0bd                	j	11370 <_ZN20complex_dynamic_type3app17h04b0b8545ea2f98aE+0xce>
   11304:	853e                	mv	a0,a5
   11306:	864a                	mv	a2,s2
   11308:	00910223          	sb	s1,4(sp)
   1130c:	478d                	li	a5,3
   1130e:	45a5                	li	a1,9
   11310:	04400693          	li	a3,68
   11314:	470d                	li	a4,3
   11316:	00000073          	ecall
   1131a:	00851d63          	bne	a0,s0,11334 <_ZN20complex_dynamic_type3app17h04b0b8545ea2f98aE+0x92>
   1131e:	01714703          	lbu	a4,23(sp)
   11322:	4505                	li	a0,1
   11324:	4609                	li	a2,2
   11326:	00a98023          	sb	a0,0(s3)
   1132a:	00b9a223          	sw	a1,4(s3)
   1132e:	02c71963          	bne	a4,a2,11360 <_ZN20complex_dynamic_type3app17h04b0b8545ea2f98aE+0xbe>
   11332:	a83d                	j	11370 <_ZN20complex_dynamic_type3app17h04b0b8545ea2f98aE+0xce>
   11334:	4681                	li	a3,0
   11336:	00f10ba3          	sb	a5,23(sp)
   1133a:	6509                	lui	a0,0x2
   1133c:	4589                	li	a1,2
   1133e:	4625                	li	a2,9
   11340:	4709                	li	a4,2
   11342:	43250513          	addi	a0,a0,1074 # 2432 <.Lline_table_start1+0x2207>
   11346:	07f00793          	li	a5,127
   1134a:	00000073          	ecall
   1134e:	4609                	li	a2,2
   11350:	04a7e563          	bltu	a5,a0,1139a <_ZN20complex_dynamic_type3app17h04b0b8545ea2f98aE+0xf8>
   11354:	4505                	li	a0,1
   11356:	00a98023          	sb	a0,0(s3)
   1135a:	00b9a223          	sw	a1,4(s3)
   1135e:	470d                	li	a4,3
   11360:	6509                	lui	a0,0x2
   11362:	43250513          	addi	a0,a0,1074 # 2432 <.Lline_table_start1+0x2207>
   11366:	45a5                	li	a1,9
   11368:	4601                	li	a2,0
   1136a:	4681                	li	a3,0
   1136c:	00000073          	ecall
   11370:	00414483          	lbu	s1,4(sp)
   11374:	4509                	li	a0,2
   11376:	00a48b63          	beq	s1,a0,1138c <_ZN20complex_dynamic_type3app17h04b0b8545ea2f98aE+0xea>
   1137a:	6509                	lui	a0,0x2
   1137c:	43250513          	addi	a0,a0,1074 # 2432 <.Lline_table_start1+0x2207>
   11380:	4589                	li	a1,2
   11382:	4601                	li	a2,0
   11384:	4681                	li	a3,0
   11386:	8726                	mv	a4,s1
   11388:	00000073          	ecall
   1138c:	50b6                	lw	ra,108(sp)
   1138e:	5426                	lw	s0,104(sp)
   11390:	5496                	lw	s1,100(sp)
   11392:	5906                	lw	s2,96(sp)
   11394:	49f6                	lw	s3,92(sp)
   11396:	6165                	addi	sp,sp,112
   11398:	8082                	ret
   1139a:	00414703          	lbu	a4,4(sp)
   1139e:	00c71463          	bne	a4,a2,113a6 <_ZN20complex_dynamic_type3app17h04b0b8545ea2f98aE+0x104>
   113a2:	470d                	li	a4,3
   113a4:	a825                	j	113dc <_ZN20complex_dynamic_type3app17h04b0b8545ea2f98aE+0x13a>
   113a6:	6509                	lui	a0,0x2
   113a8:	43250513          	addi	a0,a0,1074 # 2432 <.Lline_table_start1+0x2207>
   113ac:	4589                	li	a1,2
   113ae:	4601                	li	a2,0
   113b0:	4681                	li	a3,0
   113b2:	00000073          	ecall
   113b6:	01714703          	lbu	a4,23(sp)
   113ba:	4509                	li	a0,2
   113bc:	00a10223          	sb	a0,4(sp)
   113c0:	00a71e63          	bne	a4,a0,113dc <_ZN20complex_dynamic_type3app17h04b0b8545ea2f98aE+0x13a>
   113c4:	00198513          	addi	a0,s3,1
   113c8:	04400613          	li	a2,68
   113cc:	85ca                	mv	a1,s2
   113ce:	0000c097          	auipc	ra,0xc
   113d2:	3a8080e7          	jalr	936(ra) # 1d776 <memcpy>
   113d6:	00098023          	sb	zero,0(s3)
   113da:	bf4d                	j	1138c <_ZN20complex_dynamic_type3app17h04b0b8545ea2f98aE+0xea>
   113dc:	6509                	lui	a0,0x2
   113de:	43250513          	addi	a0,a0,1074 # 2432 <.Lline_table_start1+0x2207>
   113e2:	45a5                	li	a1,9
   113e4:	4601                	li	a2,0
   113e6:	4681                	li	a3,0
   113e8:	00000073          	ecall
   113ec:	00414483          	lbu	s1,4(sp)
   113f0:	00198513          	addi	a0,s3,1
   113f4:	04400613          	li	a2,68
   113f8:	85ca                	mv	a1,s2
   113fa:	0000c097          	auipc	ra,0xc
   113fe:	37c080e7          	jalr	892(ra) # 1d776 <memcpy>
   11402:	4509                	li	a0,2
   11404:	00098023          	sb	zero,0(s3)
   11408:	f6a499e3          	bne	s1,a0,1137a <_ZN20complex_dynamic_type3app17h04b0b8545ea2f98aE+0xd8>
   1140c:	b741                	j	1138c <_ZN20complex_dynamic_type3app17h04b0b8545ea2f98aE+0xea>

0001140e <_ZN20complex_dynamic_type3app17h05b095cfa75d7887E>:
   1140e:	7119                	addi	sp,sp,-128
   11410:	de86                	sw	ra,124(sp)
   11412:	dca2                	sw	s0,120(sp)
   11414:	daa6                	sw	s1,116(sp)
   11416:	d8ca                	sw	s2,112(sp)
   11418:	d6ce                	sw	s3,108(sp)
   1141a:	89aa                	mv	s3,a0
   1141c:	4409                	li	s0,2
   1141e:	00810423          	sb	s0,8(sp)
   11422:	00910493          	addi	s1,sp,9
   11426:	03400613          	li	a2,52
   1142a:	8526                	mv	a0,s1
   1142c:	0000c097          	auipc	ra,0xc
   11430:	34a080e7          	jalr	842(ra) # 1d776 <memcpy>
   11434:	03e10913          	addi	s2,sp,62
   11438:	02e00613          	li	a2,46
   1143c:	854a                	mv	a0,s2
   1143e:	4581                	li	a1,0
   11440:	0000c097          	auipc	ra,0xc
   11444:	2ca080e7          	jalr	714(ra) # 1d70a <memset>
   11448:	8626                	mv	a2,s1
   1144a:	02810ea3          	sb	s0,61(sp)
   1144e:	4791                	li	a5,4
   11450:	20900513          	li	a0,521
   11454:	4589                	li	a1,2
   11456:	03400693          	li	a3,52
   1145a:	4711                	li	a4,4
   1145c:	00000073          	ecall
   11460:	00851863          	bne	a0,s0,11470 <_ZN20complex_dynamic_type3app17h05b095cfa75d7887E+0x62>
   11464:	4505                	li	a0,1
   11466:	00a98023          	sb	a0,0(s3)
   1146a:	00b9a223          	sw	a1,4(s3)
   1146e:	a0b5                	j	114da <_ZN20complex_dynamic_type3app17h05b095cfa75d7887E+0xcc>
   11470:	864a                	mv	a2,s2
   11472:	00f10423          	sb	a5,8(sp)
   11476:	478d                	li	a5,3
   11478:	20900513          	li	a0,521
   1147c:	45a1                	li	a1,8
   1147e:	02e00693          	li	a3,46
   11482:	470d                	li	a4,3
   11484:	00000073          	ecall
   11488:	00851d63          	bne	a0,s0,114a2 <_ZN20complex_dynamic_type3app17h05b095cfa75d7887E+0x94>
   1148c:	03d14703          	lbu	a4,61(sp)
   11490:	4505                	li	a0,1
   11492:	4609                	li	a2,2
   11494:	00a98023          	sb	a0,0(s3)
   11498:	00b9a223          	sw	a1,4(s3)
   1149c:	02c71863          	bne	a4,a2,114cc <_ZN20complex_dynamic_type3app17h05b095cfa75d7887E+0xbe>
   114a0:	a82d                	j	114da <_ZN20complex_dynamic_type3app17h05b095cfa75d7887E+0xcc>
   114a2:	4681                	li	a3,0
   114a4:	02f10ea3          	sb	a5,61(sp)
   114a8:	20900513          	li	a0,521
   114ac:	4589                	li	a1,2
   114ae:	4621                	li	a2,8
   114b0:	4709                	li	a4,2
   114b2:	07f00793          	li	a5,127
   114b6:	00000073          	ecall
   114ba:	4609                	li	a2,2
   114bc:	04a7e363          	bltu	a5,a0,11502 <_ZN20complex_dynamic_type3app17h05b095cfa75d7887E+0xf4>
   114c0:	4505                	li	a0,1
   114c2:	00a98023          	sb	a0,0(s3)
   114c6:	00b9a223          	sw	a1,4(s3)
   114ca:	470d                	li	a4,3
   114cc:	20900513          	li	a0,521
   114d0:	45a1                	li	a1,8
   114d2:	4601                	li	a2,0
   114d4:	4681                	li	a3,0
   114d6:	00000073          	ecall
   114da:	00814483          	lbu	s1,8(sp)
   114de:	4509                	li	a0,2
   114e0:	00a48a63          	beq	s1,a0,114f4 <_ZN20complex_dynamic_type3app17h05b095cfa75d7887E+0xe6>
   114e4:	20900513          	li	a0,521
   114e8:	4589                	li	a1,2
   114ea:	4601                	li	a2,0
   114ec:	4681                	li	a3,0
   114ee:	8726                	mv	a4,s1
   114f0:	00000073          	ecall
   114f4:	50f6                	lw	ra,124(sp)
   114f6:	5466                	lw	s0,120(sp)
   114f8:	54d6                	lw	s1,116(sp)
   114fa:	5946                	lw	s2,112(sp)
   114fc:	59b6                	lw	s3,108(sp)
   114fe:	6109                	addi	sp,sp,128
   11500:	8082                	ret
   11502:	00814703          	lbu	a4,8(sp)
   11506:	00c71463          	bne	a4,a2,1150e <_ZN20complex_dynamic_type3app17h05b095cfa75d7887E+0x100>
   1150a:	470d                	li	a4,3
   1150c:	a81d                	j	11542 <_ZN20complex_dynamic_type3app17h05b095cfa75d7887E+0x134>
   1150e:	20900513          	li	a0,521
   11512:	4589                	li	a1,2
   11514:	4601                	li	a2,0
   11516:	4681                	li	a3,0
   11518:	00000073          	ecall
   1151c:	03d14703          	lbu	a4,61(sp)
   11520:	4509                	li	a0,2
   11522:	00a10423          	sb	a0,8(sp)
   11526:	00a71e63          	bne	a4,a0,11542 <_ZN20complex_dynamic_type3app17h05b095cfa75d7887E+0x134>
   1152a:	00198513          	addi	a0,s3,1
   1152e:	02e00613          	li	a2,46
   11532:	85ca                	mv	a1,s2
   11534:	0000c097          	auipc	ra,0xc
   11538:	242080e7          	jalr	578(ra) # 1d776 <memcpy>
   1153c:	00098023          	sb	zero,0(s3)
   11540:	bf55                	j	114f4 <_ZN20complex_dynamic_type3app17h05b095cfa75d7887E+0xe6>
   11542:	20900513          	li	a0,521
   11546:	45a1                	li	a1,8
   11548:	4601                	li	a2,0
   1154a:	4681                	li	a3,0
   1154c:	00000073          	ecall
   11550:	00814483          	lbu	s1,8(sp)
   11554:	00198513          	addi	a0,s3,1
   11558:	02e00613          	li	a2,46
   1155c:	85ca                	mv	a1,s2
   1155e:	0000c097          	auipc	ra,0xc
   11562:	218080e7          	jalr	536(ra) # 1d776 <memcpy>
   11566:	4509                	li	a0,2
   11568:	00098023          	sb	zero,0(s3)
   1156c:	f6a49ce3          	bne	s1,a0,114e4 <_ZN20complex_dynamic_type3app17h05b095cfa75d7887E+0xd6>
   11570:	b751                	j	114f4 <_ZN20complex_dynamic_type3app17h05b095cfa75d7887E+0xe6>

00011572 <_ZN20complex_dynamic_type3app17h075c6006afbb5e3aE>:
   11572:	7159                	addi	sp,sp,-112
   11574:	d686                	sw	ra,108(sp)
   11576:	d4a2                	sw	s0,104(sp)
   11578:	d2a6                	sw	s1,100(sp)
   1157a:	d0ca                	sw	s2,96(sp)
   1157c:	cece                	sw	s3,92(sp)
   1157e:	89aa                	mv	s3,a0
   11580:	4409                	li	s0,2
   11582:	008100a3          	sb	s0,1(sp)
   11586:	00210493          	addi	s1,sp,2
   1158a:	04100613          	li	a2,65
   1158e:	8526                	mv	a0,s1
   11590:	0000c097          	auipc	ra,0xc
   11594:	1e6080e7          	jalr	486(ra) # 1d776 <memcpy>
   11598:	04410913          	addi	s2,sp,68
   1159c:	4661                	li	a2,24
   1159e:	854a                	mv	a0,s2
   115a0:	4581                	li	a1,0
   115a2:	0000c097          	auipc	ra,0xc
   115a6:	168080e7          	jalr	360(ra) # 1d70a <memset>
   115aa:	8626                	mv	a2,s1
   115ac:	048101a3          	sb	s0,67(sp)
   115b0:	6509                	lui	a0,0x2
   115b2:	4805                	li	a6,1
   115b4:	4491                	li	s1,4
   115b6:	4585                	li	a1,1
   115b8:	15650793          	addi	a5,a0,342 # 2156 <.Lline_table_start1+0x1f2b>
   115bc:	04100693          	li	a3,65
   115c0:	4711                	li	a4,4
   115c2:	853e                	mv	a0,a5
   115c4:	00000073          	ecall
   115c8:	00851763          	bne	a0,s0,115d6 <_ZN20complex_dynamic_type3app17h075c6006afbb5e3aE+0x64>
   115cc:	01098023          	sb	a6,0(s3)
   115d0:	00b9a223          	sw	a1,4(s3)
   115d4:	a0b5                	j	11640 <_ZN20complex_dynamic_type3app17h075c6006afbb5e3aE+0xce>
   115d6:	853e                	mv	a0,a5
   115d8:	864a                	mv	a2,s2
   115da:	009100a3          	sb	s1,1(sp)
   115de:	478d                	li	a5,3
   115e0:	45a5                	li	a1,9
   115e2:	46e1                	li	a3,24
   115e4:	470d                	li	a4,3
   115e6:	00000073          	ecall
   115ea:	00851d63          	bne	a0,s0,11604 <_ZN20complex_dynamic_type3app17h075c6006afbb5e3aE+0x92>
   115ee:	04314703          	lbu	a4,67(sp)
   115f2:	4505                	li	a0,1
   115f4:	4609                	li	a2,2
   115f6:	00a98023          	sb	a0,0(s3)
   115fa:	00b9a223          	sw	a1,4(s3)
   115fe:	02c71963          	bne	a4,a2,11630 <_ZN20complex_dynamic_type3app17h075c6006afbb5e3aE+0xbe>
   11602:	a83d                	j	11640 <_ZN20complex_dynamic_type3app17h075c6006afbb5e3aE+0xce>
   11604:	4681                	li	a3,0
   11606:	04f101a3          	sb	a5,67(sp)
   1160a:	6509                	lui	a0,0x2
   1160c:	4785                	li	a5,1
   1160e:	4585                	li	a1,1
   11610:	4625                	li	a2,9
   11612:	4709                	li	a4,2
   11614:	15650513          	addi	a0,a0,342 # 2156 <.Lline_table_start1+0x1f2b>
   11618:	07f00493          	li	s1,127
   1161c:	00000073          	ecall
   11620:	4609                	li	a2,2
   11622:	04a4e463          	bltu	s1,a0,1166a <_ZN20complex_dynamic_type3app17h075c6006afbb5e3aE+0xf8>
   11626:	00f98023          	sb	a5,0(s3)
   1162a:	00b9a223          	sw	a1,4(s3)
   1162e:	470d                	li	a4,3
   11630:	6509                	lui	a0,0x2
   11632:	15650513          	addi	a0,a0,342 # 2156 <.Lline_table_start1+0x1f2b>
   11636:	45a5                	li	a1,9
   11638:	4601                	li	a2,0
   1163a:	4681                	li	a3,0
   1163c:	00000073          	ecall
   11640:	00114483          	lbu	s1,1(sp)
   11644:	4509                	li	a0,2
   11646:	00a48b63          	beq	s1,a0,1165c <_ZN20complex_dynamic_type3app17h075c6006afbb5e3aE+0xea>
   1164a:	6509                	lui	a0,0x2
   1164c:	15650513          	addi	a0,a0,342 # 2156 <.Lline_table_start1+0x1f2b>
   11650:	4585                	li	a1,1
   11652:	4601                	li	a2,0
   11654:	4681                	li	a3,0
   11656:	8726                	mv	a4,s1
   11658:	00000073          	ecall
   1165c:	50b6                	lw	ra,108(sp)
   1165e:	5426                	lw	s0,104(sp)
   11660:	5496                	lw	s1,100(sp)
   11662:	5906                	lw	s2,96(sp)
   11664:	49f6                	lw	s3,92(sp)
   11666:	6165                	addi	sp,sp,112
   11668:	8082                	ret
   1166a:	00114703          	lbu	a4,1(sp)
   1166e:	00c71463          	bne	a4,a2,11676 <_ZN20complex_dynamic_type3app17h075c6006afbb5e3aE+0x104>
   11672:	470d                	li	a4,3
   11674:	a81d                	j	116aa <_ZN20complex_dynamic_type3app17h075c6006afbb5e3aE+0x138>
   11676:	6509                	lui	a0,0x2
   11678:	15650513          	addi	a0,a0,342 # 2156 <.Lline_table_start1+0x1f2b>
   1167c:	4585                	li	a1,1
   1167e:	4601                	li	a2,0
   11680:	4681                	li	a3,0
   11682:	00000073          	ecall
   11686:	04314703          	lbu	a4,67(sp)
   1168a:	4509                	li	a0,2
   1168c:	00a100a3          	sb	a0,1(sp)
   11690:	00a71d63          	bne	a4,a0,116aa <_ZN20complex_dynamic_type3app17h075c6006afbb5e3aE+0x138>
   11694:	00198513          	addi	a0,s3,1
   11698:	4661                	li	a2,24
   1169a:	85ca                	mv	a1,s2
   1169c:	0000c097          	auipc	ra,0xc
   116a0:	0da080e7          	jalr	218(ra) # 1d776 <memcpy>
   116a4:	00098023          	sb	zero,0(s3)
   116a8:	bf55                	j	1165c <_ZN20complex_dynamic_type3app17h075c6006afbb5e3aE+0xea>
   116aa:	6509                	lui	a0,0x2
   116ac:	15650513          	addi	a0,a0,342 # 2156 <.Lline_table_start1+0x1f2b>
   116b0:	45a5                	li	a1,9
   116b2:	4601                	li	a2,0
   116b4:	4681                	li	a3,0
   116b6:	00000073          	ecall
   116ba:	00114483          	lbu	s1,1(sp)
   116be:	00198513          	addi	a0,s3,1
   116c2:	4661                	li	a2,24
   116c4:	85ca                	mv	a1,s2
   116c6:	0000c097          	auipc	ra,0xc
   116ca:	0b0080e7          	jalr	176(ra) # 1d776 <memcpy>
   116ce:	4509                	li	a0,2
   116d0:	00098023          	sb	zero,0(s3)
   116d4:	f6a49be3          	bne	s1,a0,1164a <_ZN20complex_dynamic_type3app17h075c6006afbb5e3aE+0xd8>
   116d8:	b751                	j	1165c <_ZN20complex_dynamic_type3app17h075c6006afbb5e3aE+0xea>

000116da <_ZN20complex_dynamic_type3app17h0b9f517a8baee0b5E>:
   116da:	7175                	addi	sp,sp,-144
   116dc:	c706                	sw	ra,140(sp)
   116de:	c522                	sw	s0,136(sp)
   116e0:	c326                	sw	s1,132(sp)
   116e2:	c14a                	sw	s2,128(sp)
   116e4:	dece                	sw	s3,124(sp)
   116e6:	89aa                	mv	s3,a0
   116e8:	4409                	li	s0,2
   116ea:	008103a3          	sb	s0,7(sp)
   116ee:	0024                	addi	s1,sp,8
   116f0:	03200613          	li	a2,50
   116f4:	8526                	mv	a0,s1
   116f6:	0000c097          	auipc	ra,0xc
   116fa:	080080e7          	jalr	128(ra) # 1d776 <memcpy>
   116fe:	03b10913          	addi	s2,sp,59
   11702:	04100613          	li	a2,65
   11706:	854a                	mv	a0,s2
   11708:	4581                	li	a1,0
   1170a:	0000c097          	auipc	ra,0xc
   1170e:	000080e7          	jalr	ra # 1d70a <memset>
   11712:	8626                	mv	a2,s1
   11714:	02810d23          	sb	s0,58(sp)
   11718:	6505                	lui	a0,0x1
   1171a:	4491                	li	s1,4
   1171c:	459d                	li	a1,7
   1171e:	91d50793          	addi	a5,a0,-1763 # 91d <.Lline_table_start1+0x6f2>
   11722:	03200693          	li	a3,50
   11726:	4711                	li	a4,4
   11728:	853e                	mv	a0,a5
   1172a:	00000073          	ecall
   1172e:	00851863          	bne	a0,s0,1173e <_ZN20complex_dynamic_type3app17h0b9f517a8baee0b5E+0x64>
   11732:	4505                	li	a0,1
   11734:	00a98023          	sb	a0,0(s3)
   11738:	00b9a223          	sw	a1,4(s3)
   1173c:	a0bd                	j	117aa <_ZN20complex_dynamic_type3app17h0b9f517a8baee0b5E+0xd0>
   1173e:	853e                	mv	a0,a5
   11740:	864a                	mv	a2,s2
   11742:	009103a3          	sb	s1,7(sp)
   11746:	478d                	li	a5,3
   11748:	4595                	li	a1,5
   1174a:	04100693          	li	a3,65
   1174e:	470d                	li	a4,3
   11750:	00000073          	ecall
   11754:	00851d63          	bne	a0,s0,1176e <_ZN20complex_dynamic_type3app17h0b9f517a8baee0b5E+0x94>
   11758:	03a14703          	lbu	a4,58(sp)
   1175c:	4505                	li	a0,1
   1175e:	4609                	li	a2,2
   11760:	00a98023          	sb	a0,0(s3)
   11764:	00b9a223          	sw	a1,4(s3)
   11768:	02c71963          	bne	a4,a2,1179a <_ZN20complex_dynamic_type3app17h0b9f517a8baee0b5E+0xc0>
   1176c:	a83d                	j	117aa <_ZN20complex_dynamic_type3app17h0b9f517a8baee0b5E+0xd0>
   1176e:	4681                	li	a3,0
   11770:	02f10d23          	sb	a5,58(sp)
   11774:	6505                	lui	a0,0x1
   11776:	459d                	li	a1,7
   11778:	4615                	li	a2,5
   1177a:	4709                	li	a4,2
   1177c:	91d50513          	addi	a0,a0,-1763 # 91d <.Lline_table_start1+0x6f2>
   11780:	07f00793          	li	a5,127
   11784:	00000073          	ecall
   11788:	4609                	li	a2,2
   1178a:	04a7e563          	bltu	a5,a0,117d4 <_ZN20complex_dynamic_type3app17h0b9f517a8baee0b5E+0xfa>
   1178e:	4505                	li	a0,1
   11790:	00a98023          	sb	a0,0(s3)
   11794:	00b9a223          	sw	a1,4(s3)
   11798:	470d                	li	a4,3
   1179a:	6505                	lui	a0,0x1
   1179c:	91d50513          	addi	a0,a0,-1763 # 91d <.Lline_table_start1+0x6f2>
   117a0:	4595                	li	a1,5
   117a2:	4601                	li	a2,0
   117a4:	4681                	li	a3,0
   117a6:	00000073          	ecall
   117aa:	00714483          	lbu	s1,7(sp)
   117ae:	4509                	li	a0,2
   117b0:	00a48b63          	beq	s1,a0,117c6 <_ZN20complex_dynamic_type3app17h0b9f517a8baee0b5E+0xec>
   117b4:	6505                	lui	a0,0x1
   117b6:	91d50513          	addi	a0,a0,-1763 # 91d <.Lline_table_start1+0x6f2>
   117ba:	459d                	li	a1,7
   117bc:	4601                	li	a2,0
   117be:	4681                	li	a3,0
   117c0:	8726                	mv	a4,s1
   117c2:	00000073          	ecall
   117c6:	40ba                	lw	ra,140(sp)
   117c8:	442a                	lw	s0,136(sp)
   117ca:	449a                	lw	s1,132(sp)
   117cc:	490a                	lw	s2,128(sp)
   117ce:	59f6                	lw	s3,124(sp)
   117d0:	6149                	addi	sp,sp,144
   117d2:	8082                	ret
   117d4:	00714703          	lbu	a4,7(sp)
   117d8:	00c71463          	bne	a4,a2,117e0 <_ZN20complex_dynamic_type3app17h0b9f517a8baee0b5E+0x106>
   117dc:	470d                	li	a4,3
   117de:	a825                	j	11816 <_ZN20complex_dynamic_type3app17h0b9f517a8baee0b5E+0x13c>
   117e0:	6505                	lui	a0,0x1
   117e2:	91d50513          	addi	a0,a0,-1763 # 91d <.Lline_table_start1+0x6f2>
   117e6:	459d                	li	a1,7
   117e8:	4601                	li	a2,0
   117ea:	4681                	li	a3,0
   117ec:	00000073          	ecall
   117f0:	03a14703          	lbu	a4,58(sp)
   117f4:	4509                	li	a0,2
   117f6:	00a103a3          	sb	a0,7(sp)
   117fa:	00a71e63          	bne	a4,a0,11816 <_ZN20complex_dynamic_type3app17h0b9f517a8baee0b5E+0x13c>
   117fe:	00198513          	addi	a0,s3,1
   11802:	04100613          	li	a2,65
   11806:	85ca                	mv	a1,s2
   11808:	0000c097          	auipc	ra,0xc
   1180c:	f6e080e7          	jalr	-146(ra) # 1d776 <memcpy>
   11810:	00098023          	sb	zero,0(s3)
   11814:	bf4d                	j	117c6 <_ZN20complex_dynamic_type3app17h0b9f517a8baee0b5E+0xec>
   11816:	6505                	lui	a0,0x1
   11818:	91d50513          	addi	a0,a0,-1763 # 91d <.Lline_table_start1+0x6f2>
   1181c:	4595                	li	a1,5
   1181e:	4601                	li	a2,0
   11820:	4681                	li	a3,0
   11822:	00000073          	ecall
   11826:	00714483          	lbu	s1,7(sp)
   1182a:	00198513          	addi	a0,s3,1
   1182e:	04100613          	li	a2,65
   11832:	85ca                	mv	a1,s2
   11834:	0000c097          	auipc	ra,0xc
   11838:	f42080e7          	jalr	-190(ra) # 1d776 <memcpy>
   1183c:	4509                	li	a0,2
   1183e:	00098023          	sb	zero,0(s3)
   11842:	f6a499e3          	bne	s1,a0,117b4 <_ZN20complex_dynamic_type3app17h0b9f517a8baee0b5E+0xda>
   11846:	b741                	j	117c6 <_ZN20complex_dynamic_type3app17h0b9f517a8baee0b5E+0xec>

00011848 <_ZN20complex_dynamic_type3app17h0cc516f35784d504E>:
   11848:	7119                	addi	sp,sp,-128
   1184a:	de86                	sw	ra,124(sp)
   1184c:	dca2                	sw	s0,120(sp)
   1184e:	daa6                	sw	s1,116(sp)
   11850:	d8ca                	sw	s2,112(sp)
   11852:	d6ce                	sw	s3,108(sp)
   11854:	89aa                	mv	s3,a0
   11856:	4409                	li	s0,2
   11858:	008105a3          	sb	s0,11(sp)
   1185c:	0064                	addi	s1,sp,12
   1185e:	03800613          	li	a2,56
   11862:	8526                	mv	a0,s1
   11864:	0000c097          	auipc	ra,0xc
   11868:	f12080e7          	jalr	-238(ra) # 1d776 <memcpy>
   1186c:	04510913          	addi	s2,sp,69
   11870:	02700613          	li	a2,39
   11874:	854a                	mv	a0,s2
   11876:	4581                	li	a1,0
   11878:	0000c097          	auipc	ra,0xc
   1187c:	e92080e7          	jalr	-366(ra) # 1d70a <memset>
   11880:	8626                	mv	a2,s1
   11882:	04810223          	sb	s0,68(sp)
   11886:	6505                	lui	a0,0x1
   11888:	4491                	li	s1,4
   1188a:	4589                	li	a1,2
   1188c:	e2b50793          	addi	a5,a0,-469 # e2b <.Lline_table_start1+0xc00>
   11890:	03800693          	li	a3,56
   11894:	4711                	li	a4,4
   11896:	853e                	mv	a0,a5
   11898:	00000073          	ecall
   1189c:	00851863          	bne	a0,s0,118ac <_ZN20complex_dynamic_type3app17h0cc516f35784d504E+0x64>
   118a0:	4505                	li	a0,1
   118a2:	00a98023          	sb	a0,0(s3)
   118a6:	00b9a223          	sw	a1,4(s3)
   118aa:	a0bd                	j	11918 <_ZN20complex_dynamic_type3app17h0cc516f35784d504E+0xd0>
   118ac:	853e                	mv	a0,a5
   118ae:	864a                	mv	a2,s2
   118b0:	009105a3          	sb	s1,11(sp)
   118b4:	478d                	li	a5,3
   118b6:	45a1                	li	a1,8
   118b8:	02700693          	li	a3,39
   118bc:	470d                	li	a4,3
   118be:	00000073          	ecall
   118c2:	00851d63          	bne	a0,s0,118dc <_ZN20complex_dynamic_type3app17h0cc516f35784d504E+0x94>
   118c6:	04414703          	lbu	a4,68(sp)
   118ca:	4505                	li	a0,1
   118cc:	4609                	li	a2,2
   118ce:	00a98023          	sb	a0,0(s3)
   118d2:	00b9a223          	sw	a1,4(s3)
   118d6:	02c71963          	bne	a4,a2,11908 <_ZN20complex_dynamic_type3app17h0cc516f35784d504E+0xc0>
   118da:	a83d                	j	11918 <_ZN20complex_dynamic_type3app17h0cc516f35784d504E+0xd0>
   118dc:	4681                	li	a3,0
   118de:	04f10223          	sb	a5,68(sp)
   118e2:	6505                	lui	a0,0x1
   118e4:	4589                	li	a1,2
   118e6:	4621                	li	a2,8
   118e8:	4709                	li	a4,2
   118ea:	e2b50513          	addi	a0,a0,-469 # e2b <.Lline_table_start1+0xc00>
   118ee:	07f00793          	li	a5,127
   118f2:	00000073          	ecall
   118f6:	4609                	li	a2,2
   118f8:	04a7e563          	bltu	a5,a0,11942 <_ZN20complex_dynamic_type3app17h0cc516f35784d504E+0xfa>
   118fc:	4505                	li	a0,1
   118fe:	00a98023          	sb	a0,0(s3)
   11902:	00b9a223          	sw	a1,4(s3)
   11906:	470d                	li	a4,3
   11908:	6505                	lui	a0,0x1
   1190a:	e2b50513          	addi	a0,a0,-469 # e2b <.Lline_table_start1+0xc00>
   1190e:	45a1                	li	a1,8
   11910:	4601                	li	a2,0
   11912:	4681                	li	a3,0
   11914:	00000073          	ecall
   11918:	00b14483          	lbu	s1,11(sp)
   1191c:	4509                	li	a0,2
   1191e:	00a48b63          	beq	s1,a0,11934 <_ZN20complex_dynamic_type3app17h0cc516f35784d504E+0xec>
   11922:	6505                	lui	a0,0x1
   11924:	e2b50513          	addi	a0,a0,-469 # e2b <.Lline_table_start1+0xc00>
   11928:	4589                	li	a1,2
   1192a:	4601                	li	a2,0
   1192c:	4681                	li	a3,0
   1192e:	8726                	mv	a4,s1
   11930:	00000073          	ecall
   11934:	50f6                	lw	ra,124(sp)
   11936:	5466                	lw	s0,120(sp)
   11938:	54d6                	lw	s1,116(sp)
   1193a:	5946                	lw	s2,112(sp)
   1193c:	59b6                	lw	s3,108(sp)
   1193e:	6109                	addi	sp,sp,128
   11940:	8082                	ret
   11942:	00b14703          	lbu	a4,11(sp)
   11946:	00c71463          	bne	a4,a2,1194e <_ZN20complex_dynamic_type3app17h0cc516f35784d504E+0x106>
   1194a:	470d                	li	a4,3
   1194c:	a825                	j	11984 <_ZN20complex_dynamic_type3app17h0cc516f35784d504E+0x13c>
   1194e:	6505                	lui	a0,0x1
   11950:	e2b50513          	addi	a0,a0,-469 # e2b <.Lline_table_start1+0xc00>
   11954:	4589                	li	a1,2
   11956:	4601                	li	a2,0
   11958:	4681                	li	a3,0
   1195a:	00000073          	ecall
   1195e:	04414703          	lbu	a4,68(sp)
   11962:	4509                	li	a0,2
   11964:	00a105a3          	sb	a0,11(sp)
   11968:	00a71e63          	bne	a4,a0,11984 <_ZN20complex_dynamic_type3app17h0cc516f35784d504E+0x13c>
   1196c:	00198513          	addi	a0,s3,1
   11970:	02700613          	li	a2,39
   11974:	85ca                	mv	a1,s2
   11976:	0000c097          	auipc	ra,0xc
   1197a:	e00080e7          	jalr	-512(ra) # 1d776 <memcpy>
   1197e:	00098023          	sb	zero,0(s3)
   11982:	bf4d                	j	11934 <_ZN20complex_dynamic_type3app17h0cc516f35784d504E+0xec>
   11984:	6505                	lui	a0,0x1
   11986:	e2b50513          	addi	a0,a0,-469 # e2b <.Lline_table_start1+0xc00>
   1198a:	45a1                	li	a1,8
   1198c:	4601                	li	a2,0
   1198e:	4681                	li	a3,0
   11990:	00000073          	ecall
   11994:	00b14483          	lbu	s1,11(sp)
   11998:	00198513          	addi	a0,s3,1
   1199c:	02700613          	li	a2,39
   119a0:	85ca                	mv	a1,s2
   119a2:	0000c097          	auipc	ra,0xc
   119a6:	dd4080e7          	jalr	-556(ra) # 1d776 <memcpy>
   119aa:	4509                	li	a0,2
   119ac:	00098023          	sb	zero,0(s3)
   119b0:	f6a499e3          	bne	s1,a0,11922 <_ZN20complex_dynamic_type3app17h0cc516f35784d504E+0xda>
   119b4:	b741                	j	11934 <_ZN20complex_dynamic_type3app17h0cc516f35784d504E+0xec>

000119b6 <_ZN20complex_dynamic_type3app17h133b6ab07a67eb50E>:
   119b6:	7135                	addi	sp,sp,-160
   119b8:	cf06                	sw	ra,156(sp)
   119ba:	cd22                	sw	s0,152(sp)
   119bc:	cb26                	sw	s1,148(sp)
   119be:	c94a                	sw	s2,144(sp)
   119c0:	c74e                	sw	s3,140(sp)
   119c2:	89aa                	mv	s3,a0
   119c4:	4409                	li	s0,2
   119c6:	00810623          	sb	s0,12(sp)
   119ca:	00d10493          	addi	s1,sp,13
   119ce:	466d                	li	a2,27
   119d0:	8526                	mv	a0,s1
   119d2:	0000c097          	auipc	ra,0xc
   119d6:	da4080e7          	jalr	-604(ra) # 1d776 <memcpy>
   119da:	02910913          	addi	s2,sp,41
   119de:	06300613          	li	a2,99
   119e2:	854a                	mv	a0,s2
   119e4:	4581                	li	a1,0
   119e6:	0000c097          	auipc	ra,0xc
   119ea:	d24080e7          	jalr	-732(ra) # 1d70a <memset>
   119ee:	8626                	mv	a2,s1
   119f0:	02810423          	sb	s0,40(sp)
   119f4:	6509                	lui	a0,0x2
   119f6:	4491                	li	s1,4
   119f8:	458d                	li	a1,3
   119fa:	54850793          	addi	a5,a0,1352 # 2548 <.Lline_table_start1+0x231d>
   119fe:	46ed                	li	a3,27
   11a00:	4711                	li	a4,4
   11a02:	853e                	mv	a0,a5
   11a04:	00000073          	ecall
   11a08:	00851863          	bne	a0,s0,11a18 <_ZN20complex_dynamic_type3app17h133b6ab07a67eb50E+0x62>
   11a0c:	4505                	li	a0,1
   11a0e:	00a98023          	sb	a0,0(s3)
   11a12:	00b9a223          	sw	a1,4(s3)
   11a16:	a0bd                	j	11a84 <_ZN20complex_dynamic_type3app17h133b6ab07a67eb50E+0xce>
   11a18:	853e                	mv	a0,a5
   11a1a:	864a                	mv	a2,s2
   11a1c:	00910623          	sb	s1,12(sp)
   11a20:	478d                	li	a5,3
   11a22:	458d                	li	a1,3
   11a24:	06300693          	li	a3,99
   11a28:	470d                	li	a4,3
   11a2a:	00000073          	ecall
   11a2e:	00851d63          	bne	a0,s0,11a48 <_ZN20complex_dynamic_type3app17h133b6ab07a67eb50E+0x92>
   11a32:	02814703          	lbu	a4,40(sp)
   11a36:	4505                	li	a0,1
   11a38:	4609                	li	a2,2
   11a3a:	00a98023          	sb	a0,0(s3)
   11a3e:	00b9a223          	sw	a1,4(s3)
   11a42:	02c71963          	bne	a4,a2,11a74 <_ZN20complex_dynamic_type3app17h133b6ab07a67eb50E+0xbe>
   11a46:	a83d                	j	11a84 <_ZN20complex_dynamic_type3app17h133b6ab07a67eb50E+0xce>
   11a48:	4681                	li	a3,0
   11a4a:	02f10423          	sb	a5,40(sp)
   11a4e:	6509                	lui	a0,0x2
   11a50:	458d                	li	a1,3
   11a52:	460d                	li	a2,3
   11a54:	4709                	li	a4,2
   11a56:	54850513          	addi	a0,a0,1352 # 2548 <.Lline_table_start1+0x231d>
   11a5a:	07f00793          	li	a5,127
   11a5e:	00000073          	ecall
   11a62:	4609                	li	a2,2
   11a64:	04a7e563          	bltu	a5,a0,11aae <_ZN20complex_dynamic_type3app17h133b6ab07a67eb50E+0xf8>
   11a68:	4505                	li	a0,1
   11a6a:	00a98023          	sb	a0,0(s3)
   11a6e:	00b9a223          	sw	a1,4(s3)
   11a72:	470d                	li	a4,3
   11a74:	6509                	lui	a0,0x2
   11a76:	54850513          	addi	a0,a0,1352 # 2548 <.Lline_table_start1+0x231d>
   11a7a:	458d                	li	a1,3
   11a7c:	4601                	li	a2,0
   11a7e:	4681                	li	a3,0
   11a80:	00000073          	ecall
   11a84:	00c14483          	lbu	s1,12(sp)
   11a88:	4509                	li	a0,2
   11a8a:	00a48b63          	beq	s1,a0,11aa0 <_ZN20complex_dynamic_type3app17h133b6ab07a67eb50E+0xea>
   11a8e:	6509                	lui	a0,0x2
   11a90:	54850513          	addi	a0,a0,1352 # 2548 <.Lline_table_start1+0x231d>
   11a94:	458d                	li	a1,3
   11a96:	4601                	li	a2,0
   11a98:	4681                	li	a3,0
   11a9a:	8726                	mv	a4,s1
   11a9c:	00000073          	ecall
   11aa0:	40fa                	lw	ra,156(sp)
   11aa2:	446a                	lw	s0,152(sp)
   11aa4:	44da                	lw	s1,148(sp)
   11aa6:	494a                	lw	s2,144(sp)
   11aa8:	49ba                	lw	s3,140(sp)
   11aaa:	610d                	addi	sp,sp,160
   11aac:	8082                	ret
   11aae:	00c14703          	lbu	a4,12(sp)
   11ab2:	00c71463          	bne	a4,a2,11aba <_ZN20complex_dynamic_type3app17h133b6ab07a67eb50E+0x104>
   11ab6:	470d                	li	a4,3
   11ab8:	a825                	j	11af0 <_ZN20complex_dynamic_type3app17h133b6ab07a67eb50E+0x13a>
   11aba:	6509                	lui	a0,0x2
   11abc:	54850513          	addi	a0,a0,1352 # 2548 <.Lline_table_start1+0x231d>
   11ac0:	458d                	li	a1,3
   11ac2:	4601                	li	a2,0
   11ac4:	4681                	li	a3,0
   11ac6:	00000073          	ecall
   11aca:	02814703          	lbu	a4,40(sp)
   11ace:	4509                	li	a0,2
   11ad0:	00a10623          	sb	a0,12(sp)
   11ad4:	00a71e63          	bne	a4,a0,11af0 <_ZN20complex_dynamic_type3app17h133b6ab07a67eb50E+0x13a>
   11ad8:	00198513          	addi	a0,s3,1
   11adc:	06300613          	li	a2,99
   11ae0:	85ca                	mv	a1,s2
   11ae2:	0000c097          	auipc	ra,0xc
   11ae6:	c94080e7          	jalr	-876(ra) # 1d776 <memcpy>
   11aea:	00098023          	sb	zero,0(s3)
   11aee:	bf4d                	j	11aa0 <_ZN20complex_dynamic_type3app17h133b6ab07a67eb50E+0xea>
   11af0:	6509                	lui	a0,0x2
   11af2:	54850513          	addi	a0,a0,1352 # 2548 <.Lline_table_start1+0x231d>
   11af6:	458d                	li	a1,3
   11af8:	4601                	li	a2,0
   11afa:	4681                	li	a3,0
   11afc:	00000073          	ecall
   11b00:	00c14483          	lbu	s1,12(sp)
   11b04:	00198513          	addi	a0,s3,1
   11b08:	06300613          	li	a2,99
   11b0c:	85ca                	mv	a1,s2
   11b0e:	0000c097          	auipc	ra,0xc
   11b12:	c68080e7          	jalr	-920(ra) # 1d776 <memcpy>
   11b16:	4509                	li	a0,2
   11b18:	00098023          	sb	zero,0(s3)
   11b1c:	f6a499e3          	bne	s1,a0,11a8e <_ZN20complex_dynamic_type3app17h133b6ab07a67eb50E+0xd8>
   11b20:	b741                	j	11aa0 <_ZN20complex_dynamic_type3app17h133b6ab07a67eb50E+0xea>

00011b22 <_ZN20complex_dynamic_type3app17h1720a3021873b6f8E>:
   11b22:	7159                	addi	sp,sp,-112
   11b24:	d686                	sw	ra,108(sp)
   11b26:	d4a2                	sw	s0,104(sp)
   11b28:	d2a6                	sw	s1,100(sp)
   11b2a:	d0ca                	sw	s2,96(sp)
   11b2c:	cece                	sw	s3,92(sp)
   11b2e:	89aa                	mv	s3,a0
   11b30:	4409                	li	s0,2
   11b32:	008103a3          	sb	s0,7(sp)
   11b36:	0024                	addi	s1,sp,8
   11b38:	02400613          	li	a2,36
   11b3c:	8526                	mv	a0,s1
   11b3e:	0000c097          	auipc	ra,0xc
   11b42:	c38080e7          	jalr	-968(ra) # 1d776 <memcpy>
   11b46:	02d10913          	addi	s2,sp,45
   11b4a:	02f00613          	li	a2,47
   11b4e:	854a                	mv	a0,s2
   11b50:	4581                	li	a1,0
   11b52:	0000c097          	auipc	ra,0xc
   11b56:	bb8080e7          	jalr	-1096(ra) # 1d70a <memset>
   11b5a:	8626                	mv	a2,s1
   11b5c:	02810623          	sb	s0,44(sp)
   11b60:	6505                	lui	a0,0x1
   11b62:	4491                	li	s1,4
   11b64:	4599                	li	a1,6
   11b66:	27350793          	addi	a5,a0,627 # 1273 <.Lline_table_start1+0x1048>
   11b6a:	02400693          	li	a3,36
   11b6e:	4711                	li	a4,4
   11b70:	853e                	mv	a0,a5
   11b72:	00000073          	ecall
   11b76:	00851863          	bne	a0,s0,11b86 <_ZN20complex_dynamic_type3app17h1720a3021873b6f8E+0x64>
   11b7a:	4505                	li	a0,1
   11b7c:	00a98023          	sb	a0,0(s3)
   11b80:	00b9a223          	sw	a1,4(s3)
   11b84:	a0bd                	j	11bf2 <_ZN20complex_dynamic_type3app17h1720a3021873b6f8E+0xd0>
   11b86:	853e                	mv	a0,a5
   11b88:	864a                	mv	a2,s2
   11b8a:	009103a3          	sb	s1,7(sp)
   11b8e:	478d                	li	a5,3
   11b90:	45a5                	li	a1,9
   11b92:	02f00693          	li	a3,47
   11b96:	470d                	li	a4,3
   11b98:	00000073          	ecall
   11b9c:	00851d63          	bne	a0,s0,11bb6 <_ZN20complex_dynamic_type3app17h1720a3021873b6f8E+0x94>
   11ba0:	02c14703          	lbu	a4,44(sp)
   11ba4:	4505                	li	a0,1
   11ba6:	4609                	li	a2,2
   11ba8:	00a98023          	sb	a0,0(s3)
   11bac:	00b9a223          	sw	a1,4(s3)
   11bb0:	02c71963          	bne	a4,a2,11be2 <_ZN20complex_dynamic_type3app17h1720a3021873b6f8E+0xc0>
   11bb4:	a83d                	j	11bf2 <_ZN20complex_dynamic_type3app17h1720a3021873b6f8E+0xd0>
   11bb6:	4681                	li	a3,0
   11bb8:	02f10623          	sb	a5,44(sp)
   11bbc:	6505                	lui	a0,0x1
   11bbe:	4599                	li	a1,6
   11bc0:	4625                	li	a2,9
   11bc2:	4709                	li	a4,2
   11bc4:	27350513          	addi	a0,a0,627 # 1273 <.Lline_table_start1+0x1048>
   11bc8:	07f00793          	li	a5,127
   11bcc:	00000073          	ecall
   11bd0:	4609                	li	a2,2
   11bd2:	04a7e563          	bltu	a5,a0,11c1c <_ZN20complex_dynamic_type3app17h1720a3021873b6f8E+0xfa>
   11bd6:	4505                	li	a0,1
   11bd8:	00a98023          	sb	a0,0(s3)
   11bdc:	00b9a223          	sw	a1,4(s3)
   11be0:	470d                	li	a4,3
   11be2:	6505                	lui	a0,0x1
   11be4:	27350513          	addi	a0,a0,627 # 1273 <.Lline_table_start1+0x1048>
   11be8:	45a5                	li	a1,9
   11bea:	4601                	li	a2,0
   11bec:	4681                	li	a3,0
   11bee:	00000073          	ecall
   11bf2:	00714483          	lbu	s1,7(sp)
   11bf6:	4509                	li	a0,2
   11bf8:	00a48b63          	beq	s1,a0,11c0e <_ZN20complex_dynamic_type3app17h1720a3021873b6f8E+0xec>
   11bfc:	6505                	lui	a0,0x1
   11bfe:	27350513          	addi	a0,a0,627 # 1273 <.Lline_table_start1+0x1048>
   11c02:	4599                	li	a1,6
   11c04:	4601                	li	a2,0
   11c06:	4681                	li	a3,0
   11c08:	8726                	mv	a4,s1
   11c0a:	00000073          	ecall
   11c0e:	50b6                	lw	ra,108(sp)
   11c10:	5426                	lw	s0,104(sp)
   11c12:	5496                	lw	s1,100(sp)
   11c14:	5906                	lw	s2,96(sp)
   11c16:	49f6                	lw	s3,92(sp)
   11c18:	6165                	addi	sp,sp,112
   11c1a:	8082                	ret
   11c1c:	00714703          	lbu	a4,7(sp)
   11c20:	00c71463          	bne	a4,a2,11c28 <_ZN20complex_dynamic_type3app17h1720a3021873b6f8E+0x106>
   11c24:	470d                	li	a4,3
   11c26:	a825                	j	11c5e <_ZN20complex_dynamic_type3app17h1720a3021873b6f8E+0x13c>
   11c28:	6505                	lui	a0,0x1
   11c2a:	27350513          	addi	a0,a0,627 # 1273 <.Lline_table_start1+0x1048>
   11c2e:	4599                	li	a1,6
   11c30:	4601                	li	a2,0
   11c32:	4681                	li	a3,0
   11c34:	00000073          	ecall
   11c38:	02c14703          	lbu	a4,44(sp)
   11c3c:	4509                	li	a0,2
   11c3e:	00a103a3          	sb	a0,7(sp)
   11c42:	00a71e63          	bne	a4,a0,11c5e <_ZN20complex_dynamic_type3app17h1720a3021873b6f8E+0x13c>
   11c46:	00198513          	addi	a0,s3,1
   11c4a:	02f00613          	li	a2,47
   11c4e:	85ca                	mv	a1,s2
   11c50:	0000c097          	auipc	ra,0xc
   11c54:	b26080e7          	jalr	-1242(ra) # 1d776 <memcpy>
   11c58:	00098023          	sb	zero,0(s3)
   11c5c:	bf4d                	j	11c0e <_ZN20complex_dynamic_type3app17h1720a3021873b6f8E+0xec>
   11c5e:	6505                	lui	a0,0x1
   11c60:	27350513          	addi	a0,a0,627 # 1273 <.Lline_table_start1+0x1048>
   11c64:	45a5                	li	a1,9
   11c66:	4601                	li	a2,0
   11c68:	4681                	li	a3,0
   11c6a:	00000073          	ecall
   11c6e:	00714483          	lbu	s1,7(sp)
   11c72:	00198513          	addi	a0,s3,1
   11c76:	02f00613          	li	a2,47
   11c7a:	85ca                	mv	a1,s2
   11c7c:	0000c097          	auipc	ra,0xc
   11c80:	afa080e7          	jalr	-1286(ra) # 1d776 <memcpy>
   11c84:	4509                	li	a0,2
   11c86:	00098023          	sb	zero,0(s3)
   11c8a:	f6a499e3          	bne	s1,a0,11bfc <_ZN20complex_dynamic_type3app17h1720a3021873b6f8E+0xda>
   11c8e:	b741                	j	11c0e <_ZN20complex_dynamic_type3app17h1720a3021873b6f8E+0xec>

00011c90 <_ZN20complex_dynamic_type3app17h18a839ecbfb1af55E>:
   11c90:	7159                	addi	sp,sp,-112
   11c92:	d686                	sw	ra,108(sp)
   11c94:	d4a2                	sw	s0,104(sp)
   11c96:	d2a6                	sw	s1,100(sp)
   11c98:	d0ca                	sw	s2,96(sp)
   11c9a:	cece                	sw	s3,92(sp)
   11c9c:	89aa                	mv	s3,a0
   11c9e:	4409                	li	s0,2
   11ca0:	008103a3          	sb	s0,7(sp)
   11ca4:	0024                	addi	s1,sp,8
   11ca6:	02c00613          	li	a2,44
   11caa:	8526                	mv	a0,s1
   11cac:	0000c097          	auipc	ra,0xc
   11cb0:	aca080e7          	jalr	-1334(ra) # 1d776 <memcpy>
   11cb4:	03510913          	addi	s2,sp,53
   11cb8:	02700613          	li	a2,39
   11cbc:	854a                	mv	a0,s2
   11cbe:	4581                	li	a1,0
   11cc0:	0000c097          	auipc	ra,0xc
   11cc4:	a4a080e7          	jalr	-1462(ra) # 1d70a <memset>
   11cc8:	8626                	mv	a2,s1
   11cca:	02810a23          	sb	s0,52(sp)
   11cce:	6505                	lui	a0,0x1
   11cd0:	4491                	li	s1,4
   11cd2:	4591                	li	a1,4
   11cd4:	1b550793          	addi	a5,a0,437 # 11b5 <.Lline_table_start1+0xf8a>
   11cd8:	02c00693          	li	a3,44
   11cdc:	4711                	li	a4,4
   11cde:	853e                	mv	a0,a5
   11ce0:	00000073          	ecall
   11ce4:	00851863          	bne	a0,s0,11cf4 <_ZN20complex_dynamic_type3app17h18a839ecbfb1af55E+0x64>
   11ce8:	4505                	li	a0,1
   11cea:	00a98023          	sb	a0,0(s3)
   11cee:	00b9a223          	sw	a1,4(s3)
   11cf2:	a0bd                	j	11d60 <_ZN20complex_dynamic_type3app17h18a839ecbfb1af55E+0xd0>
   11cf4:	853e                	mv	a0,a5
   11cf6:	864a                	mv	a2,s2
   11cf8:	009103a3          	sb	s1,7(sp)
   11cfc:	478d                	li	a5,3
   11cfe:	458d                	li	a1,3
   11d00:	02700693          	li	a3,39
   11d04:	470d                	li	a4,3
   11d06:	00000073          	ecall
   11d0a:	00851d63          	bne	a0,s0,11d24 <_ZN20complex_dynamic_type3app17h18a839ecbfb1af55E+0x94>
   11d0e:	03414703          	lbu	a4,52(sp)
   11d12:	4505                	li	a0,1
   11d14:	4609                	li	a2,2
   11d16:	00a98023          	sb	a0,0(s3)
   11d1a:	00b9a223          	sw	a1,4(s3)
   11d1e:	02c71963          	bne	a4,a2,11d50 <_ZN20complex_dynamic_type3app17h18a839ecbfb1af55E+0xc0>
   11d22:	a83d                	j	11d60 <_ZN20complex_dynamic_type3app17h18a839ecbfb1af55E+0xd0>
   11d24:	4681                	li	a3,0
   11d26:	02f10a23          	sb	a5,52(sp)
   11d2a:	6505                	lui	a0,0x1
   11d2c:	4591                	li	a1,4
   11d2e:	460d                	li	a2,3
   11d30:	4709                	li	a4,2
   11d32:	1b550513          	addi	a0,a0,437 # 11b5 <.Lline_table_start1+0xf8a>
   11d36:	07f00793          	li	a5,127
   11d3a:	00000073          	ecall
   11d3e:	4609                	li	a2,2
   11d40:	04a7e563          	bltu	a5,a0,11d8a <_ZN20complex_dynamic_type3app17h18a839ecbfb1af55E+0xfa>
   11d44:	4505                	li	a0,1
   11d46:	00a98023          	sb	a0,0(s3)
   11d4a:	00b9a223          	sw	a1,4(s3)
   11d4e:	470d                	li	a4,3
   11d50:	6505                	lui	a0,0x1
   11d52:	1b550513          	addi	a0,a0,437 # 11b5 <.Lline_table_start1+0xf8a>
   11d56:	458d                	li	a1,3
   11d58:	4601                	li	a2,0
   11d5a:	4681                	li	a3,0
   11d5c:	00000073          	ecall
   11d60:	00714483          	lbu	s1,7(sp)
   11d64:	4509                	li	a0,2
   11d66:	00a48b63          	beq	s1,a0,11d7c <_ZN20complex_dynamic_type3app17h18a839ecbfb1af55E+0xec>
   11d6a:	6505                	lui	a0,0x1
   11d6c:	1b550513          	addi	a0,a0,437 # 11b5 <.Lline_table_start1+0xf8a>
   11d70:	4591                	li	a1,4
   11d72:	4601                	li	a2,0
   11d74:	4681                	li	a3,0
   11d76:	8726                	mv	a4,s1
   11d78:	00000073          	ecall
   11d7c:	50b6                	lw	ra,108(sp)
   11d7e:	5426                	lw	s0,104(sp)
   11d80:	5496                	lw	s1,100(sp)
   11d82:	5906                	lw	s2,96(sp)
   11d84:	49f6                	lw	s3,92(sp)
   11d86:	6165                	addi	sp,sp,112
   11d88:	8082                	ret
   11d8a:	00714703          	lbu	a4,7(sp)
   11d8e:	00c71463          	bne	a4,a2,11d96 <_ZN20complex_dynamic_type3app17h18a839ecbfb1af55E+0x106>
   11d92:	470d                	li	a4,3
   11d94:	a825                	j	11dcc <_ZN20complex_dynamic_type3app17h18a839ecbfb1af55E+0x13c>
   11d96:	6505                	lui	a0,0x1
   11d98:	1b550513          	addi	a0,a0,437 # 11b5 <.Lline_table_start1+0xf8a>
   11d9c:	4591                	li	a1,4
   11d9e:	4601                	li	a2,0
   11da0:	4681                	li	a3,0
   11da2:	00000073          	ecall
   11da6:	03414703          	lbu	a4,52(sp)
   11daa:	4509                	li	a0,2
   11dac:	00a103a3          	sb	a0,7(sp)
   11db0:	00a71e63          	bne	a4,a0,11dcc <_ZN20complex_dynamic_type3app17h18a839ecbfb1af55E+0x13c>
   11db4:	00198513          	addi	a0,s3,1
   11db8:	02700613          	li	a2,39
   11dbc:	85ca                	mv	a1,s2
   11dbe:	0000c097          	auipc	ra,0xc
   11dc2:	9b8080e7          	jalr	-1608(ra) # 1d776 <memcpy>
   11dc6:	00098023          	sb	zero,0(s3)
   11dca:	bf4d                	j	11d7c <_ZN20complex_dynamic_type3app17h18a839ecbfb1af55E+0xec>
   11dcc:	6505                	lui	a0,0x1
   11dce:	1b550513          	addi	a0,a0,437 # 11b5 <.Lline_table_start1+0xf8a>
   11dd2:	458d                	li	a1,3
   11dd4:	4601                	li	a2,0
   11dd6:	4681                	li	a3,0
   11dd8:	00000073          	ecall
   11ddc:	00714483          	lbu	s1,7(sp)
   11de0:	00198513          	addi	a0,s3,1
   11de4:	02700613          	li	a2,39
   11de8:	85ca                	mv	a1,s2
   11dea:	0000c097          	auipc	ra,0xc
   11dee:	98c080e7          	jalr	-1652(ra) # 1d776 <memcpy>
   11df2:	4509                	li	a0,2
   11df4:	00098023          	sb	zero,0(s3)
   11df8:	f6a499e3          	bne	s1,a0,11d6a <_ZN20complex_dynamic_type3app17h18a839ecbfb1af55E+0xda>
   11dfc:	b741                	j	11d7c <_ZN20complex_dynamic_type3app17h18a839ecbfb1af55E+0xec>

00011dfe <_ZN20complex_dynamic_type3app17h18db4e726e5979c4E>:
   11dfe:	715d                	addi	sp,sp,-80
   11e00:	c686                	sw	ra,76(sp)
   11e02:	c4a2                	sw	s0,72(sp)
   11e04:	c2a6                	sw	s1,68(sp)
   11e06:	c0ca                	sw	s2,64(sp)
   11e08:	de4e                	sw	s3,60(sp)
   11e0a:	89aa                	mv	s3,a0
   11e0c:	4409                	li	s0,2
   11e0e:	008102a3          	sb	s0,5(sp)
   11e12:	00610493          	addi	s1,sp,6
   11e16:	4669                	li	a2,26
   11e18:	8526                	mv	a0,s1
   11e1a:	0000c097          	auipc	ra,0xc
   11e1e:	95c080e7          	jalr	-1700(ra) # 1d776 <memcpy>
   11e22:	02110913          	addi	s2,sp,33
   11e26:	466d                	li	a2,27
   11e28:	854a                	mv	a0,s2
   11e2a:	4581                	li	a1,0
   11e2c:	0000c097          	auipc	ra,0xc
   11e30:	8de080e7          	jalr	-1826(ra) # 1d70a <memset>
   11e34:	8626                	mv	a2,s1
   11e36:	02810023          	sb	s0,32(sp)
   11e3a:	6509                	lui	a0,0x2
   11e3c:	4491                	li	s1,4
   11e3e:	4595                	li	a1,5
   11e40:	cce50793          	addi	a5,a0,-818 # 1cce <.Lline_table_start1+0x1aa3>
   11e44:	46e9                	li	a3,26
   11e46:	4711                	li	a4,4
   11e48:	853e                	mv	a0,a5
   11e4a:	00000073          	ecall
   11e4e:	00851863          	bne	a0,s0,11e5e <_ZN20complex_dynamic_type3app17h18db4e726e5979c4E+0x60>
   11e52:	4505                	li	a0,1
   11e54:	00a98023          	sb	a0,0(s3)
   11e58:	00b9a223          	sw	a1,4(s3)
   11e5c:	a0b5                	j	11ec8 <_ZN20complex_dynamic_type3app17h18db4e726e5979c4E+0xca>
   11e5e:	853e                	mv	a0,a5
   11e60:	864a                	mv	a2,s2
   11e62:	009102a3          	sb	s1,5(sp)
   11e66:	478d                	li	a5,3
   11e68:	4589                	li	a1,2
   11e6a:	46ed                	li	a3,27
   11e6c:	470d                	li	a4,3
   11e6e:	00000073          	ecall
   11e72:	00851d63          	bne	a0,s0,11e8c <_ZN20complex_dynamic_type3app17h18db4e726e5979c4E+0x8e>
   11e76:	02014703          	lbu	a4,32(sp)
   11e7a:	4505                	li	a0,1
   11e7c:	4609                	li	a2,2
   11e7e:	00a98023          	sb	a0,0(s3)
   11e82:	00b9a223          	sw	a1,4(s3)
   11e86:	02c71963          	bne	a4,a2,11eb8 <_ZN20complex_dynamic_type3app17h18db4e726e5979c4E+0xba>
   11e8a:	a83d                	j	11ec8 <_ZN20complex_dynamic_type3app17h18db4e726e5979c4E+0xca>
   11e8c:	4681                	li	a3,0
   11e8e:	02f10023          	sb	a5,32(sp)
   11e92:	6509                	lui	a0,0x2
   11e94:	4595                	li	a1,5
   11e96:	4609                	li	a2,2
   11e98:	4709                	li	a4,2
   11e9a:	cce50513          	addi	a0,a0,-818 # 1cce <.Lline_table_start1+0x1aa3>
   11e9e:	07f00793          	li	a5,127
   11ea2:	00000073          	ecall
   11ea6:	4609                	li	a2,2
   11ea8:	04a7e563          	bltu	a5,a0,11ef2 <_ZN20complex_dynamic_type3app17h18db4e726e5979c4E+0xf4>
   11eac:	4505                	li	a0,1
   11eae:	00a98023          	sb	a0,0(s3)
   11eb2:	00b9a223          	sw	a1,4(s3)
   11eb6:	470d                	li	a4,3
   11eb8:	6509                	lui	a0,0x2
   11eba:	cce50513          	addi	a0,a0,-818 # 1cce <.Lline_table_start1+0x1aa3>
   11ebe:	4589                	li	a1,2
   11ec0:	4601                	li	a2,0
   11ec2:	4681                	li	a3,0
   11ec4:	00000073          	ecall
   11ec8:	00514483          	lbu	s1,5(sp)
   11ecc:	4509                	li	a0,2
   11ece:	00a48b63          	beq	s1,a0,11ee4 <_ZN20complex_dynamic_type3app17h18db4e726e5979c4E+0xe6>
   11ed2:	6509                	lui	a0,0x2
   11ed4:	cce50513          	addi	a0,a0,-818 # 1cce <.Lline_table_start1+0x1aa3>
   11ed8:	4595                	li	a1,5
   11eda:	4601                	li	a2,0
   11edc:	4681                	li	a3,0
   11ede:	8726                	mv	a4,s1
   11ee0:	00000073          	ecall
   11ee4:	40b6                	lw	ra,76(sp)
   11ee6:	4426                	lw	s0,72(sp)
   11ee8:	4496                	lw	s1,68(sp)
   11eea:	4906                	lw	s2,64(sp)
   11eec:	59f2                	lw	s3,60(sp)
   11eee:	6161                	addi	sp,sp,80
   11ef0:	8082                	ret
   11ef2:	00514703          	lbu	a4,5(sp)
   11ef6:	00c71463          	bne	a4,a2,11efe <_ZN20complex_dynamic_type3app17h18db4e726e5979c4E+0x100>
   11efa:	470d                	li	a4,3
   11efc:	a81d                	j	11f32 <_ZN20complex_dynamic_type3app17h18db4e726e5979c4E+0x134>
   11efe:	6509                	lui	a0,0x2
   11f00:	cce50513          	addi	a0,a0,-818 # 1cce <.Lline_table_start1+0x1aa3>
   11f04:	4595                	li	a1,5
   11f06:	4601                	li	a2,0
   11f08:	4681                	li	a3,0
   11f0a:	00000073          	ecall
   11f0e:	02014703          	lbu	a4,32(sp)
   11f12:	4509                	li	a0,2
   11f14:	00a102a3          	sb	a0,5(sp)
   11f18:	00a71d63          	bne	a4,a0,11f32 <_ZN20complex_dynamic_type3app17h18db4e726e5979c4E+0x134>
   11f1c:	00198513          	addi	a0,s3,1
   11f20:	466d                	li	a2,27
   11f22:	85ca                	mv	a1,s2
   11f24:	0000c097          	auipc	ra,0xc
   11f28:	852080e7          	jalr	-1966(ra) # 1d776 <memcpy>
   11f2c:	00098023          	sb	zero,0(s3)
   11f30:	bf55                	j	11ee4 <_ZN20complex_dynamic_type3app17h18db4e726e5979c4E+0xe6>
   11f32:	4601                	li	a2,0
   11f34:	4681                	li	a3,0
   11f36:	6509                	lui	a0,0x2
   11f38:	cce50513          	addi	a0,a0,-818 # 1cce <.Lline_table_start1+0x1aa3>
   11f3c:	4589                	li	a1,2
   11f3e:	00000073          	ecall
   11f42:	00514483          	lbu	s1,5(sp)
   11f46:	4409                	li	s0,2
   11f48:	00198513          	addi	a0,s3,1
   11f4c:	466d                	li	a2,27
   11f4e:	85ca                	mv	a1,s2
   11f50:	0000c097          	auipc	ra,0xc
   11f54:	826080e7          	jalr	-2010(ra) # 1d776 <memcpy>
   11f58:	00098023          	sb	zero,0(s3)
   11f5c:	f6849be3          	bne	s1,s0,11ed2 <_ZN20complex_dynamic_type3app17h18db4e726e5979c4E+0xd4>
   11f60:	b751                	j	11ee4 <_ZN20complex_dynamic_type3app17h18db4e726e5979c4E+0xe6>

00011f62 <_ZN20complex_dynamic_type3app17h1921650f20508b28E>:
   11f62:	711d                	addi	sp,sp,-96
   11f64:	ce86                	sw	ra,92(sp)
   11f66:	cca2                	sw	s0,88(sp)
   11f68:	caa6                	sw	s1,84(sp)
   11f6a:	c8ca                	sw	s2,80(sp)
   11f6c:	c6ce                	sw	s3,76(sp)
   11f6e:	89aa                	mv	s3,a0
   11f70:	4409                	li	s0,2
   11f72:	008102a3          	sb	s0,5(sp)
   11f76:	00610493          	addi	s1,sp,6
   11f7a:	03600613          	li	a2,54
   11f7e:	8526                	mv	a0,s1
   11f80:	0000b097          	auipc	ra,0xb
   11f84:	7f6080e7          	jalr	2038(ra) # 1d776 <memcpy>
   11f88:	03d10913          	addi	s2,sp,61
   11f8c:	463d                	li	a2,15
   11f8e:	854a                	mv	a0,s2
   11f90:	4581                	li	a1,0
   11f92:	0000b097          	auipc	ra,0xb
   11f96:	778080e7          	jalr	1912(ra) # 1d70a <memset>
   11f9a:	8626                	mv	a2,s1
   11f9c:	02810e23          	sb	s0,60(sp)
   11fa0:	4791                	li	a5,4
   11fa2:	65300513          	li	a0,1619
   11fa6:	4595                	li	a1,5
   11fa8:	03600693          	li	a3,54
   11fac:	4711                	li	a4,4
   11fae:	00000073          	ecall
   11fb2:	00851863          	bne	a0,s0,11fc2 <_ZN20complex_dynamic_type3app17h1921650f20508b28E+0x60>
   11fb6:	4505                	li	a0,1
   11fb8:	00a98023          	sb	a0,0(s3)
   11fbc:	00b9a223          	sw	a1,4(s3)
   11fc0:	a0ad                	j	1202a <_ZN20complex_dynamic_type3app17h1921650f20508b28E+0xc8>
   11fc2:	864a                	mv	a2,s2
   11fc4:	00f102a3          	sb	a5,5(sp)
   11fc8:	478d                	li	a5,3
   11fca:	65300513          	li	a0,1619
   11fce:	458d                	li	a1,3
   11fd0:	46bd                	li	a3,15
   11fd2:	470d                	li	a4,3
   11fd4:	00000073          	ecall
   11fd8:	00851d63          	bne	a0,s0,11ff2 <_ZN20complex_dynamic_type3app17h1921650f20508b28E+0x90>
   11fdc:	03c14703          	lbu	a4,60(sp)
   11fe0:	4505                	li	a0,1
   11fe2:	4609                	li	a2,2
   11fe4:	00a98023          	sb	a0,0(s3)
   11fe8:	00b9a223          	sw	a1,4(s3)
   11fec:	02c71863          	bne	a4,a2,1201c <_ZN20complex_dynamic_type3app17h1921650f20508b28E+0xba>
   11ff0:	a82d                	j	1202a <_ZN20complex_dynamic_type3app17h1921650f20508b28E+0xc8>
   11ff2:	4681                	li	a3,0
   11ff4:	02f10e23          	sb	a5,60(sp)
   11ff8:	65300513          	li	a0,1619
   11ffc:	4595                	li	a1,5
   11ffe:	460d                	li	a2,3
   12000:	4709                	li	a4,2
   12002:	07f00793          	li	a5,127
   12006:	00000073          	ecall
   1200a:	4609                	li	a2,2
   1200c:	04a7e363          	bltu	a5,a0,12052 <_ZN20complex_dynamic_type3app17h1921650f20508b28E+0xf0>
   12010:	4505                	li	a0,1
   12012:	00a98023          	sb	a0,0(s3)
   12016:	00b9a223          	sw	a1,4(s3)
   1201a:	470d                	li	a4,3
   1201c:	65300513          	li	a0,1619
   12020:	458d                	li	a1,3
   12022:	4601                	li	a2,0
   12024:	4681                	li	a3,0
   12026:	00000073          	ecall
   1202a:	00514483          	lbu	s1,5(sp)
   1202e:	4509                	li	a0,2
   12030:	00a48a63          	beq	s1,a0,12044 <_ZN20complex_dynamic_type3app17h1921650f20508b28E+0xe2>
   12034:	65300513          	li	a0,1619
   12038:	4595                	li	a1,5
   1203a:	4601                	li	a2,0
   1203c:	4681                	li	a3,0
   1203e:	8726                	mv	a4,s1
   12040:	00000073          	ecall
   12044:	40f6                	lw	ra,92(sp)
   12046:	4466                	lw	s0,88(sp)
   12048:	44d6                	lw	s1,84(sp)
   1204a:	4946                	lw	s2,80(sp)
   1204c:	49b6                	lw	s3,76(sp)
   1204e:	6125                	addi	sp,sp,96
   12050:	8082                	ret
   12052:	00514703          	lbu	a4,5(sp)
   12056:	00c71463          	bne	a4,a2,1205e <_ZN20complex_dynamic_type3app17h1921650f20508b28E+0xfc>
   1205a:	470d                	li	a4,3
   1205c:	a815                	j	12090 <_ZN20complex_dynamic_type3app17h1921650f20508b28E+0x12e>
   1205e:	65300513          	li	a0,1619
   12062:	4595                	li	a1,5
   12064:	4601                	li	a2,0
   12066:	4681                	li	a3,0
   12068:	00000073          	ecall
   1206c:	03c14703          	lbu	a4,60(sp)
   12070:	4509                	li	a0,2
   12072:	00a102a3          	sb	a0,5(sp)
   12076:	00a71d63          	bne	a4,a0,12090 <_ZN20complex_dynamic_type3app17h1921650f20508b28E+0x12e>
   1207a:	00198513          	addi	a0,s3,1
   1207e:	463d                	li	a2,15
   12080:	85ca                	mv	a1,s2
   12082:	0000b097          	auipc	ra,0xb
   12086:	6f4080e7          	jalr	1780(ra) # 1d776 <memcpy>
   1208a:	00098023          	sb	zero,0(s3)
   1208e:	bf5d                	j	12044 <_ZN20complex_dynamic_type3app17h1921650f20508b28E+0xe2>
   12090:	65300513          	li	a0,1619
   12094:	458d                	li	a1,3
   12096:	4601                	li	a2,0
   12098:	4681                	li	a3,0
   1209a:	00000073          	ecall
   1209e:	00514483          	lbu	s1,5(sp)
   120a2:	00198513          	addi	a0,s3,1
   120a6:	463d                	li	a2,15
   120a8:	85ca                	mv	a1,s2
   120aa:	0000b097          	auipc	ra,0xb
   120ae:	6cc080e7          	jalr	1740(ra) # 1d776 <memcpy>
   120b2:	4509                	li	a0,2
   120b4:	00098023          	sb	zero,0(s3)
   120b8:	f6a49ee3          	bne	s1,a0,12034 <_ZN20complex_dynamic_type3app17h1921650f20508b28E+0xd2>
   120bc:	b761                	j	12044 <_ZN20complex_dynamic_type3app17h1921650f20508b28E+0xe2>

000120be <_ZN20complex_dynamic_type3app17h1e87a52fa1695406E>:
   120be:	7171                	addi	sp,sp,-176
   120c0:	d706                	sw	ra,172(sp)
   120c2:	d522                	sw	s0,168(sp)
   120c4:	d326                	sw	s1,164(sp)
   120c6:	d14a                	sw	s2,160(sp)
   120c8:	cf4e                	sw	s3,156(sp)
   120ca:	89aa                	mv	s3,a0
   120cc:	4409                	li	s0,2
   120ce:	008106a3          	sb	s0,13(sp)
   120d2:	00e10493          	addi	s1,sp,14
   120d6:	02f00613          	li	a2,47
   120da:	8526                	mv	a0,s1
   120dc:	0000b097          	auipc	ra,0xb
   120e0:	69a080e7          	jalr	1690(ra) # 1d776 <memcpy>
   120e4:	03e10913          	addi	s2,sp,62
   120e8:	05e00613          	li	a2,94
   120ec:	854a                	mv	a0,s2
   120ee:	4581                	li	a1,0
   120f0:	0000b097          	auipc	ra,0xb
   120f4:	61a080e7          	jalr	1562(ra) # 1d70a <memset>
   120f8:	8626                	mv	a2,s1
   120fa:	02810ea3          	sb	s0,61(sp)
   120fe:	4791                	li	a5,4
   12100:	22b00513          	li	a0,555
   12104:	4595                	li	a1,5
   12106:	02f00693          	li	a3,47
   1210a:	4711                	li	a4,4
   1210c:	00000073          	ecall
   12110:	00851863          	bne	a0,s0,12120 <_ZN20complex_dynamic_type3app17h1e87a52fa1695406E+0x62>
   12114:	4505                	li	a0,1
   12116:	00a98023          	sb	a0,0(s3)
   1211a:	00b9a223          	sw	a1,4(s3)
   1211e:	a0b5                	j	1218a <_ZN20complex_dynamic_type3app17h1e87a52fa1695406E+0xcc>
   12120:	864a                	mv	a2,s2
   12122:	00f106a3          	sb	a5,13(sp)
   12126:	478d                	li	a5,3
   12128:	22b00513          	li	a0,555
   1212c:	4589                	li	a1,2
   1212e:	05e00693          	li	a3,94
   12132:	470d                	li	a4,3
   12134:	00000073          	ecall
   12138:	00851d63          	bne	a0,s0,12152 <_ZN20complex_dynamic_type3app17h1e87a52fa1695406E+0x94>
   1213c:	03d14703          	lbu	a4,61(sp)
   12140:	4505                	li	a0,1
   12142:	4609                	li	a2,2
   12144:	00a98023          	sb	a0,0(s3)
   12148:	00b9a223          	sw	a1,4(s3)
   1214c:	02c71863          	bne	a4,a2,1217c <_ZN20complex_dynamic_type3app17h1e87a52fa1695406E+0xbe>
   12150:	a82d                	j	1218a <_ZN20complex_dynamic_type3app17h1e87a52fa1695406E+0xcc>
   12152:	4681                	li	a3,0
   12154:	02f10ea3          	sb	a5,61(sp)
   12158:	22b00513          	li	a0,555
   1215c:	4595                	li	a1,5
   1215e:	4609                	li	a2,2
   12160:	4709                	li	a4,2
   12162:	07f00793          	li	a5,127
   12166:	00000073          	ecall
   1216a:	4609                	li	a2,2
   1216c:	04a7e363          	bltu	a5,a0,121b2 <_ZN20complex_dynamic_type3app17h1e87a52fa1695406E+0xf4>
   12170:	4505                	li	a0,1
   12172:	00a98023          	sb	a0,0(s3)
   12176:	00b9a223          	sw	a1,4(s3)
   1217a:	470d                	li	a4,3
   1217c:	22b00513          	li	a0,555
   12180:	4589                	li	a1,2
   12182:	4601                	li	a2,0
   12184:	4681                	li	a3,0
   12186:	00000073          	ecall
   1218a:	00d14483          	lbu	s1,13(sp)
   1218e:	4509                	li	a0,2
   12190:	00a48a63          	beq	s1,a0,121a4 <_ZN20complex_dynamic_type3app17h1e87a52fa1695406E+0xe6>
   12194:	22b00513          	li	a0,555
   12198:	4595                	li	a1,5
   1219a:	4601                	li	a2,0
   1219c:	4681                	li	a3,0
   1219e:	8726                	mv	a4,s1
   121a0:	00000073          	ecall
   121a4:	50ba                	lw	ra,172(sp)
   121a6:	542a                	lw	s0,168(sp)
   121a8:	549a                	lw	s1,164(sp)
   121aa:	590a                	lw	s2,160(sp)
   121ac:	49fa                	lw	s3,156(sp)
   121ae:	614d                	addi	sp,sp,176
   121b0:	8082                	ret
   121b2:	00d14703          	lbu	a4,13(sp)
   121b6:	00c71463          	bne	a4,a2,121be <_ZN20complex_dynamic_type3app17h1e87a52fa1695406E+0x100>
   121ba:	470d                	li	a4,3
   121bc:	a81d                	j	121f2 <_ZN20complex_dynamic_type3app17h1e87a52fa1695406E+0x134>
   121be:	22b00513          	li	a0,555
   121c2:	4595                	li	a1,5
   121c4:	4601                	li	a2,0
   121c6:	4681                	li	a3,0
   121c8:	00000073          	ecall
   121cc:	03d14703          	lbu	a4,61(sp)
   121d0:	4509                	li	a0,2
   121d2:	00a106a3          	sb	a0,13(sp)
   121d6:	00a71e63          	bne	a4,a0,121f2 <_ZN20complex_dynamic_type3app17h1e87a52fa1695406E+0x134>
   121da:	00198513          	addi	a0,s3,1
   121de:	05e00613          	li	a2,94
   121e2:	85ca                	mv	a1,s2
   121e4:	0000b097          	auipc	ra,0xb
   121e8:	592080e7          	jalr	1426(ra) # 1d776 <memcpy>
   121ec:	00098023          	sb	zero,0(s3)
   121f0:	bf55                	j	121a4 <_ZN20complex_dynamic_type3app17h1e87a52fa1695406E+0xe6>
   121f2:	4601                	li	a2,0
   121f4:	4681                	li	a3,0
   121f6:	22b00513          	li	a0,555
   121fa:	4589                	li	a1,2
   121fc:	00000073          	ecall
   12200:	00d14483          	lbu	s1,13(sp)
   12204:	4409                	li	s0,2
   12206:	00198513          	addi	a0,s3,1
   1220a:	05e00613          	li	a2,94
   1220e:	85ca                	mv	a1,s2
   12210:	0000b097          	auipc	ra,0xb
   12214:	566080e7          	jalr	1382(ra) # 1d776 <memcpy>
   12218:	00098023          	sb	zero,0(s3)
   1221c:	f6849ce3          	bne	s1,s0,12194 <_ZN20complex_dynamic_type3app17h1e87a52fa1695406E+0xd6>
   12220:	b751                	j	121a4 <_ZN20complex_dynamic_type3app17h1e87a52fa1695406E+0xe6>

00012222 <_ZN20complex_dynamic_type3app17h2308e7c92a71bca4E>:
   12222:	7175                	addi	sp,sp,-144
   12224:	c706                	sw	ra,140(sp)
   12226:	c522                	sw	s0,136(sp)
   12228:	c326                	sw	s1,132(sp)
   1222a:	c14a                	sw	s2,128(sp)
   1222c:	dece                	sw	s3,124(sp)
   1222e:	89aa                	mv	s3,a0
   12230:	4409                	li	s0,2
   12232:	00810623          	sb	s0,12(sp)
   12236:	00d10493          	addi	s1,sp,13
   1223a:	03c00613          	li	a2,60
   1223e:	8526                	mv	a0,s1
   12240:	0000b097          	auipc	ra,0xb
   12244:	536080e7          	jalr	1334(ra) # 1d776 <memcpy>
   12248:	04a10913          	addi	s2,sp,74
   1224c:	03200613          	li	a2,50
   12250:	854a                	mv	a0,s2
   12252:	4581                	li	a1,0
   12254:	0000b097          	auipc	ra,0xb
   12258:	4b6080e7          	jalr	1206(ra) # 1d70a <memset>
   1225c:	8626                	mv	a2,s1
   1225e:	048104a3          	sb	s0,73(sp)
   12262:	6509                	lui	a0,0x2
   12264:	4491                	li	s1,4
   12266:	4599                	li	a1,6
   12268:	b1e50793          	addi	a5,a0,-1250 # 1b1e <.Lline_table_start1+0x18f3>
   1226c:	03c00693          	li	a3,60
   12270:	4711                	li	a4,4
   12272:	853e                	mv	a0,a5
   12274:	00000073          	ecall
   12278:	00851863          	bne	a0,s0,12288 <_ZN20complex_dynamic_type3app17h2308e7c92a71bca4E+0x66>
   1227c:	4505                	li	a0,1
   1227e:	00a98023          	sb	a0,0(s3)
   12282:	00b9a223          	sw	a1,4(s3)
   12286:	a0bd                	j	122f4 <_ZN20complex_dynamic_type3app17h2308e7c92a71bca4E+0xd2>
   12288:	853e                	mv	a0,a5
   1228a:	864a                	mv	a2,s2
   1228c:	00910623          	sb	s1,12(sp)
   12290:	478d                	li	a5,3
   12292:	45a1                	li	a1,8
   12294:	03200693          	li	a3,50
   12298:	470d                	li	a4,3
   1229a:	00000073          	ecall
   1229e:	00851d63          	bne	a0,s0,122b8 <_ZN20complex_dynamic_type3app17h2308e7c92a71bca4E+0x96>
   122a2:	04914703          	lbu	a4,73(sp)
   122a6:	4505                	li	a0,1
   122a8:	4609                	li	a2,2
   122aa:	00a98023          	sb	a0,0(s3)
   122ae:	00b9a223          	sw	a1,4(s3)
   122b2:	02c71963          	bne	a4,a2,122e4 <_ZN20complex_dynamic_type3app17h2308e7c92a71bca4E+0xc2>
   122b6:	a83d                	j	122f4 <_ZN20complex_dynamic_type3app17h2308e7c92a71bca4E+0xd2>
   122b8:	4681                	li	a3,0
   122ba:	04f104a3          	sb	a5,73(sp)
   122be:	6509                	lui	a0,0x2
   122c0:	4599                	li	a1,6
   122c2:	4621                	li	a2,8
   122c4:	4709                	li	a4,2
   122c6:	b1e50513          	addi	a0,a0,-1250 # 1b1e <.Lline_table_start1+0x18f3>
   122ca:	07f00793          	li	a5,127
   122ce:	00000073          	ecall
   122d2:	4609                	li	a2,2
   122d4:	04a7e563          	bltu	a5,a0,1231e <_ZN20complex_dynamic_type3app17h2308e7c92a71bca4E+0xfc>
   122d8:	4505                	li	a0,1
   122da:	00a98023          	sb	a0,0(s3)
   122de:	00b9a223          	sw	a1,4(s3)
   122e2:	470d                	li	a4,3
   122e4:	6509                	lui	a0,0x2
   122e6:	b1e50513          	addi	a0,a0,-1250 # 1b1e <.Lline_table_start1+0x18f3>
   122ea:	45a1                	li	a1,8
   122ec:	4601                	li	a2,0
   122ee:	4681                	li	a3,0
   122f0:	00000073          	ecall
   122f4:	00c14483          	lbu	s1,12(sp)
   122f8:	4509                	li	a0,2
   122fa:	00a48b63          	beq	s1,a0,12310 <_ZN20complex_dynamic_type3app17h2308e7c92a71bca4E+0xee>
   122fe:	6509                	lui	a0,0x2
   12300:	b1e50513          	addi	a0,a0,-1250 # 1b1e <.Lline_table_start1+0x18f3>
   12304:	4599                	li	a1,6
   12306:	4601                	li	a2,0
   12308:	4681                	li	a3,0
   1230a:	8726                	mv	a4,s1
   1230c:	00000073          	ecall
   12310:	40ba                	lw	ra,140(sp)
   12312:	442a                	lw	s0,136(sp)
   12314:	449a                	lw	s1,132(sp)
   12316:	490a                	lw	s2,128(sp)
   12318:	59f6                	lw	s3,124(sp)
   1231a:	6149                	addi	sp,sp,144
   1231c:	8082                	ret
   1231e:	00c14703          	lbu	a4,12(sp)
   12322:	00c71463          	bne	a4,a2,1232a <_ZN20complex_dynamic_type3app17h2308e7c92a71bca4E+0x108>
   12326:	470d                	li	a4,3
   12328:	a825                	j	12360 <_ZN20complex_dynamic_type3app17h2308e7c92a71bca4E+0x13e>
   1232a:	6509                	lui	a0,0x2
   1232c:	b1e50513          	addi	a0,a0,-1250 # 1b1e <.Lline_table_start1+0x18f3>
   12330:	4599                	li	a1,6
   12332:	4601                	li	a2,0
   12334:	4681                	li	a3,0
   12336:	00000073          	ecall
   1233a:	04914703          	lbu	a4,73(sp)
   1233e:	4509                	li	a0,2
   12340:	00a10623          	sb	a0,12(sp)
   12344:	00a71e63          	bne	a4,a0,12360 <_ZN20complex_dynamic_type3app17h2308e7c92a71bca4E+0x13e>
   12348:	00198513          	addi	a0,s3,1
   1234c:	03200613          	li	a2,50
   12350:	85ca                	mv	a1,s2
   12352:	0000b097          	auipc	ra,0xb
   12356:	424080e7          	jalr	1060(ra) # 1d776 <memcpy>
   1235a:	00098023          	sb	zero,0(s3)
   1235e:	bf4d                	j	12310 <_ZN20complex_dynamic_type3app17h2308e7c92a71bca4E+0xee>
   12360:	6509                	lui	a0,0x2
   12362:	b1e50513          	addi	a0,a0,-1250 # 1b1e <.Lline_table_start1+0x18f3>
   12366:	45a1                	li	a1,8
   12368:	4601                	li	a2,0
   1236a:	4681                	li	a3,0
   1236c:	00000073          	ecall
   12370:	00c14483          	lbu	s1,12(sp)
   12374:	00198513          	addi	a0,s3,1
   12378:	03200613          	li	a2,50
   1237c:	85ca                	mv	a1,s2
   1237e:	0000b097          	auipc	ra,0xb
   12382:	3f8080e7          	jalr	1016(ra) # 1d776 <memcpy>
   12386:	4509                	li	a0,2
   12388:	00098023          	sb	zero,0(s3)
   1238c:	f6a499e3          	bne	s1,a0,122fe <_ZN20complex_dynamic_type3app17h2308e7c92a71bca4E+0xdc>
   12390:	b741                	j	12310 <_ZN20complex_dynamic_type3app17h2308e7c92a71bca4E+0xee>

00012392 <_ZN20complex_dynamic_type3app17h2668011c5ef2d091E>:
   12392:	715d                	addi	sp,sp,-80
   12394:	c686                	sw	ra,76(sp)
   12396:	c4a2                	sw	s0,72(sp)
   12398:	c2a6                	sw	s1,68(sp)
   1239a:	c0ca                	sw	s2,64(sp)
   1239c:	de4e                	sw	s3,60(sp)
   1239e:	89aa                	mv	s3,a0
   123a0:	4409                	li	s0,2
   123a2:	00810323          	sb	s0,6(sp)
   123a6:	00710493          	addi	s1,sp,7
   123aa:	463d                	li	a2,15
   123ac:	8526                	mv	a0,s1
   123ae:	0000b097          	auipc	ra,0xb
   123b2:	3c8080e7          	jalr	968(ra) # 1d776 <memcpy>
   123b6:	01710913          	addi	s2,sp,23
   123ba:	02500613          	li	a2,37
   123be:	854a                	mv	a0,s2
   123c0:	4581                	li	a1,0
   123c2:	0000b097          	auipc	ra,0xb
   123c6:	348080e7          	jalr	840(ra) # 1d70a <memset>
   123ca:	8626                	mv	a2,s1
   123cc:	00810b23          	sb	s0,22(sp)
   123d0:	4791                	li	a5,4
   123d2:	0a200513          	li	a0,162
   123d6:	45a1                	li	a1,8
   123d8:	46bd                	li	a3,15
   123da:	4711                	li	a4,4
   123dc:	00000073          	ecall
   123e0:	00851863          	bne	a0,s0,123f0 <_ZN20complex_dynamic_type3app17h2668011c5ef2d091E+0x5e>
   123e4:	4505                	li	a0,1
   123e6:	00a98023          	sb	a0,0(s3)
   123ea:	00b9a223          	sw	a1,4(s3)
   123ee:	a0b5                	j	1245a <_ZN20complex_dynamic_type3app17h2668011c5ef2d091E+0xc8>
   123f0:	4581                	li	a1,0
   123f2:	864a                	mv	a2,s2
   123f4:	00f10323          	sb	a5,6(sp)
   123f8:	478d                	li	a5,3
   123fa:	0a200513          	li	a0,162
   123fe:	02500693          	li	a3,37
   12402:	470d                	li	a4,3
   12404:	00000073          	ecall
   12408:	00851d63          	bne	a0,s0,12422 <_ZN20complex_dynamic_type3app17h2668011c5ef2d091E+0x90>
   1240c:	01614703          	lbu	a4,22(sp)
   12410:	4505                	li	a0,1
   12412:	4609                	li	a2,2
   12414:	00a98023          	sb	a0,0(s3)
   12418:	00b9a223          	sw	a1,4(s3)
   1241c:	02c71863          	bne	a4,a2,1244c <_ZN20complex_dynamic_type3app17h2668011c5ef2d091E+0xba>
   12420:	a82d                	j	1245a <_ZN20complex_dynamic_type3app17h2668011c5ef2d091E+0xc8>
   12422:	4601                	li	a2,0
   12424:	4681                	li	a3,0
   12426:	00f10b23          	sb	a5,22(sp)
   1242a:	0a200513          	li	a0,162
   1242e:	45a1                	li	a1,8
   12430:	4709                	li	a4,2
   12432:	07f00793          	li	a5,127
   12436:	00000073          	ecall
   1243a:	4609                	li	a2,2
   1243c:	04a7e363          	bltu	a5,a0,12482 <_ZN20complex_dynamic_type3app17h2668011c5ef2d091E+0xf0>
   12440:	4505                	li	a0,1
   12442:	00a98023          	sb	a0,0(s3)
   12446:	00b9a223          	sw	a1,4(s3)
   1244a:	470d                	li	a4,3
   1244c:	0a200513          	li	a0,162
   12450:	4581                	li	a1,0
   12452:	4601                	li	a2,0
   12454:	4681                	li	a3,0
   12456:	00000073          	ecall
   1245a:	00614483          	lbu	s1,6(sp)
   1245e:	4509                	li	a0,2
   12460:	00a48a63          	beq	s1,a0,12474 <_ZN20complex_dynamic_type3app17h2668011c5ef2d091E+0xe2>
   12464:	0a200513          	li	a0,162
   12468:	45a1                	li	a1,8
   1246a:	4601                	li	a2,0
   1246c:	4681                	li	a3,0
   1246e:	8726                	mv	a4,s1
   12470:	00000073          	ecall
   12474:	40b6                	lw	ra,76(sp)
   12476:	4426                	lw	s0,72(sp)
   12478:	4496                	lw	s1,68(sp)
   1247a:	4906                	lw	s2,64(sp)
   1247c:	59f2                	lw	s3,60(sp)
   1247e:	6161                	addi	sp,sp,80
   12480:	8082                	ret
   12482:	00614703          	lbu	a4,6(sp)
   12486:	00c71463          	bne	a4,a2,1248e <_ZN20complex_dynamic_type3app17h2668011c5ef2d091E+0xfc>
   1248a:	470d                	li	a4,3
   1248c:	a81d                	j	124c2 <_ZN20complex_dynamic_type3app17h2668011c5ef2d091E+0x130>
   1248e:	0a200513          	li	a0,162
   12492:	45a1                	li	a1,8
   12494:	4601                	li	a2,0
   12496:	4681                	li	a3,0
   12498:	00000073          	ecall
   1249c:	01614703          	lbu	a4,22(sp)
   124a0:	4509                	li	a0,2
   124a2:	00a10323          	sb	a0,6(sp)
   124a6:	00a71e63          	bne	a4,a0,124c2 <_ZN20complex_dynamic_type3app17h2668011c5ef2d091E+0x130>
   124aa:	00198513          	addi	a0,s3,1
   124ae:	02500613          	li	a2,37
   124b2:	85ca                	mv	a1,s2
   124b4:	0000b097          	auipc	ra,0xb
   124b8:	2c2080e7          	jalr	706(ra) # 1d776 <memcpy>
   124bc:	00098023          	sb	zero,0(s3)
   124c0:	bf55                	j	12474 <_ZN20complex_dynamic_type3app17h2668011c5ef2d091E+0xe2>
   124c2:	0a200513          	li	a0,162
   124c6:	4581                	li	a1,0
   124c8:	4601                	li	a2,0
   124ca:	4681                	li	a3,0
   124cc:	00000073          	ecall
   124d0:	00614483          	lbu	s1,6(sp)
   124d4:	00198513          	addi	a0,s3,1
   124d8:	02500613          	li	a2,37
   124dc:	85ca                	mv	a1,s2
   124de:	0000b097          	auipc	ra,0xb
   124e2:	298080e7          	jalr	664(ra) # 1d776 <memcpy>
   124e6:	4509                	li	a0,2
   124e8:	00098023          	sb	zero,0(s3)
   124ec:	f6a49ce3          	bne	s1,a0,12464 <_ZN20complex_dynamic_type3app17h2668011c5ef2d091E+0xd2>
   124f0:	b751                	j	12474 <_ZN20complex_dynamic_type3app17h2668011c5ef2d091E+0xe2>

000124f2 <_ZN20complex_dynamic_type3app17h2a0c706e7edbb7e7E>:
   124f2:	711d                	addi	sp,sp,-96
   124f4:	ce86                	sw	ra,92(sp)
   124f6:	cca2                	sw	s0,88(sp)
   124f8:	caa6                	sw	s1,84(sp)
   124fa:	c8ca                	sw	s2,80(sp)
   124fc:	c6ce                	sw	s3,76(sp)
   124fe:	89aa                	mv	s3,a0
   12500:	4409                	li	s0,2
   12502:	00810423          	sb	s0,8(sp)
   12506:	00910493          	addi	s1,sp,9
   1250a:	03200613          	li	a2,50
   1250e:	8526                	mv	a0,s1
   12510:	0000b097          	auipc	ra,0xb
   12514:	266080e7          	jalr	614(ra) # 1d776 <memcpy>
   12518:	03c10913          	addi	s2,sp,60
   1251c:	4641                	li	a2,16
   1251e:	854a                	mv	a0,s2
   12520:	4581                	li	a1,0
   12522:	0000b097          	auipc	ra,0xb
   12526:	1e8080e7          	jalr	488(ra) # 1d70a <memset>
   1252a:	8626                	mv	a2,s1
   1252c:	02810da3          	sb	s0,59(sp)
   12530:	6509                	lui	a0,0x2
   12532:	4491                	li	s1,4
   12534:	4591                	li	a1,4
   12536:	9d650793          	addi	a5,a0,-1578 # 19d6 <.Lline_table_start1+0x17ab>
   1253a:	03200693          	li	a3,50
   1253e:	4711                	li	a4,4
   12540:	853e                	mv	a0,a5
   12542:	00000073          	ecall
   12546:	00851863          	bne	a0,s0,12556 <_ZN20complex_dynamic_type3app17h2a0c706e7edbb7e7E+0x64>
   1254a:	4505                	li	a0,1
   1254c:	00a98023          	sb	a0,0(s3)
   12550:	00b9a223          	sw	a1,4(s3)
   12554:	a0b5                	j	125c0 <_ZN20complex_dynamic_type3app17h2a0c706e7edbb7e7E+0xce>
   12556:	853e                	mv	a0,a5
   12558:	864a                	mv	a2,s2
   1255a:	00910423          	sb	s1,8(sp)
   1255e:	478d                	li	a5,3
   12560:	45a5                	li	a1,9
   12562:	46c1                	li	a3,16
   12564:	470d                	li	a4,3
   12566:	00000073          	ecall
   1256a:	00851d63          	bne	a0,s0,12584 <_ZN20complex_dynamic_type3app17h2a0c706e7edbb7e7E+0x92>
   1256e:	03b14703          	lbu	a4,59(sp)
   12572:	4505                	li	a0,1
   12574:	4609                	li	a2,2
   12576:	00a98023          	sb	a0,0(s3)
   1257a:	00b9a223          	sw	a1,4(s3)
   1257e:	02c71963          	bne	a4,a2,125b0 <_ZN20complex_dynamic_type3app17h2a0c706e7edbb7e7E+0xbe>
   12582:	a83d                	j	125c0 <_ZN20complex_dynamic_type3app17h2a0c706e7edbb7e7E+0xce>
   12584:	4681                	li	a3,0
   12586:	02f10da3          	sb	a5,59(sp)
   1258a:	6509                	lui	a0,0x2
   1258c:	4591                	li	a1,4
   1258e:	4625                	li	a2,9
   12590:	4709                	li	a4,2
   12592:	9d650513          	addi	a0,a0,-1578 # 19d6 <.Lline_table_start1+0x17ab>
   12596:	07f00793          	li	a5,127
   1259a:	00000073          	ecall
   1259e:	4609                	li	a2,2
   125a0:	04a7e563          	bltu	a5,a0,125ea <_ZN20complex_dynamic_type3app17h2a0c706e7edbb7e7E+0xf8>
   125a4:	4505                	li	a0,1
   125a6:	00a98023          	sb	a0,0(s3)
   125aa:	00b9a223          	sw	a1,4(s3)
   125ae:	470d                	li	a4,3
   125b0:	6509                	lui	a0,0x2
   125b2:	9d650513          	addi	a0,a0,-1578 # 19d6 <.Lline_table_start1+0x17ab>
   125b6:	45a5                	li	a1,9
   125b8:	4601                	li	a2,0
   125ba:	4681                	li	a3,0
   125bc:	00000073          	ecall
   125c0:	00814483          	lbu	s1,8(sp)
   125c4:	4509                	li	a0,2
   125c6:	00a48b63          	beq	s1,a0,125dc <_ZN20complex_dynamic_type3app17h2a0c706e7edbb7e7E+0xea>
   125ca:	6509                	lui	a0,0x2
   125cc:	9d650513          	addi	a0,a0,-1578 # 19d6 <.Lline_table_start1+0x17ab>
   125d0:	4591                	li	a1,4
   125d2:	4601                	li	a2,0
   125d4:	4681                	li	a3,0
   125d6:	8726                	mv	a4,s1
   125d8:	00000073          	ecall
   125dc:	40f6                	lw	ra,92(sp)
   125de:	4466                	lw	s0,88(sp)
   125e0:	44d6                	lw	s1,84(sp)
   125e2:	4946                	lw	s2,80(sp)
   125e4:	49b6                	lw	s3,76(sp)
   125e6:	6125                	addi	sp,sp,96
   125e8:	8082                	ret
   125ea:	00814703          	lbu	a4,8(sp)
   125ee:	00c71463          	bne	a4,a2,125f6 <_ZN20complex_dynamic_type3app17h2a0c706e7edbb7e7E+0x104>
   125f2:	470d                	li	a4,3
   125f4:	a81d                	j	1262a <_ZN20complex_dynamic_type3app17h2a0c706e7edbb7e7E+0x138>
   125f6:	6509                	lui	a0,0x2
   125f8:	9d650513          	addi	a0,a0,-1578 # 19d6 <.Lline_table_start1+0x17ab>
   125fc:	4591                	li	a1,4
   125fe:	4601                	li	a2,0
   12600:	4681                	li	a3,0
   12602:	00000073          	ecall
   12606:	03b14703          	lbu	a4,59(sp)
   1260a:	4509                	li	a0,2
   1260c:	00a10423          	sb	a0,8(sp)
   12610:	00a71d63          	bne	a4,a0,1262a <_ZN20complex_dynamic_type3app17h2a0c706e7edbb7e7E+0x138>
   12614:	00198513          	addi	a0,s3,1
   12618:	4641                	li	a2,16
   1261a:	85ca                	mv	a1,s2
   1261c:	0000b097          	auipc	ra,0xb
   12620:	15a080e7          	jalr	346(ra) # 1d776 <memcpy>
   12624:	00098023          	sb	zero,0(s3)
   12628:	bf55                	j	125dc <_ZN20complex_dynamic_type3app17h2a0c706e7edbb7e7E+0xea>
   1262a:	6509                	lui	a0,0x2
   1262c:	9d650513          	addi	a0,a0,-1578 # 19d6 <.Lline_table_start1+0x17ab>
   12630:	45a5                	li	a1,9
   12632:	4601                	li	a2,0
   12634:	4681                	li	a3,0
   12636:	00000073          	ecall
   1263a:	00814483          	lbu	s1,8(sp)
   1263e:	00198513          	addi	a0,s3,1
   12642:	4641                	li	a2,16
   12644:	85ca                	mv	a1,s2
   12646:	0000b097          	auipc	ra,0xb
   1264a:	130080e7          	jalr	304(ra) # 1d776 <memcpy>
   1264e:	4509                	li	a0,2
   12650:	00098023          	sb	zero,0(s3)
   12654:	f6a49be3          	bne	s1,a0,125ca <_ZN20complex_dynamic_type3app17h2a0c706e7edbb7e7E+0xd8>
   12658:	b751                	j	125dc <_ZN20complex_dynamic_type3app17h2a0c706e7edbb7e7E+0xea>

0001265a <_ZN20complex_dynamic_type3app17h2baf5a486462d88eE>:
   1265a:	7159                	addi	sp,sp,-112
   1265c:	d686                	sw	ra,108(sp)
   1265e:	d4a2                	sw	s0,104(sp)
   12660:	d2a6                	sw	s1,100(sp)
   12662:	d0ca                	sw	s2,96(sp)
   12664:	cece                	sw	s3,92(sp)
   12666:	89aa                	mv	s3,a0
   12668:	4409                	li	s0,2
   1266a:	00810223          	sb	s0,4(sp)
   1266e:	00510493          	addi	s1,sp,5
   12672:	4639                	li	a2,14
   12674:	8526                	mv	a0,s1
   12676:	0000b097          	auipc	ra,0xb
   1267a:	100080e7          	jalr	256(ra) # 1d776 <memcpy>
   1267e:	01410913          	addi	s2,sp,20
   12682:	04800613          	li	a2,72
   12686:	854a                	mv	a0,s2
   12688:	4581                	li	a1,0
   1268a:	0000b097          	auipc	ra,0xb
   1268e:	080080e7          	jalr	128(ra) # 1d70a <memset>
   12692:	8626                	mv	a2,s1
   12694:	008109a3          	sb	s0,19(sp)
   12698:	6505                	lui	a0,0x1
   1269a:	4491                	li	s1,4
   1269c:	458d                	li	a1,3
   1269e:	2d150793          	addi	a5,a0,721 # 12d1 <.Lline_table_start1+0x10a6>
   126a2:	46b9                	li	a3,14
   126a4:	4711                	li	a4,4
   126a6:	853e                	mv	a0,a5
   126a8:	00000073          	ecall
   126ac:	00851863          	bne	a0,s0,126bc <_ZN20complex_dynamic_type3app17h2baf5a486462d88eE+0x62>
   126b0:	4505                	li	a0,1
   126b2:	00a98023          	sb	a0,0(s3)
   126b6:	00b9a223          	sw	a1,4(s3)
   126ba:	a0bd                	j	12728 <_ZN20complex_dynamic_type3app17h2baf5a486462d88eE+0xce>
   126bc:	853e                	mv	a0,a5
   126be:	864a                	mv	a2,s2
   126c0:	00910223          	sb	s1,4(sp)
   126c4:	478d                	li	a5,3
   126c6:	45a1                	li	a1,8
   126c8:	04800693          	li	a3,72
   126cc:	470d                	li	a4,3
   126ce:	00000073          	ecall
   126d2:	00851d63          	bne	a0,s0,126ec <_ZN20complex_dynamic_type3app17h2baf5a486462d88eE+0x92>
   126d6:	01314703          	lbu	a4,19(sp)
   126da:	4505                	li	a0,1
   126dc:	4609                	li	a2,2
   126de:	00a98023          	sb	a0,0(s3)
   126e2:	00b9a223          	sw	a1,4(s3)
   126e6:	02c71963          	bne	a4,a2,12718 <_ZN20complex_dynamic_type3app17h2baf5a486462d88eE+0xbe>
   126ea:	a83d                	j	12728 <_ZN20complex_dynamic_type3app17h2baf5a486462d88eE+0xce>
   126ec:	4681                	li	a3,0
   126ee:	00f109a3          	sb	a5,19(sp)
   126f2:	6505                	lui	a0,0x1
   126f4:	458d                	li	a1,3
   126f6:	4621                	li	a2,8
   126f8:	4709                	li	a4,2
   126fa:	2d150513          	addi	a0,a0,721 # 12d1 <.Lline_table_start1+0x10a6>
   126fe:	07f00793          	li	a5,127
   12702:	00000073          	ecall
   12706:	4609                	li	a2,2
   12708:	04a7e563          	bltu	a5,a0,12752 <_ZN20complex_dynamic_type3app17h2baf5a486462d88eE+0xf8>
   1270c:	4505                	li	a0,1
   1270e:	00a98023          	sb	a0,0(s3)
   12712:	00b9a223          	sw	a1,4(s3)
   12716:	470d                	li	a4,3
   12718:	6505                	lui	a0,0x1
   1271a:	2d150513          	addi	a0,a0,721 # 12d1 <.Lline_table_start1+0x10a6>
   1271e:	45a1                	li	a1,8
   12720:	4601                	li	a2,0
   12722:	4681                	li	a3,0
   12724:	00000073          	ecall
   12728:	00414483          	lbu	s1,4(sp)
   1272c:	4509                	li	a0,2
   1272e:	00a48b63          	beq	s1,a0,12744 <_ZN20complex_dynamic_type3app17h2baf5a486462d88eE+0xea>
   12732:	6505                	lui	a0,0x1
   12734:	2d150513          	addi	a0,a0,721 # 12d1 <.Lline_table_start1+0x10a6>
   12738:	458d                	li	a1,3
   1273a:	4601                	li	a2,0
   1273c:	4681                	li	a3,0
   1273e:	8726                	mv	a4,s1
   12740:	00000073          	ecall
   12744:	50b6                	lw	ra,108(sp)
   12746:	5426                	lw	s0,104(sp)
   12748:	5496                	lw	s1,100(sp)
   1274a:	5906                	lw	s2,96(sp)
   1274c:	49f6                	lw	s3,92(sp)
   1274e:	6165                	addi	sp,sp,112
   12750:	8082                	ret
   12752:	00414703          	lbu	a4,4(sp)
   12756:	00c71463          	bne	a4,a2,1275e <_ZN20complex_dynamic_type3app17h2baf5a486462d88eE+0x104>
   1275a:	470d                	li	a4,3
   1275c:	a825                	j	12794 <_ZN20complex_dynamic_type3app17h2baf5a486462d88eE+0x13a>
   1275e:	6505                	lui	a0,0x1
   12760:	2d150513          	addi	a0,a0,721 # 12d1 <.Lline_table_start1+0x10a6>
   12764:	458d                	li	a1,3
   12766:	4601                	li	a2,0
   12768:	4681                	li	a3,0
   1276a:	00000073          	ecall
   1276e:	01314703          	lbu	a4,19(sp)
   12772:	4509                	li	a0,2
   12774:	00a10223          	sb	a0,4(sp)
   12778:	00a71e63          	bne	a4,a0,12794 <_ZN20complex_dynamic_type3app17h2baf5a486462d88eE+0x13a>
   1277c:	00198513          	addi	a0,s3,1
   12780:	04800613          	li	a2,72
   12784:	85ca                	mv	a1,s2
   12786:	0000b097          	auipc	ra,0xb
   1278a:	ff0080e7          	jalr	-16(ra) # 1d776 <memcpy>
   1278e:	00098023          	sb	zero,0(s3)
   12792:	bf4d                	j	12744 <_ZN20complex_dynamic_type3app17h2baf5a486462d88eE+0xea>
   12794:	6505                	lui	a0,0x1
   12796:	2d150513          	addi	a0,a0,721 # 12d1 <.Lline_table_start1+0x10a6>
   1279a:	45a1                	li	a1,8
   1279c:	4601                	li	a2,0
   1279e:	4681                	li	a3,0
   127a0:	00000073          	ecall
   127a4:	00414483          	lbu	s1,4(sp)
   127a8:	00198513          	addi	a0,s3,1
   127ac:	04800613          	li	a2,72
   127b0:	85ca                	mv	a1,s2
   127b2:	0000b097          	auipc	ra,0xb
   127b6:	fc4080e7          	jalr	-60(ra) # 1d776 <memcpy>
   127ba:	4509                	li	a0,2
   127bc:	00098023          	sb	zero,0(s3)
   127c0:	f6a499e3          	bne	s1,a0,12732 <_ZN20complex_dynamic_type3app17h2baf5a486462d88eE+0xd8>
   127c4:	b741                	j	12744 <_ZN20complex_dynamic_type3app17h2baf5a486462d88eE+0xea>

000127c6 <_ZN20complex_dynamic_type3app17h2bb167d6b7fd19d4E>:
   127c6:	7119                	addi	sp,sp,-128
   127c8:	de86                	sw	ra,124(sp)
   127ca:	dca2                	sw	s0,120(sp)
   127cc:	daa6                	sw	s1,116(sp)
   127ce:	d8ca                	sw	s2,112(sp)
   127d0:	d6ce                	sw	s3,108(sp)
   127d2:	89aa                	mv	s3,a0
   127d4:	4409                	li	s0,2
   127d6:	008104a3          	sb	s0,9(sp)
   127da:	00a10493          	addi	s1,sp,10
   127de:	4645                	li	a2,17
   127e0:	8526                	mv	a0,s1
   127e2:	0000b097          	auipc	ra,0xb
   127e6:	f94080e7          	jalr	-108(ra) # 1d776 <memcpy>
   127ea:	01c10913          	addi	s2,sp,28
   127ee:	05000613          	li	a2,80
   127f2:	854a                	mv	a0,s2
   127f4:	4581                	li	a1,0
   127f6:	0000b097          	auipc	ra,0xb
   127fa:	f14080e7          	jalr	-236(ra) # 1d70a <memset>
   127fe:	8626                	mv	a2,s1
   12800:	00810da3          	sb	s0,27(sp)
   12804:	6509                	lui	a0,0x2
   12806:	4491                	li	s1,4
   12808:	4599                	li	a1,6
   1280a:	aa950793          	addi	a5,a0,-1367 # 1aa9 <.Lline_table_start1+0x187e>
   1280e:	46c5                	li	a3,17
   12810:	4711                	li	a4,4
   12812:	853e                	mv	a0,a5
   12814:	00000073          	ecall
   12818:	00851863          	bne	a0,s0,12828 <_ZN20complex_dynamic_type3app17h2bb167d6b7fd19d4E+0x62>
   1281c:	4505                	li	a0,1
   1281e:	00a98023          	sb	a0,0(s3)
   12822:	00b9a223          	sw	a1,4(s3)
   12826:	a0bd                	j	12894 <_ZN20complex_dynamic_type3app17h2bb167d6b7fd19d4E+0xce>
   12828:	853e                	mv	a0,a5
   1282a:	864a                	mv	a2,s2
   1282c:	009104a3          	sb	s1,9(sp)
   12830:	478d                	li	a5,3
   12832:	4595                	li	a1,5
   12834:	05000693          	li	a3,80
   12838:	470d                	li	a4,3
   1283a:	00000073          	ecall
   1283e:	00851d63          	bne	a0,s0,12858 <_ZN20complex_dynamic_type3app17h2bb167d6b7fd19d4E+0x92>
   12842:	01b14703          	lbu	a4,27(sp)
   12846:	4505                	li	a0,1
   12848:	4609                	li	a2,2
   1284a:	00a98023          	sb	a0,0(s3)
   1284e:	00b9a223          	sw	a1,4(s3)
   12852:	02c71963          	bne	a4,a2,12884 <_ZN20complex_dynamic_type3app17h2bb167d6b7fd19d4E+0xbe>
   12856:	a83d                	j	12894 <_ZN20complex_dynamic_type3app17h2bb167d6b7fd19d4E+0xce>
   12858:	4681                	li	a3,0
   1285a:	00f10da3          	sb	a5,27(sp)
   1285e:	6509                	lui	a0,0x2
   12860:	4599                	li	a1,6
   12862:	4615                	li	a2,5
   12864:	4709                	li	a4,2
   12866:	aa950513          	addi	a0,a0,-1367 # 1aa9 <.Lline_table_start1+0x187e>
   1286a:	07f00793          	li	a5,127
   1286e:	00000073          	ecall
   12872:	4609                	li	a2,2
   12874:	04a7e563          	bltu	a5,a0,128be <_ZN20complex_dynamic_type3app17h2bb167d6b7fd19d4E+0xf8>
   12878:	4505                	li	a0,1
   1287a:	00a98023          	sb	a0,0(s3)
   1287e:	00b9a223          	sw	a1,4(s3)
   12882:	470d                	li	a4,3
   12884:	6509                	lui	a0,0x2
   12886:	aa950513          	addi	a0,a0,-1367 # 1aa9 <.Lline_table_start1+0x187e>
   1288a:	4595                	li	a1,5
   1288c:	4601                	li	a2,0
   1288e:	4681                	li	a3,0
   12890:	00000073          	ecall
   12894:	00914483          	lbu	s1,9(sp)
   12898:	4509                	li	a0,2
   1289a:	00a48b63          	beq	s1,a0,128b0 <_ZN20complex_dynamic_type3app17h2bb167d6b7fd19d4E+0xea>
   1289e:	6509                	lui	a0,0x2
   128a0:	aa950513          	addi	a0,a0,-1367 # 1aa9 <.Lline_table_start1+0x187e>
   128a4:	4599                	li	a1,6
   128a6:	4601                	li	a2,0
   128a8:	4681                	li	a3,0
   128aa:	8726                	mv	a4,s1
   128ac:	00000073          	ecall
   128b0:	50f6                	lw	ra,124(sp)
   128b2:	5466                	lw	s0,120(sp)
   128b4:	54d6                	lw	s1,116(sp)
   128b6:	5946                	lw	s2,112(sp)
   128b8:	59b6                	lw	s3,108(sp)
   128ba:	6109                	addi	sp,sp,128
   128bc:	8082                	ret
   128be:	00914703          	lbu	a4,9(sp)
   128c2:	00c71463          	bne	a4,a2,128ca <_ZN20complex_dynamic_type3app17h2bb167d6b7fd19d4E+0x104>
   128c6:	470d                	li	a4,3
   128c8:	a825                	j	12900 <_ZN20complex_dynamic_type3app17h2bb167d6b7fd19d4E+0x13a>
   128ca:	6509                	lui	a0,0x2
   128cc:	aa950513          	addi	a0,a0,-1367 # 1aa9 <.Lline_table_start1+0x187e>
   128d0:	4599                	li	a1,6
   128d2:	4601                	li	a2,0
   128d4:	4681                	li	a3,0
   128d6:	00000073          	ecall
   128da:	01b14703          	lbu	a4,27(sp)
   128de:	4509                	li	a0,2
   128e0:	00a104a3          	sb	a0,9(sp)
   128e4:	00a71e63          	bne	a4,a0,12900 <_ZN20complex_dynamic_type3app17h2bb167d6b7fd19d4E+0x13a>
   128e8:	00198513          	addi	a0,s3,1
   128ec:	05000613          	li	a2,80
   128f0:	85ca                	mv	a1,s2
   128f2:	0000b097          	auipc	ra,0xb
   128f6:	e84080e7          	jalr	-380(ra) # 1d776 <memcpy>
   128fa:	00098023          	sb	zero,0(s3)
   128fe:	bf4d                	j	128b0 <_ZN20complex_dynamic_type3app17h2bb167d6b7fd19d4E+0xea>
   12900:	6509                	lui	a0,0x2
   12902:	aa950513          	addi	a0,a0,-1367 # 1aa9 <.Lline_table_start1+0x187e>
   12906:	4595                	li	a1,5
   12908:	4601                	li	a2,0
   1290a:	4681                	li	a3,0
   1290c:	00000073          	ecall
   12910:	00914483          	lbu	s1,9(sp)
   12914:	00198513          	addi	a0,s3,1
   12918:	05000613          	li	a2,80
   1291c:	85ca                	mv	a1,s2
   1291e:	0000b097          	auipc	ra,0xb
   12922:	e58080e7          	jalr	-424(ra) # 1d776 <memcpy>
   12926:	4509                	li	a0,2
   12928:	00098023          	sb	zero,0(s3)
   1292c:	f6a499e3          	bne	s1,a0,1289e <_ZN20complex_dynamic_type3app17h2bb167d6b7fd19d4E+0xd8>
   12930:	b741                	j	128b0 <_ZN20complex_dynamic_type3app17h2bb167d6b7fd19d4E+0xea>

00012932 <_ZN20complex_dynamic_type3app17h2f0d2fbeecc6dbc3E>:
   12932:	7175                	addi	sp,sp,-144
   12934:	c706                	sw	ra,140(sp)
   12936:	c522                	sw	s0,136(sp)
   12938:	c326                	sw	s1,132(sp)
   1293a:	c14a                	sw	s2,128(sp)
   1293c:	dece                	sw	s3,124(sp)
   1293e:	89aa                	mv	s3,a0
   12940:	4409                	li	s0,2
   12942:	008101a3          	sb	s0,3(sp)
   12946:	0044                	addi	s1,sp,4
   12948:	04a00613          	li	a2,74
   1294c:	8526                	mv	a0,s1
   1294e:	0000b097          	auipc	ra,0xb
   12952:	e28080e7          	jalr	-472(ra) # 1d776 <memcpy>
   12956:	04f10913          	addi	s2,sp,79
   1295a:	02d00613          	li	a2,45
   1295e:	854a                	mv	a0,s2
   12960:	4581                	li	a1,0
   12962:	0000b097          	auipc	ra,0xb
   12966:	da8080e7          	jalr	-600(ra) # 1d70a <memset>
   1296a:	8626                	mv	a2,s1
   1296c:	04810723          	sb	s0,78(sp)
   12970:	6505                	lui	a0,0x1
   12972:	4491                	li	s1,4
   12974:	4589                	li	a1,2
   12976:	e3d50793          	addi	a5,a0,-451 # e3d <.Lline_table_start1+0xc12>
   1297a:	04a00693          	li	a3,74
   1297e:	4711                	li	a4,4
   12980:	853e                	mv	a0,a5
   12982:	00000073          	ecall
   12986:	00851863          	bne	a0,s0,12996 <_ZN20complex_dynamic_type3app17h2f0d2fbeecc6dbc3E+0x64>
   1298a:	4505                	li	a0,1
   1298c:	00a98023          	sb	a0,0(s3)
   12990:	00b9a223          	sw	a1,4(s3)
   12994:	a0bd                	j	12a02 <_ZN20complex_dynamic_type3app17h2f0d2fbeecc6dbc3E+0xd0>
   12996:	853e                	mv	a0,a5
   12998:	864a                	mv	a2,s2
   1299a:	009101a3          	sb	s1,3(sp)
   1299e:	478d                	li	a5,3
   129a0:	458d                	li	a1,3
   129a2:	02d00693          	li	a3,45
   129a6:	470d                	li	a4,3
   129a8:	00000073          	ecall
   129ac:	00851d63          	bne	a0,s0,129c6 <_ZN20complex_dynamic_type3app17h2f0d2fbeecc6dbc3E+0x94>
   129b0:	04e14703          	lbu	a4,78(sp)
   129b4:	4505                	li	a0,1
   129b6:	4609                	li	a2,2
   129b8:	00a98023          	sb	a0,0(s3)
   129bc:	00b9a223          	sw	a1,4(s3)
   129c0:	02c71963          	bne	a4,a2,129f2 <_ZN20complex_dynamic_type3app17h2f0d2fbeecc6dbc3E+0xc0>
   129c4:	a83d                	j	12a02 <_ZN20complex_dynamic_type3app17h2f0d2fbeecc6dbc3E+0xd0>
   129c6:	4681                	li	a3,0
   129c8:	04f10723          	sb	a5,78(sp)
   129cc:	6505                	lui	a0,0x1
   129ce:	4589                	li	a1,2
   129d0:	460d                	li	a2,3
   129d2:	4709                	li	a4,2
   129d4:	e3d50513          	addi	a0,a0,-451 # e3d <.Lline_table_start1+0xc12>
   129d8:	07f00793          	li	a5,127
   129dc:	00000073          	ecall
   129e0:	4609                	li	a2,2
   129e2:	04a7e563          	bltu	a5,a0,12a2c <_ZN20complex_dynamic_type3app17h2f0d2fbeecc6dbc3E+0xfa>
   129e6:	4505                	li	a0,1
   129e8:	00a98023          	sb	a0,0(s3)
   129ec:	00b9a223          	sw	a1,4(s3)
   129f0:	470d                	li	a4,3
   129f2:	6505                	lui	a0,0x1
   129f4:	e3d50513          	addi	a0,a0,-451 # e3d <.Lline_table_start1+0xc12>
   129f8:	458d                	li	a1,3
   129fa:	4601                	li	a2,0
   129fc:	4681                	li	a3,0
   129fe:	00000073          	ecall
   12a02:	00314483          	lbu	s1,3(sp)
   12a06:	4509                	li	a0,2
   12a08:	00a48b63          	beq	s1,a0,12a1e <_ZN20complex_dynamic_type3app17h2f0d2fbeecc6dbc3E+0xec>
   12a0c:	6505                	lui	a0,0x1
   12a0e:	e3d50513          	addi	a0,a0,-451 # e3d <.Lline_table_start1+0xc12>
   12a12:	4589                	li	a1,2
   12a14:	4601                	li	a2,0
   12a16:	4681                	li	a3,0
   12a18:	8726                	mv	a4,s1
   12a1a:	00000073          	ecall
   12a1e:	40ba                	lw	ra,140(sp)
   12a20:	442a                	lw	s0,136(sp)
   12a22:	449a                	lw	s1,132(sp)
   12a24:	490a                	lw	s2,128(sp)
   12a26:	59f6                	lw	s3,124(sp)
   12a28:	6149                	addi	sp,sp,144
   12a2a:	8082                	ret
   12a2c:	00314703          	lbu	a4,3(sp)
   12a30:	00c71463          	bne	a4,a2,12a38 <_ZN20complex_dynamic_type3app17h2f0d2fbeecc6dbc3E+0x106>
   12a34:	470d                	li	a4,3
   12a36:	a825                	j	12a6e <_ZN20complex_dynamic_type3app17h2f0d2fbeecc6dbc3E+0x13c>
   12a38:	6505                	lui	a0,0x1
   12a3a:	e3d50513          	addi	a0,a0,-451 # e3d <.Lline_table_start1+0xc12>
   12a3e:	4589                	li	a1,2
   12a40:	4601                	li	a2,0
   12a42:	4681                	li	a3,0
   12a44:	00000073          	ecall
   12a48:	04e14703          	lbu	a4,78(sp)
   12a4c:	4509                	li	a0,2
   12a4e:	00a101a3          	sb	a0,3(sp)
   12a52:	00a71e63          	bne	a4,a0,12a6e <_ZN20complex_dynamic_type3app17h2f0d2fbeecc6dbc3E+0x13c>
   12a56:	00198513          	addi	a0,s3,1
   12a5a:	02d00613          	li	a2,45
   12a5e:	85ca                	mv	a1,s2
   12a60:	0000b097          	auipc	ra,0xb
   12a64:	d16080e7          	jalr	-746(ra) # 1d776 <memcpy>
   12a68:	00098023          	sb	zero,0(s3)
   12a6c:	bf4d                	j	12a1e <_ZN20complex_dynamic_type3app17h2f0d2fbeecc6dbc3E+0xec>
   12a6e:	6505                	lui	a0,0x1
   12a70:	e3d50513          	addi	a0,a0,-451 # e3d <.Lline_table_start1+0xc12>
   12a74:	458d                	li	a1,3
   12a76:	4601                	li	a2,0
   12a78:	4681                	li	a3,0
   12a7a:	00000073          	ecall
   12a7e:	00314483          	lbu	s1,3(sp)
   12a82:	00198513          	addi	a0,s3,1
   12a86:	02d00613          	li	a2,45
   12a8a:	85ca                	mv	a1,s2
   12a8c:	0000b097          	auipc	ra,0xb
   12a90:	cea080e7          	jalr	-790(ra) # 1d776 <memcpy>
   12a94:	4509                	li	a0,2
   12a96:	00098023          	sb	zero,0(s3)
   12a9a:	f6a499e3          	bne	s1,a0,12a0c <_ZN20complex_dynamic_type3app17h2f0d2fbeecc6dbc3E+0xda>
   12a9e:	b741                	j	12a1e <_ZN20complex_dynamic_type3app17h2f0d2fbeecc6dbc3E+0xec>

00012aa0 <_ZN20complex_dynamic_type3app17h302688ff3f1dd7a0E>:
   12aa0:	7119                	addi	sp,sp,-128
   12aa2:	de86                	sw	ra,124(sp)
   12aa4:	dca2                	sw	s0,120(sp)
   12aa6:	daa6                	sw	s1,116(sp)
   12aa8:	d8ca                	sw	s2,112(sp)
   12aaa:	d6ce                	sw	s3,108(sp)
   12aac:	89aa                	mv	s3,a0
   12aae:	4409                	li	s0,2
   12ab0:	00810223          	sb	s0,4(sp)
   12ab4:	00510493          	addi	s1,sp,5
   12ab8:	02e00613          	li	a2,46
   12abc:	8526                	mv	a0,s1
   12abe:	0000b097          	auipc	ra,0xb
   12ac2:	cb8080e7          	jalr	-840(ra) # 1d776 <memcpy>
   12ac6:	03410913          	addi	s2,sp,52
   12aca:	03800613          	li	a2,56
   12ace:	854a                	mv	a0,s2
   12ad0:	4581                	li	a1,0
   12ad2:	0000b097          	auipc	ra,0xb
   12ad6:	c38080e7          	jalr	-968(ra) # 1d70a <memset>
   12ada:	8626                	mv	a2,s1
   12adc:	028109a3          	sb	s0,51(sp)
   12ae0:	6505                	lui	a0,0x1
   12ae2:	4491                	li	s1,4
   12ae4:	45a5                	li	a1,9
   12ae6:	a9d50793          	addi	a5,a0,-1379 # a9d <.Lline_table_start1+0x872>
   12aea:	02e00693          	li	a3,46
   12aee:	4711                	li	a4,4
   12af0:	853e                	mv	a0,a5
   12af2:	00000073          	ecall
   12af6:	00851863          	bne	a0,s0,12b06 <_ZN20complex_dynamic_type3app17h302688ff3f1dd7a0E+0x66>
   12afa:	4505                	li	a0,1
   12afc:	00a98023          	sb	a0,0(s3)
   12b00:	00b9a223          	sw	a1,4(s3)
   12b04:	a0bd                	j	12b72 <_ZN20complex_dynamic_type3app17h302688ff3f1dd7a0E+0xd2>
   12b06:	853e                	mv	a0,a5
   12b08:	864a                	mv	a2,s2
   12b0a:	00910223          	sb	s1,4(sp)
   12b0e:	478d                	li	a5,3
   12b10:	45a5                	li	a1,9
   12b12:	03800693          	li	a3,56
   12b16:	470d                	li	a4,3
   12b18:	00000073          	ecall
   12b1c:	00851d63          	bne	a0,s0,12b36 <_ZN20complex_dynamic_type3app17h302688ff3f1dd7a0E+0x96>
   12b20:	03314703          	lbu	a4,51(sp)
   12b24:	4505                	li	a0,1
   12b26:	4609                	li	a2,2
   12b28:	00a98023          	sb	a0,0(s3)
   12b2c:	00b9a223          	sw	a1,4(s3)
   12b30:	02c71963          	bne	a4,a2,12b62 <_ZN20complex_dynamic_type3app17h302688ff3f1dd7a0E+0xc2>
   12b34:	a83d                	j	12b72 <_ZN20complex_dynamic_type3app17h302688ff3f1dd7a0E+0xd2>
   12b36:	4681                	li	a3,0
   12b38:	02f109a3          	sb	a5,51(sp)
   12b3c:	6505                	lui	a0,0x1
   12b3e:	45a5                	li	a1,9
   12b40:	4625                	li	a2,9
   12b42:	4709                	li	a4,2
   12b44:	a9d50513          	addi	a0,a0,-1379 # a9d <.Lline_table_start1+0x872>
   12b48:	07f00793          	li	a5,127
   12b4c:	00000073          	ecall
   12b50:	4609                	li	a2,2
   12b52:	04a7e563          	bltu	a5,a0,12b9c <_ZN20complex_dynamic_type3app17h302688ff3f1dd7a0E+0xfc>
   12b56:	4505                	li	a0,1
   12b58:	00a98023          	sb	a0,0(s3)
   12b5c:	00b9a223          	sw	a1,4(s3)
   12b60:	470d                	li	a4,3
   12b62:	6505                	lui	a0,0x1
   12b64:	a9d50513          	addi	a0,a0,-1379 # a9d <.Lline_table_start1+0x872>
   12b68:	45a5                	li	a1,9
   12b6a:	4601                	li	a2,0
   12b6c:	4681                	li	a3,0
   12b6e:	00000073          	ecall
   12b72:	00414483          	lbu	s1,4(sp)
   12b76:	4509                	li	a0,2
   12b78:	00a48b63          	beq	s1,a0,12b8e <_ZN20complex_dynamic_type3app17h302688ff3f1dd7a0E+0xee>
   12b7c:	6505                	lui	a0,0x1
   12b7e:	a9d50513          	addi	a0,a0,-1379 # a9d <.Lline_table_start1+0x872>
   12b82:	45a5                	li	a1,9
   12b84:	4601                	li	a2,0
   12b86:	4681                	li	a3,0
   12b88:	8726                	mv	a4,s1
   12b8a:	00000073          	ecall
   12b8e:	50f6                	lw	ra,124(sp)
   12b90:	5466                	lw	s0,120(sp)
   12b92:	54d6                	lw	s1,116(sp)
   12b94:	5946                	lw	s2,112(sp)
   12b96:	59b6                	lw	s3,108(sp)
   12b98:	6109                	addi	sp,sp,128
   12b9a:	8082                	ret
   12b9c:	00414703          	lbu	a4,4(sp)
   12ba0:	00c71463          	bne	a4,a2,12ba8 <_ZN20complex_dynamic_type3app17h302688ff3f1dd7a0E+0x108>
   12ba4:	470d                	li	a4,3
   12ba6:	a825                	j	12bde <_ZN20complex_dynamic_type3app17h302688ff3f1dd7a0E+0x13e>
   12ba8:	6505                	lui	a0,0x1
   12baa:	a9d50513          	addi	a0,a0,-1379 # a9d <.Lline_table_start1+0x872>
   12bae:	45a5                	li	a1,9
   12bb0:	4601                	li	a2,0
   12bb2:	4681                	li	a3,0
   12bb4:	00000073          	ecall
   12bb8:	03314703          	lbu	a4,51(sp)
   12bbc:	4509                	li	a0,2
   12bbe:	00a10223          	sb	a0,4(sp)
   12bc2:	00a71e63          	bne	a4,a0,12bde <_ZN20complex_dynamic_type3app17h302688ff3f1dd7a0E+0x13e>
   12bc6:	00198513          	addi	a0,s3,1
   12bca:	03800613          	li	a2,56
   12bce:	85ca                	mv	a1,s2
   12bd0:	0000b097          	auipc	ra,0xb
   12bd4:	ba6080e7          	jalr	-1114(ra) # 1d776 <memcpy>
   12bd8:	00098023          	sb	zero,0(s3)
   12bdc:	bf4d                	j	12b8e <_ZN20complex_dynamic_type3app17h302688ff3f1dd7a0E+0xee>
   12bde:	6505                	lui	a0,0x1
   12be0:	a9d50513          	addi	a0,a0,-1379 # a9d <.Lline_table_start1+0x872>
   12be4:	45a5                	li	a1,9
   12be6:	4601                	li	a2,0
   12be8:	4681                	li	a3,0
   12bea:	00000073          	ecall
   12bee:	00414483          	lbu	s1,4(sp)
   12bf2:	00198513          	addi	a0,s3,1
   12bf6:	03800613          	li	a2,56
   12bfa:	85ca                	mv	a1,s2
   12bfc:	0000b097          	auipc	ra,0xb
   12c00:	b7a080e7          	jalr	-1158(ra) # 1d776 <memcpy>
   12c04:	4509                	li	a0,2
   12c06:	00098023          	sb	zero,0(s3)
   12c0a:	f6a499e3          	bne	s1,a0,12b7c <_ZN20complex_dynamic_type3app17h302688ff3f1dd7a0E+0xdc>
   12c0e:	b741                	j	12b8e <_ZN20complex_dynamic_type3app17h302688ff3f1dd7a0E+0xee>

00012c10 <_ZN20complex_dynamic_type3app17h34489dfa8f16c9f5E>:
   12c10:	711d                	addi	sp,sp,-96
   12c12:	ce86                	sw	ra,92(sp)
   12c14:	cca2                	sw	s0,88(sp)
   12c16:	caa6                	sw	s1,84(sp)
   12c18:	c8ca                	sw	s2,80(sp)
   12c1a:	c6ce                	sw	s3,76(sp)
   12c1c:	89aa                	mv	s3,a0
   12c1e:	4409                	li	s0,2
   12c20:	008101a3          	sb	s0,3(sp)
   12c24:	0044                	addi	s1,sp,4
   12c26:	02300613          	li	a2,35
   12c2a:	8526                	mv	a0,s1
   12c2c:	0000b097          	auipc	ra,0xb
   12c30:	b4a080e7          	jalr	-1206(ra) # 1d776 <memcpy>
   12c34:	02810913          	addi	s2,sp,40
   12c38:	02400613          	li	a2,36
   12c3c:	854a                	mv	a0,s2
   12c3e:	4581                	li	a1,0
   12c40:	0000b097          	auipc	ra,0xb
   12c44:	aca080e7          	jalr	-1334(ra) # 1d70a <memset>
   12c48:	8626                	mv	a2,s1
   12c4a:	028103a3          	sb	s0,39(sp)
   12c4e:	6509                	lui	a0,0x2
   12c50:	4491                	li	s1,4
   12c52:	4591                	li	a1,4
   12c54:	bd650793          	addi	a5,a0,-1066 # 1bd6 <.Lline_table_start1+0x19ab>
   12c58:	02300693          	li	a3,35
   12c5c:	4711                	li	a4,4
   12c5e:	853e                	mv	a0,a5
   12c60:	00000073          	ecall
   12c64:	00851863          	bne	a0,s0,12c74 <_ZN20complex_dynamic_type3app17h34489dfa8f16c9f5E+0x64>
   12c68:	4505                	li	a0,1
   12c6a:	00a98023          	sb	a0,0(s3)
   12c6e:	00b9a223          	sw	a1,4(s3)
   12c72:	a0bd                	j	12ce0 <_ZN20complex_dynamic_type3app17h34489dfa8f16c9f5E+0xd0>
   12c74:	853e                	mv	a0,a5
   12c76:	864a                	mv	a2,s2
   12c78:	009101a3          	sb	s1,3(sp)
   12c7c:	478d                	li	a5,3
   12c7e:	45a1                	li	a1,8
   12c80:	02400693          	li	a3,36
   12c84:	470d                	li	a4,3
   12c86:	00000073          	ecall
   12c8a:	00851d63          	bne	a0,s0,12ca4 <_ZN20complex_dynamic_type3app17h34489dfa8f16c9f5E+0x94>
   12c8e:	02714703          	lbu	a4,39(sp)
   12c92:	4505                	li	a0,1
   12c94:	4609                	li	a2,2
   12c96:	00a98023          	sb	a0,0(s3)
   12c9a:	00b9a223          	sw	a1,4(s3)
   12c9e:	02c71963          	bne	a4,a2,12cd0 <_ZN20complex_dynamic_type3app17h34489dfa8f16c9f5E+0xc0>
   12ca2:	a83d                	j	12ce0 <_ZN20complex_dynamic_type3app17h34489dfa8f16c9f5E+0xd0>
   12ca4:	4681                	li	a3,0
   12ca6:	02f103a3          	sb	a5,39(sp)
   12caa:	6509                	lui	a0,0x2
   12cac:	4591                	li	a1,4
   12cae:	4621                	li	a2,8
   12cb0:	4709                	li	a4,2
   12cb2:	bd650513          	addi	a0,a0,-1066 # 1bd6 <.Lline_table_start1+0x19ab>
   12cb6:	07f00793          	li	a5,127
   12cba:	00000073          	ecall
   12cbe:	4609                	li	a2,2
   12cc0:	04a7e563          	bltu	a5,a0,12d0a <_ZN20complex_dynamic_type3app17h34489dfa8f16c9f5E+0xfa>
   12cc4:	4505                	li	a0,1
   12cc6:	00a98023          	sb	a0,0(s3)
   12cca:	00b9a223          	sw	a1,4(s3)
   12cce:	470d                	li	a4,3
   12cd0:	6509                	lui	a0,0x2
   12cd2:	bd650513          	addi	a0,a0,-1066 # 1bd6 <.Lline_table_start1+0x19ab>
   12cd6:	45a1                	li	a1,8
   12cd8:	4601                	li	a2,0
   12cda:	4681                	li	a3,0
   12cdc:	00000073          	ecall
   12ce0:	00314483          	lbu	s1,3(sp)
   12ce4:	4509                	li	a0,2
   12ce6:	00a48b63          	beq	s1,a0,12cfc <_ZN20complex_dynamic_type3app17h34489dfa8f16c9f5E+0xec>
   12cea:	6509                	lui	a0,0x2
   12cec:	bd650513          	addi	a0,a0,-1066 # 1bd6 <.Lline_table_start1+0x19ab>
   12cf0:	4591                	li	a1,4
   12cf2:	4601                	li	a2,0
   12cf4:	4681                	li	a3,0
   12cf6:	8726                	mv	a4,s1
   12cf8:	00000073          	ecall
   12cfc:	40f6                	lw	ra,92(sp)
   12cfe:	4466                	lw	s0,88(sp)
   12d00:	44d6                	lw	s1,84(sp)
   12d02:	4946                	lw	s2,80(sp)
   12d04:	49b6                	lw	s3,76(sp)
   12d06:	6125                	addi	sp,sp,96
   12d08:	8082                	ret
   12d0a:	00314703          	lbu	a4,3(sp)
   12d0e:	00c71463          	bne	a4,a2,12d16 <_ZN20complex_dynamic_type3app17h34489dfa8f16c9f5E+0x106>
   12d12:	470d                	li	a4,3
   12d14:	a825                	j	12d4c <_ZN20complex_dynamic_type3app17h34489dfa8f16c9f5E+0x13c>
   12d16:	6509                	lui	a0,0x2
   12d18:	bd650513          	addi	a0,a0,-1066 # 1bd6 <.Lline_table_start1+0x19ab>
   12d1c:	4591                	li	a1,4
   12d1e:	4601                	li	a2,0
   12d20:	4681                	li	a3,0
   12d22:	00000073          	ecall
   12d26:	02714703          	lbu	a4,39(sp)
   12d2a:	4509                	li	a0,2
   12d2c:	00a101a3          	sb	a0,3(sp)
   12d30:	00a71e63          	bne	a4,a0,12d4c <_ZN20complex_dynamic_type3app17h34489dfa8f16c9f5E+0x13c>
   12d34:	00198513          	addi	a0,s3,1
   12d38:	02400613          	li	a2,36
   12d3c:	85ca                	mv	a1,s2
   12d3e:	0000b097          	auipc	ra,0xb
   12d42:	a38080e7          	jalr	-1480(ra) # 1d776 <memcpy>
   12d46:	00098023          	sb	zero,0(s3)
   12d4a:	bf4d                	j	12cfc <_ZN20complex_dynamic_type3app17h34489dfa8f16c9f5E+0xec>
   12d4c:	6509                	lui	a0,0x2
   12d4e:	bd650513          	addi	a0,a0,-1066 # 1bd6 <.Lline_table_start1+0x19ab>
   12d52:	45a1                	li	a1,8
   12d54:	4601                	li	a2,0
   12d56:	4681                	li	a3,0
   12d58:	00000073          	ecall
   12d5c:	00314483          	lbu	s1,3(sp)
   12d60:	00198513          	addi	a0,s3,1
   12d64:	02400613          	li	a2,36
   12d68:	85ca                	mv	a1,s2
   12d6a:	0000b097          	auipc	ra,0xb
   12d6e:	a0c080e7          	jalr	-1524(ra) # 1d776 <memcpy>
   12d72:	4509                	li	a0,2
   12d74:	00098023          	sb	zero,0(s3)
   12d78:	f6a499e3          	bne	s1,a0,12cea <_ZN20complex_dynamic_type3app17h34489dfa8f16c9f5E+0xda>
   12d7c:	b741                	j	12cfc <_ZN20complex_dynamic_type3app17h34489dfa8f16c9f5E+0xec>

00012d7e <_ZN20complex_dynamic_type3app17h433077b085f9f73bE>:
   12d7e:	7131                	addi	sp,sp,-192
   12d80:	df06                	sw	ra,188(sp)
   12d82:	dd22                	sw	s0,184(sp)
   12d84:	db26                	sw	s1,180(sp)
   12d86:	d94a                	sw	s2,176(sp)
   12d88:	d74e                	sw	s3,172(sp)
   12d8a:	89aa                	mv	s3,a0
   12d8c:	4409                	li	s0,2
   12d8e:	00810523          	sb	s0,10(sp)
   12d92:	00b10493          	addi	s1,sp,11
   12d96:	05100613          	li	a2,81
   12d9a:	8526                	mv	a0,s1
   12d9c:	0000b097          	auipc	ra,0xb
   12da0:	9da080e7          	jalr	-1574(ra) # 1d776 <memcpy>
   12da4:	05d10913          	addi	s2,sp,93
   12da8:	04f00613          	li	a2,79
   12dac:	854a                	mv	a0,s2
   12dae:	4581                	li	a1,0
   12db0:	0000b097          	auipc	ra,0xb
   12db4:	95a080e7          	jalr	-1702(ra) # 1d70a <memset>
   12db8:	8626                	mv	a2,s1
   12dba:	04810e23          	sb	s0,92(sp)
   12dbe:	6509                	lui	a0,0x2
   12dc0:	4491                	li	s1,4
   12dc2:	4591                	li	a1,4
   12dc4:	0ee50793          	addi	a5,a0,238 # 20ee <.Lline_table_start1+0x1ec3>
   12dc8:	05100693          	li	a3,81
   12dcc:	4711                	li	a4,4
   12dce:	853e                	mv	a0,a5
   12dd0:	00000073          	ecall
   12dd4:	00851863          	bne	a0,s0,12de4 <_ZN20complex_dynamic_type3app17h433077b085f9f73bE+0x66>
   12dd8:	4505                	li	a0,1
   12dda:	00a98023          	sb	a0,0(s3)
   12dde:	00b9a223          	sw	a1,4(s3)
   12de2:	a0bd                	j	12e50 <_ZN20complex_dynamic_type3app17h433077b085f9f73bE+0xd2>
   12de4:	853e                	mv	a0,a5
   12de6:	864a                	mv	a2,s2
   12de8:	00910523          	sb	s1,10(sp)
   12dec:	478d                	li	a5,3
   12dee:	45a5                	li	a1,9
   12df0:	04f00693          	li	a3,79
   12df4:	470d                	li	a4,3
   12df6:	00000073          	ecall
   12dfa:	00851d63          	bne	a0,s0,12e14 <_ZN20complex_dynamic_type3app17h433077b085f9f73bE+0x96>
   12dfe:	05c14703          	lbu	a4,92(sp)
   12e02:	4505                	li	a0,1
   12e04:	4609                	li	a2,2
   12e06:	00a98023          	sb	a0,0(s3)
   12e0a:	00b9a223          	sw	a1,4(s3)
   12e0e:	02c71963          	bne	a4,a2,12e40 <_ZN20complex_dynamic_type3app17h433077b085f9f73bE+0xc2>
   12e12:	a83d                	j	12e50 <_ZN20complex_dynamic_type3app17h433077b085f9f73bE+0xd2>
   12e14:	4681                	li	a3,0
   12e16:	04f10e23          	sb	a5,92(sp)
   12e1a:	6509                	lui	a0,0x2
   12e1c:	4591                	li	a1,4
   12e1e:	4625                	li	a2,9
   12e20:	4709                	li	a4,2
   12e22:	0ee50513          	addi	a0,a0,238 # 20ee <.Lline_table_start1+0x1ec3>
   12e26:	07f00793          	li	a5,127
   12e2a:	00000073          	ecall
   12e2e:	4609                	li	a2,2
   12e30:	04a7e563          	bltu	a5,a0,12e7a <_ZN20complex_dynamic_type3app17h433077b085f9f73bE+0xfc>
   12e34:	4505                	li	a0,1
   12e36:	00a98023          	sb	a0,0(s3)
   12e3a:	00b9a223          	sw	a1,4(s3)
   12e3e:	470d                	li	a4,3
   12e40:	6509                	lui	a0,0x2
   12e42:	0ee50513          	addi	a0,a0,238 # 20ee <.Lline_table_start1+0x1ec3>
   12e46:	45a5                	li	a1,9
   12e48:	4601                	li	a2,0
   12e4a:	4681                	li	a3,0
   12e4c:	00000073          	ecall
   12e50:	00a14483          	lbu	s1,10(sp)
   12e54:	4509                	li	a0,2
   12e56:	00a48b63          	beq	s1,a0,12e6c <_ZN20complex_dynamic_type3app17h433077b085f9f73bE+0xee>
   12e5a:	6509                	lui	a0,0x2
   12e5c:	0ee50513          	addi	a0,a0,238 # 20ee <.Lline_table_start1+0x1ec3>
   12e60:	4591                	li	a1,4
   12e62:	4601                	li	a2,0
   12e64:	4681                	li	a3,0
   12e66:	8726                	mv	a4,s1
   12e68:	00000073          	ecall
   12e6c:	50fa                	lw	ra,188(sp)
   12e6e:	546a                	lw	s0,184(sp)
   12e70:	54da                	lw	s1,180(sp)
   12e72:	594a                	lw	s2,176(sp)
   12e74:	59ba                	lw	s3,172(sp)
   12e76:	6129                	addi	sp,sp,192
   12e78:	8082                	ret
   12e7a:	00a14703          	lbu	a4,10(sp)
   12e7e:	00c71463          	bne	a4,a2,12e86 <_ZN20complex_dynamic_type3app17h433077b085f9f73bE+0x108>
   12e82:	470d                	li	a4,3
   12e84:	a825                	j	12ebc <_ZN20complex_dynamic_type3app17h433077b085f9f73bE+0x13e>
   12e86:	6509                	lui	a0,0x2
   12e88:	0ee50513          	addi	a0,a0,238 # 20ee <.Lline_table_start1+0x1ec3>
   12e8c:	4591                	li	a1,4
   12e8e:	4601                	li	a2,0
   12e90:	4681                	li	a3,0
   12e92:	00000073          	ecall
   12e96:	05c14703          	lbu	a4,92(sp)
   12e9a:	4509                	li	a0,2
   12e9c:	00a10523          	sb	a0,10(sp)
   12ea0:	00a71e63          	bne	a4,a0,12ebc <_ZN20complex_dynamic_type3app17h433077b085f9f73bE+0x13e>
   12ea4:	00198513          	addi	a0,s3,1
   12ea8:	04f00613          	li	a2,79
   12eac:	85ca                	mv	a1,s2
   12eae:	0000b097          	auipc	ra,0xb
   12eb2:	8c8080e7          	jalr	-1848(ra) # 1d776 <memcpy>
   12eb6:	00098023          	sb	zero,0(s3)
   12eba:	bf4d                	j	12e6c <_ZN20complex_dynamic_type3app17h433077b085f9f73bE+0xee>
   12ebc:	6509                	lui	a0,0x2
   12ebe:	0ee50513          	addi	a0,a0,238 # 20ee <.Lline_table_start1+0x1ec3>
   12ec2:	45a5                	li	a1,9
   12ec4:	4601                	li	a2,0
   12ec6:	4681                	li	a3,0
   12ec8:	00000073          	ecall
   12ecc:	00a14483          	lbu	s1,10(sp)
   12ed0:	00198513          	addi	a0,s3,1
   12ed4:	04f00613          	li	a2,79
   12ed8:	85ca                	mv	a1,s2
   12eda:	0000b097          	auipc	ra,0xb
   12ede:	89c080e7          	jalr	-1892(ra) # 1d776 <memcpy>
   12ee2:	4509                	li	a0,2
   12ee4:	00098023          	sb	zero,0(s3)
   12ee8:	f6a499e3          	bne	s1,a0,12e5a <_ZN20complex_dynamic_type3app17h433077b085f9f73bE+0xdc>
   12eec:	b741                	j	12e6c <_ZN20complex_dynamic_type3app17h433077b085f9f73bE+0xee>

00012eee <_ZN20complex_dynamic_type3app17h444e46a3869badb7E>:
   12eee:	7119                	addi	sp,sp,-128
   12ef0:	de86                	sw	ra,124(sp)
   12ef2:	dca2                	sw	s0,120(sp)
   12ef4:	daa6                	sw	s1,116(sp)
   12ef6:	d8ca                	sw	s2,112(sp)
   12ef8:	d6ce                	sw	s3,108(sp)
   12efa:	89aa                	mv	s3,a0
   12efc:	4409                	li	s0,2
   12efe:	00810023          	sb	s0,0(sp)
   12f02:	00110493          	addi	s1,sp,1
   12f06:	4669                	li	a2,26
   12f08:	8526                	mv	a0,s1
   12f0a:	0000b097          	auipc	ra,0xb
   12f0e:	86c080e7          	jalr	-1940(ra) # 1d776 <memcpy>
   12f12:	01c10913          	addi	s2,sp,28
   12f16:	05000613          	li	a2,80
   12f1a:	854a                	mv	a0,s2
   12f1c:	4581                	li	a1,0
   12f1e:	0000a097          	auipc	ra,0xa
   12f22:	7ec080e7          	jalr	2028(ra) # 1d70a <memset>
   12f26:	8626                	mv	a2,s1
   12f28:	00810da3          	sb	s0,27(sp)
   12f2c:	6505                	lui	a0,0x1
   12f2e:	4491                	li	s1,4
   12f30:	459d                	li	a1,7
   12f32:	aee50793          	addi	a5,a0,-1298 # aee <.Lline_table_start1+0x8c3>
   12f36:	46e9                	li	a3,26
   12f38:	4711                	li	a4,4
   12f3a:	853e                	mv	a0,a5
   12f3c:	00000073          	ecall
   12f40:	00851863          	bne	a0,s0,12f50 <_ZN20complex_dynamic_type3app17h444e46a3869badb7E+0x62>
   12f44:	4505                	li	a0,1
   12f46:	00a98023          	sb	a0,0(s3)
   12f4a:	00b9a223          	sw	a1,4(s3)
   12f4e:	a0bd                	j	12fbc <_ZN20complex_dynamic_type3app17h444e46a3869badb7E+0xce>
   12f50:	853e                	mv	a0,a5
   12f52:	864a                	mv	a2,s2
   12f54:	00910023          	sb	s1,0(sp)
   12f58:	478d                	li	a5,3
   12f5a:	4591                	li	a1,4
   12f5c:	05000693          	li	a3,80
   12f60:	470d                	li	a4,3
   12f62:	00000073          	ecall
   12f66:	00851d63          	bne	a0,s0,12f80 <_ZN20complex_dynamic_type3app17h444e46a3869badb7E+0x92>
   12f6a:	01b14703          	lbu	a4,27(sp)
   12f6e:	4505                	li	a0,1
   12f70:	4609                	li	a2,2
   12f72:	00a98023          	sb	a0,0(s3)
   12f76:	00b9a223          	sw	a1,4(s3)
   12f7a:	02c71963          	bne	a4,a2,12fac <_ZN20complex_dynamic_type3app17h444e46a3869badb7E+0xbe>
   12f7e:	a83d                	j	12fbc <_ZN20complex_dynamic_type3app17h444e46a3869badb7E+0xce>
   12f80:	4681                	li	a3,0
   12f82:	00f10da3          	sb	a5,27(sp)
   12f86:	6505                	lui	a0,0x1
   12f88:	459d                	li	a1,7
   12f8a:	4611                	li	a2,4
   12f8c:	4709                	li	a4,2
   12f8e:	aee50513          	addi	a0,a0,-1298 # aee <.Lline_table_start1+0x8c3>
   12f92:	07f00793          	li	a5,127
   12f96:	00000073          	ecall
   12f9a:	4609                	li	a2,2
   12f9c:	04a7e563          	bltu	a5,a0,12fe6 <_ZN20complex_dynamic_type3app17h444e46a3869badb7E+0xf8>
   12fa0:	4505                	li	a0,1
   12fa2:	00a98023          	sb	a0,0(s3)
   12fa6:	00b9a223          	sw	a1,4(s3)
   12faa:	470d                	li	a4,3
   12fac:	6505                	lui	a0,0x1
   12fae:	aee50513          	addi	a0,a0,-1298 # aee <.Lline_table_start1+0x8c3>
   12fb2:	4591                	li	a1,4
   12fb4:	4601                	li	a2,0
   12fb6:	4681                	li	a3,0
   12fb8:	00000073          	ecall
   12fbc:	00014483          	lbu	s1,0(sp)
   12fc0:	4509                	li	a0,2
   12fc2:	00a48b63          	beq	s1,a0,12fd8 <_ZN20complex_dynamic_type3app17h444e46a3869badb7E+0xea>
   12fc6:	6505                	lui	a0,0x1
   12fc8:	aee50513          	addi	a0,a0,-1298 # aee <.Lline_table_start1+0x8c3>
   12fcc:	459d                	li	a1,7
   12fce:	4601                	li	a2,0
   12fd0:	4681                	li	a3,0
   12fd2:	8726                	mv	a4,s1
   12fd4:	00000073          	ecall
   12fd8:	50f6                	lw	ra,124(sp)
   12fda:	5466                	lw	s0,120(sp)
   12fdc:	54d6                	lw	s1,116(sp)
   12fde:	5946                	lw	s2,112(sp)
   12fe0:	59b6                	lw	s3,108(sp)
   12fe2:	6109                	addi	sp,sp,128
   12fe4:	8082                	ret
   12fe6:	00014703          	lbu	a4,0(sp)
   12fea:	00c71463          	bne	a4,a2,12ff2 <_ZN20complex_dynamic_type3app17h444e46a3869badb7E+0x104>
   12fee:	470d                	li	a4,3
   12ff0:	a825                	j	13028 <_ZN20complex_dynamic_type3app17h444e46a3869badb7E+0x13a>
   12ff2:	6505                	lui	a0,0x1
   12ff4:	aee50513          	addi	a0,a0,-1298 # aee <.Lline_table_start1+0x8c3>
   12ff8:	459d                	li	a1,7
   12ffa:	4601                	li	a2,0
   12ffc:	4681                	li	a3,0
   12ffe:	00000073          	ecall
   13002:	01b14703          	lbu	a4,27(sp)
   13006:	4509                	li	a0,2
   13008:	00a10023          	sb	a0,0(sp)
   1300c:	00a71e63          	bne	a4,a0,13028 <_ZN20complex_dynamic_type3app17h444e46a3869badb7E+0x13a>
   13010:	00198513          	addi	a0,s3,1
   13014:	05000613          	li	a2,80
   13018:	85ca                	mv	a1,s2
   1301a:	0000a097          	auipc	ra,0xa
   1301e:	75c080e7          	jalr	1884(ra) # 1d776 <memcpy>
   13022:	00098023          	sb	zero,0(s3)
   13026:	bf4d                	j	12fd8 <_ZN20complex_dynamic_type3app17h444e46a3869badb7E+0xea>
   13028:	6505                	lui	a0,0x1
   1302a:	aee50513          	addi	a0,a0,-1298 # aee <.Lline_table_start1+0x8c3>
   1302e:	4591                	li	a1,4
   13030:	4601                	li	a2,0
   13032:	4681                	li	a3,0
   13034:	00000073          	ecall
   13038:	00014483          	lbu	s1,0(sp)
   1303c:	00198513          	addi	a0,s3,1
   13040:	05000613          	li	a2,80
   13044:	85ca                	mv	a1,s2
   13046:	0000a097          	auipc	ra,0xa
   1304a:	730080e7          	jalr	1840(ra) # 1d776 <memcpy>
   1304e:	4509                	li	a0,2
   13050:	00098023          	sb	zero,0(s3)
   13054:	f6a499e3          	bne	s1,a0,12fc6 <_ZN20complex_dynamic_type3app17h444e46a3869badb7E+0xd8>
   13058:	b741                	j	12fd8 <_ZN20complex_dynamic_type3app17h444e46a3869badb7E+0xea>

0001305a <_ZN20complex_dynamic_type3app17h44b2456fbc25fc0dE>:
   1305a:	711d                	addi	sp,sp,-96
   1305c:	ce86                	sw	ra,92(sp)
   1305e:	cca2                	sw	s0,88(sp)
   13060:	caa6                	sw	s1,84(sp)
   13062:	c8ca                	sw	s2,80(sp)
   13064:	c6ce                	sw	s3,76(sp)
   13066:	89aa                	mv	s3,a0
   13068:	4409                	li	s0,2
   1306a:	008102a3          	sb	s0,5(sp)
   1306e:	00610493          	addi	s1,sp,6
   13072:	02700613          	li	a2,39
   13076:	8526                	mv	a0,s1
   13078:	0000a097          	auipc	ra,0xa
   1307c:	6fe080e7          	jalr	1790(ra) # 1d776 <memcpy>
   13080:	02e10913          	addi	s2,sp,46
   13084:	4679                	li	a2,30
   13086:	854a                	mv	a0,s2
   13088:	4581                	li	a1,0
   1308a:	0000a097          	auipc	ra,0xa
   1308e:	680080e7          	jalr	1664(ra) # 1d70a <memset>
   13092:	8626                	mv	a2,s1
   13094:	028106a3          	sb	s0,45(sp)
   13098:	6505                	lui	a0,0x1
   1309a:	4491                	li	s1,4
   1309c:	458d                	li	a1,3
   1309e:	0e250793          	addi	a5,a0,226 # 10e2 <.Lline_table_start1+0xeb7>
   130a2:	02700693          	li	a3,39
   130a6:	4711                	li	a4,4
   130a8:	853e                	mv	a0,a5
   130aa:	00000073          	ecall
   130ae:	00851863          	bne	a0,s0,130be <_ZN20complex_dynamic_type3app17h44b2456fbc25fc0dE+0x64>
   130b2:	4505                	li	a0,1
   130b4:	00a98023          	sb	a0,0(s3)
   130b8:	00b9a223          	sw	a1,4(s3)
   130bc:	a0b5                	j	13128 <_ZN20complex_dynamic_type3app17h44b2456fbc25fc0dE+0xce>
   130be:	853e                	mv	a0,a5
   130c0:	864a                	mv	a2,s2
   130c2:	009102a3          	sb	s1,5(sp)
   130c6:	478d                	li	a5,3
   130c8:	458d                	li	a1,3
   130ca:	46f9                	li	a3,30
   130cc:	470d                	li	a4,3
   130ce:	00000073          	ecall
   130d2:	00851d63          	bne	a0,s0,130ec <_ZN20complex_dynamic_type3app17h44b2456fbc25fc0dE+0x92>
   130d6:	02d14703          	lbu	a4,45(sp)
   130da:	4505                	li	a0,1
   130dc:	4609                	li	a2,2
   130de:	00a98023          	sb	a0,0(s3)
   130e2:	00b9a223          	sw	a1,4(s3)
   130e6:	02c71963          	bne	a4,a2,13118 <_ZN20complex_dynamic_type3app17h44b2456fbc25fc0dE+0xbe>
   130ea:	a83d                	j	13128 <_ZN20complex_dynamic_type3app17h44b2456fbc25fc0dE+0xce>
   130ec:	4681                	li	a3,0
   130ee:	02f106a3          	sb	a5,45(sp)
   130f2:	6505                	lui	a0,0x1
   130f4:	458d                	li	a1,3
   130f6:	460d                	li	a2,3
   130f8:	4709                	li	a4,2
   130fa:	0e250513          	addi	a0,a0,226 # 10e2 <.Lline_table_start1+0xeb7>
   130fe:	07f00793          	li	a5,127
   13102:	00000073          	ecall
   13106:	4609                	li	a2,2
   13108:	04a7e563          	bltu	a5,a0,13152 <_ZN20complex_dynamic_type3app17h44b2456fbc25fc0dE+0xf8>
   1310c:	4505                	li	a0,1
   1310e:	00a98023          	sb	a0,0(s3)
   13112:	00b9a223          	sw	a1,4(s3)
   13116:	470d                	li	a4,3
   13118:	6505                	lui	a0,0x1
   1311a:	0e250513          	addi	a0,a0,226 # 10e2 <.Lline_table_start1+0xeb7>
   1311e:	458d                	li	a1,3
   13120:	4601                	li	a2,0
   13122:	4681                	li	a3,0
   13124:	00000073          	ecall
   13128:	00514483          	lbu	s1,5(sp)
   1312c:	4509                	li	a0,2
   1312e:	00a48b63          	beq	s1,a0,13144 <_ZN20complex_dynamic_type3app17h44b2456fbc25fc0dE+0xea>
   13132:	6505                	lui	a0,0x1
   13134:	0e250513          	addi	a0,a0,226 # 10e2 <.Lline_table_start1+0xeb7>
   13138:	458d                	li	a1,3
   1313a:	4601                	li	a2,0
   1313c:	4681                	li	a3,0
   1313e:	8726                	mv	a4,s1
   13140:	00000073          	ecall
   13144:	40f6                	lw	ra,92(sp)
   13146:	4466                	lw	s0,88(sp)
   13148:	44d6                	lw	s1,84(sp)
   1314a:	4946                	lw	s2,80(sp)
   1314c:	49b6                	lw	s3,76(sp)
   1314e:	6125                	addi	sp,sp,96
   13150:	8082                	ret
   13152:	00514703          	lbu	a4,5(sp)
   13156:	00c71463          	bne	a4,a2,1315e <_ZN20complex_dynamic_type3app17h44b2456fbc25fc0dE+0x104>
   1315a:	470d                	li	a4,3
   1315c:	a81d                	j	13192 <_ZN20complex_dynamic_type3app17h44b2456fbc25fc0dE+0x138>
   1315e:	6505                	lui	a0,0x1
   13160:	0e250513          	addi	a0,a0,226 # 10e2 <.Lline_table_start1+0xeb7>
   13164:	458d                	li	a1,3
   13166:	4601                	li	a2,0
   13168:	4681                	li	a3,0
   1316a:	00000073          	ecall
   1316e:	02d14703          	lbu	a4,45(sp)
   13172:	4509                	li	a0,2
   13174:	00a102a3          	sb	a0,5(sp)
   13178:	00a71d63          	bne	a4,a0,13192 <_ZN20complex_dynamic_type3app17h44b2456fbc25fc0dE+0x138>
   1317c:	00198513          	addi	a0,s3,1
   13180:	4679                	li	a2,30
   13182:	85ca                	mv	a1,s2
   13184:	0000a097          	auipc	ra,0xa
   13188:	5f2080e7          	jalr	1522(ra) # 1d776 <memcpy>
   1318c:	00098023          	sb	zero,0(s3)
   13190:	bf55                	j	13144 <_ZN20complex_dynamic_type3app17h44b2456fbc25fc0dE+0xea>
   13192:	6505                	lui	a0,0x1
   13194:	0e250513          	addi	a0,a0,226 # 10e2 <.Lline_table_start1+0xeb7>
   13198:	458d                	li	a1,3
   1319a:	4601                	li	a2,0
   1319c:	4681                	li	a3,0
   1319e:	00000073          	ecall
   131a2:	00514483          	lbu	s1,5(sp)
   131a6:	00198513          	addi	a0,s3,1
   131aa:	4679                	li	a2,30
   131ac:	85ca                	mv	a1,s2
   131ae:	0000a097          	auipc	ra,0xa
   131b2:	5c8080e7          	jalr	1480(ra) # 1d776 <memcpy>
   131b6:	4509                	li	a0,2
   131b8:	00098023          	sb	zero,0(s3)
   131bc:	f6a49be3          	bne	s1,a0,13132 <_ZN20complex_dynamic_type3app17h44b2456fbc25fc0dE+0xd8>
   131c0:	b751                	j	13144 <_ZN20complex_dynamic_type3app17h44b2456fbc25fc0dE+0xea>

000131c2 <_ZN20complex_dynamic_type3app17h46012967a3e9e75aE>:
   131c2:	7175                	addi	sp,sp,-144
   131c4:	c706                	sw	ra,140(sp)
   131c6:	c522                	sw	s0,136(sp)
   131c8:	c326                	sw	s1,132(sp)
   131ca:	c14a                	sw	s2,128(sp)
   131cc:	dece                	sw	s3,124(sp)
   131ce:	89aa                	mv	s3,a0
   131d0:	4409                	li	s0,2
   131d2:	00810223          	sb	s0,4(sp)
   131d6:	00510493          	addi	s1,sp,5
   131da:	02700613          	li	a2,39
   131de:	8526                	mv	a0,s1
   131e0:	0000a097          	auipc	ra,0xa
   131e4:	596080e7          	jalr	1430(ra) # 1d776 <memcpy>
   131e8:	02d10913          	addi	s2,sp,45
   131ec:	04f00613          	li	a2,79
   131f0:	854a                	mv	a0,s2
   131f2:	4581                	li	a1,0
   131f4:	0000a097          	auipc	ra,0xa
   131f8:	516080e7          	jalr	1302(ra) # 1d70a <memset>
   131fc:	8626                	mv	a2,s1
   131fe:	02810623          	sb	s0,44(sp)
   13202:	6505                	lui	a0,0x1
   13204:	4491                	li	s1,4
   13206:	45a5                	li	a1,9
   13208:	b4c50793          	addi	a5,a0,-1204 # b4c <.Lline_table_start1+0x921>
   1320c:	02700693          	li	a3,39
   13210:	4711                	li	a4,4
   13212:	853e                	mv	a0,a5
   13214:	00000073          	ecall
   13218:	00851863          	bne	a0,s0,13228 <_ZN20complex_dynamic_type3app17h46012967a3e9e75aE+0x66>
   1321c:	4505                	li	a0,1
   1321e:	00a98023          	sb	a0,0(s3)
   13222:	00b9a223          	sw	a1,4(s3)
   13226:	a0bd                	j	13294 <_ZN20complex_dynamic_type3app17h46012967a3e9e75aE+0xd2>
   13228:	853e                	mv	a0,a5
   1322a:	4581                	li	a1,0
   1322c:	864a                	mv	a2,s2
   1322e:	00910223          	sb	s1,4(sp)
   13232:	478d                	li	a5,3
   13234:	04f00693          	li	a3,79
   13238:	470d                	li	a4,3
   1323a:	00000073          	ecall
   1323e:	00851d63          	bne	a0,s0,13258 <_ZN20complex_dynamic_type3app17h46012967a3e9e75aE+0x96>
   13242:	02c14703          	lbu	a4,44(sp)
   13246:	4505                	li	a0,1
   13248:	4609                	li	a2,2
   1324a:	00a98023          	sb	a0,0(s3)
   1324e:	00b9a223          	sw	a1,4(s3)
   13252:	02c71963          	bne	a4,a2,13284 <_ZN20complex_dynamic_type3app17h46012967a3e9e75aE+0xc2>
   13256:	a83d                	j	13294 <_ZN20complex_dynamic_type3app17h46012967a3e9e75aE+0xd2>
   13258:	4601                	li	a2,0
   1325a:	4681                	li	a3,0
   1325c:	02f10623          	sb	a5,44(sp)
   13260:	6505                	lui	a0,0x1
   13262:	45a5                	li	a1,9
   13264:	4709                	li	a4,2
   13266:	b4c50513          	addi	a0,a0,-1204 # b4c <.Lline_table_start1+0x921>
   1326a:	07f00793          	li	a5,127
   1326e:	00000073          	ecall
   13272:	4609                	li	a2,2
   13274:	04a7e563          	bltu	a5,a0,132be <_ZN20complex_dynamic_type3app17h46012967a3e9e75aE+0xfc>
   13278:	4505                	li	a0,1
   1327a:	00a98023          	sb	a0,0(s3)
   1327e:	00b9a223          	sw	a1,4(s3)
   13282:	470d                	li	a4,3
   13284:	6505                	lui	a0,0x1
   13286:	b4c50513          	addi	a0,a0,-1204 # b4c <.Lline_table_start1+0x921>
   1328a:	4581                	li	a1,0
   1328c:	4601                	li	a2,0
   1328e:	4681                	li	a3,0
   13290:	00000073          	ecall
   13294:	00414483          	lbu	s1,4(sp)
   13298:	4509                	li	a0,2
   1329a:	00a48b63          	beq	s1,a0,132b0 <_ZN20complex_dynamic_type3app17h46012967a3e9e75aE+0xee>
   1329e:	6505                	lui	a0,0x1
   132a0:	b4c50513          	addi	a0,a0,-1204 # b4c <.Lline_table_start1+0x921>
   132a4:	45a5                	li	a1,9
   132a6:	4601                	li	a2,0
   132a8:	4681                	li	a3,0
   132aa:	8726                	mv	a4,s1
   132ac:	00000073          	ecall
   132b0:	40ba                	lw	ra,140(sp)
   132b2:	442a                	lw	s0,136(sp)
   132b4:	449a                	lw	s1,132(sp)
   132b6:	490a                	lw	s2,128(sp)
   132b8:	59f6                	lw	s3,124(sp)
   132ba:	6149                	addi	sp,sp,144
   132bc:	8082                	ret
   132be:	00414703          	lbu	a4,4(sp)
   132c2:	00c71463          	bne	a4,a2,132ca <_ZN20complex_dynamic_type3app17h46012967a3e9e75aE+0x108>
   132c6:	470d                	li	a4,3
   132c8:	a825                	j	13300 <_ZN20complex_dynamic_type3app17h46012967a3e9e75aE+0x13e>
   132ca:	6505                	lui	a0,0x1
   132cc:	b4c50513          	addi	a0,a0,-1204 # b4c <.Lline_table_start1+0x921>
   132d0:	45a5                	li	a1,9
   132d2:	4601                	li	a2,0
   132d4:	4681                	li	a3,0
   132d6:	00000073          	ecall
   132da:	02c14703          	lbu	a4,44(sp)
   132de:	4509                	li	a0,2
   132e0:	00a10223          	sb	a0,4(sp)
   132e4:	00a71e63          	bne	a4,a0,13300 <_ZN20complex_dynamic_type3app17h46012967a3e9e75aE+0x13e>
   132e8:	00198513          	addi	a0,s3,1
   132ec:	04f00613          	li	a2,79
   132f0:	85ca                	mv	a1,s2
   132f2:	0000a097          	auipc	ra,0xa
   132f6:	484080e7          	jalr	1156(ra) # 1d776 <memcpy>
   132fa:	00098023          	sb	zero,0(s3)
   132fe:	bf4d                	j	132b0 <_ZN20complex_dynamic_type3app17h46012967a3e9e75aE+0xee>
   13300:	6505                	lui	a0,0x1
   13302:	b4c50513          	addi	a0,a0,-1204 # b4c <.Lline_table_start1+0x921>
   13306:	4581                	li	a1,0
   13308:	4601                	li	a2,0
   1330a:	4681                	li	a3,0
   1330c:	00000073          	ecall
   13310:	00414483          	lbu	s1,4(sp)
   13314:	00198513          	addi	a0,s3,1
   13318:	04f00613          	li	a2,79
   1331c:	85ca                	mv	a1,s2
   1331e:	0000a097          	auipc	ra,0xa
   13322:	458080e7          	jalr	1112(ra) # 1d776 <memcpy>
   13326:	4509                	li	a0,2
   13328:	00098023          	sb	zero,0(s3)
   1332c:	f6a499e3          	bne	s1,a0,1329e <_ZN20complex_dynamic_type3app17h46012967a3e9e75aE+0xdc>
   13330:	b741                	j	132b0 <_ZN20complex_dynamic_type3app17h46012967a3e9e75aE+0xee>

00013332 <_ZN20complex_dynamic_type3app17h4823e22c3f2cc86eE>:
   13332:	7159                	addi	sp,sp,-112
   13334:	d686                	sw	ra,108(sp)
   13336:	d4a2                	sw	s0,104(sp)
   13338:	d2a6                	sw	s1,100(sp)
   1333a:	d0ca                	sw	s2,96(sp)
   1333c:	cece                	sw	s3,92(sp)
   1333e:	89aa                	mv	s3,a0
   13340:	4409                	li	s0,2
   13342:	00810523          	sb	s0,10(sp)
   13346:	00b10493          	addi	s1,sp,11
   1334a:	4645                	li	a2,17
   1334c:	8526                	mv	a0,s1
   1334e:	0000a097          	auipc	ra,0xa
   13352:	428080e7          	jalr	1064(ra) # 1d776 <memcpy>
   13356:	01d10913          	addi	s2,sp,29
   1335a:	03f00613          	li	a2,63
   1335e:	854a                	mv	a0,s2
   13360:	4581                	li	a1,0
   13362:	0000a097          	auipc	ra,0xa
   13366:	3a8080e7          	jalr	936(ra) # 1d70a <memset>
   1336a:	8626                	mv	a2,s1
   1336c:	00810e23          	sb	s0,28(sp)
   13370:	6505                	lui	a0,0x1
   13372:	4491                	li	s1,4
   13374:	459d                	li	a1,7
   13376:	cb050793          	addi	a5,a0,-848 # cb0 <.Lline_table_start1+0xa85>
   1337a:	46c5                	li	a3,17
   1337c:	4711                	li	a4,4
   1337e:	853e                	mv	a0,a5
   13380:	00000073          	ecall
   13384:	00851863          	bne	a0,s0,13394 <_ZN20complex_dynamic_type3app17h4823e22c3f2cc86eE+0x62>
   13388:	4505                	li	a0,1
   1338a:	00a98023          	sb	a0,0(s3)
   1338e:	00b9a223          	sw	a1,4(s3)
   13392:	a0bd                	j	13400 <_ZN20complex_dynamic_type3app17h4823e22c3f2cc86eE+0xce>
   13394:	853e                	mv	a0,a5
   13396:	864a                	mv	a2,s2
   13398:	00910523          	sb	s1,10(sp)
   1339c:	478d                	li	a5,3
   1339e:	4591                	li	a1,4
   133a0:	03f00693          	li	a3,63
   133a4:	470d                	li	a4,3
   133a6:	00000073          	ecall
   133aa:	00851d63          	bne	a0,s0,133c4 <_ZN20complex_dynamic_type3app17h4823e22c3f2cc86eE+0x92>
   133ae:	01c14703          	lbu	a4,28(sp)
   133b2:	4505                	li	a0,1
   133b4:	4609                	li	a2,2
   133b6:	00a98023          	sb	a0,0(s3)
   133ba:	00b9a223          	sw	a1,4(s3)
   133be:	02c71963          	bne	a4,a2,133f0 <_ZN20complex_dynamic_type3app17h4823e22c3f2cc86eE+0xbe>
   133c2:	a83d                	j	13400 <_ZN20complex_dynamic_type3app17h4823e22c3f2cc86eE+0xce>
   133c4:	4681                	li	a3,0
   133c6:	00f10e23          	sb	a5,28(sp)
   133ca:	6505                	lui	a0,0x1
   133cc:	459d                	li	a1,7
   133ce:	4611                	li	a2,4
   133d0:	4709                	li	a4,2
   133d2:	cb050513          	addi	a0,a0,-848 # cb0 <.Lline_table_start1+0xa85>
   133d6:	07f00793          	li	a5,127
   133da:	00000073          	ecall
   133de:	4609                	li	a2,2
   133e0:	04a7e563          	bltu	a5,a0,1342a <_ZN20complex_dynamic_type3app17h4823e22c3f2cc86eE+0xf8>
   133e4:	4505                	li	a0,1
   133e6:	00a98023          	sb	a0,0(s3)
   133ea:	00b9a223          	sw	a1,4(s3)
   133ee:	470d                	li	a4,3
   133f0:	6505                	lui	a0,0x1
   133f2:	cb050513          	addi	a0,a0,-848 # cb0 <.Lline_table_start1+0xa85>
   133f6:	4591                	li	a1,4
   133f8:	4601                	li	a2,0
   133fa:	4681                	li	a3,0
   133fc:	00000073          	ecall
   13400:	00a14483          	lbu	s1,10(sp)
   13404:	4509                	li	a0,2
   13406:	00a48b63          	beq	s1,a0,1341c <_ZN20complex_dynamic_type3app17h4823e22c3f2cc86eE+0xea>
   1340a:	6505                	lui	a0,0x1
   1340c:	cb050513          	addi	a0,a0,-848 # cb0 <.Lline_table_start1+0xa85>
   13410:	459d                	li	a1,7
   13412:	4601                	li	a2,0
   13414:	4681                	li	a3,0
   13416:	8726                	mv	a4,s1
   13418:	00000073          	ecall
   1341c:	50b6                	lw	ra,108(sp)
   1341e:	5426                	lw	s0,104(sp)
   13420:	5496                	lw	s1,100(sp)
   13422:	5906                	lw	s2,96(sp)
   13424:	49f6                	lw	s3,92(sp)
   13426:	6165                	addi	sp,sp,112
   13428:	8082                	ret
   1342a:	00a14703          	lbu	a4,10(sp)
   1342e:	00c71463          	bne	a4,a2,13436 <_ZN20complex_dynamic_type3app17h4823e22c3f2cc86eE+0x104>
   13432:	470d                	li	a4,3
   13434:	a825                	j	1346c <_ZN20complex_dynamic_type3app17h4823e22c3f2cc86eE+0x13a>
   13436:	6505                	lui	a0,0x1
   13438:	cb050513          	addi	a0,a0,-848 # cb0 <.Lline_table_start1+0xa85>
   1343c:	459d                	li	a1,7
   1343e:	4601                	li	a2,0
   13440:	4681                	li	a3,0
   13442:	00000073          	ecall
   13446:	01c14703          	lbu	a4,28(sp)
   1344a:	4509                	li	a0,2
   1344c:	00a10523          	sb	a0,10(sp)
   13450:	00a71e63          	bne	a4,a0,1346c <_ZN20complex_dynamic_type3app17h4823e22c3f2cc86eE+0x13a>
   13454:	00198513          	addi	a0,s3,1
   13458:	03f00613          	li	a2,63
   1345c:	85ca                	mv	a1,s2
   1345e:	0000a097          	auipc	ra,0xa
   13462:	318080e7          	jalr	792(ra) # 1d776 <memcpy>
   13466:	00098023          	sb	zero,0(s3)
   1346a:	bf4d                	j	1341c <_ZN20complex_dynamic_type3app17h4823e22c3f2cc86eE+0xea>
   1346c:	6505                	lui	a0,0x1
   1346e:	cb050513          	addi	a0,a0,-848 # cb0 <.Lline_table_start1+0xa85>
   13472:	4591                	li	a1,4
   13474:	4601                	li	a2,0
   13476:	4681                	li	a3,0
   13478:	00000073          	ecall
   1347c:	00a14483          	lbu	s1,10(sp)
   13480:	00198513          	addi	a0,s3,1
   13484:	03f00613          	li	a2,63
   13488:	85ca                	mv	a1,s2
   1348a:	0000a097          	auipc	ra,0xa
   1348e:	2ec080e7          	jalr	748(ra) # 1d776 <memcpy>
   13492:	4509                	li	a0,2
   13494:	00098023          	sb	zero,0(s3)
   13498:	f6a499e3          	bne	s1,a0,1340a <_ZN20complex_dynamic_type3app17h4823e22c3f2cc86eE+0xd8>
   1349c:	b741                	j	1341c <_ZN20complex_dynamic_type3app17h4823e22c3f2cc86eE+0xea>

0001349e <_ZN20complex_dynamic_type3app17h4a42e5fb35694db4E>:
   1349e:	7175                	addi	sp,sp,-144
   134a0:	c706                	sw	ra,140(sp)
   134a2:	c522                	sw	s0,136(sp)
   134a4:	c326                	sw	s1,132(sp)
   134a6:	c14a                	sw	s2,128(sp)
   134a8:	dece                	sw	s3,124(sp)
   134aa:	89aa                	mv	s3,a0
   134ac:	4409                	li	s0,2
   134ae:	00810723          	sb	s0,14(sp)
   134b2:	00f10493          	addi	s1,sp,15
   134b6:	03800613          	li	a2,56
   134ba:	8526                	mv	a0,s1
   134bc:	0000a097          	auipc	ra,0xa
   134c0:	2ba080e7          	jalr	698(ra) # 1d776 <memcpy>
   134c4:	04810913          	addi	s2,sp,72
   134c8:	03400613          	li	a2,52
   134cc:	854a                	mv	a0,s2
   134ce:	4581                	li	a1,0
   134d0:	0000a097          	auipc	ra,0xa
   134d4:	23a080e7          	jalr	570(ra) # 1d70a <memset>
   134d8:	8626                	mv	a2,s1
   134da:	048103a3          	sb	s0,71(sp)
   134de:	4791                	li	a5,4
   134e0:	12e00513          	li	a0,302
   134e4:	45a1                	li	a1,8
   134e6:	03800693          	li	a3,56
   134ea:	4711                	li	a4,4
   134ec:	00000073          	ecall
   134f0:	00851863          	bne	a0,s0,13500 <_ZN20complex_dynamic_type3app17h4a42e5fb35694db4E+0x62>
   134f4:	4505                	li	a0,1
   134f6:	00a98023          	sb	a0,0(s3)
   134fa:	00b9a223          	sw	a1,4(s3)
   134fe:	a0b5                	j	1356a <_ZN20complex_dynamic_type3app17h4a42e5fb35694db4E+0xcc>
   13500:	864a                	mv	a2,s2
   13502:	00f10723          	sb	a5,14(sp)
   13506:	478d                	li	a5,3
   13508:	12e00513          	li	a0,302
   1350c:	458d                	li	a1,3
   1350e:	03400693          	li	a3,52
   13512:	470d                	li	a4,3
   13514:	00000073          	ecall
   13518:	00851d63          	bne	a0,s0,13532 <_ZN20complex_dynamic_type3app17h4a42e5fb35694db4E+0x94>
   1351c:	04714703          	lbu	a4,71(sp)
   13520:	4505                	li	a0,1
   13522:	4609                	li	a2,2
   13524:	00a98023          	sb	a0,0(s3)
   13528:	00b9a223          	sw	a1,4(s3)
   1352c:	02c71863          	bne	a4,a2,1355c <_ZN20complex_dynamic_type3app17h4a42e5fb35694db4E+0xbe>
   13530:	a82d                	j	1356a <_ZN20complex_dynamic_type3app17h4a42e5fb35694db4E+0xcc>
   13532:	4681                	li	a3,0
   13534:	04f103a3          	sb	a5,71(sp)
   13538:	12e00513          	li	a0,302
   1353c:	45a1                	li	a1,8
   1353e:	460d                	li	a2,3
   13540:	4709                	li	a4,2
   13542:	07f00793          	li	a5,127
   13546:	00000073          	ecall
   1354a:	4609                	li	a2,2
   1354c:	04a7e363          	bltu	a5,a0,13592 <_ZN20complex_dynamic_type3app17h4a42e5fb35694db4E+0xf4>
   13550:	4505                	li	a0,1
   13552:	00a98023          	sb	a0,0(s3)
   13556:	00b9a223          	sw	a1,4(s3)
   1355a:	470d                	li	a4,3
   1355c:	12e00513          	li	a0,302
   13560:	458d                	li	a1,3
   13562:	4601                	li	a2,0
   13564:	4681                	li	a3,0
   13566:	00000073          	ecall
   1356a:	00e14483          	lbu	s1,14(sp)
   1356e:	4509                	li	a0,2
   13570:	00a48a63          	beq	s1,a0,13584 <_ZN20complex_dynamic_type3app17h4a42e5fb35694db4E+0xe6>
   13574:	12e00513          	li	a0,302
   13578:	45a1                	li	a1,8
   1357a:	4601                	li	a2,0
   1357c:	4681                	li	a3,0
   1357e:	8726                	mv	a4,s1
   13580:	00000073          	ecall
   13584:	40ba                	lw	ra,140(sp)
   13586:	442a                	lw	s0,136(sp)
   13588:	449a                	lw	s1,132(sp)
   1358a:	490a                	lw	s2,128(sp)
   1358c:	59f6                	lw	s3,124(sp)
   1358e:	6149                	addi	sp,sp,144
   13590:	8082                	ret
   13592:	00e14703          	lbu	a4,14(sp)
   13596:	00c71463          	bne	a4,a2,1359e <_ZN20complex_dynamic_type3app17h4a42e5fb35694db4E+0x100>
   1359a:	470d                	li	a4,3
   1359c:	a81d                	j	135d2 <_ZN20complex_dynamic_type3app17h4a42e5fb35694db4E+0x134>
   1359e:	12e00513          	li	a0,302
   135a2:	45a1                	li	a1,8
   135a4:	4601                	li	a2,0
   135a6:	4681                	li	a3,0
   135a8:	00000073          	ecall
   135ac:	04714703          	lbu	a4,71(sp)
   135b0:	4509                	li	a0,2
   135b2:	00a10723          	sb	a0,14(sp)
   135b6:	00a71e63          	bne	a4,a0,135d2 <_ZN20complex_dynamic_type3app17h4a42e5fb35694db4E+0x134>
   135ba:	00198513          	addi	a0,s3,1
   135be:	03400613          	li	a2,52
   135c2:	85ca                	mv	a1,s2
   135c4:	0000a097          	auipc	ra,0xa
   135c8:	1b2080e7          	jalr	434(ra) # 1d776 <memcpy>
   135cc:	00098023          	sb	zero,0(s3)
   135d0:	bf55                	j	13584 <_ZN20complex_dynamic_type3app17h4a42e5fb35694db4E+0xe6>
   135d2:	12e00513          	li	a0,302
   135d6:	458d                	li	a1,3
   135d8:	4601                	li	a2,0
   135da:	4681                	li	a3,0
   135dc:	00000073          	ecall
   135e0:	00e14483          	lbu	s1,14(sp)
   135e4:	00198513          	addi	a0,s3,1
   135e8:	03400613          	li	a2,52
   135ec:	85ca                	mv	a1,s2
   135ee:	0000a097          	auipc	ra,0xa
   135f2:	188080e7          	jalr	392(ra) # 1d776 <memcpy>
   135f6:	4509                	li	a0,2
   135f8:	00098023          	sb	zero,0(s3)
   135fc:	f6a49ce3          	bne	s1,a0,13574 <_ZN20complex_dynamic_type3app17h4a42e5fb35694db4E+0xd6>
   13600:	b751                	j	13584 <_ZN20complex_dynamic_type3app17h4a42e5fb35694db4E+0xe6>

00013602 <_ZN20complex_dynamic_type3app17h4bd7a30586d561d1E>:
   13602:	7175                	addi	sp,sp,-144
   13604:	c706                	sw	ra,140(sp)
   13606:	c522                	sw	s0,136(sp)
   13608:	c326                	sw	s1,132(sp)
   1360a:	c14a                	sw	s2,128(sp)
   1360c:	dece                	sw	s3,124(sp)
   1360e:	89aa                	mv	s3,a0
   13610:	4409                	li	s0,2
   13612:	008100a3          	sb	s0,1(sp)
   13616:	00210493          	addi	s1,sp,2
   1361a:	03100613          	li	a2,49
   1361e:	8526                	mv	a0,s1
   13620:	0000a097          	auipc	ra,0xa
   13624:	156080e7          	jalr	342(ra) # 1d776 <memcpy>
   13628:	03410913          	addi	s2,sp,52
   1362c:	04800613          	li	a2,72
   13630:	854a                	mv	a0,s2
   13632:	4581                	li	a1,0
   13634:	0000a097          	auipc	ra,0xa
   13638:	0d6080e7          	jalr	214(ra) # 1d70a <memset>
   1363c:	8626                	mv	a2,s1
   1363e:	028109a3          	sb	s0,51(sp)
   13642:	6509                	lui	a0,0x2
   13644:	4491                	li	s1,4
   13646:	4591                	li	a1,4
   13648:	80e50793          	addi	a5,a0,-2034 # 180e <.Lline_table_start1+0x15e3>
   1364c:	03100693          	li	a3,49
   13650:	4711                	li	a4,4
   13652:	853e                	mv	a0,a5
   13654:	00000073          	ecall
   13658:	00851863          	bne	a0,s0,13668 <_ZN20complex_dynamic_type3app17h4bd7a30586d561d1E+0x66>
   1365c:	4505                	li	a0,1
   1365e:	00a98023          	sb	a0,0(s3)
   13662:	00b9a223          	sw	a1,4(s3)
   13666:	a0bd                	j	136d4 <_ZN20complex_dynamic_type3app17h4bd7a30586d561d1E+0xd2>
   13668:	853e                	mv	a0,a5
   1366a:	864a                	mv	a2,s2
   1366c:	009100a3          	sb	s1,1(sp)
   13670:	478d                	li	a5,3
   13672:	458d                	li	a1,3
   13674:	04800693          	li	a3,72
   13678:	470d                	li	a4,3
   1367a:	00000073          	ecall
   1367e:	00851d63          	bne	a0,s0,13698 <_ZN20complex_dynamic_type3app17h4bd7a30586d561d1E+0x96>
   13682:	03314703          	lbu	a4,51(sp)
   13686:	4505                	li	a0,1
   13688:	4609                	li	a2,2
   1368a:	00a98023          	sb	a0,0(s3)
   1368e:	00b9a223          	sw	a1,4(s3)
   13692:	02c71963          	bne	a4,a2,136c4 <_ZN20complex_dynamic_type3app17h4bd7a30586d561d1E+0xc2>
   13696:	a83d                	j	136d4 <_ZN20complex_dynamic_type3app17h4bd7a30586d561d1E+0xd2>
   13698:	4681                	li	a3,0
   1369a:	02f109a3          	sb	a5,51(sp)
   1369e:	6509                	lui	a0,0x2
   136a0:	4591                	li	a1,4
   136a2:	460d                	li	a2,3
   136a4:	4709                	li	a4,2
   136a6:	80e50513          	addi	a0,a0,-2034 # 180e <.Lline_table_start1+0x15e3>
   136aa:	07f00793          	li	a5,127
   136ae:	00000073          	ecall
   136b2:	4609                	li	a2,2
   136b4:	04a7e563          	bltu	a5,a0,136fe <_ZN20complex_dynamic_type3app17h4bd7a30586d561d1E+0xfc>
   136b8:	4505                	li	a0,1
   136ba:	00a98023          	sb	a0,0(s3)
   136be:	00b9a223          	sw	a1,4(s3)
   136c2:	470d                	li	a4,3
   136c4:	6509                	lui	a0,0x2
   136c6:	80e50513          	addi	a0,a0,-2034 # 180e <.Lline_table_start1+0x15e3>
   136ca:	458d                	li	a1,3
   136cc:	4601                	li	a2,0
   136ce:	4681                	li	a3,0
   136d0:	00000073          	ecall
   136d4:	00114483          	lbu	s1,1(sp)
   136d8:	4509                	li	a0,2
   136da:	00a48b63          	beq	s1,a0,136f0 <_ZN20complex_dynamic_type3app17h4bd7a30586d561d1E+0xee>
   136de:	6509                	lui	a0,0x2
   136e0:	80e50513          	addi	a0,a0,-2034 # 180e <.Lline_table_start1+0x15e3>
   136e4:	4591                	li	a1,4
   136e6:	4601                	li	a2,0
   136e8:	4681                	li	a3,0
   136ea:	8726                	mv	a4,s1
   136ec:	00000073          	ecall
   136f0:	40ba                	lw	ra,140(sp)
   136f2:	442a                	lw	s0,136(sp)
   136f4:	449a                	lw	s1,132(sp)
   136f6:	490a                	lw	s2,128(sp)
   136f8:	59f6                	lw	s3,124(sp)
   136fa:	6149                	addi	sp,sp,144
   136fc:	8082                	ret
   136fe:	00114703          	lbu	a4,1(sp)
   13702:	00c71463          	bne	a4,a2,1370a <_ZN20complex_dynamic_type3app17h4bd7a30586d561d1E+0x108>
   13706:	470d                	li	a4,3
   13708:	a825                	j	13740 <_ZN20complex_dynamic_type3app17h4bd7a30586d561d1E+0x13e>
   1370a:	6509                	lui	a0,0x2
   1370c:	80e50513          	addi	a0,a0,-2034 # 180e <.Lline_table_start1+0x15e3>
   13710:	4591                	li	a1,4
   13712:	4601                	li	a2,0
   13714:	4681                	li	a3,0
   13716:	00000073          	ecall
   1371a:	03314703          	lbu	a4,51(sp)
   1371e:	4509                	li	a0,2
   13720:	00a100a3          	sb	a0,1(sp)
   13724:	00a71e63          	bne	a4,a0,13740 <_ZN20complex_dynamic_type3app17h4bd7a30586d561d1E+0x13e>
   13728:	00198513          	addi	a0,s3,1
   1372c:	04800613          	li	a2,72
   13730:	85ca                	mv	a1,s2
   13732:	0000a097          	auipc	ra,0xa
   13736:	044080e7          	jalr	68(ra) # 1d776 <memcpy>
   1373a:	00098023          	sb	zero,0(s3)
   1373e:	bf4d                	j	136f0 <_ZN20complex_dynamic_type3app17h4bd7a30586d561d1E+0xee>
   13740:	6509                	lui	a0,0x2
   13742:	80e50513          	addi	a0,a0,-2034 # 180e <.Lline_table_start1+0x15e3>
   13746:	458d                	li	a1,3
   13748:	4601                	li	a2,0
   1374a:	4681                	li	a3,0
   1374c:	00000073          	ecall
   13750:	00114483          	lbu	s1,1(sp)
   13754:	00198513          	addi	a0,s3,1
   13758:	04800613          	li	a2,72
   1375c:	85ca                	mv	a1,s2
   1375e:	0000a097          	auipc	ra,0xa
   13762:	018080e7          	jalr	24(ra) # 1d776 <memcpy>
   13766:	4509                	li	a0,2
   13768:	00098023          	sb	zero,0(s3)
   1376c:	f6a499e3          	bne	s1,a0,136de <_ZN20complex_dynamic_type3app17h4bd7a30586d561d1E+0xdc>
   13770:	b741                	j	136f0 <_ZN20complex_dynamic_type3app17h4bd7a30586d561d1E+0xee>

00013772 <_ZN20complex_dynamic_type3app17h4cf4d1f00f8d7bbbE>:
   13772:	7175                	addi	sp,sp,-144
   13774:	c706                	sw	ra,140(sp)
   13776:	c522                	sw	s0,136(sp)
   13778:	c326                	sw	s1,132(sp)
   1377a:	c14a                	sw	s2,128(sp)
   1377c:	dece                	sw	s3,124(sp)
   1377e:	89aa                	mv	s3,a0
   13780:	4409                	li	s0,2
   13782:	008103a3          	sb	s0,7(sp)
   13786:	0024                	addi	s1,sp,8
   13788:	02200613          	li	a2,34
   1378c:	8526                	mv	a0,s1
   1378e:	0000a097          	auipc	ra,0xa
   13792:	fe8080e7          	jalr	-24(ra) # 1d776 <memcpy>
   13796:	02b10913          	addi	s2,sp,43
   1379a:	05100613          	li	a2,81
   1379e:	854a                	mv	a0,s2
   137a0:	4581                	li	a1,0
   137a2:	0000a097          	auipc	ra,0xa
   137a6:	f68080e7          	jalr	-152(ra) # 1d70a <memset>
   137aa:	8626                	mv	a2,s1
   137ac:	02810523          	sb	s0,42(sp)
   137b0:	4791                	li	a5,4
   137b2:	55e00513          	li	a0,1374
   137b6:	45a5                	li	a1,9
   137b8:	02200693          	li	a3,34
   137bc:	4711                	li	a4,4
   137be:	00000073          	ecall
   137c2:	00851863          	bne	a0,s0,137d2 <_ZN20complex_dynamic_type3app17h4cf4d1f00f8d7bbbE+0x60>
   137c6:	4505                	li	a0,1
   137c8:	00a98023          	sb	a0,0(s3)
   137cc:	00b9a223          	sw	a1,4(s3)
   137d0:	a0b5                	j	1383c <_ZN20complex_dynamic_type3app17h4cf4d1f00f8d7bbbE+0xca>
   137d2:	864a                	mv	a2,s2
   137d4:	00f103a3          	sb	a5,7(sp)
   137d8:	478d                	li	a5,3
   137da:	55e00513          	li	a0,1374
   137de:	45a5                	li	a1,9
   137e0:	05100693          	li	a3,81
   137e4:	470d                	li	a4,3
   137e6:	00000073          	ecall
   137ea:	00851d63          	bne	a0,s0,13804 <_ZN20complex_dynamic_type3app17h4cf4d1f00f8d7bbbE+0x92>
   137ee:	02a14703          	lbu	a4,42(sp)
   137f2:	4505                	li	a0,1
   137f4:	4609                	li	a2,2
   137f6:	00a98023          	sb	a0,0(s3)
   137fa:	00b9a223          	sw	a1,4(s3)
   137fe:	02c71863          	bne	a4,a2,1382e <_ZN20complex_dynamic_type3app17h4cf4d1f00f8d7bbbE+0xbc>
   13802:	a82d                	j	1383c <_ZN20complex_dynamic_type3app17h4cf4d1f00f8d7bbbE+0xca>
   13804:	4681                	li	a3,0
   13806:	02f10523          	sb	a5,42(sp)
   1380a:	55e00513          	li	a0,1374
   1380e:	45a5                	li	a1,9
   13810:	4625                	li	a2,9
   13812:	4709                	li	a4,2
   13814:	07f00793          	li	a5,127
   13818:	00000073          	ecall
   1381c:	4609                	li	a2,2
   1381e:	04a7e363          	bltu	a5,a0,13864 <_ZN20complex_dynamic_type3app17h4cf4d1f00f8d7bbbE+0xf2>
   13822:	4505                	li	a0,1
   13824:	00a98023          	sb	a0,0(s3)
   13828:	00b9a223          	sw	a1,4(s3)
   1382c:	470d                	li	a4,3
   1382e:	55e00513          	li	a0,1374
   13832:	45a5                	li	a1,9
   13834:	4601                	li	a2,0
   13836:	4681                	li	a3,0
   13838:	00000073          	ecall
   1383c:	00714483          	lbu	s1,7(sp)
   13840:	4509                	li	a0,2
   13842:	00a48a63          	beq	s1,a0,13856 <_ZN20complex_dynamic_type3app17h4cf4d1f00f8d7bbbE+0xe4>
   13846:	55e00513          	li	a0,1374
   1384a:	45a5                	li	a1,9
   1384c:	4601                	li	a2,0
   1384e:	4681                	li	a3,0
   13850:	8726                	mv	a4,s1
   13852:	00000073          	ecall
   13856:	40ba                	lw	ra,140(sp)
   13858:	442a                	lw	s0,136(sp)
   1385a:	449a                	lw	s1,132(sp)
   1385c:	490a                	lw	s2,128(sp)
   1385e:	59f6                	lw	s3,124(sp)
   13860:	6149                	addi	sp,sp,144
   13862:	8082                	ret
   13864:	00714703          	lbu	a4,7(sp)
   13868:	00c71463          	bne	a4,a2,13870 <_ZN20complex_dynamic_type3app17h4cf4d1f00f8d7bbbE+0xfe>
   1386c:	470d                	li	a4,3
   1386e:	a81d                	j	138a4 <_ZN20complex_dynamic_type3app17h4cf4d1f00f8d7bbbE+0x132>
   13870:	55e00513          	li	a0,1374
   13874:	45a5                	li	a1,9
   13876:	4601                	li	a2,0
   13878:	4681                	li	a3,0
   1387a:	00000073          	ecall
   1387e:	02a14703          	lbu	a4,42(sp)
   13882:	4509                	li	a0,2
   13884:	00a103a3          	sb	a0,7(sp)
   13888:	00a71e63          	bne	a4,a0,138a4 <_ZN20complex_dynamic_type3app17h4cf4d1f00f8d7bbbE+0x132>
   1388c:	00198513          	addi	a0,s3,1
   13890:	05100613          	li	a2,81
   13894:	85ca                	mv	a1,s2
   13896:	0000a097          	auipc	ra,0xa
   1389a:	ee0080e7          	jalr	-288(ra) # 1d776 <memcpy>
   1389e:	00098023          	sb	zero,0(s3)
   138a2:	bf55                	j	13856 <_ZN20complex_dynamic_type3app17h4cf4d1f00f8d7bbbE+0xe4>
   138a4:	55e00513          	li	a0,1374
   138a8:	45a5                	li	a1,9
   138aa:	4601                	li	a2,0
   138ac:	4681                	li	a3,0
   138ae:	00000073          	ecall
   138b2:	00714483          	lbu	s1,7(sp)
   138b6:	00198513          	addi	a0,s3,1
   138ba:	05100613          	li	a2,81
   138be:	85ca                	mv	a1,s2
   138c0:	0000a097          	auipc	ra,0xa
   138c4:	eb6080e7          	jalr	-330(ra) # 1d776 <memcpy>
   138c8:	4509                	li	a0,2
   138ca:	00098023          	sb	zero,0(s3)
   138ce:	f6a49ce3          	bne	s1,a0,13846 <_ZN20complex_dynamic_type3app17h4cf4d1f00f8d7bbbE+0xd4>
   138d2:	b751                	j	13856 <_ZN20complex_dynamic_type3app17h4cf4d1f00f8d7bbbE+0xe4>

000138d4 <_ZN20complex_dynamic_type3app17h4ed593d7d82342f0E>:
   138d4:	7159                	addi	sp,sp,-112
   138d6:	d686                	sw	ra,108(sp)
   138d8:	d4a2                	sw	s0,104(sp)
   138da:	d2a6                	sw	s1,100(sp)
   138dc:	d0ca                	sw	s2,96(sp)
   138de:	cece                	sw	s3,92(sp)
   138e0:	89aa                	mv	s3,a0
   138e2:	4409                	li	s0,2
   138e4:	008107a3          	sb	s0,15(sp)
   138e8:	0804                	addi	s1,sp,16
   138ea:	02100613          	li	a2,33
   138ee:	8526                	mv	a0,s1
   138f0:	0000a097          	auipc	ra,0xa
   138f4:	e86080e7          	jalr	-378(ra) # 1d776 <memcpy>
   138f8:	03210913          	addi	s2,sp,50
   138fc:	02a00613          	li	a2,42
   13900:	854a                	mv	a0,s2
   13902:	4581                	li	a1,0
   13904:	0000a097          	auipc	ra,0xa
   13908:	e06080e7          	jalr	-506(ra) # 1d70a <memset>
   1390c:	8626                	mv	a2,s1
   1390e:	028108a3          	sb	s0,49(sp)
   13912:	6505                	lui	a0,0x1
   13914:	4805                	li	a6,1
   13916:	4491                	li	s1,4
   13918:	4585                	li	a1,1
   1391a:	5f350793          	addi	a5,a0,1523 # 15f3 <.Lline_table_start1+0x13c8>
   1391e:	02100693          	li	a3,33
   13922:	4711                	li	a4,4
   13924:	853e                	mv	a0,a5
   13926:	00000073          	ecall
   1392a:	00851763          	bne	a0,s0,13938 <_ZN20complex_dynamic_type3app17h4ed593d7d82342f0E+0x64>
   1392e:	01098023          	sb	a6,0(s3)
   13932:	00b9a223          	sw	a1,4(s3)
   13936:	a0bd                	j	139a4 <_ZN20complex_dynamic_type3app17h4ed593d7d82342f0E+0xd0>
   13938:	853e                	mv	a0,a5
   1393a:	864a                	mv	a2,s2
   1393c:	009107a3          	sb	s1,15(sp)
   13940:	478d                	li	a5,3
   13942:	458d                	li	a1,3
   13944:	02a00693          	li	a3,42
   13948:	470d                	li	a4,3
   1394a:	00000073          	ecall
   1394e:	00851d63          	bne	a0,s0,13968 <_ZN20complex_dynamic_type3app17h4ed593d7d82342f0E+0x94>
   13952:	03114703          	lbu	a4,49(sp)
   13956:	4505                	li	a0,1
   13958:	4609                	li	a2,2
   1395a:	00a98023          	sb	a0,0(s3)
   1395e:	00b9a223          	sw	a1,4(s3)
   13962:	02c71963          	bne	a4,a2,13994 <_ZN20complex_dynamic_type3app17h4ed593d7d82342f0E+0xc0>
   13966:	a83d                	j	139a4 <_ZN20complex_dynamic_type3app17h4ed593d7d82342f0E+0xd0>
   13968:	4681                	li	a3,0
   1396a:	02f108a3          	sb	a5,49(sp)
   1396e:	6505                	lui	a0,0x1
   13970:	4785                	li	a5,1
   13972:	4585                	li	a1,1
   13974:	460d                	li	a2,3
   13976:	4709                	li	a4,2
   13978:	5f350513          	addi	a0,a0,1523 # 15f3 <.Lline_table_start1+0x13c8>
   1397c:	07f00493          	li	s1,127
   13980:	00000073          	ecall
   13984:	4609                	li	a2,2
   13986:	04a4e463          	bltu	s1,a0,139ce <_ZN20complex_dynamic_type3app17h4ed593d7d82342f0E+0xfa>
   1398a:	00f98023          	sb	a5,0(s3)
   1398e:	00b9a223          	sw	a1,4(s3)
   13992:	470d                	li	a4,3
   13994:	6505                	lui	a0,0x1
   13996:	5f350513          	addi	a0,a0,1523 # 15f3 <.Lline_table_start1+0x13c8>
   1399a:	458d                	li	a1,3
   1399c:	4601                	li	a2,0
   1399e:	4681                	li	a3,0
   139a0:	00000073          	ecall
   139a4:	00f14483          	lbu	s1,15(sp)
   139a8:	4509                	li	a0,2
   139aa:	00a48b63          	beq	s1,a0,139c0 <_ZN20complex_dynamic_type3app17h4ed593d7d82342f0E+0xec>
   139ae:	6505                	lui	a0,0x1
   139b0:	5f350513          	addi	a0,a0,1523 # 15f3 <.Lline_table_start1+0x13c8>
   139b4:	4585                	li	a1,1
   139b6:	4601                	li	a2,0
   139b8:	4681                	li	a3,0
   139ba:	8726                	mv	a4,s1
   139bc:	00000073          	ecall
   139c0:	50b6                	lw	ra,108(sp)
   139c2:	5426                	lw	s0,104(sp)
   139c4:	5496                	lw	s1,100(sp)
   139c6:	5906                	lw	s2,96(sp)
   139c8:	49f6                	lw	s3,92(sp)
   139ca:	6165                	addi	sp,sp,112
   139cc:	8082                	ret
   139ce:	00f14703          	lbu	a4,15(sp)
   139d2:	00c71463          	bne	a4,a2,139da <_ZN20complex_dynamic_type3app17h4ed593d7d82342f0E+0x106>
   139d6:	470d                	li	a4,3
   139d8:	a825                	j	13a10 <_ZN20complex_dynamic_type3app17h4ed593d7d82342f0E+0x13c>
   139da:	6505                	lui	a0,0x1
   139dc:	5f350513          	addi	a0,a0,1523 # 15f3 <.Lline_table_start1+0x13c8>
   139e0:	4585                	li	a1,1
   139e2:	4601                	li	a2,0
   139e4:	4681                	li	a3,0
   139e6:	00000073          	ecall
   139ea:	03114703          	lbu	a4,49(sp)
   139ee:	4509                	li	a0,2
   139f0:	00a107a3          	sb	a0,15(sp)
   139f4:	00a71e63          	bne	a4,a0,13a10 <_ZN20complex_dynamic_type3app17h4ed593d7d82342f0E+0x13c>
   139f8:	00198513          	addi	a0,s3,1
   139fc:	02a00613          	li	a2,42
   13a00:	85ca                	mv	a1,s2
   13a02:	0000a097          	auipc	ra,0xa
   13a06:	d74080e7          	jalr	-652(ra) # 1d776 <memcpy>
   13a0a:	00098023          	sb	zero,0(s3)
   13a0e:	bf4d                	j	139c0 <_ZN20complex_dynamic_type3app17h4ed593d7d82342f0E+0xec>
   13a10:	6505                	lui	a0,0x1
   13a12:	5f350513          	addi	a0,a0,1523 # 15f3 <.Lline_table_start1+0x13c8>
   13a16:	458d                	li	a1,3
   13a18:	4601                	li	a2,0
   13a1a:	4681                	li	a3,0
   13a1c:	00000073          	ecall
   13a20:	00f14483          	lbu	s1,15(sp)
   13a24:	00198513          	addi	a0,s3,1
   13a28:	02a00613          	li	a2,42
   13a2c:	85ca                	mv	a1,s2
   13a2e:	0000a097          	auipc	ra,0xa
   13a32:	d48080e7          	jalr	-696(ra) # 1d776 <memcpy>
   13a36:	4509                	li	a0,2
   13a38:	00098023          	sb	zero,0(s3)
   13a3c:	f6a499e3          	bne	s1,a0,139ae <_ZN20complex_dynamic_type3app17h4ed593d7d82342f0E+0xda>
   13a40:	b741                	j	139c0 <_ZN20complex_dynamic_type3app17h4ed593d7d82342f0E+0xec>

00013a42 <_ZN20complex_dynamic_type3app17h4fb6734b39c59e83E>:
   13a42:	7159                	addi	sp,sp,-112
   13a44:	d686                	sw	ra,108(sp)
   13a46:	d4a2                	sw	s0,104(sp)
   13a48:	d2a6                	sw	s1,100(sp)
   13a4a:	d0ca                	sw	s2,96(sp)
   13a4c:	cece                	sw	s3,92(sp)
   13a4e:	89aa                	mv	s3,a0
   13a50:	4409                	li	s0,2
   13a52:	008101a3          	sb	s0,3(sp)
   13a56:	0044                	addi	s1,sp,4
   13a58:	04800613          	li	a2,72
   13a5c:	8526                	mv	a0,s1
   13a5e:	0000a097          	auipc	ra,0xa
   13a62:	d18080e7          	jalr	-744(ra) # 1d776 <memcpy>
   13a66:	04d10913          	addi	s2,sp,77
   13a6a:	463d                	li	a2,15
   13a6c:	854a                	mv	a0,s2
   13a6e:	4581                	li	a1,0
   13a70:	0000a097          	auipc	ra,0xa
   13a74:	c9a080e7          	jalr	-870(ra) # 1d70a <memset>
   13a78:	8626                	mv	a2,s1
   13a7a:	04810623          	sb	s0,76(sp)
   13a7e:	6505                	lui	a0,0x1
   13a80:	4491                	li	s1,4
   13a82:	45a1                	li	a1,8
   13a84:	11d50793          	addi	a5,a0,285 # 111d <.Lline_table_start1+0xef2>
   13a88:	04800693          	li	a3,72
   13a8c:	4711                	li	a4,4
   13a8e:	853e                	mv	a0,a5
   13a90:	00000073          	ecall
   13a94:	00851863          	bne	a0,s0,13aa4 <_ZN20complex_dynamic_type3app17h4fb6734b39c59e83E+0x62>
   13a98:	4505                	li	a0,1
   13a9a:	00a98023          	sb	a0,0(s3)
   13a9e:	00b9a223          	sw	a1,4(s3)
   13aa2:	a0b5                	j	13b0e <_ZN20complex_dynamic_type3app17h4fb6734b39c59e83E+0xcc>
   13aa4:	853e                	mv	a0,a5
   13aa6:	864a                	mv	a2,s2
   13aa8:	009101a3          	sb	s1,3(sp)
   13aac:	478d                	li	a5,3
   13aae:	45a5                	li	a1,9
   13ab0:	46bd                	li	a3,15
   13ab2:	470d                	li	a4,3
   13ab4:	00000073          	ecall
   13ab8:	00851d63          	bne	a0,s0,13ad2 <_ZN20complex_dynamic_type3app17h4fb6734b39c59e83E+0x90>
   13abc:	04c14703          	lbu	a4,76(sp)
   13ac0:	4505                	li	a0,1
   13ac2:	4609                	li	a2,2
   13ac4:	00a98023          	sb	a0,0(s3)
   13ac8:	00b9a223          	sw	a1,4(s3)
   13acc:	02c71963          	bne	a4,a2,13afe <_ZN20complex_dynamic_type3app17h4fb6734b39c59e83E+0xbc>
   13ad0:	a83d                	j	13b0e <_ZN20complex_dynamic_type3app17h4fb6734b39c59e83E+0xcc>
   13ad2:	4681                	li	a3,0
   13ad4:	04f10623          	sb	a5,76(sp)
   13ad8:	6505                	lui	a0,0x1
   13ada:	45a1                	li	a1,8
   13adc:	4625                	li	a2,9
   13ade:	4709                	li	a4,2
   13ae0:	11d50513          	addi	a0,a0,285 # 111d <.Lline_table_start1+0xef2>
   13ae4:	07f00793          	li	a5,127
   13ae8:	00000073          	ecall
   13aec:	4609                	li	a2,2
   13aee:	04a7e563          	bltu	a5,a0,13b38 <_ZN20complex_dynamic_type3app17h4fb6734b39c59e83E+0xf6>
   13af2:	4505                	li	a0,1
   13af4:	00a98023          	sb	a0,0(s3)
   13af8:	00b9a223          	sw	a1,4(s3)
   13afc:	470d                	li	a4,3
   13afe:	6505                	lui	a0,0x1
   13b00:	11d50513          	addi	a0,a0,285 # 111d <.Lline_table_start1+0xef2>
   13b04:	45a5                	li	a1,9
   13b06:	4601                	li	a2,0
   13b08:	4681                	li	a3,0
   13b0a:	00000073          	ecall
   13b0e:	00314483          	lbu	s1,3(sp)
   13b12:	4509                	li	a0,2
   13b14:	00a48b63          	beq	s1,a0,13b2a <_ZN20complex_dynamic_type3app17h4fb6734b39c59e83E+0xe8>
   13b18:	6505                	lui	a0,0x1
   13b1a:	11d50513          	addi	a0,a0,285 # 111d <.Lline_table_start1+0xef2>
   13b1e:	45a1                	li	a1,8
   13b20:	4601                	li	a2,0
   13b22:	4681                	li	a3,0
   13b24:	8726                	mv	a4,s1
   13b26:	00000073          	ecall
   13b2a:	50b6                	lw	ra,108(sp)
   13b2c:	5426                	lw	s0,104(sp)
   13b2e:	5496                	lw	s1,100(sp)
   13b30:	5906                	lw	s2,96(sp)
   13b32:	49f6                	lw	s3,92(sp)
   13b34:	6165                	addi	sp,sp,112
   13b36:	8082                	ret
   13b38:	00314703          	lbu	a4,3(sp)
   13b3c:	00c71463          	bne	a4,a2,13b44 <_ZN20complex_dynamic_type3app17h4fb6734b39c59e83E+0x102>
   13b40:	470d                	li	a4,3
   13b42:	a81d                	j	13b78 <_ZN20complex_dynamic_type3app17h4fb6734b39c59e83E+0x136>
   13b44:	6505                	lui	a0,0x1
   13b46:	11d50513          	addi	a0,a0,285 # 111d <.Lline_table_start1+0xef2>
   13b4a:	45a1                	li	a1,8
   13b4c:	4601                	li	a2,0
   13b4e:	4681                	li	a3,0
   13b50:	00000073          	ecall
   13b54:	04c14703          	lbu	a4,76(sp)
   13b58:	4509                	li	a0,2
   13b5a:	00a101a3          	sb	a0,3(sp)
   13b5e:	00a71d63          	bne	a4,a0,13b78 <_ZN20complex_dynamic_type3app17h4fb6734b39c59e83E+0x136>
   13b62:	00198513          	addi	a0,s3,1
   13b66:	463d                	li	a2,15
   13b68:	85ca                	mv	a1,s2
   13b6a:	0000a097          	auipc	ra,0xa
   13b6e:	c0c080e7          	jalr	-1012(ra) # 1d776 <memcpy>
   13b72:	00098023          	sb	zero,0(s3)
   13b76:	bf55                	j	13b2a <_ZN20complex_dynamic_type3app17h4fb6734b39c59e83E+0xe8>
   13b78:	6505                	lui	a0,0x1
   13b7a:	11d50513          	addi	a0,a0,285 # 111d <.Lline_table_start1+0xef2>
   13b7e:	45a5                	li	a1,9
   13b80:	4601                	li	a2,0
   13b82:	4681                	li	a3,0
   13b84:	00000073          	ecall
   13b88:	00314483          	lbu	s1,3(sp)
   13b8c:	00198513          	addi	a0,s3,1
   13b90:	463d                	li	a2,15
   13b92:	85ca                	mv	a1,s2
   13b94:	0000a097          	auipc	ra,0xa
   13b98:	be2080e7          	jalr	-1054(ra) # 1d776 <memcpy>
   13b9c:	4509                	li	a0,2
   13b9e:	00098023          	sb	zero,0(s3)
   13ba2:	f6a49be3          	bne	s1,a0,13b18 <_ZN20complex_dynamic_type3app17h4fb6734b39c59e83E+0xd6>
   13ba6:	b751                	j	13b2a <_ZN20complex_dynamic_type3app17h4fb6734b39c59e83E+0xe8>

00013ba8 <_ZN20complex_dynamic_type3app17h5385e684a09ac990E>:
   13ba8:	7131                	addi	sp,sp,-192
   13baa:	df06                	sw	ra,188(sp)
   13bac:	dd22                	sw	s0,184(sp)
   13bae:	db26                	sw	s1,180(sp)
   13bb0:	d94a                	sw	s2,176(sp)
   13bb2:	d74e                	sw	s3,172(sp)
   13bb4:	89aa                	mv	s3,a0
   13bb6:	4409                	li	s0,2
   13bb8:	00810523          	sb	s0,10(sp)
   13bbc:	00b10493          	addi	s1,sp,11
   13bc0:	05100613          	li	a2,81
   13bc4:	8526                	mv	a0,s1
   13bc6:	0000a097          	auipc	ra,0xa
   13bca:	bb0080e7          	jalr	-1104(ra) # 1d776 <memcpy>
   13bce:	05d10913          	addi	s2,sp,93
   13bd2:	04f00613          	li	a2,79
   13bd6:	854a                	mv	a0,s2
   13bd8:	4581                	li	a1,0
   13bda:	0000a097          	auipc	ra,0xa
   13bde:	b30080e7          	jalr	-1232(ra) # 1d70a <memset>
   13be2:	8626                	mv	a2,s1
   13be4:	04810e23          	sb	s0,92(sp)
   13be8:	6505                	lui	a0,0x1
   13bea:	4491                	li	s1,4
   13bec:	4589                	li	a1,2
   13bee:	e1650793          	addi	a5,a0,-490 # e16 <.Lline_table_start1+0xbeb>
   13bf2:	05100693          	li	a3,81
   13bf6:	4711                	li	a4,4
   13bf8:	853e                	mv	a0,a5
   13bfa:	00000073          	ecall
   13bfe:	00851863          	bne	a0,s0,13c0e <_ZN20complex_dynamic_type3app17h5385e684a09ac990E+0x66>
   13c02:	4505                	li	a0,1
   13c04:	00a98023          	sb	a0,0(s3)
   13c08:	00b9a223          	sw	a1,4(s3)
   13c0c:	a0bd                	j	13c7a <_ZN20complex_dynamic_type3app17h5385e684a09ac990E+0xd2>
   13c0e:	853e                	mv	a0,a5
   13c10:	864a                	mv	a2,s2
   13c12:	00910523          	sb	s1,10(sp)
   13c16:	478d                	li	a5,3
   13c18:	4591                	li	a1,4
   13c1a:	04f00693          	li	a3,79
   13c1e:	470d                	li	a4,3
   13c20:	00000073          	ecall
   13c24:	00851d63          	bne	a0,s0,13c3e <_ZN20complex_dynamic_type3app17h5385e684a09ac990E+0x96>
   13c28:	05c14703          	lbu	a4,92(sp)
   13c2c:	4505                	li	a0,1
   13c2e:	4609                	li	a2,2
   13c30:	00a98023          	sb	a0,0(s3)
   13c34:	00b9a223          	sw	a1,4(s3)
   13c38:	02c71963          	bne	a4,a2,13c6a <_ZN20complex_dynamic_type3app17h5385e684a09ac990E+0xc2>
   13c3c:	a83d                	j	13c7a <_ZN20complex_dynamic_type3app17h5385e684a09ac990E+0xd2>
   13c3e:	4681                	li	a3,0
   13c40:	04f10e23          	sb	a5,92(sp)
   13c44:	6505                	lui	a0,0x1
   13c46:	4589                	li	a1,2
   13c48:	4611                	li	a2,4
   13c4a:	4709                	li	a4,2
   13c4c:	e1650513          	addi	a0,a0,-490 # e16 <.Lline_table_start1+0xbeb>
   13c50:	07f00793          	li	a5,127
   13c54:	00000073          	ecall
   13c58:	4609                	li	a2,2
   13c5a:	04a7e563          	bltu	a5,a0,13ca4 <_ZN20complex_dynamic_type3app17h5385e684a09ac990E+0xfc>
   13c5e:	4505                	li	a0,1
   13c60:	00a98023          	sb	a0,0(s3)
   13c64:	00b9a223          	sw	a1,4(s3)
   13c68:	470d                	li	a4,3
   13c6a:	6505                	lui	a0,0x1
   13c6c:	e1650513          	addi	a0,a0,-490 # e16 <.Lline_table_start1+0xbeb>
   13c70:	4591                	li	a1,4
   13c72:	4601                	li	a2,0
   13c74:	4681                	li	a3,0
   13c76:	00000073          	ecall
   13c7a:	00a14483          	lbu	s1,10(sp)
   13c7e:	4509                	li	a0,2
   13c80:	00a48b63          	beq	s1,a0,13c96 <_ZN20complex_dynamic_type3app17h5385e684a09ac990E+0xee>
   13c84:	6505                	lui	a0,0x1
   13c86:	e1650513          	addi	a0,a0,-490 # e16 <.Lline_table_start1+0xbeb>
   13c8a:	4589                	li	a1,2
   13c8c:	4601                	li	a2,0
   13c8e:	4681                	li	a3,0
   13c90:	8726                	mv	a4,s1
   13c92:	00000073          	ecall
   13c96:	50fa                	lw	ra,188(sp)
   13c98:	546a                	lw	s0,184(sp)
   13c9a:	54da                	lw	s1,180(sp)
   13c9c:	594a                	lw	s2,176(sp)
   13c9e:	59ba                	lw	s3,172(sp)
   13ca0:	6129                	addi	sp,sp,192
   13ca2:	8082                	ret
   13ca4:	00a14703          	lbu	a4,10(sp)
   13ca8:	00c71463          	bne	a4,a2,13cb0 <_ZN20complex_dynamic_type3app17h5385e684a09ac990E+0x108>
   13cac:	470d                	li	a4,3
   13cae:	a825                	j	13ce6 <_ZN20complex_dynamic_type3app17h5385e684a09ac990E+0x13e>
   13cb0:	6505                	lui	a0,0x1
   13cb2:	e1650513          	addi	a0,a0,-490 # e16 <.Lline_table_start1+0xbeb>
   13cb6:	4589                	li	a1,2
   13cb8:	4601                	li	a2,0
   13cba:	4681                	li	a3,0
   13cbc:	00000073          	ecall
   13cc0:	05c14703          	lbu	a4,92(sp)
   13cc4:	4509                	li	a0,2
   13cc6:	00a10523          	sb	a0,10(sp)
   13cca:	00a71e63          	bne	a4,a0,13ce6 <_ZN20complex_dynamic_type3app17h5385e684a09ac990E+0x13e>
   13cce:	00198513          	addi	a0,s3,1
   13cd2:	04f00613          	li	a2,79
   13cd6:	85ca                	mv	a1,s2
   13cd8:	0000a097          	auipc	ra,0xa
   13cdc:	a9e080e7          	jalr	-1378(ra) # 1d776 <memcpy>
   13ce0:	00098023          	sb	zero,0(s3)
   13ce4:	bf4d                	j	13c96 <_ZN20complex_dynamic_type3app17h5385e684a09ac990E+0xee>
   13ce6:	6505                	lui	a0,0x1
   13ce8:	e1650513          	addi	a0,a0,-490 # e16 <.Lline_table_start1+0xbeb>
   13cec:	4591                	li	a1,4
   13cee:	4601                	li	a2,0
   13cf0:	4681                	li	a3,0
   13cf2:	00000073          	ecall
   13cf6:	00a14483          	lbu	s1,10(sp)
   13cfa:	00198513          	addi	a0,s3,1
   13cfe:	04f00613          	li	a2,79
   13d02:	85ca                	mv	a1,s2
   13d04:	0000a097          	auipc	ra,0xa
   13d08:	a72080e7          	jalr	-1422(ra) # 1d776 <memcpy>
   13d0c:	4509                	li	a0,2
   13d0e:	00098023          	sb	zero,0(s3)
   13d12:	f6a499e3          	bne	s1,a0,13c84 <_ZN20complex_dynamic_type3app17h5385e684a09ac990E+0xdc>
   13d16:	b741                	j	13c96 <_ZN20complex_dynamic_type3app17h5385e684a09ac990E+0xee>

00013d18 <_ZN20complex_dynamic_type3app17h5793958d5ed26e50E>:
   13d18:	7175                	addi	sp,sp,-144
   13d1a:	c706                	sw	ra,140(sp)
   13d1c:	c522                	sw	s0,136(sp)
   13d1e:	c326                	sw	s1,132(sp)
   13d20:	c14a                	sw	s2,128(sp)
   13d22:	dece                	sw	s3,124(sp)
   13d24:	89aa                	mv	s3,a0
   13d26:	4409                	li	s0,2
   13d28:	008104a3          	sb	s0,9(sp)
   13d2c:	00a10493          	addi	s1,sp,10
   13d30:	04800613          	li	a2,72
   13d34:	8526                	mv	a0,s1
   13d36:	0000a097          	auipc	ra,0xa
   13d3a:	a40080e7          	jalr	-1472(ra) # 1d776 <memcpy>
   13d3e:	05310913          	addi	s2,sp,83
   13d42:	02900613          	li	a2,41
   13d46:	854a                	mv	a0,s2
   13d48:	4581                	li	a1,0
   13d4a:	0000a097          	auipc	ra,0xa
   13d4e:	9c0080e7          	jalr	-1600(ra) # 1d70a <memset>
   13d52:	8626                	mv	a2,s1
   13d54:	04810923          	sb	s0,82(sp)
   13d58:	6509                	lui	a0,0x2
   13d5a:	4491                	li	s1,4
   13d5c:	458d                	li	a1,3
   13d5e:	6a450793          	addi	a5,a0,1700 # 26a4 <.Lline_table_start1+0x2479>
   13d62:	04800693          	li	a3,72
   13d66:	4711                	li	a4,4
   13d68:	853e                	mv	a0,a5
   13d6a:	00000073          	ecall
   13d6e:	00851863          	bne	a0,s0,13d7e <_ZN20complex_dynamic_type3app17h5793958d5ed26e50E+0x66>
   13d72:	4505                	li	a0,1
   13d74:	00a98023          	sb	a0,0(s3)
   13d78:	00b9a223          	sw	a1,4(s3)
   13d7c:	a0bd                	j	13dea <_ZN20complex_dynamic_type3app17h5793958d5ed26e50E+0xd2>
   13d7e:	853e                	mv	a0,a5
   13d80:	864a                	mv	a2,s2
   13d82:	009104a3          	sb	s1,9(sp)
   13d86:	478d                	li	a5,3
   13d88:	4591                	li	a1,4
   13d8a:	02900693          	li	a3,41
   13d8e:	470d                	li	a4,3
   13d90:	00000073          	ecall
   13d94:	00851d63          	bne	a0,s0,13dae <_ZN20complex_dynamic_type3app17h5793958d5ed26e50E+0x96>
   13d98:	05214703          	lbu	a4,82(sp)
   13d9c:	4505                	li	a0,1
   13d9e:	4609                	li	a2,2
   13da0:	00a98023          	sb	a0,0(s3)
   13da4:	00b9a223          	sw	a1,4(s3)
   13da8:	02c71963          	bne	a4,a2,13dda <_ZN20complex_dynamic_type3app17h5793958d5ed26e50E+0xc2>
   13dac:	a83d                	j	13dea <_ZN20complex_dynamic_type3app17h5793958d5ed26e50E+0xd2>
   13dae:	4681                	li	a3,0
   13db0:	04f10923          	sb	a5,82(sp)
   13db4:	6509                	lui	a0,0x2
   13db6:	458d                	li	a1,3
   13db8:	4611                	li	a2,4
   13dba:	4709                	li	a4,2
   13dbc:	6a450513          	addi	a0,a0,1700 # 26a4 <.Lline_table_start1+0x2479>
   13dc0:	07f00793          	li	a5,127
   13dc4:	00000073          	ecall
   13dc8:	4609                	li	a2,2
   13dca:	04a7e563          	bltu	a5,a0,13e14 <_ZN20complex_dynamic_type3app17h5793958d5ed26e50E+0xfc>
   13dce:	4505                	li	a0,1
   13dd0:	00a98023          	sb	a0,0(s3)
   13dd4:	00b9a223          	sw	a1,4(s3)
   13dd8:	470d                	li	a4,3
   13dda:	6509                	lui	a0,0x2
   13ddc:	6a450513          	addi	a0,a0,1700 # 26a4 <.Lline_table_start1+0x2479>
   13de0:	4591                	li	a1,4
   13de2:	4601                	li	a2,0
   13de4:	4681                	li	a3,0
   13de6:	00000073          	ecall
   13dea:	00914483          	lbu	s1,9(sp)
   13dee:	4509                	li	a0,2
   13df0:	00a48b63          	beq	s1,a0,13e06 <_ZN20complex_dynamic_type3app17h5793958d5ed26e50E+0xee>
   13df4:	6509                	lui	a0,0x2
   13df6:	6a450513          	addi	a0,a0,1700 # 26a4 <.Lline_table_start1+0x2479>
   13dfa:	458d                	li	a1,3
   13dfc:	4601                	li	a2,0
   13dfe:	4681                	li	a3,0
   13e00:	8726                	mv	a4,s1
   13e02:	00000073          	ecall
   13e06:	40ba                	lw	ra,140(sp)
   13e08:	442a                	lw	s0,136(sp)
   13e0a:	449a                	lw	s1,132(sp)
   13e0c:	490a                	lw	s2,128(sp)
   13e0e:	59f6                	lw	s3,124(sp)
   13e10:	6149                	addi	sp,sp,144
   13e12:	8082                	ret
   13e14:	00914703          	lbu	a4,9(sp)
   13e18:	00c71463          	bne	a4,a2,13e20 <_ZN20complex_dynamic_type3app17h5793958d5ed26e50E+0x108>
   13e1c:	470d                	li	a4,3
   13e1e:	a825                	j	13e56 <_ZN20complex_dynamic_type3app17h5793958d5ed26e50E+0x13e>
   13e20:	6509                	lui	a0,0x2
   13e22:	6a450513          	addi	a0,a0,1700 # 26a4 <.Lline_table_start1+0x2479>
   13e26:	458d                	li	a1,3
   13e28:	4601                	li	a2,0
   13e2a:	4681                	li	a3,0
   13e2c:	00000073          	ecall
   13e30:	05214703          	lbu	a4,82(sp)
   13e34:	4509                	li	a0,2
   13e36:	00a104a3          	sb	a0,9(sp)
   13e3a:	00a71e63          	bne	a4,a0,13e56 <_ZN20complex_dynamic_type3app17h5793958d5ed26e50E+0x13e>
   13e3e:	00198513          	addi	a0,s3,1
   13e42:	02900613          	li	a2,41
   13e46:	85ca                	mv	a1,s2
   13e48:	0000a097          	auipc	ra,0xa
   13e4c:	92e080e7          	jalr	-1746(ra) # 1d776 <memcpy>
   13e50:	00098023          	sb	zero,0(s3)
   13e54:	bf4d                	j	13e06 <_ZN20complex_dynamic_type3app17h5793958d5ed26e50E+0xee>
   13e56:	6509                	lui	a0,0x2
   13e58:	6a450513          	addi	a0,a0,1700 # 26a4 <.Lline_table_start1+0x2479>
   13e5c:	4591                	li	a1,4
   13e5e:	4601                	li	a2,0
   13e60:	4681                	li	a3,0
   13e62:	00000073          	ecall
   13e66:	00914483          	lbu	s1,9(sp)
   13e6a:	00198513          	addi	a0,s3,1
   13e6e:	02900613          	li	a2,41
   13e72:	85ca                	mv	a1,s2
   13e74:	0000a097          	auipc	ra,0xa
   13e78:	902080e7          	jalr	-1790(ra) # 1d776 <memcpy>
   13e7c:	4509                	li	a0,2
   13e7e:	00098023          	sb	zero,0(s3)
   13e82:	f6a499e3          	bne	s1,a0,13df4 <_ZN20complex_dynamic_type3app17h5793958d5ed26e50E+0xdc>
   13e86:	b741                	j	13e06 <_ZN20complex_dynamic_type3app17h5793958d5ed26e50E+0xee>

00013e88 <_ZN20complex_dynamic_type3app17h57fbde04965e50deE>:
   13e88:	7119                	addi	sp,sp,-128
   13e8a:	de86                	sw	ra,124(sp)
   13e8c:	dca2                	sw	s0,120(sp)
   13e8e:	daa6                	sw	s1,116(sp)
   13e90:	d8ca                	sw	s2,112(sp)
   13e92:	d6ce                	sw	s3,108(sp)
   13e94:	89aa                	mv	s3,a0
   13e96:	4409                	li	s0,2
   13e98:	00810723          	sb	s0,14(sp)
   13e9c:	00f10493          	addi	s1,sp,15
   13ea0:	466d                	li	a2,27
   13ea2:	8526                	mv	a0,s1
   13ea4:	0000a097          	auipc	ra,0xa
   13ea8:	8d2080e7          	jalr	-1838(ra) # 1d776 <memcpy>
   13eac:	02b10913          	addi	s2,sp,43
   13eb0:	04100613          	li	a2,65
   13eb4:	854a                	mv	a0,s2
   13eb6:	4581                	li	a1,0
   13eb8:	0000a097          	auipc	ra,0xa
   13ebc:	852080e7          	jalr	-1966(ra) # 1d70a <memset>
   13ec0:	8626                	mv	a2,s1
   13ec2:	02810523          	sb	s0,42(sp)
   13ec6:	4791                	li	a5,4
   13ec8:	14000513          	li	a0,320
   13ecc:	45a1                	li	a1,8
   13ece:	46ed                	li	a3,27
   13ed0:	4711                	li	a4,4
   13ed2:	00000073          	ecall
   13ed6:	00851863          	bne	a0,s0,13ee6 <_ZN20complex_dynamic_type3app17h57fbde04965e50deE+0x5e>
   13eda:	4505                	li	a0,1
   13edc:	00a98023          	sb	a0,0(s3)
   13ee0:	00b9a223          	sw	a1,4(s3)
   13ee4:	a0b5                	j	13f50 <_ZN20complex_dynamic_type3app17h57fbde04965e50deE+0xc8>
   13ee6:	864a                	mv	a2,s2
   13ee8:	00f10723          	sb	a5,14(sp)
   13eec:	478d                	li	a5,3
   13eee:	14000513          	li	a0,320
   13ef2:	45a5                	li	a1,9
   13ef4:	04100693          	li	a3,65
   13ef8:	470d                	li	a4,3
   13efa:	00000073          	ecall
   13efe:	00851d63          	bne	a0,s0,13f18 <_ZN20complex_dynamic_type3app17h57fbde04965e50deE+0x90>
   13f02:	02a14703          	lbu	a4,42(sp)
   13f06:	4505                	li	a0,1
   13f08:	4609                	li	a2,2
   13f0a:	00a98023          	sb	a0,0(s3)
   13f0e:	00b9a223          	sw	a1,4(s3)
   13f12:	02c71863          	bne	a4,a2,13f42 <_ZN20complex_dynamic_type3app17h57fbde04965e50deE+0xba>
   13f16:	a82d                	j	13f50 <_ZN20complex_dynamic_type3app17h57fbde04965e50deE+0xc8>
   13f18:	4681                	li	a3,0
   13f1a:	02f10523          	sb	a5,42(sp)
   13f1e:	14000513          	li	a0,320
   13f22:	45a1                	li	a1,8
   13f24:	4625                	li	a2,9
   13f26:	4709                	li	a4,2
   13f28:	07f00793          	li	a5,127
   13f2c:	00000073          	ecall
   13f30:	4609                	li	a2,2
   13f32:	04a7e363          	bltu	a5,a0,13f78 <_ZN20complex_dynamic_type3app17h57fbde04965e50deE+0xf0>
   13f36:	4505                	li	a0,1
   13f38:	00a98023          	sb	a0,0(s3)
   13f3c:	00b9a223          	sw	a1,4(s3)
   13f40:	470d                	li	a4,3
   13f42:	14000513          	li	a0,320
   13f46:	45a5                	li	a1,9
   13f48:	4601                	li	a2,0
   13f4a:	4681                	li	a3,0
   13f4c:	00000073          	ecall
   13f50:	00e14483          	lbu	s1,14(sp)
   13f54:	4509                	li	a0,2
   13f56:	00a48a63          	beq	s1,a0,13f6a <_ZN20complex_dynamic_type3app17h57fbde04965e50deE+0xe2>
   13f5a:	14000513          	li	a0,320
   13f5e:	45a1                	li	a1,8
   13f60:	4601                	li	a2,0
   13f62:	4681                	li	a3,0
   13f64:	8726                	mv	a4,s1
   13f66:	00000073          	ecall
   13f6a:	50f6                	lw	ra,124(sp)
   13f6c:	5466                	lw	s0,120(sp)
   13f6e:	54d6                	lw	s1,116(sp)
   13f70:	5946                	lw	s2,112(sp)
   13f72:	59b6                	lw	s3,108(sp)
   13f74:	6109                	addi	sp,sp,128
   13f76:	8082                	ret
   13f78:	00e14703          	lbu	a4,14(sp)
   13f7c:	00c71463          	bne	a4,a2,13f84 <_ZN20complex_dynamic_type3app17h57fbde04965e50deE+0xfc>
   13f80:	470d                	li	a4,3
   13f82:	a81d                	j	13fb8 <_ZN20complex_dynamic_type3app17h57fbde04965e50deE+0x130>
   13f84:	14000513          	li	a0,320
   13f88:	45a1                	li	a1,8
   13f8a:	4601                	li	a2,0
   13f8c:	4681                	li	a3,0
   13f8e:	00000073          	ecall
   13f92:	02a14703          	lbu	a4,42(sp)
   13f96:	4509                	li	a0,2
   13f98:	00a10723          	sb	a0,14(sp)
   13f9c:	00a71e63          	bne	a4,a0,13fb8 <_ZN20complex_dynamic_type3app17h57fbde04965e50deE+0x130>
   13fa0:	00198513          	addi	a0,s3,1
   13fa4:	04100613          	li	a2,65
   13fa8:	85ca                	mv	a1,s2
   13faa:	00009097          	auipc	ra,0x9
   13fae:	7cc080e7          	jalr	1996(ra) # 1d776 <memcpy>
   13fb2:	00098023          	sb	zero,0(s3)
   13fb6:	bf55                	j	13f6a <_ZN20complex_dynamic_type3app17h57fbde04965e50deE+0xe2>
   13fb8:	14000513          	li	a0,320
   13fbc:	45a5                	li	a1,9
   13fbe:	4601                	li	a2,0
   13fc0:	4681                	li	a3,0
   13fc2:	00000073          	ecall
   13fc6:	00e14483          	lbu	s1,14(sp)
   13fca:	00198513          	addi	a0,s3,1
   13fce:	04100613          	li	a2,65
   13fd2:	85ca                	mv	a1,s2
   13fd4:	00009097          	auipc	ra,0x9
   13fd8:	7a2080e7          	jalr	1954(ra) # 1d776 <memcpy>
   13fdc:	4509                	li	a0,2
   13fde:	00098023          	sb	zero,0(s3)
   13fe2:	f6a49ce3          	bne	s1,a0,13f5a <_ZN20complex_dynamic_type3app17h57fbde04965e50deE+0xd2>
   13fe6:	b751                	j	13f6a <_ZN20complex_dynamic_type3app17h57fbde04965e50deE+0xe2>

00013fe8 <_ZN20complex_dynamic_type3app17h5a6446bd19f2e815E>:
   13fe8:	7119                	addi	sp,sp,-128
   13fea:	de86                	sw	ra,124(sp)
   13fec:	dca2                	sw	s0,120(sp)
   13fee:	daa6                	sw	s1,116(sp)
   13ff0:	d8ca                	sw	s2,112(sp)
   13ff2:	d6ce                	sw	s3,108(sp)
   13ff4:	89aa                	mv	s3,a0
   13ff6:	4409                	li	s0,2
   13ff8:	00810023          	sb	s0,0(sp)
   13ffc:	00110493          	addi	s1,sp,1
   14000:	03600613          	li	a2,54
   14004:	8526                	mv	a0,s1
   14006:	00009097          	auipc	ra,0x9
   1400a:	770080e7          	jalr	1904(ra) # 1d776 <memcpy>
   1400e:	03810913          	addi	s2,sp,56
   14012:	03400613          	li	a2,52
   14016:	854a                	mv	a0,s2
   14018:	4581                	li	a1,0
   1401a:	00009097          	auipc	ra,0x9
   1401e:	6f0080e7          	jalr	1776(ra) # 1d70a <memset>
   14022:	8626                	mv	a2,s1
   14024:	02810ba3          	sb	s0,55(sp)
   14028:	6509                	lui	a0,0x2
   1402a:	4491                	li	s1,4
   1402c:	4591                	li	a1,4
   1402e:	3c650793          	addi	a5,a0,966 # 23c6 <.Lline_table_start1+0x219b>
   14032:	03600693          	li	a3,54
   14036:	4711                	li	a4,4
   14038:	853e                	mv	a0,a5
   1403a:	00000073          	ecall
   1403e:	00851863          	bne	a0,s0,1404e <_ZN20complex_dynamic_type3app17h5a6446bd19f2e815E+0x66>
   14042:	4505                	li	a0,1
   14044:	00a98023          	sb	a0,0(s3)
   14048:	00b9a223          	sw	a1,4(s3)
   1404c:	a0bd                	j	140ba <_ZN20complex_dynamic_type3app17h5a6446bd19f2e815E+0xd2>
   1404e:	853e                	mv	a0,a5
   14050:	864a                	mv	a2,s2
   14052:	00910023          	sb	s1,0(sp)
   14056:	478d                	li	a5,3
   14058:	4589                	li	a1,2
   1405a:	03400693          	li	a3,52
   1405e:	470d                	li	a4,3
   14060:	00000073          	ecall
   14064:	00851d63          	bne	a0,s0,1407e <_ZN20complex_dynamic_type3app17h5a6446bd19f2e815E+0x96>
   14068:	03714703          	lbu	a4,55(sp)
   1406c:	4505                	li	a0,1
   1406e:	4609                	li	a2,2
   14070:	00a98023          	sb	a0,0(s3)
   14074:	00b9a223          	sw	a1,4(s3)
   14078:	02c71963          	bne	a4,a2,140aa <_ZN20complex_dynamic_type3app17h5a6446bd19f2e815E+0xc2>
   1407c:	a83d                	j	140ba <_ZN20complex_dynamic_type3app17h5a6446bd19f2e815E+0xd2>
   1407e:	4681                	li	a3,0
   14080:	02f10ba3          	sb	a5,55(sp)
   14084:	6509                	lui	a0,0x2
   14086:	4591                	li	a1,4
   14088:	4609                	li	a2,2
   1408a:	4709                	li	a4,2
   1408c:	3c650513          	addi	a0,a0,966 # 23c6 <.Lline_table_start1+0x219b>
   14090:	07f00793          	li	a5,127
   14094:	00000073          	ecall
   14098:	4609                	li	a2,2
   1409a:	04a7e563          	bltu	a5,a0,140e4 <_ZN20complex_dynamic_type3app17h5a6446bd19f2e815E+0xfc>
   1409e:	4505                	li	a0,1
   140a0:	00a98023          	sb	a0,0(s3)
   140a4:	00b9a223          	sw	a1,4(s3)
   140a8:	470d                	li	a4,3
   140aa:	6509                	lui	a0,0x2
   140ac:	3c650513          	addi	a0,a0,966 # 23c6 <.Lline_table_start1+0x219b>
   140b0:	4589                	li	a1,2
   140b2:	4601                	li	a2,0
   140b4:	4681                	li	a3,0
   140b6:	00000073          	ecall
   140ba:	00014483          	lbu	s1,0(sp)
   140be:	4509                	li	a0,2
   140c0:	00a48b63          	beq	s1,a0,140d6 <_ZN20complex_dynamic_type3app17h5a6446bd19f2e815E+0xee>
   140c4:	6509                	lui	a0,0x2
   140c6:	3c650513          	addi	a0,a0,966 # 23c6 <.Lline_table_start1+0x219b>
   140ca:	4591                	li	a1,4
   140cc:	4601                	li	a2,0
   140ce:	4681                	li	a3,0
   140d0:	8726                	mv	a4,s1
   140d2:	00000073          	ecall
   140d6:	50f6                	lw	ra,124(sp)
   140d8:	5466                	lw	s0,120(sp)
   140da:	54d6                	lw	s1,116(sp)
   140dc:	5946                	lw	s2,112(sp)
   140de:	59b6                	lw	s3,108(sp)
   140e0:	6109                	addi	sp,sp,128
   140e2:	8082                	ret
   140e4:	00014703          	lbu	a4,0(sp)
   140e8:	00c71463          	bne	a4,a2,140f0 <_ZN20complex_dynamic_type3app17h5a6446bd19f2e815E+0x108>
   140ec:	470d                	li	a4,3
   140ee:	a825                	j	14126 <_ZN20complex_dynamic_type3app17h5a6446bd19f2e815E+0x13e>
   140f0:	6509                	lui	a0,0x2
   140f2:	3c650513          	addi	a0,a0,966 # 23c6 <.Lline_table_start1+0x219b>
   140f6:	4591                	li	a1,4
   140f8:	4601                	li	a2,0
   140fa:	4681                	li	a3,0
   140fc:	00000073          	ecall
   14100:	03714703          	lbu	a4,55(sp)
   14104:	4509                	li	a0,2
   14106:	00a10023          	sb	a0,0(sp)
   1410a:	00a71e63          	bne	a4,a0,14126 <_ZN20complex_dynamic_type3app17h5a6446bd19f2e815E+0x13e>
   1410e:	00198513          	addi	a0,s3,1
   14112:	03400613          	li	a2,52
   14116:	85ca                	mv	a1,s2
   14118:	00009097          	auipc	ra,0x9
   1411c:	65e080e7          	jalr	1630(ra) # 1d776 <memcpy>
   14120:	00098023          	sb	zero,0(s3)
   14124:	bf4d                	j	140d6 <_ZN20complex_dynamic_type3app17h5a6446bd19f2e815E+0xee>
   14126:	4601                	li	a2,0
   14128:	4681                	li	a3,0
   1412a:	6509                	lui	a0,0x2
   1412c:	3c650513          	addi	a0,a0,966 # 23c6 <.Lline_table_start1+0x219b>
   14130:	4589                	li	a1,2
   14132:	00000073          	ecall
   14136:	00014483          	lbu	s1,0(sp)
   1413a:	4409                	li	s0,2
   1413c:	00198513          	addi	a0,s3,1
   14140:	03400613          	li	a2,52
   14144:	85ca                	mv	a1,s2
   14146:	00009097          	auipc	ra,0x9
   1414a:	630080e7          	jalr	1584(ra) # 1d776 <memcpy>
   1414e:	00098023          	sb	zero,0(s3)
   14152:	f68499e3          	bne	s1,s0,140c4 <_ZN20complex_dynamic_type3app17h5a6446bd19f2e815E+0xdc>
   14156:	b741                	j	140d6 <_ZN20complex_dynamic_type3app17h5a6446bd19f2e815E+0xee>

00014158 <_ZN20complex_dynamic_type3app17h5bc85bd7bf8ebce8E>:
   14158:	7159                	addi	sp,sp,-112
   1415a:	d686                	sw	ra,108(sp)
   1415c:	d4a2                	sw	s0,104(sp)
   1415e:	d2a6                	sw	s1,100(sp)
   14160:	d0ca                	sw	s2,96(sp)
   14162:	cece                	sw	s3,92(sp)
   14164:	89aa                	mv	s3,a0
   14166:	4409                	li	s0,2
   14168:	008102a3          	sb	s0,5(sp)
   1416c:	00610493          	addi	s1,sp,6
   14170:	463d                	li	a2,15
   14172:	8526                	mv	a0,s1
   14174:	00009097          	auipc	ra,0x9
   14178:	602080e7          	jalr	1538(ra) # 1d776 <memcpy>
   1417c:	01610913          	addi	s2,sp,22
   14180:	04600613          	li	a2,70
   14184:	854a                	mv	a0,s2
   14186:	4581                	li	a1,0
   14188:	00009097          	auipc	ra,0x9
   1418c:	582080e7          	jalr	1410(ra) # 1d70a <memset>
   14190:	8626                	mv	a2,s1
   14192:	00810aa3          	sb	s0,21(sp)
   14196:	6509                	lui	a0,0x2
   14198:	4491                	li	s1,4
   1419a:	45a5                	li	a1,9
   1419c:	d7e50793          	addi	a5,a0,-642 # 1d7e <.Lline_table_start1+0x1b53>
   141a0:	46bd                	li	a3,15
   141a2:	4711                	li	a4,4
   141a4:	853e                	mv	a0,a5
   141a6:	00000073          	ecall
   141aa:	00851863          	bne	a0,s0,141ba <_ZN20complex_dynamic_type3app17h5bc85bd7bf8ebce8E+0x62>
   141ae:	4505                	li	a0,1
   141b0:	00a98023          	sb	a0,0(s3)
   141b4:	00b9a223          	sw	a1,4(s3)
   141b8:	a0bd                	j	14226 <_ZN20complex_dynamic_type3app17h5bc85bd7bf8ebce8E+0xce>
   141ba:	853e                	mv	a0,a5
   141bc:	864a                	mv	a2,s2
   141be:	009102a3          	sb	s1,5(sp)
   141c2:	478d                	li	a5,3
   141c4:	4589                	li	a1,2
   141c6:	04600693          	li	a3,70
   141ca:	470d                	li	a4,3
   141cc:	00000073          	ecall
   141d0:	00851d63          	bne	a0,s0,141ea <_ZN20complex_dynamic_type3app17h5bc85bd7bf8ebce8E+0x92>
   141d4:	01514703          	lbu	a4,21(sp)
   141d8:	4505                	li	a0,1
   141da:	4609                	li	a2,2
   141dc:	00a98023          	sb	a0,0(s3)
   141e0:	00b9a223          	sw	a1,4(s3)
   141e4:	02c71963          	bne	a4,a2,14216 <_ZN20complex_dynamic_type3app17h5bc85bd7bf8ebce8E+0xbe>
   141e8:	a83d                	j	14226 <_ZN20complex_dynamic_type3app17h5bc85bd7bf8ebce8E+0xce>
   141ea:	4681                	li	a3,0
   141ec:	00f10aa3          	sb	a5,21(sp)
   141f0:	6509                	lui	a0,0x2
   141f2:	45a5                	li	a1,9
   141f4:	4609                	li	a2,2
   141f6:	4709                	li	a4,2
   141f8:	d7e50513          	addi	a0,a0,-642 # 1d7e <.Lline_table_start1+0x1b53>
   141fc:	07f00793          	li	a5,127
   14200:	00000073          	ecall
   14204:	4609                	li	a2,2
   14206:	04a7e563          	bltu	a5,a0,14250 <_ZN20complex_dynamic_type3app17h5bc85bd7bf8ebce8E+0xf8>
   1420a:	4505                	li	a0,1
   1420c:	00a98023          	sb	a0,0(s3)
   14210:	00b9a223          	sw	a1,4(s3)
   14214:	470d                	li	a4,3
   14216:	6509                	lui	a0,0x2
   14218:	d7e50513          	addi	a0,a0,-642 # 1d7e <.Lline_table_start1+0x1b53>
   1421c:	4589                	li	a1,2
   1421e:	4601                	li	a2,0
   14220:	4681                	li	a3,0
   14222:	00000073          	ecall
   14226:	00514483          	lbu	s1,5(sp)
   1422a:	4509                	li	a0,2
   1422c:	00a48b63          	beq	s1,a0,14242 <_ZN20complex_dynamic_type3app17h5bc85bd7bf8ebce8E+0xea>
   14230:	6509                	lui	a0,0x2
   14232:	d7e50513          	addi	a0,a0,-642 # 1d7e <.Lline_table_start1+0x1b53>
   14236:	45a5                	li	a1,9
   14238:	4601                	li	a2,0
   1423a:	4681                	li	a3,0
   1423c:	8726                	mv	a4,s1
   1423e:	00000073          	ecall
   14242:	50b6                	lw	ra,108(sp)
   14244:	5426                	lw	s0,104(sp)
   14246:	5496                	lw	s1,100(sp)
   14248:	5906                	lw	s2,96(sp)
   1424a:	49f6                	lw	s3,92(sp)
   1424c:	6165                	addi	sp,sp,112
   1424e:	8082                	ret
   14250:	00514703          	lbu	a4,5(sp)
   14254:	00c71463          	bne	a4,a2,1425c <_ZN20complex_dynamic_type3app17h5bc85bd7bf8ebce8E+0x104>
   14258:	470d                	li	a4,3
   1425a:	a825                	j	14292 <_ZN20complex_dynamic_type3app17h5bc85bd7bf8ebce8E+0x13a>
   1425c:	6509                	lui	a0,0x2
   1425e:	d7e50513          	addi	a0,a0,-642 # 1d7e <.Lline_table_start1+0x1b53>
   14262:	45a5                	li	a1,9
   14264:	4601                	li	a2,0
   14266:	4681                	li	a3,0
   14268:	00000073          	ecall
   1426c:	01514703          	lbu	a4,21(sp)
   14270:	4509                	li	a0,2
   14272:	00a102a3          	sb	a0,5(sp)
   14276:	00a71e63          	bne	a4,a0,14292 <_ZN20complex_dynamic_type3app17h5bc85bd7bf8ebce8E+0x13a>
   1427a:	00198513          	addi	a0,s3,1
   1427e:	04600613          	li	a2,70
   14282:	85ca                	mv	a1,s2
   14284:	00009097          	auipc	ra,0x9
   14288:	4f2080e7          	jalr	1266(ra) # 1d776 <memcpy>
   1428c:	00098023          	sb	zero,0(s3)
   14290:	bf4d                	j	14242 <_ZN20complex_dynamic_type3app17h5bc85bd7bf8ebce8E+0xea>
   14292:	4601                	li	a2,0
   14294:	4681                	li	a3,0
   14296:	6509                	lui	a0,0x2
   14298:	d7e50513          	addi	a0,a0,-642 # 1d7e <.Lline_table_start1+0x1b53>
   1429c:	4589                	li	a1,2
   1429e:	00000073          	ecall
   142a2:	00514483          	lbu	s1,5(sp)
   142a6:	4409                	li	s0,2
   142a8:	00198513          	addi	a0,s3,1
   142ac:	04600613          	li	a2,70
   142b0:	85ca                	mv	a1,s2
   142b2:	00009097          	auipc	ra,0x9
   142b6:	4c4080e7          	jalr	1220(ra) # 1d776 <memcpy>
   142ba:	00098023          	sb	zero,0(s3)
   142be:	f68499e3          	bne	s1,s0,14230 <_ZN20complex_dynamic_type3app17h5bc85bd7bf8ebce8E+0xd8>
   142c2:	b741                	j	14242 <_ZN20complex_dynamic_type3app17h5bc85bd7bf8ebce8E+0xea>

000142c4 <_ZN20complex_dynamic_type3app17h5db2622679869037E>:
   142c4:	7175                	addi	sp,sp,-144
   142c6:	c706                	sw	ra,140(sp)
   142c8:	c522                	sw	s0,136(sp)
   142ca:	c326                	sw	s1,132(sp)
   142cc:	c14a                	sw	s2,128(sp)
   142ce:	dece                	sw	s3,124(sp)
   142d0:	89aa                	mv	s3,a0
   142d2:	4409                	li	s0,2
   142d4:	00810323          	sb	s0,6(sp)
   142d8:	00710493          	addi	s1,sp,7
   142dc:	02100613          	li	a2,33
   142e0:	8526                	mv	a0,s1
   142e2:	00009097          	auipc	ra,0x9
   142e6:	494080e7          	jalr	1172(ra) # 1d776 <memcpy>
   142ea:	02910913          	addi	s2,sp,41
   142ee:	05300613          	li	a2,83
   142f2:	854a                	mv	a0,s2
   142f4:	4581                	li	a1,0
   142f6:	00009097          	auipc	ra,0x9
   142fa:	414080e7          	jalr	1044(ra) # 1d70a <memset>
   142fe:	8626                	mv	a2,s1
   14300:	02810423          	sb	s0,40(sp)
   14304:	6509                	lui	a0,0x2
   14306:	4491                	li	s1,4
   14308:	4589                	li	a1,2
   1430a:	53e50793          	addi	a5,a0,1342 # 253e <.Lline_table_start1+0x2313>
   1430e:	02100693          	li	a3,33
   14312:	4711                	li	a4,4
   14314:	853e                	mv	a0,a5
   14316:	00000073          	ecall
   1431a:	00851863          	bne	a0,s0,1432a <_ZN20complex_dynamic_type3app17h5db2622679869037E+0x66>
   1431e:	4505                	li	a0,1
   14320:	00a98023          	sb	a0,0(s3)
   14324:	00b9a223          	sw	a1,4(s3)
   14328:	a0bd                	j	14396 <_ZN20complex_dynamic_type3app17h5db2622679869037E+0xd2>
   1432a:	853e                	mv	a0,a5
   1432c:	864a                	mv	a2,s2
   1432e:	00910323          	sb	s1,6(sp)
   14332:	478d                	li	a5,3
   14334:	45a1                	li	a1,8
   14336:	05300693          	li	a3,83
   1433a:	470d                	li	a4,3
   1433c:	00000073          	ecall
   14340:	00851d63          	bne	a0,s0,1435a <_ZN20complex_dynamic_type3app17h5db2622679869037E+0x96>
   14344:	02814703          	lbu	a4,40(sp)
   14348:	4505                	li	a0,1
   1434a:	4609                	li	a2,2
   1434c:	00a98023          	sb	a0,0(s3)
   14350:	00b9a223          	sw	a1,4(s3)
   14354:	02c71963          	bne	a4,a2,14386 <_ZN20complex_dynamic_type3app17h5db2622679869037E+0xc2>
   14358:	a83d                	j	14396 <_ZN20complex_dynamic_type3app17h5db2622679869037E+0xd2>
   1435a:	4681                	li	a3,0
   1435c:	02f10423          	sb	a5,40(sp)
   14360:	6509                	lui	a0,0x2
   14362:	4589                	li	a1,2
   14364:	4621                	li	a2,8
   14366:	4709                	li	a4,2
   14368:	53e50513          	addi	a0,a0,1342 # 253e <.Lline_table_start1+0x2313>
   1436c:	07f00793          	li	a5,127
   14370:	00000073          	ecall
   14374:	4609                	li	a2,2
   14376:	04a7e563          	bltu	a5,a0,143c0 <_ZN20complex_dynamic_type3app17h5db2622679869037E+0xfc>
   1437a:	4505                	li	a0,1
   1437c:	00a98023          	sb	a0,0(s3)
   14380:	00b9a223          	sw	a1,4(s3)
   14384:	470d                	li	a4,3
   14386:	6509                	lui	a0,0x2
   14388:	53e50513          	addi	a0,a0,1342 # 253e <.Lline_table_start1+0x2313>
   1438c:	45a1                	li	a1,8
   1438e:	4601                	li	a2,0
   14390:	4681                	li	a3,0
   14392:	00000073          	ecall
   14396:	00614483          	lbu	s1,6(sp)
   1439a:	4509                	li	a0,2
   1439c:	00a48b63          	beq	s1,a0,143b2 <_ZN20complex_dynamic_type3app17h5db2622679869037E+0xee>
   143a0:	6509                	lui	a0,0x2
   143a2:	53e50513          	addi	a0,a0,1342 # 253e <.Lline_table_start1+0x2313>
   143a6:	4589                	li	a1,2
   143a8:	4601                	li	a2,0
   143aa:	4681                	li	a3,0
   143ac:	8726                	mv	a4,s1
   143ae:	00000073          	ecall
   143b2:	40ba                	lw	ra,140(sp)
   143b4:	442a                	lw	s0,136(sp)
   143b6:	449a                	lw	s1,132(sp)
   143b8:	490a                	lw	s2,128(sp)
   143ba:	59f6                	lw	s3,124(sp)
   143bc:	6149                	addi	sp,sp,144
   143be:	8082                	ret
   143c0:	00614703          	lbu	a4,6(sp)
   143c4:	00c71463          	bne	a4,a2,143cc <_ZN20complex_dynamic_type3app17h5db2622679869037E+0x108>
   143c8:	470d                	li	a4,3
   143ca:	a825                	j	14402 <_ZN20complex_dynamic_type3app17h5db2622679869037E+0x13e>
   143cc:	6509                	lui	a0,0x2
   143ce:	53e50513          	addi	a0,a0,1342 # 253e <.Lline_table_start1+0x2313>
   143d2:	4589                	li	a1,2
   143d4:	4601                	li	a2,0
   143d6:	4681                	li	a3,0
   143d8:	00000073          	ecall
   143dc:	02814703          	lbu	a4,40(sp)
   143e0:	4509                	li	a0,2
   143e2:	00a10323          	sb	a0,6(sp)
   143e6:	00a71e63          	bne	a4,a0,14402 <_ZN20complex_dynamic_type3app17h5db2622679869037E+0x13e>
   143ea:	00198513          	addi	a0,s3,1
   143ee:	05300613          	li	a2,83
   143f2:	85ca                	mv	a1,s2
   143f4:	00009097          	auipc	ra,0x9
   143f8:	382080e7          	jalr	898(ra) # 1d776 <memcpy>
   143fc:	00098023          	sb	zero,0(s3)
   14400:	bf4d                	j	143b2 <_ZN20complex_dynamic_type3app17h5db2622679869037E+0xee>
   14402:	6509                	lui	a0,0x2
   14404:	53e50513          	addi	a0,a0,1342 # 253e <.Lline_table_start1+0x2313>
   14408:	45a1                	li	a1,8
   1440a:	4601                	li	a2,0
   1440c:	4681                	li	a3,0
   1440e:	00000073          	ecall
   14412:	00614483          	lbu	s1,6(sp)
   14416:	00198513          	addi	a0,s3,1
   1441a:	05300613          	li	a2,83
   1441e:	85ca                	mv	a1,s2
   14420:	00009097          	auipc	ra,0x9
   14424:	356080e7          	jalr	854(ra) # 1d776 <memcpy>
   14428:	4509                	li	a0,2
   1442a:	00098023          	sb	zero,0(s3)
   1442e:	f6a499e3          	bne	s1,a0,143a0 <_ZN20complex_dynamic_type3app17h5db2622679869037E+0xdc>
   14432:	b741                	j	143b2 <_ZN20complex_dynamic_type3app17h5db2622679869037E+0xee>

00014434 <_ZN20complex_dynamic_type3app17h5f28e04962ea37f7E>:
   14434:	7135                	addi	sp,sp,-160
   14436:	cf06                	sw	ra,156(sp)
   14438:	cd22                	sw	s0,152(sp)
   1443a:	cb26                	sw	s1,148(sp)
   1443c:	c94a                	sw	s2,144(sp)
   1443e:	c74e                	sw	s3,140(sp)
   14440:	89aa                	mv	s3,a0
   14442:	4409                	li	s0,2
   14444:	008100a3          	sb	s0,1(sp)
   14448:	00210493          	addi	s1,sp,2
   1444c:	04d00613          	li	a2,77
   14450:	8526                	mv	a0,s1
   14452:	00009097          	auipc	ra,0x9
   14456:	324080e7          	jalr	804(ra) # 1d776 <memcpy>
   1445a:	05010913          	addi	s2,sp,80
   1445e:	03c00613          	li	a2,60
   14462:	854a                	mv	a0,s2
   14464:	4581                	li	a1,0
   14466:	00009097          	auipc	ra,0x9
   1446a:	2a4080e7          	jalr	676(ra) # 1d70a <memset>
   1446e:	8626                	mv	a2,s1
   14470:	048107a3          	sb	s0,79(sp)
   14474:	6509                	lui	a0,0x2
   14476:	4491                	li	s1,4
   14478:	4591                	li	a1,4
   1447a:	1ab50793          	addi	a5,a0,427 # 21ab <.Lline_table_start1+0x1f80>
   1447e:	04d00693          	li	a3,77
   14482:	4711                	li	a4,4
   14484:	853e                	mv	a0,a5
   14486:	00000073          	ecall
   1448a:	00851863          	bne	a0,s0,1449a <_ZN20complex_dynamic_type3app17h5f28e04962ea37f7E+0x66>
   1448e:	4505                	li	a0,1
   14490:	00a98023          	sb	a0,0(s3)
   14494:	00b9a223          	sw	a1,4(s3)
   14498:	a0bd                	j	14506 <_ZN20complex_dynamic_type3app17h5f28e04962ea37f7E+0xd2>
   1449a:	853e                	mv	a0,a5
   1449c:	864a                	mv	a2,s2
   1449e:	009100a3          	sb	s1,1(sp)
   144a2:	478d                	li	a5,3
   144a4:	45a5                	li	a1,9
   144a6:	03c00693          	li	a3,60
   144aa:	470d                	li	a4,3
   144ac:	00000073          	ecall
   144b0:	00851d63          	bne	a0,s0,144ca <_ZN20complex_dynamic_type3app17h5f28e04962ea37f7E+0x96>
   144b4:	04f14703          	lbu	a4,79(sp)
   144b8:	4505                	li	a0,1
   144ba:	4609                	li	a2,2
   144bc:	00a98023          	sb	a0,0(s3)
   144c0:	00b9a223          	sw	a1,4(s3)
   144c4:	02c71963          	bne	a4,a2,144f6 <_ZN20complex_dynamic_type3app17h5f28e04962ea37f7E+0xc2>
   144c8:	a83d                	j	14506 <_ZN20complex_dynamic_type3app17h5f28e04962ea37f7E+0xd2>
   144ca:	4681                	li	a3,0
   144cc:	04f107a3          	sb	a5,79(sp)
   144d0:	6509                	lui	a0,0x2
   144d2:	4591                	li	a1,4
   144d4:	4625                	li	a2,9
   144d6:	4709                	li	a4,2
   144d8:	1ab50513          	addi	a0,a0,427 # 21ab <.Lline_table_start1+0x1f80>
   144dc:	07f00793          	li	a5,127
   144e0:	00000073          	ecall
   144e4:	4609                	li	a2,2
   144e6:	04a7e563          	bltu	a5,a0,14530 <_ZN20complex_dynamic_type3app17h5f28e04962ea37f7E+0xfc>
   144ea:	4505                	li	a0,1
   144ec:	00a98023          	sb	a0,0(s3)
   144f0:	00b9a223          	sw	a1,4(s3)
   144f4:	470d                	li	a4,3
   144f6:	6509                	lui	a0,0x2
   144f8:	1ab50513          	addi	a0,a0,427 # 21ab <.Lline_table_start1+0x1f80>
   144fc:	45a5                	li	a1,9
   144fe:	4601                	li	a2,0
   14500:	4681                	li	a3,0
   14502:	00000073          	ecall
   14506:	00114483          	lbu	s1,1(sp)
   1450a:	4509                	li	a0,2
   1450c:	00a48b63          	beq	s1,a0,14522 <_ZN20complex_dynamic_type3app17h5f28e04962ea37f7E+0xee>
   14510:	6509                	lui	a0,0x2
   14512:	1ab50513          	addi	a0,a0,427 # 21ab <.Lline_table_start1+0x1f80>
   14516:	4591                	li	a1,4
   14518:	4601                	li	a2,0
   1451a:	4681                	li	a3,0
   1451c:	8726                	mv	a4,s1
   1451e:	00000073          	ecall
   14522:	40fa                	lw	ra,156(sp)
   14524:	446a                	lw	s0,152(sp)
   14526:	44da                	lw	s1,148(sp)
   14528:	494a                	lw	s2,144(sp)
   1452a:	49ba                	lw	s3,140(sp)
   1452c:	610d                	addi	sp,sp,160
   1452e:	8082                	ret
   14530:	00114703          	lbu	a4,1(sp)
   14534:	00c71463          	bne	a4,a2,1453c <_ZN20complex_dynamic_type3app17h5f28e04962ea37f7E+0x108>
   14538:	470d                	li	a4,3
   1453a:	a825                	j	14572 <_ZN20complex_dynamic_type3app17h5f28e04962ea37f7E+0x13e>
   1453c:	6509                	lui	a0,0x2
   1453e:	1ab50513          	addi	a0,a0,427 # 21ab <.Lline_table_start1+0x1f80>
   14542:	4591                	li	a1,4
   14544:	4601                	li	a2,0
   14546:	4681                	li	a3,0
   14548:	00000073          	ecall
   1454c:	04f14703          	lbu	a4,79(sp)
   14550:	4509                	li	a0,2
   14552:	00a100a3          	sb	a0,1(sp)
   14556:	00a71e63          	bne	a4,a0,14572 <_ZN20complex_dynamic_type3app17h5f28e04962ea37f7E+0x13e>
   1455a:	00198513          	addi	a0,s3,1
   1455e:	03c00613          	li	a2,60
   14562:	85ca                	mv	a1,s2
   14564:	00009097          	auipc	ra,0x9
   14568:	212080e7          	jalr	530(ra) # 1d776 <memcpy>
   1456c:	00098023          	sb	zero,0(s3)
   14570:	bf4d                	j	14522 <_ZN20complex_dynamic_type3app17h5f28e04962ea37f7E+0xee>
   14572:	6509                	lui	a0,0x2
   14574:	1ab50513          	addi	a0,a0,427 # 21ab <.Lline_table_start1+0x1f80>
   14578:	45a5                	li	a1,9
   1457a:	4601                	li	a2,0
   1457c:	4681                	li	a3,0
   1457e:	00000073          	ecall
   14582:	00114483          	lbu	s1,1(sp)
   14586:	00198513          	addi	a0,s3,1
   1458a:	03c00613          	li	a2,60
   1458e:	85ca                	mv	a1,s2
   14590:	00009097          	auipc	ra,0x9
   14594:	1e6080e7          	jalr	486(ra) # 1d776 <memcpy>
   14598:	4509                	li	a0,2
   1459a:	00098023          	sb	zero,0(s3)
   1459e:	f6a499e3          	bne	s1,a0,14510 <_ZN20complex_dynamic_type3app17h5f28e04962ea37f7E+0xdc>
   145a2:	b741                	j	14522 <_ZN20complex_dynamic_type3app17h5f28e04962ea37f7E+0xee>

000145a4 <_ZN20complex_dynamic_type3app17h5fb432ef4c2629a9E>:
   145a4:	7131                	addi	sp,sp,-192
   145a6:	df06                	sw	ra,188(sp)
   145a8:	dd22                	sw	s0,184(sp)
   145aa:	db26                	sw	s1,180(sp)
   145ac:	d94a                	sw	s2,176(sp)
   145ae:	d74e                	sw	s3,172(sp)
   145b0:	89aa                	mv	s3,a0
   145b2:	4409                	li	s0,2
   145b4:	008106a3          	sb	s0,13(sp)
   145b8:	00e10493          	addi	s1,sp,14
   145bc:	05d00613          	li	a2,93
   145c0:	8526                	mv	a0,s1
   145c2:	00009097          	auipc	ra,0x9
   145c6:	1b4080e7          	jalr	436(ra) # 1d776 <memcpy>
   145ca:	06c10913          	addi	s2,sp,108
   145ce:	04000613          	li	a2,64
   145d2:	854a                	mv	a0,s2
   145d4:	4581                	li	a1,0
   145d6:	00009097          	auipc	ra,0x9
   145da:	134080e7          	jalr	308(ra) # 1d70a <memset>
   145de:	8626                	mv	a2,s1
   145e0:	068105a3          	sb	s0,107(sp)
   145e4:	6505                	lui	a0,0x1
   145e6:	4491                	li	s1,4
   145e8:	45a1                	li	a1,8
   145ea:	02850793          	addi	a5,a0,40 # 1028 <.Lline_table_start1+0xdfd>
   145ee:	05d00693          	li	a3,93
   145f2:	4711                	li	a4,4
   145f4:	853e                	mv	a0,a5
   145f6:	00000073          	ecall
   145fa:	00851863          	bne	a0,s0,1460a <_ZN20complex_dynamic_type3app17h5fb432ef4c2629a9E+0x66>
   145fe:	4505                	li	a0,1
   14600:	00a98023          	sb	a0,0(s3)
   14604:	00b9a223          	sw	a1,4(s3)
   14608:	a0bd                	j	14676 <_ZN20complex_dynamic_type3app17h5fb432ef4c2629a9E+0xd2>
   1460a:	853e                	mv	a0,a5
   1460c:	864a                	mv	a2,s2
   1460e:	009106a3          	sb	s1,13(sp)
   14612:	478d                	li	a5,3
   14614:	4591                	li	a1,4
   14616:	04000693          	li	a3,64
   1461a:	470d                	li	a4,3
   1461c:	00000073          	ecall
   14620:	00851d63          	bne	a0,s0,1463a <_ZN20complex_dynamic_type3app17h5fb432ef4c2629a9E+0x96>
   14624:	06b14703          	lbu	a4,107(sp)
   14628:	4505                	li	a0,1
   1462a:	4609                	li	a2,2
   1462c:	00a98023          	sb	a0,0(s3)
   14630:	00b9a223          	sw	a1,4(s3)
   14634:	02c71963          	bne	a4,a2,14666 <_ZN20complex_dynamic_type3app17h5fb432ef4c2629a9E+0xc2>
   14638:	a83d                	j	14676 <_ZN20complex_dynamic_type3app17h5fb432ef4c2629a9E+0xd2>
   1463a:	4681                	li	a3,0
   1463c:	06f105a3          	sb	a5,107(sp)
   14640:	6505                	lui	a0,0x1
   14642:	45a1                	li	a1,8
   14644:	4611                	li	a2,4
   14646:	4709                	li	a4,2
   14648:	02850513          	addi	a0,a0,40 # 1028 <.Lline_table_start1+0xdfd>
   1464c:	07f00793          	li	a5,127
   14650:	00000073          	ecall
   14654:	4609                	li	a2,2
   14656:	04a7e563          	bltu	a5,a0,146a0 <_ZN20complex_dynamic_type3app17h5fb432ef4c2629a9E+0xfc>
   1465a:	4505                	li	a0,1
   1465c:	00a98023          	sb	a0,0(s3)
   14660:	00b9a223          	sw	a1,4(s3)
   14664:	470d                	li	a4,3
   14666:	6505                	lui	a0,0x1
   14668:	02850513          	addi	a0,a0,40 # 1028 <.Lline_table_start1+0xdfd>
   1466c:	4591                	li	a1,4
   1466e:	4601                	li	a2,0
   14670:	4681                	li	a3,0
   14672:	00000073          	ecall
   14676:	00d14483          	lbu	s1,13(sp)
   1467a:	4509                	li	a0,2
   1467c:	00a48b63          	beq	s1,a0,14692 <_ZN20complex_dynamic_type3app17h5fb432ef4c2629a9E+0xee>
   14680:	6505                	lui	a0,0x1
   14682:	02850513          	addi	a0,a0,40 # 1028 <.Lline_table_start1+0xdfd>
   14686:	45a1                	li	a1,8
   14688:	4601                	li	a2,0
   1468a:	4681                	li	a3,0
   1468c:	8726                	mv	a4,s1
   1468e:	00000073          	ecall
   14692:	50fa                	lw	ra,188(sp)
   14694:	546a                	lw	s0,184(sp)
   14696:	54da                	lw	s1,180(sp)
   14698:	594a                	lw	s2,176(sp)
   1469a:	59ba                	lw	s3,172(sp)
   1469c:	6129                	addi	sp,sp,192
   1469e:	8082                	ret
   146a0:	00d14703          	lbu	a4,13(sp)
   146a4:	00c71463          	bne	a4,a2,146ac <_ZN20complex_dynamic_type3app17h5fb432ef4c2629a9E+0x108>
   146a8:	470d                	li	a4,3
   146aa:	a825                	j	146e2 <_ZN20complex_dynamic_type3app17h5fb432ef4c2629a9E+0x13e>
   146ac:	6505                	lui	a0,0x1
   146ae:	02850513          	addi	a0,a0,40 # 1028 <.Lline_table_start1+0xdfd>
   146b2:	45a1                	li	a1,8
   146b4:	4601                	li	a2,0
   146b6:	4681                	li	a3,0
   146b8:	00000073          	ecall
   146bc:	06b14703          	lbu	a4,107(sp)
   146c0:	4509                	li	a0,2
   146c2:	00a106a3          	sb	a0,13(sp)
   146c6:	00a71e63          	bne	a4,a0,146e2 <_ZN20complex_dynamic_type3app17h5fb432ef4c2629a9E+0x13e>
   146ca:	00198513          	addi	a0,s3,1
   146ce:	04000613          	li	a2,64
   146d2:	85ca                	mv	a1,s2
   146d4:	00009097          	auipc	ra,0x9
   146d8:	0a2080e7          	jalr	162(ra) # 1d776 <memcpy>
   146dc:	00098023          	sb	zero,0(s3)
   146e0:	bf4d                	j	14692 <_ZN20complex_dynamic_type3app17h5fb432ef4c2629a9E+0xee>
   146e2:	6505                	lui	a0,0x1
   146e4:	02850513          	addi	a0,a0,40 # 1028 <.Lline_table_start1+0xdfd>
   146e8:	4591                	li	a1,4
   146ea:	4601                	li	a2,0
   146ec:	4681                	li	a3,0
   146ee:	00000073          	ecall
   146f2:	00d14483          	lbu	s1,13(sp)
   146f6:	00198513          	addi	a0,s3,1
   146fa:	04000613          	li	a2,64
   146fe:	85ca                	mv	a1,s2
   14700:	00009097          	auipc	ra,0x9
   14704:	076080e7          	jalr	118(ra) # 1d776 <memcpy>
   14708:	4509                	li	a0,2
   1470a:	00098023          	sb	zero,0(s3)
   1470e:	f6a499e3          	bne	s1,a0,14680 <_ZN20complex_dynamic_type3app17h5fb432ef4c2629a9E+0xdc>
   14712:	b741                	j	14692 <_ZN20complex_dynamic_type3app17h5fb432ef4c2629a9E+0xee>

00014714 <_ZN20complex_dynamic_type3app17h67d789e02ef9c375E>:
   14714:	715d                	addi	sp,sp,-80
   14716:	c686                	sw	ra,76(sp)
   14718:	c4a2                	sw	s0,72(sp)
   1471a:	c2a6                	sw	s1,68(sp)
   1471c:	c0ca                	sw	s2,64(sp)
   1471e:	de4e                	sw	s3,60(sp)
   14720:	89aa                	mv	s3,a0
   14722:	4409                	li	s0,2
   14724:	00810123          	sb	s0,2(sp)
   14728:	00310493          	addi	s1,sp,3
   1472c:	02b00613          	li	a2,43
   14730:	8526                	mv	a0,s1
   14732:	00009097          	auipc	ra,0x9
   14736:	044080e7          	jalr	68(ra) # 1d776 <memcpy>
   1473a:	02f10913          	addi	s2,sp,47
   1473e:	4635                	li	a2,13
   14740:	854a                	mv	a0,s2
   14742:	4581                	li	a1,0
   14744:	00009097          	auipc	ra,0x9
   14748:	fc6080e7          	jalr	-58(ra) # 1d70a <memset>
   1474c:	8626                	mv	a2,s1
   1474e:	02810723          	sb	s0,46(sp)
   14752:	6505                	lui	a0,0x1
   14754:	4491                	li	s1,4
   14756:	4599                	li	a1,6
   14758:	46550793          	addi	a5,a0,1125 # 1465 <.Lline_table_start1+0x123a>
   1475c:	02b00693          	li	a3,43
   14760:	4711                	li	a4,4
   14762:	853e                	mv	a0,a5
   14764:	00000073          	ecall
   14768:	00851863          	bne	a0,s0,14778 <_ZN20complex_dynamic_type3app17h67d789e02ef9c375E+0x64>
   1476c:	4505                	li	a0,1
   1476e:	00a98023          	sb	a0,0(s3)
   14772:	00b9a223          	sw	a1,4(s3)
   14776:	a0b5                	j	147e2 <_ZN20complex_dynamic_type3app17h67d789e02ef9c375E+0xce>
   14778:	853e                	mv	a0,a5
   1477a:	4581                	li	a1,0
   1477c:	864a                	mv	a2,s2
   1477e:	00910123          	sb	s1,2(sp)
   14782:	478d                	li	a5,3
   14784:	46b5                	li	a3,13
   14786:	470d                	li	a4,3
   14788:	00000073          	ecall
   1478c:	00851d63          	bne	a0,s0,147a6 <_ZN20complex_dynamic_type3app17h67d789e02ef9c375E+0x92>
   14790:	02e14703          	lbu	a4,46(sp)
   14794:	4505                	li	a0,1
   14796:	4609                	li	a2,2
   14798:	00a98023          	sb	a0,0(s3)
   1479c:	00b9a223          	sw	a1,4(s3)
   147a0:	02c71963          	bne	a4,a2,147d2 <_ZN20complex_dynamic_type3app17h67d789e02ef9c375E+0xbe>
   147a4:	a83d                	j	147e2 <_ZN20complex_dynamic_type3app17h67d789e02ef9c375E+0xce>
   147a6:	4601                	li	a2,0
   147a8:	4681                	li	a3,0
   147aa:	02f10723          	sb	a5,46(sp)
   147ae:	6505                	lui	a0,0x1
   147b0:	4599                	li	a1,6
   147b2:	4709                	li	a4,2
   147b4:	46550513          	addi	a0,a0,1125 # 1465 <.Lline_table_start1+0x123a>
   147b8:	07f00793          	li	a5,127
   147bc:	00000073          	ecall
   147c0:	4609                	li	a2,2
   147c2:	04a7e563          	bltu	a5,a0,1480c <_ZN20complex_dynamic_type3app17h67d789e02ef9c375E+0xf8>
   147c6:	4505                	li	a0,1
   147c8:	00a98023          	sb	a0,0(s3)
   147cc:	00b9a223          	sw	a1,4(s3)
   147d0:	470d                	li	a4,3
   147d2:	6505                	lui	a0,0x1
   147d4:	46550513          	addi	a0,a0,1125 # 1465 <.Lline_table_start1+0x123a>
   147d8:	4581                	li	a1,0
   147da:	4601                	li	a2,0
   147dc:	4681                	li	a3,0
   147de:	00000073          	ecall
   147e2:	00214483          	lbu	s1,2(sp)
   147e6:	4509                	li	a0,2
   147e8:	00a48b63          	beq	s1,a0,147fe <_ZN20complex_dynamic_type3app17h67d789e02ef9c375E+0xea>
   147ec:	6505                	lui	a0,0x1
   147ee:	46550513          	addi	a0,a0,1125 # 1465 <.Lline_table_start1+0x123a>
   147f2:	4599                	li	a1,6
   147f4:	4601                	li	a2,0
   147f6:	4681                	li	a3,0
   147f8:	8726                	mv	a4,s1
   147fa:	00000073          	ecall
   147fe:	40b6                	lw	ra,76(sp)
   14800:	4426                	lw	s0,72(sp)
   14802:	4496                	lw	s1,68(sp)
   14804:	4906                	lw	s2,64(sp)
   14806:	59f2                	lw	s3,60(sp)
   14808:	6161                	addi	sp,sp,80
   1480a:	8082                	ret
   1480c:	00214703          	lbu	a4,2(sp)
   14810:	00c71463          	bne	a4,a2,14818 <_ZN20complex_dynamic_type3app17h67d789e02ef9c375E+0x104>
   14814:	470d                	li	a4,3
   14816:	a81d                	j	1484c <_ZN20complex_dynamic_type3app17h67d789e02ef9c375E+0x138>
   14818:	6505                	lui	a0,0x1
   1481a:	46550513          	addi	a0,a0,1125 # 1465 <.Lline_table_start1+0x123a>
   1481e:	4599                	li	a1,6
   14820:	4601                	li	a2,0
   14822:	4681                	li	a3,0
   14824:	00000073          	ecall
   14828:	02e14703          	lbu	a4,46(sp)
   1482c:	4509                	li	a0,2
   1482e:	00a10123          	sb	a0,2(sp)
   14832:	00a71d63          	bne	a4,a0,1484c <_ZN20complex_dynamic_type3app17h67d789e02ef9c375E+0x138>
   14836:	00198513          	addi	a0,s3,1
   1483a:	4635                	li	a2,13
   1483c:	85ca                	mv	a1,s2
   1483e:	00009097          	auipc	ra,0x9
   14842:	f38080e7          	jalr	-200(ra) # 1d776 <memcpy>
   14846:	00098023          	sb	zero,0(s3)
   1484a:	bf55                	j	147fe <_ZN20complex_dynamic_type3app17h67d789e02ef9c375E+0xea>
   1484c:	6505                	lui	a0,0x1
   1484e:	46550513          	addi	a0,a0,1125 # 1465 <.Lline_table_start1+0x123a>
   14852:	4581                	li	a1,0
   14854:	4601                	li	a2,0
   14856:	4681                	li	a3,0
   14858:	00000073          	ecall
   1485c:	00214483          	lbu	s1,2(sp)
   14860:	00198513          	addi	a0,s3,1
   14864:	4635                	li	a2,13
   14866:	85ca                	mv	a1,s2
   14868:	00009097          	auipc	ra,0x9
   1486c:	f0e080e7          	jalr	-242(ra) # 1d776 <memcpy>
   14870:	4509                	li	a0,2
   14872:	00098023          	sb	zero,0(s3)
   14876:	f6a49be3          	bne	s1,a0,147ec <_ZN20complex_dynamic_type3app17h67d789e02ef9c375E+0xd8>
   1487a:	b751                	j	147fe <_ZN20complex_dynamic_type3app17h67d789e02ef9c375E+0xea>

0001487c <_ZN20complex_dynamic_type3app17h683fe4f0de6796f5E>:
   1487c:	7175                	addi	sp,sp,-144
   1487e:	c706                	sw	ra,140(sp)
   14880:	c522                	sw	s0,136(sp)
   14882:	c326                	sw	s1,132(sp)
   14884:	c14a                	sw	s2,128(sp)
   14886:	dece                	sw	s3,124(sp)
   14888:	89aa                	mv	s3,a0
   1488a:	4409                	li	s0,2
   1488c:	008107a3          	sb	s0,15(sp)
   14890:	0804                	addi	s1,sp,16
   14892:	05000613          	li	a2,80
   14896:	8526                	mv	a0,s1
   14898:	00009097          	auipc	ra,0x9
   1489c:	ede080e7          	jalr	-290(ra) # 1d776 <memcpy>
   148a0:	06110913          	addi	s2,sp,97
   148a4:	466d                	li	a2,27
   148a6:	854a                	mv	a0,s2
   148a8:	4581                	li	a1,0
   148aa:	00009097          	auipc	ra,0x9
   148ae:	e60080e7          	jalr	-416(ra) # 1d70a <memset>
   148b2:	8626                	mv	a2,s1
   148b4:	06810023          	sb	s0,96(sp)
   148b8:	4785                	li	a5,1
   148ba:	4491                	li	s1,4
   148bc:	3d900513          	li	a0,985
   148c0:	4585                	li	a1,1
   148c2:	05000693          	li	a3,80
   148c6:	4711                	li	a4,4
   148c8:	00000073          	ecall
   148cc:	00851763          	bne	a0,s0,148da <_ZN20complex_dynamic_type3app17h683fe4f0de6796f5E+0x5e>
   148d0:	00f98023          	sb	a5,0(s3)
   148d4:	00b9a223          	sw	a1,4(s3)
   148d8:	a0ad                	j	14942 <_ZN20complex_dynamic_type3app17h683fe4f0de6796f5E+0xc6>
   148da:	864a                	mv	a2,s2
   148dc:	009107a3          	sb	s1,15(sp)
   148e0:	478d                	li	a5,3
   148e2:	3d900513          	li	a0,985
   148e6:	4589                	li	a1,2
   148e8:	46ed                	li	a3,27
   148ea:	470d                	li	a4,3
   148ec:	00000073          	ecall
   148f0:	00851d63          	bne	a0,s0,1490a <_ZN20complex_dynamic_type3app17h683fe4f0de6796f5E+0x8e>
   148f4:	06014703          	lbu	a4,96(sp)
   148f8:	4505                	li	a0,1
   148fa:	4609                	li	a2,2
   148fc:	00a98023          	sb	a0,0(s3)
   14900:	00b9a223          	sw	a1,4(s3)
   14904:	02c71863          	bne	a4,a2,14934 <_ZN20complex_dynamic_type3app17h683fe4f0de6796f5E+0xb8>
   14908:	a82d                	j	14942 <_ZN20complex_dynamic_type3app17h683fe4f0de6796f5E+0xc6>
   1490a:	4681                	li	a3,0
   1490c:	06f10023          	sb	a5,96(sp)
   14910:	4785                	li	a5,1
   14912:	3d900513          	li	a0,985
   14916:	4585                	li	a1,1
   14918:	4609                	li	a2,2
   1491a:	4709                	li	a4,2
   1491c:	07f00493          	li	s1,127
   14920:	00000073          	ecall
   14924:	4609                	li	a2,2
   14926:	04a4e263          	bltu	s1,a0,1496a <_ZN20complex_dynamic_type3app17h683fe4f0de6796f5E+0xee>
   1492a:	00f98023          	sb	a5,0(s3)
   1492e:	00b9a223          	sw	a1,4(s3)
   14932:	470d                	li	a4,3
   14934:	3d900513          	li	a0,985
   14938:	4589                	li	a1,2
   1493a:	4601                	li	a2,0
   1493c:	4681                	li	a3,0
   1493e:	00000073          	ecall
   14942:	00f14483          	lbu	s1,15(sp)
   14946:	4509                	li	a0,2
   14948:	00a48a63          	beq	s1,a0,1495c <_ZN20complex_dynamic_type3app17h683fe4f0de6796f5E+0xe0>
   1494c:	3d900513          	li	a0,985
   14950:	4585                	li	a1,1
   14952:	4601                	li	a2,0
   14954:	4681                	li	a3,0
   14956:	8726                	mv	a4,s1
   14958:	00000073          	ecall
   1495c:	40ba                	lw	ra,140(sp)
   1495e:	442a                	lw	s0,136(sp)
   14960:	449a                	lw	s1,132(sp)
   14962:	490a                	lw	s2,128(sp)
   14964:	59f6                	lw	s3,124(sp)
   14966:	6149                	addi	sp,sp,144
   14968:	8082                	ret
   1496a:	00f14703          	lbu	a4,15(sp)
   1496e:	00c71463          	bne	a4,a2,14976 <_ZN20complex_dynamic_type3app17h683fe4f0de6796f5E+0xfa>
   14972:	470d                	li	a4,3
   14974:	a815                	j	149a8 <_ZN20complex_dynamic_type3app17h683fe4f0de6796f5E+0x12c>
   14976:	3d900513          	li	a0,985
   1497a:	4585                	li	a1,1
   1497c:	4601                	li	a2,0
   1497e:	4681                	li	a3,0
   14980:	00000073          	ecall
   14984:	06014703          	lbu	a4,96(sp)
   14988:	4509                	li	a0,2
   1498a:	00a107a3          	sb	a0,15(sp)
   1498e:	00a71d63          	bne	a4,a0,149a8 <_ZN20complex_dynamic_type3app17h683fe4f0de6796f5E+0x12c>
   14992:	00198513          	addi	a0,s3,1
   14996:	466d                	li	a2,27
   14998:	85ca                	mv	a1,s2
   1499a:	00009097          	auipc	ra,0x9
   1499e:	ddc080e7          	jalr	-548(ra) # 1d776 <memcpy>
   149a2:	00098023          	sb	zero,0(s3)
   149a6:	bf5d                	j	1495c <_ZN20complex_dynamic_type3app17h683fe4f0de6796f5E+0xe0>
   149a8:	4601                	li	a2,0
   149aa:	4681                	li	a3,0
   149ac:	3d900513          	li	a0,985
   149b0:	4589                	li	a1,2
   149b2:	00000073          	ecall
   149b6:	00f14483          	lbu	s1,15(sp)
   149ba:	4409                	li	s0,2
   149bc:	00198513          	addi	a0,s3,1
   149c0:	466d                	li	a2,27
   149c2:	85ca                	mv	a1,s2
   149c4:	00009097          	auipc	ra,0x9
   149c8:	db2080e7          	jalr	-590(ra) # 1d776 <memcpy>
   149cc:	00098023          	sb	zero,0(s3)
   149d0:	f6849ee3          	bne	s1,s0,1494c <_ZN20complex_dynamic_type3app17h683fe4f0de6796f5E+0xd0>
   149d4:	b761                	j	1495c <_ZN20complex_dynamic_type3app17h683fe4f0de6796f5E+0xe0>

000149d6 <_ZN20complex_dynamic_type3app17h690bab216c26968aE>:
   149d6:	711d                	addi	sp,sp,-96
   149d8:	ce86                	sw	ra,92(sp)
   149da:	cca2                	sw	s0,88(sp)
   149dc:	caa6                	sw	s1,84(sp)
   149de:	c8ca                	sw	s2,80(sp)
   149e0:	c6ce                	sw	s3,76(sp)
   149e2:	89aa                	mv	s3,a0
   149e4:	4409                	li	s0,2
   149e6:	008100a3          	sb	s0,1(sp)
   149ea:	00210493          	addi	s1,sp,2
   149ee:	02b00613          	li	a2,43
   149f2:	8526                	mv	a0,s1
   149f4:	00009097          	auipc	ra,0x9
   149f8:	d82080e7          	jalr	-638(ra) # 1d776 <memcpy>
   149fc:	02e10913          	addi	s2,sp,46
   14a00:	4679                	li	a2,30
   14a02:	854a                	mv	a0,s2
   14a04:	4581                	li	a1,0
   14a06:	00009097          	auipc	ra,0x9
   14a0a:	d04080e7          	jalr	-764(ra) # 1d70a <memset>
   14a0e:	8626                	mv	a2,s1
   14a10:	028106a3          	sb	s0,45(sp)
   14a14:	4791                	li	a5,4
   14a16:	7e300513          	li	a0,2019
   14a1a:	459d                	li	a1,7
   14a1c:	02b00693          	li	a3,43
   14a20:	4711                	li	a4,4
   14a22:	00000073          	ecall
   14a26:	00851863          	bne	a0,s0,14a36 <_ZN20complex_dynamic_type3app17h690bab216c26968aE+0x60>
   14a2a:	4505                	li	a0,1
   14a2c:	00a98023          	sb	a0,0(s3)
   14a30:	00b9a223          	sw	a1,4(s3)
   14a34:	a0ad                	j	14a9e <_ZN20complex_dynamic_type3app17h690bab216c26968aE+0xc8>
   14a36:	864a                	mv	a2,s2
   14a38:	00f100a3          	sb	a5,1(sp)
   14a3c:	478d                	li	a5,3
   14a3e:	7e300513          	li	a0,2019
   14a42:	45a1                	li	a1,8
   14a44:	46f9                	li	a3,30
   14a46:	470d                	li	a4,3
   14a48:	00000073          	ecall
   14a4c:	00851d63          	bne	a0,s0,14a66 <_ZN20complex_dynamic_type3app17h690bab216c26968aE+0x90>
   14a50:	02d14703          	lbu	a4,45(sp)
   14a54:	4505                	li	a0,1
   14a56:	4609                	li	a2,2
   14a58:	00a98023          	sb	a0,0(s3)
   14a5c:	00b9a223          	sw	a1,4(s3)
   14a60:	02c71863          	bne	a4,a2,14a90 <_ZN20complex_dynamic_type3app17h690bab216c26968aE+0xba>
   14a64:	a82d                	j	14a9e <_ZN20complex_dynamic_type3app17h690bab216c26968aE+0xc8>
   14a66:	4681                	li	a3,0
   14a68:	02f106a3          	sb	a5,45(sp)
   14a6c:	7e300513          	li	a0,2019
   14a70:	459d                	li	a1,7
   14a72:	4621                	li	a2,8
   14a74:	4709                	li	a4,2
   14a76:	07f00793          	li	a5,127
   14a7a:	00000073          	ecall
   14a7e:	4609                	li	a2,2
   14a80:	04a7e363          	bltu	a5,a0,14ac6 <_ZN20complex_dynamic_type3app17h690bab216c26968aE+0xf0>
   14a84:	4505                	li	a0,1
   14a86:	00a98023          	sb	a0,0(s3)
   14a8a:	00b9a223          	sw	a1,4(s3)
   14a8e:	470d                	li	a4,3
   14a90:	7e300513          	li	a0,2019
   14a94:	45a1                	li	a1,8
   14a96:	4601                	li	a2,0
   14a98:	4681                	li	a3,0
   14a9a:	00000073          	ecall
   14a9e:	00114483          	lbu	s1,1(sp)
   14aa2:	4509                	li	a0,2
   14aa4:	00a48a63          	beq	s1,a0,14ab8 <_ZN20complex_dynamic_type3app17h690bab216c26968aE+0xe2>
   14aa8:	7e300513          	li	a0,2019
   14aac:	459d                	li	a1,7
   14aae:	4601                	li	a2,0
   14ab0:	4681                	li	a3,0
   14ab2:	8726                	mv	a4,s1
   14ab4:	00000073          	ecall
   14ab8:	40f6                	lw	ra,92(sp)
   14aba:	4466                	lw	s0,88(sp)
   14abc:	44d6                	lw	s1,84(sp)
   14abe:	4946                	lw	s2,80(sp)
   14ac0:	49b6                	lw	s3,76(sp)
   14ac2:	6125                	addi	sp,sp,96
   14ac4:	8082                	ret
   14ac6:	00114703          	lbu	a4,1(sp)
   14aca:	00c71463          	bne	a4,a2,14ad2 <_ZN20complex_dynamic_type3app17h690bab216c26968aE+0xfc>
   14ace:	470d                	li	a4,3
   14ad0:	a815                	j	14b04 <_ZN20complex_dynamic_type3app17h690bab216c26968aE+0x12e>
   14ad2:	7e300513          	li	a0,2019
   14ad6:	459d                	li	a1,7
   14ad8:	4601                	li	a2,0
   14ada:	4681                	li	a3,0
   14adc:	00000073          	ecall
   14ae0:	02d14703          	lbu	a4,45(sp)
   14ae4:	4509                	li	a0,2
   14ae6:	00a100a3          	sb	a0,1(sp)
   14aea:	00a71d63          	bne	a4,a0,14b04 <_ZN20complex_dynamic_type3app17h690bab216c26968aE+0x12e>
   14aee:	00198513          	addi	a0,s3,1
   14af2:	4679                	li	a2,30
   14af4:	85ca                	mv	a1,s2
   14af6:	00009097          	auipc	ra,0x9
   14afa:	c80080e7          	jalr	-896(ra) # 1d776 <memcpy>
   14afe:	00098023          	sb	zero,0(s3)
   14b02:	bf5d                	j	14ab8 <_ZN20complex_dynamic_type3app17h690bab216c26968aE+0xe2>
   14b04:	7e300513          	li	a0,2019
   14b08:	45a1                	li	a1,8
   14b0a:	4601                	li	a2,0
   14b0c:	4681                	li	a3,0
   14b0e:	00000073          	ecall
   14b12:	00114483          	lbu	s1,1(sp)
   14b16:	00198513          	addi	a0,s3,1
   14b1a:	4679                	li	a2,30
   14b1c:	85ca                	mv	a1,s2
   14b1e:	00009097          	auipc	ra,0x9
   14b22:	c58080e7          	jalr	-936(ra) # 1d776 <memcpy>
   14b26:	4509                	li	a0,2
   14b28:	00098023          	sb	zero,0(s3)
   14b2c:	f6a49ee3          	bne	s1,a0,14aa8 <_ZN20complex_dynamic_type3app17h690bab216c26968aE+0xd2>
   14b30:	b761                	j	14ab8 <_ZN20complex_dynamic_type3app17h690bab216c26968aE+0xe2>

00014b32 <_ZN20complex_dynamic_type3app17h6b00f433c73f2c53E>:
   14b32:	7175                	addi	sp,sp,-144
   14b34:	c706                	sw	ra,140(sp)
   14b36:	c522                	sw	s0,136(sp)
   14b38:	c326                	sw	s1,132(sp)
   14b3a:	c14a                	sw	s2,128(sp)
   14b3c:	dece                	sw	s3,124(sp)
   14b3e:	89aa                	mv	s3,a0
   14b40:	4409                	li	s0,2
   14b42:	008105a3          	sb	s0,11(sp)
   14b46:	0064                	addi	s1,sp,12
   14b48:	05d00613          	li	a2,93
   14b4c:	8526                	mv	a0,s1
   14b4e:	00009097          	auipc	ra,0x9
   14b52:	c28080e7          	jalr	-984(ra) # 1d776 <memcpy>
   14b56:	06a10913          	addi	s2,sp,106
   14b5a:	4649                	li	a2,18
   14b5c:	854a                	mv	a0,s2
   14b5e:	4581                	li	a1,0
   14b60:	00009097          	auipc	ra,0x9
   14b64:	baa080e7          	jalr	-1110(ra) # 1d70a <memset>
   14b68:	4581                	li	a1,0
   14b6a:	8626                	mv	a2,s1
   14b6c:	068104a3          	sb	s0,105(sp)
   14b70:	6505                	lui	a0,0x1
   14b72:	4491                	li	s1,4
   14b74:	5f150793          	addi	a5,a0,1521 # 15f1 <.Lline_table_start1+0x13c6>
   14b78:	05d00693          	li	a3,93
   14b7c:	4711                	li	a4,4
   14b7e:	853e                	mv	a0,a5
   14b80:	00000073          	ecall
   14b84:	00851863          	bne	a0,s0,14b94 <_ZN20complex_dynamic_type3app17h6b00f433c73f2c53E+0x62>
   14b88:	4505                	li	a0,1
   14b8a:	00a98023          	sb	a0,0(s3)
   14b8e:	00b9a223          	sw	a1,4(s3)
   14b92:	a0b5                	j	14bfe <_ZN20complex_dynamic_type3app17h6b00f433c73f2c53E+0xcc>
   14b94:	853e                	mv	a0,a5
   14b96:	864a                	mv	a2,s2
   14b98:	009105a3          	sb	s1,11(sp)
   14b9c:	478d                	li	a5,3
   14b9e:	4589                	li	a1,2
   14ba0:	46c9                	li	a3,18
   14ba2:	470d                	li	a4,3
   14ba4:	00000073          	ecall
   14ba8:	00851d63          	bne	a0,s0,14bc2 <_ZN20complex_dynamic_type3app17h6b00f433c73f2c53E+0x90>
   14bac:	06914703          	lbu	a4,105(sp)
   14bb0:	4505                	li	a0,1
   14bb2:	4609                	li	a2,2
   14bb4:	00a98023          	sb	a0,0(s3)
   14bb8:	00b9a223          	sw	a1,4(s3)
   14bbc:	02c71963          	bne	a4,a2,14bee <_ZN20complex_dynamic_type3app17h6b00f433c73f2c53E+0xbc>
   14bc0:	a83d                	j	14bfe <_ZN20complex_dynamic_type3app17h6b00f433c73f2c53E+0xcc>
   14bc2:	4581                	li	a1,0
   14bc4:	4681                	li	a3,0
   14bc6:	06f104a3          	sb	a5,105(sp)
   14bca:	6505                	lui	a0,0x1
   14bcc:	4609                	li	a2,2
   14bce:	4709                	li	a4,2
   14bd0:	5f150513          	addi	a0,a0,1521 # 15f1 <.Lline_table_start1+0x13c6>
   14bd4:	07f00793          	li	a5,127
   14bd8:	00000073          	ecall
   14bdc:	4609                	li	a2,2
   14bde:	04a7e563          	bltu	a5,a0,14c28 <_ZN20complex_dynamic_type3app17h6b00f433c73f2c53E+0xf6>
   14be2:	4505                	li	a0,1
   14be4:	00a98023          	sb	a0,0(s3)
   14be8:	00b9a223          	sw	a1,4(s3)
   14bec:	470d                	li	a4,3
   14bee:	6505                	lui	a0,0x1
   14bf0:	5f150513          	addi	a0,a0,1521 # 15f1 <.Lline_table_start1+0x13c6>
   14bf4:	4589                	li	a1,2
   14bf6:	4601                	li	a2,0
   14bf8:	4681                	li	a3,0
   14bfa:	00000073          	ecall
   14bfe:	00b14483          	lbu	s1,11(sp)
   14c02:	4509                	li	a0,2
   14c04:	00a48b63          	beq	s1,a0,14c1a <_ZN20complex_dynamic_type3app17h6b00f433c73f2c53E+0xe8>
   14c08:	6505                	lui	a0,0x1
   14c0a:	5f150513          	addi	a0,a0,1521 # 15f1 <.Lline_table_start1+0x13c6>
   14c0e:	4581                	li	a1,0
   14c10:	4601                	li	a2,0
   14c12:	4681                	li	a3,0
   14c14:	8726                	mv	a4,s1
   14c16:	00000073          	ecall
   14c1a:	40ba                	lw	ra,140(sp)
   14c1c:	442a                	lw	s0,136(sp)
   14c1e:	449a                	lw	s1,132(sp)
   14c20:	490a                	lw	s2,128(sp)
   14c22:	59f6                	lw	s3,124(sp)
   14c24:	6149                	addi	sp,sp,144
   14c26:	8082                	ret
   14c28:	00b14703          	lbu	a4,11(sp)
   14c2c:	00c71463          	bne	a4,a2,14c34 <_ZN20complex_dynamic_type3app17h6b00f433c73f2c53E+0x102>
   14c30:	470d                	li	a4,3
   14c32:	a81d                	j	14c68 <_ZN20complex_dynamic_type3app17h6b00f433c73f2c53E+0x136>
   14c34:	6505                	lui	a0,0x1
   14c36:	5f150513          	addi	a0,a0,1521 # 15f1 <.Lline_table_start1+0x13c6>
   14c3a:	4581                	li	a1,0
   14c3c:	4601                	li	a2,0
   14c3e:	4681                	li	a3,0
   14c40:	00000073          	ecall
   14c44:	06914703          	lbu	a4,105(sp)
   14c48:	4509                	li	a0,2
   14c4a:	00a105a3          	sb	a0,11(sp)
   14c4e:	00a71d63          	bne	a4,a0,14c68 <_ZN20complex_dynamic_type3app17h6b00f433c73f2c53E+0x136>
   14c52:	00198513          	addi	a0,s3,1
   14c56:	4649                	li	a2,18
   14c58:	85ca                	mv	a1,s2
   14c5a:	00009097          	auipc	ra,0x9
   14c5e:	b1c080e7          	jalr	-1252(ra) # 1d776 <memcpy>
   14c62:	00098023          	sb	zero,0(s3)
   14c66:	bf55                	j	14c1a <_ZN20complex_dynamic_type3app17h6b00f433c73f2c53E+0xe8>
   14c68:	4601                	li	a2,0
   14c6a:	4681                	li	a3,0
   14c6c:	6505                	lui	a0,0x1
   14c6e:	5f150513          	addi	a0,a0,1521 # 15f1 <.Lline_table_start1+0x13c6>
   14c72:	4589                	li	a1,2
   14c74:	00000073          	ecall
   14c78:	00b14483          	lbu	s1,11(sp)
   14c7c:	4409                	li	s0,2
   14c7e:	00198513          	addi	a0,s3,1
   14c82:	4649                	li	a2,18
   14c84:	85ca                	mv	a1,s2
   14c86:	00009097          	auipc	ra,0x9
   14c8a:	af0080e7          	jalr	-1296(ra) # 1d776 <memcpy>
   14c8e:	00098023          	sb	zero,0(s3)
   14c92:	f6849be3          	bne	s1,s0,14c08 <_ZN20complex_dynamic_type3app17h6b00f433c73f2c53E+0xd6>
   14c96:	b751                	j	14c1a <_ZN20complex_dynamic_type3app17h6b00f433c73f2c53E+0xe8>

00014c98 <_ZN20complex_dynamic_type3app17h6bfa7838edee86b6E>:
   14c98:	711d                	addi	sp,sp,-96
   14c9a:	ce86                	sw	ra,92(sp)
   14c9c:	cca2                	sw	s0,88(sp)
   14c9e:	caa6                	sw	s1,84(sp)
   14ca0:	c8ca                	sw	s2,80(sp)
   14ca2:	c6ce                	sw	s3,76(sp)
   14ca4:	89aa                	mv	s3,a0
   14ca6:	4409                	li	s0,2
   14ca8:	00810223          	sb	s0,4(sp)
   14cac:	00510493          	addi	s1,sp,5
   14cb0:	4641                	li	a2,16
   14cb2:	8526                	mv	a0,s1
   14cb4:	00009097          	auipc	ra,0x9
   14cb8:	ac2080e7          	jalr	-1342(ra) # 1d776 <memcpy>
   14cbc:	01610913          	addi	s2,sp,22
   14cc0:	03600613          	li	a2,54
   14cc4:	854a                	mv	a0,s2
   14cc6:	4581                	li	a1,0
   14cc8:	00009097          	auipc	ra,0x9
   14ccc:	a42080e7          	jalr	-1470(ra) # 1d70a <memset>
   14cd0:	8626                	mv	a2,s1
   14cd2:	00810aa3          	sb	s0,21(sp)
   14cd6:	6509                	lui	a0,0x2
   14cd8:	4805                	li	a6,1
   14cda:	4491                	li	s1,4
   14cdc:	4585                	li	a1,1
   14cde:	98950793          	addi	a5,a0,-1655 # 1989 <.Lline_table_start1+0x175e>
   14ce2:	46c1                	li	a3,16
   14ce4:	4711                	li	a4,4
   14ce6:	853e                	mv	a0,a5
   14ce8:	00000073          	ecall
   14cec:	00851763          	bne	a0,s0,14cfa <_ZN20complex_dynamic_type3app17h6bfa7838edee86b6E+0x62>
   14cf0:	01098023          	sb	a6,0(s3)
   14cf4:	00b9a223          	sw	a1,4(s3)
   14cf8:	a0bd                	j	14d66 <_ZN20complex_dynamic_type3app17h6bfa7838edee86b6E+0xce>
   14cfa:	853e                	mv	a0,a5
   14cfc:	864a                	mv	a2,s2
   14cfe:	00910223          	sb	s1,4(sp)
   14d02:	478d                	li	a5,3
   14d04:	459d                	li	a1,7
   14d06:	03600693          	li	a3,54
   14d0a:	470d                	li	a4,3
   14d0c:	00000073          	ecall
   14d10:	00851d63          	bne	a0,s0,14d2a <_ZN20complex_dynamic_type3app17h6bfa7838edee86b6E+0x92>
   14d14:	01514703          	lbu	a4,21(sp)
   14d18:	4505                	li	a0,1
   14d1a:	4609                	li	a2,2
   14d1c:	00a98023          	sb	a0,0(s3)
   14d20:	00b9a223          	sw	a1,4(s3)
   14d24:	02c71963          	bne	a4,a2,14d56 <_ZN20complex_dynamic_type3app17h6bfa7838edee86b6E+0xbe>
   14d28:	a83d                	j	14d66 <_ZN20complex_dynamic_type3app17h6bfa7838edee86b6E+0xce>
   14d2a:	4681                	li	a3,0
   14d2c:	00f10aa3          	sb	a5,21(sp)
   14d30:	6509                	lui	a0,0x2
   14d32:	4785                	li	a5,1
   14d34:	4585                	li	a1,1
   14d36:	461d                	li	a2,7
   14d38:	4709                	li	a4,2
   14d3a:	98950513          	addi	a0,a0,-1655 # 1989 <.Lline_table_start1+0x175e>
   14d3e:	07f00493          	li	s1,127
   14d42:	00000073          	ecall
   14d46:	4609                	li	a2,2
   14d48:	04a4e463          	bltu	s1,a0,14d90 <_ZN20complex_dynamic_type3app17h6bfa7838edee86b6E+0xf8>
   14d4c:	00f98023          	sb	a5,0(s3)
   14d50:	00b9a223          	sw	a1,4(s3)
   14d54:	470d                	li	a4,3
   14d56:	6509                	lui	a0,0x2
   14d58:	98950513          	addi	a0,a0,-1655 # 1989 <.Lline_table_start1+0x175e>
   14d5c:	459d                	li	a1,7
   14d5e:	4601                	li	a2,0
   14d60:	4681                	li	a3,0
   14d62:	00000073          	ecall
   14d66:	00414483          	lbu	s1,4(sp)
   14d6a:	4509                	li	a0,2
   14d6c:	00a48b63          	beq	s1,a0,14d82 <_ZN20complex_dynamic_type3app17h6bfa7838edee86b6E+0xea>
   14d70:	6509                	lui	a0,0x2
   14d72:	98950513          	addi	a0,a0,-1655 # 1989 <.Lline_table_start1+0x175e>
   14d76:	4585                	li	a1,1
   14d78:	4601                	li	a2,0
   14d7a:	4681                	li	a3,0
   14d7c:	8726                	mv	a4,s1
   14d7e:	00000073          	ecall
   14d82:	40f6                	lw	ra,92(sp)
   14d84:	4466                	lw	s0,88(sp)
   14d86:	44d6                	lw	s1,84(sp)
   14d88:	4946                	lw	s2,80(sp)
   14d8a:	49b6                	lw	s3,76(sp)
   14d8c:	6125                	addi	sp,sp,96
   14d8e:	8082                	ret
   14d90:	00414703          	lbu	a4,4(sp)
   14d94:	00c71463          	bne	a4,a2,14d9c <_ZN20complex_dynamic_type3app17h6bfa7838edee86b6E+0x104>
   14d98:	470d                	li	a4,3
   14d9a:	a825                	j	14dd2 <_ZN20complex_dynamic_type3app17h6bfa7838edee86b6E+0x13a>
   14d9c:	6509                	lui	a0,0x2
   14d9e:	98950513          	addi	a0,a0,-1655 # 1989 <.Lline_table_start1+0x175e>
   14da2:	4585                	li	a1,1
   14da4:	4601                	li	a2,0
   14da6:	4681                	li	a3,0
   14da8:	00000073          	ecall
   14dac:	01514703          	lbu	a4,21(sp)
   14db0:	4509                	li	a0,2
   14db2:	00a10223          	sb	a0,4(sp)
   14db6:	00a71e63          	bne	a4,a0,14dd2 <_ZN20complex_dynamic_type3app17h6bfa7838edee86b6E+0x13a>
   14dba:	00198513          	addi	a0,s3,1
   14dbe:	03600613          	li	a2,54
   14dc2:	85ca                	mv	a1,s2
   14dc4:	00009097          	auipc	ra,0x9
   14dc8:	9b2080e7          	jalr	-1614(ra) # 1d776 <memcpy>
   14dcc:	00098023          	sb	zero,0(s3)
   14dd0:	bf4d                	j	14d82 <_ZN20complex_dynamic_type3app17h6bfa7838edee86b6E+0xea>
   14dd2:	6509                	lui	a0,0x2
   14dd4:	98950513          	addi	a0,a0,-1655 # 1989 <.Lline_table_start1+0x175e>
   14dd8:	459d                	li	a1,7
   14dda:	4601                	li	a2,0
   14ddc:	4681                	li	a3,0
   14dde:	00000073          	ecall
   14de2:	00414483          	lbu	s1,4(sp)
   14de6:	00198513          	addi	a0,s3,1
   14dea:	03600613          	li	a2,54
   14dee:	85ca                	mv	a1,s2
   14df0:	00009097          	auipc	ra,0x9
   14df4:	986080e7          	jalr	-1658(ra) # 1d776 <memcpy>
   14df8:	4509                	li	a0,2
   14dfa:	00098023          	sb	zero,0(s3)
   14dfe:	f6a499e3          	bne	s1,a0,14d70 <_ZN20complex_dynamic_type3app17h6bfa7838edee86b6E+0xd8>
   14e02:	b741                	j	14d82 <_ZN20complex_dynamic_type3app17h6bfa7838edee86b6E+0xea>

00014e04 <_ZN20complex_dynamic_type3app17h7656decfe025aa5bE>:
   14e04:	7135                	addi	sp,sp,-160
   14e06:	cf06                	sw	ra,156(sp)
   14e08:	cd22                	sw	s0,152(sp)
   14e0a:	cb26                	sw	s1,148(sp)
   14e0c:	c94a                	sw	s2,144(sp)
   14e0e:	c74e                	sw	s3,140(sp)
   14e10:	89aa                	mv	s3,a0
   14e12:	4409                	li	s0,2
   14e14:	008105a3          	sb	s0,11(sp)
   14e18:	0064                	addi	s1,sp,12
   14e1a:	06100613          	li	a2,97
   14e1e:	8526                	mv	a0,s1
   14e20:	00009097          	auipc	ra,0x9
   14e24:	956080e7          	jalr	-1706(ra) # 1d776 <memcpy>
   14e28:	06e10913          	addi	s2,sp,110
   14e2c:	4679                	li	a2,30
   14e2e:	854a                	mv	a0,s2
   14e30:	4581                	li	a1,0
   14e32:	00009097          	auipc	ra,0x9
   14e36:	8d8080e7          	jalr	-1832(ra) # 1d70a <memset>
   14e3a:	8626                	mv	a2,s1
   14e3c:	068106a3          	sb	s0,109(sp)
   14e40:	4791                	li	a5,4
   14e42:	18800513          	li	a0,392
   14e46:	4591                	li	a1,4
   14e48:	06100693          	li	a3,97
   14e4c:	4711                	li	a4,4
   14e4e:	00000073          	ecall
   14e52:	00851863          	bne	a0,s0,14e62 <_ZN20complex_dynamic_type3app17h7656decfe025aa5bE+0x5e>
   14e56:	4505                	li	a0,1
   14e58:	00a98023          	sb	a0,0(s3)
   14e5c:	00b9a223          	sw	a1,4(s3)
   14e60:	a0ad                	j	14eca <_ZN20complex_dynamic_type3app17h7656decfe025aa5bE+0xc6>
   14e62:	864a                	mv	a2,s2
   14e64:	00f105a3          	sb	a5,11(sp)
   14e68:	478d                	li	a5,3
   14e6a:	18800513          	li	a0,392
   14e6e:	4599                	li	a1,6
   14e70:	46f9                	li	a3,30
   14e72:	470d                	li	a4,3
   14e74:	00000073          	ecall
   14e78:	00851d63          	bne	a0,s0,14e92 <_ZN20complex_dynamic_type3app17h7656decfe025aa5bE+0x8e>
   14e7c:	06d14703          	lbu	a4,109(sp)
   14e80:	4505                	li	a0,1
   14e82:	4609                	li	a2,2
   14e84:	00a98023          	sb	a0,0(s3)
   14e88:	00b9a223          	sw	a1,4(s3)
   14e8c:	02c71863          	bne	a4,a2,14ebc <_ZN20complex_dynamic_type3app17h7656decfe025aa5bE+0xb8>
   14e90:	a82d                	j	14eca <_ZN20complex_dynamic_type3app17h7656decfe025aa5bE+0xc6>
   14e92:	4681                	li	a3,0
   14e94:	06f106a3          	sb	a5,109(sp)
   14e98:	18800513          	li	a0,392
   14e9c:	4591                	li	a1,4
   14e9e:	4619                	li	a2,6
   14ea0:	4709                	li	a4,2
   14ea2:	07f00793          	li	a5,127
   14ea6:	00000073          	ecall
   14eaa:	4609                	li	a2,2
   14eac:	04a7e363          	bltu	a5,a0,14ef2 <_ZN20complex_dynamic_type3app17h7656decfe025aa5bE+0xee>
   14eb0:	4505                	li	a0,1
   14eb2:	00a98023          	sb	a0,0(s3)
   14eb6:	00b9a223          	sw	a1,4(s3)
   14eba:	470d                	li	a4,3
   14ebc:	18800513          	li	a0,392
   14ec0:	4599                	li	a1,6
   14ec2:	4601                	li	a2,0
   14ec4:	4681                	li	a3,0
   14ec6:	00000073          	ecall
   14eca:	00b14483          	lbu	s1,11(sp)
   14ece:	4509                	li	a0,2
   14ed0:	00a48a63          	beq	s1,a0,14ee4 <_ZN20complex_dynamic_type3app17h7656decfe025aa5bE+0xe0>
   14ed4:	18800513          	li	a0,392
   14ed8:	4591                	li	a1,4
   14eda:	4601                	li	a2,0
   14edc:	4681                	li	a3,0
   14ede:	8726                	mv	a4,s1
   14ee0:	00000073          	ecall
   14ee4:	40fa                	lw	ra,156(sp)
   14ee6:	446a                	lw	s0,152(sp)
   14ee8:	44da                	lw	s1,148(sp)
   14eea:	494a                	lw	s2,144(sp)
   14eec:	49ba                	lw	s3,140(sp)
   14eee:	610d                	addi	sp,sp,160
   14ef0:	8082                	ret
   14ef2:	00b14703          	lbu	a4,11(sp)
   14ef6:	00c71463          	bne	a4,a2,14efe <_ZN20complex_dynamic_type3app17h7656decfe025aa5bE+0xfa>
   14efa:	470d                	li	a4,3
   14efc:	a815                	j	14f30 <_ZN20complex_dynamic_type3app17h7656decfe025aa5bE+0x12c>
   14efe:	18800513          	li	a0,392
   14f02:	4591                	li	a1,4
   14f04:	4601                	li	a2,0
   14f06:	4681                	li	a3,0
   14f08:	00000073          	ecall
   14f0c:	06d14703          	lbu	a4,109(sp)
   14f10:	4509                	li	a0,2
   14f12:	00a105a3          	sb	a0,11(sp)
   14f16:	00a71d63          	bne	a4,a0,14f30 <_ZN20complex_dynamic_type3app17h7656decfe025aa5bE+0x12c>
   14f1a:	00198513          	addi	a0,s3,1
   14f1e:	4679                	li	a2,30
   14f20:	85ca                	mv	a1,s2
   14f22:	00009097          	auipc	ra,0x9
   14f26:	854080e7          	jalr	-1964(ra) # 1d776 <memcpy>
   14f2a:	00098023          	sb	zero,0(s3)
   14f2e:	bf5d                	j	14ee4 <_ZN20complex_dynamic_type3app17h7656decfe025aa5bE+0xe0>
   14f30:	18800513          	li	a0,392
   14f34:	4599                	li	a1,6
   14f36:	4601                	li	a2,0
   14f38:	4681                	li	a3,0
   14f3a:	00000073          	ecall
   14f3e:	00b14483          	lbu	s1,11(sp)
   14f42:	00198513          	addi	a0,s3,1
   14f46:	4679                	li	a2,30
   14f48:	85ca                	mv	a1,s2
   14f4a:	00009097          	auipc	ra,0x9
   14f4e:	82c080e7          	jalr	-2004(ra) # 1d776 <memcpy>
   14f52:	4509                	li	a0,2
   14f54:	00098023          	sb	zero,0(s3)
   14f58:	f6a49ee3          	bne	s1,a0,14ed4 <_ZN20complex_dynamic_type3app17h7656decfe025aa5bE+0xd0>
   14f5c:	b761                	j	14ee4 <_ZN20complex_dynamic_type3app17h7656decfe025aa5bE+0xe0>

00014f5e <_ZN20complex_dynamic_type3app17h79084ab37b9f87a3E>:
   14f5e:	7175                	addi	sp,sp,-144
   14f60:	c706                	sw	ra,140(sp)
   14f62:	c522                	sw	s0,136(sp)
   14f64:	c326                	sw	s1,132(sp)
   14f66:	c14a                	sw	s2,128(sp)
   14f68:	dece                	sw	s3,124(sp)
   14f6a:	89aa                	mv	s3,a0
   14f6c:	4409                	li	s0,2
   14f6e:	00810323          	sb	s0,6(sp)
   14f72:	00710493          	addi	s1,sp,7
   14f76:	03500613          	li	a2,53
   14f7a:	8526                	mv	a0,s1
   14f7c:	00008097          	auipc	ra,0x8
   14f80:	7fa080e7          	jalr	2042(ra) # 1d776 <memcpy>
   14f84:	03d10913          	addi	s2,sp,61
   14f88:	03f00613          	li	a2,63
   14f8c:	854a                	mv	a0,s2
   14f8e:	4581                	li	a1,0
   14f90:	00008097          	auipc	ra,0x8
   14f94:	77a080e7          	jalr	1914(ra) # 1d70a <memset>
   14f98:	4581                	li	a1,0
   14f9a:	8626                	mv	a2,s1
   14f9c:	02810e23          	sb	s0,60(sp)
   14fa0:	6505                	lui	a0,0x1
   14fa2:	4491                	li	s1,4
   14fa4:	e5750793          	addi	a5,a0,-425 # e57 <.Lline_table_start1+0xc2c>
   14fa8:	03500693          	li	a3,53
   14fac:	4711                	li	a4,4
   14fae:	853e                	mv	a0,a5
   14fb0:	00000073          	ecall
   14fb4:	00851863          	bne	a0,s0,14fc4 <_ZN20complex_dynamic_type3app17h79084ab37b9f87a3E+0x66>
   14fb8:	4505                	li	a0,1
   14fba:	00a98023          	sb	a0,0(s3)
   14fbe:	00b9a223          	sw	a1,4(s3)
   14fc2:	a0bd                	j	15030 <_ZN20complex_dynamic_type3app17h79084ab37b9f87a3E+0xd2>
   14fc4:	853e                	mv	a0,a5
   14fc6:	864a                	mv	a2,s2
   14fc8:	00910323          	sb	s1,6(sp)
   14fcc:	478d                	li	a5,3
   14fce:	458d                	li	a1,3
   14fd0:	03f00693          	li	a3,63
   14fd4:	470d                	li	a4,3
   14fd6:	00000073          	ecall
   14fda:	00851d63          	bne	a0,s0,14ff4 <_ZN20complex_dynamic_type3app17h79084ab37b9f87a3E+0x96>
   14fde:	03c14703          	lbu	a4,60(sp)
   14fe2:	4505                	li	a0,1
   14fe4:	4609                	li	a2,2
   14fe6:	00a98023          	sb	a0,0(s3)
   14fea:	00b9a223          	sw	a1,4(s3)
   14fee:	02c71963          	bne	a4,a2,15020 <_ZN20complex_dynamic_type3app17h79084ab37b9f87a3E+0xc2>
   14ff2:	a83d                	j	15030 <_ZN20complex_dynamic_type3app17h79084ab37b9f87a3E+0xd2>
   14ff4:	4581                	li	a1,0
   14ff6:	4681                	li	a3,0
   14ff8:	02f10e23          	sb	a5,60(sp)
   14ffc:	6505                	lui	a0,0x1
   14ffe:	460d                	li	a2,3
   15000:	4709                	li	a4,2
   15002:	e5750513          	addi	a0,a0,-425 # e57 <.Lline_table_start1+0xc2c>
   15006:	07f00793          	li	a5,127
   1500a:	00000073          	ecall
   1500e:	4609                	li	a2,2
   15010:	04a7e563          	bltu	a5,a0,1505a <_ZN20complex_dynamic_type3app17h79084ab37b9f87a3E+0xfc>
   15014:	4505                	li	a0,1
   15016:	00a98023          	sb	a0,0(s3)
   1501a:	00b9a223          	sw	a1,4(s3)
   1501e:	470d                	li	a4,3
   15020:	6505                	lui	a0,0x1
   15022:	e5750513          	addi	a0,a0,-425 # e57 <.Lline_table_start1+0xc2c>
   15026:	458d                	li	a1,3
   15028:	4601                	li	a2,0
   1502a:	4681                	li	a3,0
   1502c:	00000073          	ecall
   15030:	00614483          	lbu	s1,6(sp)
   15034:	4509                	li	a0,2
   15036:	00a48b63          	beq	s1,a0,1504c <_ZN20complex_dynamic_type3app17h79084ab37b9f87a3E+0xee>
   1503a:	6505                	lui	a0,0x1
   1503c:	e5750513          	addi	a0,a0,-425 # e57 <.Lline_table_start1+0xc2c>
   15040:	4581                	li	a1,0
   15042:	4601                	li	a2,0
   15044:	4681                	li	a3,0
   15046:	8726                	mv	a4,s1
   15048:	00000073          	ecall
   1504c:	40ba                	lw	ra,140(sp)
   1504e:	442a                	lw	s0,136(sp)
   15050:	449a                	lw	s1,132(sp)
   15052:	490a                	lw	s2,128(sp)
   15054:	59f6                	lw	s3,124(sp)
   15056:	6149                	addi	sp,sp,144
   15058:	8082                	ret
   1505a:	00614703          	lbu	a4,6(sp)
   1505e:	00c71463          	bne	a4,a2,15066 <_ZN20complex_dynamic_type3app17h79084ab37b9f87a3E+0x108>
   15062:	470d                	li	a4,3
   15064:	a825                	j	1509c <_ZN20complex_dynamic_type3app17h79084ab37b9f87a3E+0x13e>
   15066:	6505                	lui	a0,0x1
   15068:	e5750513          	addi	a0,a0,-425 # e57 <.Lline_table_start1+0xc2c>
   1506c:	4581                	li	a1,0
   1506e:	4601                	li	a2,0
   15070:	4681                	li	a3,0
   15072:	00000073          	ecall
   15076:	03c14703          	lbu	a4,60(sp)
   1507a:	4509                	li	a0,2
   1507c:	00a10323          	sb	a0,6(sp)
   15080:	00a71e63          	bne	a4,a0,1509c <_ZN20complex_dynamic_type3app17h79084ab37b9f87a3E+0x13e>
   15084:	00198513          	addi	a0,s3,1
   15088:	03f00613          	li	a2,63
   1508c:	85ca                	mv	a1,s2
   1508e:	00008097          	auipc	ra,0x8
   15092:	6e8080e7          	jalr	1768(ra) # 1d776 <memcpy>
   15096:	00098023          	sb	zero,0(s3)
   1509a:	bf4d                	j	1504c <_ZN20complex_dynamic_type3app17h79084ab37b9f87a3E+0xee>
   1509c:	6505                	lui	a0,0x1
   1509e:	e5750513          	addi	a0,a0,-425 # e57 <.Lline_table_start1+0xc2c>
   150a2:	458d                	li	a1,3
   150a4:	4601                	li	a2,0
   150a6:	4681                	li	a3,0
   150a8:	00000073          	ecall
   150ac:	00614483          	lbu	s1,6(sp)
   150b0:	00198513          	addi	a0,s3,1
   150b4:	03f00613          	li	a2,63
   150b8:	85ca                	mv	a1,s2
   150ba:	00008097          	auipc	ra,0x8
   150be:	6bc080e7          	jalr	1724(ra) # 1d776 <memcpy>
   150c2:	4509                	li	a0,2
   150c4:	00098023          	sb	zero,0(s3)
   150c8:	f6a499e3          	bne	s1,a0,1503a <_ZN20complex_dynamic_type3app17h79084ab37b9f87a3E+0xdc>
   150cc:	b741                	j	1504c <_ZN20complex_dynamic_type3app17h79084ab37b9f87a3E+0xee>

000150ce <_ZN20complex_dynamic_type3app17h7a99229e0a0437dbE>:
   150ce:	7131                	addi	sp,sp,-192
   150d0:	df06                	sw	ra,188(sp)
   150d2:	dd22                	sw	s0,184(sp)
   150d4:	db26                	sw	s1,180(sp)
   150d6:	d94a                	sw	s2,176(sp)
   150d8:	d74e                	sw	s3,172(sp)
   150da:	89aa                	mv	s3,a0
   150dc:	4409                	li	s0,2
   150de:	008103a3          	sb	s0,7(sp)
   150e2:	0024                	addi	s1,sp,8
   150e4:	05900613          	li	a2,89
   150e8:	8526                	mv	a0,s1
   150ea:	00008097          	auipc	ra,0x8
   150ee:	68c080e7          	jalr	1676(ra) # 1d776 <memcpy>
   150f2:	06210913          	addi	s2,sp,98
   150f6:	04a00613          	li	a2,74
   150fa:	854a                	mv	a0,s2
   150fc:	4581                	li	a1,0
   150fe:	00008097          	auipc	ra,0x8
   15102:	60c080e7          	jalr	1548(ra) # 1d70a <memset>
   15106:	4581                	li	a1,0
   15108:	8626                	mv	a2,s1
   1510a:	068100a3          	sb	s0,97(sp)
   1510e:	6505                	lui	a0,0x1
   15110:	4491                	li	s1,4
   15112:	48450793          	addi	a5,a0,1156 # 1484 <.Lline_table_start1+0x1259>
   15116:	05900693          	li	a3,89
   1511a:	4711                	li	a4,4
   1511c:	853e                	mv	a0,a5
   1511e:	00000073          	ecall
   15122:	00851863          	bne	a0,s0,15132 <_ZN20complex_dynamic_type3app17h7a99229e0a0437dbE+0x64>
   15126:	4505                	li	a0,1
   15128:	00a98023          	sb	a0,0(s3)
   1512c:	00b9a223          	sw	a1,4(s3)
   15130:	a0bd                	j	1519e <_ZN20complex_dynamic_type3app17h7a99229e0a0437dbE+0xd0>
   15132:	853e                	mv	a0,a5
   15134:	864a                	mv	a2,s2
   15136:	009103a3          	sb	s1,7(sp)
   1513a:	478d                	li	a5,3
   1513c:	4591                	li	a1,4
   1513e:	04a00693          	li	a3,74
   15142:	470d                	li	a4,3
   15144:	00000073          	ecall
   15148:	00851d63          	bne	a0,s0,15162 <_ZN20complex_dynamic_type3app17h7a99229e0a0437dbE+0x94>
   1514c:	06114703          	lbu	a4,97(sp)
   15150:	4505                	li	a0,1
   15152:	4609                	li	a2,2
   15154:	00a98023          	sb	a0,0(s3)
   15158:	00b9a223          	sw	a1,4(s3)
   1515c:	02c71963          	bne	a4,a2,1518e <_ZN20complex_dynamic_type3app17h7a99229e0a0437dbE+0xc0>
   15160:	a83d                	j	1519e <_ZN20complex_dynamic_type3app17h7a99229e0a0437dbE+0xd0>
   15162:	4581                	li	a1,0
   15164:	4681                	li	a3,0
   15166:	06f100a3          	sb	a5,97(sp)
   1516a:	6505                	lui	a0,0x1
   1516c:	4611                	li	a2,4
   1516e:	4709                	li	a4,2
   15170:	48450513          	addi	a0,a0,1156 # 1484 <.Lline_table_start1+0x1259>
   15174:	07f00793          	li	a5,127
   15178:	00000073          	ecall
   1517c:	4609                	li	a2,2
   1517e:	04a7e563          	bltu	a5,a0,151c8 <_ZN20complex_dynamic_type3app17h7a99229e0a0437dbE+0xfa>
   15182:	4505                	li	a0,1
   15184:	00a98023          	sb	a0,0(s3)
   15188:	00b9a223          	sw	a1,4(s3)
   1518c:	470d                	li	a4,3
   1518e:	6505                	lui	a0,0x1
   15190:	48450513          	addi	a0,a0,1156 # 1484 <.Lline_table_start1+0x1259>
   15194:	4591                	li	a1,4
   15196:	4601                	li	a2,0
   15198:	4681                	li	a3,0
   1519a:	00000073          	ecall
   1519e:	00714483          	lbu	s1,7(sp)
   151a2:	4509                	li	a0,2
   151a4:	00a48b63          	beq	s1,a0,151ba <_ZN20complex_dynamic_type3app17h7a99229e0a0437dbE+0xec>
   151a8:	6505                	lui	a0,0x1
   151aa:	48450513          	addi	a0,a0,1156 # 1484 <.Lline_table_start1+0x1259>
   151ae:	4581                	li	a1,0
   151b0:	4601                	li	a2,0
   151b2:	4681                	li	a3,0
   151b4:	8726                	mv	a4,s1
   151b6:	00000073          	ecall
   151ba:	50fa                	lw	ra,188(sp)
   151bc:	546a                	lw	s0,184(sp)
   151be:	54da                	lw	s1,180(sp)
   151c0:	594a                	lw	s2,176(sp)
   151c2:	59ba                	lw	s3,172(sp)
   151c4:	6129                	addi	sp,sp,192
   151c6:	8082                	ret
   151c8:	00714703          	lbu	a4,7(sp)
   151cc:	00c71463          	bne	a4,a2,151d4 <_ZN20complex_dynamic_type3app17h7a99229e0a0437dbE+0x106>
   151d0:	470d                	li	a4,3
   151d2:	a825                	j	1520a <_ZN20complex_dynamic_type3app17h7a99229e0a0437dbE+0x13c>
   151d4:	6505                	lui	a0,0x1
   151d6:	48450513          	addi	a0,a0,1156 # 1484 <.Lline_table_start1+0x1259>
   151da:	4581                	li	a1,0
   151dc:	4601                	li	a2,0
   151de:	4681                	li	a3,0
   151e0:	00000073          	ecall
   151e4:	06114703          	lbu	a4,97(sp)
   151e8:	4509                	li	a0,2
   151ea:	00a103a3          	sb	a0,7(sp)
   151ee:	00a71e63          	bne	a4,a0,1520a <_ZN20complex_dynamic_type3app17h7a99229e0a0437dbE+0x13c>
   151f2:	00198513          	addi	a0,s3,1
   151f6:	04a00613          	li	a2,74
   151fa:	85ca                	mv	a1,s2
   151fc:	00008097          	auipc	ra,0x8
   15200:	57a080e7          	jalr	1402(ra) # 1d776 <memcpy>
   15204:	00098023          	sb	zero,0(s3)
   15208:	bf4d                	j	151ba <_ZN20complex_dynamic_type3app17h7a99229e0a0437dbE+0xec>
   1520a:	6505                	lui	a0,0x1
   1520c:	48450513          	addi	a0,a0,1156 # 1484 <.Lline_table_start1+0x1259>
   15210:	4591                	li	a1,4
   15212:	4601                	li	a2,0
   15214:	4681                	li	a3,0
   15216:	00000073          	ecall
   1521a:	00714483          	lbu	s1,7(sp)
   1521e:	00198513          	addi	a0,s3,1
   15222:	04a00613          	li	a2,74
   15226:	85ca                	mv	a1,s2
   15228:	00008097          	auipc	ra,0x8
   1522c:	54e080e7          	jalr	1358(ra) # 1d776 <memcpy>
   15230:	4509                	li	a0,2
   15232:	00098023          	sb	zero,0(s3)
   15236:	f6a499e3          	bne	s1,a0,151a8 <_ZN20complex_dynamic_type3app17h7a99229e0a0437dbE+0xda>
   1523a:	b741                	j	151ba <_ZN20complex_dynamic_type3app17h7a99229e0a0437dbE+0xec>

0001523c <_ZN20complex_dynamic_type3app17h7bbddca3c1d5a79eE>:
   1523c:	7139                	addi	sp,sp,-64
   1523e:	de06                	sw	ra,60(sp)
   15240:	dc22                	sw	s0,56(sp)
   15242:	da26                	sw	s1,52(sp)
   15244:	d84a                	sw	s2,48(sp)
   15246:	d64e                	sw	s3,44(sp)
   15248:	89aa                	mv	s3,a0
   1524a:	4409                	li	s0,2
   1524c:	00810423          	sb	s0,8(sp)
   15250:	00910493          	addi	s1,sp,9
   15254:	463d                	li	a2,15
   15256:	8526                	mv	a0,s1
   15258:	00008097          	auipc	ra,0x8
   1525c:	51e080e7          	jalr	1310(ra) # 1d776 <memcpy>
   15260:	01910913          	addi	s2,sp,25
   15264:	464d                	li	a2,19
   15266:	854a                	mv	a0,s2
   15268:	4581                	li	a1,0
   1526a:	00008097          	auipc	ra,0x8
   1526e:	4a0080e7          	jalr	1184(ra) # 1d70a <memset>
   15272:	8626                	mv	a2,s1
   15274:	00810c23          	sb	s0,24(sp)
   15278:	6509                	lui	a0,0x2
   1527a:	4491                	li	s1,4
   1527c:	458d                	li	a1,3
   1527e:	e4b50793          	addi	a5,a0,-437 # 1e4b <.Lline_table_start1+0x1c20>
   15282:	46bd                	li	a3,15
   15284:	4711                	li	a4,4
   15286:	853e                	mv	a0,a5
   15288:	00000073          	ecall
   1528c:	00851863          	bne	a0,s0,1529c <_ZN20complex_dynamic_type3app17h7bbddca3c1d5a79eE+0x60>
   15290:	4505                	li	a0,1
   15292:	00a98023          	sb	a0,0(s3)
   15296:	00b9a223          	sw	a1,4(s3)
   1529a:	a0b5                	j	15306 <_ZN20complex_dynamic_type3app17h7bbddca3c1d5a79eE+0xca>
   1529c:	853e                	mv	a0,a5
   1529e:	4581                	li	a1,0
   152a0:	864a                	mv	a2,s2
   152a2:	00910423          	sb	s1,8(sp)
   152a6:	478d                	li	a5,3
   152a8:	46cd                	li	a3,19
   152aa:	470d                	li	a4,3
   152ac:	00000073          	ecall
   152b0:	00851d63          	bne	a0,s0,152ca <_ZN20complex_dynamic_type3app17h7bbddca3c1d5a79eE+0x8e>
   152b4:	01814703          	lbu	a4,24(sp)
   152b8:	4505                	li	a0,1
   152ba:	4609                	li	a2,2
   152bc:	00a98023          	sb	a0,0(s3)
   152c0:	00b9a223          	sw	a1,4(s3)
   152c4:	02c71963          	bne	a4,a2,152f6 <_ZN20complex_dynamic_type3app17h7bbddca3c1d5a79eE+0xba>
   152c8:	a83d                	j	15306 <_ZN20complex_dynamic_type3app17h7bbddca3c1d5a79eE+0xca>
   152ca:	4601                	li	a2,0
   152cc:	4681                	li	a3,0
   152ce:	00f10c23          	sb	a5,24(sp)
   152d2:	6509                	lui	a0,0x2
   152d4:	458d                	li	a1,3
   152d6:	4709                	li	a4,2
   152d8:	e4b50513          	addi	a0,a0,-437 # 1e4b <.Lline_table_start1+0x1c20>
   152dc:	07f00793          	li	a5,127
   152e0:	00000073          	ecall
   152e4:	4609                	li	a2,2
   152e6:	04a7e563          	bltu	a5,a0,15330 <_ZN20complex_dynamic_type3app17h7bbddca3c1d5a79eE+0xf4>
   152ea:	4505                	li	a0,1
   152ec:	00a98023          	sb	a0,0(s3)
   152f0:	00b9a223          	sw	a1,4(s3)
   152f4:	470d                	li	a4,3
   152f6:	6509                	lui	a0,0x2
   152f8:	e4b50513          	addi	a0,a0,-437 # 1e4b <.Lline_table_start1+0x1c20>
   152fc:	4581                	li	a1,0
   152fe:	4601                	li	a2,0
   15300:	4681                	li	a3,0
   15302:	00000073          	ecall
   15306:	00814483          	lbu	s1,8(sp)
   1530a:	4509                	li	a0,2
   1530c:	00a48b63          	beq	s1,a0,15322 <_ZN20complex_dynamic_type3app17h7bbddca3c1d5a79eE+0xe6>
   15310:	6509                	lui	a0,0x2
   15312:	e4b50513          	addi	a0,a0,-437 # 1e4b <.Lline_table_start1+0x1c20>
   15316:	458d                	li	a1,3
   15318:	4601                	li	a2,0
   1531a:	4681                	li	a3,0
   1531c:	8726                	mv	a4,s1
   1531e:	00000073          	ecall
   15322:	50f2                	lw	ra,60(sp)
   15324:	5462                	lw	s0,56(sp)
   15326:	54d2                	lw	s1,52(sp)
   15328:	5942                	lw	s2,48(sp)
   1532a:	59b2                	lw	s3,44(sp)
   1532c:	6121                	addi	sp,sp,64
   1532e:	8082                	ret
   15330:	00814703          	lbu	a4,8(sp)
   15334:	00c71463          	bne	a4,a2,1533c <_ZN20complex_dynamic_type3app17h7bbddca3c1d5a79eE+0x100>
   15338:	470d                	li	a4,3
   1533a:	a81d                	j	15370 <_ZN20complex_dynamic_type3app17h7bbddca3c1d5a79eE+0x134>
   1533c:	6509                	lui	a0,0x2
   1533e:	e4b50513          	addi	a0,a0,-437 # 1e4b <.Lline_table_start1+0x1c20>
   15342:	458d                	li	a1,3
   15344:	4601                	li	a2,0
   15346:	4681                	li	a3,0
   15348:	00000073          	ecall
   1534c:	01814703          	lbu	a4,24(sp)
   15350:	4509                	li	a0,2
   15352:	00a10423          	sb	a0,8(sp)
   15356:	00a71d63          	bne	a4,a0,15370 <_ZN20complex_dynamic_type3app17h7bbddca3c1d5a79eE+0x134>
   1535a:	00198513          	addi	a0,s3,1
   1535e:	464d                	li	a2,19
   15360:	85ca                	mv	a1,s2
   15362:	00008097          	auipc	ra,0x8
   15366:	414080e7          	jalr	1044(ra) # 1d776 <memcpy>
   1536a:	00098023          	sb	zero,0(s3)
   1536e:	bf55                	j	15322 <_ZN20complex_dynamic_type3app17h7bbddca3c1d5a79eE+0xe6>
   15370:	6509                	lui	a0,0x2
   15372:	e4b50513          	addi	a0,a0,-437 # 1e4b <.Lline_table_start1+0x1c20>
   15376:	4581                	li	a1,0
   15378:	4601                	li	a2,0
   1537a:	4681                	li	a3,0
   1537c:	00000073          	ecall
   15380:	00814483          	lbu	s1,8(sp)
   15384:	00198513          	addi	a0,s3,1
   15388:	464d                	li	a2,19
   1538a:	85ca                	mv	a1,s2
   1538c:	00008097          	auipc	ra,0x8
   15390:	3ea080e7          	jalr	1002(ra) # 1d776 <memcpy>
   15394:	4509                	li	a0,2
   15396:	00098023          	sb	zero,0(s3)
   1539a:	f6a49be3          	bne	s1,a0,15310 <_ZN20complex_dynamic_type3app17h7bbddca3c1d5a79eE+0xd4>
   1539e:	b751                	j	15322 <_ZN20complex_dynamic_type3app17h7bbddca3c1d5a79eE+0xe6>

000153a0 <_ZN20complex_dynamic_type3app17h83b66306683bba47E>:
   153a0:	7159                	addi	sp,sp,-112
   153a2:	d686                	sw	ra,108(sp)
   153a4:	d4a2                	sw	s0,104(sp)
   153a6:	d2a6                	sw	s1,100(sp)
   153a8:	d0ca                	sw	s2,96(sp)
   153aa:	cece                	sw	s3,92(sp)
   153ac:	89aa                	mv	s3,a0
   153ae:	4409                	li	s0,2
   153b0:	00810523          	sb	s0,10(sp)
   153b4:	00b10493          	addi	s1,sp,11
   153b8:	03f00613          	li	a2,63
   153bc:	8526                	mv	a0,s1
   153be:	00008097          	auipc	ra,0x8
   153c2:	3b8080e7          	jalr	952(ra) # 1d776 <memcpy>
   153c6:	04b10913          	addi	s2,sp,75
   153ca:	4645                	li	a2,17
   153cc:	854a                	mv	a0,s2
   153ce:	4581                	li	a1,0
   153d0:	00008097          	auipc	ra,0x8
   153d4:	33a080e7          	jalr	826(ra) # 1d70a <memset>
   153d8:	8626                	mv	a2,s1
   153da:	04810523          	sb	s0,74(sp)
   153de:	6505                	lui	a0,0x1
   153e0:	4491                	li	s1,4
   153e2:	4591                	li	a1,4
   153e4:	4d750793          	addi	a5,a0,1239 # 14d7 <.Lline_table_start1+0x12ac>
   153e8:	03f00693          	li	a3,63
   153ec:	4711                	li	a4,4
   153ee:	853e                	mv	a0,a5
   153f0:	00000073          	ecall
   153f4:	00851863          	bne	a0,s0,15404 <_ZN20complex_dynamic_type3app17h83b66306683bba47E+0x64>
   153f8:	4505                	li	a0,1
   153fa:	00a98023          	sb	a0,0(s3)
   153fe:	00b9a223          	sw	a1,4(s3)
   15402:	a0b5                	j	1546e <_ZN20complex_dynamic_type3app17h83b66306683bba47E+0xce>
   15404:	853e                	mv	a0,a5
   15406:	864a                	mv	a2,s2
   15408:	00910523          	sb	s1,10(sp)
   1540c:	478d                	li	a5,3
   1540e:	458d                	li	a1,3
   15410:	46c5                	li	a3,17
   15412:	470d                	li	a4,3
   15414:	00000073          	ecall
   15418:	00851d63          	bne	a0,s0,15432 <_ZN20complex_dynamic_type3app17h83b66306683bba47E+0x92>
   1541c:	04a14703          	lbu	a4,74(sp)
   15420:	4505                	li	a0,1
   15422:	4609                	li	a2,2
   15424:	00a98023          	sb	a0,0(s3)
   15428:	00b9a223          	sw	a1,4(s3)
   1542c:	02c71963          	bne	a4,a2,1545e <_ZN20complex_dynamic_type3app17h83b66306683bba47E+0xbe>
   15430:	a83d                	j	1546e <_ZN20complex_dynamic_type3app17h83b66306683bba47E+0xce>
   15432:	4681                	li	a3,0
   15434:	04f10523          	sb	a5,74(sp)
   15438:	6505                	lui	a0,0x1
   1543a:	4591                	li	a1,4
   1543c:	460d                	li	a2,3
   1543e:	4709                	li	a4,2
   15440:	4d750513          	addi	a0,a0,1239 # 14d7 <.Lline_table_start1+0x12ac>
   15444:	07f00793          	li	a5,127
   15448:	00000073          	ecall
   1544c:	4609                	li	a2,2
   1544e:	04a7e563          	bltu	a5,a0,15498 <_ZN20complex_dynamic_type3app17h83b66306683bba47E+0xf8>
   15452:	4505                	li	a0,1
   15454:	00a98023          	sb	a0,0(s3)
   15458:	00b9a223          	sw	a1,4(s3)
   1545c:	470d                	li	a4,3
   1545e:	6505                	lui	a0,0x1
   15460:	4d750513          	addi	a0,a0,1239 # 14d7 <.Lline_table_start1+0x12ac>
   15464:	458d                	li	a1,3
   15466:	4601                	li	a2,0
   15468:	4681                	li	a3,0
   1546a:	00000073          	ecall
   1546e:	00a14483          	lbu	s1,10(sp)
   15472:	4509                	li	a0,2
   15474:	00a48b63          	beq	s1,a0,1548a <_ZN20complex_dynamic_type3app17h83b66306683bba47E+0xea>
   15478:	6505                	lui	a0,0x1
   1547a:	4d750513          	addi	a0,a0,1239 # 14d7 <.Lline_table_start1+0x12ac>
   1547e:	4591                	li	a1,4
   15480:	4601                	li	a2,0
   15482:	4681                	li	a3,0
   15484:	8726                	mv	a4,s1
   15486:	00000073          	ecall
   1548a:	50b6                	lw	ra,108(sp)
   1548c:	5426                	lw	s0,104(sp)
   1548e:	5496                	lw	s1,100(sp)
   15490:	5906                	lw	s2,96(sp)
   15492:	49f6                	lw	s3,92(sp)
   15494:	6165                	addi	sp,sp,112
   15496:	8082                	ret
   15498:	00a14703          	lbu	a4,10(sp)
   1549c:	00c71463          	bne	a4,a2,154a4 <_ZN20complex_dynamic_type3app17h83b66306683bba47E+0x104>
   154a0:	470d                	li	a4,3
   154a2:	a81d                	j	154d8 <_ZN20complex_dynamic_type3app17h83b66306683bba47E+0x138>
   154a4:	6505                	lui	a0,0x1
   154a6:	4d750513          	addi	a0,a0,1239 # 14d7 <.Lline_table_start1+0x12ac>
   154aa:	4591                	li	a1,4
   154ac:	4601                	li	a2,0
   154ae:	4681                	li	a3,0
   154b0:	00000073          	ecall
   154b4:	04a14703          	lbu	a4,74(sp)
   154b8:	4509                	li	a0,2
   154ba:	00a10523          	sb	a0,10(sp)
   154be:	00a71d63          	bne	a4,a0,154d8 <_ZN20complex_dynamic_type3app17h83b66306683bba47E+0x138>
   154c2:	00198513          	addi	a0,s3,1
   154c6:	4645                	li	a2,17
   154c8:	85ca                	mv	a1,s2
   154ca:	00008097          	auipc	ra,0x8
   154ce:	2ac080e7          	jalr	684(ra) # 1d776 <memcpy>
   154d2:	00098023          	sb	zero,0(s3)
   154d6:	bf55                	j	1548a <_ZN20complex_dynamic_type3app17h83b66306683bba47E+0xea>
   154d8:	6505                	lui	a0,0x1
   154da:	4d750513          	addi	a0,a0,1239 # 14d7 <.Lline_table_start1+0x12ac>
   154de:	458d                	li	a1,3
   154e0:	4601                	li	a2,0
   154e2:	4681                	li	a3,0
   154e4:	00000073          	ecall
   154e8:	00a14483          	lbu	s1,10(sp)
   154ec:	00198513          	addi	a0,s3,1
   154f0:	4645                	li	a2,17
   154f2:	85ca                	mv	a1,s2
   154f4:	00008097          	auipc	ra,0x8
   154f8:	282080e7          	jalr	642(ra) # 1d776 <memcpy>
   154fc:	4509                	li	a0,2
   154fe:	00098023          	sb	zero,0(s3)
   15502:	f6a49be3          	bne	s1,a0,15478 <_ZN20complex_dynamic_type3app17h83b66306683bba47E+0xd8>
   15506:	b751                	j	1548a <_ZN20complex_dynamic_type3app17h83b66306683bba47E+0xea>

00015508 <_ZN20complex_dynamic_type3app17h872cb7163b3e75a9E>:
   15508:	7155                	addi	sp,sp,-208
   1550a:	c786                	sw	ra,204(sp)
   1550c:	c5a2                	sw	s0,200(sp)
   1550e:	c3a6                	sw	s1,196(sp)
   15510:	c1ca                	sw	s2,192(sp)
   15512:	df4e                	sw	s3,188(sp)
   15514:	89aa                	mv	s3,a0
   15516:	4409                	li	s0,2
   15518:	00810523          	sb	s0,10(sp)
   1551c:	00b10493          	addi	s1,sp,11
   15520:	04f00613          	li	a2,79
   15524:	8526                	mv	a0,s1
   15526:	00008097          	auipc	ra,0x8
   1552a:	250080e7          	jalr	592(ra) # 1d776 <memcpy>
   1552e:	05b10913          	addi	s2,sp,91
   15532:	06100613          	li	a2,97
   15536:	854a                	mv	a0,s2
   15538:	4581                	li	a1,0
   1553a:	00008097          	auipc	ra,0x8
   1553e:	1d0080e7          	jalr	464(ra) # 1d70a <memset>
   15542:	8626                	mv	a2,s1
   15544:	04810d23          	sb	s0,90(sp)
   15548:	4791                	li	a5,4
   1554a:	1b600513          	li	a0,438
   1554e:	4589                	li	a1,2
   15550:	04f00693          	li	a3,79
   15554:	4711                	li	a4,4
   15556:	00000073          	ecall
   1555a:	00851863          	bne	a0,s0,1556a <_ZN20complex_dynamic_type3app17h872cb7163b3e75a9E+0x62>
   1555e:	4505                	li	a0,1
   15560:	00a98023          	sb	a0,0(s3)
   15564:	00b9a223          	sw	a1,4(s3)
   15568:	a0b5                	j	155d4 <_ZN20complex_dynamic_type3app17h872cb7163b3e75a9E+0xcc>
   1556a:	864a                	mv	a2,s2
   1556c:	00f10523          	sb	a5,10(sp)
   15570:	478d                	li	a5,3
   15572:	1b600513          	li	a0,438
   15576:	45a1                	li	a1,8
   15578:	06100693          	li	a3,97
   1557c:	470d                	li	a4,3
   1557e:	00000073          	ecall
   15582:	00851d63          	bne	a0,s0,1559c <_ZN20complex_dynamic_type3app17h872cb7163b3e75a9E+0x94>
   15586:	05a14703          	lbu	a4,90(sp)
   1558a:	4505                	li	a0,1
   1558c:	4609                	li	a2,2
   1558e:	00a98023          	sb	a0,0(s3)
   15592:	00b9a223          	sw	a1,4(s3)
   15596:	02c71863          	bne	a4,a2,155c6 <_ZN20complex_dynamic_type3app17h872cb7163b3e75a9E+0xbe>
   1559a:	a82d                	j	155d4 <_ZN20complex_dynamic_type3app17h872cb7163b3e75a9E+0xcc>
   1559c:	4681                	li	a3,0
   1559e:	04f10d23          	sb	a5,90(sp)
   155a2:	1b600513          	li	a0,438
   155a6:	4589                	li	a1,2
   155a8:	4621                	li	a2,8
   155aa:	4709                	li	a4,2
   155ac:	07f00793          	li	a5,127
   155b0:	00000073          	ecall
   155b4:	4609                	li	a2,2
   155b6:	04a7e363          	bltu	a5,a0,155fc <_ZN20complex_dynamic_type3app17h872cb7163b3e75a9E+0xf4>
   155ba:	4505                	li	a0,1
   155bc:	00a98023          	sb	a0,0(s3)
   155c0:	00b9a223          	sw	a1,4(s3)
   155c4:	470d                	li	a4,3
   155c6:	1b600513          	li	a0,438
   155ca:	45a1                	li	a1,8
   155cc:	4601                	li	a2,0
   155ce:	4681                	li	a3,0
   155d0:	00000073          	ecall
   155d4:	00a14483          	lbu	s1,10(sp)
   155d8:	4509                	li	a0,2
   155da:	00a48a63          	beq	s1,a0,155ee <_ZN20complex_dynamic_type3app17h872cb7163b3e75a9E+0xe6>
   155de:	1b600513          	li	a0,438
   155e2:	4589                	li	a1,2
   155e4:	4601                	li	a2,0
   155e6:	4681                	li	a3,0
   155e8:	8726                	mv	a4,s1
   155ea:	00000073          	ecall
   155ee:	40be                	lw	ra,204(sp)
   155f0:	442e                	lw	s0,200(sp)
   155f2:	449e                	lw	s1,196(sp)
   155f4:	490e                	lw	s2,192(sp)
   155f6:	59fa                	lw	s3,188(sp)
   155f8:	6169                	addi	sp,sp,208
   155fa:	8082                	ret
   155fc:	00a14703          	lbu	a4,10(sp)
   15600:	00c71463          	bne	a4,a2,15608 <_ZN20complex_dynamic_type3app17h872cb7163b3e75a9E+0x100>
   15604:	470d                	li	a4,3
   15606:	a81d                	j	1563c <_ZN20complex_dynamic_type3app17h872cb7163b3e75a9E+0x134>
   15608:	1b600513          	li	a0,438
   1560c:	4589                	li	a1,2
   1560e:	4601                	li	a2,0
   15610:	4681                	li	a3,0
   15612:	00000073          	ecall
   15616:	05a14703          	lbu	a4,90(sp)
   1561a:	4509                	li	a0,2
   1561c:	00a10523          	sb	a0,10(sp)
   15620:	00a71e63          	bne	a4,a0,1563c <_ZN20complex_dynamic_type3app17h872cb7163b3e75a9E+0x134>
   15624:	00198513          	addi	a0,s3,1
   15628:	06100613          	li	a2,97
   1562c:	85ca                	mv	a1,s2
   1562e:	00008097          	auipc	ra,0x8
   15632:	148080e7          	jalr	328(ra) # 1d776 <memcpy>
   15636:	00098023          	sb	zero,0(s3)
   1563a:	bf55                	j	155ee <_ZN20complex_dynamic_type3app17h872cb7163b3e75a9E+0xe6>
   1563c:	1b600513          	li	a0,438
   15640:	45a1                	li	a1,8
   15642:	4601                	li	a2,0
   15644:	4681                	li	a3,0
   15646:	00000073          	ecall
   1564a:	00a14483          	lbu	s1,10(sp)
   1564e:	00198513          	addi	a0,s3,1
   15652:	06100613          	li	a2,97
   15656:	85ca                	mv	a1,s2
   15658:	00008097          	auipc	ra,0x8
   1565c:	11e080e7          	jalr	286(ra) # 1d776 <memcpy>
   15660:	4509                	li	a0,2
   15662:	00098023          	sb	zero,0(s3)
   15666:	f6a49ce3          	bne	s1,a0,155de <_ZN20complex_dynamic_type3app17h872cb7163b3e75a9E+0xd6>
   1566a:	b751                	j	155ee <_ZN20complex_dynamic_type3app17h872cb7163b3e75a9E+0xe6>

0001566c <_ZN20complex_dynamic_type3app17h8933c5a4038717b6E>:
   1566c:	7131                	addi	sp,sp,-192
   1566e:	df06                	sw	ra,188(sp)
   15670:	dd22                	sw	s0,184(sp)
   15672:	db26                	sw	s1,180(sp)
   15674:	d94a                	sw	s2,176(sp)
   15676:	d74e                	sw	s3,172(sp)
   15678:	89aa                	mv	s3,a0
   1567a:	4409                	li	s0,2
   1567c:	00810523          	sb	s0,10(sp)
   15680:	00b10493          	addi	s1,sp,11
   15684:	05300613          	li	a2,83
   15688:	8526                	mv	a0,s1
   1568a:	00008097          	auipc	ra,0x8
   1568e:	0ec080e7          	jalr	236(ra) # 1d776 <memcpy>
   15692:	05f10913          	addi	s2,sp,95
   15696:	04d00613          	li	a2,77
   1569a:	854a                	mv	a0,s2
   1569c:	4581                	li	a1,0
   1569e:	00008097          	auipc	ra,0x8
   156a2:	06c080e7          	jalr	108(ra) # 1d70a <memset>
   156a6:	8626                	mv	a2,s1
   156a8:	04810f23          	sb	s0,94(sp)
   156ac:	6505                	lui	a0,0x1
   156ae:	4491                	li	s1,4
   156b0:	45a5                	li	a1,9
   156b2:	6ba50793          	addi	a5,a0,1722 # 16ba <.Lline_table_start1+0x148f>
   156b6:	05300693          	li	a3,83
   156ba:	4711                	li	a4,4
   156bc:	853e                	mv	a0,a5
   156be:	00000073          	ecall
   156c2:	00851863          	bne	a0,s0,156d2 <_ZN20complex_dynamic_type3app17h8933c5a4038717b6E+0x66>
   156c6:	4505                	li	a0,1
   156c8:	00a98023          	sb	a0,0(s3)
   156cc:	00b9a223          	sw	a1,4(s3)
   156d0:	a0bd                	j	1573e <_ZN20complex_dynamic_type3app17h8933c5a4038717b6E+0xd2>
   156d2:	853e                	mv	a0,a5
   156d4:	864a                	mv	a2,s2
   156d6:	00910523          	sb	s1,10(sp)
   156da:	478d                	li	a5,3
   156dc:	4591                	li	a1,4
   156de:	04d00693          	li	a3,77
   156e2:	470d                	li	a4,3
   156e4:	00000073          	ecall
   156e8:	00851d63          	bne	a0,s0,15702 <_ZN20complex_dynamic_type3app17h8933c5a4038717b6E+0x96>
   156ec:	05e14703          	lbu	a4,94(sp)
   156f0:	4505                	li	a0,1
   156f2:	4609                	li	a2,2
   156f4:	00a98023          	sb	a0,0(s3)
   156f8:	00b9a223          	sw	a1,4(s3)
   156fc:	02c71963          	bne	a4,a2,1572e <_ZN20complex_dynamic_type3app17h8933c5a4038717b6E+0xc2>
   15700:	a83d                	j	1573e <_ZN20complex_dynamic_type3app17h8933c5a4038717b6E+0xd2>
   15702:	4681                	li	a3,0
   15704:	04f10f23          	sb	a5,94(sp)
   15708:	6505                	lui	a0,0x1
   1570a:	45a5                	li	a1,9
   1570c:	4611                	li	a2,4
   1570e:	4709                	li	a4,2
   15710:	6ba50513          	addi	a0,a0,1722 # 16ba <.Lline_table_start1+0x148f>
   15714:	07f00793          	li	a5,127
   15718:	00000073          	ecall
   1571c:	4609                	li	a2,2
   1571e:	04a7e563          	bltu	a5,a0,15768 <_ZN20complex_dynamic_type3app17h8933c5a4038717b6E+0xfc>
   15722:	4505                	li	a0,1
   15724:	00a98023          	sb	a0,0(s3)
   15728:	00b9a223          	sw	a1,4(s3)
   1572c:	470d                	li	a4,3
   1572e:	6505                	lui	a0,0x1
   15730:	6ba50513          	addi	a0,a0,1722 # 16ba <.Lline_table_start1+0x148f>
   15734:	4591                	li	a1,4
   15736:	4601                	li	a2,0
   15738:	4681                	li	a3,0
   1573a:	00000073          	ecall
   1573e:	00a14483          	lbu	s1,10(sp)
   15742:	4509                	li	a0,2
   15744:	00a48b63          	beq	s1,a0,1575a <_ZN20complex_dynamic_type3app17h8933c5a4038717b6E+0xee>
   15748:	6505                	lui	a0,0x1
   1574a:	6ba50513          	addi	a0,a0,1722 # 16ba <.Lline_table_start1+0x148f>
   1574e:	45a5                	li	a1,9
   15750:	4601                	li	a2,0
   15752:	4681                	li	a3,0
   15754:	8726                	mv	a4,s1
   15756:	00000073          	ecall
   1575a:	50fa                	lw	ra,188(sp)
   1575c:	546a                	lw	s0,184(sp)
   1575e:	54da                	lw	s1,180(sp)
   15760:	594a                	lw	s2,176(sp)
   15762:	59ba                	lw	s3,172(sp)
   15764:	6129                	addi	sp,sp,192
   15766:	8082                	ret
   15768:	00a14703          	lbu	a4,10(sp)
   1576c:	00c71463          	bne	a4,a2,15774 <_ZN20complex_dynamic_type3app17h8933c5a4038717b6E+0x108>
   15770:	470d                	li	a4,3
   15772:	a825                	j	157aa <_ZN20complex_dynamic_type3app17h8933c5a4038717b6E+0x13e>
   15774:	6505                	lui	a0,0x1
   15776:	6ba50513          	addi	a0,a0,1722 # 16ba <.Lline_table_start1+0x148f>
   1577a:	45a5                	li	a1,9
   1577c:	4601                	li	a2,0
   1577e:	4681                	li	a3,0
   15780:	00000073          	ecall
   15784:	05e14703          	lbu	a4,94(sp)
   15788:	4509                	li	a0,2
   1578a:	00a10523          	sb	a0,10(sp)
   1578e:	00a71e63          	bne	a4,a0,157aa <_ZN20complex_dynamic_type3app17h8933c5a4038717b6E+0x13e>
   15792:	00198513          	addi	a0,s3,1
   15796:	04d00613          	li	a2,77
   1579a:	85ca                	mv	a1,s2
   1579c:	00008097          	auipc	ra,0x8
   157a0:	fda080e7          	jalr	-38(ra) # 1d776 <memcpy>
   157a4:	00098023          	sb	zero,0(s3)
   157a8:	bf4d                	j	1575a <_ZN20complex_dynamic_type3app17h8933c5a4038717b6E+0xee>
   157aa:	6505                	lui	a0,0x1
   157ac:	6ba50513          	addi	a0,a0,1722 # 16ba <.Lline_table_start1+0x148f>
   157b0:	4591                	li	a1,4
   157b2:	4601                	li	a2,0
   157b4:	4681                	li	a3,0
   157b6:	00000073          	ecall
   157ba:	00a14483          	lbu	s1,10(sp)
   157be:	00198513          	addi	a0,s3,1
   157c2:	04d00613          	li	a2,77
   157c6:	85ca                	mv	a1,s2
   157c8:	00008097          	auipc	ra,0x8
   157cc:	fae080e7          	jalr	-82(ra) # 1d776 <memcpy>
   157d0:	4509                	li	a0,2
   157d2:	00098023          	sb	zero,0(s3)
   157d6:	f6a499e3          	bne	s1,a0,15748 <_ZN20complex_dynamic_type3app17h8933c5a4038717b6E+0xdc>
   157da:	b741                	j	1575a <_ZN20complex_dynamic_type3app17h8933c5a4038717b6E+0xee>

000157dc <_ZN20complex_dynamic_type3app17h899c54c7b4034bd8E>:
   157dc:	7135                	addi	sp,sp,-160
   157de:	cf06                	sw	ra,156(sp)
   157e0:	cd22                	sw	s0,152(sp)
   157e2:	cb26                	sw	s1,148(sp)
   157e4:	c94a                	sw	s2,144(sp)
   157e6:	c74e                	sw	s3,140(sp)
   157e8:	89aa                	mv	s3,a0
   157ea:	4409                	li	s0,2
   157ec:	00810523          	sb	s0,10(sp)
   157f0:	00b10493          	addi	s1,sp,11
   157f4:	02d00613          	li	a2,45
   157f8:	8526                	mv	a0,s1
   157fa:	00008097          	auipc	ra,0x8
   157fe:	f7c080e7          	jalr	-132(ra) # 1d776 <memcpy>
   15802:	03910913          	addi	s2,sp,57
   15806:	05300613          	li	a2,83
   1580a:	854a                	mv	a0,s2
   1580c:	4581                	li	a1,0
   1580e:	00008097          	auipc	ra,0x8
   15812:	efc080e7          	jalr	-260(ra) # 1d70a <memset>
   15816:	8626                	mv	a2,s1
   15818:	02810c23          	sb	s0,56(sp)
   1581c:	6505                	lui	a0,0x1
   1581e:	4491                	li	s1,4
   15820:	4589                	li	a1,2
   15822:	ec350793          	addi	a5,a0,-317 # ec3 <.Lline_table_start1+0xc98>
   15826:	02d00693          	li	a3,45
   1582a:	4711                	li	a4,4
   1582c:	853e                	mv	a0,a5
   1582e:	00000073          	ecall
   15832:	00851863          	bne	a0,s0,15842 <_ZN20complex_dynamic_type3app17h899c54c7b4034bd8E+0x66>
   15836:	4505                	li	a0,1
   15838:	00a98023          	sb	a0,0(s3)
   1583c:	00b9a223          	sw	a1,4(s3)
   15840:	a0bd                	j	158ae <_ZN20complex_dynamic_type3app17h899c54c7b4034bd8E+0xd2>
   15842:	853e                	mv	a0,a5
   15844:	864a                	mv	a2,s2
   15846:	00910523          	sb	s1,10(sp)
   1584a:	478d                	li	a5,3
   1584c:	459d                	li	a1,7
   1584e:	05300693          	li	a3,83
   15852:	470d                	li	a4,3
   15854:	00000073          	ecall
   15858:	00851d63          	bne	a0,s0,15872 <_ZN20complex_dynamic_type3app17h899c54c7b4034bd8E+0x96>
   1585c:	03814703          	lbu	a4,56(sp)
   15860:	4505                	li	a0,1
   15862:	4609                	li	a2,2
   15864:	00a98023          	sb	a0,0(s3)
   15868:	00b9a223          	sw	a1,4(s3)
   1586c:	02c71963          	bne	a4,a2,1589e <_ZN20complex_dynamic_type3app17h899c54c7b4034bd8E+0xc2>
   15870:	a83d                	j	158ae <_ZN20complex_dynamic_type3app17h899c54c7b4034bd8E+0xd2>
   15872:	4681                	li	a3,0
   15874:	02f10c23          	sb	a5,56(sp)
   15878:	6505                	lui	a0,0x1
   1587a:	4589                	li	a1,2
   1587c:	461d                	li	a2,7
   1587e:	4709                	li	a4,2
   15880:	ec350513          	addi	a0,a0,-317 # ec3 <.Lline_table_start1+0xc98>
   15884:	07f00793          	li	a5,127
   15888:	00000073          	ecall
   1588c:	4609                	li	a2,2
   1588e:	04a7e563          	bltu	a5,a0,158d8 <_ZN20complex_dynamic_type3app17h899c54c7b4034bd8E+0xfc>
   15892:	4505                	li	a0,1
   15894:	00a98023          	sb	a0,0(s3)
   15898:	00b9a223          	sw	a1,4(s3)
   1589c:	470d                	li	a4,3
   1589e:	6505                	lui	a0,0x1
   158a0:	ec350513          	addi	a0,a0,-317 # ec3 <.Lline_table_start1+0xc98>
   158a4:	459d                	li	a1,7
   158a6:	4601                	li	a2,0
   158a8:	4681                	li	a3,0
   158aa:	00000073          	ecall
   158ae:	00a14483          	lbu	s1,10(sp)
   158b2:	4509                	li	a0,2
   158b4:	00a48b63          	beq	s1,a0,158ca <_ZN20complex_dynamic_type3app17h899c54c7b4034bd8E+0xee>
   158b8:	6505                	lui	a0,0x1
   158ba:	ec350513          	addi	a0,a0,-317 # ec3 <.Lline_table_start1+0xc98>
   158be:	4589                	li	a1,2
   158c0:	4601                	li	a2,0
   158c2:	4681                	li	a3,0
   158c4:	8726                	mv	a4,s1
   158c6:	00000073          	ecall
   158ca:	40fa                	lw	ra,156(sp)
   158cc:	446a                	lw	s0,152(sp)
   158ce:	44da                	lw	s1,148(sp)
   158d0:	494a                	lw	s2,144(sp)
   158d2:	49ba                	lw	s3,140(sp)
   158d4:	610d                	addi	sp,sp,160
   158d6:	8082                	ret
   158d8:	00a14703          	lbu	a4,10(sp)
   158dc:	00c71463          	bne	a4,a2,158e4 <_ZN20complex_dynamic_type3app17h899c54c7b4034bd8E+0x108>
   158e0:	470d                	li	a4,3
   158e2:	a825                	j	1591a <_ZN20complex_dynamic_type3app17h899c54c7b4034bd8E+0x13e>
   158e4:	6505                	lui	a0,0x1
   158e6:	ec350513          	addi	a0,a0,-317 # ec3 <.Lline_table_start1+0xc98>
   158ea:	4589                	li	a1,2
   158ec:	4601                	li	a2,0
   158ee:	4681                	li	a3,0
   158f0:	00000073          	ecall
   158f4:	03814703          	lbu	a4,56(sp)
   158f8:	4509                	li	a0,2
   158fa:	00a10523          	sb	a0,10(sp)
   158fe:	00a71e63          	bne	a4,a0,1591a <_ZN20complex_dynamic_type3app17h899c54c7b4034bd8E+0x13e>
   15902:	00198513          	addi	a0,s3,1
   15906:	05300613          	li	a2,83
   1590a:	85ca                	mv	a1,s2
   1590c:	00008097          	auipc	ra,0x8
   15910:	e6a080e7          	jalr	-406(ra) # 1d776 <memcpy>
   15914:	00098023          	sb	zero,0(s3)
   15918:	bf4d                	j	158ca <_ZN20complex_dynamic_type3app17h899c54c7b4034bd8E+0xee>
   1591a:	6505                	lui	a0,0x1
   1591c:	ec350513          	addi	a0,a0,-317 # ec3 <.Lline_table_start1+0xc98>
   15920:	459d                	li	a1,7
   15922:	4601                	li	a2,0
   15924:	4681                	li	a3,0
   15926:	00000073          	ecall
   1592a:	00a14483          	lbu	s1,10(sp)
   1592e:	00198513          	addi	a0,s3,1
   15932:	05300613          	li	a2,83
   15936:	85ca                	mv	a1,s2
   15938:	00008097          	auipc	ra,0x8
   1593c:	e3e080e7          	jalr	-450(ra) # 1d776 <memcpy>
   15940:	4509                	li	a0,2
   15942:	00098023          	sb	zero,0(s3)
   15946:	f6a499e3          	bne	s1,a0,158b8 <_ZN20complex_dynamic_type3app17h899c54c7b4034bd8E+0xdc>
   1594a:	b741                	j	158ca <_ZN20complex_dynamic_type3app17h899c54c7b4034bd8E+0xee>

0001594c <_ZN20complex_dynamic_type3app17h8b28a40047ddaf77E>:
   1594c:	7135                	addi	sp,sp,-160
   1594e:	cf06                	sw	ra,156(sp)
   15950:	cd22                	sw	s0,152(sp)
   15952:	cb26                	sw	s1,148(sp)
   15954:	c94a                	sw	s2,144(sp)
   15956:	c74e                	sw	s3,140(sp)
   15958:	89aa                	mv	s3,a0
   1595a:	4409                	li	s0,2
   1595c:	00810023          	sb	s0,0(sp)
   15960:	00110493          	addi	s1,sp,1
   15964:	04f00613          	li	a2,79
   15968:	8526                	mv	a0,s1
   1596a:	00008097          	auipc	ra,0x8
   1596e:	e0c080e7          	jalr	-500(ra) # 1d776 <memcpy>
   15972:	05110913          	addi	s2,sp,81
   15976:	03b00613          	li	a2,59
   1597a:	854a                	mv	a0,s2
   1597c:	4581                	li	a1,0
   1597e:	00008097          	auipc	ra,0x8
   15982:	d8c080e7          	jalr	-628(ra) # 1d70a <memset>
   15986:	8626                	mv	a2,s1
   15988:	04810823          	sb	s0,80(sp)
   1598c:	6505                	lui	a0,0x1
   1598e:	4491                	li	s1,4
   15990:	45a1                	li	a1,8
   15992:	a0650793          	addi	a5,a0,-1530 # a06 <.Lline_table_start1+0x7db>
   15996:	04f00693          	li	a3,79
   1599a:	4711                	li	a4,4
   1599c:	853e                	mv	a0,a5
   1599e:	00000073          	ecall
   159a2:	00851863          	bne	a0,s0,159b2 <_ZN20complex_dynamic_type3app17h8b28a40047ddaf77E+0x66>
   159a6:	4505                	li	a0,1
   159a8:	00a98023          	sb	a0,0(s3)
   159ac:	00b9a223          	sw	a1,4(s3)
   159b0:	a0bd                	j	15a1e <_ZN20complex_dynamic_type3app17h8b28a40047ddaf77E+0xd2>
   159b2:	853e                	mv	a0,a5
   159b4:	864a                	mv	a2,s2
   159b6:	00910023          	sb	s1,0(sp)
   159ba:	478d                	li	a5,3
   159bc:	4595                	li	a1,5
   159be:	03b00693          	li	a3,59
   159c2:	470d                	li	a4,3
   159c4:	00000073          	ecall
   159c8:	00851d63          	bne	a0,s0,159e2 <_ZN20complex_dynamic_type3app17h8b28a40047ddaf77E+0x96>
   159cc:	05014703          	lbu	a4,80(sp)
   159d0:	4505                	li	a0,1
   159d2:	4609                	li	a2,2
   159d4:	00a98023          	sb	a0,0(s3)
   159d8:	00b9a223          	sw	a1,4(s3)
   159dc:	02c71963          	bne	a4,a2,15a0e <_ZN20complex_dynamic_type3app17h8b28a40047ddaf77E+0xc2>
   159e0:	a83d                	j	15a1e <_ZN20complex_dynamic_type3app17h8b28a40047ddaf77E+0xd2>
   159e2:	4681                	li	a3,0
   159e4:	04f10823          	sb	a5,80(sp)
   159e8:	6505                	lui	a0,0x1
   159ea:	45a1                	li	a1,8
   159ec:	4615                	li	a2,5
   159ee:	4709                	li	a4,2
   159f0:	a0650513          	addi	a0,a0,-1530 # a06 <.Lline_table_start1+0x7db>
   159f4:	07f00793          	li	a5,127
   159f8:	00000073          	ecall
   159fc:	4609                	li	a2,2
   159fe:	04a7e563          	bltu	a5,a0,15a48 <_ZN20complex_dynamic_type3app17h8b28a40047ddaf77E+0xfc>
   15a02:	4505                	li	a0,1
   15a04:	00a98023          	sb	a0,0(s3)
   15a08:	00b9a223          	sw	a1,4(s3)
   15a0c:	470d                	li	a4,3
   15a0e:	6505                	lui	a0,0x1
   15a10:	a0650513          	addi	a0,a0,-1530 # a06 <.Lline_table_start1+0x7db>
   15a14:	4595                	li	a1,5
   15a16:	4601                	li	a2,0
   15a18:	4681                	li	a3,0
   15a1a:	00000073          	ecall
   15a1e:	00014483          	lbu	s1,0(sp)
   15a22:	4509                	li	a0,2
   15a24:	00a48b63          	beq	s1,a0,15a3a <_ZN20complex_dynamic_type3app17h8b28a40047ddaf77E+0xee>
   15a28:	6505                	lui	a0,0x1
   15a2a:	a0650513          	addi	a0,a0,-1530 # a06 <.Lline_table_start1+0x7db>
   15a2e:	45a1                	li	a1,8
   15a30:	4601                	li	a2,0
   15a32:	4681                	li	a3,0
   15a34:	8726                	mv	a4,s1
   15a36:	00000073          	ecall
   15a3a:	40fa                	lw	ra,156(sp)
   15a3c:	446a                	lw	s0,152(sp)
   15a3e:	44da                	lw	s1,148(sp)
   15a40:	494a                	lw	s2,144(sp)
   15a42:	49ba                	lw	s3,140(sp)
   15a44:	610d                	addi	sp,sp,160
   15a46:	8082                	ret
   15a48:	00014703          	lbu	a4,0(sp)
   15a4c:	00c71463          	bne	a4,a2,15a54 <_ZN20complex_dynamic_type3app17h8b28a40047ddaf77E+0x108>
   15a50:	470d                	li	a4,3
   15a52:	a825                	j	15a8a <_ZN20complex_dynamic_type3app17h8b28a40047ddaf77E+0x13e>
   15a54:	6505                	lui	a0,0x1
   15a56:	a0650513          	addi	a0,a0,-1530 # a06 <.Lline_table_start1+0x7db>
   15a5a:	45a1                	li	a1,8
   15a5c:	4601                	li	a2,0
   15a5e:	4681                	li	a3,0
   15a60:	00000073          	ecall
   15a64:	05014703          	lbu	a4,80(sp)
   15a68:	4509                	li	a0,2
   15a6a:	00a10023          	sb	a0,0(sp)
   15a6e:	00a71e63          	bne	a4,a0,15a8a <_ZN20complex_dynamic_type3app17h8b28a40047ddaf77E+0x13e>
   15a72:	00198513          	addi	a0,s3,1
   15a76:	03b00613          	li	a2,59
   15a7a:	85ca                	mv	a1,s2
   15a7c:	00008097          	auipc	ra,0x8
   15a80:	cfa080e7          	jalr	-774(ra) # 1d776 <memcpy>
   15a84:	00098023          	sb	zero,0(s3)
   15a88:	bf4d                	j	15a3a <_ZN20complex_dynamic_type3app17h8b28a40047ddaf77E+0xee>
   15a8a:	6505                	lui	a0,0x1
   15a8c:	a0650513          	addi	a0,a0,-1530 # a06 <.Lline_table_start1+0x7db>
   15a90:	4595                	li	a1,5
   15a92:	4601                	li	a2,0
   15a94:	4681                	li	a3,0
   15a96:	00000073          	ecall
   15a9a:	00014483          	lbu	s1,0(sp)
   15a9e:	00198513          	addi	a0,s3,1
   15aa2:	03b00613          	li	a2,59
   15aa6:	85ca                	mv	a1,s2
   15aa8:	00008097          	auipc	ra,0x8
   15aac:	cce080e7          	jalr	-818(ra) # 1d776 <memcpy>
   15ab0:	4509                	li	a0,2
   15ab2:	00098023          	sb	zero,0(s3)
   15ab6:	f6a499e3          	bne	s1,a0,15a28 <_ZN20complex_dynamic_type3app17h8b28a40047ddaf77E+0xdc>
   15aba:	b741                	j	15a3a <_ZN20complex_dynamic_type3app17h8b28a40047ddaf77E+0xee>

00015abc <_ZN20complex_dynamic_type3app17h8f63435f67689c9dE>:
   15abc:	7159                	addi	sp,sp,-112
   15abe:	d686                	sw	ra,108(sp)
   15ac0:	d4a2                	sw	s0,104(sp)
   15ac2:	d2a6                	sw	s1,100(sp)
   15ac4:	d0ca                	sw	s2,96(sp)
   15ac6:	cece                	sw	s3,92(sp)
   15ac8:	89aa                	mv	s3,a0
   15aca:	4409                	li	s0,2
   15acc:	00810623          	sb	s0,12(sp)
   15ad0:	00d10493          	addi	s1,sp,13
   15ad4:	02300613          	li	a2,35
   15ad8:	8526                	mv	a0,s1
   15ada:	00008097          	auipc	ra,0x8
   15ade:	c9c080e7          	jalr	-868(ra) # 1d776 <memcpy>
   15ae2:	03110913          	addi	s2,sp,49
   15ae6:	02b00613          	li	a2,43
   15aea:	854a                	mv	a0,s2
   15aec:	4581                	li	a1,0
   15aee:	00008097          	auipc	ra,0x8
   15af2:	c1c080e7          	jalr	-996(ra) # 1d70a <memset>
   15af6:	8626                	mv	a2,s1
   15af8:	02810823          	sb	s0,48(sp)
   15afc:	6505                	lui	a0,0x1
   15afe:	4491                	li	s1,4
   15b00:	4589                	li	a1,2
   15b02:	d5d50793          	addi	a5,a0,-675 # d5d <.Lline_table_start1+0xb32>
   15b06:	02300693          	li	a3,35
   15b0a:	4711                	li	a4,4
   15b0c:	853e                	mv	a0,a5
   15b0e:	00000073          	ecall
   15b12:	00851863          	bne	a0,s0,15b22 <_ZN20complex_dynamic_type3app17h8f63435f67689c9dE+0x66>
   15b16:	4505                	li	a0,1
   15b18:	00a98023          	sb	a0,0(s3)
   15b1c:	00b9a223          	sw	a1,4(s3)
   15b20:	a0bd                	j	15b8e <_ZN20complex_dynamic_type3app17h8f63435f67689c9dE+0xd2>
   15b22:	853e                	mv	a0,a5
   15b24:	4581                	li	a1,0
   15b26:	864a                	mv	a2,s2
   15b28:	00910623          	sb	s1,12(sp)
   15b2c:	478d                	li	a5,3
   15b2e:	02b00693          	li	a3,43
   15b32:	470d                	li	a4,3
   15b34:	00000073          	ecall
   15b38:	00851d63          	bne	a0,s0,15b52 <_ZN20complex_dynamic_type3app17h8f63435f67689c9dE+0x96>
   15b3c:	03014703          	lbu	a4,48(sp)
   15b40:	4505                	li	a0,1
   15b42:	4609                	li	a2,2
   15b44:	00a98023          	sb	a0,0(s3)
   15b48:	00b9a223          	sw	a1,4(s3)
   15b4c:	02c71963          	bne	a4,a2,15b7e <_ZN20complex_dynamic_type3app17h8f63435f67689c9dE+0xc2>
   15b50:	a83d                	j	15b8e <_ZN20complex_dynamic_type3app17h8f63435f67689c9dE+0xd2>
   15b52:	4601                	li	a2,0
   15b54:	4681                	li	a3,0
   15b56:	02f10823          	sb	a5,48(sp)
   15b5a:	6505                	lui	a0,0x1
   15b5c:	4589                	li	a1,2
   15b5e:	4709                	li	a4,2
   15b60:	d5d50513          	addi	a0,a0,-675 # d5d <.Lline_table_start1+0xb32>
   15b64:	07f00793          	li	a5,127
   15b68:	00000073          	ecall
   15b6c:	4609                	li	a2,2
   15b6e:	04a7e563          	bltu	a5,a0,15bb8 <_ZN20complex_dynamic_type3app17h8f63435f67689c9dE+0xfc>
   15b72:	4505                	li	a0,1
   15b74:	00a98023          	sb	a0,0(s3)
   15b78:	00b9a223          	sw	a1,4(s3)
   15b7c:	470d                	li	a4,3
   15b7e:	6505                	lui	a0,0x1
   15b80:	d5d50513          	addi	a0,a0,-675 # d5d <.Lline_table_start1+0xb32>
   15b84:	4581                	li	a1,0
   15b86:	4601                	li	a2,0
   15b88:	4681                	li	a3,0
   15b8a:	00000073          	ecall
   15b8e:	00c14483          	lbu	s1,12(sp)
   15b92:	4509                	li	a0,2
   15b94:	00a48b63          	beq	s1,a0,15baa <_ZN20complex_dynamic_type3app17h8f63435f67689c9dE+0xee>
   15b98:	6505                	lui	a0,0x1
   15b9a:	d5d50513          	addi	a0,a0,-675 # d5d <.Lline_table_start1+0xb32>
   15b9e:	4589                	li	a1,2
   15ba0:	4601                	li	a2,0
   15ba2:	4681                	li	a3,0
   15ba4:	8726                	mv	a4,s1
   15ba6:	00000073          	ecall
   15baa:	50b6                	lw	ra,108(sp)
   15bac:	5426                	lw	s0,104(sp)
   15bae:	5496                	lw	s1,100(sp)
   15bb0:	5906                	lw	s2,96(sp)
   15bb2:	49f6                	lw	s3,92(sp)
   15bb4:	6165                	addi	sp,sp,112
   15bb6:	8082                	ret
   15bb8:	00c14703          	lbu	a4,12(sp)
   15bbc:	00c71463          	bne	a4,a2,15bc4 <_ZN20complex_dynamic_type3app17h8f63435f67689c9dE+0x108>
   15bc0:	470d                	li	a4,3
   15bc2:	a825                	j	15bfa <_ZN20complex_dynamic_type3app17h8f63435f67689c9dE+0x13e>
   15bc4:	6505                	lui	a0,0x1
   15bc6:	d5d50513          	addi	a0,a0,-675 # d5d <.Lline_table_start1+0xb32>
   15bca:	4589                	li	a1,2
   15bcc:	4601                	li	a2,0
   15bce:	4681                	li	a3,0
   15bd0:	00000073          	ecall
   15bd4:	03014703          	lbu	a4,48(sp)
   15bd8:	4509                	li	a0,2
   15bda:	00a10623          	sb	a0,12(sp)
   15bde:	00a71e63          	bne	a4,a0,15bfa <_ZN20complex_dynamic_type3app17h8f63435f67689c9dE+0x13e>
   15be2:	00198513          	addi	a0,s3,1
   15be6:	02b00613          	li	a2,43
   15bea:	85ca                	mv	a1,s2
   15bec:	00008097          	auipc	ra,0x8
   15bf0:	b8a080e7          	jalr	-1142(ra) # 1d776 <memcpy>
   15bf4:	00098023          	sb	zero,0(s3)
   15bf8:	bf4d                	j	15baa <_ZN20complex_dynamic_type3app17h8f63435f67689c9dE+0xee>
   15bfa:	6505                	lui	a0,0x1
   15bfc:	d5d50513          	addi	a0,a0,-675 # d5d <.Lline_table_start1+0xb32>
   15c00:	4581                	li	a1,0
   15c02:	4601                	li	a2,0
   15c04:	4681                	li	a3,0
   15c06:	00000073          	ecall
   15c0a:	00c14483          	lbu	s1,12(sp)
   15c0e:	00198513          	addi	a0,s3,1
   15c12:	02b00613          	li	a2,43
   15c16:	85ca                	mv	a1,s2
   15c18:	00008097          	auipc	ra,0x8
   15c1c:	b5e080e7          	jalr	-1186(ra) # 1d776 <memcpy>
   15c20:	4509                	li	a0,2
   15c22:	00098023          	sb	zero,0(s3)
   15c26:	f6a499e3          	bne	s1,a0,15b98 <_ZN20complex_dynamic_type3app17h8f63435f67689c9dE+0xdc>
   15c2a:	b741                	j	15baa <_ZN20complex_dynamic_type3app17h8f63435f67689c9dE+0xee>

00015c2c <_ZN20complex_dynamic_type3app17h91f079d541b07abeE>:
   15c2c:	715d                	addi	sp,sp,-80
   15c2e:	c686                	sw	ra,76(sp)
   15c30:	c4a2                	sw	s0,72(sp)
   15c32:	c2a6                	sw	s1,68(sp)
   15c34:	c0ca                	sw	s2,64(sp)
   15c36:	de4e                	sw	s3,60(sp)
   15c38:	89aa                	mv	s3,a0
   15c3a:	4409                	li	s0,2
   15c3c:	00810223          	sb	s0,4(sp)
   15c40:	00510493          	addi	s1,sp,5
   15c44:	4661                	li	a2,24
   15c46:	8526                	mv	a0,s1
   15c48:	00008097          	auipc	ra,0x8
   15c4c:	b2e080e7          	jalr	-1234(ra) # 1d776 <memcpy>
   15c50:	01e10913          	addi	s2,sp,30
   15c54:	4679                	li	a2,30
   15c56:	854a                	mv	a0,s2
   15c58:	4581                	li	a1,0
   15c5a:	00008097          	auipc	ra,0x8
   15c5e:	ab0080e7          	jalr	-1360(ra) # 1d70a <memset>
   15c62:	8626                	mv	a2,s1
   15c64:	00810ea3          	sb	s0,29(sp)
   15c68:	6505                	lui	a0,0x1
   15c6a:	4491                	li	s1,4
   15c6c:	45a5                	li	a1,9
   15c6e:	cbb50793          	addi	a5,a0,-837 # cbb <.Lline_table_start1+0xa90>
   15c72:	46e1                	li	a3,24
   15c74:	4711                	li	a4,4
   15c76:	853e                	mv	a0,a5
   15c78:	00000073          	ecall
   15c7c:	00851863          	bne	a0,s0,15c8c <_ZN20complex_dynamic_type3app17h91f079d541b07abeE+0x60>
   15c80:	4505                	li	a0,1
   15c82:	00a98023          	sb	a0,0(s3)
   15c86:	00b9a223          	sw	a1,4(s3)
   15c8a:	a0b5                	j	15cf6 <_ZN20complex_dynamic_type3app17h91f079d541b07abeE+0xca>
   15c8c:	853e                	mv	a0,a5
   15c8e:	864a                	mv	a2,s2
   15c90:	00910223          	sb	s1,4(sp)
   15c94:	478d                	li	a5,3
   15c96:	4595                	li	a1,5
   15c98:	46f9                	li	a3,30
   15c9a:	470d                	li	a4,3
   15c9c:	00000073          	ecall
   15ca0:	00851d63          	bne	a0,s0,15cba <_ZN20complex_dynamic_type3app17h91f079d541b07abeE+0x8e>
   15ca4:	01d14703          	lbu	a4,29(sp)
   15ca8:	4505                	li	a0,1
   15caa:	4609                	li	a2,2
   15cac:	00a98023          	sb	a0,0(s3)
   15cb0:	00b9a223          	sw	a1,4(s3)
   15cb4:	02c71963          	bne	a4,a2,15ce6 <_ZN20complex_dynamic_type3app17h91f079d541b07abeE+0xba>
   15cb8:	a83d                	j	15cf6 <_ZN20complex_dynamic_type3app17h91f079d541b07abeE+0xca>
   15cba:	4681                	li	a3,0
   15cbc:	00f10ea3          	sb	a5,29(sp)
   15cc0:	6505                	lui	a0,0x1
   15cc2:	45a5                	li	a1,9
   15cc4:	4615                	li	a2,5
   15cc6:	4709                	li	a4,2
   15cc8:	cbb50513          	addi	a0,a0,-837 # cbb <.Lline_table_start1+0xa90>
   15ccc:	07f00793          	li	a5,127
   15cd0:	00000073          	ecall
   15cd4:	4609                	li	a2,2
   15cd6:	04a7e563          	bltu	a5,a0,15d20 <_ZN20complex_dynamic_type3app17h91f079d541b07abeE+0xf4>
   15cda:	4505                	li	a0,1
   15cdc:	00a98023          	sb	a0,0(s3)
   15ce0:	00b9a223          	sw	a1,4(s3)
   15ce4:	470d                	li	a4,3
   15ce6:	6505                	lui	a0,0x1
   15ce8:	cbb50513          	addi	a0,a0,-837 # cbb <.Lline_table_start1+0xa90>
   15cec:	4595                	li	a1,5
   15cee:	4601                	li	a2,0
   15cf0:	4681                	li	a3,0
   15cf2:	00000073          	ecall
   15cf6:	00414483          	lbu	s1,4(sp)
   15cfa:	4509                	li	a0,2
   15cfc:	00a48b63          	beq	s1,a0,15d12 <_ZN20complex_dynamic_type3app17h91f079d541b07abeE+0xe6>
   15d00:	6505                	lui	a0,0x1
   15d02:	cbb50513          	addi	a0,a0,-837 # cbb <.Lline_table_start1+0xa90>
   15d06:	45a5                	li	a1,9
   15d08:	4601                	li	a2,0
   15d0a:	4681                	li	a3,0
   15d0c:	8726                	mv	a4,s1
   15d0e:	00000073          	ecall
   15d12:	40b6                	lw	ra,76(sp)
   15d14:	4426                	lw	s0,72(sp)
   15d16:	4496                	lw	s1,68(sp)
   15d18:	4906                	lw	s2,64(sp)
   15d1a:	59f2                	lw	s3,60(sp)
   15d1c:	6161                	addi	sp,sp,80
   15d1e:	8082                	ret
   15d20:	00414703          	lbu	a4,4(sp)
   15d24:	00c71463          	bne	a4,a2,15d2c <_ZN20complex_dynamic_type3app17h91f079d541b07abeE+0x100>
   15d28:	470d                	li	a4,3
   15d2a:	a81d                	j	15d60 <_ZN20complex_dynamic_type3app17h91f079d541b07abeE+0x134>
   15d2c:	6505                	lui	a0,0x1
   15d2e:	cbb50513          	addi	a0,a0,-837 # cbb <.Lline_table_start1+0xa90>
   15d32:	45a5                	li	a1,9
   15d34:	4601                	li	a2,0
   15d36:	4681                	li	a3,0
   15d38:	00000073          	ecall
   15d3c:	01d14703          	lbu	a4,29(sp)
   15d40:	4509                	li	a0,2
   15d42:	00a10223          	sb	a0,4(sp)
   15d46:	00a71d63          	bne	a4,a0,15d60 <_ZN20complex_dynamic_type3app17h91f079d541b07abeE+0x134>
   15d4a:	00198513          	addi	a0,s3,1
   15d4e:	4679                	li	a2,30
   15d50:	85ca                	mv	a1,s2
   15d52:	00008097          	auipc	ra,0x8
   15d56:	a24080e7          	jalr	-1500(ra) # 1d776 <memcpy>
   15d5a:	00098023          	sb	zero,0(s3)
   15d5e:	bf55                	j	15d12 <_ZN20complex_dynamic_type3app17h91f079d541b07abeE+0xe6>
   15d60:	6505                	lui	a0,0x1
   15d62:	cbb50513          	addi	a0,a0,-837 # cbb <.Lline_table_start1+0xa90>
   15d66:	4595                	li	a1,5
   15d68:	4601                	li	a2,0
   15d6a:	4681                	li	a3,0
   15d6c:	00000073          	ecall
   15d70:	00414483          	lbu	s1,4(sp)
   15d74:	00198513          	addi	a0,s3,1
   15d78:	4679                	li	a2,30
   15d7a:	85ca                	mv	a1,s2
   15d7c:	00008097          	auipc	ra,0x8
   15d80:	9fa080e7          	jalr	-1542(ra) # 1d776 <memcpy>
   15d84:	4509                	li	a0,2
   15d86:	00098023          	sb	zero,0(s3)
   15d8a:	f6a49be3          	bne	s1,a0,15d00 <_ZN20complex_dynamic_type3app17h91f079d541b07abeE+0xd4>
   15d8e:	b751                	j	15d12 <_ZN20complex_dynamic_type3app17h91f079d541b07abeE+0xe6>

00015d90 <_ZN20complex_dynamic_type3app17h929961daab215959E>:
   15d90:	7159                	addi	sp,sp,-112
   15d92:	d686                	sw	ra,108(sp)
   15d94:	d4a2                	sw	s0,104(sp)
   15d96:	d2a6                	sw	s1,100(sp)
   15d98:	d0ca                	sw	s2,96(sp)
   15d9a:	cece                	sw	s3,92(sp)
   15d9c:	89aa                	mv	s3,a0
   15d9e:	4409                	li	s0,2
   15da0:	00810423          	sb	s0,8(sp)
   15da4:	00910493          	addi	s1,sp,9
   15da8:	02a00613          	li	a2,42
   15dac:	8526                	mv	a0,s1
   15dae:	00008097          	auipc	ra,0x8
   15db2:	9c8080e7          	jalr	-1592(ra) # 1d776 <memcpy>
   15db6:	03410913          	addi	s2,sp,52
   15dba:	02800613          	li	a2,40
   15dbe:	854a                	mv	a0,s2
   15dc0:	4581                	li	a1,0
   15dc2:	00008097          	auipc	ra,0x8
   15dc6:	948080e7          	jalr	-1720(ra) # 1d70a <memset>
   15dca:	8626                	mv	a2,s1
   15dcc:	028109a3          	sb	s0,51(sp)
   15dd0:	6509                	lui	a0,0x2
   15dd2:	4491                	li	s1,4
   15dd4:	4591                	li	a1,4
   15dd6:	efa50793          	addi	a5,a0,-262 # 1efa <.Lline_table_start1+0x1ccf>
   15dda:	02a00693          	li	a3,42
   15dde:	4711                	li	a4,4
   15de0:	853e                	mv	a0,a5
   15de2:	00000073          	ecall
   15de6:	00851863          	bne	a0,s0,15df6 <_ZN20complex_dynamic_type3app17h929961daab215959E+0x66>
   15dea:	4505                	li	a0,1
   15dec:	00a98023          	sb	a0,0(s3)
   15df0:	00b9a223          	sw	a1,4(s3)
   15df4:	a0bd                	j	15e62 <_ZN20complex_dynamic_type3app17h929961daab215959E+0xd2>
   15df6:	853e                	mv	a0,a5
   15df8:	864a                	mv	a2,s2
   15dfa:	00910423          	sb	s1,8(sp)
   15dfe:	478d                	li	a5,3
   15e00:	45a1                	li	a1,8
   15e02:	02800693          	li	a3,40
   15e06:	470d                	li	a4,3
   15e08:	00000073          	ecall
   15e0c:	00851d63          	bne	a0,s0,15e26 <_ZN20complex_dynamic_type3app17h929961daab215959E+0x96>
   15e10:	03314703          	lbu	a4,51(sp)
   15e14:	4505                	li	a0,1
   15e16:	4609                	li	a2,2
   15e18:	00a98023          	sb	a0,0(s3)
   15e1c:	00b9a223          	sw	a1,4(s3)
   15e20:	02c71963          	bne	a4,a2,15e52 <_ZN20complex_dynamic_type3app17h929961daab215959E+0xc2>
   15e24:	a83d                	j	15e62 <_ZN20complex_dynamic_type3app17h929961daab215959E+0xd2>
   15e26:	4681                	li	a3,0
   15e28:	02f109a3          	sb	a5,51(sp)
   15e2c:	6509                	lui	a0,0x2
   15e2e:	4591                	li	a1,4
   15e30:	4621                	li	a2,8
   15e32:	4709                	li	a4,2
   15e34:	efa50513          	addi	a0,a0,-262 # 1efa <.Lline_table_start1+0x1ccf>
   15e38:	07f00793          	li	a5,127
   15e3c:	00000073          	ecall
   15e40:	4609                	li	a2,2
   15e42:	04a7e563          	bltu	a5,a0,15e8c <_ZN20complex_dynamic_type3app17h929961daab215959E+0xfc>
   15e46:	4505                	li	a0,1
   15e48:	00a98023          	sb	a0,0(s3)
   15e4c:	00b9a223          	sw	a1,4(s3)
   15e50:	470d                	li	a4,3
   15e52:	6509                	lui	a0,0x2
   15e54:	efa50513          	addi	a0,a0,-262 # 1efa <.Lline_table_start1+0x1ccf>
   15e58:	45a1                	li	a1,8
   15e5a:	4601                	li	a2,0
   15e5c:	4681                	li	a3,0
   15e5e:	00000073          	ecall
   15e62:	00814483          	lbu	s1,8(sp)
   15e66:	4509                	li	a0,2
   15e68:	00a48b63          	beq	s1,a0,15e7e <_ZN20complex_dynamic_type3app17h929961daab215959E+0xee>
   15e6c:	6509                	lui	a0,0x2
   15e6e:	efa50513          	addi	a0,a0,-262 # 1efa <.Lline_table_start1+0x1ccf>
   15e72:	4591                	li	a1,4
   15e74:	4601                	li	a2,0
   15e76:	4681                	li	a3,0
   15e78:	8726                	mv	a4,s1
   15e7a:	00000073          	ecall
   15e7e:	50b6                	lw	ra,108(sp)
   15e80:	5426                	lw	s0,104(sp)
   15e82:	5496                	lw	s1,100(sp)
   15e84:	5906                	lw	s2,96(sp)
   15e86:	49f6                	lw	s3,92(sp)
   15e88:	6165                	addi	sp,sp,112
   15e8a:	8082                	ret
   15e8c:	00814703          	lbu	a4,8(sp)
   15e90:	00c71463          	bne	a4,a2,15e98 <_ZN20complex_dynamic_type3app17h929961daab215959E+0x108>
   15e94:	470d                	li	a4,3
   15e96:	a825                	j	15ece <_ZN20complex_dynamic_type3app17h929961daab215959E+0x13e>
   15e98:	6509                	lui	a0,0x2
   15e9a:	efa50513          	addi	a0,a0,-262 # 1efa <.Lline_table_start1+0x1ccf>
   15e9e:	4591                	li	a1,4
   15ea0:	4601                	li	a2,0
   15ea2:	4681                	li	a3,0
   15ea4:	00000073          	ecall
   15ea8:	03314703          	lbu	a4,51(sp)
   15eac:	4509                	li	a0,2
   15eae:	00a10423          	sb	a0,8(sp)
   15eb2:	00a71e63          	bne	a4,a0,15ece <_ZN20complex_dynamic_type3app17h929961daab215959E+0x13e>
   15eb6:	00198513          	addi	a0,s3,1
   15eba:	02800613          	li	a2,40
   15ebe:	85ca                	mv	a1,s2
   15ec0:	00008097          	auipc	ra,0x8
   15ec4:	8b6080e7          	jalr	-1866(ra) # 1d776 <memcpy>
   15ec8:	00098023          	sb	zero,0(s3)
   15ecc:	bf4d                	j	15e7e <_ZN20complex_dynamic_type3app17h929961daab215959E+0xee>
   15ece:	6509                	lui	a0,0x2
   15ed0:	efa50513          	addi	a0,a0,-262 # 1efa <.Lline_table_start1+0x1ccf>
   15ed4:	45a1                	li	a1,8
   15ed6:	4601                	li	a2,0
   15ed8:	4681                	li	a3,0
   15eda:	00000073          	ecall
   15ede:	00814483          	lbu	s1,8(sp)
   15ee2:	00198513          	addi	a0,s3,1
   15ee6:	02800613          	li	a2,40
   15eea:	85ca                	mv	a1,s2
   15eec:	00008097          	auipc	ra,0x8
   15ef0:	88a080e7          	jalr	-1910(ra) # 1d776 <memcpy>
   15ef4:	4509                	li	a0,2
   15ef6:	00098023          	sb	zero,0(s3)
   15efa:	f6a499e3          	bne	s1,a0,15e6c <_ZN20complex_dynamic_type3app17h929961daab215959E+0xdc>
   15efe:	b741                	j	15e7e <_ZN20complex_dynamic_type3app17h929961daab215959E+0xee>

00015f00 <_ZN20complex_dynamic_type3app17h943fd357ecd6b614E>:
   15f00:	7119                	addi	sp,sp,-128
   15f02:	de86                	sw	ra,124(sp)
   15f04:	dca2                	sw	s0,120(sp)
   15f06:	daa6                	sw	s1,116(sp)
   15f08:	d8ca                	sw	s2,112(sp)
   15f0a:	d6ce                	sw	s3,108(sp)
   15f0c:	89aa                	mv	s3,a0
   15f0e:	4409                	li	s0,2
   15f10:	008103a3          	sb	s0,7(sp)
   15f14:	0024                	addi	s1,sp,8
   15f16:	04100613          	li	a2,65
   15f1a:	8526                	mv	a0,s1
   15f1c:	00008097          	auipc	ra,0x8
   15f20:	85a080e7          	jalr	-1958(ra) # 1d776 <memcpy>
   15f24:	04a10913          	addi	s2,sp,74
   15f28:	02200613          	li	a2,34
   15f2c:	854a                	mv	a0,s2
   15f2e:	4581                	li	a1,0
   15f30:	00007097          	auipc	ra,0x7
   15f34:	7da080e7          	jalr	2010(ra) # 1d70a <memset>
   15f38:	8626                	mv	a2,s1
   15f3a:	048104a3          	sb	s0,73(sp)
   15f3e:	6509                	lui	a0,0x2
   15f40:	4485                	li	s1,1
   15f42:	4811                	li	a6,4
   15f44:	4585                	li	a1,1
   15f46:	47c50793          	addi	a5,a0,1148 # 247c <.Lline_table_start1+0x2251>
   15f4a:	04100693          	li	a3,65
   15f4e:	4711                	li	a4,4
   15f50:	853e                	mv	a0,a5
   15f52:	00000073          	ecall
   15f56:	00851763          	bne	a0,s0,15f64 <_ZN20complex_dynamic_type3app17h943fd357ecd6b614E+0x64>
   15f5a:	00998023          	sb	s1,0(s3)
   15f5e:	00b9a223          	sw	a1,4(s3)
   15f62:	a0bd                	j	15fd0 <_ZN20complex_dynamic_type3app17h943fd357ecd6b614E+0xd0>
   15f64:	853e                	mv	a0,a5
   15f66:	4581                	li	a1,0
   15f68:	864a                	mv	a2,s2
   15f6a:	010103a3          	sb	a6,7(sp)
   15f6e:	478d                	li	a5,3
   15f70:	02200693          	li	a3,34
   15f74:	470d                	li	a4,3
   15f76:	00000073          	ecall
   15f7a:	00851d63          	bne	a0,s0,15f94 <_ZN20complex_dynamic_type3app17h943fd357ecd6b614E+0x94>
   15f7e:	04914703          	lbu	a4,73(sp)
   15f82:	4505                	li	a0,1
   15f84:	4609                	li	a2,2
   15f86:	00a98023          	sb	a0,0(s3)
   15f8a:	00b9a223          	sw	a1,4(s3)
   15f8e:	02c71963          	bne	a4,a2,15fc0 <_ZN20complex_dynamic_type3app17h943fd357ecd6b614E+0xc0>
   15f92:	a83d                	j	15fd0 <_ZN20complex_dynamic_type3app17h943fd357ecd6b614E+0xd0>
   15f94:	4601                	li	a2,0
   15f96:	4681                	li	a3,0
   15f98:	04f104a3          	sb	a5,73(sp)
   15f9c:	6509                	lui	a0,0x2
   15f9e:	4785                	li	a5,1
   15fa0:	4585                	li	a1,1
   15fa2:	4709                	li	a4,2
   15fa4:	47c50513          	addi	a0,a0,1148 # 247c <.Lline_table_start1+0x2251>
   15fa8:	07f00493          	li	s1,127
   15fac:	00000073          	ecall
   15fb0:	4609                	li	a2,2
   15fb2:	04a4e463          	bltu	s1,a0,15ffa <_ZN20complex_dynamic_type3app17h943fd357ecd6b614E+0xfa>
   15fb6:	00f98023          	sb	a5,0(s3)
   15fba:	00b9a223          	sw	a1,4(s3)
   15fbe:	470d                	li	a4,3
   15fc0:	6509                	lui	a0,0x2
   15fc2:	47c50513          	addi	a0,a0,1148 # 247c <.Lline_table_start1+0x2251>
   15fc6:	4581                	li	a1,0
   15fc8:	4601                	li	a2,0
   15fca:	4681                	li	a3,0
   15fcc:	00000073          	ecall
   15fd0:	00714483          	lbu	s1,7(sp)
   15fd4:	4509                	li	a0,2
   15fd6:	00a48b63          	beq	s1,a0,15fec <_ZN20complex_dynamic_type3app17h943fd357ecd6b614E+0xec>
   15fda:	6509                	lui	a0,0x2
   15fdc:	47c50513          	addi	a0,a0,1148 # 247c <.Lline_table_start1+0x2251>
   15fe0:	4585                	li	a1,1
   15fe2:	4601                	li	a2,0
   15fe4:	4681                	li	a3,0
   15fe6:	8726                	mv	a4,s1
   15fe8:	00000073          	ecall
   15fec:	50f6                	lw	ra,124(sp)
   15fee:	5466                	lw	s0,120(sp)
   15ff0:	54d6                	lw	s1,116(sp)
   15ff2:	5946                	lw	s2,112(sp)
   15ff4:	59b6                	lw	s3,108(sp)
   15ff6:	6109                	addi	sp,sp,128
   15ff8:	8082                	ret
   15ffa:	00714703          	lbu	a4,7(sp)
   15ffe:	00c71463          	bne	a4,a2,16006 <_ZN20complex_dynamic_type3app17h943fd357ecd6b614E+0x106>
   16002:	470d                	li	a4,3
   16004:	a825                	j	1603c <_ZN20complex_dynamic_type3app17h943fd357ecd6b614E+0x13c>
   16006:	6509                	lui	a0,0x2
   16008:	47c50513          	addi	a0,a0,1148 # 247c <.Lline_table_start1+0x2251>
   1600c:	4585                	li	a1,1
   1600e:	4601                	li	a2,0
   16010:	4681                	li	a3,0
   16012:	00000073          	ecall
   16016:	04914703          	lbu	a4,73(sp)
   1601a:	4509                	li	a0,2
   1601c:	00a103a3          	sb	a0,7(sp)
   16020:	00a71e63          	bne	a4,a0,1603c <_ZN20complex_dynamic_type3app17h943fd357ecd6b614E+0x13c>
   16024:	00198513          	addi	a0,s3,1
   16028:	02200613          	li	a2,34
   1602c:	85ca                	mv	a1,s2
   1602e:	00007097          	auipc	ra,0x7
   16032:	748080e7          	jalr	1864(ra) # 1d776 <memcpy>
   16036:	00098023          	sb	zero,0(s3)
   1603a:	bf4d                	j	15fec <_ZN20complex_dynamic_type3app17h943fd357ecd6b614E+0xec>
   1603c:	6509                	lui	a0,0x2
   1603e:	47c50513          	addi	a0,a0,1148 # 247c <.Lline_table_start1+0x2251>
   16042:	4581                	li	a1,0
   16044:	4601                	li	a2,0
   16046:	4681                	li	a3,0
   16048:	00000073          	ecall
   1604c:	00714483          	lbu	s1,7(sp)
   16050:	00198513          	addi	a0,s3,1
   16054:	02200613          	li	a2,34
   16058:	85ca                	mv	a1,s2
   1605a:	00007097          	auipc	ra,0x7
   1605e:	71c080e7          	jalr	1820(ra) # 1d776 <memcpy>
   16062:	4509                	li	a0,2
   16064:	00098023          	sb	zero,0(s3)
   16068:	f6a499e3          	bne	s1,a0,15fda <_ZN20complex_dynamic_type3app17h943fd357ecd6b614E+0xda>
   1606c:	b741                	j	15fec <_ZN20complex_dynamic_type3app17h943fd357ecd6b614E+0xec>

0001606e <_ZN20complex_dynamic_type3app17h94bb709f5184bf89E>:
   1606e:	7135                	addi	sp,sp,-160
   16070:	cf06                	sw	ra,156(sp)
   16072:	cd22                	sw	s0,152(sp)
   16074:	cb26                	sw	s1,148(sp)
   16076:	c94a                	sw	s2,144(sp)
   16078:	c74e                	sw	s3,140(sp)
   1607a:	89aa                	mv	s3,a0
   1607c:	4409                	li	s0,2
   1607e:	00810023          	sb	s0,0(sp)
   16082:	00110493          	addi	s1,sp,1
   16086:	06300613          	li	a2,99
   1608a:	8526                	mv	a0,s1
   1608c:	00007097          	auipc	ra,0x7
   16090:	6ea080e7          	jalr	1770(ra) # 1d776 <memcpy>
   16094:	06510913          	addi	s2,sp,101
   16098:	02700613          	li	a2,39
   1609c:	854a                	mv	a0,s2
   1609e:	4581                	li	a1,0
   160a0:	00007097          	auipc	ra,0x7
   160a4:	66a080e7          	jalr	1642(ra) # 1d70a <memset>
   160a8:	8626                	mv	a2,s1
   160aa:	06810223          	sb	s0,100(sp)
   160ae:	6509                	lui	a0,0x2
   160b0:	4491                	li	s1,4
   160b2:	459d                	li	a1,7
   160b4:	e5450793          	addi	a5,a0,-428 # 1e54 <.Lline_table_start1+0x1c29>
   160b8:	06300693          	li	a3,99
   160bc:	4711                	li	a4,4
   160be:	853e                	mv	a0,a5
   160c0:	00000073          	ecall
   160c4:	00851863          	bne	a0,s0,160d4 <_ZN20complex_dynamic_type3app17h94bb709f5184bf89E+0x66>
   160c8:	4505                	li	a0,1
   160ca:	00a98023          	sb	a0,0(s3)
   160ce:	00b9a223          	sw	a1,4(s3)
   160d2:	a0bd                	j	16140 <_ZN20complex_dynamic_type3app17h94bb709f5184bf89E+0xd2>
   160d4:	853e                	mv	a0,a5
   160d6:	4581                	li	a1,0
   160d8:	864a                	mv	a2,s2
   160da:	00910023          	sb	s1,0(sp)
   160de:	478d                	li	a5,3
   160e0:	02700693          	li	a3,39
   160e4:	470d                	li	a4,3
   160e6:	00000073          	ecall
   160ea:	00851d63          	bne	a0,s0,16104 <_ZN20complex_dynamic_type3app17h94bb709f5184bf89E+0x96>
   160ee:	06414703          	lbu	a4,100(sp)
   160f2:	4505                	li	a0,1
   160f4:	4609                	li	a2,2
   160f6:	00a98023          	sb	a0,0(s3)
   160fa:	00b9a223          	sw	a1,4(s3)
   160fe:	02c71963          	bne	a4,a2,16130 <_ZN20complex_dynamic_type3app17h94bb709f5184bf89E+0xc2>
   16102:	a83d                	j	16140 <_ZN20complex_dynamic_type3app17h94bb709f5184bf89E+0xd2>
   16104:	4601                	li	a2,0
   16106:	4681                	li	a3,0
   16108:	06f10223          	sb	a5,100(sp)
   1610c:	6509                	lui	a0,0x2
   1610e:	459d                	li	a1,7
   16110:	4709                	li	a4,2
   16112:	e5450513          	addi	a0,a0,-428 # 1e54 <.Lline_table_start1+0x1c29>
   16116:	07f00793          	li	a5,127
   1611a:	00000073          	ecall
   1611e:	4609                	li	a2,2
   16120:	04a7e563          	bltu	a5,a0,1616a <_ZN20complex_dynamic_type3app17h94bb709f5184bf89E+0xfc>
   16124:	4505                	li	a0,1
   16126:	00a98023          	sb	a0,0(s3)
   1612a:	00b9a223          	sw	a1,4(s3)
   1612e:	470d                	li	a4,3
   16130:	6509                	lui	a0,0x2
   16132:	e5450513          	addi	a0,a0,-428 # 1e54 <.Lline_table_start1+0x1c29>
   16136:	4581                	li	a1,0
   16138:	4601                	li	a2,0
   1613a:	4681                	li	a3,0
   1613c:	00000073          	ecall
   16140:	00014483          	lbu	s1,0(sp)
   16144:	4509                	li	a0,2
   16146:	00a48b63          	beq	s1,a0,1615c <_ZN20complex_dynamic_type3app17h94bb709f5184bf89E+0xee>
   1614a:	6509                	lui	a0,0x2
   1614c:	e5450513          	addi	a0,a0,-428 # 1e54 <.Lline_table_start1+0x1c29>
   16150:	459d                	li	a1,7
   16152:	4601                	li	a2,0
   16154:	4681                	li	a3,0
   16156:	8726                	mv	a4,s1
   16158:	00000073          	ecall
   1615c:	40fa                	lw	ra,156(sp)
   1615e:	446a                	lw	s0,152(sp)
   16160:	44da                	lw	s1,148(sp)
   16162:	494a                	lw	s2,144(sp)
   16164:	49ba                	lw	s3,140(sp)
   16166:	610d                	addi	sp,sp,160
   16168:	8082                	ret
   1616a:	00014703          	lbu	a4,0(sp)
   1616e:	00c71463          	bne	a4,a2,16176 <_ZN20complex_dynamic_type3app17h94bb709f5184bf89E+0x108>
   16172:	470d                	li	a4,3
   16174:	a825                	j	161ac <_ZN20complex_dynamic_type3app17h94bb709f5184bf89E+0x13e>
   16176:	6509                	lui	a0,0x2
   16178:	e5450513          	addi	a0,a0,-428 # 1e54 <.Lline_table_start1+0x1c29>
   1617c:	459d                	li	a1,7
   1617e:	4601                	li	a2,0
   16180:	4681                	li	a3,0
   16182:	00000073          	ecall
   16186:	06414703          	lbu	a4,100(sp)
   1618a:	4509                	li	a0,2
   1618c:	00a10023          	sb	a0,0(sp)
   16190:	00a71e63          	bne	a4,a0,161ac <_ZN20complex_dynamic_type3app17h94bb709f5184bf89E+0x13e>
   16194:	00198513          	addi	a0,s3,1
   16198:	02700613          	li	a2,39
   1619c:	85ca                	mv	a1,s2
   1619e:	00007097          	auipc	ra,0x7
   161a2:	5d8080e7          	jalr	1496(ra) # 1d776 <memcpy>
   161a6:	00098023          	sb	zero,0(s3)
   161aa:	bf4d                	j	1615c <_ZN20complex_dynamic_type3app17h94bb709f5184bf89E+0xee>
   161ac:	6509                	lui	a0,0x2
   161ae:	e5450513          	addi	a0,a0,-428 # 1e54 <.Lline_table_start1+0x1c29>
   161b2:	4581                	li	a1,0
   161b4:	4601                	li	a2,0
   161b6:	4681                	li	a3,0
   161b8:	00000073          	ecall
   161bc:	00014483          	lbu	s1,0(sp)
   161c0:	00198513          	addi	a0,s3,1
   161c4:	02700613          	li	a2,39
   161c8:	85ca                	mv	a1,s2
   161ca:	00007097          	auipc	ra,0x7
   161ce:	5ac080e7          	jalr	1452(ra) # 1d776 <memcpy>
   161d2:	4509                	li	a0,2
   161d4:	00098023          	sb	zero,0(s3)
   161d8:	f6a499e3          	bne	s1,a0,1614a <_ZN20complex_dynamic_type3app17h94bb709f5184bf89E+0xdc>
   161dc:	b741                	j	1615c <_ZN20complex_dynamic_type3app17h94bb709f5184bf89E+0xee>

000161de <_ZN20complex_dynamic_type3app17h971f4c832c03cc3eE>:
   161de:	7175                	addi	sp,sp,-144
   161e0:	c706                	sw	ra,140(sp)
   161e2:	c522                	sw	s0,136(sp)
   161e4:	c326                	sw	s1,132(sp)
   161e6:	c14a                	sw	s2,128(sp)
   161e8:	dece                	sw	s3,124(sp)
   161ea:	89aa                	mv	s3,a0
   161ec:	4409                	li	s0,2
   161ee:	008100a3          	sb	s0,1(sp)
   161f2:	00210493          	addi	s1,sp,2
   161f6:	4671                	li	a2,28
   161f8:	8526                	mv	a0,s1
   161fa:	00007097          	auipc	ra,0x7
   161fe:	57c080e7          	jalr	1404(ra) # 1d776 <memcpy>
   16202:	01f10913          	addi	s2,sp,31
   16206:	05d00613          	li	a2,93
   1620a:	854a                	mv	a0,s2
   1620c:	4581                	li	a1,0
   1620e:	00007097          	auipc	ra,0x7
   16212:	4fc080e7          	jalr	1276(ra) # 1d70a <memset>
   16216:	8626                	mv	a2,s1
   16218:	00810f23          	sb	s0,30(sp)
   1621c:	6505                	lui	a0,0x1
   1621e:	4491                	li	s1,4
   16220:	45a1                	li	a1,8
   16222:	c3e50793          	addi	a5,a0,-962 # c3e <.Lline_table_start1+0xa13>
   16226:	46f1                	li	a3,28
   16228:	4711                	li	a4,4
   1622a:	853e                	mv	a0,a5
   1622c:	00000073          	ecall
   16230:	00851863          	bne	a0,s0,16240 <_ZN20complex_dynamic_type3app17h971f4c832c03cc3eE+0x62>
   16234:	4505                	li	a0,1
   16236:	00a98023          	sb	a0,0(s3)
   1623a:	00b9a223          	sw	a1,4(s3)
   1623e:	a0bd                	j	162ac <_ZN20complex_dynamic_type3app17h971f4c832c03cc3eE+0xce>
   16240:	853e                	mv	a0,a5
   16242:	864a                	mv	a2,s2
   16244:	009100a3          	sb	s1,1(sp)
   16248:	478d                	li	a5,3
   1624a:	4595                	li	a1,5
   1624c:	05d00693          	li	a3,93
   16250:	470d                	li	a4,3
   16252:	00000073          	ecall
   16256:	00851d63          	bne	a0,s0,16270 <_ZN20complex_dynamic_type3app17h971f4c832c03cc3eE+0x92>
   1625a:	01e14703          	lbu	a4,30(sp)
   1625e:	4505                	li	a0,1
   16260:	4609                	li	a2,2
   16262:	00a98023          	sb	a0,0(s3)
   16266:	00b9a223          	sw	a1,4(s3)
   1626a:	02c71963          	bne	a4,a2,1629c <_ZN20complex_dynamic_type3app17h971f4c832c03cc3eE+0xbe>
   1626e:	a83d                	j	162ac <_ZN20complex_dynamic_type3app17h971f4c832c03cc3eE+0xce>
   16270:	4681                	li	a3,0
   16272:	00f10f23          	sb	a5,30(sp)
   16276:	6505                	lui	a0,0x1
   16278:	45a1                	li	a1,8
   1627a:	4615                	li	a2,5
   1627c:	4709                	li	a4,2
   1627e:	c3e50513          	addi	a0,a0,-962 # c3e <.Lline_table_start1+0xa13>
   16282:	07f00793          	li	a5,127
   16286:	00000073          	ecall
   1628a:	4609                	li	a2,2
   1628c:	04a7e563          	bltu	a5,a0,162d6 <_ZN20complex_dynamic_type3app17h971f4c832c03cc3eE+0xf8>
   16290:	4505                	li	a0,1
   16292:	00a98023          	sb	a0,0(s3)
   16296:	00b9a223          	sw	a1,4(s3)
   1629a:	470d                	li	a4,3
   1629c:	6505                	lui	a0,0x1
   1629e:	c3e50513          	addi	a0,a0,-962 # c3e <.Lline_table_start1+0xa13>
   162a2:	4595                	li	a1,5
   162a4:	4601                	li	a2,0
   162a6:	4681                	li	a3,0
   162a8:	00000073          	ecall
   162ac:	00114483          	lbu	s1,1(sp)
   162b0:	4509                	li	a0,2
   162b2:	00a48b63          	beq	s1,a0,162c8 <_ZN20complex_dynamic_type3app17h971f4c832c03cc3eE+0xea>
   162b6:	6505                	lui	a0,0x1
   162b8:	c3e50513          	addi	a0,a0,-962 # c3e <.Lline_table_start1+0xa13>
   162bc:	45a1                	li	a1,8
   162be:	4601                	li	a2,0
   162c0:	4681                	li	a3,0
   162c2:	8726                	mv	a4,s1
   162c4:	00000073          	ecall
   162c8:	40ba                	lw	ra,140(sp)
   162ca:	442a                	lw	s0,136(sp)
   162cc:	449a                	lw	s1,132(sp)
   162ce:	490a                	lw	s2,128(sp)
   162d0:	59f6                	lw	s3,124(sp)
   162d2:	6149                	addi	sp,sp,144
   162d4:	8082                	ret
   162d6:	00114703          	lbu	a4,1(sp)
   162da:	00c71463          	bne	a4,a2,162e2 <_ZN20complex_dynamic_type3app17h971f4c832c03cc3eE+0x104>
   162de:	470d                	li	a4,3
   162e0:	a825                	j	16318 <_ZN20complex_dynamic_type3app17h971f4c832c03cc3eE+0x13a>
   162e2:	6505                	lui	a0,0x1
   162e4:	c3e50513          	addi	a0,a0,-962 # c3e <.Lline_table_start1+0xa13>
   162e8:	45a1                	li	a1,8
   162ea:	4601                	li	a2,0
   162ec:	4681                	li	a3,0
   162ee:	00000073          	ecall
   162f2:	01e14703          	lbu	a4,30(sp)
   162f6:	4509                	li	a0,2
   162f8:	00a100a3          	sb	a0,1(sp)
   162fc:	00a71e63          	bne	a4,a0,16318 <_ZN20complex_dynamic_type3app17h971f4c832c03cc3eE+0x13a>
   16300:	00198513          	addi	a0,s3,1
   16304:	05d00613          	li	a2,93
   16308:	85ca                	mv	a1,s2
   1630a:	00007097          	auipc	ra,0x7
   1630e:	46c080e7          	jalr	1132(ra) # 1d776 <memcpy>
   16312:	00098023          	sb	zero,0(s3)
   16316:	bf4d                	j	162c8 <_ZN20complex_dynamic_type3app17h971f4c832c03cc3eE+0xea>
   16318:	6505                	lui	a0,0x1
   1631a:	c3e50513          	addi	a0,a0,-962 # c3e <.Lline_table_start1+0xa13>
   1631e:	4595                	li	a1,5
   16320:	4601                	li	a2,0
   16322:	4681                	li	a3,0
   16324:	00000073          	ecall
   16328:	00114483          	lbu	s1,1(sp)
   1632c:	00198513          	addi	a0,s3,1
   16330:	05d00613          	li	a2,93
   16334:	85ca                	mv	a1,s2
   16336:	00007097          	auipc	ra,0x7
   1633a:	440080e7          	jalr	1088(ra) # 1d776 <memcpy>
   1633e:	4509                	li	a0,2
   16340:	00098023          	sb	zero,0(s3)
   16344:	f6a499e3          	bne	s1,a0,162b6 <_ZN20complex_dynamic_type3app17h971f4c832c03cc3eE+0xd8>
   16348:	b741                	j	162c8 <_ZN20complex_dynamic_type3app17h971f4c832c03cc3eE+0xea>

0001634a <_ZN20complex_dynamic_type3app17h98063d9946a3ee61E>:
   1634a:	7135                	addi	sp,sp,-160
   1634c:	cf06                	sw	ra,156(sp)
   1634e:	cd22                	sw	s0,152(sp)
   16350:	cb26                	sw	s1,148(sp)
   16352:	c94a                	sw	s2,144(sp)
   16354:	c74e                	sw	s3,140(sp)
   16356:	89aa                	mv	s3,a0
   16358:	4409                	li	s0,2
   1635a:	00810323          	sb	s0,6(sp)
   1635e:	00710493          	addi	s1,sp,7
   16362:	04f00613          	li	a2,79
   16366:	8526                	mv	a0,s1
   16368:	00007097          	auipc	ra,0x7
   1636c:	40e080e7          	jalr	1038(ra) # 1d776 <memcpy>
   16370:	05710913          	addi	s2,sp,87
   16374:	03500613          	li	a2,53
   16378:	854a                	mv	a0,s2
   1637a:	4581                	li	a1,0
   1637c:	00007097          	auipc	ra,0x7
   16380:	38e080e7          	jalr	910(ra) # 1d70a <memset>
   16384:	8626                	mv	a2,s1
   16386:	04810b23          	sb	s0,86(sp)
   1638a:	6505                	lui	a0,0x1
   1638c:	4491                	li	s1,4
   1638e:	459d                	li	a1,7
   16390:	6d750793          	addi	a5,a0,1751 # 16d7 <.Lline_table_start1+0x14ac>
   16394:	04f00693          	li	a3,79
   16398:	4711                	li	a4,4
   1639a:	853e                	mv	a0,a5
   1639c:	00000073          	ecall
   163a0:	00851863          	bne	a0,s0,163b0 <_ZN20complex_dynamic_type3app17h98063d9946a3ee61E+0x66>
   163a4:	4505                	li	a0,1
   163a6:	00a98023          	sb	a0,0(s3)
   163aa:	00b9a223          	sw	a1,4(s3)
   163ae:	a0bd                	j	1641c <_ZN20complex_dynamic_type3app17h98063d9946a3ee61E+0xd2>
   163b0:	853e                	mv	a0,a5
   163b2:	864a                	mv	a2,s2
   163b4:	00910323          	sb	s1,6(sp)
   163b8:	4785                	li	a5,1
   163ba:	448d                	li	s1,3
   163bc:	4585                	li	a1,1
   163be:	03500693          	li	a3,53
   163c2:	470d                	li	a4,3
   163c4:	00000073          	ecall
   163c8:	00851c63          	bne	a0,s0,163e0 <_ZN20complex_dynamic_type3app17h98063d9946a3ee61E+0x96>
   163cc:	05614703          	lbu	a4,86(sp)
   163d0:	4509                	li	a0,2
   163d2:	00f98023          	sb	a5,0(s3)
   163d6:	00b9a223          	sw	a1,4(s3)
   163da:	02a71963          	bne	a4,a0,1640c <_ZN20complex_dynamic_type3app17h98063d9946a3ee61E+0xc2>
   163de:	a83d                	j	1641c <_ZN20complex_dynamic_type3app17h98063d9946a3ee61E+0xd2>
   163e0:	4681                	li	a3,0
   163e2:	04910b23          	sb	s1,86(sp)
   163e6:	6505                	lui	a0,0x1
   163e8:	4785                	li	a5,1
   163ea:	459d                	li	a1,7
   163ec:	4605                	li	a2,1
   163ee:	4709                	li	a4,2
   163f0:	6d750513          	addi	a0,a0,1751 # 16d7 <.Lline_table_start1+0x14ac>
   163f4:	07f00493          	li	s1,127
   163f8:	00000073          	ecall
   163fc:	4609                	li	a2,2
   163fe:	04a4e463          	bltu	s1,a0,16446 <_ZN20complex_dynamic_type3app17h98063d9946a3ee61E+0xfc>
   16402:	00f98023          	sb	a5,0(s3)
   16406:	00b9a223          	sw	a1,4(s3)
   1640a:	470d                	li	a4,3
   1640c:	6505                	lui	a0,0x1
   1640e:	6d750513          	addi	a0,a0,1751 # 16d7 <.Lline_table_start1+0x14ac>
   16412:	4585                	li	a1,1
   16414:	4601                	li	a2,0
   16416:	4681                	li	a3,0
   16418:	00000073          	ecall
   1641c:	00614483          	lbu	s1,6(sp)
   16420:	4509                	li	a0,2
   16422:	00a48b63          	beq	s1,a0,16438 <_ZN20complex_dynamic_type3app17h98063d9946a3ee61E+0xee>
   16426:	6505                	lui	a0,0x1
   16428:	6d750513          	addi	a0,a0,1751 # 16d7 <.Lline_table_start1+0x14ac>
   1642c:	459d                	li	a1,7
   1642e:	4601                	li	a2,0
   16430:	4681                	li	a3,0
   16432:	8726                	mv	a4,s1
   16434:	00000073          	ecall
   16438:	40fa                	lw	ra,156(sp)
   1643a:	446a                	lw	s0,152(sp)
   1643c:	44da                	lw	s1,148(sp)
   1643e:	494a                	lw	s2,144(sp)
   16440:	49ba                	lw	s3,140(sp)
   16442:	610d                	addi	sp,sp,160
   16444:	8082                	ret
   16446:	00614703          	lbu	a4,6(sp)
   1644a:	00c71463          	bne	a4,a2,16452 <_ZN20complex_dynamic_type3app17h98063d9946a3ee61E+0x108>
   1644e:	470d                	li	a4,3
   16450:	a825                	j	16488 <_ZN20complex_dynamic_type3app17h98063d9946a3ee61E+0x13e>
   16452:	6505                	lui	a0,0x1
   16454:	6d750513          	addi	a0,a0,1751 # 16d7 <.Lline_table_start1+0x14ac>
   16458:	459d                	li	a1,7
   1645a:	4601                	li	a2,0
   1645c:	4681                	li	a3,0
   1645e:	00000073          	ecall
   16462:	05614703          	lbu	a4,86(sp)
   16466:	4509                	li	a0,2
   16468:	00a10323          	sb	a0,6(sp)
   1646c:	00a71e63          	bne	a4,a0,16488 <_ZN20complex_dynamic_type3app17h98063d9946a3ee61E+0x13e>
   16470:	00198513          	addi	a0,s3,1
   16474:	03500613          	li	a2,53
   16478:	85ca                	mv	a1,s2
   1647a:	00007097          	auipc	ra,0x7
   1647e:	2fc080e7          	jalr	764(ra) # 1d776 <memcpy>
   16482:	00098023          	sb	zero,0(s3)
   16486:	bf4d                	j	16438 <_ZN20complex_dynamic_type3app17h98063d9946a3ee61E+0xee>
   16488:	6505                	lui	a0,0x1
   1648a:	6d750513          	addi	a0,a0,1751 # 16d7 <.Lline_table_start1+0x14ac>
   1648e:	4585                	li	a1,1
   16490:	4601                	li	a2,0
   16492:	4681                	li	a3,0
   16494:	00000073          	ecall
   16498:	00614483          	lbu	s1,6(sp)
   1649c:	00198513          	addi	a0,s3,1
   164a0:	03500613          	li	a2,53
   164a4:	85ca                	mv	a1,s2
   164a6:	00007097          	auipc	ra,0x7
   164aa:	2d0080e7          	jalr	720(ra) # 1d776 <memcpy>
   164ae:	4509                	li	a0,2
   164b0:	00098023          	sb	zero,0(s3)
   164b4:	f6a499e3          	bne	s1,a0,16426 <_ZN20complex_dynamic_type3app17h98063d9946a3ee61E+0xdc>
   164b8:	b741                	j	16438 <_ZN20complex_dynamic_type3app17h98063d9946a3ee61E+0xee>

000164ba <_ZN20complex_dynamic_type3app17h9ad9e8b477049c7bE>:
   164ba:	715d                	addi	sp,sp,-80
   164bc:	c686                	sw	ra,76(sp)
   164be:	c4a2                	sw	s0,72(sp)
   164c0:	c2a6                	sw	s1,68(sp)
   164c2:	c0ca                	sw	s2,64(sp)
   164c4:	de4e                	sw	s3,60(sp)
   164c6:	89aa                	mv	s3,a0
   164c8:	4409                	li	s0,2
   164ca:	00810623          	sb	s0,12(sp)
   164ce:	00d10493          	addi	s1,sp,13
   164d2:	4635                	li	a2,13
   164d4:	8526                	mv	a0,s1
   164d6:	00007097          	auipc	ra,0x7
   164da:	2a0080e7          	jalr	672(ra) # 1d776 <memcpy>
   164de:	01b10913          	addi	s2,sp,27
   164e2:	02100613          	li	a2,33
   164e6:	854a                	mv	a0,s2
   164e8:	4581                	li	a1,0
   164ea:	00007097          	auipc	ra,0x7
   164ee:	220080e7          	jalr	544(ra) # 1d70a <memset>
   164f2:	4581                	li	a1,0
   164f4:	8626                	mv	a2,s1
   164f6:	00810d23          	sb	s0,26(sp)
   164fa:	6505                	lui	a0,0x1
   164fc:	4491                	li	s1,4
   164fe:	6b050793          	addi	a5,a0,1712 # 16b0 <.Lline_table_start1+0x1485>
   16502:	46b5                	li	a3,13
   16504:	4711                	li	a4,4
   16506:	853e                	mv	a0,a5
   16508:	00000073          	ecall
   1650c:	00851863          	bne	a0,s0,1651c <_ZN20complex_dynamic_type3app17h9ad9e8b477049c7bE+0x62>
   16510:	4505                	li	a0,1
   16512:	00a98023          	sb	a0,0(s3)
   16516:	00b9a223          	sw	a1,4(s3)
   1651a:	a0bd                	j	16588 <_ZN20complex_dynamic_type3app17h9ad9e8b477049c7bE+0xce>
   1651c:	853e                	mv	a0,a5
   1651e:	4581                	li	a1,0
   16520:	864a                	mv	a2,s2
   16522:	00910623          	sb	s1,12(sp)
   16526:	478d                	li	a5,3
   16528:	02100693          	li	a3,33
   1652c:	470d                	li	a4,3
   1652e:	00000073          	ecall
   16532:	00851d63          	bne	a0,s0,1654c <_ZN20complex_dynamic_type3app17h9ad9e8b477049c7bE+0x92>
   16536:	01a14703          	lbu	a4,26(sp)
   1653a:	4505                	li	a0,1
   1653c:	4609                	li	a2,2
   1653e:	00a98023          	sb	a0,0(s3)
   16542:	00b9a223          	sw	a1,4(s3)
   16546:	02c71963          	bne	a4,a2,16578 <_ZN20complex_dynamic_type3app17h9ad9e8b477049c7bE+0xbe>
   1654a:	a83d                	j	16588 <_ZN20complex_dynamic_type3app17h9ad9e8b477049c7bE+0xce>
   1654c:	4581                	li	a1,0
   1654e:	4601                	li	a2,0
   16550:	4681                	li	a3,0
   16552:	00f10d23          	sb	a5,26(sp)
   16556:	6505                	lui	a0,0x1
   16558:	4709                	li	a4,2
   1655a:	6b050513          	addi	a0,a0,1712 # 16b0 <.Lline_table_start1+0x1485>
   1655e:	07f00793          	li	a5,127
   16562:	00000073          	ecall
   16566:	4609                	li	a2,2
   16568:	04a7e563          	bltu	a5,a0,165b2 <_ZN20complex_dynamic_type3app17h9ad9e8b477049c7bE+0xf8>
   1656c:	4505                	li	a0,1
   1656e:	00a98023          	sb	a0,0(s3)
   16572:	00b9a223          	sw	a1,4(s3)
   16576:	470d                	li	a4,3
   16578:	6505                	lui	a0,0x1
   1657a:	6b050513          	addi	a0,a0,1712 # 16b0 <.Lline_table_start1+0x1485>
   1657e:	4581                	li	a1,0
   16580:	4601                	li	a2,0
   16582:	4681                	li	a3,0
   16584:	00000073          	ecall
   16588:	00c14483          	lbu	s1,12(sp)
   1658c:	4509                	li	a0,2
   1658e:	00a48b63          	beq	s1,a0,165a4 <_ZN20complex_dynamic_type3app17h9ad9e8b477049c7bE+0xea>
   16592:	6505                	lui	a0,0x1
   16594:	6b050513          	addi	a0,a0,1712 # 16b0 <.Lline_table_start1+0x1485>
   16598:	4581                	li	a1,0
   1659a:	4601                	li	a2,0
   1659c:	4681                	li	a3,0
   1659e:	8726                	mv	a4,s1
   165a0:	00000073          	ecall
   165a4:	40b6                	lw	ra,76(sp)
   165a6:	4426                	lw	s0,72(sp)
   165a8:	4496                	lw	s1,68(sp)
   165aa:	4906                	lw	s2,64(sp)
   165ac:	59f2                	lw	s3,60(sp)
   165ae:	6161                	addi	sp,sp,80
   165b0:	8082                	ret
   165b2:	00c14703          	lbu	a4,12(sp)
   165b6:	00c71463          	bne	a4,a2,165be <_ZN20complex_dynamic_type3app17h9ad9e8b477049c7bE+0x104>
   165ba:	470d                	li	a4,3
   165bc:	a825                	j	165f4 <_ZN20complex_dynamic_type3app17h9ad9e8b477049c7bE+0x13a>
   165be:	6505                	lui	a0,0x1
   165c0:	6b050513          	addi	a0,a0,1712 # 16b0 <.Lline_table_start1+0x1485>
   165c4:	4581                	li	a1,0
   165c6:	4601                	li	a2,0
   165c8:	4681                	li	a3,0
   165ca:	00000073          	ecall
   165ce:	01a14703          	lbu	a4,26(sp)
   165d2:	4509                	li	a0,2
   165d4:	00a10623          	sb	a0,12(sp)
   165d8:	00a71e63          	bne	a4,a0,165f4 <_ZN20complex_dynamic_type3app17h9ad9e8b477049c7bE+0x13a>
   165dc:	00198513          	addi	a0,s3,1
   165e0:	02100613          	li	a2,33
   165e4:	85ca                	mv	a1,s2
   165e6:	00007097          	auipc	ra,0x7
   165ea:	190080e7          	jalr	400(ra) # 1d776 <memcpy>
   165ee:	00098023          	sb	zero,0(s3)
   165f2:	bf4d                	j	165a4 <_ZN20complex_dynamic_type3app17h9ad9e8b477049c7bE+0xea>
   165f4:	6505                	lui	a0,0x1
   165f6:	6b050513          	addi	a0,a0,1712 # 16b0 <.Lline_table_start1+0x1485>
   165fa:	4581                	li	a1,0
   165fc:	4601                	li	a2,0
   165fe:	4681                	li	a3,0
   16600:	00000073          	ecall
   16604:	00c14483          	lbu	s1,12(sp)
   16608:	00198513          	addi	a0,s3,1
   1660c:	02100613          	li	a2,33
   16610:	85ca                	mv	a1,s2
   16612:	00007097          	auipc	ra,0x7
   16616:	164080e7          	jalr	356(ra) # 1d776 <memcpy>
   1661a:	4509                	li	a0,2
   1661c:	00098023          	sb	zero,0(s3)
   16620:	f6a499e3          	bne	s1,a0,16592 <_ZN20complex_dynamic_type3app17h9ad9e8b477049c7bE+0xd8>
   16624:	b741                	j	165a4 <_ZN20complex_dynamic_type3app17h9ad9e8b477049c7bE+0xea>

00016626 <_ZN20complex_dynamic_type3app17h9bbb90f84c8e90fdE>:
   16626:	7171                	addi	sp,sp,-176
   16628:	d706                	sw	ra,172(sp)
   1662a:	d522                	sw	s0,168(sp)
   1662c:	d326                	sw	s1,164(sp)
   1662e:	d14a                	sw	s2,160(sp)
   16630:	cf4e                	sw	s3,156(sp)
   16632:	89aa                	mv	s3,a0
   16634:	4409                	li	s0,2
   16636:	008106a3          	sb	s0,13(sp)
   1663a:	00e10493          	addi	s1,sp,14
   1663e:	02a00613          	li	a2,42
   16642:	8526                	mv	a0,s1
   16644:	00007097          	auipc	ra,0x7
   16648:	132080e7          	jalr	306(ra) # 1d776 <memcpy>
   1664c:	03910913          	addi	s2,sp,57
   16650:	06300613          	li	a2,99
   16654:	854a                	mv	a0,s2
   16656:	4581                	li	a1,0
   16658:	00007097          	auipc	ra,0x7
   1665c:	0b2080e7          	jalr	178(ra) # 1d70a <memset>
   16660:	8626                	mv	a2,s1
   16662:	02810c23          	sb	s0,56(sp)
   16666:	6509                	lui	a0,0x2
   16668:	4491                	li	s1,4
   1666a:	4591                	li	a1,4
   1666c:	c7c50793          	addi	a5,a0,-900 # 1c7c <.Lline_table_start1+0x1a51>
   16670:	02a00693          	li	a3,42
   16674:	4711                	li	a4,4
   16676:	853e                	mv	a0,a5
   16678:	00000073          	ecall
   1667c:	00851863          	bne	a0,s0,1668c <_ZN20complex_dynamic_type3app17h9bbb90f84c8e90fdE+0x66>
   16680:	4505                	li	a0,1
   16682:	00a98023          	sb	a0,0(s3)
   16686:	00b9a223          	sw	a1,4(s3)
   1668a:	a0bd                	j	166f8 <_ZN20complex_dynamic_type3app17h9bbb90f84c8e90fdE+0xd2>
   1668c:	853e                	mv	a0,a5
   1668e:	4581                	li	a1,0
   16690:	864a                	mv	a2,s2
   16692:	009106a3          	sb	s1,13(sp)
   16696:	478d                	li	a5,3
   16698:	06300693          	li	a3,99
   1669c:	470d                	li	a4,3
   1669e:	00000073          	ecall
   166a2:	00851d63          	bne	a0,s0,166bc <_ZN20complex_dynamic_type3app17h9bbb90f84c8e90fdE+0x96>
   166a6:	03814703          	lbu	a4,56(sp)
   166aa:	4505                	li	a0,1
   166ac:	4609                	li	a2,2
   166ae:	00a98023          	sb	a0,0(s3)
   166b2:	00b9a223          	sw	a1,4(s3)
   166b6:	02c71963          	bne	a4,a2,166e8 <_ZN20complex_dynamic_type3app17h9bbb90f84c8e90fdE+0xc2>
   166ba:	a83d                	j	166f8 <_ZN20complex_dynamic_type3app17h9bbb90f84c8e90fdE+0xd2>
   166bc:	4601                	li	a2,0
   166be:	4681                	li	a3,0
   166c0:	02f10c23          	sb	a5,56(sp)
   166c4:	6509                	lui	a0,0x2
   166c6:	4591                	li	a1,4
   166c8:	4709                	li	a4,2
   166ca:	c7c50513          	addi	a0,a0,-900 # 1c7c <.Lline_table_start1+0x1a51>
   166ce:	07f00793          	li	a5,127
   166d2:	00000073          	ecall
   166d6:	4609                	li	a2,2
   166d8:	04a7e563          	bltu	a5,a0,16722 <_ZN20complex_dynamic_type3app17h9bbb90f84c8e90fdE+0xfc>
   166dc:	4505                	li	a0,1
   166de:	00a98023          	sb	a0,0(s3)
   166e2:	00b9a223          	sw	a1,4(s3)
   166e6:	470d                	li	a4,3
   166e8:	6509                	lui	a0,0x2
   166ea:	c7c50513          	addi	a0,a0,-900 # 1c7c <.Lline_table_start1+0x1a51>
   166ee:	4581                	li	a1,0
   166f0:	4601                	li	a2,0
   166f2:	4681                	li	a3,0
   166f4:	00000073          	ecall
   166f8:	00d14483          	lbu	s1,13(sp)
   166fc:	4509                	li	a0,2
   166fe:	00a48b63          	beq	s1,a0,16714 <_ZN20complex_dynamic_type3app17h9bbb90f84c8e90fdE+0xee>
   16702:	6509                	lui	a0,0x2
   16704:	c7c50513          	addi	a0,a0,-900 # 1c7c <.Lline_table_start1+0x1a51>
   16708:	4591                	li	a1,4
   1670a:	4601                	li	a2,0
   1670c:	4681                	li	a3,0
   1670e:	8726                	mv	a4,s1
   16710:	00000073          	ecall
   16714:	50ba                	lw	ra,172(sp)
   16716:	542a                	lw	s0,168(sp)
   16718:	549a                	lw	s1,164(sp)
   1671a:	590a                	lw	s2,160(sp)
   1671c:	49fa                	lw	s3,156(sp)
   1671e:	614d                	addi	sp,sp,176
   16720:	8082                	ret
   16722:	00d14703          	lbu	a4,13(sp)
   16726:	00c71463          	bne	a4,a2,1672e <_ZN20complex_dynamic_type3app17h9bbb90f84c8e90fdE+0x108>
   1672a:	470d                	li	a4,3
   1672c:	a825                	j	16764 <_ZN20complex_dynamic_type3app17h9bbb90f84c8e90fdE+0x13e>
   1672e:	6509                	lui	a0,0x2
   16730:	c7c50513          	addi	a0,a0,-900 # 1c7c <.Lline_table_start1+0x1a51>
   16734:	4591                	li	a1,4
   16736:	4601                	li	a2,0
   16738:	4681                	li	a3,0
   1673a:	00000073          	ecall
   1673e:	03814703          	lbu	a4,56(sp)
   16742:	4509                	li	a0,2
   16744:	00a106a3          	sb	a0,13(sp)
   16748:	00a71e63          	bne	a4,a0,16764 <_ZN20complex_dynamic_type3app17h9bbb90f84c8e90fdE+0x13e>
   1674c:	00198513          	addi	a0,s3,1
   16750:	06300613          	li	a2,99
   16754:	85ca                	mv	a1,s2
   16756:	00007097          	auipc	ra,0x7
   1675a:	020080e7          	jalr	32(ra) # 1d776 <memcpy>
   1675e:	00098023          	sb	zero,0(s3)
   16762:	bf4d                	j	16714 <_ZN20complex_dynamic_type3app17h9bbb90f84c8e90fdE+0xee>
   16764:	6509                	lui	a0,0x2
   16766:	c7c50513          	addi	a0,a0,-900 # 1c7c <.Lline_table_start1+0x1a51>
   1676a:	4581                	li	a1,0
   1676c:	4601                	li	a2,0
   1676e:	4681                	li	a3,0
   16770:	00000073          	ecall
   16774:	00d14483          	lbu	s1,13(sp)
   16778:	00198513          	addi	a0,s3,1
   1677c:	06300613          	li	a2,99
   16780:	85ca                	mv	a1,s2
   16782:	00007097          	auipc	ra,0x7
   16786:	ff4080e7          	jalr	-12(ra) # 1d776 <memcpy>
   1678a:	4509                	li	a0,2
   1678c:	00098023          	sb	zero,0(s3)
   16790:	f6a499e3          	bne	s1,a0,16702 <_ZN20complex_dynamic_type3app17h9bbb90f84c8e90fdE+0xdc>
   16794:	b741                	j	16714 <_ZN20complex_dynamic_type3app17h9bbb90f84c8e90fdE+0xee>

00016796 <_ZN20complex_dynamic_type3app17ha06119d262f4dc4fE>:
   16796:	7175                	addi	sp,sp,-144
   16798:	c706                	sw	ra,140(sp)
   1679a:	c522                	sw	s0,136(sp)
   1679c:	c326                	sw	s1,132(sp)
   1679e:	c14a                	sw	s2,128(sp)
   167a0:	dece                	sw	s3,124(sp)
   167a2:	89aa                	mv	s3,a0
   167a4:	4409                	li	s0,2
   167a6:	00810723          	sb	s0,14(sp)
   167aa:	00f10493          	addi	s1,sp,15
   167ae:	04900613          	li	a2,73
   167b2:	8526                	mv	a0,s1
   167b4:	00007097          	auipc	ra,0x7
   167b8:	fc2080e7          	jalr	-62(ra) # 1d776 <memcpy>
   167bc:	05910913          	addi	s2,sp,89
   167c0:	02300613          	li	a2,35
   167c4:	854a                	mv	a0,s2
   167c6:	4581                	li	a1,0
   167c8:	00007097          	auipc	ra,0x7
   167cc:	f42080e7          	jalr	-190(ra) # 1d70a <memset>
   167d0:	8626                	mv	a2,s1
   167d2:	04810c23          	sb	s0,88(sp)
   167d6:	6505                	lui	a0,0x1
   167d8:	4491                	li	s1,4
   167da:	459d                	li	a1,7
   167dc:	55150793          	addi	a5,a0,1361 # 1551 <.Lline_table_start1+0x1326>
   167e0:	04900693          	li	a3,73
   167e4:	4711                	li	a4,4
   167e6:	853e                	mv	a0,a5
   167e8:	00000073          	ecall
   167ec:	00851863          	bne	a0,s0,167fc <_ZN20complex_dynamic_type3app17ha06119d262f4dc4fE+0x66>
   167f0:	4505                	li	a0,1
   167f2:	00a98023          	sb	a0,0(s3)
   167f6:	00b9a223          	sw	a1,4(s3)
   167fa:	a0bd                	j	16868 <_ZN20complex_dynamic_type3app17ha06119d262f4dc4fE+0xd2>
   167fc:	853e                	mv	a0,a5
   167fe:	864a                	mv	a2,s2
   16800:	00910723          	sb	s1,14(sp)
   16804:	4785                	li	a5,1
   16806:	448d                	li	s1,3
   16808:	4585                	li	a1,1
   1680a:	02300693          	li	a3,35
   1680e:	470d                	li	a4,3
   16810:	00000073          	ecall
   16814:	00851c63          	bne	a0,s0,1682c <_ZN20complex_dynamic_type3app17ha06119d262f4dc4fE+0x96>
   16818:	05814703          	lbu	a4,88(sp)
   1681c:	4509                	li	a0,2
   1681e:	00f98023          	sb	a5,0(s3)
   16822:	00b9a223          	sw	a1,4(s3)
   16826:	02a71963          	bne	a4,a0,16858 <_ZN20complex_dynamic_type3app17ha06119d262f4dc4fE+0xc2>
   1682a:	a83d                	j	16868 <_ZN20complex_dynamic_type3app17ha06119d262f4dc4fE+0xd2>
   1682c:	4681                	li	a3,0
   1682e:	04910c23          	sb	s1,88(sp)
   16832:	6505                	lui	a0,0x1
   16834:	4785                	li	a5,1
   16836:	459d                	li	a1,7
   16838:	4605                	li	a2,1
   1683a:	4709                	li	a4,2
   1683c:	55150513          	addi	a0,a0,1361 # 1551 <.Lline_table_start1+0x1326>
   16840:	07f00493          	li	s1,127
   16844:	00000073          	ecall
   16848:	4609                	li	a2,2
   1684a:	04a4e463          	bltu	s1,a0,16892 <_ZN20complex_dynamic_type3app17ha06119d262f4dc4fE+0xfc>
   1684e:	00f98023          	sb	a5,0(s3)
   16852:	00b9a223          	sw	a1,4(s3)
   16856:	470d                	li	a4,3
   16858:	6505                	lui	a0,0x1
   1685a:	55150513          	addi	a0,a0,1361 # 1551 <.Lline_table_start1+0x1326>
   1685e:	4585                	li	a1,1
   16860:	4601                	li	a2,0
   16862:	4681                	li	a3,0
   16864:	00000073          	ecall
   16868:	00e14483          	lbu	s1,14(sp)
   1686c:	4509                	li	a0,2
   1686e:	00a48b63          	beq	s1,a0,16884 <_ZN20complex_dynamic_type3app17ha06119d262f4dc4fE+0xee>
   16872:	6505                	lui	a0,0x1
   16874:	55150513          	addi	a0,a0,1361 # 1551 <.Lline_table_start1+0x1326>
   16878:	459d                	li	a1,7
   1687a:	4601                	li	a2,0
   1687c:	4681                	li	a3,0
   1687e:	8726                	mv	a4,s1
   16880:	00000073          	ecall
   16884:	40ba                	lw	ra,140(sp)
   16886:	442a                	lw	s0,136(sp)
   16888:	449a                	lw	s1,132(sp)
   1688a:	490a                	lw	s2,128(sp)
   1688c:	59f6                	lw	s3,124(sp)
   1688e:	6149                	addi	sp,sp,144
   16890:	8082                	ret
   16892:	00e14703          	lbu	a4,14(sp)
   16896:	00c71463          	bne	a4,a2,1689e <_ZN20complex_dynamic_type3app17ha06119d262f4dc4fE+0x108>
   1689a:	470d                	li	a4,3
   1689c:	a825                	j	168d4 <_ZN20complex_dynamic_type3app17ha06119d262f4dc4fE+0x13e>
   1689e:	6505                	lui	a0,0x1
   168a0:	55150513          	addi	a0,a0,1361 # 1551 <.Lline_table_start1+0x1326>
   168a4:	459d                	li	a1,7
   168a6:	4601                	li	a2,0
   168a8:	4681                	li	a3,0
   168aa:	00000073          	ecall
   168ae:	05814703          	lbu	a4,88(sp)
   168b2:	4509                	li	a0,2
   168b4:	00a10723          	sb	a0,14(sp)
   168b8:	00a71e63          	bne	a4,a0,168d4 <_ZN20complex_dynamic_type3app17ha06119d262f4dc4fE+0x13e>
   168bc:	00198513          	addi	a0,s3,1
   168c0:	02300613          	li	a2,35
   168c4:	85ca                	mv	a1,s2
   168c6:	00007097          	auipc	ra,0x7
   168ca:	eb0080e7          	jalr	-336(ra) # 1d776 <memcpy>
   168ce:	00098023          	sb	zero,0(s3)
   168d2:	bf4d                	j	16884 <_ZN20complex_dynamic_type3app17ha06119d262f4dc4fE+0xee>
   168d4:	6505                	lui	a0,0x1
   168d6:	55150513          	addi	a0,a0,1361 # 1551 <.Lline_table_start1+0x1326>
   168da:	4585                	li	a1,1
   168dc:	4601                	li	a2,0
   168de:	4681                	li	a3,0
   168e0:	00000073          	ecall
   168e4:	00e14483          	lbu	s1,14(sp)
   168e8:	00198513          	addi	a0,s3,1
   168ec:	02300613          	li	a2,35
   168f0:	85ca                	mv	a1,s2
   168f2:	00007097          	auipc	ra,0x7
   168f6:	e84080e7          	jalr	-380(ra) # 1d776 <memcpy>
   168fa:	4509                	li	a0,2
   168fc:	00098023          	sb	zero,0(s3)
   16900:	f6a499e3          	bne	s1,a0,16872 <_ZN20complex_dynamic_type3app17ha06119d262f4dc4fE+0xdc>
   16904:	b741                	j	16884 <_ZN20complex_dynamic_type3app17ha06119d262f4dc4fE+0xee>

00016906 <_ZN20complex_dynamic_type3app17ha87f79b0848beb6eE>:
   16906:	7119                	addi	sp,sp,-128
   16908:	de86                	sw	ra,124(sp)
   1690a:	dca2                	sw	s0,120(sp)
   1690c:	daa6                	sw	s1,116(sp)
   1690e:	d8ca                	sw	s2,112(sp)
   16910:	d6ce                	sw	s3,108(sp)
   16912:	89aa                	mv	s3,a0
   16914:	4409                	li	s0,2
   16916:	00810323          	sb	s0,6(sp)
   1691a:	00710493          	addi	s1,sp,7
   1691e:	03200613          	li	a2,50
   16922:	8526                	mv	a0,s1
   16924:	00007097          	auipc	ra,0x7
   16928:	e52080e7          	jalr	-430(ra) # 1d776 <memcpy>
   1692c:	03a10913          	addi	s2,sp,58
   16930:	03200613          	li	a2,50
   16934:	854a                	mv	a0,s2
   16936:	4581                	li	a1,0
   16938:	00007097          	auipc	ra,0x7
   1693c:	dd2080e7          	jalr	-558(ra) # 1d70a <memset>
   16940:	8626                	mv	a2,s1
   16942:	02810ca3          	sb	s0,57(sp)
   16946:	6509                	lui	a0,0x2
   16948:	4491                	li	s1,4
   1694a:	458d                	li	a1,3
   1694c:	f0750793          	addi	a5,a0,-249 # 1f07 <.Lline_table_start1+0x1cdc>
   16950:	03200693          	li	a3,50
   16954:	4711                	li	a4,4
   16956:	853e                	mv	a0,a5
   16958:	00000073          	ecall
   1695c:	00851863          	bne	a0,s0,1696c <_ZN20complex_dynamic_type3app17ha87f79b0848beb6eE+0x66>
   16960:	4505                	li	a0,1
   16962:	00a98023          	sb	a0,0(s3)
   16966:	00b9a223          	sw	a1,4(s3)
   1696a:	a0bd                	j	169d8 <_ZN20complex_dynamic_type3app17ha87f79b0848beb6eE+0xd2>
   1696c:	853e                	mv	a0,a5
   1696e:	864a                	mv	a2,s2
   16970:	00910323          	sb	s1,6(sp)
   16974:	4785                	li	a5,1
   16976:	448d                	li	s1,3
   16978:	4585                	li	a1,1
   1697a:	03200693          	li	a3,50
   1697e:	470d                	li	a4,3
   16980:	00000073          	ecall
   16984:	00851c63          	bne	a0,s0,1699c <_ZN20complex_dynamic_type3app17ha87f79b0848beb6eE+0x96>
   16988:	03914703          	lbu	a4,57(sp)
   1698c:	4509                	li	a0,2
   1698e:	00f98023          	sb	a5,0(s3)
   16992:	00b9a223          	sw	a1,4(s3)
   16996:	02a71963          	bne	a4,a0,169c8 <_ZN20complex_dynamic_type3app17ha87f79b0848beb6eE+0xc2>
   1699a:	a83d                	j	169d8 <_ZN20complex_dynamic_type3app17ha87f79b0848beb6eE+0xd2>
   1699c:	4681                	li	a3,0
   1699e:	02910ca3          	sb	s1,57(sp)
   169a2:	6509                	lui	a0,0x2
   169a4:	4785                	li	a5,1
   169a6:	458d                	li	a1,3
   169a8:	4605                	li	a2,1
   169aa:	4709                	li	a4,2
   169ac:	f0750513          	addi	a0,a0,-249 # 1f07 <.Lline_table_start1+0x1cdc>
   169b0:	07f00493          	li	s1,127
   169b4:	00000073          	ecall
   169b8:	4609                	li	a2,2
   169ba:	04a4e463          	bltu	s1,a0,16a02 <_ZN20complex_dynamic_type3app17ha87f79b0848beb6eE+0xfc>
   169be:	00f98023          	sb	a5,0(s3)
   169c2:	00b9a223          	sw	a1,4(s3)
   169c6:	470d                	li	a4,3
   169c8:	6509                	lui	a0,0x2
   169ca:	f0750513          	addi	a0,a0,-249 # 1f07 <.Lline_table_start1+0x1cdc>
   169ce:	4585                	li	a1,1
   169d0:	4601                	li	a2,0
   169d2:	4681                	li	a3,0
   169d4:	00000073          	ecall
   169d8:	00614483          	lbu	s1,6(sp)
   169dc:	4509                	li	a0,2
   169de:	00a48b63          	beq	s1,a0,169f4 <_ZN20complex_dynamic_type3app17ha87f79b0848beb6eE+0xee>
   169e2:	6509                	lui	a0,0x2
   169e4:	f0750513          	addi	a0,a0,-249 # 1f07 <.Lline_table_start1+0x1cdc>
   169e8:	458d                	li	a1,3
   169ea:	4601                	li	a2,0
   169ec:	4681                	li	a3,0
   169ee:	8726                	mv	a4,s1
   169f0:	00000073          	ecall
   169f4:	50f6                	lw	ra,124(sp)
   169f6:	5466                	lw	s0,120(sp)
   169f8:	54d6                	lw	s1,116(sp)
   169fa:	5946                	lw	s2,112(sp)
   169fc:	59b6                	lw	s3,108(sp)
   169fe:	6109                	addi	sp,sp,128
   16a00:	8082                	ret
   16a02:	00614703          	lbu	a4,6(sp)
   16a06:	00c71463          	bne	a4,a2,16a0e <_ZN20complex_dynamic_type3app17ha87f79b0848beb6eE+0x108>
   16a0a:	470d                	li	a4,3
   16a0c:	a825                	j	16a44 <_ZN20complex_dynamic_type3app17ha87f79b0848beb6eE+0x13e>
   16a0e:	6509                	lui	a0,0x2
   16a10:	f0750513          	addi	a0,a0,-249 # 1f07 <.Lline_table_start1+0x1cdc>
   16a14:	458d                	li	a1,3
   16a16:	4601                	li	a2,0
   16a18:	4681                	li	a3,0
   16a1a:	00000073          	ecall
   16a1e:	03914703          	lbu	a4,57(sp)
   16a22:	4509                	li	a0,2
   16a24:	00a10323          	sb	a0,6(sp)
   16a28:	00a71e63          	bne	a4,a0,16a44 <_ZN20complex_dynamic_type3app17ha87f79b0848beb6eE+0x13e>
   16a2c:	00198513          	addi	a0,s3,1
   16a30:	03200613          	li	a2,50
   16a34:	85ca                	mv	a1,s2
   16a36:	00007097          	auipc	ra,0x7
   16a3a:	d40080e7          	jalr	-704(ra) # 1d776 <memcpy>
   16a3e:	00098023          	sb	zero,0(s3)
   16a42:	bf4d                	j	169f4 <_ZN20complex_dynamic_type3app17ha87f79b0848beb6eE+0xee>
   16a44:	6509                	lui	a0,0x2
   16a46:	f0750513          	addi	a0,a0,-249 # 1f07 <.Lline_table_start1+0x1cdc>
   16a4a:	4585                	li	a1,1
   16a4c:	4601                	li	a2,0
   16a4e:	4681                	li	a3,0
   16a50:	00000073          	ecall
   16a54:	00614483          	lbu	s1,6(sp)
   16a58:	00198513          	addi	a0,s3,1
   16a5c:	03200613          	li	a2,50
   16a60:	85ca                	mv	a1,s2
   16a62:	00007097          	auipc	ra,0x7
   16a66:	d14080e7          	jalr	-748(ra) # 1d776 <memcpy>
   16a6a:	4509                	li	a0,2
   16a6c:	00098023          	sb	zero,0(s3)
   16a70:	f6a499e3          	bne	s1,a0,169e2 <_ZN20complex_dynamic_type3app17ha87f79b0848beb6eE+0xdc>
   16a74:	b741                	j	169f4 <_ZN20complex_dynamic_type3app17ha87f79b0848beb6eE+0xee>

00016a76 <_ZN20complex_dynamic_type3app17hac0ee5b0737002eeE>:
   16a76:	7119                	addi	sp,sp,-128
   16a78:	de86                	sw	ra,124(sp)
   16a7a:	dca2                	sw	s0,120(sp)
   16a7c:	daa6                	sw	s1,116(sp)
   16a7e:	d8ca                	sw	s2,112(sp)
   16a80:	d6ce                	sw	s3,108(sp)
   16a82:	89aa                	mv	s3,a0
   16a84:	4409                	li	s0,2
   16a86:	00810223          	sb	s0,4(sp)
   16a8a:	00510493          	addi	s1,sp,5
   16a8e:	05500613          	li	a2,85
   16a92:	8526                	mv	a0,s1
   16a94:	00007097          	auipc	ra,0x7
   16a98:	ce2080e7          	jalr	-798(ra) # 1d776 <memcpy>
   16a9c:	05b10913          	addi	s2,sp,91
   16aa0:	4645                	li	a2,17
   16aa2:	854a                	mv	a0,s2
   16aa4:	4581                	li	a1,0
   16aa6:	00007097          	auipc	ra,0x7
   16aaa:	c64080e7          	jalr	-924(ra) # 1d70a <memset>
   16aae:	8626                	mv	a2,s1
   16ab0:	04810d23          	sb	s0,90(sp)
   16ab4:	6505                	lui	a0,0x1
   16ab6:	4491                	li	s1,4
   16ab8:	4589                	li	a1,2
   16aba:	c8950793          	addi	a5,a0,-887 # c89 <.Lline_table_start1+0xa5e>
   16abe:	05500693          	li	a3,85
   16ac2:	4711                	li	a4,4
   16ac4:	853e                	mv	a0,a5
   16ac6:	00000073          	ecall
   16aca:	00851863          	bne	a0,s0,16ada <_ZN20complex_dynamic_type3app17hac0ee5b0737002eeE+0x64>
   16ace:	4505                	li	a0,1
   16ad0:	00a98023          	sb	a0,0(s3)
   16ad4:	00b9a223          	sw	a1,4(s3)
   16ad8:	a0b5                	j	16b44 <_ZN20complex_dynamic_type3app17hac0ee5b0737002eeE+0xce>
   16ada:	853e                	mv	a0,a5
   16adc:	864a                	mv	a2,s2
   16ade:	00910223          	sb	s1,4(sp)
   16ae2:	478d                	li	a5,3
   16ae4:	4589                	li	a1,2
   16ae6:	46c5                	li	a3,17
   16ae8:	470d                	li	a4,3
   16aea:	00000073          	ecall
   16aee:	00851d63          	bne	a0,s0,16b08 <_ZN20complex_dynamic_type3app17hac0ee5b0737002eeE+0x92>
   16af2:	05a14703          	lbu	a4,90(sp)
   16af6:	4505                	li	a0,1
   16af8:	4609                	li	a2,2
   16afa:	00a98023          	sb	a0,0(s3)
   16afe:	00b9a223          	sw	a1,4(s3)
   16b02:	02c71963          	bne	a4,a2,16b34 <_ZN20complex_dynamic_type3app17hac0ee5b0737002eeE+0xbe>
   16b06:	a83d                	j	16b44 <_ZN20complex_dynamic_type3app17hac0ee5b0737002eeE+0xce>
   16b08:	4681                	li	a3,0
   16b0a:	04f10d23          	sb	a5,90(sp)
   16b0e:	6505                	lui	a0,0x1
   16b10:	4589                	li	a1,2
   16b12:	4609                	li	a2,2
   16b14:	4709                	li	a4,2
   16b16:	c8950513          	addi	a0,a0,-887 # c89 <.Lline_table_start1+0xa5e>
   16b1a:	07f00793          	li	a5,127
   16b1e:	00000073          	ecall
   16b22:	4609                	li	a2,2
   16b24:	04a7e563          	bltu	a5,a0,16b6e <_ZN20complex_dynamic_type3app17hac0ee5b0737002eeE+0xf8>
   16b28:	4505                	li	a0,1
   16b2a:	00a98023          	sb	a0,0(s3)
   16b2e:	00b9a223          	sw	a1,4(s3)
   16b32:	470d                	li	a4,3
   16b34:	6505                	lui	a0,0x1
   16b36:	c8950513          	addi	a0,a0,-887 # c89 <.Lline_table_start1+0xa5e>
   16b3a:	4589                	li	a1,2
   16b3c:	4601                	li	a2,0
   16b3e:	4681                	li	a3,0
   16b40:	00000073          	ecall
   16b44:	00414483          	lbu	s1,4(sp)
   16b48:	4509                	li	a0,2
   16b4a:	00a48b63          	beq	s1,a0,16b60 <_ZN20complex_dynamic_type3app17hac0ee5b0737002eeE+0xea>
   16b4e:	6505                	lui	a0,0x1
   16b50:	c8950513          	addi	a0,a0,-887 # c89 <.Lline_table_start1+0xa5e>
   16b54:	4589                	li	a1,2
   16b56:	4601                	li	a2,0
   16b58:	4681                	li	a3,0
   16b5a:	8726                	mv	a4,s1
   16b5c:	00000073          	ecall
   16b60:	50f6                	lw	ra,124(sp)
   16b62:	5466                	lw	s0,120(sp)
   16b64:	54d6                	lw	s1,116(sp)
   16b66:	5946                	lw	s2,112(sp)
   16b68:	59b6                	lw	s3,108(sp)
   16b6a:	6109                	addi	sp,sp,128
   16b6c:	8082                	ret
   16b6e:	00414703          	lbu	a4,4(sp)
   16b72:	00c71463          	bne	a4,a2,16b7a <_ZN20complex_dynamic_type3app17hac0ee5b0737002eeE+0x104>
   16b76:	470d                	li	a4,3
   16b78:	a81d                	j	16bae <_ZN20complex_dynamic_type3app17hac0ee5b0737002eeE+0x138>
   16b7a:	6505                	lui	a0,0x1
   16b7c:	c8950513          	addi	a0,a0,-887 # c89 <.Lline_table_start1+0xa5e>
   16b80:	4589                	li	a1,2
   16b82:	4601                	li	a2,0
   16b84:	4681                	li	a3,0
   16b86:	00000073          	ecall
   16b8a:	05a14703          	lbu	a4,90(sp)
   16b8e:	4509                	li	a0,2
   16b90:	00a10223          	sb	a0,4(sp)
   16b94:	00a71d63          	bne	a4,a0,16bae <_ZN20complex_dynamic_type3app17hac0ee5b0737002eeE+0x138>
   16b98:	00198513          	addi	a0,s3,1
   16b9c:	4645                	li	a2,17
   16b9e:	85ca                	mv	a1,s2
   16ba0:	00007097          	auipc	ra,0x7
   16ba4:	bd6080e7          	jalr	-1066(ra) # 1d776 <memcpy>
   16ba8:	00098023          	sb	zero,0(s3)
   16bac:	bf55                	j	16b60 <_ZN20complex_dynamic_type3app17hac0ee5b0737002eeE+0xea>
   16bae:	4601                	li	a2,0
   16bb0:	4681                	li	a3,0
   16bb2:	6505                	lui	a0,0x1
   16bb4:	c8950513          	addi	a0,a0,-887 # c89 <.Lline_table_start1+0xa5e>
   16bb8:	4589                	li	a1,2
   16bba:	00000073          	ecall
   16bbe:	00414483          	lbu	s1,4(sp)
   16bc2:	4409                	li	s0,2
   16bc4:	00198513          	addi	a0,s3,1
   16bc8:	4645                	li	a2,17
   16bca:	85ca                	mv	a1,s2
   16bcc:	00007097          	auipc	ra,0x7
   16bd0:	baa080e7          	jalr	-1110(ra) # 1d776 <memcpy>
   16bd4:	00098023          	sb	zero,0(s3)
   16bd8:	f6849be3          	bne	s1,s0,16b4e <_ZN20complex_dynamic_type3app17hac0ee5b0737002eeE+0xd8>
   16bdc:	b751                	j	16b60 <_ZN20complex_dynamic_type3app17hac0ee5b0737002eeE+0xea>

00016bde <_ZN20complex_dynamic_type3app17hb0b1ce9b4aeff773E>:
   16bde:	7131                	addi	sp,sp,-192
   16be0:	df06                	sw	ra,188(sp)
   16be2:	dd22                	sw	s0,184(sp)
   16be4:	db26                	sw	s1,180(sp)
   16be6:	d94a                	sw	s2,176(sp)
   16be8:	d74e                	sw	s3,172(sp)
   16bea:	89aa                	mv	s3,a0
   16bec:	4409                	li	s0,2
   16bee:	00810723          	sb	s0,14(sp)
   16bf2:	00f10493          	addi	s1,sp,15
   16bf6:	04600613          	li	a2,70
   16bfa:	8526                	mv	a0,s1
   16bfc:	00007097          	auipc	ra,0x7
   16c00:	b7a080e7          	jalr	-1158(ra) # 1d776 <memcpy>
   16c04:	05610913          	addi	s2,sp,86
   16c08:	05600613          	li	a2,86
   16c0c:	854a                	mv	a0,s2
   16c0e:	4581                	li	a1,0
   16c10:	00007097          	auipc	ra,0x7
   16c14:	afa080e7          	jalr	-1286(ra) # 1d70a <memset>
   16c18:	8626                	mv	a2,s1
   16c1a:	04810aa3          	sb	s0,85(sp)
   16c1e:	6509                	lui	a0,0x2
   16c20:	4491                	li	s1,4
   16c22:	459d                	li	a1,7
   16c24:	e5050793          	addi	a5,a0,-432 # 1e50 <.Lline_table_start1+0x1c25>
   16c28:	04600693          	li	a3,70
   16c2c:	4711                	li	a4,4
   16c2e:	853e                	mv	a0,a5
   16c30:	00000073          	ecall
   16c34:	00851863          	bne	a0,s0,16c44 <_ZN20complex_dynamic_type3app17hb0b1ce9b4aeff773E+0x66>
   16c38:	4505                	li	a0,1
   16c3a:	00a98023          	sb	a0,0(s3)
   16c3e:	00b9a223          	sw	a1,4(s3)
   16c42:	a0bd                	j	16cb0 <_ZN20complex_dynamic_type3app17hb0b1ce9b4aeff773E+0xd2>
   16c44:	853e                	mv	a0,a5
   16c46:	864a                	mv	a2,s2
   16c48:	00910723          	sb	s1,14(sp)
   16c4c:	478d                	li	a5,3
   16c4e:	458d                	li	a1,3
   16c50:	05600693          	li	a3,86
   16c54:	470d                	li	a4,3
   16c56:	00000073          	ecall
   16c5a:	00851d63          	bne	a0,s0,16c74 <_ZN20complex_dynamic_type3app17hb0b1ce9b4aeff773E+0x96>
   16c5e:	05514703          	lbu	a4,85(sp)
   16c62:	4505                	li	a0,1
   16c64:	4609                	li	a2,2
   16c66:	00a98023          	sb	a0,0(s3)
   16c6a:	00b9a223          	sw	a1,4(s3)
   16c6e:	02c71963          	bne	a4,a2,16ca0 <_ZN20complex_dynamic_type3app17hb0b1ce9b4aeff773E+0xc2>
   16c72:	a83d                	j	16cb0 <_ZN20complex_dynamic_type3app17hb0b1ce9b4aeff773E+0xd2>
   16c74:	4681                	li	a3,0
   16c76:	04f10aa3          	sb	a5,85(sp)
   16c7a:	6509                	lui	a0,0x2
   16c7c:	459d                	li	a1,7
   16c7e:	460d                	li	a2,3
   16c80:	4709                	li	a4,2
   16c82:	e5050513          	addi	a0,a0,-432 # 1e50 <.Lline_table_start1+0x1c25>
   16c86:	07f00793          	li	a5,127
   16c8a:	00000073          	ecall
   16c8e:	4609                	li	a2,2
   16c90:	04a7e563          	bltu	a5,a0,16cda <_ZN20complex_dynamic_type3app17hb0b1ce9b4aeff773E+0xfc>
   16c94:	4505                	li	a0,1
   16c96:	00a98023          	sb	a0,0(s3)
   16c9a:	00b9a223          	sw	a1,4(s3)
   16c9e:	470d                	li	a4,3
   16ca0:	6509                	lui	a0,0x2
   16ca2:	e5050513          	addi	a0,a0,-432 # 1e50 <.Lline_table_start1+0x1c25>
   16ca6:	458d                	li	a1,3
   16ca8:	4601                	li	a2,0
   16caa:	4681                	li	a3,0
   16cac:	00000073          	ecall
   16cb0:	00e14483          	lbu	s1,14(sp)
   16cb4:	4509                	li	a0,2
   16cb6:	00a48b63          	beq	s1,a0,16ccc <_ZN20complex_dynamic_type3app17hb0b1ce9b4aeff773E+0xee>
   16cba:	6509                	lui	a0,0x2
   16cbc:	e5050513          	addi	a0,a0,-432 # 1e50 <.Lline_table_start1+0x1c25>
   16cc0:	459d                	li	a1,7
   16cc2:	4601                	li	a2,0
   16cc4:	4681                	li	a3,0
   16cc6:	8726                	mv	a4,s1
   16cc8:	00000073          	ecall
   16ccc:	50fa                	lw	ra,188(sp)
   16cce:	546a                	lw	s0,184(sp)
   16cd0:	54da                	lw	s1,180(sp)
   16cd2:	594a                	lw	s2,176(sp)
   16cd4:	59ba                	lw	s3,172(sp)
   16cd6:	6129                	addi	sp,sp,192
   16cd8:	8082                	ret
   16cda:	00e14703          	lbu	a4,14(sp)
   16cde:	00c71463          	bne	a4,a2,16ce6 <_ZN20complex_dynamic_type3app17hb0b1ce9b4aeff773E+0x108>
   16ce2:	470d                	li	a4,3
   16ce4:	a825                	j	16d1c <_ZN20complex_dynamic_type3app17hb0b1ce9b4aeff773E+0x13e>
   16ce6:	6509                	lui	a0,0x2
   16ce8:	e5050513          	addi	a0,a0,-432 # 1e50 <.Lline_table_start1+0x1c25>
   16cec:	459d                	li	a1,7
   16cee:	4601                	li	a2,0
   16cf0:	4681                	li	a3,0
   16cf2:	00000073          	ecall
   16cf6:	05514703          	lbu	a4,85(sp)
   16cfa:	4509                	li	a0,2
   16cfc:	00a10723          	sb	a0,14(sp)
   16d00:	00a71e63          	bne	a4,a0,16d1c <_ZN20complex_dynamic_type3app17hb0b1ce9b4aeff773E+0x13e>
   16d04:	00198513          	addi	a0,s3,1
   16d08:	05600613          	li	a2,86
   16d0c:	85ca                	mv	a1,s2
   16d0e:	00007097          	auipc	ra,0x7
   16d12:	a68080e7          	jalr	-1432(ra) # 1d776 <memcpy>
   16d16:	00098023          	sb	zero,0(s3)
   16d1a:	bf4d                	j	16ccc <_ZN20complex_dynamic_type3app17hb0b1ce9b4aeff773E+0xee>
   16d1c:	6509                	lui	a0,0x2
   16d1e:	e5050513          	addi	a0,a0,-432 # 1e50 <.Lline_table_start1+0x1c25>
   16d22:	458d                	li	a1,3
   16d24:	4601                	li	a2,0
   16d26:	4681                	li	a3,0
   16d28:	00000073          	ecall
   16d2c:	00e14483          	lbu	s1,14(sp)
   16d30:	00198513          	addi	a0,s3,1
   16d34:	05600613          	li	a2,86
   16d38:	85ca                	mv	a1,s2
   16d3a:	00007097          	auipc	ra,0x7
   16d3e:	a3c080e7          	jalr	-1476(ra) # 1d776 <memcpy>
   16d42:	4509                	li	a0,2
   16d44:	00098023          	sb	zero,0(s3)
   16d48:	f6a499e3          	bne	s1,a0,16cba <_ZN20complex_dynamic_type3app17hb0b1ce9b4aeff773E+0xdc>
   16d4c:	b741                	j	16ccc <_ZN20complex_dynamic_type3app17hb0b1ce9b4aeff773E+0xee>

00016d4e <_ZN20complex_dynamic_type3app17hb0e909801105ef9eE>:
   16d4e:	711d                	addi	sp,sp,-96
   16d50:	ce86                	sw	ra,92(sp)
   16d52:	cca2                	sw	s0,88(sp)
   16d54:	caa6                	sw	s1,84(sp)
   16d56:	c8ca                	sw	s2,80(sp)
   16d58:	c6ce                	sw	s3,76(sp)
   16d5a:	89aa                	mv	s3,a0
   16d5c:	4409                	li	s0,2
   16d5e:	008105a3          	sb	s0,11(sp)
   16d62:	0064                	addi	s1,sp,12
   16d64:	4651                	li	a2,20
   16d66:	8526                	mv	a0,s1
   16d68:	00007097          	auipc	ra,0x7
   16d6c:	a0e080e7          	jalr	-1522(ra) # 1d776 <memcpy>
   16d70:	02110913          	addi	s2,sp,33
   16d74:	02b00613          	li	a2,43
   16d78:	854a                	mv	a0,s2
   16d7a:	4581                	li	a1,0
   16d7c:	00007097          	auipc	ra,0x7
   16d80:	98e080e7          	jalr	-1650(ra) # 1d70a <memset>
   16d84:	8626                	mv	a2,s1
   16d86:	02810023          	sb	s0,32(sp)
   16d8a:	6509                	lui	a0,0x2
   16d8c:	4491                	li	s1,4
   16d8e:	45a1                	li	a1,8
   16d90:	39f50793          	addi	a5,a0,927 # 239f <.Lline_table_start1+0x2174>
   16d94:	46d1                	li	a3,20
   16d96:	4711                	li	a4,4
   16d98:	853e                	mv	a0,a5
   16d9a:	00000073          	ecall
   16d9e:	00851863          	bne	a0,s0,16dae <_ZN20complex_dynamic_type3app17hb0e909801105ef9eE+0x60>
   16da2:	4505                	li	a0,1
   16da4:	00a98023          	sb	a0,0(s3)
   16da8:	00b9a223          	sw	a1,4(s3)
   16dac:	a0bd                	j	16e1a <_ZN20complex_dynamic_type3app17hb0e909801105ef9eE+0xcc>
   16dae:	853e                	mv	a0,a5
   16db0:	864a                	mv	a2,s2
   16db2:	009105a3          	sb	s1,11(sp)
   16db6:	478d                	li	a5,3
   16db8:	4591                	li	a1,4
   16dba:	02b00693          	li	a3,43
   16dbe:	470d                	li	a4,3
   16dc0:	00000073          	ecall
   16dc4:	00851d63          	bne	a0,s0,16dde <_ZN20complex_dynamic_type3app17hb0e909801105ef9eE+0x90>
   16dc8:	02014703          	lbu	a4,32(sp)
   16dcc:	4505                	li	a0,1
   16dce:	4609                	li	a2,2
   16dd0:	00a98023          	sb	a0,0(s3)
   16dd4:	00b9a223          	sw	a1,4(s3)
   16dd8:	02c71963          	bne	a4,a2,16e0a <_ZN20complex_dynamic_type3app17hb0e909801105ef9eE+0xbc>
   16ddc:	a83d                	j	16e1a <_ZN20complex_dynamic_type3app17hb0e909801105ef9eE+0xcc>
   16dde:	4681                	li	a3,0
   16de0:	02f10023          	sb	a5,32(sp)
   16de4:	6509                	lui	a0,0x2
   16de6:	45a1                	li	a1,8
   16de8:	4611                	li	a2,4
   16dea:	4709                	li	a4,2
   16dec:	39f50513          	addi	a0,a0,927 # 239f <.Lline_table_start1+0x2174>
   16df0:	07f00793          	li	a5,127
   16df4:	00000073          	ecall
   16df8:	4609                	li	a2,2
   16dfa:	04a7e563          	bltu	a5,a0,16e44 <_ZN20complex_dynamic_type3app17hb0e909801105ef9eE+0xf6>
   16dfe:	4505                	li	a0,1
   16e00:	00a98023          	sb	a0,0(s3)
   16e04:	00b9a223          	sw	a1,4(s3)
   16e08:	470d                	li	a4,3
   16e0a:	6509                	lui	a0,0x2
   16e0c:	39f50513          	addi	a0,a0,927 # 239f <.Lline_table_start1+0x2174>
   16e10:	4591                	li	a1,4
   16e12:	4601                	li	a2,0
   16e14:	4681                	li	a3,0
   16e16:	00000073          	ecall
   16e1a:	00b14483          	lbu	s1,11(sp)
   16e1e:	4509                	li	a0,2
   16e20:	00a48b63          	beq	s1,a0,16e36 <_ZN20complex_dynamic_type3app17hb0e909801105ef9eE+0xe8>
   16e24:	6509                	lui	a0,0x2
   16e26:	39f50513          	addi	a0,a0,927 # 239f <.Lline_table_start1+0x2174>
   16e2a:	45a1                	li	a1,8
   16e2c:	4601                	li	a2,0
   16e2e:	4681                	li	a3,0
   16e30:	8726                	mv	a4,s1
   16e32:	00000073          	ecall
   16e36:	40f6                	lw	ra,92(sp)
   16e38:	4466                	lw	s0,88(sp)
   16e3a:	44d6                	lw	s1,84(sp)
   16e3c:	4946                	lw	s2,80(sp)
   16e3e:	49b6                	lw	s3,76(sp)
   16e40:	6125                	addi	sp,sp,96
   16e42:	8082                	ret
   16e44:	00b14703          	lbu	a4,11(sp)
   16e48:	00c71463          	bne	a4,a2,16e50 <_ZN20complex_dynamic_type3app17hb0e909801105ef9eE+0x102>
   16e4c:	470d                	li	a4,3
   16e4e:	a825                	j	16e86 <_ZN20complex_dynamic_type3app17hb0e909801105ef9eE+0x138>
   16e50:	6509                	lui	a0,0x2
   16e52:	39f50513          	addi	a0,a0,927 # 239f <.Lline_table_start1+0x2174>
   16e56:	45a1                	li	a1,8
   16e58:	4601                	li	a2,0
   16e5a:	4681                	li	a3,0
   16e5c:	00000073          	ecall
   16e60:	02014703          	lbu	a4,32(sp)
   16e64:	4509                	li	a0,2
   16e66:	00a105a3          	sb	a0,11(sp)
   16e6a:	00a71e63          	bne	a4,a0,16e86 <_ZN20complex_dynamic_type3app17hb0e909801105ef9eE+0x138>
   16e6e:	00198513          	addi	a0,s3,1
   16e72:	02b00613          	li	a2,43
   16e76:	85ca                	mv	a1,s2
   16e78:	00007097          	auipc	ra,0x7
   16e7c:	8fe080e7          	jalr	-1794(ra) # 1d776 <memcpy>
   16e80:	00098023          	sb	zero,0(s3)
   16e84:	bf4d                	j	16e36 <_ZN20complex_dynamic_type3app17hb0e909801105ef9eE+0xe8>
   16e86:	6509                	lui	a0,0x2
   16e88:	39f50513          	addi	a0,a0,927 # 239f <.Lline_table_start1+0x2174>
   16e8c:	4591                	li	a1,4
   16e8e:	4601                	li	a2,0
   16e90:	4681                	li	a3,0
   16e92:	00000073          	ecall
   16e96:	00b14483          	lbu	s1,11(sp)
   16e9a:	00198513          	addi	a0,s3,1
   16e9e:	02b00613          	li	a2,43
   16ea2:	85ca                	mv	a1,s2
   16ea4:	00007097          	auipc	ra,0x7
   16ea8:	8d2080e7          	jalr	-1838(ra) # 1d776 <memcpy>
   16eac:	4509                	li	a0,2
   16eae:	00098023          	sb	zero,0(s3)
   16eb2:	f6a499e3          	bne	s1,a0,16e24 <_ZN20complex_dynamic_type3app17hb0e909801105ef9eE+0xd6>
   16eb6:	b741                	j	16e36 <_ZN20complex_dynamic_type3app17hb0e909801105ef9eE+0xe8>

00016eb8 <_ZN20complex_dynamic_type3app17hb10d2707b3fb6a70E>:
   16eb8:	7175                	addi	sp,sp,-144
   16eba:	c706                	sw	ra,140(sp)
   16ebc:	c522                	sw	s0,136(sp)
   16ebe:	c326                	sw	s1,132(sp)
   16ec0:	c14a                	sw	s2,128(sp)
   16ec2:	dece                	sw	s3,124(sp)
   16ec4:	89aa                	mv	s3,a0
   16ec6:	4409                	li	s0,2
   16ec8:	008105a3          	sb	s0,11(sp)
   16ecc:	0064                	addi	s1,sp,12
   16ece:	4679                	li	a2,30
   16ed0:	8526                	mv	a0,s1
   16ed2:	00007097          	auipc	ra,0x7
   16ed6:	8a4080e7          	jalr	-1884(ra) # 1d776 <memcpy>
   16eda:	02b10913          	addi	s2,sp,43
   16ede:	05100613          	li	a2,81
   16ee2:	854a                	mv	a0,s2
   16ee4:	4581                	li	a1,0
   16ee6:	00007097          	auipc	ra,0x7
   16eea:	824080e7          	jalr	-2012(ra) # 1d70a <memset>
   16eee:	8626                	mv	a2,s1
   16ef0:	02810523          	sb	s0,42(sp)
   16ef4:	6509                	lui	a0,0x2
   16ef6:	4491                	li	s1,4
   16ef8:	4589                	li	a1,2
   16efa:	96b50793          	addi	a5,a0,-1685 # 196b <.Lline_table_start1+0x1740>
   16efe:	46f9                	li	a3,30
   16f00:	4711                	li	a4,4
   16f02:	853e                	mv	a0,a5
   16f04:	00000073          	ecall
   16f08:	00851863          	bne	a0,s0,16f18 <_ZN20complex_dynamic_type3app17hb10d2707b3fb6a70E+0x60>
   16f0c:	4505                	li	a0,1
   16f0e:	00a98023          	sb	a0,0(s3)
   16f12:	00b9a223          	sw	a1,4(s3)
   16f16:	a0bd                	j	16f84 <_ZN20complex_dynamic_type3app17hb10d2707b3fb6a70E+0xcc>
   16f18:	853e                	mv	a0,a5
   16f1a:	4581                	li	a1,0
   16f1c:	864a                	mv	a2,s2
   16f1e:	009105a3          	sb	s1,11(sp)
   16f22:	478d                	li	a5,3
   16f24:	05100693          	li	a3,81
   16f28:	470d                	li	a4,3
   16f2a:	00000073          	ecall
   16f2e:	00851d63          	bne	a0,s0,16f48 <_ZN20complex_dynamic_type3app17hb10d2707b3fb6a70E+0x90>
   16f32:	02a14703          	lbu	a4,42(sp)
   16f36:	4505                	li	a0,1
   16f38:	4609                	li	a2,2
   16f3a:	00a98023          	sb	a0,0(s3)
   16f3e:	00b9a223          	sw	a1,4(s3)
   16f42:	02c71963          	bne	a4,a2,16f74 <_ZN20complex_dynamic_type3app17hb10d2707b3fb6a70E+0xbc>
   16f46:	a83d                	j	16f84 <_ZN20complex_dynamic_type3app17hb10d2707b3fb6a70E+0xcc>
   16f48:	4601                	li	a2,0
   16f4a:	4681                	li	a3,0
   16f4c:	02f10523          	sb	a5,42(sp)
   16f50:	6509                	lui	a0,0x2
   16f52:	4589                	li	a1,2
   16f54:	4709                	li	a4,2
   16f56:	96b50513          	addi	a0,a0,-1685 # 196b <.Lline_table_start1+0x1740>
   16f5a:	07f00793          	li	a5,127
   16f5e:	00000073          	ecall
   16f62:	4609                	li	a2,2
   16f64:	04a7e563          	bltu	a5,a0,16fae <_ZN20complex_dynamic_type3app17hb10d2707b3fb6a70E+0xf6>
   16f68:	4505                	li	a0,1
   16f6a:	00a98023          	sb	a0,0(s3)
   16f6e:	00b9a223          	sw	a1,4(s3)
   16f72:	470d                	li	a4,3
   16f74:	6509                	lui	a0,0x2
   16f76:	96b50513          	addi	a0,a0,-1685 # 196b <.Lline_table_start1+0x1740>
   16f7a:	4581                	li	a1,0
   16f7c:	4601                	li	a2,0
   16f7e:	4681                	li	a3,0
   16f80:	00000073          	ecall
   16f84:	00b14483          	lbu	s1,11(sp)
   16f88:	4509                	li	a0,2
   16f8a:	00a48b63          	beq	s1,a0,16fa0 <_ZN20complex_dynamic_type3app17hb10d2707b3fb6a70E+0xe8>
   16f8e:	6509                	lui	a0,0x2
   16f90:	96b50513          	addi	a0,a0,-1685 # 196b <.Lline_table_start1+0x1740>
   16f94:	4589                	li	a1,2
   16f96:	4601                	li	a2,0
   16f98:	4681                	li	a3,0
   16f9a:	8726                	mv	a4,s1
   16f9c:	00000073          	ecall
   16fa0:	40ba                	lw	ra,140(sp)
   16fa2:	442a                	lw	s0,136(sp)
   16fa4:	449a                	lw	s1,132(sp)
   16fa6:	490a                	lw	s2,128(sp)
   16fa8:	59f6                	lw	s3,124(sp)
   16faa:	6149                	addi	sp,sp,144
   16fac:	8082                	ret
   16fae:	00b14703          	lbu	a4,11(sp)
   16fb2:	00c71463          	bne	a4,a2,16fba <_ZN20complex_dynamic_type3app17hb10d2707b3fb6a70E+0x102>
   16fb6:	470d                	li	a4,3
   16fb8:	a825                	j	16ff0 <_ZN20complex_dynamic_type3app17hb10d2707b3fb6a70E+0x138>
   16fba:	6509                	lui	a0,0x2
   16fbc:	96b50513          	addi	a0,a0,-1685 # 196b <.Lline_table_start1+0x1740>
   16fc0:	4589                	li	a1,2
   16fc2:	4601                	li	a2,0
   16fc4:	4681                	li	a3,0
   16fc6:	00000073          	ecall
   16fca:	02a14703          	lbu	a4,42(sp)
   16fce:	4509                	li	a0,2
   16fd0:	00a105a3          	sb	a0,11(sp)
   16fd4:	00a71e63          	bne	a4,a0,16ff0 <_ZN20complex_dynamic_type3app17hb10d2707b3fb6a70E+0x138>
   16fd8:	00198513          	addi	a0,s3,1
   16fdc:	05100613          	li	a2,81
   16fe0:	85ca                	mv	a1,s2
   16fe2:	00006097          	auipc	ra,0x6
   16fe6:	794080e7          	jalr	1940(ra) # 1d776 <memcpy>
   16fea:	00098023          	sb	zero,0(s3)
   16fee:	bf4d                	j	16fa0 <_ZN20complex_dynamic_type3app17hb10d2707b3fb6a70E+0xe8>
   16ff0:	6509                	lui	a0,0x2
   16ff2:	96b50513          	addi	a0,a0,-1685 # 196b <.Lline_table_start1+0x1740>
   16ff6:	4581                	li	a1,0
   16ff8:	4601                	li	a2,0
   16ffa:	4681                	li	a3,0
   16ffc:	00000073          	ecall
   17000:	00b14483          	lbu	s1,11(sp)
   17004:	00198513          	addi	a0,s3,1
   17008:	05100613          	li	a2,81
   1700c:	85ca                	mv	a1,s2
   1700e:	00006097          	auipc	ra,0x6
   17012:	768080e7          	jalr	1896(ra) # 1d776 <memcpy>
   17016:	4509                	li	a0,2
   17018:	00098023          	sb	zero,0(s3)
   1701c:	f6a499e3          	bne	s1,a0,16f8e <_ZN20complex_dynamic_type3app17hb10d2707b3fb6a70E+0xd6>
   17020:	b741                	j	16fa0 <_ZN20complex_dynamic_type3app17hb10d2707b3fb6a70E+0xe8>

00017022 <_ZN20complex_dynamic_type3app17hb632c4cabe1ded0bE>:
   17022:	711d                	addi	sp,sp,-96
   17024:	ce86                	sw	ra,92(sp)
   17026:	cca2                	sw	s0,88(sp)
   17028:	caa6                	sw	s1,84(sp)
   1702a:	c8ca                	sw	s2,80(sp)
   1702c:	c6ce                	sw	s3,76(sp)
   1702e:	89aa                	mv	s3,a0
   17030:	4409                	li	s0,2
   17032:	008107a3          	sb	s0,15(sp)
   17036:	0804                	addi	s1,sp,16
   17038:	02700613          	li	a2,39
   1703c:	8526                	mv	a0,s1
   1703e:	00006097          	auipc	ra,0x6
   17042:	738080e7          	jalr	1848(ra) # 1d776 <memcpy>
   17046:	03810913          	addi	s2,sp,56
   1704a:	4651                	li	a2,20
   1704c:	854a                	mv	a0,s2
   1704e:	4581                	li	a1,0
   17050:	00006097          	auipc	ra,0x6
   17054:	6ba080e7          	jalr	1722(ra) # 1d70a <memset>
   17058:	8626                	mv	a2,s1
   1705a:	02810ba3          	sb	s0,55(sp)
   1705e:	6509                	lui	a0,0x2
   17060:	4491                	li	s1,4
   17062:	4599                	li	a1,6
   17064:	2c950793          	addi	a5,a0,713 # 22c9 <.Lline_table_start1+0x209e>
   17068:	02700693          	li	a3,39
   1706c:	4711                	li	a4,4
   1706e:	853e                	mv	a0,a5
   17070:	00000073          	ecall
   17074:	00851863          	bne	a0,s0,17084 <_ZN20complex_dynamic_type3app17hb632c4cabe1ded0bE+0x62>
   17078:	4505                	li	a0,1
   1707a:	00a98023          	sb	a0,0(s3)
   1707e:	00b9a223          	sw	a1,4(s3)
   17082:	a0b5                	j	170ee <_ZN20complex_dynamic_type3app17hb632c4cabe1ded0bE+0xcc>
   17084:	853e                	mv	a0,a5
   17086:	864a                	mv	a2,s2
   17088:	009107a3          	sb	s1,15(sp)
   1708c:	478d                	li	a5,3
   1708e:	4595                	li	a1,5
   17090:	46d1                	li	a3,20
   17092:	470d                	li	a4,3
   17094:	00000073          	ecall
   17098:	00851d63          	bne	a0,s0,170b2 <_ZN20complex_dynamic_type3app17hb632c4cabe1ded0bE+0x90>
   1709c:	03714703          	lbu	a4,55(sp)
   170a0:	4505                	li	a0,1
   170a2:	4609                	li	a2,2
   170a4:	00a98023          	sb	a0,0(s3)
   170a8:	00b9a223          	sw	a1,4(s3)
   170ac:	02c71963          	bne	a4,a2,170de <_ZN20complex_dynamic_type3app17hb632c4cabe1ded0bE+0xbc>
   170b0:	a83d                	j	170ee <_ZN20complex_dynamic_type3app17hb632c4cabe1ded0bE+0xcc>
   170b2:	4681                	li	a3,0
   170b4:	02f10ba3          	sb	a5,55(sp)
   170b8:	6509                	lui	a0,0x2
   170ba:	4599                	li	a1,6
   170bc:	4615                	li	a2,5
   170be:	4709                	li	a4,2
   170c0:	2c950513          	addi	a0,a0,713 # 22c9 <.Lline_table_start1+0x209e>
   170c4:	07f00793          	li	a5,127
   170c8:	00000073          	ecall
   170cc:	4609                	li	a2,2
   170ce:	04a7e563          	bltu	a5,a0,17118 <_ZN20complex_dynamic_type3app17hb632c4cabe1ded0bE+0xf6>
   170d2:	4505                	li	a0,1
   170d4:	00a98023          	sb	a0,0(s3)
   170d8:	00b9a223          	sw	a1,4(s3)
   170dc:	470d                	li	a4,3
   170de:	6509                	lui	a0,0x2
   170e0:	2c950513          	addi	a0,a0,713 # 22c9 <.Lline_table_start1+0x209e>
   170e4:	4595                	li	a1,5
   170e6:	4601                	li	a2,0
   170e8:	4681                	li	a3,0
   170ea:	00000073          	ecall
   170ee:	00f14483          	lbu	s1,15(sp)
   170f2:	4509                	li	a0,2
   170f4:	00a48b63          	beq	s1,a0,1710a <_ZN20complex_dynamic_type3app17hb632c4cabe1ded0bE+0xe8>
   170f8:	6509                	lui	a0,0x2
   170fa:	2c950513          	addi	a0,a0,713 # 22c9 <.Lline_table_start1+0x209e>
   170fe:	4599                	li	a1,6
   17100:	4601                	li	a2,0
   17102:	4681                	li	a3,0
   17104:	8726                	mv	a4,s1
   17106:	00000073          	ecall
   1710a:	40f6                	lw	ra,92(sp)
   1710c:	4466                	lw	s0,88(sp)
   1710e:	44d6                	lw	s1,84(sp)
   17110:	4946                	lw	s2,80(sp)
   17112:	49b6                	lw	s3,76(sp)
   17114:	6125                	addi	sp,sp,96
   17116:	8082                	ret
   17118:	00f14703          	lbu	a4,15(sp)
   1711c:	00c71463          	bne	a4,a2,17124 <_ZN20complex_dynamic_type3app17hb632c4cabe1ded0bE+0x102>
   17120:	470d                	li	a4,3
   17122:	a81d                	j	17158 <_ZN20complex_dynamic_type3app17hb632c4cabe1ded0bE+0x136>
   17124:	6509                	lui	a0,0x2
   17126:	2c950513          	addi	a0,a0,713 # 22c9 <.Lline_table_start1+0x209e>
   1712a:	4599                	li	a1,6
   1712c:	4601                	li	a2,0
   1712e:	4681                	li	a3,0
   17130:	00000073          	ecall
   17134:	03714703          	lbu	a4,55(sp)
   17138:	4509                	li	a0,2
   1713a:	00a107a3          	sb	a0,15(sp)
   1713e:	00a71d63          	bne	a4,a0,17158 <_ZN20complex_dynamic_type3app17hb632c4cabe1ded0bE+0x136>
   17142:	00198513          	addi	a0,s3,1
   17146:	4651                	li	a2,20
   17148:	85ca                	mv	a1,s2
   1714a:	00006097          	auipc	ra,0x6
   1714e:	62c080e7          	jalr	1580(ra) # 1d776 <memcpy>
   17152:	00098023          	sb	zero,0(s3)
   17156:	bf55                	j	1710a <_ZN20complex_dynamic_type3app17hb632c4cabe1ded0bE+0xe8>
   17158:	6509                	lui	a0,0x2
   1715a:	2c950513          	addi	a0,a0,713 # 22c9 <.Lline_table_start1+0x209e>
   1715e:	4595                	li	a1,5
   17160:	4601                	li	a2,0
   17162:	4681                	li	a3,0
   17164:	00000073          	ecall
   17168:	00f14483          	lbu	s1,15(sp)
   1716c:	00198513          	addi	a0,s3,1
   17170:	4651                	li	a2,20
   17172:	85ca                	mv	a1,s2
   17174:	00006097          	auipc	ra,0x6
   17178:	602080e7          	jalr	1538(ra) # 1d776 <memcpy>
   1717c:	4509                	li	a0,2
   1717e:	00098023          	sb	zero,0(s3)
   17182:	f6a49be3          	bne	s1,a0,170f8 <_ZN20complex_dynamic_type3app17hb632c4cabe1ded0bE+0xd6>
   17186:	b751                	j	1710a <_ZN20complex_dynamic_type3app17hb632c4cabe1ded0bE+0xe8>

00017188 <_ZN20complex_dynamic_type3app17hb65e8503d4baa342E>:
   17188:	7119                	addi	sp,sp,-128
   1718a:	de86                	sw	ra,124(sp)
   1718c:	dca2                	sw	s0,120(sp)
   1718e:	daa6                	sw	s1,116(sp)
   17190:	d8ca                	sw	s2,112(sp)
   17192:	d6ce                	sw	s3,108(sp)
   17194:	89aa                	mv	s3,a0
   17196:	4409                	li	s0,2
   17198:	00810423          	sb	s0,8(sp)
   1719c:	00910493          	addi	s1,sp,9
   171a0:	03b00613          	li	a2,59
   171a4:	8526                	mv	a0,s1
   171a6:	00006097          	auipc	ra,0x6
   171aa:	5d0080e7          	jalr	1488(ra) # 1d776 <memcpy>
   171ae:	04510913          	addi	s2,sp,69
   171b2:	02700613          	li	a2,39
   171b6:	854a                	mv	a0,s2
   171b8:	4581                	li	a1,0
   171ba:	00006097          	auipc	ra,0x6
   171be:	550080e7          	jalr	1360(ra) # 1d70a <memset>
   171c2:	8626                	mv	a2,s1
   171c4:	04810223          	sb	s0,68(sp)
   171c8:	6505                	lui	a0,0x1
   171ca:	4491                	li	s1,4
   171cc:	4595                	li	a1,5
   171ce:	bd350793          	addi	a5,a0,-1069 # bd3 <.Lline_table_start1+0x9a8>
   171d2:	03b00693          	li	a3,59
   171d6:	4711                	li	a4,4
   171d8:	853e                	mv	a0,a5
   171da:	00000073          	ecall
   171de:	00851863          	bne	a0,s0,171ee <_ZN20complex_dynamic_type3app17hb65e8503d4baa342E+0x66>
   171e2:	4505                	li	a0,1
   171e4:	00a98023          	sb	a0,0(s3)
   171e8:	00b9a223          	sw	a1,4(s3)
   171ec:	a0bd                	j	1725a <_ZN20complex_dynamic_type3app17hb65e8503d4baa342E+0xd2>
   171ee:	853e                	mv	a0,a5
   171f0:	864a                	mv	a2,s2
   171f2:	00910423          	sb	s1,8(sp)
   171f6:	478d                	li	a5,3
   171f8:	458d                	li	a1,3
   171fa:	02700693          	li	a3,39
   171fe:	470d                	li	a4,3
   17200:	00000073          	ecall
   17204:	00851d63          	bne	a0,s0,1721e <_ZN20complex_dynamic_type3app17hb65e8503d4baa342E+0x96>
   17208:	04414703          	lbu	a4,68(sp)
   1720c:	4505                	li	a0,1
   1720e:	4609                	li	a2,2
   17210:	00a98023          	sb	a0,0(s3)
   17214:	00b9a223          	sw	a1,4(s3)
   17218:	02c71963          	bne	a4,a2,1724a <_ZN20complex_dynamic_type3app17hb65e8503d4baa342E+0xc2>
   1721c:	a83d                	j	1725a <_ZN20complex_dynamic_type3app17hb65e8503d4baa342E+0xd2>
   1721e:	4681                	li	a3,0
   17220:	04f10223          	sb	a5,68(sp)
   17224:	6505                	lui	a0,0x1
   17226:	4595                	li	a1,5
   17228:	460d                	li	a2,3
   1722a:	4709                	li	a4,2
   1722c:	bd350513          	addi	a0,a0,-1069 # bd3 <.Lline_table_start1+0x9a8>
   17230:	07f00793          	li	a5,127
   17234:	00000073          	ecall
   17238:	4609                	li	a2,2
   1723a:	04a7e563          	bltu	a5,a0,17284 <_ZN20complex_dynamic_type3app17hb65e8503d4baa342E+0xfc>
   1723e:	4505                	li	a0,1
   17240:	00a98023          	sb	a0,0(s3)
   17244:	00b9a223          	sw	a1,4(s3)
   17248:	470d                	li	a4,3
   1724a:	6505                	lui	a0,0x1
   1724c:	bd350513          	addi	a0,a0,-1069 # bd3 <.Lline_table_start1+0x9a8>
   17250:	458d                	li	a1,3
   17252:	4601                	li	a2,0
   17254:	4681                	li	a3,0
   17256:	00000073          	ecall
   1725a:	00814483          	lbu	s1,8(sp)
   1725e:	4509                	li	a0,2
   17260:	00a48b63          	beq	s1,a0,17276 <_ZN20complex_dynamic_type3app17hb65e8503d4baa342E+0xee>
   17264:	6505                	lui	a0,0x1
   17266:	bd350513          	addi	a0,a0,-1069 # bd3 <.Lline_table_start1+0x9a8>
   1726a:	4595                	li	a1,5
   1726c:	4601                	li	a2,0
   1726e:	4681                	li	a3,0
   17270:	8726                	mv	a4,s1
   17272:	00000073          	ecall
   17276:	50f6                	lw	ra,124(sp)
   17278:	5466                	lw	s0,120(sp)
   1727a:	54d6                	lw	s1,116(sp)
   1727c:	5946                	lw	s2,112(sp)
   1727e:	59b6                	lw	s3,108(sp)
   17280:	6109                	addi	sp,sp,128
   17282:	8082                	ret
   17284:	00814703          	lbu	a4,8(sp)
   17288:	00c71463          	bne	a4,a2,17290 <_ZN20complex_dynamic_type3app17hb65e8503d4baa342E+0x108>
   1728c:	470d                	li	a4,3
   1728e:	a825                	j	172c6 <_ZN20complex_dynamic_type3app17hb65e8503d4baa342E+0x13e>
   17290:	6505                	lui	a0,0x1
   17292:	bd350513          	addi	a0,a0,-1069 # bd3 <.Lline_table_start1+0x9a8>
   17296:	4595                	li	a1,5
   17298:	4601                	li	a2,0
   1729a:	4681                	li	a3,0
   1729c:	00000073          	ecall
   172a0:	04414703          	lbu	a4,68(sp)
   172a4:	4509                	li	a0,2
   172a6:	00a10423          	sb	a0,8(sp)
   172aa:	00a71e63          	bne	a4,a0,172c6 <_ZN20complex_dynamic_type3app17hb65e8503d4baa342E+0x13e>
   172ae:	00198513          	addi	a0,s3,1
   172b2:	02700613          	li	a2,39
   172b6:	85ca                	mv	a1,s2
   172b8:	00006097          	auipc	ra,0x6
   172bc:	4be080e7          	jalr	1214(ra) # 1d776 <memcpy>
   172c0:	00098023          	sb	zero,0(s3)
   172c4:	bf4d                	j	17276 <_ZN20complex_dynamic_type3app17hb65e8503d4baa342E+0xee>
   172c6:	6505                	lui	a0,0x1
   172c8:	bd350513          	addi	a0,a0,-1069 # bd3 <.Lline_table_start1+0x9a8>
   172cc:	458d                	li	a1,3
   172ce:	4601                	li	a2,0
   172d0:	4681                	li	a3,0
   172d2:	00000073          	ecall
   172d6:	00814483          	lbu	s1,8(sp)
   172da:	00198513          	addi	a0,s3,1
   172de:	02700613          	li	a2,39
   172e2:	85ca                	mv	a1,s2
   172e4:	00006097          	auipc	ra,0x6
   172e8:	492080e7          	jalr	1170(ra) # 1d776 <memcpy>
   172ec:	4509                	li	a0,2
   172ee:	00098023          	sb	zero,0(s3)
   172f2:	f6a499e3          	bne	s1,a0,17264 <_ZN20complex_dynamic_type3app17hb65e8503d4baa342E+0xdc>
   172f6:	b741                	j	17276 <_ZN20complex_dynamic_type3app17hb65e8503d4baa342E+0xee>

000172f8 <_ZN20complex_dynamic_type3app17hb8ad5643b8b45c35E>:
   172f8:	7171                	addi	sp,sp,-176
   172fa:	d706                	sw	ra,172(sp)
   172fc:	d522                	sw	s0,168(sp)
   172fe:	d326                	sw	s1,164(sp)
   17300:	d14a                	sw	s2,160(sp)
   17302:	cf4e                	sw	s3,156(sp)
   17304:	89aa                	mv	s3,a0
   17306:	4409                	li	s0,2
   17308:	00810723          	sb	s0,14(sp)
   1730c:	00f10493          	addi	s1,sp,15
   17310:	05000613          	li	a2,80
   17314:	8526                	mv	a0,s1
   17316:	00006097          	auipc	ra,0x6
   1731a:	460080e7          	jalr	1120(ra) # 1d776 <memcpy>
   1731e:	06010913          	addi	s2,sp,96
   17322:	03c00613          	li	a2,60
   17326:	854a                	mv	a0,s2
   17328:	4581                	li	a1,0
   1732a:	00006097          	auipc	ra,0x6
   1732e:	3e0080e7          	jalr	992(ra) # 1d70a <memset>
   17332:	8626                	mv	a2,s1
   17334:	04810fa3          	sb	s0,95(sp)
   17338:	6505                	lui	a0,0x1
   1733a:	4491                	li	s1,4
   1733c:	458d                	li	a1,3
   1733e:	d7a50793          	addi	a5,a0,-646 # d7a <.Lline_table_start1+0xb4f>
   17342:	05000693          	li	a3,80
   17346:	4711                	li	a4,4
   17348:	853e                	mv	a0,a5
   1734a:	00000073          	ecall
   1734e:	00851863          	bne	a0,s0,1735e <_ZN20complex_dynamic_type3app17hb8ad5643b8b45c35E+0x66>
   17352:	4505                	li	a0,1
   17354:	00a98023          	sb	a0,0(s3)
   17358:	00b9a223          	sw	a1,4(s3)
   1735c:	a0bd                	j	173ca <_ZN20complex_dynamic_type3app17hb8ad5643b8b45c35E+0xd2>
   1735e:	853e                	mv	a0,a5
   17360:	864a                	mv	a2,s2
   17362:	00910723          	sb	s1,14(sp)
   17366:	478d                	li	a5,3
   17368:	45a5                	li	a1,9
   1736a:	03c00693          	li	a3,60
   1736e:	470d                	li	a4,3
   17370:	00000073          	ecall
   17374:	00851d63          	bne	a0,s0,1738e <_ZN20complex_dynamic_type3app17hb8ad5643b8b45c35E+0x96>
   17378:	05f14703          	lbu	a4,95(sp)
   1737c:	4505                	li	a0,1
   1737e:	4609                	li	a2,2
   17380:	00a98023          	sb	a0,0(s3)
   17384:	00b9a223          	sw	a1,4(s3)
   17388:	02c71963          	bne	a4,a2,173ba <_ZN20complex_dynamic_type3app17hb8ad5643b8b45c35E+0xc2>
   1738c:	a83d                	j	173ca <_ZN20complex_dynamic_type3app17hb8ad5643b8b45c35E+0xd2>
   1738e:	4681                	li	a3,0
   17390:	04f10fa3          	sb	a5,95(sp)
   17394:	6505                	lui	a0,0x1
   17396:	458d                	li	a1,3
   17398:	4625                	li	a2,9
   1739a:	4709                	li	a4,2
   1739c:	d7a50513          	addi	a0,a0,-646 # d7a <.Lline_table_start1+0xb4f>
   173a0:	07f00793          	li	a5,127
   173a4:	00000073          	ecall
   173a8:	4609                	li	a2,2
   173aa:	04a7e563          	bltu	a5,a0,173f4 <_ZN20complex_dynamic_type3app17hb8ad5643b8b45c35E+0xfc>
   173ae:	4505                	li	a0,1
   173b0:	00a98023          	sb	a0,0(s3)
   173b4:	00b9a223          	sw	a1,4(s3)
   173b8:	470d                	li	a4,3
   173ba:	6505                	lui	a0,0x1
   173bc:	d7a50513          	addi	a0,a0,-646 # d7a <.Lline_table_start1+0xb4f>
   173c0:	45a5                	li	a1,9
   173c2:	4601                	li	a2,0
   173c4:	4681                	li	a3,0
   173c6:	00000073          	ecall
   173ca:	00e14483          	lbu	s1,14(sp)
   173ce:	4509                	li	a0,2
   173d0:	00a48b63          	beq	s1,a0,173e6 <_ZN20complex_dynamic_type3app17hb8ad5643b8b45c35E+0xee>
   173d4:	6505                	lui	a0,0x1
   173d6:	d7a50513          	addi	a0,a0,-646 # d7a <.Lline_table_start1+0xb4f>
   173da:	458d                	li	a1,3
   173dc:	4601                	li	a2,0
   173de:	4681                	li	a3,0
   173e0:	8726                	mv	a4,s1
   173e2:	00000073          	ecall
   173e6:	50ba                	lw	ra,172(sp)
   173e8:	542a                	lw	s0,168(sp)
   173ea:	549a                	lw	s1,164(sp)
   173ec:	590a                	lw	s2,160(sp)
   173ee:	49fa                	lw	s3,156(sp)
   173f0:	614d                	addi	sp,sp,176
   173f2:	8082                	ret
   173f4:	00e14703          	lbu	a4,14(sp)
   173f8:	00c71463          	bne	a4,a2,17400 <_ZN20complex_dynamic_type3app17hb8ad5643b8b45c35E+0x108>
   173fc:	470d                	li	a4,3
   173fe:	a825                	j	17436 <_ZN20complex_dynamic_type3app17hb8ad5643b8b45c35E+0x13e>
   17400:	6505                	lui	a0,0x1
   17402:	d7a50513          	addi	a0,a0,-646 # d7a <.Lline_table_start1+0xb4f>
   17406:	458d                	li	a1,3
   17408:	4601                	li	a2,0
   1740a:	4681                	li	a3,0
   1740c:	00000073          	ecall
   17410:	05f14703          	lbu	a4,95(sp)
   17414:	4509                	li	a0,2
   17416:	00a10723          	sb	a0,14(sp)
   1741a:	00a71e63          	bne	a4,a0,17436 <_ZN20complex_dynamic_type3app17hb8ad5643b8b45c35E+0x13e>
   1741e:	00198513          	addi	a0,s3,1
   17422:	03c00613          	li	a2,60
   17426:	85ca                	mv	a1,s2
   17428:	00006097          	auipc	ra,0x6
   1742c:	34e080e7          	jalr	846(ra) # 1d776 <memcpy>
   17430:	00098023          	sb	zero,0(s3)
   17434:	bf4d                	j	173e6 <_ZN20complex_dynamic_type3app17hb8ad5643b8b45c35E+0xee>
   17436:	6505                	lui	a0,0x1
   17438:	d7a50513          	addi	a0,a0,-646 # d7a <.Lline_table_start1+0xb4f>
   1743c:	45a5                	li	a1,9
   1743e:	4601                	li	a2,0
   17440:	4681                	li	a3,0
   17442:	00000073          	ecall
   17446:	00e14483          	lbu	s1,14(sp)
   1744a:	00198513          	addi	a0,s3,1
   1744e:	03c00613          	li	a2,60
   17452:	85ca                	mv	a1,s2
   17454:	00006097          	auipc	ra,0x6
   17458:	322080e7          	jalr	802(ra) # 1d776 <memcpy>
   1745c:	4509                	li	a0,2
   1745e:	00098023          	sb	zero,0(s3)
   17462:	f6a499e3          	bne	s1,a0,173d4 <_ZN20complex_dynamic_type3app17hb8ad5643b8b45c35E+0xdc>
   17466:	b741                	j	173e6 <_ZN20complex_dynamic_type3app17hb8ad5643b8b45c35E+0xee>

00017468 <_ZN20complex_dynamic_type3app17hba96328adb138e45E>:
   17468:	711d                	addi	sp,sp,-96
   1746a:	ce86                	sw	ra,92(sp)
   1746c:	cca2                	sw	s0,88(sp)
   1746e:	caa6                	sw	s1,84(sp)
   17470:	c8ca                	sw	s2,80(sp)
   17472:	c6ce                	sw	s3,76(sp)
   17474:	89aa                	mv	s3,a0
   17476:	4409                	li	s0,2
   17478:	008103a3          	sb	s0,7(sp)
   1747c:	0024                	addi	s1,sp,8
   1747e:	02900613          	li	a2,41
   17482:	8526                	mv	a0,s1
   17484:	00006097          	auipc	ra,0x6
   17488:	2f2080e7          	jalr	754(ra) # 1d776 <memcpy>
   1748c:	03210913          	addi	s2,sp,50
   17490:	4669                	li	a2,26
   17492:	854a                	mv	a0,s2
   17494:	4581                	li	a1,0
   17496:	00006097          	auipc	ra,0x6
   1749a:	274080e7          	jalr	628(ra) # 1d70a <memset>
   1749e:	8626                	mv	a2,s1
   174a0:	028108a3          	sb	s0,49(sp)
   174a4:	6509                	lui	a0,0x2
   174a6:	4491                	li	s1,4
   174a8:	4595                	li	a1,5
   174aa:	04850793          	addi	a5,a0,72 # 2048 <.Lline_table_start1+0x1e1d>
   174ae:	02900693          	li	a3,41
   174b2:	4711                	li	a4,4
   174b4:	853e                	mv	a0,a5
   174b6:	00000073          	ecall
   174ba:	00851863          	bne	a0,s0,174ca <_ZN20complex_dynamic_type3app17hba96328adb138e45E+0x62>
   174be:	4505                	li	a0,1
   174c0:	00a98023          	sb	a0,0(s3)
   174c4:	00b9a223          	sw	a1,4(s3)
   174c8:	a0b5                	j	17534 <_ZN20complex_dynamic_type3app17hba96328adb138e45E+0xcc>
   174ca:	853e                	mv	a0,a5
   174cc:	864a                	mv	a2,s2
   174ce:	009103a3          	sb	s1,7(sp)
   174d2:	478d                	li	a5,3
   174d4:	458d                	li	a1,3
   174d6:	46e9                	li	a3,26
   174d8:	470d                	li	a4,3
   174da:	00000073          	ecall
   174de:	00851d63          	bne	a0,s0,174f8 <_ZN20complex_dynamic_type3app17hba96328adb138e45E+0x90>
   174e2:	03114703          	lbu	a4,49(sp)
   174e6:	4505                	li	a0,1
   174e8:	4609                	li	a2,2
   174ea:	00a98023          	sb	a0,0(s3)
   174ee:	00b9a223          	sw	a1,4(s3)
   174f2:	02c71963          	bne	a4,a2,17524 <_ZN20complex_dynamic_type3app17hba96328adb138e45E+0xbc>
   174f6:	a83d                	j	17534 <_ZN20complex_dynamic_type3app17hba96328adb138e45E+0xcc>
   174f8:	4681                	li	a3,0
   174fa:	02f108a3          	sb	a5,49(sp)
   174fe:	6509                	lui	a0,0x2
   17500:	4595                	li	a1,5
   17502:	460d                	li	a2,3
   17504:	4709                	li	a4,2
   17506:	04850513          	addi	a0,a0,72 # 2048 <.Lline_table_start1+0x1e1d>
   1750a:	07f00793          	li	a5,127
   1750e:	00000073          	ecall
   17512:	4609                	li	a2,2
   17514:	04a7e563          	bltu	a5,a0,1755e <_ZN20complex_dynamic_type3app17hba96328adb138e45E+0xf6>
   17518:	4505                	li	a0,1
   1751a:	00a98023          	sb	a0,0(s3)
   1751e:	00b9a223          	sw	a1,4(s3)
   17522:	470d                	li	a4,3
   17524:	6509                	lui	a0,0x2
   17526:	04850513          	addi	a0,a0,72 # 2048 <.Lline_table_start1+0x1e1d>
   1752a:	458d                	li	a1,3
   1752c:	4601                	li	a2,0
   1752e:	4681                	li	a3,0
   17530:	00000073          	ecall
   17534:	00714483          	lbu	s1,7(sp)
   17538:	4509                	li	a0,2
   1753a:	00a48b63          	beq	s1,a0,17550 <_ZN20complex_dynamic_type3app17hba96328adb138e45E+0xe8>
   1753e:	6509                	lui	a0,0x2
   17540:	04850513          	addi	a0,a0,72 # 2048 <.Lline_table_start1+0x1e1d>
   17544:	4595                	li	a1,5
   17546:	4601                	li	a2,0
   17548:	4681                	li	a3,0
   1754a:	8726                	mv	a4,s1
   1754c:	00000073          	ecall
   17550:	40f6                	lw	ra,92(sp)
   17552:	4466                	lw	s0,88(sp)
   17554:	44d6                	lw	s1,84(sp)
   17556:	4946                	lw	s2,80(sp)
   17558:	49b6                	lw	s3,76(sp)
   1755a:	6125                	addi	sp,sp,96
   1755c:	8082                	ret
   1755e:	00714703          	lbu	a4,7(sp)
   17562:	00c71463          	bne	a4,a2,1756a <_ZN20complex_dynamic_type3app17hba96328adb138e45E+0x102>
   17566:	470d                	li	a4,3
   17568:	a81d                	j	1759e <_ZN20complex_dynamic_type3app17hba96328adb138e45E+0x136>
   1756a:	6509                	lui	a0,0x2
   1756c:	04850513          	addi	a0,a0,72 # 2048 <.Lline_table_start1+0x1e1d>
   17570:	4595                	li	a1,5
   17572:	4601                	li	a2,0
   17574:	4681                	li	a3,0
   17576:	00000073          	ecall
   1757a:	03114703          	lbu	a4,49(sp)
   1757e:	4509                	li	a0,2
   17580:	00a103a3          	sb	a0,7(sp)
   17584:	00a71d63          	bne	a4,a0,1759e <_ZN20complex_dynamic_type3app17hba96328adb138e45E+0x136>
   17588:	00198513          	addi	a0,s3,1
   1758c:	4669                	li	a2,26
   1758e:	85ca                	mv	a1,s2
   17590:	00006097          	auipc	ra,0x6
   17594:	1e6080e7          	jalr	486(ra) # 1d776 <memcpy>
   17598:	00098023          	sb	zero,0(s3)
   1759c:	bf55                	j	17550 <_ZN20complex_dynamic_type3app17hba96328adb138e45E+0xe8>
   1759e:	6509                	lui	a0,0x2
   175a0:	04850513          	addi	a0,a0,72 # 2048 <.Lline_table_start1+0x1e1d>
   175a4:	458d                	li	a1,3
   175a6:	4601                	li	a2,0
   175a8:	4681                	li	a3,0
   175aa:	00000073          	ecall
   175ae:	00714483          	lbu	s1,7(sp)
   175b2:	00198513          	addi	a0,s3,1
   175b6:	4669                	li	a2,26
   175b8:	85ca                	mv	a1,s2
   175ba:	00006097          	auipc	ra,0x6
   175be:	1bc080e7          	jalr	444(ra) # 1d776 <memcpy>
   175c2:	4509                	li	a0,2
   175c4:	00098023          	sb	zero,0(s3)
   175c8:	f6a49be3          	bne	s1,a0,1753e <_ZN20complex_dynamic_type3app17hba96328adb138e45E+0xd6>
   175cc:	b751                	j	17550 <_ZN20complex_dynamic_type3app17hba96328adb138e45E+0xe8>

000175ce <_ZN20complex_dynamic_type3app17hbb4ef307cfb7b592E>:
   175ce:	7159                	addi	sp,sp,-112
   175d0:	d686                	sw	ra,108(sp)
   175d2:	d4a2                	sw	s0,104(sp)
   175d4:	d2a6                	sw	s1,100(sp)
   175d6:	d0ca                	sw	s2,96(sp)
   175d8:	cece                	sw	s3,92(sp)
   175da:	89aa                	mv	s3,a0
   175dc:	4409                	li	s0,2
   175de:	00810223          	sb	s0,4(sp)
   175e2:	00510493          	addi	s1,sp,5
   175e6:	02c00613          	li	a2,44
   175ea:	8526                	mv	a0,s1
   175ec:	00006097          	auipc	ra,0x6
   175f0:	18a080e7          	jalr	394(ra) # 1d776 <memcpy>
   175f4:	03210913          	addi	s2,sp,50
   175f8:	02a00613          	li	a2,42
   175fc:	854a                	mv	a0,s2
   175fe:	4581                	li	a1,0
   17600:	00006097          	auipc	ra,0x6
   17604:	10a080e7          	jalr	266(ra) # 1d70a <memset>
   17608:	8626                	mv	a2,s1
   1760a:	028108a3          	sb	s0,49(sp)
   1760e:	6509                	lui	a0,0x2
   17610:	4491                	li	s1,4
   17612:	458d                	li	a1,3
   17614:	4f050793          	addi	a5,a0,1264 # 24f0 <.Lline_table_start1+0x22c5>
   17618:	02c00693          	li	a3,44
   1761c:	4711                	li	a4,4
   1761e:	853e                	mv	a0,a5
   17620:	00000073          	ecall
   17624:	00851863          	bne	a0,s0,17634 <_ZN20complex_dynamic_type3app17hbb4ef307cfb7b592E+0x66>
   17628:	4505                	li	a0,1
   1762a:	00a98023          	sb	a0,0(s3)
   1762e:	00b9a223          	sw	a1,4(s3)
   17632:	a0bd                	j	176a0 <_ZN20complex_dynamic_type3app17hbb4ef307cfb7b592E+0xd2>
   17634:	853e                	mv	a0,a5
   17636:	4581                	li	a1,0
   17638:	864a                	mv	a2,s2
   1763a:	00910223          	sb	s1,4(sp)
   1763e:	478d                	li	a5,3
   17640:	02a00693          	li	a3,42
   17644:	470d                	li	a4,3
   17646:	00000073          	ecall
   1764a:	00851d63          	bne	a0,s0,17664 <_ZN20complex_dynamic_type3app17hbb4ef307cfb7b592E+0x96>
   1764e:	03114703          	lbu	a4,49(sp)
   17652:	4505                	li	a0,1
   17654:	4609                	li	a2,2
   17656:	00a98023          	sb	a0,0(s3)
   1765a:	00b9a223          	sw	a1,4(s3)
   1765e:	02c71963          	bne	a4,a2,17690 <_ZN20complex_dynamic_type3app17hbb4ef307cfb7b592E+0xc2>
   17662:	a83d                	j	176a0 <_ZN20complex_dynamic_type3app17hbb4ef307cfb7b592E+0xd2>
   17664:	4601                	li	a2,0
   17666:	4681                	li	a3,0
   17668:	02f108a3          	sb	a5,49(sp)
   1766c:	6509                	lui	a0,0x2
   1766e:	458d                	li	a1,3
   17670:	4709                	li	a4,2
   17672:	4f050513          	addi	a0,a0,1264 # 24f0 <.Lline_table_start1+0x22c5>
   17676:	07f00793          	li	a5,127
   1767a:	00000073          	ecall
   1767e:	4609                	li	a2,2
   17680:	04a7e563          	bltu	a5,a0,176ca <_ZN20complex_dynamic_type3app17hbb4ef307cfb7b592E+0xfc>
   17684:	4505                	li	a0,1
   17686:	00a98023          	sb	a0,0(s3)
   1768a:	00b9a223          	sw	a1,4(s3)
   1768e:	470d                	li	a4,3
   17690:	6509                	lui	a0,0x2
   17692:	4f050513          	addi	a0,a0,1264 # 24f0 <.Lline_table_start1+0x22c5>
   17696:	4581                	li	a1,0
   17698:	4601                	li	a2,0
   1769a:	4681                	li	a3,0
   1769c:	00000073          	ecall
   176a0:	00414483          	lbu	s1,4(sp)
   176a4:	4509                	li	a0,2
   176a6:	00a48b63          	beq	s1,a0,176bc <_ZN20complex_dynamic_type3app17hbb4ef307cfb7b592E+0xee>
   176aa:	6509                	lui	a0,0x2
   176ac:	4f050513          	addi	a0,a0,1264 # 24f0 <.Lline_table_start1+0x22c5>
   176b0:	458d                	li	a1,3
   176b2:	4601                	li	a2,0
   176b4:	4681                	li	a3,0
   176b6:	8726                	mv	a4,s1
   176b8:	00000073          	ecall
   176bc:	50b6                	lw	ra,108(sp)
   176be:	5426                	lw	s0,104(sp)
   176c0:	5496                	lw	s1,100(sp)
   176c2:	5906                	lw	s2,96(sp)
   176c4:	49f6                	lw	s3,92(sp)
   176c6:	6165                	addi	sp,sp,112
   176c8:	8082                	ret
   176ca:	00414703          	lbu	a4,4(sp)
   176ce:	00c71463          	bne	a4,a2,176d6 <_ZN20complex_dynamic_type3app17hbb4ef307cfb7b592E+0x108>
   176d2:	470d                	li	a4,3
   176d4:	a825                	j	1770c <_ZN20complex_dynamic_type3app17hbb4ef307cfb7b592E+0x13e>
   176d6:	6509                	lui	a0,0x2
   176d8:	4f050513          	addi	a0,a0,1264 # 24f0 <.Lline_table_start1+0x22c5>
   176dc:	458d                	li	a1,3
   176de:	4601                	li	a2,0
   176e0:	4681                	li	a3,0
   176e2:	00000073          	ecall
   176e6:	03114703          	lbu	a4,49(sp)
   176ea:	4509                	li	a0,2
   176ec:	00a10223          	sb	a0,4(sp)
   176f0:	00a71e63          	bne	a4,a0,1770c <_ZN20complex_dynamic_type3app17hbb4ef307cfb7b592E+0x13e>
   176f4:	00198513          	addi	a0,s3,1
   176f8:	02a00613          	li	a2,42
   176fc:	85ca                	mv	a1,s2
   176fe:	00006097          	auipc	ra,0x6
   17702:	078080e7          	jalr	120(ra) # 1d776 <memcpy>
   17706:	00098023          	sb	zero,0(s3)
   1770a:	bf4d                	j	176bc <_ZN20complex_dynamic_type3app17hbb4ef307cfb7b592E+0xee>
   1770c:	6509                	lui	a0,0x2
   1770e:	4f050513          	addi	a0,a0,1264 # 24f0 <.Lline_table_start1+0x22c5>
   17712:	4581                	li	a1,0
   17714:	4601                	li	a2,0
   17716:	4681                	li	a3,0
   17718:	00000073          	ecall
   1771c:	00414483          	lbu	s1,4(sp)
   17720:	00198513          	addi	a0,s3,1
   17724:	02a00613          	li	a2,42
   17728:	85ca                	mv	a1,s2
   1772a:	00006097          	auipc	ra,0x6
   1772e:	04c080e7          	jalr	76(ra) # 1d776 <memcpy>
   17732:	4509                	li	a0,2
   17734:	00098023          	sb	zero,0(s3)
   17738:	f6a499e3          	bne	s1,a0,176aa <_ZN20complex_dynamic_type3app17hbb4ef307cfb7b592E+0xdc>
   1773c:	b741                	j	176bc <_ZN20complex_dynamic_type3app17hbb4ef307cfb7b592E+0xee>

0001773e <_ZN20complex_dynamic_type3app17hbbcb1a659bbd8690E>:
   1773e:	7159                	addi	sp,sp,-112
   17740:	d686                	sw	ra,108(sp)
   17742:	d4a2                	sw	s0,104(sp)
   17744:	d2a6                	sw	s1,100(sp)
   17746:	d0ca                	sw	s2,96(sp)
   17748:	cece                	sw	s3,92(sp)
   1774a:	89aa                	mv	s3,a0
   1774c:	4409                	li	s0,2
   1774e:	008105a3          	sb	s0,11(sp)
   17752:	0064                	addi	s1,sp,12
   17754:	02500613          	li	a2,37
   17758:	8526                	mv	a0,s1
   1775a:	00006097          	auipc	ra,0x6
   1775e:	01c080e7          	jalr	28(ra) # 1d776 <memcpy>
   17762:	03210913          	addi	s2,sp,50
   17766:	02a00613          	li	a2,42
   1776a:	854a                	mv	a0,s2
   1776c:	4581                	li	a1,0
   1776e:	00006097          	auipc	ra,0x6
   17772:	f9c080e7          	jalr	-100(ra) # 1d70a <memset>
   17776:	4581                	li	a1,0
   17778:	8626                	mv	a2,s1
   1777a:	028108a3          	sb	s0,49(sp)
   1777e:	6505                	lui	a0,0x1
   17780:	4491                	li	s1,4
   17782:	93c50793          	addi	a5,a0,-1732 # 93c <.Lline_table_start1+0x711>
   17786:	02500693          	li	a3,37
   1778a:	4711                	li	a4,4
   1778c:	853e                	mv	a0,a5
   1778e:	00000073          	ecall
   17792:	00851863          	bne	a0,s0,177a2 <_ZN20complex_dynamic_type3app17hbbcb1a659bbd8690E+0x64>
   17796:	4505                	li	a0,1
   17798:	00a98023          	sb	a0,0(s3)
   1779c:	00b9a223          	sw	a1,4(s3)
   177a0:	a0bd                	j	1780e <_ZN20complex_dynamic_type3app17hbbcb1a659bbd8690E+0xd0>
   177a2:	853e                	mv	a0,a5
   177a4:	864a                	mv	a2,s2
   177a6:	009105a3          	sb	s1,11(sp)
   177aa:	478d                	li	a5,3
   177ac:	458d                	li	a1,3
   177ae:	02a00693          	li	a3,42
   177b2:	470d                	li	a4,3
   177b4:	00000073          	ecall
   177b8:	00851d63          	bne	a0,s0,177d2 <_ZN20complex_dynamic_type3app17hbbcb1a659bbd8690E+0x94>
   177bc:	03114703          	lbu	a4,49(sp)
   177c0:	4505                	li	a0,1
   177c2:	4609                	li	a2,2
   177c4:	00a98023          	sb	a0,0(s3)
   177c8:	00b9a223          	sw	a1,4(s3)
   177cc:	02c71963          	bne	a4,a2,177fe <_ZN20complex_dynamic_type3app17hbbcb1a659bbd8690E+0xc0>
   177d0:	a83d                	j	1780e <_ZN20complex_dynamic_type3app17hbbcb1a659bbd8690E+0xd0>
   177d2:	4581                	li	a1,0
   177d4:	4681                	li	a3,0
   177d6:	02f108a3          	sb	a5,49(sp)
   177da:	6505                	lui	a0,0x1
   177dc:	460d                	li	a2,3
   177de:	4709                	li	a4,2
   177e0:	93c50513          	addi	a0,a0,-1732 # 93c <.Lline_table_start1+0x711>
   177e4:	07f00793          	li	a5,127
   177e8:	00000073          	ecall
   177ec:	4609                	li	a2,2
   177ee:	04a7e563          	bltu	a5,a0,17838 <_ZN20complex_dynamic_type3app17hbbcb1a659bbd8690E+0xfa>
   177f2:	4505                	li	a0,1
   177f4:	00a98023          	sb	a0,0(s3)
   177f8:	00b9a223          	sw	a1,4(s3)
   177fc:	470d                	li	a4,3
   177fe:	6505                	lui	a0,0x1
   17800:	93c50513          	addi	a0,a0,-1732 # 93c <.Lline_table_start1+0x711>
   17804:	458d                	li	a1,3
   17806:	4601                	li	a2,0
   17808:	4681                	li	a3,0
   1780a:	00000073          	ecall
   1780e:	00b14483          	lbu	s1,11(sp)
   17812:	4509                	li	a0,2
   17814:	00a48b63          	beq	s1,a0,1782a <_ZN20complex_dynamic_type3app17hbbcb1a659bbd8690E+0xec>
   17818:	6505                	lui	a0,0x1
   1781a:	93c50513          	addi	a0,a0,-1732 # 93c <.Lline_table_start1+0x711>
   1781e:	4581                	li	a1,0
   17820:	4601                	li	a2,0
   17822:	4681                	li	a3,0
   17824:	8726                	mv	a4,s1
   17826:	00000073          	ecall
   1782a:	50b6                	lw	ra,108(sp)
   1782c:	5426                	lw	s0,104(sp)
   1782e:	5496                	lw	s1,100(sp)
   17830:	5906                	lw	s2,96(sp)
   17832:	49f6                	lw	s3,92(sp)
   17834:	6165                	addi	sp,sp,112
   17836:	8082                	ret
   17838:	00b14703          	lbu	a4,11(sp)
   1783c:	00c71463          	bne	a4,a2,17844 <_ZN20complex_dynamic_type3app17hbbcb1a659bbd8690E+0x106>
   17840:	470d                	li	a4,3
   17842:	a825                	j	1787a <_ZN20complex_dynamic_type3app17hbbcb1a659bbd8690E+0x13c>
   17844:	6505                	lui	a0,0x1
   17846:	93c50513          	addi	a0,a0,-1732 # 93c <.Lline_table_start1+0x711>
   1784a:	4581                	li	a1,0
   1784c:	4601                	li	a2,0
   1784e:	4681                	li	a3,0
   17850:	00000073          	ecall
   17854:	03114703          	lbu	a4,49(sp)
   17858:	4509                	li	a0,2
   1785a:	00a105a3          	sb	a0,11(sp)
   1785e:	00a71e63          	bne	a4,a0,1787a <_ZN20complex_dynamic_type3app17hbbcb1a659bbd8690E+0x13c>
   17862:	00198513          	addi	a0,s3,1
   17866:	02a00613          	li	a2,42
   1786a:	85ca                	mv	a1,s2
   1786c:	00006097          	auipc	ra,0x6
   17870:	f0a080e7          	jalr	-246(ra) # 1d776 <memcpy>
   17874:	00098023          	sb	zero,0(s3)
   17878:	bf4d                	j	1782a <_ZN20complex_dynamic_type3app17hbbcb1a659bbd8690E+0xec>
   1787a:	6505                	lui	a0,0x1
   1787c:	93c50513          	addi	a0,a0,-1732 # 93c <.Lline_table_start1+0x711>
   17880:	458d                	li	a1,3
   17882:	4601                	li	a2,0
   17884:	4681                	li	a3,0
   17886:	00000073          	ecall
   1788a:	00b14483          	lbu	s1,11(sp)
   1788e:	00198513          	addi	a0,s3,1
   17892:	02a00613          	li	a2,42
   17896:	85ca                	mv	a1,s2
   17898:	00006097          	auipc	ra,0x6
   1789c:	ede080e7          	jalr	-290(ra) # 1d776 <memcpy>
   178a0:	4509                	li	a0,2
   178a2:	00098023          	sb	zero,0(s3)
   178a6:	f6a499e3          	bne	s1,a0,17818 <_ZN20complex_dynamic_type3app17hbbcb1a659bbd8690E+0xda>
   178aa:	b741                	j	1782a <_ZN20complex_dynamic_type3app17hbbcb1a659bbd8690E+0xec>

000178ac <_ZN20complex_dynamic_type3app17hbc7c558801ef9cf2E>:
   178ac:	711d                	addi	sp,sp,-96
   178ae:	ce86                	sw	ra,92(sp)
   178b0:	cca2                	sw	s0,88(sp)
   178b2:	caa6                	sw	s1,84(sp)
   178b4:	c8ca                	sw	s2,80(sp)
   178b6:	c6ce                	sw	s3,76(sp)
   178b8:	89aa                	mv	s3,a0
   178ba:	4409                	li	s0,2
   178bc:	008106a3          	sb	s0,13(sp)
   178c0:	00e10493          	addi	s1,sp,14
   178c4:	02500613          	li	a2,37
   178c8:	8526                	mv	a0,s1
   178ca:	00006097          	auipc	ra,0x6
   178ce:	eac080e7          	jalr	-340(ra) # 1d776 <memcpy>
   178d2:	03410913          	addi	s2,sp,52
   178d6:	4661                	li	a2,24
   178d8:	854a                	mv	a0,s2
   178da:	4581                	li	a1,0
   178dc:	00006097          	auipc	ra,0x6
   178e0:	e2e080e7          	jalr	-466(ra) # 1d70a <memset>
   178e4:	8626                	mv	a2,s1
   178e6:	028109a3          	sb	s0,51(sp)
   178ea:	6505                	lui	a0,0x1
   178ec:	4491                	li	s1,4
   178ee:	45a5                	li	a1,9
   178f0:	a7050793          	addi	a5,a0,-1424 # a70 <.Lline_table_start1+0x845>
   178f4:	02500693          	li	a3,37
   178f8:	4711                	li	a4,4
   178fa:	853e                	mv	a0,a5
   178fc:	00000073          	ecall
   17900:	00851863          	bne	a0,s0,17910 <_ZN20complex_dynamic_type3app17hbc7c558801ef9cf2E+0x64>
   17904:	4505                	li	a0,1
   17906:	00a98023          	sb	a0,0(s3)
   1790a:	00b9a223          	sw	a1,4(s3)
   1790e:	a0b5                	j	1797a <_ZN20complex_dynamic_type3app17hbc7c558801ef9cf2E+0xce>
   17910:	853e                	mv	a0,a5
   17912:	864a                	mv	a2,s2
   17914:	009106a3          	sb	s1,13(sp)
   17918:	478d                	li	a5,3
   1791a:	45a1                	li	a1,8
   1791c:	46e1                	li	a3,24
   1791e:	470d                	li	a4,3
   17920:	00000073          	ecall
   17924:	00851d63          	bne	a0,s0,1793e <_ZN20complex_dynamic_type3app17hbc7c558801ef9cf2E+0x92>
   17928:	03314703          	lbu	a4,51(sp)
   1792c:	4505                	li	a0,1
   1792e:	4609                	li	a2,2
   17930:	00a98023          	sb	a0,0(s3)
   17934:	00b9a223          	sw	a1,4(s3)
   17938:	02c71963          	bne	a4,a2,1796a <_ZN20complex_dynamic_type3app17hbc7c558801ef9cf2E+0xbe>
   1793c:	a83d                	j	1797a <_ZN20complex_dynamic_type3app17hbc7c558801ef9cf2E+0xce>
   1793e:	4681                	li	a3,0
   17940:	02f109a3          	sb	a5,51(sp)
   17944:	6505                	lui	a0,0x1
   17946:	45a5                	li	a1,9
   17948:	4621                	li	a2,8
   1794a:	4709                	li	a4,2
   1794c:	a7050513          	addi	a0,a0,-1424 # a70 <.Lline_table_start1+0x845>
   17950:	07f00793          	li	a5,127
   17954:	00000073          	ecall
   17958:	4609                	li	a2,2
   1795a:	04a7e563          	bltu	a5,a0,179a4 <_ZN20complex_dynamic_type3app17hbc7c558801ef9cf2E+0xf8>
   1795e:	4505                	li	a0,1
   17960:	00a98023          	sb	a0,0(s3)
   17964:	00b9a223          	sw	a1,4(s3)
   17968:	470d                	li	a4,3
   1796a:	6505                	lui	a0,0x1
   1796c:	a7050513          	addi	a0,a0,-1424 # a70 <.Lline_table_start1+0x845>
   17970:	45a1                	li	a1,8
   17972:	4601                	li	a2,0
   17974:	4681                	li	a3,0
   17976:	00000073          	ecall
   1797a:	00d14483          	lbu	s1,13(sp)
   1797e:	4509                	li	a0,2
   17980:	00a48b63          	beq	s1,a0,17996 <_ZN20complex_dynamic_type3app17hbc7c558801ef9cf2E+0xea>
   17984:	6505                	lui	a0,0x1
   17986:	a7050513          	addi	a0,a0,-1424 # a70 <.Lline_table_start1+0x845>
   1798a:	45a5                	li	a1,9
   1798c:	4601                	li	a2,0
   1798e:	4681                	li	a3,0
   17990:	8726                	mv	a4,s1
   17992:	00000073          	ecall
   17996:	40f6                	lw	ra,92(sp)
   17998:	4466                	lw	s0,88(sp)
   1799a:	44d6                	lw	s1,84(sp)
   1799c:	4946                	lw	s2,80(sp)
   1799e:	49b6                	lw	s3,76(sp)
   179a0:	6125                	addi	sp,sp,96
   179a2:	8082                	ret
   179a4:	00d14703          	lbu	a4,13(sp)
   179a8:	00c71463          	bne	a4,a2,179b0 <_ZN20complex_dynamic_type3app17hbc7c558801ef9cf2E+0x104>
   179ac:	470d                	li	a4,3
   179ae:	a81d                	j	179e4 <_ZN20complex_dynamic_type3app17hbc7c558801ef9cf2E+0x138>
   179b0:	6505                	lui	a0,0x1
   179b2:	a7050513          	addi	a0,a0,-1424 # a70 <.Lline_table_start1+0x845>
   179b6:	45a5                	li	a1,9
   179b8:	4601                	li	a2,0
   179ba:	4681                	li	a3,0
   179bc:	00000073          	ecall
   179c0:	03314703          	lbu	a4,51(sp)
   179c4:	4509                	li	a0,2
   179c6:	00a106a3          	sb	a0,13(sp)
   179ca:	00a71d63          	bne	a4,a0,179e4 <_ZN20complex_dynamic_type3app17hbc7c558801ef9cf2E+0x138>
   179ce:	00198513          	addi	a0,s3,1
   179d2:	4661                	li	a2,24
   179d4:	85ca                	mv	a1,s2
   179d6:	00006097          	auipc	ra,0x6
   179da:	da0080e7          	jalr	-608(ra) # 1d776 <memcpy>
   179de:	00098023          	sb	zero,0(s3)
   179e2:	bf55                	j	17996 <_ZN20complex_dynamic_type3app17hbc7c558801ef9cf2E+0xea>
   179e4:	6505                	lui	a0,0x1
   179e6:	a7050513          	addi	a0,a0,-1424 # a70 <.Lline_table_start1+0x845>
   179ea:	45a1                	li	a1,8
   179ec:	4601                	li	a2,0
   179ee:	4681                	li	a3,0
   179f0:	00000073          	ecall
   179f4:	00d14483          	lbu	s1,13(sp)
   179f8:	00198513          	addi	a0,s3,1
   179fc:	4661                	li	a2,24
   179fe:	85ca                	mv	a1,s2
   17a00:	00006097          	auipc	ra,0x6
   17a04:	d76080e7          	jalr	-650(ra) # 1d776 <memcpy>
   17a08:	4509                	li	a0,2
   17a0a:	00098023          	sb	zero,0(s3)
   17a0e:	f6a49be3          	bne	s1,a0,17984 <_ZN20complex_dynamic_type3app17hbc7c558801ef9cf2E+0xd8>
   17a12:	b751                	j	17996 <_ZN20complex_dynamic_type3app17hbc7c558801ef9cf2E+0xea>

00017a14 <_ZN20complex_dynamic_type3app17hbe870290c068171aE>:
   17a14:	7119                	addi	sp,sp,-128
   17a16:	de86                	sw	ra,124(sp)
   17a18:	dca2                	sw	s0,120(sp)
   17a1a:	daa6                	sw	s1,116(sp)
   17a1c:	d8ca                	sw	s2,112(sp)
   17a1e:	d6ce                	sw	s3,108(sp)
   17a20:	89aa                	mv	s3,a0
   17a22:	4409                	li	s0,2
   17a24:	00810123          	sb	s0,2(sp)
   17a28:	00310493          	addi	s1,sp,3
   17a2c:	03c00613          	li	a2,60
   17a30:	8526                	mv	a0,s1
   17a32:	00006097          	auipc	ra,0x6
   17a36:	d44080e7          	jalr	-700(ra) # 1d776 <memcpy>
   17a3a:	04010913          	addi	s2,sp,64
   17a3e:	02c00613          	li	a2,44
   17a42:	854a                	mv	a0,s2
   17a44:	4581                	li	a1,0
   17a46:	00006097          	auipc	ra,0x6
   17a4a:	cc4080e7          	jalr	-828(ra) # 1d70a <memset>
   17a4e:	8626                	mv	a2,s1
   17a50:	02810fa3          	sb	s0,63(sp)
   17a54:	6509                	lui	a0,0x2
   17a56:	4491                	li	s1,4
   17a58:	4595                	li	a1,5
   17a5a:	eac50793          	addi	a5,a0,-340 # 1eac <.Lline_table_start1+0x1c81>
   17a5e:	03c00693          	li	a3,60
   17a62:	4711                	li	a4,4
   17a64:	853e                	mv	a0,a5
   17a66:	00000073          	ecall
   17a6a:	00851863          	bne	a0,s0,17a7a <_ZN20complex_dynamic_type3app17hbe870290c068171aE+0x66>
   17a6e:	4505                	li	a0,1
   17a70:	00a98023          	sb	a0,0(s3)
   17a74:	00b9a223          	sw	a1,4(s3)
   17a78:	a0bd                	j	17ae6 <_ZN20complex_dynamic_type3app17hbe870290c068171aE+0xd2>
   17a7a:	853e                	mv	a0,a5
   17a7c:	864a                	mv	a2,s2
   17a7e:	00910123          	sb	s1,2(sp)
   17a82:	478d                	li	a5,3
   17a84:	459d                	li	a1,7
   17a86:	02c00693          	li	a3,44
   17a8a:	470d                	li	a4,3
   17a8c:	00000073          	ecall
   17a90:	00851d63          	bne	a0,s0,17aaa <_ZN20complex_dynamic_type3app17hbe870290c068171aE+0x96>
   17a94:	03f14703          	lbu	a4,63(sp)
   17a98:	4505                	li	a0,1
   17a9a:	4609                	li	a2,2
   17a9c:	00a98023          	sb	a0,0(s3)
   17aa0:	00b9a223          	sw	a1,4(s3)
   17aa4:	02c71963          	bne	a4,a2,17ad6 <_ZN20complex_dynamic_type3app17hbe870290c068171aE+0xc2>
   17aa8:	a83d                	j	17ae6 <_ZN20complex_dynamic_type3app17hbe870290c068171aE+0xd2>
   17aaa:	4681                	li	a3,0
   17aac:	02f10fa3          	sb	a5,63(sp)
   17ab0:	6509                	lui	a0,0x2
   17ab2:	4595                	li	a1,5
   17ab4:	461d                	li	a2,7
   17ab6:	4709                	li	a4,2
   17ab8:	eac50513          	addi	a0,a0,-340 # 1eac <.Lline_table_start1+0x1c81>
   17abc:	07f00793          	li	a5,127
   17ac0:	00000073          	ecall
   17ac4:	4609                	li	a2,2
   17ac6:	04a7e563          	bltu	a5,a0,17b10 <_ZN20complex_dynamic_type3app17hbe870290c068171aE+0xfc>
   17aca:	4505                	li	a0,1
   17acc:	00a98023          	sb	a0,0(s3)
   17ad0:	00b9a223          	sw	a1,4(s3)
   17ad4:	470d                	li	a4,3
   17ad6:	6509                	lui	a0,0x2
   17ad8:	eac50513          	addi	a0,a0,-340 # 1eac <.Lline_table_start1+0x1c81>
   17adc:	459d                	li	a1,7
   17ade:	4601                	li	a2,0
   17ae0:	4681                	li	a3,0
   17ae2:	00000073          	ecall
   17ae6:	00214483          	lbu	s1,2(sp)
   17aea:	4509                	li	a0,2
   17aec:	00a48b63          	beq	s1,a0,17b02 <_ZN20complex_dynamic_type3app17hbe870290c068171aE+0xee>
   17af0:	6509                	lui	a0,0x2
   17af2:	eac50513          	addi	a0,a0,-340 # 1eac <.Lline_table_start1+0x1c81>
   17af6:	4595                	li	a1,5
   17af8:	4601                	li	a2,0
   17afa:	4681                	li	a3,0
   17afc:	8726                	mv	a4,s1
   17afe:	00000073          	ecall
   17b02:	50f6                	lw	ra,124(sp)
   17b04:	5466                	lw	s0,120(sp)
   17b06:	54d6                	lw	s1,116(sp)
   17b08:	5946                	lw	s2,112(sp)
   17b0a:	59b6                	lw	s3,108(sp)
   17b0c:	6109                	addi	sp,sp,128
   17b0e:	8082                	ret
   17b10:	00214703          	lbu	a4,2(sp)
   17b14:	00c71463          	bne	a4,a2,17b1c <_ZN20complex_dynamic_type3app17hbe870290c068171aE+0x108>
   17b18:	470d                	li	a4,3
   17b1a:	a825                	j	17b52 <_ZN20complex_dynamic_type3app17hbe870290c068171aE+0x13e>
   17b1c:	6509                	lui	a0,0x2
   17b1e:	eac50513          	addi	a0,a0,-340 # 1eac <.Lline_table_start1+0x1c81>
   17b22:	4595                	li	a1,5
   17b24:	4601                	li	a2,0
   17b26:	4681                	li	a3,0
   17b28:	00000073          	ecall
   17b2c:	03f14703          	lbu	a4,63(sp)
   17b30:	4509                	li	a0,2
   17b32:	00a10123          	sb	a0,2(sp)
   17b36:	00a71e63          	bne	a4,a0,17b52 <_ZN20complex_dynamic_type3app17hbe870290c068171aE+0x13e>
   17b3a:	00198513          	addi	a0,s3,1
   17b3e:	02c00613          	li	a2,44
   17b42:	85ca                	mv	a1,s2
   17b44:	00006097          	auipc	ra,0x6
   17b48:	c32080e7          	jalr	-974(ra) # 1d776 <memcpy>
   17b4c:	00098023          	sb	zero,0(s3)
   17b50:	bf4d                	j	17b02 <_ZN20complex_dynamic_type3app17hbe870290c068171aE+0xee>
   17b52:	6509                	lui	a0,0x2
   17b54:	eac50513          	addi	a0,a0,-340 # 1eac <.Lline_table_start1+0x1c81>
   17b58:	459d                	li	a1,7
   17b5a:	4601                	li	a2,0
   17b5c:	4681                	li	a3,0
   17b5e:	00000073          	ecall
   17b62:	00214483          	lbu	s1,2(sp)
   17b66:	00198513          	addi	a0,s3,1
   17b6a:	02c00613          	li	a2,44
   17b6e:	85ca                	mv	a1,s2
   17b70:	00006097          	auipc	ra,0x6
   17b74:	c06080e7          	jalr	-1018(ra) # 1d776 <memcpy>
   17b78:	4509                	li	a0,2
   17b7a:	00098023          	sb	zero,0(s3)
   17b7e:	f6a499e3          	bne	s1,a0,17af0 <_ZN20complex_dynamic_type3app17hbe870290c068171aE+0xdc>
   17b82:	b741                	j	17b02 <_ZN20complex_dynamic_type3app17hbe870290c068171aE+0xee>

00017b84 <_ZN20complex_dynamic_type3app17hc0be1554c36f43abE>:
   17b84:	711d                	addi	sp,sp,-96
   17b86:	ce86                	sw	ra,92(sp)
   17b88:	cca2                	sw	s0,88(sp)
   17b8a:	caa6                	sw	s1,84(sp)
   17b8c:	c8ca                	sw	s2,80(sp)
   17b8e:	c6ce                	sw	s3,76(sp)
   17b90:	89aa                	mv	s3,a0
   17b92:	4409                	li	s0,2
   17b94:	00810023          	sb	s0,0(sp)
   17b98:	00110493          	addi	s1,sp,1
   17b9c:	4679                	li	a2,30
   17b9e:	8526                	mv	a0,s1
   17ba0:	00006097          	auipc	ra,0x6
   17ba4:	bd6080e7          	jalr	-1066(ra) # 1d776 <memcpy>
   17ba8:	02010913          	addi	s2,sp,32
   17bac:	02c00613          	li	a2,44
   17bb0:	854a                	mv	a0,s2
   17bb2:	4581                	li	a1,0
   17bb4:	00006097          	auipc	ra,0x6
   17bb8:	b56080e7          	jalr	-1194(ra) # 1d70a <memset>
   17bbc:	8626                	mv	a2,s1
   17bbe:	00810fa3          	sb	s0,31(sp)
   17bc2:	4791                	li	a5,4
   17bc4:	3fb00513          	li	a0,1019
   17bc8:	459d                	li	a1,7
   17bca:	46f9                	li	a3,30
   17bcc:	4711                	li	a4,4
   17bce:	00000073          	ecall
   17bd2:	00851863          	bne	a0,s0,17be2 <_ZN20complex_dynamic_type3app17hc0be1554c36f43abE+0x5e>
   17bd6:	4505                	li	a0,1
   17bd8:	00a98023          	sb	a0,0(s3)
   17bdc:	00b9a223          	sw	a1,4(s3)
   17be0:	a0b5                	j	17c4c <_ZN20complex_dynamic_type3app17hc0be1554c36f43abE+0xc8>
   17be2:	4581                	li	a1,0
   17be4:	864a                	mv	a2,s2
   17be6:	00f10023          	sb	a5,0(sp)
   17bea:	478d                	li	a5,3
   17bec:	3fb00513          	li	a0,1019
   17bf0:	02c00693          	li	a3,44
   17bf4:	470d                	li	a4,3
   17bf6:	00000073          	ecall
   17bfa:	00851d63          	bne	a0,s0,17c14 <_ZN20complex_dynamic_type3app17hc0be1554c36f43abE+0x90>
   17bfe:	01f14703          	lbu	a4,31(sp)
   17c02:	4505                	li	a0,1
   17c04:	4609                	li	a2,2
   17c06:	00a98023          	sb	a0,0(s3)
   17c0a:	00b9a223          	sw	a1,4(s3)
   17c0e:	02c71863          	bne	a4,a2,17c3e <_ZN20complex_dynamic_type3app17hc0be1554c36f43abE+0xba>
   17c12:	a82d                	j	17c4c <_ZN20complex_dynamic_type3app17hc0be1554c36f43abE+0xc8>
   17c14:	4601                	li	a2,0
   17c16:	4681                	li	a3,0
   17c18:	00f10fa3          	sb	a5,31(sp)
   17c1c:	3fb00513          	li	a0,1019
   17c20:	459d                	li	a1,7
   17c22:	4709                	li	a4,2
   17c24:	07f00793          	li	a5,127
   17c28:	00000073          	ecall
   17c2c:	4609                	li	a2,2
   17c2e:	04a7e363          	bltu	a5,a0,17c74 <_ZN20complex_dynamic_type3app17hc0be1554c36f43abE+0xf0>
   17c32:	4505                	li	a0,1
   17c34:	00a98023          	sb	a0,0(s3)
   17c38:	00b9a223          	sw	a1,4(s3)
   17c3c:	470d                	li	a4,3
   17c3e:	3fb00513          	li	a0,1019
   17c42:	4581                	li	a1,0
   17c44:	4601                	li	a2,0
   17c46:	4681                	li	a3,0
   17c48:	00000073          	ecall
   17c4c:	00014483          	lbu	s1,0(sp)
   17c50:	4509                	li	a0,2
   17c52:	00a48a63          	beq	s1,a0,17c66 <_ZN20complex_dynamic_type3app17hc0be1554c36f43abE+0xe2>
   17c56:	3fb00513          	li	a0,1019
   17c5a:	459d                	li	a1,7
   17c5c:	4601                	li	a2,0
   17c5e:	4681                	li	a3,0
   17c60:	8726                	mv	a4,s1
   17c62:	00000073          	ecall
   17c66:	40f6                	lw	ra,92(sp)
   17c68:	4466                	lw	s0,88(sp)
   17c6a:	44d6                	lw	s1,84(sp)
   17c6c:	4946                	lw	s2,80(sp)
   17c6e:	49b6                	lw	s3,76(sp)
   17c70:	6125                	addi	sp,sp,96
   17c72:	8082                	ret
   17c74:	00014703          	lbu	a4,0(sp)
   17c78:	00c71463          	bne	a4,a2,17c80 <_ZN20complex_dynamic_type3app17hc0be1554c36f43abE+0xfc>
   17c7c:	470d                	li	a4,3
   17c7e:	a81d                	j	17cb4 <_ZN20complex_dynamic_type3app17hc0be1554c36f43abE+0x130>
   17c80:	3fb00513          	li	a0,1019
   17c84:	459d                	li	a1,7
   17c86:	4601                	li	a2,0
   17c88:	4681                	li	a3,0
   17c8a:	00000073          	ecall
   17c8e:	01f14703          	lbu	a4,31(sp)
   17c92:	4509                	li	a0,2
   17c94:	00a10023          	sb	a0,0(sp)
   17c98:	00a71e63          	bne	a4,a0,17cb4 <_ZN20complex_dynamic_type3app17hc0be1554c36f43abE+0x130>
   17c9c:	00198513          	addi	a0,s3,1
   17ca0:	02c00613          	li	a2,44
   17ca4:	85ca                	mv	a1,s2
   17ca6:	00006097          	auipc	ra,0x6
   17caa:	ad0080e7          	jalr	-1328(ra) # 1d776 <memcpy>
   17cae:	00098023          	sb	zero,0(s3)
   17cb2:	bf55                	j	17c66 <_ZN20complex_dynamic_type3app17hc0be1554c36f43abE+0xe2>
   17cb4:	3fb00513          	li	a0,1019
   17cb8:	4581                	li	a1,0
   17cba:	4601                	li	a2,0
   17cbc:	4681                	li	a3,0
   17cbe:	00000073          	ecall
   17cc2:	00014483          	lbu	s1,0(sp)
   17cc6:	00198513          	addi	a0,s3,1
   17cca:	02c00613          	li	a2,44
   17cce:	85ca                	mv	a1,s2
   17cd0:	00006097          	auipc	ra,0x6
   17cd4:	aa6080e7          	jalr	-1370(ra) # 1d776 <memcpy>
   17cd8:	4509                	li	a0,2
   17cda:	00098023          	sb	zero,0(s3)
   17cde:	f6a49ce3          	bne	s1,a0,17c56 <_ZN20complex_dynamic_type3app17hc0be1554c36f43abE+0xd2>
   17ce2:	b751                	j	17c66 <_ZN20complex_dynamic_type3app17hc0be1554c36f43abE+0xe2>

00017ce4 <_ZN20complex_dynamic_type3app17hc54ca33a7769714fE>:
   17ce4:	7175                	addi	sp,sp,-144
   17ce6:	c706                	sw	ra,140(sp)
   17ce8:	c522                	sw	s0,136(sp)
   17cea:	c326                	sw	s1,132(sp)
   17cec:	c14a                	sw	s2,128(sp)
   17cee:	dece                	sw	s3,124(sp)
   17cf0:	89aa                	mv	s3,a0
   17cf2:	4409                	li	s0,2
   17cf4:	00810323          	sb	s0,6(sp)
   17cf8:	00710493          	addi	s1,sp,7
   17cfc:	03c00613          	li	a2,60
   17d00:	8526                	mv	a0,s1
   17d02:	00006097          	auipc	ra,0x6
   17d06:	a74080e7          	jalr	-1420(ra) # 1d776 <memcpy>
   17d0a:	04410913          	addi	s2,sp,68
   17d0e:	03800613          	li	a2,56
   17d12:	854a                	mv	a0,s2
   17d14:	4581                	li	a1,0
   17d16:	00006097          	auipc	ra,0x6
   17d1a:	9f4080e7          	jalr	-1548(ra) # 1d70a <memset>
   17d1e:	8626                	mv	a2,s1
   17d20:	048101a3          	sb	s0,67(sp)
   17d24:	6509                	lui	a0,0x2
   17d26:	4491                	li	s1,4
   17d28:	458d                	li	a1,3
   17d2a:	d1950793          	addi	a5,a0,-743 # 1d19 <.Lline_table_start1+0x1aee>
   17d2e:	03c00693          	li	a3,60
   17d32:	4711                	li	a4,4
   17d34:	853e                	mv	a0,a5
   17d36:	00000073          	ecall
   17d3a:	00851863          	bne	a0,s0,17d4a <_ZN20complex_dynamic_type3app17hc54ca33a7769714fE+0x66>
   17d3e:	4505                	li	a0,1
   17d40:	00a98023          	sb	a0,0(s3)
   17d44:	00b9a223          	sw	a1,4(s3)
   17d48:	a0bd                	j	17db6 <_ZN20complex_dynamic_type3app17hc54ca33a7769714fE+0xd2>
   17d4a:	853e                	mv	a0,a5
   17d4c:	864a                	mv	a2,s2
   17d4e:	00910323          	sb	s1,6(sp)
   17d52:	478d                	li	a5,3
   17d54:	458d                	li	a1,3
   17d56:	03800693          	li	a3,56
   17d5a:	470d                	li	a4,3
   17d5c:	00000073          	ecall
   17d60:	00851d63          	bne	a0,s0,17d7a <_ZN20complex_dynamic_type3app17hc54ca33a7769714fE+0x96>
   17d64:	04314703          	lbu	a4,67(sp)
   17d68:	4505                	li	a0,1
   17d6a:	4609                	li	a2,2
   17d6c:	00a98023          	sb	a0,0(s3)
   17d70:	00b9a223          	sw	a1,4(s3)
   17d74:	02c71963          	bne	a4,a2,17da6 <_ZN20complex_dynamic_type3app17hc54ca33a7769714fE+0xc2>
   17d78:	a83d                	j	17db6 <_ZN20complex_dynamic_type3app17hc54ca33a7769714fE+0xd2>
   17d7a:	4681                	li	a3,0
   17d7c:	04f101a3          	sb	a5,67(sp)
   17d80:	6509                	lui	a0,0x2
   17d82:	458d                	li	a1,3
   17d84:	460d                	li	a2,3
   17d86:	4709                	li	a4,2
   17d88:	d1950513          	addi	a0,a0,-743 # 1d19 <.Lline_table_start1+0x1aee>
   17d8c:	07f00793          	li	a5,127
   17d90:	00000073          	ecall
   17d94:	4609                	li	a2,2
   17d96:	04a7e563          	bltu	a5,a0,17de0 <_ZN20complex_dynamic_type3app17hc54ca33a7769714fE+0xfc>
   17d9a:	4505                	li	a0,1
   17d9c:	00a98023          	sb	a0,0(s3)
   17da0:	00b9a223          	sw	a1,4(s3)
   17da4:	470d                	li	a4,3
   17da6:	6509                	lui	a0,0x2
   17da8:	d1950513          	addi	a0,a0,-743 # 1d19 <.Lline_table_start1+0x1aee>
   17dac:	458d                	li	a1,3
   17dae:	4601                	li	a2,0
   17db0:	4681                	li	a3,0
   17db2:	00000073          	ecall
   17db6:	00614483          	lbu	s1,6(sp)
   17dba:	4509                	li	a0,2
   17dbc:	00a48b63          	beq	s1,a0,17dd2 <_ZN20complex_dynamic_type3app17hc54ca33a7769714fE+0xee>
   17dc0:	6509                	lui	a0,0x2
   17dc2:	d1950513          	addi	a0,a0,-743 # 1d19 <.Lline_table_start1+0x1aee>
   17dc6:	458d                	li	a1,3
   17dc8:	4601                	li	a2,0
   17dca:	4681                	li	a3,0
   17dcc:	8726                	mv	a4,s1
   17dce:	00000073          	ecall
   17dd2:	40ba                	lw	ra,140(sp)
   17dd4:	442a                	lw	s0,136(sp)
   17dd6:	449a                	lw	s1,132(sp)
   17dd8:	490a                	lw	s2,128(sp)
   17dda:	59f6                	lw	s3,124(sp)
   17ddc:	6149                	addi	sp,sp,144
   17dde:	8082                	ret
   17de0:	00614703          	lbu	a4,6(sp)
   17de4:	00c71463          	bne	a4,a2,17dec <_ZN20complex_dynamic_type3app17hc54ca33a7769714fE+0x108>
   17de8:	470d                	li	a4,3
   17dea:	a825                	j	17e22 <_ZN20complex_dynamic_type3app17hc54ca33a7769714fE+0x13e>
   17dec:	6509                	lui	a0,0x2
   17dee:	d1950513          	addi	a0,a0,-743 # 1d19 <.Lline_table_start1+0x1aee>
   17df2:	458d                	li	a1,3
   17df4:	4601                	li	a2,0
   17df6:	4681                	li	a3,0
   17df8:	00000073          	ecall
   17dfc:	04314703          	lbu	a4,67(sp)
   17e00:	4509                	li	a0,2
   17e02:	00a10323          	sb	a0,6(sp)
   17e06:	00a71e63          	bne	a4,a0,17e22 <_ZN20complex_dynamic_type3app17hc54ca33a7769714fE+0x13e>
   17e0a:	00198513          	addi	a0,s3,1
   17e0e:	03800613          	li	a2,56
   17e12:	85ca                	mv	a1,s2
   17e14:	00006097          	auipc	ra,0x6
   17e18:	962080e7          	jalr	-1694(ra) # 1d776 <memcpy>
   17e1c:	00098023          	sb	zero,0(s3)
   17e20:	bf4d                	j	17dd2 <_ZN20complex_dynamic_type3app17hc54ca33a7769714fE+0xee>
   17e22:	6509                	lui	a0,0x2
   17e24:	d1950513          	addi	a0,a0,-743 # 1d19 <.Lline_table_start1+0x1aee>
   17e28:	458d                	li	a1,3
   17e2a:	4601                	li	a2,0
   17e2c:	4681                	li	a3,0
   17e2e:	00000073          	ecall
   17e32:	00614483          	lbu	s1,6(sp)
   17e36:	00198513          	addi	a0,s3,1
   17e3a:	03800613          	li	a2,56
   17e3e:	85ca                	mv	a1,s2
   17e40:	00006097          	auipc	ra,0x6
   17e44:	936080e7          	jalr	-1738(ra) # 1d776 <memcpy>
   17e48:	4509                	li	a0,2
   17e4a:	00098023          	sb	zero,0(s3)
   17e4e:	f6a499e3          	bne	s1,a0,17dc0 <_ZN20complex_dynamic_type3app17hc54ca33a7769714fE+0xdc>
   17e52:	b741                	j	17dd2 <_ZN20complex_dynamic_type3app17hc54ca33a7769714fE+0xee>

00017e54 <_ZN20complex_dynamic_type3app17hcc70e1ddff29adbcE>:
   17e54:	7159                	addi	sp,sp,-112
   17e56:	d686                	sw	ra,108(sp)
   17e58:	d4a2                	sw	s0,104(sp)
   17e5a:	d2a6                	sw	s1,100(sp)
   17e5c:	d0ca                	sw	s2,96(sp)
   17e5e:	cece                	sw	s3,92(sp)
   17e60:	89aa                	mv	s3,a0
   17e62:	4409                	li	s0,2
   17e64:	00810623          	sb	s0,12(sp)
   17e68:	00d10493          	addi	s1,sp,13
   17e6c:	4661                	li	a2,24
   17e6e:	8526                	mv	a0,s1
   17e70:	00006097          	auipc	ra,0x6
   17e74:	906080e7          	jalr	-1786(ra) # 1d776 <memcpy>
   17e78:	02610913          	addi	s2,sp,38
   17e7c:	03600613          	li	a2,54
   17e80:	854a                	mv	a0,s2
   17e82:	4581                	li	a1,0
   17e84:	00006097          	auipc	ra,0x6
   17e88:	886080e7          	jalr	-1914(ra) # 1d70a <memset>
   17e8c:	8626                	mv	a2,s1
   17e8e:	028102a3          	sb	s0,37(sp)
   17e92:	4791                	li	a5,4
   17e94:	0f300513          	li	a0,243
   17e98:	45a1                	li	a1,8
   17e9a:	46e1                	li	a3,24
   17e9c:	4711                	li	a4,4
   17e9e:	00000073          	ecall
   17ea2:	00851863          	bne	a0,s0,17eb2 <_ZN20complex_dynamic_type3app17hcc70e1ddff29adbcE+0x5e>
   17ea6:	4505                	li	a0,1
   17ea8:	00a98023          	sb	a0,0(s3)
   17eac:	00b9a223          	sw	a1,4(s3)
   17eb0:	a0b5                	j	17f1c <_ZN20complex_dynamic_type3app17hcc70e1ddff29adbcE+0xc8>
   17eb2:	864a                	mv	a2,s2
   17eb4:	00f10623          	sb	a5,12(sp)
   17eb8:	478d                	li	a5,3
   17eba:	0f300513          	li	a0,243
   17ebe:	4591                	li	a1,4
   17ec0:	03600693          	li	a3,54
   17ec4:	470d                	li	a4,3
   17ec6:	00000073          	ecall
   17eca:	00851d63          	bne	a0,s0,17ee4 <_ZN20complex_dynamic_type3app17hcc70e1ddff29adbcE+0x90>
   17ece:	02514703          	lbu	a4,37(sp)
   17ed2:	4505                	li	a0,1
   17ed4:	4609                	li	a2,2
   17ed6:	00a98023          	sb	a0,0(s3)
   17eda:	00b9a223          	sw	a1,4(s3)
   17ede:	02c71863          	bne	a4,a2,17f0e <_ZN20complex_dynamic_type3app17hcc70e1ddff29adbcE+0xba>
   17ee2:	a82d                	j	17f1c <_ZN20complex_dynamic_type3app17hcc70e1ddff29adbcE+0xc8>
   17ee4:	4681                	li	a3,0
   17ee6:	02f102a3          	sb	a5,37(sp)
   17eea:	0f300513          	li	a0,243
   17eee:	45a1                	li	a1,8
   17ef0:	4611                	li	a2,4
   17ef2:	4709                	li	a4,2
   17ef4:	07f00793          	li	a5,127
   17ef8:	00000073          	ecall
   17efc:	4609                	li	a2,2
   17efe:	04a7e363          	bltu	a5,a0,17f44 <_ZN20complex_dynamic_type3app17hcc70e1ddff29adbcE+0xf0>
   17f02:	4505                	li	a0,1
   17f04:	00a98023          	sb	a0,0(s3)
   17f08:	00b9a223          	sw	a1,4(s3)
   17f0c:	470d                	li	a4,3
   17f0e:	0f300513          	li	a0,243
   17f12:	4591                	li	a1,4
   17f14:	4601                	li	a2,0
   17f16:	4681                	li	a3,0
   17f18:	00000073          	ecall
   17f1c:	00c14483          	lbu	s1,12(sp)
   17f20:	4509                	li	a0,2
   17f22:	00a48a63          	beq	s1,a0,17f36 <_ZN20complex_dynamic_type3app17hcc70e1ddff29adbcE+0xe2>
   17f26:	0f300513          	li	a0,243
   17f2a:	45a1                	li	a1,8
   17f2c:	4601                	li	a2,0
   17f2e:	4681                	li	a3,0
   17f30:	8726                	mv	a4,s1
   17f32:	00000073          	ecall
   17f36:	50b6                	lw	ra,108(sp)
   17f38:	5426                	lw	s0,104(sp)
   17f3a:	5496                	lw	s1,100(sp)
   17f3c:	5906                	lw	s2,96(sp)
   17f3e:	49f6                	lw	s3,92(sp)
   17f40:	6165                	addi	sp,sp,112
   17f42:	8082                	ret
   17f44:	00c14703          	lbu	a4,12(sp)
   17f48:	00c71463          	bne	a4,a2,17f50 <_ZN20complex_dynamic_type3app17hcc70e1ddff29adbcE+0xfc>
   17f4c:	470d                	li	a4,3
   17f4e:	a81d                	j	17f84 <_ZN20complex_dynamic_type3app17hcc70e1ddff29adbcE+0x130>
   17f50:	0f300513          	li	a0,243
   17f54:	45a1                	li	a1,8
   17f56:	4601                	li	a2,0
   17f58:	4681                	li	a3,0
   17f5a:	00000073          	ecall
   17f5e:	02514703          	lbu	a4,37(sp)
   17f62:	4509                	li	a0,2
   17f64:	00a10623          	sb	a0,12(sp)
   17f68:	00a71e63          	bne	a4,a0,17f84 <_ZN20complex_dynamic_type3app17hcc70e1ddff29adbcE+0x130>
   17f6c:	00198513          	addi	a0,s3,1
   17f70:	03600613          	li	a2,54
   17f74:	85ca                	mv	a1,s2
   17f76:	00006097          	auipc	ra,0x6
   17f7a:	800080e7          	jalr	-2048(ra) # 1d776 <memcpy>
   17f7e:	00098023          	sb	zero,0(s3)
   17f82:	bf55                	j	17f36 <_ZN20complex_dynamic_type3app17hcc70e1ddff29adbcE+0xe2>
   17f84:	0f300513          	li	a0,243
   17f88:	4591                	li	a1,4
   17f8a:	4601                	li	a2,0
   17f8c:	4681                	li	a3,0
   17f8e:	00000073          	ecall
   17f92:	00c14483          	lbu	s1,12(sp)
   17f96:	00198513          	addi	a0,s3,1
   17f9a:	03600613          	li	a2,54
   17f9e:	85ca                	mv	a1,s2
   17fa0:	00005097          	auipc	ra,0x5
   17fa4:	7d6080e7          	jalr	2006(ra) # 1d776 <memcpy>
   17fa8:	4509                	li	a0,2
   17faa:	00098023          	sb	zero,0(s3)
   17fae:	f6a49ce3          	bne	s1,a0,17f26 <_ZN20complex_dynamic_type3app17hcc70e1ddff29adbcE+0xd2>
   17fb2:	b751                	j	17f36 <_ZN20complex_dynamic_type3app17hcc70e1ddff29adbcE+0xe2>

00017fb4 <_ZN20complex_dynamic_type3app17hcce07870fb4a913eE>:
   17fb4:	7175                	addi	sp,sp,-144
   17fb6:	c706                	sw	ra,140(sp)
   17fb8:	c522                	sw	s0,136(sp)
   17fba:	c326                	sw	s1,132(sp)
   17fbc:	c14a                	sw	s2,128(sp)
   17fbe:	dece                	sw	s3,124(sp)
   17fc0:	89aa                	mv	s3,a0
   17fc2:	4409                	li	s0,2
   17fc4:	00810123          	sb	s0,2(sp)
   17fc8:	00310493          	addi	s1,sp,3
   17fcc:	02700613          	li	a2,39
   17fd0:	8526                	mv	a0,s1
   17fd2:	00005097          	auipc	ra,0x5
   17fd6:	7a4080e7          	jalr	1956(ra) # 1d776 <memcpy>
   17fda:	02b10913          	addi	s2,sp,43
   17fde:	05100613          	li	a2,81
   17fe2:	854a                	mv	a0,s2
   17fe4:	4581                	li	a1,0
   17fe6:	00005097          	auipc	ra,0x5
   17fea:	724080e7          	jalr	1828(ra) # 1d70a <memset>
   17fee:	4581                	li	a1,0
   17ff0:	8626                	mv	a2,s1
   17ff2:	02810523          	sb	s0,42(sp)
   17ff6:	6505                	lui	a0,0x1
   17ff8:	4491                	li	s1,4
   17ffa:	a3650793          	addi	a5,a0,-1482 # a36 <.Lline_table_start1+0x80b>
   17ffe:	02700693          	li	a3,39
   18002:	4711                	li	a4,4
   18004:	853e                	mv	a0,a5
   18006:	00000073          	ecall
   1800a:	00851863          	bne	a0,s0,1801a <_ZN20complex_dynamic_type3app17hcce07870fb4a913eE+0x66>
   1800e:	4505                	li	a0,1
   18010:	00a98023          	sb	a0,0(s3)
   18014:	00b9a223          	sw	a1,4(s3)
   18018:	a0bd                	j	18086 <_ZN20complex_dynamic_type3app17hcce07870fb4a913eE+0xd2>
   1801a:	853e                	mv	a0,a5
   1801c:	864a                	mv	a2,s2
   1801e:	00910123          	sb	s1,2(sp)
   18022:	478d                	li	a5,3
   18024:	4591                	li	a1,4
   18026:	05100693          	li	a3,81
   1802a:	470d                	li	a4,3
   1802c:	00000073          	ecall
   18030:	00851d63          	bne	a0,s0,1804a <_ZN20complex_dynamic_type3app17hcce07870fb4a913eE+0x96>
   18034:	02a14703          	lbu	a4,42(sp)
   18038:	4505                	li	a0,1
   1803a:	4609                	li	a2,2
   1803c:	00a98023          	sb	a0,0(s3)
   18040:	00b9a223          	sw	a1,4(s3)
   18044:	02c71963          	bne	a4,a2,18076 <_ZN20complex_dynamic_type3app17hcce07870fb4a913eE+0xc2>
   18048:	a83d                	j	18086 <_ZN20complex_dynamic_type3app17hcce07870fb4a913eE+0xd2>
   1804a:	4581                	li	a1,0
   1804c:	4681                	li	a3,0
   1804e:	02f10523          	sb	a5,42(sp)
   18052:	6505                	lui	a0,0x1
   18054:	4611                	li	a2,4
   18056:	4709                	li	a4,2
   18058:	a3650513          	addi	a0,a0,-1482 # a36 <.Lline_table_start1+0x80b>
   1805c:	07f00793          	li	a5,127
   18060:	00000073          	ecall
   18064:	4609                	li	a2,2
   18066:	04a7e563          	bltu	a5,a0,180b0 <_ZN20complex_dynamic_type3app17hcce07870fb4a913eE+0xfc>
   1806a:	4505                	li	a0,1
   1806c:	00a98023          	sb	a0,0(s3)
   18070:	00b9a223          	sw	a1,4(s3)
   18074:	470d                	li	a4,3
   18076:	6505                	lui	a0,0x1
   18078:	a3650513          	addi	a0,a0,-1482 # a36 <.Lline_table_start1+0x80b>
   1807c:	4591                	li	a1,4
   1807e:	4601                	li	a2,0
   18080:	4681                	li	a3,0
   18082:	00000073          	ecall
   18086:	00214483          	lbu	s1,2(sp)
   1808a:	4509                	li	a0,2
   1808c:	00a48b63          	beq	s1,a0,180a2 <_ZN20complex_dynamic_type3app17hcce07870fb4a913eE+0xee>
   18090:	6505                	lui	a0,0x1
   18092:	a3650513          	addi	a0,a0,-1482 # a36 <.Lline_table_start1+0x80b>
   18096:	4581                	li	a1,0
   18098:	4601                	li	a2,0
   1809a:	4681                	li	a3,0
   1809c:	8726                	mv	a4,s1
   1809e:	00000073          	ecall
   180a2:	40ba                	lw	ra,140(sp)
   180a4:	442a                	lw	s0,136(sp)
   180a6:	449a                	lw	s1,132(sp)
   180a8:	490a                	lw	s2,128(sp)
   180aa:	59f6                	lw	s3,124(sp)
   180ac:	6149                	addi	sp,sp,144
   180ae:	8082                	ret
   180b0:	00214703          	lbu	a4,2(sp)
   180b4:	00c71463          	bne	a4,a2,180bc <_ZN20complex_dynamic_type3app17hcce07870fb4a913eE+0x108>
   180b8:	470d                	li	a4,3
   180ba:	a825                	j	180f2 <_ZN20complex_dynamic_type3app17hcce07870fb4a913eE+0x13e>
   180bc:	6505                	lui	a0,0x1
   180be:	a3650513          	addi	a0,a0,-1482 # a36 <.Lline_table_start1+0x80b>
   180c2:	4581                	li	a1,0
   180c4:	4601                	li	a2,0
   180c6:	4681                	li	a3,0
   180c8:	00000073          	ecall
   180cc:	02a14703          	lbu	a4,42(sp)
   180d0:	4509                	li	a0,2
   180d2:	00a10123          	sb	a0,2(sp)
   180d6:	00a71e63          	bne	a4,a0,180f2 <_ZN20complex_dynamic_type3app17hcce07870fb4a913eE+0x13e>
   180da:	00198513          	addi	a0,s3,1
   180de:	05100613          	li	a2,81
   180e2:	85ca                	mv	a1,s2
   180e4:	00005097          	auipc	ra,0x5
   180e8:	692080e7          	jalr	1682(ra) # 1d776 <memcpy>
   180ec:	00098023          	sb	zero,0(s3)
   180f0:	bf4d                	j	180a2 <_ZN20complex_dynamic_type3app17hcce07870fb4a913eE+0xee>
   180f2:	6505                	lui	a0,0x1
   180f4:	a3650513          	addi	a0,a0,-1482 # a36 <.Lline_table_start1+0x80b>
   180f8:	4591                	li	a1,4
   180fa:	4601                	li	a2,0
   180fc:	4681                	li	a3,0
   180fe:	00000073          	ecall
   18102:	00214483          	lbu	s1,2(sp)
   18106:	00198513          	addi	a0,s3,1
   1810a:	05100613          	li	a2,81
   1810e:	85ca                	mv	a1,s2
   18110:	00005097          	auipc	ra,0x5
   18114:	666080e7          	jalr	1638(ra) # 1d776 <memcpy>
   18118:	4509                	li	a0,2
   1811a:	00098023          	sb	zero,0(s3)
   1811e:	f6a499e3          	bne	s1,a0,18090 <_ZN20complex_dynamic_type3app17hcce07870fb4a913eE+0xdc>
   18122:	b741                	j	180a2 <_ZN20complex_dynamic_type3app17hcce07870fb4a913eE+0xee>

00018124 <_ZN20complex_dynamic_type3app17hd55cb212b7be8f80E>:
   18124:	7135                	addi	sp,sp,-160
   18126:	cf06                	sw	ra,156(sp)
   18128:	cd22                	sw	s0,152(sp)
   1812a:	cb26                	sw	s1,148(sp)
   1812c:	c94a                	sw	s2,144(sp)
   1812e:	c74e                	sw	s3,140(sp)
   18130:	89aa                	mv	s3,a0
   18132:	4409                	li	s0,2
   18134:	008101a3          	sb	s0,3(sp)
   18138:	0044                	addi	s1,sp,4
   1813a:	05500613          	li	a2,85
   1813e:	8526                	mv	a0,s1
   18140:	00005097          	auipc	ra,0x5
   18144:	636080e7          	jalr	1590(ra) # 1d776 <memcpy>
   18148:	05a10913          	addi	s2,sp,90
   1814c:	03200613          	li	a2,50
   18150:	854a                	mv	a0,s2
   18152:	4581                	li	a1,0
   18154:	00005097          	auipc	ra,0x5
   18158:	5b6080e7          	jalr	1462(ra) # 1d70a <memset>
   1815c:	8626                	mv	a2,s1
   1815e:	04810ca3          	sb	s0,89(sp)
   18162:	6509                	lui	a0,0x2
   18164:	4491                	li	s1,4
   18166:	45a1                	li	a1,8
   18168:	09550793          	addi	a5,a0,149 # 2095 <.Lline_table_start1+0x1e6a>
   1816c:	05500693          	li	a3,85
   18170:	4711                	li	a4,4
   18172:	853e                	mv	a0,a5
   18174:	00000073          	ecall
   18178:	00851863          	bne	a0,s0,18188 <_ZN20complex_dynamic_type3app17hd55cb212b7be8f80E+0x64>
   1817c:	4505                	li	a0,1
   1817e:	00a98023          	sb	a0,0(s3)
   18182:	00b9a223          	sw	a1,4(s3)
   18186:	a0bd                	j	181f4 <_ZN20complex_dynamic_type3app17hd55cb212b7be8f80E+0xd0>
   18188:	853e                	mv	a0,a5
   1818a:	864a                	mv	a2,s2
   1818c:	009101a3          	sb	s1,3(sp)
   18190:	478d                	li	a5,3
   18192:	45a1                	li	a1,8
   18194:	03200693          	li	a3,50
   18198:	470d                	li	a4,3
   1819a:	00000073          	ecall
   1819e:	00851d63          	bne	a0,s0,181b8 <_ZN20complex_dynamic_type3app17hd55cb212b7be8f80E+0x94>
   181a2:	05914703          	lbu	a4,89(sp)
   181a6:	4505                	li	a0,1
   181a8:	4609                	li	a2,2
   181aa:	00a98023          	sb	a0,0(s3)
   181ae:	00b9a223          	sw	a1,4(s3)
   181b2:	02c71963          	bne	a4,a2,181e4 <_ZN20complex_dynamic_type3app17hd55cb212b7be8f80E+0xc0>
   181b6:	a83d                	j	181f4 <_ZN20complex_dynamic_type3app17hd55cb212b7be8f80E+0xd0>
   181b8:	4681                	li	a3,0
   181ba:	04f10ca3          	sb	a5,89(sp)
   181be:	6509                	lui	a0,0x2
   181c0:	45a1                	li	a1,8
   181c2:	4621                	li	a2,8
   181c4:	4709                	li	a4,2
   181c6:	09550513          	addi	a0,a0,149 # 2095 <.Lline_table_start1+0x1e6a>
   181ca:	07f00793          	li	a5,127
   181ce:	00000073          	ecall
   181d2:	4609                	li	a2,2
   181d4:	04a7e563          	bltu	a5,a0,1821e <_ZN20complex_dynamic_type3app17hd55cb212b7be8f80E+0xfa>
   181d8:	4505                	li	a0,1
   181da:	00a98023          	sb	a0,0(s3)
   181de:	00b9a223          	sw	a1,4(s3)
   181e2:	470d                	li	a4,3
   181e4:	6509                	lui	a0,0x2
   181e6:	09550513          	addi	a0,a0,149 # 2095 <.Lline_table_start1+0x1e6a>
   181ea:	45a1                	li	a1,8
   181ec:	4601                	li	a2,0
   181ee:	4681                	li	a3,0
   181f0:	00000073          	ecall
   181f4:	00314483          	lbu	s1,3(sp)
   181f8:	4509                	li	a0,2
   181fa:	00a48b63          	beq	s1,a0,18210 <_ZN20complex_dynamic_type3app17hd55cb212b7be8f80E+0xec>
   181fe:	6509                	lui	a0,0x2
   18200:	09550513          	addi	a0,a0,149 # 2095 <.Lline_table_start1+0x1e6a>
   18204:	45a1                	li	a1,8
   18206:	4601                	li	a2,0
   18208:	4681                	li	a3,0
   1820a:	8726                	mv	a4,s1
   1820c:	00000073          	ecall
   18210:	40fa                	lw	ra,156(sp)
   18212:	446a                	lw	s0,152(sp)
   18214:	44da                	lw	s1,148(sp)
   18216:	494a                	lw	s2,144(sp)
   18218:	49ba                	lw	s3,140(sp)
   1821a:	610d                	addi	sp,sp,160
   1821c:	8082                	ret
   1821e:	00314703          	lbu	a4,3(sp)
   18222:	00c71463          	bne	a4,a2,1822a <_ZN20complex_dynamic_type3app17hd55cb212b7be8f80E+0x106>
   18226:	470d                	li	a4,3
   18228:	a825                	j	18260 <_ZN20complex_dynamic_type3app17hd55cb212b7be8f80E+0x13c>
   1822a:	6509                	lui	a0,0x2
   1822c:	09550513          	addi	a0,a0,149 # 2095 <.Lline_table_start1+0x1e6a>
   18230:	45a1                	li	a1,8
   18232:	4601                	li	a2,0
   18234:	4681                	li	a3,0
   18236:	00000073          	ecall
   1823a:	05914703          	lbu	a4,89(sp)
   1823e:	4509                	li	a0,2
   18240:	00a101a3          	sb	a0,3(sp)
   18244:	00a71e63          	bne	a4,a0,18260 <_ZN20complex_dynamic_type3app17hd55cb212b7be8f80E+0x13c>
   18248:	00198513          	addi	a0,s3,1
   1824c:	03200613          	li	a2,50
   18250:	85ca                	mv	a1,s2
   18252:	00005097          	auipc	ra,0x5
   18256:	524080e7          	jalr	1316(ra) # 1d776 <memcpy>
   1825a:	00098023          	sb	zero,0(s3)
   1825e:	bf4d                	j	18210 <_ZN20complex_dynamic_type3app17hd55cb212b7be8f80E+0xec>
   18260:	6509                	lui	a0,0x2
   18262:	09550513          	addi	a0,a0,149 # 2095 <.Lline_table_start1+0x1e6a>
   18266:	45a1                	li	a1,8
   18268:	4601                	li	a2,0
   1826a:	4681                	li	a3,0
   1826c:	00000073          	ecall
   18270:	00314483          	lbu	s1,3(sp)
   18274:	00198513          	addi	a0,s3,1
   18278:	03200613          	li	a2,50
   1827c:	85ca                	mv	a1,s2
   1827e:	00005097          	auipc	ra,0x5
   18282:	4f8080e7          	jalr	1272(ra) # 1d776 <memcpy>
   18286:	4509                	li	a0,2
   18288:	00098023          	sb	zero,0(s3)
   1828c:	f6a499e3          	bne	s1,a0,181fe <_ZN20complex_dynamic_type3app17hd55cb212b7be8f80E+0xda>
   18290:	b741                	j	18210 <_ZN20complex_dynamic_type3app17hd55cb212b7be8f80E+0xec>

00018292 <_ZN20complex_dynamic_type3app17hd9441c7b2559392dE>:
   18292:	7119                	addi	sp,sp,-128
   18294:	de86                	sw	ra,124(sp)
   18296:	dca2                	sw	s0,120(sp)
   18298:	daa6                	sw	s1,116(sp)
   1829a:	d8ca                	sw	s2,112(sp)
   1829c:	d6ce                	sw	s3,108(sp)
   1829e:	89aa                	mv	s3,a0
   182a0:	4409                	li	s0,2
   182a2:	00810523          	sb	s0,10(sp)
   182a6:	00b10493          	addi	s1,sp,11
   182aa:	05100613          	li	a2,81
   182ae:	8526                	mv	a0,s1
   182b0:	00005097          	auipc	ra,0x5
   182b4:	4c6080e7          	jalr	1222(ra) # 1d776 <memcpy>
   182b8:	05d10913          	addi	s2,sp,93
   182bc:	463d                	li	a2,15
   182be:	854a                	mv	a0,s2
   182c0:	4581                	li	a1,0
   182c2:	00005097          	auipc	ra,0x5
   182c6:	448080e7          	jalr	1096(ra) # 1d70a <memset>
   182ca:	4581                	li	a1,0
   182cc:	8626                	mv	a2,s1
   182ce:	04810e23          	sb	s0,92(sp)
   182d2:	6505                	lui	a0,0x1
   182d4:	4491                	li	s1,4
   182d6:	3bf50793          	addi	a5,a0,959 # 13bf <.Lline_table_start1+0x1194>
   182da:	05100693          	li	a3,81
   182de:	4711                	li	a4,4
   182e0:	853e                	mv	a0,a5
   182e2:	00000073          	ecall
   182e6:	00851863          	bne	a0,s0,182f6 <_ZN20complex_dynamic_type3app17hd9441c7b2559392dE+0x64>
   182ea:	4505                	li	a0,1
   182ec:	00a98023          	sb	a0,0(s3)
   182f0:	00b9a223          	sw	a1,4(s3)
   182f4:	a0b5                	j	18360 <_ZN20complex_dynamic_type3app17hd9441c7b2559392dE+0xce>
   182f6:	853e                	mv	a0,a5
   182f8:	864a                	mv	a2,s2
   182fa:	00910523          	sb	s1,10(sp)
   182fe:	478d                	li	a5,3
   18300:	458d                	li	a1,3
   18302:	46bd                	li	a3,15
   18304:	470d                	li	a4,3
   18306:	00000073          	ecall
   1830a:	00851d63          	bne	a0,s0,18324 <_ZN20complex_dynamic_type3app17hd9441c7b2559392dE+0x92>
   1830e:	05c14703          	lbu	a4,92(sp)
   18312:	4505                	li	a0,1
   18314:	4609                	li	a2,2
   18316:	00a98023          	sb	a0,0(s3)
   1831a:	00b9a223          	sw	a1,4(s3)
   1831e:	02c71963          	bne	a4,a2,18350 <_ZN20complex_dynamic_type3app17hd9441c7b2559392dE+0xbe>
   18322:	a83d                	j	18360 <_ZN20complex_dynamic_type3app17hd9441c7b2559392dE+0xce>
   18324:	4581                	li	a1,0
   18326:	4681                	li	a3,0
   18328:	04f10e23          	sb	a5,92(sp)
   1832c:	6505                	lui	a0,0x1
   1832e:	460d                	li	a2,3
   18330:	4709                	li	a4,2
   18332:	3bf50513          	addi	a0,a0,959 # 13bf <.Lline_table_start1+0x1194>
   18336:	07f00793          	li	a5,127
   1833a:	00000073          	ecall
   1833e:	4609                	li	a2,2
   18340:	04a7e563          	bltu	a5,a0,1838a <_ZN20complex_dynamic_type3app17hd9441c7b2559392dE+0xf8>
   18344:	4505                	li	a0,1
   18346:	00a98023          	sb	a0,0(s3)
   1834a:	00b9a223          	sw	a1,4(s3)
   1834e:	470d                	li	a4,3
   18350:	6505                	lui	a0,0x1
   18352:	3bf50513          	addi	a0,a0,959 # 13bf <.Lline_table_start1+0x1194>
   18356:	458d                	li	a1,3
   18358:	4601                	li	a2,0
   1835a:	4681                	li	a3,0
   1835c:	00000073          	ecall
   18360:	00a14483          	lbu	s1,10(sp)
   18364:	4509                	li	a0,2
   18366:	00a48b63          	beq	s1,a0,1837c <_ZN20complex_dynamic_type3app17hd9441c7b2559392dE+0xea>
   1836a:	6505                	lui	a0,0x1
   1836c:	3bf50513          	addi	a0,a0,959 # 13bf <.Lline_table_start1+0x1194>
   18370:	4581                	li	a1,0
   18372:	4601                	li	a2,0
   18374:	4681                	li	a3,0
   18376:	8726                	mv	a4,s1
   18378:	00000073          	ecall
   1837c:	50f6                	lw	ra,124(sp)
   1837e:	5466                	lw	s0,120(sp)
   18380:	54d6                	lw	s1,116(sp)
   18382:	5946                	lw	s2,112(sp)
   18384:	59b6                	lw	s3,108(sp)
   18386:	6109                	addi	sp,sp,128
   18388:	8082                	ret
   1838a:	00a14703          	lbu	a4,10(sp)
   1838e:	00c71463          	bne	a4,a2,18396 <_ZN20complex_dynamic_type3app17hd9441c7b2559392dE+0x104>
   18392:	470d                	li	a4,3
   18394:	a81d                	j	183ca <_ZN20complex_dynamic_type3app17hd9441c7b2559392dE+0x138>
   18396:	6505                	lui	a0,0x1
   18398:	3bf50513          	addi	a0,a0,959 # 13bf <.Lline_table_start1+0x1194>
   1839c:	4581                	li	a1,0
   1839e:	4601                	li	a2,0
   183a0:	4681                	li	a3,0
   183a2:	00000073          	ecall
   183a6:	05c14703          	lbu	a4,92(sp)
   183aa:	4509                	li	a0,2
   183ac:	00a10523          	sb	a0,10(sp)
   183b0:	00a71d63          	bne	a4,a0,183ca <_ZN20complex_dynamic_type3app17hd9441c7b2559392dE+0x138>
   183b4:	00198513          	addi	a0,s3,1
   183b8:	463d                	li	a2,15
   183ba:	85ca                	mv	a1,s2
   183bc:	00005097          	auipc	ra,0x5
   183c0:	3ba080e7          	jalr	954(ra) # 1d776 <memcpy>
   183c4:	00098023          	sb	zero,0(s3)
   183c8:	bf55                	j	1837c <_ZN20complex_dynamic_type3app17hd9441c7b2559392dE+0xea>
   183ca:	6505                	lui	a0,0x1
   183cc:	3bf50513          	addi	a0,a0,959 # 13bf <.Lline_table_start1+0x1194>
   183d0:	458d                	li	a1,3
   183d2:	4601                	li	a2,0
   183d4:	4681                	li	a3,0
   183d6:	00000073          	ecall
   183da:	00a14483          	lbu	s1,10(sp)
   183de:	00198513          	addi	a0,s3,1
   183e2:	463d                	li	a2,15
   183e4:	85ca                	mv	a1,s2
   183e6:	00005097          	auipc	ra,0x5
   183ea:	390080e7          	jalr	912(ra) # 1d776 <memcpy>
   183ee:	4509                	li	a0,2
   183f0:	00098023          	sb	zero,0(s3)
   183f4:	f6a49be3          	bne	s1,a0,1836a <_ZN20complex_dynamic_type3app17hd9441c7b2559392dE+0xd8>
   183f8:	b751                	j	1837c <_ZN20complex_dynamic_type3app17hd9441c7b2559392dE+0xea>

000183fa <_ZN20complex_dynamic_type3app17he4fa84b39b6c0484E>:
   183fa:	7171                	addi	sp,sp,-176
   183fc:	d706                	sw	ra,172(sp)
   183fe:	d522                	sw	s0,168(sp)
   18400:	d326                	sw	s1,164(sp)
   18402:	d14a                	sw	s2,160(sp)
   18404:	cf4e                	sw	s3,156(sp)
   18406:	89aa                	mv	s3,a0
   18408:	4409                	li	s0,2
   1840a:	008105a3          	sb	s0,11(sp)
   1840e:	0064                	addi	s1,sp,12
   18410:	06300613          	li	a2,99
   18414:	8526                	mv	a0,s1
   18416:	00005097          	auipc	ra,0x5
   1841a:	360080e7          	jalr	864(ra) # 1d776 <memcpy>
   1841e:	07010913          	addi	s2,sp,112
   18422:	02c00613          	li	a2,44
   18426:	854a                	mv	a0,s2
   18428:	4581                	li	a1,0
   1842a:	00005097          	auipc	ra,0x5
   1842e:	2e0080e7          	jalr	736(ra) # 1d70a <memset>
   18432:	8626                	mv	a2,s1
   18434:	068107a3          	sb	s0,111(sp)
   18438:	4791                	li	a5,4
   1843a:	4561                	li	a0,24
   1843c:	4595                	li	a1,5
   1843e:	06300693          	li	a3,99
   18442:	4711                	li	a4,4
   18444:	00000073          	ecall
   18448:	00851863          	bne	a0,s0,18458 <_ZN20complex_dynamic_type3app17he4fa84b39b6c0484E+0x5e>
   1844c:	4505                	li	a0,1
   1844e:	00a98023          	sb	a0,0(s3)
   18452:	00b9a223          	sw	a1,4(s3)
   18456:	a09d                	j	184bc <_ZN20complex_dynamic_type3app17he4fa84b39b6c0484E+0xc2>
   18458:	864a                	mv	a2,s2
   1845a:	00f105a3          	sb	a5,11(sp)
   1845e:	478d                	li	a5,3
   18460:	4561                	li	a0,24
   18462:	458d                	li	a1,3
   18464:	02c00693          	li	a3,44
   18468:	470d                	li	a4,3
   1846a:	00000073          	ecall
   1846e:	00851d63          	bne	a0,s0,18488 <_ZN20complex_dynamic_type3app17he4fa84b39b6c0484E+0x8e>
   18472:	06f14703          	lbu	a4,111(sp)
   18476:	4505                	li	a0,1
   18478:	4609                	li	a2,2
   1847a:	00a98023          	sb	a0,0(s3)
   1847e:	00b9a223          	sw	a1,4(s3)
   18482:	02c71763          	bne	a4,a2,184b0 <_ZN20complex_dynamic_type3app17he4fa84b39b6c0484E+0xb6>
   18486:	a81d                	j	184bc <_ZN20complex_dynamic_type3app17he4fa84b39b6c0484E+0xc2>
   18488:	4681                	li	a3,0
   1848a:	06f107a3          	sb	a5,111(sp)
   1848e:	4561                	li	a0,24
   18490:	4595                	li	a1,5
   18492:	460d                	li	a2,3
   18494:	4709                	li	a4,2
   18496:	07f00793          	li	a5,127
   1849a:	00000073          	ecall
   1849e:	4609                	li	a2,2
   184a0:	04a7e163          	bltu	a5,a0,184e2 <_ZN20complex_dynamic_type3app17he4fa84b39b6c0484E+0xe8>
   184a4:	4505                	li	a0,1
   184a6:	00a98023          	sb	a0,0(s3)
   184aa:	00b9a223          	sw	a1,4(s3)
   184ae:	470d                	li	a4,3
   184b0:	4561                	li	a0,24
   184b2:	458d                	li	a1,3
   184b4:	4601                	li	a2,0
   184b6:	4681                	li	a3,0
   184b8:	00000073          	ecall
   184bc:	00b14483          	lbu	s1,11(sp)
   184c0:	4509                	li	a0,2
   184c2:	00a48963          	beq	s1,a0,184d4 <_ZN20complex_dynamic_type3app17he4fa84b39b6c0484E+0xda>
   184c6:	4561                	li	a0,24
   184c8:	4595                	li	a1,5
   184ca:	4601                	li	a2,0
   184cc:	4681                	li	a3,0
   184ce:	8726                	mv	a4,s1
   184d0:	00000073          	ecall
   184d4:	50ba                	lw	ra,172(sp)
   184d6:	542a                	lw	s0,168(sp)
   184d8:	549a                	lw	s1,164(sp)
   184da:	590a                	lw	s2,160(sp)
   184dc:	49fa                	lw	s3,156(sp)
   184de:	614d                	addi	sp,sp,176
   184e0:	8082                	ret
   184e2:	00b14703          	lbu	a4,11(sp)
   184e6:	00c71463          	bne	a4,a2,184ee <_ZN20complex_dynamic_type3app17he4fa84b39b6c0484E+0xf4>
   184ea:	470d                	li	a4,3
   184ec:	a815                	j	18520 <_ZN20complex_dynamic_type3app17he4fa84b39b6c0484E+0x126>
   184ee:	4561                	li	a0,24
   184f0:	4595                	li	a1,5
   184f2:	4601                	li	a2,0
   184f4:	4681                	li	a3,0
   184f6:	00000073          	ecall
   184fa:	06f14703          	lbu	a4,111(sp)
   184fe:	4509                	li	a0,2
   18500:	00a105a3          	sb	a0,11(sp)
   18504:	00a71e63          	bne	a4,a0,18520 <_ZN20complex_dynamic_type3app17he4fa84b39b6c0484E+0x126>
   18508:	00198513          	addi	a0,s3,1
   1850c:	02c00613          	li	a2,44
   18510:	85ca                	mv	a1,s2
   18512:	00005097          	auipc	ra,0x5
   18516:	264080e7          	jalr	612(ra) # 1d776 <memcpy>
   1851a:	00098023          	sb	zero,0(s3)
   1851e:	bf5d                	j	184d4 <_ZN20complex_dynamic_type3app17he4fa84b39b6c0484E+0xda>
   18520:	4561                	li	a0,24
   18522:	458d                	li	a1,3
   18524:	4601                	li	a2,0
   18526:	4681                	li	a3,0
   18528:	00000073          	ecall
   1852c:	00b14483          	lbu	s1,11(sp)
   18530:	00198513          	addi	a0,s3,1
   18534:	02c00613          	li	a2,44
   18538:	85ca                	mv	a1,s2
   1853a:	00005097          	auipc	ra,0x5
   1853e:	23c080e7          	jalr	572(ra) # 1d776 <memcpy>
   18542:	4509                	li	a0,2
   18544:	00098023          	sb	zero,0(s3)
   18548:	f6a49fe3          	bne	s1,a0,184c6 <_ZN20complex_dynamic_type3app17he4fa84b39b6c0484E+0xcc>
   1854c:	b761                	j	184d4 <_ZN20complex_dynamic_type3app17he4fa84b39b6c0484E+0xda>

0001854e <_ZN20complex_dynamic_type3app17heac8373d56adee77E>:
   1854e:	7159                	addi	sp,sp,-112
   18550:	d686                	sw	ra,108(sp)
   18552:	d4a2                	sw	s0,104(sp)
   18554:	d2a6                	sw	s1,100(sp)
   18556:	d0ca                	sw	s2,96(sp)
   18558:	cece                	sw	s3,92(sp)
   1855a:	89aa                	mv	s3,a0
   1855c:	4409                	li	s0,2
   1855e:	008104a3          	sb	s0,9(sp)
   18562:	00a10493          	addi	s1,sp,10
   18566:	02c00613          	li	a2,44
   1856a:	8526                	mv	a0,s1
   1856c:	00005097          	auipc	ra,0x5
   18570:	20a080e7          	jalr	522(ra) # 1d776 <memcpy>
   18574:	03710913          	addi	s2,sp,55
   18578:	02500613          	li	a2,37
   1857c:	854a                	mv	a0,s2
   1857e:	4581                	li	a1,0
   18580:	00005097          	auipc	ra,0x5
   18584:	18a080e7          	jalr	394(ra) # 1d70a <memset>
   18588:	8626                	mv	a2,s1
   1858a:	02810b23          	sb	s0,54(sp)
   1858e:	4791                	li	a5,4
   18590:	77f00513          	li	a0,1919
   18594:	458d                	li	a1,3
   18596:	02c00693          	li	a3,44
   1859a:	4711                	li	a4,4
   1859c:	00000073          	ecall
   185a0:	00851863          	bne	a0,s0,185b0 <_ZN20complex_dynamic_type3app17heac8373d56adee77E+0x62>
   185a4:	4505                	li	a0,1
   185a6:	00a98023          	sb	a0,0(s3)
   185aa:	00b9a223          	sw	a1,4(s3)
   185ae:	a0b5                	j	1861a <_ZN20complex_dynamic_type3app17heac8373d56adee77E+0xcc>
   185b0:	4581                	li	a1,0
   185b2:	864a                	mv	a2,s2
   185b4:	00f104a3          	sb	a5,9(sp)
   185b8:	478d                	li	a5,3
   185ba:	77f00513          	li	a0,1919
   185be:	02500693          	li	a3,37
   185c2:	470d                	li	a4,3
   185c4:	00000073          	ecall
   185c8:	00851d63          	bne	a0,s0,185e2 <_ZN20complex_dynamic_type3app17heac8373d56adee77E+0x94>
   185cc:	03614703          	lbu	a4,54(sp)
   185d0:	4505                	li	a0,1
   185d2:	4609                	li	a2,2
   185d4:	00a98023          	sb	a0,0(s3)
   185d8:	00b9a223          	sw	a1,4(s3)
   185dc:	02c71863          	bne	a4,a2,1860c <_ZN20complex_dynamic_type3app17heac8373d56adee77E+0xbe>
   185e0:	a82d                	j	1861a <_ZN20complex_dynamic_type3app17heac8373d56adee77E+0xcc>
   185e2:	4601                	li	a2,0
   185e4:	4681                	li	a3,0
   185e6:	02f10b23          	sb	a5,54(sp)
   185ea:	77f00513          	li	a0,1919
   185ee:	458d                	li	a1,3
   185f0:	4709                	li	a4,2
   185f2:	07f00793          	li	a5,127
   185f6:	00000073          	ecall
   185fa:	4609                	li	a2,2
   185fc:	04a7e363          	bltu	a5,a0,18642 <_ZN20complex_dynamic_type3app17heac8373d56adee77E+0xf4>
   18600:	4505                	li	a0,1
   18602:	00a98023          	sb	a0,0(s3)
   18606:	00b9a223          	sw	a1,4(s3)
   1860a:	470d                	li	a4,3
   1860c:	77f00513          	li	a0,1919
   18610:	4581                	li	a1,0
   18612:	4601                	li	a2,0
   18614:	4681                	li	a3,0
   18616:	00000073          	ecall
   1861a:	00914483          	lbu	s1,9(sp)
   1861e:	4509                	li	a0,2
   18620:	00a48a63          	beq	s1,a0,18634 <_ZN20complex_dynamic_type3app17heac8373d56adee77E+0xe6>
   18624:	77f00513          	li	a0,1919
   18628:	458d                	li	a1,3
   1862a:	4601                	li	a2,0
   1862c:	4681                	li	a3,0
   1862e:	8726                	mv	a4,s1
   18630:	00000073          	ecall
   18634:	50b6                	lw	ra,108(sp)
   18636:	5426                	lw	s0,104(sp)
   18638:	5496                	lw	s1,100(sp)
   1863a:	5906                	lw	s2,96(sp)
   1863c:	49f6                	lw	s3,92(sp)
   1863e:	6165                	addi	sp,sp,112
   18640:	8082                	ret
   18642:	00914703          	lbu	a4,9(sp)
   18646:	00c71463          	bne	a4,a2,1864e <_ZN20complex_dynamic_type3app17heac8373d56adee77E+0x100>
   1864a:	470d                	li	a4,3
   1864c:	a81d                	j	18682 <_ZN20complex_dynamic_type3app17heac8373d56adee77E+0x134>
   1864e:	77f00513          	li	a0,1919
   18652:	458d                	li	a1,3
   18654:	4601                	li	a2,0
   18656:	4681                	li	a3,0
   18658:	00000073          	ecall
   1865c:	03614703          	lbu	a4,54(sp)
   18660:	4509                	li	a0,2
   18662:	00a104a3          	sb	a0,9(sp)
   18666:	00a71e63          	bne	a4,a0,18682 <_ZN20complex_dynamic_type3app17heac8373d56adee77E+0x134>
   1866a:	00198513          	addi	a0,s3,1
   1866e:	02500613          	li	a2,37
   18672:	85ca                	mv	a1,s2
   18674:	00005097          	auipc	ra,0x5
   18678:	102080e7          	jalr	258(ra) # 1d776 <memcpy>
   1867c:	00098023          	sb	zero,0(s3)
   18680:	bf55                	j	18634 <_ZN20complex_dynamic_type3app17heac8373d56adee77E+0xe6>
   18682:	77f00513          	li	a0,1919
   18686:	4581                	li	a1,0
   18688:	4601                	li	a2,0
   1868a:	4681                	li	a3,0
   1868c:	00000073          	ecall
   18690:	00914483          	lbu	s1,9(sp)
   18694:	00198513          	addi	a0,s3,1
   18698:	02500613          	li	a2,37
   1869c:	85ca                	mv	a1,s2
   1869e:	00005097          	auipc	ra,0x5
   186a2:	0d8080e7          	jalr	216(ra) # 1d776 <memcpy>
   186a6:	4509                	li	a0,2
   186a8:	00098023          	sb	zero,0(s3)
   186ac:	f6a49ce3          	bne	s1,a0,18624 <_ZN20complex_dynamic_type3app17heac8373d56adee77E+0xd6>
   186b0:	b751                	j	18634 <_ZN20complex_dynamic_type3app17heac8373d56adee77E+0xe6>

000186b2 <_ZN20complex_dynamic_type3app17head6ea332cf9fcdeE>:
   186b2:	7119                	addi	sp,sp,-128
   186b4:	de86                	sw	ra,124(sp)
   186b6:	dca2                	sw	s0,120(sp)
   186b8:	daa6                	sw	s1,116(sp)
   186ba:	d8ca                	sw	s2,112(sp)
   186bc:	d6ce                	sw	s3,108(sp)
   186be:	89aa                	mv	s3,a0
   186c0:	4409                	li	s0,2
   186c2:	008107a3          	sb	s0,15(sp)
   186c6:	0804                	addi	s1,sp,16
   186c8:	03f00613          	li	a2,63
   186cc:	8526                	mv	a0,s1
   186ce:	00005097          	auipc	ra,0x5
   186d2:	0a8080e7          	jalr	168(ra) # 1d776 <memcpy>
   186d6:	05010913          	addi	s2,sp,80
   186da:	4671                	li	a2,28
   186dc:	854a                	mv	a0,s2
   186de:	4581                	li	a1,0
   186e0:	00005097          	auipc	ra,0x5
   186e4:	02a080e7          	jalr	42(ra) # 1d70a <memset>
   186e8:	8626                	mv	a2,s1
   186ea:	048107a3          	sb	s0,79(sp)
   186ee:	6505                	lui	a0,0x1
   186f0:	4491                	li	s1,4
   186f2:	4595                	li	a1,5
   186f4:	69450793          	addi	a5,a0,1684 # 1694 <.Lline_table_start1+0x1469>
   186f8:	03f00693          	li	a3,63
   186fc:	4711                	li	a4,4
   186fe:	853e                	mv	a0,a5
   18700:	00000073          	ecall
   18704:	00851863          	bne	a0,s0,18714 <_ZN20complex_dynamic_type3app17head6ea332cf9fcdeE+0x62>
   18708:	4505                	li	a0,1
   1870a:	00a98023          	sb	a0,0(s3)
   1870e:	00b9a223          	sw	a1,4(s3)
   18712:	a0b5                	j	1877e <_ZN20complex_dynamic_type3app17head6ea332cf9fcdeE+0xcc>
   18714:	853e                	mv	a0,a5
   18716:	864a                	mv	a2,s2
   18718:	009107a3          	sb	s1,15(sp)
   1871c:	478d                	li	a5,3
   1871e:	45a5                	li	a1,9
   18720:	46f1                	li	a3,28
   18722:	470d                	li	a4,3
   18724:	00000073          	ecall
   18728:	00851d63          	bne	a0,s0,18742 <_ZN20complex_dynamic_type3app17head6ea332cf9fcdeE+0x90>
   1872c:	04f14703          	lbu	a4,79(sp)
   18730:	4505                	li	a0,1
   18732:	4609                	li	a2,2
   18734:	00a98023          	sb	a0,0(s3)
   18738:	00b9a223          	sw	a1,4(s3)
   1873c:	02c71963          	bne	a4,a2,1876e <_ZN20complex_dynamic_type3app17head6ea332cf9fcdeE+0xbc>
   18740:	a83d                	j	1877e <_ZN20complex_dynamic_type3app17head6ea332cf9fcdeE+0xcc>
   18742:	4681                	li	a3,0
   18744:	04f107a3          	sb	a5,79(sp)
   18748:	6505                	lui	a0,0x1
   1874a:	4595                	li	a1,5
   1874c:	4625                	li	a2,9
   1874e:	4709                	li	a4,2
   18750:	69450513          	addi	a0,a0,1684 # 1694 <.Lline_table_start1+0x1469>
   18754:	07f00793          	li	a5,127
   18758:	00000073          	ecall
   1875c:	4609                	li	a2,2
   1875e:	04a7e563          	bltu	a5,a0,187a8 <_ZN20complex_dynamic_type3app17head6ea332cf9fcdeE+0xf6>
   18762:	4505                	li	a0,1
   18764:	00a98023          	sb	a0,0(s3)
   18768:	00b9a223          	sw	a1,4(s3)
   1876c:	470d                	li	a4,3
   1876e:	6505                	lui	a0,0x1
   18770:	69450513          	addi	a0,a0,1684 # 1694 <.Lline_table_start1+0x1469>
   18774:	45a5                	li	a1,9
   18776:	4601                	li	a2,0
   18778:	4681                	li	a3,0
   1877a:	00000073          	ecall
   1877e:	00f14483          	lbu	s1,15(sp)
   18782:	4509                	li	a0,2
   18784:	00a48b63          	beq	s1,a0,1879a <_ZN20complex_dynamic_type3app17head6ea332cf9fcdeE+0xe8>
   18788:	6505                	lui	a0,0x1
   1878a:	69450513          	addi	a0,a0,1684 # 1694 <.Lline_table_start1+0x1469>
   1878e:	4595                	li	a1,5
   18790:	4601                	li	a2,0
   18792:	4681                	li	a3,0
   18794:	8726                	mv	a4,s1
   18796:	00000073          	ecall
   1879a:	50f6                	lw	ra,124(sp)
   1879c:	5466                	lw	s0,120(sp)
   1879e:	54d6                	lw	s1,116(sp)
   187a0:	5946                	lw	s2,112(sp)
   187a2:	59b6                	lw	s3,108(sp)
   187a4:	6109                	addi	sp,sp,128
   187a6:	8082                	ret
   187a8:	00f14703          	lbu	a4,15(sp)
   187ac:	00c71463          	bne	a4,a2,187b4 <_ZN20complex_dynamic_type3app17head6ea332cf9fcdeE+0x102>
   187b0:	470d                	li	a4,3
   187b2:	a81d                	j	187e8 <_ZN20complex_dynamic_type3app17head6ea332cf9fcdeE+0x136>
   187b4:	6505                	lui	a0,0x1
   187b6:	69450513          	addi	a0,a0,1684 # 1694 <.Lline_table_start1+0x1469>
   187ba:	4595                	li	a1,5
   187bc:	4601                	li	a2,0
   187be:	4681                	li	a3,0
   187c0:	00000073          	ecall
   187c4:	04f14703          	lbu	a4,79(sp)
   187c8:	4509                	li	a0,2
   187ca:	00a107a3          	sb	a0,15(sp)
   187ce:	00a71d63          	bne	a4,a0,187e8 <_ZN20complex_dynamic_type3app17head6ea332cf9fcdeE+0x136>
   187d2:	00198513          	addi	a0,s3,1
   187d6:	4671                	li	a2,28
   187d8:	85ca                	mv	a1,s2
   187da:	00005097          	auipc	ra,0x5
   187de:	f9c080e7          	jalr	-100(ra) # 1d776 <memcpy>
   187e2:	00098023          	sb	zero,0(s3)
   187e6:	bf55                	j	1879a <_ZN20complex_dynamic_type3app17head6ea332cf9fcdeE+0xe8>
   187e8:	6505                	lui	a0,0x1
   187ea:	69450513          	addi	a0,a0,1684 # 1694 <.Lline_table_start1+0x1469>
   187ee:	45a5                	li	a1,9
   187f0:	4601                	li	a2,0
   187f2:	4681                	li	a3,0
   187f4:	00000073          	ecall
   187f8:	00f14483          	lbu	s1,15(sp)
   187fc:	00198513          	addi	a0,s3,1
   18800:	4671                	li	a2,28
   18802:	85ca                	mv	a1,s2
   18804:	00005097          	auipc	ra,0x5
   18808:	f72080e7          	jalr	-142(ra) # 1d776 <memcpy>
   1880c:	4509                	li	a0,2
   1880e:	00098023          	sb	zero,0(s3)
   18812:	f6a49be3          	bne	s1,a0,18788 <_ZN20complex_dynamic_type3app17head6ea332cf9fcdeE+0xd6>
   18816:	b751                	j	1879a <_ZN20complex_dynamic_type3app17head6ea332cf9fcdeE+0xe8>

00018818 <_ZN20complex_dynamic_type3app17heb2674772ffcc96dE>:
   18818:	7119                	addi	sp,sp,-128
   1881a:	de86                	sw	ra,124(sp)
   1881c:	dca2                	sw	s0,120(sp)
   1881e:	daa6                	sw	s1,116(sp)
   18820:	d8ca                	sw	s2,112(sp)
   18822:	d6ce                	sw	s3,108(sp)
   18824:	89aa                	mv	s3,a0
   18826:	4409                	li	s0,2
   18828:	008101a3          	sb	s0,3(sp)
   1882c:	0044                	addi	s1,sp,4
   1882e:	04400613          	li	a2,68
   18832:	8526                	mv	a0,s1
   18834:	00005097          	auipc	ra,0x5
   18838:	f42080e7          	jalr	-190(ra) # 1d776 <memcpy>
   1883c:	04910913          	addi	s2,sp,73
   18840:	02300613          	li	a2,35
   18844:	854a                	mv	a0,s2
   18846:	4581                	li	a1,0
   18848:	00005097          	auipc	ra,0x5
   1884c:	ec2080e7          	jalr	-318(ra) # 1d70a <memset>
   18850:	8626                	mv	a2,s1
   18852:	04810423          	sb	s0,72(sp)
   18856:	6505                	lui	a0,0x1
   18858:	4491                	li	s1,4
   1885a:	4599                	li	a1,6
   1885c:	9bf50793          	addi	a5,a0,-1601 # 9bf <.Lline_table_start1+0x794>
   18860:	04400693          	li	a3,68
   18864:	4711                	li	a4,4
   18866:	853e                	mv	a0,a5
   18868:	00000073          	ecall
   1886c:	00851863          	bne	a0,s0,1887c <_ZN20complex_dynamic_type3app17heb2674772ffcc96dE+0x64>
   18870:	4505                	li	a0,1
   18872:	00a98023          	sb	a0,0(s3)
   18876:	00b9a223          	sw	a1,4(s3)
   1887a:	a0bd                	j	188e8 <_ZN20complex_dynamic_type3app17heb2674772ffcc96dE+0xd0>
   1887c:	853e                	mv	a0,a5
   1887e:	864a                	mv	a2,s2
   18880:	009101a3          	sb	s1,3(sp)
   18884:	478d                	li	a5,3
   18886:	458d                	li	a1,3
   18888:	02300693          	li	a3,35
   1888c:	470d                	li	a4,3
   1888e:	00000073          	ecall
   18892:	00851d63          	bne	a0,s0,188ac <_ZN20complex_dynamic_type3app17heb2674772ffcc96dE+0x94>
   18896:	04814703          	lbu	a4,72(sp)
   1889a:	4505                	li	a0,1
   1889c:	4609                	li	a2,2
   1889e:	00a98023          	sb	a0,0(s3)
   188a2:	00b9a223          	sw	a1,4(s3)
   188a6:	02c71963          	bne	a4,a2,188d8 <_ZN20complex_dynamic_type3app17heb2674772ffcc96dE+0xc0>
   188aa:	a83d                	j	188e8 <_ZN20complex_dynamic_type3app17heb2674772ffcc96dE+0xd0>
   188ac:	4681                	li	a3,0
   188ae:	04f10423          	sb	a5,72(sp)
   188b2:	6505                	lui	a0,0x1
   188b4:	4599                	li	a1,6
   188b6:	460d                	li	a2,3
   188b8:	4709                	li	a4,2
   188ba:	9bf50513          	addi	a0,a0,-1601 # 9bf <.Lline_table_start1+0x794>
   188be:	07f00793          	li	a5,127
   188c2:	00000073          	ecall
   188c6:	4609                	li	a2,2
   188c8:	04a7e563          	bltu	a5,a0,18912 <_ZN20complex_dynamic_type3app17heb2674772ffcc96dE+0xfa>
   188cc:	4505                	li	a0,1
   188ce:	00a98023          	sb	a0,0(s3)
   188d2:	00b9a223          	sw	a1,4(s3)
   188d6:	470d                	li	a4,3
   188d8:	6505                	lui	a0,0x1
   188da:	9bf50513          	addi	a0,a0,-1601 # 9bf <.Lline_table_start1+0x794>
   188de:	458d                	li	a1,3
   188e0:	4601                	li	a2,0
   188e2:	4681                	li	a3,0
   188e4:	00000073          	ecall
   188e8:	00314483          	lbu	s1,3(sp)
   188ec:	4509                	li	a0,2
   188ee:	00a48b63          	beq	s1,a0,18904 <_ZN20complex_dynamic_type3app17heb2674772ffcc96dE+0xec>
   188f2:	6505                	lui	a0,0x1
   188f4:	9bf50513          	addi	a0,a0,-1601 # 9bf <.Lline_table_start1+0x794>
   188f8:	4599                	li	a1,6
   188fa:	4601                	li	a2,0
   188fc:	4681                	li	a3,0
   188fe:	8726                	mv	a4,s1
   18900:	00000073          	ecall
   18904:	50f6                	lw	ra,124(sp)
   18906:	5466                	lw	s0,120(sp)
   18908:	54d6                	lw	s1,116(sp)
   1890a:	5946                	lw	s2,112(sp)
   1890c:	59b6                	lw	s3,108(sp)
   1890e:	6109                	addi	sp,sp,128
   18910:	8082                	ret
   18912:	00314703          	lbu	a4,3(sp)
   18916:	00c71463          	bne	a4,a2,1891e <_ZN20complex_dynamic_type3app17heb2674772ffcc96dE+0x106>
   1891a:	470d                	li	a4,3
   1891c:	a825                	j	18954 <_ZN20complex_dynamic_type3app17heb2674772ffcc96dE+0x13c>
   1891e:	6505                	lui	a0,0x1
   18920:	9bf50513          	addi	a0,a0,-1601 # 9bf <.Lline_table_start1+0x794>
   18924:	4599                	li	a1,6
   18926:	4601                	li	a2,0
   18928:	4681                	li	a3,0
   1892a:	00000073          	ecall
   1892e:	04814703          	lbu	a4,72(sp)
   18932:	4509                	li	a0,2
   18934:	00a101a3          	sb	a0,3(sp)
   18938:	00a71e63          	bne	a4,a0,18954 <_ZN20complex_dynamic_type3app17heb2674772ffcc96dE+0x13c>
   1893c:	00198513          	addi	a0,s3,1
   18940:	02300613          	li	a2,35
   18944:	85ca                	mv	a1,s2
   18946:	00005097          	auipc	ra,0x5
   1894a:	e30080e7          	jalr	-464(ra) # 1d776 <memcpy>
   1894e:	00098023          	sb	zero,0(s3)
   18952:	bf4d                	j	18904 <_ZN20complex_dynamic_type3app17heb2674772ffcc96dE+0xec>
   18954:	6505                	lui	a0,0x1
   18956:	9bf50513          	addi	a0,a0,-1601 # 9bf <.Lline_table_start1+0x794>
   1895a:	458d                	li	a1,3
   1895c:	4601                	li	a2,0
   1895e:	4681                	li	a3,0
   18960:	00000073          	ecall
   18964:	00314483          	lbu	s1,3(sp)
   18968:	00198513          	addi	a0,s3,1
   1896c:	02300613          	li	a2,35
   18970:	85ca                	mv	a1,s2
   18972:	00005097          	auipc	ra,0x5
   18976:	e04080e7          	jalr	-508(ra) # 1d776 <memcpy>
   1897a:	4509                	li	a0,2
   1897c:	00098023          	sb	zero,0(s3)
   18980:	f6a499e3          	bne	s1,a0,188f2 <_ZN20complex_dynamic_type3app17heb2674772ffcc96dE+0xda>
   18984:	b741                	j	18904 <_ZN20complex_dynamic_type3app17heb2674772ffcc96dE+0xec>

00018986 <_ZN20complex_dynamic_type3app17heb935f7822173a0cE>:
   18986:	7159                	addi	sp,sp,-112
   18988:	d686                	sw	ra,108(sp)
   1898a:	d4a2                	sw	s0,104(sp)
   1898c:	d2a6                	sw	s1,100(sp)
   1898e:	d0ca                	sw	s2,96(sp)
   18990:	cece                	sw	s3,92(sp)
   18992:	89aa                	mv	s3,a0
   18994:	4409                	li	s0,2
   18996:	00810623          	sb	s0,12(sp)
   1899a:	00d10493          	addi	s1,sp,13
   1899e:	03400613          	li	a2,52
   189a2:	8526                	mv	a0,s1
   189a4:	00005097          	auipc	ra,0x5
   189a8:	dd2080e7          	jalr	-558(ra) # 1d776 <memcpy>
   189ac:	04210913          	addi	s2,sp,66
   189b0:	4669                	li	a2,26
   189b2:	854a                	mv	a0,s2
   189b4:	4581                	li	a1,0
   189b6:	00005097          	auipc	ra,0x5
   189ba:	d54080e7          	jalr	-684(ra) # 1d70a <memset>
   189be:	4581                	li	a1,0
   189c0:	8626                	mv	a2,s1
   189c2:	048100a3          	sb	s0,65(sp)
   189c6:	6505                	lui	a0,0x1
   189c8:	4491                	li	s1,4
   189ca:	2cc50793          	addi	a5,a0,716 # 12cc <.Lline_table_start1+0x10a1>
   189ce:	03400693          	li	a3,52
   189d2:	4711                	li	a4,4
   189d4:	853e                	mv	a0,a5
   189d6:	00000073          	ecall
   189da:	00851863          	bne	a0,s0,189ea <_ZN20complex_dynamic_type3app17heb935f7822173a0cE+0x64>
   189de:	4505                	li	a0,1
   189e0:	00a98023          	sb	a0,0(s3)
   189e4:	00b9a223          	sw	a1,4(s3)
   189e8:	a0b5                	j	18a54 <_ZN20complex_dynamic_type3app17heb935f7822173a0cE+0xce>
   189ea:	853e                	mv	a0,a5
   189ec:	864a                	mv	a2,s2
   189ee:	00910623          	sb	s1,12(sp)
   189f2:	478d                	li	a5,3
   189f4:	4595                	li	a1,5
   189f6:	46e9                	li	a3,26
   189f8:	470d                	li	a4,3
   189fa:	00000073          	ecall
   189fe:	00851d63          	bne	a0,s0,18a18 <_ZN20complex_dynamic_type3app17heb935f7822173a0cE+0x92>
   18a02:	04114703          	lbu	a4,65(sp)
   18a06:	4505                	li	a0,1
   18a08:	4609                	li	a2,2
   18a0a:	00a98023          	sb	a0,0(s3)
   18a0e:	00b9a223          	sw	a1,4(s3)
   18a12:	02c71963          	bne	a4,a2,18a44 <_ZN20complex_dynamic_type3app17heb935f7822173a0cE+0xbe>
   18a16:	a83d                	j	18a54 <_ZN20complex_dynamic_type3app17heb935f7822173a0cE+0xce>
   18a18:	4581                	li	a1,0
   18a1a:	4681                	li	a3,0
   18a1c:	04f100a3          	sb	a5,65(sp)
   18a20:	6505                	lui	a0,0x1
   18a22:	4615                	li	a2,5
   18a24:	4709                	li	a4,2
   18a26:	2cc50513          	addi	a0,a0,716 # 12cc <.Lline_table_start1+0x10a1>
   18a2a:	07f00793          	li	a5,127
   18a2e:	00000073          	ecall
   18a32:	4609                	li	a2,2
   18a34:	04a7e563          	bltu	a5,a0,18a7e <_ZN20complex_dynamic_type3app17heb935f7822173a0cE+0xf8>
   18a38:	4505                	li	a0,1
   18a3a:	00a98023          	sb	a0,0(s3)
   18a3e:	00b9a223          	sw	a1,4(s3)
   18a42:	470d                	li	a4,3
   18a44:	6505                	lui	a0,0x1
   18a46:	2cc50513          	addi	a0,a0,716 # 12cc <.Lline_table_start1+0x10a1>
   18a4a:	4595                	li	a1,5
   18a4c:	4601                	li	a2,0
   18a4e:	4681                	li	a3,0
   18a50:	00000073          	ecall
   18a54:	00c14483          	lbu	s1,12(sp)
   18a58:	4509                	li	a0,2
   18a5a:	00a48b63          	beq	s1,a0,18a70 <_ZN20complex_dynamic_type3app17heb935f7822173a0cE+0xea>
   18a5e:	6505                	lui	a0,0x1
   18a60:	2cc50513          	addi	a0,a0,716 # 12cc <.Lline_table_start1+0x10a1>
   18a64:	4581                	li	a1,0
   18a66:	4601                	li	a2,0
   18a68:	4681                	li	a3,0
   18a6a:	8726                	mv	a4,s1
   18a6c:	00000073          	ecall
   18a70:	50b6                	lw	ra,108(sp)
   18a72:	5426                	lw	s0,104(sp)
   18a74:	5496                	lw	s1,100(sp)
   18a76:	5906                	lw	s2,96(sp)
   18a78:	49f6                	lw	s3,92(sp)
   18a7a:	6165                	addi	sp,sp,112
   18a7c:	8082                	ret
   18a7e:	00c14703          	lbu	a4,12(sp)
   18a82:	00c71463          	bne	a4,a2,18a8a <_ZN20complex_dynamic_type3app17heb935f7822173a0cE+0x104>
   18a86:	470d                	li	a4,3
   18a88:	a81d                	j	18abe <_ZN20complex_dynamic_type3app17heb935f7822173a0cE+0x138>
   18a8a:	6505                	lui	a0,0x1
   18a8c:	2cc50513          	addi	a0,a0,716 # 12cc <.Lline_table_start1+0x10a1>
   18a90:	4581                	li	a1,0
   18a92:	4601                	li	a2,0
   18a94:	4681                	li	a3,0
   18a96:	00000073          	ecall
   18a9a:	04114703          	lbu	a4,65(sp)
   18a9e:	4509                	li	a0,2
   18aa0:	00a10623          	sb	a0,12(sp)
   18aa4:	00a71d63          	bne	a4,a0,18abe <_ZN20complex_dynamic_type3app17heb935f7822173a0cE+0x138>
   18aa8:	00198513          	addi	a0,s3,1
   18aac:	4669                	li	a2,26
   18aae:	85ca                	mv	a1,s2
   18ab0:	00005097          	auipc	ra,0x5
   18ab4:	cc6080e7          	jalr	-826(ra) # 1d776 <memcpy>
   18ab8:	00098023          	sb	zero,0(s3)
   18abc:	bf55                	j	18a70 <_ZN20complex_dynamic_type3app17heb935f7822173a0cE+0xea>
   18abe:	6505                	lui	a0,0x1
   18ac0:	2cc50513          	addi	a0,a0,716 # 12cc <.Lline_table_start1+0x10a1>
   18ac4:	4595                	li	a1,5
   18ac6:	4601                	li	a2,0
   18ac8:	4681                	li	a3,0
   18aca:	00000073          	ecall
   18ace:	00c14483          	lbu	s1,12(sp)
   18ad2:	00198513          	addi	a0,s3,1
   18ad6:	4669                	li	a2,26
   18ad8:	85ca                	mv	a1,s2
   18ada:	00005097          	auipc	ra,0x5
   18ade:	c9c080e7          	jalr	-868(ra) # 1d776 <memcpy>
   18ae2:	4509                	li	a0,2
   18ae4:	00098023          	sb	zero,0(s3)
   18ae8:	f6a49be3          	bne	s1,a0,18a5e <_ZN20complex_dynamic_type3app17heb935f7822173a0cE+0xd8>
   18aec:	b751                	j	18a70 <_ZN20complex_dynamic_type3app17heb935f7822173a0cE+0xea>

00018aee <_ZN20complex_dynamic_type3app17hf10de27ef041257cE>:
   18aee:	7155                	addi	sp,sp,-208
   18af0:	c786                	sw	ra,204(sp)
   18af2:	c5a2                	sw	s0,200(sp)
   18af4:	c3a6                	sw	s1,196(sp)
   18af6:	c1ca                	sw	s2,192(sp)
   18af8:	df4e                	sw	s3,188(sp)
   18afa:	89aa                	mv	s3,a0
   18afc:	4409                	li	s0,2
   18afe:	008103a3          	sb	s0,7(sp)
   18b02:	0024                	addi	s1,sp,8
   18b04:	05e00613          	li	a2,94
   18b08:	8526                	mv	a0,s1
   18b0a:	00005097          	auipc	ra,0x5
   18b0e:	c6c080e7          	jalr	-916(ra) # 1d776 <memcpy>
   18b12:	06710913          	addi	s2,sp,103
   18b16:	05500613          	li	a2,85
   18b1a:	854a                	mv	a0,s2
   18b1c:	4581                	li	a1,0
   18b1e:	00005097          	auipc	ra,0x5
   18b22:	bec080e7          	jalr	-1044(ra) # 1d70a <memset>
   18b26:	8626                	mv	a2,s1
   18b28:	06810323          	sb	s0,102(sp)
   18b2c:	6505                	lui	a0,0x1
   18b2e:	4491                	li	s1,4
   18b30:	459d                	li	a1,7
   18b32:	78a50793          	addi	a5,a0,1930 # 178a <.Lline_table_start1+0x155f>
   18b36:	05e00693          	li	a3,94
   18b3a:	4711                	li	a4,4
   18b3c:	853e                	mv	a0,a5
   18b3e:	00000073          	ecall
   18b42:	00851863          	bne	a0,s0,18b52 <_ZN20complex_dynamic_type3app17hf10de27ef041257cE+0x64>
   18b46:	4505                	li	a0,1
   18b48:	00a98023          	sb	a0,0(s3)
   18b4c:	00b9a223          	sw	a1,4(s3)
   18b50:	a0bd                	j	18bbe <_ZN20complex_dynamic_type3app17hf10de27ef041257cE+0xd0>
   18b52:	853e                	mv	a0,a5
   18b54:	864a                	mv	a2,s2
   18b56:	009103a3          	sb	s1,7(sp)
   18b5a:	478d                	li	a5,3
   18b5c:	458d                	li	a1,3
   18b5e:	05500693          	li	a3,85
   18b62:	470d                	li	a4,3
   18b64:	00000073          	ecall
   18b68:	00851d63          	bne	a0,s0,18b82 <_ZN20complex_dynamic_type3app17hf10de27ef041257cE+0x94>
   18b6c:	06614703          	lbu	a4,102(sp)
   18b70:	4505                	li	a0,1
   18b72:	4609                	li	a2,2
   18b74:	00a98023          	sb	a0,0(s3)
   18b78:	00b9a223          	sw	a1,4(s3)
   18b7c:	02c71963          	bne	a4,a2,18bae <_ZN20complex_dynamic_type3app17hf10de27ef041257cE+0xc0>
   18b80:	a83d                	j	18bbe <_ZN20complex_dynamic_type3app17hf10de27ef041257cE+0xd0>
   18b82:	4681                	li	a3,0
   18b84:	06f10323          	sb	a5,102(sp)
   18b88:	6505                	lui	a0,0x1
   18b8a:	459d                	li	a1,7
   18b8c:	460d                	li	a2,3
   18b8e:	4709                	li	a4,2
   18b90:	78a50513          	addi	a0,a0,1930 # 178a <.Lline_table_start1+0x155f>
   18b94:	07f00793          	li	a5,127
   18b98:	00000073          	ecall
   18b9c:	4609                	li	a2,2
   18b9e:	04a7e563          	bltu	a5,a0,18be8 <_ZN20complex_dynamic_type3app17hf10de27ef041257cE+0xfa>
   18ba2:	4505                	li	a0,1
   18ba4:	00a98023          	sb	a0,0(s3)
   18ba8:	00b9a223          	sw	a1,4(s3)
   18bac:	470d                	li	a4,3
   18bae:	6505                	lui	a0,0x1
   18bb0:	78a50513          	addi	a0,a0,1930 # 178a <.Lline_table_start1+0x155f>
   18bb4:	458d                	li	a1,3
   18bb6:	4601                	li	a2,0
   18bb8:	4681                	li	a3,0
   18bba:	00000073          	ecall
   18bbe:	00714483          	lbu	s1,7(sp)
   18bc2:	4509                	li	a0,2
   18bc4:	00a48b63          	beq	s1,a0,18bda <_ZN20complex_dynamic_type3app17hf10de27ef041257cE+0xec>
   18bc8:	6505                	lui	a0,0x1
   18bca:	78a50513          	addi	a0,a0,1930 # 178a <.Lline_table_start1+0x155f>
   18bce:	459d                	li	a1,7
   18bd0:	4601                	li	a2,0
   18bd2:	4681                	li	a3,0
   18bd4:	8726                	mv	a4,s1
   18bd6:	00000073          	ecall
   18bda:	40be                	lw	ra,204(sp)
   18bdc:	442e                	lw	s0,200(sp)
   18bde:	449e                	lw	s1,196(sp)
   18be0:	490e                	lw	s2,192(sp)
   18be2:	59fa                	lw	s3,188(sp)
   18be4:	6169                	addi	sp,sp,208
   18be6:	8082                	ret
   18be8:	00714703          	lbu	a4,7(sp)
   18bec:	00c71463          	bne	a4,a2,18bf4 <_ZN20complex_dynamic_type3app17hf10de27ef041257cE+0x106>
   18bf0:	470d                	li	a4,3
   18bf2:	a825                	j	18c2a <_ZN20complex_dynamic_type3app17hf10de27ef041257cE+0x13c>
   18bf4:	6505                	lui	a0,0x1
   18bf6:	78a50513          	addi	a0,a0,1930 # 178a <.Lline_table_start1+0x155f>
   18bfa:	459d                	li	a1,7
   18bfc:	4601                	li	a2,0
   18bfe:	4681                	li	a3,0
   18c00:	00000073          	ecall
   18c04:	06614703          	lbu	a4,102(sp)
   18c08:	4509                	li	a0,2
   18c0a:	00a103a3          	sb	a0,7(sp)
   18c0e:	00a71e63          	bne	a4,a0,18c2a <_ZN20complex_dynamic_type3app17hf10de27ef041257cE+0x13c>
   18c12:	00198513          	addi	a0,s3,1
   18c16:	05500613          	li	a2,85
   18c1a:	85ca                	mv	a1,s2
   18c1c:	00005097          	auipc	ra,0x5
   18c20:	b5a080e7          	jalr	-1190(ra) # 1d776 <memcpy>
   18c24:	00098023          	sb	zero,0(s3)
   18c28:	bf4d                	j	18bda <_ZN20complex_dynamic_type3app17hf10de27ef041257cE+0xec>
   18c2a:	6505                	lui	a0,0x1
   18c2c:	78a50513          	addi	a0,a0,1930 # 178a <.Lline_table_start1+0x155f>
   18c30:	458d                	li	a1,3
   18c32:	4601                	li	a2,0
   18c34:	4681                	li	a3,0
   18c36:	00000073          	ecall
   18c3a:	00714483          	lbu	s1,7(sp)
   18c3e:	00198513          	addi	a0,s3,1
   18c42:	05500613          	li	a2,85
   18c46:	85ca                	mv	a1,s2
   18c48:	00005097          	auipc	ra,0x5
   18c4c:	b2e080e7          	jalr	-1234(ra) # 1d776 <memcpy>
   18c50:	4509                	li	a0,2
   18c52:	00098023          	sb	zero,0(s3)
   18c56:	f6a499e3          	bne	s1,a0,18bc8 <_ZN20complex_dynamic_type3app17hf10de27ef041257cE+0xda>
   18c5a:	b741                	j	18bda <_ZN20complex_dynamic_type3app17hf10de27ef041257cE+0xec>

00018c5c <_ZN20complex_dynamic_type3app17hf2a63426caf78a0fE>:
   18c5c:	7171                	addi	sp,sp,-176
   18c5e:	d706                	sw	ra,172(sp)
   18c60:	d522                	sw	s0,168(sp)
   18c62:	d326                	sw	s1,164(sp)
   18c64:	d14a                	sw	s2,160(sp)
   18c66:	cf4e                	sw	s3,156(sp)
   18c68:	89aa                	mv	s3,a0
   18c6a:	4409                	li	s0,2
   18c6c:	008101a3          	sb	s0,3(sp)
   18c70:	0044                	addi	s1,sp,4
   18c72:	03a00613          	li	a2,58
   18c76:	8526                	mv	a0,s1
   18c78:	00005097          	auipc	ra,0x5
   18c7c:	afe080e7          	jalr	-1282(ra) # 1d776 <memcpy>
   18c80:	03f10913          	addi	s2,sp,63
   18c84:	05d00613          	li	a2,93
   18c88:	854a                	mv	a0,s2
   18c8a:	4581                	li	a1,0
   18c8c:	00005097          	auipc	ra,0x5
   18c90:	a7e080e7          	jalr	-1410(ra) # 1d70a <memset>
   18c94:	4581                	li	a1,0
   18c96:	8626                	mv	a2,s1
   18c98:	02810f23          	sb	s0,62(sp)
   18c9c:	6505                	lui	a0,0x1
   18c9e:	4491                	li	s1,4
   18ca0:	4a450793          	addi	a5,a0,1188 # 14a4 <.Lline_table_start1+0x1279>
   18ca4:	03a00693          	li	a3,58
   18ca8:	4711                	li	a4,4
   18caa:	853e                	mv	a0,a5
   18cac:	00000073          	ecall
   18cb0:	00851863          	bne	a0,s0,18cc0 <_ZN20complex_dynamic_type3app17hf2a63426caf78a0fE+0x64>
   18cb4:	4505                	li	a0,1
   18cb6:	00a98023          	sb	a0,0(s3)
   18cba:	00b9a223          	sw	a1,4(s3)
   18cbe:	a0bd                	j	18d2c <_ZN20complex_dynamic_type3app17hf2a63426caf78a0fE+0xd0>
   18cc0:	853e                	mv	a0,a5
   18cc2:	864a                	mv	a2,s2
   18cc4:	009101a3          	sb	s1,3(sp)
   18cc8:	478d                	li	a5,3
   18cca:	4595                	li	a1,5
   18ccc:	05d00693          	li	a3,93
   18cd0:	470d                	li	a4,3
   18cd2:	00000073          	ecall
   18cd6:	00851d63          	bne	a0,s0,18cf0 <_ZN20complex_dynamic_type3app17hf2a63426caf78a0fE+0x94>
   18cda:	03e14703          	lbu	a4,62(sp)
   18cde:	4505                	li	a0,1
   18ce0:	4609                	li	a2,2
   18ce2:	00a98023          	sb	a0,0(s3)
   18ce6:	00b9a223          	sw	a1,4(s3)
   18cea:	02c71963          	bne	a4,a2,18d1c <_ZN20complex_dynamic_type3app17hf2a63426caf78a0fE+0xc0>
   18cee:	a83d                	j	18d2c <_ZN20complex_dynamic_type3app17hf2a63426caf78a0fE+0xd0>
   18cf0:	4581                	li	a1,0
   18cf2:	4681                	li	a3,0
   18cf4:	02f10f23          	sb	a5,62(sp)
   18cf8:	6505                	lui	a0,0x1
   18cfa:	4615                	li	a2,5
   18cfc:	4709                	li	a4,2
   18cfe:	4a450513          	addi	a0,a0,1188 # 14a4 <.Lline_table_start1+0x1279>
   18d02:	07f00793          	li	a5,127
   18d06:	00000073          	ecall
   18d0a:	4609                	li	a2,2
   18d0c:	04a7e563          	bltu	a5,a0,18d56 <_ZN20complex_dynamic_type3app17hf2a63426caf78a0fE+0xfa>
   18d10:	4505                	li	a0,1
   18d12:	00a98023          	sb	a0,0(s3)
   18d16:	00b9a223          	sw	a1,4(s3)
   18d1a:	470d                	li	a4,3
   18d1c:	6505                	lui	a0,0x1
   18d1e:	4a450513          	addi	a0,a0,1188 # 14a4 <.Lline_table_start1+0x1279>
   18d22:	4595                	li	a1,5
   18d24:	4601                	li	a2,0
   18d26:	4681                	li	a3,0
   18d28:	00000073          	ecall
   18d2c:	00314483          	lbu	s1,3(sp)
   18d30:	4509                	li	a0,2
   18d32:	00a48b63          	beq	s1,a0,18d48 <_ZN20complex_dynamic_type3app17hf2a63426caf78a0fE+0xec>
   18d36:	6505                	lui	a0,0x1
   18d38:	4a450513          	addi	a0,a0,1188 # 14a4 <.Lline_table_start1+0x1279>
   18d3c:	4581                	li	a1,0
   18d3e:	4601                	li	a2,0
   18d40:	4681                	li	a3,0
   18d42:	8726                	mv	a4,s1
   18d44:	00000073          	ecall
   18d48:	50ba                	lw	ra,172(sp)
   18d4a:	542a                	lw	s0,168(sp)
   18d4c:	549a                	lw	s1,164(sp)
   18d4e:	590a                	lw	s2,160(sp)
   18d50:	49fa                	lw	s3,156(sp)
   18d52:	614d                	addi	sp,sp,176
   18d54:	8082                	ret
   18d56:	00314703          	lbu	a4,3(sp)
   18d5a:	00c71463          	bne	a4,a2,18d62 <_ZN20complex_dynamic_type3app17hf2a63426caf78a0fE+0x106>
   18d5e:	470d                	li	a4,3
   18d60:	a825                	j	18d98 <_ZN20complex_dynamic_type3app17hf2a63426caf78a0fE+0x13c>
   18d62:	6505                	lui	a0,0x1
   18d64:	4a450513          	addi	a0,a0,1188 # 14a4 <.Lline_table_start1+0x1279>
   18d68:	4581                	li	a1,0
   18d6a:	4601                	li	a2,0
   18d6c:	4681                	li	a3,0
   18d6e:	00000073          	ecall
   18d72:	03e14703          	lbu	a4,62(sp)
   18d76:	4509                	li	a0,2
   18d78:	00a101a3          	sb	a0,3(sp)
   18d7c:	00a71e63          	bne	a4,a0,18d98 <_ZN20complex_dynamic_type3app17hf2a63426caf78a0fE+0x13c>
   18d80:	00198513          	addi	a0,s3,1
   18d84:	05d00613          	li	a2,93
   18d88:	85ca                	mv	a1,s2
   18d8a:	00005097          	auipc	ra,0x5
   18d8e:	9ec080e7          	jalr	-1556(ra) # 1d776 <memcpy>
   18d92:	00098023          	sb	zero,0(s3)
   18d96:	bf4d                	j	18d48 <_ZN20complex_dynamic_type3app17hf2a63426caf78a0fE+0xec>
   18d98:	6505                	lui	a0,0x1
   18d9a:	4a450513          	addi	a0,a0,1188 # 14a4 <.Lline_table_start1+0x1279>
   18d9e:	4595                	li	a1,5
   18da0:	4601                	li	a2,0
   18da2:	4681                	li	a3,0
   18da4:	00000073          	ecall
   18da8:	00314483          	lbu	s1,3(sp)
   18dac:	00198513          	addi	a0,s3,1
   18db0:	05d00613          	li	a2,93
   18db4:	85ca                	mv	a1,s2
   18db6:	00005097          	auipc	ra,0x5
   18dba:	9c0080e7          	jalr	-1600(ra) # 1d776 <memcpy>
   18dbe:	4509                	li	a0,2
   18dc0:	00098023          	sb	zero,0(s3)
   18dc4:	f6a499e3          	bne	s1,a0,18d36 <_ZN20complex_dynamic_type3app17hf2a63426caf78a0fE+0xda>
   18dc8:	b741                	j	18d48 <_ZN20complex_dynamic_type3app17hf2a63426caf78a0fE+0xec>

00018dca <_ZN20complex_dynamic_type3app17hf4684387ad68f4e0E>:
   18dca:	7171                	addi	sp,sp,-176
   18dcc:	d706                	sw	ra,172(sp)
   18dce:	d522                	sw	s0,168(sp)
   18dd0:	d326                	sw	s1,164(sp)
   18dd2:	d14a                	sw	s2,160(sp)
   18dd4:	cf4e                	sw	s3,156(sp)
   18dd6:	89aa                	mv	s3,a0
   18dd8:	4409                	li	s0,2
   18dda:	008106a3          	sb	s0,13(sp)
   18dde:	00e10493          	addi	s1,sp,14
   18de2:	05300613          	li	a2,83
   18de6:	8526                	mv	a0,s1
   18de8:	00005097          	auipc	ra,0x5
   18dec:	98e080e7          	jalr	-1650(ra) # 1d776 <memcpy>
   18df0:	06210913          	addi	s2,sp,98
   18df4:	03a00613          	li	a2,58
   18df8:	854a                	mv	a0,s2
   18dfa:	4581                	li	a1,0
   18dfc:	00005097          	auipc	ra,0x5
   18e00:	90e080e7          	jalr	-1778(ra) # 1d70a <memset>
   18e04:	8626                	mv	a2,s1
   18e06:	068100a3          	sb	s0,97(sp)
   18e0a:	6509                	lui	a0,0x2
   18e0c:	4491                	li	s1,4
   18e0e:	4599                	li	a1,6
   18e10:	64550793          	addi	a5,a0,1605 # 2645 <.Lline_table_start1+0x241a>
   18e14:	05300693          	li	a3,83
   18e18:	4711                	li	a4,4
   18e1a:	853e                	mv	a0,a5
   18e1c:	00000073          	ecall
   18e20:	00851863          	bne	a0,s0,18e30 <_ZN20complex_dynamic_type3app17hf4684387ad68f4e0E+0x66>
   18e24:	4505                	li	a0,1
   18e26:	00a98023          	sb	a0,0(s3)
   18e2a:	00b9a223          	sw	a1,4(s3)
   18e2e:	a0bd                	j	18e9c <_ZN20complex_dynamic_type3app17hf4684387ad68f4e0E+0xd2>
   18e30:	853e                	mv	a0,a5
   18e32:	864a                	mv	a2,s2
   18e34:	009106a3          	sb	s1,13(sp)
   18e38:	478d                	li	a5,3
   18e3a:	459d                	li	a1,7
   18e3c:	03a00693          	li	a3,58
   18e40:	470d                	li	a4,3
   18e42:	00000073          	ecall
   18e46:	00851d63          	bne	a0,s0,18e60 <_ZN20complex_dynamic_type3app17hf4684387ad68f4e0E+0x96>
   18e4a:	06114703          	lbu	a4,97(sp)
   18e4e:	4505                	li	a0,1
   18e50:	4609                	li	a2,2
   18e52:	00a98023          	sb	a0,0(s3)
   18e56:	00b9a223          	sw	a1,4(s3)
   18e5a:	02c71963          	bne	a4,a2,18e8c <_ZN20complex_dynamic_type3app17hf4684387ad68f4e0E+0xc2>
   18e5e:	a83d                	j	18e9c <_ZN20complex_dynamic_type3app17hf4684387ad68f4e0E+0xd2>
   18e60:	4681                	li	a3,0
   18e62:	06f100a3          	sb	a5,97(sp)
   18e66:	6509                	lui	a0,0x2
   18e68:	4599                	li	a1,6
   18e6a:	461d                	li	a2,7
   18e6c:	4709                	li	a4,2
   18e6e:	64550513          	addi	a0,a0,1605 # 2645 <.Lline_table_start1+0x241a>
   18e72:	07f00793          	li	a5,127
   18e76:	00000073          	ecall
   18e7a:	4609                	li	a2,2
   18e7c:	04a7e563          	bltu	a5,a0,18ec6 <_ZN20complex_dynamic_type3app17hf4684387ad68f4e0E+0xfc>
   18e80:	4505                	li	a0,1
   18e82:	00a98023          	sb	a0,0(s3)
   18e86:	00b9a223          	sw	a1,4(s3)
   18e8a:	470d                	li	a4,3
   18e8c:	6509                	lui	a0,0x2
   18e8e:	64550513          	addi	a0,a0,1605 # 2645 <.Lline_table_start1+0x241a>
   18e92:	459d                	li	a1,7
   18e94:	4601                	li	a2,0
   18e96:	4681                	li	a3,0
   18e98:	00000073          	ecall
   18e9c:	00d14483          	lbu	s1,13(sp)
   18ea0:	4509                	li	a0,2
   18ea2:	00a48b63          	beq	s1,a0,18eb8 <_ZN20complex_dynamic_type3app17hf4684387ad68f4e0E+0xee>
   18ea6:	6509                	lui	a0,0x2
   18ea8:	64550513          	addi	a0,a0,1605 # 2645 <.Lline_table_start1+0x241a>
   18eac:	4599                	li	a1,6
   18eae:	4601                	li	a2,0
   18eb0:	4681                	li	a3,0
   18eb2:	8726                	mv	a4,s1
   18eb4:	00000073          	ecall
   18eb8:	50ba                	lw	ra,172(sp)
   18eba:	542a                	lw	s0,168(sp)
   18ebc:	549a                	lw	s1,164(sp)
   18ebe:	590a                	lw	s2,160(sp)
   18ec0:	49fa                	lw	s3,156(sp)
   18ec2:	614d                	addi	sp,sp,176
   18ec4:	8082                	ret
   18ec6:	00d14703          	lbu	a4,13(sp)
   18eca:	00c71463          	bne	a4,a2,18ed2 <_ZN20complex_dynamic_type3app17hf4684387ad68f4e0E+0x108>
   18ece:	470d                	li	a4,3
   18ed0:	a825                	j	18f08 <_ZN20complex_dynamic_type3app17hf4684387ad68f4e0E+0x13e>
   18ed2:	6509                	lui	a0,0x2
   18ed4:	64550513          	addi	a0,a0,1605 # 2645 <.Lline_table_start1+0x241a>
   18ed8:	4599                	li	a1,6
   18eda:	4601                	li	a2,0
   18edc:	4681                	li	a3,0
   18ede:	00000073          	ecall
   18ee2:	06114703          	lbu	a4,97(sp)
   18ee6:	4509                	li	a0,2
   18ee8:	00a106a3          	sb	a0,13(sp)
   18eec:	00a71e63          	bne	a4,a0,18f08 <_ZN20complex_dynamic_type3app17hf4684387ad68f4e0E+0x13e>
   18ef0:	00198513          	addi	a0,s3,1
   18ef4:	03a00613          	li	a2,58
   18ef8:	85ca                	mv	a1,s2
   18efa:	00005097          	auipc	ra,0x5
   18efe:	87c080e7          	jalr	-1924(ra) # 1d776 <memcpy>
   18f02:	00098023          	sb	zero,0(s3)
   18f06:	bf4d                	j	18eb8 <_ZN20complex_dynamic_type3app17hf4684387ad68f4e0E+0xee>
   18f08:	6509                	lui	a0,0x2
   18f0a:	64550513          	addi	a0,a0,1605 # 2645 <.Lline_table_start1+0x241a>
   18f0e:	459d                	li	a1,7
   18f10:	4601                	li	a2,0
   18f12:	4681                	li	a3,0
   18f14:	00000073          	ecall
   18f18:	00d14483          	lbu	s1,13(sp)
   18f1c:	00198513          	addi	a0,s3,1
   18f20:	03a00613          	li	a2,58
   18f24:	85ca                	mv	a1,s2
   18f26:	00005097          	auipc	ra,0x5
   18f2a:	850080e7          	jalr	-1968(ra) # 1d776 <memcpy>
   18f2e:	4509                	li	a0,2
   18f30:	00098023          	sb	zero,0(s3)
   18f34:	f6a499e3          	bne	s1,a0,18ea6 <_ZN20complex_dynamic_type3app17hf4684387ad68f4e0E+0xdc>
   18f38:	b741                	j	18eb8 <_ZN20complex_dynamic_type3app17hf4684387ad68f4e0E+0xee>

00018f3a <_ZN20complex_dynamic_type3app17hf739f7b666c43ba6E>:
   18f3a:	711d                	addi	sp,sp,-96
   18f3c:	ce86                	sw	ra,92(sp)
   18f3e:	cca2                	sw	s0,88(sp)
   18f40:	caa6                	sw	s1,84(sp)
   18f42:	c8ca                	sw	s2,80(sp)
   18f44:	c6ce                	sw	s3,76(sp)
   18f46:	89aa                	mv	s3,a0
   18f48:	4409                	li	s0,2
   18f4a:	008105a3          	sb	s0,11(sp)
   18f4e:	0064                	addi	s1,sp,12
   18f50:	4679                	li	a2,30
   18f52:	8526                	mv	a0,s1
   18f54:	00005097          	auipc	ra,0x5
   18f58:	822080e7          	jalr	-2014(ra) # 1d776 <memcpy>
   18f5c:	02b10913          	addi	s2,sp,43
   18f60:	02100613          	li	a2,33
   18f64:	854a                	mv	a0,s2
   18f66:	4581                	li	a1,0
   18f68:	00004097          	auipc	ra,0x4
   18f6c:	7a2080e7          	jalr	1954(ra) # 1d70a <memset>
   18f70:	8626                	mv	a2,s1
   18f72:	02810523          	sb	s0,42(sp)
   18f76:	6509                	lui	a0,0x2
   18f78:	4491                	li	s1,4
   18f7a:	4599                	li	a1,6
   18f7c:	9b550793          	addi	a5,a0,-1611 # 19b5 <.Lline_table_start1+0x178a>
   18f80:	46f9                	li	a3,30
   18f82:	4711                	li	a4,4
   18f84:	853e                	mv	a0,a5
   18f86:	00000073          	ecall
   18f8a:	00851863          	bne	a0,s0,18f9a <_ZN20complex_dynamic_type3app17hf739f7b666c43ba6E+0x60>
   18f8e:	4505                	li	a0,1
   18f90:	00a98023          	sb	a0,0(s3)
   18f94:	00b9a223          	sw	a1,4(s3)
   18f98:	a0bd                	j	19006 <_ZN20complex_dynamic_type3app17hf739f7b666c43ba6E+0xcc>
   18f9a:	853e                	mv	a0,a5
   18f9c:	864a                	mv	a2,s2
   18f9e:	009105a3          	sb	s1,11(sp)
   18fa2:	478d                	li	a5,3
   18fa4:	45a5                	li	a1,9
   18fa6:	02100693          	li	a3,33
   18faa:	470d                	li	a4,3
   18fac:	00000073          	ecall
   18fb0:	00851d63          	bne	a0,s0,18fca <_ZN20complex_dynamic_type3app17hf739f7b666c43ba6E+0x90>
   18fb4:	02a14703          	lbu	a4,42(sp)
   18fb8:	4505                	li	a0,1
   18fba:	4609                	li	a2,2
   18fbc:	00a98023          	sb	a0,0(s3)
   18fc0:	00b9a223          	sw	a1,4(s3)
   18fc4:	02c71963          	bne	a4,a2,18ff6 <_ZN20complex_dynamic_type3app17hf739f7b666c43ba6E+0xbc>
   18fc8:	a83d                	j	19006 <_ZN20complex_dynamic_type3app17hf739f7b666c43ba6E+0xcc>
   18fca:	4681                	li	a3,0
   18fcc:	02f10523          	sb	a5,42(sp)
   18fd0:	6509                	lui	a0,0x2
   18fd2:	4599                	li	a1,6
   18fd4:	4625                	li	a2,9
   18fd6:	4709                	li	a4,2
   18fd8:	9b550513          	addi	a0,a0,-1611 # 19b5 <.Lline_table_start1+0x178a>
   18fdc:	07f00793          	li	a5,127
   18fe0:	00000073          	ecall
   18fe4:	4609                	li	a2,2
   18fe6:	04a7e563          	bltu	a5,a0,19030 <_ZN20complex_dynamic_type3app17hf739f7b666c43ba6E+0xf6>
   18fea:	4505                	li	a0,1
   18fec:	00a98023          	sb	a0,0(s3)
   18ff0:	00b9a223          	sw	a1,4(s3)
   18ff4:	470d                	li	a4,3
   18ff6:	6509                	lui	a0,0x2
   18ff8:	9b550513          	addi	a0,a0,-1611 # 19b5 <.Lline_table_start1+0x178a>
   18ffc:	45a5                	li	a1,9
   18ffe:	4601                	li	a2,0
   19000:	4681                	li	a3,0
   19002:	00000073          	ecall
   19006:	00b14483          	lbu	s1,11(sp)
   1900a:	4509                	li	a0,2
   1900c:	00a48b63          	beq	s1,a0,19022 <_ZN20complex_dynamic_type3app17hf739f7b666c43ba6E+0xe8>
   19010:	6509                	lui	a0,0x2
   19012:	9b550513          	addi	a0,a0,-1611 # 19b5 <.Lline_table_start1+0x178a>
   19016:	4599                	li	a1,6
   19018:	4601                	li	a2,0
   1901a:	4681                	li	a3,0
   1901c:	8726                	mv	a4,s1
   1901e:	00000073          	ecall
   19022:	40f6                	lw	ra,92(sp)
   19024:	4466                	lw	s0,88(sp)
   19026:	44d6                	lw	s1,84(sp)
   19028:	4946                	lw	s2,80(sp)
   1902a:	49b6                	lw	s3,76(sp)
   1902c:	6125                	addi	sp,sp,96
   1902e:	8082                	ret
   19030:	00b14703          	lbu	a4,11(sp)
   19034:	00c71463          	bne	a4,a2,1903c <_ZN20complex_dynamic_type3app17hf739f7b666c43ba6E+0x102>
   19038:	470d                	li	a4,3
   1903a:	a825                	j	19072 <_ZN20complex_dynamic_type3app17hf739f7b666c43ba6E+0x138>
   1903c:	6509                	lui	a0,0x2
   1903e:	9b550513          	addi	a0,a0,-1611 # 19b5 <.Lline_table_start1+0x178a>
   19042:	4599                	li	a1,6
   19044:	4601                	li	a2,0
   19046:	4681                	li	a3,0
   19048:	00000073          	ecall
   1904c:	02a14703          	lbu	a4,42(sp)
   19050:	4509                	li	a0,2
   19052:	00a105a3          	sb	a0,11(sp)
   19056:	00a71e63          	bne	a4,a0,19072 <_ZN20complex_dynamic_type3app17hf739f7b666c43ba6E+0x138>
   1905a:	00198513          	addi	a0,s3,1
   1905e:	02100613          	li	a2,33
   19062:	85ca                	mv	a1,s2
   19064:	00004097          	auipc	ra,0x4
   19068:	712080e7          	jalr	1810(ra) # 1d776 <memcpy>
   1906c:	00098023          	sb	zero,0(s3)
   19070:	bf4d                	j	19022 <_ZN20complex_dynamic_type3app17hf739f7b666c43ba6E+0xe8>
   19072:	6509                	lui	a0,0x2
   19074:	9b550513          	addi	a0,a0,-1611 # 19b5 <.Lline_table_start1+0x178a>
   19078:	45a5                	li	a1,9
   1907a:	4601                	li	a2,0
   1907c:	4681                	li	a3,0
   1907e:	00000073          	ecall
   19082:	00b14483          	lbu	s1,11(sp)
   19086:	00198513          	addi	a0,s3,1
   1908a:	02100613          	li	a2,33
   1908e:	85ca                	mv	a1,s2
   19090:	00004097          	auipc	ra,0x4
   19094:	6e6080e7          	jalr	1766(ra) # 1d776 <memcpy>
   19098:	4509                	li	a0,2
   1909a:	00098023          	sb	zero,0(s3)
   1909e:	f6a499e3          	bne	s1,a0,19010 <_ZN20complex_dynamic_type3app17hf739f7b666c43ba6E+0xd6>
   190a2:	b741                	j	19022 <_ZN20complex_dynamic_type3app17hf739f7b666c43ba6E+0xe8>

000190a4 <_ZN20complex_dynamic_type3app17hf8199702d1a72543E>:
   190a4:	7119                	addi	sp,sp,-128
   190a6:	de86                	sw	ra,124(sp)
   190a8:	dca2                	sw	s0,120(sp)
   190aa:	daa6                	sw	s1,116(sp)
   190ac:	d8ca                	sw	s2,112(sp)
   190ae:	d6ce                	sw	s3,108(sp)
   190b0:	89aa                	mv	s3,a0
   190b2:	4409                	li	s0,2
   190b4:	00810123          	sb	s0,2(sp)
   190b8:	00310493          	addi	s1,sp,3
   190bc:	464d                	li	a2,19
   190be:	8526                	mv	a0,s1
   190c0:	00004097          	auipc	ra,0x4
   190c4:	6b6080e7          	jalr	1718(ra) # 1d776 <memcpy>
   190c8:	01710913          	addi	s2,sp,23
   190cc:	05500613          	li	a2,85
   190d0:	854a                	mv	a0,s2
   190d2:	4581                	li	a1,0
   190d4:	00004097          	auipc	ra,0x4
   190d8:	636080e7          	jalr	1590(ra) # 1d70a <memset>
   190dc:	8626                	mv	a2,s1
   190de:	00810b23          	sb	s0,22(sp)
   190e2:	4791                	li	a5,4
   190e4:	32e00513          	li	a0,814
   190e8:	45a5                	li	a1,9
   190ea:	46cd                	li	a3,19
   190ec:	4711                	li	a4,4
   190ee:	00000073          	ecall
   190f2:	00851863          	bne	a0,s0,19102 <_ZN20complex_dynamic_type3app17hf8199702d1a72543E+0x5e>
   190f6:	4505                	li	a0,1
   190f8:	00a98023          	sb	a0,0(s3)
   190fc:	00b9a223          	sw	a1,4(s3)
   19100:	a0b5                	j	1916c <_ZN20complex_dynamic_type3app17hf8199702d1a72543E+0xc8>
   19102:	864a                	mv	a2,s2
   19104:	00f10123          	sb	a5,2(sp)
   19108:	478d                	li	a5,3
   1910a:	32e00513          	li	a0,814
   1910e:	459d                	li	a1,7
   19110:	05500693          	li	a3,85
   19114:	470d                	li	a4,3
   19116:	00000073          	ecall
   1911a:	00851d63          	bne	a0,s0,19134 <_ZN20complex_dynamic_type3app17hf8199702d1a72543E+0x90>
   1911e:	01614703          	lbu	a4,22(sp)
   19122:	4505                	li	a0,1
   19124:	4609                	li	a2,2
   19126:	00a98023          	sb	a0,0(s3)
   1912a:	00b9a223          	sw	a1,4(s3)
   1912e:	02c71863          	bne	a4,a2,1915e <_ZN20complex_dynamic_type3app17hf8199702d1a72543E+0xba>
   19132:	a82d                	j	1916c <_ZN20complex_dynamic_type3app17hf8199702d1a72543E+0xc8>
   19134:	4681                	li	a3,0
   19136:	00f10b23          	sb	a5,22(sp)
   1913a:	32e00513          	li	a0,814
   1913e:	45a5                	li	a1,9
   19140:	461d                	li	a2,7
   19142:	4709                	li	a4,2
   19144:	07f00793          	li	a5,127
   19148:	00000073          	ecall
   1914c:	4609                	li	a2,2
   1914e:	04a7e363          	bltu	a5,a0,19194 <_ZN20complex_dynamic_type3app17hf8199702d1a72543E+0xf0>
   19152:	4505                	li	a0,1
   19154:	00a98023          	sb	a0,0(s3)
   19158:	00b9a223          	sw	a1,4(s3)
   1915c:	470d                	li	a4,3
   1915e:	32e00513          	li	a0,814
   19162:	459d                	li	a1,7
   19164:	4601                	li	a2,0
   19166:	4681                	li	a3,0
   19168:	00000073          	ecall
   1916c:	00214483          	lbu	s1,2(sp)
   19170:	4509                	li	a0,2
   19172:	00a48a63          	beq	s1,a0,19186 <_ZN20complex_dynamic_type3app17hf8199702d1a72543E+0xe2>
   19176:	32e00513          	li	a0,814
   1917a:	45a5                	li	a1,9
   1917c:	4601                	li	a2,0
   1917e:	4681                	li	a3,0
   19180:	8726                	mv	a4,s1
   19182:	00000073          	ecall
   19186:	50f6                	lw	ra,124(sp)
   19188:	5466                	lw	s0,120(sp)
   1918a:	54d6                	lw	s1,116(sp)
   1918c:	5946                	lw	s2,112(sp)
   1918e:	59b6                	lw	s3,108(sp)
   19190:	6109                	addi	sp,sp,128
   19192:	8082                	ret
   19194:	00214703          	lbu	a4,2(sp)
   19198:	00c71463          	bne	a4,a2,191a0 <_ZN20complex_dynamic_type3app17hf8199702d1a72543E+0xfc>
   1919c:	470d                	li	a4,3
   1919e:	a81d                	j	191d4 <_ZN20complex_dynamic_type3app17hf8199702d1a72543E+0x130>
   191a0:	32e00513          	li	a0,814
   191a4:	45a5                	li	a1,9
   191a6:	4601                	li	a2,0
   191a8:	4681                	li	a3,0
   191aa:	00000073          	ecall
   191ae:	01614703          	lbu	a4,22(sp)
   191b2:	4509                	li	a0,2
   191b4:	00a10123          	sb	a0,2(sp)
   191b8:	00a71e63          	bne	a4,a0,191d4 <_ZN20complex_dynamic_type3app17hf8199702d1a72543E+0x130>
   191bc:	00198513          	addi	a0,s3,1
   191c0:	05500613          	li	a2,85
   191c4:	85ca                	mv	a1,s2
   191c6:	00004097          	auipc	ra,0x4
   191ca:	5b0080e7          	jalr	1456(ra) # 1d776 <memcpy>
   191ce:	00098023          	sb	zero,0(s3)
   191d2:	bf55                	j	19186 <_ZN20complex_dynamic_type3app17hf8199702d1a72543E+0xe2>
   191d4:	32e00513          	li	a0,814
   191d8:	459d                	li	a1,7
   191da:	4601                	li	a2,0
   191dc:	4681                	li	a3,0
   191de:	00000073          	ecall
   191e2:	00214483          	lbu	s1,2(sp)
   191e6:	00198513          	addi	a0,s3,1
   191ea:	05500613          	li	a2,85
   191ee:	85ca                	mv	a1,s2
   191f0:	00004097          	auipc	ra,0x4
   191f4:	586080e7          	jalr	1414(ra) # 1d776 <memcpy>
   191f8:	4509                	li	a0,2
   191fa:	00098023          	sb	zero,0(s3)
   191fe:	f6a49ce3          	bne	s1,a0,19176 <_ZN20complex_dynamic_type3app17hf8199702d1a72543E+0xd2>
   19202:	b751                	j	19186 <_ZN20complex_dynamic_type3app17hf8199702d1a72543E+0xe2>

00019204 <_ZN20complex_dynamic_type3app17hfaefbf54b3374200E>:
   19204:	7131                	addi	sp,sp,-192
   19206:	df06                	sw	ra,188(sp)
   19208:	dd22                	sw	s0,184(sp)
   1920a:	db26                	sw	s1,180(sp)
   1920c:	d94a                	sw	s2,176(sp)
   1920e:	d74e                	sw	s3,172(sp)
   19210:	89aa                	mv	s3,a0
   19212:	4409                	li	s0,2
   19214:	008105a3          	sb	s0,11(sp)
   19218:	0064                	addi	s1,sp,12
   1921a:	05600613          	li	a2,86
   1921e:	8526                	mv	a0,s1
   19220:	00004097          	auipc	ra,0x4
   19224:	556080e7          	jalr	1366(ra) # 1d776 <memcpy>
   19228:	06310913          	addi	s2,sp,99
   1922c:	04900613          	li	a2,73
   19230:	854a                	mv	a0,s2
   19232:	4581                	li	a1,0
   19234:	00004097          	auipc	ra,0x4
   19238:	4d6080e7          	jalr	1238(ra) # 1d70a <memset>
   1923c:	8626                	mv	a2,s1
   1923e:	06810123          	sb	s0,98(sp)
   19242:	6509                	lui	a0,0x2
   19244:	4491                	li	s1,4
   19246:	4599                	li	a1,6
   19248:	c6b50793          	addi	a5,a0,-917 # 1c6b <.Lline_table_start1+0x1a40>
   1924c:	05600693          	li	a3,86
   19250:	4711                	li	a4,4
   19252:	853e                	mv	a0,a5
   19254:	00000073          	ecall
   19258:	00851863          	bne	a0,s0,19268 <_ZN20complex_dynamic_type3app17hfaefbf54b3374200E+0x64>
   1925c:	4505                	li	a0,1
   1925e:	00a98023          	sb	a0,0(s3)
   19262:	00b9a223          	sw	a1,4(s3)
   19266:	a0bd                	j	192d4 <_ZN20complex_dynamic_type3app17hfaefbf54b3374200E+0xd0>
   19268:	853e                	mv	a0,a5
   1926a:	864a                	mv	a2,s2
   1926c:	009105a3          	sb	s1,11(sp)
   19270:	478d                	li	a5,3
   19272:	4599                	li	a1,6
   19274:	04900693          	li	a3,73
   19278:	470d                	li	a4,3
   1927a:	00000073          	ecall
   1927e:	00851d63          	bne	a0,s0,19298 <_ZN20complex_dynamic_type3app17hfaefbf54b3374200E+0x94>
   19282:	06214703          	lbu	a4,98(sp)
   19286:	4505                	li	a0,1
   19288:	4609                	li	a2,2
   1928a:	00a98023          	sb	a0,0(s3)
   1928e:	00b9a223          	sw	a1,4(s3)
   19292:	02c71963          	bne	a4,a2,192c4 <_ZN20complex_dynamic_type3app17hfaefbf54b3374200E+0xc0>
   19296:	a83d                	j	192d4 <_ZN20complex_dynamic_type3app17hfaefbf54b3374200E+0xd0>
   19298:	4681                	li	a3,0
   1929a:	06f10123          	sb	a5,98(sp)
   1929e:	6509                	lui	a0,0x2
   192a0:	4599                	li	a1,6
   192a2:	4619                	li	a2,6
   192a4:	4709                	li	a4,2
   192a6:	c6b50513          	addi	a0,a0,-917 # 1c6b <.Lline_table_start1+0x1a40>
   192aa:	07f00793          	li	a5,127
   192ae:	00000073          	ecall
   192b2:	4609                	li	a2,2
   192b4:	04a7e563          	bltu	a5,a0,192fe <_ZN20complex_dynamic_type3app17hfaefbf54b3374200E+0xfa>
   192b8:	4505                	li	a0,1
   192ba:	00a98023          	sb	a0,0(s3)
   192be:	00b9a223          	sw	a1,4(s3)
   192c2:	470d                	li	a4,3
   192c4:	6509                	lui	a0,0x2
   192c6:	c6b50513          	addi	a0,a0,-917 # 1c6b <.Lline_table_start1+0x1a40>
   192ca:	4599                	li	a1,6
   192cc:	4601                	li	a2,0
   192ce:	4681                	li	a3,0
   192d0:	00000073          	ecall
   192d4:	00b14483          	lbu	s1,11(sp)
   192d8:	4509                	li	a0,2
   192da:	00a48b63          	beq	s1,a0,192f0 <_ZN20complex_dynamic_type3app17hfaefbf54b3374200E+0xec>
   192de:	6509                	lui	a0,0x2
   192e0:	c6b50513          	addi	a0,a0,-917 # 1c6b <.Lline_table_start1+0x1a40>
   192e4:	4599                	li	a1,6
   192e6:	4601                	li	a2,0
   192e8:	4681                	li	a3,0
   192ea:	8726                	mv	a4,s1
   192ec:	00000073          	ecall
   192f0:	50fa                	lw	ra,188(sp)
   192f2:	546a                	lw	s0,184(sp)
   192f4:	54da                	lw	s1,180(sp)
   192f6:	594a                	lw	s2,176(sp)
   192f8:	59ba                	lw	s3,172(sp)
   192fa:	6129                	addi	sp,sp,192
   192fc:	8082                	ret
   192fe:	00b14703          	lbu	a4,11(sp)
   19302:	00c71463          	bne	a4,a2,1930a <_ZN20complex_dynamic_type3app17hfaefbf54b3374200E+0x106>
   19306:	470d                	li	a4,3
   19308:	a825                	j	19340 <_ZN20complex_dynamic_type3app17hfaefbf54b3374200E+0x13c>
   1930a:	6509                	lui	a0,0x2
   1930c:	c6b50513          	addi	a0,a0,-917 # 1c6b <.Lline_table_start1+0x1a40>
   19310:	4599                	li	a1,6
   19312:	4601                	li	a2,0
   19314:	4681                	li	a3,0
   19316:	00000073          	ecall
   1931a:	06214703          	lbu	a4,98(sp)
   1931e:	4509                	li	a0,2
   19320:	00a105a3          	sb	a0,11(sp)
   19324:	00a71e63          	bne	a4,a0,19340 <_ZN20complex_dynamic_type3app17hfaefbf54b3374200E+0x13c>
   19328:	00198513          	addi	a0,s3,1
   1932c:	04900613          	li	a2,73
   19330:	85ca                	mv	a1,s2
   19332:	00004097          	auipc	ra,0x4
   19336:	444080e7          	jalr	1092(ra) # 1d776 <memcpy>
   1933a:	00098023          	sb	zero,0(s3)
   1933e:	bf4d                	j	192f0 <_ZN20complex_dynamic_type3app17hfaefbf54b3374200E+0xec>
   19340:	6509                	lui	a0,0x2
   19342:	c6b50513          	addi	a0,a0,-917 # 1c6b <.Lline_table_start1+0x1a40>
   19346:	4599                	li	a1,6
   19348:	4601                	li	a2,0
   1934a:	4681                	li	a3,0
   1934c:	00000073          	ecall
   19350:	00b14483          	lbu	s1,11(sp)
   19354:	00198513          	addi	a0,s3,1
   19358:	04900613          	li	a2,73
   1935c:	85ca                	mv	a1,s2
   1935e:	00004097          	auipc	ra,0x4
   19362:	418080e7          	jalr	1048(ra) # 1d776 <memcpy>
   19366:	4509                	li	a0,2
   19368:	00098023          	sb	zero,0(s3)
   1936c:	f6a499e3          	bne	s1,a0,192de <_ZN20complex_dynamic_type3app17hfaefbf54b3374200E+0xda>
   19370:	b741                	j	192f0 <_ZN20complex_dynamic_type3app17hfaefbf54b3374200E+0xec>

00019372 <_ZN20complex_dynamic_type3app17hfaf0e0fc5d50b53bE>:
   19372:	7159                	addi	sp,sp,-112
   19374:	d686                	sw	ra,108(sp)
   19376:	d4a2                	sw	s0,104(sp)
   19378:	d2a6                	sw	s1,100(sp)
   1937a:	d0ca                	sw	s2,96(sp)
   1937c:	cece                	sw	s3,92(sp)
   1937e:	89aa                	mv	s3,a0
   19380:	4409                	li	s0,2
   19382:	00810023          	sb	s0,0(sp)
   19386:	00110493          	addi	s1,sp,1
   1938a:	4679                	li	a2,30
   1938c:	8526                	mv	a0,s1
   1938e:	00004097          	auipc	ra,0x4
   19392:	3e8080e7          	jalr	1000(ra) # 1d776 <memcpy>
   19396:	02010913          	addi	s2,sp,32
   1939a:	03c00613          	li	a2,60
   1939e:	854a                	mv	a0,s2
   193a0:	4581                	li	a1,0
   193a2:	00004097          	auipc	ra,0x4
   193a6:	368080e7          	jalr	872(ra) # 1d70a <memset>
   193aa:	8626                	mv	a2,s1
   193ac:	00810fa3          	sb	s0,31(sp)
   193b0:	6505                	lui	a0,0x1
   193b2:	4491                	li	s1,4
   193b4:	4589                	li	a1,2
   193b6:	b3c50793          	addi	a5,a0,-1220 # b3c <.Lline_table_start1+0x911>
   193ba:	46f9                	li	a3,30
   193bc:	4711                	li	a4,4
   193be:	853e                	mv	a0,a5
   193c0:	00000073          	ecall
   193c4:	00851863          	bne	a0,s0,193d4 <_ZN20complex_dynamic_type3app17hfaf0e0fc5d50b53bE+0x62>
   193c8:	4505                	li	a0,1
   193ca:	00a98023          	sb	a0,0(s3)
   193ce:	00b9a223          	sw	a1,4(s3)
   193d2:	a0bd                	j	19440 <_ZN20complex_dynamic_type3app17hfaf0e0fc5d50b53bE+0xce>
   193d4:	853e                	mv	a0,a5
   193d6:	864a                	mv	a2,s2
   193d8:	00910023          	sb	s1,0(sp)
   193dc:	478d                	li	a5,3
   193de:	458d                	li	a1,3
   193e0:	03c00693          	li	a3,60
   193e4:	470d                	li	a4,3
   193e6:	00000073          	ecall
   193ea:	00851d63          	bne	a0,s0,19404 <_ZN20complex_dynamic_type3app17hfaf0e0fc5d50b53bE+0x92>
   193ee:	01f14703          	lbu	a4,31(sp)
   193f2:	4505                	li	a0,1
   193f4:	4609                	li	a2,2
   193f6:	00a98023          	sb	a0,0(s3)
   193fa:	00b9a223          	sw	a1,4(s3)
   193fe:	02c71963          	bne	a4,a2,19430 <_ZN20complex_dynamic_type3app17hfaf0e0fc5d50b53bE+0xbe>
   19402:	a83d                	j	19440 <_ZN20complex_dynamic_type3app17hfaf0e0fc5d50b53bE+0xce>
   19404:	4681                	li	a3,0
   19406:	00f10fa3          	sb	a5,31(sp)
   1940a:	6505                	lui	a0,0x1
   1940c:	4589                	li	a1,2
   1940e:	460d                	li	a2,3
   19410:	4709                	li	a4,2
   19412:	b3c50513          	addi	a0,a0,-1220 # b3c <.Lline_table_start1+0x911>
   19416:	07f00793          	li	a5,127
   1941a:	00000073          	ecall
   1941e:	4609                	li	a2,2
   19420:	04a7e563          	bltu	a5,a0,1946a <_ZN20complex_dynamic_type3app17hfaf0e0fc5d50b53bE+0xf8>
   19424:	4505                	li	a0,1
   19426:	00a98023          	sb	a0,0(s3)
   1942a:	00b9a223          	sw	a1,4(s3)
   1942e:	470d                	li	a4,3
   19430:	6505                	lui	a0,0x1
   19432:	b3c50513          	addi	a0,a0,-1220 # b3c <.Lline_table_start1+0x911>
   19436:	458d                	li	a1,3
   19438:	4601                	li	a2,0
   1943a:	4681                	li	a3,0
   1943c:	00000073          	ecall
   19440:	00014483          	lbu	s1,0(sp)
   19444:	4509                	li	a0,2
   19446:	00a48b63          	beq	s1,a0,1945c <_ZN20complex_dynamic_type3app17hfaf0e0fc5d50b53bE+0xea>
   1944a:	6505                	lui	a0,0x1
   1944c:	b3c50513          	addi	a0,a0,-1220 # b3c <.Lline_table_start1+0x911>
   19450:	4589                	li	a1,2
   19452:	4601                	li	a2,0
   19454:	4681                	li	a3,0
   19456:	8726                	mv	a4,s1
   19458:	00000073          	ecall
   1945c:	50b6                	lw	ra,108(sp)
   1945e:	5426                	lw	s0,104(sp)
   19460:	5496                	lw	s1,100(sp)
   19462:	5906                	lw	s2,96(sp)
   19464:	49f6                	lw	s3,92(sp)
   19466:	6165                	addi	sp,sp,112
   19468:	8082                	ret
   1946a:	00014703          	lbu	a4,0(sp)
   1946e:	00c71463          	bne	a4,a2,19476 <_ZN20complex_dynamic_type3app17hfaf0e0fc5d50b53bE+0x104>
   19472:	470d                	li	a4,3
   19474:	a825                	j	194ac <_ZN20complex_dynamic_type3app17hfaf0e0fc5d50b53bE+0x13a>
   19476:	6505                	lui	a0,0x1
   19478:	b3c50513          	addi	a0,a0,-1220 # b3c <.Lline_table_start1+0x911>
   1947c:	4589                	li	a1,2
   1947e:	4601                	li	a2,0
   19480:	4681                	li	a3,0
   19482:	00000073          	ecall
   19486:	01f14703          	lbu	a4,31(sp)
   1948a:	4509                	li	a0,2
   1948c:	00a10023          	sb	a0,0(sp)
   19490:	00a71e63          	bne	a4,a0,194ac <_ZN20complex_dynamic_type3app17hfaf0e0fc5d50b53bE+0x13a>
   19494:	00198513          	addi	a0,s3,1
   19498:	03c00613          	li	a2,60
   1949c:	85ca                	mv	a1,s2
   1949e:	00004097          	auipc	ra,0x4
   194a2:	2d8080e7          	jalr	728(ra) # 1d776 <memcpy>
   194a6:	00098023          	sb	zero,0(s3)
   194aa:	bf4d                	j	1945c <_ZN20complex_dynamic_type3app17hfaf0e0fc5d50b53bE+0xea>
   194ac:	6505                	lui	a0,0x1
   194ae:	b3c50513          	addi	a0,a0,-1220 # b3c <.Lline_table_start1+0x911>
   194b2:	458d                	li	a1,3
   194b4:	4601                	li	a2,0
   194b6:	4681                	li	a3,0
   194b8:	00000073          	ecall
   194bc:	00014483          	lbu	s1,0(sp)
   194c0:	00198513          	addi	a0,s3,1
   194c4:	03c00613          	li	a2,60
   194c8:	85ca                	mv	a1,s2
   194ca:	00004097          	auipc	ra,0x4
   194ce:	2ac080e7          	jalr	684(ra) # 1d776 <memcpy>
   194d2:	4509                	li	a0,2
   194d4:	00098023          	sb	zero,0(s3)
   194d8:	f6a499e3          	bne	s1,a0,1944a <_ZN20complex_dynamic_type3app17hfaf0e0fc5d50b53bE+0xd8>
   194dc:	b741                	j	1945c <_ZN20complex_dynamic_type3app17hfaf0e0fc5d50b53bE+0xea>

000194de <_ZN20complex_dynamic_type3app17hfe730775731733d4E>:
   194de:	7175                	addi	sp,sp,-144
   194e0:	c706                	sw	ra,140(sp)
   194e2:	c522                	sw	s0,136(sp)
   194e4:	c326                	sw	s1,132(sp)
   194e6:	c14a                	sw	s2,128(sp)
   194e8:	dece                	sw	s3,124(sp)
   194ea:	89aa                	mv	s3,a0
   194ec:	4409                	li	s0,2
   194ee:	008104a3          	sb	s0,9(sp)
   194f2:	00a10493          	addi	s1,sp,10
   194f6:	04000613          	li	a2,64
   194fa:	8526                	mv	a0,s1
   194fc:	00004097          	auipc	ra,0x4
   19500:	27a080e7          	jalr	634(ra) # 1d776 <memcpy>
   19504:	04b10913          	addi	s2,sp,75
   19508:	03100613          	li	a2,49
   1950c:	854a                	mv	a0,s2
   1950e:	4581                	li	a1,0
   19510:	00004097          	auipc	ra,0x4
   19514:	1fa080e7          	jalr	506(ra) # 1d70a <memset>
   19518:	8626                	mv	a2,s1
   1951a:	04810523          	sb	s0,74(sp)
   1951e:	6505                	lui	a0,0x1
   19520:	4491                	li	s1,4
   19522:	45a1                	li	a1,8
   19524:	fce50793          	addi	a5,a0,-50 # fce <.Lline_table_start1+0xda3>
   19528:	04000693          	li	a3,64
   1952c:	4711                	li	a4,4
   1952e:	853e                	mv	a0,a5
   19530:	00000073          	ecall
   19534:	00851863          	bne	a0,s0,19544 <_ZN20complex_dynamic_type3app17hfe730775731733d4E+0x66>
   19538:	4505                	li	a0,1
   1953a:	00a98023          	sb	a0,0(s3)
   1953e:	00b9a223          	sw	a1,4(s3)
   19542:	a0bd                	j	195b0 <_ZN20complex_dynamic_type3app17hfe730775731733d4E+0xd2>
   19544:	853e                	mv	a0,a5
   19546:	864a                	mv	a2,s2
   19548:	009104a3          	sb	s1,9(sp)
   1954c:	478d                	li	a5,3
   1954e:	4595                	li	a1,5
   19550:	03100693          	li	a3,49
   19554:	470d                	li	a4,3
   19556:	00000073          	ecall
   1955a:	00851d63          	bne	a0,s0,19574 <_ZN20complex_dynamic_type3app17hfe730775731733d4E+0x96>
   1955e:	04a14703          	lbu	a4,74(sp)
   19562:	4505                	li	a0,1
   19564:	4609                	li	a2,2
   19566:	00a98023          	sb	a0,0(s3)
   1956a:	00b9a223          	sw	a1,4(s3)
   1956e:	02c71963          	bne	a4,a2,195a0 <_ZN20complex_dynamic_type3app17hfe730775731733d4E+0xc2>
   19572:	a83d                	j	195b0 <_ZN20complex_dynamic_type3app17hfe730775731733d4E+0xd2>
   19574:	4681                	li	a3,0
   19576:	04f10523          	sb	a5,74(sp)
   1957a:	6505                	lui	a0,0x1
   1957c:	45a1                	li	a1,8
   1957e:	4615                	li	a2,5
   19580:	4709                	li	a4,2
   19582:	fce50513          	addi	a0,a0,-50 # fce <.Lline_table_start1+0xda3>
   19586:	07f00793          	li	a5,127
   1958a:	00000073          	ecall
   1958e:	4609                	li	a2,2
   19590:	04a7e563          	bltu	a5,a0,195da <_ZN20complex_dynamic_type3app17hfe730775731733d4E+0xfc>
   19594:	4505                	li	a0,1
   19596:	00a98023          	sb	a0,0(s3)
   1959a:	00b9a223          	sw	a1,4(s3)
   1959e:	470d                	li	a4,3
   195a0:	6505                	lui	a0,0x1
   195a2:	fce50513          	addi	a0,a0,-50 # fce <.Lline_table_start1+0xda3>
   195a6:	4595                	li	a1,5
   195a8:	4601                	li	a2,0
   195aa:	4681                	li	a3,0
   195ac:	00000073          	ecall
   195b0:	00914483          	lbu	s1,9(sp)
   195b4:	4509                	li	a0,2
   195b6:	00a48b63          	beq	s1,a0,195cc <_ZN20complex_dynamic_type3app17hfe730775731733d4E+0xee>
   195ba:	6505                	lui	a0,0x1
   195bc:	fce50513          	addi	a0,a0,-50 # fce <.Lline_table_start1+0xda3>
   195c0:	45a1                	li	a1,8
   195c2:	4601                	li	a2,0
   195c4:	4681                	li	a3,0
   195c6:	8726                	mv	a4,s1
   195c8:	00000073          	ecall
   195cc:	40ba                	lw	ra,140(sp)
   195ce:	442a                	lw	s0,136(sp)
   195d0:	449a                	lw	s1,132(sp)
   195d2:	490a                	lw	s2,128(sp)
   195d4:	59f6                	lw	s3,124(sp)
   195d6:	6149                	addi	sp,sp,144
   195d8:	8082                	ret
   195da:	00914703          	lbu	a4,9(sp)
   195de:	00c71463          	bne	a4,a2,195e6 <_ZN20complex_dynamic_type3app17hfe730775731733d4E+0x108>
   195e2:	470d                	li	a4,3
   195e4:	a825                	j	1961c <_ZN20complex_dynamic_type3app17hfe730775731733d4E+0x13e>
   195e6:	6505                	lui	a0,0x1
   195e8:	fce50513          	addi	a0,a0,-50 # fce <.Lline_table_start1+0xda3>
   195ec:	45a1                	li	a1,8
   195ee:	4601                	li	a2,0
   195f0:	4681                	li	a3,0
   195f2:	00000073          	ecall
   195f6:	04a14703          	lbu	a4,74(sp)
   195fa:	4509                	li	a0,2
   195fc:	00a104a3          	sb	a0,9(sp)
   19600:	00a71e63          	bne	a4,a0,1961c <_ZN20complex_dynamic_type3app17hfe730775731733d4E+0x13e>
   19604:	00198513          	addi	a0,s3,1
   19608:	03100613          	li	a2,49
   1960c:	85ca                	mv	a1,s2
   1960e:	00004097          	auipc	ra,0x4
   19612:	168080e7          	jalr	360(ra) # 1d776 <memcpy>
   19616:	00098023          	sb	zero,0(s3)
   1961a:	bf4d                	j	195cc <_ZN20complex_dynamic_type3app17hfe730775731733d4E+0xee>
   1961c:	6505                	lui	a0,0x1
   1961e:	fce50513          	addi	a0,a0,-50 # fce <.Lline_table_start1+0xda3>
   19622:	4595                	li	a1,5
   19624:	4601                	li	a2,0
   19626:	4681                	li	a3,0
   19628:	00000073          	ecall
   1962c:	00914483          	lbu	s1,9(sp)
   19630:	00198513          	addi	a0,s3,1
   19634:	03100613          	li	a2,49
   19638:	85ca                	mv	a1,s2
   1963a:	00004097          	auipc	ra,0x4
   1963e:	13c080e7          	jalr	316(ra) # 1d776 <memcpy>
   19642:	4509                	li	a0,2
   19644:	00098023          	sb	zero,0(s3)
   19648:	f6a499e3          	bne	s1,a0,195ba <_ZN20complex_dynamic_type3app17hfe730775731733d4E+0xdc>
   1964c:	b741                	j	195cc <_ZN20complex_dynamic_type3app17hfe730775731733d4E+0xee>

0001964e <_start>:
   1964e:	81010113          	addi	sp,sp,-2032
   19652:	7e112623          	sw	ra,2028(sp)
   19656:	7e812423          	sw	s0,2024(sp)
   1965a:	7e912223          	sw	s1,2020(sp)
   1965e:	7f212023          	sw	s2,2016(sp)
   19662:	7d312e23          	sw	s3,2012(sp)
   19666:	7d412c23          	sw	s4,2008(sp)
   1966a:	7d512a23          	sw	s5,2004(sp)
   1966e:	7d612823          	sw	s6,2000(sp)
   19672:	80010113          	addi	sp,sp,-2048
   19676:	b3010113          	addi	sp,sp,-1232
   1967a:	7ff10a13          	addi	s4,sp,2047
   1967e:	795a0a13          	addi	s4,s4,1941
   19682:	05510493          	addi	s1,sp,85
   19686:	02800613          	li	a2,40
   1968a:	8526                	mv	a0,s1
   1968c:	4581                	li	a1,0
   1968e:	00004097          	auipc	ra,0x4
   19692:	07c080e7          	jalr	124(ra) # 1d70a <memset>
   19696:	4409                	li	s0,2
   19698:	04810a23          	sb	s0,84(sp)
   1969c:	6505                	lui	a0,0x1
   1969e:	38150513          	addi	a0,a0,897 # 1381 <.Lline_table_start1+0x1156>
   196a2:	00a109b3          	add	s3,sp,a0
   196a6:	05100613          	li	a2,81
   196aa:	854e                	mv	a0,s3
   196ac:	4581                	li	a1,0
   196ae:	00004097          	auipc	ra,0x4
   196b2:	05c080e7          	jalr	92(ra) # 1d70a <memset>
   196b6:	8626                	mv	a2,s1
   196b8:	3e8a0623          	sb	s0,1004(s4)
   196bc:	6489                	lui	s1,0x2
   196be:	4791                	li	a5,4
   196c0:	45a5                	li	a1,9
   196c2:	0499                	addi	s1,s1,6 # 2006 <.Lline_table_start1+0x1ddb>
   196c4:	02800693          	li	a3,40
   196c8:	4711                	li	a4,4
   196ca:	8526                	mv	a0,s1
   196cc:	00000073          	ecall
   196d0:	00851463          	bne	a0,s0,196d8 <_start+0x8a>
   196d4:	88ae                	mv	a7,a1
   196d6:	a8a9                	j	19730 <_start+0xe2>
   196d8:	8526                	mv	a0,s1
   196da:	864e                	mv	a2,s3
   196dc:	04f10a23          	sb	a5,84(sp)
   196e0:	478d                	li	a5,3
   196e2:	45a5                	li	a1,9
   196e4:	05100693          	li	a3,81
   196e8:	470d                	li	a4,3
   196ea:	00000073          	ecall
   196ee:	00851963          	bne	a0,s0,19700 <_start+0xb2>
   196f2:	88ae                	mv	a7,a1
   196f4:	3eca4703          	lbu	a4,1004(s4)
   196f8:	4509                	li	a0,2
   196fa:	02a71463          	bne	a4,a0,19722 <_start+0xd4>
   196fe:	a80d                	j	19730 <_start+0xe2>
   19700:	4681                	li	a3,0
   19702:	3efa0623          	sb	a5,1004(s4)
   19706:	6509                	lui	a0,0x2
   19708:	45a5                	li	a1,9
   1970a:	4625                	li	a2,9
   1970c:	4709                	li	a4,2
   1970e:	0519                	addi	a0,a0,6 # 2006 <.Lline_table_start1+0x1ddb>
   19710:	07f00793          	li	a5,127
   19714:	00000073          	ecall
   19718:	88ae                	mv	a7,a1
   1971a:	4589                	li	a1,2
   1971c:	04a7ef63          	bltu	a5,a0,1977a <_start+0x12c>
   19720:	470d                	li	a4,3
   19722:	6509                	lui	a0,0x2
   19724:	0519                	addi	a0,a0,6 # 2006 <.Lline_table_start1+0x1ddb>
   19726:	45a5                	li	a1,9
   19728:	4601                	li	a2,0
   1972a:	4681                	li	a3,0
   1972c:	00000073          	ecall
   19730:	05414703          	lbu	a4,84(sp)
   19734:	4509                	li	a0,2
   19736:	00a70963          	beq	a4,a0,19748 <_start+0xfa>
   1973a:	6509                	lui	a0,0x2
   1973c:	0519                	addi	a0,a0,6 # 2006 <.Lline_table_start1+0x1ddb>
   1973e:	45a5                	li	a1,9
   19740:	4601                	li	a2,0
   19742:	4681                	li	a3,0
   19744:	00000073          	ecall
   19748:	4505                	li	a0,1
   1974a:	85c6                	mv	a1,a7
   1974c:	7f010113          	addi	sp,sp,2032
   19750:	4e010113          	addi	sp,sp,1248
   19754:	7ec12083          	lw	ra,2028(sp)
   19758:	7e812403          	lw	s0,2024(sp)
   1975c:	7e412483          	lw	s1,2020(sp)
   19760:	7e012903          	lw	s2,2016(sp)
   19764:	7dc12983          	lw	s3,2012(sp)
   19768:	7d812a03          	lw	s4,2008(sp)
   1976c:	7d412a83          	lw	s5,2004(sp)
   19770:	7d012b03          	lw	s6,2000(sp)
   19774:	7f010113          	addi	sp,sp,2032
   19778:	8082                	ret
   1977a:	05414703          	lbu	a4,84(sp)
   1977e:	00b71463          	bne	a4,a1,19786 <_start+0x138>
   19782:	470d                	li	a4,3
   19784:	a0bd                	j	197f2 <_start+0x1a4>
   19786:	6509                	lui	a0,0x2
   19788:	0519                	addi	a0,a0,6 # 2006 <.Lline_table_start1+0x1ddb>
   1978a:	45a5                	li	a1,9
   1978c:	4601                	li	a2,0
   1978e:	4681                	li	a3,0
   19790:	00000073          	ecall
   19794:	3eca4703          	lbu	a4,1004(s4)
   19798:	4509                	li	a0,2
   1979a:	04a10a23          	sb	a0,84(sp)
   1979e:	04a71a63          	bne	a4,a0,197f2 <_start+0x1a4>
   197a2:	0019c503          	lbu	a0,1(s3)
   197a6:	0009c583          	lbu	a1,0(s3)
   197aa:	0029c603          	lbu	a2,2(s3)
   197ae:	0522                	slli	a0,a0,0x8
   197b0:	3f0a4683          	lbu	a3,1008(s4)
   197b4:	3f1a4703          	lbu	a4,1009(s4)
   197b8:	8d4d                	or	a0,a0,a1
   197ba:	3f2a4583          	lbu	a1,1010(s4)
   197be:	3f3a4783          	lbu	a5,1011(s4)
   197c2:	0722                	slli	a4,a4,0x8
   197c4:	8ed9                	or	a3,a3,a4
   197c6:	05c2                	slli	a1,a1,0x10
   197c8:	07e2                	slli	a5,a5,0x18
   197ca:	8ddd                	or	a1,a1,a5
   197cc:	08a11a23          	sh	a0,148(sp)
   197d0:	08c10b23          	sb	a2,150(sp)
   197d4:	00d5e4b3          	or	s1,a1,a3
   197d8:	6505                	lui	a0,0x1
   197da:	38850513          	addi	a0,a0,904 # 1388 <.Lline_table_start1+0x115d>
   197de:	00a105b3          	add	a1,sp,a0
   197e2:	0028                	addi	a0,sp,8
   197e4:	04a00613          	li	a2,74
   197e8:	00004097          	auipc	ra,0x4
   197ec:	f8e080e7          	jalr	-114(ra) # 1d776 <memcpy>
   197f0:	a8a5                	j	19868 <_start+0x21a>
   197f2:	4601                	li	a2,0
   197f4:	4681                	li	a3,0
   197f6:	6909                	lui	s2,0x2
   197f8:	0919                	addi	s2,s2,6 # 2006 <.Lline_table_start1+0x1ddb>
   197fa:	45a5                	li	a1,9
   197fc:	854a                	mv	a0,s2
   197fe:	00000073          	ecall
   19802:	0019c503          	lbu	a0,1(s3)
   19806:	0009c583          	lbu	a1,0(s3)
   1980a:	0029c603          	lbu	a2,2(s3)
   1980e:	0522                	slli	a0,a0,0x8
   19810:	3f0a4683          	lbu	a3,1008(s4)
   19814:	3f1a4703          	lbu	a4,1009(s4)
   19818:	8d4d                	or	a0,a0,a1
   1981a:	3f2a4583          	lbu	a1,1010(s4)
   1981e:	3f3a4783          	lbu	a5,1011(s4)
   19822:	0722                	slli	a4,a4,0x8
   19824:	8ed9                	or	a3,a3,a4
   19826:	05414403          	lbu	s0,84(sp)
   1982a:	05c2                	slli	a1,a1,0x10
   1982c:	07e2                	slli	a5,a5,0x18
   1982e:	8ddd                	or	a1,a1,a5
   19830:	08a11a23          	sh	a0,148(sp)
   19834:	08c10b23          	sb	a2,150(sp)
   19838:	00d5e4b3          	or	s1,a1,a3
   1983c:	6505                	lui	a0,0x1
   1983e:	38850513          	addi	a0,a0,904 # 1388 <.Lline_table_start1+0x115d>
   19842:	00a105b3          	add	a1,sp,a0
   19846:	0028                	addi	a0,sp,8
   19848:	04a00613          	li	a2,74
   1984c:	00004097          	auipc	ra,0x4
   19850:	f2a080e7          	jalr	-214(ra) # 1d776 <memcpy>
   19854:	4509                	li	a0,2
   19856:	00a40963          	beq	s0,a0,19868 <_start+0x21a>
   1985a:	45a5                	li	a1,9
   1985c:	854a                	mv	a0,s2
   1985e:	4601                	li	a2,0
   19860:	4681                	li	a3,0
   19862:	8722                	mv	a4,s0
   19864:	00000073          	ecall
   19868:	09414503          	lbu	a0,148(sp)
   1986c:	09514583          	lbu	a1,149(sp)
   19870:	09614603          	lbu	a2,150(sp)
   19874:	6685                	lui	a3,0x1
   19876:	38168693          	addi	a3,a3,897 # 1381 <.Lline_table_start1+0x1156>
   1987a:	00d10933          	add	s2,sp,a3
   1987e:	3eaa06a3          	sb	a0,1005(s4)
   19882:	3eba0723          	sb	a1,1006(s4)
   19886:	3eca07a3          	sb	a2,1007(s4)
   1988a:	6505                	lui	a0,0x1
   1988c:	32450513          	addi	a0,a0,804 # 1324 <.Lline_table_start1+0x10f9>
   19890:	950a                	add	a0,a0,sp
   19892:	002c                	addi	a1,sp,8
   19894:	04a00613          	li	a2,74
   19898:	00004097          	auipc	ra,0x4
   1989c:	ede080e7          	jalr	-290(ra) # 1d776 <memcpy>
   198a0:	6505                	lui	a0,0x1
   198a2:	38850513          	addi	a0,a0,904 # 1388 <.Lline_table_start1+0x115d>
   198a6:	950a                	add	a0,a0,sp
   198a8:	6585                	lui	a1,0x1
   198aa:	32458593          	addi	a1,a1,804 # 1324 <.Lline_table_start1+0x10f9>
   198ae:	958a                	add	a1,a1,sp
   198b0:	04a00613          	li	a2,74
   198b4:	00004097          	auipc	ra,0x4
   198b8:	ec2080e7          	jalr	-318(ra) # 1d776 <memcpy>
   198bc:	4409                	li	s0,2
   198be:	0184d513          	srli	a0,s1,0x18
   198c2:	0104d593          	srli	a1,s1,0x10
   198c6:	3eaa09a3          	sb	a0,1011(s4)
   198ca:	0084d513          	srli	a0,s1,0x8
   198ce:	3e8a0623          	sb	s0,1004(s4)
   198d2:	3e9a0823          	sb	s1,1008(s4)
   198d6:	3eaa08a3          	sb	a0,1009(s4)
   198da:	3eba0923          	sb	a1,1010(s4)
   198de:	6505                	lui	a0,0x1
   198e0:	32550513          	addi	a0,a0,805 # 1325 <.Lline_table_start1+0x10fa>
   198e4:	00a109b3          	add	s3,sp,a0
   198e8:	04600613          	li	a2,70
   198ec:	854e                	mv	a0,s3
   198ee:	4581                	li	a1,0
   198f0:	00004097          	auipc	ra,0x4
   198f4:	e1a080e7          	jalr	-486(ra) # 1d70a <memset>
   198f8:	864a                	mv	a2,s2
   198fa:	388a0823          	sb	s0,912(s4)
   198fe:	6509                	lui	a0,0x2
   19900:	4811                	li	a6,4
   19902:	459d                	li	a1,7
   19904:	0c450493          	addi	s1,a0,196 # 20c4 <.Lline_table_start1+0x1e99>
   19908:	05100693          	li	a3,81
   1990c:	4711                	li	a4,4
   1990e:	8526                	mv	a0,s1
   19910:	00000073          	ecall
   19914:	00851463          	bne	a0,s0,1991c <_start+0x2ce>
   19918:	88ae                	mv	a7,a1
   1991a:	a8b9                	j	19978 <_start+0x32a>
   1991c:	8526                	mv	a0,s1
   1991e:	4581                	li	a1,0
   19920:	864e                	mv	a2,s3
   19922:	3f0a0623          	sb	a6,1004(s4)
   19926:	478d                	li	a5,3
   19928:	04600693          	li	a3,70
   1992c:	470d                	li	a4,3
   1992e:	00000073          	ecall
   19932:	00851963          	bne	a0,s0,19944 <_start+0x2f6>
   19936:	88ae                	mv	a7,a1
   19938:	390a4703          	lbu	a4,912(s4)
   1993c:	4509                	li	a0,2
   1993e:	02a71563          	bne	a4,a0,19968 <_start+0x31a>
   19942:	a81d                	j	19978 <_start+0x32a>
   19944:	4601                	li	a2,0
   19946:	4681                	li	a3,0
   19948:	38fa0823          	sb	a5,912(s4)
   1994c:	6509                	lui	a0,0x2
   1994e:	459d                	li	a1,7
   19950:	4709                	li	a4,2
   19952:	0c450513          	addi	a0,a0,196 # 20c4 <.Lline_table_start1+0x1e99>
   19956:	07f00793          	li	a5,127
   1995a:	00000073          	ecall
   1995e:	88ae                	mv	a7,a1
   19960:	4589                	li	a1,2
   19962:	02a7e963          	bltu	a5,a0,19994 <_start+0x346>
   19966:	470d                	li	a4,3
   19968:	6509                	lui	a0,0x2
   1996a:	0c450513          	addi	a0,a0,196 # 20c4 <.Lline_table_start1+0x1e99>
   1996e:	4581                	li	a1,0
   19970:	4601                	li	a2,0
   19972:	4681                	li	a3,0
   19974:	00000073          	ecall
   19978:	3eca4703          	lbu	a4,1004(s4)
   1997c:	4509                	li	a0,2
   1997e:	dca705e3          	beq	a4,a0,19748 <_start+0xfa>
   19982:	6509                	lui	a0,0x2
   19984:	0c450513          	addi	a0,a0,196 # 20c4 <.Lline_table_start1+0x1e99>
   19988:	459d                	li	a1,7
   1998a:	4601                	li	a2,0
   1998c:	4681                	li	a3,0
   1998e:	00000073          	ecall
   19992:	bb5d                	j	19748 <_start+0xfa>
   19994:	3eca4703          	lbu	a4,1004(s4)
   19998:	00b71463          	bne	a4,a1,199a0 <_start+0x352>
   1999c:	470d                	li	a4,3
   1999e:	a885                	j	19a0e <_start+0x3c0>
   199a0:	6509                	lui	a0,0x2
   199a2:	0c450513          	addi	a0,a0,196 # 20c4 <.Lline_table_start1+0x1e99>
   199a6:	459d                	li	a1,7
   199a8:	4601                	li	a2,0
   199aa:	4681                	li	a3,0
   199ac:	00000073          	ecall
   199b0:	390a4703          	lbu	a4,912(s4)
   199b4:	4509                	li	a0,2
   199b6:	3eaa0623          	sb	a0,1004(s4)
   199ba:	04a71a63          	bne	a4,a0,19a0e <_start+0x3c0>
   199be:	0019c503          	lbu	a0,1(s3)
   199c2:	0009c583          	lbu	a1,0(s3)
   199c6:	0029c603          	lbu	a2,2(s3)
   199ca:	0522                	slli	a0,a0,0x8
   199cc:	394a4683          	lbu	a3,916(s4)
   199d0:	395a4703          	lbu	a4,917(s4)
   199d4:	8d4d                	or	a0,a0,a1
   199d6:	396a4583          	lbu	a1,918(s4)
   199da:	397a4783          	lbu	a5,919(s4)
   199de:	0722                	slli	a4,a4,0x8
   199e0:	8ed9                	or	a3,a3,a4
   199e2:	05c2                	slli	a1,a1,0x10
   199e4:	07e2                	slli	a5,a5,0x18
   199e6:	8ddd                	or	a1,a1,a5
   199e8:	08a11a23          	sh	a0,148(sp)
   199ec:	08c10b23          	sb	a2,150(sp)
   199f0:	00d5e4b3          	or	s1,a1,a3
   199f4:	6505                	lui	a0,0x1
   199f6:	32c50513          	addi	a0,a0,812 # 132c <.Lline_table_start1+0x1101>
   199fa:	00a105b3          	add	a1,sp,a0
   199fe:	08c8                	addi	a0,sp,84
   19a00:	03f00613          	li	a2,63
   19a04:	00004097          	auipc	ra,0x4
   19a08:	d72080e7          	jalr	-654(ra) # 1d776 <memcpy>
   19a0c:	a8ad                	j	19a86 <_start+0x438>
   19a0e:	4581                	li	a1,0
   19a10:	4601                	li	a2,0
   19a12:	4681                	li	a3,0
   19a14:	6509                	lui	a0,0x2
   19a16:	0c450913          	addi	s2,a0,196 # 20c4 <.Lline_table_start1+0x1e99>
   19a1a:	854a                	mv	a0,s2
   19a1c:	00000073          	ecall
   19a20:	0019c503          	lbu	a0,1(s3)
   19a24:	0009c583          	lbu	a1,0(s3)
   19a28:	0029c603          	lbu	a2,2(s3)
   19a2c:	0522                	slli	a0,a0,0x8
   19a2e:	394a4683          	lbu	a3,916(s4)
   19a32:	395a4703          	lbu	a4,917(s4)
   19a36:	8d4d                	or	a0,a0,a1
   19a38:	396a4583          	lbu	a1,918(s4)
   19a3c:	397a4783          	lbu	a5,919(s4)
   19a40:	0722                	slli	a4,a4,0x8
   19a42:	8ed9                	or	a3,a3,a4
   19a44:	05c2                	slli	a1,a1,0x10
   19a46:	07e2                	slli	a5,a5,0x18
   19a48:	8ddd                	or	a1,a1,a5
   19a4a:	3eca4403          	lbu	s0,1004(s4)
   19a4e:	08a11a23          	sh	a0,148(sp)
   19a52:	08c10b23          	sb	a2,150(sp)
   19a56:	00d5e4b3          	or	s1,a1,a3
   19a5a:	6505                	lui	a0,0x1
   19a5c:	32c50513          	addi	a0,a0,812 # 132c <.Lline_table_start1+0x1101>
   19a60:	00a105b3          	add	a1,sp,a0
   19a64:	08c8                	addi	a0,sp,84
   19a66:	03f00613          	li	a2,63
   19a6a:	00004097          	auipc	ra,0x4
   19a6e:	d0c080e7          	jalr	-756(ra) # 1d776 <memcpy>
   19a72:	4509                	li	a0,2
   19a74:	00a40963          	beq	s0,a0,19a86 <_start+0x438>
   19a78:	459d                	li	a1,7
   19a7a:	854a                	mv	a0,s2
   19a7c:	4601                	li	a2,0
   19a7e:	4681                	li	a3,0
   19a80:	8722                	mv	a4,s0
   19a82:	00000073          	ecall
   19a86:	09414503          	lbu	a0,148(sp)
   19a8a:	09514583          	lbu	a1,149(sp)
   19a8e:	09614603          	lbu	a2,150(sp)
   19a92:	6685                	lui	a3,0x1
   19a94:	38168693          	addi	a3,a3,897 # 1381 <.Lline_table_start1+0x1156>
   19a98:	00d10933          	add	s2,sp,a3
   19a9c:	3eaa06a3          	sb	a0,1005(s4)
   19aa0:	3eba0723          	sb	a1,1006(s4)
   19aa4:	3eca07a3          	sb	a2,1007(s4)
   19aa8:	0028                	addi	a0,sp,8
   19aaa:	08cc                	addi	a1,sp,84
   19aac:	03f00613          	li	a2,63
   19ab0:	00004097          	auipc	ra,0x4
   19ab4:	cc6080e7          	jalr	-826(ra) # 1d776 <memcpy>
   19ab8:	6505                	lui	a0,0x1
   19aba:	38850513          	addi	a0,a0,904 # 1388 <.Lline_table_start1+0x115d>
   19abe:	950a                	add	a0,a0,sp
   19ac0:	002c                	addi	a1,sp,8
   19ac2:	03f00613          	li	a2,63
   19ac6:	00004097          	auipc	ra,0x4
   19aca:	cb0080e7          	jalr	-848(ra) # 1d776 <memcpy>
   19ace:	4409                	li	s0,2
   19ad0:	0184d513          	srli	a0,s1,0x18
   19ad4:	0104d593          	srli	a1,s1,0x10
   19ad8:	3eaa09a3          	sb	a0,1011(s4)
   19adc:	0084d513          	srli	a0,s1,0x8
   19ae0:	3e8a0623          	sb	s0,1004(s4)
   19ae4:	3e9a0823          	sb	s1,1008(s4)
   19ae8:	3eaa08a3          	sb	a0,1009(s4)
   19aec:	3eba0923          	sb	a1,1010(s4)
   19af0:	4661                	li	a2,24
   19af2:	854e                	mv	a0,s3
   19af4:	4581                	li	a1,0
   19af6:	00004097          	auipc	ra,0x4
   19afa:	c14080e7          	jalr	-1004(ra) # 1d70a <memset>
   19afe:	864a                	mv	a2,s2
   19b00:	388a0823          	sb	s0,912(s4)
   19b04:	6509                	lui	a0,0x2
   19b06:	4791                	li	a5,4
   19b08:	458d                	li	a1,3
   19b0a:	3cf50493          	addi	s1,a0,975 # 23cf <.Lline_table_start1+0x21a4>
   19b0e:	04600693          	li	a3,70
   19b12:	4711                	li	a4,4
   19b14:	8526                	mv	a0,s1
   19b16:	00000073          	ecall
   19b1a:	00851463          	bne	a0,s0,19b22 <_start+0x4d4>
   19b1e:	88ae                	mv	a7,a1
   19b20:	a8b1                	j	19b7c <_start+0x52e>
   19b22:	8526                	mv	a0,s1
   19b24:	864e                	mv	a2,s3
   19b26:	3efa0623          	sb	a5,1004(s4)
   19b2a:	478d                	li	a5,3
   19b2c:	4589                	li	a1,2
   19b2e:	46e1                	li	a3,24
   19b30:	470d                	li	a4,3
   19b32:	00000073          	ecall
   19b36:	00851963          	bne	a0,s0,19b48 <_start+0x4fa>
   19b3a:	88ae                	mv	a7,a1
   19b3c:	390a4703          	lbu	a4,912(s4)
   19b40:	4509                	li	a0,2
   19b42:	02a71563          	bne	a4,a0,19b6c <_start+0x51e>
   19b46:	a81d                	j	19b7c <_start+0x52e>
   19b48:	4681                	li	a3,0
   19b4a:	38fa0823          	sb	a5,912(s4)
   19b4e:	6509                	lui	a0,0x2
   19b50:	458d                	li	a1,3
   19b52:	4609                	li	a2,2
   19b54:	4709                	li	a4,2
   19b56:	3cf50513          	addi	a0,a0,975 # 23cf <.Lline_table_start1+0x21a4>
   19b5a:	07f00793          	li	a5,127
   19b5e:	00000073          	ecall
   19b62:	88ae                	mv	a7,a1
   19b64:	4589                	li	a1,2
   19b66:	02a7e963          	bltu	a5,a0,19b98 <_start+0x54a>
   19b6a:	470d                	li	a4,3
   19b6c:	6509                	lui	a0,0x2
   19b6e:	3cf50513          	addi	a0,a0,975 # 23cf <.Lline_table_start1+0x21a4>
   19b72:	4589                	li	a1,2
   19b74:	4601                	li	a2,0
   19b76:	4681                	li	a3,0
   19b78:	00000073          	ecall
   19b7c:	3eca4703          	lbu	a4,1004(s4)
   19b80:	4509                	li	a0,2
   19b82:	bca703e3          	beq	a4,a0,19748 <_start+0xfa>
   19b86:	6509                	lui	a0,0x2
   19b88:	3cf50513          	addi	a0,a0,975 # 23cf <.Lline_table_start1+0x21a4>
   19b8c:	458d                	li	a1,3
   19b8e:	4601                	li	a2,0
   19b90:	4681                	li	a3,0
   19b92:	00000073          	ecall
   19b96:	be4d                	j	19748 <_start+0xfa>
   19b98:	3eca4703          	lbu	a4,1004(s4)
   19b9c:	00b71463          	bne	a4,a1,19ba4 <_start+0x556>
   19ba0:	470d                	li	a4,3
   19ba2:	a0bd                	j	19c10 <_start+0x5c2>
   19ba4:	6509                	lui	a0,0x2
   19ba6:	3cf50513          	addi	a0,a0,975 # 23cf <.Lline_table_start1+0x21a4>
   19baa:	458d                	li	a1,3
   19bac:	4601                	li	a2,0
   19bae:	4681                	li	a3,0
   19bb0:	00000073          	ecall
   19bb4:	390a4703          	lbu	a4,912(s4)
   19bb8:	4509                	li	a0,2
   19bba:	3eaa0623          	sb	a0,1004(s4)
   19bbe:	04a71963          	bne	a4,a0,19c10 <_start+0x5c2>
   19bc2:	0019c503          	lbu	a0,1(s3)
   19bc6:	0009c583          	lbu	a1,0(s3)
   19bca:	0029c603          	lbu	a2,2(s3)
   19bce:	0522                	slli	a0,a0,0x8
   19bd0:	394a4683          	lbu	a3,916(s4)
   19bd4:	395a4703          	lbu	a4,917(s4)
   19bd8:	8d4d                	or	a0,a0,a1
   19bda:	396a4583          	lbu	a1,918(s4)
   19bde:	397a4783          	lbu	a5,919(s4)
   19be2:	0722                	slli	a4,a4,0x8
   19be4:	8ed9                	or	a3,a3,a4
   19be6:	05c2                	slli	a1,a1,0x10
   19be8:	07e2                	slli	a5,a5,0x18
   19bea:	8ddd                	or	a1,a1,a5
   19bec:	0aa11423          	sh	a0,168(sp)
   19bf0:	0ac10523          	sb	a2,170(sp)
   19bf4:	00d5e4b3          	or	s1,a1,a3
   19bf8:	6505                	lui	a0,0x1
   19bfa:	32c50513          	addi	a0,a0,812 # 132c <.Lline_table_start1+0x1101>
   19bfe:	00a105b3          	add	a1,sp,a0
   19c02:	0948                	addi	a0,sp,148
   19c04:	4645                	li	a2,17
   19c06:	00004097          	auipc	ra,0x4
   19c0a:	b70080e7          	jalr	-1168(ra) # 1d776 <memcpy>
   19c0e:	a8a5                	j	19c86 <_start+0x638>
   19c10:	4601                	li	a2,0
   19c12:	4681                	li	a3,0
   19c14:	6509                	lui	a0,0x2
   19c16:	3cf50a93          	addi	s5,a0,975 # 23cf <.Lline_table_start1+0x21a4>
   19c1a:	4589                	li	a1,2
   19c1c:	8556                	mv	a0,s5
   19c1e:	00000073          	ecall
   19c22:	0019c503          	lbu	a0,1(s3)
   19c26:	0009c583          	lbu	a1,0(s3)
   19c2a:	0029c603          	lbu	a2,2(s3)
   19c2e:	0522                	slli	a0,a0,0x8
   19c30:	394a4683          	lbu	a3,916(s4)
   19c34:	395a4703          	lbu	a4,917(s4)
   19c38:	8d4d                	or	a0,a0,a1
   19c3a:	396a4583          	lbu	a1,918(s4)
   19c3e:	397a4783          	lbu	a5,919(s4)
   19c42:	0722                	slli	a4,a4,0x8
   19c44:	8ed9                	or	a3,a3,a4
   19c46:	4b09                	li	s6,2
   19c48:	05c2                	slli	a1,a1,0x10
   19c4a:	07e2                	slli	a5,a5,0x18
   19c4c:	8ddd                	or	a1,a1,a5
   19c4e:	3eca4403          	lbu	s0,1004(s4)
   19c52:	0aa11423          	sh	a0,168(sp)
   19c56:	0ac10523          	sb	a2,170(sp)
   19c5a:	00d5e4b3          	or	s1,a1,a3
   19c5e:	6505                	lui	a0,0x1
   19c60:	32c50513          	addi	a0,a0,812 # 132c <.Lline_table_start1+0x1101>
   19c64:	00a105b3          	add	a1,sp,a0
   19c68:	0948                	addi	a0,sp,148
   19c6a:	4645                	li	a2,17
   19c6c:	00004097          	auipc	ra,0x4
   19c70:	b0a080e7          	jalr	-1270(ra) # 1d776 <memcpy>
   19c74:	01640963          	beq	s0,s6,19c86 <_start+0x638>
   19c78:	458d                	li	a1,3
   19c7a:	8556                	mv	a0,s5
   19c7c:	4601                	li	a2,0
   19c7e:	4681                	li	a3,0
   19c80:	8722                	mv	a4,s0
   19c82:	00000073          	ecall
   19c86:	0a814503          	lbu	a0,168(sp)
   19c8a:	0a914583          	lbu	a1,169(sp)
   19c8e:	0aa14603          	lbu	a2,170(sp)
   19c92:	05510a93          	addi	s5,sp,85
   19c96:	04a10aa3          	sb	a0,85(sp)
   19c9a:	04b10b23          	sb	a1,86(sp)
   19c9e:	04c10ba3          	sb	a2,87(sp)
   19ca2:	0028                	addi	a0,sp,8
   19ca4:	094c                	addi	a1,sp,148
   19ca6:	4645                	li	a2,17
   19ca8:	00004097          	auipc	ra,0x4
   19cac:	ace080e7          	jalr	-1330(ra) # 1d776 <memcpy>
   19cb0:	08e8                	addi	a0,sp,92
   19cb2:	002c                	addi	a1,sp,8
   19cb4:	4645                	li	a2,17
   19cb6:	00004097          	auipc	ra,0x4
   19cba:	ac0080e7          	jalr	-1344(ra) # 1d776 <memcpy>
   19cbe:	4409                	li	s0,2
   19cc0:	0184d513          	srli	a0,s1,0x18
   19cc4:	0104d593          	srli	a1,s1,0x10
   19cc8:	04a10da3          	sb	a0,91(sp)
   19ccc:	0084d513          	srli	a0,s1,0x8
   19cd0:	04810a23          	sb	s0,84(sp)
   19cd4:	04910c23          	sb	s1,88(sp)
   19cd8:	04a10ca3          	sb	a0,89(sp)
   19cdc:	04b10d23          	sb	a1,90(sp)
   19ce0:	03600613          	li	a2,54
   19ce4:	854a                	mv	a0,s2
   19ce6:	4581                	li	a1,0
   19ce8:	00004097          	auipc	ra,0x4
   19cec:	a22080e7          	jalr	-1502(ra) # 1d70a <memset>
   19cf0:	4581                	li	a1,0
   19cf2:	8656                	mv	a2,s5
   19cf4:	3e8a0623          	sb	s0,1004(s4)
   19cf8:	4791                	li	a5,4
   19cfa:	21f00513          	li	a0,543
   19cfe:	46e1                	li	a3,24
   19d00:	4711                	li	a4,4
   19d02:	00000073          	ecall
   19d06:	00851463          	bne	a0,s0,19d0e <_start+0x6c0>
   19d0a:	88ae                	mv	a7,a1
   19d0c:	a8b1                	j	19d68 <_start+0x71a>
   19d0e:	864a                	mv	a2,s2
   19d10:	04f10a23          	sb	a5,84(sp)
   19d14:	478d                	li	a5,3
   19d16:	21f00513          	li	a0,543
   19d1a:	459d                	li	a1,7
   19d1c:	03600693          	li	a3,54
   19d20:	470d                	li	a4,3
   19d22:	00000073          	ecall
   19d26:	00851963          	bne	a0,s0,19d38 <_start+0x6ea>
   19d2a:	88ae                	mv	a7,a1
   19d2c:	3eca4703          	lbu	a4,1004(s4)
   19d30:	4509                	li	a0,2
   19d32:	02a71463          	bne	a4,a0,19d5a <_start+0x70c>
   19d36:	a80d                	j	19d68 <_start+0x71a>
   19d38:	4581                	li	a1,0
   19d3a:	4681                	li	a3,0
   19d3c:	3efa0623          	sb	a5,1004(s4)
   19d40:	21f00513          	li	a0,543
   19d44:	461d                	li	a2,7
   19d46:	4709                	li	a4,2
   19d48:	07f00793          	li	a5,127
   19d4c:	00000073          	ecall
   19d50:	88ae                	mv	a7,a1
   19d52:	4589                	li	a1,2
   19d54:	02a7e763          	bltu	a5,a0,19d82 <_start+0x734>
   19d58:	470d                	li	a4,3
   19d5a:	21f00513          	li	a0,543
   19d5e:	459d                	li	a1,7
   19d60:	4601                	li	a2,0
   19d62:	4681                	li	a3,0
   19d64:	00000073          	ecall
   19d68:	05414703          	lbu	a4,84(sp)
   19d6c:	4509                	li	a0,2
   19d6e:	9ca70de3          	beq	a4,a0,19748 <_start+0xfa>
   19d72:	21f00513          	li	a0,543
   19d76:	4581                	li	a1,0
   19d78:	4601                	li	a2,0
   19d7a:	4681                	li	a3,0
   19d7c:	00000073          	ecall
   19d80:	b2e1                	j	19748 <_start+0xfa>
   19d82:	05414703          	lbu	a4,84(sp)
   19d86:	00b71463          	bne	a4,a1,19d8e <_start+0x740>
   19d8a:	470d                	li	a4,3
   19d8c:	a0bd                	j	19dfa <_start+0x7ac>
   19d8e:	21f00513          	li	a0,543
   19d92:	4581                	li	a1,0
   19d94:	4601                	li	a2,0
   19d96:	4681                	li	a3,0
   19d98:	00000073          	ecall
   19d9c:	3eca4703          	lbu	a4,1004(s4)
   19da0:	4509                	li	a0,2
   19da2:	04a10a23          	sb	a0,84(sp)
   19da6:	04a71a63          	bne	a4,a0,19dfa <_start+0x7ac>
   19daa:	00194503          	lbu	a0,1(s2)
   19dae:	00094583          	lbu	a1,0(s2)
   19db2:	00294603          	lbu	a2,2(s2)
   19db6:	0522                	slli	a0,a0,0x8
   19db8:	3f0a4683          	lbu	a3,1008(s4)
   19dbc:	3f1a4703          	lbu	a4,1009(s4)
   19dc0:	8d4d                	or	a0,a0,a1
   19dc2:	3f2a4583          	lbu	a1,1010(s4)
   19dc6:	3f3a4783          	lbu	a5,1011(s4)
   19dca:	0722                	slli	a4,a4,0x8
   19dcc:	8ed9                	or	a3,a3,a4
   19dce:	05c2                	slli	a1,a1,0x10
   19dd0:	07e2                	slli	a5,a5,0x18
   19dd2:	8ddd                	or	a1,a1,a5
   19dd4:	08a11a23          	sh	a0,148(sp)
   19dd8:	08c10b23          	sb	a2,150(sp)
   19ddc:	00d5e433          	or	s0,a1,a3
   19de0:	6505                	lui	a0,0x1
   19de2:	38850513          	addi	a0,a0,904 # 1388 <.Lline_table_start1+0x115d>
   19de6:	00a105b3          	add	a1,sp,a0
   19dea:	0028                	addi	a0,sp,8
   19dec:	02f00613          	li	a2,47
   19df0:	00004097          	auipc	ra,0x4
   19df4:	986080e7          	jalr	-1658(ra) # 1d776 <memcpy>
   19df8:	a8a5                	j	19e70 <_start+0x822>
   19dfa:	4601                	li	a2,0
   19dfc:	4681                	li	a3,0
   19dfe:	21f00513          	li	a0,543
   19e02:	459d                	li	a1,7
   19e04:	00000073          	ecall
   19e08:	00194503          	lbu	a0,1(s2)
   19e0c:	00094583          	lbu	a1,0(s2)
   19e10:	00294603          	lbu	a2,2(s2)
   19e14:	0522                	slli	a0,a0,0x8
   19e16:	3f0a4683          	lbu	a3,1008(s4)
   19e1a:	3f1a4703          	lbu	a4,1009(s4)
   19e1e:	8d4d                	or	a0,a0,a1
   19e20:	3f2a4583          	lbu	a1,1010(s4)
   19e24:	3f3a4783          	lbu	a5,1011(s4)
   19e28:	0722                	slli	a4,a4,0x8
   19e2a:	8ed9                	or	a3,a3,a4
   19e2c:	05414483          	lbu	s1,84(sp)
   19e30:	05c2                	slli	a1,a1,0x10
   19e32:	07e2                	slli	a5,a5,0x18
   19e34:	8ddd                	or	a1,a1,a5
   19e36:	08a11a23          	sh	a0,148(sp)
   19e3a:	08c10b23          	sb	a2,150(sp)
   19e3e:	00d5e433          	or	s0,a1,a3
   19e42:	6505                	lui	a0,0x1
   19e44:	38850513          	addi	a0,a0,904 # 1388 <.Lline_table_start1+0x115d>
   19e48:	00a105b3          	add	a1,sp,a0
   19e4c:	0028                	addi	a0,sp,8
   19e4e:	02f00613          	li	a2,47
   19e52:	00004097          	auipc	ra,0x4
   19e56:	924080e7          	jalr	-1756(ra) # 1d776 <memcpy>
   19e5a:	4509                	li	a0,2
   19e5c:	00a48a63          	beq	s1,a0,19e70 <_start+0x822>
   19e60:	21f00513          	li	a0,543
   19e64:	4581                	li	a1,0
   19e66:	4601                	li	a2,0
   19e68:	4681                	li	a3,0
   19e6a:	8726                	mv	a4,s1
   19e6c:	00000073          	ecall
   19e70:	09414503          	lbu	a0,148(sp)
   19e74:	09514583          	lbu	a1,149(sp)
   19e78:	09614603          	lbu	a2,150(sp)
   19e7c:	6685                	lui	a3,0x1
   19e7e:	38168693          	addi	a3,a3,897 # 1381 <.Lline_table_start1+0x1156>
   19e82:	00d104b3          	add	s1,sp,a3
   19e86:	3eaa06a3          	sb	a0,1005(s4)
   19e8a:	3eba0723          	sb	a1,1006(s4)
   19e8e:	3eca07a3          	sb	a2,1007(s4)
   19e92:	6505                	lui	a0,0x1
   19e94:	32450513          	addi	a0,a0,804 # 1324 <.Lline_table_start1+0x10f9>
   19e98:	950a                	add	a0,a0,sp
   19e9a:	002c                	addi	a1,sp,8
   19e9c:	02f00613          	li	a2,47
   19ea0:	00004097          	auipc	ra,0x4
   19ea4:	8d6080e7          	jalr	-1834(ra) # 1d776 <memcpy>
   19ea8:	6505                	lui	a0,0x1
   19eaa:	38850513          	addi	a0,a0,904 # 1388 <.Lline_table_start1+0x115d>
   19eae:	950a                	add	a0,a0,sp
   19eb0:	6585                	lui	a1,0x1
   19eb2:	32458593          	addi	a1,a1,804 # 1324 <.Lline_table_start1+0x10f9>
   19eb6:	958a                	add	a1,a1,sp
   19eb8:	02f00613          	li	a2,47
   19ebc:	00004097          	auipc	ra,0x4
   19ec0:	8ba080e7          	jalr	-1862(ra) # 1d776 <memcpy>
   19ec4:	4909                	li	s2,2
   19ec6:	01845513          	srli	a0,s0,0x18
   19eca:	01045593          	srli	a1,s0,0x10
   19ece:	3eaa09a3          	sb	a0,1011(s4)
   19ed2:	00845513          	srli	a0,s0,0x8
   19ed6:	3f2a0623          	sb	s2,1004(s4)
   19eda:	3e8a0823          	sb	s0,1008(s4)
   19ede:	3eaa08a3          	sb	a0,1009(s4)
   19ee2:	3eba0923          	sb	a1,1010(s4)
   19ee6:	02500613          	li	a2,37
   19eea:	854e                	mv	a0,s3
   19eec:	4581                	li	a1,0
   19eee:	00004097          	auipc	ra,0x4
   19ef2:	81c080e7          	jalr	-2020(ra) # 1d70a <memset>
   19ef6:	8626                	mv	a2,s1
   19ef8:	392a0823          	sb	s2,912(s4)
   19efc:	6505                	lui	a0,0x1
   19efe:	4411                	li	s0,4
   19f00:	459d                	li	a1,7
   19f02:	59750493          	addi	s1,a0,1431 # 1597 <.Lline_table_start1+0x136c>
   19f06:	03600693          	li	a3,54
   19f0a:	4711                	li	a4,4
   19f0c:	8526                	mv	a0,s1
   19f0e:	00000073          	ecall
   19f12:	01251463          	bne	a0,s2,19f1a <_start+0x8cc>
   19f16:	88ae                	mv	a7,a1
   19f18:	a8b9                	j	19f76 <_start+0x928>
   19f1a:	8526                	mv	a0,s1
   19f1c:	4581                	li	a1,0
   19f1e:	864e                	mv	a2,s3
   19f20:	3e8a0623          	sb	s0,1004(s4)
   19f24:	478d                	li	a5,3
   19f26:	02500693          	li	a3,37
   19f2a:	470d                	li	a4,3
   19f2c:	00000073          	ecall
   19f30:	01251963          	bne	a0,s2,19f42 <_start+0x8f4>
   19f34:	88ae                	mv	a7,a1
   19f36:	390a4703          	lbu	a4,912(s4)
   19f3a:	4509                	li	a0,2
   19f3c:	02a71563          	bne	a4,a0,19f66 <_start+0x918>
   19f40:	a81d                	j	19f76 <_start+0x928>
   19f42:	4601                	li	a2,0
   19f44:	4681                	li	a3,0
   19f46:	38fa0823          	sb	a5,912(s4)
   19f4a:	6505                	lui	a0,0x1
   19f4c:	459d                	li	a1,7
   19f4e:	4709                	li	a4,2
   19f50:	59750513          	addi	a0,a0,1431 # 1597 <.Lline_table_start1+0x136c>
   19f54:	07f00793          	li	a5,127
   19f58:	00000073          	ecall
   19f5c:	88ae                	mv	a7,a1
   19f5e:	4589                	li	a1,2
   19f60:	02a7ea63          	bltu	a5,a0,19f94 <_start+0x946>
   19f64:	470d                	li	a4,3
   19f66:	6505                	lui	a0,0x1
   19f68:	59750513          	addi	a0,a0,1431 # 1597 <.Lline_table_start1+0x136c>
   19f6c:	4581                	li	a1,0
   19f6e:	4601                	li	a2,0
   19f70:	4681                	li	a3,0
   19f72:	00000073          	ecall
   19f76:	3eca4703          	lbu	a4,1004(s4)
   19f7a:	4509                	li	a0,2
   19f7c:	fca70663          	beq	a4,a0,19748 <_start+0xfa>
   19f80:	6505                	lui	a0,0x1
   19f82:	59750513          	addi	a0,a0,1431 # 1597 <.Lline_table_start1+0x136c>
   19f86:	459d                	li	a1,7
   19f88:	4601                	li	a2,0
   19f8a:	4681                	li	a3,0
   19f8c:	00000073          	ecall
   19f90:	fb8ff06f          	j	19748 <_start+0xfa>
   19f94:	3eca4703          	lbu	a4,1004(s4)
   19f98:	00b71463          	bne	a4,a1,19fa0 <_start+0x952>
   19f9c:	470d                	li	a4,3
   19f9e:	a0bd                	j	1a00c <_start+0x9be>
   19fa0:	6505                	lui	a0,0x1
   19fa2:	59750513          	addi	a0,a0,1431 # 1597 <.Lline_table_start1+0x136c>
   19fa6:	459d                	li	a1,7
   19fa8:	4601                	li	a2,0
   19faa:	4681                	li	a3,0
   19fac:	00000073          	ecall
   19fb0:	390a4703          	lbu	a4,912(s4)
   19fb4:	4509                	li	a0,2
   19fb6:	3eaa0623          	sb	a0,1004(s4)
   19fba:	04a71963          	bne	a4,a0,1a00c <_start+0x9be>
   19fbe:	0019c503          	lbu	a0,1(s3)
   19fc2:	0009c583          	lbu	a1,0(s3)
   19fc6:	0029c603          	lbu	a2,2(s3)
   19fca:	0522                	slli	a0,a0,0x8
   19fcc:	394a4683          	lbu	a3,916(s4)
   19fd0:	395a4703          	lbu	a4,917(s4)
   19fd4:	8d4d                	or	a0,a0,a1
   19fd6:	396a4583          	lbu	a1,918(s4)
   19fda:	397a4783          	lbu	a5,919(s4)
   19fde:	0722                	slli	a4,a4,0x8
   19fe0:	8ed9                	or	a3,a3,a4
   19fe2:	05c2                	slli	a1,a1,0x10
   19fe4:	07e2                	slli	a5,a5,0x18
   19fe6:	8ddd                	or	a1,a1,a5
   19fe8:	08a11a23          	sh	a0,148(sp)
   19fec:	08c10b23          	sb	a2,150(sp)
   19ff0:	00d5e4b3          	or	s1,a1,a3
   19ff4:	6505                	lui	a0,0x1
   19ff6:	32c50513          	addi	a0,a0,812 # 132c <.Lline_table_start1+0x1101>
   19ffa:	00a105b3          	add	a1,sp,a0
   19ffe:	08c8                	addi	a0,sp,84
   1a000:	4679                	li	a2,30
   1a002:	00003097          	auipc	ra,0x3
   1a006:	774080e7          	jalr	1908(ra) # 1d776 <memcpy>
   1a00a:	a8a5                	j	1a082 <_start+0xa34>
   1a00c:	4581                	li	a1,0
   1a00e:	4601                	li	a2,0
   1a010:	4681                	li	a3,0
   1a012:	6505                	lui	a0,0x1
   1a014:	59750913          	addi	s2,a0,1431 # 1597 <.Lline_table_start1+0x136c>
   1a018:	854a                	mv	a0,s2
   1a01a:	00000073          	ecall
   1a01e:	0019c503          	lbu	a0,1(s3)
   1a022:	0009c583          	lbu	a1,0(s3)
   1a026:	0029c603          	lbu	a2,2(s3)
   1a02a:	0522                	slli	a0,a0,0x8
   1a02c:	394a4683          	lbu	a3,916(s4)
   1a030:	395a4703          	lbu	a4,917(s4)
   1a034:	8d4d                	or	a0,a0,a1
   1a036:	396a4583          	lbu	a1,918(s4)
   1a03a:	397a4783          	lbu	a5,919(s4)
   1a03e:	0722                	slli	a4,a4,0x8
   1a040:	8ed9                	or	a3,a3,a4
   1a042:	05c2                	slli	a1,a1,0x10
   1a044:	07e2                	slli	a5,a5,0x18
   1a046:	8ddd                	or	a1,a1,a5
   1a048:	3eca4403          	lbu	s0,1004(s4)
   1a04c:	08a11a23          	sh	a0,148(sp)
   1a050:	08c10b23          	sb	a2,150(sp)
   1a054:	00d5e4b3          	or	s1,a1,a3
   1a058:	6505                	lui	a0,0x1
   1a05a:	32c50513          	addi	a0,a0,812 # 132c <.Lline_table_start1+0x1101>
   1a05e:	00a105b3          	add	a1,sp,a0
   1a062:	08c8                	addi	a0,sp,84
   1a064:	4679                	li	a2,30
   1a066:	00003097          	auipc	ra,0x3
   1a06a:	710080e7          	jalr	1808(ra) # 1d776 <memcpy>
   1a06e:	4509                	li	a0,2
   1a070:	00a40963          	beq	s0,a0,1a082 <_start+0xa34>
   1a074:	459d                	li	a1,7
   1a076:	854a                	mv	a0,s2
   1a078:	4601                	li	a2,0
   1a07a:	4681                	li	a3,0
   1a07c:	8722                	mv	a4,s0
   1a07e:	00000073          	ecall
   1a082:	09414503          	lbu	a0,148(sp)
   1a086:	09514583          	lbu	a1,149(sp)
   1a08a:	09614603          	lbu	a2,150(sp)
   1a08e:	6685                	lui	a3,0x1
   1a090:	38168693          	addi	a3,a3,897 # 1381 <.Lline_table_start1+0x1156>
   1a094:	00d10933          	add	s2,sp,a3
   1a098:	3eaa06a3          	sb	a0,1005(s4)
   1a09c:	3eba0723          	sb	a1,1006(s4)
   1a0a0:	3eca07a3          	sb	a2,1007(s4)
   1a0a4:	0028                	addi	a0,sp,8
   1a0a6:	08cc                	addi	a1,sp,84
   1a0a8:	4679                	li	a2,30
   1a0aa:	00003097          	auipc	ra,0x3
   1a0ae:	6cc080e7          	jalr	1740(ra) # 1d776 <memcpy>
   1a0b2:	6505                	lui	a0,0x1
   1a0b4:	38850513          	addi	a0,a0,904 # 1388 <.Lline_table_start1+0x115d>
   1a0b8:	950a                	add	a0,a0,sp
   1a0ba:	002c                	addi	a1,sp,8
   1a0bc:	4679                	li	a2,30
   1a0be:	00003097          	auipc	ra,0x3
   1a0c2:	6b8080e7          	jalr	1720(ra) # 1d776 <memcpy>
   1a0c6:	4409                	li	s0,2
   1a0c8:	0184d513          	srli	a0,s1,0x18
   1a0cc:	0104d593          	srli	a1,s1,0x10
   1a0d0:	3eaa09a3          	sb	a0,1011(s4)
   1a0d4:	0084d513          	srli	a0,s1,0x8
   1a0d8:	3e8a0623          	sb	s0,1004(s4)
   1a0dc:	3e9a0823          	sb	s1,1008(s4)
   1a0e0:	3eaa08a3          	sb	a0,1009(s4)
   1a0e4:	3eba0923          	sb	a1,1010(s4)
   1a0e8:	4639                	li	a2,14
   1a0ea:	854e                	mv	a0,s3
   1a0ec:	4581                	li	a1,0
   1a0ee:	00003097          	auipc	ra,0x3
   1a0f2:	61c080e7          	jalr	1564(ra) # 1d70a <memset>
   1a0f6:	864a                	mv	a2,s2
   1a0f8:	388a0823          	sb	s0,912(s4)
   1a0fc:	4791                	li	a5,4
   1a0fe:	66700513          	li	a0,1639
   1a102:	4589                	li	a1,2
   1a104:	02500693          	li	a3,37
   1a108:	4711                	li	a4,4
   1a10a:	00000073          	ecall
   1a10e:	00851463          	bne	a0,s0,1a116 <_start+0xac8>
   1a112:	88ae                	mv	a7,a1
   1a114:	a8a9                	j	1a16e <_start+0xb20>
   1a116:	864e                	mv	a2,s3
   1a118:	3efa0623          	sb	a5,1004(s4)
   1a11c:	478d                	li	a5,3
   1a11e:	66700513          	li	a0,1639
   1a122:	45a1                	li	a1,8
   1a124:	46b9                	li	a3,14
   1a126:	470d                	li	a4,3
   1a128:	00000073          	ecall
   1a12c:	00851963          	bne	a0,s0,1a13e <_start+0xaf0>
   1a130:	88ae                	mv	a7,a1
   1a132:	390a4703          	lbu	a4,912(s4)
   1a136:	4509                	li	a0,2
   1a138:	02a71463          	bne	a4,a0,1a160 <_start+0xb12>
   1a13c:	a80d                	j	1a16e <_start+0xb20>
   1a13e:	4681                	li	a3,0
   1a140:	38fa0823          	sb	a5,912(s4)
   1a144:	66700513          	li	a0,1639
   1a148:	4589                	li	a1,2
   1a14a:	4621                	li	a2,8
   1a14c:	4709                	li	a4,2
   1a14e:	07f00793          	li	a5,127
   1a152:	00000073          	ecall
   1a156:	88ae                	mv	a7,a1
   1a158:	4589                	li	a1,2
   1a15a:	02a7e863          	bltu	a5,a0,1a18a <_start+0xb3c>
   1a15e:	470d                	li	a4,3
   1a160:	66700513          	li	a0,1639
   1a164:	45a1                	li	a1,8
   1a166:	4601                	li	a2,0
   1a168:	4681                	li	a3,0
   1a16a:	00000073          	ecall
   1a16e:	3eca4703          	lbu	a4,1004(s4)
   1a172:	4509                	li	a0,2
   1a174:	dca70a63          	beq	a4,a0,19748 <_start+0xfa>
   1a178:	66700513          	li	a0,1639
   1a17c:	4589                	li	a1,2
   1a17e:	4601                	li	a2,0
   1a180:	4681                	li	a3,0
   1a182:	00000073          	ecall
   1a186:	dc2ff06f          	j	19748 <_start+0xfa>
   1a18a:	3eca4703          	lbu	a4,1004(s4)
   1a18e:	00b71463          	bne	a4,a1,1a196 <_start+0xb48>
   1a192:	470d                	li	a4,3
   1a194:	a069                	j	1a21e <_start+0xbd0>
   1a196:	66700513          	li	a0,1639
   1a19a:	4589                	li	a1,2
   1a19c:	4601                	li	a2,0
   1a19e:	4681                	li	a3,0
   1a1a0:	00000073          	ecall
   1a1a4:	390a4703          	lbu	a4,912(s4)
   1a1a8:	4509                	li	a0,2
   1a1aa:	3eaa0623          	sb	a0,1004(s4)
   1a1ae:	06a71863          	bne	a4,a0,1a21e <_start+0xbd0>
   1a1b2:	0009c503          	lbu	a0,0(s3)
   1a1b6:	0019c583          	lbu	a1,1(s3)
   1a1ba:	0029c803          	lbu	a6,2(s3)
   1a1be:	394a4683          	lbu	a3,916(s4)
   1a1c2:	395a4703          	lbu	a4,917(s4)
   1a1c6:	396a4783          	lbu	a5,918(s4)
   1a1ca:	397a4483          	lbu	s1,919(s4)
   1a1ce:	39ca4403          	lbu	s0,924(s4)
   1a1d2:	39da4603          	lbu	a2,925(s4)
   1a1d6:	39ea4883          	lbu	a7,926(s4)
   1a1da:	05a2                	slli	a1,a1,0x8
   1a1dc:	0722                	slli	a4,a4,0x8
   1a1de:	07c2                	slli	a5,a5,0x10
   1a1e0:	04e2                	slli	s1,s1,0x18
   1a1e2:	0622                	slli	a2,a2,0x8
   1a1e4:	8d4d                	or	a0,a0,a1
   1a1e6:	8ed9                	or	a3,a3,a4
   1a1e8:	8fc5                	or	a5,a5,s1
   1a1ea:	398a4583          	lbu	a1,920(s4)
   1a1ee:	399a4703          	lbu	a4,921(s4)
   1a1f2:	8e41                	or	a2,a2,s0
   1a1f4:	39aa4483          	lbu	s1,922(s4)
   1a1f8:	39ba4403          	lbu	s0,923(s4)
   1a1fc:	0722                	slli	a4,a4,0x8
   1a1fe:	8dd9                	or	a1,a1,a4
   1a200:	04c2                	slli	s1,s1,0x10
   1a202:	0462                	slli	s0,s0,0x18
   1a204:	8c45                	or	s0,s0,s1
   1a206:	08a11a23          	sh	a0,148(sp)
   1a20a:	09010b23          	sb	a6,150(sp)
   1a20e:	8fd5                	or	a5,a5,a3
   1a210:	8dc1                	or	a1,a1,s0
   1a212:	caae                	sw	a1,84(sp)
   1a214:	04c11c23          	sh	a2,88(sp)
   1a218:	05110d23          	sb	a7,90(sp)
   1a21c:	a849                	j	1a2ae <_start+0xc60>
   1a21e:	4601                	li	a2,0
   1a220:	4681                	li	a3,0
   1a222:	66700513          	li	a0,1639
   1a226:	45a1                	li	a1,8
   1a228:	00000073          	ecall
   1a22c:	0009c503          	lbu	a0,0(s3)
   1a230:	0019c583          	lbu	a1,1(s3)
   1a234:	0029c803          	lbu	a6,2(s3)
   1a238:	394a4683          	lbu	a3,916(s4)
   1a23c:	395a4703          	lbu	a4,917(s4)
   1a240:	396a4783          	lbu	a5,918(s4)
   1a244:	397a4483          	lbu	s1,919(s4)
   1a248:	39ca4403          	lbu	s0,924(s4)
   1a24c:	39da4603          	lbu	a2,925(s4)
   1a250:	39ea4883          	lbu	a7,926(s4)
   1a254:	05a2                	slli	a1,a1,0x8
   1a256:	0722                	slli	a4,a4,0x8
   1a258:	07c2                	slli	a5,a5,0x10
   1a25a:	04e2                	slli	s1,s1,0x18
   1a25c:	0622                	slli	a2,a2,0x8
   1a25e:	8d4d                	or	a0,a0,a1
   1a260:	8ed9                	or	a3,a3,a4
   1a262:	8fc5                	or	a5,a5,s1
   1a264:	398a4583          	lbu	a1,920(s4)
   1a268:	399a4703          	lbu	a4,921(s4)
   1a26c:	8e41                	or	a2,a2,s0
   1a26e:	39aa4483          	lbu	s1,922(s4)
   1a272:	39ba4403          	lbu	s0,923(s4)
   1a276:	0722                	slli	a4,a4,0x8
   1a278:	8dd9                	or	a1,a1,a4
   1a27a:	04c2                	slli	s1,s1,0x10
   1a27c:	0462                	slli	s0,s0,0x18
   1a27e:	8c45                	or	s0,s0,s1
   1a280:	08a11a23          	sh	a0,148(sp)
   1a284:	09010b23          	sb	a6,150(sp)
   1a288:	8fd5                	or	a5,a5,a3
   1a28a:	3eca4703          	lbu	a4,1004(s4)
   1a28e:	8dc1                	or	a1,a1,s0
   1a290:	4509                	li	a0,2
   1a292:	caae                	sw	a1,84(sp)
   1a294:	04c11c23          	sh	a2,88(sp)
   1a298:	05110d23          	sb	a7,90(sp)
   1a29c:	00a70963          	beq	a4,a0,1a2ae <_start+0xc60>
   1a2a0:	66700513          	li	a0,1639
   1a2a4:	4589                	li	a1,2
   1a2a6:	4601                	li	a2,0
   1a2a8:	4681                	li	a3,0
   1a2aa:	00000073          	ecall
   1a2ae:	4556                	lw	a0,84(sp)
   1a2b0:	05811583          	lh	a1,88(sp)
   1a2b4:	05a14603          	lbu	a2,90(sp)
   1a2b8:	0187d693          	srli	a3,a5,0x18
   1a2bc:	0107d713          	srli	a4,a5,0x10
   1a2c0:	0ae108a3          	sb	a4,177(sp)
   1a2c4:	0ad10923          	sb	a3,178(sp)
   1a2c8:	09411683          	lh	a3,148(sp)
   1a2cc:	09614703          	lbu	a4,150(sp)
   1a2d0:	c42a                	sw	a0,8(sp)
   1a2d2:	00b11623          	sh	a1,12(sp)
   1a2d6:	00c10723          	sb	a2,14(sp)
   1a2da:	0087d513          	srli	a0,a5,0x8
   1a2de:	0ad11623          	sh	a3,172(sp)
   1a2e2:	0ae10723          	sb	a4,174(sp)
   1a2e6:	0af107a3          	sb	a5,175(sp)
   1a2ea:	0aa10823          	sb	a0,176(sp)
   1a2ee:	0b310513          	addi	a0,sp,179
   1a2f2:	002c                	addi	a1,sp,8
   1a2f4:	461d                	li	a2,7
   1a2f6:	00003097          	auipc	ra,0x3
   1a2fa:	480080e7          	jalr	1152(ra) # 1d776 <memcpy>
   1a2fe:	6505                	lui	a0,0x1
   1a300:	38050513          	addi	a0,a0,896 # 1380 <.Lline_table_start1+0x1155>
   1a304:	950a                	add	a0,a0,sp
   1a306:	116c                	addi	a1,sp,172
   1a308:	ffff8097          	auipc	ra,0xffff8
   1a30c:	352080e7          	jalr	850(ra) # 1265a <_ZN20complex_dynamic_type3app17h2baf5a486462d88eE>
   1a310:	3eca4503          	lbu	a0,1004(s4)
   1a314:	c119                	beqz	a0,1a31a <_start+0xccc>
   1a316:	3e80306f          	j	1d6fe <_start+0x40b0>
   1a31a:	3eea4503          	lbu	a0,1006(s4)
   1a31e:	3eda4583          	lbu	a1,1005(s4)
   1a322:	3efa4603          	lbu	a2,1007(s4)
   1a326:	3f0a2403          	lw	s0,1008(s4)
   1a32a:	0522                	slli	a0,a0,0x8
   1a32c:	8d4d                	or	a0,a0,a1
   1a32e:	0aa11d23          	sh	a0,186(sp)
   1a332:	0ac10e23          	sb	a2,188(sp)
   1a336:	6505                	lui	a0,0x1
   1a338:	38850513          	addi	a0,a0,904 # 1388 <.Lline_table_start1+0x115d>
   1a33c:	00a105b3          	add	a1,sp,a0
   1a340:	6505                	lui	a0,0x1
   1a342:	32450513          	addi	a0,a0,804 # 1324 <.Lline_table_start1+0x10f9>
   1a346:	950a                	add	a0,a0,sp
   1a348:	04100613          	li	a2,65
   1a34c:	00003097          	auipc	ra,0x3
   1a350:	42a080e7          	jalr	1066(ra) # 1d776 <memcpy>
   1a354:	01845513          	srli	a0,s0,0x18
   1a358:	01045593          	srli	a1,s0,0x10
   1a35c:	00845613          	srli	a2,s0,0x8
   1a360:	0a810ea3          	sb	s0,189(sp)
   1a364:	0ac10f23          	sb	a2,190(sp)
   1a368:	0ab10fa3          	sb	a1,191(sp)
   1a36c:	0ca10023          	sb	a0,192(sp)
   1a370:	0c110513          	addi	a0,sp,193
   1a374:	6585                	lui	a1,0x1
   1a376:	32458593          	addi	a1,a1,804 # 1324 <.Lline_table_start1+0x10f9>
   1a37a:	958a                	add	a1,a1,sp
   1a37c:	04100613          	li	a2,65
   1a380:	00003097          	auipc	ra,0x3
   1a384:	3f6080e7          	jalr	1014(ra) # 1d776 <memcpy>
   1a388:	6505                	lui	a0,0x1
   1a38a:	38050513          	addi	a0,a0,896 # 1380 <.Lline_table_start1+0x1155>
   1a38e:	950a                	add	a0,a0,sp
   1a390:	0ba10593          	addi	a1,sp,186
   1a394:	ffff9097          	auipc	ra,0xffff9
   1a398:	6ae080e7          	jalr	1710(ra) # 13a42 <_ZN20complex_dynamic_type3app17h4fb6734b39c59e83E>
   1a39c:	3eca4503          	lbu	a0,1004(s4)
   1a3a0:	c119                	beqz	a0,1a3a6 <_start+0xd58>
   1a3a2:	35c0306f          	j	1d6fe <_start+0x40b0>
   1a3a6:	3eda4503          	lbu	a0,1005(s4)
   1a3aa:	3eea4583          	lbu	a1,1006(s4)
   1a3ae:	3efa4803          	lbu	a6,1007(s4)
   1a3b2:	3f0a2683          	lw	a3,1008(s4)
   1a3b6:	3f4a2703          	lw	a4,1012(s4)
   1a3ba:	3f8a2783          	lw	a5,1016(s4)
   1a3be:	05a2                	slli	a1,a1,0x8
   1a3c0:	0186d893          	srli	a7,a3,0x18
   1a3c4:	0106d293          	srli	t0,a3,0x10
   1a3c8:	0187d613          	srli	a2,a5,0x18
   1a3cc:	0107d493          	srli	s1,a5,0x10
   1a3d0:	0087d413          	srli	s0,a5,0x8
   1a3d4:	8d4d                	or	a0,a0,a1
   1a3d6:	01875593          	srli	a1,a4,0x18
   1a3da:	109107a3          	sb	s1,271(sp)
   1a3de:	10c10823          	sb	a2,272(sp)
   1a3e2:	01075613          	srli	a2,a4,0x10
   1a3e6:	10c105a3          	sb	a2,267(sp)
   1a3ea:	10b10623          	sb	a1,268(sp)
   1a3ee:	10f106a3          	sb	a5,269(sp)
   1a3f2:	10810723          	sb	s0,270(sp)
   1a3f6:	0086d593          	srli	a1,a3,0x8
   1a3fa:	10a11123          	sh	a0,258(sp)
   1a3fe:	11010223          	sb	a6,260(sp)
   1a402:	10d102a3          	sb	a3,261(sp)
   1a406:	10b10323          	sb	a1,262(sp)
   1a40a:	00875513          	srli	a0,a4,0x8
   1a40e:	105103a3          	sb	t0,263(sp)
   1a412:	11110423          	sb	a7,264(sp)
   1a416:	10e104a3          	sb	a4,265(sp)
   1a41a:	10a10523          	sb	a0,266(sp)
   1a41e:	6505                	lui	a0,0x1
   1a420:	38050513          	addi	a0,a0,896 # 1380 <.Lline_table_start1+0x1155>
   1a424:	950a                	add	a0,a0,sp
   1a426:	10210593          	addi	a1,sp,258
   1a42a:	ffff8097          	auipc	ra,0xffff8
   1a42e:	f68080e7          	jalr	-152(ra) # 12392 <_ZN20complex_dynamic_type3app17h2668011c5ef2d091E>
   1a432:	3eca4503          	lbu	a0,1004(s4)
   1a436:	c119                	beqz	a0,1a43c <_start+0xdee>
   1a438:	2c60306f          	j	1d6fe <_start+0x40b0>
   1a43c:	3eea4503          	lbu	a0,1006(s4)
   1a440:	3eda4583          	lbu	a1,1005(s4)
   1a444:	3efa4603          	lbu	a2,1007(s4)
   1a448:	3f0a2403          	lw	s0,1008(s4)
   1a44c:	0522                	slli	a0,a0,0x8
   1a44e:	8d4d                	or	a0,a0,a1
   1a450:	10a11923          	sh	a0,274(sp)
   1a454:	10c10a23          	sb	a2,276(sp)
   1a458:	6505                	lui	a0,0x1
   1a45a:	38850513          	addi	a0,a0,904 # 1388 <.Lline_table_start1+0x115d>
   1a45e:	00a105b3          	add	a1,sp,a0
   1a462:	6505                	lui	a0,0x1
   1a464:	32450513          	addi	a0,a0,804 # 1324 <.Lline_table_start1+0x10f9>
   1a468:	950a                	add	a0,a0,sp
   1a46a:	4679                	li	a2,30
   1a46c:	00003097          	auipc	ra,0x3
   1a470:	30a080e7          	jalr	778(ra) # 1d776 <memcpy>
   1a474:	01845513          	srli	a0,s0,0x18
   1a478:	01045593          	srli	a1,s0,0x10
   1a47c:	00845613          	srli	a2,s0,0x8
   1a480:	10810aa3          	sb	s0,277(sp)
   1a484:	10c10b23          	sb	a2,278(sp)
   1a488:	10b10ba3          	sb	a1,279(sp)
   1a48c:	10a10c23          	sb	a0,280(sp)
   1a490:	11910513          	addi	a0,sp,281
   1a494:	6585                	lui	a1,0x1
   1a496:	32458593          	addi	a1,a1,804 # 1324 <.Lline_table_start1+0x10f9>
   1a49a:	958a                	add	a1,a1,sp
   1a49c:	4679                	li	a2,30
   1a49e:	00003097          	auipc	ra,0x3
   1a4a2:	2d8080e7          	jalr	728(ra) # 1d776 <memcpy>
   1a4a6:	6505                	lui	a0,0x1
   1a4a8:	38050513          	addi	a0,a0,896 # 1380 <.Lline_table_start1+0x1155>
   1a4ac:	950a                	add	a0,a0,sp
   1a4ae:	11210593          	addi	a1,sp,274
   1a4b2:	ffffd097          	auipc	ra,0xffffd
   1a4b6:	28c080e7          	jalr	652(ra) # 1773e <_ZN20complex_dynamic_type3app17hbbcb1a659bbd8690E>
   1a4ba:	3eca4503          	lbu	a0,1004(s4)
   1a4be:	c119                	beqz	a0,1a4c4 <_start+0xe76>
   1a4c0:	23e0306f          	j	1d6fe <_start+0x40b0>
   1a4c4:	3eea4503          	lbu	a0,1006(s4)
   1a4c8:	3eda4583          	lbu	a1,1005(s4)
   1a4cc:	3efa4603          	lbu	a2,1007(s4)
   1a4d0:	3f0a2403          	lw	s0,1008(s4)
   1a4d4:	0522                	slli	a0,a0,0x8
   1a4d6:	8d4d                	or	a0,a0,a1
   1a4d8:	12a11c23          	sh	a0,312(sp)
   1a4dc:	12c10d23          	sb	a2,314(sp)
   1a4e0:	6505                	lui	a0,0x1
   1a4e2:	38850513          	addi	a0,a0,904 # 1388 <.Lline_table_start1+0x115d>
   1a4e6:	00a105b3          	add	a1,sp,a0
   1a4ea:	6505                	lui	a0,0x1
   1a4ec:	32450513          	addi	a0,a0,804 # 1324 <.Lline_table_start1+0x10f9>
   1a4f0:	950a                	add	a0,a0,sp
   1a4f2:	02300613          	li	a2,35
   1a4f6:	00003097          	auipc	ra,0x3
   1a4fa:	280080e7          	jalr	640(ra) # 1d776 <memcpy>
   1a4fe:	01845513          	srli	a0,s0,0x18
   1a502:	01045593          	srli	a1,s0,0x10
   1a506:	00845613          	srli	a2,s0,0x8
   1a50a:	12810da3          	sb	s0,315(sp)
   1a50e:	12c10e23          	sb	a2,316(sp)
   1a512:	12b10ea3          	sb	a1,317(sp)
   1a516:	12a10f23          	sb	a0,318(sp)
   1a51a:	13f10513          	addi	a0,sp,319
   1a51e:	6585                	lui	a1,0x1
   1a520:	32458593          	addi	a1,a1,804 # 1324 <.Lline_table_start1+0x10f9>
   1a524:	958a                	add	a1,a1,sp
   1a526:	02300613          	li	a2,35
   1a52a:	00003097          	auipc	ra,0x3
   1a52e:	24c080e7          	jalr	588(ra) # 1d776 <memcpy>
   1a532:	6505                	lui	a0,0x1
   1a534:	38050513          	addi	a0,a0,896 # 1380 <.Lline_table_start1+0x1155>
   1a538:	950a                	add	a0,a0,sp
   1a53a:	1a2c                	addi	a1,sp,312
   1a53c:	ffffc097          	auipc	ra,0xffffc
   1a540:	0ea080e7          	jalr	234(ra) # 16626 <_ZN20complex_dynamic_type3app17h9bbb90f84c8e90fdE>
   1a544:	3eca4503          	lbu	a0,1004(s4)
   1a548:	c119                	beqz	a0,1a54e <_start+0xf00>
   1a54a:	1b40306f          	j	1d6fe <_start+0x40b0>
   1a54e:	3eea4503          	lbu	a0,1006(s4)
   1a552:	3eda4583          	lbu	a1,1005(s4)
   1a556:	3efa4603          	lbu	a2,1007(s4)
   1a55a:	3f0a2403          	lw	s0,1008(s4)
   1a55e:	0522                	slli	a0,a0,0x8
   1a560:	8d4d                	or	a0,a0,a1
   1a562:	16a11123          	sh	a0,354(sp)
   1a566:	16c10223          	sb	a2,356(sp)
   1a56a:	6505                	lui	a0,0x1
   1a56c:	38850513          	addi	a0,a0,904 # 1388 <.Lline_table_start1+0x115d>
   1a570:	00a105b3          	add	a1,sp,a0
   1a574:	6505                	lui	a0,0x1
   1a576:	32450513          	addi	a0,a0,804 # 1324 <.Lline_table_start1+0x10f9>
   1a57a:	950a                	add	a0,a0,sp
   1a57c:	05c00613          	li	a2,92
   1a580:	00003097          	auipc	ra,0x3
   1a584:	1f6080e7          	jalr	502(ra) # 1d776 <memcpy>
   1a588:	01845513          	srli	a0,s0,0x18
   1a58c:	01045593          	srli	a1,s0,0x10
   1a590:	00845613          	srli	a2,s0,0x8
   1a594:	168102a3          	sb	s0,357(sp)
   1a598:	16c10323          	sb	a2,358(sp)
   1a59c:	16b103a3          	sb	a1,359(sp)
   1a5a0:	16a10423          	sb	a0,360(sp)
   1a5a4:	16910513          	addi	a0,sp,361
   1a5a8:	6585                	lui	a1,0x1
   1a5aa:	32458593          	addi	a1,a1,804 # 1324 <.Lline_table_start1+0x10f9>
   1a5ae:	958a                	add	a1,a1,sp
   1a5b0:	05c00613          	li	a2,92
   1a5b4:	00003097          	auipc	ra,0x3
   1a5b8:	1c2080e7          	jalr	450(ra) # 1d776 <memcpy>
   1a5bc:	6505                	lui	a0,0x1
   1a5be:	38050513          	addi	a0,a0,896 # 1380 <.Lline_table_start1+0x1155>
   1a5c2:	950a                	add	a0,a0,sp
   1a5c4:	16210593          	addi	a1,sp,354
   1a5c8:	ffffc097          	auipc	ra,0xffffc
   1a5cc:	aa6080e7          	jalr	-1370(ra) # 1606e <_ZN20complex_dynamic_type3app17h94bb709f5184bf89E>
   1a5d0:	3eca4503          	lbu	a0,1004(s4)
   1a5d4:	c119                	beqz	a0,1a5da <_start+0xf8c>
   1a5d6:	1280306f          	j	1d6fe <_start+0x40b0>
   1a5da:	3eea4503          	lbu	a0,1006(s4)
   1a5de:	3eda4583          	lbu	a1,1005(s4)
   1a5e2:	3efa4603          	lbu	a2,1007(s4)
   1a5e6:	3f0a2403          	lw	s0,1008(s4)
   1a5ea:	0522                	slli	a0,a0,0x8
   1a5ec:	8d4d                	or	a0,a0,a1
   1a5ee:	1ca11323          	sh	a0,454(sp)
   1a5f2:	1cc10423          	sb	a2,456(sp)
   1a5f6:	6505                	lui	a0,0x1
   1a5f8:	38850513          	addi	a0,a0,904 # 1388 <.Lline_table_start1+0x115d>
   1a5fc:	00a105b3          	add	a1,sp,a0
   1a600:	6505                	lui	a0,0x1
   1a602:	32450513          	addi	a0,a0,804 # 1324 <.Lline_table_start1+0x10f9>
   1a606:	950a                	add	a0,a0,sp
   1a608:	02000613          	li	a2,32
   1a60c:	00003097          	auipc	ra,0x3
   1a610:	16a080e7          	jalr	362(ra) # 1d776 <memcpy>
   1a614:	01845513          	srli	a0,s0,0x18
   1a618:	01045593          	srli	a1,s0,0x10
   1a61c:	00845613          	srli	a2,s0,0x8
   1a620:	1c8104a3          	sb	s0,457(sp)
   1a624:	1cc10523          	sb	a2,458(sp)
   1a628:	1cb105a3          	sb	a1,459(sp)
   1a62c:	1ca10623          	sb	a0,460(sp)
   1a630:	1cd10513          	addi	a0,sp,461
   1a634:	6585                	lui	a1,0x1
   1a636:	32458593          	addi	a1,a1,804 # 1324 <.Lline_table_start1+0x10f9>
   1a63a:	958a                	add	a1,a1,sp
   1a63c:	02000613          	li	a2,32
   1a640:	00003097          	auipc	ra,0x3
   1a644:	136080e7          	jalr	310(ra) # 1d776 <memcpy>
   1a648:	6505                	lui	a0,0x1
   1a64a:	38050513          	addi	a0,a0,896 # 1380 <.Lline_table_start1+0x1155>
   1a64e:	950a                	add	a0,a0,sp
   1a650:	1c610593          	addi	a1,sp,454
   1a654:	ffff9097          	auipc	ra,0xffff9
   1a658:	a06080e7          	jalr	-1530(ra) # 1305a <_ZN20complex_dynamic_type3app17h44b2456fbc25fc0dE>
   1a65c:	3eca4503          	lbu	a0,1004(s4)
   1a660:	c119                	beqz	a0,1a666 <_start+0x1018>
   1a662:	09c0306f          	j	1d6fe <_start+0x40b0>
   1a666:	3eea4503          	lbu	a0,1006(s4)
   1a66a:	3eda4583          	lbu	a1,1005(s4)
   1a66e:	3efa4603          	lbu	a2,1007(s4)
   1a672:	3f0a2403          	lw	s0,1008(s4)
   1a676:	0522                	slli	a0,a0,0x8
   1a678:	8d4d                	or	a0,a0,a1
   1a67a:	1ea11723          	sh	a0,494(sp)
   1a67e:	1ec10823          	sb	a2,496(sp)
   1a682:	6505                	lui	a0,0x1
   1a684:	38850513          	addi	a0,a0,904 # 1388 <.Lline_table_start1+0x115d>
   1a688:	00a105b3          	add	a1,sp,a0
   1a68c:	6505                	lui	a0,0x1
   1a68e:	32450513          	addi	a0,a0,804 # 1324 <.Lline_table_start1+0x10f9>
   1a692:	950a                	add	a0,a0,sp
   1a694:	465d                	li	a2,23
   1a696:	00003097          	auipc	ra,0x3
   1a69a:	0e0080e7          	jalr	224(ra) # 1d776 <memcpy>
   1a69e:	01845513          	srli	a0,s0,0x18
   1a6a2:	01045593          	srli	a1,s0,0x10
   1a6a6:	00845613          	srli	a2,s0,0x8
   1a6aa:	1e8108a3          	sb	s0,497(sp)
   1a6ae:	1ec10923          	sb	a2,498(sp)
   1a6b2:	1eb109a3          	sb	a1,499(sp)
   1a6b6:	1ea10a23          	sb	a0,500(sp)
   1a6ba:	1f510513          	addi	a0,sp,501
   1a6be:	6585                	lui	a1,0x1
   1a6c0:	32458593          	addi	a1,a1,804 # 1324 <.Lline_table_start1+0x10f9>
   1a6c4:	958a                	add	a1,a1,sp
   1a6c6:	465d                	li	a2,23
   1a6c8:	00003097          	auipc	ra,0x3
   1a6cc:	0ae080e7          	jalr	174(ra) # 1d776 <memcpy>
   1a6d0:	6505                	lui	a0,0x1
   1a6d2:	38050513          	addi	a0,a0,896 # 1380 <.Lline_table_start1+0x1155>
   1a6d6:	950a                	add	a0,a0,sp
   1a6d8:	1ee10593          	addi	a1,sp,494
   1a6dc:	ffffd097          	auipc	ra,0xffffd
   1a6e0:	4a8080e7          	jalr	1192(ra) # 17b84 <_ZN20complex_dynamic_type3app17hc0be1554c36f43abE>
   1a6e4:	3eca4503          	lbu	a0,1004(s4)
   1a6e8:	c119                	beqz	a0,1a6ee <_start+0x10a0>
   1a6ea:	0140306f          	j	1d6fe <_start+0x40b0>
   1a6ee:	3eea4503          	lbu	a0,1006(s4)
   1a6f2:	3eda4583          	lbu	a1,1005(s4)
   1a6f6:	3efa4603          	lbu	a2,1007(s4)
   1a6fa:	3f0a2403          	lw	s0,1008(s4)
   1a6fe:	0522                	slli	a0,a0,0x8
   1a700:	8d4d                	or	a0,a0,a1
   1a702:	20a11623          	sh	a0,524(sp)
   1a706:	20c10723          	sb	a2,526(sp)
   1a70a:	6505                	lui	a0,0x1
   1a70c:	38850513          	addi	a0,a0,904 # 1388 <.Lline_table_start1+0x115d>
   1a710:	00a105b3          	add	a1,sp,a0
   1a714:	6505                	lui	a0,0x1
   1a716:	32450513          	addi	a0,a0,804 # 1324 <.Lline_table_start1+0x10f9>
   1a71a:	950a                	add	a0,a0,sp
   1a71c:	02500613          	li	a2,37
   1a720:	00003097          	auipc	ra,0x3
   1a724:	056080e7          	jalr	86(ra) # 1d776 <memcpy>
   1a728:	01845513          	srli	a0,s0,0x18
   1a72c:	01045593          	srli	a1,s0,0x10
   1a730:	00845613          	srli	a2,s0,0x8
   1a734:	208107a3          	sb	s0,527(sp)
   1a738:	20c10823          	sb	a2,528(sp)
   1a73c:	20b108a3          	sb	a1,529(sp)
   1a740:	20a10923          	sb	a0,530(sp)
   1a744:	21310513          	addi	a0,sp,531
   1a748:	6585                	lui	a1,0x1
   1a74a:	32458593          	addi	a1,a1,804 # 1324 <.Lline_table_start1+0x10f9>
   1a74e:	958a                	add	a1,a1,sp
   1a750:	02500613          	li	a2,37
   1a754:	00003097          	auipc	ra,0x3
   1a758:	022080e7          	jalr	34(ra) # 1d776 <memcpy>
   1a75c:	6505                	lui	a0,0x1
   1a75e:	38050513          	addi	a0,a0,896 # 1380 <.Lline_table_start1+0x1155>
   1a762:	950a                	add	a0,a0,sp
   1a764:	046c                	addi	a1,sp,524
   1a766:	ffffe097          	auipc	ra,0xffffe
   1a76a:	de8080e7          	jalr	-536(ra) # 1854e <_ZN20complex_dynamic_type3app17heac8373d56adee77E>
   1a76e:	3eca4503          	lbu	a0,1004(s4)
   1a772:	c119                	beqz	a0,1a778 <_start+0x112a>
   1a774:	78b0206f          	j	1d6fe <_start+0x40b0>
   1a778:	3eea4503          	lbu	a0,1006(s4)
   1a77c:	3eda4583          	lbu	a1,1005(s4)
   1a780:	3efa4603          	lbu	a2,1007(s4)
   1a784:	3f0a2403          	lw	s0,1008(s4)
   1a788:	0522                	slli	a0,a0,0x8
   1a78a:	8d4d                	or	a0,a0,a1
   1a78c:	22a11c23          	sh	a0,568(sp)
   1a790:	22c10d23          	sb	a2,570(sp)
   1a794:	6505                	lui	a0,0x1
   1a796:	38850513          	addi	a0,a0,904 # 1388 <.Lline_table_start1+0x115d>
   1a79a:	00a105b3          	add	a1,sp,a0
   1a79e:	6505                	lui	a0,0x1
   1a7a0:	32450513          	addi	a0,a0,804 # 1324 <.Lline_table_start1+0x10f9>
   1a7a4:	950a                	add	a0,a0,sp
   1a7a6:	4679                	li	a2,30
   1a7a8:	00003097          	auipc	ra,0x3
   1a7ac:	fce080e7          	jalr	-50(ra) # 1d776 <memcpy>
   1a7b0:	01845513          	srli	a0,s0,0x18
   1a7b4:	01045593          	srli	a1,s0,0x10
   1a7b8:	00845613          	srli	a2,s0,0x8
   1a7bc:	22810da3          	sb	s0,571(sp)
   1a7c0:	22c10e23          	sb	a2,572(sp)
   1a7c4:	22b10ea3          	sb	a1,573(sp)
   1a7c8:	22a10f23          	sb	a0,574(sp)
   1a7cc:	23f10513          	addi	a0,sp,575
   1a7d0:	6585                	lui	a1,0x1
   1a7d2:	32458593          	addi	a1,a1,804 # 1324 <.Lline_table_start1+0x10f9>
   1a7d6:	958a                	add	a1,a1,sp
   1a7d8:	4679                	li	a2,30
   1a7da:	00003097          	auipc	ra,0x3
   1a7de:	f9c080e7          	jalr	-100(ra) # 1d776 <memcpy>
   1a7e2:	6505                	lui	a0,0x1
   1a7e4:	38050513          	addi	a0,a0,896 # 1380 <.Lline_table_start1+0x1155>
   1a7e8:	950a                	add	a0,a0,sp
   1a7ea:	1c2c                	addi	a1,sp,568
   1a7ec:	ffffd097          	auipc	ra,0xffffd
   1a7f0:	0c0080e7          	jalr	192(ra) # 178ac <_ZN20complex_dynamic_type3app17hbc7c558801ef9cf2E>
   1a7f4:	3eca4503          	lbu	a0,1004(s4)
   1a7f8:	c119                	beqz	a0,1a7fe <_start+0x11b0>
   1a7fa:	7050206f          	j	1d6fe <_start+0x40b0>
   1a7fe:	3eea4503          	lbu	a0,1006(s4)
   1a802:	3eda4583          	lbu	a1,1005(s4)
   1a806:	3efa4603          	lbu	a2,1007(s4)
   1a80a:	3f0a2403          	lw	s0,1008(s4)
   1a80e:	0522                	slli	a0,a0,0x8
   1a810:	8d4d                	or	a0,a0,a1
   1a812:	24a11f23          	sh	a0,606(sp)
   1a816:	26c10023          	sb	a2,608(sp)
   1a81a:	6505                	lui	a0,0x1
   1a81c:	38850513          	addi	a0,a0,904 # 1388 <.Lline_table_start1+0x115d>
   1a820:	00a105b3          	add	a1,sp,a0
   1a824:	6505                	lui	a0,0x1
   1a826:	32450513          	addi	a0,a0,804 # 1324 <.Lline_table_start1+0x10f9>
   1a82a:	950a                	add	a0,a0,sp
   1a82c:	4645                	li	a2,17
   1a82e:	00003097          	auipc	ra,0x3
   1a832:	f48080e7          	jalr	-184(ra) # 1d776 <memcpy>
   1a836:	01845513          	srli	a0,s0,0x18
   1a83a:	01045593          	srli	a1,s0,0x10
   1a83e:	00845613          	srli	a2,s0,0x8
   1a842:	268100a3          	sb	s0,609(sp)
   1a846:	26c10123          	sb	a2,610(sp)
   1a84a:	26b101a3          	sb	a1,611(sp)
   1a84e:	26a10223          	sb	a0,612(sp)
   1a852:	26510513          	addi	a0,sp,613
   1a856:	6585                	lui	a1,0x1
   1a858:	32458593          	addi	a1,a1,804 # 1324 <.Lline_table_start1+0x10f9>
   1a85c:	958a                	add	a1,a1,sp
   1a85e:	4645                	li	a2,17
   1a860:	00003097          	auipc	ra,0x3
   1a864:	f16080e7          	jalr	-234(ra) # 1d776 <memcpy>
   1a868:	6505                	lui	a0,0x1
   1a86a:	38050513          	addi	a0,a0,896 # 1380 <.Lline_table_start1+0x1155>
   1a86e:	950a                	add	a0,a0,sp
   1a870:	25e10593          	addi	a1,sp,606
   1a874:	ffffd097          	auipc	ra,0xffffd
   1a878:	5e0080e7          	jalr	1504(ra) # 17e54 <_ZN20complex_dynamic_type3app17hcc70e1ddff29adbcE>
   1a87c:	3eca4503          	lbu	a0,1004(s4)
   1a880:	c119                	beqz	a0,1a886 <_start+0x1238>
   1a882:	67d0206f          	j	1d6fe <_start+0x40b0>
   1a886:	3eea4503          	lbu	a0,1006(s4)
   1a88a:	3eda4583          	lbu	a1,1005(s4)
   1a88e:	3efa4603          	lbu	a2,1007(s4)
   1a892:	3f0a2403          	lw	s0,1008(s4)
   1a896:	0522                	slli	a0,a0,0x8
   1a898:	8d4d                	or	a0,a0,a1
   1a89a:	26a11b23          	sh	a0,630(sp)
   1a89e:	26c10c23          	sb	a2,632(sp)
   1a8a2:	6505                	lui	a0,0x1
   1a8a4:	38850513          	addi	a0,a0,904 # 1388 <.Lline_table_start1+0x115d>
   1a8a8:	00a105b3          	add	a1,sp,a0
   1a8ac:	6505                	lui	a0,0x1
   1a8ae:	32450513          	addi	a0,a0,804 # 1324 <.Lline_table_start1+0x10f9>
   1a8b2:	950a                	add	a0,a0,sp
   1a8b4:	02f00613          	li	a2,47
   1a8b8:	00003097          	auipc	ra,0x3
   1a8bc:	ebe080e7          	jalr	-322(ra) # 1d776 <memcpy>
   1a8c0:	01845513          	srli	a0,s0,0x18
   1a8c4:	01045593          	srli	a1,s0,0x10
   1a8c8:	00845613          	srli	a2,s0,0x8
   1a8cc:	26810ca3          	sb	s0,633(sp)
   1a8d0:	26c10d23          	sb	a2,634(sp)
   1a8d4:	26b10da3          	sb	a1,635(sp)
   1a8d8:	26a10e23          	sb	a0,636(sp)
   1a8dc:	27d10513          	addi	a0,sp,637
   1a8e0:	6585                	lui	a1,0x1
   1a8e2:	32458593          	addi	a1,a1,804 # 1324 <.Lline_table_start1+0x10f9>
   1a8e6:	958a                	add	a1,a1,sp
   1a8e8:	02f00613          	li	a2,47
   1a8ec:	00003097          	auipc	ra,0x3
   1a8f0:	e8a080e7          	jalr	-374(ra) # 1d776 <memcpy>
   1a8f4:	6505                	lui	a0,0x1
   1a8f6:	38050513          	addi	a0,a0,896 # 1380 <.Lline_table_start1+0x1155>
   1a8fa:	950a                	add	a0,a0,sp
   1a8fc:	27610593          	addi	a1,sp,630
   1a900:	ffff9097          	auipc	ra,0xffff9
   1a904:	6e8080e7          	jalr	1768(ra) # 13fe8 <_ZN20complex_dynamic_type3app17h5a6446bd19f2e815E>
   1a908:	3eca4503          	lbu	a0,1004(s4)
   1a90c:	c119                	beqz	a0,1a912 <_start+0x12c4>
   1a90e:	5f10206f          	j	1d6fe <_start+0x40b0>
   1a912:	3eea4503          	lbu	a0,1006(s4)
   1a916:	3eda4583          	lbu	a1,1005(s4)
   1a91a:	3efa4603          	lbu	a2,1007(s4)
   1a91e:	3f0a2403          	lw	s0,1008(s4)
   1a922:	0522                	slli	a0,a0,0x8
   1a924:	8d4d                	or	a0,a0,a1
   1a926:	2aa11623          	sh	a0,684(sp)
   1a92a:	2ac10723          	sb	a2,686(sp)
   1a92e:	6505                	lui	a0,0x1
   1a930:	38850513          	addi	a0,a0,904 # 1388 <.Lline_table_start1+0x115d>
   1a934:	00a105b3          	add	a1,sp,a0
   1a938:	6505                	lui	a0,0x1
   1a93a:	32450513          	addi	a0,a0,804 # 1324 <.Lline_table_start1+0x10f9>
   1a93e:	950a                	add	a0,a0,sp
   1a940:	02d00613          	li	a2,45
   1a944:	00003097          	auipc	ra,0x3
   1a948:	e32080e7          	jalr	-462(ra) # 1d776 <memcpy>
   1a94c:	01845513          	srli	a0,s0,0x18
   1a950:	01045593          	srli	a1,s0,0x10
   1a954:	00845613          	srli	a2,s0,0x8
   1a958:	2a8107a3          	sb	s0,687(sp)
   1a95c:	2ac10823          	sb	a2,688(sp)
   1a960:	2ab108a3          	sb	a1,689(sp)
   1a964:	2aa10923          	sb	a0,690(sp)
   1a968:	2b310513          	addi	a0,sp,691
   1a96c:	6585                	lui	a1,0x1
   1a96e:	32458593          	addi	a1,a1,804 # 1324 <.Lline_table_start1+0x10f9>
   1a972:	958a                	add	a1,a1,sp
   1a974:	02d00613          	li	a2,45
   1a978:	00003097          	auipc	ra,0x3
   1a97c:	dfe080e7          	jalr	-514(ra) # 1d776 <memcpy>
   1a980:	6505                	lui	a0,0x1
   1a982:	38050513          	addi	a0,a0,896 # 1380 <.Lline_table_start1+0x1155>
   1a986:	950a                	add	a0,a0,sp
   1a988:	156c                	addi	a1,sp,684
   1a98a:	ffff7097          	auipc	ra,0xffff7
   1a98e:	a84080e7          	jalr	-1404(ra) # 1140e <_ZN20complex_dynamic_type3app17h05b095cfa75d7887E>
   1a992:	3eca4503          	lbu	a0,1004(s4)
   1a996:	c119                	beqz	a0,1a99c <_start+0x134e>
   1a998:	5670206f          	j	1d6fe <_start+0x40b0>
   1a99c:	3eea4503          	lbu	a0,1006(s4)
   1a9a0:	3eda4583          	lbu	a1,1005(s4)
   1a9a4:	3efa4603          	lbu	a2,1007(s4)
   1a9a8:	3f0a2403          	lw	s0,1008(s4)
   1a9ac:	0522                	slli	a0,a0,0x8
   1a9ae:	8d4d                	or	a0,a0,a1
   1a9b0:	2ea11023          	sh	a0,736(sp)
   1a9b4:	2ec10123          	sb	a2,738(sp)
   1a9b8:	6505                	lui	a0,0x1
   1a9ba:	38850513          	addi	a0,a0,904 # 1388 <.Lline_table_start1+0x115d>
   1a9be:	00a105b3          	add	a1,sp,a0
   1a9c2:	6505                	lui	a0,0x1
   1a9c4:	32450513          	addi	a0,a0,804 # 1324 <.Lline_table_start1+0x10f9>
   1a9c8:	950a                	add	a0,a0,sp
   1a9ca:	02700613          	li	a2,39
   1a9ce:	00003097          	auipc	ra,0x3
   1a9d2:	da8080e7          	jalr	-600(ra) # 1d776 <memcpy>
   1a9d6:	01845513          	srli	a0,s0,0x18
   1a9da:	01045593          	srli	a1,s0,0x10
   1a9de:	00845613          	srli	a2,s0,0x8
   1a9e2:	2e8101a3          	sb	s0,739(sp)
   1a9e6:	2ec10223          	sb	a2,740(sp)
   1a9ea:	2eb102a3          	sb	a1,741(sp)
   1a9ee:	2ea10323          	sb	a0,742(sp)
   1a9f2:	2e710513          	addi	a0,sp,743
   1a9f6:	6585                	lui	a1,0x1
   1a9f8:	32458593          	addi	a1,a1,804 # 1324 <.Lline_table_start1+0x10f9>
   1a9fc:	958a                	add	a1,a1,sp
   1a9fe:	02700613          	li	a2,39
   1aa02:	00003097          	auipc	ra,0x3
   1aa06:	d74080e7          	jalr	-652(ra) # 1d776 <memcpy>
   1aa0a:	6505                	lui	a0,0x1
   1aa0c:	38050513          	addi	a0,a0,896 # 1380 <.Lline_table_start1+0x1155>
   1aa10:	950a                	add	a0,a0,sp
   1aa12:	158c                	addi	a1,sp,736
   1aa14:	ffff8097          	auipc	ra,0xffff8
   1aa18:	08c080e7          	jalr	140(ra) # 12aa0 <_ZN20complex_dynamic_type3app17h302688ff3f1dd7a0E>
   1aa1c:	3eca4503          	lbu	a0,1004(s4)
   1aa20:	c119                	beqz	a0,1aa26 <_start+0x13d8>
   1aa22:	4dd0206f          	j	1d6fe <_start+0x40b0>
   1aa26:	3eea4503          	lbu	a0,1006(s4)
   1aa2a:	3eda4583          	lbu	a1,1005(s4)
   1aa2e:	3efa4603          	lbu	a2,1007(s4)
   1aa32:	3f0a2403          	lw	s0,1008(s4)
   1aa36:	0522                	slli	a0,a0,0x8
   1aa38:	8d4d                	or	a0,a0,a1
   1aa3a:	30a11723          	sh	a0,782(sp)
   1aa3e:	30c10823          	sb	a2,784(sp)
   1aa42:	6505                	lui	a0,0x1
   1aa44:	38850513          	addi	a0,a0,904 # 1388 <.Lline_table_start1+0x115d>
   1aa48:	00a105b3          	add	a1,sp,a0
   1aa4c:	6505                	lui	a0,0x1
   1aa4e:	32450513          	addi	a0,a0,804 # 1324 <.Lline_table_start1+0x10f9>
   1aa52:	950a                	add	a0,a0,sp
   1aa54:	03100613          	li	a2,49
   1aa58:	00003097          	auipc	ra,0x3
   1aa5c:	d1e080e7          	jalr	-738(ra) # 1d776 <memcpy>
   1aa60:	01845513          	srli	a0,s0,0x18
   1aa64:	01045593          	srli	a1,s0,0x10
   1aa68:	00845613          	srli	a2,s0,0x8
   1aa6c:	308108a3          	sb	s0,785(sp)
   1aa70:	30c10923          	sb	a2,786(sp)
   1aa74:	30b109a3          	sb	a1,787(sp)
   1aa78:	30a10a23          	sb	a0,788(sp)
   1aa7c:	31510513          	addi	a0,sp,789
   1aa80:	6585                	lui	a1,0x1
   1aa82:	32458593          	addi	a1,a1,804 # 1324 <.Lline_table_start1+0x10f9>
   1aa86:	958a                	add	a1,a1,sp
   1aa88:	03100613          	li	a2,49
   1aa8c:	00003097          	auipc	ra,0x3
   1aa90:	cea080e7          	jalr	-790(ra) # 1d776 <memcpy>
   1aa94:	6505                	lui	a0,0x1
   1aa96:	38050513          	addi	a0,a0,896 # 1380 <.Lline_table_start1+0x1155>
   1aa9a:	950a                	add	a0,a0,sp
   1aa9c:	30e10593          	addi	a1,sp,782
   1aaa0:	ffff9097          	auipc	ra,0xffff9
   1aaa4:	9fe080e7          	jalr	-1538(ra) # 1349e <_ZN20complex_dynamic_type3app17h4a42e5fb35694db4E>
   1aaa8:	3eca4503          	lbu	a0,1004(s4)
   1aaac:	c119                	beqz	a0,1aab2 <_start+0x1464>
   1aaae:	4510206f          	j	1d6fe <_start+0x40b0>
   1aab2:	3eea4503          	lbu	a0,1006(s4)
   1aab6:	3eda4583          	lbu	a1,1005(s4)
   1aaba:	3efa4603          	lbu	a2,1007(s4)
   1aabe:	3f0a2403          	lw	s0,1008(s4)
   1aac2:	0522                	slli	a0,a0,0x8
   1aac4:	8d4d                	or	a0,a0,a1
   1aac6:	34a11323          	sh	a0,838(sp)
   1aaca:	34c10423          	sb	a2,840(sp)
   1aace:	6505                	lui	a0,0x1
   1aad0:	38850513          	addi	a0,a0,904 # 1388 <.Lline_table_start1+0x115d>
   1aad4:	00a105b3          	add	a1,sp,a0
   1aad8:	6505                	lui	a0,0x1
   1aada:	32450513          	addi	a0,a0,804 # 1324 <.Lline_table_start1+0x10f9>
   1aade:	950a                	add	a0,a0,sp
   1aae0:	02d00613          	li	a2,45
   1aae4:	00003097          	auipc	ra,0x3
   1aae8:	c92080e7          	jalr	-878(ra) # 1d776 <memcpy>
   1aaec:	01845513          	srli	a0,s0,0x18
   1aaf0:	01045593          	srli	a1,s0,0x10
   1aaf4:	00845613          	srli	a2,s0,0x8
   1aaf8:	348104a3          	sb	s0,841(sp)
   1aafc:	34c10523          	sb	a2,842(sp)
   1ab00:	34b105a3          	sb	a1,843(sp)
   1ab04:	34a10623          	sb	a0,844(sp)
   1ab08:	34d10513          	addi	a0,sp,845
   1ab0c:	6585                	lui	a1,0x1
   1ab0e:	32458593          	addi	a1,a1,804 # 1324 <.Lline_table_start1+0x10f9>
   1ab12:	958a                	add	a1,a1,sp
   1ab14:	02d00613          	li	a2,45
   1ab18:	00003097          	auipc	ra,0x3
   1ab1c:	c5e080e7          	jalr	-930(ra) # 1d776 <memcpy>
   1ab20:	6505                	lui	a0,0x1
   1ab22:	38050513          	addi	a0,a0,896 # 1380 <.Lline_table_start1+0x1155>
   1ab26:	950a                	add	a0,a0,sp
   1ab28:	34610593          	addi	a1,sp,838
   1ab2c:	ffffe097          	auipc	ra,0xffffe
   1ab30:	e5a080e7          	jalr	-422(ra) # 18986 <_ZN20complex_dynamic_type3app17heb935f7822173a0cE>
   1ab34:	3eca4503          	lbu	a0,1004(s4)
   1ab38:	c119                	beqz	a0,1ab3e <_start+0x14f0>
   1ab3a:	3c50206f          	j	1d6fe <_start+0x40b0>
   1ab3e:	3eea4503          	lbu	a0,1006(s4)
   1ab42:	3eda4583          	lbu	a1,1005(s4)
   1ab46:	3efa4603          	lbu	a2,1007(s4)
   1ab4a:	3f0a2403          	lw	s0,1008(s4)
   1ab4e:	0522                	slli	a0,a0,0x8
   1ab50:	8d4d                	or	a0,a0,a1
   1ab52:	36a11d23          	sh	a0,890(sp)
   1ab56:	36c10e23          	sb	a2,892(sp)
   1ab5a:	6505                	lui	a0,0x1
   1ab5c:	38850513          	addi	a0,a0,904 # 1388 <.Lline_table_start1+0x115d>
   1ab60:	00a105b3          	add	a1,sp,a0
   1ab64:	6505                	lui	a0,0x1
   1ab66:	32450513          	addi	a0,a0,804 # 1324 <.Lline_table_start1+0x10f9>
   1ab6a:	950a                	add	a0,a0,sp
   1ab6c:	464d                	li	a2,19
   1ab6e:	00003097          	auipc	ra,0x3
   1ab72:	c08080e7          	jalr	-1016(ra) # 1d776 <memcpy>
   1ab76:	01845513          	srli	a0,s0,0x18
   1ab7a:	01045593          	srli	a1,s0,0x10
   1ab7e:	00845613          	srli	a2,s0,0x8
   1ab82:	36810ea3          	sb	s0,893(sp)
   1ab86:	36c10f23          	sb	a2,894(sp)
   1ab8a:	36b10fa3          	sb	a1,895(sp)
   1ab8e:	38a10023          	sb	a0,896(sp)
   1ab92:	38110513          	addi	a0,sp,897
   1ab96:	6585                	lui	a1,0x1
   1ab98:	32458593          	addi	a1,a1,804 # 1324 <.Lline_table_start1+0x10f9>
   1ab9c:	958a                	add	a1,a1,sp
   1ab9e:	464d                	li	a2,19
   1aba0:	00003097          	auipc	ra,0x3
   1aba4:	bd6080e7          	jalr	-1066(ra) # 1d776 <memcpy>
   1aba8:	6505                	lui	a0,0x1
   1abaa:	38050513          	addi	a0,a0,896 # 1380 <.Lline_table_start1+0x1155>
   1abae:	950a                	add	a0,a0,sp
   1abb0:	37a10593          	addi	a1,sp,890
   1abb4:	ffff8097          	auipc	ra,0xffff8
   1abb8:	33a080e7          	jalr	826(ra) # 12eee <_ZN20complex_dynamic_type3app17h444e46a3869badb7E>
   1abbc:	3eca4503          	lbu	a0,1004(s4)
   1abc0:	c119                	beqz	a0,1abc6 <_start+0x1578>
   1abc2:	33d0206f          	j	1d6fe <_start+0x40b0>
   1abc6:	3eea4503          	lbu	a0,1006(s4)
   1abca:	3eda4583          	lbu	a1,1005(s4)
   1abce:	3efa4603          	lbu	a2,1007(s4)
   1abd2:	3f0a2403          	lw	s0,1008(s4)
   1abd6:	0522                	slli	a0,a0,0x8
   1abd8:	8d4d                	or	a0,a0,a1
   1abda:	38a11a23          	sh	a0,916(sp)
   1abde:	38c10b23          	sb	a2,918(sp)
   1abe2:	6505                	lui	a0,0x1
   1abe4:	38850513          	addi	a0,a0,904 # 1388 <.Lline_table_start1+0x115d>
   1abe8:	00a105b3          	add	a1,sp,a0
   1abec:	6505                	lui	a0,0x1
   1abee:	32450513          	addi	a0,a0,804 # 1324 <.Lline_table_start1+0x10f9>
   1abf2:	950a                	add	a0,a0,sp
   1abf4:	04900613          	li	a2,73
   1abf8:	00003097          	auipc	ra,0x3
   1abfc:	b7e080e7          	jalr	-1154(ra) # 1d776 <memcpy>
   1ac00:	01845513          	srli	a0,s0,0x18
   1ac04:	01045593          	srli	a1,s0,0x10
   1ac08:	00845613          	srli	a2,s0,0x8
   1ac0c:	38810ba3          	sb	s0,919(sp)
   1ac10:	38c10c23          	sb	a2,920(sp)
   1ac14:	38b10ca3          	sb	a1,921(sp)
   1ac18:	38a10d23          	sb	a0,922(sp)
   1ac1c:	39b10513          	addi	a0,sp,923
   1ac20:	6585                	lui	a1,0x1
   1ac22:	32458593          	addi	a1,a1,804 # 1324 <.Lline_table_start1+0x10f9>
   1ac26:	958a                	add	a1,a1,sp
   1ac28:	04900613          	li	a2,73
   1ac2c:	00003097          	auipc	ra,0x3
   1ac30:	b4a080e7          	jalr	-1206(ra) # 1d776 <memcpy>
   1ac34:	6505                	lui	a0,0x1
   1ac36:	38050513          	addi	a0,a0,896 # 1380 <.Lline_table_start1+0x1155>
   1ac3a:	950a                	add	a0,a0,sp
   1ac3c:	0f4c                	addi	a1,sp,916
   1ac3e:	ffffc097          	auipc	ra,0xffffc
   1ac42:	6ba080e7          	jalr	1722(ra) # 172f8 <_ZN20complex_dynamic_type3app17hb8ad5643b8b45c35E>
   1ac46:	3eca4503          	lbu	a0,1004(s4)
   1ac4a:	c119                	beqz	a0,1ac50 <_start+0x1602>
   1ac4c:	2b30206f          	j	1d6fe <_start+0x40b0>
   1ac50:	3eea4503          	lbu	a0,1006(s4)
   1ac54:	3eda4583          	lbu	a1,1005(s4)
   1ac58:	3efa4603          	lbu	a2,1007(s4)
   1ac5c:	3f0a2403          	lw	s0,1008(s4)
   1ac60:	0522                	slli	a0,a0,0x8
   1ac62:	8d4d                	or	a0,a0,a1
   1ac64:	3ea11223          	sh	a0,996(sp)
   1ac68:	3ec10323          	sb	a2,998(sp)
   1ac6c:	6505                	lui	a0,0x1
   1ac6e:	38850513          	addi	a0,a0,904 # 1388 <.Lline_table_start1+0x115d>
   1ac72:	00a105b3          	add	a1,sp,a0
   1ac76:	6505                	lui	a0,0x1
   1ac78:	32450513          	addi	a0,a0,804 # 1324 <.Lline_table_start1+0x10f9>
   1ac7c:	950a                	add	a0,a0,sp
   1ac7e:	03500613          	li	a2,53
   1ac82:	00003097          	auipc	ra,0x3
   1ac86:	af4080e7          	jalr	-1292(ra) # 1d776 <memcpy>
   1ac8a:	01845513          	srli	a0,s0,0x18
   1ac8e:	01045593          	srli	a1,s0,0x10
   1ac92:	00845613          	srli	a2,s0,0x8
   1ac96:	3e8103a3          	sb	s0,999(sp)
   1ac9a:	3ec10423          	sb	a2,1000(sp)
   1ac9e:	3eb104a3          	sb	a1,1001(sp)
   1aca2:	3ea10523          	sb	a0,1002(sp)
   1aca6:	3eb10513          	addi	a0,sp,1003
   1acaa:	6585                	lui	a1,0x1
   1acac:	32458593          	addi	a1,a1,804 # 1324 <.Lline_table_start1+0x10f9>
   1acb0:	958a                	add	a1,a1,sp
   1acb2:	03500613          	li	a2,53
   1acb6:	00003097          	auipc	ra,0x3
   1acba:	ac0080e7          	jalr	-1344(ra) # 1d776 <memcpy>
   1acbe:	6505                	lui	a0,0x1
   1acc0:	38050513          	addi	a0,a0,896 # 1380 <.Lline_table_start1+0x1155>
   1acc4:	950a                	add	a0,a0,sp
   1acc6:	17cc                	addi	a1,sp,996
   1acc8:	ffff7097          	auipc	ra,0xffff7
   1accc:	55a080e7          	jalr	1370(ra) # 12222 <_ZN20complex_dynamic_type3app17h2308e7c92a71bca4E>
   1acd0:	3eca4503          	lbu	a0,1004(s4)
   1acd4:	c119                	beqz	a0,1acda <_start+0x168c>
   1acd6:	2290206f          	j	1d6fe <_start+0x40b0>
   1acda:	3eea4503          	lbu	a0,1006(s4)
   1acde:	3eda4583          	lbu	a1,1005(s4)
   1ace2:	3efa4603          	lbu	a2,1007(s4)
   1ace6:	3f0a2403          	lw	s0,1008(s4)
   1acea:	0522                	slli	a0,a0,0x8
   1acec:	8d4d                	or	a0,a0,a1
   1acee:	42a11023          	sh	a0,1056(sp)
   1acf2:	42c10123          	sb	a2,1058(sp)
   1acf6:	6505                	lui	a0,0x1
   1acf8:	38850513          	addi	a0,a0,904 # 1388 <.Lline_table_start1+0x115d>
   1acfc:	00a105b3          	add	a1,sp,a0
   1ad00:	6505                	lui	a0,0x1
   1ad02:	32450513          	addi	a0,a0,804 # 1324 <.Lline_table_start1+0x10f9>
   1ad06:	950a                	add	a0,a0,sp
   1ad08:	02b00613          	li	a2,43
   1ad0c:	00003097          	auipc	ra,0x3
   1ad10:	a6a080e7          	jalr	-1430(ra) # 1d776 <memcpy>
   1ad14:	01845513          	srli	a0,s0,0x18
   1ad18:	01045593          	srli	a1,s0,0x10
   1ad1c:	00845613          	srli	a2,s0,0x8
   1ad20:	428101a3          	sb	s0,1059(sp)
   1ad24:	42c10223          	sb	a2,1060(sp)
   1ad28:	42b102a3          	sb	a1,1061(sp)
   1ad2c:	42a10323          	sb	a0,1062(sp)
   1ad30:	42710513          	addi	a0,sp,1063
   1ad34:	6585                	lui	a1,0x1
   1ad36:	32458593          	addi	a1,a1,804 # 1324 <.Lline_table_start1+0x10f9>
   1ad3a:	958a                	add	a1,a1,sp
   1ad3c:	02b00613          	li	a2,43
   1ad40:	00003097          	auipc	ra,0x3
   1ad44:	a36080e7          	jalr	-1482(ra) # 1d776 <memcpy>
   1ad48:	6505                	lui	a0,0x1
   1ad4a:	38050513          	addi	a0,a0,896 # 1380 <.Lline_table_start1+0x1155>
   1ad4e:	950a                	add	a0,a0,sp
   1ad50:	42010593          	addi	a1,sp,1056
   1ad54:	ffffc097          	auipc	ra,0xffffc
   1ad58:	bb2080e7          	jalr	-1102(ra) # 16906 <_ZN20complex_dynamic_type3app17ha87f79b0848beb6eE>
   1ad5c:	3eca4503          	lbu	a0,1004(s4)
   1ad60:	c119                	beqz	a0,1ad66 <_start+0x1718>
   1ad62:	19d0206f          	j	1d6fe <_start+0x40b0>
   1ad66:	3eea4503          	lbu	a0,1006(s4)
   1ad6a:	3eda4583          	lbu	a1,1005(s4)
   1ad6e:	3efa4603          	lbu	a2,1007(s4)
   1ad72:	3f0a2403          	lw	s0,1008(s4)
   1ad76:	0522                	slli	a0,a0,0x8
   1ad78:	8d4d                	or	a0,a0,a1
   1ad7a:	44a11923          	sh	a0,1106(sp)
   1ad7e:	44c10a23          	sb	a2,1108(sp)
   1ad82:	6505                	lui	a0,0x1
   1ad84:	38850513          	addi	a0,a0,904 # 1388 <.Lline_table_start1+0x115d>
   1ad88:	00a105b3          	add	a1,sp,a0
   1ad8c:	6505                	lui	a0,0x1
   1ad8e:	32450513          	addi	a0,a0,804 # 1324 <.Lline_table_start1+0x10f9>
   1ad92:	950a                	add	a0,a0,sp
   1ad94:	02b00613          	li	a2,43
   1ad98:	00003097          	auipc	ra,0x3
   1ad9c:	9de080e7          	jalr	-1570(ra) # 1d776 <memcpy>
   1ada0:	01845513          	srli	a0,s0,0x18
   1ada4:	01045593          	srli	a1,s0,0x10
   1ada8:	00845613          	srli	a2,s0,0x8
   1adac:	44810aa3          	sb	s0,1109(sp)
   1adb0:	44c10b23          	sb	a2,1110(sp)
   1adb4:	44b10ba3          	sb	a1,1111(sp)
   1adb8:	44a10c23          	sb	a0,1112(sp)
   1adbc:	45910513          	addi	a0,sp,1113
   1adc0:	6585                	lui	a1,0x1
   1adc2:	32458593          	addi	a1,a1,804 # 1324 <.Lline_table_start1+0x10f9>
   1adc6:	958a                	add	a1,a1,sp
   1adc8:	02b00613          	li	a2,43
   1adcc:	00003097          	auipc	ra,0x3
   1add0:	9aa080e7          	jalr	-1622(ra) # 1d776 <memcpy>
   1add4:	6505                	lui	a0,0x1
   1add6:	38050513          	addi	a0,a0,896 # 1380 <.Lline_table_start1+0x1155>
   1adda:	950a                	add	a0,a0,sp
   1addc:	45210593          	addi	a1,sp,1106
   1ade0:	ffff7097          	auipc	ra,0xffff7
   1ade4:	712080e7          	jalr	1810(ra) # 124f2 <_ZN20complex_dynamic_type3app17h2a0c706e7edbb7e7E>
   1ade8:	3eca4503          	lbu	a0,1004(s4)
   1adec:	c119                	beqz	a0,1adf2 <_start+0x17a4>
   1adee:	1110206f          	j	1d6fe <_start+0x40b0>
   1adf2:	3eda4503          	lbu	a0,1005(s4)
   1adf6:	3eea4583          	lbu	a1,1006(s4)
   1adfa:	3efa4603          	lbu	a2,1007(s4)
   1adfe:	3f0a2683          	lw	a3,1008(s4)
   1ae02:	3f4a2703          	lw	a4,1012(s4)
   1ae06:	3f8a2783          	lw	a5,1016(s4)
   1ae0a:	3fca4483          	lbu	s1,1020(s4)
   1ae0e:	05a2                	slli	a1,a1,0x8
   1ae10:	38ea2823          	sw	a4,912(s4)
   1ae14:	38fa2a23          	sw	a5,916(s4)
   1ae18:	389a0c23          	sb	s1,920(s4)
   1ae1c:	0186d713          	srli	a4,a3,0x18
   1ae20:	8d4d                	or	a0,a0,a1
   1ae22:	0106d593          	srli	a1,a3,0x10
   1ae26:	48b104a3          	sb	a1,1161(sp)
   1ae2a:	48e10523          	sb	a4,1162(sp)
   1ae2e:	0086d593          	srli	a1,a3,0x8
   1ae32:	48a11223          	sh	a0,1156(sp)
   1ae36:	48c10323          	sb	a2,1158(sp)
   1ae3a:	48d103a3          	sb	a3,1159(sp)
   1ae3e:	48b10423          	sb	a1,1160(sp)
   1ae42:	48b10513          	addi	a0,sp,1163
   1ae46:	6585                	lui	a1,0x1
   1ae48:	32458593          	addi	a1,a1,804 # 1324 <.Lline_table_start1+0x10f9>
   1ae4c:	958a                	add	a1,a1,sp
   1ae4e:	4625                	li	a2,9
   1ae50:	00003097          	auipc	ra,0x3
   1ae54:	926080e7          	jalr	-1754(ra) # 1d776 <memcpy>
   1ae58:	6505                	lui	a0,0x1
   1ae5a:	38050513          	addi	a0,a0,896 # 1380 <.Lline_table_start1+0x1155>
   1ae5e:	950a                	add	a0,a0,sp
   1ae60:	48410593          	addi	a1,sp,1156
   1ae64:	ffffa097          	auipc	ra,0xffffa
   1ae68:	e34080e7          	jalr	-460(ra) # 14c98 <_ZN20complex_dynamic_type3app17h6bfa7838edee86b6E>
   1ae6c:	3eca4503          	lbu	a0,1004(s4)
   1ae70:	c119                	beqz	a0,1ae76 <_start+0x1828>
   1ae72:	08d0206f          	j	1d6fe <_start+0x40b0>
   1ae76:	3eea4503          	lbu	a0,1006(s4)
   1ae7a:	3eda4583          	lbu	a1,1005(s4)
   1ae7e:	3efa4603          	lbu	a2,1007(s4)
   1ae82:	3f0a2403          	lw	s0,1008(s4)
   1ae86:	0522                	slli	a0,a0,0x8
   1ae88:	8d4d                	or	a0,a0,a1
   1ae8a:	48a11a23          	sh	a0,1172(sp)
   1ae8e:	48c10b23          	sb	a2,1174(sp)
   1ae92:	6505                	lui	a0,0x1
   1ae94:	38850513          	addi	a0,a0,904 # 1388 <.Lline_table_start1+0x115d>
   1ae98:	00a105b3          	add	a1,sp,a0
   1ae9c:	6505                	lui	a0,0x1
   1ae9e:	32450513          	addi	a0,a0,804 # 1324 <.Lline_table_start1+0x10f9>
   1aea2:	950a                	add	a0,a0,sp
   1aea4:	02f00613          	li	a2,47
   1aea8:	00003097          	auipc	ra,0x3
   1aeac:	8ce080e7          	jalr	-1842(ra) # 1d776 <memcpy>
   1aeb0:	01845513          	srli	a0,s0,0x18
   1aeb4:	01045593          	srli	a1,s0,0x10
   1aeb8:	00845613          	srli	a2,s0,0x8
   1aebc:	48810ba3          	sb	s0,1175(sp)
   1aec0:	48c10c23          	sb	a2,1176(sp)
   1aec4:	48b10ca3          	sb	a1,1177(sp)
   1aec8:	48a10d23          	sb	a0,1178(sp)
   1aecc:	49b10513          	addi	a0,sp,1179
   1aed0:	6585                	lui	a1,0x1
   1aed2:	32458593          	addi	a1,a1,804 # 1324 <.Lline_table_start1+0x10f9>
   1aed6:	958a                	add	a1,a1,sp
   1aed8:	02f00613          	li	a2,47
   1aedc:	00003097          	auipc	ra,0x3
   1aee0:	89a080e7          	jalr	-1894(ra) # 1d776 <memcpy>
   1aee4:	6505                	lui	a0,0x1
   1aee6:	38050513          	addi	a0,a0,896 # 1380 <.Lline_table_start1+0x1155>
   1aeea:	950a                	add	a0,a0,sp
   1aeec:	49410593          	addi	a1,sp,1172
   1aef0:	ffff7097          	auipc	ra,0xffff7
   1aef4:	072080e7          	jalr	114(ra) # 11f62 <_ZN20complex_dynamic_type3app17h1921650f20508b28E>
   1aef8:	3eca4503          	lbu	a0,1004(s4)
   1aefc:	c119                	beqz	a0,1af02 <_start+0x18b4>
   1aefe:	0010206f          	j	1d6fe <_start+0x40b0>
   1af02:	3eda4503          	lbu	a0,1005(s4)
   1af06:	3eea4583          	lbu	a1,1006(s4)
   1af0a:	3efa4803          	lbu	a6,1007(s4)
   1af0e:	3f0a2683          	lw	a3,1008(s4)
   1af12:	3f4a2703          	lw	a4,1012(s4)
   1af16:	3f8a2783          	lw	a5,1016(s4)
   1af1a:	05a2                	slli	a1,a1,0x8
   1af1c:	0186d893          	srli	a7,a3,0x18
   1af20:	0106d293          	srli	t0,a3,0x10
   1af24:	0187d613          	srli	a2,a5,0x18
   1af28:	0107d493          	srli	s1,a5,0x10
   1af2c:	0087d413          	srli	s0,a5,0x8
   1af30:	8d4d                	or	a0,a0,a1
   1af32:	01875593          	srli	a1,a4,0x18
   1af36:	4c910ba3          	sb	s1,1239(sp)
   1af3a:	4cc10c23          	sb	a2,1240(sp)
   1af3e:	01075613          	srli	a2,a4,0x10
   1af42:	4cc109a3          	sb	a2,1235(sp)
   1af46:	4cb10a23          	sb	a1,1236(sp)
   1af4a:	4cf10aa3          	sb	a5,1237(sp)
   1af4e:	4c810b23          	sb	s0,1238(sp)
   1af52:	0086d593          	srli	a1,a3,0x8
   1af56:	4ca11523          	sh	a0,1226(sp)
   1af5a:	4d010623          	sb	a6,1228(sp)
   1af5e:	4cd106a3          	sb	a3,1229(sp)
   1af62:	4cb10723          	sb	a1,1230(sp)
   1af66:	00875513          	srli	a0,a4,0x8
   1af6a:	4c5107a3          	sb	t0,1231(sp)
   1af6e:	4d110823          	sb	a7,1232(sp)
   1af72:	4ce108a3          	sb	a4,1233(sp)
   1af76:	4ca10923          	sb	a0,1234(sp)
   1af7a:	6505                	lui	a0,0x1
   1af7c:	38050513          	addi	a0,a0,896 # 1380 <.Lline_table_start1+0x1155>
   1af80:	950a                	add	a0,a0,sp
   1af82:	4ca10593          	addi	a1,sp,1226
   1af86:	ffffa097          	auipc	ra,0xffffa
   1af8a:	2b6080e7          	jalr	694(ra) # 1523c <_ZN20complex_dynamic_type3app17h7bbddca3c1d5a79eE>
   1af8e:	3eca4503          	lbu	a0,1004(s4)
   1af92:	c119                	beqz	a0,1af98 <_start+0x194a>
   1af94:	76a0206f          	j	1d6fe <_start+0x40b0>
   1af98:	3eda4503          	lbu	a0,1005(s4)
   1af9c:	3eea4583          	lbu	a1,1006(s4)
   1afa0:	3efa4603          	lbu	a2,1007(s4)
   1afa4:	3f0a2683          	lw	a3,1008(s4)
   1afa8:	3f4a2703          	lw	a4,1012(s4)
   1afac:	3f8a2783          	lw	a5,1016(s4)
   1afb0:	3fca2483          	lw	s1,1020(s4)
   1afb4:	05a2                	slli	a1,a1,0x8
   1afb6:	38ea2823          	sw	a4,912(s4)
   1afba:	38fa2a23          	sw	a5,916(s4)
   1afbe:	389a2c23          	sw	s1,920(s4)
   1afc2:	0186d713          	srli	a4,a3,0x18
   1afc6:	8d4d                	or	a0,a0,a1
   1afc8:	0106d593          	srli	a1,a3,0x10
   1afcc:	4cb10fa3          	sb	a1,1247(sp)
   1afd0:	4ee10023          	sb	a4,1248(sp)
   1afd4:	0086d593          	srli	a1,a3,0x8
   1afd8:	4ca11d23          	sh	a0,1242(sp)
   1afdc:	4cc10e23          	sb	a2,1244(sp)
   1afe0:	4cd10ea3          	sb	a3,1245(sp)
   1afe4:	4cb10f23          	sb	a1,1246(sp)
   1afe8:	4e110513          	addi	a0,sp,1249
   1afec:	6585                	lui	a1,0x1
   1afee:	32458593          	addi	a1,a1,804 # 1324 <.Lline_table_start1+0x10f9>
   1aff2:	958a                	add	a1,a1,sp
   1aff4:	4631                	li	a2,12
   1aff6:	00002097          	auipc	ra,0x2
   1affa:	780080e7          	jalr	1920(ra) # 1d776 <memcpy>
   1affe:	6505                	lui	a0,0x1
   1b000:	38050513          	addi	a0,a0,896 # 1380 <.Lline_table_start1+0x1155>
   1b004:	950a                	add	a0,a0,sp
   1b006:	4da10593          	addi	a1,sp,1242
   1b00a:	ffffe097          	auipc	ra,0xffffe
   1b00e:	09a080e7          	jalr	154(ra) # 190a4 <_ZN20complex_dynamic_type3app17hf8199702d1a72543E>
   1b012:	3eca4503          	lbu	a0,1004(s4)
   1b016:	c119                	beqz	a0,1b01c <_start+0x19ce>
   1b018:	6e60206f          	j	1d6fe <_start+0x40b0>
   1b01c:	3eea4503          	lbu	a0,1006(s4)
   1b020:	3eda4583          	lbu	a1,1005(s4)
   1b024:	3efa4603          	lbu	a2,1007(s4)
   1b028:	3f0a2403          	lw	s0,1008(s4)
   1b02c:	0522                	slli	a0,a0,0x8
   1b02e:	8d4d                	or	a0,a0,a1
   1b030:	4ea11723          	sh	a0,1262(sp)
   1b034:	4ec10823          	sb	a2,1264(sp)
   1b038:	6505                	lui	a0,0x1
   1b03a:	38850513          	addi	a0,a0,904 # 1388 <.Lline_table_start1+0x115d>
   1b03e:	00a105b3          	add	a1,sp,a0
   1b042:	6505                	lui	a0,0x1
   1b044:	32450513          	addi	a0,a0,804 # 1324 <.Lline_table_start1+0x10f9>
   1b048:	950a                	add	a0,a0,sp
   1b04a:	04e00613          	li	a2,78
   1b04e:	00002097          	auipc	ra,0x2
   1b052:	728080e7          	jalr	1832(ra) # 1d776 <memcpy>
   1b056:	01845513          	srli	a0,s0,0x18
   1b05a:	01045593          	srli	a1,s0,0x10
   1b05e:	00845613          	srli	a2,s0,0x8
   1b062:	4e8108a3          	sb	s0,1265(sp)
   1b066:	4ec10923          	sb	a2,1266(sp)
   1b06a:	4eb109a3          	sb	a1,1267(sp)
   1b06e:	4ea10a23          	sb	a0,1268(sp)
   1b072:	4f510513          	addi	a0,sp,1269
   1b076:	6585                	lui	a1,0x1
   1b078:	32458593          	addi	a1,a1,804 # 1324 <.Lline_table_start1+0x10f9>
   1b07c:	958a                	add	a1,a1,sp
   1b07e:	04e00613          	li	a2,78
   1b082:	00002097          	auipc	ra,0x2
   1b086:	6f4080e7          	jalr	1780(ra) # 1d776 <memcpy>
   1b08a:	6505                	lui	a0,0x1
   1b08c:	38050513          	addi	a0,a0,896 # 1380 <.Lline_table_start1+0x1155>
   1b090:	950a                	add	a0,a0,sp
   1b092:	4ee10593          	addi	a1,sp,1262
   1b096:	ffffd097          	auipc	ra,0xffffd
   1b09a:	08e080e7          	jalr	142(ra) # 18124 <_ZN20complex_dynamic_type3app17hd55cb212b7be8f80E>
   1b09e:	3eca4503          	lbu	a0,1004(s4)
   1b0a2:	c119                	beqz	a0,1b0a8 <_start+0x1a5a>
   1b0a4:	65a0206f          	j	1d6fe <_start+0x40b0>
   1b0a8:	3eea4503          	lbu	a0,1006(s4)
   1b0ac:	3eda4583          	lbu	a1,1005(s4)
   1b0b0:	3efa4603          	lbu	a2,1007(s4)
   1b0b4:	3f0a2403          	lw	s0,1008(s4)
   1b0b8:	0522                	slli	a0,a0,0x8
   1b0ba:	8d4d                	or	a0,a0,a1
   1b0bc:	54a11223          	sh	a0,1348(sp)
   1b0c0:	54c10323          	sb	a2,1350(sp)
   1b0c4:	6505                	lui	a0,0x1
   1b0c6:	38850513          	addi	a0,a0,904 # 1388 <.Lline_table_start1+0x115d>
   1b0ca:	00a105b3          	add	a1,sp,a0
   1b0ce:	6505                	lui	a0,0x1
   1b0d0:	32450513          	addi	a0,a0,804 # 1324 <.Lline_table_start1+0x10f9>
   1b0d4:	950a                	add	a0,a0,sp
   1b0d6:	02b00613          	li	a2,43
   1b0da:	00002097          	auipc	ra,0x2
   1b0de:	69c080e7          	jalr	1692(ra) # 1d776 <memcpy>
   1b0e2:	01845513          	srli	a0,s0,0x18
   1b0e6:	01045593          	srli	a1,s0,0x10
   1b0ea:	00845613          	srli	a2,s0,0x8
   1b0ee:	548103a3          	sb	s0,1351(sp)
   1b0f2:	54c10423          	sb	a2,1352(sp)
   1b0f6:	54b104a3          	sb	a1,1353(sp)
   1b0fa:	54a10523          	sb	a0,1354(sp)
   1b0fe:	54b10513          	addi	a0,sp,1355
   1b102:	6585                	lui	a1,0x1
   1b104:	32458593          	addi	a1,a1,804 # 1324 <.Lline_table_start1+0x10f9>
   1b108:	958a                	add	a1,a1,sp
   1b10a:	02b00613          	li	a2,43
   1b10e:	00002097          	auipc	ra,0x2
   1b112:	668080e7          	jalr	1640(ra) # 1d776 <memcpy>
   1b116:	6505                	lui	a0,0x1
   1b118:	38050513          	addi	a0,a0,896 # 1380 <.Lline_table_start1+0x1155>
   1b11c:	950a                	add	a0,a0,sp
   1b11e:	54410593          	addi	a1,sp,1348
   1b122:	ffff6097          	auipc	ra,0xffff6
   1b126:	5b8080e7          	jalr	1464(ra) # 116da <_ZN20complex_dynamic_type3app17h0b9f517a8baee0b5E>
   1b12a:	3eca4503          	lbu	a0,1004(s4)
   1b12e:	c119                	beqz	a0,1b134 <_start+0x1ae6>
   1b130:	5ce0206f          	j	1d6fe <_start+0x40b0>
   1b134:	3eea4503          	lbu	a0,1006(s4)
   1b138:	3eda4583          	lbu	a1,1005(s4)
   1b13c:	3efa4603          	lbu	a2,1007(s4)
   1b140:	3f0a2403          	lw	s0,1008(s4)
   1b144:	0522                	slli	a0,a0,0x8
   1b146:	8d4d                	or	a0,a0,a1
   1b148:	56a11b23          	sh	a0,1398(sp)
   1b14c:	56c10c23          	sb	a2,1400(sp)
   1b150:	6505                	lui	a0,0x1
   1b152:	38850513          	addi	a0,a0,904 # 1388 <.Lline_table_start1+0x115d>
   1b156:	00a105b3          	add	a1,sp,a0
   1b15a:	6505                	lui	a0,0x1
   1b15c:	32450513          	addi	a0,a0,804 # 1324 <.Lline_table_start1+0x10f9>
   1b160:	950a                	add	a0,a0,sp
   1b162:	03a00613          	li	a2,58
   1b166:	00002097          	auipc	ra,0x2
   1b16a:	610080e7          	jalr	1552(ra) # 1d776 <memcpy>
   1b16e:	01845513          	srli	a0,s0,0x18
   1b172:	01045593          	srli	a1,s0,0x10
   1b176:	00845613          	srli	a2,s0,0x8
   1b17a:	56810ca3          	sb	s0,1401(sp)
   1b17e:	56c10d23          	sb	a2,1402(sp)
   1b182:	56b10da3          	sb	a1,1403(sp)
   1b186:	56a10e23          	sb	a0,1404(sp)
   1b18a:	57d10513          	addi	a0,sp,1405
   1b18e:	6585                	lui	a1,0x1
   1b190:	32458593          	addi	a1,a1,804 # 1324 <.Lline_table_start1+0x10f9>
   1b194:	958a                	add	a1,a1,sp
   1b196:	03a00613          	li	a2,58
   1b19a:	00002097          	auipc	ra,0x2
   1b19e:	5dc080e7          	jalr	1500(ra) # 1d776 <memcpy>
   1b1a2:	6505                	lui	a0,0x1
   1b1a4:	38050513          	addi	a0,a0,896 # 1380 <.Lline_table_start1+0x1155>
   1b1a8:	950a                	add	a0,a0,sp
   1b1aa:	57610593          	addi	a1,sp,1398
   1b1ae:	ffffb097          	auipc	ra,0xffffb
   1b1b2:	d52080e7          	jalr	-686(ra) # 15f00 <_ZN20complex_dynamic_type3app17h943fd357ecd6b614E>
   1b1b6:	3eca4503          	lbu	a0,1004(s4)
   1b1ba:	c119                	beqz	a0,1b1c0 <_start+0x1b72>
   1b1bc:	5420206f          	j	1d6fe <_start+0x40b0>
   1b1c0:	3eea4503          	lbu	a0,1006(s4)
   1b1c4:	3eda4583          	lbu	a1,1005(s4)
   1b1c8:	3efa4603          	lbu	a2,1007(s4)
   1b1cc:	3f0a2403          	lw	s0,1008(s4)
   1b1d0:	0522                	slli	a0,a0,0x8
   1b1d2:	8d4d                	or	a0,a0,a1
   1b1d4:	5aa11c23          	sh	a0,1464(sp)
   1b1d8:	5ac10d23          	sb	a2,1466(sp)
   1b1dc:	6505                	lui	a0,0x1
   1b1de:	38850513          	addi	a0,a0,904 # 1388 <.Lline_table_start1+0x115d>
   1b1e2:	00a105b3          	add	a1,sp,a0
   1b1e6:	6505                	lui	a0,0x1
   1b1e8:	32450513          	addi	a0,a0,804 # 1324 <.Lline_table_start1+0x10f9>
   1b1ec:	950a                	add	a0,a0,sp
   1b1ee:	466d                	li	a2,27
   1b1f0:	00002097          	auipc	ra,0x2
   1b1f4:	586080e7          	jalr	1414(ra) # 1d776 <memcpy>
   1b1f8:	01845513          	srli	a0,s0,0x18
   1b1fc:	01045593          	srli	a1,s0,0x10
   1b200:	00845613          	srli	a2,s0,0x8
   1b204:	5a810da3          	sb	s0,1467(sp)
   1b208:	5ac10e23          	sb	a2,1468(sp)
   1b20c:	5ab10ea3          	sb	a1,1469(sp)
   1b210:	5aa10f23          	sb	a0,1470(sp)
   1b214:	5bf10513          	addi	a0,sp,1471
   1b218:	6585                	lui	a1,0x1
   1b21a:	32458593          	addi	a1,a1,804 # 1324 <.Lline_table_start1+0x10f9>
   1b21e:	958a                	add	a1,a1,sp
   1b220:	466d                	li	a2,27
   1b222:	00002097          	auipc	ra,0x2
   1b226:	554080e7          	jalr	1364(ra) # 1d776 <memcpy>
   1b22a:	6505                	lui	a0,0x1
   1b22c:	38050513          	addi	a0,a0,896 # 1380 <.Lline_table_start1+0x1155>
   1b230:	950a                	add	a0,a0,sp
   1b232:	5b810593          	addi	a1,sp,1464
   1b236:	ffff8097          	auipc	ra,0xffff8
   1b23a:	53c080e7          	jalr	1340(ra) # 13772 <_ZN20complex_dynamic_type3app17h4cf4d1f00f8d7bbbE>
   1b23e:	3eca4503          	lbu	a0,1004(s4)
   1b242:	c119                	beqz	a0,1b248 <_start+0x1bfa>
   1b244:	4ba0206f          	j	1d6fe <_start+0x40b0>
   1b248:	3eea4503          	lbu	a0,1006(s4)
   1b24c:	3eda4583          	lbu	a1,1005(s4)
   1b250:	3efa4603          	lbu	a2,1007(s4)
   1b254:	3f0a2403          	lw	s0,1008(s4)
   1b258:	0522                	slli	a0,a0,0x8
   1b25a:	8d4d                	or	a0,a0,a1
   1b25c:	5ca11d23          	sh	a0,1498(sp)
   1b260:	5cc10e23          	sb	a2,1500(sp)
   1b264:	6505                	lui	a0,0x1
   1b266:	38850513          	addi	a0,a0,904 # 1388 <.Lline_table_start1+0x115d>
   1b26a:	00a105b3          	add	a1,sp,a0
   1b26e:	6505                	lui	a0,0x1
   1b270:	32450513          	addi	a0,a0,804 # 1324 <.Lline_table_start1+0x10f9>
   1b274:	950a                	add	a0,a0,sp
   1b276:	04a00613          	li	a2,74
   1b27a:	00002097          	auipc	ra,0x2
   1b27e:	4fc080e7          	jalr	1276(ra) # 1d776 <memcpy>
   1b282:	01845513          	srli	a0,s0,0x18
   1b286:	01045593          	srli	a1,s0,0x10
   1b28a:	00845613          	srli	a2,s0,0x8
   1b28e:	5c810ea3          	sb	s0,1501(sp)
   1b292:	5cc10f23          	sb	a2,1502(sp)
   1b296:	5cb10fa3          	sb	a1,1503(sp)
   1b29a:	5ea10023          	sb	a0,1504(sp)
   1b29e:	5e110513          	addi	a0,sp,1505
   1b2a2:	6585                	lui	a1,0x1
   1b2a4:	32458593          	addi	a1,a1,804 # 1324 <.Lline_table_start1+0x10f9>
   1b2a8:	958a                	add	a1,a1,sp
   1b2aa:	04a00613          	li	a2,74
   1b2ae:	00002097          	auipc	ra,0x2
   1b2b2:	4c8080e7          	jalr	1224(ra) # 1d776 <memcpy>
   1b2b6:	6505                	lui	a0,0x1
   1b2b8:	38050513          	addi	a0,a0,896 # 1380 <.Lline_table_start1+0x1155>
   1b2bc:	950a                	add	a0,a0,sp
   1b2be:	5da10593          	addi	a1,sp,1498
   1b2c2:	ffff9097          	auipc	ra,0xffff9
   1b2c6:	8e6080e7          	jalr	-1818(ra) # 13ba8 <_ZN20complex_dynamic_type3app17h5385e684a09ac990E>
   1b2ca:	3eca4503          	lbu	a0,1004(s4)
   1b2ce:	c119                	beqz	a0,1b2d4 <_start+0x1c86>
   1b2d0:	42e0206f          	j	1d6fe <_start+0x40b0>
   1b2d4:	3eea4503          	lbu	a0,1006(s4)
   1b2d8:	3eda4583          	lbu	a1,1005(s4)
   1b2dc:	3efa4603          	lbu	a2,1007(s4)
   1b2e0:	3f0a2403          	lw	s0,1008(s4)
   1b2e4:	0522                	slli	a0,a0,0x8
   1b2e6:	8d4d                	or	a0,a0,a1
   1b2e8:	62a11623          	sh	a0,1580(sp)
   1b2ec:	62c10723          	sb	a2,1582(sp)
   1b2f0:	6505                	lui	a0,0x1
   1b2f2:	38850513          	addi	a0,a0,904 # 1388 <.Lline_table_start1+0x115d>
   1b2f6:	00a105b3          	add	a1,sp,a0
   1b2fa:	6505                	lui	a0,0x1
   1b2fc:	32450513          	addi	a0,a0,804 # 1324 <.Lline_table_start1+0x10f9>
   1b300:	950a                	add	a0,a0,sp
   1b302:	04800613          	li	a2,72
   1b306:	00002097          	auipc	ra,0x2
   1b30a:	470080e7          	jalr	1136(ra) # 1d776 <memcpy>
   1b30e:	01845513          	srli	a0,s0,0x18
   1b312:	01045593          	srli	a1,s0,0x10
   1b316:	00845613          	srli	a2,s0,0x8
   1b31a:	628107a3          	sb	s0,1583(sp)
   1b31e:	62c10823          	sb	a2,1584(sp)
   1b322:	62b108a3          	sb	a1,1585(sp)
   1b326:	62a10923          	sb	a0,1586(sp)
   1b32a:	63310513          	addi	a0,sp,1587
   1b32e:	6585                	lui	a1,0x1
   1b330:	32458593          	addi	a1,a1,804 # 1324 <.Lline_table_start1+0x10f9>
   1b334:	958a                	add	a1,a1,sp
   1b336:	04800613          	li	a2,72
   1b33a:	00002097          	auipc	ra,0x2
   1b33e:	43c080e7          	jalr	1084(ra) # 1d776 <memcpy>
   1b342:	6505                	lui	a0,0x1
   1b344:	38050513          	addi	a0,a0,896 # 1380 <.Lline_table_start1+0x1155>
   1b348:	950a                	add	a0,a0,sp
   1b34a:	62c10593          	addi	a1,sp,1580
   1b34e:	ffffa097          	auipc	ra,0xffffa
   1b352:	5fe080e7          	jalr	1534(ra) # 1594c <_ZN20complex_dynamic_type3app17h8b28a40047ddaf77E>
   1b356:	3eca4503          	lbu	a0,1004(s4)
   1b35a:	c119                	beqz	a0,1b360 <_start+0x1d12>
   1b35c:	3a20206f          	j	1d6fe <_start+0x40b0>
   1b360:	3eea4503          	lbu	a0,1006(s4)
   1b364:	3eda4583          	lbu	a1,1005(s4)
   1b368:	3efa4603          	lbu	a2,1007(s4)
   1b36c:	3f0a2403          	lw	s0,1008(s4)
   1b370:	0522                	slli	a0,a0,0x8
   1b372:	8d4d                	or	a0,a0,a1
   1b374:	66a11e23          	sh	a0,1660(sp)
   1b378:	66c10f23          	sb	a2,1662(sp)
   1b37c:	6505                	lui	a0,0x1
   1b37e:	38850513          	addi	a0,a0,904 # 1388 <.Lline_table_start1+0x115d>
   1b382:	00a105b3          	add	a1,sp,a0
   1b386:	6505                	lui	a0,0x1
   1b388:	32450513          	addi	a0,a0,804 # 1324 <.Lline_table_start1+0x10f9>
   1b38c:	950a                	add	a0,a0,sp
   1b38e:	03400613          	li	a2,52
   1b392:	00002097          	auipc	ra,0x2
   1b396:	3e4080e7          	jalr	996(ra) # 1d776 <memcpy>
   1b39a:	01845513          	srli	a0,s0,0x18
   1b39e:	01045593          	srli	a1,s0,0x10
   1b3a2:	00845613          	srli	a2,s0,0x8
   1b3a6:	66810fa3          	sb	s0,1663(sp)
   1b3aa:	68c10023          	sb	a2,1664(sp)
   1b3ae:	68b100a3          	sb	a1,1665(sp)
   1b3b2:	68a10123          	sb	a0,1666(sp)
   1b3b6:	68310513          	addi	a0,sp,1667
   1b3ba:	6585                	lui	a1,0x1
   1b3bc:	32458593          	addi	a1,a1,804 # 1324 <.Lline_table_start1+0x10f9>
   1b3c0:	958a                	add	a1,a1,sp
   1b3c2:	03400613          	li	a2,52
   1b3c6:	00002097          	auipc	ra,0x2
   1b3ca:	3b0080e7          	jalr	944(ra) # 1d776 <memcpy>
   1b3ce:	6505                	lui	a0,0x1
   1b3d0:	38050513          	addi	a0,a0,896 # 1380 <.Lline_table_start1+0x1155>
   1b3d4:	950a                	add	a0,a0,sp
   1b3d6:	67c10593          	addi	a1,sp,1660
   1b3da:	ffffc097          	auipc	ra,0xffffc
   1b3de:	dae080e7          	jalr	-594(ra) # 17188 <_ZN20complex_dynamic_type3app17hb65e8503d4baa342E>
   1b3e2:	3eca4503          	lbu	a0,1004(s4)
   1b3e6:	c119                	beqz	a0,1b3ec <_start+0x1d9e>
   1b3e8:	3160206f          	j	1d6fe <_start+0x40b0>
   1b3ec:	3eea4503          	lbu	a0,1006(s4)
   1b3f0:	3eda4583          	lbu	a1,1005(s4)
   1b3f4:	3efa4603          	lbu	a2,1007(s4)
   1b3f8:	3f0a2403          	lw	s0,1008(s4)
   1b3fc:	0522                	slli	a0,a0,0x8
   1b3fe:	8d4d                	or	a0,a0,a1
   1b400:	6aa11c23          	sh	a0,1720(sp)
   1b404:	6ac10d23          	sb	a2,1722(sp)
   1b408:	6505                	lui	a0,0x1
   1b40a:	38850513          	addi	a0,a0,904 # 1388 <.Lline_table_start1+0x115d>
   1b40e:	00a105b3          	add	a1,sp,a0
   1b412:	6505                	lui	a0,0x1
   1b414:	32450513          	addi	a0,a0,804 # 1324 <.Lline_table_start1+0x10f9>
   1b418:	950a                	add	a0,a0,sp
   1b41a:	02000613          	li	a2,32
   1b41e:	00002097          	auipc	ra,0x2
   1b422:	358080e7          	jalr	856(ra) # 1d776 <memcpy>
   1b426:	01845513          	srli	a0,s0,0x18
   1b42a:	01045593          	srli	a1,s0,0x10
   1b42e:	00845613          	srli	a2,s0,0x8
   1b432:	6a810da3          	sb	s0,1723(sp)
   1b436:	6ac10e23          	sb	a2,1724(sp)
   1b43a:	6ab10ea3          	sb	a1,1725(sp)
   1b43e:	6aa10f23          	sb	a0,1726(sp)
   1b442:	6bf10513          	addi	a0,sp,1727
   1b446:	6585                	lui	a1,0x1
   1b448:	32458593          	addi	a1,a1,804 # 1324 <.Lline_table_start1+0x10f9>
   1b44c:	958a                	add	a1,a1,sp
   1b44e:	02000613          	li	a2,32
   1b452:	00002097          	auipc	ra,0x2
   1b456:	324080e7          	jalr	804(ra) # 1d776 <memcpy>
   1b45a:	6505                	lui	a0,0x1
   1b45c:	38050513          	addi	a0,a0,896 # 1380 <.Lline_table_start1+0x1155>
   1b460:	950a                	add	a0,a0,sp
   1b462:	6b810593          	addi	a1,sp,1720
   1b466:	ffffc097          	auipc	ra,0xffffc
   1b46a:	bbc080e7          	jalr	-1092(ra) # 17022 <_ZN20complex_dynamic_type3app17hb632c4cabe1ded0bE>
   1b46e:	3eca4503          	lbu	a0,1004(s4)
   1b472:	c119                	beqz	a0,1b478 <_start+0x1e2a>
   1b474:	28a0206f          	j	1d6fe <_start+0x40b0>
   1b478:	3eda4503          	lbu	a0,1005(s4)
   1b47c:	3eea4583          	lbu	a1,1006(s4)
   1b480:	3efa4603          	lbu	a2,1007(s4)
   1b484:	3f0a2683          	lw	a3,1008(s4)
   1b488:	3f4a2703          	lw	a4,1012(s4)
   1b48c:	3f8a2783          	lw	a5,1016(s4)
   1b490:	3fca2483          	lw	s1,1020(s4)
   1b494:	400a4403          	lbu	s0,1024(s4)
   1b498:	05a2                	slli	a1,a1,0x8
   1b49a:	38ea2823          	sw	a4,912(s4)
   1b49e:	38fa2a23          	sw	a5,916(s4)
   1b4a2:	389a2c23          	sw	s1,920(s4)
   1b4a6:	388a0e23          	sb	s0,924(s4)
   1b4aa:	0186d713          	srli	a4,a3,0x18
   1b4ae:	8d4d                	or	a0,a0,a1
   1b4b0:	0106d593          	srli	a1,a3,0x10
   1b4b4:	6eb102a3          	sb	a1,1765(sp)
   1b4b8:	6ee10323          	sb	a4,1766(sp)
   1b4bc:	0086d593          	srli	a1,a3,0x8
   1b4c0:	6ea11023          	sh	a0,1760(sp)
   1b4c4:	6ec10123          	sb	a2,1762(sp)
   1b4c8:	6ed101a3          	sb	a3,1763(sp)
   1b4cc:	6eb10223          	sb	a1,1764(sp)
   1b4d0:	6e710513          	addi	a0,sp,1767
   1b4d4:	6585                	lui	a1,0x1
   1b4d6:	32458593          	addi	a1,a1,804 # 1324 <.Lline_table_start1+0x10f9>
   1b4da:	958a                	add	a1,a1,sp
   1b4dc:	4635                	li	a2,13
   1b4de:	00002097          	auipc	ra,0x2
   1b4e2:	298080e7          	jalr	664(ra) # 1d776 <memcpy>
   1b4e6:	6505                	lui	a0,0x1
   1b4e8:	38050513          	addi	a0,a0,896 # 1380 <.Lline_table_start1+0x1155>
   1b4ec:	950a                	add	a0,a0,sp
   1b4ee:	6e010593          	addi	a1,sp,1760
   1b4f2:	ffffc097          	auipc	ra,0xffffc
   1b4f6:	85c080e7          	jalr	-1956(ra) # 16d4e <_ZN20complex_dynamic_type3app17hb0e909801105ef9eE>
   1b4fa:	3eca4503          	lbu	a0,1004(s4)
   1b4fe:	c119                	beqz	a0,1b504 <_start+0x1eb6>
   1b500:	1fe0206f          	j	1d6fe <_start+0x40b0>
   1b504:	3eea4503          	lbu	a0,1006(s4)
   1b508:	3eda4583          	lbu	a1,1005(s4)
   1b50c:	3efa4603          	lbu	a2,1007(s4)
   1b510:	3f0a2403          	lw	s0,1008(s4)
   1b514:	0522                	slli	a0,a0,0x8
   1b516:	8d4d                	or	a0,a0,a1
   1b518:	6ea11a23          	sh	a0,1780(sp)
   1b51c:	6ec10b23          	sb	a2,1782(sp)
   1b520:	6505                	lui	a0,0x1
   1b522:	38850513          	addi	a0,a0,904 # 1388 <.Lline_table_start1+0x115d>
   1b526:	00a105b3          	add	a1,sp,a0
   1b52a:	6505                	lui	a0,0x1
   1b52c:	32450513          	addi	a0,a0,804 # 1324 <.Lline_table_start1+0x10f9>
   1b530:	950a                	add	a0,a0,sp
   1b532:	02400613          	li	a2,36
   1b536:	00002097          	auipc	ra,0x2
   1b53a:	240080e7          	jalr	576(ra) # 1d776 <memcpy>
   1b53e:	01845513          	srli	a0,s0,0x18
   1b542:	01045593          	srli	a1,s0,0x10
   1b546:	00845613          	srli	a2,s0,0x8
   1b54a:	6e810ba3          	sb	s0,1783(sp)
   1b54e:	6ec10c23          	sb	a2,1784(sp)
   1b552:	6eb10ca3          	sb	a1,1785(sp)
   1b556:	6ea10d23          	sb	a0,1786(sp)
   1b55a:	6fb10513          	addi	a0,sp,1787
   1b55e:	6585                	lui	a1,0x1
   1b560:	32458593          	addi	a1,a1,804 # 1324 <.Lline_table_start1+0x10f9>
   1b564:	958a                	add	a1,a1,sp
   1b566:	02400613          	li	a2,36
   1b56a:	00002097          	auipc	ra,0x2
   1b56e:	20c080e7          	jalr	524(ra) # 1d776 <memcpy>
   1b572:	6505                	lui	a0,0x1
   1b574:	38050513          	addi	a0,a0,896 # 1380 <.Lline_table_start1+0x1155>
   1b578:	950a                	add	a0,a0,sp
   1b57a:	6f410593          	addi	a1,sp,1780
   1b57e:	ffff9097          	auipc	ra,0xffff9
   1b582:	458080e7          	jalr	1112(ra) # 149d6 <_ZN20complex_dynamic_type3app17h690bab216c26968aE>
   1b586:	3eca4503          	lbu	a0,1004(s4)
   1b58a:	c119                	beqz	a0,1b590 <_start+0x1f42>
   1b58c:	1720206f          	j	1d6fe <_start+0x40b0>
   1b590:	3eea4503          	lbu	a0,1006(s4)
   1b594:	3eda4583          	lbu	a1,1005(s4)
   1b598:	3efa4603          	lbu	a2,1007(s4)
   1b59c:	3f0a2403          	lw	s0,1008(s4)
   1b5a0:	0522                	slli	a0,a0,0x8
   1b5a2:	8d4d                	or	a0,a0,a1
   1b5a4:	72a11023          	sh	a0,1824(sp)
   1b5a8:	72c10123          	sb	a2,1826(sp)
   1b5ac:	6505                	lui	a0,0x1
   1b5ae:	38850513          	addi	a0,a0,904 # 1388 <.Lline_table_start1+0x115d>
   1b5b2:	00a105b3          	add	a1,sp,a0
   1b5b6:	6505                	lui	a0,0x1
   1b5b8:	32450513          	addi	a0,a0,804 # 1324 <.Lline_table_start1+0x10f9>
   1b5bc:	950a                	add	a0,a0,sp
   1b5be:	465d                	li	a2,23
   1b5c0:	00002097          	auipc	ra,0x2
   1b5c4:	1b6080e7          	jalr	438(ra) # 1d776 <memcpy>
   1b5c8:	01845513          	srli	a0,s0,0x18
   1b5cc:	01045593          	srli	a1,s0,0x10
   1b5d0:	00845613          	srli	a2,s0,0x8
   1b5d4:	728101a3          	sb	s0,1827(sp)
   1b5d8:	72c10223          	sb	a2,1828(sp)
   1b5dc:	72b102a3          	sb	a1,1829(sp)
   1b5e0:	72a10323          	sb	a0,1830(sp)
   1b5e4:	72710513          	addi	a0,sp,1831
   1b5e8:	6585                	lui	a1,0x1
   1b5ea:	32458593          	addi	a1,a1,804 # 1324 <.Lline_table_start1+0x10f9>
   1b5ee:	958a                	add	a1,a1,sp
   1b5f0:	465d                	li	a2,23
   1b5f2:	00002097          	auipc	ra,0x2
   1b5f6:	184080e7          	jalr	388(ra) # 1d776 <memcpy>
   1b5fa:	6505                	lui	a0,0x1
   1b5fc:	38050513          	addi	a0,a0,896 # 1380 <.Lline_table_start1+0x1155>
   1b600:	950a                	add	a0,a0,sp
   1b602:	72010593          	addi	a1,sp,1824
   1b606:	ffffc097          	auipc	ra,0xffffc
   1b60a:	8b2080e7          	jalr	-1870(ra) # 16eb8 <_ZN20complex_dynamic_type3app17hb10d2707b3fb6a70E>
   1b60e:	3eca4503          	lbu	a0,1004(s4)
   1b612:	c119                	beqz	a0,1b618 <_start+0x1fca>
   1b614:	0ea0206f          	j	1d6fe <_start+0x40b0>
   1b618:	3eea4503          	lbu	a0,1006(s4)
   1b61c:	3eda4583          	lbu	a1,1005(s4)
   1b620:	3efa4603          	lbu	a2,1007(s4)
   1b624:	3f0a2403          	lw	s0,1008(s4)
   1b628:	0522                	slli	a0,a0,0x8
   1b62a:	8d4d                	or	a0,a0,a1
   1b62c:	72a11f23          	sh	a0,1854(sp)
   1b630:	74c10023          	sb	a2,1856(sp)
   1b634:	6505                	lui	a0,0x1
   1b636:	38850513          	addi	a0,a0,904 # 1388 <.Lline_table_start1+0x115d>
   1b63a:	00a105b3          	add	a1,sp,a0
   1b63e:	6505                	lui	a0,0x1
   1b640:	32450513          	addi	a0,a0,804 # 1324 <.Lline_table_start1+0x10f9>
   1b644:	950a                	add	a0,a0,sp
   1b646:	04a00613          	li	a2,74
   1b64a:	00002097          	auipc	ra,0x2
   1b64e:	12c080e7          	jalr	300(ra) # 1d776 <memcpy>
   1b652:	01845513          	srli	a0,s0,0x18
   1b656:	01045593          	srli	a1,s0,0x10
   1b65a:	00845613          	srli	a2,s0,0x8
   1b65e:	748100a3          	sb	s0,1857(sp)
   1b662:	74c10123          	sb	a2,1858(sp)
   1b666:	74b101a3          	sb	a1,1859(sp)
   1b66a:	74a10223          	sb	a0,1860(sp)
   1b66e:	74510513          	addi	a0,sp,1861
   1b672:	6585                	lui	a1,0x1
   1b674:	32458593          	addi	a1,a1,804 # 1324 <.Lline_table_start1+0x10f9>
   1b678:	958a                	add	a1,a1,sp
   1b67a:	04a00613          	li	a2,74
   1b67e:	00002097          	auipc	ra,0x2
   1b682:	0f8080e7          	jalr	248(ra) # 1d776 <memcpy>
   1b686:	6505                	lui	a0,0x1
   1b688:	38050513          	addi	a0,a0,896 # 1380 <.Lline_table_start1+0x1155>
   1b68c:	950a                	add	a0,a0,sp
   1b68e:	73e10593          	addi	a1,sp,1854
   1b692:	ffffd097          	auipc	ra,0xffffd
   1b696:	c00080e7          	jalr	-1024(ra) # 18292 <_ZN20complex_dynamic_type3app17hd9441c7b2559392dE>
   1b69a:	3eca4503          	lbu	a0,1004(s4)
   1b69e:	c119                	beqz	a0,1b6a4 <_start+0x2056>
   1b6a0:	05e0206f          	j	1d6fe <_start+0x40b0>
   1b6a4:	79210413          	addi	s0,sp,1938
   1b6a8:	3eda4303          	lbu	t1,1005(s4)
   1b6ac:	3eea4583          	lbu	a1,1006(s4)
   1b6b0:	3efa4803          	lbu	a6,1007(s4)
   1b6b4:	3f0a2683          	lw	a3,1008(s4)
   1b6b8:	3f4a2703          	lw	a4,1012(s4)
   1b6bc:	3f8a2783          	lw	a5,1016(s4)
   1b6c0:	05a2                	slli	a1,a1,0x8
   1b6c2:	0186d893          	srli	a7,a3,0x18
   1b6c6:	0106d293          	srli	t0,a3,0x10
   1b6ca:	0187d493          	srli	s1,a5,0x18
   1b6ce:	0107d613          	srli	a2,a5,0x10
   1b6d2:	0087d513          	srli	a0,a5,0x8
   1b6d6:	0065e333          	or	t1,a1,t1
   1b6da:	01875593          	srli	a1,a4,0x18
   1b6de:	00c405a3          	sb	a2,11(s0)
   1b6e2:	00940623          	sb	s1,12(s0)
   1b6e6:	01075613          	srli	a2,a4,0x10
   1b6ea:	00c403a3          	sb	a2,7(s0)
   1b6ee:	00b40423          	sb	a1,8(s0)
   1b6f2:	00f404a3          	sb	a5,9(s0)
   1b6f6:	00a40523          	sb	a0,10(s0)
   1b6fa:	0086d513          	srli	a0,a3,0x8
   1b6fe:	fe641f23          	sh	t1,-2(s0)
   1b702:	01040023          	sb	a6,0(s0)
   1b706:	00d400a3          	sb	a3,1(s0)
   1b70a:	00a40123          	sb	a0,2(s0)
   1b70e:	00875513          	srli	a0,a4,0x8
   1b712:	005401a3          	sb	t0,3(s0)
   1b716:	01140223          	sb	a7,4(s0)
   1b71a:	00e402a3          	sb	a4,5(s0)
   1b71e:	00a40323          	sb	a0,6(s0)
   1b722:	6505                	lui	a0,0x1
   1b724:	38050513          	addi	a0,a0,896 # 1380 <.Lline_table_start1+0x1155>
   1b728:	950a                	add	a0,a0,sp
   1b72a:	79010593          	addi	a1,sp,1936
   1b72e:	ffff9097          	auipc	ra,0xffff9
   1b732:	a2a080e7          	jalr	-1494(ra) # 14158 <_ZN20complex_dynamic_type3app17h5bc85bd7bf8ebce8E>
   1b736:	3eca4503          	lbu	a0,1004(s4)
   1b73a:	c119                	beqz	a0,1b740 <_start+0x20f2>
   1b73c:	7c30106f          	j	1d6fe <_start+0x40b0>
   1b740:	3eea4503          	lbu	a0,1006(s4)
   1b744:	3eda4583          	lbu	a1,1005(s4)
   1b748:	3efa4603          	lbu	a2,1007(s4)
   1b74c:	3f0a2483          	lw	s1,1008(s4)
   1b750:	0522                	slli	a0,a0,0x8
   1b752:	8d4d                	or	a0,a0,a1
   1b754:	00a41723          	sh	a0,14(s0)
   1b758:	00c40823          	sb	a2,16(s0)
   1b75c:	6505                	lui	a0,0x1
   1b75e:	38850513          	addi	a0,a0,904 # 1388 <.Lline_table_start1+0x115d>
   1b762:	00a105b3          	add	a1,sp,a0
   1b766:	6505                	lui	a0,0x1
   1b768:	32450513          	addi	a0,a0,804 # 1324 <.Lline_table_start1+0x10f9>
   1b76c:	950a                	add	a0,a0,sp
   1b76e:	03f00613          	li	a2,63
   1b772:	00002097          	auipc	ra,0x2
   1b776:	004080e7          	jalr	4(ra) # 1d776 <memcpy>
   1b77a:	0184d513          	srli	a0,s1,0x18
   1b77e:	0104d593          	srli	a1,s1,0x10
   1b782:	0084d613          	srli	a2,s1,0x8
   1b786:	009408a3          	sb	s1,17(s0)
   1b78a:	00c40923          	sb	a2,18(s0)
   1b78e:	00b409a3          	sb	a1,19(s0)
   1b792:	00a40a23          	sb	a0,20(s0)
   1b796:	7a710513          	addi	a0,sp,1959
   1b79a:	6585                	lui	a1,0x1
   1b79c:	32458593          	addi	a1,a1,804 # 1324 <.Lline_table_start1+0x10f9>
   1b7a0:	958a                	add	a1,a1,sp
   1b7a2:	03f00613          	li	a2,63
   1b7a6:	00002097          	auipc	ra,0x2
   1b7aa:	fd0080e7          	jalr	-48(ra) # 1d776 <memcpy>
   1b7ae:	6505                	lui	a0,0x1
   1b7b0:	38050513          	addi	a0,a0,896 # 1380 <.Lline_table_start1+0x1155>
   1b7b4:	950a                	add	a0,a0,sp
   1b7b6:	7a010593          	addi	a1,sp,1952
   1b7ba:	ffffb097          	auipc	ra,0xffffb
   1b7be:	424080e7          	jalr	1060(ra) # 16bde <_ZN20complex_dynamic_type3app17hb0b1ce9b4aeff773E>
   1b7c2:	3eca4503          	lbu	a0,1004(s4)
   1b7c6:	c119                	beqz	a0,1b7cc <_start+0x217e>
   1b7c8:	7370106f          	j	1d6fe <_start+0x40b0>
   1b7cc:	3eea4503          	lbu	a0,1006(s4)
   1b7d0:	3eda4583          	lbu	a1,1005(s4)
   1b7d4:	3efa4603          	lbu	a2,1007(s4)
   1b7d8:	3f0a2483          	lw	s1,1008(s4)
   1b7dc:	0522                	slli	a0,a0,0x8
   1b7de:	8d4d                	or	a0,a0,a1
   1b7e0:	04a41a23          	sh	a0,84(s0)
   1b7e4:	04c40b23          	sb	a2,86(s0)
   1b7e8:	6505                	lui	a0,0x1
   1b7ea:	38850513          	addi	a0,a0,904 # 1388 <.Lline_table_start1+0x115d>
   1b7ee:	00a105b3          	add	a1,sp,a0
   1b7f2:	6505                	lui	a0,0x1
   1b7f4:	32450513          	addi	a0,a0,804 # 1324 <.Lline_table_start1+0x10f9>
   1b7f8:	950a                	add	a0,a0,sp
   1b7fa:	04f00613          	li	a2,79
   1b7fe:	00002097          	auipc	ra,0x2
   1b802:	f78080e7          	jalr	-136(ra) # 1d776 <memcpy>
   1b806:	0184d513          	srli	a0,s1,0x18
   1b80a:	0104d593          	srli	a1,s1,0x10
   1b80e:	0084d613          	srli	a2,s1,0x8
   1b812:	04940ba3          	sb	s1,87(s0)
   1b816:	04c40c23          	sb	a2,88(s0)
   1b81a:	04b40ca3          	sb	a1,89(s0)
   1b81e:	04a40d23          	sb	a0,90(s0)
   1b822:	7ed10513          	addi	a0,sp,2029
   1b826:	6585                	lui	a1,0x1
   1b828:	32458593          	addi	a1,a1,804 # 1324 <.Lline_table_start1+0x10f9>
   1b82c:	958a                	add	a1,a1,sp
   1b82e:	04f00613          	li	a2,79
   1b832:	00002097          	auipc	ra,0x2
   1b836:	f44080e7          	jalr	-188(ra) # 1d776 <memcpy>
   1b83a:	6505                	lui	a0,0x1
   1b83c:	38050513          	addi	a0,a0,896 # 1380 <.Lline_table_start1+0x1155>
   1b840:	950a                	add	a0,a0,sp
   1b842:	7e610593          	addi	a1,sp,2022
   1b846:	ffffe097          	auipc	ra,0xffffe
   1b84a:	9be080e7          	jalr	-1602(ra) # 19204 <_ZN20complex_dynamic_type3app17hfaefbf54b3374200E>
   1b84e:	3eca4503          	lbu	a0,1004(s4)
   1b852:	c119                	beqz	a0,1b858 <_start+0x220a>
   1b854:	6ab0106f          	j	1d6fe <_start+0x40b0>
   1b858:	3eea4503          	lbu	a0,1006(s4)
   1b85c:	3eda4583          	lbu	a1,1005(s4)
   1b860:	3efa4603          	lbu	a2,1007(s4)
   1b864:	3f0a2483          	lw	s1,1008(s4)
   1b868:	0522                	slli	a0,a0,0x8
   1b86a:	8d4d                	or	a0,a0,a1
   1b86c:	0aa41523          	sh	a0,170(s0)
   1b870:	0ac40623          	sb	a2,172(s0)
   1b874:	6505                	lui	a0,0x1
   1b876:	38850513          	addi	a0,a0,904 # 1388 <.Lline_table_start1+0x115d>
   1b87a:	00a105b3          	add	a1,sp,a0
   1b87e:	6505                	lui	a0,0x1
   1b880:	32450513          	addi	a0,a0,804 # 1324 <.Lline_table_start1+0x10f9>
   1b884:	950a                	add	a0,a0,sp
   1b886:	04200613          	li	a2,66
   1b88a:	00002097          	auipc	ra,0x2
   1b88e:	eec080e7          	jalr	-276(ra) # 1d776 <memcpy>
   1b892:	0184d513          	srli	a0,s1,0x18
   1b896:	0104d593          	srli	a1,s1,0x10
   1b89a:	0084d613          	srli	a2,s1,0x8
   1b89e:	0a9406a3          	sb	s1,173(s0)
   1b8a2:	0ac40723          	sb	a2,174(s0)
   1b8a6:	0ab407a3          	sb	a1,175(s0)
   1b8aa:	0aa40823          	sb	a0,176(s0)
   1b8ae:	7ff10513          	addi	a0,sp,2047
   1b8b2:	04450513          	addi	a0,a0,68
   1b8b6:	6585                	lui	a1,0x1
   1b8b8:	32458593          	addi	a1,a1,804 # 1324 <.Lline_table_start1+0x10f9>
   1b8bc:	958a                	add	a1,a1,sp
   1b8be:	04200613          	li	a2,66
   1b8c2:	00002097          	auipc	ra,0x2
   1b8c6:	eb4080e7          	jalr	-332(ra) # 1d776 <memcpy>
   1b8ca:	6505                	lui	a0,0x1
   1b8cc:	38050513          	addi	a0,a0,896 # 1380 <.Lline_table_start1+0x1155>
   1b8d0:	950a                	add	a0,a0,sp
   1b8d2:	7ff10593          	addi	a1,sp,2047
   1b8d6:	03d58593          	addi	a1,a1,61
   1b8da:	ffffb097          	auipc	ra,0xffffb
   1b8de:	ebc080e7          	jalr	-324(ra) # 16796 <_ZN20complex_dynamic_type3app17ha06119d262f4dc4fE>
   1b8e2:	3eca4503          	lbu	a0,1004(s4)
   1b8e6:	c119                	beqz	a0,1b8ec <_start+0x229e>
   1b8e8:	6170106f          	j	1d6fe <_start+0x40b0>
   1b8ec:	3eea4503          	lbu	a0,1006(s4)
   1b8f0:	3eda4583          	lbu	a1,1005(s4)
   1b8f4:	3efa4603          	lbu	a2,1007(s4)
   1b8f8:	3f0a2483          	lw	s1,1008(s4)
   1b8fc:	0522                	slli	a0,a0,0x8
   1b8fe:	8d4d                	or	a0,a0,a1
   1b900:	0ea41a23          	sh	a0,244(s0)
   1b904:	0ec40b23          	sb	a2,246(s0)
   1b908:	6505                	lui	a0,0x1
   1b90a:	38850513          	addi	a0,a0,904 # 1388 <.Lline_table_start1+0x115d>
   1b90e:	00a105b3          	add	a1,sp,a0
   1b912:	6505                	lui	a0,0x1
   1b914:	32450513          	addi	a0,a0,804 # 1324 <.Lline_table_start1+0x10f9>
   1b918:	950a                	add	a0,a0,sp
   1b91a:	4671                	li	a2,28
   1b91c:	00002097          	auipc	ra,0x2
   1b920:	e5a080e7          	jalr	-422(ra) # 1d776 <memcpy>
   1b924:	0184d513          	srli	a0,s1,0x18
   1b928:	0104d593          	srli	a1,s1,0x10
   1b92c:	0084d613          	srli	a2,s1,0x8
   1b930:	0e940ba3          	sb	s1,247(s0)
   1b934:	0ec40c23          	sb	a2,248(s0)
   1b938:	0eb40ca3          	sb	a1,249(s0)
   1b93c:	0ea40d23          	sb	a0,250(s0)
   1b940:	7ff10513          	addi	a0,sp,2047
   1b944:	08e50513          	addi	a0,a0,142
   1b948:	6585                	lui	a1,0x1
   1b94a:	32458593          	addi	a1,a1,804 # 1324 <.Lline_table_start1+0x10f9>
   1b94e:	958a                	add	a1,a1,sp
   1b950:	4671                	li	a2,28
   1b952:	00002097          	auipc	ra,0x2
   1b956:	e24080e7          	jalr	-476(ra) # 1d776 <memcpy>
   1b95a:	6505                	lui	a0,0x1
   1b95c:	38050513          	addi	a0,a0,896 # 1380 <.Lline_table_start1+0x1155>
   1b960:	950a                	add	a0,a0,sp
   1b962:	7ff10593          	addi	a1,sp,2047
   1b966:	08758593          	addi	a1,a1,135
   1b96a:	ffffa097          	auipc	ra,0xffffa
   1b96e:	152080e7          	jalr	338(ra) # 15abc <_ZN20complex_dynamic_type3app17h8f63435f67689c9dE>
   1b972:	3eca4503          	lbu	a0,1004(s4)
   1b976:	c119                	beqz	a0,1b97c <_start+0x232e>
   1b978:	5870106f          	j	1d6fe <_start+0x40b0>
   1b97c:	3eea4503          	lbu	a0,1006(s4)
   1b980:	3eda4583          	lbu	a1,1005(s4)
   1b984:	3efa4603          	lbu	a2,1007(s4)
   1b988:	3f0a2483          	lw	s1,1008(s4)
   1b98c:	0522                	slli	a0,a0,0x8
   1b98e:	8d4d                	or	a0,a0,a1
   1b990:	10a41c23          	sh	a0,280(s0)
   1b994:	10c40d23          	sb	a2,282(s0)
   1b998:	6505                	lui	a0,0x1
   1b99a:	38850513          	addi	a0,a0,904 # 1388 <.Lline_table_start1+0x115d>
   1b99e:	00a105b3          	add	a1,sp,a0
   1b9a2:	6505                	lui	a0,0x1
   1b9a4:	32450513          	addi	a0,a0,804 # 1324 <.Lline_table_start1+0x10f9>
   1b9a8:	950a                	add	a0,a0,sp
   1b9aa:	02400613          	li	a2,36
   1b9ae:	00002097          	auipc	ra,0x2
   1b9b2:	dc8080e7          	jalr	-568(ra) # 1d776 <memcpy>
   1b9b6:	0184d513          	srli	a0,s1,0x18
   1b9ba:	0104d593          	srli	a1,s1,0x10
   1b9be:	0084d613          	srli	a2,s1,0x8
   1b9c2:	10940da3          	sb	s1,283(s0)
   1b9c6:	10c40e23          	sb	a2,284(s0)
   1b9ca:	10b40ea3          	sb	a1,285(s0)
   1b9ce:	10a40f23          	sb	a0,286(s0)
   1b9d2:	7ff10513          	addi	a0,sp,2047
   1b9d6:	0b250513          	addi	a0,a0,178
   1b9da:	6585                	lui	a1,0x1
   1b9dc:	32458593          	addi	a1,a1,804 # 1324 <.Lline_table_start1+0x10f9>
   1b9e0:	958a                	add	a1,a1,sp
   1b9e2:	02400613          	li	a2,36
   1b9e6:	00002097          	auipc	ra,0x2
   1b9ea:	d90080e7          	jalr	-624(ra) # 1d776 <memcpy>
   1b9ee:	6505                	lui	a0,0x1
   1b9f0:	38050513          	addi	a0,a0,896 # 1380 <.Lline_table_start1+0x1155>
   1b9f4:	950a                	add	a0,a0,sp
   1b9f6:	7ff10593          	addi	a1,sp,2047
   1b9fa:	0ab58593          	addi	a1,a1,171
   1b9fe:	ffff9097          	auipc	ra,0xffff9
   1ba02:	d16080e7          	jalr	-746(ra) # 14714 <_ZN20complex_dynamic_type3app17h67d789e02ef9c375E>
   1ba06:	3eca4503          	lbu	a0,1004(s4)
   1ba0a:	c119                	beqz	a0,1ba10 <_start+0x23c2>
   1ba0c:	4f30106f          	j	1d6fe <_start+0x40b0>
   1ba10:	3eda4503          	lbu	a0,1005(s4)
   1ba14:	3eea4583          	lbu	a1,1006(s4)
   1ba18:	3f4a2603          	lw	a2,1012(s4)
   1ba1c:	3f8a1683          	lh	a3,1016(s4)
   1ba20:	3efa4703          	lbu	a4,1007(s4)
   1ba24:	3f0a2783          	lw	a5,1008(s4)
   1ba28:	05a2                	slli	a1,a1,0x8
   1ba2a:	38ca2823          	sw	a2,912(s4)
   1ba2e:	38da1a23          	sh	a3,916(s4)
   1ba32:	0187d613          	srli	a2,a5,0x18
   1ba36:	8d4d                	or	a0,a0,a1
   1ba38:	0107d593          	srli	a1,a5,0x10
   1ba3c:	14b404a3          	sb	a1,329(s0)
   1ba40:	14c40523          	sb	a2,330(s0)
   1ba44:	0087d593          	srli	a1,a5,0x8
   1ba48:	14a41223          	sh	a0,324(s0)
   1ba4c:	14e40323          	sb	a4,326(s0)
   1ba50:	14f403a3          	sb	a5,327(s0)
   1ba54:	14b40423          	sb	a1,328(s0)
   1ba58:	7ff10513          	addi	a0,sp,2047
   1ba5c:	0de50513          	addi	a0,a0,222
   1ba60:	6585                	lui	a1,0x1
   1ba62:	32458593          	addi	a1,a1,804 # 1324 <.Lline_table_start1+0x10f9>
   1ba66:	958a                	add	a1,a1,sp
   1ba68:	4619                	li	a2,6
   1ba6a:	00002097          	auipc	ra,0x2
   1ba6e:	d0c080e7          	jalr	-756(ra) # 1d776 <memcpy>
   1ba72:	6505                	lui	a0,0x1
   1ba74:	38050513          	addi	a0,a0,896 # 1380 <.Lline_table_start1+0x1155>
   1ba78:	950a                	add	a0,a0,sp
   1ba7a:	7ff10593          	addi	a1,sp,2047
   1ba7e:	0d758593          	addi	a1,a1,215
   1ba82:	ffffb097          	auipc	ra,0xffffb
   1ba86:	a38080e7          	jalr	-1480(ra) # 164ba <_ZN20complex_dynamic_type3app17h9ad9e8b477049c7bE>
   1ba8a:	3eca4503          	lbu	a0,1004(s4)
   1ba8e:	c119                	beqz	a0,1ba94 <_start+0x2446>
   1ba90:	46f0106f          	j	1d6fe <_start+0x40b0>
   1ba94:	3eea4503          	lbu	a0,1006(s4)
   1ba98:	3eda4583          	lbu	a1,1005(s4)
   1ba9c:	3efa4603          	lbu	a2,1007(s4)
   1baa0:	3f0a2483          	lw	s1,1008(s4)
   1baa4:	0522                	slli	a0,a0,0x8
   1baa6:	8d4d                	or	a0,a0,a1
   1baa8:	14a41923          	sh	a0,338(s0)
   1baac:	14c40a23          	sb	a2,340(s0)
   1bab0:	6505                	lui	a0,0x1
   1bab2:	38850513          	addi	a0,a0,904 # 1388 <.Lline_table_start1+0x115d>
   1bab6:	00a105b3          	add	a1,sp,a0
   1baba:	6505                	lui	a0,0x1
   1babc:	32450513          	addi	a0,a0,804 # 1324 <.Lline_table_start1+0x10f9>
   1bac0:	950a                	add	a0,a0,sp
   1bac2:	4669                	li	a2,26
   1bac4:	00002097          	auipc	ra,0x2
   1bac8:	cb2080e7          	jalr	-846(ra) # 1d776 <memcpy>
   1bacc:	0184d513          	srli	a0,s1,0x18
   1bad0:	0104d593          	srli	a1,s1,0x10
   1bad4:	0084d613          	srli	a2,s1,0x8
   1bad8:	14940aa3          	sb	s1,341(s0)
   1badc:	14c40b23          	sb	a2,342(s0)
   1bae0:	14b40ba3          	sb	a1,343(s0)
   1bae4:	14a40c23          	sb	a0,344(s0)
   1bae8:	7ff10513          	addi	a0,sp,2047
   1baec:	0ec50513          	addi	a0,a0,236
   1baf0:	6585                	lui	a1,0x1
   1baf2:	32458593          	addi	a1,a1,804 # 1324 <.Lline_table_start1+0x10f9>
   1baf6:	958a                	add	a1,a1,sp
   1baf8:	4669                	li	a2,26
   1bafa:	00002097          	auipc	ra,0x2
   1bafe:	c7c080e7          	jalr	-900(ra) # 1d776 <memcpy>
   1bb02:	6505                	lui	a0,0x1
   1bb04:	38050513          	addi	a0,a0,896 # 1380 <.Lline_table_start1+0x1155>
   1bb08:	950a                	add	a0,a0,sp
   1bb0a:	7ff10593          	addi	a1,sp,2047
   1bb0e:	0e558593          	addi	a1,a1,229
   1bb12:	ffff8097          	auipc	ra,0xffff8
   1bb16:	7b2080e7          	jalr	1970(ra) # 142c4 <_ZN20complex_dynamic_type3app17h5db2622679869037E>
   1bb1a:	3eca4503          	lbu	a0,1004(s4)
   1bb1e:	c119                	beqz	a0,1bb24 <_start+0x24d6>
   1bb20:	3df0106f          	j	1d6fe <_start+0x40b0>
   1bb24:	3eea4503          	lbu	a0,1006(s4)
   1bb28:	3eda4583          	lbu	a1,1005(s4)
   1bb2c:	3efa4603          	lbu	a2,1007(s4)
   1bb30:	3f0a2483          	lw	s1,1008(s4)
   1bb34:	0522                	slli	a0,a0,0x8
   1bb36:	8d4d                	or	a0,a0,a1
   1bb38:	16a41a23          	sh	a0,372(s0)
   1bb3c:	16c40b23          	sb	a2,374(s0)
   1bb40:	6505                	lui	a0,0x1
   1bb42:	38850513          	addi	a0,a0,904 # 1388 <.Lline_table_start1+0x115d>
   1bb46:	00a105b3          	add	a1,sp,a0
   1bb4a:	6505                	lui	a0,0x1
   1bb4c:	32450513          	addi	a0,a0,804 # 1324 <.Lline_table_start1+0x10f9>
   1bb50:	950a                	add	a0,a0,sp
   1bb52:	04c00613          	li	a2,76
   1bb56:	00002097          	auipc	ra,0x2
   1bb5a:	c20080e7          	jalr	-992(ra) # 1d776 <memcpy>
   1bb5e:	0184d513          	srli	a0,s1,0x18
   1bb62:	0104d593          	srli	a1,s1,0x10
   1bb66:	0084d613          	srli	a2,s1,0x8
   1bb6a:	16940ba3          	sb	s1,375(s0)
   1bb6e:	16c40c23          	sb	a2,376(s0)
   1bb72:	16b40ca3          	sb	a1,377(s0)
   1bb76:	16a40d23          	sb	a0,378(s0)
   1bb7a:	7ff10513          	addi	a0,sp,2047
   1bb7e:	10e50513          	addi	a0,a0,270
   1bb82:	6585                	lui	a1,0x1
   1bb84:	32458593          	addi	a1,a1,804 # 1324 <.Lline_table_start1+0x10f9>
   1bb88:	958a                	add	a1,a1,sp
   1bb8a:	04c00613          	li	a2,76
   1bb8e:	00002097          	auipc	ra,0x2
   1bb92:	be8080e7          	jalr	-1048(ra) # 1d776 <memcpy>
   1bb96:	6505                	lui	a0,0x1
   1bb98:	38050513          	addi	a0,a0,896 # 1380 <.Lline_table_start1+0x1155>
   1bb9c:	950a                	add	a0,a0,sp
   1bb9e:	7ff10593          	addi	a1,sp,2047
   1bba2:	10758593          	addi	a1,a1,263
   1bba6:	ffffa097          	auipc	ra,0xffffa
   1bbaa:	ac6080e7          	jalr	-1338(ra) # 1566c <_ZN20complex_dynamic_type3app17h8933c5a4038717b6E>
   1bbae:	3eca4503          	lbu	a0,1004(s4)
   1bbb2:	c119                	beqz	a0,1bbb8 <_start+0x256a>
   1bbb4:	34b0106f          	j	1d6fe <_start+0x40b0>
   1bbb8:	3eea4503          	lbu	a0,1006(s4)
   1bbbc:	3eda4583          	lbu	a1,1005(s4)
   1bbc0:	3efa4603          	lbu	a2,1007(s4)
   1bbc4:	3f0a2483          	lw	s1,1008(s4)
   1bbc8:	0522                	slli	a0,a0,0x8
   1bbca:	8d4d                	or	a0,a0,a1
   1bbcc:	1ca41423          	sh	a0,456(s0)
   1bbd0:	1cc40523          	sb	a2,458(s0)
   1bbd4:	6505                	lui	a0,0x1
   1bbd6:	38850513          	addi	a0,a0,904 # 1388 <.Lline_table_start1+0x115d>
   1bbda:	00a105b3          	add	a1,sp,a0
   1bbde:	6505                	lui	a0,0x1
   1bbe0:	32450513          	addi	a0,a0,804 # 1324 <.Lline_table_start1+0x10f9>
   1bbe4:	950a                	add	a0,a0,sp
   1bbe6:	04600613          	li	a2,70
   1bbea:	00002097          	auipc	ra,0x2
   1bbee:	b8c080e7          	jalr	-1140(ra) # 1d776 <memcpy>
   1bbf2:	0184d513          	srli	a0,s1,0x18
   1bbf6:	0104d593          	srli	a1,s1,0x10
   1bbfa:	0084d613          	srli	a2,s1,0x8
   1bbfe:	1c9405a3          	sb	s1,459(s0)
   1bc02:	1cc40623          	sb	a2,460(s0)
   1bc06:	1cb406a3          	sb	a1,461(s0)
   1bc0a:	1ca40723          	sb	a0,462(s0)
   1bc0e:	7ff10513          	addi	a0,sp,2047
   1bc12:	16250513          	addi	a0,a0,354
   1bc16:	6585                	lui	a1,0x1
   1bc18:	32458593          	addi	a1,a1,804 # 1324 <.Lline_table_start1+0x10f9>
   1bc1c:	958a                	add	a1,a1,sp
   1bc1e:	04600613          	li	a2,70
   1bc22:	00002097          	auipc	ra,0x2
   1bc26:	b54080e7          	jalr	-1196(ra) # 1d776 <memcpy>
   1bc2a:	6505                	lui	a0,0x1
   1bc2c:	38050513          	addi	a0,a0,896 # 1380 <.Lline_table_start1+0x1155>
   1bc30:	950a                	add	a0,a0,sp
   1bc32:	7ff10593          	addi	a1,sp,2047
   1bc36:	15b58593          	addi	a1,a1,347
   1bc3a:	ffff8097          	auipc	ra,0xffff8
   1bc3e:	7fa080e7          	jalr	2042(ra) # 14434 <_ZN20complex_dynamic_type3app17h5f28e04962ea37f7E>
   1bc42:	3eca4503          	lbu	a0,1004(s4)
   1bc46:	c119                	beqz	a0,1bc4c <_start+0x25fe>
   1bc48:	2b70106f          	j	1d6fe <_start+0x40b0>
   1bc4c:	3eea4503          	lbu	a0,1006(s4)
   1bc50:	3eda4583          	lbu	a1,1005(s4)
   1bc54:	3efa4603          	lbu	a2,1007(s4)
   1bc58:	3f0a2483          	lw	s1,1008(s4)
   1bc5c:	0522                	slli	a0,a0,0x8
   1bc5e:	8d4d                	or	a0,a0,a1
   1bc60:	20a41b23          	sh	a0,534(s0)
   1bc64:	20c40c23          	sb	a2,536(s0)
   1bc68:	6505                	lui	a0,0x1
   1bc6a:	38850513          	addi	a0,a0,904 # 1388 <.Lline_table_start1+0x115d>
   1bc6e:	00a105b3          	add	a1,sp,a0
   1bc72:	6505                	lui	a0,0x1
   1bc74:	32450513          	addi	a0,a0,804 # 1324 <.Lline_table_start1+0x10f9>
   1bc78:	950a                	add	a0,a0,sp
   1bc7a:	03500613          	li	a2,53
   1bc7e:	00002097          	auipc	ra,0x2
   1bc82:	af8080e7          	jalr	-1288(ra) # 1d776 <memcpy>
   1bc86:	0184d513          	srli	a0,s1,0x18
   1bc8a:	0104d593          	srli	a1,s1,0x10
   1bc8e:	0084d613          	srli	a2,s1,0x8
   1bc92:	20940ca3          	sb	s1,537(s0)
   1bc96:	20c40d23          	sb	a2,538(s0)
   1bc9a:	20b40da3          	sb	a1,539(s0)
   1bc9e:	20a40e23          	sb	a0,540(s0)
   1bca2:	7ff10513          	addi	a0,sp,2047
   1bca6:	1b050513          	addi	a0,a0,432
   1bcaa:	6585                	lui	a1,0x1
   1bcac:	32458593          	addi	a1,a1,804 # 1324 <.Lline_table_start1+0x10f9>
   1bcb0:	958a                	add	a1,a1,sp
   1bcb2:	03500613          	li	a2,53
   1bcb6:	00002097          	auipc	ra,0x2
   1bcba:	ac0080e7          	jalr	-1344(ra) # 1d776 <memcpy>
   1bcbe:	6505                	lui	a0,0x1
   1bcc0:	38050513          	addi	a0,a0,896 # 1380 <.Lline_table_start1+0x1155>
   1bcc4:	950a                	add	a0,a0,sp
   1bcc6:	7ff10593          	addi	a1,sp,2047
   1bcca:	1a958593          	addi	a1,a1,425
   1bcce:	ffffc097          	auipc	ra,0xffffc
   1bcd2:	016080e7          	jalr	22(ra) # 17ce4 <_ZN20complex_dynamic_type3app17hc54ca33a7769714fE>
   1bcd6:	3eca4503          	lbu	a0,1004(s4)
   1bcda:	c119                	beqz	a0,1bce0 <_start+0x2692>
   1bcdc:	2230106f          	j	1d6fe <_start+0x40b0>
   1bce0:	3eea4503          	lbu	a0,1006(s4)
   1bce4:	3eda4583          	lbu	a1,1005(s4)
   1bce8:	3efa4603          	lbu	a2,1007(s4)
   1bcec:	3f0a2483          	lw	s1,1008(s4)
   1bcf0:	0522                	slli	a0,a0,0x8
   1bcf2:	8d4d                	or	a0,a0,a1
   1bcf4:	24a41923          	sh	a0,594(s0)
   1bcf8:	24c40a23          	sb	a2,596(s0)
   1bcfc:	6505                	lui	a0,0x1
   1bcfe:	38850513          	addi	a0,a0,904 # 1388 <.Lline_table_start1+0x115d>
   1bd02:	00a105b3          	add	a1,sp,a0
   1bd06:	6505                	lui	a0,0x1
   1bd08:	32450513          	addi	a0,a0,804 # 1324 <.Lline_table_start1+0x10f9>
   1bd0c:	950a                	add	a0,a0,sp
   1bd0e:	03100613          	li	a2,49
   1bd12:	00002097          	auipc	ra,0x2
   1bd16:	a64080e7          	jalr	-1436(ra) # 1d776 <memcpy>
   1bd1a:	0184d513          	srli	a0,s1,0x18
   1bd1e:	0104d593          	srli	a1,s1,0x10
   1bd22:	0084d613          	srli	a2,s1,0x8
   1bd26:	24940aa3          	sb	s1,597(s0)
   1bd2a:	24c40b23          	sb	a2,598(s0)
   1bd2e:	24b40ba3          	sb	a1,599(s0)
   1bd32:	24a40c23          	sb	a0,600(s0)
   1bd36:	7ff10513          	addi	a0,sp,2047
   1bd3a:	1ec50513          	addi	a0,a0,492
   1bd3e:	6585                	lui	a1,0x1
   1bd40:	32458593          	addi	a1,a1,804 # 1324 <.Lline_table_start1+0x10f9>
   1bd44:	958a                	add	a1,a1,sp
   1bd46:	03100613          	li	a2,49
   1bd4a:	00002097          	auipc	ra,0x2
   1bd4e:	a2c080e7          	jalr	-1492(ra) # 1d776 <memcpy>
   1bd52:	6505                	lui	a0,0x1
   1bd54:	38050513          	addi	a0,a0,896 # 1380 <.Lline_table_start1+0x1155>
   1bd58:	950a                	add	a0,a0,sp
   1bd5a:	7ff10593          	addi	a1,sp,2047
   1bd5e:	1e558593          	addi	a1,a1,485
   1bd62:	ffff6097          	auipc	ra,0xffff6
   1bd66:	ae6080e7          	jalr	-1306(ra) # 11848 <_ZN20complex_dynamic_type3app17h0cc516f35784d504E>
   1bd6a:	3eca4503          	lbu	a0,1004(s4)
   1bd6e:	c119                	beqz	a0,1bd74 <_start+0x2726>
   1bd70:	18f0106f          	j	1d6fe <_start+0x40b0>
   1bd74:	3eea4503          	lbu	a0,1006(s4)
   1bd78:	3eda4583          	lbu	a1,1005(s4)
   1bd7c:	3efa4603          	lbu	a2,1007(s4)
   1bd80:	3f0a2483          	lw	s1,1008(s4)
   1bd84:	0522                	slli	a0,a0,0x8
   1bd86:	8d4d                	or	a0,a0,a1
   1bd88:	28a41523          	sh	a0,650(s0)
   1bd8c:	28c40623          	sb	a2,652(s0)
   1bd90:	6505                	lui	a0,0x1
   1bd92:	38850513          	addi	a0,a0,904 # 1388 <.Lline_table_start1+0x115d>
   1bd96:	00a105b3          	add	a1,sp,a0
   1bd9a:	6505                	lui	a0,0x1
   1bd9c:	32450513          	addi	a0,a0,804 # 1324 <.Lline_table_start1+0x10f9>
   1bda0:	950a                	add	a0,a0,sp
   1bda2:	02000613          	li	a2,32
   1bda6:	00002097          	auipc	ra,0x2
   1bdaa:	9d0080e7          	jalr	-1584(ra) # 1d776 <memcpy>
   1bdae:	0184d513          	srli	a0,s1,0x18
   1bdb2:	0104d593          	srli	a1,s1,0x10
   1bdb6:	0084d613          	srli	a2,s1,0x8
   1bdba:	289406a3          	sb	s1,653(s0)
   1bdbe:	28c40723          	sb	a2,654(s0)
   1bdc2:	28b407a3          	sb	a1,655(s0)
   1bdc6:	28a40823          	sb	a0,656(s0)
   1bdca:	7ff10513          	addi	a0,sp,2047
   1bdce:	22450513          	addi	a0,a0,548
   1bdd2:	6585                	lui	a1,0x1
   1bdd4:	32458593          	addi	a1,a1,804 # 1324 <.Lline_table_start1+0x10f9>
   1bdd8:	958a                	add	a1,a1,sp
   1bdda:	02000613          	li	a2,32
   1bdde:	00002097          	auipc	ra,0x2
   1bde2:	998080e7          	jalr	-1640(ra) # 1d776 <memcpy>
   1bde6:	6505                	lui	a0,0x1
   1bde8:	38050513          	addi	a0,a0,896 # 1380 <.Lline_table_start1+0x1155>
   1bdec:	950a                	add	a0,a0,sp
   1bdee:	7ff10593          	addi	a1,sp,2047
   1bdf2:	21d58593          	addi	a1,a1,541
   1bdf6:	ffffc097          	auipc	ra,0xffffc
   1bdfa:	1be080e7          	jalr	446(ra) # 17fb4 <_ZN20complex_dynamic_type3app17hcce07870fb4a913eE>
   1bdfe:	3eca4503          	lbu	a0,1004(s4)
   1be02:	c119                	beqz	a0,1be08 <_start+0x27ba>
   1be04:	0fb0106f          	j	1d6fe <_start+0x40b0>
   1be08:	3eea4503          	lbu	a0,1006(s4)
   1be0c:	3eda4583          	lbu	a1,1005(s4)
   1be10:	3efa4603          	lbu	a2,1007(s4)
   1be14:	3f0a2483          	lw	s1,1008(s4)
   1be18:	0522                	slli	a0,a0,0x8
   1be1a:	8d4d                	or	a0,a0,a1
   1be1c:	2aa41923          	sh	a0,690(s0)
   1be20:	2ac40a23          	sb	a2,692(s0)
   1be24:	6505                	lui	a0,0x1
   1be26:	38850513          	addi	a0,a0,904 # 1388 <.Lline_table_start1+0x115d>
   1be2a:	00a105b3          	add	a1,sp,a0
   1be2e:	6505                	lui	a0,0x1
   1be30:	32450513          	addi	a0,a0,804 # 1324 <.Lline_table_start1+0x10f9>
   1be34:	950a                	add	a0,a0,sp
   1be36:	04a00613          	li	a2,74
   1be3a:	00002097          	auipc	ra,0x2
   1be3e:	93c080e7          	jalr	-1732(ra) # 1d776 <memcpy>
   1be42:	0184d513          	srli	a0,s1,0x18
   1be46:	0104d593          	srli	a1,s1,0x10
   1be4a:	0084d613          	srli	a2,s1,0x8
   1be4e:	2a940aa3          	sb	s1,693(s0)
   1be52:	2ac40b23          	sb	a2,694(s0)
   1be56:	2ab40ba3          	sb	a1,695(s0)
   1be5a:	2aa40c23          	sb	a0,696(s0)
   1be5e:	7ff10513          	addi	a0,sp,2047
   1be62:	24c50513          	addi	a0,a0,588
   1be66:	6585                	lui	a1,0x1
   1be68:	32458593          	addi	a1,a1,804 # 1324 <.Lline_table_start1+0x10f9>
   1be6c:	958a                	add	a1,a1,sp
   1be6e:	04a00613          	li	a2,74
   1be72:	00002097          	auipc	ra,0x2
   1be76:	904080e7          	jalr	-1788(ra) # 1d776 <memcpy>
   1be7a:	6505                	lui	a0,0x1
   1be7c:	38050513          	addi	a0,a0,896 # 1380 <.Lline_table_start1+0x1155>
   1be80:	950a                	add	a0,a0,sp
   1be82:	7ff10593          	addi	a1,sp,2047
   1be86:	24558593          	addi	a1,a1,581
   1be8a:	ffff7097          	auipc	ra,0xffff7
   1be8e:	ef4080e7          	jalr	-268(ra) # 12d7e <_ZN20complex_dynamic_type3app17h433077b085f9f73bE>
   1be92:	3eca4503          	lbu	a0,1004(s4)
   1be96:	c119                	beqz	a0,1be9c <_start+0x284e>
   1be98:	0670106f          	j	1d6fe <_start+0x40b0>
   1be9c:	3eea4503          	lbu	a0,1006(s4)
   1bea0:	3eda4583          	lbu	a1,1005(s4)
   1bea4:	3efa4603          	lbu	a2,1007(s4)
   1bea8:	3f0a2483          	lw	s1,1008(s4)
   1beac:	0522                	slli	a0,a0,0x8
   1beae:	8d4d                	or	a0,a0,a1
   1beb0:	30a41223          	sh	a0,772(s0)
   1beb4:	30c40323          	sb	a2,774(s0)
   1beb8:	6505                	lui	a0,0x1
   1beba:	38850513          	addi	a0,a0,904 # 1388 <.Lline_table_start1+0x115d>
   1bebe:	00a105b3          	add	a1,sp,a0
   1bec2:	6505                	lui	a0,0x1
   1bec4:	32450513          	addi	a0,a0,804 # 1324 <.Lline_table_start1+0x10f9>
   1bec8:	950a                	add	a0,a0,sp
   1beca:	04800613          	li	a2,72
   1bece:	00002097          	auipc	ra,0x2
   1bed2:	8a8080e7          	jalr	-1880(ra) # 1d776 <memcpy>
   1bed6:	0184d513          	srli	a0,s1,0x18
   1beda:	0104d593          	srli	a1,s1,0x10
   1bede:	0084d613          	srli	a2,s1,0x8
   1bee2:	309403a3          	sb	s1,775(s0)
   1bee6:	30c40423          	sb	a2,776(s0)
   1beea:	30b404a3          	sb	a1,777(s0)
   1beee:	30a40523          	sb	a0,778(s0)
   1bef2:	7ff10513          	addi	a0,sp,2047
   1bef6:	29e50513          	addi	a0,a0,670
   1befa:	6585                	lui	a1,0x1
   1befc:	32458593          	addi	a1,a1,804 # 1324 <.Lline_table_start1+0x10f9>
   1bf00:	958a                	add	a1,a1,sp
   1bf02:	04800613          	li	a2,72
   1bf06:	00002097          	auipc	ra,0x2
   1bf0a:	870080e7          	jalr	-1936(ra) # 1d776 <memcpy>
   1bf0e:	6505                	lui	a0,0x1
   1bf10:	38050513          	addi	a0,a0,896 # 1380 <.Lline_table_start1+0x1155>
   1bf14:	950a                	add	a0,a0,sp
   1bf16:	7ff10593          	addi	a1,sp,2047
   1bf1a:	29758593          	addi	a1,a1,663
   1bf1e:	ffff9097          	auipc	ra,0xffff9
   1bf22:	5ea080e7          	jalr	1514(ra) # 15508 <_ZN20complex_dynamic_type3app17h872cb7163b3e75a9E>
   1bf26:	3eca4503          	lbu	a0,1004(s4)
   1bf2a:	c119                	beqz	a0,1bf30 <_start+0x28e2>
   1bf2c:	7d20106f          	j	1d6fe <_start+0x40b0>
   1bf30:	3eea4503          	lbu	a0,1006(s4)
   1bf34:	3eda4583          	lbu	a1,1005(s4)
   1bf38:	3efa4603          	lbu	a2,1007(s4)
   1bf3c:	3f0a2483          	lw	s1,1008(s4)
   1bf40:	0522                	slli	a0,a0,0x8
   1bf42:	8d4d                	or	a0,a0,a1
   1bf44:	34a41a23          	sh	a0,852(s0)
   1bf48:	34c40b23          	sb	a2,854(s0)
   1bf4c:	6505                	lui	a0,0x1
   1bf4e:	38850513          	addi	a0,a0,904 # 1388 <.Lline_table_start1+0x115d>
   1bf52:	00a105b3          	add	a1,sp,a0
   1bf56:	6505                	lui	a0,0x1
   1bf58:	32450513          	addi	a0,a0,804 # 1324 <.Lline_table_start1+0x10f9>
   1bf5c:	950a                	add	a0,a0,sp
   1bf5e:	05a00613          	li	a2,90
   1bf62:	00002097          	auipc	ra,0x2
   1bf66:	814080e7          	jalr	-2028(ra) # 1d776 <memcpy>
   1bf6a:	0184d513          	srli	a0,s1,0x18
   1bf6e:	0104d593          	srli	a1,s1,0x10
   1bf72:	0084d613          	srli	a2,s1,0x8
   1bf76:	34940ba3          	sb	s1,855(s0)
   1bf7a:	34c40c23          	sb	a2,856(s0)
   1bf7e:	34b40ca3          	sb	a1,857(s0)
   1bf82:	34a40d23          	sb	a0,858(s0)
   1bf86:	7ff10513          	addi	a0,sp,2047
   1bf8a:	2ee50513          	addi	a0,a0,750
   1bf8e:	6585                	lui	a1,0x1
   1bf90:	32458593          	addi	a1,a1,804 # 1324 <.Lline_table_start1+0x10f9>
   1bf94:	958a                	add	a1,a1,sp
   1bf96:	05a00613          	li	a2,90
   1bf9a:	00001097          	auipc	ra,0x1
   1bf9e:	7dc080e7          	jalr	2012(ra) # 1d776 <memcpy>
   1bfa2:	6505                	lui	a0,0x1
   1bfa4:	38050513          	addi	a0,a0,896 # 1380 <.Lline_table_start1+0x1155>
   1bfa8:	950a                	add	a0,a0,sp
   1bfaa:	7ff10593          	addi	a1,sp,2047
   1bfae:	2e758593          	addi	a1,a1,743
   1bfb2:	ffff9097          	auipc	ra,0xffff9
   1bfb6:	e52080e7          	jalr	-430(ra) # 14e04 <_ZN20complex_dynamic_type3app17h7656decfe025aa5bE>
   1bfba:	3eca4503          	lbu	a0,1004(s4)
   1bfbe:	c119                	beqz	a0,1bfc4 <_start+0x2976>
   1bfc0:	73e0106f          	j	1d6fe <_start+0x40b0>
   1bfc4:	3eea4503          	lbu	a0,1006(s4)
   1bfc8:	3eda4583          	lbu	a1,1005(s4)
   1bfcc:	3efa4603          	lbu	a2,1007(s4)
   1bfd0:	3f0a2483          	lw	s1,1008(s4)
   1bfd4:	0522                	slli	a0,a0,0x8
   1bfd6:	8d4d                	or	a0,a0,a1
   1bfd8:	3aa41b23          	sh	a0,950(s0)
   1bfdc:	3ac40c23          	sb	a2,952(s0)
   1bfe0:	6505                	lui	a0,0x1
   1bfe2:	38850513          	addi	a0,a0,904 # 1388 <.Lline_table_start1+0x115d>
   1bfe6:	00a105b3          	add	a1,sp,a0
   1bfea:	6505                	lui	a0,0x1
   1bfec:	32450513          	addi	a0,a0,804 # 1324 <.Lline_table_start1+0x10f9>
   1bff0:	950a                	add	a0,a0,sp
   1bff2:	465d                	li	a2,23
   1bff4:	00001097          	auipc	ra,0x1
   1bff8:	782080e7          	jalr	1922(ra) # 1d776 <memcpy>
   1bffc:	0184d513          	srli	a0,s1,0x18
   1c000:	0104d593          	srli	a1,s1,0x10
   1c004:	0084d613          	srli	a2,s1,0x8
   1c008:	3a940ca3          	sb	s1,953(s0)
   1c00c:	3ac40d23          	sb	a2,954(s0)
   1c010:	3ab40da3          	sb	a1,955(s0)
   1c014:	3aa40e23          	sb	a0,956(s0)
   1c018:	7ff10513          	addi	a0,sp,2047
   1c01c:	35050513          	addi	a0,a0,848
   1c020:	6585                	lui	a1,0x1
   1c022:	32458593          	addi	a1,a1,804 # 1324 <.Lline_table_start1+0x10f9>
   1c026:	958a                	add	a1,a1,sp
   1c028:	465d                	li	a2,23
   1c02a:	00001097          	auipc	ra,0x1
   1c02e:	74c080e7          	jalr	1868(ra) # 1d776 <memcpy>
   1c032:	6505                	lui	a0,0x1
   1c034:	38050513          	addi	a0,a0,896 # 1380 <.Lline_table_start1+0x1155>
   1c038:	950a                	add	a0,a0,sp
   1c03a:	7ff10593          	addi	a1,sp,2047
   1c03e:	34958593          	addi	a1,a1,841
   1c042:	ffffd097          	auipc	ra,0xffffd
   1c046:	ef8080e7          	jalr	-264(ra) # 18f3a <_ZN20complex_dynamic_type3app17hf739f7b666c43ba6E>
   1c04a:	3eca4503          	lbu	a0,1004(s4)
   1c04e:	c119                	beqz	a0,1c054 <_start+0x2a06>
   1c050:	6ae0106f          	j	1d6fe <_start+0x40b0>
   1c054:	3eea4503          	lbu	a0,1006(s4)
   1c058:	3eda4583          	lbu	a1,1005(s4)
   1c05c:	3efa4603          	lbu	a2,1007(s4)
   1c060:	3f0a2483          	lw	s1,1008(s4)
   1c064:	0522                	slli	a0,a0,0x8
   1c066:	8d4d                	or	a0,a0,a1
   1c068:	3ca41a23          	sh	a0,980(s0)
   1c06c:	3cc40b23          	sb	a2,982(s0)
   1c070:	6505                	lui	a0,0x1
   1c072:	38850513          	addi	a0,a0,904 # 1388 <.Lline_table_start1+0x115d>
   1c076:	00a105b3          	add	a1,sp,a0
   1c07a:	6505                	lui	a0,0x1
   1c07c:	32450513          	addi	a0,a0,804 # 1324 <.Lline_table_start1+0x10f9>
   1c080:	950a                	add	a0,a0,sp
   1c082:	4669                	li	a2,26
   1c084:	00001097          	auipc	ra,0x1
   1c088:	6f2080e7          	jalr	1778(ra) # 1d776 <memcpy>
   1c08c:	0184d513          	srli	a0,s1,0x18
   1c090:	0104d593          	srli	a1,s1,0x10
   1c094:	0084d613          	srli	a2,s1,0x8
   1c098:	3c940ba3          	sb	s1,983(s0)
   1c09c:	3cc40c23          	sb	a2,984(s0)
   1c0a0:	3cb40ca3          	sb	a1,985(s0)
   1c0a4:	3ca40d23          	sb	a0,986(s0)
   1c0a8:	7ff10513          	addi	a0,sp,2047
   1c0ac:	36e50513          	addi	a0,a0,878
   1c0b0:	6585                	lui	a1,0x1
   1c0b2:	32458593          	addi	a1,a1,804 # 1324 <.Lline_table_start1+0x10f9>
   1c0b6:	958a                	add	a1,a1,sp
   1c0b8:	4669                	li	a2,26
   1c0ba:	00001097          	auipc	ra,0x1
   1c0be:	6bc080e7          	jalr	1724(ra) # 1d776 <memcpy>
   1c0c2:	6505                	lui	a0,0x1
   1c0c4:	38050513          	addi	a0,a0,896 # 1380 <.Lline_table_start1+0x1155>
   1c0c8:	950a                	add	a0,a0,sp
   1c0ca:	7ff10593          	addi	a1,sp,2047
   1c0ce:	36758593          	addi	a1,a1,871
   1c0d2:	ffff8097          	auipc	ra,0xffff8
   1c0d6:	802080e7          	jalr	-2046(ra) # 138d4 <_ZN20complex_dynamic_type3app17h4ed593d7d82342f0E>
   1c0da:	3eca4503          	lbu	a0,1004(s4)
   1c0de:	c119                	beqz	a0,1c0e4 <_start+0x2a96>
   1c0e0:	61e0106f          	j	1d6fe <_start+0x40b0>
   1c0e4:	3eea4503          	lbu	a0,1006(s4)
   1c0e8:	3eda4583          	lbu	a1,1005(s4)
   1c0ec:	3efa4603          	lbu	a2,1007(s4)
   1c0f0:	3f0a2483          	lw	s1,1008(s4)
   1c0f4:	0522                	slli	a0,a0,0x8
   1c0f6:	8d4d                	or	a0,a0,a1
   1c0f8:	3ea41b23          	sh	a0,1014(s0)
   1c0fc:	3ec40c23          	sb	a2,1016(s0)
   1c100:	6505                	lui	a0,0x1
   1c102:	38850513          	addi	a0,a0,904 # 1388 <.Lline_table_start1+0x115d>
   1c106:	00a105b3          	add	a1,sp,a0
   1c10a:	6505                	lui	a0,0x1
   1c10c:	32450513          	addi	a0,a0,804 # 1324 <.Lline_table_start1+0x10f9>
   1c110:	950a                	add	a0,a0,sp
   1c112:	02300613          	li	a2,35
   1c116:	00001097          	auipc	ra,0x1
   1c11a:	660080e7          	jalr	1632(ra) # 1d776 <memcpy>
   1c11e:	0184d513          	srli	a0,s1,0x18
   1c122:	0104d593          	srli	a1,s1,0x10
   1c126:	0084d613          	srli	a2,s1,0x8
   1c12a:	3e940ca3          	sb	s1,1017(s0)
   1c12e:	3ec40d23          	sb	a2,1018(s0)
   1c132:	3eb40da3          	sb	a1,1019(s0)
   1c136:	3ea40e23          	sb	a0,1020(s0)
   1c13a:	7ff10513          	addi	a0,sp,2047
   1c13e:	39050513          	addi	a0,a0,912
   1c142:	6585                	lui	a1,0x1
   1c144:	32458593          	addi	a1,a1,804 # 1324 <.Lline_table_start1+0x10f9>
   1c148:	958a                	add	a1,a1,sp
   1c14a:	02300613          	li	a2,35
   1c14e:	00001097          	auipc	ra,0x1
   1c152:	628080e7          	jalr	1576(ra) # 1d776 <memcpy>
   1c156:	6505                	lui	a0,0x1
   1c158:	38050513          	addi	a0,a0,896 # 1380 <.Lline_table_start1+0x1155>
   1c15c:	950a                	add	a0,a0,sp
   1c15e:	7ff10593          	addi	a1,sp,2047
   1c162:	38958593          	addi	a1,a1,905
   1c166:	ffff5097          	auipc	ra,0xffff5
   1c16a:	fce080e7          	jalr	-50(ra) # 11134 <_ZN20complex_dynamic_type3app17h019d1868e204a024E>
   1c16e:	3eca4503          	lbu	a0,1004(s4)
   1c172:	c119                	beqz	a0,1c178 <_start+0x2b2a>
   1c174:	58a0106f          	j	1d6fe <_start+0x40b0>
   1c178:	3eea4503          	lbu	a0,1006(s4)
   1c17c:	3eda4583          	lbu	a1,1005(s4)
   1c180:	3efa4603          	lbu	a2,1007(s4)
   1c184:	3f0a2483          	lw	s1,1008(s4)
   1c188:	0522                	slli	a0,a0,0x8
   1c18a:	8d4d                	or	a0,a0,a1
   1c18c:	42a41023          	sh	a0,1056(s0)
   1c190:	42c40123          	sb	a2,1058(s0)
   1c194:	6505                	lui	a0,0x1
   1c196:	38850513          	addi	a0,a0,904 # 1388 <.Lline_table_start1+0x115d>
   1c19a:	00a105b3          	add	a1,sp,a0
   1c19e:	6505                	lui	a0,0x1
   1c1a0:	32450513          	addi	a0,a0,804 # 1324 <.Lline_table_start1+0x10f9>
   1c1a4:	950a                	add	a0,a0,sp
   1c1a6:	05200613          	li	a2,82
   1c1aa:	00001097          	auipc	ra,0x1
   1c1ae:	5cc080e7          	jalr	1484(ra) # 1d776 <memcpy>
   1c1b2:	0184d513          	srli	a0,s1,0x18
   1c1b6:	0104d593          	srli	a1,s1,0x10
   1c1ba:	0084d613          	srli	a2,s1,0x8
   1c1be:	429401a3          	sb	s1,1059(s0)
   1c1c2:	42c40223          	sb	a2,1060(s0)
   1c1c6:	42b402a3          	sb	a1,1061(s0)
   1c1ca:	42a40323          	sb	a0,1062(s0)
   1c1ce:	7ff10513          	addi	a0,sp,2047
   1c1d2:	3ba50513          	addi	a0,a0,954
   1c1d6:	6585                	lui	a1,0x1
   1c1d8:	32458593          	addi	a1,a1,804 # 1324 <.Lline_table_start1+0x10f9>
   1c1dc:	958a                	add	a1,a1,sp
   1c1de:	05200613          	li	a2,82
   1c1e2:	00001097          	auipc	ra,0x1
   1c1e6:	594080e7          	jalr	1428(ra) # 1d776 <memcpy>
   1c1ea:	6505                	lui	a0,0x1
   1c1ec:	38050513          	addi	a0,a0,896 # 1380 <.Lline_table_start1+0x1155>
   1c1f0:	950a                	add	a0,a0,sp
   1c1f2:	7ff10593          	addi	a1,sp,2047
   1c1f6:	3b358593          	addi	a1,a1,947
   1c1fa:	ffff9097          	auipc	ra,0xffff9
   1c1fe:	ed4080e7          	jalr	-300(ra) # 150ce <_ZN20complex_dynamic_type3app17h7a99229e0a0437dbE>
   1c202:	3eca4503          	lbu	a0,1004(s4)
   1c206:	c119                	beqz	a0,1c20c <_start+0x2bbe>
   1c208:	4f60106f          	j	1d6fe <_start+0x40b0>
   1c20c:	3eea4503          	lbu	a0,1006(s4)
   1c210:	3eda4583          	lbu	a1,1005(s4)
   1c214:	3efa4603          	lbu	a2,1007(s4)
   1c218:	3f0a2483          	lw	s1,1008(s4)
   1c21c:	0522                	slli	a0,a0,0x8
   1c21e:	8d4d                	or	a0,a0,a1
   1c220:	46a41d23          	sh	a0,1146(s0)
   1c224:	46c40e23          	sb	a2,1148(s0)
   1c228:	6505                	lui	a0,0x1
   1c22a:	38850513          	addi	a0,a0,904 # 1388 <.Lline_table_start1+0x115d>
   1c22e:	00a105b3          	add	a1,sp,a0
   1c232:	6505                	lui	a0,0x1
   1c234:	32450513          	addi	a0,a0,804 # 1324 <.Lline_table_start1+0x10f9>
   1c238:	950a                	add	a0,a0,sp
   1c23a:	04300613          	li	a2,67
   1c23e:	00001097          	auipc	ra,0x1
   1c242:	538080e7          	jalr	1336(ra) # 1d776 <memcpy>
   1c246:	0184d513          	srli	a0,s1,0x18
   1c24a:	0104d593          	srli	a1,s1,0x10
   1c24e:	0084d613          	srli	a2,s1,0x8
   1c252:	46940ea3          	sb	s1,1149(s0)
   1c256:	46c40f23          	sb	a2,1150(s0)
   1c25a:	46b40fa3          	sb	a1,1151(s0)
   1c25e:	48a40023          	sb	a0,1152(s0)
   1c262:	7ff10513          	addi	a0,sp,2047
   1c266:	41450513          	addi	a0,a0,1044
   1c26a:	6585                	lui	a1,0x1
   1c26c:	32458593          	addi	a1,a1,804 # 1324 <.Lline_table_start1+0x10f9>
   1c270:	958a                	add	a1,a1,sp
   1c272:	04300613          	li	a2,67
   1c276:	00001097          	auipc	ra,0x1
   1c27a:	500080e7          	jalr	1280(ra) # 1d776 <memcpy>
   1c27e:	6505                	lui	a0,0x1
   1c280:	38050513          	addi	a0,a0,896 # 1380 <.Lline_table_start1+0x1155>
   1c284:	950a                	add	a0,a0,sp
   1c286:	7ff10593          	addi	a1,sp,2047
   1c28a:	40d58593          	addi	a1,a1,1037
   1c28e:	ffff6097          	auipc	ra,0xffff6
   1c292:	6a4080e7          	jalr	1700(ra) # 12932 <_ZN20complex_dynamic_type3app17h2f0d2fbeecc6dbc3E>
   1c296:	3eca4503          	lbu	a0,1004(s4)
   1c29a:	c119                	beqz	a0,1c2a0 <_start+0x2c52>
   1c29c:	4620106f          	j	1d6fe <_start+0x40b0>
   1c2a0:	3eea4503          	lbu	a0,1006(s4)
   1c2a4:	3eda4583          	lbu	a1,1005(s4)
   1c2a8:	3efa4603          	lbu	a2,1007(s4)
   1c2ac:	3f0a2483          	lw	s1,1008(s4)
   1c2b0:	0522                	slli	a0,a0,0x8
   1c2b2:	8d4d                	or	a0,a0,a1
   1c2b4:	4ca41223          	sh	a0,1220(s0)
   1c2b8:	4cc40323          	sb	a2,1222(s0)
   1c2bc:	6505                	lui	a0,0x1
   1c2be:	38850513          	addi	a0,a0,904 # 1388 <.Lline_table_start1+0x115d>
   1c2c2:	00a105b3          	add	a1,sp,a0
   1c2c6:	6505                	lui	a0,0x1
   1c2c8:	32450513          	addi	a0,a0,804 # 1324 <.Lline_table_start1+0x10f9>
   1c2cc:	950a                	add	a0,a0,sp
   1c2ce:	02600613          	li	a2,38
   1c2d2:	00001097          	auipc	ra,0x1
   1c2d6:	4a4080e7          	jalr	1188(ra) # 1d776 <memcpy>
   1c2da:	0184d513          	srli	a0,s1,0x18
   1c2de:	0104d593          	srli	a1,s1,0x10
   1c2e2:	0084d613          	srli	a2,s1,0x8
   1c2e6:	4c9403a3          	sb	s1,1223(s0)
   1c2ea:	4cc40423          	sb	a2,1224(s0)
   1c2ee:	4cb404a3          	sb	a1,1225(s0)
   1c2f2:	4ca40523          	sb	a0,1226(s0)
   1c2f6:	7ff10513          	addi	a0,sp,2047
   1c2fa:	45e50513          	addi	a0,a0,1118
   1c2fe:	6585                	lui	a1,0x1
   1c300:	32458593          	addi	a1,a1,804 # 1324 <.Lline_table_start1+0x10f9>
   1c304:	958a                	add	a1,a1,sp
   1c306:	02600613          	li	a2,38
   1c30a:	00001097          	auipc	ra,0x1
   1c30e:	46c080e7          	jalr	1132(ra) # 1d776 <memcpy>
   1c312:	6505                	lui	a0,0x1
   1c314:	38050513          	addi	a0,a0,896 # 1380 <.Lline_table_start1+0x1155>
   1c318:	950a                	add	a0,a0,sp
   1c31a:	7ff10593          	addi	a1,sp,2047
   1c31e:	45758593          	addi	a1,a1,1111
   1c322:	ffff9097          	auipc	ra,0xffff9
   1c326:	4ba080e7          	jalr	1210(ra) # 157dc <_ZN20complex_dynamic_type3app17h899c54c7b4034bd8E>
   1c32a:	3eca4503          	lbu	a0,1004(s4)
   1c32e:	c119                	beqz	a0,1c334 <_start+0x2ce6>
   1c330:	3ce0106f          	j	1d6fe <_start+0x40b0>
   1c334:	3eea4503          	lbu	a0,1006(s4)
   1c338:	3eda4583          	lbu	a1,1005(s4)
   1c33c:	3efa4603          	lbu	a2,1007(s4)
   1c340:	3f0a2483          	lw	s1,1008(s4)
   1c344:	0522                	slli	a0,a0,0x8
   1c346:	8d4d                	or	a0,a0,a1
   1c348:	4ea41923          	sh	a0,1266(s0)
   1c34c:	4ec40a23          	sb	a2,1268(s0)
   1c350:	6505                	lui	a0,0x1
   1c352:	38850513          	addi	a0,a0,904 # 1388 <.Lline_table_start1+0x115d>
   1c356:	00a105b3          	add	a1,sp,a0
   1c35a:	6505                	lui	a0,0x1
   1c35c:	32450513          	addi	a0,a0,804 # 1324 <.Lline_table_start1+0x10f9>
   1c360:	950a                	add	a0,a0,sp
   1c362:	04c00613          	li	a2,76
   1c366:	00001097          	auipc	ra,0x1
   1c36a:	410080e7          	jalr	1040(ra) # 1d776 <memcpy>
   1c36e:	0184d513          	srli	a0,s1,0x18
   1c372:	0104d593          	srli	a1,s1,0x10
   1c376:	0084d613          	srli	a2,s1,0x8
   1c37a:	4e940aa3          	sb	s1,1269(s0)
   1c37e:	4ec40b23          	sb	a2,1270(s0)
   1c382:	4eb40ba3          	sb	a1,1271(s0)
   1c386:	4ea40c23          	sb	a0,1272(s0)
   1c38a:	7ff10513          	addi	a0,sp,2047
   1c38e:	48c50513          	addi	a0,a0,1164
   1c392:	6585                	lui	a1,0x1
   1c394:	32458593          	addi	a1,a1,804 # 1324 <.Lline_table_start1+0x10f9>
   1c398:	958a                	add	a1,a1,sp
   1c39a:	04c00613          	li	a2,76
   1c39e:	00001097          	auipc	ra,0x1
   1c3a2:	3d8080e7          	jalr	984(ra) # 1d776 <memcpy>
   1c3a6:	6505                	lui	a0,0x1
   1c3a8:	38050513          	addi	a0,a0,896 # 1380 <.Lline_table_start1+0x1155>
   1c3ac:	950a                	add	a0,a0,sp
   1c3ae:	7ff10593          	addi	a1,sp,2047
   1c3b2:	48558593          	addi	a1,a1,1157
   1c3b6:	ffffd097          	auipc	ra,0xffffd
   1c3ba:	a14080e7          	jalr	-1516(ra) # 18dca <_ZN20complex_dynamic_type3app17hf4684387ad68f4e0E>
   1c3be:	3eca4503          	lbu	a0,1004(s4)
   1c3c2:	c119                	beqz	a0,1c3c8 <_start+0x2d7a>
   1c3c4:	33a0106f          	j	1d6fe <_start+0x40b0>
   1c3c8:	3eea4503          	lbu	a0,1006(s4)
   1c3cc:	3eda4583          	lbu	a1,1005(s4)
   1c3d0:	3efa4603          	lbu	a2,1007(s4)
   1c3d4:	3f0a2483          	lw	s1,1008(s4)
   1c3d8:	0522                	slli	a0,a0,0x8
   1c3da:	8d4d                	or	a0,a0,a1
   1c3dc:	54a41323          	sh	a0,1350(s0)
   1c3e0:	54c40423          	sb	a2,1352(s0)
   1c3e4:	6505                	lui	a0,0x1
   1c3e6:	38850513          	addi	a0,a0,904 # 1388 <.Lline_table_start1+0x115d>
   1c3ea:	00a105b3          	add	a1,sp,a0
   1c3ee:	6505                	lui	a0,0x1
   1c3f0:	32450513          	addi	a0,a0,804 # 1324 <.Lline_table_start1+0x10f9>
   1c3f4:	950a                	add	a0,a0,sp
   1c3f6:	03300613          	li	a2,51
   1c3fa:	00001097          	auipc	ra,0x1
   1c3fe:	37c080e7          	jalr	892(ra) # 1d776 <memcpy>
   1c402:	0184d513          	srli	a0,s1,0x18
   1c406:	0104d593          	srli	a1,s1,0x10
   1c40a:	0084d613          	srli	a2,s1,0x8
   1c40e:	549404a3          	sb	s1,1353(s0)
   1c412:	54c40523          	sb	a2,1354(s0)
   1c416:	54b405a3          	sb	a1,1355(s0)
   1c41a:	54a40623          	sb	a0,1356(s0)
   1c41e:	7ff10513          	addi	a0,sp,2047
   1c422:	4e050513          	addi	a0,a0,1248
   1c426:	6585                	lui	a1,0x1
   1c428:	32458593          	addi	a1,a1,804 # 1324 <.Lline_table_start1+0x10f9>
   1c42c:	958a                	add	a1,a1,sp
   1c42e:	03300613          	li	a2,51
   1c432:	00001097          	auipc	ra,0x1
   1c436:	344080e7          	jalr	836(ra) # 1d776 <memcpy>
   1c43a:	6505                	lui	a0,0x1
   1c43c:	38050513          	addi	a0,a0,896 # 1380 <.Lline_table_start1+0x1155>
   1c440:	950a                	add	a0,a0,sp
   1c442:	7ff10593          	addi	a1,sp,2047
   1c446:	4d958593          	addi	a1,a1,1241
   1c44a:	ffffd097          	auipc	ra,0xffffd
   1c44e:	812080e7          	jalr	-2030(ra) # 18c5c <_ZN20complex_dynamic_type3app17hf2a63426caf78a0fE>
   1c452:	3eca4503          	lbu	a0,1004(s4)
   1c456:	c119                	beqz	a0,1c45c <_start+0x2e0e>
   1c458:	2a60106f          	j	1d6fe <_start+0x40b0>
   1c45c:	3eea4503          	lbu	a0,1006(s4)
   1c460:	3eda4583          	lbu	a1,1005(s4)
   1c464:	3efa4603          	lbu	a2,1007(s4)
   1c468:	3f0a2483          	lw	s1,1008(s4)
   1c46c:	0522                	slli	a0,a0,0x8
   1c46e:	8d4d                	or	a0,a0,a1
   1c470:	58a41023          	sh	a0,1408(s0)
   1c474:	58c40123          	sb	a2,1410(s0)
   1c478:	6505                	lui	a0,0x1
   1c47a:	38850513          	addi	a0,a0,904 # 1388 <.Lline_table_start1+0x115d>
   1c47e:	00a105b3          	add	a1,sp,a0
   1c482:	6505                	lui	a0,0x1
   1c484:	32450513          	addi	a0,a0,804 # 1324 <.Lline_table_start1+0x10f9>
   1c488:	950a                	add	a0,a0,sp
   1c48a:	05600613          	li	a2,86
   1c48e:	00001097          	auipc	ra,0x1
   1c492:	2e8080e7          	jalr	744(ra) # 1d776 <memcpy>
   1c496:	0184d513          	srli	a0,s1,0x18
   1c49a:	0104d593          	srli	a1,s1,0x10
   1c49e:	0084d613          	srli	a2,s1,0x8
   1c4a2:	589401a3          	sb	s1,1411(s0)
   1c4a6:	58c40223          	sb	a2,1412(s0)
   1c4aa:	58b402a3          	sb	a1,1413(s0)
   1c4ae:	58a40323          	sb	a0,1414(s0)
   1c4b2:	7ff10513          	addi	a0,sp,2047
   1c4b6:	51a50513          	addi	a0,a0,1306
   1c4ba:	6585                	lui	a1,0x1
   1c4bc:	32458593          	addi	a1,a1,804 # 1324 <.Lline_table_start1+0x10f9>
   1c4c0:	958a                	add	a1,a1,sp
   1c4c2:	05600613          	li	a2,86
   1c4c6:	00001097          	auipc	ra,0x1
   1c4ca:	2b0080e7          	jalr	688(ra) # 1d776 <memcpy>
   1c4ce:	6505                	lui	a0,0x1
   1c4d0:	38050513          	addi	a0,a0,896 # 1380 <.Lline_table_start1+0x1155>
   1c4d4:	950a                	add	a0,a0,sp
   1c4d6:	7ff10593          	addi	a1,sp,2047
   1c4da:	51358593          	addi	a1,a1,1299
   1c4de:	ffff8097          	auipc	ra,0xffff8
   1c4e2:	0c6080e7          	jalr	198(ra) # 145a4 <_ZN20complex_dynamic_type3app17h5fb432ef4c2629a9E>
   1c4e6:	3eca4503          	lbu	a0,1004(s4)
   1c4ea:	c119                	beqz	a0,1c4f0 <_start+0x2ea2>
   1c4ec:	2120106f          	j	1d6fe <_start+0x40b0>
   1c4f0:	3eea4503          	lbu	a0,1006(s4)
   1c4f4:	3eda4583          	lbu	a1,1005(s4)
   1c4f8:	3efa4603          	lbu	a2,1007(s4)
   1c4fc:	3f0a2483          	lw	s1,1008(s4)
   1c500:	0522                	slli	a0,a0,0x8
   1c502:	8d4d                	or	a0,a0,a1
   1c504:	5ca41f23          	sh	a0,1502(s0)
   1c508:	5ec40023          	sb	a2,1504(s0)
   1c50c:	6505                	lui	a0,0x1
   1c50e:	38850513          	addi	a0,a0,904 # 1388 <.Lline_table_start1+0x115d>
   1c512:	00a105b3          	add	a1,sp,a0
   1c516:	6505                	lui	a0,0x1
   1c518:	32450513          	addi	a0,a0,804 # 1324 <.Lline_table_start1+0x10f9>
   1c51c:	950a                	add	a0,a0,sp
   1c51e:	03900613          	li	a2,57
   1c522:	00001097          	auipc	ra,0x1
   1c526:	254080e7          	jalr	596(ra) # 1d776 <memcpy>
   1c52a:	0184d513          	srli	a0,s1,0x18
   1c52e:	0104d593          	srli	a1,s1,0x10
   1c532:	0084d613          	srli	a2,s1,0x8
   1c536:	5e9400a3          	sb	s1,1505(s0)
   1c53a:	5ec40123          	sb	a2,1506(s0)
   1c53e:	5eb401a3          	sb	a1,1507(s0)
   1c542:	5ea40223          	sb	a0,1508(s0)
   1c546:	7ff10513          	addi	a0,sp,2047
   1c54a:	57850513          	addi	a0,a0,1400
   1c54e:	6585                	lui	a1,0x1
   1c550:	32458593          	addi	a1,a1,804 # 1324 <.Lline_table_start1+0x10f9>
   1c554:	958a                	add	a1,a1,sp
   1c556:	03900613          	li	a2,57
   1c55a:	00001097          	auipc	ra,0x1
   1c55e:	21c080e7          	jalr	540(ra) # 1d776 <memcpy>
   1c562:	6505                	lui	a0,0x1
   1c564:	38050513          	addi	a0,a0,896 # 1380 <.Lline_table_start1+0x1155>
   1c568:	950a                	add	a0,a0,sp
   1c56a:	7ff10593          	addi	a1,sp,2047
   1c56e:	57158593          	addi	a1,a1,1393
   1c572:	ffffd097          	auipc	ra,0xffffd
   1c576:	f6c080e7          	jalr	-148(ra) # 194de <_ZN20complex_dynamic_type3app17hfe730775731733d4E>
   1c57a:	3eca4503          	lbu	a0,1004(s4)
   1c57e:	c119                	beqz	a0,1c584 <_start+0x2f36>
   1c580:	17e0106f          	j	1d6fe <_start+0x40b0>
   1c584:	3eea4503          	lbu	a0,1006(s4)
   1c588:	3eda4583          	lbu	a1,1005(s4)
   1c58c:	3efa4603          	lbu	a2,1007(s4)
   1c590:	3f0a2483          	lw	s1,1008(s4)
   1c594:	0522                	slli	a0,a0,0x8
   1c596:	8d4d                	or	a0,a0,a1
   1c598:	60a41f23          	sh	a0,1566(s0)
   1c59c:	62c40023          	sb	a2,1568(s0)
   1c5a0:	6505                	lui	a0,0x1
   1c5a2:	38850513          	addi	a0,a0,904 # 1388 <.Lline_table_start1+0x115d>
   1c5a6:	00a105b3          	add	a1,sp,a0
   1c5aa:	6505                	lui	a0,0x1
   1c5ac:	32450513          	addi	a0,a0,804 # 1324 <.Lline_table_start1+0x10f9>
   1c5b0:	950a                	add	a0,a0,sp
   1c5b2:	02a00613          	li	a2,42
   1c5b6:	00001097          	auipc	ra,0x1
   1c5ba:	1c0080e7          	jalr	448(ra) # 1d776 <memcpy>
   1c5be:	0184d513          	srli	a0,s1,0x18
   1c5c2:	0104d593          	srli	a1,s1,0x10
   1c5c6:	0084d613          	srli	a2,s1,0x8
   1c5ca:	629400a3          	sb	s1,1569(s0)
   1c5ce:	62c40123          	sb	a2,1570(s0)
   1c5d2:	62b401a3          	sb	a1,1571(s0)
   1c5d6:	62a40223          	sb	a0,1572(s0)
   1c5da:	7ff10513          	addi	a0,sp,2047
   1c5de:	5b850513          	addi	a0,a0,1464
   1c5e2:	6585                	lui	a1,0x1
   1c5e4:	32458593          	addi	a1,a1,804 # 1324 <.Lline_table_start1+0x10f9>
   1c5e8:	958a                	add	a1,a1,sp
   1c5ea:	02a00613          	li	a2,42
   1c5ee:	00001097          	auipc	ra,0x1
   1c5f2:	188080e7          	jalr	392(ra) # 1d776 <memcpy>
   1c5f6:	6505                	lui	a0,0x1
   1c5f8:	38050513          	addi	a0,a0,896 # 1380 <.Lline_table_start1+0x1155>
   1c5fc:	950a                	add	a0,a0,sp
   1c5fe:	7ff10593          	addi	a1,sp,2047
   1c602:	5b158593          	addi	a1,a1,1457
   1c606:	ffff7097          	auipc	ra,0xffff7
   1c60a:	ffc080e7          	jalr	-4(ra) # 13602 <_ZN20complex_dynamic_type3app17h4bd7a30586d561d1E>
   1c60e:	3eca4503          	lbu	a0,1004(s4)
   1c612:	c119                	beqz	a0,1c618 <_start+0x2fca>
   1c614:	0ea0106f          	j	1d6fe <_start+0x40b0>
   1c618:	3eea4503          	lbu	a0,1006(s4)
   1c61c:	3eda4583          	lbu	a1,1005(s4)
   1c620:	3efa4603          	lbu	a2,1007(s4)
   1c624:	3f0a2483          	lw	s1,1008(s4)
   1c628:	0522                	slli	a0,a0,0x8
   1c62a:	8d4d                	or	a0,a0,a1
   1c62c:	64a41823          	sh	a0,1616(s0)
   1c630:	64c40923          	sb	a2,1618(s0)
   1c634:	6505                	lui	a0,0x1
   1c636:	38850513          	addi	a0,a0,904 # 1388 <.Lline_table_start1+0x115d>
   1c63a:	00a105b3          	add	a1,sp,a0
   1c63e:	6505                	lui	a0,0x1
   1c640:	32450513          	addi	a0,a0,804 # 1324 <.Lline_table_start1+0x10f9>
   1c644:	950a                	add	a0,a0,sp
   1c646:	04100613          	li	a2,65
   1c64a:	00001097          	auipc	ra,0x1
   1c64e:	12c080e7          	jalr	300(ra) # 1d776 <memcpy>
   1c652:	0184d513          	srli	a0,s1,0x18
   1c656:	0104d593          	srli	a1,s1,0x10
   1c65a:	0084d613          	srli	a2,s1,0x8
   1c65e:	649409a3          	sb	s1,1619(s0)
   1c662:	64c40a23          	sb	a2,1620(s0)
   1c666:	64b40aa3          	sb	a1,1621(s0)
   1c66a:	64a40b23          	sb	a0,1622(s0)
   1c66e:	7ff10513          	addi	a0,sp,2047
   1c672:	5ea50513          	addi	a0,a0,1514
   1c676:	6585                	lui	a1,0x1
   1c678:	32458593          	addi	a1,a1,804 # 1324 <.Lline_table_start1+0x10f9>
   1c67c:	958a                	add	a1,a1,sp
   1c67e:	04100613          	li	a2,65
   1c682:	00001097          	auipc	ra,0x1
   1c686:	0f4080e7          	jalr	244(ra) # 1d776 <memcpy>
   1c68a:	6505                	lui	a0,0x1
   1c68c:	38050513          	addi	a0,a0,896 # 1380 <.Lline_table_start1+0x1155>
   1c690:	950a                	add	a0,a0,sp
   1c692:	7ff10593          	addi	a1,sp,2047
   1c696:	5e358593          	addi	a1,a1,1507
   1c69a:	ffff7097          	auipc	ra,0xffff7
   1c69e:	67e080e7          	jalr	1662(ra) # 13d18 <_ZN20complex_dynamic_type3app17h5793958d5ed26e50E>
   1c6a2:	3eca4503          	lbu	a0,1004(s4)
   1c6a6:	c119                	beqz	a0,1c6ac <_start+0x305e>
   1c6a8:	0560106f          	j	1d6fe <_start+0x40b0>
   1c6ac:	3eea4503          	lbu	a0,1006(s4)
   1c6b0:	3eda4583          	lbu	a1,1005(s4)
   1c6b4:	3efa4603          	lbu	a2,1007(s4)
   1c6b8:	3f0a2483          	lw	s1,1008(s4)
   1c6bc:	0522                	slli	a0,a0,0x8
   1c6be:	8d4d                	or	a0,a0,a1
   1c6c0:	68a41c23          	sh	a0,1688(s0)
   1c6c4:	68c40d23          	sb	a2,1690(s0)
   1c6c8:	6505                	lui	a0,0x1
   1c6ca:	38850513          	addi	a0,a0,904 # 1388 <.Lline_table_start1+0x115d>
   1c6ce:	00a105b3          	add	a1,sp,a0
   1c6d2:	6505                	lui	a0,0x1
   1c6d4:	32450513          	addi	a0,a0,804 # 1324 <.Lline_table_start1+0x10f9>
   1c6d8:	950a                	add	a0,a0,sp
   1c6da:	02200613          	li	a2,34
   1c6de:	00001097          	auipc	ra,0x1
   1c6e2:	098080e7          	jalr	152(ra) # 1d776 <memcpy>
   1c6e6:	0184d513          	srli	a0,s1,0x18
   1c6ea:	0104d593          	srli	a1,s1,0x10
   1c6ee:	0084d613          	srli	a2,s1,0x8
   1c6f2:	68940da3          	sb	s1,1691(s0)
   1c6f6:	68c40e23          	sb	a2,1692(s0)
   1c6fa:	68b40ea3          	sb	a1,1693(s0)
   1c6fe:	68a40f23          	sb	a0,1694(s0)
   1c702:	7ff10513          	addi	a0,sp,2047
   1c706:	63250513          	addi	a0,a0,1586
   1c70a:	6585                	lui	a1,0x1
   1c70c:	32458593          	addi	a1,a1,804 # 1324 <.Lline_table_start1+0x10f9>
   1c710:	958a                	add	a1,a1,sp
   1c712:	02200613          	li	a2,34
   1c716:	00001097          	auipc	ra,0x1
   1c71a:	060080e7          	jalr	96(ra) # 1d776 <memcpy>
   1c71e:	6505                	lui	a0,0x1
   1c720:	38050513          	addi	a0,a0,896 # 1380 <.Lline_table_start1+0x1155>
   1c724:	950a                	add	a0,a0,sp
   1c726:	7ff10593          	addi	a1,sp,2047
   1c72a:	62b58593          	addi	a1,a1,1579
   1c72e:	ffffb097          	auipc	ra,0xffffb
   1c732:	d3a080e7          	jalr	-710(ra) # 17468 <_ZN20complex_dynamic_type3app17hba96328adb138e45E>
   1c736:	3eca4503          	lbu	a0,1004(s4)
   1c73a:	7c0512e3          	bnez	a0,1d6fe <_start+0x40b0>
   1c73e:	3eea4503          	lbu	a0,1006(s4)
   1c742:	3eda4583          	lbu	a1,1005(s4)
   1c746:	3efa4603          	lbu	a2,1007(s4)
   1c74a:	3f0a2483          	lw	s1,1008(s4)
   1c74e:	0522                	slli	a0,a0,0x8
   1c750:	8d4d                	or	a0,a0,a1
   1c752:	6ca41123          	sh	a0,1730(s0)
   1c756:	6cc40223          	sb	a2,1732(s0)
   1c75a:	6505                	lui	a0,0x1
   1c75c:	38850513          	addi	a0,a0,904 # 1388 <.Lline_table_start1+0x115d>
   1c760:	00a105b3          	add	a1,sp,a0
   1c764:	6505                	lui	a0,0x1
   1c766:	32450513          	addi	a0,a0,804 # 1324 <.Lline_table_start1+0x10f9>
   1c76a:	950a                	add	a0,a0,sp
   1c76c:	464d                	li	a2,19
   1c76e:	00001097          	auipc	ra,0x1
   1c772:	008080e7          	jalr	8(ra) # 1d776 <memcpy>
   1c776:	0184d513          	srli	a0,s1,0x18
   1c77a:	0104d593          	srli	a1,s1,0x10
   1c77e:	0084d613          	srli	a2,s1,0x8
   1c782:	6c9402a3          	sb	s1,1733(s0)
   1c786:	6cc40323          	sb	a2,1734(s0)
   1c78a:	6cb403a3          	sb	a1,1735(s0)
   1c78e:	6ca40423          	sb	a0,1736(s0)
   1c792:	7ff10513          	addi	a0,sp,2047
   1c796:	65c50513          	addi	a0,a0,1628
   1c79a:	6585                	lui	a1,0x1
   1c79c:	32458593          	addi	a1,a1,804 # 1324 <.Lline_table_start1+0x10f9>
   1c7a0:	958a                	add	a1,a1,sp
   1c7a2:	464d                	li	a2,19
   1c7a4:	00001097          	auipc	ra,0x1
   1c7a8:	fd2080e7          	jalr	-46(ra) # 1d776 <memcpy>
   1c7ac:	6505                	lui	a0,0x1
   1c7ae:	38050513          	addi	a0,a0,896 # 1380 <.Lline_table_start1+0x1155>
   1c7b2:	950a                	add	a0,a0,sp
   1c7b4:	7ff10593          	addi	a1,sp,2047
   1c7b8:	65558593          	addi	a1,a1,1621
   1c7bc:	ffff5097          	auipc	ra,0xffff5
   1c7c0:	642080e7          	jalr	1602(ra) # 11dfe <_ZN20complex_dynamic_type3app17h18db4e726e5979c4E>
   1c7c4:	3eca4503          	lbu	a0,1004(s4)
   1c7c8:	72051be3          	bnez	a0,1d6fe <_start+0x40b0>
   1c7cc:	3eea4503          	lbu	a0,1006(s4)
   1c7d0:	3eda4583          	lbu	a1,1005(s4)
   1c7d4:	3efa4603          	lbu	a2,1007(s4)
   1c7d8:	3f0a2483          	lw	s1,1008(s4)
   1c7dc:	0522                	slli	a0,a0,0x8
   1c7de:	8d4d                	or	a0,a0,a1
   1c7e0:	6ca41e23          	sh	a0,1756(s0)
   1c7e4:	6cc40f23          	sb	a2,1758(s0)
   1c7e8:	6505                	lui	a0,0x1
   1c7ea:	38850513          	addi	a0,a0,904 # 1388 <.Lline_table_start1+0x115d>
   1c7ee:	00a105b3          	add	a1,sp,a0
   1c7f2:	6505                	lui	a0,0x1
   1c7f4:	32450513          	addi	a0,a0,804 # 1324 <.Lline_table_start1+0x10f9>
   1c7f8:	950a                	add	a0,a0,sp
   1c7fa:	4651                	li	a2,20
   1c7fc:	00001097          	auipc	ra,0x1
   1c800:	f7a080e7          	jalr	-134(ra) # 1d776 <memcpy>
   1c804:	0184d513          	srli	a0,s1,0x18
   1c808:	0104d593          	srli	a1,s1,0x10
   1c80c:	0084d613          	srli	a2,s1,0x8
   1c810:	6c940fa3          	sb	s1,1759(s0)
   1c814:	6ec40023          	sb	a2,1760(s0)
   1c818:	6eb400a3          	sb	a1,1761(s0)
   1c81c:	6ea40123          	sb	a0,1762(s0)
   1c820:	7ff10513          	addi	a0,sp,2047
   1c824:	67650513          	addi	a0,a0,1654
   1c828:	6585                	lui	a1,0x1
   1c82a:	32458593          	addi	a1,a1,804 # 1324 <.Lline_table_start1+0x10f9>
   1c82e:	958a                	add	a1,a1,sp
   1c830:	4651                	li	a2,20
   1c832:	00001097          	auipc	ra,0x1
   1c836:	f44080e7          	jalr	-188(ra) # 1d776 <memcpy>
   1c83a:	6505                	lui	a0,0x1
   1c83c:	38050513          	addi	a0,a0,896 # 1380 <.Lline_table_start1+0x1155>
   1c840:	950a                	add	a0,a0,sp
   1c842:	7ff10593          	addi	a1,sp,2047
   1c846:	66f58593          	addi	a1,a1,1647
   1c84a:	ffff7097          	auipc	ra,0xffff7
   1c84e:	63e080e7          	jalr	1598(ra) # 13e88 <_ZN20complex_dynamic_type3app17h57fbde04965e50deE>
   1c852:	3eca4503          	lbu	a0,1004(s4)
   1c856:	6a0514e3          	bnez	a0,1d6fe <_start+0x40b0>
   1c85a:	3eea4503          	lbu	a0,1006(s4)
   1c85e:	3eda4583          	lbu	a1,1005(s4)
   1c862:	3efa4603          	lbu	a2,1007(s4)
   1c866:	3f0a2483          	lw	s1,1008(s4)
   1c86a:	0522                	slli	a0,a0,0x8
   1c86c:	8d4d                	or	a0,a0,a1
   1c86e:	6ea41c23          	sh	a0,1784(s0)
   1c872:	6ec40d23          	sb	a2,1786(s0)
   1c876:	6505                	lui	a0,0x1
   1c878:	38850513          	addi	a0,a0,904 # 1388 <.Lline_table_start1+0x115d>
   1c87c:	00a105b3          	add	a1,sp,a0
   1c880:	6505                	lui	a0,0x1
   1c882:	32450513          	addi	a0,a0,804 # 1324 <.Lline_table_start1+0x10f9>
   1c886:	950a                	add	a0,a0,sp
   1c888:	03a00613          	li	a2,58
   1c88c:	00001097          	auipc	ra,0x1
   1c890:	eea080e7          	jalr	-278(ra) # 1d776 <memcpy>
   1c894:	0184d513          	srli	a0,s1,0x18
   1c898:	0104d593          	srli	a1,s1,0x10
   1c89c:	0084d613          	srli	a2,s1,0x8
   1c8a0:	6e940da3          	sb	s1,1787(s0)
   1c8a4:	6ec40e23          	sb	a2,1788(s0)
   1c8a8:	6eb40ea3          	sb	a1,1789(s0)
   1c8ac:	6ea40f23          	sb	a0,1790(s0)
   1c8b0:	7ff10513          	addi	a0,sp,2047
   1c8b4:	69250513          	addi	a0,a0,1682
   1c8b8:	6585                	lui	a1,0x1
   1c8ba:	32458593          	addi	a1,a1,804 # 1324 <.Lline_table_start1+0x10f9>
   1c8be:	958a                	add	a1,a1,sp
   1c8c0:	03a00613          	li	a2,58
   1c8c4:	00001097          	auipc	ra,0x1
   1c8c8:	eb2080e7          	jalr	-334(ra) # 1d776 <memcpy>
   1c8cc:	6505                	lui	a0,0x1
   1c8ce:	38050513          	addi	a0,a0,896 # 1380 <.Lline_table_start1+0x1155>
   1c8d2:	950a                	add	a0,a0,sp
   1c8d4:	7ff10593          	addi	a1,sp,2047
   1c8d8:	68b58593          	addi	a1,a1,1675
   1c8dc:	ffff5097          	auipc	ra,0xffff5
   1c8e0:	c96080e7          	jalr	-874(ra) # 11572 <_ZN20complex_dynamic_type3app17h075c6006afbb5e3aE>
   1c8e4:	3eca4503          	lbu	a0,1004(s4)
   1c8e8:	60051be3          	bnez	a0,1d6fe <_start+0x40b0>
   1c8ec:	3eea4503          	lbu	a0,1006(s4)
   1c8f0:	3eda4583          	lbu	a1,1005(s4)
   1c8f4:	3efa4603          	lbu	a2,1007(s4)
   1c8f8:	3f0a2483          	lw	s1,1008(s4)
   1c8fc:	0522                	slli	a0,a0,0x8
   1c8fe:	8d4d                	or	a0,a0,a1
   1c900:	72a41d23          	sh	a0,1850(s0)
   1c904:	72c40e23          	sb	a2,1852(s0)
   1c908:	6505                	lui	a0,0x1
   1c90a:	38850513          	addi	a0,a0,904 # 1388 <.Lline_table_start1+0x115d>
   1c90e:	00a105b3          	add	a1,sp,a0
   1c912:	6505                	lui	a0,0x1
   1c914:	32450513          	addi	a0,a0,804 # 1324 <.Lline_table_start1+0x10f9>
   1c918:	950a                	add	a0,a0,sp
   1c91a:	4645                	li	a2,17
   1c91c:	00001097          	auipc	ra,0x1
   1c920:	e5a080e7          	jalr	-422(ra) # 1d776 <memcpy>
   1c924:	0184d513          	srli	a0,s1,0x18
   1c928:	0104d593          	srli	a1,s1,0x10
   1c92c:	0084d613          	srli	a2,s1,0x8
   1c930:	72940ea3          	sb	s1,1853(s0)
   1c934:	72c40f23          	sb	a2,1854(s0)
   1c938:	72b40fa3          	sb	a1,1855(s0)
   1c93c:	74a40023          	sb	a0,1856(s0)
   1c940:	7ff10513          	addi	a0,sp,2047
   1c944:	6d450513          	addi	a0,a0,1748
   1c948:	6585                	lui	a1,0x1
   1c94a:	32458593          	addi	a1,a1,804 # 1324 <.Lline_table_start1+0x10f9>
   1c94e:	958a                	add	a1,a1,sp
   1c950:	4645                	li	a2,17
   1c952:	00001097          	auipc	ra,0x1
   1c956:	e24080e7          	jalr	-476(ra) # 1d776 <memcpy>
   1c95a:	6505                	lui	a0,0x1
   1c95c:	38050513          	addi	a0,a0,896 # 1380 <.Lline_table_start1+0x1155>
   1c960:	950a                	add	a0,a0,sp
   1c962:	7ff10593          	addi	a1,sp,2047
   1c966:	6cd58593          	addi	a1,a1,1741
   1c96a:	ffff9097          	auipc	ra,0xffff9
   1c96e:	2c2080e7          	jalr	706(ra) # 15c2c <_ZN20complex_dynamic_type3app17h91f079d541b07abeE>
   1c972:	3eca4503          	lbu	a0,1004(s4)
   1c976:	580514e3          	bnez	a0,1d6fe <_start+0x40b0>
   1c97a:	3eea4503          	lbu	a0,1006(s4)
   1c97e:	3eda4583          	lbu	a1,1005(s4)
   1c982:	3efa4603          	lbu	a2,1007(s4)
   1c986:	3f0a2483          	lw	s1,1008(s4)
   1c98a:	0522                	slli	a0,a0,0x8
   1c98c:	8d4d                	or	a0,a0,a1
   1c98e:	74a41923          	sh	a0,1874(s0)
   1c992:	74c40a23          	sb	a2,1876(s0)
   1c996:	6505                	lui	a0,0x1
   1c998:	38850513          	addi	a0,a0,904 # 1388 <.Lline_table_start1+0x115d>
   1c99c:	00a105b3          	add	a1,sp,a0
   1c9a0:	6505                	lui	a0,0x1
   1c9a2:	32450513          	addi	a0,a0,804 # 1324 <.Lline_table_start1+0x10f9>
   1c9a6:	950a                	add	a0,a0,sp
   1c9a8:	465d                	li	a2,23
   1c9aa:	00001097          	auipc	ra,0x1
   1c9ae:	dcc080e7          	jalr	-564(ra) # 1d776 <memcpy>
   1c9b2:	0184d513          	srli	a0,s1,0x18
   1c9b6:	0104d593          	srli	a1,s1,0x10
   1c9ba:	0084d613          	srli	a2,s1,0x8
   1c9be:	74940aa3          	sb	s1,1877(s0)
   1c9c2:	74c40b23          	sb	a2,1878(s0)
   1c9c6:	74b40ba3          	sb	a1,1879(s0)
   1c9ca:	74a40c23          	sb	a0,1880(s0)
   1c9ce:	7ff10513          	addi	a0,sp,2047
   1c9d2:	6ec50513          	addi	a0,a0,1772
   1c9d6:	6585                	lui	a1,0x1
   1c9d8:	32458593          	addi	a1,a1,804 # 1324 <.Lline_table_start1+0x10f9>
   1c9dc:	958a                	add	a1,a1,sp
   1c9de:	465d                	li	a2,23
   1c9e0:	00001097          	auipc	ra,0x1
   1c9e4:	d96080e7          	jalr	-618(ra) # 1d776 <memcpy>
   1c9e8:	6505                	lui	a0,0x1
   1c9ea:	38050513          	addi	a0,a0,896 # 1380 <.Lline_table_start1+0x1155>
   1c9ee:	950a                	add	a0,a0,sp
   1c9f0:	7ff10593          	addi	a1,sp,2047
   1c9f4:	6e558593          	addi	a1,a1,1765
   1c9f8:	ffffd097          	auipc	ra,0xffffd
   1c9fc:	97a080e7          	jalr	-1670(ra) # 19372 <_ZN20complex_dynamic_type3app17hfaf0e0fc5d50b53bE>
   1ca00:	3eca4503          	lbu	a0,1004(s4)
   1ca04:	4e051de3          	bnez	a0,1d6fe <_start+0x40b0>
   1ca08:	3eea4503          	lbu	a0,1006(s4)
   1ca0c:	3eda4583          	lbu	a1,1005(s4)
   1ca10:	3efa4603          	lbu	a2,1007(s4)
   1ca14:	3f0a2483          	lw	s1,1008(s4)
   1ca18:	0522                	slli	a0,a0,0x8
   1ca1a:	8d4d                	or	a0,a0,a1
   1ca1c:	76a41823          	sh	a0,1904(s0)
   1ca20:	76c40923          	sb	a2,1906(s0)
   1ca24:	6505                	lui	a0,0x1
   1ca26:	38850513          	addi	a0,a0,904 # 1388 <.Lline_table_start1+0x115d>
   1ca2a:	00a105b3          	add	a1,sp,a0
   1ca2e:	6505                	lui	a0,0x1
   1ca30:	32450513          	addi	a0,a0,804 # 1324 <.Lline_table_start1+0x10f9>
   1ca34:	950a                	add	a0,a0,sp
   1ca36:	03500613          	li	a2,53
   1ca3a:	00001097          	auipc	ra,0x1
   1ca3e:	d3c080e7          	jalr	-708(ra) # 1d776 <memcpy>
   1ca42:	0184d513          	srli	a0,s1,0x18
   1ca46:	0104d593          	srli	a1,s1,0x10
   1ca4a:	0084d613          	srli	a2,s1,0x8
   1ca4e:	769409a3          	sb	s1,1907(s0)
   1ca52:	76c40a23          	sb	a2,1908(s0)
   1ca56:	76b40aa3          	sb	a1,1909(s0)
   1ca5a:	76a40b23          	sb	a0,1910(s0)
   1ca5e:	7ff10513          	addi	a0,sp,2047
   1ca62:	70a50513          	addi	a0,a0,1802
   1ca66:	6585                	lui	a1,0x1
   1ca68:	32458593          	addi	a1,a1,804 # 1324 <.Lline_table_start1+0x10f9>
   1ca6c:	958a                	add	a1,a1,sp
   1ca6e:	03500613          	li	a2,53
   1ca72:	00001097          	auipc	ra,0x1
   1ca76:	d04080e7          	jalr	-764(ra) # 1d776 <memcpy>
   1ca7a:	6505                	lui	a0,0x1
   1ca7c:	38050513          	addi	a0,a0,896 # 1380 <.Lline_table_start1+0x1155>
   1ca80:	950a                	add	a0,a0,sp
   1ca82:	7ff10593          	addi	a1,sp,2047
   1ca86:	70358593          	addi	a1,a1,1795
   1ca8a:	ffffb097          	auipc	ra,0xffffb
   1ca8e:	f8a080e7          	jalr	-118(ra) # 17a14 <_ZN20complex_dynamic_type3app17hbe870290c068171aE>
   1ca92:	3eca4503          	lbu	a0,1004(s4)
   1ca96:	460514e3          	bnez	a0,1d6fe <_start+0x40b0>
   1ca9a:	3eea4503          	lbu	a0,1006(s4)
   1ca9e:	3eda4583          	lbu	a1,1005(s4)
   1caa2:	3efa4603          	lbu	a2,1007(s4)
   1caa6:	3f0a2483          	lw	s1,1008(s4)
   1caaa:	0522                	slli	a0,a0,0x8
   1caac:	8d4d                	or	a0,a0,a1
   1caae:	7aa41623          	sh	a0,1964(s0)
   1cab2:	7ac40723          	sb	a2,1966(s0)
   1cab6:	6505                	lui	a0,0x1
   1cab8:	38850513          	addi	a0,a0,904 # 1388 <.Lline_table_start1+0x115d>
   1cabc:	00a105b3          	add	a1,sp,a0
   1cac0:	6505                	lui	a0,0x1
   1cac2:	32450513          	addi	a0,a0,804 # 1324 <.Lline_table_start1+0x10f9>
   1cac6:	950a                	add	a0,a0,sp
   1cac8:	02500613          	li	a2,37
   1cacc:	00001097          	auipc	ra,0x1
   1cad0:	caa080e7          	jalr	-854(ra) # 1d776 <memcpy>
   1cad4:	0184d513          	srli	a0,s1,0x18
   1cad8:	0104d593          	srli	a1,s1,0x10
   1cadc:	0084d613          	srli	a2,s1,0x8
   1cae0:	7a9407a3          	sb	s1,1967(s0)
   1cae4:	7ac40823          	sb	a2,1968(s0)
   1cae8:	7ab408a3          	sb	a1,1969(s0)
   1caec:	7aa40923          	sb	a0,1970(s0)
   1caf0:	7ff10513          	addi	a0,sp,2047
   1caf4:	74650513          	addi	a0,a0,1862
   1caf8:	6585                	lui	a1,0x1
   1cafa:	32458593          	addi	a1,a1,804 # 1324 <.Lline_table_start1+0x10f9>
   1cafe:	958a                	add	a1,a1,sp
   1cb00:	02500613          	li	a2,37
   1cb04:	00001097          	auipc	ra,0x1
   1cb08:	c72080e7          	jalr	-910(ra) # 1d776 <memcpy>
   1cb0c:	6505                	lui	a0,0x1
   1cb0e:	38050513          	addi	a0,a0,896 # 1380 <.Lline_table_start1+0x1155>
   1cb12:	950a                	add	a0,a0,sp
   1cb14:	7ff10593          	addi	a1,sp,2047
   1cb18:	73f58593          	addi	a1,a1,1855
   1cb1c:	ffff5097          	auipc	ra,0xffff5
   1cb20:	174080e7          	jalr	372(ra) # 11c90 <_ZN20complex_dynamic_type3app17h18a839ecbfb1af55E>
   1cb24:	3eca4503          	lbu	a0,1004(s4)
   1cb28:	3c051be3          	bnez	a0,1d6fe <_start+0x40b0>
   1cb2c:	3eea4503          	lbu	a0,1006(s4)
   1cb30:	3eda4583          	lbu	a1,1005(s4)
   1cb34:	3efa4603          	lbu	a2,1007(s4)
   1cb38:	3f0a2483          	lw	s1,1008(s4)
   1cb3c:	0522                	slli	a0,a0,0x8
   1cb3e:	8d4d                	or	a0,a0,a1
   1cb40:	7ca41c23          	sh	a0,2008(s0)
   1cb44:	7cc40d23          	sb	a2,2010(s0)
   1cb48:	6505                	lui	a0,0x1
   1cb4a:	38850513          	addi	a0,a0,904 # 1388 <.Lline_table_start1+0x115d>
   1cb4e:	00a105b3          	add	a1,sp,a0
   1cb52:	6505                	lui	a0,0x1
   1cb54:	32450513          	addi	a0,a0,804 # 1324 <.Lline_table_start1+0x10f9>
   1cb58:	950a                	add	a0,a0,sp
   1cb5a:	02000613          	li	a2,32
   1cb5e:	00001097          	auipc	ra,0x1
   1cb62:	c18080e7          	jalr	-1000(ra) # 1d776 <memcpy>
   1cb66:	0184d513          	srli	a0,s1,0x18
   1cb6a:	0104d593          	srli	a1,s1,0x10
   1cb6e:	0084d613          	srli	a2,s1,0x8
   1cb72:	7c940da3          	sb	s1,2011(s0)
   1cb76:	7cc40e23          	sb	a2,2012(s0)
   1cb7a:	7cb40ea3          	sb	a1,2013(s0)
   1cb7e:	7ca40f23          	sb	a0,2014(s0)
   1cb82:	7ff10513          	addi	a0,sp,2047
   1cb86:	77250513          	addi	a0,a0,1906
   1cb8a:	6585                	lui	a1,0x1
   1cb8c:	32458593          	addi	a1,a1,804 # 1324 <.Lline_table_start1+0x10f9>
   1cb90:	958a                	add	a1,a1,sp
   1cb92:	02000613          	li	a2,32
   1cb96:	00001097          	auipc	ra,0x1
   1cb9a:	be0080e7          	jalr	-1056(ra) # 1d776 <memcpy>
   1cb9e:	6505                	lui	a0,0x1
   1cba0:	38050513          	addi	a0,a0,896 # 1380 <.Lline_table_start1+0x1155>
   1cba4:	950a                	add	a0,a0,sp
   1cba6:	7ff10593          	addi	a1,sp,2047
   1cbaa:	76b58593          	addi	a1,a1,1899
   1cbae:	ffff6097          	auipc	ra,0xffff6
   1cbb2:	614080e7          	jalr	1556(ra) # 131c2 <_ZN20complex_dynamic_type3app17h46012967a3e9e75aE>
   1cbb6:	3eca4503          	lbu	a0,1004(s4)
   1cbba:	340512e3          	bnez	a0,1d6fe <_start+0x40b0>
   1cbbe:	3eea4503          	lbu	a0,1006(s4)
   1cbc2:	3eda4583          	lbu	a1,1005(s4)
   1cbc6:	3efa4603          	lbu	a2,1007(s4)
   1cbca:	3f0a2403          	lw	s0,1008(s4)
   1cbce:	0522                	slli	a0,a0,0x8
   1cbd0:	8d4d                	or	a0,a0,a1
   1cbd2:	feaa1f23          	sh	a0,-2(s4)
   1cbd6:	00ca0023          	sb	a2,0(s4)
   1cbda:	6505                	lui	a0,0x1
   1cbdc:	38850513          	addi	a0,a0,904 # 1388 <.Lline_table_start1+0x115d>
   1cbe0:	00a105b3          	add	a1,sp,a0
   1cbe4:	6505                	lui	a0,0x1
   1cbe6:	32450513          	addi	a0,a0,804 # 1324 <.Lline_table_start1+0x10f9>
   1cbea:	950a                	add	a0,a0,sp
   1cbec:	04800613          	li	a2,72
   1cbf0:	00001097          	auipc	ra,0x1
   1cbf4:	b86080e7          	jalr	-1146(ra) # 1d776 <memcpy>
   1cbf8:	01845513          	srli	a0,s0,0x18
   1cbfc:	01045593          	srli	a1,s0,0x10
   1cc00:	00845613          	srli	a2,s0,0x8
   1cc04:	008a00a3          	sb	s0,1(s4)
   1cc08:	00ca0123          	sb	a2,2(s4)
   1cc0c:	00ba01a3          	sb	a1,3(s4)
   1cc10:	00aa0223          	sb	a0,4(s4)
   1cc14:	7ff10513          	addi	a0,sp,2047
   1cc18:	79a50513          	addi	a0,a0,1946
   1cc1c:	6585                	lui	a1,0x1
   1cc1e:	32458593          	addi	a1,a1,804 # 1324 <.Lline_table_start1+0x10f9>
   1cc22:	958a                	add	a1,a1,sp
   1cc24:	04800613          	li	a2,72
   1cc28:	00001097          	auipc	ra,0x1
   1cc2c:	b4e080e7          	jalr	-1202(ra) # 1d776 <memcpy>
   1cc30:	6505                	lui	a0,0x1
   1cc32:	38050513          	addi	a0,a0,896 # 1380 <.Lline_table_start1+0x1155>
   1cc36:	950a                	add	a0,a0,sp
   1cc38:	7ff10593          	addi	a1,sp,2047
   1cc3c:	79358593          	addi	a1,a1,1939
   1cc40:	ffff9097          	auipc	ra,0xffff9
   1cc44:	70a080e7          	jalr	1802(ra) # 1634a <_ZN20complex_dynamic_type3app17h98063d9946a3ee61E>
   1cc48:	3eca4503          	lbu	a0,1004(s4)
   1cc4c:	2a0519e3          	bnez	a0,1d6fe <_start+0x40b0>
   1cc50:	3eea4503          	lbu	a0,1006(s4)
   1cc54:	3eda4583          	lbu	a1,1005(s4)
   1cc58:	3efa4603          	lbu	a2,1007(s4)
   1cc5c:	3f0a2403          	lw	s0,1008(s4)
   1cc60:	0522                	slli	a0,a0,0x8
   1cc62:	8d4d                	or	a0,a0,a1
   1cc64:	04aa1723          	sh	a0,78(s4)
   1cc68:	04ca0823          	sb	a2,80(s4)
   1cc6c:	6505                	lui	a0,0x1
   1cc6e:	38850513          	addi	a0,a0,904 # 1388 <.Lline_table_start1+0x115d>
   1cc72:	00a105b3          	add	a1,sp,a0
   1cc76:	6505                	lui	a0,0x1
   1cc78:	32450513          	addi	a0,a0,804 # 1324 <.Lline_table_start1+0x10f9>
   1cc7c:	950a                	add	a0,a0,sp
   1cc7e:	02e00613          	li	a2,46
   1cc82:	00001097          	auipc	ra,0x1
   1cc86:	af4080e7          	jalr	-1292(ra) # 1d776 <memcpy>
   1cc8a:	01845513          	srli	a0,s0,0x18
   1cc8e:	01045593          	srli	a1,s0,0x10
   1cc92:	00845613          	srli	a2,s0,0x8
   1cc96:	048a08a3          	sb	s0,81(s4)
   1cc9a:	04ca0923          	sb	a2,82(s4)
   1cc9e:	04ba09a3          	sb	a1,83(s4)
   1cca2:	04aa0a23          	sb	a0,84(s4)
   1cca6:	7ff10513          	addi	a0,sp,2047
   1ccaa:	7ea50513          	addi	a0,a0,2026
   1ccae:	6585                	lui	a1,0x1
   1ccb0:	32458593          	addi	a1,a1,804 # 1324 <.Lline_table_start1+0x10f9>
   1ccb4:	958a                	add	a1,a1,sp
   1ccb6:	02e00613          	li	a2,46
   1ccba:	00001097          	auipc	ra,0x1
   1ccbe:	abc080e7          	jalr	-1348(ra) # 1d776 <memcpy>
   1ccc2:	6505                	lui	a0,0x1
   1ccc4:	38050513          	addi	a0,a0,896 # 1380 <.Lline_table_start1+0x1155>
   1ccc8:	950a                	add	a0,a0,sp
   1ccca:	7ff10593          	addi	a1,sp,2047
   1ccce:	7e358593          	addi	a1,a1,2019
   1ccd2:	ffff8097          	auipc	ra,0xffff8
   1ccd6:	28c080e7          	jalr	652(ra) # 14f5e <_ZN20complex_dynamic_type3app17h79084ab37b9f87a3E>
   1ccda:	3eca4503          	lbu	a0,1004(s4)
   1ccde:	220510e3          	bnez	a0,1d6fe <_start+0x40b0>
   1cce2:	3eea4503          	lbu	a0,1006(s4)
   1cce6:	3eda4583          	lbu	a1,1005(s4)
   1ccea:	3efa4603          	lbu	a2,1007(s4)
   1ccee:	3f0a2403          	lw	s0,1008(s4)
   1ccf2:	0522                	slli	a0,a0,0x8
   1ccf4:	8d4d                	or	a0,a0,a1
   1ccf6:	08aa1223          	sh	a0,132(s4)
   1ccfa:	08ca0323          	sb	a2,134(s4)
   1ccfe:	6505                	lui	a0,0x1
   1cd00:	38850513          	addi	a0,a0,904 # 1388 <.Lline_table_start1+0x115d>
   1cd04:	00a105b3          	add	a1,sp,a0
   1cd08:	6505                	lui	a0,0x1
   1cd0a:	32450513          	addi	a0,a0,804 # 1324 <.Lline_table_start1+0x10f9>
   1cd0e:	950a                	add	a0,a0,sp
   1cd10:	03800613          	li	a2,56
   1cd14:	00001097          	auipc	ra,0x1
   1cd18:	a62080e7          	jalr	-1438(ra) # 1d776 <memcpy>
   1cd1c:	01845513          	srli	a0,s0,0x18
   1cd20:	01045593          	srli	a1,s0,0x10
   1cd24:	00845613          	srli	a2,s0,0x8
   1cd28:	088a03a3          	sb	s0,135(s4)
   1cd2c:	08ca0423          	sb	a2,136(s4)
   1cd30:	08ba04a3          	sb	a1,137(s4)
   1cd34:	08aa0523          	sb	a0,138(s4)
   1cd38:	6505                	lui	a0,0x1
   1cd3a:	057d                	addi	a0,a0,31 # 101f <.Lline_table_start1+0xdf4>
   1cd3c:	950a                	add	a0,a0,sp
   1cd3e:	6585                	lui	a1,0x1
   1cd40:	32458593          	addi	a1,a1,804 # 1324 <.Lline_table_start1+0x10f9>
   1cd44:	958a                	add	a1,a1,sp
   1cd46:	03800613          	li	a2,56
   1cd4a:	00001097          	auipc	ra,0x1
   1cd4e:	a2c080e7          	jalr	-1492(ra) # 1d776 <memcpy>
   1cd52:	6505                	lui	a0,0x1
   1cd54:	38050513          	addi	a0,a0,896 # 1380 <.Lline_table_start1+0x1155>
   1cd58:	950a                	add	a0,a0,sp
   1cd5a:	6585                	lui	a1,0x1
   1cd5c:	05e1                	addi	a1,a1,24 # 1018 <.Lline_table_start1+0xded>
   1cd5e:	958a                	add	a1,a1,sp
   1cd60:	ffff8097          	auipc	ra,0xffff8
   1cd64:	640080e7          	jalr	1600(ra) # 153a0 <_ZN20complex_dynamic_type3app17h83b66306683bba47E>
   1cd68:	3eca4503          	lbu	a0,1004(s4)
   1cd6c:	180519e3          	bnez	a0,1d6fe <_start+0x40b0>
   1cd70:	3eda4503          	lbu	a0,1005(s4)
   1cd74:	3eea4583          	lbu	a1,1006(s4)
   1cd78:	3efa4603          	lbu	a2,1007(s4)
   1cd7c:	3f0a2683          	lw	a3,1008(s4)
   1cd80:	3f4a2703          	lw	a4,1012(s4)
   1cd84:	3f8a2783          	lw	a5,1016(s4)
   1cd88:	3fca1483          	lh	s1,1020(s4)
   1cd8c:	05a2                	slli	a1,a1,0x8
   1cd8e:	38ea2823          	sw	a4,912(s4)
   1cd92:	38fa2a23          	sw	a5,916(s4)
   1cd96:	389a1c23          	sh	s1,920(s4)
   1cd9a:	0186d713          	srli	a4,a3,0x18
   1cd9e:	8d4d                	or	a0,a0,a1
   1cda0:	0106d593          	srli	a1,a3,0x10
   1cda4:	0cba04a3          	sb	a1,201(s4)
   1cda8:	0cea0523          	sb	a4,202(s4)
   1cdac:	0086d593          	srli	a1,a3,0x8
   1cdb0:	0caa1223          	sh	a0,196(s4)
   1cdb4:	0cca0323          	sb	a2,198(s4)
   1cdb8:	0cda03a3          	sb	a3,199(s4)
   1cdbc:	0cba0423          	sb	a1,200(s4)
   1cdc0:	6505                	lui	a0,0x1
   1cdc2:	05f50513          	addi	a0,a0,95 # 105f <.Lline_table_start1+0xe34>
   1cdc6:	950a                	add	a0,a0,sp
   1cdc8:	6585                	lui	a1,0x1
   1cdca:	32458593          	addi	a1,a1,804 # 1324 <.Lline_table_start1+0x10f9>
   1cdce:	958a                	add	a1,a1,sp
   1cdd0:	4629                	li	a2,10
   1cdd2:	00001097          	auipc	ra,0x1
   1cdd6:	9a4080e7          	jalr	-1628(ra) # 1d776 <memcpy>
   1cdda:	6505                	lui	a0,0x1
   1cddc:	38050513          	addi	a0,a0,896 # 1380 <.Lline_table_start1+0x1155>
   1cde0:	950a                	add	a0,a0,sp
   1cde2:	6585                	lui	a1,0x1
   1cde4:	05858593          	addi	a1,a1,88 # 1058 <.Lline_table_start1+0xe2d>
   1cde8:	958a                	add	a1,a1,sp
   1cdea:	ffff6097          	auipc	ra,0xffff6
   1cdee:	548080e7          	jalr	1352(ra) # 13332 <_ZN20complex_dynamic_type3app17h4823e22c3f2cc86eE>
   1cdf2:	3eca4503          	lbu	a0,1004(s4)
   1cdf6:	100514e3          	bnez	a0,1d6fe <_start+0x40b0>
   1cdfa:	3eea4503          	lbu	a0,1006(s4)
   1cdfe:	3eda4583          	lbu	a1,1005(s4)
   1ce02:	3efa4603          	lbu	a2,1007(s4)
   1ce06:	3f0a2403          	lw	s0,1008(s4)
   1ce0a:	0522                	slli	a0,a0,0x8
   1ce0c:	8d4d                	or	a0,a0,a1
   1ce0e:	0caa1b23          	sh	a0,214(s4)
   1ce12:	0cca0c23          	sb	a2,216(s4)
   1ce16:	6505                	lui	a0,0x1
   1ce18:	38850513          	addi	a0,a0,904 # 1388 <.Lline_table_start1+0x115d>
   1ce1c:	00a105b3          	add	a1,sp,a0
   1ce20:	6505                	lui	a0,0x1
   1ce22:	32450513          	addi	a0,a0,804 # 1324 <.Lline_table_start1+0x10f9>
   1ce26:	950a                	add	a0,a0,sp
   1ce28:	03800613          	li	a2,56
   1ce2c:	00001097          	auipc	ra,0x1
   1ce30:	94a080e7          	jalr	-1718(ra) # 1d776 <memcpy>
   1ce34:	01845513          	srli	a0,s0,0x18
   1ce38:	01045593          	srli	a1,s0,0x10
   1ce3c:	00845613          	srli	a2,s0,0x8
   1ce40:	0c8a0ca3          	sb	s0,217(s4)
   1ce44:	0cca0d23          	sb	a2,218(s4)
   1ce48:	0cba0da3          	sb	a1,219(s4)
   1ce4c:	0caa0e23          	sb	a0,220(s4)
   1ce50:	6505                	lui	a0,0x1
   1ce52:	07150513          	addi	a0,a0,113 # 1071 <.Lline_table_start1+0xe46>
   1ce56:	950a                	add	a0,a0,sp
   1ce58:	6585                	lui	a1,0x1
   1ce5a:	32458593          	addi	a1,a1,804 # 1324 <.Lline_table_start1+0x10f9>
   1ce5e:	958a                	add	a1,a1,sp
   1ce60:	03800613          	li	a2,56
   1ce64:	00001097          	auipc	ra,0x1
   1ce68:	912080e7          	jalr	-1774(ra) # 1d776 <memcpy>
   1ce6c:	6505                	lui	a0,0x1
   1ce6e:	38050513          	addi	a0,a0,896 # 1380 <.Lline_table_start1+0x1155>
   1ce72:	950a                	add	a0,a0,sp
   1ce74:	6585                	lui	a1,0x1
   1ce76:	06a58593          	addi	a1,a1,106 # 106a <.Lline_table_start1+0xe3f>
   1ce7a:	958a                	add	a1,a1,sp
   1ce7c:	ffffc097          	auipc	ra,0xffffc
   1ce80:	836080e7          	jalr	-1994(ra) # 186b2 <_ZN20complex_dynamic_type3app17head6ea332cf9fcdeE>
   1ce84:	3eca4503          	lbu	a0,1004(s4)
   1ce88:	06051be3          	bnez	a0,1d6fe <_start+0x40b0>
   1ce8c:	3eea4503          	lbu	a0,1006(s4)
   1ce90:	3eda4583          	lbu	a1,1005(s4)
   1ce94:	3efa4603          	lbu	a2,1007(s4)
   1ce98:	3f0a2403          	lw	s0,1008(s4)
   1ce9c:	0522                	slli	a0,a0,0x8
   1ce9e:	8d4d                	or	a0,a0,a1
   1cea0:	10aa1b23          	sh	a0,278(s4)
   1cea4:	10ca0c23          	sb	a2,280(s4)
   1cea8:	6505                	lui	a0,0x1
   1ceaa:	38850513          	addi	a0,a0,904 # 1388 <.Lline_table_start1+0x115d>
   1ceae:	00a105b3          	add	a1,sp,a0
   1ceb2:	6505                	lui	a0,0x1
   1ceb4:	32450513          	addi	a0,a0,804 # 1324 <.Lline_table_start1+0x10f9>
   1ceb8:	950a                	add	a0,a0,sp
   1ceba:	4655                	li	a2,21
   1cebc:	00001097          	auipc	ra,0x1
   1cec0:	8ba080e7          	jalr	-1862(ra) # 1d776 <memcpy>
   1cec4:	01845513          	srli	a0,s0,0x18
   1cec8:	01045593          	srli	a1,s0,0x10
   1cecc:	00845613          	srli	a2,s0,0x8
   1ced0:	108a0ca3          	sb	s0,281(s4)
   1ced4:	10ca0d23          	sb	a2,282(s4)
   1ced8:	10ba0da3          	sb	a1,283(s4)
   1cedc:	10aa0e23          	sb	a0,284(s4)
   1cee0:	6505                	lui	a0,0x1
   1cee2:	0b150513          	addi	a0,a0,177 # 10b1 <.Lline_table_start1+0xe86>
   1cee6:	950a                	add	a0,a0,sp
   1cee8:	6585                	lui	a1,0x1
   1ceea:	32458593          	addi	a1,a1,804 # 1324 <.Lline_table_start1+0x10f9>
   1ceee:	958a                	add	a1,a1,sp
   1cef0:	4655                	li	a2,21
   1cef2:	00001097          	auipc	ra,0x1
   1cef6:	884080e7          	jalr	-1916(ra) # 1d776 <memcpy>
   1cefa:	6505                	lui	a0,0x1
   1cefc:	38050513          	addi	a0,a0,896 # 1380 <.Lline_table_start1+0x1155>
   1cf00:	950a                	add	a0,a0,sp
   1cf02:	6585                	lui	a1,0x1
   1cf04:	0aa58593          	addi	a1,a1,170 # 10aa <.Lline_table_start1+0xe7f>
   1cf08:	958a                	add	a1,a1,sp
   1cf0a:	ffff9097          	auipc	ra,0xffff9
   1cf0e:	2d4080e7          	jalr	724(ra) # 161de <_ZN20complex_dynamic_type3app17h971f4c832c03cc3eE>
   1cf12:	3eca4503          	lbu	a0,1004(s4)
   1cf16:	7e051463          	bnez	a0,1d6fe <_start+0x40b0>
   1cf1a:	3eea4503          	lbu	a0,1006(s4)
   1cf1e:	3eda4583          	lbu	a1,1005(s4)
   1cf22:	3efa4603          	lbu	a2,1007(s4)
   1cf26:	3f0a2403          	lw	s0,1008(s4)
   1cf2a:	0522                	slli	a0,a0,0x8
   1cf2c:	8d4d                	or	a0,a0,a1
   1cf2e:	12aa1923          	sh	a0,306(s4)
   1cf32:	12ca0a23          	sb	a2,308(s4)
   1cf36:	6505                	lui	a0,0x1
   1cf38:	38850513          	addi	a0,a0,904 # 1388 <.Lline_table_start1+0x115d>
   1cf3c:	00a105b3          	add	a1,sp,a0
   1cf40:	6505                	lui	a0,0x1
   1cf42:	32450513          	addi	a0,a0,804 # 1324 <.Lline_table_start1+0x10f9>
   1cf46:	950a                	add	a0,a0,sp
   1cf48:	05600613          	li	a2,86
   1cf4c:	00001097          	auipc	ra,0x1
   1cf50:	82a080e7          	jalr	-2006(ra) # 1d776 <memcpy>
   1cf54:	01845513          	srli	a0,s0,0x18
   1cf58:	01045593          	srli	a1,s0,0x10
   1cf5c:	00845613          	srli	a2,s0,0x8
   1cf60:	128a0aa3          	sb	s0,309(s4)
   1cf64:	12ca0b23          	sb	a2,310(s4)
   1cf68:	12ba0ba3          	sb	a1,311(s4)
   1cf6c:	12aa0c23          	sb	a0,312(s4)
   1cf70:	6505                	lui	a0,0x1
   1cf72:	0cd50513          	addi	a0,a0,205 # 10cd <.Lline_table_start1+0xea2>
   1cf76:	950a                	add	a0,a0,sp
   1cf78:	6585                	lui	a1,0x1
   1cf7a:	32458593          	addi	a1,a1,804 # 1324 <.Lline_table_start1+0x10f9>
   1cf7e:	958a                	add	a1,a1,sp
   1cf80:	05600613          	li	a2,86
   1cf84:	00000097          	auipc	ra,0x0
   1cf88:	7f2080e7          	jalr	2034(ra) # 1d776 <memcpy>
   1cf8c:	6505                	lui	a0,0x1
   1cf8e:	38050513          	addi	a0,a0,896 # 1380 <.Lline_table_start1+0x1155>
   1cf92:	950a                	add	a0,a0,sp
   1cf94:	6585                	lui	a1,0x1
   1cf96:	0c658593          	addi	a1,a1,198 # 10c6 <.Lline_table_start1+0xe9b>
   1cf9a:	958a                	add	a1,a1,sp
   1cf9c:	ffff8097          	auipc	ra,0xffff8
   1cfa0:	b96080e7          	jalr	-1130(ra) # 14b32 <_ZN20complex_dynamic_type3app17h6b00f433c73f2c53E>
   1cfa4:	3eca4503          	lbu	a0,1004(s4)
   1cfa8:	74051b63          	bnez	a0,1d6fe <_start+0x40b0>
   1cfac:	3eda4503          	lbu	a0,1005(s4)
   1cfb0:	3eea4583          	lbu	a1,1006(s4)
   1cfb4:	3efa4603          	lbu	a2,1007(s4)
   1cfb8:	3f0a2683          	lw	a3,1008(s4)
   1cfbc:	3f4a2703          	lw	a4,1012(s4)
   1cfc0:	3f8a2783          	lw	a5,1016(s4)
   1cfc4:	3fca1483          	lh	s1,1020(s4)
   1cfc8:	3fea4403          	lbu	s0,1022(s4)
   1cfcc:	05a2                	slli	a1,a1,0x8
   1cfce:	38ea2823          	sw	a4,912(s4)
   1cfd2:	38fa2a23          	sw	a5,916(s4)
   1cfd6:	389a1c23          	sh	s1,920(s4)
   1cfda:	388a0d23          	sb	s0,922(s4)
   1cfde:	0186d713          	srli	a4,a3,0x18
   1cfe2:	8d4d                	or	a0,a0,a1
   1cfe4:	0106d593          	srli	a1,a3,0x10
   1cfe8:	18ba0aa3          	sb	a1,405(s4)
   1cfec:	18ea0b23          	sb	a4,406(s4)
   1cff0:	0086d593          	srli	a1,a3,0x8
   1cff4:	18aa1823          	sh	a0,400(s4)
   1cff8:	18ca0923          	sb	a2,402(s4)
   1cffc:	18da09a3          	sb	a3,403(s4)
   1d000:	18ba0a23          	sb	a1,404(s4)
   1d004:	6505                	lui	a0,0x1
   1d006:	12b50513          	addi	a0,a0,299 # 112b <.Lline_table_start1+0xf00>
   1d00a:	950a                	add	a0,a0,sp
   1d00c:	6585                	lui	a1,0x1
   1d00e:	32458593          	addi	a1,a1,804 # 1324 <.Lline_table_start1+0x10f9>
   1d012:	958a                	add	a1,a1,sp
   1d014:	462d                	li	a2,11
   1d016:	00000097          	auipc	ra,0x0
   1d01a:	760080e7          	jalr	1888(ra) # 1d776 <memcpy>
   1d01e:	6505                	lui	a0,0x1
   1d020:	38050513          	addi	a0,a0,896 # 1380 <.Lline_table_start1+0x1155>
   1d024:	950a                	add	a0,a0,sp
   1d026:	6585                	lui	a1,0x1
   1d028:	12458593          	addi	a1,a1,292 # 1124 <.Lline_table_start1+0xef9>
   1d02c:	958a                	add	a1,a1,sp
   1d02e:	ffff4097          	auipc	ra,0xffff4
   1d032:	274080e7          	jalr	628(ra) # 112a2 <_ZN20complex_dynamic_type3app17h04b0b8545ea2f98aE>
   1d036:	3eca4503          	lbu	a0,1004(s4)
   1d03a:	6c051263          	bnez	a0,1d6fe <_start+0x40b0>
   1d03e:	3eea4503          	lbu	a0,1006(s4)
   1d042:	3eda4583          	lbu	a1,1005(s4)
   1d046:	3efa4603          	lbu	a2,1007(s4)
   1d04a:	3f0a2403          	lw	s0,1008(s4)
   1d04e:	0522                	slli	a0,a0,0x8
   1d050:	8d4d                	or	a0,a0,a1
   1d052:	1aaa1123          	sh	a0,418(s4)
   1d056:	1aca0223          	sb	a2,420(s4)
   1d05a:	6505                	lui	a0,0x1
   1d05c:	38850513          	addi	a0,a0,904 # 1388 <.Lline_table_start1+0x115d>
   1d060:	00a105b3          	add	a1,sp,a0
   1d064:	6505                	lui	a0,0x1
   1d066:	32450513          	addi	a0,a0,804 # 1324 <.Lline_table_start1+0x10f9>
   1d06a:	950a                	add	a0,a0,sp
   1d06c:	03d00613          	li	a2,61
   1d070:	00000097          	auipc	ra,0x0
   1d074:	706080e7          	jalr	1798(ra) # 1d776 <memcpy>
   1d078:	01845513          	srli	a0,s0,0x18
   1d07c:	01045593          	srli	a1,s0,0x10
   1d080:	00845613          	srli	a2,s0,0x8
   1d084:	1a8a02a3          	sb	s0,421(s4)
   1d088:	1aca0323          	sb	a2,422(s4)
   1d08c:	1aba03a3          	sb	a1,423(s4)
   1d090:	1aaa0423          	sb	a0,424(s4)
   1d094:	6505                	lui	a0,0x1
   1d096:	13d50513          	addi	a0,a0,317 # 113d <.Lline_table_start1+0xf12>
   1d09a:	950a                	add	a0,a0,sp
   1d09c:	6585                	lui	a1,0x1
   1d09e:	32458593          	addi	a1,a1,804 # 1324 <.Lline_table_start1+0x10f9>
   1d0a2:	958a                	add	a1,a1,sp
   1d0a4:	03d00613          	li	a2,61
   1d0a8:	00000097          	auipc	ra,0x0
   1d0ac:	6ce080e7          	jalr	1742(ra) # 1d776 <memcpy>
   1d0b0:	6505                	lui	a0,0x1
   1d0b2:	38050513          	addi	a0,a0,896 # 1380 <.Lline_table_start1+0x1155>
   1d0b6:	950a                	add	a0,a0,sp
   1d0b8:	6585                	lui	a1,0x1
   1d0ba:	13658593          	addi	a1,a1,310 # 1136 <.Lline_table_start1+0xf0b>
   1d0be:	958a                	add	a1,a1,sp
   1d0c0:	ffffb097          	auipc	ra,0xffffb
   1d0c4:	758080e7          	jalr	1880(ra) # 18818 <_ZN20complex_dynamic_type3app17heb2674772ffcc96dE>
   1d0c8:	3eca4503          	lbu	a0,1004(s4)
   1d0cc:	62051963          	bnez	a0,1d6fe <_start+0x40b0>
   1d0d0:	3eea4503          	lbu	a0,1006(s4)
   1d0d4:	3eda4583          	lbu	a1,1005(s4)
   1d0d8:	3efa4603          	lbu	a2,1007(s4)
   1d0dc:	3f0a2403          	lw	s0,1008(s4)
   1d0e0:	0522                	slli	a0,a0,0x8
   1d0e2:	8d4d                	or	a0,a0,a1
   1d0e4:	1eaa1323          	sh	a0,486(s4)
   1d0e8:	1eca0423          	sb	a2,488(s4)
   1d0ec:	6505                	lui	a0,0x1
   1d0ee:	38850513          	addi	a0,a0,904 # 1388 <.Lline_table_start1+0x115d>
   1d0f2:	00a105b3          	add	a1,sp,a0
   1d0f6:	6505                	lui	a0,0x1
   1d0f8:	32450513          	addi	a0,a0,804 # 1324 <.Lline_table_start1+0x10f9>
   1d0fc:	950a                	add	a0,a0,sp
   1d0fe:	4671                	li	a2,28
   1d100:	00000097          	auipc	ra,0x0
   1d104:	676080e7          	jalr	1654(ra) # 1d776 <memcpy>
   1d108:	01845513          	srli	a0,s0,0x18
   1d10c:	01045593          	srli	a1,s0,0x10
   1d110:	00845613          	srli	a2,s0,0x8
   1d114:	1e8a04a3          	sb	s0,489(s4)
   1d118:	1eca0523          	sb	a2,490(s4)
   1d11c:	1eba05a3          	sb	a1,491(s4)
   1d120:	1eaa0623          	sb	a0,492(s4)
   1d124:	6505                	lui	a0,0x1
   1d126:	18150513          	addi	a0,a0,385 # 1181 <.Lline_table_start1+0xf56>
   1d12a:	950a                	add	a0,a0,sp
   1d12c:	6585                	lui	a1,0x1
   1d12e:	32458593          	addi	a1,a1,804 # 1324 <.Lline_table_start1+0x10f9>
   1d132:	958a                	add	a1,a1,sp
   1d134:	4671                	li	a2,28
   1d136:	00000097          	auipc	ra,0x0
   1d13a:	640080e7          	jalr	1600(ra) # 1d776 <memcpy>
   1d13e:	6505                	lui	a0,0x1
   1d140:	38050513          	addi	a0,a0,896 # 1380 <.Lline_table_start1+0x1155>
   1d144:	950a                	add	a0,a0,sp
   1d146:	6585                	lui	a1,0x1
   1d148:	17a58593          	addi	a1,a1,378 # 117a <.Lline_table_start1+0xf4f>
   1d14c:	958a                	add	a1,a1,sp
   1d14e:	ffff6097          	auipc	ra,0xffff6
   1d152:	ac2080e7          	jalr	-1342(ra) # 12c10 <_ZN20complex_dynamic_type3app17h34489dfa8f16c9f5E>
   1d156:	3eca4503          	lbu	a0,1004(s4)
   1d15a:	5a051263          	bnez	a0,1d6fe <_start+0x40b0>
   1d15e:	3eea4503          	lbu	a0,1006(s4)
   1d162:	3eda4583          	lbu	a1,1005(s4)
   1d166:	3efa4603          	lbu	a2,1007(s4)
   1d16a:	3f0a2403          	lw	s0,1008(s4)
   1d16e:	0522                	slli	a0,a0,0x8
   1d170:	8d4d                	or	a0,a0,a1
   1d172:	20aa1523          	sh	a0,522(s4)
   1d176:	20ca0623          	sb	a2,524(s4)
   1d17a:	6505                	lui	a0,0x1
   1d17c:	38850513          	addi	a0,a0,904 # 1388 <.Lline_table_start1+0x115d>
   1d180:	00a105b3          	add	a1,sp,a0
   1d184:	6505                	lui	a0,0x1
   1d186:	32450513          	addi	a0,a0,804 # 1324 <.Lline_table_start1+0x10f9>
   1d18a:	950a                	add	a0,a0,sp
   1d18c:	4675                	li	a2,29
   1d18e:	00000097          	auipc	ra,0x0
   1d192:	5e8080e7          	jalr	1512(ra) # 1d776 <memcpy>
   1d196:	01845513          	srli	a0,s0,0x18
   1d19a:	01045593          	srli	a1,s0,0x10
   1d19e:	00845613          	srli	a2,s0,0x8
   1d1a2:	208a06a3          	sb	s0,525(s4)
   1d1a6:	20ca0723          	sb	a2,526(s4)
   1d1aa:	20ba07a3          	sb	a1,527(s4)
   1d1ae:	20aa0823          	sb	a0,528(s4)
   1d1b2:	6505                	lui	a0,0x1
   1d1b4:	1a550513          	addi	a0,a0,421 # 11a5 <.Lline_table_start1+0xf7a>
   1d1b8:	950a                	add	a0,a0,sp
   1d1ba:	6585                	lui	a1,0x1
   1d1bc:	32458593          	addi	a1,a1,804 # 1324 <.Lline_table_start1+0x10f9>
   1d1c0:	958a                	add	a1,a1,sp
   1d1c2:	4675                	li	a2,29
   1d1c4:	00000097          	auipc	ra,0x0
   1d1c8:	5b2080e7          	jalr	1458(ra) # 1d776 <memcpy>
   1d1cc:	6505                	lui	a0,0x1
   1d1ce:	38050513          	addi	a0,a0,896 # 1380 <.Lline_table_start1+0x1155>
   1d1d2:	950a                	add	a0,a0,sp
   1d1d4:	6585                	lui	a1,0x1
   1d1d6:	19e58593          	addi	a1,a1,414 # 119e <.Lline_table_start1+0xf73>
   1d1da:	958a                	add	a1,a1,sp
   1d1dc:	ffff5097          	auipc	ra,0xffff5
   1d1e0:	946080e7          	jalr	-1722(ra) # 11b22 <_ZN20complex_dynamic_type3app17h1720a3021873b6f8E>
   1d1e4:	3eca4503          	lbu	a0,1004(s4)
   1d1e8:	50051b63          	bnez	a0,1d6fe <_start+0x40b0>
   1d1ec:	3eea4503          	lbu	a0,1006(s4)
   1d1f0:	3eda4583          	lbu	a1,1005(s4)
   1d1f4:	3efa4603          	lbu	a2,1007(s4)
   1d1f8:	3f0a2403          	lw	s0,1008(s4)
   1d1fc:	0522                	slli	a0,a0,0x8
   1d1fe:	8d4d                	or	a0,a0,a1
   1d200:	22aa1723          	sh	a0,558(s4)
   1d204:	22ca0823          	sb	a2,560(s4)
   1d208:	6505                	lui	a0,0x1
   1d20a:	38850513          	addi	a0,a0,904 # 1388 <.Lline_table_start1+0x115d>
   1d20e:	00a105b3          	add	a1,sp,a0
   1d212:	6505                	lui	a0,0x1
   1d214:	32450513          	addi	a0,a0,804 # 1324 <.Lline_table_start1+0x10f9>
   1d218:	950a                	add	a0,a0,sp
   1d21a:	02800613          	li	a2,40
   1d21e:	00000097          	auipc	ra,0x0
   1d222:	558080e7          	jalr	1368(ra) # 1d776 <memcpy>
   1d226:	01845513          	srli	a0,s0,0x18
   1d22a:	01045593          	srli	a1,s0,0x10
   1d22e:	00845613          	srli	a2,s0,0x8
   1d232:	228a08a3          	sb	s0,561(s4)
   1d236:	22ca0923          	sb	a2,562(s4)
   1d23a:	22ba09a3          	sb	a1,563(s4)
   1d23e:	22aa0a23          	sb	a0,564(s4)
   1d242:	6505                	lui	a0,0x1
   1d244:	1c950513          	addi	a0,a0,457 # 11c9 <.Lline_table_start1+0xf9e>
   1d248:	950a                	add	a0,a0,sp
   1d24a:	6585                	lui	a1,0x1
   1d24c:	32458593          	addi	a1,a1,804 # 1324 <.Lline_table_start1+0x10f9>
   1d250:	958a                	add	a1,a1,sp
   1d252:	02800613          	li	a2,40
   1d256:	00000097          	auipc	ra,0x0
   1d25a:	520080e7          	jalr	1312(ra) # 1d776 <memcpy>
   1d25e:	6505                	lui	a0,0x1
   1d260:	38050513          	addi	a0,a0,896 # 1380 <.Lline_table_start1+0x1155>
   1d264:	950a                	add	a0,a0,sp
   1d266:	6585                	lui	a1,0x1
   1d268:	1c258593          	addi	a1,a1,450 # 11c2 <.Lline_table_start1+0xf97>
   1d26c:	958a                	add	a1,a1,sp
   1d26e:	ffff5097          	auipc	ra,0xffff5
   1d272:	e50080e7          	jalr	-432(ra) # 120be <_ZN20complex_dynamic_type3app17h1e87a52fa1695406E>
   1d276:	3eca4503          	lbu	a0,1004(s4)
   1d27a:	48051263          	bnez	a0,1d6fe <_start+0x40b0>
   1d27e:	3eea4503          	lbu	a0,1006(s4)
   1d282:	3eda4583          	lbu	a1,1005(s4)
   1d286:	3efa4603          	lbu	a2,1007(s4)
   1d28a:	3f0a2403          	lw	s0,1008(s4)
   1d28e:	0522                	slli	a0,a0,0x8
   1d290:	8d4d                	or	a0,a0,a1
   1d292:	24aa1f23          	sh	a0,606(s4)
   1d296:	26ca0023          	sb	a2,608(s4)
   1d29a:	6505                	lui	a0,0x1
   1d29c:	38850513          	addi	a0,a0,904 # 1388 <.Lline_table_start1+0x115d>
   1d2a0:	00a105b3          	add	a1,sp,a0
   1d2a4:	6505                	lui	a0,0x1
   1d2a6:	32450513          	addi	a0,a0,804 # 1324 <.Lline_table_start1+0x10f9>
   1d2aa:	950a                	add	a0,a0,sp
   1d2ac:	05700613          	li	a2,87
   1d2b0:	00000097          	auipc	ra,0x0
   1d2b4:	4c6080e7          	jalr	1222(ra) # 1d776 <memcpy>
   1d2b8:	01845513          	srli	a0,s0,0x18
   1d2bc:	01045593          	srli	a1,s0,0x10
   1d2c0:	00845613          	srli	a2,s0,0x8
   1d2c4:	268a00a3          	sb	s0,609(s4)
   1d2c8:	26ca0123          	sb	a2,610(s4)
   1d2cc:	26ba01a3          	sb	a1,611(s4)
   1d2d0:	26aa0223          	sb	a0,612(s4)
   1d2d4:	6505                	lui	a0,0x1
   1d2d6:	1f950513          	addi	a0,a0,505 # 11f9 <.Lline_table_start1+0xfce>
   1d2da:	950a                	add	a0,a0,sp
   1d2dc:	6585                	lui	a1,0x1
   1d2de:	32458593          	addi	a1,a1,804 # 1324 <.Lline_table_start1+0x10f9>
   1d2e2:	958a                	add	a1,a1,sp
   1d2e4:	05700613          	li	a2,87
   1d2e8:	00000097          	auipc	ra,0x0
   1d2ec:	48e080e7          	jalr	1166(ra) # 1d776 <memcpy>
   1d2f0:	6505                	lui	a0,0x1
   1d2f2:	38050513          	addi	a0,a0,896 # 1380 <.Lline_table_start1+0x1155>
   1d2f6:	950a                	add	a0,a0,sp
   1d2f8:	6585                	lui	a1,0x1
   1d2fa:	1f258593          	addi	a1,a1,498 # 11f2 <.Lline_table_start1+0xfc7>
   1d2fe:	958a                	add	a1,a1,sp
   1d300:	ffffb097          	auipc	ra,0xffffb
   1d304:	7ee080e7          	jalr	2030(ra) # 18aee <_ZN20complex_dynamic_type3app17hf10de27ef041257cE>
   1d308:	3eca4503          	lbu	a0,1004(s4)
   1d30c:	3e051963          	bnez	a0,1d6fe <_start+0x40b0>
   1d310:	3eea4503          	lbu	a0,1006(s4)
   1d314:	3eda4583          	lbu	a1,1005(s4)
   1d318:	3efa4603          	lbu	a2,1007(s4)
   1d31c:	3f0a2403          	lw	s0,1008(s4)
   1d320:	0522                	slli	a0,a0,0x8
   1d322:	8d4d                	or	a0,a0,a1
   1d324:	2aaa1e23          	sh	a0,700(s4)
   1d328:	2aca0f23          	sb	a2,702(s4)
   1d32c:	6505                	lui	a0,0x1
   1d32e:	38850513          	addi	a0,a0,904 # 1388 <.Lline_table_start1+0x115d>
   1d332:	00a105b3          	add	a1,sp,a0
   1d336:	6505                	lui	a0,0x1
   1d338:	32450513          	addi	a0,a0,804 # 1324 <.Lline_table_start1+0x10f9>
   1d33c:	950a                	add	a0,a0,sp
   1d33e:	04e00613          	li	a2,78
   1d342:	00000097          	auipc	ra,0x0
   1d346:	434080e7          	jalr	1076(ra) # 1d776 <memcpy>
   1d34a:	01845513          	srli	a0,s0,0x18
   1d34e:	01045593          	srli	a1,s0,0x10
   1d352:	00845613          	srli	a2,s0,0x8
   1d356:	2a8a0fa3          	sb	s0,703(s4)
   1d35a:	2cca0023          	sb	a2,704(s4)
   1d35e:	2cba00a3          	sb	a1,705(s4)
   1d362:	2caa0123          	sb	a0,706(s4)
   1d366:	6505                	lui	a0,0x1
   1d368:	25750513          	addi	a0,a0,599 # 1257 <.Lline_table_start1+0x102c>
   1d36c:	950a                	add	a0,a0,sp
   1d36e:	6585                	lui	a1,0x1
   1d370:	32458593          	addi	a1,a1,804 # 1324 <.Lline_table_start1+0x10f9>
   1d374:	958a                	add	a1,a1,sp
   1d376:	04e00613          	li	a2,78
   1d37a:	00000097          	auipc	ra,0x0
   1d37e:	3fc080e7          	jalr	1020(ra) # 1d776 <memcpy>
   1d382:	6505                	lui	a0,0x1
   1d384:	38050513          	addi	a0,a0,896 # 1380 <.Lline_table_start1+0x1155>
   1d388:	950a                	add	a0,a0,sp
   1d38a:	6585                	lui	a1,0x1
   1d38c:	25058593          	addi	a1,a1,592 # 1250 <.Lline_table_start1+0x1025>
   1d390:	958a                	add	a1,a1,sp
   1d392:	ffff9097          	auipc	ra,0xffff9
   1d396:	6e4080e7          	jalr	1764(ra) # 16a76 <_ZN20complex_dynamic_type3app17hac0ee5b0737002eeE>
   1d39a:	3eca4503          	lbu	a0,1004(s4)
   1d39e:	36051063          	bnez	a0,1d6fe <_start+0x40b0>
   1d3a2:	3eda4503          	lbu	a0,1005(s4)
   1d3a6:	3eea4583          	lbu	a1,1006(s4)
   1d3aa:	3efa4603          	lbu	a2,1007(s4)
   1d3ae:	3f0a2683          	lw	a3,1008(s4)
   1d3b2:	3f4a2703          	lw	a4,1012(s4)
   1d3b6:	3f8a2783          	lw	a5,1016(s4)
   1d3ba:	3fca1483          	lh	s1,1020(s4)
   1d3be:	05a2                	slli	a1,a1,0x8
   1d3c0:	38ea2823          	sw	a4,912(s4)
   1d3c4:	38fa2a23          	sw	a5,916(s4)
   1d3c8:	389a1c23          	sh	s1,920(s4)
   1d3cc:	0186d713          	srli	a4,a3,0x18
   1d3d0:	8d4d                	or	a0,a0,a1
   1d3d2:	0106d593          	srli	a1,a3,0x10
   1d3d6:	30ba0ba3          	sb	a1,791(s4)
   1d3da:	30ea0c23          	sb	a4,792(s4)
   1d3de:	0086d593          	srli	a1,a3,0x8
   1d3e2:	30aa1923          	sh	a0,786(s4)
   1d3e6:	30ca0a23          	sb	a2,788(s4)
   1d3ea:	30da0aa3          	sb	a3,789(s4)
   1d3ee:	30ba0b23          	sb	a1,790(s4)
   1d3f2:	6505                	lui	a0,0x1
   1d3f4:	2ad50513          	addi	a0,a0,685 # 12ad <.Lline_table_start1+0x1082>
   1d3f8:	950a                	add	a0,a0,sp
   1d3fa:	6585                	lui	a1,0x1
   1d3fc:	32458593          	addi	a1,a1,804 # 1324 <.Lline_table_start1+0x10f9>
   1d400:	958a                	add	a1,a1,sp
   1d402:	4629                	li	a2,10
   1d404:	00000097          	auipc	ra,0x0
   1d408:	372080e7          	jalr	882(ra) # 1d776 <memcpy>
   1d40c:	6505                	lui	a0,0x1
   1d40e:	38050513          	addi	a0,a0,896 # 1380 <.Lline_table_start1+0x1155>
   1d412:	950a                	add	a0,a0,sp
   1d414:	6585                	lui	a1,0x1
   1d416:	2a658593          	addi	a1,a1,678 # 12a6 <.Lline_table_start1+0x107b>
   1d41a:	958a                	add	a1,a1,sp
   1d41c:	ffff5097          	auipc	ra,0xffff5
   1d420:	3aa080e7          	jalr	938(ra) # 127c6 <_ZN20complex_dynamic_type3app17h2bb167d6b7fd19d4E>
   1d424:	3eca4503          	lbu	a0,1004(s4)
   1d428:	2c051b63          	bnez	a0,1d6fe <_start+0x40b0>
   1d42c:	3eea4503          	lbu	a0,1006(s4)
   1d430:	3eda4583          	lbu	a1,1005(s4)
   1d434:	3efa4603          	lbu	a2,1007(s4)
   1d438:	3f0a2403          	lw	s0,1008(s4)
   1d43c:	0522                	slli	a0,a0,0x8
   1d43e:	8d4d                	or	a0,a0,a1
   1d440:	32aa1223          	sh	a0,804(s4)
   1d444:	32ca0323          	sb	a2,806(s4)
   1d448:	6505                	lui	a0,0x1
   1d44a:	38850513          	addi	a0,a0,904 # 1388 <.Lline_table_start1+0x115d>
   1d44e:	00a105b3          	add	a1,sp,a0
   1d452:	6505                	lui	a0,0x1
   1d454:	32450513          	addi	a0,a0,804 # 1324 <.Lline_table_start1+0x10f9>
   1d458:	950a                	add	a0,a0,sp
   1d45a:	04900613          	li	a2,73
   1d45e:	00000097          	auipc	ra,0x0
   1d462:	318080e7          	jalr	792(ra) # 1d776 <memcpy>
   1d466:	01845513          	srli	a0,s0,0x18
   1d46a:	01045593          	srli	a1,s0,0x10
   1d46e:	00845613          	srli	a2,s0,0x8
   1d472:	328a03a3          	sb	s0,807(s4)
   1d476:	32ca0423          	sb	a2,808(s4)
   1d47a:	32ba04a3          	sb	a1,809(s4)
   1d47e:	32aa0523          	sb	a0,810(s4)
   1d482:	6505                	lui	a0,0x1
   1d484:	2bf50513          	addi	a0,a0,703 # 12bf <.Lline_table_start1+0x1094>
   1d488:	950a                	add	a0,a0,sp
   1d48a:	6585                	lui	a1,0x1
   1d48c:	32458593          	addi	a1,a1,804 # 1324 <.Lline_table_start1+0x10f9>
   1d490:	958a                	add	a1,a1,sp
   1d492:	04900613          	li	a2,73
   1d496:	00000097          	auipc	ra,0x0
   1d49a:	2e0080e7          	jalr	736(ra) # 1d776 <memcpy>
   1d49e:	6505                	lui	a0,0x1
   1d4a0:	38050513          	addi	a0,a0,896 # 1380 <.Lline_table_start1+0x1155>
   1d4a4:	950a                	add	a0,a0,sp
   1d4a6:	6585                	lui	a1,0x1
   1d4a8:	2b858593          	addi	a1,a1,696 # 12b8 <.Lline_table_start1+0x108d>
   1d4ac:	958a                	add	a1,a1,sp
   1d4ae:	ffff7097          	auipc	ra,0xffff7
   1d4b2:	3ce080e7          	jalr	974(ra) # 1487c <_ZN20complex_dynamic_type3app17h683fe4f0de6796f5E>
   1d4b6:	3eca4503          	lbu	a0,1004(s4)
   1d4ba:	24051263          	bnez	a0,1d6fe <_start+0x40b0>
   1d4be:	3eea4503          	lbu	a0,1006(s4)
   1d4c2:	3eda4583          	lbu	a1,1005(s4)
   1d4c6:	3efa4603          	lbu	a2,1007(s4)
   1d4ca:	3f0a2403          	lw	s0,1008(s4)
   1d4ce:	0522                	slli	a0,a0,0x8
   1d4d0:	8d4d                	or	a0,a0,a1
   1d4d2:	36aa1a23          	sh	a0,884(s4)
   1d4d6:	36ca0b23          	sb	a2,886(s4)
   1d4da:	6505                	lui	a0,0x1
   1d4dc:	38850513          	addi	a0,a0,904 # 1388 <.Lline_table_start1+0x115d>
   1d4e0:	00a105b3          	add	a1,sp,a0
   1d4e4:	6505                	lui	a0,0x1
   1d4e6:	32450513          	addi	a0,a0,804 # 1324 <.Lline_table_start1+0x10f9>
   1d4ea:	950a                	add	a0,a0,sp
   1d4ec:	4651                	li	a2,20
   1d4ee:	00000097          	auipc	ra,0x0
   1d4f2:	288080e7          	jalr	648(ra) # 1d776 <memcpy>
   1d4f6:	01845513          	srli	a0,s0,0x18
   1d4fa:	01045593          	srli	a1,s0,0x10
   1d4fe:	00845613          	srli	a2,s0,0x8
   1d502:	368a0ba3          	sb	s0,887(s4)
   1d506:	36ca0c23          	sb	a2,888(s4)
   1d50a:	36ba0ca3          	sb	a1,889(s4)
   1d50e:	36aa0d23          	sb	a0,890(s4)
   1d512:	6505                	lui	a0,0x1
   1d514:	30f50513          	addi	a0,a0,783 # 130f <.Lline_table_start1+0x10e4>
   1d518:	950a                	add	a0,a0,sp
   1d51a:	6585                	lui	a1,0x1
   1d51c:	32458593          	addi	a1,a1,804 # 1324 <.Lline_table_start1+0x10f9>
   1d520:	958a                	add	a1,a1,sp
   1d522:	4651                	li	a2,20
   1d524:	00000097          	auipc	ra,0x0
   1d528:	252080e7          	jalr	594(ra) # 1d776 <memcpy>
   1d52c:	6505                	lui	a0,0x1
   1d52e:	38050513          	addi	a0,a0,896 # 1380 <.Lline_table_start1+0x1155>
   1d532:	950a                	add	a0,a0,sp
   1d534:	6585                	lui	a1,0x1
   1d536:	30858593          	addi	a1,a1,776 # 1308 <.Lline_table_start1+0x10dd>
   1d53a:	958a                	add	a1,a1,sp
   1d53c:	ffff4097          	auipc	ra,0xffff4
   1d540:	47a080e7          	jalr	1146(ra) # 119b6 <_ZN20complex_dynamic_type3app17h133b6ab07a67eb50E>
   1d544:	3eca4503          	lbu	a0,1004(s4)
   1d548:	1a051b63          	bnez	a0,1d6fe <_start+0x40b0>
   1d54c:	3eea4503          	lbu	a0,1006(s4)
   1d550:	3eda4583          	lbu	a1,1005(s4)
   1d554:	3efa4603          	lbu	a2,1007(s4)
   1d558:	3f0a2403          	lw	s0,1008(s4)
   1d55c:	0522                	slli	a0,a0,0x8
   1d55e:	8d4d                	or	a0,a0,a1
   1d560:	44aa1923          	sh	a0,1106(s4)
   1d564:	44ca0a23          	sb	a2,1108(s4)
   1d568:	6505                	lui	a0,0x1
   1d56a:	38850513          	addi	a0,a0,904 # 1388 <.Lline_table_start1+0x115d>
   1d56e:	00a105b3          	add	a1,sp,a0
   1d572:	6505                	lui	a0,0x1
   1d574:	32450513          	addi	a0,a0,804 # 1324 <.Lline_table_start1+0x10f9>
   1d578:	950a                	add	a0,a0,sp
   1d57a:	05c00613          	li	a2,92
   1d57e:	00000097          	auipc	ra,0x0
   1d582:	1f8080e7          	jalr	504(ra) # 1d776 <memcpy>
   1d586:	01845513          	srli	a0,s0,0x18
   1d58a:	01045593          	srli	a1,s0,0x10
   1d58e:	00845613          	srli	a2,s0,0x8
   1d592:	448a0aa3          	sb	s0,1109(s4)
   1d596:	44ca0b23          	sb	a2,1110(s4)
   1d59a:	44ba0ba3          	sb	a1,1111(s4)
   1d59e:	44aa0c23          	sb	a0,1112(s4)
   1d5a2:	6505                	lui	a0,0x1
   1d5a4:	3ed50513          	addi	a0,a0,1005 # 13ed <.Lline_table_start1+0x11c2>
   1d5a8:	950a                	add	a0,a0,sp
   1d5aa:	6585                	lui	a1,0x1
   1d5ac:	32458593          	addi	a1,a1,804 # 1324 <.Lline_table_start1+0x10f9>
   1d5b0:	958a                	add	a1,a1,sp
   1d5b2:	05c00613          	li	a2,92
   1d5b6:	00000097          	auipc	ra,0x0
   1d5ba:	1c0080e7          	jalr	448(ra) # 1d776 <memcpy>
   1d5be:	6505                	lui	a0,0x1
   1d5c0:	38050513          	addi	a0,a0,896 # 1380 <.Lline_table_start1+0x1155>
   1d5c4:	950a                	add	a0,a0,sp
   1d5c6:	6585                	lui	a1,0x1
   1d5c8:	3e658593          	addi	a1,a1,998 # 13e6 <.Lline_table_start1+0x11bb>
   1d5cc:	958a                	add	a1,a1,sp
   1d5ce:	ffffb097          	auipc	ra,0xffffb
   1d5d2:	e2c080e7          	jalr	-468(ra) # 183fa <_ZN20complex_dynamic_type3app17he4fa84b39b6c0484E>
   1d5d6:	3eca4503          	lbu	a0,1004(s4)
   1d5da:	12051263          	bnez	a0,1d6fe <_start+0x40b0>
   1d5de:	3eea4503          	lbu	a0,1006(s4)
   1d5e2:	3eda4583          	lbu	a1,1005(s4)
   1d5e6:	3efa4603          	lbu	a2,1007(s4)
   1d5ea:	3f0a2403          	lw	s0,1008(s4)
   1d5ee:	0522                	slli	a0,a0,0x8
   1d5f0:	8d4d                	or	a0,a0,a1
   1d5f2:	4aaa1b23          	sh	a0,1206(s4)
   1d5f6:	4aca0c23          	sb	a2,1208(s4)
   1d5fa:	6505                	lui	a0,0x1
   1d5fc:	38850513          	addi	a0,a0,904 # 1388 <.Lline_table_start1+0x115d>
   1d600:	00a105b3          	add	a1,sp,a0
   1d604:	6505                	lui	a0,0x1
   1d606:	32450513          	addi	a0,a0,804 # 1324 <.Lline_table_start1+0x10f9>
   1d60a:	950a                	add	a0,a0,sp
   1d60c:	02500613          	li	a2,37
   1d610:	00000097          	auipc	ra,0x0
   1d614:	166080e7          	jalr	358(ra) # 1d776 <memcpy>
   1d618:	01845513          	srli	a0,s0,0x18
   1d61c:	01045593          	srli	a1,s0,0x10
   1d620:	00845613          	srli	a2,s0,0x8
   1d624:	4a8a0ca3          	sb	s0,1209(s4)
   1d628:	4aca0d23          	sb	a2,1210(s4)
   1d62c:	4aba0da3          	sb	a1,1211(s4)
   1d630:	4aaa0e23          	sb	a0,1212(s4)
   1d634:	6505                	lui	a0,0x1
   1d636:	45150513          	addi	a0,a0,1105 # 1451 <.Lline_table_start1+0x1226>
   1d63a:	950a                	add	a0,a0,sp
   1d63c:	6585                	lui	a1,0x1
   1d63e:	32458593          	addi	a1,a1,804 # 1324 <.Lline_table_start1+0x10f9>
   1d642:	958a                	add	a1,a1,sp
   1d644:	02500613          	li	a2,37
   1d648:	00000097          	auipc	ra,0x0
   1d64c:	12e080e7          	jalr	302(ra) # 1d776 <memcpy>
   1d650:	6505                	lui	a0,0x1
   1d652:	38050513          	addi	a0,a0,896 # 1380 <.Lline_table_start1+0x1155>
   1d656:	950a                	add	a0,a0,sp
   1d658:	6585                	lui	a1,0x1
   1d65a:	44a58593          	addi	a1,a1,1098 # 144a <.Lline_table_start1+0x121f>
   1d65e:	958a                	add	a1,a1,sp
   1d660:	ffffa097          	auipc	ra,0xffffa
   1d664:	f6e080e7          	jalr	-146(ra) # 175ce <_ZN20complex_dynamic_type3app17hbb4ef307cfb7b592E>
   1d668:	3eca4503          	lbu	a0,1004(s4)
   1d66c:	e949                	bnez	a0,1d6fe <_start+0x40b0>
   1d66e:	3eea4503          	lbu	a0,1006(s4)
   1d672:	3eda4583          	lbu	a1,1005(s4)
   1d676:	3efa4603          	lbu	a2,1007(s4)
   1d67a:	3f0a2403          	lw	s0,1008(s4)
   1d67e:	0522                	slli	a0,a0,0x8
   1d680:	8d4d                	or	a0,a0,a1
   1d682:	4eaa1123          	sh	a0,1250(s4)
   1d686:	4eca0223          	sb	a2,1252(s4)
   1d68a:	6505                	lui	a0,0x1
   1d68c:	38850513          	addi	a0,a0,904 # 1388 <.Lline_table_start1+0x115d>
   1d690:	00a105b3          	add	a1,sp,a0
   1d694:	6505                	lui	a0,0x1
   1d696:	32450513          	addi	a0,a0,804 # 1324 <.Lline_table_start1+0x10f9>
   1d69a:	950a                	add	a0,a0,sp
   1d69c:	02300613          	li	a2,35
   1d6a0:	00000097          	auipc	ra,0x0
   1d6a4:	0d6080e7          	jalr	214(ra) # 1d776 <memcpy>
   1d6a8:	01845513          	srli	a0,s0,0x18
   1d6ac:	01045593          	srli	a1,s0,0x10
   1d6b0:	00845613          	srli	a2,s0,0x8
   1d6b4:	4e8a02a3          	sb	s0,1253(s4)
   1d6b8:	4eca0323          	sb	a2,1254(s4)
   1d6bc:	4eba03a3          	sb	a1,1255(s4)
   1d6c0:	4eaa0423          	sb	a0,1256(s4)
   1d6c4:	6505                	lui	a0,0x1
   1d6c6:	47d50513          	addi	a0,a0,1149 # 147d <.Lline_table_start1+0x1252>
   1d6ca:	950a                	add	a0,a0,sp
   1d6cc:	6585                	lui	a1,0x1
   1d6ce:	32458593          	addi	a1,a1,804 # 1324 <.Lline_table_start1+0x10f9>
   1d6d2:	958a                	add	a1,a1,sp
   1d6d4:	02300613          	li	a2,35
   1d6d8:	00000097          	auipc	ra,0x0
   1d6dc:	09e080e7          	jalr	158(ra) # 1d776 <memcpy>
   1d6e0:	6505                	lui	a0,0x1
   1d6e2:	38050513          	addi	a0,a0,896 # 1380 <.Lline_table_start1+0x1155>
   1d6e6:	950a                	add	a0,a0,sp
   1d6e8:	6585                	lui	a1,0x1
   1d6ea:	47658593          	addi	a1,a1,1142 # 1476 <.Lline_table_start1+0x124b>
   1d6ee:	958a                	add	a1,a1,sp
   1d6f0:	ffff8097          	auipc	ra,0xffff8
   1d6f4:	6a0080e7          	jalr	1696(ra) # 15d90 <_ZN20complex_dynamic_type3app17h929961daab215959E>
   1d6f8:	3eca4503          	lbu	a0,1004(s4)
   1d6fc:	c509                	beqz	a0,1d706 <_start+0x40b8>
   1d6fe:	3f0a2883          	lw	a7,1008(s4)
   1d702:	846fc06f          	j	19748 <_start+0xfa>
   1d706:	844fc06f          	j	1974a <_start+0xfc>

0001d70a <memset>:
   1d70a:	46c1                	li	a3,16
   1d70c:	04d66f63          	bltu	a2,a3,1d76a <memset+0x60>
   1d710:	40a006b3          	neg	a3,a0
   1d714:	0036f813          	andi	a6,a3,3
   1d718:	01050733          	add	a4,a0,a6
   1d71c:	00e57963          	bgeu	a0,a4,1d72e <memset+0x24>
   1d720:	87c2                	mv	a5,a6
   1d722:	86aa                	mv	a3,a0
   1d724:	00b68023          	sb	a1,0(a3)
   1d728:	17fd                	addi	a5,a5,-1
   1d72a:	0685                	addi	a3,a3,1
   1d72c:	ffe5                	bnez	a5,1d724 <memset+0x1a>
   1d72e:	41060633          	sub	a2,a2,a6
   1d732:	ffc67693          	andi	a3,a2,-4
   1d736:	96ba                	add	a3,a3,a4
   1d738:	00d77e63          	bgeu	a4,a3,1d754 <memset+0x4a>
   1d73c:	0ff5f813          	zext.b	a6,a1
   1d740:	010107b7          	lui	a5,0x1010
   1d744:	10178793          	addi	a5,a5,257 # 1010101 <_ZN17compiler_builtins3mem6memcpy17h90d0c987d2ef5a79E+0xff2983>
   1d748:	02f807b3          	mul	a5,a6,a5
   1d74c:	c31c                	sw	a5,0(a4)
   1d74e:	0711                	addi	a4,a4,4
   1d750:	fed76ee3          	bltu	a4,a3,1d74c <memset+0x42>
   1d754:	8a0d                	andi	a2,a2,3
   1d756:	00c68733          	add	a4,a3,a2
   1d75a:	00e6f763          	bgeu	a3,a4,1d768 <memset+0x5e>
   1d75e:	00b68023          	sb	a1,0(a3)
   1d762:	167d                	addi	a2,a2,-1
   1d764:	0685                	addi	a3,a3,1
   1d766:	fe65                	bnez	a2,1d75e <memset+0x54>
   1d768:	8082                	ret
   1d76a:	86aa                	mv	a3,a0
   1d76c:	00c50733          	add	a4,a0,a2
   1d770:	fee567e3          	bltu	a0,a4,1d75e <memset+0x54>
   1d774:	bfd5                	j	1d768 <memset+0x5e>

0001d776 <memcpy>:
   1d776:	00000317          	auipc	t1,0x0
   1d77a:	00830067          	jr	8(t1) # 1d77e <_ZN17compiler_builtins3mem6memcpy17h90d0c987d2ef5a79E>

0001d77e <_ZN17compiler_builtins3mem6memcpy17h90d0c987d2ef5a79E>:
   1d77e:	1141                	addi	sp,sp,-16
   1d780:	c622                	sw	s0,12(sp)
   1d782:	46c1                	li	a3,16
   1d784:	06d66363          	bltu	a2,a3,1d7ea <_ZN17compiler_builtins3mem6memcpy17h90d0c987d2ef5a79E+0x6c>
   1d788:	40a006b3          	neg	a3,a0
   1d78c:	0036f813          	andi	a6,a3,3
   1d790:	01050fb3          	add	t6,a0,a6
   1d794:	01f57d63          	bgeu	a0,t6,1d7ae <_ZN17compiler_builtins3mem6memcpy17h90d0c987d2ef5a79E+0x30>
   1d798:	8742                	mv	a4,a6
   1d79a:	86aa                	mv	a3,a0
   1d79c:	87ae                	mv	a5,a1
   1d79e:	0007c883          	lbu	a7,0(a5)
   1d7a2:	177d                	addi	a4,a4,-1
   1d7a4:	01168023          	sb	a7,0(a3)
   1d7a8:	0685                	addi	a3,a3,1
   1d7aa:	0785                	addi	a5,a5,1
   1d7ac:	fb6d                	bnez	a4,1d79e <_ZN17compiler_builtins3mem6memcpy17h90d0c987d2ef5a79E+0x20>
   1d7ae:	01058433          	add	s0,a1,a6
   1d7b2:	410608b3          	sub	a7,a2,a6
   1d7b6:	ffc8f713          	andi	a4,a7,-4
   1d7ba:	00347613          	andi	a2,s0,3
   1d7be:	00ef86b3          	add	a3,t6,a4
   1d7c2:	e621                	bnez	a2,1d80a <_ZN17compiler_builtins3mem6memcpy17h90d0c987d2ef5a79E+0x8c>
   1d7c4:	00dffa63          	bgeu	t6,a3,1d7d8 <_ZN17compiler_builtins3mem6memcpy17h90d0c987d2ef5a79E+0x5a>
   1d7c8:	8622                	mv	a2,s0
   1d7ca:	421c                	lw	a5,0(a2)
   1d7cc:	00ffa023          	sw	a5,0(t6)
   1d7d0:	0f91                	addi	t6,t6,4
   1d7d2:	0611                	addi	a2,a2,4
   1d7d4:	fedfebe3          	bltu	t6,a3,1d7ca <_ZN17compiler_builtins3mem6memcpy17h90d0c987d2ef5a79E+0x4c>
   1d7d8:	00e405b3          	add	a1,s0,a4
   1d7dc:	0038f613          	andi	a2,a7,3
   1d7e0:	00c68733          	add	a4,a3,a2
   1d7e4:	00e6e863          	bltu	a3,a4,1d7f4 <_ZN17compiler_builtins3mem6memcpy17h90d0c987d2ef5a79E+0x76>
   1d7e8:	a831                	j	1d804 <_ZN17compiler_builtins3mem6memcpy17h90d0c987d2ef5a79E+0x86>
   1d7ea:	86aa                	mv	a3,a0
   1d7ec:	00c50733          	add	a4,a0,a2
   1d7f0:	00e57a63          	bgeu	a0,a4,1d804 <_ZN17compiler_builtins3mem6memcpy17h90d0c987d2ef5a79E+0x86>
   1d7f4:	0005c703          	lbu	a4,0(a1)
   1d7f8:	167d                	addi	a2,a2,-1
   1d7fa:	00e68023          	sb	a4,0(a3)
   1d7fe:	0685                	addi	a3,a3,1
   1d800:	0585                	addi	a1,a1,1
   1d802:	fa6d                	bnez	a2,1d7f4 <_ZN17compiler_builtins3mem6memcpy17h90d0c987d2ef5a79E+0x76>
   1d804:	4432                	lw	s0,12(sp)
   1d806:	0141                	addi	sp,sp,16
   1d808:	8082                	ret
   1d80a:	4801                	li	a6,0
   1d80c:	4791                	li	a5,4
   1d80e:	c402                	sw	zero,8(sp)
   1d810:	40c783b3          	sub	t2,a5,a2
   1d814:	00810293          	addi	t0,sp,8
   1d818:	0013f313          	andi	t1,t2,1
   1d81c:	00c2e2b3          	or	t0,t0,a2
   1d820:	04031763          	bnez	t1,1d86e <_ZN17compiler_builtins3mem6memcpy17h90d0c987d2ef5a79E+0xf0>
   1d824:	0023f793          	andi	a5,t2,2
   1d828:	ebb9                	bnez	a5,1d87e <_ZN17compiler_builtins3mem6memcpy17h90d0c987d2ef5a79E+0x100>
   1d82a:	4ea2                	lw	t4,8(sp)
   1d82c:	00361813          	slli	a6,a2,0x3
   1d830:	004f8793          	addi	a5,t6,4
   1d834:	40c40f33          	sub	t5,s0,a2
   1d838:	06d7f363          	bgeu	a5,a3,1d89e <_ZN17compiler_builtins3mem6memcpy17h90d0c987d2ef5a79E+0x120>
   1d83c:	410007b3          	neg	a5,a6
   1d840:	0187fe13          	andi	t3,a5,24
   1d844:	004f2283          	lw	t0,4(t5)
   1d848:	004f0393          	addi	t2,t5,4
   1d84c:	010ed5b3          	srl	a1,t4,a6
   1d850:	004f8313          	addi	t1,t6,4
   1d854:	01c297b3          	sll	a5,t0,t3
   1d858:	8ddd                	or	a1,a1,a5
   1d85a:	008f8793          	addi	a5,t6,8
   1d85e:	00bfa023          	sw	a1,0(t6)
   1d862:	8f9a                	mv	t6,t1
   1d864:	8f1e                	mv	t5,t2
   1d866:	8e96                	mv	t4,t0
   1d868:	fcd7eee3          	bltu	a5,a3,1d844 <_ZN17compiler_builtins3mem6memcpy17h90d0c987d2ef5a79E+0xc6>
   1d86c:	a825                	j	1d8a4 <_ZN17compiler_builtins3mem6memcpy17h90d0c987d2ef5a79E+0x126>
   1d86e:	00044783          	lbu	a5,0(s0)
   1d872:	00f28023          	sb	a5,0(t0)
   1d876:	4805                	li	a6,1
   1d878:	0023f793          	andi	a5,t2,2
   1d87c:	d7dd                	beqz	a5,1d82a <_ZN17compiler_builtins3mem6memcpy17h90d0c987d2ef5a79E+0xac>
   1d87e:	010407b3          	add	a5,s0,a6
   1d882:	00079783          	lh	a5,0(a5)
   1d886:	9816                	add	a6,a6,t0
   1d888:	00f81023          	sh	a5,0(a6)
   1d88c:	4ea2                	lw	t4,8(sp)
   1d88e:	00361813          	slli	a6,a2,0x3
   1d892:	004f8793          	addi	a5,t6,4
   1d896:	40c40f33          	sub	t5,s0,a2
   1d89a:	fad7e1e3          	bltu	a5,a3,1d83c <_ZN17compiler_builtins3mem6memcpy17h90d0c987d2ef5a79E+0xbe>
   1d89e:	82f6                	mv	t0,t4
   1d8a0:	83fa                	mv	t2,t5
   1d8a2:	837e                	mv	t1,t6
   1d8a4:	00010223          	sb	zero,4(sp)
   1d8a8:	4785                	li	a5,1
   1d8aa:	00010123          	sb	zero,2(sp)
   1d8ae:	00f61763          	bne	a2,a5,1d8bc <_ZN17compiler_builtins3mem6memcpy17h90d0c987d2ef5a79E+0x13e>
   1d8b2:	4781                	li	a5,0
   1d8b4:	4e01                	li	t3,0
   1d8b6:	4e81                	li	t4,0
   1d8b8:	0050                	addi	a2,sp,4
   1d8ba:	a819                	j	1d8d0 <_ZN17compiler_builtins3mem6memcpy17h90d0c987d2ef5a79E+0x152>
   1d8bc:	0043c783          	lbu	a5,4(t2)
   1d8c0:	0053ce03          	lbu	t3,5(t2)
   1d8c4:	4e89                	li	t4,2
   1d8c6:	00f10223          	sb	a5,4(sp)
   1d8ca:	0e22                	slli	t3,t3,0x8
   1d8cc:	00210613          	addi	a2,sp,2
   1d8d0:	00147593          	andi	a1,s0,1
   1d8d4:	e199                	bnez	a1,1d8da <_ZN17compiler_builtins3mem6memcpy17h90d0c987d2ef5a79E+0x15c>
   1d8d6:	4601                	li	a2,0
   1d8d8:	a821                	j	1d8f0 <_ZN17compiler_builtins3mem6memcpy17h90d0c987d2ef5a79E+0x172>
   1d8da:	0391                	addi	t2,t2,4
   1d8dc:	93f6                	add	t2,t2,t4
   1d8de:	0003c583          	lbu	a1,0(t2)
   1d8e2:	00b60023          	sb	a1,0(a2)
   1d8e6:	00214603          	lbu	a2,2(sp)
   1d8ea:	00414783          	lbu	a5,4(sp)
   1d8ee:	0642                	slli	a2,a2,0x10
   1d8f0:	8e5d                	or	a2,a2,a5
   1d8f2:	0102d5b3          	srl	a1,t0,a6
   1d8f6:	410007b3          	neg	a5,a6
   1d8fa:	00ce6633          	or	a2,t3,a2
   1d8fe:	8be1                	andi	a5,a5,24
   1d900:	00f61633          	sll	a2,a2,a5
   1d904:	8dd1                	or	a1,a1,a2
   1d906:	00b32023          	sw	a1,0(t1)
   1d90a:	00e405b3          	add	a1,s0,a4
   1d90e:	0038f613          	andi	a2,a7,3
   1d912:	00c68733          	add	a4,a3,a2
   1d916:	ece6efe3          	bltu	a3,a4,1d7f4 <_ZN17compiler_builtins3mem6memcpy17h90d0c987d2ef5a79E+0x76>
   1d91a:	b5ed                	j	1d804 <_ZN17compiler_builtins3mem6memcpy17h90d0c987d2ef5a79E+0x86>
