
target/thumbv6m-none-eabi/opt-2/examples/complex_no_dynamic:     file format elf32-littlearm

Sections:
Idx Name          Size      VMA       LMA       File off  Algn
  0 .ARM.exidx    00000010  000100d4  000100d4  000000d4  2**2
                  CONTENTS, ALLOC, LOAD, READONLY, DATA
  1 .text         00006f30  000200e4  000200e4  000000e4  2**2
                  CONTENTS, ALLOC, LOAD, READONLY, CODE
  2 .comment      0000008b  00000000  00000000  00007014  2**0
                  CONTENTS, READONLY
  3 .ARM.attributes 00000032  00000000  00000000  0000709f  2**0
                  CONTENTS, READONLY

Disassembly of section .text:

000200e4 <_ZN18complex_no_dynamic3app17h00eed057019ae020E>:
   200e4:	b5f0      	push	{r4, r5, r6, r7, lr}
   200e6:	af03      	add	r7, sp, #12
   200e8:	b0a3      	sub	sp, #140	@ 0x8c
   200ea:	9000      	str	r0, [sp, #0]
   200ec:	ae01      	add	r6, sp, #4
   200ee:	242a      	movs	r4, #42	@ 0x2a
   200f0:	4630      	mov	r0, r6
   200f2:	4622      	mov	r2, r4
   200f4:	f006 ff89 	bl	2700a <__aeabi_memcpy>
   200f8:	a80c      	add	r0, sp, #48	@ 0x30
   200fa:	2159      	movs	r1, #89	@ 0x59
   200fc:	f006 fdd8 	bl	26cb0 <__aeabi_memclr4>
   20100:	4823      	ldr	r0, [pc, #140]	@ (20190 <_ZN18complex_no_dynamic3app17h00eed057019ae020E+0xac>)
   20102:	2501      	movs	r5, #1
   20104:	4629      	mov	r1, r5
   20106:	4632      	mov	r2, r6
   20108:	4623      	mov	r3, r4
   2010a:	df04      	svc	4
   2010c:	2802      	cmp	r0, #2
   2010e:	d00e      	beq.n	2012e <_ZN18complex_no_dynamic3app17h00eed057019ae020E+0x4a>
   20110:	481f      	ldr	r0, [pc, #124]	@ (20190 <_ZN18complex_no_dynamic3app17h00eed057019ae020E+0xac>)
   20112:	2103      	movs	r1, #3
   20114:	aa0c      	add	r2, sp, #48	@ 0x30
   20116:	2359      	movs	r3, #89	@ 0x59
   20118:	df03      	svc	3
   2011a:	2802      	cmp	r0, #2
   2011c:	d007      	beq.n	2012e <_ZN18complex_no_dynamic3app17h00eed057019ae020E+0x4a>
   2011e:	481c      	ldr	r0, [pc, #112]	@ (20190 <_ZN18complex_no_dynamic3app17h00eed057019ae020E+0xac>)
   20120:	2101      	movs	r1, #1
   20122:	2203      	movs	r2, #3
   20124:	2600      	movs	r6, #0
   20126:	4633      	mov	r3, r6
   20128:	df02      	svc	2
   2012a:	287f      	cmp	r0, #127	@ 0x7f
   2012c:	d810      	bhi.n	20150 <_ZN18complex_no_dynamic3app17h00eed057019ae020E+0x6c>
   2012e:	9800      	ldr	r0, [sp, #0]
   20130:	7005      	strb	r5, [r0, #0]
   20132:	6041      	str	r1, [r0, #4]
   20134:	4c16      	ldr	r4, [pc, #88]	@ (20190 <_ZN18complex_no_dynamic3app17h00eed057019ae020E+0xac>)
   20136:	2103      	movs	r1, #3
   20138:	2600      	movs	r6, #0
   2013a:	4620      	mov	r0, r4
   2013c:	4632      	mov	r2, r6
   2013e:	4633      	mov	r3, r6
   20140:	df03      	svc	3
   20142:	4620      	mov	r0, r4
   20144:	4629      	mov	r1, r5
   20146:	4632      	mov	r2, r6
   20148:	4633      	mov	r3, r6
   2014a:	df04      	svc	4
   2014c:	b023      	add	sp, #140	@ 0x8c
   2014e:	bdf0      	pop	{r4, r5, r6, r7, pc}
   20150:	4c0f      	ldr	r4, [pc, #60]	@ (20190 <_ZN18complex_no_dynamic3app17h00eed057019ae020E+0xac>)
   20152:	2503      	movs	r5, #3
   20154:	4620      	mov	r0, r4
   20156:	4629      	mov	r1, r5
   20158:	4632      	mov	r2, r6
   2015a:	4633      	mov	r3, r6
   2015c:	df03      	svc	3
   2015e:	4620      	mov	r0, r4
   20160:	4629      	mov	r1, r5
   20162:	4632      	mov	r2, r6
   20164:	4633      	mov	r3, r6
   20166:	df03      	svc	3
   20168:	9c00      	ldr	r4, [sp, #0]
   2016a:	1c60      	adds	r0, r4, #1
   2016c:	a90c      	add	r1, sp, #48	@ 0x30
   2016e:	2259      	movs	r2, #89	@ 0x59
   20170:	f006 ff4b 	bl	2700a <__aeabi_memcpy>
   20174:	7026      	strb	r6, [r4, #0]
   20176:	4c06      	ldr	r4, [pc, #24]	@ (20190 <_ZN18complex_no_dynamic3app17h00eed057019ae020E+0xac>)
   20178:	4620      	mov	r0, r4
   2017a:	4629      	mov	r1, r5
   2017c:	4632      	mov	r2, r6
   2017e:	4633      	mov	r3, r6
   20180:	df03      	svc	3
   20182:	2101      	movs	r1, #1
   20184:	4620      	mov	r0, r4
   20186:	4632      	mov	r2, r6
   20188:	4633      	mov	r3, r6
   2018a:	df04      	svc	4
   2018c:	b023      	add	sp, #140	@ 0x8c
   2018e:	bdf0      	pop	{r4, r5, r6, r7, pc}
   20190:	00000ed2 	.word	0x00000ed2

00020194 <_ZN18complex_no_dynamic3app17h02553343b215d5aaE>:
   20194:	b5f0      	push	{r4, r5, r6, r7, lr}
   20196:	af03      	add	r7, sp, #12
   20198:	b09f      	sub	sp, #124	@ 0x7c
   2019a:	4604      	mov	r4, r0
   2019c:	ad01      	add	r5, sp, #4
   2019e:	2635      	movs	r6, #53	@ 0x35
   201a0:	4628      	mov	r0, r5
   201a2:	4632      	mov	r2, r6
   201a4:	f006 ff31 	bl	2700a <__aeabi_memcpy>
   201a8:	a80f      	add	r0, sp, #60	@ 0x3c
   201aa:	213f      	movs	r1, #63	@ 0x3f
   201ac:	f006 fd80 	bl	26cb0 <__aeabi_memclr4>
   201b0:	4822      	ldr	r0, [pc, #136]	@ (2023c <_ZN18complex_no_dynamic3app17h02553343b215d5aaE+0xa8>)
   201b2:	2100      	movs	r1, #0
   201b4:	462a      	mov	r2, r5
   201b6:	4633      	mov	r3, r6
   201b8:	df04      	svc	4
   201ba:	2802      	cmp	r0, #2
   201bc:	d00e      	beq.n	201dc <_ZN18complex_no_dynamic3app17h02553343b215d5aaE+0x48>
   201be:	481f      	ldr	r0, [pc, #124]	@ (2023c <_ZN18complex_no_dynamic3app17h02553343b215d5aaE+0xa8>)
   201c0:	2103      	movs	r1, #3
   201c2:	aa0f      	add	r2, sp, #60	@ 0x3c
   201c4:	233f      	movs	r3, #63	@ 0x3f
   201c6:	df03      	svc	3
   201c8:	2802      	cmp	r0, #2
   201ca:	d007      	beq.n	201dc <_ZN18complex_no_dynamic3app17h02553343b215d5aaE+0x48>
   201cc:	481b      	ldr	r0, [pc, #108]	@ (2023c <_ZN18complex_no_dynamic3app17h02553343b215d5aaE+0xa8>)
   201ce:	2203      	movs	r2, #3
   201d0:	2500      	movs	r5, #0
   201d2:	4629      	mov	r1, r5
   201d4:	462b      	mov	r3, r5
   201d6:	df02      	svc	2
   201d8:	287f      	cmp	r0, #127	@ 0x7f
   201da:	d810      	bhi.n	201fe <_ZN18complex_no_dynamic3app17h02553343b215d5aaE+0x6a>
   201dc:	2001      	movs	r0, #1
   201de:	7020      	strb	r0, [r4, #0]
   201e0:	6061      	str	r1, [r4, #4]
   201e2:	4c16      	ldr	r4, [pc, #88]	@ (2023c <_ZN18complex_no_dynamic3app17h02553343b215d5aaE+0xa8>)
   201e4:	2103      	movs	r1, #3
   201e6:	2500      	movs	r5, #0
   201e8:	4620      	mov	r0, r4
   201ea:	462a      	mov	r2, r5
   201ec:	462b      	mov	r3, r5
   201ee:	df03      	svc	3
   201f0:	4620      	mov	r0, r4
   201f2:	4629      	mov	r1, r5
   201f4:	462a      	mov	r2, r5
   201f6:	462b      	mov	r3, r5
   201f8:	df04      	svc	4
   201fa:	b01f      	add	sp, #124	@ 0x7c
   201fc:	bdf0      	pop	{r4, r5, r6, r7, pc}
   201fe:	480f      	ldr	r0, [pc, #60]	@ (2023c <_ZN18complex_no_dynamic3app17h02553343b215d5aaE+0xa8>)
   20200:	2603      	movs	r6, #3
   20202:	4631      	mov	r1, r6
   20204:	462a      	mov	r2, r5
   20206:	462b      	mov	r3, r5
   20208:	df03      	svc	3
   2020a:	480c      	ldr	r0, [pc, #48]	@ (2023c <_ZN18complex_no_dynamic3app17h02553343b215d5aaE+0xa8>)
   2020c:	4631      	mov	r1, r6
   2020e:	462a      	mov	r2, r5
   20210:	462b      	mov	r3, r5
   20212:	df03      	svc	3
   20214:	1c60      	adds	r0, r4, #1
   20216:	a90f      	add	r1, sp, #60	@ 0x3c
   20218:	223f      	movs	r2, #63	@ 0x3f
   2021a:	f006 fef6 	bl	2700a <__aeabi_memcpy>
   2021e:	7025      	strb	r5, [r4, #0]
   20220:	4c06      	ldr	r4, [pc, #24]	@ (2023c <_ZN18complex_no_dynamic3app17h02553343b215d5aaE+0xa8>)
   20222:	4620      	mov	r0, r4
   20224:	4631      	mov	r1, r6
   20226:	462a      	mov	r2, r5
   20228:	462b      	mov	r3, r5
   2022a:	df03      	svc	3
   2022c:	4620      	mov	r0, r4
   2022e:	4629      	mov	r1, r5
   20230:	462a      	mov	r2, r5
   20232:	462b      	mov	r3, r5
   20234:	df04      	svc	4
   20236:	b01f      	add	sp, #124	@ 0x7c
   20238:	bdf0      	pop	{r4, r5, r6, r7, pc}
   2023a:	46c0      	nop			@ (mov r8, r8)
   2023c:	00000e57 	.word	0x00000e57

00020240 <_ZN18complex_no_dynamic3app17h0862bb47b80db5ffE>:
   20240:	b5f0      	push	{r4, r5, r6, r7, lr}
   20242:	af03      	add	r7, sp, #12
   20244:	b097      	sub	sp, #92	@ 0x5c
   20246:	4604      	mov	r4, r0
   20248:	ad01      	add	r5, sp, #4
   2024a:	2612      	movs	r6, #18
   2024c:	4628      	mov	r0, r5
   2024e:	4632      	mov	r2, r6
   20250:	f006 fedb 	bl	2700a <__aeabi_memcpy>
   20254:	a806      	add	r0, sp, #24
   20256:	2144      	movs	r1, #68	@ 0x44
   20258:	f006 fd2a 	bl	26cb0 <__aeabi_memclr4>
   2025c:	4822      	ldr	r0, [pc, #136]	@ (202e8 <_ZN18complex_no_dynamic3app17h0862bb47b80db5ffE+0xa8>)
   2025e:	2102      	movs	r1, #2
   20260:	462a      	mov	r2, r5
   20262:	4633      	mov	r3, r6
   20264:	df04      	svc	4
   20266:	2802      	cmp	r0, #2
   20268:	d00e      	beq.n	20288 <_ZN18complex_no_dynamic3app17h0862bb47b80db5ffE+0x48>
   2026a:	481f      	ldr	r0, [pc, #124]	@ (202e8 <_ZN18complex_no_dynamic3app17h0862bb47b80db5ffE+0xa8>)
   2026c:	2109      	movs	r1, #9
   2026e:	aa06      	add	r2, sp, #24
   20270:	2344      	movs	r3, #68	@ 0x44
   20272:	df03      	svc	3
   20274:	2802      	cmp	r0, #2
   20276:	d007      	beq.n	20288 <_ZN18complex_no_dynamic3app17h0862bb47b80db5ffE+0x48>
   20278:	481b      	ldr	r0, [pc, #108]	@ (202e8 <_ZN18complex_no_dynamic3app17h0862bb47b80db5ffE+0xa8>)
   2027a:	2102      	movs	r1, #2
   2027c:	2209      	movs	r2, #9
   2027e:	2500      	movs	r5, #0
   20280:	462b      	mov	r3, r5
   20282:	df02      	svc	2
   20284:	287f      	cmp	r0, #127	@ 0x7f
   20286:	d810      	bhi.n	202aa <_ZN18complex_no_dynamic3app17h0862bb47b80db5ffE+0x6a>
   20288:	2001      	movs	r0, #1
   2028a:	7020      	strb	r0, [r4, #0]
   2028c:	6061      	str	r1, [r4, #4]
   2028e:	4c16      	ldr	r4, [pc, #88]	@ (202e8 <_ZN18complex_no_dynamic3app17h0862bb47b80db5ffE+0xa8>)
   20290:	2109      	movs	r1, #9
   20292:	2500      	movs	r5, #0
   20294:	4620      	mov	r0, r4
   20296:	462a      	mov	r2, r5
   20298:	462b      	mov	r3, r5
   2029a:	df03      	svc	3
   2029c:	2102      	movs	r1, #2
   2029e:	4620      	mov	r0, r4
   202a0:	462a      	mov	r2, r5
   202a2:	462b      	mov	r3, r5
   202a4:	df04      	svc	4
   202a6:	b017      	add	sp, #92	@ 0x5c
   202a8:	bdf0      	pop	{r4, r5, r6, r7, pc}
   202aa:	480f      	ldr	r0, [pc, #60]	@ (202e8 <_ZN18complex_no_dynamic3app17h0862bb47b80db5ffE+0xa8>)
   202ac:	2609      	movs	r6, #9
   202ae:	4631      	mov	r1, r6
   202b0:	462a      	mov	r2, r5
   202b2:	462b      	mov	r3, r5
   202b4:	df03      	svc	3
   202b6:	480c      	ldr	r0, [pc, #48]	@ (202e8 <_ZN18complex_no_dynamic3app17h0862bb47b80db5ffE+0xa8>)
   202b8:	4631      	mov	r1, r6
   202ba:	462a      	mov	r2, r5
   202bc:	462b      	mov	r3, r5
   202be:	df03      	svc	3
   202c0:	1c60      	adds	r0, r4, #1
   202c2:	a906      	add	r1, sp, #24
   202c4:	2244      	movs	r2, #68	@ 0x44
   202c6:	f006 fea0 	bl	2700a <__aeabi_memcpy>
   202ca:	7025      	strb	r5, [r4, #0]
   202cc:	4c06      	ldr	r4, [pc, #24]	@ (202e8 <_ZN18complex_no_dynamic3app17h0862bb47b80db5ffE+0xa8>)
   202ce:	4620      	mov	r0, r4
   202d0:	4631      	mov	r1, r6
   202d2:	462a      	mov	r2, r5
   202d4:	462b      	mov	r3, r5
   202d6:	df03      	svc	3
   202d8:	2102      	movs	r1, #2
   202da:	4620      	mov	r0, r4
   202dc:	462a      	mov	r2, r5
   202de:	462b      	mov	r3, r5
   202e0:	df04      	svc	4
   202e2:	b017      	add	sp, #92	@ 0x5c
   202e4:	bdf0      	pop	{r4, r5, r6, r7, pc}
   202e6:	46c0      	nop			@ (mov r8, r8)
   202e8:	00002432 	.word	0x00002432

000202ec <_ZN18complex_no_dynamic3app17h129aa851248c9e7cE>:
   202ec:	b5f0      	push	{r4, r5, r6, r7, lr}
   202ee:	af03      	add	r7, sp, #12
   202f0:	b093      	sub	sp, #76	@ 0x4c
   202f2:	4604      	mov	r4, r0
   202f4:	7b08      	ldrb	r0, [r1, #12]
   202f6:	7b4a      	ldrb	r2, [r1, #13]
   202f8:	0212      	lsls	r2, r2, #8
   202fa:	1810      	adds	r0, r2, r0
   202fc:	7b8a      	ldrb	r2, [r1, #14]
   202fe:	0412      	lsls	r2, r2, #16
   20300:	7bcb      	ldrb	r3, [r1, #15]
   20302:	061b      	lsls	r3, r3, #24
   20304:	189a      	adds	r2, r3, r2
   20306:	1810      	adds	r0, r2, r0
   20308:	9004      	str	r0, [sp, #16]
   2030a:	7a08      	ldrb	r0, [r1, #8]
   2030c:	7a4a      	ldrb	r2, [r1, #9]
   2030e:	0212      	lsls	r2, r2, #8
   20310:	1810      	adds	r0, r2, r0
   20312:	7a8a      	ldrb	r2, [r1, #10]
   20314:	0412      	lsls	r2, r2, #16
   20316:	7acb      	ldrb	r3, [r1, #11]
   20318:	061b      	lsls	r3, r3, #24
   2031a:	189a      	adds	r2, r3, r2
   2031c:	1810      	adds	r0, r2, r0
   2031e:	9003      	str	r0, [sp, #12]
   20320:	7908      	ldrb	r0, [r1, #4]
   20322:	794a      	ldrb	r2, [r1, #5]
   20324:	0212      	lsls	r2, r2, #8
   20326:	1810      	adds	r0, r2, r0
   20328:	798a      	ldrb	r2, [r1, #6]
   2032a:	0412      	lsls	r2, r2, #16
   2032c:	79cb      	ldrb	r3, [r1, #7]
   2032e:	061b      	lsls	r3, r3, #24
   20330:	189a      	adds	r2, r3, r2
   20332:	1810      	adds	r0, r2, r0
   20334:	9002      	str	r0, [sp, #8]
   20336:	7808      	ldrb	r0, [r1, #0]
   20338:	784a      	ldrb	r2, [r1, #1]
   2033a:	0212      	lsls	r2, r2, #8
   2033c:	1810      	adds	r0, r2, r0
   2033e:	788a      	ldrb	r2, [r1, #2]
   20340:	0412      	lsls	r2, r2, #16
   20342:	78c9      	ldrb	r1, [r1, #3]
   20344:	0609      	lsls	r1, r1, #24
   20346:	1889      	adds	r1, r1, r2
   20348:	1808      	adds	r0, r1, r0
   2034a:	9001      	str	r0, [sp, #4]
   2034c:	a805      	add	r0, sp, #20
   2034e:	2136      	movs	r1, #54	@ 0x36
   20350:	f006 fcae 	bl	26cb0 <__aeabi_memclr4>
   20354:	4822      	ldr	r0, [pc, #136]	@ (203e0 <_ZN18complex_no_dynamic3app17h129aa851248c9e7cE+0xf4>)
   20356:	2501      	movs	r5, #1
   20358:	aa01      	add	r2, sp, #4
   2035a:	2310      	movs	r3, #16
   2035c:	4629      	mov	r1, r5
   2035e:	df04      	svc	4
   20360:	2802      	cmp	r0, #2
   20362:	d00e      	beq.n	20382 <_ZN18complex_no_dynamic3app17h129aa851248c9e7cE+0x96>
   20364:	481e      	ldr	r0, [pc, #120]	@ (203e0 <_ZN18complex_no_dynamic3app17h129aa851248c9e7cE+0xf4>)
   20366:	2107      	movs	r1, #7
   20368:	aa05      	add	r2, sp, #20
   2036a:	2336      	movs	r3, #54	@ 0x36
   2036c:	df03      	svc	3
   2036e:	2802      	cmp	r0, #2
   20370:	d007      	beq.n	20382 <_ZN18complex_no_dynamic3app17h129aa851248c9e7cE+0x96>
   20372:	481b      	ldr	r0, [pc, #108]	@ (203e0 <_ZN18complex_no_dynamic3app17h129aa851248c9e7cE+0xf4>)
   20374:	2101      	movs	r1, #1
   20376:	2207      	movs	r2, #7
   20378:	2600      	movs	r6, #0
   2037a:	4633      	mov	r3, r6
   2037c:	df02      	svc	2
   2037e:	287f      	cmp	r0, #127	@ 0x7f
   20380:	d80f      	bhi.n	203a2 <_ZN18complex_no_dynamic3app17h129aa851248c9e7cE+0xb6>
   20382:	7025      	strb	r5, [r4, #0]
   20384:	6061      	str	r1, [r4, #4]
   20386:	4c16      	ldr	r4, [pc, #88]	@ (203e0 <_ZN18complex_no_dynamic3app17h129aa851248c9e7cE+0xf4>)
   20388:	2107      	movs	r1, #7
   2038a:	2600      	movs	r6, #0
   2038c:	4620      	mov	r0, r4
   2038e:	4632      	mov	r2, r6
   20390:	4633      	mov	r3, r6
   20392:	df03      	svc	3
   20394:	4620      	mov	r0, r4
   20396:	4629      	mov	r1, r5
   20398:	4632      	mov	r2, r6
   2039a:	4633      	mov	r3, r6
   2039c:	df04      	svc	4
   2039e:	b013      	add	sp, #76	@ 0x4c
   203a0:	bdf0      	pop	{r4, r5, r6, r7, pc}
   203a2:	480f      	ldr	r0, [pc, #60]	@ (203e0 <_ZN18complex_no_dynamic3app17h129aa851248c9e7cE+0xf4>)
   203a4:	2507      	movs	r5, #7
   203a6:	4629      	mov	r1, r5
   203a8:	4632      	mov	r2, r6
   203aa:	4633      	mov	r3, r6
   203ac:	df03      	svc	3
   203ae:	480c      	ldr	r0, [pc, #48]	@ (203e0 <_ZN18complex_no_dynamic3app17h129aa851248c9e7cE+0xf4>)
   203b0:	4629      	mov	r1, r5
   203b2:	4632      	mov	r2, r6
   203b4:	4633      	mov	r3, r6
   203b6:	df03      	svc	3
   203b8:	1c60      	adds	r0, r4, #1
   203ba:	a905      	add	r1, sp, #20
   203bc:	2236      	movs	r2, #54	@ 0x36
   203be:	f006 fe24 	bl	2700a <__aeabi_memcpy>
   203c2:	7026      	strb	r6, [r4, #0]
   203c4:	4c06      	ldr	r4, [pc, #24]	@ (203e0 <_ZN18complex_no_dynamic3app17h129aa851248c9e7cE+0xf4>)
   203c6:	4620      	mov	r0, r4
   203c8:	4629      	mov	r1, r5
   203ca:	4632      	mov	r2, r6
   203cc:	4633      	mov	r3, r6
   203ce:	df03      	svc	3
   203d0:	2101      	movs	r1, #1
   203d2:	4620      	mov	r0, r4
   203d4:	4632      	mov	r2, r6
   203d6:	4633      	mov	r3, r6
   203d8:	df04      	svc	4
   203da:	b013      	add	sp, #76	@ 0x4c
   203dc:	bdf0      	pop	{r4, r5, r6, r7, pc}
   203de:	46c0      	nop			@ (mov r8, r8)
   203e0:	00001989 	.word	0x00001989

000203e4 <_ZN18complex_no_dynamic3app17h178e553918a8b8afE>:
   203e4:	b5f0      	push	{r4, r5, r6, r7, lr}
   203e6:	af03      	add	r7, sp, #12
   203e8:	b095      	sub	sp, #84	@ 0x54
   203ea:	4604      	mov	r4, r0
   203ec:	466d      	mov	r5, sp
   203ee:	262c      	movs	r6, #44	@ 0x2c
   203f0:	4628      	mov	r0, r5
   203f2:	4632      	mov	r2, r6
   203f4:	f006 fe09 	bl	2700a <__aeabi_memcpy>
   203f8:	a80b      	add	r0, sp, #44	@ 0x2c
   203fa:	2125      	movs	r1, #37	@ 0x25
   203fc:	f006 fc58 	bl	26cb0 <__aeabi_memclr4>
   20400:	4821      	ldr	r0, [pc, #132]	@ (20488 <_ZN18complex_no_dynamic3app17h178e553918a8b8afE+0xa4>)
   20402:	2103      	movs	r1, #3
   20404:	462a      	mov	r2, r5
   20406:	4633      	mov	r3, r6
   20408:	df04      	svc	4
   2040a:	2802      	cmp	r0, #2
   2040c:	d00e      	beq.n	2042c <_ZN18complex_no_dynamic3app17h178e553918a8b8afE+0x48>
   2040e:	481e      	ldr	r0, [pc, #120]	@ (20488 <_ZN18complex_no_dynamic3app17h178e553918a8b8afE+0xa4>)
   20410:	2100      	movs	r1, #0
   20412:	aa0b      	add	r2, sp, #44	@ 0x2c
   20414:	2325      	movs	r3, #37	@ 0x25
   20416:	df03      	svc	3
   20418:	2802      	cmp	r0, #2
   2041a:	d007      	beq.n	2042c <_ZN18complex_no_dynamic3app17h178e553918a8b8afE+0x48>
   2041c:	481a      	ldr	r0, [pc, #104]	@ (20488 <_ZN18complex_no_dynamic3app17h178e553918a8b8afE+0xa4>)
   2041e:	2103      	movs	r1, #3
   20420:	2500      	movs	r5, #0
   20422:	462a      	mov	r2, r5
   20424:	462b      	mov	r3, r5
   20426:	df02      	svc	2
   20428:	287f      	cmp	r0, #127	@ 0x7f
   2042a:	d810      	bhi.n	2044e <_ZN18complex_no_dynamic3app17h178e553918a8b8afE+0x6a>
   2042c:	2001      	movs	r0, #1
   2042e:	7020      	strb	r0, [r4, #0]
   20430:	6061      	str	r1, [r4, #4]
   20432:	4c15      	ldr	r4, [pc, #84]	@ (20488 <_ZN18complex_no_dynamic3app17h178e553918a8b8afE+0xa4>)
   20434:	2500      	movs	r5, #0
   20436:	4620      	mov	r0, r4
   20438:	4629      	mov	r1, r5
   2043a:	462a      	mov	r2, r5
   2043c:	462b      	mov	r3, r5
   2043e:	df03      	svc	3
   20440:	2103      	movs	r1, #3
   20442:	4620      	mov	r0, r4
   20444:	462a      	mov	r2, r5
   20446:	462b      	mov	r3, r5
   20448:	df04      	svc	4
   2044a:	b015      	add	sp, #84	@ 0x54
   2044c:	bdf0      	pop	{r4, r5, r6, r7, pc}
   2044e:	4e0e      	ldr	r6, [pc, #56]	@ (20488 <_ZN18complex_no_dynamic3app17h178e553918a8b8afE+0xa4>)
   20450:	4630      	mov	r0, r6
   20452:	4629      	mov	r1, r5
   20454:	462a      	mov	r2, r5
   20456:	462b      	mov	r3, r5
   20458:	df03      	svc	3
   2045a:	4630      	mov	r0, r6
   2045c:	4629      	mov	r1, r5
   2045e:	462a      	mov	r2, r5
   20460:	462b      	mov	r3, r5
   20462:	df03      	svc	3
   20464:	1c60      	adds	r0, r4, #1
   20466:	a90b      	add	r1, sp, #44	@ 0x2c
   20468:	2225      	movs	r2, #37	@ 0x25
   2046a:	f006 fdce 	bl	2700a <__aeabi_memcpy>
   2046e:	7025      	strb	r5, [r4, #0]
   20470:	4630      	mov	r0, r6
   20472:	4629      	mov	r1, r5
   20474:	462a      	mov	r2, r5
   20476:	462b      	mov	r3, r5
   20478:	df03      	svc	3
   2047a:	2103      	movs	r1, #3
   2047c:	4630      	mov	r0, r6
   2047e:	462a      	mov	r2, r5
   20480:	462b      	mov	r3, r5
   20482:	df04      	svc	4
   20484:	b015      	add	sp, #84	@ 0x54
   20486:	bdf0      	pop	{r4, r5, r6, r7, pc}
   20488:	0000077f 	.word	0x0000077f

0002048c <_ZN18complex_no_dynamic3app17h1ffde5a49ae59e2cE>:
   2048c:	b5f0      	push	{r4, r5, r6, r7, lr}
   2048e:	af03      	add	r7, sp, #12
   20490:	b093      	sub	sp, #76	@ 0x4c
   20492:	9002      	str	r0, [sp, #8]
   20494:	ae03      	add	r6, sp, #12
   20496:	2425      	movs	r4, #37	@ 0x25
   20498:	4630      	mov	r0, r6
   2049a:	4622      	mov	r2, r4
   2049c:	f006 fdb5 	bl	2700a <__aeabi_memcpy>
   204a0:	2000      	movs	r0, #0
   204a2:	9012      	str	r0, [sp, #72]	@ 0x48
   204a4:	9011      	str	r0, [sp, #68]	@ 0x44
   204a6:	9010      	str	r0, [sp, #64]	@ 0x40
   204a8:	900f      	str	r0, [sp, #60]	@ 0x3c
   204aa:	900e      	str	r0, [sp, #56]	@ 0x38
   204ac:	900d      	str	r0, [sp, #52]	@ 0x34
   204ae:	20a7      	movs	r0, #167	@ 0xa7
   204b0:	0105      	lsls	r5, r0, #4
   204b2:	2109      	movs	r1, #9
   204b4:	4628      	mov	r0, r5
   204b6:	4632      	mov	r2, r6
   204b8:	4623      	mov	r3, r4
   204ba:	df04      	svc	4
   204bc:	2802      	cmp	r0, #2
   204be:	d00e      	beq.n	204de <_ZN18complex_no_dynamic3app17h1ffde5a49ae59e2cE+0x52>
   204c0:	2108      	movs	r1, #8
   204c2:	aa0d      	add	r2, sp, #52	@ 0x34
   204c4:	2318      	movs	r3, #24
   204c6:	4628      	mov	r0, r5
   204c8:	df03      	svc	3
   204ca:	2802      	cmp	r0, #2
   204cc:	d007      	beq.n	204de <_ZN18complex_no_dynamic3app17h1ffde5a49ae59e2cE+0x52>
   204ce:	2109      	movs	r1, #9
   204d0:	2208      	movs	r2, #8
   204d2:	2600      	movs	r6, #0
   204d4:	4628      	mov	r0, r5
   204d6:	4633      	mov	r3, r6
   204d8:	df02      	svc	2
   204da:	287f      	cmp	r0, #127	@ 0x7f
   204dc:	d810      	bhi.n	20500 <_ZN18complex_no_dynamic3app17h1ffde5a49ae59e2cE+0x74>
   204de:	2001      	movs	r0, #1
   204e0:	9a02      	ldr	r2, [sp, #8]
   204e2:	7010      	strb	r0, [r2, #0]
   204e4:	6051      	str	r1, [r2, #4]
   204e6:	2108      	movs	r1, #8
   204e8:	2400      	movs	r4, #0
   204ea:	4628      	mov	r0, r5
   204ec:	4622      	mov	r2, r4
   204ee:	4623      	mov	r3, r4
   204f0:	df03      	svc	3
   204f2:	2109      	movs	r1, #9
   204f4:	4628      	mov	r0, r5
   204f6:	4622      	mov	r2, r4
   204f8:	4623      	mov	r3, r4
   204fa:	df04      	svc	4
   204fc:	b013      	add	sp, #76	@ 0x4c
   204fe:	bdf0      	pop	{r4, r5, r6, r7, pc}
   20500:	2408      	movs	r4, #8
   20502:	9401      	str	r4, [sp, #4]
   20504:	4628      	mov	r0, r5
   20506:	4621      	mov	r1, r4
   20508:	4632      	mov	r2, r6
   2050a:	4633      	mov	r3, r6
   2050c:	df03      	svc	3
   2050e:	4628      	mov	r0, r5
   20510:	4621      	mov	r1, r4
   20512:	4632      	mov	r2, r6
   20514:	4633      	mov	r3, r6
   20516:	df03      	svc	3
   20518:	9c02      	ldr	r4, [sp, #8]
   2051a:	1c60      	adds	r0, r4, #1
   2051c:	a90d      	add	r1, sp, #52	@ 0x34
   2051e:	2218      	movs	r2, #24
   20520:	f006 fd73 	bl	2700a <__aeabi_memcpy>
   20524:	7026      	strb	r6, [r4, #0]
   20526:	4628      	mov	r0, r5
   20528:	9901      	ldr	r1, [sp, #4]
   2052a:	4632      	mov	r2, r6
   2052c:	4633      	mov	r3, r6
   2052e:	df03      	svc	3
   20530:	2109      	movs	r1, #9
   20532:	4628      	mov	r0, r5
   20534:	4632      	mov	r2, r6
   20536:	4633      	mov	r3, r6
   20538:	df04      	svc	4
   2053a:	b013      	add	sp, #76	@ 0x4c
   2053c:	bdf0      	pop	{r4, r5, r6, r7, pc}
   2053e:	d4d4      	bmi.n	204ea <_ZN18complex_no_dynamic3app17h1ffde5a49ae59e2cE+0x5e>

00020540 <_ZN18complex_no_dynamic3app17h205b6bbb5ee8fdffE>:
   20540:	b5f0      	push	{r4, r5, r6, r7, lr}
   20542:	af03      	add	r7, sp, #12
   20544:	b09d      	sub	sp, #116	@ 0x74
   20546:	4604      	mov	r4, r0
   20548:	466d      	mov	r5, sp
   2054a:	263c      	movs	r6, #60	@ 0x3c
   2054c:	4628      	mov	r0, r5
   2054e:	4632      	mov	r2, r6
   20550:	f006 fd5b 	bl	2700a <__aeabi_memcpy>
   20554:	a80f      	add	r0, sp, #60	@ 0x3c
   20556:	2138      	movs	r1, #56	@ 0x38
   20558:	f006 fbaa 	bl	26cb0 <__aeabi_memclr4>
   2055c:	4822      	ldr	r0, [pc, #136]	@ (205e8 <_ZN18complex_no_dynamic3app17h205b6bbb5ee8fdffE+0xa8>)
   2055e:	2103      	movs	r1, #3
   20560:	462a      	mov	r2, r5
   20562:	4633      	mov	r3, r6
   20564:	df04      	svc	4
   20566:	2802      	cmp	r0, #2
   20568:	d00e      	beq.n	20588 <_ZN18complex_no_dynamic3app17h205b6bbb5ee8fdffE+0x48>
   2056a:	481f      	ldr	r0, [pc, #124]	@ (205e8 <_ZN18complex_no_dynamic3app17h205b6bbb5ee8fdffE+0xa8>)
   2056c:	2103      	movs	r1, #3
   2056e:	aa0f      	add	r2, sp, #60	@ 0x3c
   20570:	2338      	movs	r3, #56	@ 0x38
   20572:	df03      	svc	3
   20574:	2802      	cmp	r0, #2
   20576:	d007      	beq.n	20588 <_ZN18complex_no_dynamic3app17h205b6bbb5ee8fdffE+0x48>
   20578:	481b      	ldr	r0, [pc, #108]	@ (205e8 <_ZN18complex_no_dynamic3app17h205b6bbb5ee8fdffE+0xa8>)
   2057a:	2103      	movs	r1, #3
   2057c:	2500      	movs	r5, #0
   2057e:	460a      	mov	r2, r1
   20580:	462b      	mov	r3, r5
   20582:	df02      	svc	2
   20584:	287f      	cmp	r0, #127	@ 0x7f
   20586:	d811      	bhi.n	205ac <_ZN18complex_no_dynamic3app17h205b6bbb5ee8fdffE+0x6c>
   20588:	2001      	movs	r0, #1
   2058a:	7020      	strb	r0, [r4, #0]
   2058c:	6061      	str	r1, [r4, #4]
   2058e:	4c16      	ldr	r4, [pc, #88]	@ (205e8 <_ZN18complex_no_dynamic3app17h205b6bbb5ee8fdffE+0xa8>)
   20590:	2503      	movs	r5, #3
   20592:	2600      	movs	r6, #0
   20594:	4620      	mov	r0, r4
   20596:	4629      	mov	r1, r5
   20598:	4632      	mov	r2, r6
   2059a:	4633      	mov	r3, r6
   2059c:	df03      	svc	3
   2059e:	4620      	mov	r0, r4
   205a0:	4629      	mov	r1, r5
   205a2:	4632      	mov	r2, r6
   205a4:	4633      	mov	r3, r6
   205a6:	df04      	svc	4
   205a8:	b01d      	add	sp, #116	@ 0x74
   205aa:	bdf0      	pop	{r4, r5, r6, r7, pc}
   205ac:	480e      	ldr	r0, [pc, #56]	@ (205e8 <_ZN18complex_no_dynamic3app17h205b6bbb5ee8fdffE+0xa8>)
   205ae:	2603      	movs	r6, #3
   205b0:	4631      	mov	r1, r6
   205b2:	462a      	mov	r2, r5
   205b4:	462b      	mov	r3, r5
   205b6:	df03      	svc	3
   205b8:	480b      	ldr	r0, [pc, #44]	@ (205e8 <_ZN18complex_no_dynamic3app17h205b6bbb5ee8fdffE+0xa8>)
   205ba:	4631      	mov	r1, r6
   205bc:	462a      	mov	r2, r5
   205be:	462b      	mov	r3, r5
   205c0:	df03      	svc	3
   205c2:	1c60      	adds	r0, r4, #1
   205c4:	a90f      	add	r1, sp, #60	@ 0x3c
   205c6:	2238      	movs	r2, #56	@ 0x38
   205c8:	f006 fd1f 	bl	2700a <__aeabi_memcpy>
   205cc:	7025      	strb	r5, [r4, #0]
   205ce:	4c06      	ldr	r4, [pc, #24]	@ (205e8 <_ZN18complex_no_dynamic3app17h205b6bbb5ee8fdffE+0xa8>)
   205d0:	4620      	mov	r0, r4
   205d2:	4631      	mov	r1, r6
   205d4:	462a      	mov	r2, r5
   205d6:	462b      	mov	r3, r5
   205d8:	df03      	svc	3
   205da:	4620      	mov	r0, r4
   205dc:	4631      	mov	r1, r6
   205de:	462a      	mov	r2, r5
   205e0:	462b      	mov	r3, r5
   205e2:	df04      	svc	4
   205e4:	b01d      	add	sp, #116	@ 0x74
   205e6:	bdf0      	pop	{r4, r5, r6, r7, pc}
   205e8:	00001d19 	.word	0x00001d19

000205ec <_ZN18complex_no_dynamic3app17h2100128647de8b5fE>:
   205ec:	b5f0      	push	{r4, r5, r6, r7, lr}
   205ee:	af03      	add	r7, sp, #12
   205f0:	b09b      	sub	sp, #108	@ 0x6c
   205f2:	9000      	str	r0, [sp, #0]
   205f4:	ae01      	add	r6, sp, #4
   205f6:	2441      	movs	r4, #65	@ 0x41
   205f8:	4630      	mov	r0, r6
   205fa:	4622      	mov	r2, r4
   205fc:	f006 fd05 	bl	2700a <__aeabi_memcpy>
   20600:	a812      	add	r0, sp, #72	@ 0x48
   20602:	2122      	movs	r1, #34	@ 0x22
   20604:	f006 fb54 	bl	26cb0 <__aeabi_memclr4>
   20608:	4822      	ldr	r0, [pc, #136]	@ (20694 <_ZN18complex_no_dynamic3app17h2100128647de8b5fE+0xa8>)
   2060a:	2501      	movs	r5, #1
   2060c:	4629      	mov	r1, r5
   2060e:	4632      	mov	r2, r6
   20610:	4623      	mov	r3, r4
   20612:	df04      	svc	4
   20614:	2802      	cmp	r0, #2
   20616:	d00e      	beq.n	20636 <_ZN18complex_no_dynamic3app17h2100128647de8b5fE+0x4a>
   20618:	481e      	ldr	r0, [pc, #120]	@ (20694 <_ZN18complex_no_dynamic3app17h2100128647de8b5fE+0xa8>)
   2061a:	2100      	movs	r1, #0
   2061c:	aa12      	add	r2, sp, #72	@ 0x48
   2061e:	2322      	movs	r3, #34	@ 0x22
   20620:	df03      	svc	3
   20622:	2802      	cmp	r0, #2
   20624:	d007      	beq.n	20636 <_ZN18complex_no_dynamic3app17h2100128647de8b5fE+0x4a>
   20626:	481b      	ldr	r0, [pc, #108]	@ (20694 <_ZN18complex_no_dynamic3app17h2100128647de8b5fE+0xa8>)
   20628:	2101      	movs	r1, #1
   2062a:	2600      	movs	r6, #0
   2062c:	4632      	mov	r2, r6
   2062e:	4633      	mov	r3, r6
   20630:	df02      	svc	2
   20632:	287f      	cmp	r0, #127	@ 0x7f
   20634:	d810      	bhi.n	20658 <_ZN18complex_no_dynamic3app17h2100128647de8b5fE+0x6c>
   20636:	9800      	ldr	r0, [sp, #0]
   20638:	7005      	strb	r5, [r0, #0]
   2063a:	6041      	str	r1, [r0, #4]
   2063c:	4c15      	ldr	r4, [pc, #84]	@ (20694 <_ZN18complex_no_dynamic3app17h2100128647de8b5fE+0xa8>)
   2063e:	2600      	movs	r6, #0
   20640:	4620      	mov	r0, r4
   20642:	4631      	mov	r1, r6
   20644:	4632      	mov	r2, r6
   20646:	4633      	mov	r3, r6
   20648:	df03      	svc	3
   2064a:	4620      	mov	r0, r4
   2064c:	4629      	mov	r1, r5
   2064e:	4632      	mov	r2, r6
   20650:	4633      	mov	r3, r6
   20652:	df04      	svc	4
   20654:	b01b      	add	sp, #108	@ 0x6c
   20656:	bdf0      	pop	{r4, r5, r6, r7, pc}
   20658:	4d0e      	ldr	r5, [pc, #56]	@ (20694 <_ZN18complex_no_dynamic3app17h2100128647de8b5fE+0xa8>)
   2065a:	4628      	mov	r0, r5
   2065c:	4631      	mov	r1, r6
   2065e:	4632      	mov	r2, r6
   20660:	4633      	mov	r3, r6
   20662:	df03      	svc	3
   20664:	4628      	mov	r0, r5
   20666:	4631      	mov	r1, r6
   20668:	4632      	mov	r2, r6
   2066a:	4633      	mov	r3, r6
   2066c:	df03      	svc	3
   2066e:	9c00      	ldr	r4, [sp, #0]
   20670:	1c60      	adds	r0, r4, #1
   20672:	a912      	add	r1, sp, #72	@ 0x48
   20674:	2222      	movs	r2, #34	@ 0x22
   20676:	f006 fcc8 	bl	2700a <__aeabi_memcpy>
   2067a:	7026      	strb	r6, [r4, #0]
   2067c:	4628      	mov	r0, r5
   2067e:	4631      	mov	r1, r6
   20680:	4632      	mov	r2, r6
   20682:	4633      	mov	r3, r6
   20684:	df03      	svc	3
   20686:	2101      	movs	r1, #1
   20688:	4628      	mov	r0, r5
   2068a:	4632      	mov	r2, r6
   2068c:	4633      	mov	r3, r6
   2068e:	df04      	svc	4
   20690:	b01b      	add	sp, #108	@ 0x6c
   20692:	bdf0      	pop	{r4, r5, r6, r7, pc}
   20694:	0000247c 	.word	0x0000247c

00020698 <_ZN18complex_no_dynamic3app17h2237e4237bb6ec1bE>:
   20698:	b5f0      	push	{r4, r5, r6, r7, lr}
   2069a:	af03      	add	r7, sp, #12
   2069c:	b095      	sub	sp, #84	@ 0x54
   2069e:	4604      	mov	r4, r0
   206a0:	ad01      	add	r5, sp, #4
   206a2:	2623      	movs	r6, #35	@ 0x23
   206a4:	4628      	mov	r0, r5
   206a6:	4632      	mov	r2, r6
   206a8:	f006 fcaf 	bl	2700a <__aeabi_memcpy>
   206ac:	a80a      	add	r0, sp, #40	@ 0x28
   206ae:	212b      	movs	r1, #43	@ 0x2b
   206b0:	f006 fafe 	bl	26cb0 <__aeabi_memclr4>
   206b4:	4821      	ldr	r0, [pc, #132]	@ (2073c <_ZN18complex_no_dynamic3app17h2237e4237bb6ec1bE+0xa4>)
   206b6:	2102      	movs	r1, #2
   206b8:	462a      	mov	r2, r5
   206ba:	4633      	mov	r3, r6
   206bc:	df04      	svc	4
   206be:	2802      	cmp	r0, #2
   206c0:	d00e      	beq.n	206e0 <_ZN18complex_no_dynamic3app17h2237e4237bb6ec1bE+0x48>
   206c2:	481e      	ldr	r0, [pc, #120]	@ (2073c <_ZN18complex_no_dynamic3app17h2237e4237bb6ec1bE+0xa4>)
   206c4:	2100      	movs	r1, #0
   206c6:	aa0a      	add	r2, sp, #40	@ 0x28
   206c8:	232b      	movs	r3, #43	@ 0x2b
   206ca:	df03      	svc	3
   206cc:	2802      	cmp	r0, #2
   206ce:	d007      	beq.n	206e0 <_ZN18complex_no_dynamic3app17h2237e4237bb6ec1bE+0x48>
   206d0:	481a      	ldr	r0, [pc, #104]	@ (2073c <_ZN18complex_no_dynamic3app17h2237e4237bb6ec1bE+0xa4>)
   206d2:	2102      	movs	r1, #2
   206d4:	2500      	movs	r5, #0
   206d6:	462a      	mov	r2, r5
   206d8:	462b      	mov	r3, r5
   206da:	df02      	svc	2
   206dc:	287f      	cmp	r0, #127	@ 0x7f
   206de:	d810      	bhi.n	20702 <_ZN18complex_no_dynamic3app17h2237e4237bb6ec1bE+0x6a>
   206e0:	2001      	movs	r0, #1
   206e2:	7020      	strb	r0, [r4, #0]
   206e4:	6061      	str	r1, [r4, #4]
   206e6:	4c15      	ldr	r4, [pc, #84]	@ (2073c <_ZN18complex_no_dynamic3app17h2237e4237bb6ec1bE+0xa4>)
   206e8:	2500      	movs	r5, #0
   206ea:	4620      	mov	r0, r4
   206ec:	4629      	mov	r1, r5
   206ee:	462a      	mov	r2, r5
   206f0:	462b      	mov	r3, r5
   206f2:	df03      	svc	3
   206f4:	2102      	movs	r1, #2
   206f6:	4620      	mov	r0, r4
   206f8:	462a      	mov	r2, r5
   206fa:	462b      	mov	r3, r5
   206fc:	df04      	svc	4
   206fe:	b015      	add	sp, #84	@ 0x54
   20700:	bdf0      	pop	{r4, r5, r6, r7, pc}
   20702:	4e0e      	ldr	r6, [pc, #56]	@ (2073c <_ZN18complex_no_dynamic3app17h2237e4237bb6ec1bE+0xa4>)
   20704:	4630      	mov	r0, r6
   20706:	4629      	mov	r1, r5
   20708:	462a      	mov	r2, r5
   2070a:	462b      	mov	r3, r5
   2070c:	df03      	svc	3
   2070e:	4630      	mov	r0, r6
   20710:	4629      	mov	r1, r5
   20712:	462a      	mov	r2, r5
   20714:	462b      	mov	r3, r5
   20716:	df03      	svc	3
   20718:	1c60      	adds	r0, r4, #1
   2071a:	a90a      	add	r1, sp, #40	@ 0x28
   2071c:	222b      	movs	r2, #43	@ 0x2b
   2071e:	f006 fc74 	bl	2700a <__aeabi_memcpy>
   20722:	7025      	strb	r5, [r4, #0]
   20724:	4630      	mov	r0, r6
   20726:	4629      	mov	r1, r5
   20728:	462a      	mov	r2, r5
   2072a:	462b      	mov	r3, r5
   2072c:	df03      	svc	3
   2072e:	2102      	movs	r1, #2
   20730:	4630      	mov	r0, r6
   20732:	462a      	mov	r2, r5
   20734:	462b      	mov	r3, r5
   20736:	df04      	svc	4
   20738:	b015      	add	sp, #84	@ 0x54
   2073a:	bdf0      	pop	{r4, r5, r6, r7, pc}
   2073c:	00000d5d 	.word	0x00000d5d

00020740 <_ZN18complex_no_dynamic3app17h238f7854a047fee9E>:
   20740:	b5f0      	push	{r4, r5, r6, r7, lr}
   20742:	af03      	add	r7, sp, #12
   20744:	b099      	sub	sp, #100	@ 0x64
   20746:	4604      	mov	r4, r0
   20748:	466d      	mov	r5, sp
   2074a:	2611      	movs	r6, #17
   2074c:	4628      	mov	r0, r5
   2074e:	4632      	mov	r2, r6
   20750:	f006 fc5b 	bl	2700a <__aeabi_memcpy>
   20754:	a805      	add	r0, sp, #20
   20756:	2150      	movs	r1, #80	@ 0x50
   20758:	f006 faaa 	bl	26cb0 <__aeabi_memclr4>
   2075c:	4822      	ldr	r0, [pc, #136]	@ (207e8 <_ZN18complex_no_dynamic3app17h238f7854a047fee9E+0xa8>)
   2075e:	2106      	movs	r1, #6
   20760:	462a      	mov	r2, r5
   20762:	4633      	mov	r3, r6
   20764:	df04      	svc	4
   20766:	2802      	cmp	r0, #2
   20768:	d00e      	beq.n	20788 <_ZN18complex_no_dynamic3app17h238f7854a047fee9E+0x48>
   2076a:	481f      	ldr	r0, [pc, #124]	@ (207e8 <_ZN18complex_no_dynamic3app17h238f7854a047fee9E+0xa8>)
   2076c:	2105      	movs	r1, #5
   2076e:	aa05      	add	r2, sp, #20
   20770:	2350      	movs	r3, #80	@ 0x50
   20772:	df03      	svc	3
   20774:	2802      	cmp	r0, #2
   20776:	d007      	beq.n	20788 <_ZN18complex_no_dynamic3app17h238f7854a047fee9E+0x48>
   20778:	481b      	ldr	r0, [pc, #108]	@ (207e8 <_ZN18complex_no_dynamic3app17h238f7854a047fee9E+0xa8>)
   2077a:	2106      	movs	r1, #6
   2077c:	2205      	movs	r2, #5
   2077e:	2500      	movs	r5, #0
   20780:	462b      	mov	r3, r5
   20782:	df02      	svc	2
   20784:	287f      	cmp	r0, #127	@ 0x7f
   20786:	d810      	bhi.n	207aa <_ZN18complex_no_dynamic3app17h238f7854a047fee9E+0x6a>
   20788:	2001      	movs	r0, #1
   2078a:	7020      	strb	r0, [r4, #0]
   2078c:	6061      	str	r1, [r4, #4]
   2078e:	4c16      	ldr	r4, [pc, #88]	@ (207e8 <_ZN18complex_no_dynamic3app17h238f7854a047fee9E+0xa8>)
   20790:	2105      	movs	r1, #5
   20792:	2500      	movs	r5, #0
   20794:	4620      	mov	r0, r4
   20796:	462a      	mov	r2, r5
   20798:	462b      	mov	r3, r5
   2079a:	df03      	svc	3
   2079c:	2106      	movs	r1, #6
   2079e:	4620      	mov	r0, r4
   207a0:	462a      	mov	r2, r5
   207a2:	462b      	mov	r3, r5
   207a4:	df04      	svc	4
   207a6:	b019      	add	sp, #100	@ 0x64
   207a8:	bdf0      	pop	{r4, r5, r6, r7, pc}
   207aa:	480f      	ldr	r0, [pc, #60]	@ (207e8 <_ZN18complex_no_dynamic3app17h238f7854a047fee9E+0xa8>)
   207ac:	2605      	movs	r6, #5
   207ae:	4631      	mov	r1, r6
   207b0:	462a      	mov	r2, r5
   207b2:	462b      	mov	r3, r5
   207b4:	df03      	svc	3
   207b6:	480c      	ldr	r0, [pc, #48]	@ (207e8 <_ZN18complex_no_dynamic3app17h238f7854a047fee9E+0xa8>)
   207b8:	4631      	mov	r1, r6
   207ba:	462a      	mov	r2, r5
   207bc:	462b      	mov	r3, r5
   207be:	df03      	svc	3
   207c0:	1c60      	adds	r0, r4, #1
   207c2:	a905      	add	r1, sp, #20
   207c4:	2250      	movs	r2, #80	@ 0x50
   207c6:	f006 fc20 	bl	2700a <__aeabi_memcpy>
   207ca:	7025      	strb	r5, [r4, #0]
   207cc:	4c06      	ldr	r4, [pc, #24]	@ (207e8 <_ZN18complex_no_dynamic3app17h238f7854a047fee9E+0xa8>)
   207ce:	4620      	mov	r0, r4
   207d0:	4631      	mov	r1, r6
   207d2:	462a      	mov	r2, r5
   207d4:	462b      	mov	r3, r5
   207d6:	df03      	svc	3
   207d8:	2106      	movs	r1, #6
   207da:	4620      	mov	r0, r4
   207dc:	462a      	mov	r2, r5
   207de:	462b      	mov	r3, r5
   207e0:	df04      	svc	4
   207e2:	b019      	add	sp, #100	@ 0x64
   207e4:	bdf0      	pop	{r4, r5, r6, r7, pc}
   207e6:	46c0      	nop			@ (mov r8, r8)
   207e8:	00001aa9 	.word	0x00001aa9

000207ec <_ZN18complex_no_dynamic3app17h25b8b5041a213995E>:
   207ec:	b5f0      	push	{r4, r5, r6, r7, lr}
   207ee:	af03      	add	r7, sp, #12
   207f0:	b09d      	sub	sp, #116	@ 0x74
   207f2:	4604      	mov	r4, r0
   207f4:	466d      	mov	r5, sp
   207f6:	2648      	movs	r6, #72	@ 0x48
   207f8:	4628      	mov	r0, r5
   207fa:	4632      	mov	r2, r6
   207fc:	f006 fc05 	bl	2700a <__aeabi_memcpy>
   20800:	a812      	add	r0, sp, #72	@ 0x48
   20802:	2129      	movs	r1, #41	@ 0x29
   20804:	f006 fa54 	bl	26cb0 <__aeabi_memclr4>
   20808:	4822      	ldr	r0, [pc, #136]	@ (20894 <_ZN18complex_no_dynamic3app17h25b8b5041a213995E+0xa8>)
   2080a:	2103      	movs	r1, #3
   2080c:	462a      	mov	r2, r5
   2080e:	4633      	mov	r3, r6
   20810:	df04      	svc	4
   20812:	2802      	cmp	r0, #2
   20814:	d00e      	beq.n	20834 <_ZN18complex_no_dynamic3app17h25b8b5041a213995E+0x48>
   20816:	481f      	ldr	r0, [pc, #124]	@ (20894 <_ZN18complex_no_dynamic3app17h25b8b5041a213995E+0xa8>)
   20818:	2104      	movs	r1, #4
   2081a:	aa12      	add	r2, sp, #72	@ 0x48
   2081c:	2329      	movs	r3, #41	@ 0x29
   2081e:	df03      	svc	3
   20820:	2802      	cmp	r0, #2
   20822:	d007      	beq.n	20834 <_ZN18complex_no_dynamic3app17h25b8b5041a213995E+0x48>
   20824:	481b      	ldr	r0, [pc, #108]	@ (20894 <_ZN18complex_no_dynamic3app17h25b8b5041a213995E+0xa8>)
   20826:	2103      	movs	r1, #3
   20828:	2204      	movs	r2, #4
   2082a:	2500      	movs	r5, #0
   2082c:	462b      	mov	r3, r5
   2082e:	df02      	svc	2
   20830:	287f      	cmp	r0, #127	@ 0x7f
   20832:	d810      	bhi.n	20856 <_ZN18complex_no_dynamic3app17h25b8b5041a213995E+0x6a>
   20834:	2001      	movs	r0, #1
   20836:	7020      	strb	r0, [r4, #0]
   20838:	6061      	str	r1, [r4, #4]
   2083a:	4c16      	ldr	r4, [pc, #88]	@ (20894 <_ZN18complex_no_dynamic3app17h25b8b5041a213995E+0xa8>)
   2083c:	2104      	movs	r1, #4
   2083e:	2500      	movs	r5, #0
   20840:	4620      	mov	r0, r4
   20842:	462a      	mov	r2, r5
   20844:	462b      	mov	r3, r5
   20846:	df03      	svc	3
   20848:	2103      	movs	r1, #3
   2084a:	4620      	mov	r0, r4
   2084c:	462a      	mov	r2, r5
   2084e:	462b      	mov	r3, r5
   20850:	df04      	svc	4
   20852:	b01d      	add	sp, #116	@ 0x74
   20854:	bdf0      	pop	{r4, r5, r6, r7, pc}
   20856:	480f      	ldr	r0, [pc, #60]	@ (20894 <_ZN18complex_no_dynamic3app17h25b8b5041a213995E+0xa8>)
   20858:	2604      	movs	r6, #4
   2085a:	4631      	mov	r1, r6
   2085c:	462a      	mov	r2, r5
   2085e:	462b      	mov	r3, r5
   20860:	df03      	svc	3
   20862:	480c      	ldr	r0, [pc, #48]	@ (20894 <_ZN18complex_no_dynamic3app17h25b8b5041a213995E+0xa8>)
   20864:	4631      	mov	r1, r6
   20866:	462a      	mov	r2, r5
   20868:	462b      	mov	r3, r5
   2086a:	df03      	svc	3
   2086c:	1c60      	adds	r0, r4, #1
   2086e:	a912      	add	r1, sp, #72	@ 0x48
   20870:	2229      	movs	r2, #41	@ 0x29
   20872:	f006 fbca 	bl	2700a <__aeabi_memcpy>
   20876:	7025      	strb	r5, [r4, #0]
   20878:	4c06      	ldr	r4, [pc, #24]	@ (20894 <_ZN18complex_no_dynamic3app17h25b8b5041a213995E+0xa8>)
   2087a:	4620      	mov	r0, r4
   2087c:	4631      	mov	r1, r6
   2087e:	462a      	mov	r2, r5
   20880:	462b      	mov	r3, r5
   20882:	df03      	svc	3
   20884:	2103      	movs	r1, #3
   20886:	4620      	mov	r0, r4
   20888:	462a      	mov	r2, r5
   2088a:	462b      	mov	r3, r5
   2088c:	df04      	svc	4
   2088e:	b01d      	add	sp, #116	@ 0x74
   20890:	bdf0      	pop	{r4, r5, r6, r7, pc}
   20892:	46c0      	nop			@ (mov r8, r8)
   20894:	000026a4 	.word	0x000026a4

00020898 <_ZN18complex_no_dynamic3app17h25eb6b1d76ae4fd2E>:
   20898:	b5f0      	push	{r4, r5, r6, r7, lr}
   2089a:	af03      	add	r7, sp, #12
   2089c:	b08f      	sub	sp, #60	@ 0x3c
   2089e:	4604      	mov	r4, r0
   208a0:	466d      	mov	r5, sp
   208a2:	2627      	movs	r6, #39	@ 0x27
   208a4:	4628      	mov	r0, r5
   208a6:	4632      	mov	r2, r6
   208a8:	f006 fbaf 	bl	2700a <__aeabi_memcpy>
   208ac:	2000      	movs	r0, #0
   208ae:	900e      	str	r0, [sp, #56]	@ 0x38
   208b0:	900d      	str	r0, [sp, #52]	@ 0x34
   208b2:	900c      	str	r0, [sp, #48]	@ 0x30
   208b4:	900b      	str	r0, [sp, #44]	@ 0x2c
   208b6:	900a      	str	r0, [sp, #40]	@ 0x28
   208b8:	4822      	ldr	r0, [pc, #136]	@ (20944 <_ZN18complex_no_dynamic3app17h25eb6b1d76ae4fd2E+0xac>)
   208ba:	2106      	movs	r1, #6
   208bc:	462a      	mov	r2, r5
   208be:	4633      	mov	r3, r6
   208c0:	df04      	svc	4
   208c2:	2802      	cmp	r0, #2
   208c4:	d00e      	beq.n	208e4 <_ZN18complex_no_dynamic3app17h25eb6b1d76ae4fd2E+0x4c>
   208c6:	481f      	ldr	r0, [pc, #124]	@ (20944 <_ZN18complex_no_dynamic3app17h25eb6b1d76ae4fd2E+0xac>)
   208c8:	2105      	movs	r1, #5
   208ca:	aa0a      	add	r2, sp, #40	@ 0x28
   208cc:	2314      	movs	r3, #20
   208ce:	df03      	svc	3
   208d0:	2802      	cmp	r0, #2
   208d2:	d007      	beq.n	208e4 <_ZN18complex_no_dynamic3app17h25eb6b1d76ae4fd2E+0x4c>
   208d4:	481b      	ldr	r0, [pc, #108]	@ (20944 <_ZN18complex_no_dynamic3app17h25eb6b1d76ae4fd2E+0xac>)
   208d6:	2106      	movs	r1, #6
   208d8:	2205      	movs	r2, #5
   208da:	2500      	movs	r5, #0
   208dc:	462b      	mov	r3, r5
   208de:	df02      	svc	2
   208e0:	287f      	cmp	r0, #127	@ 0x7f
   208e2:	d810      	bhi.n	20906 <_ZN18complex_no_dynamic3app17h25eb6b1d76ae4fd2E+0x6e>
   208e4:	2001      	movs	r0, #1
   208e6:	7020      	strb	r0, [r4, #0]
   208e8:	6061      	str	r1, [r4, #4]
   208ea:	4c16      	ldr	r4, [pc, #88]	@ (20944 <_ZN18complex_no_dynamic3app17h25eb6b1d76ae4fd2E+0xac>)
   208ec:	2105      	movs	r1, #5
   208ee:	2500      	movs	r5, #0
   208f0:	4620      	mov	r0, r4
   208f2:	462a      	mov	r2, r5
   208f4:	462b      	mov	r3, r5
   208f6:	df03      	svc	3
   208f8:	2106      	movs	r1, #6
   208fa:	4620      	mov	r0, r4
   208fc:	462a      	mov	r2, r5
   208fe:	462b      	mov	r3, r5
   20900:	df04      	svc	4
   20902:	b00f      	add	sp, #60	@ 0x3c
   20904:	bdf0      	pop	{r4, r5, r6, r7, pc}
   20906:	480f      	ldr	r0, [pc, #60]	@ (20944 <_ZN18complex_no_dynamic3app17h25eb6b1d76ae4fd2E+0xac>)
   20908:	2605      	movs	r6, #5
   2090a:	4631      	mov	r1, r6
   2090c:	462a      	mov	r2, r5
   2090e:	462b      	mov	r3, r5
   20910:	df03      	svc	3
   20912:	480c      	ldr	r0, [pc, #48]	@ (20944 <_ZN18complex_no_dynamic3app17h25eb6b1d76ae4fd2E+0xac>)
   20914:	4631      	mov	r1, r6
   20916:	462a      	mov	r2, r5
   20918:	462b      	mov	r3, r5
   2091a:	df03      	svc	3
   2091c:	1c60      	adds	r0, r4, #1
   2091e:	a90a      	add	r1, sp, #40	@ 0x28
   20920:	2214      	movs	r2, #20
   20922:	f006 fb72 	bl	2700a <__aeabi_memcpy>
   20926:	7025      	strb	r5, [r4, #0]
   20928:	4c06      	ldr	r4, [pc, #24]	@ (20944 <_ZN18complex_no_dynamic3app17h25eb6b1d76ae4fd2E+0xac>)
   2092a:	4620      	mov	r0, r4
   2092c:	4631      	mov	r1, r6
   2092e:	462a      	mov	r2, r5
   20930:	462b      	mov	r3, r5
   20932:	df03      	svc	3
   20934:	2106      	movs	r1, #6
   20936:	4620      	mov	r0, r4
   20938:	462a      	mov	r2, r5
   2093a:	462b      	mov	r3, r5
   2093c:	df04      	svc	4
   2093e:	b00f      	add	sp, #60	@ 0x3c
   20940:	bdf0      	pop	{r4, r5, r6, r7, pc}
   20942:	46c0      	nop			@ (mov r8, r8)
   20944:	000022c9 	.word	0x000022c9

00020948 <_ZN18complex_no_dynamic3app17h287bfbbaf2da01e7E>:
   20948:	b5f0      	push	{r4, r5, r6, r7, lr}
   2094a:	af03      	add	r7, sp, #12
   2094c:	b0a5      	sub	sp, #148	@ 0x94
   2094e:	4604      	mov	r4, r0
   20950:	ad01      	add	r5, sp, #4
   20952:	262f      	movs	r6, #47	@ 0x2f
   20954:	4628      	mov	r0, r5
   20956:	4632      	mov	r2, r6
   20958:	f006 fb57 	bl	2700a <__aeabi_memcpy>
   2095c:	a80d      	add	r0, sp, #52	@ 0x34
   2095e:	215e      	movs	r1, #94	@ 0x5e
   20960:	f006 f9a6 	bl	26cb0 <__aeabi_memclr4>
   20964:	4822      	ldr	r0, [pc, #136]	@ (209f0 <_ZN18complex_no_dynamic3app17h287bfbbaf2da01e7E+0xa8>)
   20966:	2105      	movs	r1, #5
   20968:	462a      	mov	r2, r5
   2096a:	4633      	mov	r3, r6
   2096c:	df04      	svc	4
   2096e:	2802      	cmp	r0, #2
   20970:	d00e      	beq.n	20990 <_ZN18complex_no_dynamic3app17h287bfbbaf2da01e7E+0x48>
   20972:	481f      	ldr	r0, [pc, #124]	@ (209f0 <_ZN18complex_no_dynamic3app17h287bfbbaf2da01e7E+0xa8>)
   20974:	2102      	movs	r1, #2
   20976:	aa0d      	add	r2, sp, #52	@ 0x34
   20978:	235e      	movs	r3, #94	@ 0x5e
   2097a:	df03      	svc	3
   2097c:	2802      	cmp	r0, #2
   2097e:	d007      	beq.n	20990 <_ZN18complex_no_dynamic3app17h287bfbbaf2da01e7E+0x48>
   20980:	481b      	ldr	r0, [pc, #108]	@ (209f0 <_ZN18complex_no_dynamic3app17h287bfbbaf2da01e7E+0xa8>)
   20982:	2105      	movs	r1, #5
   20984:	2202      	movs	r2, #2
   20986:	2500      	movs	r5, #0
   20988:	462b      	mov	r3, r5
   2098a:	df02      	svc	2
   2098c:	287f      	cmp	r0, #127	@ 0x7f
   2098e:	d810      	bhi.n	209b2 <_ZN18complex_no_dynamic3app17h287bfbbaf2da01e7E+0x6a>
   20990:	2001      	movs	r0, #1
   20992:	7020      	strb	r0, [r4, #0]
   20994:	6061      	str	r1, [r4, #4]
   20996:	4c16      	ldr	r4, [pc, #88]	@ (209f0 <_ZN18complex_no_dynamic3app17h287bfbbaf2da01e7E+0xa8>)
   20998:	2102      	movs	r1, #2
   2099a:	2500      	movs	r5, #0
   2099c:	4620      	mov	r0, r4
   2099e:	462a      	mov	r2, r5
   209a0:	462b      	mov	r3, r5
   209a2:	df03      	svc	3
   209a4:	2105      	movs	r1, #5
   209a6:	4620      	mov	r0, r4
   209a8:	462a      	mov	r2, r5
   209aa:	462b      	mov	r3, r5
   209ac:	df04      	svc	4
   209ae:	b025      	add	sp, #148	@ 0x94
   209b0:	bdf0      	pop	{r4, r5, r6, r7, pc}
   209b2:	480f      	ldr	r0, [pc, #60]	@ (209f0 <_ZN18complex_no_dynamic3app17h287bfbbaf2da01e7E+0xa8>)
   209b4:	2602      	movs	r6, #2
   209b6:	4631      	mov	r1, r6
   209b8:	462a      	mov	r2, r5
   209ba:	462b      	mov	r3, r5
   209bc:	df03      	svc	3
   209be:	480c      	ldr	r0, [pc, #48]	@ (209f0 <_ZN18complex_no_dynamic3app17h287bfbbaf2da01e7E+0xa8>)
   209c0:	4631      	mov	r1, r6
   209c2:	462a      	mov	r2, r5
   209c4:	462b      	mov	r3, r5
   209c6:	df03      	svc	3
   209c8:	1c60      	adds	r0, r4, #1
   209ca:	a90d      	add	r1, sp, #52	@ 0x34
   209cc:	225e      	movs	r2, #94	@ 0x5e
   209ce:	f006 fb1c 	bl	2700a <__aeabi_memcpy>
   209d2:	7025      	strb	r5, [r4, #0]
   209d4:	4c06      	ldr	r4, [pc, #24]	@ (209f0 <_ZN18complex_no_dynamic3app17h287bfbbaf2da01e7E+0xa8>)
   209d6:	4620      	mov	r0, r4
   209d8:	4631      	mov	r1, r6
   209da:	462a      	mov	r2, r5
   209dc:	462b      	mov	r3, r5
   209de:	df03      	svc	3
   209e0:	2105      	movs	r1, #5
   209e2:	4620      	mov	r0, r4
   209e4:	462a      	mov	r2, r5
   209e6:	462b      	mov	r3, r5
   209e8:	df04      	svc	4
   209ea:	b025      	add	sp, #148	@ 0x94
   209ec:	bdf0      	pop	{r4, r5, r6, r7, pc}
   209ee:	46c0      	nop			@ (mov r8, r8)
   209f0:	0000022b 	.word	0x0000022b

000209f4 <_ZN18complex_no_dynamic3app17h2b3a08784a9434b0E>:
   209f4:	b5f0      	push	{r4, r5, r6, r7, lr}
   209f6:	af03      	add	r7, sp, #12
   209f8:	b0ab      	sub	sp, #172	@ 0xac
   209fa:	4604      	mov	r4, r0
   209fc:	ad01      	add	r5, sp, #4
   209fe:	2659      	movs	r6, #89	@ 0x59
   20a00:	4628      	mov	r0, r5
   20a02:	4632      	mov	r2, r6
   20a04:	f006 fb01 	bl	2700a <__aeabi_memcpy>
   20a08:	a818      	add	r0, sp, #96	@ 0x60
   20a0a:	214a      	movs	r1, #74	@ 0x4a
   20a0c:	f006 f950 	bl	26cb0 <__aeabi_memclr4>
   20a10:	4822      	ldr	r0, [pc, #136]	@ (20a9c <_ZN18complex_no_dynamic3app17h2b3a08784a9434b0E+0xa8>)
   20a12:	2100      	movs	r1, #0
   20a14:	462a      	mov	r2, r5
   20a16:	4633      	mov	r3, r6
   20a18:	df04      	svc	4
   20a1a:	2802      	cmp	r0, #2
   20a1c:	d00e      	beq.n	20a3c <_ZN18complex_no_dynamic3app17h2b3a08784a9434b0E+0x48>
   20a1e:	481f      	ldr	r0, [pc, #124]	@ (20a9c <_ZN18complex_no_dynamic3app17h2b3a08784a9434b0E+0xa8>)
   20a20:	2104      	movs	r1, #4
   20a22:	aa18      	add	r2, sp, #96	@ 0x60
   20a24:	234a      	movs	r3, #74	@ 0x4a
   20a26:	df03      	svc	3
   20a28:	2802      	cmp	r0, #2
   20a2a:	d007      	beq.n	20a3c <_ZN18complex_no_dynamic3app17h2b3a08784a9434b0E+0x48>
   20a2c:	481b      	ldr	r0, [pc, #108]	@ (20a9c <_ZN18complex_no_dynamic3app17h2b3a08784a9434b0E+0xa8>)
   20a2e:	2204      	movs	r2, #4
   20a30:	2500      	movs	r5, #0
   20a32:	4629      	mov	r1, r5
   20a34:	462b      	mov	r3, r5
   20a36:	df02      	svc	2
   20a38:	287f      	cmp	r0, #127	@ 0x7f
   20a3a:	d810      	bhi.n	20a5e <_ZN18complex_no_dynamic3app17h2b3a08784a9434b0E+0x6a>
   20a3c:	2001      	movs	r0, #1
   20a3e:	7020      	strb	r0, [r4, #0]
   20a40:	6061      	str	r1, [r4, #4]
   20a42:	4c16      	ldr	r4, [pc, #88]	@ (20a9c <_ZN18complex_no_dynamic3app17h2b3a08784a9434b0E+0xa8>)
   20a44:	2104      	movs	r1, #4
   20a46:	2500      	movs	r5, #0
   20a48:	4620      	mov	r0, r4
   20a4a:	462a      	mov	r2, r5
   20a4c:	462b      	mov	r3, r5
   20a4e:	df03      	svc	3
   20a50:	4620      	mov	r0, r4
   20a52:	4629      	mov	r1, r5
   20a54:	462a      	mov	r2, r5
   20a56:	462b      	mov	r3, r5
   20a58:	df04      	svc	4
   20a5a:	b02b      	add	sp, #172	@ 0xac
   20a5c:	bdf0      	pop	{r4, r5, r6, r7, pc}
   20a5e:	480f      	ldr	r0, [pc, #60]	@ (20a9c <_ZN18complex_no_dynamic3app17h2b3a08784a9434b0E+0xa8>)
   20a60:	2604      	movs	r6, #4
   20a62:	4631      	mov	r1, r6
   20a64:	462a      	mov	r2, r5
   20a66:	462b      	mov	r3, r5
   20a68:	df03      	svc	3
   20a6a:	480c      	ldr	r0, [pc, #48]	@ (20a9c <_ZN18complex_no_dynamic3app17h2b3a08784a9434b0E+0xa8>)
   20a6c:	4631      	mov	r1, r6
   20a6e:	462a      	mov	r2, r5
   20a70:	462b      	mov	r3, r5
   20a72:	df03      	svc	3
   20a74:	1c60      	adds	r0, r4, #1
   20a76:	a918      	add	r1, sp, #96	@ 0x60
   20a78:	224a      	movs	r2, #74	@ 0x4a
   20a7a:	f006 fac6 	bl	2700a <__aeabi_memcpy>
   20a7e:	7025      	strb	r5, [r4, #0]
   20a80:	4c06      	ldr	r4, [pc, #24]	@ (20a9c <_ZN18complex_no_dynamic3app17h2b3a08784a9434b0E+0xa8>)
   20a82:	4620      	mov	r0, r4
   20a84:	4631      	mov	r1, r6
   20a86:	462a      	mov	r2, r5
   20a88:	462b      	mov	r3, r5
   20a8a:	df03      	svc	3
   20a8c:	4620      	mov	r0, r4
   20a8e:	4629      	mov	r1, r5
   20a90:	462a      	mov	r2, r5
   20a92:	462b      	mov	r3, r5
   20a94:	df04      	svc	4
   20a96:	b02b      	add	sp, #172	@ 0xac
   20a98:	bdf0      	pop	{r4, r5, r6, r7, pc}
   20a9a:	46c0      	nop			@ (mov r8, r8)
   20a9c:	00001484 	.word	0x00001484

00020aa0 <_ZN18complex_no_dynamic3app17h2d01a336742ca851E>:
   20aa0:	b5f0      	push	{r4, r5, r6, r7, lr}
   20aa2:	af03      	add	r7, sp, #12
   20aa4:	b093      	sub	sp, #76	@ 0x4c
   20aa6:	4604      	mov	r4, r0
   20aa8:	ad01      	add	r5, sp, #4
   20aaa:	2627      	movs	r6, #39	@ 0x27
   20aac:	4628      	mov	r0, r5
   20aae:	4632      	mov	r2, r6
   20ab0:	f006 faab 	bl	2700a <__aeabi_memcpy>
   20ab4:	a80b      	add	r0, sp, #44	@ 0x2c
   20ab6:	2100      	movs	r1, #0
   20ab8:	8381      	strh	r1, [r0, #28]
   20aba:	9111      	str	r1, [sp, #68]	@ 0x44
   20abc:	9110      	str	r1, [sp, #64]	@ 0x40
   20abe:	910f      	str	r1, [sp, #60]	@ 0x3c
   20ac0:	910e      	str	r1, [sp, #56]	@ 0x38
   20ac2:	910d      	str	r1, [sp, #52]	@ 0x34
   20ac4:	910c      	str	r1, [sp, #48]	@ 0x30
   20ac6:	910b      	str	r1, [sp, #44]	@ 0x2c
   20ac8:	4822      	ldr	r0, [pc, #136]	@ (20b54 <_ZN18complex_no_dynamic3app17h2d01a336742ca851E+0xb4>)
   20aca:	2103      	movs	r1, #3
   20acc:	462a      	mov	r2, r5
   20ace:	4633      	mov	r3, r6
   20ad0:	df04      	svc	4
   20ad2:	2802      	cmp	r0, #2
   20ad4:	d00e      	beq.n	20af4 <_ZN18complex_no_dynamic3app17h2d01a336742ca851E+0x54>
   20ad6:	481f      	ldr	r0, [pc, #124]	@ (20b54 <_ZN18complex_no_dynamic3app17h2d01a336742ca851E+0xb4>)
   20ad8:	2103      	movs	r1, #3
   20ada:	aa0b      	add	r2, sp, #44	@ 0x2c
   20adc:	231e      	movs	r3, #30
   20ade:	df03      	svc	3
   20ae0:	2802      	cmp	r0, #2
   20ae2:	d007      	beq.n	20af4 <_ZN18complex_no_dynamic3app17h2d01a336742ca851E+0x54>
   20ae4:	481b      	ldr	r0, [pc, #108]	@ (20b54 <_ZN18complex_no_dynamic3app17h2d01a336742ca851E+0xb4>)
   20ae6:	2103      	movs	r1, #3
   20ae8:	2500      	movs	r5, #0
   20aea:	460a      	mov	r2, r1
   20aec:	462b      	mov	r3, r5
   20aee:	df02      	svc	2
   20af0:	287f      	cmp	r0, #127	@ 0x7f
   20af2:	d811      	bhi.n	20b18 <_ZN18complex_no_dynamic3app17h2d01a336742ca851E+0x78>
   20af4:	2001      	movs	r0, #1
   20af6:	7020      	strb	r0, [r4, #0]
   20af8:	6061      	str	r1, [r4, #4]
   20afa:	4c16      	ldr	r4, [pc, #88]	@ (20b54 <_ZN18complex_no_dynamic3app17h2d01a336742ca851E+0xb4>)
   20afc:	2503      	movs	r5, #3
   20afe:	2600      	movs	r6, #0
   20b00:	4620      	mov	r0, r4
   20b02:	4629      	mov	r1, r5
   20b04:	4632      	mov	r2, r6
   20b06:	4633      	mov	r3, r6
   20b08:	df03      	svc	3
   20b0a:	4620      	mov	r0, r4
   20b0c:	4629      	mov	r1, r5
   20b0e:	4632      	mov	r2, r6
   20b10:	4633      	mov	r3, r6
   20b12:	df04      	svc	4
   20b14:	b013      	add	sp, #76	@ 0x4c
   20b16:	bdf0      	pop	{r4, r5, r6, r7, pc}
   20b18:	480e      	ldr	r0, [pc, #56]	@ (20b54 <_ZN18complex_no_dynamic3app17h2d01a336742ca851E+0xb4>)
   20b1a:	2603      	movs	r6, #3
   20b1c:	4631      	mov	r1, r6
   20b1e:	462a      	mov	r2, r5
   20b20:	462b      	mov	r3, r5
   20b22:	df03      	svc	3
   20b24:	480b      	ldr	r0, [pc, #44]	@ (20b54 <_ZN18complex_no_dynamic3app17h2d01a336742ca851E+0xb4>)
   20b26:	4631      	mov	r1, r6
   20b28:	462a      	mov	r2, r5
   20b2a:	462b      	mov	r3, r5
   20b2c:	df03      	svc	3
   20b2e:	1c60      	adds	r0, r4, #1
   20b30:	a90b      	add	r1, sp, #44	@ 0x2c
   20b32:	221e      	movs	r2, #30
   20b34:	f006 fa69 	bl	2700a <__aeabi_memcpy>
   20b38:	7025      	strb	r5, [r4, #0]
   20b3a:	4c06      	ldr	r4, [pc, #24]	@ (20b54 <_ZN18complex_no_dynamic3app17h2d01a336742ca851E+0xb4>)
   20b3c:	4620      	mov	r0, r4
   20b3e:	4631      	mov	r1, r6
   20b40:	462a      	mov	r2, r5
   20b42:	462b      	mov	r3, r5
   20b44:	df03      	svc	3
   20b46:	4620      	mov	r0, r4
   20b48:	4631      	mov	r1, r6
   20b4a:	462a      	mov	r2, r5
   20b4c:	462b      	mov	r3, r5
   20b4e:	df04      	svc	4
   20b50:	b013      	add	sp, #76	@ 0x4c
   20b52:	bdf0      	pop	{r4, r5, r6, r7, pc}
   20b54:	000010e2 	.word	0x000010e2

00020b58 <_ZN18complex_no_dynamic3app17h31f374ac5a656a64E>:
   20b58:	b5f0      	push	{r4, r5, r6, r7, lr}
   20b5a:	af03      	add	r7, sp, #12
   20b5c:	b0a3      	sub	sp, #140	@ 0x8c
   20b5e:	4604      	mov	r4, r0
   20b60:	466d      	mov	r5, sp
   20b62:	2650      	movs	r6, #80	@ 0x50
   20b64:	4628      	mov	r0, r5
   20b66:	4632      	mov	r2, r6
   20b68:	f006 fa4f 	bl	2700a <__aeabi_memcpy>
   20b6c:	a814      	add	r0, sp, #80	@ 0x50
   20b6e:	213c      	movs	r1, #60	@ 0x3c
   20b70:	f006 f89e 	bl	26cb0 <__aeabi_memclr4>
   20b74:	4822      	ldr	r0, [pc, #136]	@ (20c00 <_ZN18complex_no_dynamic3app17h31f374ac5a656a64E+0xa8>)
   20b76:	2103      	movs	r1, #3
   20b78:	462a      	mov	r2, r5
   20b7a:	4633      	mov	r3, r6
   20b7c:	df04      	svc	4
   20b7e:	2802      	cmp	r0, #2
   20b80:	d00e      	beq.n	20ba0 <_ZN18complex_no_dynamic3app17h31f374ac5a656a64E+0x48>
   20b82:	481f      	ldr	r0, [pc, #124]	@ (20c00 <_ZN18complex_no_dynamic3app17h31f374ac5a656a64E+0xa8>)
   20b84:	2109      	movs	r1, #9
   20b86:	aa14      	add	r2, sp, #80	@ 0x50
   20b88:	233c      	movs	r3, #60	@ 0x3c
   20b8a:	df03      	svc	3
   20b8c:	2802      	cmp	r0, #2
   20b8e:	d007      	beq.n	20ba0 <_ZN18complex_no_dynamic3app17h31f374ac5a656a64E+0x48>
   20b90:	481b      	ldr	r0, [pc, #108]	@ (20c00 <_ZN18complex_no_dynamic3app17h31f374ac5a656a64E+0xa8>)
   20b92:	2103      	movs	r1, #3
   20b94:	2209      	movs	r2, #9
   20b96:	2500      	movs	r5, #0
   20b98:	462b      	mov	r3, r5
   20b9a:	df02      	svc	2
   20b9c:	287f      	cmp	r0, #127	@ 0x7f
   20b9e:	d810      	bhi.n	20bc2 <_ZN18complex_no_dynamic3app17h31f374ac5a656a64E+0x6a>
   20ba0:	2001      	movs	r0, #1
   20ba2:	7020      	strb	r0, [r4, #0]
   20ba4:	6061      	str	r1, [r4, #4]
   20ba6:	4c16      	ldr	r4, [pc, #88]	@ (20c00 <_ZN18complex_no_dynamic3app17h31f374ac5a656a64E+0xa8>)
   20ba8:	2109      	movs	r1, #9
   20baa:	2500      	movs	r5, #0
   20bac:	4620      	mov	r0, r4
   20bae:	462a      	mov	r2, r5
   20bb0:	462b      	mov	r3, r5
   20bb2:	df03      	svc	3
   20bb4:	2103      	movs	r1, #3
   20bb6:	4620      	mov	r0, r4
   20bb8:	462a      	mov	r2, r5
   20bba:	462b      	mov	r3, r5
   20bbc:	df04      	svc	4
   20bbe:	b023      	add	sp, #140	@ 0x8c
   20bc0:	bdf0      	pop	{r4, r5, r6, r7, pc}
   20bc2:	480f      	ldr	r0, [pc, #60]	@ (20c00 <_ZN18complex_no_dynamic3app17h31f374ac5a656a64E+0xa8>)
   20bc4:	2609      	movs	r6, #9
   20bc6:	4631      	mov	r1, r6
   20bc8:	462a      	mov	r2, r5
   20bca:	462b      	mov	r3, r5
   20bcc:	df03      	svc	3
   20bce:	480c      	ldr	r0, [pc, #48]	@ (20c00 <_ZN18complex_no_dynamic3app17h31f374ac5a656a64E+0xa8>)
   20bd0:	4631      	mov	r1, r6
   20bd2:	462a      	mov	r2, r5
   20bd4:	462b      	mov	r3, r5
   20bd6:	df03      	svc	3
   20bd8:	1c60      	adds	r0, r4, #1
   20bda:	a914      	add	r1, sp, #80	@ 0x50
   20bdc:	223c      	movs	r2, #60	@ 0x3c
   20bde:	f006 fa14 	bl	2700a <__aeabi_memcpy>
   20be2:	7025      	strb	r5, [r4, #0]
   20be4:	4c06      	ldr	r4, [pc, #24]	@ (20c00 <_ZN18complex_no_dynamic3app17h31f374ac5a656a64E+0xa8>)
   20be6:	4620      	mov	r0, r4
   20be8:	4631      	mov	r1, r6
   20bea:	462a      	mov	r2, r5
   20bec:	462b      	mov	r3, r5
   20bee:	df03      	svc	3
   20bf0:	2103      	movs	r1, #3
   20bf2:	4620      	mov	r0, r4
   20bf4:	462a      	mov	r2, r5
   20bf6:	462b      	mov	r3, r5
   20bf8:	df04      	svc	4
   20bfa:	b023      	add	sp, #140	@ 0x8c
   20bfc:	bdf0      	pop	{r4, r5, r6, r7, pc}
   20bfe:	46c0      	nop			@ (mov r8, r8)
   20c00:	00000d7a 	.word	0x00000d7a

00020c04 <_ZN18complex_no_dynamic3app17h33e1cb7f7b96c0a9E>:
   20c04:	b5f0      	push	{r4, r5, r6, r7, lr}
   20c06:	af03      	add	r7, sp, #12
   20c08:	b08f      	sub	sp, #60	@ 0x3c
   20c0a:	4604      	mov	r4, r0
   20c0c:	ad01      	add	r5, sp, #4
   20c0e:	260f      	movs	r6, #15
   20c10:	4628      	mov	r0, r5
   20c12:	4632      	mov	r2, r6
   20c14:	f006 f9f9 	bl	2700a <__aeabi_memcpy>
   20c18:	a805      	add	r0, sp, #20
   20c1a:	2125      	movs	r1, #37	@ 0x25
   20c1c:	f006 f848 	bl	26cb0 <__aeabi_memclr4>
   20c20:	20a2      	movs	r0, #162	@ 0xa2
   20c22:	2108      	movs	r1, #8
   20c24:	462a      	mov	r2, r5
   20c26:	4633      	mov	r3, r6
   20c28:	df04      	svc	4
   20c2a:	2802      	cmp	r0, #2
   20c2c:	d00e      	beq.n	20c4c <_ZN18complex_no_dynamic3app17h33e1cb7f7b96c0a9E+0x48>
   20c2e:	20a2      	movs	r0, #162	@ 0xa2
   20c30:	2100      	movs	r1, #0
   20c32:	aa05      	add	r2, sp, #20
   20c34:	2325      	movs	r3, #37	@ 0x25
   20c36:	df03      	svc	3
   20c38:	2802      	cmp	r0, #2
   20c3a:	d007      	beq.n	20c4c <_ZN18complex_no_dynamic3app17h33e1cb7f7b96c0a9E+0x48>
   20c3c:	20a2      	movs	r0, #162	@ 0xa2
   20c3e:	2108      	movs	r1, #8
   20c40:	2500      	movs	r5, #0
   20c42:	462a      	mov	r2, r5
   20c44:	462b      	mov	r3, r5
   20c46:	df02      	svc	2
   20c48:	287f      	cmp	r0, #127	@ 0x7f
   20c4a:	d810      	bhi.n	20c6e <_ZN18complex_no_dynamic3app17h33e1cb7f7b96c0a9E+0x6a>
   20c4c:	2001      	movs	r0, #1
   20c4e:	7020      	strb	r0, [r4, #0]
   20c50:	6061      	str	r1, [r4, #4]
   20c52:	24a2      	movs	r4, #162	@ 0xa2
   20c54:	2500      	movs	r5, #0
   20c56:	4620      	mov	r0, r4
   20c58:	4629      	mov	r1, r5
   20c5a:	462a      	mov	r2, r5
   20c5c:	462b      	mov	r3, r5
   20c5e:	df03      	svc	3
   20c60:	2108      	movs	r1, #8
   20c62:	4620      	mov	r0, r4
   20c64:	462a      	mov	r2, r5
   20c66:	462b      	mov	r3, r5
   20c68:	df04      	svc	4
   20c6a:	b00f      	add	sp, #60	@ 0x3c
   20c6c:	bdf0      	pop	{r4, r5, r6, r7, pc}
   20c6e:	26a2      	movs	r6, #162	@ 0xa2
   20c70:	4630      	mov	r0, r6
   20c72:	4629      	mov	r1, r5
   20c74:	462a      	mov	r2, r5
   20c76:	462b      	mov	r3, r5
   20c78:	df03      	svc	3
   20c7a:	4630      	mov	r0, r6
   20c7c:	4629      	mov	r1, r5
   20c7e:	462a      	mov	r2, r5
   20c80:	462b      	mov	r3, r5
   20c82:	df03      	svc	3
   20c84:	1c60      	adds	r0, r4, #1
   20c86:	a905      	add	r1, sp, #20
   20c88:	2225      	movs	r2, #37	@ 0x25
   20c8a:	f006 f9be 	bl	2700a <__aeabi_memcpy>
   20c8e:	7025      	strb	r5, [r4, #0]
   20c90:	4630      	mov	r0, r6
   20c92:	4629      	mov	r1, r5
   20c94:	462a      	mov	r2, r5
   20c96:	462b      	mov	r3, r5
   20c98:	df03      	svc	3
   20c9a:	2108      	movs	r1, #8
   20c9c:	4630      	mov	r0, r6
   20c9e:	462a      	mov	r2, r5
   20ca0:	462b      	mov	r3, r5
   20ca2:	df04      	svc	4
   20ca4:	b00f      	add	sp, #60	@ 0x3c
   20ca6:	bdf0      	pop	{r4, r5, r6, r7, pc}

00020ca8 <_ZN18complex_no_dynamic3app17h340ac1a2a6677fc9E>:
   20ca8:	b5f0      	push	{r4, r5, r6, r7, lr}
   20caa:	af03      	add	r7, sp, #12
   20cac:	b093      	sub	sp, #76	@ 0x4c
   20cae:	4604      	mov	r4, r0
   20cb0:	ad01      	add	r5, sp, #4
   20cb2:	2623      	movs	r6, #35	@ 0x23
   20cb4:	4628      	mov	r0, r5
   20cb6:	4632      	mov	r2, r6
   20cb8:	f006 f9a7 	bl	2700a <__aeabi_memcpy>
   20cbc:	a80a      	add	r0, sp, #40	@ 0x28
   20cbe:	2124      	movs	r1, #36	@ 0x24
   20cc0:	f005 fff6 	bl	26cb0 <__aeabi_memclr4>
   20cc4:	4822      	ldr	r0, [pc, #136]	@ (20d50 <_ZN18complex_no_dynamic3app17h340ac1a2a6677fc9E+0xa8>)
   20cc6:	2104      	movs	r1, #4
   20cc8:	462a      	mov	r2, r5
   20cca:	4633      	mov	r3, r6
   20ccc:	df04      	svc	4
   20cce:	2802      	cmp	r0, #2
   20cd0:	d00e      	beq.n	20cf0 <_ZN18complex_no_dynamic3app17h340ac1a2a6677fc9E+0x48>
   20cd2:	481f      	ldr	r0, [pc, #124]	@ (20d50 <_ZN18complex_no_dynamic3app17h340ac1a2a6677fc9E+0xa8>)
   20cd4:	2108      	movs	r1, #8
   20cd6:	aa0a      	add	r2, sp, #40	@ 0x28
   20cd8:	2324      	movs	r3, #36	@ 0x24
   20cda:	df03      	svc	3
   20cdc:	2802      	cmp	r0, #2
   20cde:	d007      	beq.n	20cf0 <_ZN18complex_no_dynamic3app17h340ac1a2a6677fc9E+0x48>
   20ce0:	481b      	ldr	r0, [pc, #108]	@ (20d50 <_ZN18complex_no_dynamic3app17h340ac1a2a6677fc9E+0xa8>)
   20ce2:	2104      	movs	r1, #4
   20ce4:	2208      	movs	r2, #8
   20ce6:	2500      	movs	r5, #0
   20ce8:	462b      	mov	r3, r5
   20cea:	df02      	svc	2
   20cec:	287f      	cmp	r0, #127	@ 0x7f
   20cee:	d810      	bhi.n	20d12 <_ZN18complex_no_dynamic3app17h340ac1a2a6677fc9E+0x6a>
   20cf0:	2001      	movs	r0, #1
   20cf2:	7020      	strb	r0, [r4, #0]
   20cf4:	6061      	str	r1, [r4, #4]
   20cf6:	4c16      	ldr	r4, [pc, #88]	@ (20d50 <_ZN18complex_no_dynamic3app17h340ac1a2a6677fc9E+0xa8>)
   20cf8:	2108      	movs	r1, #8
   20cfa:	2500      	movs	r5, #0
   20cfc:	4620      	mov	r0, r4
   20cfe:	462a      	mov	r2, r5
   20d00:	462b      	mov	r3, r5
   20d02:	df03      	svc	3
   20d04:	2104      	movs	r1, #4
   20d06:	4620      	mov	r0, r4
   20d08:	462a      	mov	r2, r5
   20d0a:	462b      	mov	r3, r5
   20d0c:	df04      	svc	4
   20d0e:	b013      	add	sp, #76	@ 0x4c
   20d10:	bdf0      	pop	{r4, r5, r6, r7, pc}
   20d12:	480f      	ldr	r0, [pc, #60]	@ (20d50 <_ZN18complex_no_dynamic3app17h340ac1a2a6677fc9E+0xa8>)
   20d14:	2608      	movs	r6, #8
   20d16:	4631      	mov	r1, r6
   20d18:	462a      	mov	r2, r5
   20d1a:	462b      	mov	r3, r5
   20d1c:	df03      	svc	3
   20d1e:	480c      	ldr	r0, [pc, #48]	@ (20d50 <_ZN18complex_no_dynamic3app17h340ac1a2a6677fc9E+0xa8>)
   20d20:	4631      	mov	r1, r6
   20d22:	462a      	mov	r2, r5
   20d24:	462b      	mov	r3, r5
   20d26:	df03      	svc	3
   20d28:	1c60      	adds	r0, r4, #1
   20d2a:	a90a      	add	r1, sp, #40	@ 0x28
   20d2c:	2224      	movs	r2, #36	@ 0x24
   20d2e:	f006 f96c 	bl	2700a <__aeabi_memcpy>
   20d32:	7025      	strb	r5, [r4, #0]
   20d34:	4c06      	ldr	r4, [pc, #24]	@ (20d50 <_ZN18complex_no_dynamic3app17h340ac1a2a6677fc9E+0xa8>)
   20d36:	4620      	mov	r0, r4
   20d38:	4631      	mov	r1, r6
   20d3a:	462a      	mov	r2, r5
   20d3c:	462b      	mov	r3, r5
   20d3e:	df03      	svc	3
   20d40:	2104      	movs	r1, #4
   20d42:	4620      	mov	r0, r4
   20d44:	462a      	mov	r2, r5
   20d46:	462b      	mov	r3, r5
   20d48:	df04      	svc	4
   20d4a:	b013      	add	sp, #76	@ 0x4c
   20d4c:	bdf0      	pop	{r4, r5, r6, r7, pc}
   20d4e:	46c0      	nop			@ (mov r8, r8)
   20d50:	00001bd6 	.word	0x00001bd6

00020d54 <_ZN18complex_no_dynamic3app17h3f7d2100efe75ec8E>:
   20d54:	b5f0      	push	{r4, r5, r6, r7, lr}
   20d56:	af03      	add	r7, sp, #12
   20d58:	b097      	sub	sp, #92	@ 0x5c
   20d5a:	4604      	mov	r4, r0
   20d5c:	ad01      	add	r5, sp, #4
   20d5e:	2648      	movs	r6, #72	@ 0x48
   20d60:	4628      	mov	r0, r5
   20d62:	4632      	mov	r2, r6
   20d64:	f006 f951 	bl	2700a <__aeabi_memcpy>
   20d68:	a813      	add	r0, sp, #76	@ 0x4c
   20d6a:	2100      	movs	r1, #0
   20d6c:	7381      	strb	r1, [r0, #14]
   20d6e:	8181      	strh	r1, [r0, #12]
   20d70:	9115      	str	r1, [sp, #84]	@ 0x54
   20d72:	9114      	str	r1, [sp, #80]	@ 0x50
   20d74:	9113      	str	r1, [sp, #76]	@ 0x4c
   20d76:	4822      	ldr	r0, [pc, #136]	@ (20e00 <_ZN18complex_no_dynamic3app17h3f7d2100efe75ec8E+0xac>)
   20d78:	2108      	movs	r1, #8
   20d7a:	462a      	mov	r2, r5
   20d7c:	4633      	mov	r3, r6
   20d7e:	df04      	svc	4
   20d80:	2802      	cmp	r0, #2
   20d82:	d00e      	beq.n	20da2 <_ZN18complex_no_dynamic3app17h3f7d2100efe75ec8E+0x4e>
   20d84:	481e      	ldr	r0, [pc, #120]	@ (20e00 <_ZN18complex_no_dynamic3app17h3f7d2100efe75ec8E+0xac>)
   20d86:	2109      	movs	r1, #9
   20d88:	aa13      	add	r2, sp, #76	@ 0x4c
   20d8a:	230f      	movs	r3, #15
   20d8c:	df03      	svc	3
   20d8e:	2802      	cmp	r0, #2
   20d90:	d007      	beq.n	20da2 <_ZN18complex_no_dynamic3app17h3f7d2100efe75ec8E+0x4e>
   20d92:	481b      	ldr	r0, [pc, #108]	@ (20e00 <_ZN18complex_no_dynamic3app17h3f7d2100efe75ec8E+0xac>)
   20d94:	2108      	movs	r1, #8
   20d96:	2209      	movs	r2, #9
   20d98:	2500      	movs	r5, #0
   20d9a:	462b      	mov	r3, r5
   20d9c:	df02      	svc	2
   20d9e:	287f      	cmp	r0, #127	@ 0x7f
   20da0:	d810      	bhi.n	20dc4 <_ZN18complex_no_dynamic3app17h3f7d2100efe75ec8E+0x70>
   20da2:	2001      	movs	r0, #1
   20da4:	7020      	strb	r0, [r4, #0]
   20da6:	6061      	str	r1, [r4, #4]
   20da8:	4c15      	ldr	r4, [pc, #84]	@ (20e00 <_ZN18complex_no_dynamic3app17h3f7d2100efe75ec8E+0xac>)
   20daa:	2109      	movs	r1, #9
   20dac:	2500      	movs	r5, #0
   20dae:	4620      	mov	r0, r4
   20db0:	462a      	mov	r2, r5
   20db2:	462b      	mov	r3, r5
   20db4:	df03      	svc	3
   20db6:	2108      	movs	r1, #8
   20db8:	4620      	mov	r0, r4
   20dba:	462a      	mov	r2, r5
   20dbc:	462b      	mov	r3, r5
   20dbe:	df04      	svc	4
   20dc0:	b017      	add	sp, #92	@ 0x5c
   20dc2:	bdf0      	pop	{r4, r5, r6, r7, pc}
   20dc4:	480e      	ldr	r0, [pc, #56]	@ (20e00 <_ZN18complex_no_dynamic3app17h3f7d2100efe75ec8E+0xac>)
   20dc6:	2609      	movs	r6, #9
   20dc8:	4631      	mov	r1, r6
   20dca:	462a      	mov	r2, r5
   20dcc:	462b      	mov	r3, r5
   20dce:	df03      	svc	3
   20dd0:	480b      	ldr	r0, [pc, #44]	@ (20e00 <_ZN18complex_no_dynamic3app17h3f7d2100efe75ec8E+0xac>)
   20dd2:	4631      	mov	r1, r6
   20dd4:	462a      	mov	r2, r5
   20dd6:	462b      	mov	r3, r5
   20dd8:	df03      	svc	3
   20dda:	1c60      	adds	r0, r4, #1
   20ddc:	a913      	add	r1, sp, #76	@ 0x4c
   20dde:	220f      	movs	r2, #15
   20de0:	f006 f913 	bl	2700a <__aeabi_memcpy>
   20de4:	7025      	strb	r5, [r4, #0]
   20de6:	4c06      	ldr	r4, [pc, #24]	@ (20e00 <_ZN18complex_no_dynamic3app17h3f7d2100efe75ec8E+0xac>)
   20de8:	4620      	mov	r0, r4
   20dea:	4631      	mov	r1, r6
   20dec:	462a      	mov	r2, r5
   20dee:	462b      	mov	r3, r5
   20df0:	df03      	svc	3
   20df2:	2108      	movs	r1, #8
   20df4:	4620      	mov	r0, r4
   20df6:	462a      	mov	r2, r5
   20df8:	462b      	mov	r3, r5
   20dfa:	df04      	svc	4
   20dfc:	b017      	add	sp, #92	@ 0x5c
   20dfe:	bdf0      	pop	{r4, r5, r6, r7, pc}
   20e00:	0000111d 	.word	0x0000111d

00020e04 <_ZN18complex_no_dynamic3app17h43744662c55b3df7E>:
   20e04:	b5f0      	push	{r4, r5, r6, r7, lr}
   20e06:	af03      	add	r7, sp, #12
   20e08:	b097      	sub	sp, #92	@ 0x5c
   20e0a:	4604      	mov	r4, r0
   20e0c:	466d      	mov	r5, sp
   20e0e:	261e      	movs	r6, #30
   20e10:	4628      	mov	r0, r5
   20e12:	4632      	mov	r2, r6
   20e14:	f006 f8f9 	bl	2700a <__aeabi_memcpy>
   20e18:	a808      	add	r0, sp, #32
   20e1a:	213c      	movs	r1, #60	@ 0x3c
   20e1c:	f005 ff48 	bl	26cb0 <__aeabi_memclr4>
   20e20:	4822      	ldr	r0, [pc, #136]	@ (20eac <_ZN18complex_no_dynamic3app17h43744662c55b3df7E+0xa8>)
   20e22:	2102      	movs	r1, #2
   20e24:	462a      	mov	r2, r5
   20e26:	4633      	mov	r3, r6
   20e28:	df04      	svc	4
   20e2a:	2802      	cmp	r0, #2
   20e2c:	d00e      	beq.n	20e4c <_ZN18complex_no_dynamic3app17h43744662c55b3df7E+0x48>
   20e2e:	481f      	ldr	r0, [pc, #124]	@ (20eac <_ZN18complex_no_dynamic3app17h43744662c55b3df7E+0xa8>)
   20e30:	2103      	movs	r1, #3
   20e32:	aa08      	add	r2, sp, #32
   20e34:	233c      	movs	r3, #60	@ 0x3c
   20e36:	df03      	svc	3
   20e38:	2802      	cmp	r0, #2
   20e3a:	d007      	beq.n	20e4c <_ZN18complex_no_dynamic3app17h43744662c55b3df7E+0x48>
   20e3c:	481b      	ldr	r0, [pc, #108]	@ (20eac <_ZN18complex_no_dynamic3app17h43744662c55b3df7E+0xa8>)
   20e3e:	2102      	movs	r1, #2
   20e40:	2203      	movs	r2, #3
   20e42:	2500      	movs	r5, #0
   20e44:	462b      	mov	r3, r5
   20e46:	df02      	svc	2
   20e48:	287f      	cmp	r0, #127	@ 0x7f
   20e4a:	d810      	bhi.n	20e6e <_ZN18complex_no_dynamic3app17h43744662c55b3df7E+0x6a>
   20e4c:	2001      	movs	r0, #1
   20e4e:	7020      	strb	r0, [r4, #0]
   20e50:	6061      	str	r1, [r4, #4]
   20e52:	4c16      	ldr	r4, [pc, #88]	@ (20eac <_ZN18complex_no_dynamic3app17h43744662c55b3df7E+0xa8>)
   20e54:	2103      	movs	r1, #3
   20e56:	2500      	movs	r5, #0
   20e58:	4620      	mov	r0, r4
   20e5a:	462a      	mov	r2, r5
   20e5c:	462b      	mov	r3, r5
   20e5e:	df03      	svc	3
   20e60:	2102      	movs	r1, #2
   20e62:	4620      	mov	r0, r4
   20e64:	462a      	mov	r2, r5
   20e66:	462b      	mov	r3, r5
   20e68:	df04      	svc	4
   20e6a:	b017      	add	sp, #92	@ 0x5c
   20e6c:	bdf0      	pop	{r4, r5, r6, r7, pc}
   20e6e:	480f      	ldr	r0, [pc, #60]	@ (20eac <_ZN18complex_no_dynamic3app17h43744662c55b3df7E+0xa8>)
   20e70:	2603      	movs	r6, #3
   20e72:	4631      	mov	r1, r6
   20e74:	462a      	mov	r2, r5
   20e76:	462b      	mov	r3, r5
   20e78:	df03      	svc	3
   20e7a:	480c      	ldr	r0, [pc, #48]	@ (20eac <_ZN18complex_no_dynamic3app17h43744662c55b3df7E+0xa8>)
   20e7c:	4631      	mov	r1, r6
   20e7e:	462a      	mov	r2, r5
   20e80:	462b      	mov	r3, r5
   20e82:	df03      	svc	3
   20e84:	1c60      	adds	r0, r4, #1
   20e86:	a908      	add	r1, sp, #32
   20e88:	223c      	movs	r2, #60	@ 0x3c
   20e8a:	f006 f8be 	bl	2700a <__aeabi_memcpy>
   20e8e:	7025      	strb	r5, [r4, #0]
   20e90:	4c06      	ldr	r4, [pc, #24]	@ (20eac <_ZN18complex_no_dynamic3app17h43744662c55b3df7E+0xa8>)
   20e92:	4620      	mov	r0, r4
   20e94:	4631      	mov	r1, r6
   20e96:	462a      	mov	r2, r5
   20e98:	462b      	mov	r3, r5
   20e9a:	df03      	svc	3
   20e9c:	2102      	movs	r1, #2
   20e9e:	4620      	mov	r0, r4
   20ea0:	462a      	mov	r2, r5
   20ea2:	462b      	mov	r3, r5
   20ea4:	df04      	svc	4
   20ea6:	b017      	add	sp, #92	@ 0x5c
   20ea8:	bdf0      	pop	{r4, r5, r6, r7, pc}
   20eaa:	46c0      	nop			@ (mov r8, r8)
   20eac:	00000b3c 	.word	0x00000b3c

00020eb0 <_ZN18complex_no_dynamic3app17h43c2559dd0859935E>:
   20eb0:	b5f0      	push	{r4, r5, r6, r7, lr}
   20eb2:	af03      	add	r7, sp, #12
   20eb4:	b09d      	sub	sp, #116	@ 0x74
   20eb6:	9001      	str	r0, [sp, #4]
   20eb8:	ae02      	add	r6, sp, #8
   20eba:	2450      	movs	r4, #80	@ 0x50
   20ebc:	4630      	mov	r0, r6
   20ebe:	4622      	mov	r2, r4
   20ec0:	f006 f8a3 	bl	2700a <__aeabi_memcpy>
   20ec4:	a816      	add	r0, sp, #88	@ 0x58
   20ec6:	2100      	movs	r1, #0
   20ec8:	7681      	strb	r1, [r0, #26]
   20eca:	8301      	strh	r1, [r0, #24]
   20ecc:	911b      	str	r1, [sp, #108]	@ 0x6c
   20ece:	911a      	str	r1, [sp, #104]	@ 0x68
   20ed0:	9119      	str	r1, [sp, #100]	@ 0x64
   20ed2:	9118      	str	r1, [sp, #96]	@ 0x60
   20ed4:	9117      	str	r1, [sp, #92]	@ 0x5c
   20ed6:	9116      	str	r1, [sp, #88]	@ 0x58
   20ed8:	4823      	ldr	r0, [pc, #140]	@ (20f68 <_ZN18complex_no_dynamic3app17h43c2559dd0859935E+0xb8>)
   20eda:	2501      	movs	r5, #1
   20edc:	4629      	mov	r1, r5
   20ede:	4632      	mov	r2, r6
   20ee0:	4623      	mov	r3, r4
   20ee2:	df04      	svc	4
   20ee4:	2802      	cmp	r0, #2
   20ee6:	d00e      	beq.n	20f06 <_ZN18complex_no_dynamic3app17h43c2559dd0859935E+0x56>
   20ee8:	481f      	ldr	r0, [pc, #124]	@ (20f68 <_ZN18complex_no_dynamic3app17h43c2559dd0859935E+0xb8>)
   20eea:	2102      	movs	r1, #2
   20eec:	aa16      	add	r2, sp, #88	@ 0x58
   20eee:	231b      	movs	r3, #27
   20ef0:	df03      	svc	3
   20ef2:	2802      	cmp	r0, #2
   20ef4:	d007      	beq.n	20f06 <_ZN18complex_no_dynamic3app17h43c2559dd0859935E+0x56>
   20ef6:	481c      	ldr	r0, [pc, #112]	@ (20f68 <_ZN18complex_no_dynamic3app17h43c2559dd0859935E+0xb8>)
   20ef8:	2101      	movs	r1, #1
   20efa:	2202      	movs	r2, #2
   20efc:	2600      	movs	r6, #0
   20efe:	4633      	mov	r3, r6
   20f00:	df02      	svc	2
   20f02:	287f      	cmp	r0, #127	@ 0x7f
   20f04:	d810      	bhi.n	20f28 <_ZN18complex_no_dynamic3app17h43c2559dd0859935E+0x78>
   20f06:	9801      	ldr	r0, [sp, #4]
   20f08:	7005      	strb	r5, [r0, #0]
   20f0a:	6041      	str	r1, [r0, #4]
   20f0c:	4c16      	ldr	r4, [pc, #88]	@ (20f68 <_ZN18complex_no_dynamic3app17h43c2559dd0859935E+0xb8>)
   20f0e:	2102      	movs	r1, #2
   20f10:	2600      	movs	r6, #0
   20f12:	4620      	mov	r0, r4
   20f14:	4632      	mov	r2, r6
   20f16:	4633      	mov	r3, r6
   20f18:	df03      	svc	3
   20f1a:	4620      	mov	r0, r4
   20f1c:	4629      	mov	r1, r5
   20f1e:	4632      	mov	r2, r6
   20f20:	4633      	mov	r3, r6
   20f22:	df04      	svc	4
   20f24:	b01d      	add	sp, #116	@ 0x74
   20f26:	bdf0      	pop	{r4, r5, r6, r7, pc}
   20f28:	4c0f      	ldr	r4, [pc, #60]	@ (20f68 <_ZN18complex_no_dynamic3app17h43c2559dd0859935E+0xb8>)
   20f2a:	2502      	movs	r5, #2
   20f2c:	4620      	mov	r0, r4
   20f2e:	4629      	mov	r1, r5
   20f30:	4632      	mov	r2, r6
   20f32:	4633      	mov	r3, r6
   20f34:	df03      	svc	3
   20f36:	4620      	mov	r0, r4
   20f38:	4629      	mov	r1, r5
   20f3a:	4632      	mov	r2, r6
   20f3c:	4633      	mov	r3, r6
   20f3e:	df03      	svc	3
   20f40:	9c01      	ldr	r4, [sp, #4]
   20f42:	1c60      	adds	r0, r4, #1
   20f44:	a916      	add	r1, sp, #88	@ 0x58
   20f46:	221b      	movs	r2, #27
   20f48:	f006 f85f 	bl	2700a <__aeabi_memcpy>
   20f4c:	7026      	strb	r6, [r4, #0]
   20f4e:	4c06      	ldr	r4, [pc, #24]	@ (20f68 <_ZN18complex_no_dynamic3app17h43c2559dd0859935E+0xb8>)
   20f50:	4620      	mov	r0, r4
   20f52:	4629      	mov	r1, r5
   20f54:	4632      	mov	r2, r6
   20f56:	4633      	mov	r3, r6
   20f58:	df03      	svc	3
   20f5a:	2101      	movs	r1, #1
   20f5c:	4620      	mov	r0, r4
   20f5e:	4632      	mov	r2, r6
   20f60:	4633      	mov	r3, r6
   20f62:	df04      	svc	4
   20f64:	b01d      	add	sp, #116	@ 0x74
   20f66:	bdf0      	pop	{r4, r5, r6, r7, pc}
   20f68:	000003d9 	.word	0x000003d9

00020f6c <_ZN18complex_no_dynamic3app17h46e68d81802c4213E>:
   20f6c:	b5f0      	push	{r4, r5, r6, r7, lr}
   20f6e:	af03      	add	r7, sp, #12
   20f70:	b099      	sub	sp, #100	@ 0x64
   20f72:	4604      	mov	r4, r0
   20f74:	466d      	mov	r5, sp
   20f76:	2634      	movs	r6, #52	@ 0x34
   20f78:	4628      	mov	r0, r5
   20f7a:	4632      	mov	r2, r6
   20f7c:	f006 f845 	bl	2700a <__aeabi_memcpy>
   20f80:	a80d      	add	r0, sp, #52	@ 0x34
   20f82:	212e      	movs	r1, #46	@ 0x2e
   20f84:	f005 fe94 	bl	26cb0 <__aeabi_memclr4>
   20f88:	4822      	ldr	r0, [pc, #136]	@ (21014 <_ZN18complex_no_dynamic3app17h46e68d81802c4213E+0xa8>)
   20f8a:	2102      	movs	r1, #2
   20f8c:	462a      	mov	r2, r5
   20f8e:	4633      	mov	r3, r6
   20f90:	df04      	svc	4
   20f92:	2802      	cmp	r0, #2
   20f94:	d00e      	beq.n	20fb4 <_ZN18complex_no_dynamic3app17h46e68d81802c4213E+0x48>
   20f96:	481f      	ldr	r0, [pc, #124]	@ (21014 <_ZN18complex_no_dynamic3app17h46e68d81802c4213E+0xa8>)
   20f98:	2108      	movs	r1, #8
   20f9a:	aa0d      	add	r2, sp, #52	@ 0x34
   20f9c:	232e      	movs	r3, #46	@ 0x2e
   20f9e:	df03      	svc	3
   20fa0:	2802      	cmp	r0, #2
   20fa2:	d007      	beq.n	20fb4 <_ZN18complex_no_dynamic3app17h46e68d81802c4213E+0x48>
   20fa4:	481b      	ldr	r0, [pc, #108]	@ (21014 <_ZN18complex_no_dynamic3app17h46e68d81802c4213E+0xa8>)
   20fa6:	2102      	movs	r1, #2
   20fa8:	2208      	movs	r2, #8
   20faa:	2500      	movs	r5, #0
   20fac:	462b      	mov	r3, r5
   20fae:	df02      	svc	2
   20fb0:	287f      	cmp	r0, #127	@ 0x7f
   20fb2:	d810      	bhi.n	20fd6 <_ZN18complex_no_dynamic3app17h46e68d81802c4213E+0x6a>
   20fb4:	2001      	movs	r0, #1
   20fb6:	7020      	strb	r0, [r4, #0]
   20fb8:	6061      	str	r1, [r4, #4]
   20fba:	4c16      	ldr	r4, [pc, #88]	@ (21014 <_ZN18complex_no_dynamic3app17h46e68d81802c4213E+0xa8>)
   20fbc:	2108      	movs	r1, #8
   20fbe:	2500      	movs	r5, #0
   20fc0:	4620      	mov	r0, r4
   20fc2:	462a      	mov	r2, r5
   20fc4:	462b      	mov	r3, r5
   20fc6:	df03      	svc	3
   20fc8:	2102      	movs	r1, #2
   20fca:	4620      	mov	r0, r4
   20fcc:	462a      	mov	r2, r5
   20fce:	462b      	mov	r3, r5
   20fd0:	df04      	svc	4
   20fd2:	b019      	add	sp, #100	@ 0x64
   20fd4:	bdf0      	pop	{r4, r5, r6, r7, pc}
   20fd6:	480f      	ldr	r0, [pc, #60]	@ (21014 <_ZN18complex_no_dynamic3app17h46e68d81802c4213E+0xa8>)
   20fd8:	2608      	movs	r6, #8
   20fda:	4631      	mov	r1, r6
   20fdc:	462a      	mov	r2, r5
   20fde:	462b      	mov	r3, r5
   20fe0:	df03      	svc	3
   20fe2:	480c      	ldr	r0, [pc, #48]	@ (21014 <_ZN18complex_no_dynamic3app17h46e68d81802c4213E+0xa8>)
   20fe4:	4631      	mov	r1, r6
   20fe6:	462a      	mov	r2, r5
   20fe8:	462b      	mov	r3, r5
   20fea:	df03      	svc	3
   20fec:	1c60      	adds	r0, r4, #1
   20fee:	a90d      	add	r1, sp, #52	@ 0x34
   20ff0:	222e      	movs	r2, #46	@ 0x2e
   20ff2:	f006 f80a 	bl	2700a <__aeabi_memcpy>
   20ff6:	7025      	strb	r5, [r4, #0]
   20ff8:	4c06      	ldr	r4, [pc, #24]	@ (21014 <_ZN18complex_no_dynamic3app17h46e68d81802c4213E+0xa8>)
   20ffa:	4620      	mov	r0, r4
   20ffc:	4631      	mov	r1, r6
   20ffe:	462a      	mov	r2, r5
   21000:	462b      	mov	r3, r5
   21002:	df03      	svc	3
   21004:	2102      	movs	r1, #2
   21006:	4620      	mov	r0, r4
   21008:	462a      	mov	r2, r5
   2100a:	462b      	mov	r3, r5
   2100c:	df04      	svc	4
   2100e:	b019      	add	sp, #100	@ 0x64
   21010:	bdf0      	pop	{r4, r5, r6, r7, pc}
   21012:	46c0      	nop			@ (mov r8, r8)
   21014:	00000209 	.word	0x00000209

00021018 <_ZN18complex_no_dynamic3app17h4862691a35e78b0aE>:
   21018:	b5f0      	push	{r4, r5, r6, r7, lr}
   2101a:	af03      	add	r7, sp, #12
   2101c:	b09f      	sub	sp, #124	@ 0x7c
   2101e:	4604      	mov	r4, r0
   21020:	ad01      	add	r5, sp, #4
   21022:	2622      	movs	r6, #34	@ 0x22
   21024:	4628      	mov	r0, r5
   21026:	4632      	mov	r2, r6
   21028:	f005 ffef 	bl	2700a <__aeabi_memcpy>
   2102c:	a80a      	add	r0, sp, #40	@ 0x28
   2102e:	2151      	movs	r1, #81	@ 0x51
   21030:	f005 fe3e 	bl	26cb0 <__aeabi_memclr4>
   21034:	4822      	ldr	r0, [pc, #136]	@ (210c0 <_ZN18complex_no_dynamic3app17h4862691a35e78b0aE+0xa8>)
   21036:	2109      	movs	r1, #9
   21038:	462a      	mov	r2, r5
   2103a:	4633      	mov	r3, r6
   2103c:	df04      	svc	4
   2103e:	2802      	cmp	r0, #2
   21040:	d00e      	beq.n	21060 <_ZN18complex_no_dynamic3app17h4862691a35e78b0aE+0x48>
   21042:	481f      	ldr	r0, [pc, #124]	@ (210c0 <_ZN18complex_no_dynamic3app17h4862691a35e78b0aE+0xa8>)
   21044:	2109      	movs	r1, #9
   21046:	aa0a      	add	r2, sp, #40	@ 0x28
   21048:	2351      	movs	r3, #81	@ 0x51
   2104a:	df03      	svc	3
   2104c:	2802      	cmp	r0, #2
   2104e:	d007      	beq.n	21060 <_ZN18complex_no_dynamic3app17h4862691a35e78b0aE+0x48>
   21050:	481b      	ldr	r0, [pc, #108]	@ (210c0 <_ZN18complex_no_dynamic3app17h4862691a35e78b0aE+0xa8>)
   21052:	2109      	movs	r1, #9
   21054:	2500      	movs	r5, #0
   21056:	460a      	mov	r2, r1
   21058:	462b      	mov	r3, r5
   2105a:	df02      	svc	2
   2105c:	287f      	cmp	r0, #127	@ 0x7f
   2105e:	d811      	bhi.n	21084 <_ZN18complex_no_dynamic3app17h4862691a35e78b0aE+0x6c>
   21060:	2001      	movs	r0, #1
   21062:	7020      	strb	r0, [r4, #0]
   21064:	6061      	str	r1, [r4, #4]
   21066:	4c16      	ldr	r4, [pc, #88]	@ (210c0 <_ZN18complex_no_dynamic3app17h4862691a35e78b0aE+0xa8>)
   21068:	2509      	movs	r5, #9
   2106a:	2600      	movs	r6, #0
   2106c:	4620      	mov	r0, r4
   2106e:	4629      	mov	r1, r5
   21070:	4632      	mov	r2, r6
   21072:	4633      	mov	r3, r6
   21074:	df03      	svc	3
   21076:	4620      	mov	r0, r4
   21078:	4629      	mov	r1, r5
   2107a:	4632      	mov	r2, r6
   2107c:	4633      	mov	r3, r6
   2107e:	df04      	svc	4
   21080:	b01f      	add	sp, #124	@ 0x7c
   21082:	bdf0      	pop	{r4, r5, r6, r7, pc}
   21084:	480e      	ldr	r0, [pc, #56]	@ (210c0 <_ZN18complex_no_dynamic3app17h4862691a35e78b0aE+0xa8>)
   21086:	2609      	movs	r6, #9
   21088:	4631      	mov	r1, r6
   2108a:	462a      	mov	r2, r5
   2108c:	462b      	mov	r3, r5
   2108e:	df03      	svc	3
   21090:	480b      	ldr	r0, [pc, #44]	@ (210c0 <_ZN18complex_no_dynamic3app17h4862691a35e78b0aE+0xa8>)
   21092:	4631      	mov	r1, r6
   21094:	462a      	mov	r2, r5
   21096:	462b      	mov	r3, r5
   21098:	df03      	svc	3
   2109a:	1c60      	adds	r0, r4, #1
   2109c:	a90a      	add	r1, sp, #40	@ 0x28
   2109e:	2251      	movs	r2, #81	@ 0x51
   210a0:	f005 ffb3 	bl	2700a <__aeabi_memcpy>
   210a4:	7025      	strb	r5, [r4, #0]
   210a6:	4c06      	ldr	r4, [pc, #24]	@ (210c0 <_ZN18complex_no_dynamic3app17h4862691a35e78b0aE+0xa8>)
   210a8:	4620      	mov	r0, r4
   210aa:	4631      	mov	r1, r6
   210ac:	462a      	mov	r2, r5
   210ae:	462b      	mov	r3, r5
   210b0:	df03      	svc	3
   210b2:	4620      	mov	r0, r4
   210b4:	4631      	mov	r1, r6
   210b6:	462a      	mov	r2, r5
   210b8:	462b      	mov	r3, r5
   210ba:	df04      	svc	4
   210bc:	b01f      	add	sp, #124	@ 0x7c
   210be:	bdf0      	pop	{r4, r5, r6, r7, pc}
   210c0:	0000055e 	.word	0x0000055e

000210c4 <_ZN18complex_no_dynamic3app17h4a4a7b799a1c19c4E>:
   210c4:	b5f0      	push	{r4, r5, r6, r7, lr}
   210c6:	af03      	add	r7, sp, #12
   210c8:	b09f      	sub	sp, #124	@ 0x7c
   210ca:	4604      	mov	r4, r0
   210cc:	ad01      	add	r5, sp, #4
   210ce:	2632      	movs	r6, #50	@ 0x32
   210d0:	4628      	mov	r0, r5
   210d2:	4632      	mov	r2, r6
   210d4:	f005 ff99 	bl	2700a <__aeabi_memcpy>
   210d8:	a80e      	add	r0, sp, #56	@ 0x38
   210da:	2141      	movs	r1, #65	@ 0x41
   210dc:	f005 fde8 	bl	26cb0 <__aeabi_memclr4>
   210e0:	4822      	ldr	r0, [pc, #136]	@ (2116c <_ZN18complex_no_dynamic3app17h4a4a7b799a1c19c4E+0xa8>)
   210e2:	2107      	movs	r1, #7
   210e4:	462a      	mov	r2, r5
   210e6:	4633      	mov	r3, r6
   210e8:	df04      	svc	4
   210ea:	2802      	cmp	r0, #2
   210ec:	d00e      	beq.n	2110c <_ZN18complex_no_dynamic3app17h4a4a7b799a1c19c4E+0x48>
   210ee:	481f      	ldr	r0, [pc, #124]	@ (2116c <_ZN18complex_no_dynamic3app17h4a4a7b799a1c19c4E+0xa8>)
   210f0:	2105      	movs	r1, #5
   210f2:	aa0e      	add	r2, sp, #56	@ 0x38
   210f4:	2341      	movs	r3, #65	@ 0x41
   210f6:	df03      	svc	3
   210f8:	2802      	cmp	r0, #2
   210fa:	d007      	beq.n	2110c <_ZN18complex_no_dynamic3app17h4a4a7b799a1c19c4E+0x48>
   210fc:	481b      	ldr	r0, [pc, #108]	@ (2116c <_ZN18complex_no_dynamic3app17h4a4a7b799a1c19c4E+0xa8>)
   210fe:	2107      	movs	r1, #7
   21100:	2205      	movs	r2, #5
   21102:	2500      	movs	r5, #0
   21104:	462b      	mov	r3, r5
   21106:	df02      	svc	2
   21108:	287f      	cmp	r0, #127	@ 0x7f
   2110a:	d810      	bhi.n	2112e <_ZN18complex_no_dynamic3app17h4a4a7b799a1c19c4E+0x6a>
   2110c:	2001      	movs	r0, #1
   2110e:	7020      	strb	r0, [r4, #0]
   21110:	6061      	str	r1, [r4, #4]
   21112:	4c16      	ldr	r4, [pc, #88]	@ (2116c <_ZN18complex_no_dynamic3app17h4a4a7b799a1c19c4E+0xa8>)
   21114:	2105      	movs	r1, #5
   21116:	2500      	movs	r5, #0
   21118:	4620      	mov	r0, r4
   2111a:	462a      	mov	r2, r5
   2111c:	462b      	mov	r3, r5
   2111e:	df03      	svc	3
   21120:	2107      	movs	r1, #7
   21122:	4620      	mov	r0, r4
   21124:	462a      	mov	r2, r5
   21126:	462b      	mov	r3, r5
   21128:	df04      	svc	4
   2112a:	b01f      	add	sp, #124	@ 0x7c
   2112c:	bdf0      	pop	{r4, r5, r6, r7, pc}
   2112e:	480f      	ldr	r0, [pc, #60]	@ (2116c <_ZN18complex_no_dynamic3app17h4a4a7b799a1c19c4E+0xa8>)
   21130:	2605      	movs	r6, #5
   21132:	4631      	mov	r1, r6
   21134:	462a      	mov	r2, r5
   21136:	462b      	mov	r3, r5
   21138:	df03      	svc	3
   2113a:	480c      	ldr	r0, [pc, #48]	@ (2116c <_ZN18complex_no_dynamic3app17h4a4a7b799a1c19c4E+0xa8>)
   2113c:	4631      	mov	r1, r6
   2113e:	462a      	mov	r2, r5
   21140:	462b      	mov	r3, r5
   21142:	df03      	svc	3
   21144:	1c60      	adds	r0, r4, #1
   21146:	a90e      	add	r1, sp, #56	@ 0x38
   21148:	2241      	movs	r2, #65	@ 0x41
   2114a:	f005 ff5e 	bl	2700a <__aeabi_memcpy>
   2114e:	7025      	strb	r5, [r4, #0]
   21150:	4c06      	ldr	r4, [pc, #24]	@ (2116c <_ZN18complex_no_dynamic3app17h4a4a7b799a1c19c4E+0xa8>)
   21152:	4620      	mov	r0, r4
   21154:	4631      	mov	r1, r6
   21156:	462a      	mov	r2, r5
   21158:	462b      	mov	r3, r5
   2115a:	df03      	svc	3
   2115c:	2107      	movs	r1, #7
   2115e:	4620      	mov	r0, r4
   21160:	462a      	mov	r2, r5
   21162:	462b      	mov	r3, r5
   21164:	df04      	svc	4
   21166:	b01f      	add	sp, #124	@ 0x7c
   21168:	bdf0      	pop	{r4, r5, r6, r7, pc}
   2116a:	46c0      	nop			@ (mov r8, r8)
   2116c:	0000091d 	.word	0x0000091d

00021170 <_ZN18complex_no_dynamic3app17h4fde1340b2b80fd7E>:
   21170:	b5f0      	push	{r4, r5, r6, r7, lr}
   21172:	af03      	add	r7, sp, #12
   21174:	b093      	sub	sp, #76	@ 0x4c
   21176:	4604      	mov	r4, r0
   21178:	466d      	mov	r5, sp
   2117a:	262b      	movs	r6, #43	@ 0x2b
   2117c:	4628      	mov	r0, r5
   2117e:	4632      	mov	r2, r6
   21180:	f005 ff43 	bl	2700a <__aeabi_memcpy>
   21184:	a80b      	add	r0, sp, #44	@ 0x2c
   21186:	2100      	movs	r1, #0
   21188:	8381      	strh	r1, [r0, #28]
   2118a:	9111      	str	r1, [sp, #68]	@ 0x44
   2118c:	9110      	str	r1, [sp, #64]	@ 0x40
   2118e:	910f      	str	r1, [sp, #60]	@ 0x3c
   21190:	910e      	str	r1, [sp, #56]	@ 0x38
   21192:	910d      	str	r1, [sp, #52]	@ 0x34
   21194:	910c      	str	r1, [sp, #48]	@ 0x30
   21196:	910b      	str	r1, [sp, #44]	@ 0x2c
   21198:	4822      	ldr	r0, [pc, #136]	@ (21224 <_ZN18complex_no_dynamic3app17h4fde1340b2b80fd7E+0xb4>)
   2119a:	2107      	movs	r1, #7
   2119c:	462a      	mov	r2, r5
   2119e:	4633      	mov	r3, r6
   211a0:	df04      	svc	4
   211a2:	2802      	cmp	r0, #2
   211a4:	d00e      	beq.n	211c4 <_ZN18complex_no_dynamic3app17h4fde1340b2b80fd7E+0x54>
   211a6:	481f      	ldr	r0, [pc, #124]	@ (21224 <_ZN18complex_no_dynamic3app17h4fde1340b2b80fd7E+0xb4>)
   211a8:	2108      	movs	r1, #8
   211aa:	aa0b      	add	r2, sp, #44	@ 0x2c
   211ac:	231e      	movs	r3, #30
   211ae:	df03      	svc	3
   211b0:	2802      	cmp	r0, #2
   211b2:	d007      	beq.n	211c4 <_ZN18complex_no_dynamic3app17h4fde1340b2b80fd7E+0x54>
   211b4:	481b      	ldr	r0, [pc, #108]	@ (21224 <_ZN18complex_no_dynamic3app17h4fde1340b2b80fd7E+0xb4>)
   211b6:	2107      	movs	r1, #7
   211b8:	2208      	movs	r2, #8
   211ba:	2500      	movs	r5, #0
   211bc:	462b      	mov	r3, r5
   211be:	df02      	svc	2
   211c0:	287f      	cmp	r0, #127	@ 0x7f
   211c2:	d810      	bhi.n	211e6 <_ZN18complex_no_dynamic3app17h4fde1340b2b80fd7E+0x76>
   211c4:	2001      	movs	r0, #1
   211c6:	7020      	strb	r0, [r4, #0]
   211c8:	6061      	str	r1, [r4, #4]
   211ca:	4c16      	ldr	r4, [pc, #88]	@ (21224 <_ZN18complex_no_dynamic3app17h4fde1340b2b80fd7E+0xb4>)
   211cc:	2108      	movs	r1, #8
   211ce:	2500      	movs	r5, #0
   211d0:	4620      	mov	r0, r4
   211d2:	462a      	mov	r2, r5
   211d4:	462b      	mov	r3, r5
   211d6:	df03      	svc	3
   211d8:	2107      	movs	r1, #7
   211da:	4620      	mov	r0, r4
   211dc:	462a      	mov	r2, r5
   211de:	462b      	mov	r3, r5
   211e0:	df04      	svc	4
   211e2:	b013      	add	sp, #76	@ 0x4c
   211e4:	bdf0      	pop	{r4, r5, r6, r7, pc}
   211e6:	480f      	ldr	r0, [pc, #60]	@ (21224 <_ZN18complex_no_dynamic3app17h4fde1340b2b80fd7E+0xb4>)
   211e8:	2608      	movs	r6, #8
   211ea:	4631      	mov	r1, r6
   211ec:	462a      	mov	r2, r5
   211ee:	462b      	mov	r3, r5
   211f0:	df03      	svc	3
   211f2:	480c      	ldr	r0, [pc, #48]	@ (21224 <_ZN18complex_no_dynamic3app17h4fde1340b2b80fd7E+0xb4>)
   211f4:	4631      	mov	r1, r6
   211f6:	462a      	mov	r2, r5
   211f8:	462b      	mov	r3, r5
   211fa:	df03      	svc	3
   211fc:	1c60      	adds	r0, r4, #1
   211fe:	a90b      	add	r1, sp, #44	@ 0x2c
   21200:	221e      	movs	r2, #30
   21202:	f005 ff02 	bl	2700a <__aeabi_memcpy>
   21206:	7025      	strb	r5, [r4, #0]
   21208:	4c06      	ldr	r4, [pc, #24]	@ (21224 <_ZN18complex_no_dynamic3app17h4fde1340b2b80fd7E+0xb4>)
   2120a:	4620      	mov	r0, r4
   2120c:	4631      	mov	r1, r6
   2120e:	462a      	mov	r2, r5
   21210:	462b      	mov	r3, r5
   21212:	df03      	svc	3
   21214:	2107      	movs	r1, #7
   21216:	4620      	mov	r0, r4
   21218:	462a      	mov	r2, r5
   2121a:	462b      	mov	r3, r5
   2121c:	df04      	svc	4
   2121e:	b013      	add	sp, #76	@ 0x4c
   21220:	bdf0      	pop	{r4, r5, r6, r7, pc}
   21222:	46c0      	nop			@ (mov r8, r8)
   21224:	000007e3 	.word	0x000007e3

00021228 <_ZN18complex_no_dynamic3app17h512b4dd5bda2bee1E>:
   21228:	b5f0      	push	{r4, r5, r6, r7, lr}
   2122a:	af03      	add	r7, sp, #12
   2122c:	b09b      	sub	sp, #108	@ 0x6c
   2122e:	4604      	mov	r4, r0
   21230:	466d      	mov	r5, sp
   21232:	2655      	movs	r6, #85	@ 0x55
   21234:	4628      	mov	r0, r5
   21236:	4632      	mov	r2, r6
   21238:	f005 fee7 	bl	2700a <__aeabi_memcpy>
   2123c:	a816      	add	r0, sp, #88	@ 0x58
   2123e:	2100      	movs	r1, #0
   21240:	7401      	strb	r1, [r0, #16]
   21242:	9119      	str	r1, [sp, #100]	@ 0x64
   21244:	9118      	str	r1, [sp, #96]	@ 0x60
   21246:	9117      	str	r1, [sp, #92]	@ 0x5c
   21248:	9116      	str	r1, [sp, #88]	@ 0x58
   2124a:	4823      	ldr	r0, [pc, #140]	@ (212d8 <_ZN18complex_no_dynamic3app17h512b4dd5bda2bee1E+0xb0>)
   2124c:	2102      	movs	r1, #2
   2124e:	462a      	mov	r2, r5
   21250:	4633      	mov	r3, r6
   21252:	df04      	svc	4
   21254:	2802      	cmp	r0, #2
   21256:	d00e      	beq.n	21276 <_ZN18complex_no_dynamic3app17h512b4dd5bda2bee1E+0x4e>
   21258:	481f      	ldr	r0, [pc, #124]	@ (212d8 <_ZN18complex_no_dynamic3app17h512b4dd5bda2bee1E+0xb0>)
   2125a:	2102      	movs	r1, #2
   2125c:	aa16      	add	r2, sp, #88	@ 0x58
   2125e:	2311      	movs	r3, #17
   21260:	df03      	svc	3
   21262:	2802      	cmp	r0, #2
   21264:	d007      	beq.n	21276 <_ZN18complex_no_dynamic3app17h512b4dd5bda2bee1E+0x4e>
   21266:	481c      	ldr	r0, [pc, #112]	@ (212d8 <_ZN18complex_no_dynamic3app17h512b4dd5bda2bee1E+0xb0>)
   21268:	2102      	movs	r1, #2
   2126a:	2500      	movs	r5, #0
   2126c:	460a      	mov	r2, r1
   2126e:	462b      	mov	r3, r5
   21270:	df02      	svc	2
   21272:	287f      	cmp	r0, #127	@ 0x7f
   21274:	d811      	bhi.n	2129a <_ZN18complex_no_dynamic3app17h512b4dd5bda2bee1E+0x72>
   21276:	2001      	movs	r0, #1
   21278:	7020      	strb	r0, [r4, #0]
   2127a:	6061      	str	r1, [r4, #4]
   2127c:	4c16      	ldr	r4, [pc, #88]	@ (212d8 <_ZN18complex_no_dynamic3app17h512b4dd5bda2bee1E+0xb0>)
   2127e:	2502      	movs	r5, #2
   21280:	2600      	movs	r6, #0
   21282:	4620      	mov	r0, r4
   21284:	4629      	mov	r1, r5
   21286:	4632      	mov	r2, r6
   21288:	4633      	mov	r3, r6
   2128a:	df03      	svc	3
   2128c:	4620      	mov	r0, r4
   2128e:	4629      	mov	r1, r5
   21290:	4632      	mov	r2, r6
   21292:	4633      	mov	r3, r6
   21294:	df04      	svc	4
   21296:	b01b      	add	sp, #108	@ 0x6c
   21298:	bdf0      	pop	{r4, r5, r6, r7, pc}
   2129a:	480f      	ldr	r0, [pc, #60]	@ (212d8 <_ZN18complex_no_dynamic3app17h512b4dd5bda2bee1E+0xb0>)
   2129c:	2602      	movs	r6, #2
   2129e:	4631      	mov	r1, r6
   212a0:	462a      	mov	r2, r5
   212a2:	462b      	mov	r3, r5
   212a4:	df03      	svc	3
   212a6:	480c      	ldr	r0, [pc, #48]	@ (212d8 <_ZN18complex_no_dynamic3app17h512b4dd5bda2bee1E+0xb0>)
   212a8:	4631      	mov	r1, r6
   212aa:	462a      	mov	r2, r5
   212ac:	462b      	mov	r3, r5
   212ae:	df03      	svc	3
   212b0:	1c60      	adds	r0, r4, #1
   212b2:	a916      	add	r1, sp, #88	@ 0x58
   212b4:	2211      	movs	r2, #17
   212b6:	f005 fea8 	bl	2700a <__aeabi_memcpy>
   212ba:	7025      	strb	r5, [r4, #0]
   212bc:	4c06      	ldr	r4, [pc, #24]	@ (212d8 <_ZN18complex_no_dynamic3app17h512b4dd5bda2bee1E+0xb0>)
   212be:	4620      	mov	r0, r4
   212c0:	4631      	mov	r1, r6
   212c2:	462a      	mov	r2, r5
   212c4:	462b      	mov	r3, r5
   212c6:	df03      	svc	3
   212c8:	4620      	mov	r0, r4
   212ca:	4631      	mov	r1, r6
   212cc:	462a      	mov	r2, r5
   212ce:	462b      	mov	r3, r5
   212d0:	df04      	svc	4
   212d2:	b01b      	add	sp, #108	@ 0x6c
   212d4:	bdf0      	pop	{r4, r5, r6, r7, pc}
   212d6:	46c0      	nop			@ (mov r8, r8)
   212d8:	00000c89 	.word	0x00000c89

000212dc <_ZN18complex_no_dynamic3app17h55ab46993a950f1cE>:
   212dc:	b5f0      	push	{r4, r5, r6, r7, lr}
   212de:	af03      	add	r7, sp, #12
   212e0:	b08f      	sub	sp, #60	@ 0x3c
   212e2:	4604      	mov	r4, r0
   212e4:	ad01      	add	r5, sp, #4
   212e6:	2618      	movs	r6, #24
   212e8:	4628      	mov	r0, r5
   212ea:	4632      	mov	r2, r6
   212ec:	f005 fe8d 	bl	2700a <__aeabi_memcpy>
   212f0:	a807      	add	r0, sp, #28
   212f2:	2100      	movs	r1, #0
   212f4:	8381      	strh	r1, [r0, #28]
   212f6:	910d      	str	r1, [sp, #52]	@ 0x34
   212f8:	910c      	str	r1, [sp, #48]	@ 0x30
   212fa:	910b      	str	r1, [sp, #44]	@ 0x2c
   212fc:	910a      	str	r1, [sp, #40]	@ 0x28
   212fe:	9109      	str	r1, [sp, #36]	@ 0x24
   21300:	9108      	str	r1, [sp, #32]
   21302:	9107      	str	r1, [sp, #28]
   21304:	4822      	ldr	r0, [pc, #136]	@ (21390 <_ZN18complex_no_dynamic3app17h55ab46993a950f1cE+0xb4>)
   21306:	2109      	movs	r1, #9
   21308:	462a      	mov	r2, r5
   2130a:	4633      	mov	r3, r6
   2130c:	df04      	svc	4
   2130e:	2802      	cmp	r0, #2
   21310:	d00e      	beq.n	21330 <_ZN18complex_no_dynamic3app17h55ab46993a950f1cE+0x54>
   21312:	481f      	ldr	r0, [pc, #124]	@ (21390 <_ZN18complex_no_dynamic3app17h55ab46993a950f1cE+0xb4>)
   21314:	2105      	movs	r1, #5
   21316:	aa07      	add	r2, sp, #28
   21318:	231e      	movs	r3, #30
   2131a:	df03      	svc	3
   2131c:	2802      	cmp	r0, #2
   2131e:	d007      	beq.n	21330 <_ZN18complex_no_dynamic3app17h55ab46993a950f1cE+0x54>
   21320:	481b      	ldr	r0, [pc, #108]	@ (21390 <_ZN18complex_no_dynamic3app17h55ab46993a950f1cE+0xb4>)
   21322:	2109      	movs	r1, #9
   21324:	2205      	movs	r2, #5
   21326:	2500      	movs	r5, #0
   21328:	462b      	mov	r3, r5
   2132a:	df02      	svc	2
   2132c:	287f      	cmp	r0, #127	@ 0x7f
   2132e:	d810      	bhi.n	21352 <_ZN18complex_no_dynamic3app17h55ab46993a950f1cE+0x76>
   21330:	2001      	movs	r0, #1
   21332:	7020      	strb	r0, [r4, #0]
   21334:	6061      	str	r1, [r4, #4]
   21336:	4c16      	ldr	r4, [pc, #88]	@ (21390 <_ZN18complex_no_dynamic3app17h55ab46993a950f1cE+0xb4>)
   21338:	2105      	movs	r1, #5
   2133a:	2500      	movs	r5, #0
   2133c:	4620      	mov	r0, r4
   2133e:	462a      	mov	r2, r5
   21340:	462b      	mov	r3, r5
   21342:	df03      	svc	3
   21344:	2109      	movs	r1, #9
   21346:	4620      	mov	r0, r4
   21348:	462a      	mov	r2, r5
   2134a:	462b      	mov	r3, r5
   2134c:	df04      	svc	4
   2134e:	b00f      	add	sp, #60	@ 0x3c
   21350:	bdf0      	pop	{r4, r5, r6, r7, pc}
   21352:	480f      	ldr	r0, [pc, #60]	@ (21390 <_ZN18complex_no_dynamic3app17h55ab46993a950f1cE+0xb4>)
   21354:	2605      	movs	r6, #5
   21356:	4631      	mov	r1, r6
   21358:	462a      	mov	r2, r5
   2135a:	462b      	mov	r3, r5
   2135c:	df03      	svc	3
   2135e:	480c      	ldr	r0, [pc, #48]	@ (21390 <_ZN18complex_no_dynamic3app17h55ab46993a950f1cE+0xb4>)
   21360:	4631      	mov	r1, r6
   21362:	462a      	mov	r2, r5
   21364:	462b      	mov	r3, r5
   21366:	df03      	svc	3
   21368:	1c60      	adds	r0, r4, #1
   2136a:	a907      	add	r1, sp, #28
   2136c:	221e      	movs	r2, #30
   2136e:	f005 fe4c 	bl	2700a <__aeabi_memcpy>
   21372:	7025      	strb	r5, [r4, #0]
   21374:	4c06      	ldr	r4, [pc, #24]	@ (21390 <_ZN18complex_no_dynamic3app17h55ab46993a950f1cE+0xb4>)
   21376:	4620      	mov	r0, r4
   21378:	4631      	mov	r1, r6
   2137a:	462a      	mov	r2, r5
   2137c:	462b      	mov	r3, r5
   2137e:	df03      	svc	3
   21380:	2109      	movs	r1, #9
   21382:	4620      	mov	r0, r4
   21384:	462a      	mov	r2, r5
   21386:	462b      	mov	r3, r5
   21388:	df04      	svc	4
   2138a:	b00f      	add	sp, #60	@ 0x3c
   2138c:	bdf0      	pop	{r4, r5, r6, r7, pc}
   2138e:	46c0      	nop			@ (mov r8, r8)
   21390:	00000cbb 	.word	0x00000cbb

00021394 <_ZN18complex_no_dynamic3app17h5809bc83b53335b0E>:
   21394:	b5f0      	push	{r4, r5, r6, r7, lr}
   21396:	af03      	add	r7, sp, #12
   21398:	b0a3      	sub	sp, #140	@ 0x8c
   2139a:	4604      	mov	r4, r0
   2139c:	466d      	mov	r5, sp
   2139e:	264d      	movs	r6, #77	@ 0x4d
   213a0:	4628      	mov	r0, r5
   213a2:	4632      	mov	r2, r6
   213a4:	f005 fe31 	bl	2700a <__aeabi_memcpy>
   213a8:	a814      	add	r0, sp, #80	@ 0x50
   213aa:	213c      	movs	r1, #60	@ 0x3c
   213ac:	f005 fc80 	bl	26cb0 <__aeabi_memclr4>
   213b0:	4822      	ldr	r0, [pc, #136]	@ (2143c <_ZN18complex_no_dynamic3app17h5809bc83b53335b0E+0xa8>)
   213b2:	2104      	movs	r1, #4
   213b4:	462a      	mov	r2, r5
   213b6:	4633      	mov	r3, r6
   213b8:	df04      	svc	4
   213ba:	2802      	cmp	r0, #2
   213bc:	d00e      	beq.n	213dc <_ZN18complex_no_dynamic3app17h5809bc83b53335b0E+0x48>
   213be:	481f      	ldr	r0, [pc, #124]	@ (2143c <_ZN18complex_no_dynamic3app17h5809bc83b53335b0E+0xa8>)
   213c0:	2109      	movs	r1, #9
   213c2:	aa14      	add	r2, sp, #80	@ 0x50
   213c4:	233c      	movs	r3, #60	@ 0x3c
   213c6:	df03      	svc	3
   213c8:	2802      	cmp	r0, #2
   213ca:	d007      	beq.n	213dc <_ZN18complex_no_dynamic3app17h5809bc83b53335b0E+0x48>
   213cc:	481b      	ldr	r0, [pc, #108]	@ (2143c <_ZN18complex_no_dynamic3app17h5809bc83b53335b0E+0xa8>)
   213ce:	2104      	movs	r1, #4
   213d0:	2209      	movs	r2, #9
   213d2:	2500      	movs	r5, #0
   213d4:	462b      	mov	r3, r5
   213d6:	df02      	svc	2
   213d8:	287f      	cmp	r0, #127	@ 0x7f
   213da:	d810      	bhi.n	213fe <_ZN18complex_no_dynamic3app17h5809bc83b53335b0E+0x6a>
   213dc:	2001      	movs	r0, #1
   213de:	7020      	strb	r0, [r4, #0]
   213e0:	6061      	str	r1, [r4, #4]
   213e2:	4c16      	ldr	r4, [pc, #88]	@ (2143c <_ZN18complex_no_dynamic3app17h5809bc83b53335b0E+0xa8>)
   213e4:	2109      	movs	r1, #9
   213e6:	2500      	movs	r5, #0
   213e8:	4620      	mov	r0, r4
   213ea:	462a      	mov	r2, r5
   213ec:	462b      	mov	r3, r5
   213ee:	df03      	svc	3
   213f0:	2104      	movs	r1, #4
   213f2:	4620      	mov	r0, r4
   213f4:	462a      	mov	r2, r5
   213f6:	462b      	mov	r3, r5
   213f8:	df04      	svc	4
   213fa:	b023      	add	sp, #140	@ 0x8c
   213fc:	bdf0      	pop	{r4, r5, r6, r7, pc}
   213fe:	480f      	ldr	r0, [pc, #60]	@ (2143c <_ZN18complex_no_dynamic3app17h5809bc83b53335b0E+0xa8>)
   21400:	2609      	movs	r6, #9
   21402:	4631      	mov	r1, r6
   21404:	462a      	mov	r2, r5
   21406:	462b      	mov	r3, r5
   21408:	df03      	svc	3
   2140a:	480c      	ldr	r0, [pc, #48]	@ (2143c <_ZN18complex_no_dynamic3app17h5809bc83b53335b0E+0xa8>)
   2140c:	4631      	mov	r1, r6
   2140e:	462a      	mov	r2, r5
   21410:	462b      	mov	r3, r5
   21412:	df03      	svc	3
   21414:	1c60      	adds	r0, r4, #1
   21416:	a914      	add	r1, sp, #80	@ 0x50
   21418:	223c      	movs	r2, #60	@ 0x3c
   2141a:	f005 fdf6 	bl	2700a <__aeabi_memcpy>
   2141e:	7025      	strb	r5, [r4, #0]
   21420:	4c06      	ldr	r4, [pc, #24]	@ (2143c <_ZN18complex_no_dynamic3app17h5809bc83b53335b0E+0xa8>)
   21422:	4620      	mov	r0, r4
   21424:	4631      	mov	r1, r6
   21426:	462a      	mov	r2, r5
   21428:	462b      	mov	r3, r5
   2142a:	df03      	svc	3
   2142c:	2104      	movs	r1, #4
   2142e:	4620      	mov	r0, r4
   21430:	462a      	mov	r2, r5
   21432:	462b      	mov	r3, r5
   21434:	df04      	svc	4
   21436:	b023      	add	sp, #140	@ 0x8c
   21438:	bdf0      	pop	{r4, r5, r6, r7, pc}
   2143a:	46c0      	nop			@ (mov r8, r8)
   2143c:	000021ab 	.word	0x000021ab

00021440 <_ZN18complex_no_dynamic3app17h586fcd0dfe0bd338E>:
   21440:	b5f0      	push	{r4, r5, r6, r7, lr}
   21442:	af03      	add	r7, sp, #12
   21444:	b095      	sub	sp, #84	@ 0x54
   21446:	4604      	mov	r4, r0
   21448:	466d      	mov	r5, sp
   2144a:	263f      	movs	r6, #63	@ 0x3f
   2144c:	4628      	mov	r0, r5
   2144e:	4632      	mov	r2, r6
   21450:	f005 fddb 	bl	2700a <__aeabi_memcpy>
   21454:	a810      	add	r0, sp, #64	@ 0x40
   21456:	2100      	movs	r1, #0
   21458:	7401      	strb	r1, [r0, #16]
   2145a:	9113      	str	r1, [sp, #76]	@ 0x4c
   2145c:	9112      	str	r1, [sp, #72]	@ 0x48
   2145e:	9111      	str	r1, [sp, #68]	@ 0x44
   21460:	9110      	str	r1, [sp, #64]	@ 0x40
   21462:	4822      	ldr	r0, [pc, #136]	@ (214ec <_ZN18complex_no_dynamic3app17h586fcd0dfe0bd338E+0xac>)
   21464:	2104      	movs	r1, #4
   21466:	462a      	mov	r2, r5
   21468:	4633      	mov	r3, r6
   2146a:	df04      	svc	4
   2146c:	2802      	cmp	r0, #2
   2146e:	d00e      	beq.n	2148e <_ZN18complex_no_dynamic3app17h586fcd0dfe0bd338E+0x4e>
   21470:	481e      	ldr	r0, [pc, #120]	@ (214ec <_ZN18complex_no_dynamic3app17h586fcd0dfe0bd338E+0xac>)
   21472:	2103      	movs	r1, #3
   21474:	aa10      	add	r2, sp, #64	@ 0x40
   21476:	2311      	movs	r3, #17
   21478:	df03      	svc	3
   2147a:	2802      	cmp	r0, #2
   2147c:	d007      	beq.n	2148e <_ZN18complex_no_dynamic3app17h586fcd0dfe0bd338E+0x4e>
   2147e:	481b      	ldr	r0, [pc, #108]	@ (214ec <_ZN18complex_no_dynamic3app17h586fcd0dfe0bd338E+0xac>)
   21480:	2104      	movs	r1, #4
   21482:	2203      	movs	r2, #3
   21484:	2500      	movs	r5, #0
   21486:	462b      	mov	r3, r5
   21488:	df02      	svc	2
   2148a:	287f      	cmp	r0, #127	@ 0x7f
   2148c:	d810      	bhi.n	214b0 <_ZN18complex_no_dynamic3app17h586fcd0dfe0bd338E+0x70>
   2148e:	2001      	movs	r0, #1
   21490:	7020      	strb	r0, [r4, #0]
   21492:	6061      	str	r1, [r4, #4]
   21494:	4c15      	ldr	r4, [pc, #84]	@ (214ec <_ZN18complex_no_dynamic3app17h586fcd0dfe0bd338E+0xac>)
   21496:	2103      	movs	r1, #3
   21498:	2500      	movs	r5, #0
   2149a:	4620      	mov	r0, r4
   2149c:	462a      	mov	r2, r5
   2149e:	462b      	mov	r3, r5
   214a0:	df03      	svc	3
   214a2:	2104      	movs	r1, #4
   214a4:	4620      	mov	r0, r4
   214a6:	462a      	mov	r2, r5
   214a8:	462b      	mov	r3, r5
   214aa:	df04      	svc	4
   214ac:	b015      	add	sp, #84	@ 0x54
   214ae:	bdf0      	pop	{r4, r5, r6, r7, pc}
   214b0:	480e      	ldr	r0, [pc, #56]	@ (214ec <_ZN18complex_no_dynamic3app17h586fcd0dfe0bd338E+0xac>)
   214b2:	2603      	movs	r6, #3
   214b4:	4631      	mov	r1, r6
   214b6:	462a      	mov	r2, r5
   214b8:	462b      	mov	r3, r5
   214ba:	df03      	svc	3
   214bc:	480b      	ldr	r0, [pc, #44]	@ (214ec <_ZN18complex_no_dynamic3app17h586fcd0dfe0bd338E+0xac>)
   214be:	4631      	mov	r1, r6
   214c0:	462a      	mov	r2, r5
   214c2:	462b      	mov	r3, r5
   214c4:	df03      	svc	3
   214c6:	1c60      	adds	r0, r4, #1
   214c8:	a910      	add	r1, sp, #64	@ 0x40
   214ca:	2211      	movs	r2, #17
   214cc:	f005 fd9d 	bl	2700a <__aeabi_memcpy>
   214d0:	7025      	strb	r5, [r4, #0]
   214d2:	4c06      	ldr	r4, [pc, #24]	@ (214ec <_ZN18complex_no_dynamic3app17h586fcd0dfe0bd338E+0xac>)
   214d4:	4620      	mov	r0, r4
   214d6:	4631      	mov	r1, r6
   214d8:	462a      	mov	r2, r5
   214da:	462b      	mov	r3, r5
   214dc:	df03      	svc	3
   214de:	2104      	movs	r1, #4
   214e0:	4620      	mov	r0, r4
   214e2:	462a      	mov	r2, r5
   214e4:	462b      	mov	r3, r5
   214e6:	df04      	svc	4
   214e8:	b015      	add	sp, #84	@ 0x54
   214ea:	bdf0      	pop	{r4, r5, r6, r7, pc}
   214ec:	000014d7 	.word	0x000014d7

000214f0 <_ZN18complex_no_dynamic3app17h588fff34a965b866E>:
   214f0:	b5f0      	push	{r4, r5, r6, r7, lr}
   214f2:	af03      	add	r7, sp, #12
   214f4:	b093      	sub	sp, #76	@ 0x4c
   214f6:	4604      	mov	r4, r0
   214f8:	ad01      	add	r5, sp, #4
   214fa:	2629      	movs	r6, #41	@ 0x29
   214fc:	4628      	mov	r0, r5
   214fe:	4632      	mov	r2, r6
   21500:	f005 fd83 	bl	2700a <__aeabi_memcpy>
   21504:	a80c      	add	r0, sp, #48	@ 0x30
   21506:	2100      	movs	r1, #0
   21508:	8301      	strh	r1, [r0, #24]
   2150a:	9111      	str	r1, [sp, #68]	@ 0x44
   2150c:	9110      	str	r1, [sp, #64]	@ 0x40
   2150e:	910f      	str	r1, [sp, #60]	@ 0x3c
   21510:	910e      	str	r1, [sp, #56]	@ 0x38
   21512:	910d      	str	r1, [sp, #52]	@ 0x34
   21514:	910c      	str	r1, [sp, #48]	@ 0x30
   21516:	4822      	ldr	r0, [pc, #136]	@ (215a0 <_ZN18complex_no_dynamic3app17h588fff34a965b866E+0xb0>)
   21518:	2105      	movs	r1, #5
   2151a:	462a      	mov	r2, r5
   2151c:	4633      	mov	r3, r6
   2151e:	df04      	svc	4
   21520:	2802      	cmp	r0, #2
   21522:	d00e      	beq.n	21542 <_ZN18complex_no_dynamic3app17h588fff34a965b866E+0x52>
   21524:	481e      	ldr	r0, [pc, #120]	@ (215a0 <_ZN18complex_no_dynamic3app17h588fff34a965b866E+0xb0>)
   21526:	2103      	movs	r1, #3
   21528:	aa0c      	add	r2, sp, #48	@ 0x30
   2152a:	231a      	movs	r3, #26
   2152c:	df03      	svc	3
   2152e:	2802      	cmp	r0, #2
   21530:	d007      	beq.n	21542 <_ZN18complex_no_dynamic3app17h588fff34a965b866E+0x52>
   21532:	481b      	ldr	r0, [pc, #108]	@ (215a0 <_ZN18complex_no_dynamic3app17h588fff34a965b866E+0xb0>)
   21534:	2105      	movs	r1, #5
   21536:	2203      	movs	r2, #3
   21538:	2500      	movs	r5, #0
   2153a:	462b      	mov	r3, r5
   2153c:	df02      	svc	2
   2153e:	287f      	cmp	r0, #127	@ 0x7f
   21540:	d810      	bhi.n	21564 <_ZN18complex_no_dynamic3app17h588fff34a965b866E+0x74>
   21542:	2001      	movs	r0, #1
   21544:	7020      	strb	r0, [r4, #0]
   21546:	6061      	str	r1, [r4, #4]
   21548:	4c15      	ldr	r4, [pc, #84]	@ (215a0 <_ZN18complex_no_dynamic3app17h588fff34a965b866E+0xb0>)
   2154a:	2103      	movs	r1, #3
   2154c:	2500      	movs	r5, #0
   2154e:	4620      	mov	r0, r4
   21550:	462a      	mov	r2, r5
   21552:	462b      	mov	r3, r5
   21554:	df03      	svc	3
   21556:	2105      	movs	r1, #5
   21558:	4620      	mov	r0, r4
   2155a:	462a      	mov	r2, r5
   2155c:	462b      	mov	r3, r5
   2155e:	df04      	svc	4
   21560:	b013      	add	sp, #76	@ 0x4c
   21562:	bdf0      	pop	{r4, r5, r6, r7, pc}
   21564:	480e      	ldr	r0, [pc, #56]	@ (215a0 <_ZN18complex_no_dynamic3app17h588fff34a965b866E+0xb0>)
   21566:	2603      	movs	r6, #3
   21568:	4631      	mov	r1, r6
   2156a:	462a      	mov	r2, r5
   2156c:	462b      	mov	r3, r5
   2156e:	df03      	svc	3
   21570:	480b      	ldr	r0, [pc, #44]	@ (215a0 <_ZN18complex_no_dynamic3app17h588fff34a965b866E+0xb0>)
   21572:	4631      	mov	r1, r6
   21574:	462a      	mov	r2, r5
   21576:	462b      	mov	r3, r5
   21578:	df03      	svc	3
   2157a:	1c60      	adds	r0, r4, #1
   2157c:	a90c      	add	r1, sp, #48	@ 0x30
   2157e:	221a      	movs	r2, #26
   21580:	f005 fd43 	bl	2700a <__aeabi_memcpy>
   21584:	7025      	strb	r5, [r4, #0]
   21586:	4c06      	ldr	r4, [pc, #24]	@ (215a0 <_ZN18complex_no_dynamic3app17h588fff34a965b866E+0xb0>)
   21588:	4620      	mov	r0, r4
   2158a:	4631      	mov	r1, r6
   2158c:	462a      	mov	r2, r5
   2158e:	462b      	mov	r3, r5
   21590:	df03      	svc	3
   21592:	2105      	movs	r1, #5
   21594:	4620      	mov	r0, r4
   21596:	462a      	mov	r2, r5
   21598:	462b      	mov	r3, r5
   2159a:	df04      	svc	4
   2159c:	b013      	add	sp, #76	@ 0x4c
   2159e:	bdf0      	pop	{r4, r5, r6, r7, pc}
   215a0:	00002048 	.word	0x00002048

000215a4 <_ZN18complex_no_dynamic3app17h5b3e021dadffbbfcE>:
   215a4:	b5f0      	push	{r4, r5, r6, r7, lr}
   215a6:	af03      	add	r7, sp, #12
   215a8:	b095      	sub	sp, #84	@ 0x54
   215aa:	4604      	mov	r4, r0
   215ac:	466d      	mov	r5, sp
   215ae:	262c      	movs	r6, #44	@ 0x2c
   215b0:	4628      	mov	r0, r5
   215b2:	4632      	mov	r2, r6
   215b4:	f005 fd29 	bl	2700a <__aeabi_memcpy>
   215b8:	a80b      	add	r0, sp, #44	@ 0x2c
   215ba:	2127      	movs	r1, #39	@ 0x27
   215bc:	f005 fb78 	bl	26cb0 <__aeabi_memclr4>
   215c0:	4822      	ldr	r0, [pc, #136]	@ (2164c <_ZN18complex_no_dynamic3app17h5b3e021dadffbbfcE+0xa8>)
   215c2:	2104      	movs	r1, #4
   215c4:	462a      	mov	r2, r5
   215c6:	4633      	mov	r3, r6
   215c8:	df04      	svc	4
   215ca:	2802      	cmp	r0, #2
   215cc:	d00e      	beq.n	215ec <_ZN18complex_no_dynamic3app17h5b3e021dadffbbfcE+0x48>
   215ce:	481f      	ldr	r0, [pc, #124]	@ (2164c <_ZN18complex_no_dynamic3app17h5b3e021dadffbbfcE+0xa8>)
   215d0:	2103      	movs	r1, #3
   215d2:	aa0b      	add	r2, sp, #44	@ 0x2c
   215d4:	2327      	movs	r3, #39	@ 0x27
   215d6:	df03      	svc	3
   215d8:	2802      	cmp	r0, #2
   215da:	d007      	beq.n	215ec <_ZN18complex_no_dynamic3app17h5b3e021dadffbbfcE+0x48>
   215dc:	481b      	ldr	r0, [pc, #108]	@ (2164c <_ZN18complex_no_dynamic3app17h5b3e021dadffbbfcE+0xa8>)
   215de:	2104      	movs	r1, #4
   215e0:	2203      	movs	r2, #3
   215e2:	2500      	movs	r5, #0
   215e4:	462b      	mov	r3, r5
   215e6:	df02      	svc	2
   215e8:	287f      	cmp	r0, #127	@ 0x7f
   215ea:	d810      	bhi.n	2160e <_ZN18complex_no_dynamic3app17h5b3e021dadffbbfcE+0x6a>
   215ec:	2001      	movs	r0, #1
   215ee:	7020      	strb	r0, [r4, #0]
   215f0:	6061      	str	r1, [r4, #4]
   215f2:	4c16      	ldr	r4, [pc, #88]	@ (2164c <_ZN18complex_no_dynamic3app17h5b3e021dadffbbfcE+0xa8>)
   215f4:	2103      	movs	r1, #3
   215f6:	2500      	movs	r5, #0
   215f8:	4620      	mov	r0, r4
   215fa:	462a      	mov	r2, r5
   215fc:	462b      	mov	r3, r5
   215fe:	df03      	svc	3
   21600:	2104      	movs	r1, #4
   21602:	4620      	mov	r0, r4
   21604:	462a      	mov	r2, r5
   21606:	462b      	mov	r3, r5
   21608:	df04      	svc	4
   2160a:	b015      	add	sp, #84	@ 0x54
   2160c:	bdf0      	pop	{r4, r5, r6, r7, pc}
   2160e:	480f      	ldr	r0, [pc, #60]	@ (2164c <_ZN18complex_no_dynamic3app17h5b3e021dadffbbfcE+0xa8>)
   21610:	2603      	movs	r6, #3
   21612:	4631      	mov	r1, r6
   21614:	462a      	mov	r2, r5
   21616:	462b      	mov	r3, r5
   21618:	df03      	svc	3
   2161a:	480c      	ldr	r0, [pc, #48]	@ (2164c <_ZN18complex_no_dynamic3app17h5b3e021dadffbbfcE+0xa8>)
   2161c:	4631      	mov	r1, r6
   2161e:	462a      	mov	r2, r5
   21620:	462b      	mov	r3, r5
   21622:	df03      	svc	3
   21624:	1c60      	adds	r0, r4, #1
   21626:	a90b      	add	r1, sp, #44	@ 0x2c
   21628:	2227      	movs	r2, #39	@ 0x27
   2162a:	f005 fcee 	bl	2700a <__aeabi_memcpy>
   2162e:	7025      	strb	r5, [r4, #0]
   21630:	4c06      	ldr	r4, [pc, #24]	@ (2164c <_ZN18complex_no_dynamic3app17h5b3e021dadffbbfcE+0xa8>)
   21632:	4620      	mov	r0, r4
   21634:	4631      	mov	r1, r6
   21636:	462a      	mov	r2, r5
   21638:	462b      	mov	r3, r5
   2163a:	df03      	svc	3
   2163c:	2104      	movs	r1, #4
   2163e:	4620      	mov	r0, r4
   21640:	462a      	mov	r2, r5
   21642:	462b      	mov	r3, r5
   21644:	df04      	svc	4
   21646:	b015      	add	sp, #84	@ 0x54
   21648:	bdf0      	pop	{r4, r5, r6, r7, pc}
   2164a:	46c0      	nop			@ (mov r8, r8)
   2164c:	000011b5 	.word	0x000011b5

00021650 <_ZN18complex_no_dynamic3app17h5f1e643a9520ea58E>:
   21650:	b5f0      	push	{r4, r5, r6, r7, lr}
   21652:	af03      	add	r7, sp, #12
   21654:	b099      	sub	sp, #100	@ 0x64
   21656:	4604      	mov	r4, r0
   21658:	466d      	mov	r5, sp
   2165a:	2651      	movs	r6, #81	@ 0x51
   2165c:	4628      	mov	r0, r5
   2165e:	4632      	mov	r2, r6
   21660:	f005 fcd3 	bl	2700a <__aeabi_memcpy>
   21664:	a815      	add	r0, sp, #84	@ 0x54
   21666:	2100      	movs	r1, #0
   21668:	7381      	strb	r1, [r0, #14]
   2166a:	8181      	strh	r1, [r0, #12]
   2166c:	9117      	str	r1, [sp, #92]	@ 0x5c
   2166e:	9116      	str	r1, [sp, #88]	@ 0x58
   21670:	9115      	str	r1, [sp, #84]	@ 0x54
   21672:	4822      	ldr	r0, [pc, #136]	@ (216fc <_ZN18complex_no_dynamic3app17h5f1e643a9520ea58E+0xac>)
   21674:	462a      	mov	r2, r5
   21676:	4633      	mov	r3, r6
   21678:	df04      	svc	4
   2167a:	2802      	cmp	r0, #2
   2167c:	d00e      	beq.n	2169c <_ZN18complex_no_dynamic3app17h5f1e643a9520ea58E+0x4c>
   2167e:	481f      	ldr	r0, [pc, #124]	@ (216fc <_ZN18complex_no_dynamic3app17h5f1e643a9520ea58E+0xac>)
   21680:	2103      	movs	r1, #3
   21682:	aa15      	add	r2, sp, #84	@ 0x54
   21684:	230f      	movs	r3, #15
   21686:	df03      	svc	3
   21688:	2802      	cmp	r0, #2
   2168a:	d007      	beq.n	2169c <_ZN18complex_no_dynamic3app17h5f1e643a9520ea58E+0x4c>
   2168c:	481b      	ldr	r0, [pc, #108]	@ (216fc <_ZN18complex_no_dynamic3app17h5f1e643a9520ea58E+0xac>)
   2168e:	2203      	movs	r2, #3
   21690:	2500      	movs	r5, #0
   21692:	4629      	mov	r1, r5
   21694:	462b      	mov	r3, r5
   21696:	df02      	svc	2
   21698:	287f      	cmp	r0, #127	@ 0x7f
   2169a:	d810      	bhi.n	216be <_ZN18complex_no_dynamic3app17h5f1e643a9520ea58E+0x6e>
   2169c:	2001      	movs	r0, #1
   2169e:	7020      	strb	r0, [r4, #0]
   216a0:	6061      	str	r1, [r4, #4]
   216a2:	4c16      	ldr	r4, [pc, #88]	@ (216fc <_ZN18complex_no_dynamic3app17h5f1e643a9520ea58E+0xac>)
   216a4:	2103      	movs	r1, #3
   216a6:	2500      	movs	r5, #0
   216a8:	4620      	mov	r0, r4
   216aa:	462a      	mov	r2, r5
   216ac:	462b      	mov	r3, r5
   216ae:	df03      	svc	3
   216b0:	4620      	mov	r0, r4
   216b2:	4629      	mov	r1, r5
   216b4:	462a      	mov	r2, r5
   216b6:	462b      	mov	r3, r5
   216b8:	df04      	svc	4
   216ba:	b019      	add	sp, #100	@ 0x64
   216bc:	bdf0      	pop	{r4, r5, r6, r7, pc}
   216be:	480f      	ldr	r0, [pc, #60]	@ (216fc <_ZN18complex_no_dynamic3app17h5f1e643a9520ea58E+0xac>)
   216c0:	2603      	movs	r6, #3
   216c2:	4631      	mov	r1, r6
   216c4:	462a      	mov	r2, r5
   216c6:	462b      	mov	r3, r5
   216c8:	df03      	svc	3
   216ca:	480c      	ldr	r0, [pc, #48]	@ (216fc <_ZN18complex_no_dynamic3app17h5f1e643a9520ea58E+0xac>)
   216cc:	4631      	mov	r1, r6
   216ce:	462a      	mov	r2, r5
   216d0:	462b      	mov	r3, r5
   216d2:	df03      	svc	3
   216d4:	1c60      	adds	r0, r4, #1
   216d6:	a915      	add	r1, sp, #84	@ 0x54
   216d8:	220f      	movs	r2, #15
   216da:	f005 fc96 	bl	2700a <__aeabi_memcpy>
   216de:	7025      	strb	r5, [r4, #0]
   216e0:	4c06      	ldr	r4, [pc, #24]	@ (216fc <_ZN18complex_no_dynamic3app17h5f1e643a9520ea58E+0xac>)
   216e2:	4620      	mov	r0, r4
   216e4:	4631      	mov	r1, r6
   216e6:	462a      	mov	r2, r5
   216e8:	462b      	mov	r3, r5
   216ea:	df03      	svc	3
   216ec:	4620      	mov	r0, r4
   216ee:	4629      	mov	r1, r5
   216f0:	462a      	mov	r2, r5
   216f2:	462b      	mov	r3, r5
   216f4:	df04      	svc	4
   216f6:	b019      	add	sp, #100	@ 0x64
   216f8:	bdf0      	pop	{r4, r5, r6, r7, pc}
   216fa:	46c0      	nop			@ (mov r8, r8)
   216fc:	000013bf 	.word	0x000013bf

00021700 <_ZN18complex_no_dynamic3app17h605213c3d6be6c43E>:
   21700:	b5f0      	push	{r4, r5, r6, r7, lr}
   21702:	af03      	add	r7, sp, #12
   21704:	b0a1      	sub	sp, #132	@ 0x84
   21706:	4604      	mov	r4, r0
   21708:	466d      	mov	r5, sp
   2170a:	262d      	movs	r6, #45	@ 0x2d
   2170c:	4628      	mov	r0, r5
   2170e:	4632      	mov	r2, r6
   21710:	f005 fc7b 	bl	2700a <__aeabi_memcpy>
   21714:	a80c      	add	r0, sp, #48	@ 0x30
   21716:	2153      	movs	r1, #83	@ 0x53
   21718:	f005 faca 	bl	26cb0 <__aeabi_memclr4>
   2171c:	4822      	ldr	r0, [pc, #136]	@ (217a8 <_ZN18complex_no_dynamic3app17h605213c3d6be6c43E+0xa8>)
   2171e:	2102      	movs	r1, #2
   21720:	462a      	mov	r2, r5
   21722:	4633      	mov	r3, r6
   21724:	df04      	svc	4
   21726:	2802      	cmp	r0, #2
   21728:	d00e      	beq.n	21748 <_ZN18complex_no_dynamic3app17h605213c3d6be6c43E+0x48>
   2172a:	481f      	ldr	r0, [pc, #124]	@ (217a8 <_ZN18complex_no_dynamic3app17h605213c3d6be6c43E+0xa8>)
   2172c:	2107      	movs	r1, #7
   2172e:	aa0c      	add	r2, sp, #48	@ 0x30
   21730:	2353      	movs	r3, #83	@ 0x53
   21732:	df03      	svc	3
   21734:	2802      	cmp	r0, #2
   21736:	d007      	beq.n	21748 <_ZN18complex_no_dynamic3app17h605213c3d6be6c43E+0x48>
   21738:	481b      	ldr	r0, [pc, #108]	@ (217a8 <_ZN18complex_no_dynamic3app17h605213c3d6be6c43E+0xa8>)
   2173a:	2102      	movs	r1, #2
   2173c:	2207      	movs	r2, #7
   2173e:	2500      	movs	r5, #0
   21740:	462b      	mov	r3, r5
   21742:	df02      	svc	2
   21744:	287f      	cmp	r0, #127	@ 0x7f
   21746:	d810      	bhi.n	2176a <_ZN18complex_no_dynamic3app17h605213c3d6be6c43E+0x6a>
   21748:	2001      	movs	r0, #1
   2174a:	7020      	strb	r0, [r4, #0]
   2174c:	6061      	str	r1, [r4, #4]
   2174e:	4c16      	ldr	r4, [pc, #88]	@ (217a8 <_ZN18complex_no_dynamic3app17h605213c3d6be6c43E+0xa8>)
   21750:	2107      	movs	r1, #7
   21752:	2500      	movs	r5, #0
   21754:	4620      	mov	r0, r4
   21756:	462a      	mov	r2, r5
   21758:	462b      	mov	r3, r5
   2175a:	df03      	svc	3
   2175c:	2102      	movs	r1, #2
   2175e:	4620      	mov	r0, r4
   21760:	462a      	mov	r2, r5
   21762:	462b      	mov	r3, r5
   21764:	df04      	svc	4
   21766:	b021      	add	sp, #132	@ 0x84
   21768:	bdf0      	pop	{r4, r5, r6, r7, pc}
   2176a:	480f      	ldr	r0, [pc, #60]	@ (217a8 <_ZN18complex_no_dynamic3app17h605213c3d6be6c43E+0xa8>)
   2176c:	2607      	movs	r6, #7
   2176e:	4631      	mov	r1, r6
   21770:	462a      	mov	r2, r5
   21772:	462b      	mov	r3, r5
   21774:	df03      	svc	3
   21776:	480c      	ldr	r0, [pc, #48]	@ (217a8 <_ZN18complex_no_dynamic3app17h605213c3d6be6c43E+0xa8>)
   21778:	4631      	mov	r1, r6
   2177a:	462a      	mov	r2, r5
   2177c:	462b      	mov	r3, r5
   2177e:	df03      	svc	3
   21780:	1c60      	adds	r0, r4, #1
   21782:	a90c      	add	r1, sp, #48	@ 0x30
   21784:	2253      	movs	r2, #83	@ 0x53
   21786:	f005 fc40 	bl	2700a <__aeabi_memcpy>
   2178a:	7025      	strb	r5, [r4, #0]
   2178c:	4c06      	ldr	r4, [pc, #24]	@ (217a8 <_ZN18complex_no_dynamic3app17h605213c3d6be6c43E+0xa8>)
   2178e:	4620      	mov	r0, r4
   21790:	4631      	mov	r1, r6
   21792:	462a      	mov	r2, r5
   21794:	462b      	mov	r3, r5
   21796:	df03      	svc	3
   21798:	2102      	movs	r1, #2
   2179a:	4620      	mov	r0, r4
   2179c:	462a      	mov	r2, r5
   2179e:	462b      	mov	r3, r5
   217a0:	df04      	svc	4
   217a2:	b021      	add	sp, #132	@ 0x84
   217a4:	bdf0      	pop	{r4, r5, r6, r7, pc}
   217a6:	46c0      	nop			@ (mov r8, r8)
   217a8:	00000ec3 	.word	0x00000ec3

000217ac <_ZN18complex_no_dynamic3app17h6201aec7f4816fa2E>:
   217ac:	b5f0      	push	{r4, r5, r6, r7, lr}
   217ae:	af03      	add	r7, sp, #12
   217b0:	b099      	sub	sp, #100	@ 0x64
   217b2:	4604      	mov	r4, r0
   217b4:	ad01      	add	r5, sp, #4
   217b6:	2638      	movs	r6, #56	@ 0x38
   217b8:	4628      	mov	r0, r5
   217ba:	4632      	mov	r2, r6
   217bc:	f005 fc25 	bl	2700a <__aeabi_memcpy>
   217c0:	a80f      	add	r0, sp, #60	@ 0x3c
   217c2:	2127      	movs	r1, #39	@ 0x27
   217c4:	f005 fa74 	bl	26cb0 <__aeabi_memclr4>
   217c8:	4822      	ldr	r0, [pc, #136]	@ (21854 <_ZN18complex_no_dynamic3app17h6201aec7f4816fa2E+0xa8>)
   217ca:	2102      	movs	r1, #2
   217cc:	462a      	mov	r2, r5
   217ce:	4633      	mov	r3, r6
   217d0:	df04      	svc	4
   217d2:	2802      	cmp	r0, #2
   217d4:	d00e      	beq.n	217f4 <_ZN18complex_no_dynamic3app17h6201aec7f4816fa2E+0x48>
   217d6:	481f      	ldr	r0, [pc, #124]	@ (21854 <_ZN18complex_no_dynamic3app17h6201aec7f4816fa2E+0xa8>)
   217d8:	2108      	movs	r1, #8
   217da:	aa0f      	add	r2, sp, #60	@ 0x3c
   217dc:	2327      	movs	r3, #39	@ 0x27
   217de:	df03      	svc	3
   217e0:	2802      	cmp	r0, #2
   217e2:	d007      	beq.n	217f4 <_ZN18complex_no_dynamic3app17h6201aec7f4816fa2E+0x48>
   217e4:	481b      	ldr	r0, [pc, #108]	@ (21854 <_ZN18complex_no_dynamic3app17h6201aec7f4816fa2E+0xa8>)
   217e6:	2102      	movs	r1, #2
   217e8:	2208      	movs	r2, #8
   217ea:	2500      	movs	r5, #0
   217ec:	462b      	mov	r3, r5
   217ee:	df02      	svc	2
   217f0:	287f      	cmp	r0, #127	@ 0x7f
   217f2:	d810      	bhi.n	21816 <_ZN18complex_no_dynamic3app17h6201aec7f4816fa2E+0x6a>
   217f4:	2001      	movs	r0, #1
   217f6:	7020      	strb	r0, [r4, #0]
   217f8:	6061      	str	r1, [r4, #4]
   217fa:	4c16      	ldr	r4, [pc, #88]	@ (21854 <_ZN18complex_no_dynamic3app17h6201aec7f4816fa2E+0xa8>)
   217fc:	2108      	movs	r1, #8
   217fe:	2500      	movs	r5, #0
   21800:	4620      	mov	r0, r4
   21802:	462a      	mov	r2, r5
   21804:	462b      	mov	r3, r5
   21806:	df03      	svc	3
   21808:	2102      	movs	r1, #2
   2180a:	4620      	mov	r0, r4
   2180c:	462a      	mov	r2, r5
   2180e:	462b      	mov	r3, r5
   21810:	df04      	svc	4
   21812:	b019      	add	sp, #100	@ 0x64
   21814:	bdf0      	pop	{r4, r5, r6, r7, pc}
   21816:	480f      	ldr	r0, [pc, #60]	@ (21854 <_ZN18complex_no_dynamic3app17h6201aec7f4816fa2E+0xa8>)
   21818:	2608      	movs	r6, #8
   2181a:	4631      	mov	r1, r6
   2181c:	462a      	mov	r2, r5
   2181e:	462b      	mov	r3, r5
   21820:	df03      	svc	3
   21822:	480c      	ldr	r0, [pc, #48]	@ (21854 <_ZN18complex_no_dynamic3app17h6201aec7f4816fa2E+0xa8>)
   21824:	4631      	mov	r1, r6
   21826:	462a      	mov	r2, r5
   21828:	462b      	mov	r3, r5
   2182a:	df03      	svc	3
   2182c:	1c60      	adds	r0, r4, #1
   2182e:	a90f      	add	r1, sp, #60	@ 0x3c
   21830:	2227      	movs	r2, #39	@ 0x27
   21832:	f005 fbea 	bl	2700a <__aeabi_memcpy>
   21836:	7025      	strb	r5, [r4, #0]
   21838:	4c06      	ldr	r4, [pc, #24]	@ (21854 <_ZN18complex_no_dynamic3app17h6201aec7f4816fa2E+0xa8>)
   2183a:	4620      	mov	r0, r4
   2183c:	4631      	mov	r1, r6
   2183e:	462a      	mov	r2, r5
   21840:	462b      	mov	r3, r5
   21842:	df03      	svc	3
   21844:	2102      	movs	r1, #2
   21846:	4620      	mov	r0, r4
   21848:	462a      	mov	r2, r5
   2184a:	462b      	mov	r3, r5
   2184c:	df04      	svc	4
   2184e:	b019      	add	sp, #100	@ 0x64
   21850:	bdf0      	pop	{r4, r5, r6, r7, pc}
   21852:	46c0      	nop			@ (mov r8, r8)
   21854:	00000e2b 	.word	0x00000e2b

00021858 <_ZN18complex_no_dynamic3app17h637ba9b4f11ee823E>:
   21858:	b5f0      	push	{r4, r5, r6, r7, lr}
   2185a:	af03      	add	r7, sp, #12
   2185c:	b09d      	sub	sp, #116	@ 0x74
   2185e:	4604      	mov	r4, r0
   21860:	466d      	mov	r5, sp
   21862:	2640      	movs	r6, #64	@ 0x40
   21864:	4628      	mov	r0, r5
   21866:	4632      	mov	r2, r6
   21868:	f005 fbcf 	bl	2700a <__aeabi_memcpy>
   2186c:	a810      	add	r0, sp, #64	@ 0x40
   2186e:	2131      	movs	r1, #49	@ 0x31
   21870:	f005 fa1e 	bl	26cb0 <__aeabi_memclr4>
   21874:	4822      	ldr	r0, [pc, #136]	@ (21900 <_ZN18complex_no_dynamic3app17h637ba9b4f11ee823E+0xa8>)
   21876:	2108      	movs	r1, #8
   21878:	462a      	mov	r2, r5
   2187a:	4633      	mov	r3, r6
   2187c:	df04      	svc	4
   2187e:	2802      	cmp	r0, #2
   21880:	d00e      	beq.n	218a0 <_ZN18complex_no_dynamic3app17h637ba9b4f11ee823E+0x48>
   21882:	481f      	ldr	r0, [pc, #124]	@ (21900 <_ZN18complex_no_dynamic3app17h637ba9b4f11ee823E+0xa8>)
   21884:	2105      	movs	r1, #5
   21886:	aa10      	add	r2, sp, #64	@ 0x40
   21888:	2331      	movs	r3, #49	@ 0x31
   2188a:	df03      	svc	3
   2188c:	2802      	cmp	r0, #2
   2188e:	d007      	beq.n	218a0 <_ZN18complex_no_dynamic3app17h637ba9b4f11ee823E+0x48>
   21890:	481b      	ldr	r0, [pc, #108]	@ (21900 <_ZN18complex_no_dynamic3app17h637ba9b4f11ee823E+0xa8>)
   21892:	2108      	movs	r1, #8
   21894:	2205      	movs	r2, #5
   21896:	2500      	movs	r5, #0
   21898:	462b      	mov	r3, r5
   2189a:	df02      	svc	2
   2189c:	287f      	cmp	r0, #127	@ 0x7f
   2189e:	d810      	bhi.n	218c2 <_ZN18complex_no_dynamic3app17h637ba9b4f11ee823E+0x6a>
   218a0:	2001      	movs	r0, #1
   218a2:	7020      	strb	r0, [r4, #0]
   218a4:	6061      	str	r1, [r4, #4]
   218a6:	4c16      	ldr	r4, [pc, #88]	@ (21900 <_ZN18complex_no_dynamic3app17h637ba9b4f11ee823E+0xa8>)
   218a8:	2105      	movs	r1, #5
   218aa:	2500      	movs	r5, #0
   218ac:	4620      	mov	r0, r4
   218ae:	462a      	mov	r2, r5
   218b0:	462b      	mov	r3, r5
   218b2:	df03      	svc	3
   218b4:	2108      	movs	r1, #8
   218b6:	4620      	mov	r0, r4
   218b8:	462a      	mov	r2, r5
   218ba:	462b      	mov	r3, r5
   218bc:	df04      	svc	4
   218be:	b01d      	add	sp, #116	@ 0x74
   218c0:	bdf0      	pop	{r4, r5, r6, r7, pc}
   218c2:	480f      	ldr	r0, [pc, #60]	@ (21900 <_ZN18complex_no_dynamic3app17h637ba9b4f11ee823E+0xa8>)
   218c4:	2605      	movs	r6, #5
   218c6:	4631      	mov	r1, r6
   218c8:	462a      	mov	r2, r5
   218ca:	462b      	mov	r3, r5
   218cc:	df03      	svc	3
   218ce:	480c      	ldr	r0, [pc, #48]	@ (21900 <_ZN18complex_no_dynamic3app17h637ba9b4f11ee823E+0xa8>)
   218d0:	4631      	mov	r1, r6
   218d2:	462a      	mov	r2, r5
   218d4:	462b      	mov	r3, r5
   218d6:	df03      	svc	3
   218d8:	1c60      	adds	r0, r4, #1
   218da:	a910      	add	r1, sp, #64	@ 0x40
   218dc:	2231      	movs	r2, #49	@ 0x31
   218de:	f005 fb94 	bl	2700a <__aeabi_memcpy>
   218e2:	7025      	strb	r5, [r4, #0]
   218e4:	4c06      	ldr	r4, [pc, #24]	@ (21900 <_ZN18complex_no_dynamic3app17h637ba9b4f11ee823E+0xa8>)
   218e6:	4620      	mov	r0, r4
   218e8:	4631      	mov	r1, r6
   218ea:	462a      	mov	r2, r5
   218ec:	462b      	mov	r3, r5
   218ee:	df03      	svc	3
   218f0:	2108      	movs	r1, #8
   218f2:	4620      	mov	r0, r4
   218f4:	462a      	mov	r2, r5
   218f6:	462b      	mov	r3, r5
   218f8:	df04      	svc	4
   218fa:	b01d      	add	sp, #116	@ 0x74
   218fc:	bdf0      	pop	{r4, r5, r6, r7, pc}
   218fe:	46c0      	nop			@ (mov r8, r8)
   21900:	00000fce 	.word	0x00000fce

00021904 <_ZN18complex_no_dynamic3app17h68385d02d924a5f9E>:
   21904:	b5f0      	push	{r4, r5, r6, r7, lr}
   21906:	af03      	add	r7, sp, #12
   21908:	b09f      	sub	sp, #124	@ 0x7c
   2190a:	4604      	mov	r4, r0
   2190c:	ad01      	add	r5, sp, #4
   2190e:	2621      	movs	r6, #33	@ 0x21
   21910:	4628      	mov	r0, r5
   21912:	4632      	mov	r2, r6
   21914:	f005 fb79 	bl	2700a <__aeabi_memcpy>
   21918:	a80a      	add	r0, sp, #40	@ 0x28
   2191a:	2153      	movs	r1, #83	@ 0x53
   2191c:	f005 f9c8 	bl	26cb0 <__aeabi_memclr4>
   21920:	4822      	ldr	r0, [pc, #136]	@ (219ac <_ZN18complex_no_dynamic3app17h68385d02d924a5f9E+0xa8>)
   21922:	2102      	movs	r1, #2
   21924:	462a      	mov	r2, r5
   21926:	4633      	mov	r3, r6
   21928:	df04      	svc	4
   2192a:	2802      	cmp	r0, #2
   2192c:	d00e      	beq.n	2194c <_ZN18complex_no_dynamic3app17h68385d02d924a5f9E+0x48>
   2192e:	481f      	ldr	r0, [pc, #124]	@ (219ac <_ZN18complex_no_dynamic3app17h68385d02d924a5f9E+0xa8>)
   21930:	2108      	movs	r1, #8
   21932:	aa0a      	add	r2, sp, #40	@ 0x28
   21934:	2353      	movs	r3, #83	@ 0x53
   21936:	df03      	svc	3
   21938:	2802      	cmp	r0, #2
   2193a:	d007      	beq.n	2194c <_ZN18complex_no_dynamic3app17h68385d02d924a5f9E+0x48>
   2193c:	481b      	ldr	r0, [pc, #108]	@ (219ac <_ZN18complex_no_dynamic3app17h68385d02d924a5f9E+0xa8>)
   2193e:	2102      	movs	r1, #2
   21940:	2208      	movs	r2, #8
   21942:	2500      	movs	r5, #0
   21944:	462b      	mov	r3, r5
   21946:	df02      	svc	2
   21948:	287f      	cmp	r0, #127	@ 0x7f
   2194a:	d810      	bhi.n	2196e <_ZN18complex_no_dynamic3app17h68385d02d924a5f9E+0x6a>
   2194c:	2001      	movs	r0, #1
   2194e:	7020      	strb	r0, [r4, #0]
   21950:	6061      	str	r1, [r4, #4]
   21952:	4c16      	ldr	r4, [pc, #88]	@ (219ac <_ZN18complex_no_dynamic3app17h68385d02d924a5f9E+0xa8>)
   21954:	2108      	movs	r1, #8
   21956:	2500      	movs	r5, #0
   21958:	4620      	mov	r0, r4
   2195a:	462a      	mov	r2, r5
   2195c:	462b      	mov	r3, r5
   2195e:	df03      	svc	3
   21960:	2102      	movs	r1, #2
   21962:	4620      	mov	r0, r4
   21964:	462a      	mov	r2, r5
   21966:	462b      	mov	r3, r5
   21968:	df04      	svc	4
   2196a:	b01f      	add	sp, #124	@ 0x7c
   2196c:	bdf0      	pop	{r4, r5, r6, r7, pc}
   2196e:	480f      	ldr	r0, [pc, #60]	@ (219ac <_ZN18complex_no_dynamic3app17h68385d02d924a5f9E+0xa8>)
   21970:	2608      	movs	r6, #8
   21972:	4631      	mov	r1, r6
   21974:	462a      	mov	r2, r5
   21976:	462b      	mov	r3, r5
   21978:	df03      	svc	3
   2197a:	480c      	ldr	r0, [pc, #48]	@ (219ac <_ZN18complex_no_dynamic3app17h68385d02d924a5f9E+0xa8>)
   2197c:	4631      	mov	r1, r6
   2197e:	462a      	mov	r2, r5
   21980:	462b      	mov	r3, r5
   21982:	df03      	svc	3
   21984:	1c60      	adds	r0, r4, #1
   21986:	a90a      	add	r1, sp, #40	@ 0x28
   21988:	2253      	movs	r2, #83	@ 0x53
   2198a:	f005 fb3e 	bl	2700a <__aeabi_memcpy>
   2198e:	7025      	strb	r5, [r4, #0]
   21990:	4c06      	ldr	r4, [pc, #24]	@ (219ac <_ZN18complex_no_dynamic3app17h68385d02d924a5f9E+0xa8>)
   21992:	4620      	mov	r0, r4
   21994:	4631      	mov	r1, r6
   21996:	462a      	mov	r2, r5
   21998:	462b      	mov	r3, r5
   2199a:	df03      	svc	3
   2199c:	2102      	movs	r1, #2
   2199e:	4620      	mov	r0, r4
   219a0:	462a      	mov	r2, r5
   219a2:	462b      	mov	r3, r5
   219a4:	df04      	svc	4
   219a6:	b01f      	add	sp, #124	@ 0x7c
   219a8:	bdf0      	pop	{r4, r5, r6, r7, pc}
   219aa:	46c0      	nop			@ (mov r8, r8)
   219ac:	0000253e 	.word	0x0000253e

000219b0 <_ZN18complex_no_dynamic3app17h6ae2bfbf79ad2cbfE>:
   219b0:	b5f0      	push	{r4, r5, r6, r7, lr}
   219b2:	af03      	add	r7, sp, #12
   219b4:	b095      	sub	sp, #84	@ 0x54
   219b6:	4604      	mov	r4, r0
   219b8:	466d      	mov	r5, sp
   219ba:	2625      	movs	r6, #37	@ 0x25
   219bc:	4628      	mov	r0, r5
   219be:	4632      	mov	r2, r6
   219c0:	f005 fb23 	bl	2700a <__aeabi_memcpy>
   219c4:	a80a      	add	r0, sp, #40	@ 0x28
   219c6:	212a      	movs	r1, #42	@ 0x2a
   219c8:	f005 f972 	bl	26cb0 <__aeabi_memclr4>
   219cc:	4822      	ldr	r0, [pc, #136]	@ (21a58 <_ZN18complex_no_dynamic3app17h6ae2bfbf79ad2cbfE+0xa8>)
   219ce:	2100      	movs	r1, #0
   219d0:	462a      	mov	r2, r5
   219d2:	4633      	mov	r3, r6
   219d4:	df04      	svc	4
   219d6:	2802      	cmp	r0, #2
   219d8:	d00e      	beq.n	219f8 <_ZN18complex_no_dynamic3app17h6ae2bfbf79ad2cbfE+0x48>
   219da:	481f      	ldr	r0, [pc, #124]	@ (21a58 <_ZN18complex_no_dynamic3app17h6ae2bfbf79ad2cbfE+0xa8>)
   219dc:	2103      	movs	r1, #3
   219de:	aa0a      	add	r2, sp, #40	@ 0x28
   219e0:	232a      	movs	r3, #42	@ 0x2a
   219e2:	df03      	svc	3
   219e4:	2802      	cmp	r0, #2
   219e6:	d007      	beq.n	219f8 <_ZN18complex_no_dynamic3app17h6ae2bfbf79ad2cbfE+0x48>
   219e8:	481b      	ldr	r0, [pc, #108]	@ (21a58 <_ZN18complex_no_dynamic3app17h6ae2bfbf79ad2cbfE+0xa8>)
   219ea:	2203      	movs	r2, #3
   219ec:	2500      	movs	r5, #0
   219ee:	4629      	mov	r1, r5
   219f0:	462b      	mov	r3, r5
   219f2:	df02      	svc	2
   219f4:	287f      	cmp	r0, #127	@ 0x7f
   219f6:	d810      	bhi.n	21a1a <_ZN18complex_no_dynamic3app17h6ae2bfbf79ad2cbfE+0x6a>
   219f8:	2001      	movs	r0, #1
   219fa:	7020      	strb	r0, [r4, #0]
   219fc:	6061      	str	r1, [r4, #4]
   219fe:	4c16      	ldr	r4, [pc, #88]	@ (21a58 <_ZN18complex_no_dynamic3app17h6ae2bfbf79ad2cbfE+0xa8>)
   21a00:	2103      	movs	r1, #3
   21a02:	2500      	movs	r5, #0
   21a04:	4620      	mov	r0, r4
   21a06:	462a      	mov	r2, r5
   21a08:	462b      	mov	r3, r5
   21a0a:	df03      	svc	3
   21a0c:	4620      	mov	r0, r4
   21a0e:	4629      	mov	r1, r5
   21a10:	462a      	mov	r2, r5
   21a12:	462b      	mov	r3, r5
   21a14:	df04      	svc	4
   21a16:	b015      	add	sp, #84	@ 0x54
   21a18:	bdf0      	pop	{r4, r5, r6, r7, pc}
   21a1a:	480f      	ldr	r0, [pc, #60]	@ (21a58 <_ZN18complex_no_dynamic3app17h6ae2bfbf79ad2cbfE+0xa8>)
   21a1c:	2603      	movs	r6, #3
   21a1e:	4631      	mov	r1, r6
   21a20:	462a      	mov	r2, r5
   21a22:	462b      	mov	r3, r5
   21a24:	df03      	svc	3
   21a26:	480c      	ldr	r0, [pc, #48]	@ (21a58 <_ZN18complex_no_dynamic3app17h6ae2bfbf79ad2cbfE+0xa8>)
   21a28:	4631      	mov	r1, r6
   21a2a:	462a      	mov	r2, r5
   21a2c:	462b      	mov	r3, r5
   21a2e:	df03      	svc	3
   21a30:	1c60      	adds	r0, r4, #1
   21a32:	a90a      	add	r1, sp, #40	@ 0x28
   21a34:	222a      	movs	r2, #42	@ 0x2a
   21a36:	f005 fae8 	bl	2700a <__aeabi_memcpy>
   21a3a:	7025      	strb	r5, [r4, #0]
   21a3c:	4c06      	ldr	r4, [pc, #24]	@ (21a58 <_ZN18complex_no_dynamic3app17h6ae2bfbf79ad2cbfE+0xa8>)
   21a3e:	4620      	mov	r0, r4
   21a40:	4631      	mov	r1, r6
   21a42:	462a      	mov	r2, r5
   21a44:	462b      	mov	r3, r5
   21a46:	df03      	svc	3
   21a48:	4620      	mov	r0, r4
   21a4a:	4629      	mov	r1, r5
   21a4c:	462a      	mov	r2, r5
   21a4e:	462b      	mov	r3, r5
   21a50:	df04      	svc	4
   21a52:	b015      	add	sp, #84	@ 0x54
   21a54:	bdf0      	pop	{r4, r5, r6, r7, pc}
   21a56:	46c0      	nop			@ (mov r8, r8)
   21a58:	0000093c 	.word	0x0000093c

00021a5c <_ZN18complex_no_dynamic3app17h6b766d93c211ccc5E>:
   21a5c:	b5f0      	push	{r4, r5, r6, r7, lr}
   21a5e:	af03      	add	r7, sp, #12
   21a60:	b0af      	sub	sp, #188	@ 0xbc
   21a62:	4604      	mov	r4, r0
   21a64:	ad01      	add	r5, sp, #4
   21a66:	265e      	movs	r6, #94	@ 0x5e
   21a68:	4628      	mov	r0, r5
   21a6a:	4632      	mov	r2, r6
   21a6c:	f005 facd 	bl	2700a <__aeabi_memcpy>
   21a70:	a819      	add	r0, sp, #100	@ 0x64
   21a72:	2155      	movs	r1, #85	@ 0x55
   21a74:	f005 f91c 	bl	26cb0 <__aeabi_memclr4>
   21a78:	4822      	ldr	r0, [pc, #136]	@ (21b04 <_ZN18complex_no_dynamic3app17h6b766d93c211ccc5E+0xa8>)
   21a7a:	2107      	movs	r1, #7
   21a7c:	462a      	mov	r2, r5
   21a7e:	4633      	mov	r3, r6
   21a80:	df04      	svc	4
   21a82:	2802      	cmp	r0, #2
   21a84:	d00e      	beq.n	21aa4 <_ZN18complex_no_dynamic3app17h6b766d93c211ccc5E+0x48>
   21a86:	481f      	ldr	r0, [pc, #124]	@ (21b04 <_ZN18complex_no_dynamic3app17h6b766d93c211ccc5E+0xa8>)
   21a88:	2103      	movs	r1, #3
   21a8a:	aa19      	add	r2, sp, #100	@ 0x64
   21a8c:	2355      	movs	r3, #85	@ 0x55
   21a8e:	df03      	svc	3
   21a90:	2802      	cmp	r0, #2
   21a92:	d007      	beq.n	21aa4 <_ZN18complex_no_dynamic3app17h6b766d93c211ccc5E+0x48>
   21a94:	481b      	ldr	r0, [pc, #108]	@ (21b04 <_ZN18complex_no_dynamic3app17h6b766d93c211ccc5E+0xa8>)
   21a96:	2107      	movs	r1, #7
   21a98:	2203      	movs	r2, #3
   21a9a:	2500      	movs	r5, #0
   21a9c:	462b      	mov	r3, r5
   21a9e:	df02      	svc	2
   21aa0:	287f      	cmp	r0, #127	@ 0x7f
   21aa2:	d810      	bhi.n	21ac6 <_ZN18complex_no_dynamic3app17h6b766d93c211ccc5E+0x6a>
   21aa4:	2001      	movs	r0, #1
   21aa6:	7020      	strb	r0, [r4, #0]
   21aa8:	6061      	str	r1, [r4, #4]
   21aaa:	4c16      	ldr	r4, [pc, #88]	@ (21b04 <_ZN18complex_no_dynamic3app17h6b766d93c211ccc5E+0xa8>)
   21aac:	2103      	movs	r1, #3
   21aae:	2500      	movs	r5, #0
   21ab0:	4620      	mov	r0, r4
   21ab2:	462a      	mov	r2, r5
   21ab4:	462b      	mov	r3, r5
   21ab6:	df03      	svc	3
   21ab8:	2107      	movs	r1, #7
   21aba:	4620      	mov	r0, r4
   21abc:	462a      	mov	r2, r5
   21abe:	462b      	mov	r3, r5
   21ac0:	df04      	svc	4
   21ac2:	b02f      	add	sp, #188	@ 0xbc
   21ac4:	bdf0      	pop	{r4, r5, r6, r7, pc}
   21ac6:	480f      	ldr	r0, [pc, #60]	@ (21b04 <_ZN18complex_no_dynamic3app17h6b766d93c211ccc5E+0xa8>)
   21ac8:	2603      	movs	r6, #3
   21aca:	4631      	mov	r1, r6
   21acc:	462a      	mov	r2, r5
   21ace:	462b      	mov	r3, r5
   21ad0:	df03      	svc	3
   21ad2:	480c      	ldr	r0, [pc, #48]	@ (21b04 <_ZN18complex_no_dynamic3app17h6b766d93c211ccc5E+0xa8>)
   21ad4:	4631      	mov	r1, r6
   21ad6:	462a      	mov	r2, r5
   21ad8:	462b      	mov	r3, r5
   21ada:	df03      	svc	3
   21adc:	1c60      	adds	r0, r4, #1
   21ade:	a919      	add	r1, sp, #100	@ 0x64
   21ae0:	2255      	movs	r2, #85	@ 0x55
   21ae2:	f005 fa92 	bl	2700a <__aeabi_memcpy>
   21ae6:	7025      	strb	r5, [r4, #0]
   21ae8:	4c06      	ldr	r4, [pc, #24]	@ (21b04 <_ZN18complex_no_dynamic3app17h6b766d93c211ccc5E+0xa8>)
   21aea:	4620      	mov	r0, r4
   21aec:	4631      	mov	r1, r6
   21aee:	462a      	mov	r2, r5
   21af0:	462b      	mov	r3, r5
   21af2:	df03      	svc	3
   21af4:	2107      	movs	r1, #7
   21af6:	4620      	mov	r0, r4
   21af8:	462a      	mov	r2, r5
   21afa:	462b      	mov	r3, r5
   21afc:	df04      	svc	4
   21afe:	b02f      	add	sp, #188	@ 0xbc
   21b00:	bdf0      	pop	{r4, r5, r6, r7, pc}
   21b02:	46c0      	nop			@ (mov r8, r8)
   21b04:	0000178a 	.word	0x0000178a

00021b08 <_ZN18complex_no_dynamic3app17h72adf8f0463d80dfE>:
   21b08:	b5f0      	push	{r4, r5, r6, r7, lr}
   21b0a:	af03      	add	r7, sp, #12
   21b0c:	b0a7      	sub	sp, #156	@ 0x9c
   21b0e:	4604      	mov	r4, r0
   21b10:	466d      	mov	r5, sp
   21b12:	263a      	movs	r6, #58	@ 0x3a
   21b14:	4628      	mov	r0, r5
   21b16:	4632      	mov	r2, r6
   21b18:	f005 fa77 	bl	2700a <__aeabi_memcpy>
   21b1c:	a80f      	add	r0, sp, #60	@ 0x3c
   21b1e:	215d      	movs	r1, #93	@ 0x5d
   21b20:	f005 f8c6 	bl	26cb0 <__aeabi_memclr4>
   21b24:	4822      	ldr	r0, [pc, #136]	@ (21bb0 <_ZN18complex_no_dynamic3app17h72adf8f0463d80dfE+0xa8>)
   21b26:	2100      	movs	r1, #0
   21b28:	462a      	mov	r2, r5
   21b2a:	4633      	mov	r3, r6
   21b2c:	df04      	svc	4
   21b2e:	2802      	cmp	r0, #2
   21b30:	d00e      	beq.n	21b50 <_ZN18complex_no_dynamic3app17h72adf8f0463d80dfE+0x48>
   21b32:	481f      	ldr	r0, [pc, #124]	@ (21bb0 <_ZN18complex_no_dynamic3app17h72adf8f0463d80dfE+0xa8>)
   21b34:	2105      	movs	r1, #5
   21b36:	aa0f      	add	r2, sp, #60	@ 0x3c
   21b38:	235d      	movs	r3, #93	@ 0x5d
   21b3a:	df03      	svc	3
   21b3c:	2802      	cmp	r0, #2
   21b3e:	d007      	beq.n	21b50 <_ZN18complex_no_dynamic3app17h72adf8f0463d80dfE+0x48>
   21b40:	481b      	ldr	r0, [pc, #108]	@ (21bb0 <_ZN18complex_no_dynamic3app17h72adf8f0463d80dfE+0xa8>)
   21b42:	2205      	movs	r2, #5
   21b44:	2500      	movs	r5, #0
   21b46:	4629      	mov	r1, r5
   21b48:	462b      	mov	r3, r5
   21b4a:	df02      	svc	2
   21b4c:	287f      	cmp	r0, #127	@ 0x7f
   21b4e:	d810      	bhi.n	21b72 <_ZN18complex_no_dynamic3app17h72adf8f0463d80dfE+0x6a>
   21b50:	2001      	movs	r0, #1
   21b52:	7020      	strb	r0, [r4, #0]
   21b54:	6061      	str	r1, [r4, #4]
   21b56:	4c16      	ldr	r4, [pc, #88]	@ (21bb0 <_ZN18complex_no_dynamic3app17h72adf8f0463d80dfE+0xa8>)
   21b58:	2105      	movs	r1, #5
   21b5a:	2500      	movs	r5, #0
   21b5c:	4620      	mov	r0, r4
   21b5e:	462a      	mov	r2, r5
   21b60:	462b      	mov	r3, r5
   21b62:	df03      	svc	3
   21b64:	4620      	mov	r0, r4
   21b66:	4629      	mov	r1, r5
   21b68:	462a      	mov	r2, r5
   21b6a:	462b      	mov	r3, r5
   21b6c:	df04      	svc	4
   21b6e:	b027      	add	sp, #156	@ 0x9c
   21b70:	bdf0      	pop	{r4, r5, r6, r7, pc}
   21b72:	480f      	ldr	r0, [pc, #60]	@ (21bb0 <_ZN18complex_no_dynamic3app17h72adf8f0463d80dfE+0xa8>)
   21b74:	2605      	movs	r6, #5
   21b76:	4631      	mov	r1, r6
   21b78:	462a      	mov	r2, r5
   21b7a:	462b      	mov	r3, r5
   21b7c:	df03      	svc	3
   21b7e:	480c      	ldr	r0, [pc, #48]	@ (21bb0 <_ZN18complex_no_dynamic3app17h72adf8f0463d80dfE+0xa8>)
   21b80:	4631      	mov	r1, r6
   21b82:	462a      	mov	r2, r5
   21b84:	462b      	mov	r3, r5
   21b86:	df03      	svc	3
   21b88:	1c60      	adds	r0, r4, #1
   21b8a:	a90f      	add	r1, sp, #60	@ 0x3c
   21b8c:	225d      	movs	r2, #93	@ 0x5d
   21b8e:	f005 fa3c 	bl	2700a <__aeabi_memcpy>
   21b92:	7025      	strb	r5, [r4, #0]
   21b94:	4c06      	ldr	r4, [pc, #24]	@ (21bb0 <_ZN18complex_no_dynamic3app17h72adf8f0463d80dfE+0xa8>)
   21b96:	4620      	mov	r0, r4
   21b98:	4631      	mov	r1, r6
   21b9a:	462a      	mov	r2, r5
   21b9c:	462b      	mov	r3, r5
   21b9e:	df03      	svc	3
   21ba0:	4620      	mov	r0, r4
   21ba2:	4629      	mov	r1, r5
   21ba4:	462a      	mov	r2, r5
   21ba6:	462b      	mov	r3, r5
   21ba8:	df04      	svc	4
   21baa:	b027      	add	sp, #156	@ 0x9c
   21bac:	bdf0      	pop	{r4, r5, r6, r7, pc}
   21bae:	46c0      	nop			@ (mov r8, r8)
   21bb0:	000014a4 	.word	0x000014a4

00021bb4 <_ZN18complex_no_dynamic3app17h7d7013cc00b8ab9fE>:
   21bb4:	b5f0      	push	{r4, r5, r6, r7, lr}
   21bb6:	af03      	add	r7, sp, #12
   21bb8:	b091      	sub	sp, #68	@ 0x44
   21bba:	4604      	mov	r4, r0
   21bbc:	ad01      	add	r5, sp, #4
   21bbe:	2614      	movs	r6, #20
   21bc0:	4628      	mov	r0, r5
   21bc2:	4632      	mov	r2, r6
   21bc4:	f005 fa21 	bl	2700a <__aeabi_memcpy>
   21bc8:	a806      	add	r0, sp, #24
   21bca:	212b      	movs	r1, #43	@ 0x2b
   21bcc:	f005 f870 	bl	26cb0 <__aeabi_memclr4>
   21bd0:	4822      	ldr	r0, [pc, #136]	@ (21c5c <_ZN18complex_no_dynamic3app17h7d7013cc00b8ab9fE+0xa8>)
   21bd2:	2108      	movs	r1, #8
   21bd4:	462a      	mov	r2, r5
   21bd6:	4633      	mov	r3, r6
   21bd8:	df04      	svc	4
   21bda:	2802      	cmp	r0, #2
   21bdc:	d00e      	beq.n	21bfc <_ZN18complex_no_dynamic3app17h7d7013cc00b8ab9fE+0x48>
   21bde:	481f      	ldr	r0, [pc, #124]	@ (21c5c <_ZN18complex_no_dynamic3app17h7d7013cc00b8ab9fE+0xa8>)
   21be0:	2104      	movs	r1, #4
   21be2:	aa06      	add	r2, sp, #24
   21be4:	232b      	movs	r3, #43	@ 0x2b
   21be6:	df03      	svc	3
   21be8:	2802      	cmp	r0, #2
   21bea:	d007      	beq.n	21bfc <_ZN18complex_no_dynamic3app17h7d7013cc00b8ab9fE+0x48>
   21bec:	481b      	ldr	r0, [pc, #108]	@ (21c5c <_ZN18complex_no_dynamic3app17h7d7013cc00b8ab9fE+0xa8>)
   21bee:	2108      	movs	r1, #8
   21bf0:	2204      	movs	r2, #4
   21bf2:	2500      	movs	r5, #0
   21bf4:	462b      	mov	r3, r5
   21bf6:	df02      	svc	2
   21bf8:	287f      	cmp	r0, #127	@ 0x7f
   21bfa:	d810      	bhi.n	21c1e <_ZN18complex_no_dynamic3app17h7d7013cc00b8ab9fE+0x6a>
   21bfc:	2001      	movs	r0, #1
   21bfe:	7020      	strb	r0, [r4, #0]
   21c00:	6061      	str	r1, [r4, #4]
   21c02:	4c16      	ldr	r4, [pc, #88]	@ (21c5c <_ZN18complex_no_dynamic3app17h7d7013cc00b8ab9fE+0xa8>)
   21c04:	2104      	movs	r1, #4
   21c06:	2500      	movs	r5, #0
   21c08:	4620      	mov	r0, r4
   21c0a:	462a      	mov	r2, r5
   21c0c:	462b      	mov	r3, r5
   21c0e:	df03      	svc	3
   21c10:	2108      	movs	r1, #8
   21c12:	4620      	mov	r0, r4
   21c14:	462a      	mov	r2, r5
   21c16:	462b      	mov	r3, r5
   21c18:	df04      	svc	4
   21c1a:	b011      	add	sp, #68	@ 0x44
   21c1c:	bdf0      	pop	{r4, r5, r6, r7, pc}
   21c1e:	480f      	ldr	r0, [pc, #60]	@ (21c5c <_ZN18complex_no_dynamic3app17h7d7013cc00b8ab9fE+0xa8>)
   21c20:	2604      	movs	r6, #4
   21c22:	4631      	mov	r1, r6
   21c24:	462a      	mov	r2, r5
   21c26:	462b      	mov	r3, r5
   21c28:	df03      	svc	3
   21c2a:	480c      	ldr	r0, [pc, #48]	@ (21c5c <_ZN18complex_no_dynamic3app17h7d7013cc00b8ab9fE+0xa8>)
   21c2c:	4631      	mov	r1, r6
   21c2e:	462a      	mov	r2, r5
   21c30:	462b      	mov	r3, r5
   21c32:	df03      	svc	3
   21c34:	1c60      	adds	r0, r4, #1
   21c36:	a906      	add	r1, sp, #24
   21c38:	222b      	movs	r2, #43	@ 0x2b
   21c3a:	f005 f9e6 	bl	2700a <__aeabi_memcpy>
   21c3e:	7025      	strb	r5, [r4, #0]
   21c40:	4c06      	ldr	r4, [pc, #24]	@ (21c5c <_ZN18complex_no_dynamic3app17h7d7013cc00b8ab9fE+0xa8>)
   21c42:	4620      	mov	r0, r4
   21c44:	4631      	mov	r1, r6
   21c46:	462a      	mov	r2, r5
   21c48:	462b      	mov	r3, r5
   21c4a:	df03      	svc	3
   21c4c:	2108      	movs	r1, #8
   21c4e:	4620      	mov	r0, r4
   21c50:	462a      	mov	r2, r5
   21c52:	462b      	mov	r3, r5
   21c54:	df04      	svc	4
   21c56:	b011      	add	sp, #68	@ 0x44
   21c58:	bdf0      	pop	{r4, r5, r6, r7, pc}
   21c5a:	46c0      	nop			@ (mov r8, r8)
   21c5c:	0000239f 	.word	0x0000239f

00021c60 <_ZN18complex_no_dynamic3app17h7e8013c0bf4bec5dE>:
   21c60:	b5f0      	push	{r4, r5, r6, r7, lr}
   21c62:	af03      	add	r7, sp, #12
   21c64:	b095      	sub	sp, #84	@ 0x54
   21c66:	4604      	mov	r4, r0
   21c68:	466d      	mov	r5, sp
   21c6a:	2624      	movs	r6, #36	@ 0x24
   21c6c:	4628      	mov	r0, r5
   21c6e:	4632      	mov	r2, r6
   21c70:	f005 f9cb 	bl	2700a <__aeabi_memcpy>
   21c74:	a809      	add	r0, sp, #36	@ 0x24
   21c76:	212f      	movs	r1, #47	@ 0x2f
   21c78:	f005 f81a 	bl	26cb0 <__aeabi_memclr4>
   21c7c:	4822      	ldr	r0, [pc, #136]	@ (21d08 <_ZN18complex_no_dynamic3app17h7e8013c0bf4bec5dE+0xa8>)
   21c7e:	2106      	movs	r1, #6
   21c80:	462a      	mov	r2, r5
   21c82:	4633      	mov	r3, r6
   21c84:	df04      	svc	4
   21c86:	2802      	cmp	r0, #2
   21c88:	d00e      	beq.n	21ca8 <_ZN18complex_no_dynamic3app17h7e8013c0bf4bec5dE+0x48>
   21c8a:	481f      	ldr	r0, [pc, #124]	@ (21d08 <_ZN18complex_no_dynamic3app17h7e8013c0bf4bec5dE+0xa8>)
   21c8c:	2109      	movs	r1, #9
   21c8e:	aa09      	add	r2, sp, #36	@ 0x24
   21c90:	232f      	movs	r3, #47	@ 0x2f
   21c92:	df03      	svc	3
   21c94:	2802      	cmp	r0, #2
   21c96:	d007      	beq.n	21ca8 <_ZN18complex_no_dynamic3app17h7e8013c0bf4bec5dE+0x48>
   21c98:	481b      	ldr	r0, [pc, #108]	@ (21d08 <_ZN18complex_no_dynamic3app17h7e8013c0bf4bec5dE+0xa8>)
   21c9a:	2106      	movs	r1, #6
   21c9c:	2209      	movs	r2, #9
   21c9e:	2500      	movs	r5, #0
   21ca0:	462b      	mov	r3, r5
   21ca2:	df02      	svc	2
   21ca4:	287f      	cmp	r0, #127	@ 0x7f
   21ca6:	d810      	bhi.n	21cca <_ZN18complex_no_dynamic3app17h7e8013c0bf4bec5dE+0x6a>
   21ca8:	2001      	movs	r0, #1
   21caa:	7020      	strb	r0, [r4, #0]
   21cac:	6061      	str	r1, [r4, #4]
   21cae:	4c16      	ldr	r4, [pc, #88]	@ (21d08 <_ZN18complex_no_dynamic3app17h7e8013c0bf4bec5dE+0xa8>)
   21cb0:	2109      	movs	r1, #9
   21cb2:	2500      	movs	r5, #0
   21cb4:	4620      	mov	r0, r4
   21cb6:	462a      	mov	r2, r5
   21cb8:	462b      	mov	r3, r5
   21cba:	df03      	svc	3
   21cbc:	2106      	movs	r1, #6
   21cbe:	4620      	mov	r0, r4
   21cc0:	462a      	mov	r2, r5
   21cc2:	462b      	mov	r3, r5
   21cc4:	df04      	svc	4
   21cc6:	b015      	add	sp, #84	@ 0x54
   21cc8:	bdf0      	pop	{r4, r5, r6, r7, pc}
   21cca:	480f      	ldr	r0, [pc, #60]	@ (21d08 <_ZN18complex_no_dynamic3app17h7e8013c0bf4bec5dE+0xa8>)
   21ccc:	2609      	movs	r6, #9
   21cce:	4631      	mov	r1, r6
   21cd0:	462a      	mov	r2, r5
   21cd2:	462b      	mov	r3, r5
   21cd4:	df03      	svc	3
   21cd6:	480c      	ldr	r0, [pc, #48]	@ (21d08 <_ZN18complex_no_dynamic3app17h7e8013c0bf4bec5dE+0xa8>)
   21cd8:	4631      	mov	r1, r6
   21cda:	462a      	mov	r2, r5
   21cdc:	462b      	mov	r3, r5
   21cde:	df03      	svc	3
   21ce0:	1c60      	adds	r0, r4, #1
   21ce2:	a909      	add	r1, sp, #36	@ 0x24
   21ce4:	222f      	movs	r2, #47	@ 0x2f
   21ce6:	f005 f990 	bl	2700a <__aeabi_memcpy>
   21cea:	7025      	strb	r5, [r4, #0]
   21cec:	4c06      	ldr	r4, [pc, #24]	@ (21d08 <_ZN18complex_no_dynamic3app17h7e8013c0bf4bec5dE+0xa8>)
   21cee:	4620      	mov	r0, r4
   21cf0:	4631      	mov	r1, r6
   21cf2:	462a      	mov	r2, r5
   21cf4:	462b      	mov	r3, r5
   21cf6:	df03      	svc	3
   21cf8:	2106      	movs	r1, #6
   21cfa:	4620      	mov	r0, r4
   21cfc:	462a      	mov	r2, r5
   21cfe:	462b      	mov	r3, r5
   21d00:	df04      	svc	4
   21d02:	b015      	add	sp, #84	@ 0x54
   21d04:	bdf0      	pop	{r4, r5, r6, r7, pc}
   21d06:	46c0      	nop			@ (mov r8, r8)
   21d08:	00001273 	.word	0x00001273

00021d0c <_ZN18complex_no_dynamic3app17h8a6c207e0dc1a7ecE>:
   21d0c:	b5f0      	push	{r4, r5, r6, r7, lr}
   21d0e:	af03      	add	r7, sp, #12
   21d10:	b099      	sub	sp, #100	@ 0x64
   21d12:	4604      	mov	r4, r0
   21d14:	466d      	mov	r5, sp
   21d16:	263b      	movs	r6, #59	@ 0x3b
   21d18:	4628      	mov	r0, r5
   21d1a:	4632      	mov	r2, r6
   21d1c:	f005 f975 	bl	2700a <__aeabi_memcpy>
   21d20:	a80f      	add	r0, sp, #60	@ 0x3c
   21d22:	2127      	movs	r1, #39	@ 0x27
   21d24:	f004 ffc4 	bl	26cb0 <__aeabi_memclr4>
   21d28:	4822      	ldr	r0, [pc, #136]	@ (21db4 <_ZN18complex_no_dynamic3app17h8a6c207e0dc1a7ecE+0xa8>)
   21d2a:	2105      	movs	r1, #5
   21d2c:	462a      	mov	r2, r5
   21d2e:	4633      	mov	r3, r6
   21d30:	df04      	svc	4
   21d32:	2802      	cmp	r0, #2
   21d34:	d00e      	beq.n	21d54 <_ZN18complex_no_dynamic3app17h8a6c207e0dc1a7ecE+0x48>
   21d36:	481f      	ldr	r0, [pc, #124]	@ (21db4 <_ZN18complex_no_dynamic3app17h8a6c207e0dc1a7ecE+0xa8>)
   21d38:	2103      	movs	r1, #3
   21d3a:	aa0f      	add	r2, sp, #60	@ 0x3c
   21d3c:	2327      	movs	r3, #39	@ 0x27
   21d3e:	df03      	svc	3
   21d40:	2802      	cmp	r0, #2
   21d42:	d007      	beq.n	21d54 <_ZN18complex_no_dynamic3app17h8a6c207e0dc1a7ecE+0x48>
   21d44:	481b      	ldr	r0, [pc, #108]	@ (21db4 <_ZN18complex_no_dynamic3app17h8a6c207e0dc1a7ecE+0xa8>)
   21d46:	2105      	movs	r1, #5
   21d48:	2203      	movs	r2, #3
   21d4a:	2500      	movs	r5, #0
   21d4c:	462b      	mov	r3, r5
   21d4e:	df02      	svc	2
   21d50:	287f      	cmp	r0, #127	@ 0x7f
   21d52:	d810      	bhi.n	21d76 <_ZN18complex_no_dynamic3app17h8a6c207e0dc1a7ecE+0x6a>
   21d54:	2001      	movs	r0, #1
   21d56:	7020      	strb	r0, [r4, #0]
   21d58:	6061      	str	r1, [r4, #4]
   21d5a:	4c16      	ldr	r4, [pc, #88]	@ (21db4 <_ZN18complex_no_dynamic3app17h8a6c207e0dc1a7ecE+0xa8>)
   21d5c:	2103      	movs	r1, #3
   21d5e:	2500      	movs	r5, #0
   21d60:	4620      	mov	r0, r4
   21d62:	462a      	mov	r2, r5
   21d64:	462b      	mov	r3, r5
   21d66:	df03      	svc	3
   21d68:	2105      	movs	r1, #5
   21d6a:	4620      	mov	r0, r4
   21d6c:	462a      	mov	r2, r5
   21d6e:	462b      	mov	r3, r5
   21d70:	df04      	svc	4
   21d72:	b019      	add	sp, #100	@ 0x64
   21d74:	bdf0      	pop	{r4, r5, r6, r7, pc}
   21d76:	480f      	ldr	r0, [pc, #60]	@ (21db4 <_ZN18complex_no_dynamic3app17h8a6c207e0dc1a7ecE+0xa8>)
   21d78:	2603      	movs	r6, #3
   21d7a:	4631      	mov	r1, r6
   21d7c:	462a      	mov	r2, r5
   21d7e:	462b      	mov	r3, r5
   21d80:	df03      	svc	3
   21d82:	480c      	ldr	r0, [pc, #48]	@ (21db4 <_ZN18complex_no_dynamic3app17h8a6c207e0dc1a7ecE+0xa8>)
   21d84:	4631      	mov	r1, r6
   21d86:	462a      	mov	r2, r5
   21d88:	462b      	mov	r3, r5
   21d8a:	df03      	svc	3
   21d8c:	1c60      	adds	r0, r4, #1
   21d8e:	a90f      	add	r1, sp, #60	@ 0x3c
   21d90:	2227      	movs	r2, #39	@ 0x27
   21d92:	f005 f93a 	bl	2700a <__aeabi_memcpy>
   21d96:	7025      	strb	r5, [r4, #0]
   21d98:	4c06      	ldr	r4, [pc, #24]	@ (21db4 <_ZN18complex_no_dynamic3app17h8a6c207e0dc1a7ecE+0xa8>)
   21d9a:	4620      	mov	r0, r4
   21d9c:	4631      	mov	r1, r6
   21d9e:	462a      	mov	r2, r5
   21da0:	462b      	mov	r3, r5
   21da2:	df03      	svc	3
   21da4:	2105      	movs	r1, #5
   21da6:	4620      	mov	r0, r4
   21da8:	462a      	mov	r2, r5
   21daa:	462b      	mov	r3, r5
   21dac:	df04      	svc	4
   21dae:	b019      	add	sp, #100	@ 0x64
   21db0:	bdf0      	pop	{r4, r5, r6, r7, pc}
   21db2:	46c0      	nop			@ (mov r8, r8)
   21db4:	00000bd3 	.word	0x00000bd3

00021db8 <_ZN18complex_no_dynamic3app17h91acd4b03ac8eba5E>:
   21db8:	b5f0      	push	{r4, r5, r6, r7, lr}
   21dba:	af03      	add	r7, sp, #12
   21dbc:	b0a9      	sub	sp, #164	@ 0xa4
   21dbe:	4604      	mov	r4, r0
   21dc0:	466d      	mov	r5, sp
   21dc2:	2656      	movs	r6, #86	@ 0x56
   21dc4:	4628      	mov	r0, r5
   21dc6:	4632      	mov	r2, r6
   21dc8:	f005 f91f 	bl	2700a <__aeabi_memcpy>
   21dcc:	a816      	add	r0, sp, #88	@ 0x58
   21dce:	2149      	movs	r1, #73	@ 0x49
   21dd0:	f004 ff6e 	bl	26cb0 <__aeabi_memclr4>
   21dd4:	4822      	ldr	r0, [pc, #136]	@ (21e60 <_ZN18complex_no_dynamic3app17h91acd4b03ac8eba5E+0xa8>)
   21dd6:	2106      	movs	r1, #6
   21dd8:	462a      	mov	r2, r5
   21dda:	4633      	mov	r3, r6
   21ddc:	df04      	svc	4
   21dde:	2802      	cmp	r0, #2
   21de0:	d00e      	beq.n	21e00 <_ZN18complex_no_dynamic3app17h91acd4b03ac8eba5E+0x48>
   21de2:	481f      	ldr	r0, [pc, #124]	@ (21e60 <_ZN18complex_no_dynamic3app17h91acd4b03ac8eba5E+0xa8>)
   21de4:	2106      	movs	r1, #6
   21de6:	aa16      	add	r2, sp, #88	@ 0x58
   21de8:	2349      	movs	r3, #73	@ 0x49
   21dea:	df03      	svc	3
   21dec:	2802      	cmp	r0, #2
   21dee:	d007      	beq.n	21e00 <_ZN18complex_no_dynamic3app17h91acd4b03ac8eba5E+0x48>
   21df0:	481b      	ldr	r0, [pc, #108]	@ (21e60 <_ZN18complex_no_dynamic3app17h91acd4b03ac8eba5E+0xa8>)
   21df2:	2106      	movs	r1, #6
   21df4:	2500      	movs	r5, #0
   21df6:	460a      	mov	r2, r1
   21df8:	462b      	mov	r3, r5
   21dfa:	df02      	svc	2
   21dfc:	287f      	cmp	r0, #127	@ 0x7f
   21dfe:	d811      	bhi.n	21e24 <_ZN18complex_no_dynamic3app17h91acd4b03ac8eba5E+0x6c>
   21e00:	2001      	movs	r0, #1
   21e02:	7020      	strb	r0, [r4, #0]
   21e04:	6061      	str	r1, [r4, #4]
   21e06:	4c16      	ldr	r4, [pc, #88]	@ (21e60 <_ZN18complex_no_dynamic3app17h91acd4b03ac8eba5E+0xa8>)
   21e08:	2506      	movs	r5, #6
   21e0a:	2600      	movs	r6, #0
   21e0c:	4620      	mov	r0, r4
   21e0e:	4629      	mov	r1, r5
   21e10:	4632      	mov	r2, r6
   21e12:	4633      	mov	r3, r6
   21e14:	df03      	svc	3
   21e16:	4620      	mov	r0, r4
   21e18:	4629      	mov	r1, r5
   21e1a:	4632      	mov	r2, r6
   21e1c:	4633      	mov	r3, r6
   21e1e:	df04      	svc	4
   21e20:	b029      	add	sp, #164	@ 0xa4
   21e22:	bdf0      	pop	{r4, r5, r6, r7, pc}
   21e24:	480e      	ldr	r0, [pc, #56]	@ (21e60 <_ZN18complex_no_dynamic3app17h91acd4b03ac8eba5E+0xa8>)
   21e26:	2606      	movs	r6, #6
   21e28:	4631      	mov	r1, r6
   21e2a:	462a      	mov	r2, r5
   21e2c:	462b      	mov	r3, r5
   21e2e:	df03      	svc	3
   21e30:	480b      	ldr	r0, [pc, #44]	@ (21e60 <_ZN18complex_no_dynamic3app17h91acd4b03ac8eba5E+0xa8>)
   21e32:	4631      	mov	r1, r6
   21e34:	462a      	mov	r2, r5
   21e36:	462b      	mov	r3, r5
   21e38:	df03      	svc	3
   21e3a:	1c60      	adds	r0, r4, #1
   21e3c:	a916      	add	r1, sp, #88	@ 0x58
   21e3e:	2249      	movs	r2, #73	@ 0x49
   21e40:	f005 f8e3 	bl	2700a <__aeabi_memcpy>
   21e44:	7025      	strb	r5, [r4, #0]
   21e46:	4c06      	ldr	r4, [pc, #24]	@ (21e60 <_ZN18complex_no_dynamic3app17h91acd4b03ac8eba5E+0xa8>)
   21e48:	4620      	mov	r0, r4
   21e4a:	4631      	mov	r1, r6
   21e4c:	462a      	mov	r2, r5
   21e4e:	462b      	mov	r3, r5
   21e50:	df03      	svc	3
   21e52:	4620      	mov	r0, r4
   21e54:	4631      	mov	r1, r6
   21e56:	462a      	mov	r2, r5
   21e58:	462b      	mov	r3, r5
   21e5a:	df04      	svc	4
   21e5c:	b029      	add	sp, #164	@ 0xa4
   21e5e:	bdf0      	pop	{r4, r5, r6, r7, pc}
   21e60:	00001c6b 	.word	0x00001c6b

00021e64 <_ZN18complex_no_dynamic3app17h92a93e3a68529efaE>:
   21e64:	b5f0      	push	{r4, r5, r6, r7, lr}
   21e66:	af03      	add	r7, sp, #12
   21e68:	b0af      	sub	sp, #188	@ 0xbc
   21e6a:	9001      	str	r0, [sp, #4]
   21e6c:	ae02      	add	r6, sp, #8
   21e6e:	244f      	movs	r4, #79	@ 0x4f
   21e70:	4630      	mov	r0, r6
   21e72:	4622      	mov	r2, r4
   21e74:	f005 f8c9 	bl	2700a <__aeabi_memcpy>
   21e78:	a816      	add	r0, sp, #88	@ 0x58
   21e7a:	2161      	movs	r1, #97	@ 0x61
   21e7c:	f004 ff18 	bl	26cb0 <__aeabi_memclr4>
   21e80:	20db      	movs	r0, #219	@ 0xdb
   21e82:	0045      	lsls	r5, r0, #1
   21e84:	2102      	movs	r1, #2
   21e86:	4628      	mov	r0, r5
   21e88:	4632      	mov	r2, r6
   21e8a:	4623      	mov	r3, r4
   21e8c:	df04      	svc	4
   21e8e:	2802      	cmp	r0, #2
   21e90:	d00e      	beq.n	21eb0 <_ZN18complex_no_dynamic3app17h92a93e3a68529efaE+0x4c>
   21e92:	2108      	movs	r1, #8
   21e94:	aa16      	add	r2, sp, #88	@ 0x58
   21e96:	2361      	movs	r3, #97	@ 0x61
   21e98:	4628      	mov	r0, r5
   21e9a:	df03      	svc	3
   21e9c:	2802      	cmp	r0, #2
   21e9e:	d007      	beq.n	21eb0 <_ZN18complex_no_dynamic3app17h92a93e3a68529efaE+0x4c>
   21ea0:	2102      	movs	r1, #2
   21ea2:	2208      	movs	r2, #8
   21ea4:	2600      	movs	r6, #0
   21ea6:	4628      	mov	r0, r5
   21ea8:	4633      	mov	r3, r6
   21eaa:	df02      	svc	2
   21eac:	287f      	cmp	r0, #127	@ 0x7f
   21eae:	d810      	bhi.n	21ed2 <_ZN18complex_no_dynamic3app17h92a93e3a68529efaE+0x6e>
   21eb0:	2001      	movs	r0, #1
   21eb2:	9a01      	ldr	r2, [sp, #4]
   21eb4:	7010      	strb	r0, [r2, #0]
   21eb6:	6051      	str	r1, [r2, #4]
   21eb8:	2108      	movs	r1, #8
   21eba:	2400      	movs	r4, #0
   21ebc:	4628      	mov	r0, r5
   21ebe:	4622      	mov	r2, r4
   21ec0:	4623      	mov	r3, r4
   21ec2:	df03      	svc	3
   21ec4:	2102      	movs	r1, #2
   21ec6:	4628      	mov	r0, r5
   21ec8:	4622      	mov	r2, r4
   21eca:	4623      	mov	r3, r4
   21ecc:	df04      	svc	4
   21ece:	b02f      	add	sp, #188	@ 0xbc
   21ed0:	bdf0      	pop	{r4, r5, r6, r7, pc}
   21ed2:	2408      	movs	r4, #8
   21ed4:	9400      	str	r4, [sp, #0]
   21ed6:	4628      	mov	r0, r5
   21ed8:	4621      	mov	r1, r4
   21eda:	4632      	mov	r2, r6
   21edc:	4633      	mov	r3, r6
   21ede:	df03      	svc	3
   21ee0:	4628      	mov	r0, r5
   21ee2:	4621      	mov	r1, r4
   21ee4:	4632      	mov	r2, r6
   21ee6:	4633      	mov	r3, r6
   21ee8:	df03      	svc	3
   21eea:	9c01      	ldr	r4, [sp, #4]
   21eec:	1c60      	adds	r0, r4, #1
   21eee:	a916      	add	r1, sp, #88	@ 0x58
   21ef0:	2261      	movs	r2, #97	@ 0x61
   21ef2:	f005 f88a 	bl	2700a <__aeabi_memcpy>
   21ef6:	7026      	strb	r6, [r4, #0]
   21ef8:	4628      	mov	r0, r5
   21efa:	9900      	ldr	r1, [sp, #0]
   21efc:	4632      	mov	r2, r6
   21efe:	4633      	mov	r3, r6
   21f00:	df03      	svc	3
   21f02:	2102      	movs	r1, #2
   21f04:	4628      	mov	r0, r5
   21f06:	4632      	mov	r2, r6
   21f08:	4633      	mov	r3, r6
   21f0a:	df04      	svc	4
   21f0c:	b02f      	add	sp, #188	@ 0xbc
   21f0e:	bdf0      	pop	{r4, r5, r6, r7, pc}

00021f10 <_ZN18complex_no_dynamic3app17h92d33f7b5b624d6cE>:
   21f10:	b5f0      	push	{r4, r5, r6, r7, lr}
   21f12:	af03      	add	r7, sp, #12
   21f14:	b09b      	sub	sp, #108	@ 0x6c
   21f16:	4604      	mov	r4, r0
   21f18:	466d      	mov	r5, sp
   21f1a:	2613      	movs	r6, #19
   21f1c:	4628      	mov	r0, r5
   21f1e:	4632      	mov	r2, r6
   21f20:	f005 f873 	bl	2700a <__aeabi_memcpy>
   21f24:	a805      	add	r0, sp, #20
   21f26:	2155      	movs	r1, #85	@ 0x55
   21f28:	f004 fec2 	bl	26cb0 <__aeabi_memclr4>
   21f2c:	4822      	ldr	r0, [pc, #136]	@ (21fb8 <_ZN18complex_no_dynamic3app17h92d33f7b5b624d6cE+0xa8>)
   21f2e:	2109      	movs	r1, #9
   21f30:	462a      	mov	r2, r5
   21f32:	4633      	mov	r3, r6
   21f34:	df04      	svc	4
   21f36:	2802      	cmp	r0, #2
   21f38:	d00e      	beq.n	21f58 <_ZN18complex_no_dynamic3app17h92d33f7b5b624d6cE+0x48>
   21f3a:	481f      	ldr	r0, [pc, #124]	@ (21fb8 <_ZN18complex_no_dynamic3app17h92d33f7b5b624d6cE+0xa8>)
   21f3c:	2107      	movs	r1, #7
   21f3e:	aa05      	add	r2, sp, #20
   21f40:	2355      	movs	r3, #85	@ 0x55
   21f42:	df03      	svc	3
   21f44:	2802      	cmp	r0, #2
   21f46:	d007      	beq.n	21f58 <_ZN18complex_no_dynamic3app17h92d33f7b5b624d6cE+0x48>
   21f48:	481b      	ldr	r0, [pc, #108]	@ (21fb8 <_ZN18complex_no_dynamic3app17h92d33f7b5b624d6cE+0xa8>)
   21f4a:	2109      	movs	r1, #9
   21f4c:	2207      	movs	r2, #7
   21f4e:	2500      	movs	r5, #0
   21f50:	462b      	mov	r3, r5
   21f52:	df02      	svc	2
   21f54:	287f      	cmp	r0, #127	@ 0x7f
   21f56:	d810      	bhi.n	21f7a <_ZN18complex_no_dynamic3app17h92d33f7b5b624d6cE+0x6a>
   21f58:	2001      	movs	r0, #1
   21f5a:	7020      	strb	r0, [r4, #0]
   21f5c:	6061      	str	r1, [r4, #4]
   21f5e:	4c16      	ldr	r4, [pc, #88]	@ (21fb8 <_ZN18complex_no_dynamic3app17h92d33f7b5b624d6cE+0xa8>)
   21f60:	2107      	movs	r1, #7
   21f62:	2500      	movs	r5, #0
   21f64:	4620      	mov	r0, r4
   21f66:	462a      	mov	r2, r5
   21f68:	462b      	mov	r3, r5
   21f6a:	df03      	svc	3
   21f6c:	2109      	movs	r1, #9
   21f6e:	4620      	mov	r0, r4
   21f70:	462a      	mov	r2, r5
   21f72:	462b      	mov	r3, r5
   21f74:	df04      	svc	4
   21f76:	b01b      	add	sp, #108	@ 0x6c
   21f78:	bdf0      	pop	{r4, r5, r6, r7, pc}
   21f7a:	480f      	ldr	r0, [pc, #60]	@ (21fb8 <_ZN18complex_no_dynamic3app17h92d33f7b5b624d6cE+0xa8>)
   21f7c:	2607      	movs	r6, #7
   21f7e:	4631      	mov	r1, r6
   21f80:	462a      	mov	r2, r5
   21f82:	462b      	mov	r3, r5
   21f84:	df03      	svc	3
   21f86:	480c      	ldr	r0, [pc, #48]	@ (21fb8 <_ZN18complex_no_dynamic3app17h92d33f7b5b624d6cE+0xa8>)
   21f88:	4631      	mov	r1, r6
   21f8a:	462a      	mov	r2, r5
   21f8c:	462b      	mov	r3, r5
   21f8e:	df03      	svc	3
   21f90:	1c60      	adds	r0, r4, #1
   21f92:	a905      	add	r1, sp, #20
   21f94:	2255      	movs	r2, #85	@ 0x55
   21f96:	f005 f838 	bl	2700a <__aeabi_memcpy>
   21f9a:	7025      	strb	r5, [r4, #0]
   21f9c:	4c06      	ldr	r4, [pc, #24]	@ (21fb8 <_ZN18complex_no_dynamic3app17h92d33f7b5b624d6cE+0xa8>)
   21f9e:	4620      	mov	r0, r4
   21fa0:	4631      	mov	r1, r6
   21fa2:	462a      	mov	r2, r5
   21fa4:	462b      	mov	r3, r5
   21fa6:	df03      	svc	3
   21fa8:	2109      	movs	r1, #9
   21faa:	4620      	mov	r0, r4
   21fac:	462a      	mov	r2, r5
   21fae:	462b      	mov	r3, r5
   21fb0:	df04      	svc	4
   21fb2:	b01b      	add	sp, #108	@ 0x6c
   21fb4:	bdf0      	pop	{r4, r5, r6, r7, pc}
   21fb6:	46c0      	nop			@ (mov r8, r8)
   21fb8:	0000032e 	.word	0x0000032e

00021fbc <_ZN18complex_no_dynamic3app17h93bba9c9289c723fE>:
   21fbc:	b5f0      	push	{r4, r5, r6, r7, lr}
   21fbe:	af03      	add	r7, sp, #12
   21fc0:	b097      	sub	sp, #92	@ 0x5c
   21fc2:	4604      	mov	r4, r0
   21fc4:	7b08      	ldrb	r0, [r1, #12]
   21fc6:	7b4a      	ldrb	r2, [r1, #13]
   21fc8:	0212      	lsls	r2, r2, #8
   21fca:	1810      	adds	r0, r2, r0
   21fcc:	ad01      	add	r5, sp, #4
   21fce:	81a8      	strh	r0, [r5, #12]
   21fd0:	7a08      	ldrb	r0, [r1, #8]
   21fd2:	7a4a      	ldrb	r2, [r1, #9]
   21fd4:	0212      	lsls	r2, r2, #8
   21fd6:	1810      	adds	r0, r2, r0
   21fd8:	7a8a      	ldrb	r2, [r1, #10]
   21fda:	0412      	lsls	r2, r2, #16
   21fdc:	7acb      	ldrb	r3, [r1, #11]
   21fde:	061b      	lsls	r3, r3, #24
   21fe0:	189a      	adds	r2, r3, r2
   21fe2:	1810      	adds	r0, r2, r0
   21fe4:	9003      	str	r0, [sp, #12]
   21fe6:	7908      	ldrb	r0, [r1, #4]
   21fe8:	794a      	ldrb	r2, [r1, #5]
   21fea:	0212      	lsls	r2, r2, #8
   21fec:	1810      	adds	r0, r2, r0
   21fee:	798a      	ldrb	r2, [r1, #6]
   21ff0:	0412      	lsls	r2, r2, #16
   21ff2:	79cb      	ldrb	r3, [r1, #7]
   21ff4:	061b      	lsls	r3, r3, #24
   21ff6:	189a      	adds	r2, r3, r2
   21ff8:	1810      	adds	r0, r2, r0
   21ffa:	9002      	str	r0, [sp, #8]
   21ffc:	7808      	ldrb	r0, [r1, #0]
   21ffe:	784a      	ldrb	r2, [r1, #1]
   22000:	0212      	lsls	r2, r2, #8
   22002:	1810      	adds	r0, r2, r0
   22004:	788a      	ldrb	r2, [r1, #2]
   22006:	0412      	lsls	r2, r2, #16
   22008:	78c9      	ldrb	r1, [r1, #3]
   2200a:	0609      	lsls	r1, r1, #24
   2200c:	1889      	adds	r1, r1, r2
   2200e:	1808      	adds	r0, r1, r0
   22010:	9001      	str	r0, [sp, #4]
   22012:	a805      	add	r0, sp, #20
   22014:	2148      	movs	r1, #72	@ 0x48
   22016:	f004 fe4b 	bl	26cb0 <__aeabi_memclr4>
   2201a:	4822      	ldr	r0, [pc, #136]	@ (220a4 <_ZN18complex_no_dynamic3app17h93bba9c9289c723fE+0xe8>)
   2201c:	2103      	movs	r1, #3
   2201e:	230e      	movs	r3, #14
   22020:	462a      	mov	r2, r5
   22022:	df04      	svc	4
   22024:	2802      	cmp	r0, #2
   22026:	d00e      	beq.n	22046 <_ZN18complex_no_dynamic3app17h93bba9c9289c723fE+0x8a>
   22028:	481e      	ldr	r0, [pc, #120]	@ (220a4 <_ZN18complex_no_dynamic3app17h93bba9c9289c723fE+0xe8>)
   2202a:	2108      	movs	r1, #8
   2202c:	aa05      	add	r2, sp, #20
   2202e:	2348      	movs	r3, #72	@ 0x48
   22030:	df03      	svc	3
   22032:	2802      	cmp	r0, #2
   22034:	d007      	beq.n	22046 <_ZN18complex_no_dynamic3app17h93bba9c9289c723fE+0x8a>
   22036:	481b      	ldr	r0, [pc, #108]	@ (220a4 <_ZN18complex_no_dynamic3app17h93bba9c9289c723fE+0xe8>)
   22038:	2103      	movs	r1, #3
   2203a:	2208      	movs	r2, #8
   2203c:	2500      	movs	r5, #0
   2203e:	462b      	mov	r3, r5
   22040:	df02      	svc	2
   22042:	287f      	cmp	r0, #127	@ 0x7f
   22044:	d810      	bhi.n	22068 <_ZN18complex_no_dynamic3app17h93bba9c9289c723fE+0xac>
   22046:	2001      	movs	r0, #1
   22048:	7020      	strb	r0, [r4, #0]
   2204a:	6061      	str	r1, [r4, #4]
   2204c:	4c15      	ldr	r4, [pc, #84]	@ (220a4 <_ZN18complex_no_dynamic3app17h93bba9c9289c723fE+0xe8>)
   2204e:	2108      	movs	r1, #8
   22050:	2500      	movs	r5, #0
   22052:	4620      	mov	r0, r4
   22054:	462a      	mov	r2, r5
   22056:	462b      	mov	r3, r5
   22058:	df03      	svc	3
   2205a:	2103      	movs	r1, #3
   2205c:	4620      	mov	r0, r4
   2205e:	462a      	mov	r2, r5
   22060:	462b      	mov	r3, r5
   22062:	df04      	svc	4
   22064:	b017      	add	sp, #92	@ 0x5c
   22066:	bdf0      	pop	{r4, r5, r6, r7, pc}
   22068:	480e      	ldr	r0, [pc, #56]	@ (220a4 <_ZN18complex_no_dynamic3app17h93bba9c9289c723fE+0xe8>)
   2206a:	2608      	movs	r6, #8
   2206c:	4631      	mov	r1, r6
   2206e:	462a      	mov	r2, r5
   22070:	462b      	mov	r3, r5
   22072:	df03      	svc	3
   22074:	480b      	ldr	r0, [pc, #44]	@ (220a4 <_ZN18complex_no_dynamic3app17h93bba9c9289c723fE+0xe8>)
   22076:	4631      	mov	r1, r6
   22078:	462a      	mov	r2, r5
   2207a:	462b      	mov	r3, r5
   2207c:	df03      	svc	3
   2207e:	1c60      	adds	r0, r4, #1
   22080:	a905      	add	r1, sp, #20
   22082:	2248      	movs	r2, #72	@ 0x48
   22084:	f004 ffc1 	bl	2700a <__aeabi_memcpy>
   22088:	7025      	strb	r5, [r4, #0]
   2208a:	4c06      	ldr	r4, [pc, #24]	@ (220a4 <_ZN18complex_no_dynamic3app17h93bba9c9289c723fE+0xe8>)
   2208c:	4620      	mov	r0, r4
   2208e:	4631      	mov	r1, r6
   22090:	462a      	mov	r2, r5
   22092:	462b      	mov	r3, r5
   22094:	df03      	svc	3
   22096:	2103      	movs	r1, #3
   22098:	4620      	mov	r0, r4
   2209a:	462a      	mov	r2, r5
   2209c:	462b      	mov	r3, r5
   2209e:	df04      	svc	4
   220a0:	b017      	add	sp, #92	@ 0x5c
   220a2:	bdf0      	pop	{r4, r5, r6, r7, pc}
   220a4:	000012d1 	.word	0x000012d1

000220a8 <_ZN18complex_no_dynamic3app17h981adf012c0d073aE>:
   220a8:	b5f0      	push	{r4, r5, r6, r7, lr}
   220aa:	af03      	add	r7, sp, #12
   220ac:	b09b      	sub	sp, #108	@ 0x6c
   220ae:	9002      	str	r0, [sp, #8]
   220b0:	ae03      	add	r6, sp, #12
   220b2:	241b      	movs	r4, #27
   220b4:	4630      	mov	r0, r6
   220b6:	4622      	mov	r2, r4
   220b8:	f004 ffa7 	bl	2700a <__aeabi_memcpy>
   220bc:	a80a      	add	r0, sp, #40	@ 0x28
   220be:	2141      	movs	r1, #65	@ 0x41
   220c0:	f004 fdf6 	bl	26cb0 <__aeabi_memclr4>
   220c4:	2005      	movs	r0, #5
   220c6:	0185      	lsls	r5, r0, #6
   220c8:	2108      	movs	r1, #8
   220ca:	4628      	mov	r0, r5
   220cc:	4632      	mov	r2, r6
   220ce:	4623      	mov	r3, r4
   220d0:	df04      	svc	4
   220d2:	2802      	cmp	r0, #2
   220d4:	d00e      	beq.n	220f4 <_ZN18complex_no_dynamic3app17h981adf012c0d073aE+0x4c>
   220d6:	2109      	movs	r1, #9
   220d8:	aa0a      	add	r2, sp, #40	@ 0x28
   220da:	2341      	movs	r3, #65	@ 0x41
   220dc:	4628      	mov	r0, r5
   220de:	df03      	svc	3
   220e0:	2802      	cmp	r0, #2
   220e2:	d007      	beq.n	220f4 <_ZN18complex_no_dynamic3app17h981adf012c0d073aE+0x4c>
   220e4:	2108      	movs	r1, #8
   220e6:	2209      	movs	r2, #9
   220e8:	2600      	movs	r6, #0
   220ea:	4628      	mov	r0, r5
   220ec:	4633      	mov	r3, r6
   220ee:	df02      	svc	2
   220f0:	287f      	cmp	r0, #127	@ 0x7f
   220f2:	d810      	bhi.n	22116 <_ZN18complex_no_dynamic3app17h981adf012c0d073aE+0x6e>
   220f4:	2001      	movs	r0, #1
   220f6:	9a02      	ldr	r2, [sp, #8]
   220f8:	7010      	strb	r0, [r2, #0]
   220fa:	6051      	str	r1, [r2, #4]
   220fc:	2109      	movs	r1, #9
   220fe:	2400      	movs	r4, #0
   22100:	4628      	mov	r0, r5
   22102:	4622      	mov	r2, r4
   22104:	4623      	mov	r3, r4
   22106:	df03      	svc	3
   22108:	2108      	movs	r1, #8
   2210a:	4628      	mov	r0, r5
   2210c:	4622      	mov	r2, r4
   2210e:	4623      	mov	r3, r4
   22110:	df04      	svc	4
   22112:	b01b      	add	sp, #108	@ 0x6c
   22114:	bdf0      	pop	{r4, r5, r6, r7, pc}
   22116:	2409      	movs	r4, #9
   22118:	9401      	str	r4, [sp, #4]
   2211a:	4628      	mov	r0, r5
   2211c:	4621      	mov	r1, r4
   2211e:	4632      	mov	r2, r6
   22120:	4633      	mov	r3, r6
   22122:	df03      	svc	3
   22124:	4628      	mov	r0, r5
   22126:	4621      	mov	r1, r4
   22128:	4632      	mov	r2, r6
   2212a:	4633      	mov	r3, r6
   2212c:	df03      	svc	3
   2212e:	9c02      	ldr	r4, [sp, #8]
   22130:	1c60      	adds	r0, r4, #1
   22132:	a90a      	add	r1, sp, #40	@ 0x28
   22134:	2241      	movs	r2, #65	@ 0x41
   22136:	f004 ff68 	bl	2700a <__aeabi_memcpy>
   2213a:	7026      	strb	r6, [r4, #0]
   2213c:	4628      	mov	r0, r5
   2213e:	9901      	ldr	r1, [sp, #4]
   22140:	4632      	mov	r2, r6
   22142:	4633      	mov	r3, r6
   22144:	df03      	svc	3
   22146:	2108      	movs	r1, #8
   22148:	4628      	mov	r0, r5
   2214a:	4632      	mov	r2, r6
   2214c:	4633      	mov	r3, r6
   2214e:	df04      	svc	4
   22150:	b01b      	add	sp, #108	@ 0x6c
   22152:	bdf0      	pop	{r4, r5, r6, r7, pc}

00022154 <_ZN18complex_no_dynamic3app17h9893b7ffe69e3e59E>:
   22154:	b5f0      	push	{r4, r5, r6, r7, lr}
   22156:	af03      	add	r7, sp, #12
   22158:	b0a9      	sub	sp, #164	@ 0xa4
   2215a:	4604      	mov	r4, r0
   2215c:	ad01      	add	r5, sp, #4
   2215e:	265d      	movs	r6, #93	@ 0x5d
   22160:	4628      	mov	r0, r5
   22162:	4632      	mov	r2, r6
   22164:	f004 ff51 	bl	2700a <__aeabi_memcpy>
   22168:	a819      	add	r0, sp, #100	@ 0x64
   2216a:	2140      	movs	r1, #64	@ 0x40
   2216c:	f004 fda0 	bl	26cb0 <__aeabi_memclr4>
   22170:	4822      	ldr	r0, [pc, #136]	@ (221fc <_ZN18complex_no_dynamic3app17h9893b7ffe69e3e59E+0xa8>)
   22172:	2108      	movs	r1, #8
   22174:	462a      	mov	r2, r5
   22176:	4633      	mov	r3, r6
   22178:	df04      	svc	4
   2217a:	2802      	cmp	r0, #2
   2217c:	d00e      	beq.n	2219c <_ZN18complex_no_dynamic3app17h9893b7ffe69e3e59E+0x48>
   2217e:	481f      	ldr	r0, [pc, #124]	@ (221fc <_ZN18complex_no_dynamic3app17h9893b7ffe69e3e59E+0xa8>)
   22180:	2104      	movs	r1, #4
   22182:	aa19      	add	r2, sp, #100	@ 0x64
   22184:	2340      	movs	r3, #64	@ 0x40
   22186:	df03      	svc	3
   22188:	2802      	cmp	r0, #2
   2218a:	d007      	beq.n	2219c <_ZN18complex_no_dynamic3app17h9893b7ffe69e3e59E+0x48>
   2218c:	481b      	ldr	r0, [pc, #108]	@ (221fc <_ZN18complex_no_dynamic3app17h9893b7ffe69e3e59E+0xa8>)
   2218e:	2108      	movs	r1, #8
   22190:	2204      	movs	r2, #4
   22192:	2500      	movs	r5, #0
   22194:	462b      	mov	r3, r5
   22196:	df02      	svc	2
   22198:	287f      	cmp	r0, #127	@ 0x7f
   2219a:	d810      	bhi.n	221be <_ZN18complex_no_dynamic3app17h9893b7ffe69e3e59E+0x6a>
   2219c:	2001      	movs	r0, #1
   2219e:	7020      	strb	r0, [r4, #0]
   221a0:	6061      	str	r1, [r4, #4]
   221a2:	4c16      	ldr	r4, [pc, #88]	@ (221fc <_ZN18complex_no_dynamic3app17h9893b7ffe69e3e59E+0xa8>)
   221a4:	2104      	movs	r1, #4
   221a6:	2500      	movs	r5, #0
   221a8:	4620      	mov	r0, r4
   221aa:	462a      	mov	r2, r5
   221ac:	462b      	mov	r3, r5
   221ae:	df03      	svc	3
   221b0:	2108      	movs	r1, #8
   221b2:	4620      	mov	r0, r4
   221b4:	462a      	mov	r2, r5
   221b6:	462b      	mov	r3, r5
   221b8:	df04      	svc	4
   221ba:	b029      	add	sp, #164	@ 0xa4
   221bc:	bdf0      	pop	{r4, r5, r6, r7, pc}
   221be:	480f      	ldr	r0, [pc, #60]	@ (221fc <_ZN18complex_no_dynamic3app17h9893b7ffe69e3e59E+0xa8>)
   221c0:	2604      	movs	r6, #4
   221c2:	4631      	mov	r1, r6
   221c4:	462a      	mov	r2, r5
   221c6:	462b      	mov	r3, r5
   221c8:	df03      	svc	3
   221ca:	480c      	ldr	r0, [pc, #48]	@ (221fc <_ZN18complex_no_dynamic3app17h9893b7ffe69e3e59E+0xa8>)
   221cc:	4631      	mov	r1, r6
   221ce:	462a      	mov	r2, r5
   221d0:	462b      	mov	r3, r5
   221d2:	df03      	svc	3
   221d4:	1c60      	adds	r0, r4, #1
   221d6:	a919      	add	r1, sp, #100	@ 0x64
   221d8:	2240      	movs	r2, #64	@ 0x40
   221da:	f004 ff16 	bl	2700a <__aeabi_memcpy>
   221de:	7025      	strb	r5, [r4, #0]
   221e0:	4c06      	ldr	r4, [pc, #24]	@ (221fc <_ZN18complex_no_dynamic3app17h9893b7ffe69e3e59E+0xa8>)
   221e2:	4620      	mov	r0, r4
   221e4:	4631      	mov	r1, r6
   221e6:	462a      	mov	r2, r5
   221e8:	462b      	mov	r3, r5
   221ea:	df03      	svc	3
   221ec:	2108      	movs	r1, #8
   221ee:	4620      	mov	r0, r4
   221f0:	462a      	mov	r2, r5
   221f2:	462b      	mov	r3, r5
   221f4:	df04      	svc	4
   221f6:	b029      	add	sp, #164	@ 0xa4
   221f8:	bdf0      	pop	{r4, r5, r6, r7, pc}
   221fa:	46c0      	nop			@ (mov r8, r8)
   221fc:	00001028 	.word	0x00001028

00022200 <_ZN18complex_no_dynamic3app17h9d29ad8371f43db9E>:
   22200:	b5f0      	push	{r4, r5, r6, r7, lr}
   22202:	af03      	add	r7, sp, #12
   22204:	b0a3      	sub	sp, #140	@ 0x8c
   22206:	4604      	mov	r4, r0
   22208:	466d      	mov	r5, sp
   2220a:	2663      	movs	r6, #99	@ 0x63
   2220c:	4628      	mov	r0, r5
   2220e:	4632      	mov	r2, r6
   22210:	f004 fefb 	bl	2700a <__aeabi_memcpy>
   22214:	a819      	add	r0, sp, #100	@ 0x64
   22216:	2127      	movs	r1, #39	@ 0x27
   22218:	f004 fd4a 	bl	26cb0 <__aeabi_memclr4>
   2221c:	4821      	ldr	r0, [pc, #132]	@ (222a4 <_ZN18complex_no_dynamic3app17h9d29ad8371f43db9E+0xa4>)
   2221e:	2107      	movs	r1, #7
   22220:	462a      	mov	r2, r5
   22222:	4633      	mov	r3, r6
   22224:	df04      	svc	4
   22226:	2802      	cmp	r0, #2
   22228:	d00e      	beq.n	22248 <_ZN18complex_no_dynamic3app17h9d29ad8371f43db9E+0x48>
   2222a:	481e      	ldr	r0, [pc, #120]	@ (222a4 <_ZN18complex_no_dynamic3app17h9d29ad8371f43db9E+0xa4>)
   2222c:	2100      	movs	r1, #0
   2222e:	aa19      	add	r2, sp, #100	@ 0x64
   22230:	2327      	movs	r3, #39	@ 0x27
   22232:	df03      	svc	3
   22234:	2802      	cmp	r0, #2
   22236:	d007      	beq.n	22248 <_ZN18complex_no_dynamic3app17h9d29ad8371f43db9E+0x48>
   22238:	481a      	ldr	r0, [pc, #104]	@ (222a4 <_ZN18complex_no_dynamic3app17h9d29ad8371f43db9E+0xa4>)
   2223a:	2107      	movs	r1, #7
   2223c:	2500      	movs	r5, #0
   2223e:	462a      	mov	r2, r5
   22240:	462b      	mov	r3, r5
   22242:	df02      	svc	2
   22244:	287f      	cmp	r0, #127	@ 0x7f
   22246:	d810      	bhi.n	2226a <_ZN18complex_no_dynamic3app17h9d29ad8371f43db9E+0x6a>
   22248:	2001      	movs	r0, #1
   2224a:	7020      	strb	r0, [r4, #0]
   2224c:	6061      	str	r1, [r4, #4]
   2224e:	4c15      	ldr	r4, [pc, #84]	@ (222a4 <_ZN18complex_no_dynamic3app17h9d29ad8371f43db9E+0xa4>)
   22250:	2500      	movs	r5, #0
   22252:	4620      	mov	r0, r4
   22254:	4629      	mov	r1, r5
   22256:	462a      	mov	r2, r5
   22258:	462b      	mov	r3, r5
   2225a:	df03      	svc	3
   2225c:	2107      	movs	r1, #7
   2225e:	4620      	mov	r0, r4
   22260:	462a      	mov	r2, r5
   22262:	462b      	mov	r3, r5
   22264:	df04      	svc	4
   22266:	b023      	add	sp, #140	@ 0x8c
   22268:	bdf0      	pop	{r4, r5, r6, r7, pc}
   2226a:	4e0e      	ldr	r6, [pc, #56]	@ (222a4 <_ZN18complex_no_dynamic3app17h9d29ad8371f43db9E+0xa4>)
   2226c:	4630      	mov	r0, r6
   2226e:	4629      	mov	r1, r5
   22270:	462a      	mov	r2, r5
   22272:	462b      	mov	r3, r5
   22274:	df03      	svc	3
   22276:	4630      	mov	r0, r6
   22278:	4629      	mov	r1, r5
   2227a:	462a      	mov	r2, r5
   2227c:	462b      	mov	r3, r5
   2227e:	df03      	svc	3
   22280:	1c60      	adds	r0, r4, #1
   22282:	a919      	add	r1, sp, #100	@ 0x64
   22284:	2227      	movs	r2, #39	@ 0x27
   22286:	f004 fec0 	bl	2700a <__aeabi_memcpy>
   2228a:	7025      	strb	r5, [r4, #0]
   2228c:	4630      	mov	r0, r6
   2228e:	4629      	mov	r1, r5
   22290:	462a      	mov	r2, r5
   22292:	462b      	mov	r3, r5
   22294:	df03      	svc	3
   22296:	2107      	movs	r1, #7
   22298:	4630      	mov	r0, r6
   2229a:	462a      	mov	r2, r5
   2229c:	462b      	mov	r3, r5
   2229e:	df04      	svc	4
   222a0:	b023      	add	sp, #140	@ 0x8c
   222a2:	bdf0      	pop	{r4, r5, r6, r7, pc}
   222a4:	00001e54 	.word	0x00001e54

000222a8 <_ZN18complex_no_dynamic3app17h9eaf4676ed713835E>:
   222a8:	b5f0      	push	{r4, r5, r6, r7, lr}
   222aa:	af03      	add	r7, sp, #12
   222ac:	b09b      	sub	sp, #108	@ 0x6c
   222ae:	4604      	mov	r4, r0
   222b0:	ad01      	add	r5, sp, #4
   222b2:	2644      	movs	r6, #68	@ 0x44
   222b4:	4628      	mov	r0, r5
   222b6:	4632      	mov	r2, r6
   222b8:	f004 fea7 	bl	2700a <__aeabi_memcpy>
   222bc:	a812      	add	r0, sp, #72	@ 0x48
   222be:	2123      	movs	r1, #35	@ 0x23
   222c0:	f004 fcf6 	bl	26cb0 <__aeabi_memclr4>
   222c4:	4822      	ldr	r0, [pc, #136]	@ (22350 <_ZN18complex_no_dynamic3app17h9eaf4676ed713835E+0xa8>)
   222c6:	2106      	movs	r1, #6
   222c8:	462a      	mov	r2, r5
   222ca:	4633      	mov	r3, r6
   222cc:	df04      	svc	4
   222ce:	2802      	cmp	r0, #2
   222d0:	d00e      	beq.n	222f0 <_ZN18complex_no_dynamic3app17h9eaf4676ed713835E+0x48>
   222d2:	481f      	ldr	r0, [pc, #124]	@ (22350 <_ZN18complex_no_dynamic3app17h9eaf4676ed713835E+0xa8>)
   222d4:	2103      	movs	r1, #3
   222d6:	aa12      	add	r2, sp, #72	@ 0x48
   222d8:	2323      	movs	r3, #35	@ 0x23
   222da:	df03      	svc	3
   222dc:	2802      	cmp	r0, #2
   222de:	d007      	beq.n	222f0 <_ZN18complex_no_dynamic3app17h9eaf4676ed713835E+0x48>
   222e0:	481b      	ldr	r0, [pc, #108]	@ (22350 <_ZN18complex_no_dynamic3app17h9eaf4676ed713835E+0xa8>)
   222e2:	2106      	movs	r1, #6
   222e4:	2203      	movs	r2, #3
   222e6:	2500      	movs	r5, #0
   222e8:	462b      	mov	r3, r5
   222ea:	df02      	svc	2
   222ec:	287f      	cmp	r0, #127	@ 0x7f
   222ee:	d810      	bhi.n	22312 <_ZN18complex_no_dynamic3app17h9eaf4676ed713835E+0x6a>
   222f0:	2001      	movs	r0, #1
   222f2:	7020      	strb	r0, [r4, #0]
   222f4:	6061      	str	r1, [r4, #4]
   222f6:	4c16      	ldr	r4, [pc, #88]	@ (22350 <_ZN18complex_no_dynamic3app17h9eaf4676ed713835E+0xa8>)
   222f8:	2103      	movs	r1, #3
   222fa:	2500      	movs	r5, #0
   222fc:	4620      	mov	r0, r4
   222fe:	462a      	mov	r2, r5
   22300:	462b      	mov	r3, r5
   22302:	df03      	svc	3
   22304:	2106      	movs	r1, #6
   22306:	4620      	mov	r0, r4
   22308:	462a      	mov	r2, r5
   2230a:	462b      	mov	r3, r5
   2230c:	df04      	svc	4
   2230e:	b01b      	add	sp, #108	@ 0x6c
   22310:	bdf0      	pop	{r4, r5, r6, r7, pc}
   22312:	480f      	ldr	r0, [pc, #60]	@ (22350 <_ZN18complex_no_dynamic3app17h9eaf4676ed713835E+0xa8>)
   22314:	2603      	movs	r6, #3
   22316:	4631      	mov	r1, r6
   22318:	462a      	mov	r2, r5
   2231a:	462b      	mov	r3, r5
   2231c:	df03      	svc	3
   2231e:	480c      	ldr	r0, [pc, #48]	@ (22350 <_ZN18complex_no_dynamic3app17h9eaf4676ed713835E+0xa8>)
   22320:	4631      	mov	r1, r6
   22322:	462a      	mov	r2, r5
   22324:	462b      	mov	r3, r5
   22326:	df03      	svc	3
   22328:	1c60      	adds	r0, r4, #1
   2232a:	a912      	add	r1, sp, #72	@ 0x48
   2232c:	2223      	movs	r2, #35	@ 0x23
   2232e:	f004 fe6c 	bl	2700a <__aeabi_memcpy>
   22332:	7025      	strb	r5, [r4, #0]
   22334:	4c06      	ldr	r4, [pc, #24]	@ (22350 <_ZN18complex_no_dynamic3app17h9eaf4676ed713835E+0xa8>)
   22336:	4620      	mov	r0, r4
   22338:	4631      	mov	r1, r6
   2233a:	462a      	mov	r2, r5
   2233c:	462b      	mov	r3, r5
   2233e:	df03      	svc	3
   22340:	2106      	movs	r1, #6
   22342:	4620      	mov	r0, r4
   22344:	462a      	mov	r2, r5
   22346:	462b      	mov	r3, r5
   22348:	df04      	svc	4
   2234a:	b01b      	add	sp, #108	@ 0x6c
   2234c:	bdf0      	pop	{r4, r5, r6, r7, pc}
   2234e:	46c0      	nop			@ (mov r8, r8)
   22350:	000009bf 	.word	0x000009bf

00022354 <_ZN18complex_no_dynamic3app17h9f6ea8d6efa73117E>:
   22354:	b5f0      	push	{r4, r5, r6, r7, lr}
   22356:	af03      	add	r7, sp, #12
   22358:	b09b      	sub	sp, #108	@ 0x6c
   2235a:	4604      	mov	r4, r0
   2235c:	ad01      	add	r5, sp, #4
   2235e:	2632      	movs	r6, #50	@ 0x32
   22360:	4628      	mov	r0, r5
   22362:	4632      	mov	r2, r6
   22364:	f004 fe51 	bl	2700a <__aeabi_memcpy>
   22368:	a80e      	add	r0, sp, #56	@ 0x38
   2236a:	4631      	mov	r1, r6
   2236c:	f004 fca0 	bl	26cb0 <__aeabi_memclr4>
   22370:	4822      	ldr	r0, [pc, #136]	@ (223fc <_ZN18complex_no_dynamic3app17h9f6ea8d6efa73117E+0xa8>)
   22372:	2103      	movs	r1, #3
   22374:	462a      	mov	r2, r5
   22376:	4633      	mov	r3, r6
   22378:	df04      	svc	4
   2237a:	2802      	cmp	r0, #2
   2237c:	d00e      	beq.n	2239c <_ZN18complex_no_dynamic3app17h9f6ea8d6efa73117E+0x48>
   2237e:	481f      	ldr	r0, [pc, #124]	@ (223fc <_ZN18complex_no_dynamic3app17h9f6ea8d6efa73117E+0xa8>)
   22380:	2101      	movs	r1, #1
   22382:	aa0e      	add	r2, sp, #56	@ 0x38
   22384:	2332      	movs	r3, #50	@ 0x32
   22386:	df03      	svc	3
   22388:	2802      	cmp	r0, #2
   2238a:	d007      	beq.n	2239c <_ZN18complex_no_dynamic3app17h9f6ea8d6efa73117E+0x48>
   2238c:	481b      	ldr	r0, [pc, #108]	@ (223fc <_ZN18complex_no_dynamic3app17h9f6ea8d6efa73117E+0xa8>)
   2238e:	2103      	movs	r1, #3
   22390:	2201      	movs	r2, #1
   22392:	2500      	movs	r5, #0
   22394:	462b      	mov	r3, r5
   22396:	df02      	svc	2
   22398:	287f      	cmp	r0, #127	@ 0x7f
   2239a:	d810      	bhi.n	223be <_ZN18complex_no_dynamic3app17h9f6ea8d6efa73117E+0x6a>
   2239c:	2201      	movs	r2, #1
   2239e:	7022      	strb	r2, [r4, #0]
   223a0:	6061      	str	r1, [r4, #4]
   223a2:	4c16      	ldr	r4, [pc, #88]	@ (223fc <_ZN18complex_no_dynamic3app17h9f6ea8d6efa73117E+0xa8>)
   223a4:	2500      	movs	r5, #0
   223a6:	4620      	mov	r0, r4
   223a8:	4611      	mov	r1, r2
   223aa:	462a      	mov	r2, r5
   223ac:	462b      	mov	r3, r5
   223ae:	df03      	svc	3
   223b0:	2103      	movs	r1, #3
   223b2:	4620      	mov	r0, r4
   223b4:	462a      	mov	r2, r5
   223b6:	462b      	mov	r3, r5
   223b8:	df04      	svc	4
   223ba:	b01b      	add	sp, #108	@ 0x6c
   223bc:	bdf0      	pop	{r4, r5, r6, r7, pc}
   223be:	480f      	ldr	r0, [pc, #60]	@ (223fc <_ZN18complex_no_dynamic3app17h9f6ea8d6efa73117E+0xa8>)
   223c0:	2601      	movs	r6, #1
   223c2:	4631      	mov	r1, r6
   223c4:	462a      	mov	r2, r5
   223c6:	462b      	mov	r3, r5
   223c8:	df03      	svc	3
   223ca:	480c      	ldr	r0, [pc, #48]	@ (223fc <_ZN18complex_no_dynamic3app17h9f6ea8d6efa73117E+0xa8>)
   223cc:	4631      	mov	r1, r6
   223ce:	462a      	mov	r2, r5
   223d0:	462b      	mov	r3, r5
   223d2:	df03      	svc	3
   223d4:	1c60      	adds	r0, r4, #1
   223d6:	a90e      	add	r1, sp, #56	@ 0x38
   223d8:	2232      	movs	r2, #50	@ 0x32
   223da:	f004 fe16 	bl	2700a <__aeabi_memcpy>
   223de:	7025      	strb	r5, [r4, #0]
   223e0:	4c06      	ldr	r4, [pc, #24]	@ (223fc <_ZN18complex_no_dynamic3app17h9f6ea8d6efa73117E+0xa8>)
   223e2:	4620      	mov	r0, r4
   223e4:	4631      	mov	r1, r6
   223e6:	462a      	mov	r2, r5
   223e8:	462b      	mov	r3, r5
   223ea:	df03      	svc	3
   223ec:	2103      	movs	r1, #3
   223ee:	4620      	mov	r0, r4
   223f0:	462a      	mov	r2, r5
   223f2:	462b      	mov	r3, r5
   223f4:	df04      	svc	4
   223f6:	b01b      	add	sp, #108	@ 0x6c
   223f8:	bdf0      	pop	{r4, r5, r6, r7, pc}
   223fa:	46c0      	nop			@ (mov r8, r8)
   223fc:	00001f07 	.word	0x00001f07

00022400 <_ZN18complex_no_dynamic3app17ha04e42f4b2c95cfbE>:
   22400:	b5f0      	push	{r4, r5, r6, r7, lr}
   22402:	af03      	add	r7, sp, #12
   22404:	b097      	sub	sp, #92	@ 0x5c
   22406:	4604      	mov	r4, r0
   22408:	ad01      	add	r5, sp, #4
   2240a:	262c      	movs	r6, #44	@ 0x2c
   2240c:	4628      	mov	r0, r5
   2240e:	4632      	mov	r2, r6
   22410:	f004 fdfb 	bl	2700a <__aeabi_memcpy>
   22414:	a80c      	add	r0, sp, #48	@ 0x30
   22416:	212a      	movs	r1, #42	@ 0x2a
   22418:	f004 fc4a 	bl	26cb0 <__aeabi_memclr4>
   2241c:	4821      	ldr	r0, [pc, #132]	@ (224a4 <_ZN18complex_no_dynamic3app17ha04e42f4b2c95cfbE+0xa4>)
   2241e:	2103      	movs	r1, #3
   22420:	462a      	mov	r2, r5
   22422:	4633      	mov	r3, r6
   22424:	df04      	svc	4
   22426:	2802      	cmp	r0, #2
   22428:	d00e      	beq.n	22448 <_ZN18complex_no_dynamic3app17ha04e42f4b2c95cfbE+0x48>
   2242a:	481e      	ldr	r0, [pc, #120]	@ (224a4 <_ZN18complex_no_dynamic3app17ha04e42f4b2c95cfbE+0xa4>)
   2242c:	2100      	movs	r1, #0
   2242e:	aa0c      	add	r2, sp, #48	@ 0x30
   22430:	232a      	movs	r3, #42	@ 0x2a
   22432:	df03      	svc	3
   22434:	2802      	cmp	r0, #2
   22436:	d007      	beq.n	22448 <_ZN18complex_no_dynamic3app17ha04e42f4b2c95cfbE+0x48>
   22438:	481a      	ldr	r0, [pc, #104]	@ (224a4 <_ZN18complex_no_dynamic3app17ha04e42f4b2c95cfbE+0xa4>)
   2243a:	2103      	movs	r1, #3
   2243c:	2500      	movs	r5, #0
   2243e:	462a      	mov	r2, r5
   22440:	462b      	mov	r3, r5
   22442:	df02      	svc	2
   22444:	287f      	cmp	r0, #127	@ 0x7f
   22446:	d810      	bhi.n	2246a <_ZN18complex_no_dynamic3app17ha04e42f4b2c95cfbE+0x6a>
   22448:	2001      	movs	r0, #1
   2244a:	7020      	strb	r0, [r4, #0]
   2244c:	6061      	str	r1, [r4, #4]
   2244e:	4c15      	ldr	r4, [pc, #84]	@ (224a4 <_ZN18complex_no_dynamic3app17ha04e42f4b2c95cfbE+0xa4>)
   22450:	2500      	movs	r5, #0
   22452:	4620      	mov	r0, r4
   22454:	4629      	mov	r1, r5
   22456:	462a      	mov	r2, r5
   22458:	462b      	mov	r3, r5
   2245a:	df03      	svc	3
   2245c:	2103      	movs	r1, #3
   2245e:	4620      	mov	r0, r4
   22460:	462a      	mov	r2, r5
   22462:	462b      	mov	r3, r5
   22464:	df04      	svc	4
   22466:	b017      	add	sp, #92	@ 0x5c
   22468:	bdf0      	pop	{r4, r5, r6, r7, pc}
   2246a:	4e0e      	ldr	r6, [pc, #56]	@ (224a4 <_ZN18complex_no_dynamic3app17ha04e42f4b2c95cfbE+0xa4>)
   2246c:	4630      	mov	r0, r6
   2246e:	4629      	mov	r1, r5
   22470:	462a      	mov	r2, r5
   22472:	462b      	mov	r3, r5
   22474:	df03      	svc	3
   22476:	4630      	mov	r0, r6
   22478:	4629      	mov	r1, r5
   2247a:	462a      	mov	r2, r5
   2247c:	462b      	mov	r3, r5
   2247e:	df03      	svc	3
   22480:	1c60      	adds	r0, r4, #1
   22482:	a90c      	add	r1, sp, #48	@ 0x30
   22484:	222a      	movs	r2, #42	@ 0x2a
   22486:	f004 fdc0 	bl	2700a <__aeabi_memcpy>
   2248a:	7025      	strb	r5, [r4, #0]
   2248c:	4630      	mov	r0, r6
   2248e:	4629      	mov	r1, r5
   22490:	462a      	mov	r2, r5
   22492:	462b      	mov	r3, r5
   22494:	df03      	svc	3
   22496:	2103      	movs	r1, #3
   22498:	4630      	mov	r0, r6
   2249a:	462a      	mov	r2, r5
   2249c:	462b      	mov	r3, r5
   2249e:	df04      	svc	4
   224a0:	b017      	add	sp, #92	@ 0x5c
   224a2:	bdf0      	pop	{r4, r5, r6, r7, pc}
   224a4:	000024f0 	.word	0x000024f0

000224a8 <_ZN18complex_no_dynamic3app17ha208c7bf401bd3baE>:
   224a8:	b5f0      	push	{r4, r5, r6, r7, lr}
   224aa:	af03      	add	r7, sp, #12
   224ac:	b09b      	sub	sp, #108	@ 0x6c
   224ae:	4604      	mov	r4, r0
   224b0:	466d      	mov	r5, sp
   224b2:	2636      	movs	r6, #54	@ 0x36
   224b4:	4628      	mov	r0, r5
   224b6:	4632      	mov	r2, r6
   224b8:	f004 fda7 	bl	2700a <__aeabi_memcpy>
   224bc:	a80e      	add	r0, sp, #56	@ 0x38
   224be:	2134      	movs	r1, #52	@ 0x34
   224c0:	f004 fbf6 	bl	26cb0 <__aeabi_memclr4>
   224c4:	4822      	ldr	r0, [pc, #136]	@ (22550 <_ZN18complex_no_dynamic3app17ha208c7bf401bd3baE+0xa8>)
   224c6:	2104      	movs	r1, #4
   224c8:	462a      	mov	r2, r5
   224ca:	4633      	mov	r3, r6
   224cc:	df04      	svc	4
   224ce:	2802      	cmp	r0, #2
   224d0:	d00e      	beq.n	224f0 <_ZN18complex_no_dynamic3app17ha208c7bf401bd3baE+0x48>
   224d2:	481f      	ldr	r0, [pc, #124]	@ (22550 <_ZN18complex_no_dynamic3app17ha208c7bf401bd3baE+0xa8>)
   224d4:	2102      	movs	r1, #2
   224d6:	aa0e      	add	r2, sp, #56	@ 0x38
   224d8:	2334      	movs	r3, #52	@ 0x34
   224da:	df03      	svc	3
   224dc:	2802      	cmp	r0, #2
   224de:	d007      	beq.n	224f0 <_ZN18complex_no_dynamic3app17ha208c7bf401bd3baE+0x48>
   224e0:	481b      	ldr	r0, [pc, #108]	@ (22550 <_ZN18complex_no_dynamic3app17ha208c7bf401bd3baE+0xa8>)
   224e2:	2104      	movs	r1, #4
   224e4:	2202      	movs	r2, #2
   224e6:	2500      	movs	r5, #0
   224e8:	462b      	mov	r3, r5
   224ea:	df02      	svc	2
   224ec:	287f      	cmp	r0, #127	@ 0x7f
   224ee:	d810      	bhi.n	22512 <_ZN18complex_no_dynamic3app17ha208c7bf401bd3baE+0x6a>
   224f0:	2001      	movs	r0, #1
   224f2:	7020      	strb	r0, [r4, #0]
   224f4:	6061      	str	r1, [r4, #4]
   224f6:	4c16      	ldr	r4, [pc, #88]	@ (22550 <_ZN18complex_no_dynamic3app17ha208c7bf401bd3baE+0xa8>)
   224f8:	2102      	movs	r1, #2
   224fa:	2500      	movs	r5, #0
   224fc:	4620      	mov	r0, r4
   224fe:	462a      	mov	r2, r5
   22500:	462b      	mov	r3, r5
   22502:	df03      	svc	3
   22504:	2104      	movs	r1, #4
   22506:	4620      	mov	r0, r4
   22508:	462a      	mov	r2, r5
   2250a:	462b      	mov	r3, r5
   2250c:	df04      	svc	4
   2250e:	b01b      	add	sp, #108	@ 0x6c
   22510:	bdf0      	pop	{r4, r5, r6, r7, pc}
   22512:	480f      	ldr	r0, [pc, #60]	@ (22550 <_ZN18complex_no_dynamic3app17ha208c7bf401bd3baE+0xa8>)
   22514:	2602      	movs	r6, #2
   22516:	4631      	mov	r1, r6
   22518:	462a      	mov	r2, r5
   2251a:	462b      	mov	r3, r5
   2251c:	df03      	svc	3
   2251e:	480c      	ldr	r0, [pc, #48]	@ (22550 <_ZN18complex_no_dynamic3app17ha208c7bf401bd3baE+0xa8>)
   22520:	4631      	mov	r1, r6
   22522:	462a      	mov	r2, r5
   22524:	462b      	mov	r3, r5
   22526:	df03      	svc	3
   22528:	1c60      	adds	r0, r4, #1
   2252a:	a90e      	add	r1, sp, #56	@ 0x38
   2252c:	2234      	movs	r2, #52	@ 0x34
   2252e:	f004 fd6c 	bl	2700a <__aeabi_memcpy>
   22532:	7025      	strb	r5, [r4, #0]
   22534:	4c06      	ldr	r4, [pc, #24]	@ (22550 <_ZN18complex_no_dynamic3app17ha208c7bf401bd3baE+0xa8>)
   22536:	4620      	mov	r0, r4
   22538:	4631      	mov	r1, r6
   2253a:	462a      	mov	r2, r5
   2253c:	462b      	mov	r3, r5
   2253e:	df03      	svc	3
   22540:	2104      	movs	r1, #4
   22542:	4620      	mov	r0, r4
   22544:	462a      	mov	r2, r5
   22546:	462b      	mov	r3, r5
   22548:	df04      	svc	4
   2254a:	b01b      	add	sp, #108	@ 0x6c
   2254c:	bdf0      	pop	{r4, r5, r6, r7, pc}
   2254e:	46c0      	nop			@ (mov r8, r8)
   22550:	000023c6 	.word	0x000023c6

00022554 <_ZN18complex_no_dynamic3app17ha2842a667577adf7E>:
   22554:	b5f0      	push	{r4, r5, r6, r7, lr}
   22556:	af03      	add	r7, sp, #12
   22558:	b0a3      	sub	sp, #140	@ 0x8c
   2255a:	4604      	mov	r4, r0
   2255c:	466d      	mov	r5, sp
   2255e:	2655      	movs	r6, #85	@ 0x55
   22560:	4628      	mov	r0, r5
   22562:	4632      	mov	r2, r6
   22564:	f004 fd51 	bl	2700a <__aeabi_memcpy>
   22568:	a816      	add	r0, sp, #88	@ 0x58
   2256a:	2132      	movs	r1, #50	@ 0x32
   2256c:	f004 fba0 	bl	26cb0 <__aeabi_memclr4>
   22570:	4822      	ldr	r0, [pc, #136]	@ (225fc <_ZN18complex_no_dynamic3app17ha2842a667577adf7E+0xa8>)
   22572:	2108      	movs	r1, #8
   22574:	462a      	mov	r2, r5
   22576:	4633      	mov	r3, r6
   22578:	df04      	svc	4
   2257a:	2802      	cmp	r0, #2
   2257c:	d00e      	beq.n	2259c <_ZN18complex_no_dynamic3app17ha2842a667577adf7E+0x48>
   2257e:	481f      	ldr	r0, [pc, #124]	@ (225fc <_ZN18complex_no_dynamic3app17ha2842a667577adf7E+0xa8>)
   22580:	2108      	movs	r1, #8
   22582:	aa16      	add	r2, sp, #88	@ 0x58
   22584:	2332      	movs	r3, #50	@ 0x32
   22586:	df03      	svc	3
   22588:	2802      	cmp	r0, #2
   2258a:	d007      	beq.n	2259c <_ZN18complex_no_dynamic3app17ha2842a667577adf7E+0x48>
   2258c:	481b      	ldr	r0, [pc, #108]	@ (225fc <_ZN18complex_no_dynamic3app17ha2842a667577adf7E+0xa8>)
   2258e:	2108      	movs	r1, #8
   22590:	2500      	movs	r5, #0
   22592:	460a      	mov	r2, r1
   22594:	462b      	mov	r3, r5
   22596:	df02      	svc	2
   22598:	287f      	cmp	r0, #127	@ 0x7f
   2259a:	d811      	bhi.n	225c0 <_ZN18complex_no_dynamic3app17ha2842a667577adf7E+0x6c>
   2259c:	2001      	movs	r0, #1
   2259e:	7020      	strb	r0, [r4, #0]
   225a0:	6061      	str	r1, [r4, #4]
   225a2:	4c16      	ldr	r4, [pc, #88]	@ (225fc <_ZN18complex_no_dynamic3app17ha2842a667577adf7E+0xa8>)
   225a4:	2508      	movs	r5, #8
   225a6:	2600      	movs	r6, #0
   225a8:	4620      	mov	r0, r4
   225aa:	4629      	mov	r1, r5
   225ac:	4632      	mov	r2, r6
   225ae:	4633      	mov	r3, r6
   225b0:	df03      	svc	3
   225b2:	4620      	mov	r0, r4
   225b4:	4629      	mov	r1, r5
   225b6:	4632      	mov	r2, r6
   225b8:	4633      	mov	r3, r6
   225ba:	df04      	svc	4
   225bc:	b023      	add	sp, #140	@ 0x8c
   225be:	bdf0      	pop	{r4, r5, r6, r7, pc}
   225c0:	480e      	ldr	r0, [pc, #56]	@ (225fc <_ZN18complex_no_dynamic3app17ha2842a667577adf7E+0xa8>)
   225c2:	2608      	movs	r6, #8
   225c4:	4631      	mov	r1, r6
   225c6:	462a      	mov	r2, r5
   225c8:	462b      	mov	r3, r5
   225ca:	df03      	svc	3
   225cc:	480b      	ldr	r0, [pc, #44]	@ (225fc <_ZN18complex_no_dynamic3app17ha2842a667577adf7E+0xa8>)
   225ce:	4631      	mov	r1, r6
   225d0:	462a      	mov	r2, r5
   225d2:	462b      	mov	r3, r5
   225d4:	df03      	svc	3
   225d6:	1c60      	adds	r0, r4, #1
   225d8:	a916      	add	r1, sp, #88	@ 0x58
   225da:	2232      	movs	r2, #50	@ 0x32
   225dc:	f004 fd15 	bl	2700a <__aeabi_memcpy>
   225e0:	7025      	strb	r5, [r4, #0]
   225e2:	4c06      	ldr	r4, [pc, #24]	@ (225fc <_ZN18complex_no_dynamic3app17ha2842a667577adf7E+0xa8>)
   225e4:	4620      	mov	r0, r4
   225e6:	4631      	mov	r1, r6
   225e8:	462a      	mov	r2, r5
   225ea:	462b      	mov	r3, r5
   225ec:	df03      	svc	3
   225ee:	4620      	mov	r0, r4
   225f0:	4631      	mov	r1, r6
   225f2:	462a      	mov	r2, r5
   225f4:	462b      	mov	r3, r5
   225f6:	df04      	svc	4
   225f8:	b023      	add	sp, #140	@ 0x8c
   225fa:	bdf0      	pop	{r4, r5, r6, r7, pc}
   225fc:	00002095 	.word	0x00002095

00022600 <_ZN18complex_no_dynamic3app17ha4fe8ab7019e104cE>:
   22600:	b5f0      	push	{r4, r5, r6, r7, lr}
   22602:	af03      	add	r7, sp, #12
   22604:	b09d      	sub	sp, #116	@ 0x74
   22606:	4604      	mov	r4, r0
   22608:	466d      	mov	r5, sp
   2260a:	261e      	movs	r6, #30
   2260c:	4628      	mov	r0, r5
   2260e:	4632      	mov	r2, r6
   22610:	f004 fcfb 	bl	2700a <__aeabi_memcpy>
   22614:	a808      	add	r0, sp, #32
   22616:	2151      	movs	r1, #81	@ 0x51
   22618:	f004 fb4a 	bl	26cb0 <__aeabi_memclr4>
   2261c:	4821      	ldr	r0, [pc, #132]	@ (226a4 <_ZN18complex_no_dynamic3app17ha4fe8ab7019e104cE+0xa4>)
   2261e:	2102      	movs	r1, #2
   22620:	462a      	mov	r2, r5
   22622:	4633      	mov	r3, r6
   22624:	df04      	svc	4
   22626:	2802      	cmp	r0, #2
   22628:	d00e      	beq.n	22648 <_ZN18complex_no_dynamic3app17ha4fe8ab7019e104cE+0x48>
   2262a:	481e      	ldr	r0, [pc, #120]	@ (226a4 <_ZN18complex_no_dynamic3app17ha4fe8ab7019e104cE+0xa4>)
   2262c:	2100      	movs	r1, #0
   2262e:	aa08      	add	r2, sp, #32
   22630:	2351      	movs	r3, #81	@ 0x51
   22632:	df03      	svc	3
   22634:	2802      	cmp	r0, #2
   22636:	d007      	beq.n	22648 <_ZN18complex_no_dynamic3app17ha4fe8ab7019e104cE+0x48>
   22638:	481a      	ldr	r0, [pc, #104]	@ (226a4 <_ZN18complex_no_dynamic3app17ha4fe8ab7019e104cE+0xa4>)
   2263a:	2102      	movs	r1, #2
   2263c:	2500      	movs	r5, #0
   2263e:	462a      	mov	r2, r5
   22640:	462b      	mov	r3, r5
   22642:	df02      	svc	2
   22644:	287f      	cmp	r0, #127	@ 0x7f
   22646:	d810      	bhi.n	2266a <_ZN18complex_no_dynamic3app17ha4fe8ab7019e104cE+0x6a>
   22648:	2001      	movs	r0, #1
   2264a:	7020      	strb	r0, [r4, #0]
   2264c:	6061      	str	r1, [r4, #4]
   2264e:	4c15      	ldr	r4, [pc, #84]	@ (226a4 <_ZN18complex_no_dynamic3app17ha4fe8ab7019e104cE+0xa4>)
   22650:	2500      	movs	r5, #0
   22652:	4620      	mov	r0, r4
   22654:	4629      	mov	r1, r5
   22656:	462a      	mov	r2, r5
   22658:	462b      	mov	r3, r5
   2265a:	df03      	svc	3
   2265c:	2102      	movs	r1, #2
   2265e:	4620      	mov	r0, r4
   22660:	462a      	mov	r2, r5
   22662:	462b      	mov	r3, r5
   22664:	df04      	svc	4
   22666:	b01d      	add	sp, #116	@ 0x74
   22668:	bdf0      	pop	{r4, r5, r6, r7, pc}
   2266a:	4e0e      	ldr	r6, [pc, #56]	@ (226a4 <_ZN18complex_no_dynamic3app17ha4fe8ab7019e104cE+0xa4>)
   2266c:	4630      	mov	r0, r6
   2266e:	4629      	mov	r1, r5
   22670:	462a      	mov	r2, r5
   22672:	462b      	mov	r3, r5
   22674:	df03      	svc	3
   22676:	4630      	mov	r0, r6
   22678:	4629      	mov	r1, r5
   2267a:	462a      	mov	r2, r5
   2267c:	462b      	mov	r3, r5
   2267e:	df03      	svc	3
   22680:	1c60      	adds	r0, r4, #1
   22682:	a908      	add	r1, sp, #32
   22684:	2251      	movs	r2, #81	@ 0x51
   22686:	f004 fcc0 	bl	2700a <__aeabi_memcpy>
   2268a:	7025      	strb	r5, [r4, #0]
   2268c:	4630      	mov	r0, r6
   2268e:	4629      	mov	r1, r5
   22690:	462a      	mov	r2, r5
   22692:	462b      	mov	r3, r5
   22694:	df03      	svc	3
   22696:	2102      	movs	r1, #2
   22698:	4630      	mov	r0, r6
   2269a:	462a      	mov	r2, r5
   2269c:	462b      	mov	r3, r5
   2269e:	df04      	svc	4
   226a0:	b01d      	add	sp, #116	@ 0x74
   226a2:	bdf0      	pop	{r4, r5, r6, r7, pc}
   226a4:	0000196b 	.word	0x0000196b

000226a8 <_ZN18complex_no_dynamic3app17ha5015b3def7319b5E>:
   226a8:	b5f0      	push	{r4, r5, r6, r7, lr}
   226aa:	af03      	add	r7, sp, #12
   226ac:	b09f      	sub	sp, #124	@ 0x7c
   226ae:	4604      	mov	r4, r0
   226b0:	466d      	mov	r5, sp
   226b2:	2631      	movs	r6, #49	@ 0x31
   226b4:	4628      	mov	r0, r5
   226b6:	4632      	mov	r2, r6
   226b8:	f004 fca7 	bl	2700a <__aeabi_memcpy>
   226bc:	a80d      	add	r0, sp, #52	@ 0x34
   226be:	2148      	movs	r1, #72	@ 0x48
   226c0:	f004 faf6 	bl	26cb0 <__aeabi_memclr4>
   226c4:	4822      	ldr	r0, [pc, #136]	@ (22750 <_ZN18complex_no_dynamic3app17ha5015b3def7319b5E+0xa8>)
   226c6:	2104      	movs	r1, #4
   226c8:	462a      	mov	r2, r5
   226ca:	4633      	mov	r3, r6
   226cc:	df04      	svc	4
   226ce:	2802      	cmp	r0, #2
   226d0:	d00e      	beq.n	226f0 <_ZN18complex_no_dynamic3app17ha5015b3def7319b5E+0x48>
   226d2:	481f      	ldr	r0, [pc, #124]	@ (22750 <_ZN18complex_no_dynamic3app17ha5015b3def7319b5E+0xa8>)
   226d4:	2103      	movs	r1, #3
   226d6:	aa0d      	add	r2, sp, #52	@ 0x34
   226d8:	2348      	movs	r3, #72	@ 0x48
   226da:	df03      	svc	3
   226dc:	2802      	cmp	r0, #2
   226de:	d007      	beq.n	226f0 <_ZN18complex_no_dynamic3app17ha5015b3def7319b5E+0x48>
   226e0:	481b      	ldr	r0, [pc, #108]	@ (22750 <_ZN18complex_no_dynamic3app17ha5015b3def7319b5E+0xa8>)
   226e2:	2104      	movs	r1, #4
   226e4:	2203      	movs	r2, #3
   226e6:	2500      	movs	r5, #0
   226e8:	462b      	mov	r3, r5
   226ea:	df02      	svc	2
   226ec:	287f      	cmp	r0, #127	@ 0x7f
   226ee:	d810      	bhi.n	22712 <_ZN18complex_no_dynamic3app17ha5015b3def7319b5E+0x6a>
   226f0:	2001      	movs	r0, #1
   226f2:	7020      	strb	r0, [r4, #0]
   226f4:	6061      	str	r1, [r4, #4]
   226f6:	4c16      	ldr	r4, [pc, #88]	@ (22750 <_ZN18complex_no_dynamic3app17ha5015b3def7319b5E+0xa8>)
   226f8:	2103      	movs	r1, #3
   226fa:	2500      	movs	r5, #0
   226fc:	4620      	mov	r0, r4
   226fe:	462a      	mov	r2, r5
   22700:	462b      	mov	r3, r5
   22702:	df03      	svc	3
   22704:	2104      	movs	r1, #4
   22706:	4620      	mov	r0, r4
   22708:	462a      	mov	r2, r5
   2270a:	462b      	mov	r3, r5
   2270c:	df04      	svc	4
   2270e:	b01f      	add	sp, #124	@ 0x7c
   22710:	bdf0      	pop	{r4, r5, r6, r7, pc}
   22712:	480f      	ldr	r0, [pc, #60]	@ (22750 <_ZN18complex_no_dynamic3app17ha5015b3def7319b5E+0xa8>)
   22714:	2603      	movs	r6, #3
   22716:	4631      	mov	r1, r6
   22718:	462a      	mov	r2, r5
   2271a:	462b      	mov	r3, r5
   2271c:	df03      	svc	3
   2271e:	480c      	ldr	r0, [pc, #48]	@ (22750 <_ZN18complex_no_dynamic3app17ha5015b3def7319b5E+0xa8>)
   22720:	4631      	mov	r1, r6
   22722:	462a      	mov	r2, r5
   22724:	462b      	mov	r3, r5
   22726:	df03      	svc	3
   22728:	1c60      	adds	r0, r4, #1
   2272a:	a90d      	add	r1, sp, #52	@ 0x34
   2272c:	2248      	movs	r2, #72	@ 0x48
   2272e:	f004 fc6c 	bl	2700a <__aeabi_memcpy>
   22732:	7025      	strb	r5, [r4, #0]
   22734:	4c06      	ldr	r4, [pc, #24]	@ (22750 <_ZN18complex_no_dynamic3app17ha5015b3def7319b5E+0xa8>)
   22736:	4620      	mov	r0, r4
   22738:	4631      	mov	r1, r6
   2273a:	462a      	mov	r2, r5
   2273c:	462b      	mov	r3, r5
   2273e:	df03      	svc	3
   22740:	2104      	movs	r1, #4
   22742:	4620      	mov	r0, r4
   22744:	462a      	mov	r2, r5
   22746:	462b      	mov	r3, r5
   22748:	df04      	svc	4
   2274a:	b01f      	add	sp, #124	@ 0x7c
   2274c:	bdf0      	pop	{r4, r5, r6, r7, pc}
   2274e:	46c0      	nop			@ (mov r8, r8)
   22750:	0000180e 	.word	0x0000180e

00022754 <_ZN18complex_no_dynamic3app17ha7d5891eb423c6b3E>:
   22754:	b5f0      	push	{r4, r5, r6, r7, lr}
   22756:	af03      	add	r7, sp, #12
   22758:	b09f      	sub	sp, #124	@ 0x7c
   2275a:	4604      	mov	r4, r0
   2275c:	466d      	mov	r5, sp
   2275e:	2627      	movs	r6, #39	@ 0x27
   22760:	4628      	mov	r0, r5
   22762:	4632      	mov	r2, r6
   22764:	f004 fc51 	bl	2700a <__aeabi_memcpy>
   22768:	a80a      	add	r0, sp, #40	@ 0x28
   2276a:	2151      	movs	r1, #81	@ 0x51
   2276c:	f004 faa0 	bl	26cb0 <__aeabi_memclr4>
   22770:	4822      	ldr	r0, [pc, #136]	@ (227fc <_ZN18complex_no_dynamic3app17ha7d5891eb423c6b3E+0xa8>)
   22772:	2100      	movs	r1, #0
   22774:	462a      	mov	r2, r5
   22776:	4633      	mov	r3, r6
   22778:	df04      	svc	4
   2277a:	2802      	cmp	r0, #2
   2277c:	d00e      	beq.n	2279c <_ZN18complex_no_dynamic3app17ha7d5891eb423c6b3E+0x48>
   2277e:	481f      	ldr	r0, [pc, #124]	@ (227fc <_ZN18complex_no_dynamic3app17ha7d5891eb423c6b3E+0xa8>)
   22780:	2104      	movs	r1, #4
   22782:	aa0a      	add	r2, sp, #40	@ 0x28
   22784:	2351      	movs	r3, #81	@ 0x51
   22786:	df03      	svc	3
   22788:	2802      	cmp	r0, #2
   2278a:	d007      	beq.n	2279c <_ZN18complex_no_dynamic3app17ha7d5891eb423c6b3E+0x48>
   2278c:	481b      	ldr	r0, [pc, #108]	@ (227fc <_ZN18complex_no_dynamic3app17ha7d5891eb423c6b3E+0xa8>)
   2278e:	2204      	movs	r2, #4
   22790:	2500      	movs	r5, #0
   22792:	4629      	mov	r1, r5
   22794:	462b      	mov	r3, r5
   22796:	df02      	svc	2
   22798:	287f      	cmp	r0, #127	@ 0x7f
   2279a:	d810      	bhi.n	227be <_ZN18complex_no_dynamic3app17ha7d5891eb423c6b3E+0x6a>
   2279c:	2001      	movs	r0, #1
   2279e:	7020      	strb	r0, [r4, #0]
   227a0:	6061      	str	r1, [r4, #4]
   227a2:	4c16      	ldr	r4, [pc, #88]	@ (227fc <_ZN18complex_no_dynamic3app17ha7d5891eb423c6b3E+0xa8>)
   227a4:	2104      	movs	r1, #4
   227a6:	2500      	movs	r5, #0
   227a8:	4620      	mov	r0, r4
   227aa:	462a      	mov	r2, r5
   227ac:	462b      	mov	r3, r5
   227ae:	df03      	svc	3
   227b0:	4620      	mov	r0, r4
   227b2:	4629      	mov	r1, r5
   227b4:	462a      	mov	r2, r5
   227b6:	462b      	mov	r3, r5
   227b8:	df04      	svc	4
   227ba:	b01f      	add	sp, #124	@ 0x7c
   227bc:	bdf0      	pop	{r4, r5, r6, r7, pc}
   227be:	480f      	ldr	r0, [pc, #60]	@ (227fc <_ZN18complex_no_dynamic3app17ha7d5891eb423c6b3E+0xa8>)
   227c0:	2604      	movs	r6, #4
   227c2:	4631      	mov	r1, r6
   227c4:	462a      	mov	r2, r5
   227c6:	462b      	mov	r3, r5
   227c8:	df03      	svc	3
   227ca:	480c      	ldr	r0, [pc, #48]	@ (227fc <_ZN18complex_no_dynamic3app17ha7d5891eb423c6b3E+0xa8>)
   227cc:	4631      	mov	r1, r6
   227ce:	462a      	mov	r2, r5
   227d0:	462b      	mov	r3, r5
   227d2:	df03      	svc	3
   227d4:	1c60      	adds	r0, r4, #1
   227d6:	a90a      	add	r1, sp, #40	@ 0x28
   227d8:	2251      	movs	r2, #81	@ 0x51
   227da:	f004 fc16 	bl	2700a <__aeabi_memcpy>
   227de:	7025      	strb	r5, [r4, #0]
   227e0:	4c06      	ldr	r4, [pc, #24]	@ (227fc <_ZN18complex_no_dynamic3app17ha7d5891eb423c6b3E+0xa8>)
   227e2:	4620      	mov	r0, r4
   227e4:	4631      	mov	r1, r6
   227e6:	462a      	mov	r2, r5
   227e8:	462b      	mov	r3, r5
   227ea:	df03      	svc	3
   227ec:	4620      	mov	r0, r4
   227ee:	4629      	mov	r1, r5
   227f0:	462a      	mov	r2, r5
   227f2:	462b      	mov	r3, r5
   227f4:	df04      	svc	4
   227f6:	b01f      	add	sp, #124	@ 0x7c
   227f8:	bdf0      	pop	{r4, r5, r6, r7, pc}
   227fa:	46c0      	nop			@ (mov r8, r8)
   227fc:	00000a36 	.word	0x00000a36

00022800 <_ZN18complex_no_dynamic3app17ha7ec29a5ade2a29fE>:
   22800:	b5f0      	push	{r4, r5, r6, r7, lr}
   22802:	af03      	add	r7, sp, #12
   22804:	b09b      	sub	sp, #108	@ 0x6c
   22806:	4604      	mov	r4, r0
   22808:	ad01      	add	r5, sp, #4
   2280a:	263c      	movs	r6, #60	@ 0x3c
   2280c:	4628      	mov	r0, r5
   2280e:	4632      	mov	r2, r6
   22810:	f004 fbfb 	bl	2700a <__aeabi_memcpy>
   22814:	a810      	add	r0, sp, #64	@ 0x40
   22816:	212c      	movs	r1, #44	@ 0x2c
   22818:	f004 fa4a 	bl	26cb0 <__aeabi_memclr4>
   2281c:	4822      	ldr	r0, [pc, #136]	@ (228a8 <_ZN18complex_no_dynamic3app17ha7ec29a5ade2a29fE+0xa8>)
   2281e:	2105      	movs	r1, #5
   22820:	462a      	mov	r2, r5
   22822:	4633      	mov	r3, r6
   22824:	df04      	svc	4
   22826:	2802      	cmp	r0, #2
   22828:	d00e      	beq.n	22848 <_ZN18complex_no_dynamic3app17ha7ec29a5ade2a29fE+0x48>
   2282a:	481f      	ldr	r0, [pc, #124]	@ (228a8 <_ZN18complex_no_dynamic3app17ha7ec29a5ade2a29fE+0xa8>)
   2282c:	2107      	movs	r1, #7
   2282e:	aa10      	add	r2, sp, #64	@ 0x40
   22830:	232c      	movs	r3, #44	@ 0x2c
   22832:	df03      	svc	3
   22834:	2802      	cmp	r0, #2
   22836:	d007      	beq.n	22848 <_ZN18complex_no_dynamic3app17ha7ec29a5ade2a29fE+0x48>
   22838:	481b      	ldr	r0, [pc, #108]	@ (228a8 <_ZN18complex_no_dynamic3app17ha7ec29a5ade2a29fE+0xa8>)
   2283a:	2105      	movs	r1, #5
   2283c:	2207      	movs	r2, #7
   2283e:	2500      	movs	r5, #0
   22840:	462b      	mov	r3, r5
   22842:	df02      	svc	2
   22844:	287f      	cmp	r0, #127	@ 0x7f
   22846:	d810      	bhi.n	2286a <_ZN18complex_no_dynamic3app17ha7ec29a5ade2a29fE+0x6a>
   22848:	2001      	movs	r0, #1
   2284a:	7020      	strb	r0, [r4, #0]
   2284c:	6061      	str	r1, [r4, #4]
   2284e:	4c16      	ldr	r4, [pc, #88]	@ (228a8 <_ZN18complex_no_dynamic3app17ha7ec29a5ade2a29fE+0xa8>)
   22850:	2107      	movs	r1, #7
   22852:	2500      	movs	r5, #0
   22854:	4620      	mov	r0, r4
   22856:	462a      	mov	r2, r5
   22858:	462b      	mov	r3, r5
   2285a:	df03      	svc	3
   2285c:	2105      	movs	r1, #5
   2285e:	4620      	mov	r0, r4
   22860:	462a      	mov	r2, r5
   22862:	462b      	mov	r3, r5
   22864:	df04      	svc	4
   22866:	b01b      	add	sp, #108	@ 0x6c
   22868:	bdf0      	pop	{r4, r5, r6, r7, pc}
   2286a:	480f      	ldr	r0, [pc, #60]	@ (228a8 <_ZN18complex_no_dynamic3app17ha7ec29a5ade2a29fE+0xa8>)
   2286c:	2607      	movs	r6, #7
   2286e:	4631      	mov	r1, r6
   22870:	462a      	mov	r2, r5
   22872:	462b      	mov	r3, r5
   22874:	df03      	svc	3
   22876:	480c      	ldr	r0, [pc, #48]	@ (228a8 <_ZN18complex_no_dynamic3app17ha7ec29a5ade2a29fE+0xa8>)
   22878:	4631      	mov	r1, r6
   2287a:	462a      	mov	r2, r5
   2287c:	462b      	mov	r3, r5
   2287e:	df03      	svc	3
   22880:	1c60      	adds	r0, r4, #1
   22882:	a910      	add	r1, sp, #64	@ 0x40
   22884:	222c      	movs	r2, #44	@ 0x2c
   22886:	f004 fbc0 	bl	2700a <__aeabi_memcpy>
   2288a:	7025      	strb	r5, [r4, #0]
   2288c:	4c06      	ldr	r4, [pc, #24]	@ (228a8 <_ZN18complex_no_dynamic3app17ha7ec29a5ade2a29fE+0xa8>)
   2288e:	4620      	mov	r0, r4
   22890:	4631      	mov	r1, r6
   22892:	462a      	mov	r2, r5
   22894:	462b      	mov	r3, r5
   22896:	df03      	svc	3
   22898:	2105      	movs	r1, #5
   2289a:	4620      	mov	r0, r4
   2289c:	462a      	mov	r2, r5
   2289e:	462b      	mov	r3, r5
   228a0:	df04      	svc	4
   228a2:	b01b      	add	sp, #108	@ 0x6c
   228a4:	bdf0      	pop	{r4, r5, r6, r7, pc}
   228a6:	46c0      	nop			@ (mov r8, r8)
   228a8:	00001eac 	.word	0x00001eac

000228ac <_ZN18complex_no_dynamic3app17ha93a72525d34a7b4E>:
   228ac:	b5f0      	push	{r4, r5, r6, r7, lr}
   228ae:	af03      	add	r7, sp, #12
   228b0:	b08f      	sub	sp, #60	@ 0x3c
   228b2:	4604      	mov	r4, r0
   228b4:	466d      	mov	r5, sp
   228b6:	262b      	movs	r6, #43	@ 0x2b
   228b8:	4628      	mov	r0, r5
   228ba:	4632      	mov	r2, r6
   228bc:	f004 fba5 	bl	2700a <__aeabi_memcpy>
   228c0:	a80b      	add	r0, sp, #44	@ 0x2c
   228c2:	2100      	movs	r1, #0
   228c4:	7301      	strb	r1, [r0, #12]
   228c6:	910d      	str	r1, [sp, #52]	@ 0x34
   228c8:	910c      	str	r1, [sp, #48]	@ 0x30
   228ca:	910b      	str	r1, [sp, #44]	@ 0x2c
   228cc:	4821      	ldr	r0, [pc, #132]	@ (22954 <_ZN18complex_no_dynamic3app17ha93a72525d34a7b4E+0xa8>)
   228ce:	2106      	movs	r1, #6
   228d0:	462a      	mov	r2, r5
   228d2:	4633      	mov	r3, r6
   228d4:	df04      	svc	4
   228d6:	2802      	cmp	r0, #2
   228d8:	d00e      	beq.n	228f8 <_ZN18complex_no_dynamic3app17ha93a72525d34a7b4E+0x4c>
   228da:	481e      	ldr	r0, [pc, #120]	@ (22954 <_ZN18complex_no_dynamic3app17ha93a72525d34a7b4E+0xa8>)
   228dc:	2100      	movs	r1, #0
   228de:	aa0b      	add	r2, sp, #44	@ 0x2c
   228e0:	230d      	movs	r3, #13
   228e2:	df03      	svc	3
   228e4:	2802      	cmp	r0, #2
   228e6:	d007      	beq.n	228f8 <_ZN18complex_no_dynamic3app17ha93a72525d34a7b4E+0x4c>
   228e8:	481a      	ldr	r0, [pc, #104]	@ (22954 <_ZN18complex_no_dynamic3app17ha93a72525d34a7b4E+0xa8>)
   228ea:	2106      	movs	r1, #6
   228ec:	2500      	movs	r5, #0
   228ee:	462a      	mov	r2, r5
   228f0:	462b      	mov	r3, r5
   228f2:	df02      	svc	2
   228f4:	287f      	cmp	r0, #127	@ 0x7f
   228f6:	d810      	bhi.n	2291a <_ZN18complex_no_dynamic3app17ha93a72525d34a7b4E+0x6e>
   228f8:	2001      	movs	r0, #1
   228fa:	7020      	strb	r0, [r4, #0]
   228fc:	6061      	str	r1, [r4, #4]
   228fe:	4c15      	ldr	r4, [pc, #84]	@ (22954 <_ZN18complex_no_dynamic3app17ha93a72525d34a7b4E+0xa8>)
   22900:	2500      	movs	r5, #0
   22902:	4620      	mov	r0, r4
   22904:	4629      	mov	r1, r5
   22906:	462a      	mov	r2, r5
   22908:	462b      	mov	r3, r5
   2290a:	df03      	svc	3
   2290c:	2106      	movs	r1, #6
   2290e:	4620      	mov	r0, r4
   22910:	462a      	mov	r2, r5
   22912:	462b      	mov	r3, r5
   22914:	df04      	svc	4
   22916:	b00f      	add	sp, #60	@ 0x3c
   22918:	bdf0      	pop	{r4, r5, r6, r7, pc}
   2291a:	4e0e      	ldr	r6, [pc, #56]	@ (22954 <_ZN18complex_no_dynamic3app17ha93a72525d34a7b4E+0xa8>)
   2291c:	4630      	mov	r0, r6
   2291e:	4629      	mov	r1, r5
   22920:	462a      	mov	r2, r5
   22922:	462b      	mov	r3, r5
   22924:	df03      	svc	3
   22926:	4630      	mov	r0, r6
   22928:	4629      	mov	r1, r5
   2292a:	462a      	mov	r2, r5
   2292c:	462b      	mov	r3, r5
   2292e:	df03      	svc	3
   22930:	1c60      	adds	r0, r4, #1
   22932:	a90b      	add	r1, sp, #44	@ 0x2c
   22934:	220d      	movs	r2, #13
   22936:	f004 fb68 	bl	2700a <__aeabi_memcpy>
   2293a:	7025      	strb	r5, [r4, #0]
   2293c:	4630      	mov	r0, r6
   2293e:	4629      	mov	r1, r5
   22940:	462a      	mov	r2, r5
   22942:	462b      	mov	r3, r5
   22944:	df03      	svc	3
   22946:	2106      	movs	r1, #6
   22948:	4630      	mov	r0, r6
   2294a:	462a      	mov	r2, r5
   2294c:	462b      	mov	r3, r5
   2294e:	df04      	svc	4
   22950:	b00f      	add	sp, #60	@ 0x3c
   22952:	bdf0      	pop	{r4, r5, r6, r7, pc}
   22954:	00001465 	.word	0x00001465

00022958 <_ZN18complex_no_dynamic3app17haa48fa852ed18ad5E>:
   22958:	b5f0      	push	{r4, r5, r6, r7, lr}
   2295a:	af03      	add	r7, sp, #12
   2295c:	b09d      	sub	sp, #116	@ 0x74
   2295e:	4604      	mov	r4, r0
   22960:	ad01      	add	r5, sp, #4
   22962:	263c      	movs	r6, #60	@ 0x3c
   22964:	4628      	mov	r0, r5
   22966:	4632      	mov	r2, r6
   22968:	f004 fb4f 	bl	2700a <__aeabi_memcpy>
   2296c:	a810      	add	r0, sp, #64	@ 0x40
   2296e:	2132      	movs	r1, #50	@ 0x32
   22970:	f004 f99e 	bl	26cb0 <__aeabi_memclr4>
   22974:	4822      	ldr	r0, [pc, #136]	@ (22a00 <_ZN18complex_no_dynamic3app17haa48fa852ed18ad5E+0xa8>)
   22976:	2106      	movs	r1, #6
   22978:	462a      	mov	r2, r5
   2297a:	4633      	mov	r3, r6
   2297c:	df04      	svc	4
   2297e:	2802      	cmp	r0, #2
   22980:	d00e      	beq.n	229a0 <_ZN18complex_no_dynamic3app17haa48fa852ed18ad5E+0x48>
   22982:	481f      	ldr	r0, [pc, #124]	@ (22a00 <_ZN18complex_no_dynamic3app17haa48fa852ed18ad5E+0xa8>)
   22984:	2108      	movs	r1, #8
   22986:	aa10      	add	r2, sp, #64	@ 0x40
   22988:	2332      	movs	r3, #50	@ 0x32
   2298a:	df03      	svc	3
   2298c:	2802      	cmp	r0, #2
   2298e:	d007      	beq.n	229a0 <_ZN18complex_no_dynamic3app17haa48fa852ed18ad5E+0x48>
   22990:	481b      	ldr	r0, [pc, #108]	@ (22a00 <_ZN18complex_no_dynamic3app17haa48fa852ed18ad5E+0xa8>)
   22992:	2106      	movs	r1, #6
   22994:	2208      	movs	r2, #8
   22996:	2500      	movs	r5, #0
   22998:	462b      	mov	r3, r5
   2299a:	df02      	svc	2
   2299c:	287f      	cmp	r0, #127	@ 0x7f
   2299e:	d810      	bhi.n	229c2 <_ZN18complex_no_dynamic3app17haa48fa852ed18ad5E+0x6a>
   229a0:	2001      	movs	r0, #1
   229a2:	7020      	strb	r0, [r4, #0]
   229a4:	6061      	str	r1, [r4, #4]
   229a6:	4c16      	ldr	r4, [pc, #88]	@ (22a00 <_ZN18complex_no_dynamic3app17haa48fa852ed18ad5E+0xa8>)
   229a8:	2108      	movs	r1, #8
   229aa:	2500      	movs	r5, #0
   229ac:	4620      	mov	r0, r4
   229ae:	462a      	mov	r2, r5
   229b0:	462b      	mov	r3, r5
   229b2:	df03      	svc	3
   229b4:	2106      	movs	r1, #6
   229b6:	4620      	mov	r0, r4
   229b8:	462a      	mov	r2, r5
   229ba:	462b      	mov	r3, r5
   229bc:	df04      	svc	4
   229be:	b01d      	add	sp, #116	@ 0x74
   229c0:	bdf0      	pop	{r4, r5, r6, r7, pc}
   229c2:	480f      	ldr	r0, [pc, #60]	@ (22a00 <_ZN18complex_no_dynamic3app17haa48fa852ed18ad5E+0xa8>)
   229c4:	2608      	movs	r6, #8
   229c6:	4631      	mov	r1, r6
   229c8:	462a      	mov	r2, r5
   229ca:	462b      	mov	r3, r5
   229cc:	df03      	svc	3
   229ce:	480c      	ldr	r0, [pc, #48]	@ (22a00 <_ZN18complex_no_dynamic3app17haa48fa852ed18ad5E+0xa8>)
   229d0:	4631      	mov	r1, r6
   229d2:	462a      	mov	r2, r5
   229d4:	462b      	mov	r3, r5
   229d6:	df03      	svc	3
   229d8:	1c60      	adds	r0, r4, #1
   229da:	a910      	add	r1, sp, #64	@ 0x40
   229dc:	2232      	movs	r2, #50	@ 0x32
   229de:	f004 fb14 	bl	2700a <__aeabi_memcpy>
   229e2:	7025      	strb	r5, [r4, #0]
   229e4:	4c06      	ldr	r4, [pc, #24]	@ (22a00 <_ZN18complex_no_dynamic3app17haa48fa852ed18ad5E+0xa8>)
   229e6:	4620      	mov	r0, r4
   229e8:	4631      	mov	r1, r6
   229ea:	462a      	mov	r2, r5
   229ec:	462b      	mov	r3, r5
   229ee:	df03      	svc	3
   229f0:	2106      	movs	r1, #6
   229f2:	4620      	mov	r0, r4
   229f4:	462a      	mov	r2, r5
   229f6:	462b      	mov	r3, r5
   229f8:	df04      	svc	4
   229fa:	b01d      	add	sp, #116	@ 0x74
   229fc:	bdf0      	pop	{r4, r5, r6, r7, pc}
   229fe:	46c0      	nop			@ (mov r8, r8)
   22a00:	00001b1e 	.word	0x00001b1e

00022a04 <_ZN18complex_no_dynamic3app17haaecfc6404d6f944E>:
   22a04:	b5f0      	push	{r4, r5, r6, r7, lr}
   22a06:	af03      	add	r7, sp, #12
   22a08:	b0a9      	sub	sp, #164	@ 0xa4
   22a0a:	4604      	mov	r4, r0
   22a0c:	466d      	mov	r5, sp
   22a0e:	2651      	movs	r6, #81	@ 0x51
   22a10:	4628      	mov	r0, r5
   22a12:	4632      	mov	r2, r6
   22a14:	f004 faf9 	bl	2700a <__aeabi_memcpy>
   22a18:	a815      	add	r0, sp, #84	@ 0x54
   22a1a:	214f      	movs	r1, #79	@ 0x4f
   22a1c:	f004 f948 	bl	26cb0 <__aeabi_memclr4>
   22a20:	4822      	ldr	r0, [pc, #136]	@ (22aac <_ZN18complex_no_dynamic3app17haaecfc6404d6f944E+0xa8>)
   22a22:	2104      	movs	r1, #4
   22a24:	462a      	mov	r2, r5
   22a26:	4633      	mov	r3, r6
   22a28:	df04      	svc	4
   22a2a:	2802      	cmp	r0, #2
   22a2c:	d00e      	beq.n	22a4c <_ZN18complex_no_dynamic3app17haaecfc6404d6f944E+0x48>
   22a2e:	481f      	ldr	r0, [pc, #124]	@ (22aac <_ZN18complex_no_dynamic3app17haaecfc6404d6f944E+0xa8>)
   22a30:	2109      	movs	r1, #9
   22a32:	aa15      	add	r2, sp, #84	@ 0x54
   22a34:	234f      	movs	r3, #79	@ 0x4f
   22a36:	df03      	svc	3
   22a38:	2802      	cmp	r0, #2
   22a3a:	d007      	beq.n	22a4c <_ZN18complex_no_dynamic3app17haaecfc6404d6f944E+0x48>
   22a3c:	481b      	ldr	r0, [pc, #108]	@ (22aac <_ZN18complex_no_dynamic3app17haaecfc6404d6f944E+0xa8>)
   22a3e:	2104      	movs	r1, #4
   22a40:	2209      	movs	r2, #9
   22a42:	2500      	movs	r5, #0
   22a44:	462b      	mov	r3, r5
   22a46:	df02      	svc	2
   22a48:	287f      	cmp	r0, #127	@ 0x7f
   22a4a:	d810      	bhi.n	22a6e <_ZN18complex_no_dynamic3app17haaecfc6404d6f944E+0x6a>
   22a4c:	2001      	movs	r0, #1
   22a4e:	7020      	strb	r0, [r4, #0]
   22a50:	6061      	str	r1, [r4, #4]
   22a52:	4c16      	ldr	r4, [pc, #88]	@ (22aac <_ZN18complex_no_dynamic3app17haaecfc6404d6f944E+0xa8>)
   22a54:	2109      	movs	r1, #9
   22a56:	2500      	movs	r5, #0
   22a58:	4620      	mov	r0, r4
   22a5a:	462a      	mov	r2, r5
   22a5c:	462b      	mov	r3, r5
   22a5e:	df03      	svc	3
   22a60:	2104      	movs	r1, #4
   22a62:	4620      	mov	r0, r4
   22a64:	462a      	mov	r2, r5
   22a66:	462b      	mov	r3, r5
   22a68:	df04      	svc	4
   22a6a:	b029      	add	sp, #164	@ 0xa4
   22a6c:	bdf0      	pop	{r4, r5, r6, r7, pc}
   22a6e:	480f      	ldr	r0, [pc, #60]	@ (22aac <_ZN18complex_no_dynamic3app17haaecfc6404d6f944E+0xa8>)
   22a70:	2609      	movs	r6, #9
   22a72:	4631      	mov	r1, r6
   22a74:	462a      	mov	r2, r5
   22a76:	462b      	mov	r3, r5
   22a78:	df03      	svc	3
   22a7a:	480c      	ldr	r0, [pc, #48]	@ (22aac <_ZN18complex_no_dynamic3app17haaecfc6404d6f944E+0xa8>)
   22a7c:	4631      	mov	r1, r6
   22a7e:	462a      	mov	r2, r5
   22a80:	462b      	mov	r3, r5
   22a82:	df03      	svc	3
   22a84:	1c60      	adds	r0, r4, #1
   22a86:	a915      	add	r1, sp, #84	@ 0x54
   22a88:	224f      	movs	r2, #79	@ 0x4f
   22a8a:	f004 fabe 	bl	2700a <__aeabi_memcpy>
   22a8e:	7025      	strb	r5, [r4, #0]
   22a90:	4c06      	ldr	r4, [pc, #24]	@ (22aac <_ZN18complex_no_dynamic3app17haaecfc6404d6f944E+0xa8>)
   22a92:	4620      	mov	r0, r4
   22a94:	4631      	mov	r1, r6
   22a96:	462a      	mov	r2, r5
   22a98:	462b      	mov	r3, r5
   22a9a:	df03      	svc	3
   22a9c:	2104      	movs	r1, #4
   22a9e:	4620      	mov	r0, r4
   22aa0:	462a      	mov	r2, r5
   22aa2:	462b      	mov	r3, r5
   22aa4:	df04      	svc	4
   22aa6:	b029      	add	sp, #164	@ 0xa4
   22aa8:	bdf0      	pop	{r4, r5, r6, r7, pc}
   22aaa:	46c0      	nop			@ (mov r8, r8)
   22aac:	000020ee 	.word	0x000020ee

00022ab0 <_ZN18complex_no_dynamic3app17hab78c79232b12bbbE>:
   22ab0:	b5f0      	push	{r4, r5, r6, r7, lr}
   22ab2:	af03      	add	r7, sp, #12
   22ab4:	b093      	sub	sp, #76	@ 0x4c
   22ab6:	4604      	mov	r4, r0
   22ab8:	466d      	mov	r5, sp
   22aba:	261e      	movs	r6, #30
   22abc:	4628      	mov	r0, r5
   22abe:	4632      	mov	r2, r6
   22ac0:	f004 faa3 	bl	2700a <__aeabi_memcpy>
   22ac4:	a808      	add	r0, sp, #32
   22ac6:	212c      	movs	r1, #44	@ 0x2c
   22ac8:	f004 f8f2 	bl	26cb0 <__aeabi_memclr4>
   22acc:	4821      	ldr	r0, [pc, #132]	@ (22b54 <_ZN18complex_no_dynamic3app17hab78c79232b12bbbE+0xa4>)
   22ace:	2107      	movs	r1, #7
   22ad0:	462a      	mov	r2, r5
   22ad2:	4633      	mov	r3, r6
   22ad4:	df04      	svc	4
   22ad6:	2802      	cmp	r0, #2
   22ad8:	d00e      	beq.n	22af8 <_ZN18complex_no_dynamic3app17hab78c79232b12bbbE+0x48>
   22ada:	481e      	ldr	r0, [pc, #120]	@ (22b54 <_ZN18complex_no_dynamic3app17hab78c79232b12bbbE+0xa4>)
   22adc:	2100      	movs	r1, #0
   22ade:	aa08      	add	r2, sp, #32
   22ae0:	232c      	movs	r3, #44	@ 0x2c
   22ae2:	df03      	svc	3
   22ae4:	2802      	cmp	r0, #2
   22ae6:	d007      	beq.n	22af8 <_ZN18complex_no_dynamic3app17hab78c79232b12bbbE+0x48>
   22ae8:	481a      	ldr	r0, [pc, #104]	@ (22b54 <_ZN18complex_no_dynamic3app17hab78c79232b12bbbE+0xa4>)
   22aea:	2107      	movs	r1, #7
   22aec:	2500      	movs	r5, #0
   22aee:	462a      	mov	r2, r5
   22af0:	462b      	mov	r3, r5
   22af2:	df02      	svc	2
   22af4:	287f      	cmp	r0, #127	@ 0x7f
   22af6:	d810      	bhi.n	22b1a <_ZN18complex_no_dynamic3app17hab78c79232b12bbbE+0x6a>
   22af8:	2001      	movs	r0, #1
   22afa:	7020      	strb	r0, [r4, #0]
   22afc:	6061      	str	r1, [r4, #4]
   22afe:	4c15      	ldr	r4, [pc, #84]	@ (22b54 <_ZN18complex_no_dynamic3app17hab78c79232b12bbbE+0xa4>)
   22b00:	2500      	movs	r5, #0
   22b02:	4620      	mov	r0, r4
   22b04:	4629      	mov	r1, r5
   22b06:	462a      	mov	r2, r5
   22b08:	462b      	mov	r3, r5
   22b0a:	df03      	svc	3
   22b0c:	2107      	movs	r1, #7
   22b0e:	4620      	mov	r0, r4
   22b10:	462a      	mov	r2, r5
   22b12:	462b      	mov	r3, r5
   22b14:	df04      	svc	4
   22b16:	b013      	add	sp, #76	@ 0x4c
   22b18:	bdf0      	pop	{r4, r5, r6, r7, pc}
   22b1a:	4e0e      	ldr	r6, [pc, #56]	@ (22b54 <_ZN18complex_no_dynamic3app17hab78c79232b12bbbE+0xa4>)
   22b1c:	4630      	mov	r0, r6
   22b1e:	4629      	mov	r1, r5
   22b20:	462a      	mov	r2, r5
   22b22:	462b      	mov	r3, r5
   22b24:	df03      	svc	3
   22b26:	4630      	mov	r0, r6
   22b28:	4629      	mov	r1, r5
   22b2a:	462a      	mov	r2, r5
   22b2c:	462b      	mov	r3, r5
   22b2e:	df03      	svc	3
   22b30:	1c60      	adds	r0, r4, #1
   22b32:	a908      	add	r1, sp, #32
   22b34:	222c      	movs	r2, #44	@ 0x2c
   22b36:	f004 fa68 	bl	2700a <__aeabi_memcpy>
   22b3a:	7025      	strb	r5, [r4, #0]
   22b3c:	4630      	mov	r0, r6
   22b3e:	4629      	mov	r1, r5
   22b40:	462a      	mov	r2, r5
   22b42:	462b      	mov	r3, r5
   22b44:	df03      	svc	3
   22b46:	2107      	movs	r1, #7
   22b48:	4630      	mov	r0, r6
   22b4a:	462a      	mov	r2, r5
   22b4c:	462b      	mov	r3, r5
   22b4e:	df04      	svc	4
   22b50:	b013      	add	sp, #76	@ 0x4c
   22b52:	bdf0      	pop	{r4, r5, r6, r7, pc}
   22b54:	000003fb 	.word	0x000003fb

00022b58 <_ZN18complex_no_dynamic3app17habafbdd556de511aE>:
   22b58:	b5f0      	push	{r4, r5, r6, r7, lr}
   22b5a:	af03      	add	r7, sp, #12
   22b5c:	b095      	sub	sp, #84	@ 0x54
   22b5e:	4604      	mov	r4, r0
   22b60:	ad01      	add	r5, sp, #4
   22b62:	2634      	movs	r6, #52	@ 0x34
   22b64:	4628      	mov	r0, r5
   22b66:	4632      	mov	r2, r6
   22b68:	f004 fa4f 	bl	2700a <__aeabi_memcpy>
   22b6c:	a80e      	add	r0, sp, #56	@ 0x38
   22b6e:	2100      	movs	r1, #0
   22b70:	8301      	strh	r1, [r0, #24]
   22b72:	9113      	str	r1, [sp, #76]	@ 0x4c
   22b74:	9112      	str	r1, [sp, #72]	@ 0x48
   22b76:	9111      	str	r1, [sp, #68]	@ 0x44
   22b78:	9110      	str	r1, [sp, #64]	@ 0x40
   22b7a:	910f      	str	r1, [sp, #60]	@ 0x3c
   22b7c:	910e      	str	r1, [sp, #56]	@ 0x38
   22b7e:	4822      	ldr	r0, [pc, #136]	@ (22c08 <_ZN18complex_no_dynamic3app17habafbdd556de511aE+0xb0>)
   22b80:	462a      	mov	r2, r5
   22b82:	4633      	mov	r3, r6
   22b84:	df04      	svc	4
   22b86:	2802      	cmp	r0, #2
   22b88:	d00e      	beq.n	22ba8 <_ZN18complex_no_dynamic3app17habafbdd556de511aE+0x50>
   22b8a:	481f      	ldr	r0, [pc, #124]	@ (22c08 <_ZN18complex_no_dynamic3app17habafbdd556de511aE+0xb0>)
   22b8c:	2105      	movs	r1, #5
   22b8e:	aa0e      	add	r2, sp, #56	@ 0x38
   22b90:	231a      	movs	r3, #26
   22b92:	df03      	svc	3
   22b94:	2802      	cmp	r0, #2
   22b96:	d007      	beq.n	22ba8 <_ZN18complex_no_dynamic3app17habafbdd556de511aE+0x50>
   22b98:	481b      	ldr	r0, [pc, #108]	@ (22c08 <_ZN18complex_no_dynamic3app17habafbdd556de511aE+0xb0>)
   22b9a:	2205      	movs	r2, #5
   22b9c:	2500      	movs	r5, #0
   22b9e:	4629      	mov	r1, r5
   22ba0:	462b      	mov	r3, r5
   22ba2:	df02      	svc	2
   22ba4:	287f      	cmp	r0, #127	@ 0x7f
   22ba6:	d810      	bhi.n	22bca <_ZN18complex_no_dynamic3app17habafbdd556de511aE+0x72>
   22ba8:	2001      	movs	r0, #1
   22baa:	7020      	strb	r0, [r4, #0]
   22bac:	6061      	str	r1, [r4, #4]
   22bae:	4c16      	ldr	r4, [pc, #88]	@ (22c08 <_ZN18complex_no_dynamic3app17habafbdd556de511aE+0xb0>)
   22bb0:	2105      	movs	r1, #5
   22bb2:	2500      	movs	r5, #0
   22bb4:	4620      	mov	r0, r4
   22bb6:	462a      	mov	r2, r5
   22bb8:	462b      	mov	r3, r5
   22bba:	df03      	svc	3
   22bbc:	4620      	mov	r0, r4
   22bbe:	4629      	mov	r1, r5
   22bc0:	462a      	mov	r2, r5
   22bc2:	462b      	mov	r3, r5
   22bc4:	df04      	svc	4
   22bc6:	b015      	add	sp, #84	@ 0x54
   22bc8:	bdf0      	pop	{r4, r5, r6, r7, pc}
   22bca:	480f      	ldr	r0, [pc, #60]	@ (22c08 <_ZN18complex_no_dynamic3app17habafbdd556de511aE+0xb0>)
   22bcc:	2605      	movs	r6, #5
   22bce:	4631      	mov	r1, r6
   22bd0:	462a      	mov	r2, r5
   22bd2:	462b      	mov	r3, r5
   22bd4:	df03      	svc	3
   22bd6:	480c      	ldr	r0, [pc, #48]	@ (22c08 <_ZN18complex_no_dynamic3app17habafbdd556de511aE+0xb0>)
   22bd8:	4631      	mov	r1, r6
   22bda:	462a      	mov	r2, r5
   22bdc:	462b      	mov	r3, r5
   22bde:	df03      	svc	3
   22be0:	1c60      	adds	r0, r4, #1
   22be2:	a90e      	add	r1, sp, #56	@ 0x38
   22be4:	221a      	movs	r2, #26
   22be6:	f004 fa10 	bl	2700a <__aeabi_memcpy>
   22bea:	7025      	strb	r5, [r4, #0]
   22bec:	4c06      	ldr	r4, [pc, #24]	@ (22c08 <_ZN18complex_no_dynamic3app17habafbdd556de511aE+0xb0>)
   22bee:	4620      	mov	r0, r4
   22bf0:	4631      	mov	r1, r6
   22bf2:	462a      	mov	r2, r5
   22bf4:	462b      	mov	r3, r5
   22bf6:	df03      	svc	3
   22bf8:	4620      	mov	r0, r4
   22bfa:	4629      	mov	r1, r5
   22bfc:	462a      	mov	r2, r5
   22bfe:	462b      	mov	r3, r5
   22c00:	df04      	svc	4
   22c02:	b015      	add	sp, #84	@ 0x54
   22c04:	bdf0      	pop	{r4, r5, r6, r7, pc}
   22c06:	46c0      	nop			@ (mov r8, r8)
   22c08:	000012cc 	.word	0x000012cc

00022c0c <_ZN18complex_no_dynamic3app17hac41ed5e6e24bb12E>:
   22c0c:	b5f0      	push	{r4, r5, r6, r7, lr}
   22c0e:	af03      	add	r7, sp, #12
   22c10:	b097      	sub	sp, #92	@ 0x5c
   22c12:	9001      	str	r0, [sp, #4]
   22c14:	ae02      	add	r6, sp, #8
   22c16:	2411      	movs	r4, #17
   22c18:	4630      	mov	r0, r6
   22c1a:	4622      	mov	r2, r4
   22c1c:	f004 f9f5 	bl	2700a <__aeabi_memcpy>
   22c20:	a807      	add	r0, sp, #28
   22c22:	213f      	movs	r1, #63	@ 0x3f
   22c24:	f004 f844 	bl	26cb0 <__aeabi_memclr4>
   22c28:	20cb      	movs	r0, #203	@ 0xcb
   22c2a:	0105      	lsls	r5, r0, #4
   22c2c:	2107      	movs	r1, #7
   22c2e:	4628      	mov	r0, r5
   22c30:	4632      	mov	r2, r6
   22c32:	4623      	mov	r3, r4
   22c34:	df04      	svc	4
   22c36:	2802      	cmp	r0, #2
   22c38:	d00e      	beq.n	22c58 <_ZN18complex_no_dynamic3app17hac41ed5e6e24bb12E+0x4c>
   22c3a:	2104      	movs	r1, #4
   22c3c:	aa07      	add	r2, sp, #28
   22c3e:	233f      	movs	r3, #63	@ 0x3f
   22c40:	4628      	mov	r0, r5
   22c42:	df03      	svc	3
   22c44:	2802      	cmp	r0, #2
   22c46:	d007      	beq.n	22c58 <_ZN18complex_no_dynamic3app17hac41ed5e6e24bb12E+0x4c>
   22c48:	2107      	movs	r1, #7
   22c4a:	2204      	movs	r2, #4
   22c4c:	2600      	movs	r6, #0
   22c4e:	4628      	mov	r0, r5
   22c50:	4633      	mov	r3, r6
   22c52:	df02      	svc	2
   22c54:	287f      	cmp	r0, #127	@ 0x7f
   22c56:	d810      	bhi.n	22c7a <_ZN18complex_no_dynamic3app17hac41ed5e6e24bb12E+0x6e>
   22c58:	2001      	movs	r0, #1
   22c5a:	9a01      	ldr	r2, [sp, #4]
   22c5c:	7010      	strb	r0, [r2, #0]
   22c5e:	6051      	str	r1, [r2, #4]
   22c60:	2104      	movs	r1, #4
   22c62:	2400      	movs	r4, #0
   22c64:	4628      	mov	r0, r5
   22c66:	4622      	mov	r2, r4
   22c68:	4623      	mov	r3, r4
   22c6a:	df03      	svc	3
   22c6c:	2107      	movs	r1, #7
   22c6e:	4628      	mov	r0, r5
   22c70:	4622      	mov	r2, r4
   22c72:	4623      	mov	r3, r4
   22c74:	df04      	svc	4
   22c76:	b017      	add	sp, #92	@ 0x5c
   22c78:	bdf0      	pop	{r4, r5, r6, r7, pc}
   22c7a:	2404      	movs	r4, #4
   22c7c:	9400      	str	r4, [sp, #0]
   22c7e:	4628      	mov	r0, r5
   22c80:	4621      	mov	r1, r4
   22c82:	4632      	mov	r2, r6
   22c84:	4633      	mov	r3, r6
   22c86:	df03      	svc	3
   22c88:	4628      	mov	r0, r5
   22c8a:	4621      	mov	r1, r4
   22c8c:	4632      	mov	r2, r6
   22c8e:	4633      	mov	r3, r6
   22c90:	df03      	svc	3
   22c92:	9c01      	ldr	r4, [sp, #4]
   22c94:	1c60      	adds	r0, r4, #1
   22c96:	a907      	add	r1, sp, #28
   22c98:	223f      	movs	r2, #63	@ 0x3f
   22c9a:	f004 f9b6 	bl	2700a <__aeabi_memcpy>
   22c9e:	7026      	strb	r6, [r4, #0]
   22ca0:	4628      	mov	r0, r5
   22ca2:	9900      	ldr	r1, [sp, #0]
   22ca4:	4632      	mov	r2, r6
   22ca6:	4633      	mov	r3, r6
   22ca8:	df03      	svc	3
   22caa:	2107      	movs	r1, #7
   22cac:	4628      	mov	r0, r5
   22cae:	4632      	mov	r2, r6
   22cb0:	4633      	mov	r3, r6
   22cb2:	df04      	svc	4
   22cb4:	b017      	add	sp, #92	@ 0x5c
   22cb6:	bdf0      	pop	{r4, r5, r6, r7, pc}

00022cb8 <_ZN18complex_no_dynamic3app17hb10811511e2613c9E>:
   22cb8:	b5f0      	push	{r4, r5, r6, r7, lr}
   22cba:	af03      	add	r7, sp, #12
   22cbc:	b097      	sub	sp, #92	@ 0x5c
   22cbe:	4604      	mov	r4, r0
   22cc0:	466d      	mov	r5, sp
   22cc2:	263f      	movs	r6, #63	@ 0x3f
   22cc4:	4628      	mov	r0, r5
   22cc6:	4632      	mov	r2, r6
   22cc8:	f004 f99f 	bl	2700a <__aeabi_memcpy>
   22ccc:	2000      	movs	r0, #0
   22cce:	9016      	str	r0, [sp, #88]	@ 0x58
   22cd0:	9015      	str	r0, [sp, #84]	@ 0x54
   22cd2:	9014      	str	r0, [sp, #80]	@ 0x50
   22cd4:	9013      	str	r0, [sp, #76]	@ 0x4c
   22cd6:	9012      	str	r0, [sp, #72]	@ 0x48
   22cd8:	9011      	str	r0, [sp, #68]	@ 0x44
   22cda:	9010      	str	r0, [sp, #64]	@ 0x40
   22cdc:	4822      	ldr	r0, [pc, #136]	@ (22d68 <_ZN18complex_no_dynamic3app17hb10811511e2613c9E+0xb0>)
   22cde:	2105      	movs	r1, #5
   22ce0:	462a      	mov	r2, r5
   22ce2:	4633      	mov	r3, r6
   22ce4:	df04      	svc	4
   22ce6:	2802      	cmp	r0, #2
   22ce8:	d00e      	beq.n	22d08 <_ZN18complex_no_dynamic3app17hb10811511e2613c9E+0x50>
   22cea:	481f      	ldr	r0, [pc, #124]	@ (22d68 <_ZN18complex_no_dynamic3app17hb10811511e2613c9E+0xb0>)
   22cec:	2109      	movs	r1, #9
   22cee:	aa10      	add	r2, sp, #64	@ 0x40
   22cf0:	231c      	movs	r3, #28
   22cf2:	df03      	svc	3
   22cf4:	2802      	cmp	r0, #2
   22cf6:	d007      	beq.n	22d08 <_ZN18complex_no_dynamic3app17hb10811511e2613c9E+0x50>
   22cf8:	481b      	ldr	r0, [pc, #108]	@ (22d68 <_ZN18complex_no_dynamic3app17hb10811511e2613c9E+0xb0>)
   22cfa:	2105      	movs	r1, #5
   22cfc:	2209      	movs	r2, #9
   22cfe:	2500      	movs	r5, #0
   22d00:	462b      	mov	r3, r5
   22d02:	df02      	svc	2
   22d04:	287f      	cmp	r0, #127	@ 0x7f
   22d06:	d810      	bhi.n	22d2a <_ZN18complex_no_dynamic3app17hb10811511e2613c9E+0x72>
   22d08:	2001      	movs	r0, #1
   22d0a:	7020      	strb	r0, [r4, #0]
   22d0c:	6061      	str	r1, [r4, #4]
   22d0e:	4c16      	ldr	r4, [pc, #88]	@ (22d68 <_ZN18complex_no_dynamic3app17hb10811511e2613c9E+0xb0>)
   22d10:	2109      	movs	r1, #9
   22d12:	2500      	movs	r5, #0
   22d14:	4620      	mov	r0, r4
   22d16:	462a      	mov	r2, r5
   22d18:	462b      	mov	r3, r5
   22d1a:	df03      	svc	3
   22d1c:	2105      	movs	r1, #5
   22d1e:	4620      	mov	r0, r4
   22d20:	462a      	mov	r2, r5
   22d22:	462b      	mov	r3, r5
   22d24:	df04      	svc	4
   22d26:	b017      	add	sp, #92	@ 0x5c
   22d28:	bdf0      	pop	{r4, r5, r6, r7, pc}
   22d2a:	480f      	ldr	r0, [pc, #60]	@ (22d68 <_ZN18complex_no_dynamic3app17hb10811511e2613c9E+0xb0>)
   22d2c:	2609      	movs	r6, #9
   22d2e:	4631      	mov	r1, r6
   22d30:	462a      	mov	r2, r5
   22d32:	462b      	mov	r3, r5
   22d34:	df03      	svc	3
   22d36:	480c      	ldr	r0, [pc, #48]	@ (22d68 <_ZN18complex_no_dynamic3app17hb10811511e2613c9E+0xb0>)
   22d38:	4631      	mov	r1, r6
   22d3a:	462a      	mov	r2, r5
   22d3c:	462b      	mov	r3, r5
   22d3e:	df03      	svc	3
   22d40:	1c60      	adds	r0, r4, #1
   22d42:	a910      	add	r1, sp, #64	@ 0x40
   22d44:	221c      	movs	r2, #28
   22d46:	f004 f960 	bl	2700a <__aeabi_memcpy>
   22d4a:	7025      	strb	r5, [r4, #0]
   22d4c:	4c06      	ldr	r4, [pc, #24]	@ (22d68 <_ZN18complex_no_dynamic3app17hb10811511e2613c9E+0xb0>)
   22d4e:	4620      	mov	r0, r4
   22d50:	4631      	mov	r1, r6
   22d52:	462a      	mov	r2, r5
   22d54:	462b      	mov	r3, r5
   22d56:	df03      	svc	3
   22d58:	2105      	movs	r1, #5
   22d5a:	4620      	mov	r0, r4
   22d5c:	462a      	mov	r2, r5
   22d5e:	462b      	mov	r3, r5
   22d60:	df04      	svc	4
   22d62:	b017      	add	sp, #92	@ 0x5c
   22d64:	bdf0      	pop	{r4, r5, r6, r7, pc}
   22d66:	46c0      	nop			@ (mov r8, r8)
   22d68:	00001694 	.word	0x00001694

00022d6c <_ZN18complex_no_dynamic3app17hb112d2baddaefcc4E>:
   22d6c:	b5f0      	push	{r4, r5, r6, r7, lr}
   22d6e:	af03      	add	r7, sp, #12
   22d70:	b09f      	sub	sp, #124	@ 0x7c
   22d72:	4604      	mov	r4, r0
   22d74:	466d      	mov	r5, sp
   22d76:	264a      	movs	r6, #74	@ 0x4a
   22d78:	4628      	mov	r0, r5
   22d7a:	4632      	mov	r2, r6
   22d7c:	f004 f945 	bl	2700a <__aeabi_memcpy>
   22d80:	a813      	add	r0, sp, #76	@ 0x4c
   22d82:	212d      	movs	r1, #45	@ 0x2d
   22d84:	f003 ff94 	bl	26cb0 <__aeabi_memclr4>
   22d88:	4822      	ldr	r0, [pc, #136]	@ (22e14 <_ZN18complex_no_dynamic3app17hb112d2baddaefcc4E+0xa8>)
   22d8a:	2102      	movs	r1, #2
   22d8c:	462a      	mov	r2, r5
   22d8e:	4633      	mov	r3, r6
   22d90:	df04      	svc	4
   22d92:	2802      	cmp	r0, #2
   22d94:	d00e      	beq.n	22db4 <_ZN18complex_no_dynamic3app17hb112d2baddaefcc4E+0x48>
   22d96:	481f      	ldr	r0, [pc, #124]	@ (22e14 <_ZN18complex_no_dynamic3app17hb112d2baddaefcc4E+0xa8>)
   22d98:	2103      	movs	r1, #3
   22d9a:	aa13      	add	r2, sp, #76	@ 0x4c
   22d9c:	232d      	movs	r3, #45	@ 0x2d
   22d9e:	df03      	svc	3
   22da0:	2802      	cmp	r0, #2
   22da2:	d007      	beq.n	22db4 <_ZN18complex_no_dynamic3app17hb112d2baddaefcc4E+0x48>
   22da4:	481b      	ldr	r0, [pc, #108]	@ (22e14 <_ZN18complex_no_dynamic3app17hb112d2baddaefcc4E+0xa8>)
   22da6:	2102      	movs	r1, #2
   22da8:	2203      	movs	r2, #3
   22daa:	2500      	movs	r5, #0
   22dac:	462b      	mov	r3, r5
   22dae:	df02      	svc	2
   22db0:	287f      	cmp	r0, #127	@ 0x7f
   22db2:	d810      	bhi.n	22dd6 <_ZN18complex_no_dynamic3app17hb112d2baddaefcc4E+0x6a>
   22db4:	2001      	movs	r0, #1
   22db6:	7020      	strb	r0, [r4, #0]
   22db8:	6061      	str	r1, [r4, #4]
   22dba:	4c16      	ldr	r4, [pc, #88]	@ (22e14 <_ZN18complex_no_dynamic3app17hb112d2baddaefcc4E+0xa8>)
   22dbc:	2103      	movs	r1, #3
   22dbe:	2500      	movs	r5, #0
   22dc0:	4620      	mov	r0, r4
   22dc2:	462a      	mov	r2, r5
   22dc4:	462b      	mov	r3, r5
   22dc6:	df03      	svc	3
   22dc8:	2102      	movs	r1, #2
   22dca:	4620      	mov	r0, r4
   22dcc:	462a      	mov	r2, r5
   22dce:	462b      	mov	r3, r5
   22dd0:	df04      	svc	4
   22dd2:	b01f      	add	sp, #124	@ 0x7c
   22dd4:	bdf0      	pop	{r4, r5, r6, r7, pc}
   22dd6:	480f      	ldr	r0, [pc, #60]	@ (22e14 <_ZN18complex_no_dynamic3app17hb112d2baddaefcc4E+0xa8>)
   22dd8:	2603      	movs	r6, #3
   22dda:	4631      	mov	r1, r6
   22ddc:	462a      	mov	r2, r5
   22dde:	462b      	mov	r3, r5
   22de0:	df03      	svc	3
   22de2:	480c      	ldr	r0, [pc, #48]	@ (22e14 <_ZN18complex_no_dynamic3app17hb112d2baddaefcc4E+0xa8>)
   22de4:	4631      	mov	r1, r6
   22de6:	462a      	mov	r2, r5
   22de8:	462b      	mov	r3, r5
   22dea:	df03      	svc	3
   22dec:	1c60      	adds	r0, r4, #1
   22dee:	a913      	add	r1, sp, #76	@ 0x4c
   22df0:	222d      	movs	r2, #45	@ 0x2d
   22df2:	f004 f90a 	bl	2700a <__aeabi_memcpy>
   22df6:	7025      	strb	r5, [r4, #0]
   22df8:	4c06      	ldr	r4, [pc, #24]	@ (22e14 <_ZN18complex_no_dynamic3app17hb112d2baddaefcc4E+0xa8>)
   22dfa:	4620      	mov	r0, r4
   22dfc:	4631      	mov	r1, r6
   22dfe:	462a      	mov	r2, r5
   22e00:	462b      	mov	r3, r5
   22e02:	df03      	svc	3
   22e04:	2102      	movs	r1, #2
   22e06:	4620      	mov	r0, r4
   22e08:	462a      	mov	r2, r5
   22e0a:	462b      	mov	r3, r5
   22e0c:	df04      	svc	4
   22e0e:	b01f      	add	sp, #124	@ 0x7c
   22e10:	bdf0      	pop	{r4, r5, r6, r7, pc}
   22e12:	46c0      	nop			@ (mov r8, r8)
   22e14:	00000e3d 	.word	0x00000e3d

00022e18 <_ZN18complex_no_dynamic3app17hb3595994fdb8b9f1E>:
   22e18:	b5f0      	push	{r4, r5, r6, r7, lr}
   22e1a:	af03      	add	r7, sp, #12
   22e1c:	b095      	sub	sp, #84	@ 0x54
   22e1e:	4604      	mov	r4, r0
   22e20:	ad01      	add	r5, sp, #4
   22e22:	2618      	movs	r6, #24
   22e24:	4628      	mov	r0, r5
   22e26:	4632      	mov	r2, r6
   22e28:	f004 f8ef 	bl	2700a <__aeabi_memcpy>
   22e2c:	a807      	add	r0, sp, #28
   22e2e:	2136      	movs	r1, #54	@ 0x36
   22e30:	f003 ff3e 	bl	26cb0 <__aeabi_memclr4>
   22e34:	20f3      	movs	r0, #243	@ 0xf3
   22e36:	2108      	movs	r1, #8
   22e38:	462a      	mov	r2, r5
   22e3a:	4633      	mov	r3, r6
   22e3c:	df04      	svc	4
   22e3e:	2802      	cmp	r0, #2
   22e40:	d00e      	beq.n	22e60 <_ZN18complex_no_dynamic3app17hb3595994fdb8b9f1E+0x48>
   22e42:	20f3      	movs	r0, #243	@ 0xf3
   22e44:	2104      	movs	r1, #4
   22e46:	aa07      	add	r2, sp, #28
   22e48:	2336      	movs	r3, #54	@ 0x36
   22e4a:	df03      	svc	3
   22e4c:	2802      	cmp	r0, #2
   22e4e:	d007      	beq.n	22e60 <_ZN18complex_no_dynamic3app17hb3595994fdb8b9f1E+0x48>
   22e50:	20f3      	movs	r0, #243	@ 0xf3
   22e52:	2108      	movs	r1, #8
   22e54:	2204      	movs	r2, #4
   22e56:	2500      	movs	r5, #0
   22e58:	462b      	mov	r3, r5
   22e5a:	df02      	svc	2
   22e5c:	287f      	cmp	r0, #127	@ 0x7f
   22e5e:	d810      	bhi.n	22e82 <_ZN18complex_no_dynamic3app17hb3595994fdb8b9f1E+0x6a>
   22e60:	2001      	movs	r0, #1
   22e62:	7020      	strb	r0, [r4, #0]
   22e64:	6061      	str	r1, [r4, #4]
   22e66:	24f3      	movs	r4, #243	@ 0xf3
   22e68:	2104      	movs	r1, #4
   22e6a:	2500      	movs	r5, #0
   22e6c:	4620      	mov	r0, r4
   22e6e:	462a      	mov	r2, r5
   22e70:	462b      	mov	r3, r5
   22e72:	df03      	svc	3
   22e74:	2108      	movs	r1, #8
   22e76:	4620      	mov	r0, r4
   22e78:	462a      	mov	r2, r5
   22e7a:	462b      	mov	r3, r5
   22e7c:	df04      	svc	4
   22e7e:	b015      	add	sp, #84	@ 0x54
   22e80:	bdf0      	pop	{r4, r5, r6, r7, pc}
   22e82:	20f3      	movs	r0, #243	@ 0xf3
   22e84:	9000      	str	r0, [sp, #0]
   22e86:	2604      	movs	r6, #4
   22e88:	4631      	mov	r1, r6
   22e8a:	462a      	mov	r2, r5
   22e8c:	462b      	mov	r3, r5
   22e8e:	df03      	svc	3
   22e90:	9800      	ldr	r0, [sp, #0]
   22e92:	4631      	mov	r1, r6
   22e94:	462a      	mov	r2, r5
   22e96:	462b      	mov	r3, r5
   22e98:	df03      	svc	3
   22e9a:	1c60      	adds	r0, r4, #1
   22e9c:	a907      	add	r1, sp, #28
   22e9e:	2236      	movs	r2, #54	@ 0x36
   22ea0:	f004 f8b3 	bl	2700a <__aeabi_memcpy>
   22ea4:	7025      	strb	r5, [r4, #0]
   22ea6:	9c00      	ldr	r4, [sp, #0]
   22ea8:	4620      	mov	r0, r4
   22eaa:	4631      	mov	r1, r6
   22eac:	462a      	mov	r2, r5
   22eae:	462b      	mov	r3, r5
   22eb0:	df03      	svc	3
   22eb2:	2108      	movs	r1, #8
   22eb4:	4620      	mov	r0, r4
   22eb6:	462a      	mov	r2, r5
   22eb8:	462b      	mov	r3, r5
   22eba:	df04      	svc	4
   22ebc:	b015      	add	sp, #84	@ 0x54
   22ebe:	bdf0      	pop	{r4, r5, r6, r7, pc}

00022ec0 <_ZN18complex_no_dynamic3app17hb4297dff0ab539c1E>:
   22ec0:	b5f0      	push	{r4, r5, r6, r7, lr}
   22ec2:	af03      	add	r7, sp, #12
   22ec4:	b095      	sub	sp, #84	@ 0x54
   22ec6:	4604      	mov	r4, r0
   22ec8:	466d      	mov	r5, sp
   22eca:	262a      	movs	r6, #42	@ 0x2a
   22ecc:	4628      	mov	r0, r5
   22ece:	4632      	mov	r2, r6
   22ed0:	f004 f89b 	bl	2700a <__aeabi_memcpy>
   22ed4:	a80b      	add	r0, sp, #44	@ 0x2c
   22ed6:	2128      	movs	r1, #40	@ 0x28
   22ed8:	f003 feea 	bl	26cb0 <__aeabi_memclr4>
   22edc:	4822      	ldr	r0, [pc, #136]	@ (22f68 <_ZN18complex_no_dynamic3app17hb4297dff0ab539c1E+0xa8>)
   22ede:	2104      	movs	r1, #4
   22ee0:	462a      	mov	r2, r5
   22ee2:	4633      	mov	r3, r6
   22ee4:	df04      	svc	4
   22ee6:	2802      	cmp	r0, #2
   22ee8:	d00e      	beq.n	22f08 <_ZN18complex_no_dynamic3app17hb4297dff0ab539c1E+0x48>
   22eea:	481f      	ldr	r0, [pc, #124]	@ (22f68 <_ZN18complex_no_dynamic3app17hb4297dff0ab539c1E+0xa8>)
   22eec:	2108      	movs	r1, #8
   22eee:	aa0b      	add	r2, sp, #44	@ 0x2c
   22ef0:	2328      	movs	r3, #40	@ 0x28
   22ef2:	df03      	svc	3
   22ef4:	2802      	cmp	r0, #2
   22ef6:	d007      	beq.n	22f08 <_ZN18complex_no_dynamic3app17hb4297dff0ab539c1E+0x48>
   22ef8:	481b      	ldr	r0, [pc, #108]	@ (22f68 <_ZN18complex_no_dynamic3app17hb4297dff0ab539c1E+0xa8>)
   22efa:	2104      	movs	r1, #4
   22efc:	2208      	movs	r2, #8
   22efe:	2500      	movs	r5, #0
   22f00:	462b      	mov	r3, r5
   22f02:	df02      	svc	2
   22f04:	287f      	cmp	r0, #127	@ 0x7f
   22f06:	d810      	bhi.n	22f2a <_ZN18complex_no_dynamic3app17hb4297dff0ab539c1E+0x6a>
   22f08:	2001      	movs	r0, #1
   22f0a:	7020      	strb	r0, [r4, #0]
   22f0c:	6061      	str	r1, [r4, #4]
   22f0e:	4c16      	ldr	r4, [pc, #88]	@ (22f68 <_ZN18complex_no_dynamic3app17hb4297dff0ab539c1E+0xa8>)
   22f10:	2108      	movs	r1, #8
   22f12:	2500      	movs	r5, #0
   22f14:	4620      	mov	r0, r4
   22f16:	462a      	mov	r2, r5
   22f18:	462b      	mov	r3, r5
   22f1a:	df03      	svc	3
   22f1c:	2104      	movs	r1, #4
   22f1e:	4620      	mov	r0, r4
   22f20:	462a      	mov	r2, r5
   22f22:	462b      	mov	r3, r5
   22f24:	df04      	svc	4
   22f26:	b015      	add	sp, #84	@ 0x54
   22f28:	bdf0      	pop	{r4, r5, r6, r7, pc}
   22f2a:	480f      	ldr	r0, [pc, #60]	@ (22f68 <_ZN18complex_no_dynamic3app17hb4297dff0ab539c1E+0xa8>)
   22f2c:	2608      	movs	r6, #8
   22f2e:	4631      	mov	r1, r6
   22f30:	462a      	mov	r2, r5
   22f32:	462b      	mov	r3, r5
   22f34:	df03      	svc	3
   22f36:	480c      	ldr	r0, [pc, #48]	@ (22f68 <_ZN18complex_no_dynamic3app17hb4297dff0ab539c1E+0xa8>)
   22f38:	4631      	mov	r1, r6
   22f3a:	462a      	mov	r2, r5
   22f3c:	462b      	mov	r3, r5
   22f3e:	df03      	svc	3
   22f40:	1c60      	adds	r0, r4, #1
   22f42:	a90b      	add	r1, sp, #44	@ 0x2c
   22f44:	2228      	movs	r2, #40	@ 0x28
   22f46:	f004 f860 	bl	2700a <__aeabi_memcpy>
   22f4a:	7025      	strb	r5, [r4, #0]
   22f4c:	4c06      	ldr	r4, [pc, #24]	@ (22f68 <_ZN18complex_no_dynamic3app17hb4297dff0ab539c1E+0xa8>)
   22f4e:	4620      	mov	r0, r4
   22f50:	4631      	mov	r1, r6
   22f52:	462a      	mov	r2, r5
   22f54:	462b      	mov	r3, r5
   22f56:	df03      	svc	3
   22f58:	2104      	movs	r1, #4
   22f5a:	4620      	mov	r0, r4
   22f5c:	462a      	mov	r2, r5
   22f5e:	462b      	mov	r3, r5
   22f60:	df04      	svc	4
   22f62:	b015      	add	sp, #84	@ 0x54
   22f64:	bdf0      	pop	{r4, r5, r6, r7, pc}
   22f66:	46c0      	nop			@ (mov r8, r8)
   22f68:	00001efa 	.word	0x00001efa

00022f6c <_ZN18complex_no_dynamic3app17hb9c8e8cd4b60bf4cE>:
   22f6c:	b5f0      	push	{r4, r5, r6, r7, lr}
   22f6e:	af03      	add	r7, sp, #12
   22f70:	b0a3      	sub	sp, #140	@ 0x8c
   22f72:	9001      	str	r0, [sp, #4]
   22f74:	ae02      	add	r6, sp, #8
   22f76:	2461      	movs	r4, #97	@ 0x61
   22f78:	4630      	mov	r0, r6
   22f7a:	4622      	mov	r2, r4
   22f7c:	f004 f845 	bl	2700a <__aeabi_memcpy>
   22f80:	a81b      	add	r0, sp, #108	@ 0x6c
   22f82:	2100      	movs	r1, #0
   22f84:	8381      	strh	r1, [r0, #28]
   22f86:	9121      	str	r1, [sp, #132]	@ 0x84
   22f88:	9120      	str	r1, [sp, #128]	@ 0x80
   22f8a:	911f      	str	r1, [sp, #124]	@ 0x7c
   22f8c:	911e      	str	r1, [sp, #120]	@ 0x78
   22f8e:	911d      	str	r1, [sp, #116]	@ 0x74
   22f90:	911c      	str	r1, [sp, #112]	@ 0x70
   22f92:	911b      	str	r1, [sp, #108]	@ 0x6c
   22f94:	2031      	movs	r0, #49	@ 0x31
   22f96:	00c5      	lsls	r5, r0, #3
   22f98:	2104      	movs	r1, #4
   22f9a:	4628      	mov	r0, r5
   22f9c:	4632      	mov	r2, r6
   22f9e:	4623      	mov	r3, r4
   22fa0:	df04      	svc	4
   22fa2:	2802      	cmp	r0, #2
   22fa4:	d00e      	beq.n	22fc4 <_ZN18complex_no_dynamic3app17hb9c8e8cd4b60bf4cE+0x58>
   22fa6:	2106      	movs	r1, #6
   22fa8:	aa1b      	add	r2, sp, #108	@ 0x6c
   22faa:	231e      	movs	r3, #30
   22fac:	4628      	mov	r0, r5
   22fae:	df03      	svc	3
   22fb0:	2802      	cmp	r0, #2
   22fb2:	d007      	beq.n	22fc4 <_ZN18complex_no_dynamic3app17hb9c8e8cd4b60bf4cE+0x58>
   22fb4:	2104      	movs	r1, #4
   22fb6:	2206      	movs	r2, #6
   22fb8:	2600      	movs	r6, #0
   22fba:	4628      	mov	r0, r5
   22fbc:	4633      	mov	r3, r6
   22fbe:	df02      	svc	2
   22fc0:	287f      	cmp	r0, #127	@ 0x7f
   22fc2:	d810      	bhi.n	22fe6 <_ZN18complex_no_dynamic3app17hb9c8e8cd4b60bf4cE+0x7a>
   22fc4:	2001      	movs	r0, #1
   22fc6:	9a01      	ldr	r2, [sp, #4]
   22fc8:	7010      	strb	r0, [r2, #0]
   22fca:	6051      	str	r1, [r2, #4]
   22fcc:	2106      	movs	r1, #6
   22fce:	2400      	movs	r4, #0
   22fd0:	4628      	mov	r0, r5
   22fd2:	4622      	mov	r2, r4
   22fd4:	4623      	mov	r3, r4
   22fd6:	df03      	svc	3
   22fd8:	2104      	movs	r1, #4
   22fda:	4628      	mov	r0, r5
   22fdc:	4622      	mov	r2, r4
   22fde:	4623      	mov	r3, r4
   22fe0:	df04      	svc	4
   22fe2:	b023      	add	sp, #140	@ 0x8c
   22fe4:	bdf0      	pop	{r4, r5, r6, r7, pc}
   22fe6:	2406      	movs	r4, #6
   22fe8:	9400      	str	r4, [sp, #0]
   22fea:	4628      	mov	r0, r5
   22fec:	4621      	mov	r1, r4
   22fee:	4632      	mov	r2, r6
   22ff0:	4633      	mov	r3, r6
   22ff2:	df03      	svc	3
   22ff4:	4628      	mov	r0, r5
   22ff6:	4621      	mov	r1, r4
   22ff8:	4632      	mov	r2, r6
   22ffa:	4633      	mov	r3, r6
   22ffc:	df03      	svc	3
   22ffe:	9c01      	ldr	r4, [sp, #4]
   23000:	1c60      	adds	r0, r4, #1
   23002:	a91b      	add	r1, sp, #108	@ 0x6c
   23004:	221e      	movs	r2, #30
   23006:	f004 f800 	bl	2700a <__aeabi_memcpy>
   2300a:	7026      	strb	r6, [r4, #0]
   2300c:	4628      	mov	r0, r5
   2300e:	9900      	ldr	r1, [sp, #0]
   23010:	4632      	mov	r2, r6
   23012:	4633      	mov	r3, r6
   23014:	df03      	svc	3
   23016:	2104      	movs	r1, #4
   23018:	4628      	mov	r0, r5
   2301a:	4632      	mov	r2, r6
   2301c:	4633      	mov	r3, r6
   2301e:	df04      	svc	4
   23020:	b023      	add	sp, #140	@ 0x8c
   23022:	bdf0      	pop	{r4, r5, r6, r7, pc}

00023024 <_ZN18complex_no_dynamic3app17hb9e6b6f82a75d08dE>:
   23024:	b5f0      	push	{r4, r5, r6, r7, lr}
   23026:	af03      	add	r7, sp, #12
   23028:	b095      	sub	sp, #84	@ 0x54
   2302a:	9000      	str	r0, [sp, #0]
   2302c:	ae01      	add	r6, sp, #4
   2302e:	2421      	movs	r4, #33	@ 0x21
   23030:	4630      	mov	r0, r6
   23032:	4622      	mov	r2, r4
   23034:	f003 ffe9 	bl	2700a <__aeabi_memcpy>
   23038:	a80a      	add	r0, sp, #40	@ 0x28
   2303a:	212a      	movs	r1, #42	@ 0x2a
   2303c:	f003 fe38 	bl	26cb0 <__aeabi_memclr4>
   23040:	4823      	ldr	r0, [pc, #140]	@ (230d0 <_ZN18complex_no_dynamic3app17hb9e6b6f82a75d08dE+0xac>)
   23042:	2501      	movs	r5, #1
   23044:	4629      	mov	r1, r5
   23046:	4632      	mov	r2, r6
   23048:	4623      	mov	r3, r4
   2304a:	df04      	svc	4
   2304c:	2802      	cmp	r0, #2
   2304e:	d00e      	beq.n	2306e <_ZN18complex_no_dynamic3app17hb9e6b6f82a75d08dE+0x4a>
   23050:	481f      	ldr	r0, [pc, #124]	@ (230d0 <_ZN18complex_no_dynamic3app17hb9e6b6f82a75d08dE+0xac>)
   23052:	2103      	movs	r1, #3
   23054:	aa0a      	add	r2, sp, #40	@ 0x28
   23056:	232a      	movs	r3, #42	@ 0x2a
   23058:	df03      	svc	3
   2305a:	2802      	cmp	r0, #2
   2305c:	d007      	beq.n	2306e <_ZN18complex_no_dynamic3app17hb9e6b6f82a75d08dE+0x4a>
   2305e:	481c      	ldr	r0, [pc, #112]	@ (230d0 <_ZN18complex_no_dynamic3app17hb9e6b6f82a75d08dE+0xac>)
   23060:	2101      	movs	r1, #1
   23062:	2203      	movs	r2, #3
   23064:	2600      	movs	r6, #0
   23066:	4633      	mov	r3, r6
   23068:	df02      	svc	2
   2306a:	287f      	cmp	r0, #127	@ 0x7f
   2306c:	d810      	bhi.n	23090 <_ZN18complex_no_dynamic3app17hb9e6b6f82a75d08dE+0x6c>
   2306e:	9800      	ldr	r0, [sp, #0]
   23070:	7005      	strb	r5, [r0, #0]
   23072:	6041      	str	r1, [r0, #4]
   23074:	4c16      	ldr	r4, [pc, #88]	@ (230d0 <_ZN18complex_no_dynamic3app17hb9e6b6f82a75d08dE+0xac>)
   23076:	2103      	movs	r1, #3
   23078:	2600      	movs	r6, #0
   2307a:	4620      	mov	r0, r4
   2307c:	4632      	mov	r2, r6
   2307e:	4633      	mov	r3, r6
   23080:	df03      	svc	3
   23082:	4620      	mov	r0, r4
   23084:	4629      	mov	r1, r5
   23086:	4632      	mov	r2, r6
   23088:	4633      	mov	r3, r6
   2308a:	df04      	svc	4
   2308c:	b015      	add	sp, #84	@ 0x54
   2308e:	bdf0      	pop	{r4, r5, r6, r7, pc}
   23090:	4c0f      	ldr	r4, [pc, #60]	@ (230d0 <_ZN18complex_no_dynamic3app17hb9e6b6f82a75d08dE+0xac>)
   23092:	2503      	movs	r5, #3
   23094:	4620      	mov	r0, r4
   23096:	4629      	mov	r1, r5
   23098:	4632      	mov	r2, r6
   2309a:	4633      	mov	r3, r6
   2309c:	df03      	svc	3
   2309e:	4620      	mov	r0, r4
   230a0:	4629      	mov	r1, r5
   230a2:	4632      	mov	r2, r6
   230a4:	4633      	mov	r3, r6
   230a6:	df03      	svc	3
   230a8:	9c00      	ldr	r4, [sp, #0]
   230aa:	1c60      	adds	r0, r4, #1
   230ac:	a90a      	add	r1, sp, #40	@ 0x28
   230ae:	222a      	movs	r2, #42	@ 0x2a
   230b0:	f003 ffab 	bl	2700a <__aeabi_memcpy>
   230b4:	7026      	strb	r6, [r4, #0]
   230b6:	4c06      	ldr	r4, [pc, #24]	@ (230d0 <_ZN18complex_no_dynamic3app17hb9e6b6f82a75d08dE+0xac>)
   230b8:	4620      	mov	r0, r4
   230ba:	4629      	mov	r1, r5
   230bc:	4632      	mov	r2, r6
   230be:	4633      	mov	r3, r6
   230c0:	df03      	svc	3
   230c2:	2101      	movs	r1, #1
   230c4:	4620      	mov	r0, r4
   230c6:	4632      	mov	r2, r6
   230c8:	4633      	mov	r3, r6
   230ca:	df04      	svc	4
   230cc:	b015      	add	sp, #84	@ 0x54
   230ce:	bdf0      	pop	{r4, r5, r6, r7, pc}
   230d0:	000015f3 	.word	0x000015f3

000230d4 <_ZN18complex_no_dynamic3app17hba497e9e7112a527E>:
   230d4:	b5f0      	push	{r4, r5, r6, r7, lr}
   230d6:	af03      	add	r7, sp, #12
   230d8:	b09f      	sub	sp, #124	@ 0x7c
   230da:	4604      	mov	r4, r0
   230dc:	466d      	mov	r5, sp
   230de:	261c      	movs	r6, #28
   230e0:	4628      	mov	r0, r5
   230e2:	4632      	mov	r2, r6
   230e4:	f003 ff91 	bl	2700a <__aeabi_memcpy>
   230e8:	a807      	add	r0, sp, #28
   230ea:	215d      	movs	r1, #93	@ 0x5d
   230ec:	f003 fde0 	bl	26cb0 <__aeabi_memclr4>
   230f0:	4822      	ldr	r0, [pc, #136]	@ (2317c <_ZN18complex_no_dynamic3app17hba497e9e7112a527E+0xa8>)
   230f2:	2108      	movs	r1, #8
   230f4:	462a      	mov	r2, r5
   230f6:	4633      	mov	r3, r6
   230f8:	df04      	svc	4
   230fa:	2802      	cmp	r0, #2
   230fc:	d00e      	beq.n	2311c <_ZN18complex_no_dynamic3app17hba497e9e7112a527E+0x48>
   230fe:	481f      	ldr	r0, [pc, #124]	@ (2317c <_ZN18complex_no_dynamic3app17hba497e9e7112a527E+0xa8>)
   23100:	2105      	movs	r1, #5
   23102:	aa07      	add	r2, sp, #28
   23104:	235d      	movs	r3, #93	@ 0x5d
   23106:	df03      	svc	3
   23108:	2802      	cmp	r0, #2
   2310a:	d007      	beq.n	2311c <_ZN18complex_no_dynamic3app17hba497e9e7112a527E+0x48>
   2310c:	481b      	ldr	r0, [pc, #108]	@ (2317c <_ZN18complex_no_dynamic3app17hba497e9e7112a527E+0xa8>)
   2310e:	2108      	movs	r1, #8
   23110:	2205      	movs	r2, #5
   23112:	2500      	movs	r5, #0
   23114:	462b      	mov	r3, r5
   23116:	df02      	svc	2
   23118:	287f      	cmp	r0, #127	@ 0x7f
   2311a:	d810      	bhi.n	2313e <_ZN18complex_no_dynamic3app17hba497e9e7112a527E+0x6a>
   2311c:	2001      	movs	r0, #1
   2311e:	7020      	strb	r0, [r4, #0]
   23120:	6061      	str	r1, [r4, #4]
   23122:	4c16      	ldr	r4, [pc, #88]	@ (2317c <_ZN18complex_no_dynamic3app17hba497e9e7112a527E+0xa8>)
   23124:	2105      	movs	r1, #5
   23126:	2500      	movs	r5, #0
   23128:	4620      	mov	r0, r4
   2312a:	462a      	mov	r2, r5
   2312c:	462b      	mov	r3, r5
   2312e:	df03      	svc	3
   23130:	2108      	movs	r1, #8
   23132:	4620      	mov	r0, r4
   23134:	462a      	mov	r2, r5
   23136:	462b      	mov	r3, r5
   23138:	df04      	svc	4
   2313a:	b01f      	add	sp, #124	@ 0x7c
   2313c:	bdf0      	pop	{r4, r5, r6, r7, pc}
   2313e:	480f      	ldr	r0, [pc, #60]	@ (2317c <_ZN18complex_no_dynamic3app17hba497e9e7112a527E+0xa8>)
   23140:	2605      	movs	r6, #5
   23142:	4631      	mov	r1, r6
   23144:	462a      	mov	r2, r5
   23146:	462b      	mov	r3, r5
   23148:	df03      	svc	3
   2314a:	480c      	ldr	r0, [pc, #48]	@ (2317c <_ZN18complex_no_dynamic3app17hba497e9e7112a527E+0xa8>)
   2314c:	4631      	mov	r1, r6
   2314e:	462a      	mov	r2, r5
   23150:	462b      	mov	r3, r5
   23152:	df03      	svc	3
   23154:	1c60      	adds	r0, r4, #1
   23156:	a907      	add	r1, sp, #28
   23158:	225d      	movs	r2, #93	@ 0x5d
   2315a:	f003 ff56 	bl	2700a <__aeabi_memcpy>
   2315e:	7025      	strb	r5, [r4, #0]
   23160:	4c06      	ldr	r4, [pc, #24]	@ (2317c <_ZN18complex_no_dynamic3app17hba497e9e7112a527E+0xa8>)
   23162:	4620      	mov	r0, r4
   23164:	4631      	mov	r1, r6
   23166:	462a      	mov	r2, r5
   23168:	462b      	mov	r3, r5
   2316a:	df03      	svc	3
   2316c:	2108      	movs	r1, #8
   2316e:	4620      	mov	r0, r4
   23170:	462a      	mov	r2, r5
   23172:	462b      	mov	r3, r5
   23174:	df04      	svc	4
   23176:	b01f      	add	sp, #124	@ 0x7c
   23178:	bdf0      	pop	{r4, r5, r6, r7, pc}
   2317a:	46c0      	nop			@ (mov r8, r8)
   2317c:	00000c3e 	.word	0x00000c3e

00023180 <_ZN18complex_no_dynamic3app17hba669f75f893625eE>:
   23180:	b5f0      	push	{r4, r5, r6, r7, lr}
   23182:	af03      	add	r7, sp, #12
   23184:	b089      	sub	sp, #36	@ 0x24
   23186:	4604      	mov	r4, r0
   23188:	466d      	mov	r5, sp
   2318a:	260f      	movs	r6, #15
   2318c:	4628      	mov	r0, r5
   2318e:	4632      	mov	r2, r6
   23190:	f003 ff3b 	bl	2700a <__aeabi_memcpy>
   23194:	a804      	add	r0, sp, #16
   23196:	2100      	movs	r1, #0
   23198:	7481      	strb	r1, [r0, #18]
   2319a:	8201      	strh	r1, [r0, #16]
   2319c:	9107      	str	r1, [sp, #28]
   2319e:	9106      	str	r1, [sp, #24]
   231a0:	9105      	str	r1, [sp, #20]
   231a2:	9104      	str	r1, [sp, #16]
   231a4:	4821      	ldr	r0, [pc, #132]	@ (2322c <_ZN18complex_no_dynamic3app17hba669f75f893625eE+0xac>)
   231a6:	2103      	movs	r1, #3
   231a8:	462a      	mov	r2, r5
   231aa:	4633      	mov	r3, r6
   231ac:	df04      	svc	4
   231ae:	2802      	cmp	r0, #2
   231b0:	d00e      	beq.n	231d0 <_ZN18complex_no_dynamic3app17hba669f75f893625eE+0x50>
   231b2:	481e      	ldr	r0, [pc, #120]	@ (2322c <_ZN18complex_no_dynamic3app17hba669f75f893625eE+0xac>)
   231b4:	2100      	movs	r1, #0
   231b6:	aa04      	add	r2, sp, #16
   231b8:	2313      	movs	r3, #19
   231ba:	df03      	svc	3
   231bc:	2802      	cmp	r0, #2
   231be:	d007      	beq.n	231d0 <_ZN18complex_no_dynamic3app17hba669f75f893625eE+0x50>
   231c0:	481a      	ldr	r0, [pc, #104]	@ (2322c <_ZN18complex_no_dynamic3app17hba669f75f893625eE+0xac>)
   231c2:	2103      	movs	r1, #3
   231c4:	2500      	movs	r5, #0
   231c6:	462a      	mov	r2, r5
   231c8:	462b      	mov	r3, r5
   231ca:	df02      	svc	2
   231cc:	287f      	cmp	r0, #127	@ 0x7f
   231ce:	d810      	bhi.n	231f2 <_ZN18complex_no_dynamic3app17hba669f75f893625eE+0x72>
   231d0:	2001      	movs	r0, #1
   231d2:	7020      	strb	r0, [r4, #0]
   231d4:	6061      	str	r1, [r4, #4]
   231d6:	4c15      	ldr	r4, [pc, #84]	@ (2322c <_ZN18complex_no_dynamic3app17hba669f75f893625eE+0xac>)
   231d8:	2500      	movs	r5, #0
   231da:	4620      	mov	r0, r4
   231dc:	4629      	mov	r1, r5
   231de:	462a      	mov	r2, r5
   231e0:	462b      	mov	r3, r5
   231e2:	df03      	svc	3
   231e4:	2103      	movs	r1, #3
   231e6:	4620      	mov	r0, r4
   231e8:	462a      	mov	r2, r5
   231ea:	462b      	mov	r3, r5
   231ec:	df04      	svc	4
   231ee:	b009      	add	sp, #36	@ 0x24
   231f0:	bdf0      	pop	{r4, r5, r6, r7, pc}
   231f2:	4e0e      	ldr	r6, [pc, #56]	@ (2322c <_ZN18complex_no_dynamic3app17hba669f75f893625eE+0xac>)
   231f4:	4630      	mov	r0, r6
   231f6:	4629      	mov	r1, r5
   231f8:	462a      	mov	r2, r5
   231fa:	462b      	mov	r3, r5
   231fc:	df03      	svc	3
   231fe:	4630      	mov	r0, r6
   23200:	4629      	mov	r1, r5
   23202:	462a      	mov	r2, r5
   23204:	462b      	mov	r3, r5
   23206:	df03      	svc	3
   23208:	1c60      	adds	r0, r4, #1
   2320a:	a904      	add	r1, sp, #16
   2320c:	2213      	movs	r2, #19
   2320e:	f003 fefc 	bl	2700a <__aeabi_memcpy>
   23212:	7025      	strb	r5, [r4, #0]
   23214:	4630      	mov	r0, r6
   23216:	4629      	mov	r1, r5
   23218:	462a      	mov	r2, r5
   2321a:	462b      	mov	r3, r5
   2321c:	df03      	svc	3
   2321e:	2103      	movs	r1, #3
   23220:	4630      	mov	r0, r6
   23222:	462a      	mov	r2, r5
   23224:	462b      	mov	r3, r5
   23226:	df04      	svc	4
   23228:	b009      	add	sp, #36	@ 0x24
   2322a:	bdf0      	pop	{r4, r5, r6, r7, pc}
   2322c:	00001e4b 	.word	0x00001e4b

00023230 <_ZN18complex_no_dynamic3app17hbac263eb8ef807baE>:
   23230:	b5f0      	push	{r4, r5, r6, r7, lr}
   23232:	af03      	add	r7, sp, #12
   23234:	b0a5      	sub	sp, #148	@ 0x94
   23236:	4604      	mov	r4, r0
   23238:	ad01      	add	r5, sp, #4
   2323a:	262a      	movs	r6, #42	@ 0x2a
   2323c:	4628      	mov	r0, r5
   2323e:	4632      	mov	r2, r6
   23240:	f003 fee3 	bl	2700a <__aeabi_memcpy>
   23244:	a80c      	add	r0, sp, #48	@ 0x30
   23246:	2163      	movs	r1, #99	@ 0x63
   23248:	f003 fd32 	bl	26cb0 <__aeabi_memclr4>
   2324c:	4821      	ldr	r0, [pc, #132]	@ (232d4 <_ZN18complex_no_dynamic3app17hbac263eb8ef807baE+0xa4>)
   2324e:	2104      	movs	r1, #4
   23250:	462a      	mov	r2, r5
   23252:	4633      	mov	r3, r6
   23254:	df04      	svc	4
   23256:	2802      	cmp	r0, #2
   23258:	d00e      	beq.n	23278 <_ZN18complex_no_dynamic3app17hbac263eb8ef807baE+0x48>
   2325a:	481e      	ldr	r0, [pc, #120]	@ (232d4 <_ZN18complex_no_dynamic3app17hbac263eb8ef807baE+0xa4>)
   2325c:	2100      	movs	r1, #0
   2325e:	aa0c      	add	r2, sp, #48	@ 0x30
   23260:	2363      	movs	r3, #99	@ 0x63
   23262:	df03      	svc	3
   23264:	2802      	cmp	r0, #2
   23266:	d007      	beq.n	23278 <_ZN18complex_no_dynamic3app17hbac263eb8ef807baE+0x48>
   23268:	481a      	ldr	r0, [pc, #104]	@ (232d4 <_ZN18complex_no_dynamic3app17hbac263eb8ef807baE+0xa4>)
   2326a:	2104      	movs	r1, #4
   2326c:	2500      	movs	r5, #0
   2326e:	462a      	mov	r2, r5
   23270:	462b      	mov	r3, r5
   23272:	df02      	svc	2
   23274:	287f      	cmp	r0, #127	@ 0x7f
   23276:	d810      	bhi.n	2329a <_ZN18complex_no_dynamic3app17hbac263eb8ef807baE+0x6a>
   23278:	2001      	movs	r0, #1
   2327a:	7020      	strb	r0, [r4, #0]
   2327c:	6061      	str	r1, [r4, #4]
   2327e:	4c15      	ldr	r4, [pc, #84]	@ (232d4 <_ZN18complex_no_dynamic3app17hbac263eb8ef807baE+0xa4>)
   23280:	2500      	movs	r5, #0
   23282:	4620      	mov	r0, r4
   23284:	4629      	mov	r1, r5
   23286:	462a      	mov	r2, r5
   23288:	462b      	mov	r3, r5
   2328a:	df03      	svc	3
   2328c:	2104      	movs	r1, #4
   2328e:	4620      	mov	r0, r4
   23290:	462a      	mov	r2, r5
   23292:	462b      	mov	r3, r5
   23294:	df04      	svc	4
   23296:	b025      	add	sp, #148	@ 0x94
   23298:	bdf0      	pop	{r4, r5, r6, r7, pc}
   2329a:	4e0e      	ldr	r6, [pc, #56]	@ (232d4 <_ZN18complex_no_dynamic3app17hbac263eb8ef807baE+0xa4>)
   2329c:	4630      	mov	r0, r6
   2329e:	4629      	mov	r1, r5
   232a0:	462a      	mov	r2, r5
   232a2:	462b      	mov	r3, r5
   232a4:	df03      	svc	3
   232a6:	4630      	mov	r0, r6
   232a8:	4629      	mov	r1, r5
   232aa:	462a      	mov	r2, r5
   232ac:	462b      	mov	r3, r5
   232ae:	df03      	svc	3
   232b0:	1c60      	adds	r0, r4, #1
   232b2:	a90c      	add	r1, sp, #48	@ 0x30
   232b4:	2263      	movs	r2, #99	@ 0x63
   232b6:	f003 fea8 	bl	2700a <__aeabi_memcpy>
   232ba:	7025      	strb	r5, [r4, #0]
   232bc:	4630      	mov	r0, r6
   232be:	4629      	mov	r1, r5
   232c0:	462a      	mov	r2, r5
   232c2:	462b      	mov	r3, r5
   232c4:	df03      	svc	3
   232c6:	2104      	movs	r1, #4
   232c8:	4630      	mov	r0, r6
   232ca:	462a      	mov	r2, r5
   232cc:	462b      	mov	r3, r5
   232ce:	df04      	svc	4
   232d0:	b025      	add	sp, #148	@ 0x94
   232d2:	bdf0      	pop	{r4, r5, r6, r7, pc}
   232d4:	00001c7c 	.word	0x00001c7c

000232d8 <_ZN18complex_no_dynamic3app17hc0e311e6953dc172E>:
   232d8:	b5f0      	push	{r4, r5, r6, r7, lr}
   232da:	af03      	add	r7, sp, #12
   232dc:	b0a5      	sub	sp, #148	@ 0x94
   232de:	4604      	mov	r4, r0
   232e0:	ad01      	add	r5, sp, #4
   232e2:	2653      	movs	r6, #83	@ 0x53
   232e4:	4628      	mov	r0, r5
   232e6:	4632      	mov	r2, r6
   232e8:	f003 fe8f 	bl	2700a <__aeabi_memcpy>
   232ec:	a816      	add	r0, sp, #88	@ 0x58
   232ee:	213a      	movs	r1, #58	@ 0x3a
   232f0:	f003 fcde 	bl	26cb0 <__aeabi_memclr4>
   232f4:	4822      	ldr	r0, [pc, #136]	@ (23380 <_ZN18complex_no_dynamic3app17hc0e311e6953dc172E+0xa8>)
   232f6:	2106      	movs	r1, #6
   232f8:	462a      	mov	r2, r5
   232fa:	4633      	mov	r3, r6
   232fc:	df04      	svc	4
   232fe:	2802      	cmp	r0, #2
   23300:	d00e      	beq.n	23320 <_ZN18complex_no_dynamic3app17hc0e311e6953dc172E+0x48>
   23302:	481f      	ldr	r0, [pc, #124]	@ (23380 <_ZN18complex_no_dynamic3app17hc0e311e6953dc172E+0xa8>)
   23304:	2107      	movs	r1, #7
   23306:	aa16      	add	r2, sp, #88	@ 0x58
   23308:	233a      	movs	r3, #58	@ 0x3a
   2330a:	df03      	svc	3
   2330c:	2802      	cmp	r0, #2
   2330e:	d007      	beq.n	23320 <_ZN18complex_no_dynamic3app17hc0e311e6953dc172E+0x48>
   23310:	481b      	ldr	r0, [pc, #108]	@ (23380 <_ZN18complex_no_dynamic3app17hc0e311e6953dc172E+0xa8>)
   23312:	2106      	movs	r1, #6
   23314:	2207      	movs	r2, #7
   23316:	2500      	movs	r5, #0
   23318:	462b      	mov	r3, r5
   2331a:	df02      	svc	2
   2331c:	287f      	cmp	r0, #127	@ 0x7f
   2331e:	d810      	bhi.n	23342 <_ZN18complex_no_dynamic3app17hc0e311e6953dc172E+0x6a>
   23320:	2001      	movs	r0, #1
   23322:	7020      	strb	r0, [r4, #0]
   23324:	6061      	str	r1, [r4, #4]
   23326:	4c16      	ldr	r4, [pc, #88]	@ (23380 <_ZN18complex_no_dynamic3app17hc0e311e6953dc172E+0xa8>)
   23328:	2107      	movs	r1, #7
   2332a:	2500      	movs	r5, #0
   2332c:	4620      	mov	r0, r4
   2332e:	462a      	mov	r2, r5
   23330:	462b      	mov	r3, r5
   23332:	df03      	svc	3
   23334:	2106      	movs	r1, #6
   23336:	4620      	mov	r0, r4
   23338:	462a      	mov	r2, r5
   2333a:	462b      	mov	r3, r5
   2333c:	df04      	svc	4
   2333e:	b025      	add	sp, #148	@ 0x94
   23340:	bdf0      	pop	{r4, r5, r6, r7, pc}
   23342:	480f      	ldr	r0, [pc, #60]	@ (23380 <_ZN18complex_no_dynamic3app17hc0e311e6953dc172E+0xa8>)
   23344:	2607      	movs	r6, #7
   23346:	4631      	mov	r1, r6
   23348:	462a      	mov	r2, r5
   2334a:	462b      	mov	r3, r5
   2334c:	df03      	svc	3
   2334e:	480c      	ldr	r0, [pc, #48]	@ (23380 <_ZN18complex_no_dynamic3app17hc0e311e6953dc172E+0xa8>)
   23350:	4631      	mov	r1, r6
   23352:	462a      	mov	r2, r5
   23354:	462b      	mov	r3, r5
   23356:	df03      	svc	3
   23358:	1c60      	adds	r0, r4, #1
   2335a:	a916      	add	r1, sp, #88	@ 0x58
   2335c:	223a      	movs	r2, #58	@ 0x3a
   2335e:	f003 fe54 	bl	2700a <__aeabi_memcpy>
   23362:	7025      	strb	r5, [r4, #0]
   23364:	4c06      	ldr	r4, [pc, #24]	@ (23380 <_ZN18complex_no_dynamic3app17hc0e311e6953dc172E+0xa8>)
   23366:	4620      	mov	r0, r4
   23368:	4631      	mov	r1, r6
   2336a:	462a      	mov	r2, r5
   2336c:	462b      	mov	r3, r5
   2336e:	df03      	svc	3
   23370:	2106      	movs	r1, #6
   23372:	4620      	mov	r0, r4
   23374:	462a      	mov	r2, r5
   23376:	462b      	mov	r3, r5
   23378:	df04      	svc	4
   2337a:	b025      	add	sp, #148	@ 0x94
   2337c:	bdf0      	pop	{r4, r5, r6, r7, pc}
   2337e:	46c0      	nop			@ (mov r8, r8)
   23380:	00002645 	.word	0x00002645

00023384 <_ZN18complex_no_dynamic3app17hc8be94ba482f0cf1E>:
   23384:	b5f0      	push	{r4, r5, r6, r7, lr}
   23386:	af03      	add	r7, sp, #12
   23388:	b09b      	sub	sp, #108	@ 0x6c
   2338a:	4604      	mov	r4, r0
   2338c:	ad01      	add	r5, sp, #4
   2338e:	262e      	movs	r6, #46	@ 0x2e
   23390:	4628      	mov	r0, r5
   23392:	4632      	mov	r2, r6
   23394:	f003 fe39 	bl	2700a <__aeabi_memcpy>
   23398:	a80d      	add	r0, sp, #52	@ 0x34
   2339a:	2138      	movs	r1, #56	@ 0x38
   2339c:	f003 fc88 	bl	26cb0 <__aeabi_memclr4>
   233a0:	4822      	ldr	r0, [pc, #136]	@ (2342c <_ZN18complex_no_dynamic3app17hc8be94ba482f0cf1E+0xa8>)
   233a2:	2109      	movs	r1, #9
   233a4:	462a      	mov	r2, r5
   233a6:	4633      	mov	r3, r6
   233a8:	df04      	svc	4
   233aa:	2802      	cmp	r0, #2
   233ac:	d00e      	beq.n	233cc <_ZN18complex_no_dynamic3app17hc8be94ba482f0cf1E+0x48>
   233ae:	481f      	ldr	r0, [pc, #124]	@ (2342c <_ZN18complex_no_dynamic3app17hc8be94ba482f0cf1E+0xa8>)
   233b0:	2109      	movs	r1, #9
   233b2:	aa0d      	add	r2, sp, #52	@ 0x34
   233b4:	2338      	movs	r3, #56	@ 0x38
   233b6:	df03      	svc	3
   233b8:	2802      	cmp	r0, #2
   233ba:	d007      	beq.n	233cc <_ZN18complex_no_dynamic3app17hc8be94ba482f0cf1E+0x48>
   233bc:	481b      	ldr	r0, [pc, #108]	@ (2342c <_ZN18complex_no_dynamic3app17hc8be94ba482f0cf1E+0xa8>)
   233be:	2109      	movs	r1, #9
   233c0:	2500      	movs	r5, #0
   233c2:	460a      	mov	r2, r1
   233c4:	462b      	mov	r3, r5
   233c6:	df02      	svc	2
   233c8:	287f      	cmp	r0, #127	@ 0x7f
   233ca:	d811      	bhi.n	233f0 <_ZN18complex_no_dynamic3app17hc8be94ba482f0cf1E+0x6c>
   233cc:	2001      	movs	r0, #1
   233ce:	7020      	strb	r0, [r4, #0]
   233d0:	6061      	str	r1, [r4, #4]
   233d2:	4c16      	ldr	r4, [pc, #88]	@ (2342c <_ZN18complex_no_dynamic3app17hc8be94ba482f0cf1E+0xa8>)
   233d4:	2509      	movs	r5, #9
   233d6:	2600      	movs	r6, #0
   233d8:	4620      	mov	r0, r4
   233da:	4629      	mov	r1, r5
   233dc:	4632      	mov	r2, r6
   233de:	4633      	mov	r3, r6
   233e0:	df03      	svc	3
   233e2:	4620      	mov	r0, r4
   233e4:	4629      	mov	r1, r5
   233e6:	4632      	mov	r2, r6
   233e8:	4633      	mov	r3, r6
   233ea:	df04      	svc	4
   233ec:	b01b      	add	sp, #108	@ 0x6c
   233ee:	bdf0      	pop	{r4, r5, r6, r7, pc}
   233f0:	480e      	ldr	r0, [pc, #56]	@ (2342c <_ZN18complex_no_dynamic3app17hc8be94ba482f0cf1E+0xa8>)
   233f2:	2609      	movs	r6, #9
   233f4:	4631      	mov	r1, r6
   233f6:	462a      	mov	r2, r5
   233f8:	462b      	mov	r3, r5
   233fa:	df03      	svc	3
   233fc:	480b      	ldr	r0, [pc, #44]	@ (2342c <_ZN18complex_no_dynamic3app17hc8be94ba482f0cf1E+0xa8>)
   233fe:	4631      	mov	r1, r6
   23400:	462a      	mov	r2, r5
   23402:	462b      	mov	r3, r5
   23404:	df03      	svc	3
   23406:	1c60      	adds	r0, r4, #1
   23408:	a90d      	add	r1, sp, #52	@ 0x34
   2340a:	2238      	movs	r2, #56	@ 0x38
   2340c:	f003 fdfd 	bl	2700a <__aeabi_memcpy>
   23410:	7025      	strb	r5, [r4, #0]
   23412:	4c06      	ldr	r4, [pc, #24]	@ (2342c <_ZN18complex_no_dynamic3app17hc8be94ba482f0cf1E+0xa8>)
   23414:	4620      	mov	r0, r4
   23416:	4631      	mov	r1, r6
   23418:	462a      	mov	r2, r5
   2341a:	462b      	mov	r3, r5
   2341c:	df03      	svc	3
   2341e:	4620      	mov	r0, r4
   23420:	4631      	mov	r1, r6
   23422:	462a      	mov	r2, r5
   23424:	462b      	mov	r3, r5
   23426:	df04      	svc	4
   23428:	b01b      	add	sp, #108	@ 0x6c
   2342a:	bdf0      	pop	{r4, r5, r6, r7, pc}
   2342c:	00000a9d 	.word	0x00000a9d

00023430 <_ZN18complex_no_dynamic3app17hcdb56ede50f46cb5E>:
   23430:	b5f0      	push	{r4, r5, r6, r7, lr}
   23432:	af03      	add	r7, sp, #12
   23434:	b0a5      	sub	sp, #148	@ 0x94
   23436:	4604      	mov	r4, r0
   23438:	ad01      	add	r5, sp, #4
   2343a:	2663      	movs	r6, #99	@ 0x63
   2343c:	4628      	mov	r0, r5
   2343e:	4632      	mov	r2, r6
   23440:	f003 fde3 	bl	2700a <__aeabi_memcpy>
   23444:	a81a      	add	r0, sp, #104	@ 0x68
   23446:	212c      	movs	r1, #44	@ 0x2c
   23448:	f003 fc32 	bl	26cb0 <__aeabi_memclr4>
   2344c:	2018      	movs	r0, #24
   2344e:	2105      	movs	r1, #5
   23450:	462a      	mov	r2, r5
   23452:	4633      	mov	r3, r6
   23454:	df04      	svc	4
   23456:	2802      	cmp	r0, #2
   23458:	d00e      	beq.n	23478 <_ZN18complex_no_dynamic3app17hcdb56ede50f46cb5E+0x48>
   2345a:	2018      	movs	r0, #24
   2345c:	2103      	movs	r1, #3
   2345e:	aa1a      	add	r2, sp, #104	@ 0x68
   23460:	232c      	movs	r3, #44	@ 0x2c
   23462:	df03      	svc	3
   23464:	2802      	cmp	r0, #2
   23466:	d007      	beq.n	23478 <_ZN18complex_no_dynamic3app17hcdb56ede50f46cb5E+0x48>
   23468:	2018      	movs	r0, #24
   2346a:	2105      	movs	r1, #5
   2346c:	2203      	movs	r2, #3
   2346e:	2500      	movs	r5, #0
   23470:	462b      	mov	r3, r5
   23472:	df02      	svc	2
   23474:	287f      	cmp	r0, #127	@ 0x7f
   23476:	d810      	bhi.n	2349a <_ZN18complex_no_dynamic3app17hcdb56ede50f46cb5E+0x6a>
   23478:	2001      	movs	r0, #1
   2347a:	7020      	strb	r0, [r4, #0]
   2347c:	6061      	str	r1, [r4, #4]
   2347e:	2418      	movs	r4, #24
   23480:	2103      	movs	r1, #3
   23482:	2500      	movs	r5, #0
   23484:	4620      	mov	r0, r4
   23486:	462a      	mov	r2, r5
   23488:	462b      	mov	r3, r5
   2348a:	df03      	svc	3
   2348c:	2105      	movs	r1, #5
   2348e:	4620      	mov	r0, r4
   23490:	462a      	mov	r2, r5
   23492:	462b      	mov	r3, r5
   23494:	df04      	svc	4
   23496:	b025      	add	sp, #148	@ 0x94
   23498:	bdf0      	pop	{r4, r5, r6, r7, pc}
   2349a:	2018      	movs	r0, #24
   2349c:	9000      	str	r0, [sp, #0]
   2349e:	2603      	movs	r6, #3
   234a0:	4631      	mov	r1, r6
   234a2:	462a      	mov	r2, r5
   234a4:	462b      	mov	r3, r5
   234a6:	df03      	svc	3
   234a8:	9800      	ldr	r0, [sp, #0]
   234aa:	4631      	mov	r1, r6
   234ac:	462a      	mov	r2, r5
   234ae:	462b      	mov	r3, r5
   234b0:	df03      	svc	3
   234b2:	1c60      	adds	r0, r4, #1
   234b4:	a91a      	add	r1, sp, #104	@ 0x68
   234b6:	222c      	movs	r2, #44	@ 0x2c
   234b8:	f003 fda7 	bl	2700a <__aeabi_memcpy>
   234bc:	7025      	strb	r5, [r4, #0]
   234be:	9c00      	ldr	r4, [sp, #0]
   234c0:	4620      	mov	r0, r4
   234c2:	4631      	mov	r1, r6
   234c4:	462a      	mov	r2, r5
   234c6:	462b      	mov	r3, r5
   234c8:	df03      	svc	3
   234ca:	2105      	movs	r1, #5
   234cc:	4620      	mov	r0, r4
   234ce:	462a      	mov	r2, r5
   234d0:	462b      	mov	r3, r5
   234d2:	df04      	svc	4
   234d4:	b025      	add	sp, #148	@ 0x94
   234d6:	bdf0      	pop	{r4, r5, r6, r7, pc}

000234d8 <_ZN18complex_no_dynamic3app17hd186896003ec9fe1E>:
   234d8:	b5f0      	push	{r4, r5, r6, r7, lr}
   234da:	af03      	add	r7, sp, #12
   234dc:	b0a9      	sub	sp, #164	@ 0xa4
   234de:	4604      	mov	r4, r0
   234e0:	466d      	mov	r5, sp
   234e2:	2651      	movs	r6, #81	@ 0x51
   234e4:	4628      	mov	r0, r5
   234e6:	4632      	mov	r2, r6
   234e8:	f003 fd8f 	bl	2700a <__aeabi_memcpy>
   234ec:	a815      	add	r0, sp, #84	@ 0x54
   234ee:	214f      	movs	r1, #79	@ 0x4f
   234f0:	f003 fbde 	bl	26cb0 <__aeabi_memclr4>
   234f4:	4822      	ldr	r0, [pc, #136]	@ (23580 <_ZN18complex_no_dynamic3app17hd186896003ec9fe1E+0xa8>)
   234f6:	2102      	movs	r1, #2
   234f8:	462a      	mov	r2, r5
   234fa:	4633      	mov	r3, r6
   234fc:	df04      	svc	4
   234fe:	2802      	cmp	r0, #2
   23500:	d00e      	beq.n	23520 <_ZN18complex_no_dynamic3app17hd186896003ec9fe1E+0x48>
   23502:	481f      	ldr	r0, [pc, #124]	@ (23580 <_ZN18complex_no_dynamic3app17hd186896003ec9fe1E+0xa8>)
   23504:	2104      	movs	r1, #4
   23506:	aa15      	add	r2, sp, #84	@ 0x54
   23508:	234f      	movs	r3, #79	@ 0x4f
   2350a:	df03      	svc	3
   2350c:	2802      	cmp	r0, #2
   2350e:	d007      	beq.n	23520 <_ZN18complex_no_dynamic3app17hd186896003ec9fe1E+0x48>
   23510:	481b      	ldr	r0, [pc, #108]	@ (23580 <_ZN18complex_no_dynamic3app17hd186896003ec9fe1E+0xa8>)
   23512:	2102      	movs	r1, #2
   23514:	2204      	movs	r2, #4
   23516:	2500      	movs	r5, #0
   23518:	462b      	mov	r3, r5
   2351a:	df02      	svc	2
   2351c:	287f      	cmp	r0, #127	@ 0x7f
   2351e:	d810      	bhi.n	23542 <_ZN18complex_no_dynamic3app17hd186896003ec9fe1E+0x6a>
   23520:	2001      	movs	r0, #1
   23522:	7020      	strb	r0, [r4, #0]
   23524:	6061      	str	r1, [r4, #4]
   23526:	4c16      	ldr	r4, [pc, #88]	@ (23580 <_ZN18complex_no_dynamic3app17hd186896003ec9fe1E+0xa8>)
   23528:	2104      	movs	r1, #4
   2352a:	2500      	movs	r5, #0
   2352c:	4620      	mov	r0, r4
   2352e:	462a      	mov	r2, r5
   23530:	462b      	mov	r3, r5
   23532:	df03      	svc	3
   23534:	2102      	movs	r1, #2
   23536:	4620      	mov	r0, r4
   23538:	462a      	mov	r2, r5
   2353a:	462b      	mov	r3, r5
   2353c:	df04      	svc	4
   2353e:	b029      	add	sp, #164	@ 0xa4
   23540:	bdf0      	pop	{r4, r5, r6, r7, pc}
   23542:	480f      	ldr	r0, [pc, #60]	@ (23580 <_ZN18complex_no_dynamic3app17hd186896003ec9fe1E+0xa8>)
   23544:	2604      	movs	r6, #4
   23546:	4631      	mov	r1, r6
   23548:	462a      	mov	r2, r5
   2354a:	462b      	mov	r3, r5
   2354c:	df03      	svc	3
   2354e:	480c      	ldr	r0, [pc, #48]	@ (23580 <_ZN18complex_no_dynamic3app17hd186896003ec9fe1E+0xa8>)
   23550:	4631      	mov	r1, r6
   23552:	462a      	mov	r2, r5
   23554:	462b      	mov	r3, r5
   23556:	df03      	svc	3
   23558:	1c60      	adds	r0, r4, #1
   2355a:	a915      	add	r1, sp, #84	@ 0x54
   2355c:	224f      	movs	r2, #79	@ 0x4f
   2355e:	f003 fd54 	bl	2700a <__aeabi_memcpy>
   23562:	7025      	strb	r5, [r4, #0]
   23564:	4c06      	ldr	r4, [pc, #24]	@ (23580 <_ZN18complex_no_dynamic3app17hd186896003ec9fe1E+0xa8>)
   23566:	4620      	mov	r0, r4
   23568:	4631      	mov	r1, r6
   2356a:	462a      	mov	r2, r5
   2356c:	462b      	mov	r3, r5
   2356e:	df03      	svc	3
   23570:	2102      	movs	r1, #2
   23572:	4620      	mov	r0, r4
   23574:	462a      	mov	r2, r5
   23576:	462b      	mov	r3, r5
   23578:	df04      	svc	4
   2357a:	b029      	add	sp, #164	@ 0xa4
   2357c:	bdf0      	pop	{r4, r5, r6, r7, pc}
   2357e:	46c0      	nop			@ (mov r8, r8)
   23580:	00000e16 	.word	0x00000e16

00023584 <_ZN18complex_no_dynamic3app17hd68ce61c59707fbaE>:
   23584:	b5f0      	push	{r4, r5, r6, r7, lr}
   23586:	af03      	add	r7, sp, #12
   23588:	b08f      	sub	sp, #60	@ 0x3c
   2358a:	4604      	mov	r4, r0
   2358c:	ad01      	add	r5, sp, #4
   2358e:	261a      	movs	r6, #26
   23590:	4628      	mov	r0, r5
   23592:	4632      	mov	r2, r6
   23594:	f003 fd39 	bl	2700a <__aeabi_memcpy>
   23598:	a808      	add	r0, sp, #32
   2359a:	2100      	movs	r1, #0
   2359c:	7681      	strb	r1, [r0, #26]
   2359e:	8301      	strh	r1, [r0, #24]
   235a0:	910d      	str	r1, [sp, #52]	@ 0x34
   235a2:	910c      	str	r1, [sp, #48]	@ 0x30
   235a4:	910b      	str	r1, [sp, #44]	@ 0x2c
   235a6:	910a      	str	r1, [sp, #40]	@ 0x28
   235a8:	9109      	str	r1, [sp, #36]	@ 0x24
   235aa:	9108      	str	r1, [sp, #32]
   235ac:	4822      	ldr	r0, [pc, #136]	@ (23638 <_ZN18complex_no_dynamic3app17hd68ce61c59707fbaE+0xb4>)
   235ae:	2105      	movs	r1, #5
   235b0:	462a      	mov	r2, r5
   235b2:	4633      	mov	r3, r6
   235b4:	df04      	svc	4
   235b6:	2802      	cmp	r0, #2
   235b8:	d00e      	beq.n	235d8 <_ZN18complex_no_dynamic3app17hd68ce61c59707fbaE+0x54>
   235ba:	481f      	ldr	r0, [pc, #124]	@ (23638 <_ZN18complex_no_dynamic3app17hd68ce61c59707fbaE+0xb4>)
   235bc:	2102      	movs	r1, #2
   235be:	aa08      	add	r2, sp, #32
   235c0:	231b      	movs	r3, #27
   235c2:	df03      	svc	3
   235c4:	2802      	cmp	r0, #2
   235c6:	d007      	beq.n	235d8 <_ZN18complex_no_dynamic3app17hd68ce61c59707fbaE+0x54>
   235c8:	481b      	ldr	r0, [pc, #108]	@ (23638 <_ZN18complex_no_dynamic3app17hd68ce61c59707fbaE+0xb4>)
   235ca:	2105      	movs	r1, #5
   235cc:	2202      	movs	r2, #2
   235ce:	2500      	movs	r5, #0
   235d0:	462b      	mov	r3, r5
   235d2:	df02      	svc	2
   235d4:	287f      	cmp	r0, #127	@ 0x7f
   235d6:	d810      	bhi.n	235fa <_ZN18complex_no_dynamic3app17hd68ce61c59707fbaE+0x76>
   235d8:	2001      	movs	r0, #1
   235da:	7020      	strb	r0, [r4, #0]
   235dc:	6061      	str	r1, [r4, #4]
   235de:	4c16      	ldr	r4, [pc, #88]	@ (23638 <_ZN18complex_no_dynamic3app17hd68ce61c59707fbaE+0xb4>)
   235e0:	2102      	movs	r1, #2
   235e2:	2500      	movs	r5, #0
   235e4:	4620      	mov	r0, r4
   235e6:	462a      	mov	r2, r5
   235e8:	462b      	mov	r3, r5
   235ea:	df03      	svc	3
   235ec:	2105      	movs	r1, #5
   235ee:	4620      	mov	r0, r4
   235f0:	462a      	mov	r2, r5
   235f2:	462b      	mov	r3, r5
   235f4:	df04      	svc	4
   235f6:	b00f      	add	sp, #60	@ 0x3c
   235f8:	bdf0      	pop	{r4, r5, r6, r7, pc}
   235fa:	480f      	ldr	r0, [pc, #60]	@ (23638 <_ZN18complex_no_dynamic3app17hd68ce61c59707fbaE+0xb4>)
   235fc:	2602      	movs	r6, #2
   235fe:	4631      	mov	r1, r6
   23600:	462a      	mov	r2, r5
   23602:	462b      	mov	r3, r5
   23604:	df03      	svc	3
   23606:	480c      	ldr	r0, [pc, #48]	@ (23638 <_ZN18complex_no_dynamic3app17hd68ce61c59707fbaE+0xb4>)
   23608:	4631      	mov	r1, r6
   2360a:	462a      	mov	r2, r5
   2360c:	462b      	mov	r3, r5
   2360e:	df03      	svc	3
   23610:	1c60      	adds	r0, r4, #1
   23612:	a908      	add	r1, sp, #32
   23614:	221b      	movs	r2, #27
   23616:	f003 fcf8 	bl	2700a <__aeabi_memcpy>
   2361a:	7025      	strb	r5, [r4, #0]
   2361c:	4c06      	ldr	r4, [pc, #24]	@ (23638 <_ZN18complex_no_dynamic3app17hd68ce61c59707fbaE+0xb4>)
   2361e:	4620      	mov	r0, r4
   23620:	4631      	mov	r1, r6
   23622:	462a      	mov	r2, r5
   23624:	462b      	mov	r3, r5
   23626:	df03      	svc	3
   23628:	2105      	movs	r1, #5
   2362a:	4620      	mov	r0, r4
   2362c:	462a      	mov	r2, r5
   2362e:	462b      	mov	r3, r5
   23630:	df04      	svc	4
   23632:	b00f      	add	sp, #60	@ 0x3c
   23634:	bdf0      	pop	{r4, r5, r6, r7, pc}
   23636:	46c0      	nop			@ (mov r8, r8)
   23638:	00001cce 	.word	0x00001cce

0002363c <_ZN18complex_no_dynamic3app17hd8cea8ee395f3d37E>:
   2363c:	b5f0      	push	{r4, r5, r6, r7, lr}
   2363e:	af03      	add	r7, sp, #12
   23640:	b091      	sub	sp, #68	@ 0x44
   23642:	4604      	mov	r4, r0
   23644:	466d      	mov	r5, sp
   23646:	2632      	movs	r6, #50	@ 0x32
   23648:	4628      	mov	r0, r5
   2364a:	4632      	mov	r2, r6
   2364c:	f003 fcdd 	bl	2700a <__aeabi_memcpy>
   23650:	2000      	movs	r0, #0
   23652:	9010      	str	r0, [sp, #64]	@ 0x40
   23654:	900f      	str	r0, [sp, #60]	@ 0x3c
   23656:	900e      	str	r0, [sp, #56]	@ 0x38
   23658:	900d      	str	r0, [sp, #52]	@ 0x34
   2365a:	4822      	ldr	r0, [pc, #136]	@ (236e4 <_ZN18complex_no_dynamic3app17hd8cea8ee395f3d37E+0xa8>)
   2365c:	2104      	movs	r1, #4
   2365e:	462a      	mov	r2, r5
   23660:	4633      	mov	r3, r6
   23662:	df04      	svc	4
   23664:	2802      	cmp	r0, #2
   23666:	d00e      	beq.n	23686 <_ZN18complex_no_dynamic3app17hd8cea8ee395f3d37E+0x4a>
   23668:	481e      	ldr	r0, [pc, #120]	@ (236e4 <_ZN18complex_no_dynamic3app17hd8cea8ee395f3d37E+0xa8>)
   2366a:	2109      	movs	r1, #9
   2366c:	aa0d      	add	r2, sp, #52	@ 0x34
   2366e:	2310      	movs	r3, #16
   23670:	df03      	svc	3
   23672:	2802      	cmp	r0, #2
   23674:	d007      	beq.n	23686 <_ZN18complex_no_dynamic3app17hd8cea8ee395f3d37E+0x4a>
   23676:	481b      	ldr	r0, [pc, #108]	@ (236e4 <_ZN18complex_no_dynamic3app17hd8cea8ee395f3d37E+0xa8>)
   23678:	2104      	movs	r1, #4
   2367a:	2209      	movs	r2, #9
   2367c:	2500      	movs	r5, #0
   2367e:	462b      	mov	r3, r5
   23680:	df02      	svc	2
   23682:	287f      	cmp	r0, #127	@ 0x7f
   23684:	d810      	bhi.n	236a8 <_ZN18complex_no_dynamic3app17hd8cea8ee395f3d37E+0x6c>
   23686:	2001      	movs	r0, #1
   23688:	7020      	strb	r0, [r4, #0]
   2368a:	6061      	str	r1, [r4, #4]
   2368c:	4c15      	ldr	r4, [pc, #84]	@ (236e4 <_ZN18complex_no_dynamic3app17hd8cea8ee395f3d37E+0xa8>)
   2368e:	2109      	movs	r1, #9
   23690:	2500      	movs	r5, #0
   23692:	4620      	mov	r0, r4
   23694:	462a      	mov	r2, r5
   23696:	462b      	mov	r3, r5
   23698:	df03      	svc	3
   2369a:	2104      	movs	r1, #4
   2369c:	4620      	mov	r0, r4
   2369e:	462a      	mov	r2, r5
   236a0:	462b      	mov	r3, r5
   236a2:	df04      	svc	4
   236a4:	b011      	add	sp, #68	@ 0x44
   236a6:	bdf0      	pop	{r4, r5, r6, r7, pc}
   236a8:	480e      	ldr	r0, [pc, #56]	@ (236e4 <_ZN18complex_no_dynamic3app17hd8cea8ee395f3d37E+0xa8>)
   236aa:	2609      	movs	r6, #9
   236ac:	4631      	mov	r1, r6
   236ae:	462a      	mov	r2, r5
   236b0:	462b      	mov	r3, r5
   236b2:	df03      	svc	3
   236b4:	480b      	ldr	r0, [pc, #44]	@ (236e4 <_ZN18complex_no_dynamic3app17hd8cea8ee395f3d37E+0xa8>)
   236b6:	4631      	mov	r1, r6
   236b8:	462a      	mov	r2, r5
   236ba:	462b      	mov	r3, r5
   236bc:	df03      	svc	3
   236be:	1c60      	adds	r0, r4, #1
   236c0:	a90d      	add	r1, sp, #52	@ 0x34
   236c2:	2210      	movs	r2, #16
   236c4:	f003 fca1 	bl	2700a <__aeabi_memcpy>
   236c8:	7025      	strb	r5, [r4, #0]
   236ca:	4c06      	ldr	r4, [pc, #24]	@ (236e4 <_ZN18complex_no_dynamic3app17hd8cea8ee395f3d37E+0xa8>)
   236cc:	4620      	mov	r0, r4
   236ce:	4631      	mov	r1, r6
   236d0:	462a      	mov	r2, r5
   236d2:	462b      	mov	r3, r5
   236d4:	df03      	svc	3
   236d6:	2104      	movs	r1, #4
   236d8:	4620      	mov	r0, r4
   236da:	462a      	mov	r2, r5
   236dc:	462b      	mov	r3, r5
   236de:	df04      	svc	4
   236e0:	b011      	add	sp, #68	@ 0x44
   236e2:	bdf0      	pop	{r4, r5, r6, r7, pc}
   236e4:	000019d6 	.word	0x000019d6

000236e8 <_ZN18complex_no_dynamic3app17hd8fbaefa0b218421E>:
   236e8:	b5f0      	push	{r4, r5, r6, r7, lr}
   236ea:	af03      	add	r7, sp, #12
   236ec:	b09d      	sub	sp, #116	@ 0x74
   236ee:	4604      	mov	r4, r0
   236f0:	466d      	mov	r5, sp
   236f2:	265d      	movs	r6, #93	@ 0x5d
   236f4:	4628      	mov	r0, r5
   236f6:	4632      	mov	r2, r6
   236f8:	f003 fc87 	bl	2700a <__aeabi_memcpy>
   236fc:	a818      	add	r0, sp, #96	@ 0x60
   236fe:	2100      	movs	r1, #0
   23700:	8201      	strh	r1, [r0, #16]
   23702:	911b      	str	r1, [sp, #108]	@ 0x6c
   23704:	911a      	str	r1, [sp, #104]	@ 0x68
   23706:	9119      	str	r1, [sp, #100]	@ 0x64
   23708:	9118      	str	r1, [sp, #96]	@ 0x60
   2370a:	4822      	ldr	r0, [pc, #136]	@ (23794 <_ZN18complex_no_dynamic3app17hd8fbaefa0b218421E+0xac>)
   2370c:	462a      	mov	r2, r5
   2370e:	4633      	mov	r3, r6
   23710:	df04      	svc	4
   23712:	2802      	cmp	r0, #2
   23714:	d00e      	beq.n	23734 <_ZN18complex_no_dynamic3app17hd8fbaefa0b218421E+0x4c>
   23716:	481f      	ldr	r0, [pc, #124]	@ (23794 <_ZN18complex_no_dynamic3app17hd8fbaefa0b218421E+0xac>)
   23718:	2102      	movs	r1, #2
   2371a:	aa18      	add	r2, sp, #96	@ 0x60
   2371c:	2312      	movs	r3, #18
   2371e:	df03      	svc	3
   23720:	2802      	cmp	r0, #2
   23722:	d007      	beq.n	23734 <_ZN18complex_no_dynamic3app17hd8fbaefa0b218421E+0x4c>
   23724:	481b      	ldr	r0, [pc, #108]	@ (23794 <_ZN18complex_no_dynamic3app17hd8fbaefa0b218421E+0xac>)
   23726:	2202      	movs	r2, #2
   23728:	2500      	movs	r5, #0
   2372a:	4629      	mov	r1, r5
   2372c:	462b      	mov	r3, r5
   2372e:	df02      	svc	2
   23730:	287f      	cmp	r0, #127	@ 0x7f
   23732:	d810      	bhi.n	23756 <_ZN18complex_no_dynamic3app17hd8fbaefa0b218421E+0x6e>
   23734:	2001      	movs	r0, #1
   23736:	7020      	strb	r0, [r4, #0]
   23738:	6061      	str	r1, [r4, #4]
   2373a:	4c16      	ldr	r4, [pc, #88]	@ (23794 <_ZN18complex_no_dynamic3app17hd8fbaefa0b218421E+0xac>)
   2373c:	2102      	movs	r1, #2
   2373e:	2500      	movs	r5, #0
   23740:	4620      	mov	r0, r4
   23742:	462a      	mov	r2, r5
   23744:	462b      	mov	r3, r5
   23746:	df03      	svc	3
   23748:	4620      	mov	r0, r4
   2374a:	4629      	mov	r1, r5
   2374c:	462a      	mov	r2, r5
   2374e:	462b      	mov	r3, r5
   23750:	df04      	svc	4
   23752:	b01d      	add	sp, #116	@ 0x74
   23754:	bdf0      	pop	{r4, r5, r6, r7, pc}
   23756:	480f      	ldr	r0, [pc, #60]	@ (23794 <_ZN18complex_no_dynamic3app17hd8fbaefa0b218421E+0xac>)
   23758:	2602      	movs	r6, #2
   2375a:	4631      	mov	r1, r6
   2375c:	462a      	mov	r2, r5
   2375e:	462b      	mov	r3, r5
   23760:	df03      	svc	3
   23762:	480c      	ldr	r0, [pc, #48]	@ (23794 <_ZN18complex_no_dynamic3app17hd8fbaefa0b218421E+0xac>)
   23764:	4631      	mov	r1, r6
   23766:	462a      	mov	r2, r5
   23768:	462b      	mov	r3, r5
   2376a:	df03      	svc	3
   2376c:	1c60      	adds	r0, r4, #1
   2376e:	a918      	add	r1, sp, #96	@ 0x60
   23770:	2212      	movs	r2, #18
   23772:	f003 fc4a 	bl	2700a <__aeabi_memcpy>
   23776:	7025      	strb	r5, [r4, #0]
   23778:	4c06      	ldr	r4, [pc, #24]	@ (23794 <_ZN18complex_no_dynamic3app17hd8fbaefa0b218421E+0xac>)
   2377a:	4620      	mov	r0, r4
   2377c:	4631      	mov	r1, r6
   2377e:	462a      	mov	r2, r5
   23780:	462b      	mov	r3, r5
   23782:	df03      	svc	3
   23784:	4620      	mov	r0, r4
   23786:	4629      	mov	r1, r5
   23788:	462a      	mov	r2, r5
   2378a:	462b      	mov	r3, r5
   2378c:	df04      	svc	4
   2378e:	b01d      	add	sp, #116	@ 0x74
   23790:	bdf0      	pop	{r4, r5, r6, r7, pc}
   23792:	46c0      	nop			@ (mov r8, r8)
   23794:	000015f1 	.word	0x000015f1

00023798 <_ZN18complex_no_dynamic3app17hd9f7a3e59a32f168E>:
   23798:	b5f0      	push	{r4, r5, r6, r7, lr}
   2379a:	af03      	add	r7, sp, #12
   2379c:	b09f      	sub	sp, #124	@ 0x7c
   2379e:	4604      	mov	r4, r0
   237a0:	ad01      	add	r5, sp, #4
   237a2:	2627      	movs	r6, #39	@ 0x27
   237a4:	4628      	mov	r0, r5
   237a6:	4632      	mov	r2, r6
   237a8:	f003 fc2f 	bl	2700a <__aeabi_memcpy>
   237ac:	a80b      	add	r0, sp, #44	@ 0x2c
   237ae:	214f      	movs	r1, #79	@ 0x4f
   237b0:	f003 fa7e 	bl	26cb0 <__aeabi_memclr4>
   237b4:	4821      	ldr	r0, [pc, #132]	@ (2383c <_ZN18complex_no_dynamic3app17hd9f7a3e59a32f168E+0xa4>)
   237b6:	2109      	movs	r1, #9
   237b8:	462a      	mov	r2, r5
   237ba:	4633      	mov	r3, r6
   237bc:	df04      	svc	4
   237be:	2802      	cmp	r0, #2
   237c0:	d00e      	beq.n	237e0 <_ZN18complex_no_dynamic3app17hd9f7a3e59a32f168E+0x48>
   237c2:	481e      	ldr	r0, [pc, #120]	@ (2383c <_ZN18complex_no_dynamic3app17hd9f7a3e59a32f168E+0xa4>)
   237c4:	2100      	movs	r1, #0
   237c6:	aa0b      	add	r2, sp, #44	@ 0x2c
   237c8:	234f      	movs	r3, #79	@ 0x4f
   237ca:	df03      	svc	3
   237cc:	2802      	cmp	r0, #2
   237ce:	d007      	beq.n	237e0 <_ZN18complex_no_dynamic3app17hd9f7a3e59a32f168E+0x48>
   237d0:	481a      	ldr	r0, [pc, #104]	@ (2383c <_ZN18complex_no_dynamic3app17hd9f7a3e59a32f168E+0xa4>)
   237d2:	2109      	movs	r1, #9
   237d4:	2500      	movs	r5, #0
   237d6:	462a      	mov	r2, r5
   237d8:	462b      	mov	r3, r5
   237da:	df02      	svc	2
   237dc:	287f      	cmp	r0, #127	@ 0x7f
   237de:	d810      	bhi.n	23802 <_ZN18complex_no_dynamic3app17hd9f7a3e59a32f168E+0x6a>
   237e0:	2001      	movs	r0, #1
   237e2:	7020      	strb	r0, [r4, #0]
   237e4:	6061      	str	r1, [r4, #4]
   237e6:	4c15      	ldr	r4, [pc, #84]	@ (2383c <_ZN18complex_no_dynamic3app17hd9f7a3e59a32f168E+0xa4>)
   237e8:	2500      	movs	r5, #0
   237ea:	4620      	mov	r0, r4
   237ec:	4629      	mov	r1, r5
   237ee:	462a      	mov	r2, r5
   237f0:	462b      	mov	r3, r5
   237f2:	df03      	svc	3
   237f4:	2109      	movs	r1, #9
   237f6:	4620      	mov	r0, r4
   237f8:	462a      	mov	r2, r5
   237fa:	462b      	mov	r3, r5
   237fc:	df04      	svc	4
   237fe:	b01f      	add	sp, #124	@ 0x7c
   23800:	bdf0      	pop	{r4, r5, r6, r7, pc}
   23802:	4e0e      	ldr	r6, [pc, #56]	@ (2383c <_ZN18complex_no_dynamic3app17hd9f7a3e59a32f168E+0xa4>)
   23804:	4630      	mov	r0, r6
   23806:	4629      	mov	r1, r5
   23808:	462a      	mov	r2, r5
   2380a:	462b      	mov	r3, r5
   2380c:	df03      	svc	3
   2380e:	4630      	mov	r0, r6
   23810:	4629      	mov	r1, r5
   23812:	462a      	mov	r2, r5
   23814:	462b      	mov	r3, r5
   23816:	df03      	svc	3
   23818:	1c60      	adds	r0, r4, #1
   2381a:	a90b      	add	r1, sp, #44	@ 0x2c
   2381c:	224f      	movs	r2, #79	@ 0x4f
   2381e:	f003 fbf4 	bl	2700a <__aeabi_memcpy>
   23822:	7025      	strb	r5, [r4, #0]
   23824:	4630      	mov	r0, r6
   23826:	4629      	mov	r1, r5
   23828:	462a      	mov	r2, r5
   2382a:	462b      	mov	r3, r5
   2382c:	df03      	svc	3
   2382e:	2109      	movs	r1, #9
   23830:	4630      	mov	r0, r6
   23832:	462a      	mov	r2, r5
   23834:	462b      	mov	r3, r5
   23836:	df04      	svc	4
   23838:	b01f      	add	sp, #124	@ 0x7c
   2383a:	bdf0      	pop	{r4, r5, r6, r7, pc}
   2383c:	00000b4c 	.word	0x00000b4c

00023840 <_ZN18complex_no_dynamic3app17he03a1e86dbedd912E>:
   23840:	b5f0      	push	{r4, r5, r6, r7, lr}
   23842:	af03      	add	r7, sp, #12
   23844:	b0a3      	sub	sp, #140	@ 0x8c
   23846:	4604      	mov	r4, r0
   23848:	ad01      	add	r5, sp, #4
   2384a:	264f      	movs	r6, #79	@ 0x4f
   2384c:	4628      	mov	r0, r5
   2384e:	4632      	mov	r2, r6
   23850:	f003 fbdb 	bl	2700a <__aeabi_memcpy>
   23854:	a815      	add	r0, sp, #84	@ 0x54
   23856:	2135      	movs	r1, #53	@ 0x35
   23858:	f003 fa2a 	bl	26cb0 <__aeabi_memclr4>
   2385c:	4822      	ldr	r0, [pc, #136]	@ (238e8 <_ZN18complex_no_dynamic3app17he03a1e86dbedd912E+0xa8>)
   2385e:	2107      	movs	r1, #7
   23860:	462a      	mov	r2, r5
   23862:	4633      	mov	r3, r6
   23864:	df04      	svc	4
   23866:	2802      	cmp	r0, #2
   23868:	d00e      	beq.n	23888 <_ZN18complex_no_dynamic3app17he03a1e86dbedd912E+0x48>
   2386a:	481f      	ldr	r0, [pc, #124]	@ (238e8 <_ZN18complex_no_dynamic3app17he03a1e86dbedd912E+0xa8>)
   2386c:	2101      	movs	r1, #1
   2386e:	aa15      	add	r2, sp, #84	@ 0x54
   23870:	2335      	movs	r3, #53	@ 0x35
   23872:	df03      	svc	3
   23874:	2802      	cmp	r0, #2
   23876:	d007      	beq.n	23888 <_ZN18complex_no_dynamic3app17he03a1e86dbedd912E+0x48>
   23878:	481b      	ldr	r0, [pc, #108]	@ (238e8 <_ZN18complex_no_dynamic3app17he03a1e86dbedd912E+0xa8>)
   2387a:	2107      	movs	r1, #7
   2387c:	2201      	movs	r2, #1
   2387e:	2500      	movs	r5, #0
   23880:	462b      	mov	r3, r5
   23882:	df02      	svc	2
   23884:	287f      	cmp	r0, #127	@ 0x7f
   23886:	d810      	bhi.n	238aa <_ZN18complex_no_dynamic3app17he03a1e86dbedd912E+0x6a>
   23888:	2201      	movs	r2, #1
   2388a:	7022      	strb	r2, [r4, #0]
   2388c:	6061      	str	r1, [r4, #4]
   2388e:	4c16      	ldr	r4, [pc, #88]	@ (238e8 <_ZN18complex_no_dynamic3app17he03a1e86dbedd912E+0xa8>)
   23890:	2500      	movs	r5, #0
   23892:	4620      	mov	r0, r4
   23894:	4611      	mov	r1, r2
   23896:	462a      	mov	r2, r5
   23898:	462b      	mov	r3, r5
   2389a:	df03      	svc	3
   2389c:	2107      	movs	r1, #7
   2389e:	4620      	mov	r0, r4
   238a0:	462a      	mov	r2, r5
   238a2:	462b      	mov	r3, r5
   238a4:	df04      	svc	4
   238a6:	b023      	add	sp, #140	@ 0x8c
   238a8:	bdf0      	pop	{r4, r5, r6, r7, pc}
   238aa:	480f      	ldr	r0, [pc, #60]	@ (238e8 <_ZN18complex_no_dynamic3app17he03a1e86dbedd912E+0xa8>)
   238ac:	2601      	movs	r6, #1
   238ae:	4631      	mov	r1, r6
   238b0:	462a      	mov	r2, r5
   238b2:	462b      	mov	r3, r5
   238b4:	df03      	svc	3
   238b6:	480c      	ldr	r0, [pc, #48]	@ (238e8 <_ZN18complex_no_dynamic3app17he03a1e86dbedd912E+0xa8>)
   238b8:	4631      	mov	r1, r6
   238ba:	462a      	mov	r2, r5
   238bc:	462b      	mov	r3, r5
   238be:	df03      	svc	3
   238c0:	1c60      	adds	r0, r4, #1
   238c2:	a915      	add	r1, sp, #84	@ 0x54
   238c4:	2235      	movs	r2, #53	@ 0x35
   238c6:	f003 fba0 	bl	2700a <__aeabi_memcpy>
   238ca:	7025      	strb	r5, [r4, #0]
   238cc:	4c06      	ldr	r4, [pc, #24]	@ (238e8 <_ZN18complex_no_dynamic3app17he03a1e86dbedd912E+0xa8>)
   238ce:	4620      	mov	r0, r4
   238d0:	4631      	mov	r1, r6
   238d2:	462a      	mov	r2, r5
   238d4:	462b      	mov	r3, r5
   238d6:	df03      	svc	3
   238d8:	2107      	movs	r1, #7
   238da:	4620      	mov	r0, r4
   238dc:	462a      	mov	r2, r5
   238de:	462b      	mov	r3, r5
   238e0:	df04      	svc	4
   238e2:	b023      	add	sp, #140	@ 0x8c
   238e4:	bdf0      	pop	{r4, r5, r6, r7, pc}
   238e6:	46c0      	nop			@ (mov r8, r8)
   238e8:	000016d7 	.word	0x000016d7

000238ec <_ZN18complex_no_dynamic3app17he2b42cf955791704E>:
   238ec:	b5f0      	push	{r4, r5, r6, r7, lr}
   238ee:	af03      	add	r7, sp, #12
   238f0:	b093      	sub	sp, #76	@ 0x4c
   238f2:	4604      	mov	r4, r0
   238f4:	ad01      	add	r5, sp, #4
   238f6:	2636      	movs	r6, #54	@ 0x36
   238f8:	4628      	mov	r0, r5
   238fa:	4632      	mov	r2, r6
   238fc:	f003 fb85 	bl	2700a <__aeabi_memcpy>
   23900:	a80f      	add	r0, sp, #60	@ 0x3c
   23902:	2100      	movs	r1, #0
   23904:	7381      	strb	r1, [r0, #14]
   23906:	8181      	strh	r1, [r0, #12]
   23908:	9111      	str	r1, [sp, #68]	@ 0x44
   2390a:	9110      	str	r1, [sp, #64]	@ 0x40
   2390c:	910f      	str	r1, [sp, #60]	@ 0x3c
   2390e:	4822      	ldr	r0, [pc, #136]	@ (23998 <_ZN18complex_no_dynamic3app17he2b42cf955791704E+0xac>)
   23910:	2105      	movs	r1, #5
   23912:	462a      	mov	r2, r5
   23914:	4633      	mov	r3, r6
   23916:	df04      	svc	4
   23918:	2802      	cmp	r0, #2
   2391a:	d00e      	beq.n	2393a <_ZN18complex_no_dynamic3app17he2b42cf955791704E+0x4e>
   2391c:	481e      	ldr	r0, [pc, #120]	@ (23998 <_ZN18complex_no_dynamic3app17he2b42cf955791704E+0xac>)
   2391e:	2103      	movs	r1, #3
   23920:	aa0f      	add	r2, sp, #60	@ 0x3c
   23922:	230f      	movs	r3, #15
   23924:	df03      	svc	3
   23926:	2802      	cmp	r0, #2
   23928:	d007      	beq.n	2393a <_ZN18complex_no_dynamic3app17he2b42cf955791704E+0x4e>
   2392a:	481b      	ldr	r0, [pc, #108]	@ (23998 <_ZN18complex_no_dynamic3app17he2b42cf955791704E+0xac>)
   2392c:	2105      	movs	r1, #5
   2392e:	2203      	movs	r2, #3
   23930:	2500      	movs	r5, #0
   23932:	462b      	mov	r3, r5
   23934:	df02      	svc	2
   23936:	287f      	cmp	r0, #127	@ 0x7f
   23938:	d810      	bhi.n	2395c <_ZN18complex_no_dynamic3app17he2b42cf955791704E+0x70>
   2393a:	2001      	movs	r0, #1
   2393c:	7020      	strb	r0, [r4, #0]
   2393e:	6061      	str	r1, [r4, #4]
   23940:	4c15      	ldr	r4, [pc, #84]	@ (23998 <_ZN18complex_no_dynamic3app17he2b42cf955791704E+0xac>)
   23942:	2103      	movs	r1, #3
   23944:	2500      	movs	r5, #0
   23946:	4620      	mov	r0, r4
   23948:	462a      	mov	r2, r5
   2394a:	462b      	mov	r3, r5
   2394c:	df03      	svc	3
   2394e:	2105      	movs	r1, #5
   23950:	4620      	mov	r0, r4
   23952:	462a      	mov	r2, r5
   23954:	462b      	mov	r3, r5
   23956:	df04      	svc	4
   23958:	b013      	add	sp, #76	@ 0x4c
   2395a:	bdf0      	pop	{r4, r5, r6, r7, pc}
   2395c:	480e      	ldr	r0, [pc, #56]	@ (23998 <_ZN18complex_no_dynamic3app17he2b42cf955791704E+0xac>)
   2395e:	2603      	movs	r6, #3
   23960:	4631      	mov	r1, r6
   23962:	462a      	mov	r2, r5
   23964:	462b      	mov	r3, r5
   23966:	df03      	svc	3
   23968:	480b      	ldr	r0, [pc, #44]	@ (23998 <_ZN18complex_no_dynamic3app17he2b42cf955791704E+0xac>)
   2396a:	4631      	mov	r1, r6
   2396c:	462a      	mov	r2, r5
   2396e:	462b      	mov	r3, r5
   23970:	df03      	svc	3
   23972:	1c60      	adds	r0, r4, #1
   23974:	a90f      	add	r1, sp, #60	@ 0x3c
   23976:	220f      	movs	r2, #15
   23978:	f003 fb47 	bl	2700a <__aeabi_memcpy>
   2397c:	7025      	strb	r5, [r4, #0]
   2397e:	4c06      	ldr	r4, [pc, #24]	@ (23998 <_ZN18complex_no_dynamic3app17he2b42cf955791704E+0xac>)
   23980:	4620      	mov	r0, r4
   23982:	4631      	mov	r1, r6
   23984:	462a      	mov	r2, r5
   23986:	462b      	mov	r3, r5
   23988:	df03      	svc	3
   2398a:	2105      	movs	r1, #5
   2398c:	4620      	mov	r0, r4
   2398e:	462a      	mov	r2, r5
   23990:	462b      	mov	r3, r5
   23992:	df04      	svc	4
   23994:	b013      	add	sp, #76	@ 0x4c
   23996:	bdf0      	pop	{r4, r5, r6, r7, pc}
   23998:	00000653 	.word	0x00000653

0002399c <_ZN18complex_no_dynamic3app17he42d229dfd649048E>:
   2399c:	b5f0      	push	{r4, r5, r6, r7, lr}
   2399e:	af03      	add	r7, sp, #12
   239a0:	b0a1      	sub	sp, #132	@ 0x84
   239a2:	4604      	mov	r4, r0
   239a4:	ad01      	add	r5, sp, #4
   239a6:	261b      	movs	r6, #27
   239a8:	4628      	mov	r0, r5
   239aa:	4632      	mov	r2, r6
   239ac:	f003 fb2d 	bl	2700a <__aeabi_memcpy>
   239b0:	a808      	add	r0, sp, #32
   239b2:	2163      	movs	r1, #99	@ 0x63
   239b4:	f003 f97c 	bl	26cb0 <__aeabi_memclr4>
   239b8:	4822      	ldr	r0, [pc, #136]	@ (23a44 <_ZN18complex_no_dynamic3app17he42d229dfd649048E+0xa8>)
   239ba:	2103      	movs	r1, #3
   239bc:	462a      	mov	r2, r5
   239be:	4633      	mov	r3, r6
   239c0:	df04      	svc	4
   239c2:	2802      	cmp	r0, #2
   239c4:	d00e      	beq.n	239e4 <_ZN18complex_no_dynamic3app17he42d229dfd649048E+0x48>
   239c6:	481f      	ldr	r0, [pc, #124]	@ (23a44 <_ZN18complex_no_dynamic3app17he42d229dfd649048E+0xa8>)
   239c8:	2103      	movs	r1, #3
   239ca:	aa08      	add	r2, sp, #32
   239cc:	2363      	movs	r3, #99	@ 0x63
   239ce:	df03      	svc	3
   239d0:	2802      	cmp	r0, #2
   239d2:	d007      	beq.n	239e4 <_ZN18complex_no_dynamic3app17he42d229dfd649048E+0x48>
   239d4:	481b      	ldr	r0, [pc, #108]	@ (23a44 <_ZN18complex_no_dynamic3app17he42d229dfd649048E+0xa8>)
   239d6:	2103      	movs	r1, #3
   239d8:	2500      	movs	r5, #0
   239da:	460a      	mov	r2, r1
   239dc:	462b      	mov	r3, r5
   239de:	df02      	svc	2
   239e0:	287f      	cmp	r0, #127	@ 0x7f
   239e2:	d811      	bhi.n	23a08 <_ZN18complex_no_dynamic3app17he42d229dfd649048E+0x6c>
   239e4:	2001      	movs	r0, #1
   239e6:	7020      	strb	r0, [r4, #0]
   239e8:	6061      	str	r1, [r4, #4]
   239ea:	4c16      	ldr	r4, [pc, #88]	@ (23a44 <_ZN18complex_no_dynamic3app17he42d229dfd649048E+0xa8>)
   239ec:	2503      	movs	r5, #3
   239ee:	2600      	movs	r6, #0
   239f0:	4620      	mov	r0, r4
   239f2:	4629      	mov	r1, r5
   239f4:	4632      	mov	r2, r6
   239f6:	4633      	mov	r3, r6
   239f8:	df03      	svc	3
   239fa:	4620      	mov	r0, r4
   239fc:	4629      	mov	r1, r5
   239fe:	4632      	mov	r2, r6
   23a00:	4633      	mov	r3, r6
   23a02:	df04      	svc	4
   23a04:	b021      	add	sp, #132	@ 0x84
   23a06:	bdf0      	pop	{r4, r5, r6, r7, pc}
   23a08:	480e      	ldr	r0, [pc, #56]	@ (23a44 <_ZN18complex_no_dynamic3app17he42d229dfd649048E+0xa8>)
   23a0a:	2603      	movs	r6, #3
   23a0c:	4631      	mov	r1, r6
   23a0e:	462a      	mov	r2, r5
   23a10:	462b      	mov	r3, r5
   23a12:	df03      	svc	3
   23a14:	480b      	ldr	r0, [pc, #44]	@ (23a44 <_ZN18complex_no_dynamic3app17he42d229dfd649048E+0xa8>)
   23a16:	4631      	mov	r1, r6
   23a18:	462a      	mov	r2, r5
   23a1a:	462b      	mov	r3, r5
   23a1c:	df03      	svc	3
   23a1e:	1c60      	adds	r0, r4, #1
   23a20:	a908      	add	r1, sp, #32
   23a22:	2263      	movs	r2, #99	@ 0x63
   23a24:	f003 faf1 	bl	2700a <__aeabi_memcpy>
   23a28:	7025      	strb	r5, [r4, #0]
   23a2a:	4c06      	ldr	r4, [pc, #24]	@ (23a44 <_ZN18complex_no_dynamic3app17he42d229dfd649048E+0xa8>)
   23a2c:	4620      	mov	r0, r4
   23a2e:	4631      	mov	r1, r6
   23a30:	462a      	mov	r2, r5
   23a32:	462b      	mov	r3, r5
   23a34:	df03      	svc	3
   23a36:	4620      	mov	r0, r4
   23a38:	4631      	mov	r1, r6
   23a3a:	462a      	mov	r2, r5
   23a3c:	462b      	mov	r3, r5
   23a3e:	df04      	svc	4
   23a40:	b021      	add	sp, #132	@ 0x84
   23a42:	bdf0      	pop	{r4, r5, r6, r7, pc}
   23a44:	00002548 	.word	0x00002548

00023a48 <_ZN18complex_no_dynamic3app17he6677085e94e11b7E>:
   23a48:	b5f0      	push	{r4, r5, r6, r7, lr}
   23a4a:	af03      	add	r7, sp, #12
   23a4c:	b09d      	sub	sp, #116	@ 0x74
   23a4e:	9001      	str	r0, [sp, #4]
   23a50:	ae02      	add	r6, sp, #8
   23a52:	2438      	movs	r4, #56	@ 0x38
   23a54:	4630      	mov	r0, r6
   23a56:	4622      	mov	r2, r4
   23a58:	f003 fad7 	bl	2700a <__aeabi_memcpy>
   23a5c:	a810      	add	r0, sp, #64	@ 0x40
   23a5e:	2134      	movs	r1, #52	@ 0x34
   23a60:	f003 f926 	bl	26cb0 <__aeabi_memclr4>
   23a64:	2097      	movs	r0, #151	@ 0x97
   23a66:	0045      	lsls	r5, r0, #1
   23a68:	2108      	movs	r1, #8
   23a6a:	4628      	mov	r0, r5
   23a6c:	4632      	mov	r2, r6
   23a6e:	4623      	mov	r3, r4
   23a70:	df04      	svc	4
   23a72:	2802      	cmp	r0, #2
   23a74:	d00e      	beq.n	23a94 <_ZN18complex_no_dynamic3app17he6677085e94e11b7E+0x4c>
   23a76:	2103      	movs	r1, #3
   23a78:	aa10      	add	r2, sp, #64	@ 0x40
   23a7a:	2334      	movs	r3, #52	@ 0x34
   23a7c:	4628      	mov	r0, r5
   23a7e:	df03      	svc	3
   23a80:	2802      	cmp	r0, #2
   23a82:	d007      	beq.n	23a94 <_ZN18complex_no_dynamic3app17he6677085e94e11b7E+0x4c>
   23a84:	2108      	movs	r1, #8
   23a86:	2203      	movs	r2, #3
   23a88:	2600      	movs	r6, #0
   23a8a:	4628      	mov	r0, r5
   23a8c:	4633      	mov	r3, r6
   23a8e:	df02      	svc	2
   23a90:	287f      	cmp	r0, #127	@ 0x7f
   23a92:	d810      	bhi.n	23ab6 <_ZN18complex_no_dynamic3app17he6677085e94e11b7E+0x6e>
   23a94:	2001      	movs	r0, #1
   23a96:	9a01      	ldr	r2, [sp, #4]
   23a98:	7010      	strb	r0, [r2, #0]
   23a9a:	6051      	str	r1, [r2, #4]
   23a9c:	2103      	movs	r1, #3
   23a9e:	2400      	movs	r4, #0
   23aa0:	4628      	mov	r0, r5
   23aa2:	4622      	mov	r2, r4
   23aa4:	4623      	mov	r3, r4
   23aa6:	df03      	svc	3
   23aa8:	2108      	movs	r1, #8
   23aaa:	4628      	mov	r0, r5
   23aac:	4622      	mov	r2, r4
   23aae:	4623      	mov	r3, r4
   23ab0:	df04      	svc	4
   23ab2:	b01d      	add	sp, #116	@ 0x74
   23ab4:	bdf0      	pop	{r4, r5, r6, r7, pc}
   23ab6:	2403      	movs	r4, #3
   23ab8:	9400      	str	r4, [sp, #0]
   23aba:	4628      	mov	r0, r5
   23abc:	4621      	mov	r1, r4
   23abe:	4632      	mov	r2, r6
   23ac0:	4633      	mov	r3, r6
   23ac2:	df03      	svc	3
   23ac4:	4628      	mov	r0, r5
   23ac6:	4621      	mov	r1, r4
   23ac8:	4632      	mov	r2, r6
   23aca:	4633      	mov	r3, r6
   23acc:	df03      	svc	3
   23ace:	9c01      	ldr	r4, [sp, #4]
   23ad0:	1c60      	adds	r0, r4, #1
   23ad2:	a910      	add	r1, sp, #64	@ 0x40
   23ad4:	2234      	movs	r2, #52	@ 0x34
   23ad6:	f003 fa98 	bl	2700a <__aeabi_memcpy>
   23ada:	7026      	strb	r6, [r4, #0]
   23adc:	4628      	mov	r0, r5
   23ade:	9900      	ldr	r1, [sp, #0]
   23ae0:	4632      	mov	r2, r6
   23ae2:	4633      	mov	r3, r6
   23ae4:	df03      	svc	3
   23ae6:	2108      	movs	r1, #8
   23ae8:	4628      	mov	r0, r5
   23aea:	4632      	mov	r2, r6
   23aec:	4633      	mov	r3, r6
   23aee:	df04      	svc	4
   23af0:	b01d      	add	sp, #116	@ 0x74
   23af2:	bdf0      	pop	{r4, r5, r6, r7, pc}

00023af4 <_ZN18complex_no_dynamic3app17he843005d20d19150E>:
   23af4:	b5f0      	push	{r4, r5, r6, r7, lr}
   23af6:	af03      	add	r7, sp, #12
   23af8:	b099      	sub	sp, #100	@ 0x64
   23afa:	9001      	str	r0, [sp, #4]
   23afc:	ae02      	add	r6, sp, #8
   23afe:	2441      	movs	r4, #65	@ 0x41
   23b00:	4630      	mov	r0, r6
   23b02:	4622      	mov	r2, r4
   23b04:	f003 fa81 	bl	2700a <__aeabi_memcpy>
   23b08:	2000      	movs	r0, #0
   23b0a:	9018      	str	r0, [sp, #96]	@ 0x60
   23b0c:	9017      	str	r0, [sp, #92]	@ 0x5c
   23b0e:	9016      	str	r0, [sp, #88]	@ 0x58
   23b10:	9015      	str	r0, [sp, #84]	@ 0x54
   23b12:	9014      	str	r0, [sp, #80]	@ 0x50
   23b14:	9013      	str	r0, [sp, #76]	@ 0x4c
   23b16:	4824      	ldr	r0, [pc, #144]	@ (23ba8 <_ZN18complex_no_dynamic3app17he843005d20d19150E+0xb4>)
   23b18:	2501      	movs	r5, #1
   23b1a:	4629      	mov	r1, r5
   23b1c:	4632      	mov	r2, r6
   23b1e:	4623      	mov	r3, r4
   23b20:	df04      	svc	4
   23b22:	2802      	cmp	r0, #2
   23b24:	d00e      	beq.n	23b44 <_ZN18complex_no_dynamic3app17he843005d20d19150E+0x50>
   23b26:	4820      	ldr	r0, [pc, #128]	@ (23ba8 <_ZN18complex_no_dynamic3app17he843005d20d19150E+0xb4>)
   23b28:	2109      	movs	r1, #9
   23b2a:	aa13      	add	r2, sp, #76	@ 0x4c
   23b2c:	2318      	movs	r3, #24
   23b2e:	df03      	svc	3
   23b30:	2802      	cmp	r0, #2
   23b32:	d007      	beq.n	23b44 <_ZN18complex_no_dynamic3app17he843005d20d19150E+0x50>
   23b34:	481c      	ldr	r0, [pc, #112]	@ (23ba8 <_ZN18complex_no_dynamic3app17he843005d20d19150E+0xb4>)
   23b36:	2101      	movs	r1, #1
   23b38:	2209      	movs	r2, #9
   23b3a:	2600      	movs	r6, #0
   23b3c:	4633      	mov	r3, r6
   23b3e:	df02      	svc	2
   23b40:	287f      	cmp	r0, #127	@ 0x7f
   23b42:	d810      	bhi.n	23b66 <_ZN18complex_no_dynamic3app17he843005d20d19150E+0x72>
   23b44:	9801      	ldr	r0, [sp, #4]
   23b46:	7005      	strb	r5, [r0, #0]
   23b48:	6041      	str	r1, [r0, #4]
   23b4a:	4c17      	ldr	r4, [pc, #92]	@ (23ba8 <_ZN18complex_no_dynamic3app17he843005d20d19150E+0xb4>)
   23b4c:	2109      	movs	r1, #9
   23b4e:	2600      	movs	r6, #0
   23b50:	4620      	mov	r0, r4
   23b52:	4632      	mov	r2, r6
   23b54:	4633      	mov	r3, r6
   23b56:	df03      	svc	3
   23b58:	4620      	mov	r0, r4
   23b5a:	4629      	mov	r1, r5
   23b5c:	4632      	mov	r2, r6
   23b5e:	4633      	mov	r3, r6
   23b60:	df04      	svc	4
   23b62:	b019      	add	sp, #100	@ 0x64
   23b64:	bdf0      	pop	{r4, r5, r6, r7, pc}
   23b66:	4c10      	ldr	r4, [pc, #64]	@ (23ba8 <_ZN18complex_no_dynamic3app17he843005d20d19150E+0xb4>)
   23b68:	2509      	movs	r5, #9
   23b6a:	4620      	mov	r0, r4
   23b6c:	4629      	mov	r1, r5
   23b6e:	4632      	mov	r2, r6
   23b70:	4633      	mov	r3, r6
   23b72:	df03      	svc	3
   23b74:	4620      	mov	r0, r4
   23b76:	4629      	mov	r1, r5
   23b78:	4632      	mov	r2, r6
   23b7a:	4633      	mov	r3, r6
   23b7c:	df03      	svc	3
   23b7e:	9c01      	ldr	r4, [sp, #4]
   23b80:	1c60      	adds	r0, r4, #1
   23b82:	a913      	add	r1, sp, #76	@ 0x4c
   23b84:	2218      	movs	r2, #24
   23b86:	f003 fa40 	bl	2700a <__aeabi_memcpy>
   23b8a:	7026      	strb	r6, [r4, #0]
   23b8c:	4c06      	ldr	r4, [pc, #24]	@ (23ba8 <_ZN18complex_no_dynamic3app17he843005d20d19150E+0xb4>)
   23b8e:	4620      	mov	r0, r4
   23b90:	4629      	mov	r1, r5
   23b92:	4632      	mov	r2, r6
   23b94:	4633      	mov	r3, r6
   23b96:	df03      	svc	3
   23b98:	2101      	movs	r1, #1
   23b9a:	4620      	mov	r0, r4
   23b9c:	4632      	mov	r2, r6
   23b9e:	4633      	mov	r3, r6
   23ba0:	df04      	svc	4
   23ba2:	b019      	add	sp, #100	@ 0x64
   23ba4:	bdf0      	pop	{r4, r5, r6, r7, pc}
   23ba6:	46c0      	nop			@ (mov r8, r8)
   23ba8:	00002156 	.word	0x00002156

00023bac <_ZN18complex_no_dynamic3app17he8f0087616795445E>:
   23bac:	b5f0      	push	{r4, r5, r6, r7, lr}
   23bae:	af03      	add	r7, sp, #12
   23bb0:	b08d      	sub	sp, #52	@ 0x34
   23bb2:	4604      	mov	r4, r0
   23bb4:	7b08      	ldrb	r0, [r1, #12]
   23bb6:	466d      	mov	r5, sp
   23bb8:	7328      	strb	r0, [r5, #12]
   23bba:	7a08      	ldrb	r0, [r1, #8]
   23bbc:	7a4a      	ldrb	r2, [r1, #9]
   23bbe:	0212      	lsls	r2, r2, #8
   23bc0:	1810      	adds	r0, r2, r0
   23bc2:	7a8a      	ldrb	r2, [r1, #10]
   23bc4:	0412      	lsls	r2, r2, #16
   23bc6:	7acb      	ldrb	r3, [r1, #11]
   23bc8:	061b      	lsls	r3, r3, #24
   23bca:	189a      	adds	r2, r3, r2
   23bcc:	1810      	adds	r0, r2, r0
   23bce:	9002      	str	r0, [sp, #8]
   23bd0:	7908      	ldrb	r0, [r1, #4]
   23bd2:	794a      	ldrb	r2, [r1, #5]
   23bd4:	0212      	lsls	r2, r2, #8
   23bd6:	1810      	adds	r0, r2, r0
   23bd8:	798a      	ldrb	r2, [r1, #6]
   23bda:	0412      	lsls	r2, r2, #16
   23bdc:	79cb      	ldrb	r3, [r1, #7]
   23bde:	061b      	lsls	r3, r3, #24
   23be0:	189a      	adds	r2, r3, r2
   23be2:	1810      	adds	r0, r2, r0
   23be4:	9001      	str	r0, [sp, #4]
   23be6:	7808      	ldrb	r0, [r1, #0]
   23be8:	784a      	ldrb	r2, [r1, #1]
   23bea:	0212      	lsls	r2, r2, #8
   23bec:	1810      	adds	r0, r2, r0
   23bee:	788a      	ldrb	r2, [r1, #2]
   23bf0:	0412      	lsls	r2, r2, #16
   23bf2:	78c9      	ldrb	r1, [r1, #3]
   23bf4:	0609      	lsls	r1, r1, #24
   23bf6:	1889      	adds	r1, r1, r2
   23bf8:	1808      	adds	r0, r1, r0
   23bfa:	9000      	str	r0, [sp, #0]
   23bfc:	a804      	add	r0, sp, #16
   23bfe:	2121      	movs	r1, #33	@ 0x21
   23c00:	f003 f856 	bl	26cb0 <__aeabi_memclr4>
   23c04:	4821      	ldr	r0, [pc, #132]	@ (23c8c <_ZN18complex_no_dynamic3app17he8f0087616795445E+0xe0>)
   23c06:	2100      	movs	r1, #0
   23c08:	230d      	movs	r3, #13
   23c0a:	462a      	mov	r2, r5
   23c0c:	df04      	svc	4
   23c0e:	2802      	cmp	r0, #2
   23c10:	d00e      	beq.n	23c30 <_ZN18complex_no_dynamic3app17he8f0087616795445E+0x84>
   23c12:	481e      	ldr	r0, [pc, #120]	@ (23c8c <_ZN18complex_no_dynamic3app17he8f0087616795445E+0xe0>)
   23c14:	2100      	movs	r1, #0
   23c16:	aa04      	add	r2, sp, #16
   23c18:	2321      	movs	r3, #33	@ 0x21
   23c1a:	df03      	svc	3
   23c1c:	2802      	cmp	r0, #2
   23c1e:	d007      	beq.n	23c30 <_ZN18complex_no_dynamic3app17he8f0087616795445E+0x84>
   23c20:	481a      	ldr	r0, [pc, #104]	@ (23c8c <_ZN18complex_no_dynamic3app17he8f0087616795445E+0xe0>)
   23c22:	2500      	movs	r5, #0
   23c24:	4629      	mov	r1, r5
   23c26:	462a      	mov	r2, r5
   23c28:	462b      	mov	r3, r5
   23c2a:	df02      	svc	2
   23c2c:	287f      	cmp	r0, #127	@ 0x7f
   23c2e:	d810      	bhi.n	23c52 <_ZN18complex_no_dynamic3app17he8f0087616795445E+0xa6>
   23c30:	2001      	movs	r0, #1
   23c32:	7020      	strb	r0, [r4, #0]
   23c34:	6061      	str	r1, [r4, #4]
   23c36:	4c15      	ldr	r4, [pc, #84]	@ (23c8c <_ZN18complex_no_dynamic3app17he8f0087616795445E+0xe0>)
   23c38:	2500      	movs	r5, #0
   23c3a:	4620      	mov	r0, r4
   23c3c:	4629      	mov	r1, r5
   23c3e:	462a      	mov	r2, r5
   23c40:	462b      	mov	r3, r5
   23c42:	df03      	svc	3
   23c44:	4620      	mov	r0, r4
   23c46:	4629      	mov	r1, r5
   23c48:	462a      	mov	r2, r5
   23c4a:	462b      	mov	r3, r5
   23c4c:	df04      	svc	4
   23c4e:	b00d      	add	sp, #52	@ 0x34
   23c50:	bdf0      	pop	{r4, r5, r6, r7, pc}
   23c52:	4e0e      	ldr	r6, [pc, #56]	@ (23c8c <_ZN18complex_no_dynamic3app17he8f0087616795445E+0xe0>)
   23c54:	4630      	mov	r0, r6
   23c56:	4629      	mov	r1, r5
   23c58:	462a      	mov	r2, r5
   23c5a:	462b      	mov	r3, r5
   23c5c:	df03      	svc	3
   23c5e:	4630      	mov	r0, r6
   23c60:	4629      	mov	r1, r5
   23c62:	462a      	mov	r2, r5
   23c64:	462b      	mov	r3, r5
   23c66:	df03      	svc	3
   23c68:	1c60      	adds	r0, r4, #1
   23c6a:	a904      	add	r1, sp, #16
   23c6c:	2221      	movs	r2, #33	@ 0x21
   23c6e:	f003 f9cc 	bl	2700a <__aeabi_memcpy>
   23c72:	7025      	strb	r5, [r4, #0]
   23c74:	4630      	mov	r0, r6
   23c76:	4629      	mov	r1, r5
   23c78:	462a      	mov	r2, r5
   23c7a:	462b      	mov	r3, r5
   23c7c:	df03      	svc	3
   23c7e:	4630      	mov	r0, r6
   23c80:	4629      	mov	r1, r5
   23c82:	462a      	mov	r2, r5
   23c84:	462b      	mov	r3, r5
   23c86:	df04      	svc	4
   23c88:	b00d      	add	sp, #52	@ 0x34
   23c8a:	bdf0      	pop	{r4, r5, r6, r7, pc}
   23c8c:	000016b0 	.word	0x000016b0

00023c90 <_ZN18complex_no_dynamic3app17hea2adfe13a1a9780E>:
   23c90:	b5f0      	push	{r4, r5, r6, r7, lr}
   23c92:	af03      	add	r7, sp, #12
   23c94:	b0a3      	sub	sp, #140	@ 0x8c
   23c96:	4604      	mov	r4, r0
   23c98:	466d      	mov	r5, sp
   23c9a:	264f      	movs	r6, #79	@ 0x4f
   23c9c:	4628      	mov	r0, r5
   23c9e:	4632      	mov	r2, r6
   23ca0:	f003 f9b3 	bl	2700a <__aeabi_memcpy>
   23ca4:	a814      	add	r0, sp, #80	@ 0x50
   23ca6:	213b      	movs	r1, #59	@ 0x3b
   23ca8:	f003 f802 	bl	26cb0 <__aeabi_memclr4>
   23cac:	4822      	ldr	r0, [pc, #136]	@ (23d38 <_ZN18complex_no_dynamic3app17hea2adfe13a1a9780E+0xa8>)
   23cae:	2108      	movs	r1, #8
   23cb0:	462a      	mov	r2, r5
   23cb2:	4633      	mov	r3, r6
   23cb4:	df04      	svc	4
   23cb6:	2802      	cmp	r0, #2
   23cb8:	d00e      	beq.n	23cd8 <_ZN18complex_no_dynamic3app17hea2adfe13a1a9780E+0x48>
   23cba:	481f      	ldr	r0, [pc, #124]	@ (23d38 <_ZN18complex_no_dynamic3app17hea2adfe13a1a9780E+0xa8>)
   23cbc:	2105      	movs	r1, #5
   23cbe:	aa14      	add	r2, sp, #80	@ 0x50
   23cc0:	233b      	movs	r3, #59	@ 0x3b
   23cc2:	df03      	svc	3
   23cc4:	2802      	cmp	r0, #2
   23cc6:	d007      	beq.n	23cd8 <_ZN18complex_no_dynamic3app17hea2adfe13a1a9780E+0x48>
   23cc8:	481b      	ldr	r0, [pc, #108]	@ (23d38 <_ZN18complex_no_dynamic3app17hea2adfe13a1a9780E+0xa8>)
   23cca:	2108      	movs	r1, #8
   23ccc:	2205      	movs	r2, #5
   23cce:	2500      	movs	r5, #0
   23cd0:	462b      	mov	r3, r5
   23cd2:	df02      	svc	2
   23cd4:	287f      	cmp	r0, #127	@ 0x7f
   23cd6:	d810      	bhi.n	23cfa <_ZN18complex_no_dynamic3app17hea2adfe13a1a9780E+0x6a>
   23cd8:	2001      	movs	r0, #1
   23cda:	7020      	strb	r0, [r4, #0]
   23cdc:	6061      	str	r1, [r4, #4]
   23cde:	4c16      	ldr	r4, [pc, #88]	@ (23d38 <_ZN18complex_no_dynamic3app17hea2adfe13a1a9780E+0xa8>)
   23ce0:	2105      	movs	r1, #5
   23ce2:	2500      	movs	r5, #0
   23ce4:	4620      	mov	r0, r4
   23ce6:	462a      	mov	r2, r5
   23ce8:	462b      	mov	r3, r5
   23cea:	df03      	svc	3
   23cec:	2108      	movs	r1, #8
   23cee:	4620      	mov	r0, r4
   23cf0:	462a      	mov	r2, r5
   23cf2:	462b      	mov	r3, r5
   23cf4:	df04      	svc	4
   23cf6:	b023      	add	sp, #140	@ 0x8c
   23cf8:	bdf0      	pop	{r4, r5, r6, r7, pc}
   23cfa:	480f      	ldr	r0, [pc, #60]	@ (23d38 <_ZN18complex_no_dynamic3app17hea2adfe13a1a9780E+0xa8>)
   23cfc:	2605      	movs	r6, #5
   23cfe:	4631      	mov	r1, r6
   23d00:	462a      	mov	r2, r5
   23d02:	462b      	mov	r3, r5
   23d04:	df03      	svc	3
   23d06:	480c      	ldr	r0, [pc, #48]	@ (23d38 <_ZN18complex_no_dynamic3app17hea2adfe13a1a9780E+0xa8>)
   23d08:	4631      	mov	r1, r6
   23d0a:	462a      	mov	r2, r5
   23d0c:	462b      	mov	r3, r5
   23d0e:	df03      	svc	3
   23d10:	1c60      	adds	r0, r4, #1
   23d12:	a914      	add	r1, sp, #80	@ 0x50
   23d14:	223b      	movs	r2, #59	@ 0x3b
   23d16:	f003 f978 	bl	2700a <__aeabi_memcpy>
   23d1a:	7025      	strb	r5, [r4, #0]
   23d1c:	4c06      	ldr	r4, [pc, #24]	@ (23d38 <_ZN18complex_no_dynamic3app17hea2adfe13a1a9780E+0xa8>)
   23d1e:	4620      	mov	r0, r4
   23d20:	4631      	mov	r1, r6
   23d22:	462a      	mov	r2, r5
   23d24:	462b      	mov	r3, r5
   23d26:	df03      	svc	3
   23d28:	2108      	movs	r1, #8
   23d2a:	4620      	mov	r0, r4
   23d2c:	462a      	mov	r2, r5
   23d2e:	462b      	mov	r3, r5
   23d30:	df04      	svc	4
   23d32:	b023      	add	sp, #140	@ 0x8c
   23d34:	bdf0      	pop	{r4, r5, r6, r7, pc}
   23d36:	46c0      	nop			@ (mov r8, r8)
   23d38:	00000a06 	.word	0x00000a06

00023d3c <_ZN18complex_no_dynamic3app17hf4b09bbd1254ed21E>:
   23d3c:	b5f0      	push	{r4, r5, r6, r7, lr}
   23d3e:	af03      	add	r7, sp, #12
   23d40:	b09b      	sub	sp, #108	@ 0x6c
   23d42:	4604      	mov	r4, r0
   23d44:	466d      	mov	r5, sp
   23d46:	261a      	movs	r6, #26
   23d48:	4628      	mov	r0, r5
   23d4a:	4632      	mov	r2, r6
   23d4c:	f003 f95d 	bl	2700a <__aeabi_memcpy>
   23d50:	a807      	add	r0, sp, #28
   23d52:	2150      	movs	r1, #80	@ 0x50
   23d54:	f002 ffac 	bl	26cb0 <__aeabi_memclr4>
   23d58:	4822      	ldr	r0, [pc, #136]	@ (23de4 <_ZN18complex_no_dynamic3app17hf4b09bbd1254ed21E+0xa8>)
   23d5a:	2107      	movs	r1, #7
   23d5c:	462a      	mov	r2, r5
   23d5e:	4633      	mov	r3, r6
   23d60:	df04      	svc	4
   23d62:	2802      	cmp	r0, #2
   23d64:	d00e      	beq.n	23d84 <_ZN18complex_no_dynamic3app17hf4b09bbd1254ed21E+0x48>
   23d66:	481f      	ldr	r0, [pc, #124]	@ (23de4 <_ZN18complex_no_dynamic3app17hf4b09bbd1254ed21E+0xa8>)
   23d68:	2104      	movs	r1, #4
   23d6a:	aa07      	add	r2, sp, #28
   23d6c:	2350      	movs	r3, #80	@ 0x50
   23d6e:	df03      	svc	3
   23d70:	2802      	cmp	r0, #2
   23d72:	d007      	beq.n	23d84 <_ZN18complex_no_dynamic3app17hf4b09bbd1254ed21E+0x48>
   23d74:	481b      	ldr	r0, [pc, #108]	@ (23de4 <_ZN18complex_no_dynamic3app17hf4b09bbd1254ed21E+0xa8>)
   23d76:	2107      	movs	r1, #7
   23d78:	2204      	movs	r2, #4
   23d7a:	2500      	movs	r5, #0
   23d7c:	462b      	mov	r3, r5
   23d7e:	df02      	svc	2
   23d80:	287f      	cmp	r0, #127	@ 0x7f
   23d82:	d810      	bhi.n	23da6 <_ZN18complex_no_dynamic3app17hf4b09bbd1254ed21E+0x6a>
   23d84:	2001      	movs	r0, #1
   23d86:	7020      	strb	r0, [r4, #0]
   23d88:	6061      	str	r1, [r4, #4]
   23d8a:	4c16      	ldr	r4, [pc, #88]	@ (23de4 <_ZN18complex_no_dynamic3app17hf4b09bbd1254ed21E+0xa8>)
   23d8c:	2104      	movs	r1, #4
   23d8e:	2500      	movs	r5, #0
   23d90:	4620      	mov	r0, r4
   23d92:	462a      	mov	r2, r5
   23d94:	462b      	mov	r3, r5
   23d96:	df03      	svc	3
   23d98:	2107      	movs	r1, #7
   23d9a:	4620      	mov	r0, r4
   23d9c:	462a      	mov	r2, r5
   23d9e:	462b      	mov	r3, r5
   23da0:	df04      	svc	4
   23da2:	b01b      	add	sp, #108	@ 0x6c
   23da4:	bdf0      	pop	{r4, r5, r6, r7, pc}
   23da6:	480f      	ldr	r0, [pc, #60]	@ (23de4 <_ZN18complex_no_dynamic3app17hf4b09bbd1254ed21E+0xa8>)
   23da8:	2604      	movs	r6, #4
   23daa:	4631      	mov	r1, r6
   23dac:	462a      	mov	r2, r5
   23dae:	462b      	mov	r3, r5
   23db0:	df03      	svc	3
   23db2:	480c      	ldr	r0, [pc, #48]	@ (23de4 <_ZN18complex_no_dynamic3app17hf4b09bbd1254ed21E+0xa8>)
   23db4:	4631      	mov	r1, r6
   23db6:	462a      	mov	r2, r5
   23db8:	462b      	mov	r3, r5
   23dba:	df03      	svc	3
   23dbc:	1c60      	adds	r0, r4, #1
   23dbe:	a907      	add	r1, sp, #28
   23dc0:	2250      	movs	r2, #80	@ 0x50
   23dc2:	f003 f922 	bl	2700a <__aeabi_memcpy>
   23dc6:	7025      	strb	r5, [r4, #0]
   23dc8:	4c06      	ldr	r4, [pc, #24]	@ (23de4 <_ZN18complex_no_dynamic3app17hf4b09bbd1254ed21E+0xa8>)
   23dca:	4620      	mov	r0, r4
   23dcc:	4631      	mov	r1, r6
   23dce:	462a      	mov	r2, r5
   23dd0:	462b      	mov	r3, r5
   23dd2:	df03      	svc	3
   23dd4:	2107      	movs	r1, #7
   23dd6:	4620      	mov	r0, r4
   23dd8:	462a      	mov	r2, r5
   23dda:	462b      	mov	r3, r5
   23ddc:	df04      	svc	4
   23dde:	b01b      	add	sp, #108	@ 0x6c
   23de0:	bdf0      	pop	{r4, r5, r6, r7, pc}
   23de2:	46c0      	nop			@ (mov r8, r8)
   23de4:	00000aee 	.word	0x00000aee

00023de8 <_ZN18complex_no_dynamic3app17hf8c1850e49961b26E>:
   23de8:	b5f0      	push	{r4, r5, r6, r7, lr}
   23dea:	af03      	add	r7, sp, #12
   23dec:	b0a9      	sub	sp, #164	@ 0xa4
   23dee:	4604      	mov	r4, r0
   23df0:	466d      	mov	r5, sp
   23df2:	2653      	movs	r6, #83	@ 0x53
   23df4:	4628      	mov	r0, r5
   23df6:	4632      	mov	r2, r6
   23df8:	f003 f907 	bl	2700a <__aeabi_memcpy>
   23dfc:	a815      	add	r0, sp, #84	@ 0x54
   23dfe:	214d      	movs	r1, #77	@ 0x4d
   23e00:	f002 ff56 	bl	26cb0 <__aeabi_memclr4>
   23e04:	4822      	ldr	r0, [pc, #136]	@ (23e90 <_ZN18complex_no_dynamic3app17hf8c1850e49961b26E+0xa8>)
   23e06:	2109      	movs	r1, #9
   23e08:	462a      	mov	r2, r5
   23e0a:	4633      	mov	r3, r6
   23e0c:	df04      	svc	4
   23e0e:	2802      	cmp	r0, #2
   23e10:	d00e      	beq.n	23e30 <_ZN18complex_no_dynamic3app17hf8c1850e49961b26E+0x48>
   23e12:	481f      	ldr	r0, [pc, #124]	@ (23e90 <_ZN18complex_no_dynamic3app17hf8c1850e49961b26E+0xa8>)
   23e14:	2104      	movs	r1, #4
   23e16:	aa15      	add	r2, sp, #84	@ 0x54
   23e18:	234d      	movs	r3, #77	@ 0x4d
   23e1a:	df03      	svc	3
   23e1c:	2802      	cmp	r0, #2
   23e1e:	d007      	beq.n	23e30 <_ZN18complex_no_dynamic3app17hf8c1850e49961b26E+0x48>
   23e20:	481b      	ldr	r0, [pc, #108]	@ (23e90 <_ZN18complex_no_dynamic3app17hf8c1850e49961b26E+0xa8>)
   23e22:	2109      	movs	r1, #9
   23e24:	2204      	movs	r2, #4
   23e26:	2500      	movs	r5, #0
   23e28:	462b      	mov	r3, r5
   23e2a:	df02      	svc	2
   23e2c:	287f      	cmp	r0, #127	@ 0x7f
   23e2e:	d810      	bhi.n	23e52 <_ZN18complex_no_dynamic3app17hf8c1850e49961b26E+0x6a>
   23e30:	2001      	movs	r0, #1
   23e32:	7020      	strb	r0, [r4, #0]
   23e34:	6061      	str	r1, [r4, #4]
   23e36:	4c16      	ldr	r4, [pc, #88]	@ (23e90 <_ZN18complex_no_dynamic3app17hf8c1850e49961b26E+0xa8>)
   23e38:	2104      	movs	r1, #4
   23e3a:	2500      	movs	r5, #0
   23e3c:	4620      	mov	r0, r4
   23e3e:	462a      	mov	r2, r5
   23e40:	462b      	mov	r3, r5
   23e42:	df03      	svc	3
   23e44:	2109      	movs	r1, #9
   23e46:	4620      	mov	r0, r4
   23e48:	462a      	mov	r2, r5
   23e4a:	462b      	mov	r3, r5
   23e4c:	df04      	svc	4
   23e4e:	b029      	add	sp, #164	@ 0xa4
   23e50:	bdf0      	pop	{r4, r5, r6, r7, pc}
   23e52:	480f      	ldr	r0, [pc, #60]	@ (23e90 <_ZN18complex_no_dynamic3app17hf8c1850e49961b26E+0xa8>)
   23e54:	2604      	movs	r6, #4
   23e56:	4631      	mov	r1, r6
   23e58:	462a      	mov	r2, r5
   23e5a:	462b      	mov	r3, r5
   23e5c:	df03      	svc	3
   23e5e:	480c      	ldr	r0, [pc, #48]	@ (23e90 <_ZN18complex_no_dynamic3app17hf8c1850e49961b26E+0xa8>)
   23e60:	4631      	mov	r1, r6
   23e62:	462a      	mov	r2, r5
   23e64:	462b      	mov	r3, r5
   23e66:	df03      	svc	3
   23e68:	1c60      	adds	r0, r4, #1
   23e6a:	a915      	add	r1, sp, #84	@ 0x54
   23e6c:	224d      	movs	r2, #77	@ 0x4d
   23e6e:	f003 f8cc 	bl	2700a <__aeabi_memcpy>
   23e72:	7025      	strb	r5, [r4, #0]
   23e74:	4c06      	ldr	r4, [pc, #24]	@ (23e90 <_ZN18complex_no_dynamic3app17hf8c1850e49961b26E+0xa8>)
   23e76:	4620      	mov	r0, r4
   23e78:	4631      	mov	r1, r6
   23e7a:	462a      	mov	r2, r5
   23e7c:	462b      	mov	r3, r5
   23e7e:	df03      	svc	3
   23e80:	2109      	movs	r1, #9
   23e82:	4620      	mov	r0, r4
   23e84:	462a      	mov	r2, r5
   23e86:	462b      	mov	r3, r5
   23e88:	df04      	svc	4
   23e8a:	b029      	add	sp, #164	@ 0xa4
   23e8c:	bdf0      	pop	{r4, r5, r6, r7, pc}
   23e8e:	46c0      	nop			@ (mov r8, r8)
   23e90:	000016ba 	.word	0x000016ba

00023e94 <_ZN18complex_no_dynamic3app17hf9066fa27e29bc22E>:
   23e94:	b5f0      	push	{r4, r5, r6, r7, lr}
   23e96:	af03      	add	r7, sp, #12
   23e98:	b097      	sub	sp, #92	@ 0x5c
   23e9a:	4604      	mov	r4, r0
   23e9c:	ad01      	add	r5, sp, #4
   23e9e:	260f      	movs	r6, #15
   23ea0:	4628      	mov	r0, r5
   23ea2:	4632      	mov	r2, r6
   23ea4:	f003 f8b1 	bl	2700a <__aeabi_memcpy>
   23ea8:	a805      	add	r0, sp, #20
   23eaa:	2146      	movs	r1, #70	@ 0x46
   23eac:	f002 ff00 	bl	26cb0 <__aeabi_memclr4>
   23eb0:	4822      	ldr	r0, [pc, #136]	@ (23f3c <_ZN18complex_no_dynamic3app17hf9066fa27e29bc22E+0xa8>)
   23eb2:	2109      	movs	r1, #9
   23eb4:	462a      	mov	r2, r5
   23eb6:	4633      	mov	r3, r6
   23eb8:	df04      	svc	4
   23eba:	2802      	cmp	r0, #2
   23ebc:	d00e      	beq.n	23edc <_ZN18complex_no_dynamic3app17hf9066fa27e29bc22E+0x48>
   23ebe:	481f      	ldr	r0, [pc, #124]	@ (23f3c <_ZN18complex_no_dynamic3app17hf9066fa27e29bc22E+0xa8>)
   23ec0:	2102      	movs	r1, #2
   23ec2:	aa05      	add	r2, sp, #20
   23ec4:	2346      	movs	r3, #70	@ 0x46
   23ec6:	df03      	svc	3
   23ec8:	2802      	cmp	r0, #2
   23eca:	d007      	beq.n	23edc <_ZN18complex_no_dynamic3app17hf9066fa27e29bc22E+0x48>
   23ecc:	481b      	ldr	r0, [pc, #108]	@ (23f3c <_ZN18complex_no_dynamic3app17hf9066fa27e29bc22E+0xa8>)
   23ece:	2109      	movs	r1, #9
   23ed0:	2202      	movs	r2, #2
   23ed2:	2500      	movs	r5, #0
   23ed4:	462b      	mov	r3, r5
   23ed6:	df02      	svc	2
   23ed8:	287f      	cmp	r0, #127	@ 0x7f
   23eda:	d810      	bhi.n	23efe <_ZN18complex_no_dynamic3app17hf9066fa27e29bc22E+0x6a>
   23edc:	2001      	movs	r0, #1
   23ede:	7020      	strb	r0, [r4, #0]
   23ee0:	6061      	str	r1, [r4, #4]
   23ee2:	4c16      	ldr	r4, [pc, #88]	@ (23f3c <_ZN18complex_no_dynamic3app17hf9066fa27e29bc22E+0xa8>)
   23ee4:	2102      	movs	r1, #2
   23ee6:	2500      	movs	r5, #0
   23ee8:	4620      	mov	r0, r4
   23eea:	462a      	mov	r2, r5
   23eec:	462b      	mov	r3, r5
   23eee:	df03      	svc	3
   23ef0:	2109      	movs	r1, #9
   23ef2:	4620      	mov	r0, r4
   23ef4:	462a      	mov	r2, r5
   23ef6:	462b      	mov	r3, r5
   23ef8:	df04      	svc	4
   23efa:	b017      	add	sp, #92	@ 0x5c
   23efc:	bdf0      	pop	{r4, r5, r6, r7, pc}
   23efe:	480f      	ldr	r0, [pc, #60]	@ (23f3c <_ZN18complex_no_dynamic3app17hf9066fa27e29bc22E+0xa8>)
   23f00:	2602      	movs	r6, #2
   23f02:	4631      	mov	r1, r6
   23f04:	462a      	mov	r2, r5
   23f06:	462b      	mov	r3, r5
   23f08:	df03      	svc	3
   23f0a:	480c      	ldr	r0, [pc, #48]	@ (23f3c <_ZN18complex_no_dynamic3app17hf9066fa27e29bc22E+0xa8>)
   23f0c:	4631      	mov	r1, r6
   23f0e:	462a      	mov	r2, r5
   23f10:	462b      	mov	r3, r5
   23f12:	df03      	svc	3
   23f14:	1c60      	adds	r0, r4, #1
   23f16:	a905      	add	r1, sp, #20
   23f18:	2246      	movs	r2, #70	@ 0x46
   23f1a:	f003 f876 	bl	2700a <__aeabi_memcpy>
   23f1e:	7025      	strb	r5, [r4, #0]
   23f20:	4c06      	ldr	r4, [pc, #24]	@ (23f3c <_ZN18complex_no_dynamic3app17hf9066fa27e29bc22E+0xa8>)
   23f22:	4620      	mov	r0, r4
   23f24:	4631      	mov	r1, r6
   23f26:	462a      	mov	r2, r5
   23f28:	462b      	mov	r3, r5
   23f2a:	df03      	svc	3
   23f2c:	2109      	movs	r1, #9
   23f2e:	4620      	mov	r0, r4
   23f30:	462a      	mov	r2, r5
   23f32:	462b      	mov	r3, r5
   23f34:	df04      	svc	4
   23f36:	b017      	add	sp, #92	@ 0x5c
   23f38:	bdf0      	pop	{r4, r5, r6, r7, pc}
   23f3a:	46c0      	nop			@ (mov r8, r8)
   23f3c:	00001d7e 	.word	0x00001d7e

00023f40 <_ZN18complex_no_dynamic3app17hfb609c1baef8fc65E>:
   23f40:	b5f0      	push	{r4, r5, r6, r7, lr}
   23f42:	af03      	add	r7, sp, #12
   23f44:	b09d      	sub	sp, #116	@ 0x74
   23f46:	4604      	mov	r4, r0
   23f48:	ad01      	add	r5, sp, #4
   23f4a:	2649      	movs	r6, #73	@ 0x49
   23f4c:	4628      	mov	r0, r5
   23f4e:	4632      	mov	r2, r6
   23f50:	f003 f85b 	bl	2700a <__aeabi_memcpy>
   23f54:	a814      	add	r0, sp, #80	@ 0x50
   23f56:	2123      	movs	r1, #35	@ 0x23
   23f58:	f002 feaa 	bl	26cb0 <__aeabi_memclr4>
   23f5c:	4822      	ldr	r0, [pc, #136]	@ (23fe8 <_ZN18complex_no_dynamic3app17hfb609c1baef8fc65E+0xa8>)
   23f5e:	2107      	movs	r1, #7
   23f60:	462a      	mov	r2, r5
   23f62:	4633      	mov	r3, r6
   23f64:	df04      	svc	4
   23f66:	2802      	cmp	r0, #2
   23f68:	d00e      	beq.n	23f88 <_ZN18complex_no_dynamic3app17hfb609c1baef8fc65E+0x48>
   23f6a:	481f      	ldr	r0, [pc, #124]	@ (23fe8 <_ZN18complex_no_dynamic3app17hfb609c1baef8fc65E+0xa8>)
   23f6c:	2101      	movs	r1, #1
   23f6e:	aa14      	add	r2, sp, #80	@ 0x50
   23f70:	2323      	movs	r3, #35	@ 0x23
   23f72:	df03      	svc	3
   23f74:	2802      	cmp	r0, #2
   23f76:	d007      	beq.n	23f88 <_ZN18complex_no_dynamic3app17hfb609c1baef8fc65E+0x48>
   23f78:	481b      	ldr	r0, [pc, #108]	@ (23fe8 <_ZN18complex_no_dynamic3app17hfb609c1baef8fc65E+0xa8>)
   23f7a:	2107      	movs	r1, #7
   23f7c:	2201      	movs	r2, #1
   23f7e:	2500      	movs	r5, #0
   23f80:	462b      	mov	r3, r5
   23f82:	df02      	svc	2
   23f84:	287f      	cmp	r0, #127	@ 0x7f
   23f86:	d810      	bhi.n	23faa <_ZN18complex_no_dynamic3app17hfb609c1baef8fc65E+0x6a>
   23f88:	2201      	movs	r2, #1
   23f8a:	7022      	strb	r2, [r4, #0]
   23f8c:	6061      	str	r1, [r4, #4]
   23f8e:	4c16      	ldr	r4, [pc, #88]	@ (23fe8 <_ZN18complex_no_dynamic3app17hfb609c1baef8fc65E+0xa8>)
   23f90:	2500      	movs	r5, #0
   23f92:	4620      	mov	r0, r4
   23f94:	4611      	mov	r1, r2
   23f96:	462a      	mov	r2, r5
   23f98:	462b      	mov	r3, r5
   23f9a:	df03      	svc	3
   23f9c:	2107      	movs	r1, #7
   23f9e:	4620      	mov	r0, r4
   23fa0:	462a      	mov	r2, r5
   23fa2:	462b      	mov	r3, r5
   23fa4:	df04      	svc	4
   23fa6:	b01d      	add	sp, #116	@ 0x74
   23fa8:	bdf0      	pop	{r4, r5, r6, r7, pc}
   23faa:	480f      	ldr	r0, [pc, #60]	@ (23fe8 <_ZN18complex_no_dynamic3app17hfb609c1baef8fc65E+0xa8>)
   23fac:	2601      	movs	r6, #1
   23fae:	4631      	mov	r1, r6
   23fb0:	462a      	mov	r2, r5
   23fb2:	462b      	mov	r3, r5
   23fb4:	df03      	svc	3
   23fb6:	480c      	ldr	r0, [pc, #48]	@ (23fe8 <_ZN18complex_no_dynamic3app17hfb609c1baef8fc65E+0xa8>)
   23fb8:	4631      	mov	r1, r6
   23fba:	462a      	mov	r2, r5
   23fbc:	462b      	mov	r3, r5
   23fbe:	df03      	svc	3
   23fc0:	1c60      	adds	r0, r4, #1
   23fc2:	a914      	add	r1, sp, #80	@ 0x50
   23fc4:	2223      	movs	r2, #35	@ 0x23
   23fc6:	f003 f820 	bl	2700a <__aeabi_memcpy>
   23fca:	7025      	strb	r5, [r4, #0]
   23fcc:	4c06      	ldr	r4, [pc, #24]	@ (23fe8 <_ZN18complex_no_dynamic3app17hfb609c1baef8fc65E+0xa8>)
   23fce:	4620      	mov	r0, r4
   23fd0:	4631      	mov	r1, r6
   23fd2:	462a      	mov	r2, r5
   23fd4:	462b      	mov	r3, r5
   23fd6:	df03      	svc	3
   23fd8:	2107      	movs	r1, #7
   23fda:	4620      	mov	r0, r4
   23fdc:	462a      	mov	r2, r5
   23fde:	462b      	mov	r3, r5
   23fe0:	df04      	svc	4
   23fe2:	b01d      	add	sp, #116	@ 0x74
   23fe4:	bdf0      	pop	{r4, r5, r6, r7, pc}
   23fe6:	46c0      	nop			@ (mov r8, r8)
   23fe8:	00001551 	.word	0x00001551

00023fec <_ZN18complex_no_dynamic3app17hfc59a770a284ace0E>:
   23fec:	b5f0      	push	{r4, r5, r6, r7, lr}
   23fee:	af03      	add	r7, sp, #12
   23ff0:	b091      	sub	sp, #68	@ 0x44
   23ff2:	4604      	mov	r4, r0
   23ff4:	466d      	mov	r5, sp
   23ff6:	261e      	movs	r6, #30
   23ff8:	4628      	mov	r0, r5
   23ffa:	4632      	mov	r2, r6
   23ffc:	f003 f805 	bl	2700a <__aeabi_memcpy>
   24000:	a808      	add	r0, sp, #32
   24002:	2121      	movs	r1, #33	@ 0x21
   24004:	f002 fe54 	bl	26cb0 <__aeabi_memclr4>
   24008:	4822      	ldr	r0, [pc, #136]	@ (24094 <_ZN18complex_no_dynamic3app17hfc59a770a284ace0E+0xa8>)
   2400a:	2106      	movs	r1, #6
   2400c:	462a      	mov	r2, r5
   2400e:	4633      	mov	r3, r6
   24010:	df04      	svc	4
   24012:	2802      	cmp	r0, #2
   24014:	d00e      	beq.n	24034 <_ZN18complex_no_dynamic3app17hfc59a770a284ace0E+0x48>
   24016:	481f      	ldr	r0, [pc, #124]	@ (24094 <_ZN18complex_no_dynamic3app17hfc59a770a284ace0E+0xa8>)
   24018:	2109      	movs	r1, #9
   2401a:	aa08      	add	r2, sp, #32
   2401c:	2321      	movs	r3, #33	@ 0x21
   2401e:	df03      	svc	3
   24020:	2802      	cmp	r0, #2
   24022:	d007      	beq.n	24034 <_ZN18complex_no_dynamic3app17hfc59a770a284ace0E+0x48>
   24024:	481b      	ldr	r0, [pc, #108]	@ (24094 <_ZN18complex_no_dynamic3app17hfc59a770a284ace0E+0xa8>)
   24026:	2106      	movs	r1, #6
   24028:	2209      	movs	r2, #9
   2402a:	2500      	movs	r5, #0
   2402c:	462b      	mov	r3, r5
   2402e:	df02      	svc	2
   24030:	287f      	cmp	r0, #127	@ 0x7f
   24032:	d810      	bhi.n	24056 <_ZN18complex_no_dynamic3app17hfc59a770a284ace0E+0x6a>
   24034:	2001      	movs	r0, #1
   24036:	7020      	strb	r0, [r4, #0]
   24038:	6061      	str	r1, [r4, #4]
   2403a:	4c16      	ldr	r4, [pc, #88]	@ (24094 <_ZN18complex_no_dynamic3app17hfc59a770a284ace0E+0xa8>)
   2403c:	2109      	movs	r1, #9
   2403e:	2500      	movs	r5, #0
   24040:	4620      	mov	r0, r4
   24042:	462a      	mov	r2, r5
   24044:	462b      	mov	r3, r5
   24046:	df03      	svc	3
   24048:	2106      	movs	r1, #6
   2404a:	4620      	mov	r0, r4
   2404c:	462a      	mov	r2, r5
   2404e:	462b      	mov	r3, r5
   24050:	df04      	svc	4
   24052:	b011      	add	sp, #68	@ 0x44
   24054:	bdf0      	pop	{r4, r5, r6, r7, pc}
   24056:	480f      	ldr	r0, [pc, #60]	@ (24094 <_ZN18complex_no_dynamic3app17hfc59a770a284ace0E+0xa8>)
   24058:	2609      	movs	r6, #9
   2405a:	4631      	mov	r1, r6
   2405c:	462a      	mov	r2, r5
   2405e:	462b      	mov	r3, r5
   24060:	df03      	svc	3
   24062:	480c      	ldr	r0, [pc, #48]	@ (24094 <_ZN18complex_no_dynamic3app17hfc59a770a284ace0E+0xa8>)
   24064:	4631      	mov	r1, r6
   24066:	462a      	mov	r2, r5
   24068:	462b      	mov	r3, r5
   2406a:	df03      	svc	3
   2406c:	1c60      	adds	r0, r4, #1
   2406e:	a908      	add	r1, sp, #32
   24070:	2221      	movs	r2, #33	@ 0x21
   24072:	f002 ffca 	bl	2700a <__aeabi_memcpy>
   24076:	7025      	strb	r5, [r4, #0]
   24078:	4c06      	ldr	r4, [pc, #24]	@ (24094 <_ZN18complex_no_dynamic3app17hfc59a770a284ace0E+0xa8>)
   2407a:	4620      	mov	r0, r4
   2407c:	4631      	mov	r1, r6
   2407e:	462a      	mov	r2, r5
   24080:	462b      	mov	r3, r5
   24082:	df03      	svc	3
   24084:	2106      	movs	r1, #6
   24086:	4620      	mov	r0, r4
   24088:	462a      	mov	r2, r5
   2408a:	462b      	mov	r3, r5
   2408c:	df04      	svc	4
   2408e:	b011      	add	sp, #68	@ 0x44
   24090:	bdf0      	pop	{r4, r5, r6, r7, pc}
   24092:	46c0      	nop			@ (mov r8, r8)
   24094:	000019b5 	.word	0x000019b5

00024098 <_ZN18complex_no_dynamic3app17hfe0e8243a99b3089E>:
   24098:	b5f0      	push	{r4, r5, r6, r7, lr}
   2409a:	af03      	add	r7, sp, #12
   2409c:	b0a9      	sub	sp, #164	@ 0xa4
   2409e:	4604      	mov	r4, r0
   240a0:	ad01      	add	r5, sp, #4
   240a2:	2646      	movs	r6, #70	@ 0x46
   240a4:	4628      	mov	r0, r5
   240a6:	4632      	mov	r2, r6
   240a8:	f002 ffaf 	bl	2700a <__aeabi_memcpy>
   240ac:	a813      	add	r0, sp, #76	@ 0x4c
   240ae:	2156      	movs	r1, #86	@ 0x56
   240b0:	f002 fdfe 	bl	26cb0 <__aeabi_memclr4>
   240b4:	4822      	ldr	r0, [pc, #136]	@ (24140 <_ZN18complex_no_dynamic3app17hfe0e8243a99b3089E+0xa8>)
   240b6:	2107      	movs	r1, #7
   240b8:	462a      	mov	r2, r5
   240ba:	4633      	mov	r3, r6
   240bc:	df04      	svc	4
   240be:	2802      	cmp	r0, #2
   240c0:	d00e      	beq.n	240e0 <_ZN18complex_no_dynamic3app17hfe0e8243a99b3089E+0x48>
   240c2:	481f      	ldr	r0, [pc, #124]	@ (24140 <_ZN18complex_no_dynamic3app17hfe0e8243a99b3089E+0xa8>)
   240c4:	2103      	movs	r1, #3
   240c6:	aa13      	add	r2, sp, #76	@ 0x4c
   240c8:	2356      	movs	r3, #86	@ 0x56
   240ca:	df03      	svc	3
   240cc:	2802      	cmp	r0, #2
   240ce:	d007      	beq.n	240e0 <_ZN18complex_no_dynamic3app17hfe0e8243a99b3089E+0x48>
   240d0:	481b      	ldr	r0, [pc, #108]	@ (24140 <_ZN18complex_no_dynamic3app17hfe0e8243a99b3089E+0xa8>)
   240d2:	2107      	movs	r1, #7
   240d4:	2203      	movs	r2, #3
   240d6:	2500      	movs	r5, #0
   240d8:	462b      	mov	r3, r5
   240da:	df02      	svc	2
   240dc:	287f      	cmp	r0, #127	@ 0x7f
   240de:	d810      	bhi.n	24102 <_ZN18complex_no_dynamic3app17hfe0e8243a99b3089E+0x6a>
   240e0:	2001      	movs	r0, #1
   240e2:	7020      	strb	r0, [r4, #0]
   240e4:	6061      	str	r1, [r4, #4]
   240e6:	4c16      	ldr	r4, [pc, #88]	@ (24140 <_ZN18complex_no_dynamic3app17hfe0e8243a99b3089E+0xa8>)
   240e8:	2103      	movs	r1, #3
   240ea:	2500      	movs	r5, #0
   240ec:	4620      	mov	r0, r4
   240ee:	462a      	mov	r2, r5
   240f0:	462b      	mov	r3, r5
   240f2:	df03      	svc	3
   240f4:	2107      	movs	r1, #7
   240f6:	4620      	mov	r0, r4
   240f8:	462a      	mov	r2, r5
   240fa:	462b      	mov	r3, r5
   240fc:	df04      	svc	4
   240fe:	b029      	add	sp, #164	@ 0xa4
   24100:	bdf0      	pop	{r4, r5, r6, r7, pc}
   24102:	480f      	ldr	r0, [pc, #60]	@ (24140 <_ZN18complex_no_dynamic3app17hfe0e8243a99b3089E+0xa8>)
   24104:	2603      	movs	r6, #3
   24106:	4631      	mov	r1, r6
   24108:	462a      	mov	r2, r5
   2410a:	462b      	mov	r3, r5
   2410c:	df03      	svc	3
   2410e:	480c      	ldr	r0, [pc, #48]	@ (24140 <_ZN18complex_no_dynamic3app17hfe0e8243a99b3089E+0xa8>)
   24110:	4631      	mov	r1, r6
   24112:	462a      	mov	r2, r5
   24114:	462b      	mov	r3, r5
   24116:	df03      	svc	3
   24118:	1c60      	adds	r0, r4, #1
   2411a:	a913      	add	r1, sp, #76	@ 0x4c
   2411c:	2256      	movs	r2, #86	@ 0x56
   2411e:	f002 ff74 	bl	2700a <__aeabi_memcpy>
   24122:	7025      	strb	r5, [r4, #0]
   24124:	4c06      	ldr	r4, [pc, #24]	@ (24140 <_ZN18complex_no_dynamic3app17hfe0e8243a99b3089E+0xa8>)
   24126:	4620      	mov	r0, r4
   24128:	4631      	mov	r1, r6
   2412a:	462a      	mov	r2, r5
   2412c:	462b      	mov	r3, r5
   2412e:	df03      	svc	3
   24130:	2107      	movs	r1, #7
   24132:	4620      	mov	r0, r4
   24134:	462a      	mov	r2, r5
   24136:	462b      	mov	r3, r5
   24138:	df04      	svc	4
   2413a:	b029      	add	sp, #164	@ 0xa4
   2413c:	bdf0      	pop	{r4, r5, r6, r7, pc}
   2413e:	46c0      	nop			@ (mov r8, r8)
   24140:	00001e50 	.word	0x00001e50

00024144 <_start>:
   24144:	b5f0      	push	{r4, r5, r6, r7, lr}
   24146:	af03      	add	r7, sp, #12
   24148:	4ec2      	ldr	r6, [pc, #776]	@ (24454 <_start+0x310>)
   2414a:	44b5      	add	sp, r6
   2414c:	4ec2      	ldr	r6, [pc, #776]	@ (24458 <_start+0x314>)
   2414e:	446e      	add	r6, sp
   24150:	ac0e      	add	r4, sp, #56	@ 0x38
   24152:	2528      	movs	r5, #40	@ 0x28
   24154:	4620      	mov	r0, r4
   24156:	4629      	mov	r1, r5
   24158:	f002 fdaa 	bl	26cb0 <__aeabi_memclr4>
   2415c:	48bf      	ldr	r0, [pc, #764]	@ (2445c <_start+0x318>)
   2415e:	4468      	add	r0, sp
   24160:	2151      	movs	r1, #81	@ 0x51
   24162:	f002 fda5 	bl	26cb0 <__aeabi_memclr4>
   24166:	48be      	ldr	r0, [pc, #760]	@ (24460 <_start+0x31c>)
   24168:	2109      	movs	r1, #9
   2416a:	4622      	mov	r2, r4
   2416c:	462b      	mov	r3, r5
   2416e:	df04      	svc	4
   24170:	aa3d      	add	r2, sp, #244	@ 0xf4
   24172:	adff      	add	r5, sp, #1020	@ 0x3fc
   24174:	35d4      	adds	r5, #212	@ 0xd4
   24176:	4cbb      	ldr	r4, [pc, #748]	@ (24464 <_start+0x320>)
   24178:	446c      	add	r4, sp
   2417a:	2802      	cmp	r0, #2
   2417c:	d00f      	beq.n	2419e <_start+0x5a>
   2417e:	920b      	str	r2, [sp, #44]	@ 0x2c
   24180:	48b7      	ldr	r0, [pc, #732]	@ (24460 <_start+0x31c>)
   24182:	2109      	movs	r1, #9
   24184:	4ab5      	ldr	r2, [pc, #724]	@ (2445c <_start+0x318>)
   24186:	446a      	add	r2, sp
   24188:	2351      	movs	r3, #81	@ 0x51
   2418a:	df03      	svc	3
   2418c:	2802      	cmp	r0, #2
   2418e:	d006      	beq.n	2419e <_start+0x5a>
   24190:	48b3      	ldr	r0, [pc, #716]	@ (24460 <_start+0x31c>)
   24192:	2109      	movs	r1, #9
   24194:	2300      	movs	r3, #0
   24196:	460a      	mov	r2, r1
   24198:	df02      	svc	2
   2419a:	287f      	cmp	r0, #127	@ 0x7f
   2419c:	d813      	bhi.n	241c6 <_start+0x82>
   2419e:	910c      	str	r1, [sp, #48]	@ 0x30
   241a0:	4daf      	ldr	r5, [pc, #700]	@ (24460 <_start+0x31c>)
   241a2:	2609      	movs	r6, #9
   241a4:	2400      	movs	r4, #0
   241a6:	4628      	mov	r0, r5
   241a8:	4631      	mov	r1, r6
   241aa:	4622      	mov	r2, r4
   241ac:	4623      	mov	r3, r4
   241ae:	df03      	svc	3
   241b0:	4628      	mov	r0, r5
   241b2:	4631      	mov	r1, r6
   241b4:	4622      	mov	r2, r4
   241b6:	4623      	mov	r3, r4
   241b8:	df04      	svc	4
   241ba:	2001      	movs	r0, #1
   241bc:	990c      	ldr	r1, [sp, #48]	@ 0x30
   241be:	1ffe      	subs	r6, r7, #7
   241c0:	3e05      	subs	r6, #5
   241c2:	46b5      	mov	sp, r6
   241c4:	bdf0      	pop	{r4, r5, r6, r7, pc}
   241c6:	9503      	str	r5, [sp, #12]
   241c8:	9404      	str	r4, [sp, #16]
   241ca:	48a5      	ldr	r0, [pc, #660]	@ (24460 <_start+0x31c>)
   241cc:	4635      	mov	r5, r6
   241ce:	2609      	movs	r6, #9
   241d0:	2400      	movs	r4, #0
   241d2:	4631      	mov	r1, r6
   241d4:	4622      	mov	r2, r4
   241d6:	4623      	mov	r3, r4
   241d8:	df03      	svc	3
   241da:	48a1      	ldr	r0, [pc, #644]	@ (24460 <_start+0x31c>)
   241dc:	4631      	mov	r1, r6
   241de:	4622      	mov	r2, r4
   241e0:	4623      	mov	r3, r4
   241e2:	df03      	svc	3
   241e4:	aa0d      	add	r2, sp, #52	@ 0x34
   241e6:	920c      	str	r2, [sp, #48]	@ 0x30
   241e8:	9505      	str	r5, [sp, #20]
   241ea:	6de8      	ldr	r0, [r5, #92]	@ 0x5c
   241ec:	8010      	strh	r0, [r2, #0]
   241ee:	489b      	ldr	r0, [pc, #620]	@ (2445c <_start+0x318>)
   241f0:	4468      	add	r0, sp
   241f2:	7881      	ldrb	r1, [r0, #2]
   241f4:	7091      	strb	r1, [r2, #2]
   241f6:	78c1      	ldrb	r1, [r0, #3]
   241f8:	910a      	str	r1, [sp, #40]	@ 0x28
   241fa:	7901      	ldrb	r1, [r0, #4]
   241fc:	9109      	str	r1, [sp, #36]	@ 0x24
   241fe:	7941      	ldrb	r1, [r0, #5]
   24200:	9108      	str	r1, [sp, #32]
   24202:	7981      	ldrb	r1, [r0, #6]
   24204:	9107      	str	r1, [sp, #28]
   24206:	1dc1      	adds	r1, r0, #7
   24208:	4d93      	ldr	r5, [pc, #588]	@ (24458 <_start+0x314>)
   2420a:	446d      	add	r5, sp
   2420c:	224a      	movs	r2, #74	@ 0x4a
   2420e:	9206      	str	r2, [sp, #24]
   24210:	4628      	mov	r0, r5
   24212:	f002 fefa 	bl	2700a <__aeabi_memcpy>
   24216:	4892      	ldr	r0, [pc, #584]	@ (24460 <_start+0x31c>)
   24218:	4631      	mov	r1, r6
   2421a:	4622      	mov	r2, r4
   2421c:	4623      	mov	r3, r4
   2421e:	df03      	svc	3
   24220:	488f      	ldr	r0, [pc, #572]	@ (24460 <_start+0x31c>)
   24222:	4631      	mov	r1, r6
   24224:	4622      	mov	r2, r4
   24226:	4623      	mov	r3, r4
   24228:	df04      	svc	4
   2422a:	4c8c      	ldr	r4, [pc, #560]	@ (2445c <_start+0x318>)
   2422c:	446c      	add	r4, sp
   2422e:	1de0      	adds	r0, r4, #7
   24230:	4629      	mov	r1, r5
   24232:	9a06      	ldr	r2, [sp, #24]
   24234:	f002 fee9 	bl	2700a <__aeabi_memcpy>
   24238:	9807      	ldr	r0, [sp, #28]
   2423a:	71a0      	strb	r0, [r4, #6]
   2423c:	9808      	ldr	r0, [sp, #32]
   2423e:	7160      	strb	r0, [r4, #5]
   24240:	9809      	ldr	r0, [sp, #36]	@ 0x24
   24242:	7120      	strb	r0, [r4, #4]
   24244:	980a      	ldr	r0, [sp, #40]	@ 0x28
   24246:	70e0      	strb	r0, [r4, #3]
   24248:	980d      	ldr	r0, [sp, #52]	@ 0x34
   2424a:	8020      	strh	r0, [r4, #0]
   2424c:	980c      	ldr	r0, [sp, #48]	@ 0x30
   2424e:	7880      	ldrb	r0, [r0, #2]
   24250:	70a0      	strb	r0, [r4, #2]
   24252:	4881      	ldr	r0, [pc, #516]	@ (24458 <_start+0x314>)
   24254:	4468      	add	r0, sp
   24256:	2146      	movs	r1, #70	@ 0x46
   24258:	f002 fd2a 	bl	26cb0 <__aeabi_memclr4>
   2425c:	4882      	ldr	r0, [pc, #520]	@ (24468 <_start+0x324>)
   2425e:	2107      	movs	r1, #7
   24260:	2351      	movs	r3, #81	@ 0x51
   24262:	4622      	mov	r2, r4
   24264:	df04      	svc	4
   24266:	2802      	cmp	r0, #2
   24268:	d00f      	beq.n	2428a <_start+0x146>
   2426a:	487f      	ldr	r0, [pc, #508]	@ (24468 <_start+0x324>)
   2426c:	2100      	movs	r1, #0
   2426e:	4a7a      	ldr	r2, [pc, #488]	@ (24458 <_start+0x314>)
   24270:	446a      	add	r2, sp
   24272:	2346      	movs	r3, #70	@ 0x46
   24274:	df03      	svc	3
   24276:	2802      	cmp	r0, #2
   24278:	d007      	beq.n	2428a <_start+0x146>
   2427a:	487b      	ldr	r0, [pc, #492]	@ (24468 <_start+0x324>)
   2427c:	2107      	movs	r1, #7
   2427e:	2400      	movs	r4, #0
   24280:	4622      	mov	r2, r4
   24282:	4623      	mov	r3, r4
   24284:	df02      	svc	2
   24286:	287f      	cmp	r0, #127	@ 0x7f
   24288:	d80d      	bhi.n	242a6 <_start+0x162>
   2428a:	910c      	str	r1, [sp, #48]	@ 0x30
   2428c:	4c76      	ldr	r4, [pc, #472]	@ (24468 <_start+0x324>)
   2428e:	2500      	movs	r5, #0
   24290:	4620      	mov	r0, r4
   24292:	4629      	mov	r1, r5
   24294:	462a      	mov	r2, r5
   24296:	462b      	mov	r3, r5
   24298:	df03      	svc	3
   2429a:	2107      	movs	r1, #7
   2429c:	4620      	mov	r0, r4
   2429e:	462a      	mov	r2, r5
   242a0:	462b      	mov	r3, r5
   242a2:	df04      	svc	4
   242a4:	e789      	b.n	241ba <_start+0x76>
   242a6:	4d70      	ldr	r5, [pc, #448]	@ (24468 <_start+0x324>)
   242a8:	4628      	mov	r0, r5
   242aa:	4621      	mov	r1, r4
   242ac:	4622      	mov	r2, r4
   242ae:	4623      	mov	r3, r4
   242b0:	df03      	svc	3
   242b2:	4628      	mov	r0, r5
   242b4:	4621      	mov	r1, r4
   242b6:	4622      	mov	r2, r4
   242b8:	4623      	mov	r3, r4
   242ba:	df03      	svc	3
   242bc:	aa1e      	add	r2, sp, #120	@ 0x78
   242be:	920c      	str	r2, [sp, #48]	@ 0x30
   242c0:	9805      	ldr	r0, [sp, #20]
   242c2:	6800      	ldr	r0, [r0, #0]
   242c4:	8010      	strh	r0, [r2, #0]
   242c6:	4864      	ldr	r0, [pc, #400]	@ (24458 <_start+0x314>)
   242c8:	4468      	add	r0, sp
   242ca:	7881      	ldrb	r1, [r0, #2]
   242cc:	7091      	strb	r1, [r2, #2]
   242ce:	78c1      	ldrb	r1, [r0, #3]
   242d0:	910a      	str	r1, [sp, #40]	@ 0x28
   242d2:	7901      	ldrb	r1, [r0, #4]
   242d4:	9109      	str	r1, [sp, #36]	@ 0x24
   242d6:	7941      	ldrb	r1, [r0, #5]
   242d8:	9108      	str	r1, [sp, #32]
   242da:	7981      	ldrb	r1, [r0, #6]
   242dc:	9107      	str	r1, [sp, #28]
   242de:	1dc1      	adds	r1, r0, #7
   242e0:	ae0e      	add	r6, sp, #56	@ 0x38
   242e2:	223f      	movs	r2, #63	@ 0x3f
   242e4:	9206      	str	r2, [sp, #24]
   242e6:	4630      	mov	r0, r6
   242e8:	f002 fe8f 	bl	2700a <__aeabi_memcpy>
   242ec:	4628      	mov	r0, r5
   242ee:	4621      	mov	r1, r4
   242f0:	4622      	mov	r2, r4
   242f2:	4623      	mov	r3, r4
   242f4:	df03      	svc	3
   242f6:	2107      	movs	r1, #7
   242f8:	4628      	mov	r0, r5
   242fa:	4622      	mov	r2, r4
   242fc:	4623      	mov	r3, r4
   242fe:	df04      	svc	4
   24300:	4d56      	ldr	r5, [pc, #344]	@ (2445c <_start+0x318>)
   24302:	446d      	add	r5, sp
   24304:	1de8      	adds	r0, r5, #7
   24306:	4631      	mov	r1, r6
   24308:	9e05      	ldr	r6, [sp, #20]
   2430a:	9a06      	ldr	r2, [sp, #24]
   2430c:	f002 fe7d 	bl	2700a <__aeabi_memcpy>
   24310:	9807      	ldr	r0, [sp, #28]
   24312:	71a8      	strb	r0, [r5, #6]
   24314:	9808      	ldr	r0, [sp, #32]
   24316:	7168      	strb	r0, [r5, #5]
   24318:	9809      	ldr	r0, [sp, #36]	@ 0x24
   2431a:	7128      	strb	r0, [r5, #4]
   2431c:	980a      	ldr	r0, [sp, #40]	@ 0x28
   2431e:	70e8      	strb	r0, [r5, #3]
   24320:	981e      	ldr	r0, [sp, #120]	@ 0x78
   24322:	8028      	strh	r0, [r5, #0]
   24324:	980c      	ldr	r0, [sp, #48]	@ 0x30
   24326:	7880      	ldrb	r0, [r0, #2]
   24328:	70a8      	strb	r0, [r5, #2]
   2432a:	6034      	str	r4, [r6, #0]
   2432c:	6074      	str	r4, [r6, #4]
   2432e:	60b4      	str	r4, [r6, #8]
   24330:	60f4      	str	r4, [r6, #12]
   24332:	6134      	str	r4, [r6, #16]
   24334:	6174      	str	r4, [r6, #20]
   24336:	484d      	ldr	r0, [pc, #308]	@ (2446c <_start+0x328>)
   24338:	2103      	movs	r1, #3
   2433a:	2346      	movs	r3, #70	@ 0x46
   2433c:	462a      	mov	r2, r5
   2433e:	df04      	svc	4
   24340:	2802      	cmp	r0, #2
   24342:	d00e      	beq.n	24362 <_start+0x21e>
   24344:	4849      	ldr	r0, [pc, #292]	@ (2446c <_start+0x328>)
   24346:	2102      	movs	r1, #2
   24348:	4a43      	ldr	r2, [pc, #268]	@ (24458 <_start+0x314>)
   2434a:	446a      	add	r2, sp
   2434c:	2318      	movs	r3, #24
   2434e:	df03      	svc	3
   24350:	2802      	cmp	r0, #2
   24352:	d006      	beq.n	24362 <_start+0x21e>
   24354:	4845      	ldr	r0, [pc, #276]	@ (2446c <_start+0x328>)
   24356:	2103      	movs	r1, #3
   24358:	2202      	movs	r2, #2
   2435a:	2300      	movs	r3, #0
   2435c:	df02      	svc	2
   2435e:	287f      	cmp	r0, #127	@ 0x7f
   24360:	d80d      	bhi.n	2437e <_start+0x23a>
   24362:	910c      	str	r1, [sp, #48]	@ 0x30
   24364:	4c41      	ldr	r4, [pc, #260]	@ (2446c <_start+0x328>)
   24366:	2102      	movs	r1, #2
   24368:	2500      	movs	r5, #0
   2436a:	4620      	mov	r0, r4
   2436c:	462a      	mov	r2, r5
   2436e:	462b      	mov	r3, r5
   24370:	df03      	svc	3
   24372:	2103      	movs	r1, #3
   24374:	4620      	mov	r0, r4
   24376:	462a      	mov	r2, r5
   24378:	462b      	mov	r3, r5
   2437a:	df04      	svc	4
   2437c:	e71d      	b.n	241ba <_start+0x76>
   2437e:	483b      	ldr	r0, [pc, #236]	@ (2446c <_start+0x328>)
   24380:	4635      	mov	r5, r6
   24382:	2602      	movs	r6, #2
   24384:	2400      	movs	r4, #0
   24386:	4631      	mov	r1, r6
   24388:	4622      	mov	r2, r4
   2438a:	4623      	mov	r3, r4
   2438c:	df03      	svc	3
   2438e:	4837      	ldr	r0, [pc, #220]	@ (2446c <_start+0x328>)
   24390:	4631      	mov	r1, r6
   24392:	4622      	mov	r2, r4
   24394:	4623      	mov	r3, r4
   24396:	df03      	svc	3
   24398:	aa24      	add	r2, sp, #144	@ 0x90
   2439a:	920c      	str	r2, [sp, #48]	@ 0x30
   2439c:	6828      	ldr	r0, [r5, #0]
   2439e:	8010      	strh	r0, [r2, #0]
   243a0:	482d      	ldr	r0, [pc, #180]	@ (24458 <_start+0x314>)
   243a2:	4468      	add	r0, sp
   243a4:	7881      	ldrb	r1, [r0, #2]
   243a6:	7091      	strb	r1, [r2, #2]
   243a8:	78c1      	ldrb	r1, [r0, #3]
   243aa:	910a      	str	r1, [sp, #40]	@ 0x28
   243ac:	7901      	ldrb	r1, [r0, #4]
   243ae:	9109      	str	r1, [sp, #36]	@ 0x24
   243b0:	7941      	ldrb	r1, [r0, #5]
   243b2:	9108      	str	r1, [sp, #32]
   243b4:	7981      	ldrb	r1, [r0, #6]
   243b6:	9107      	str	r1, [sp, #28]
   243b8:	1dc1      	adds	r1, r0, #7
   243ba:	a81f      	add	r0, sp, #124	@ 0x7c
   243bc:	9006      	str	r0, [sp, #24]
   243be:	2211      	movs	r2, #17
   243c0:	9202      	str	r2, [sp, #8]
   243c2:	f002 fe22 	bl	2700a <__aeabi_memcpy>
   243c6:	4d29      	ldr	r5, [pc, #164]	@ (2446c <_start+0x328>)
   243c8:	4628      	mov	r0, r5
   243ca:	4631      	mov	r1, r6
   243cc:	4622      	mov	r2, r4
   243ce:	4623      	mov	r3, r4
   243d0:	df03      	svc	3
   243d2:	2103      	movs	r1, #3
   243d4:	4628      	mov	r0, r5
   243d6:	4622      	mov	r2, r4
   243d8:	4623      	mov	r3, r4
   243da:	df04      	svc	4
   243dc:	ad0e      	add	r5, sp, #56	@ 0x38
   243de:	1de8      	adds	r0, r5, #7
   243e0:	9906      	ldr	r1, [sp, #24]
   243e2:	9a02      	ldr	r2, [sp, #8]
   243e4:	f002 fe11 	bl	2700a <__aeabi_memcpy>
   243e8:	9807      	ldr	r0, [sp, #28]
   243ea:	71a8      	strb	r0, [r5, #6]
   243ec:	9808      	ldr	r0, [sp, #32]
   243ee:	7168      	strb	r0, [r5, #5]
   243f0:	9809      	ldr	r0, [sp, #36]	@ 0x24
   243f2:	7128      	strb	r0, [r5, #4]
   243f4:	980a      	ldr	r0, [sp, #40]	@ 0x28
   243f6:	70e8      	strb	r0, [r5, #3]
   243f8:	9824      	ldr	r0, [sp, #144]	@ 0x90
   243fa:	8028      	strh	r0, [r5, #0]
   243fc:	980c      	ldr	r0, [sp, #48]	@ 0x30
   243fe:	7880      	ldrb	r0, [r0, #2]
   24400:	70a8      	strb	r0, [r5, #2]
   24402:	4816      	ldr	r0, [pc, #88]	@ (2445c <_start+0x318>)
   24404:	4468      	add	r0, sp
   24406:	2136      	movs	r1, #54	@ 0x36
   24408:	f002 fc52 	bl	26cb0 <__aeabi_memclr4>
   2440c:	4818      	ldr	r0, [pc, #96]	@ (24470 <_start+0x32c>)
   2440e:	2318      	movs	r3, #24
   24410:	4621      	mov	r1, r4
   24412:	462a      	mov	r2, r5
   24414:	df04      	svc	4
   24416:	2802      	cmp	r0, #2
   24418:	d00e      	beq.n	24438 <_start+0x2f4>
   2441a:	4815      	ldr	r0, [pc, #84]	@ (24470 <_start+0x32c>)
   2441c:	2107      	movs	r1, #7
   2441e:	4a0f      	ldr	r2, [pc, #60]	@ (2445c <_start+0x318>)
   24420:	446a      	add	r2, sp
   24422:	2336      	movs	r3, #54	@ 0x36
   24424:	df03      	svc	3
   24426:	2802      	cmp	r0, #2
   24428:	d006      	beq.n	24438 <_start+0x2f4>
   2442a:	4811      	ldr	r0, [pc, #68]	@ (24470 <_start+0x32c>)
   2442c:	2207      	movs	r2, #7
   2442e:	2100      	movs	r1, #0
   24430:	460b      	mov	r3, r1
   24432:	df02      	svc	2
   24434:	287f      	cmp	r0, #127	@ 0x7f
   24436:	d81d      	bhi.n	24474 <_start+0x330>
   24438:	910c      	str	r1, [sp, #48]	@ 0x30
   2443a:	4c0d      	ldr	r4, [pc, #52]	@ (24470 <_start+0x32c>)
   2443c:	2107      	movs	r1, #7
   2443e:	2500      	movs	r5, #0
   24440:	4620      	mov	r0, r4
   24442:	462a      	mov	r2, r5
   24444:	462b      	mov	r3, r5
   24446:	df03      	svc	3
   24448:	4620      	mov	r0, r4
   2444a:	4629      	mov	r1, r5
   2444c:	462a      	mov	r2, r5
   2444e:	462b      	mov	r3, r5
   24450:	df04      	svc	4
   24452:	e6b2      	b.n	241ba <_start+0x76>
   24454:	ffffeb14 	.word	0xffffeb14
   24458:	00001370 	.word	0x00001370
   2445c:	000013cc 	.word	0x000013cc
   24460:	00002006 	.word	0x00002006
   24464:	000007a4 	.word	0x000007a4
   24468:	000020c4 	.word	0x000020c4
   2446c:	000023cf 	.word	0x000023cf
   24470:	0000021f 	.word	0x0000021f
   24474:	4e6e      	ldr	r6, [pc, #440]	@ (24630 <_start+0x4ec>)
   24476:	2407      	movs	r4, #7
   24478:	940c      	str	r4, [sp, #48]	@ 0x30
   2447a:	2500      	movs	r5, #0
   2447c:	4630      	mov	r0, r6
   2447e:	4621      	mov	r1, r4
   24480:	462a      	mov	r2, r5
   24482:	462b      	mov	r3, r5
   24484:	df03      	svc	3
   24486:	4630      	mov	r0, r6
   24488:	4621      	mov	r1, r4
   2448a:	462a      	mov	r2, r5
   2448c:	462b      	mov	r3, r5
   2448e:	df03      	svc	3
   24490:	aa25      	add	r2, sp, #148	@ 0x94
   24492:	920a      	str	r2, [sp, #40]	@ 0x28
   24494:	9805      	ldr	r0, [sp, #20]
   24496:	6dc0      	ldr	r0, [r0, #92]	@ 0x5c
   24498:	8010      	strh	r0, [r2, #0]
   2449a:	4866      	ldr	r0, [pc, #408]	@ (24634 <_start+0x4f0>)
   2449c:	4468      	add	r0, sp
   2449e:	7881      	ldrb	r1, [r0, #2]
   244a0:	7091      	strb	r1, [r2, #2]
   244a2:	78c1      	ldrb	r1, [r0, #3]
   244a4:	9109      	str	r1, [sp, #36]	@ 0x24
   244a6:	7901      	ldrb	r1, [r0, #4]
   244a8:	9108      	str	r1, [sp, #32]
   244aa:	7941      	ldrb	r1, [r0, #5]
   244ac:	9107      	str	r1, [sp, #28]
   244ae:	7981      	ldrb	r1, [r0, #6]
   244b0:	9106      	str	r1, [sp, #24]
   244b2:	1dc1      	adds	r1, r0, #7
   244b4:	4e60      	ldr	r6, [pc, #384]	@ (24638 <_start+0x4f4>)
   244b6:	446e      	add	r6, sp
   244b8:	242f      	movs	r4, #47	@ 0x2f
   244ba:	4630      	mov	r0, r6
   244bc:	4622      	mov	r2, r4
   244be:	f002 fda4 	bl	2700a <__aeabi_memcpy>
   244c2:	485b      	ldr	r0, [pc, #364]	@ (24630 <_start+0x4ec>)
   244c4:	990c      	ldr	r1, [sp, #48]	@ 0x30
   244c6:	462a      	mov	r2, r5
   244c8:	462b      	mov	r3, r5
   244ca:	df03      	svc	3
   244cc:	4858      	ldr	r0, [pc, #352]	@ (24630 <_start+0x4ec>)
   244ce:	4629      	mov	r1, r5
   244d0:	462a      	mov	r2, r5
   244d2:	462b      	mov	r3, r5
   244d4:	df04      	svc	4
   244d6:	4d57      	ldr	r5, [pc, #348]	@ (24634 <_start+0x4f0>)
   244d8:	446d      	add	r5, sp
   244da:	1de8      	adds	r0, r5, #7
   244dc:	4631      	mov	r1, r6
   244de:	4622      	mov	r2, r4
   244e0:	f002 fd93 	bl	2700a <__aeabi_memcpy>
   244e4:	9806      	ldr	r0, [sp, #24]
   244e6:	71a8      	strb	r0, [r5, #6]
   244e8:	9807      	ldr	r0, [sp, #28]
   244ea:	7168      	strb	r0, [r5, #5]
   244ec:	9808      	ldr	r0, [sp, #32]
   244ee:	7128      	strb	r0, [r5, #4]
   244f0:	9809      	ldr	r0, [sp, #36]	@ 0x24
   244f2:	70e8      	strb	r0, [r5, #3]
   244f4:	9825      	ldr	r0, [sp, #148]	@ 0x94
   244f6:	8028      	strh	r0, [r5, #0]
   244f8:	980a      	ldr	r0, [sp, #40]	@ 0x28
   244fa:	7880      	ldrb	r0, [r0, #2]
   244fc:	70a8      	strb	r0, [r5, #2]
   244fe:	484e      	ldr	r0, [pc, #312]	@ (24638 <_start+0x4f4>)
   24500:	4468      	add	r0, sp
   24502:	2125      	movs	r1, #37	@ 0x25
   24504:	f002 fbd4 	bl	26cb0 <__aeabi_memclr4>
   24508:	484c      	ldr	r0, [pc, #304]	@ (2463c <_start+0x4f8>)
   2450a:	2336      	movs	r3, #54	@ 0x36
   2450c:	990c      	ldr	r1, [sp, #48]	@ 0x30
   2450e:	462a      	mov	r2, r5
   24510:	df04      	svc	4
   24512:	2802      	cmp	r0, #2
   24514:	d007      	beq.n	24526 <_start+0x3e2>
   24516:	4849      	ldr	r0, [pc, #292]	@ (2463c <_start+0x4f8>)
   24518:	2100      	movs	r1, #0
   2451a:	4a47      	ldr	r2, [pc, #284]	@ (24638 <_start+0x4f4>)
   2451c:	446a      	add	r2, sp
   2451e:	2325      	movs	r3, #37	@ 0x25
   24520:	df03      	svc	3
   24522:	2802      	cmp	r0, #2
   24524:	d10d      	bne.n	24542 <_start+0x3fe>
   24526:	910c      	str	r1, [sp, #48]	@ 0x30
   24528:	4c44      	ldr	r4, [pc, #272]	@ (2463c <_start+0x4f8>)
   2452a:	2500      	movs	r5, #0
   2452c:	4620      	mov	r0, r4
   2452e:	4629      	mov	r1, r5
   24530:	462a      	mov	r2, r5
   24532:	462b      	mov	r3, r5
   24534:	df03      	svc	3
   24536:	2107      	movs	r1, #7
   24538:	4620      	mov	r0, r4
   2453a:	462a      	mov	r2, r5
   2453c:	462b      	mov	r3, r5
   2453e:	df04      	svc	4
   24540:	e63b      	b.n	241ba <_start+0x76>
   24542:	483e      	ldr	r0, [pc, #248]	@ (2463c <_start+0x4f8>)
   24544:	2107      	movs	r1, #7
   24546:	2500      	movs	r5, #0
   24548:	462a      	mov	r2, r5
   2454a:	462b      	mov	r3, r5
   2454c:	df02      	svc	2
   2454e:	910c      	str	r1, [sp, #48]	@ 0x30
   24550:	287f      	cmp	r0, #127	@ 0x7f
   24552:	d9e9      	bls.n	24528 <_start+0x3e4>
   24554:	4c39      	ldr	r4, [pc, #228]	@ (2463c <_start+0x4f8>)
   24556:	4620      	mov	r0, r4
   24558:	4629      	mov	r1, r5
   2455a:	462a      	mov	r2, r5
   2455c:	462b      	mov	r3, r5
   2455e:	df03      	svc	3
   24560:	4620      	mov	r0, r4
   24562:	4629      	mov	r1, r5
   24564:	462a      	mov	r2, r5
   24566:	462b      	mov	r3, r5
   24568:	df03      	svc	3
   2456a:	aa26      	add	r2, sp, #152	@ 0x98
   2456c:	920c      	str	r2, [sp, #48]	@ 0x30
   2456e:	9e05      	ldr	r6, [sp, #20]
   24570:	6830      	ldr	r0, [r6, #0]
   24572:	8010      	strh	r0, [r2, #0]
   24574:	4830      	ldr	r0, [pc, #192]	@ (24638 <_start+0x4f4>)
   24576:	4468      	add	r0, sp
   24578:	7881      	ldrb	r1, [r0, #2]
   2457a:	7091      	strb	r1, [r2, #2]
   2457c:	78c1      	ldrb	r1, [r0, #3]
   2457e:	910a      	str	r1, [sp, #40]	@ 0x28
   24580:	7901      	ldrb	r1, [r0, #4]
   24582:	9109      	str	r1, [sp, #36]	@ 0x24
   24584:	7941      	ldrb	r1, [r0, #5]
   24586:	9108      	str	r1, [sp, #32]
   24588:	7981      	ldrb	r1, [r0, #6]
   2458a:	9107      	str	r1, [sp, #28]
   2458c:	1dc1      	adds	r1, r0, #7
   2458e:	a80e      	add	r0, sp, #56	@ 0x38
   24590:	9006      	str	r0, [sp, #24]
   24592:	221e      	movs	r2, #30
   24594:	9202      	str	r2, [sp, #8]
   24596:	f002 fd38 	bl	2700a <__aeabi_memcpy>
   2459a:	4620      	mov	r0, r4
   2459c:	4629      	mov	r1, r5
   2459e:	462a      	mov	r2, r5
   245a0:	462b      	mov	r3, r5
   245a2:	df03      	svc	3
   245a4:	2107      	movs	r1, #7
   245a6:	4620      	mov	r0, r4
   245a8:	462a      	mov	r2, r5
   245aa:	462b      	mov	r3, r5
   245ac:	df04      	svc	4
   245ae:	4c21      	ldr	r4, [pc, #132]	@ (24634 <_start+0x4f0>)
   245b0:	446c      	add	r4, sp
   245b2:	1de0      	adds	r0, r4, #7
   245b4:	9906      	ldr	r1, [sp, #24]
   245b6:	9a02      	ldr	r2, [sp, #8]
   245b8:	f002 fd27 	bl	2700a <__aeabi_memcpy>
   245bc:	9807      	ldr	r0, [sp, #28]
   245be:	71a0      	strb	r0, [r4, #6]
   245c0:	9808      	ldr	r0, [sp, #32]
   245c2:	7160      	strb	r0, [r4, #5]
   245c4:	9809      	ldr	r0, [sp, #36]	@ 0x24
   245c6:	7120      	strb	r0, [r4, #4]
   245c8:	980a      	ldr	r0, [sp, #40]	@ 0x28
   245ca:	70e0      	strb	r0, [r4, #3]
   245cc:	9826      	ldr	r0, [sp, #152]	@ 0x98
   245ce:	8020      	strh	r0, [r4, #0]
   245d0:	980c      	ldr	r0, [sp, #48]	@ 0x30
   245d2:	7880      	ldrb	r0, [r0, #2]
   245d4:	70a0      	strb	r0, [r4, #2]
   245d6:	4818      	ldr	r0, [pc, #96]	@ (24638 <_start+0x4f4>)
   245d8:	4468      	add	r0, sp
   245da:	8185      	strh	r5, [r0, #12]
   245dc:	6035      	str	r5, [r6, #0]
   245de:	6075      	str	r5, [r6, #4]
   245e0:	60b5      	str	r5, [r6, #8]
   245e2:	4817      	ldr	r0, [pc, #92]	@ (24640 <_start+0x4fc>)
   245e4:	2102      	movs	r1, #2
   245e6:	2325      	movs	r3, #37	@ 0x25
   245e8:	4622      	mov	r2, r4
   245ea:	df04      	svc	4
   245ec:	910c      	str	r1, [sp, #48]	@ 0x30
   245ee:	2802      	cmp	r0, #2
   245f0:	d010      	beq.n	24614 <_start+0x4d0>
   245f2:	4813      	ldr	r0, [pc, #76]	@ (24640 <_start+0x4fc>)
   245f4:	2108      	movs	r1, #8
   245f6:	4a10      	ldr	r2, [pc, #64]	@ (24638 <_start+0x4f4>)
   245f8:	446a      	add	r2, sp
   245fa:	230e      	movs	r3, #14
   245fc:	df03      	svc	3
   245fe:	910c      	str	r1, [sp, #48]	@ 0x30
   24600:	2802      	cmp	r0, #2
   24602:	d007      	beq.n	24614 <_start+0x4d0>
   24604:	480e      	ldr	r0, [pc, #56]	@ (24640 <_start+0x4fc>)
   24606:	2102      	movs	r1, #2
   24608:	2208      	movs	r2, #8
   2460a:	2300      	movs	r3, #0
   2460c:	df02      	svc	2
   2460e:	910c      	str	r1, [sp, #48]	@ 0x30
   24610:	287f      	cmp	r0, #127	@ 0x7f
   24612:	d817      	bhi.n	24644 <_start+0x500>
   24614:	4c0a      	ldr	r4, [pc, #40]	@ (24640 <_start+0x4fc>)
   24616:	2108      	movs	r1, #8
   24618:	2500      	movs	r5, #0
   2461a:	4620      	mov	r0, r4
   2461c:	462a      	mov	r2, r5
   2461e:	462b      	mov	r3, r5
   24620:	df03      	svc	3
   24622:	2102      	movs	r1, #2
   24624:	4620      	mov	r0, r4
   24626:	462a      	mov	r2, r5
   24628:	462b      	mov	r3, r5
   2462a:	df04      	svc	4
   2462c:	e5c5      	b.n	241ba <_start+0x76>
   2462e:	46c0      	nop			@ (mov r8, r8)
   24630:	0000021f 	.word	0x0000021f
   24634:	000013cc 	.word	0x000013cc
   24638:	00001370 	.word	0x00001370
   2463c:	00001597 	.word	0x00001597
   24640:	00000667 	.word	0x00000667
   24644:	4c29      	ldr	r4, [pc, #164]	@ (246ec <_start+0x5a8>)
   24646:	2608      	movs	r6, #8
   24648:	960c      	str	r6, [sp, #48]	@ 0x30
   2464a:	2500      	movs	r5, #0
   2464c:	4620      	mov	r0, r4
   2464e:	4631      	mov	r1, r6
   24650:	462a      	mov	r2, r5
   24652:	462b      	mov	r3, r5
   24654:	df03      	svc	3
   24656:	4620      	mov	r0, r4
   24658:	4631      	mov	r1, r6
   2465a:	462a      	mov	r2, r5
   2465c:	462b      	mov	r3, r5
   2465e:	df03      	svc	3
   24660:	ac27      	add	r4, sp, #156	@ 0x9c
   24662:	9a05      	ldr	r2, [sp, #20]
   24664:	6810      	ldr	r0, [r2, #0]
   24666:	8020      	strh	r0, [r4, #0]
   24668:	4821      	ldr	r0, [pc, #132]	@ (246f0 <_start+0x5ac>)
   2466a:	4468      	add	r0, sp
   2466c:	7881      	ldrb	r1, [r0, #2]
   2466e:	70a1      	strb	r1, [r4, #2]
   24670:	7b41      	ldrb	r1, [r0, #13]
   24672:	ae0e      	add	r6, sp, #56	@ 0x38
   24674:	71b1      	strb	r1, [r6, #6]
   24676:	7ac1      	ldrb	r1, [r0, #11]
   24678:	68d2      	ldr	r2, [r2, #12]
   2467a:	0212      	lsls	r2, r2, #8
   2467c:	1851      	adds	r1, r2, r1
   2467e:	80b1      	strh	r1, [r6, #4]
   24680:	79c1      	ldrb	r1, [r0, #7]
   24682:	7a02      	ldrb	r2, [r0, #8]
   24684:	0212      	lsls	r2, r2, #8
   24686:	1851      	adds	r1, r2, r1
   24688:	7a42      	ldrb	r2, [r0, #9]
   2468a:	0412      	lsls	r2, r2, #16
   2468c:	7a83      	ldrb	r3, [r0, #10]
   2468e:	061b      	lsls	r3, r3, #24
   24690:	189a      	adds	r2, r3, r2
   24692:	1851      	adds	r1, r2, r1
   24694:	910e      	str	r1, [sp, #56]	@ 0x38
   24696:	78c1      	ldrb	r1, [r0, #3]
   24698:	910a      	str	r1, [sp, #40]	@ 0x28
   2469a:	7901      	ldrb	r1, [r0, #4]
   2469c:	9109      	str	r1, [sp, #36]	@ 0x24
   2469e:	7941      	ldrb	r1, [r0, #5]
   246a0:	9108      	str	r1, [sp, #32]
   246a2:	7980      	ldrb	r0, [r0, #6]
   246a4:	9007      	str	r0, [sp, #28]
   246a6:	4811      	ldr	r0, [pc, #68]	@ (246ec <_start+0x5a8>)
   246a8:	990c      	ldr	r1, [sp, #48]	@ 0x30
   246aa:	462a      	mov	r2, r5
   246ac:	462b      	mov	r3, r5
   246ae:	df03      	svc	3
   246b0:	2102      	movs	r1, #2
   246b2:	480e      	ldr	r0, [pc, #56]	@ (246ec <_start+0x5a8>)
   246b4:	462a      	mov	r2, r5
   246b6:	462b      	mov	r3, r5
   246b8:	df04      	svc	4
   246ba:	9807      	ldr	r0, [sp, #28]
   246bc:	71a0      	strb	r0, [r4, #6]
   246be:	9808      	ldr	r0, [sp, #32]
   246c0:	7160      	strb	r0, [r4, #5]
   246c2:	9809      	ldr	r0, [sp, #36]	@ 0x24
   246c4:	7120      	strb	r0, [r4, #4]
   246c6:	980a      	ldr	r0, [sp, #40]	@ 0x28
   246c8:	70e0      	strb	r0, [r4, #3]
   246ca:	1de0      	adds	r0, r4, #7
   246cc:	2207      	movs	r2, #7
   246ce:	4631      	mov	r1, r6
   246d0:	f002 fc9b 	bl	2700a <__aeabi_memcpy>
   246d4:	4d07      	ldr	r5, [pc, #28]	@ (246f4 <_start+0x5b0>)
   246d6:	446d      	add	r5, sp
   246d8:	4628      	mov	r0, r5
   246da:	4621      	mov	r1, r4
   246dc:	f7fd fc6e 	bl	21fbc <_ZN18complex_no_dynamic3app17h93bba9c9289c723fE>
   246e0:	7828      	ldrb	r0, [r5, #0]
   246e2:	2801      	cmp	r0, #1
   246e4:	d108      	bne.n	246f8 <_start+0x5b4>
   246e6:	f002 fa89 	bl	26bfc <_start+0x2ab8>
   246ea:	46c0      	nop			@ (mov r8, r8)
   246ec:	00000667 	.word	0x00000667
   246f0:	00001370 	.word	0x00001370
   246f4:	000013cc 	.word	0x000013cc
   246f8:	4915      	ldr	r1, [pc, #84]	@ (24750 <_start+0x60c>)
   246fa:	4469      	add	r1, sp
   246fc:	78c8      	ldrb	r0, [r1, #3]
   246fe:	ac2b      	add	r4, sp, #172	@ 0xac
   24700:	70a0      	strb	r0, [r4, #2]
   24702:	7848      	ldrb	r0, [r1, #1]
   24704:	788a      	ldrb	r2, [r1, #2]
   24706:	0212      	lsls	r2, r2, #8
   24708:	1810      	adds	r0, r2, r0
   2470a:	8020      	strh	r0, [r4, #0]
   2470c:	9805      	ldr	r0, [sp, #20]
   2470e:	6e05      	ldr	r5, [r0, #96]	@ 0x60
   24710:	3108      	adds	r1, #8
   24712:	4810      	ldr	r0, [pc, #64]	@ (24754 <_start+0x610>)
   24714:	4468      	add	r0, sp
   24716:	900c      	str	r0, [sp, #48]	@ 0x30
   24718:	2641      	movs	r6, #65	@ 0x41
   2471a:	4632      	mov	r2, r6
   2471c:	f002 fb15 	bl	26d4a <__aeabi_memcpy4>
   24720:	0e28      	lsrs	r0, r5, #24
   24722:	71a0      	strb	r0, [r4, #6]
   24724:	0c28      	lsrs	r0, r5, #16
   24726:	7160      	strb	r0, [r4, #5]
   24728:	0a28      	lsrs	r0, r5, #8
   2472a:	7120      	strb	r0, [r4, #4]
   2472c:	70e5      	strb	r5, [r4, #3]
   2472e:	1de0      	adds	r0, r4, #7
   24730:	990c      	ldr	r1, [sp, #48]	@ 0x30
   24732:	4632      	mov	r2, r6
   24734:	f002 fc69 	bl	2700a <__aeabi_memcpy>
   24738:	4d05      	ldr	r5, [pc, #20]	@ (24750 <_start+0x60c>)
   2473a:	446d      	add	r5, sp
   2473c:	4628      	mov	r0, r5
   2473e:	4621      	mov	r1, r4
   24740:	f7fc fb08 	bl	20d54 <_ZN18complex_no_dynamic3app17h3f7d2100efe75ec8E>
   24744:	7828      	ldrb	r0, [r5, #0]
   24746:	2801      	cmp	r0, #1
   24748:	d106      	bne.n	24758 <_start+0x614>
   2474a:	f002 fa57 	bl	26bfc <_start+0x2ab8>
   2474e:	46c0      	nop			@ (mov r8, r8)
   24750:	000013cc 	.word	0x000013cc
   24754:	00001370 	.word	0x00001370
   24758:	980b      	ldr	r0, [sp, #44]	@ 0x2c
   2475a:	1cc0      	adds	r0, r0, #3
   2475c:	4a15      	ldr	r2, [pc, #84]	@ (247b4 <_start+0x670>)
   2475e:	446a      	add	r2, sp
   24760:	78d3      	ldrb	r3, [r2, #3]
   24762:	a93d      	add	r1, sp, #244	@ 0xf4
   24764:	708b      	strb	r3, [r1, #2]
   24766:	7853      	ldrb	r3, [r2, #1]
   24768:	7892      	ldrb	r2, [r2, #2]
   2476a:	0212      	lsls	r2, r2, #8
   2476c:	18d2      	adds	r2, r2, r3
   2476e:	800a      	strh	r2, [r1, #0]
   24770:	9c05      	ldr	r4, [sp, #20]
   24772:	3460      	adds	r4, #96	@ 0x60
   24774:	cc1c      	ldmia	r4, {r2, r3, r4}
   24776:	0e25      	lsrs	r5, r4, #24
   24778:	72c5      	strb	r5, [r0, #11]
   2477a:	0c25      	lsrs	r5, r4, #16
   2477c:	7285      	strb	r5, [r0, #10]
   2477e:	0a25      	lsrs	r5, r4, #8
   24780:	7245      	strb	r5, [r0, #9]
   24782:	7204      	strb	r4, [r0, #8]
   24784:	0e1c      	lsrs	r4, r3, #24
   24786:	71c4      	strb	r4, [r0, #7]
   24788:	0c1c      	lsrs	r4, r3, #16
   2478a:	7184      	strb	r4, [r0, #6]
   2478c:	0a1c      	lsrs	r4, r3, #8
   2478e:	7144      	strb	r4, [r0, #5]
   24790:	7103      	strb	r3, [r0, #4]
   24792:	0e13      	lsrs	r3, r2, #24
   24794:	70c3      	strb	r3, [r0, #3]
   24796:	0c13      	lsrs	r3, r2, #16
   24798:	7083      	strb	r3, [r0, #2]
   2479a:	0a13      	lsrs	r3, r2, #8
   2479c:	7043      	strb	r3, [r0, #1]
   2479e:	7002      	strb	r2, [r0, #0]
   247a0:	4c04      	ldr	r4, [pc, #16]	@ (247b4 <_start+0x670>)
   247a2:	446c      	add	r4, sp
   247a4:	4620      	mov	r0, r4
   247a6:	f7fc fa2d 	bl	20c04 <_ZN18complex_no_dynamic3app17h33e1cb7f7b96c0a9E>
   247aa:	7820      	ldrb	r0, [r4, #0]
   247ac:	2801      	cmp	r0, #1
   247ae:	d103      	bne.n	247b8 <_start+0x674>
   247b0:	f002 fa24 	bl	26bfc <_start+0x2ab8>
   247b4:	000013cc 	.word	0x000013cc
   247b8:	4817      	ldr	r0, [pc, #92]	@ (24818 <_start+0x6d4>)
   247ba:	4468      	add	r0, sp
   247bc:	78c1      	ldrb	r1, [r0, #3]
   247be:	ac41      	add	r4, sp, #260	@ 0x104
   247c0:	70a1      	strb	r1, [r4, #2]
   247c2:	7841      	ldrb	r1, [r0, #1]
   247c4:	7882      	ldrb	r2, [r0, #2]
   247c6:	0212      	lsls	r2, r2, #8
   247c8:	1851      	adds	r1, r2, r1
   247ca:	8021      	strh	r1, [r4, #0]
   247cc:	3008      	adds	r0, #8
   247ce:	9905      	ldr	r1, [sp, #20]
   247d0:	6e09      	ldr	r1, [r1, #96]	@ 0x60
   247d2:	910b      	str	r1, [sp, #44]	@ 0x2c
   247d4:	4b11      	ldr	r3, [pc, #68]	@ (2481c <_start+0x6d8>)
   247d6:	446b      	add	r3, sp
   247d8:	930c      	str	r3, [sp, #48]	@ 0x30
   247da:	c864      	ldmia	r0!, {r2, r5, r6}
   247dc:	c364      	stmia	r3!, {r2, r5, r6}
   247de:	c866      	ldmia	r0!, {r1, r2, r5, r6}
   247e0:	c366      	stmia	r3!, {r1, r2, r5, r6}
   247e2:	8800      	ldrh	r0, [r0, #0]
   247e4:	8018      	strh	r0, [r3, #0]
   247e6:	990b      	ldr	r1, [sp, #44]	@ 0x2c
   247e8:	0e08      	lsrs	r0, r1, #24
   247ea:	71a0      	strb	r0, [r4, #6]
   247ec:	0c08      	lsrs	r0, r1, #16
   247ee:	7160      	strb	r0, [r4, #5]
   247f0:	0a08      	lsrs	r0, r1, #8
   247f2:	7120      	strb	r0, [r4, #4]
   247f4:	70e1      	strb	r1, [r4, #3]
   247f6:	1de0      	adds	r0, r4, #7
   247f8:	221e      	movs	r2, #30
   247fa:	990c      	ldr	r1, [sp, #48]	@ 0x30
   247fc:	f002 fc05 	bl	2700a <__aeabi_memcpy>
   24800:	4d05      	ldr	r5, [pc, #20]	@ (24818 <_start+0x6d4>)
   24802:	446d      	add	r5, sp
   24804:	4628      	mov	r0, r5
   24806:	4621      	mov	r1, r4
   24808:	f7fd f8d2 	bl	219b0 <_ZN18complex_no_dynamic3app17h6ae2bfbf79ad2cbfE>
   2480c:	7828      	ldrb	r0, [r5, #0]
   2480e:	2801      	cmp	r0, #1
   24810:	d106      	bne.n	24820 <_start+0x6dc>
   24812:	f002 f9f3 	bl	26bfc <_start+0x2ab8>
   24816:	46c0      	nop			@ (mov r8, r8)
   24818:	000013cc 	.word	0x000013cc
   2481c:	00001370 	.word	0x00001370
   24820:	4818      	ldr	r0, [pc, #96]	@ (24884 <_start+0x740>)
   24822:	4468      	add	r0, sp
   24824:	78c1      	ldrb	r1, [r0, #3]
   24826:	ac4b      	add	r4, sp, #300	@ 0x12c
   24828:	70a1      	strb	r1, [r4, #2]
   2482a:	7841      	ldrb	r1, [r0, #1]
   2482c:	7882      	ldrb	r2, [r0, #2]
   2482e:	0212      	lsls	r2, r2, #8
   24830:	1851      	adds	r1, r2, r1
   24832:	8021      	strh	r1, [r4, #0]
   24834:	3008      	adds	r0, #8
   24836:	9905      	ldr	r1, [sp, #20]
   24838:	6e09      	ldr	r1, [r1, #96]	@ 0x60
   2483a:	910b      	str	r1, [sp, #44]	@ 0x2c
   2483c:	4b12      	ldr	r3, [pc, #72]	@ (24888 <_start+0x744>)
   2483e:	446b      	add	r3, sp
   24840:	930c      	str	r3, [sp, #48]	@ 0x30
   24842:	c866      	ldmia	r0!, {r1, r2, r5, r6}
   24844:	c366      	stmia	r3!, {r1, r2, r5, r6}
   24846:	c866      	ldmia	r0!, {r1, r2, r5, r6}
   24848:	c366      	stmia	r3!, {r1, r2, r5, r6}
   2484a:	8801      	ldrh	r1, [r0, #0]
   2484c:	8019      	strh	r1, [r3, #0]
   2484e:	7880      	ldrb	r0, [r0, #2]
   24850:	7098      	strb	r0, [r3, #2]
   24852:	990b      	ldr	r1, [sp, #44]	@ 0x2c
   24854:	0e08      	lsrs	r0, r1, #24
   24856:	71a0      	strb	r0, [r4, #6]
   24858:	0c08      	lsrs	r0, r1, #16
   2485a:	7160      	strb	r0, [r4, #5]
   2485c:	0a08      	lsrs	r0, r1, #8
   2485e:	7120      	strb	r0, [r4, #4]
   24860:	70e1      	strb	r1, [r4, #3]
   24862:	1de0      	adds	r0, r4, #7
   24864:	2223      	movs	r2, #35	@ 0x23
   24866:	990c      	ldr	r1, [sp, #48]	@ 0x30
   24868:	f002 fbcf 	bl	2700a <__aeabi_memcpy>
   2486c:	4d05      	ldr	r5, [pc, #20]	@ (24884 <_start+0x740>)
   2486e:	446d      	add	r5, sp
   24870:	4628      	mov	r0, r5
   24872:	4621      	mov	r1, r4
   24874:	f7fe fcdc 	bl	23230 <_ZN18complex_no_dynamic3app17hbac263eb8ef807baE>
   24878:	7828      	ldrb	r0, [r5, #0]
   2487a:	2801      	cmp	r0, #1
   2487c:	d106      	bne.n	2488c <_start+0x748>
   2487e:	f002 f9bd 	bl	26bfc <_start+0x2ab8>
   24882:	46c0      	nop			@ (mov r8, r8)
   24884:	000013cc 	.word	0x000013cc
   24888:	00001370 	.word	0x00001370
   2488c:	4915      	ldr	r1, [pc, #84]	@ (248e4 <_start+0x7a0>)
   2488e:	4469      	add	r1, sp
   24890:	78c8      	ldrb	r0, [r1, #3]
   24892:	ac56      	add	r4, sp, #344	@ 0x158
   24894:	70a0      	strb	r0, [r4, #2]
   24896:	7848      	ldrb	r0, [r1, #1]
   24898:	788a      	ldrb	r2, [r1, #2]
   2489a:	0212      	lsls	r2, r2, #8
   2489c:	1810      	adds	r0, r2, r0
   2489e:	8020      	strh	r0, [r4, #0]
   248a0:	9805      	ldr	r0, [sp, #20]
   248a2:	6e05      	ldr	r5, [r0, #96]	@ 0x60
   248a4:	3108      	adds	r1, #8
   248a6:	4810      	ldr	r0, [pc, #64]	@ (248e8 <_start+0x7a4>)
   248a8:	4468      	add	r0, sp
   248aa:	900c      	str	r0, [sp, #48]	@ 0x30
   248ac:	265c      	movs	r6, #92	@ 0x5c
   248ae:	4632      	mov	r2, r6
   248b0:	f002 fa4b 	bl	26d4a <__aeabi_memcpy4>
   248b4:	0e28      	lsrs	r0, r5, #24
   248b6:	71a0      	strb	r0, [r4, #6]
   248b8:	0c28      	lsrs	r0, r5, #16
   248ba:	7160      	strb	r0, [r4, #5]
   248bc:	0a28      	lsrs	r0, r5, #8
   248be:	7120      	strb	r0, [r4, #4]
   248c0:	70e5      	strb	r5, [r4, #3]
   248c2:	1de0      	adds	r0, r4, #7
   248c4:	990c      	ldr	r1, [sp, #48]	@ 0x30
   248c6:	4632      	mov	r2, r6
   248c8:	f002 fb9f 	bl	2700a <__aeabi_memcpy>
   248cc:	4d05      	ldr	r5, [pc, #20]	@ (248e4 <_start+0x7a0>)
   248ce:	446d      	add	r5, sp
   248d0:	4628      	mov	r0, r5
   248d2:	4621      	mov	r1, r4
   248d4:	f7fd fc94 	bl	22200 <_ZN18complex_no_dynamic3app17h9d29ad8371f43db9E>
   248d8:	7828      	ldrb	r0, [r5, #0]
   248da:	2801      	cmp	r0, #1
   248dc:	d106      	bne.n	248ec <_start+0x7a8>
   248de:	f002 f98d 	bl	26bfc <_start+0x2ab8>
   248e2:	46c0      	nop			@ (mov r8, r8)
   248e4:	000013cc 	.word	0x000013cc
   248e8:	00001370 	.word	0x00001370
   248ec:	4816      	ldr	r0, [pc, #88]	@ (24948 <_start+0x804>)
   248ee:	4468      	add	r0, sp
   248f0:	78c1      	ldrb	r1, [r0, #3]
   248f2:	ac6f      	add	r4, sp, #444	@ 0x1bc
   248f4:	70a1      	strb	r1, [r4, #2]
   248f6:	7841      	ldrb	r1, [r0, #1]
   248f8:	7882      	ldrb	r2, [r0, #2]
   248fa:	0212      	lsls	r2, r2, #8
   248fc:	1851      	adds	r1, r2, r1
   248fe:	8021      	strh	r1, [r4, #0]
   24900:	3008      	adds	r0, #8
   24902:	9905      	ldr	r1, [sp, #20]
   24904:	6e09      	ldr	r1, [r1, #96]	@ 0x60
   24906:	910b      	str	r1, [sp, #44]	@ 0x2c
   24908:	4b10      	ldr	r3, [pc, #64]	@ (2494c <_start+0x808>)
   2490a:	446b      	add	r3, sp
   2490c:	930c      	str	r3, [sp, #48]	@ 0x30
   2490e:	c866      	ldmia	r0!, {r1, r2, r5, r6}
   24910:	c366      	stmia	r3!, {r1, r2, r5, r6}
   24912:	c866      	ldmia	r0!, {r1, r2, r5, r6}
   24914:	c366      	stmia	r3!, {r1, r2, r5, r6}
   24916:	990b      	ldr	r1, [sp, #44]	@ 0x2c
   24918:	0e08      	lsrs	r0, r1, #24
   2491a:	71a0      	strb	r0, [r4, #6]
   2491c:	0c08      	lsrs	r0, r1, #16
   2491e:	7160      	strb	r0, [r4, #5]
   24920:	0a08      	lsrs	r0, r1, #8
   24922:	7120      	strb	r0, [r4, #4]
   24924:	70e1      	strb	r1, [r4, #3]
   24926:	1de0      	adds	r0, r4, #7
   24928:	2220      	movs	r2, #32
   2492a:	990c      	ldr	r1, [sp, #48]	@ 0x30
   2492c:	f002 fb6d 	bl	2700a <__aeabi_memcpy>
   24930:	4d05      	ldr	r5, [pc, #20]	@ (24948 <_start+0x804>)
   24932:	446d      	add	r5, sp
   24934:	4628      	mov	r0, r5
   24936:	4621      	mov	r1, r4
   24938:	f7fc f8b2 	bl	20aa0 <_ZN18complex_no_dynamic3app17h2d01a336742ca851E>
   2493c:	7828      	ldrb	r0, [r5, #0]
   2493e:	2801      	cmp	r0, #1
   24940:	d106      	bne.n	24950 <_start+0x80c>
   24942:	f002 f95b 	bl	26bfc <_start+0x2ab8>
   24946:	46c0      	nop			@ (mov r8, r8)
   24948:	000013cc 	.word	0x000013cc
   2494c:	00001370 	.word	0x00001370
   24950:	4817      	ldr	r0, [pc, #92]	@ (249b0 <_start+0x86c>)
   24952:	4468      	add	r0, sp
   24954:	78c1      	ldrb	r1, [r0, #3]
   24956:	ac79      	add	r4, sp, #484	@ 0x1e4
   24958:	70a1      	strb	r1, [r4, #2]
   2495a:	7841      	ldrb	r1, [r0, #1]
   2495c:	7882      	ldrb	r2, [r0, #2]
   2495e:	0212      	lsls	r2, r2, #8
   24960:	1851      	adds	r1, r2, r1
   24962:	8021      	strh	r1, [r4, #0]
   24964:	3008      	adds	r0, #8
   24966:	9905      	ldr	r1, [sp, #20]
   24968:	6e09      	ldr	r1, [r1, #96]	@ 0x60
   2496a:	4b12      	ldr	r3, [pc, #72]	@ (249b4 <_start+0x870>)
   2496c:	446b      	add	r3, sp
   2496e:	930c      	str	r3, [sp, #48]	@ 0x30
   24970:	c860      	ldmia	r0!, {r5, r6}
   24972:	c360      	stmia	r3!, {r5, r6}
   24974:	c864      	ldmia	r0!, {r2, r5, r6}
   24976:	c364      	stmia	r3!, {r2, r5, r6}
   24978:	8802      	ldrh	r2, [r0, #0]
   2497a:	801a      	strh	r2, [r3, #0]
   2497c:	7880      	ldrb	r0, [r0, #2]
   2497e:	7098      	strb	r0, [r3, #2]
   24980:	0e08      	lsrs	r0, r1, #24
   24982:	71a0      	strb	r0, [r4, #6]
   24984:	0c08      	lsrs	r0, r1, #16
   24986:	7160      	strb	r0, [r4, #5]
   24988:	0a08      	lsrs	r0, r1, #8
   2498a:	7120      	strb	r0, [r4, #4]
   2498c:	70e1      	strb	r1, [r4, #3]
   2498e:	1de0      	adds	r0, r4, #7
   24990:	2217      	movs	r2, #23
   24992:	990c      	ldr	r1, [sp, #48]	@ 0x30
   24994:	f002 fb39 	bl	2700a <__aeabi_memcpy>
   24998:	4d05      	ldr	r5, [pc, #20]	@ (249b0 <_start+0x86c>)
   2499a:	446d      	add	r5, sp
   2499c:	4628      	mov	r0, r5
   2499e:	4621      	mov	r1, r4
   249a0:	f7fe f886 	bl	22ab0 <_ZN18complex_no_dynamic3app17hab78c79232b12bbbE>
   249a4:	7828      	ldrb	r0, [r5, #0]
   249a6:	2801      	cmp	r0, #1
   249a8:	d106      	bne.n	249b8 <_start+0x874>
   249aa:	f002 f927 	bl	26bfc <_start+0x2ab8>
   249ae:	46c0      	nop			@ (mov r8, r8)
   249b0:	000013cc 	.word	0x000013cc
   249b4:	00001370 	.word	0x00001370
   249b8:	4817      	ldr	r0, [pc, #92]	@ (24a18 <_start+0x8d4>)
   249ba:	4468      	add	r0, sp
   249bc:	78c1      	ldrb	r1, [r0, #3]
   249be:	ac81      	add	r4, sp, #516	@ 0x204
   249c0:	70a1      	strb	r1, [r4, #2]
   249c2:	7841      	ldrb	r1, [r0, #1]
   249c4:	7882      	ldrb	r2, [r0, #2]
   249c6:	0212      	lsls	r2, r2, #8
   249c8:	1851      	adds	r1, r2, r1
   249ca:	8021      	strh	r1, [r4, #0]
   249cc:	3008      	adds	r0, #8
   249ce:	9905      	ldr	r1, [sp, #20]
   249d0:	6e09      	ldr	r1, [r1, #96]	@ 0x60
   249d2:	4b12      	ldr	r3, [pc, #72]	@ (24a1c <_start+0x8d8>)
   249d4:	446b      	add	r3, sp
   249d6:	930c      	str	r3, [sp, #48]	@ 0x30
   249d8:	c864      	ldmia	r0!, {r2, r5, r6}
   249da:	c364      	stmia	r3!, {r2, r5, r6}
   249dc:	c864      	ldmia	r0!, {r2, r5, r6}
   249de:	c364      	stmia	r3!, {r2, r5, r6}
   249e0:	c864      	ldmia	r0!, {r2, r5, r6}
   249e2:	c364      	stmia	r3!, {r2, r5, r6}
   249e4:	7800      	ldrb	r0, [r0, #0]
   249e6:	7018      	strb	r0, [r3, #0]
   249e8:	0e08      	lsrs	r0, r1, #24
   249ea:	71a0      	strb	r0, [r4, #6]
   249ec:	0c08      	lsrs	r0, r1, #16
   249ee:	7160      	strb	r0, [r4, #5]
   249f0:	0a08      	lsrs	r0, r1, #8
   249f2:	7120      	strb	r0, [r4, #4]
   249f4:	70e1      	strb	r1, [r4, #3]
   249f6:	1de0      	adds	r0, r4, #7
   249f8:	2225      	movs	r2, #37	@ 0x25
   249fa:	990c      	ldr	r1, [sp, #48]	@ 0x30
   249fc:	f002 fb05 	bl	2700a <__aeabi_memcpy>
   24a00:	4d05      	ldr	r5, [pc, #20]	@ (24a18 <_start+0x8d4>)
   24a02:	446d      	add	r5, sp
   24a04:	4628      	mov	r0, r5
   24a06:	4621      	mov	r1, r4
   24a08:	f7fb fcec 	bl	203e4 <_ZN18complex_no_dynamic3app17h178e553918a8b8afE>
   24a0c:	7828      	ldrb	r0, [r5, #0]
   24a0e:	2801      	cmp	r0, #1
   24a10:	d106      	bne.n	24a20 <_start+0x8dc>
   24a12:	f002 f8f3 	bl	26bfc <_start+0x2ab8>
   24a16:	46c0      	nop			@ (mov r8, r8)
   24a18:	000013cc 	.word	0x000013cc
   24a1c:	00001370 	.word	0x00001370
   24a20:	4817      	ldr	r0, [pc, #92]	@ (24a80 <_start+0x93c>)
   24a22:	4468      	add	r0, sp
   24a24:	78c1      	ldrb	r1, [r0, #3]
   24a26:	ac8c      	add	r4, sp, #560	@ 0x230
   24a28:	70a1      	strb	r1, [r4, #2]
   24a2a:	7841      	ldrb	r1, [r0, #1]
   24a2c:	7882      	ldrb	r2, [r0, #2]
   24a2e:	0212      	lsls	r2, r2, #8
   24a30:	1851      	adds	r1, r2, r1
   24a32:	8021      	strh	r1, [r4, #0]
   24a34:	3008      	adds	r0, #8
   24a36:	9905      	ldr	r1, [sp, #20]
   24a38:	6e09      	ldr	r1, [r1, #96]	@ 0x60
   24a3a:	910b      	str	r1, [sp, #44]	@ 0x2c
   24a3c:	4b11      	ldr	r3, [pc, #68]	@ (24a84 <_start+0x940>)
   24a3e:	446b      	add	r3, sp
   24a40:	930c      	str	r3, [sp, #48]	@ 0x30
   24a42:	c864      	ldmia	r0!, {r2, r5, r6}
   24a44:	c364      	stmia	r3!, {r2, r5, r6}
   24a46:	c866      	ldmia	r0!, {r1, r2, r5, r6}
   24a48:	c366      	stmia	r3!, {r1, r2, r5, r6}
   24a4a:	8800      	ldrh	r0, [r0, #0]
   24a4c:	8018      	strh	r0, [r3, #0]
   24a4e:	990b      	ldr	r1, [sp, #44]	@ 0x2c
   24a50:	0e08      	lsrs	r0, r1, #24
   24a52:	71a0      	strb	r0, [r4, #6]
   24a54:	0c08      	lsrs	r0, r1, #16
   24a56:	7160      	strb	r0, [r4, #5]
   24a58:	0a08      	lsrs	r0, r1, #8
   24a5a:	7120      	strb	r0, [r4, #4]
   24a5c:	70e1      	strb	r1, [r4, #3]
   24a5e:	1de0      	adds	r0, r4, #7
   24a60:	221e      	movs	r2, #30
   24a62:	990c      	ldr	r1, [sp, #48]	@ 0x30
   24a64:	f002 fad1 	bl	2700a <__aeabi_memcpy>
   24a68:	4d05      	ldr	r5, [pc, #20]	@ (24a80 <_start+0x93c>)
   24a6a:	446d      	add	r5, sp
   24a6c:	4628      	mov	r0, r5
   24a6e:	4621      	mov	r1, r4
   24a70:	f7fb fd0c 	bl	2048c <_ZN18complex_no_dynamic3app17h1ffde5a49ae59e2cE>
   24a74:	7828      	ldrb	r0, [r5, #0]
   24a76:	2801      	cmp	r0, #1
   24a78:	d106      	bne.n	24a88 <_start+0x944>
   24a7a:	f002 f8bf 	bl	26bfc <_start+0x2ab8>
   24a7e:	46c0      	nop			@ (mov r8, r8)
   24a80:	000013cc 	.word	0x000013cc
   24a84:	00001370 	.word	0x00001370
   24a88:	4816      	ldr	r0, [pc, #88]	@ (24ae4 <_start+0x9a0>)
   24a8a:	4468      	add	r0, sp
   24a8c:	78c1      	ldrb	r1, [r0, #3]
   24a8e:	ac96      	add	r4, sp, #600	@ 0x258
   24a90:	70a1      	strb	r1, [r4, #2]
   24a92:	7841      	ldrb	r1, [r0, #1]
   24a94:	7882      	ldrb	r2, [r0, #2]
   24a96:	0212      	lsls	r2, r2, #8
   24a98:	1851      	adds	r1, r2, r1
   24a9a:	8021      	strh	r1, [r4, #0]
   24a9c:	3008      	adds	r0, #8
   24a9e:	9905      	ldr	r1, [sp, #20]
   24aa0:	6e09      	ldr	r1, [r1, #96]	@ 0x60
   24aa2:	910b      	str	r1, [sp, #44]	@ 0x2c
   24aa4:	4b10      	ldr	r3, [pc, #64]	@ (24ae8 <_start+0x9a4>)
   24aa6:	446b      	add	r3, sp
   24aa8:	930c      	str	r3, [sp, #48]	@ 0x30
   24aaa:	c866      	ldmia	r0!, {r1, r2, r5, r6}
   24aac:	c366      	stmia	r3!, {r1, r2, r5, r6}
   24aae:	7800      	ldrb	r0, [r0, #0]
   24ab0:	7018      	strb	r0, [r3, #0]
   24ab2:	990b      	ldr	r1, [sp, #44]	@ 0x2c
   24ab4:	0e08      	lsrs	r0, r1, #24
   24ab6:	71a0      	strb	r0, [r4, #6]
   24ab8:	0c08      	lsrs	r0, r1, #16
   24aba:	7160      	strb	r0, [r4, #5]
   24abc:	0a08      	lsrs	r0, r1, #8
   24abe:	7120      	strb	r0, [r4, #4]
   24ac0:	70e1      	strb	r1, [r4, #3]
   24ac2:	1de0      	adds	r0, r4, #7
   24ac4:	2211      	movs	r2, #17
   24ac6:	990c      	ldr	r1, [sp, #48]	@ 0x30
   24ac8:	f002 fa9f 	bl	2700a <__aeabi_memcpy>
   24acc:	4d05      	ldr	r5, [pc, #20]	@ (24ae4 <_start+0x9a0>)
   24ace:	446d      	add	r5, sp
   24ad0:	4628      	mov	r0, r5
   24ad2:	4621      	mov	r1, r4
   24ad4:	f7fe f9a0 	bl	22e18 <_ZN18complex_no_dynamic3app17hb3595994fdb8b9f1E>
   24ad8:	7828      	ldrb	r0, [r5, #0]
   24ada:	2801      	cmp	r0, #1
   24adc:	d106      	bne.n	24aec <_start+0x9a8>
   24ade:	f002 f88d 	bl	26bfc <_start+0x2ab8>
   24ae2:	46c0      	nop			@ (mov r8, r8)
   24ae4:	000013cc 	.word	0x000013cc
   24ae8:	00001370 	.word	0x00001370
   24aec:	4819      	ldr	r0, [pc, #100]	@ (24b54 <_start+0xa10>)
   24aee:	4468      	add	r0, sp
   24af0:	78c1      	ldrb	r1, [r0, #3]
   24af2:	ac9c      	add	r4, sp, #624	@ 0x270
   24af4:	70a1      	strb	r1, [r4, #2]
   24af6:	7841      	ldrb	r1, [r0, #1]
   24af8:	7882      	ldrb	r2, [r0, #2]
   24afa:	0212      	lsls	r2, r2, #8
   24afc:	1851      	adds	r1, r2, r1
   24afe:	8021      	strh	r1, [r4, #0]
   24b00:	3008      	adds	r0, #8
   24b02:	9905      	ldr	r1, [sp, #20]
   24b04:	6e09      	ldr	r1, [r1, #96]	@ 0x60
   24b06:	910b      	str	r1, [sp, #44]	@ 0x2c
   24b08:	4b13      	ldr	r3, [pc, #76]	@ (24b58 <_start+0xa14>)
   24b0a:	446b      	add	r3, sp
   24b0c:	930c      	str	r3, [sp, #48]	@ 0x30
   24b0e:	c864      	ldmia	r0!, {r2, r5, r6}
   24b10:	c364      	stmia	r3!, {r2, r5, r6}
   24b12:	c866      	ldmia	r0!, {r1, r2, r5, r6}
   24b14:	c366      	stmia	r3!, {r1, r2, r5, r6}
   24b16:	c866      	ldmia	r0!, {r1, r2, r5, r6}
   24b18:	c366      	stmia	r3!, {r1, r2, r5, r6}
   24b1a:	8801      	ldrh	r1, [r0, #0]
   24b1c:	8019      	strh	r1, [r3, #0]
   24b1e:	7880      	ldrb	r0, [r0, #2]
   24b20:	7098      	strb	r0, [r3, #2]
   24b22:	990b      	ldr	r1, [sp, #44]	@ 0x2c
   24b24:	0e08      	lsrs	r0, r1, #24
   24b26:	71a0      	strb	r0, [r4, #6]
   24b28:	0c08      	lsrs	r0, r1, #16
   24b2a:	7160      	strb	r0, [r4, #5]
   24b2c:	0a08      	lsrs	r0, r1, #8
   24b2e:	7120      	strb	r0, [r4, #4]
   24b30:	70e1      	strb	r1, [r4, #3]
   24b32:	1de0      	adds	r0, r4, #7
   24b34:	222f      	movs	r2, #47	@ 0x2f
   24b36:	990c      	ldr	r1, [sp, #48]	@ 0x30
   24b38:	f002 fa67 	bl	2700a <__aeabi_memcpy>
   24b3c:	4d05      	ldr	r5, [pc, #20]	@ (24b54 <_start+0xa10>)
   24b3e:	446d      	add	r5, sp
   24b40:	4628      	mov	r0, r5
   24b42:	4621      	mov	r1, r4
   24b44:	f7fd fcb0 	bl	224a8 <_ZN18complex_no_dynamic3app17ha208c7bf401bd3baE>
   24b48:	7828      	ldrb	r0, [r5, #0]
   24b4a:	2801      	cmp	r0, #1
   24b4c:	d106      	bne.n	24b5c <_start+0xa18>
   24b4e:	f002 f855 	bl	26bfc <_start+0x2ab8>
   24b52:	46c0      	nop			@ (mov r8, r8)
   24b54:	000013cc 	.word	0x000013cc
   24b58:	00001370 	.word	0x00001370
   24b5c:	4818      	ldr	r0, [pc, #96]	@ (24bc0 <_start+0xa7c>)
   24b5e:	4468      	add	r0, sp
   24b60:	78c1      	ldrb	r1, [r0, #3]
   24b62:	acaa      	add	r4, sp, #680	@ 0x2a8
   24b64:	70a1      	strb	r1, [r4, #2]
   24b66:	7841      	ldrb	r1, [r0, #1]
   24b68:	7882      	ldrb	r2, [r0, #2]
   24b6a:	0212      	lsls	r2, r2, #8
   24b6c:	1851      	adds	r1, r2, r1
   24b6e:	8021      	strh	r1, [r4, #0]
   24b70:	3008      	adds	r0, #8
   24b72:	9905      	ldr	r1, [sp, #20]
   24b74:	6e09      	ldr	r1, [r1, #96]	@ 0x60
   24b76:	910b      	str	r1, [sp, #44]	@ 0x2c
   24b78:	4b12      	ldr	r3, [pc, #72]	@ (24bc4 <_start+0xa80>)
   24b7a:	446b      	add	r3, sp
   24b7c:	930c      	str	r3, [sp, #48]	@ 0x30
   24b7e:	c864      	ldmia	r0!, {r2, r5, r6}
   24b80:	c364      	stmia	r3!, {r2, r5, r6}
   24b82:	c866      	ldmia	r0!, {r1, r2, r5, r6}
   24b84:	c366      	stmia	r3!, {r1, r2, r5, r6}
   24b86:	c866      	ldmia	r0!, {r1, r2, r5, r6}
   24b88:	c366      	stmia	r3!, {r1, r2, r5, r6}
   24b8a:	7800      	ldrb	r0, [r0, #0]
   24b8c:	7018      	strb	r0, [r3, #0]
   24b8e:	990b      	ldr	r1, [sp, #44]	@ 0x2c
   24b90:	0e08      	lsrs	r0, r1, #24
   24b92:	71a0      	strb	r0, [r4, #6]
   24b94:	0c08      	lsrs	r0, r1, #16
   24b96:	7160      	strb	r0, [r4, #5]
   24b98:	0a08      	lsrs	r0, r1, #8
   24b9a:	7120      	strb	r0, [r4, #4]
   24b9c:	70e1      	strb	r1, [r4, #3]
   24b9e:	1de0      	adds	r0, r4, #7
   24ba0:	222d      	movs	r2, #45	@ 0x2d
   24ba2:	990c      	ldr	r1, [sp, #48]	@ 0x30
   24ba4:	f002 fa31 	bl	2700a <__aeabi_memcpy>
   24ba8:	4d05      	ldr	r5, [pc, #20]	@ (24bc0 <_start+0xa7c>)
   24baa:	446d      	add	r5, sp
   24bac:	4628      	mov	r0, r5
   24bae:	4621      	mov	r1, r4
   24bb0:	f7fc f9dc 	bl	20f6c <_ZN18complex_no_dynamic3app17h46e68d81802c4213E>
   24bb4:	7828      	ldrb	r0, [r5, #0]
   24bb6:	2801      	cmp	r0, #1
   24bb8:	d106      	bne.n	24bc8 <_start+0xa84>
   24bba:	f002 f81f 	bl	26bfc <_start+0x2ab8>
   24bbe:	46c0      	nop			@ (mov r8, r8)
   24bc0:	000013cc 	.word	0x000013cc
   24bc4:	00001370 	.word	0x00001370
   24bc8:	4818      	ldr	r0, [pc, #96]	@ (24c2c <_start+0xae8>)
   24bca:	4468      	add	r0, sp
   24bcc:	78c1      	ldrb	r1, [r0, #3]
   24bce:	acb7      	add	r4, sp, #732	@ 0x2dc
   24bd0:	70a1      	strb	r1, [r4, #2]
   24bd2:	7841      	ldrb	r1, [r0, #1]
   24bd4:	7882      	ldrb	r2, [r0, #2]
   24bd6:	0212      	lsls	r2, r2, #8
   24bd8:	1851      	adds	r1, r2, r1
   24bda:	8021      	strh	r1, [r4, #0]
   24bdc:	3008      	adds	r0, #8
   24bde:	9905      	ldr	r1, [sp, #20]
   24be0:	6e09      	ldr	r1, [r1, #96]	@ 0x60
   24be2:	4b13      	ldr	r3, [pc, #76]	@ (24c30 <_start+0xaec>)
   24be4:	446b      	add	r3, sp
   24be6:	930c      	str	r3, [sp, #48]	@ 0x30
   24be8:	c864      	ldmia	r0!, {r2, r5, r6}
   24bea:	c364      	stmia	r3!, {r2, r5, r6}
   24bec:	c864      	ldmia	r0!, {r2, r5, r6}
   24bee:	c364      	stmia	r3!, {r2, r5, r6}
   24bf0:	c864      	ldmia	r0!, {r2, r5, r6}
   24bf2:	c364      	stmia	r3!, {r2, r5, r6}
   24bf4:	8802      	ldrh	r2, [r0, #0]
   24bf6:	801a      	strh	r2, [r3, #0]
   24bf8:	7880      	ldrb	r0, [r0, #2]
   24bfa:	7098      	strb	r0, [r3, #2]
   24bfc:	0e08      	lsrs	r0, r1, #24
   24bfe:	71a0      	strb	r0, [r4, #6]
   24c00:	0c08      	lsrs	r0, r1, #16
   24c02:	7160      	strb	r0, [r4, #5]
   24c04:	0a08      	lsrs	r0, r1, #8
   24c06:	7120      	strb	r0, [r4, #4]
   24c08:	70e1      	strb	r1, [r4, #3]
   24c0a:	1de0      	adds	r0, r4, #7
   24c0c:	2227      	movs	r2, #39	@ 0x27
   24c0e:	990c      	ldr	r1, [sp, #48]	@ 0x30
   24c10:	f002 f9fb 	bl	2700a <__aeabi_memcpy>
   24c14:	4d05      	ldr	r5, [pc, #20]	@ (24c2c <_start+0xae8>)
   24c16:	446d      	add	r5, sp
   24c18:	4628      	mov	r0, r5
   24c1a:	4621      	mov	r1, r4
   24c1c:	f7fe fbb2 	bl	23384 <_ZN18complex_no_dynamic3app17hc8be94ba482f0cf1E>
   24c20:	7828      	ldrb	r0, [r5, #0]
   24c22:	2801      	cmp	r0, #1
   24c24:	d106      	bne.n	24c34 <_start+0xaf0>
   24c26:	f001 ffe9 	bl	26bfc <_start+0x2ab8>
   24c2a:	46c0      	nop			@ (mov r8, r8)
   24c2c:	000013cc 	.word	0x000013cc
   24c30:	00001370 	.word	0x00001370
   24c34:	4818      	ldr	r0, [pc, #96]	@ (24c98 <_start+0xb54>)
   24c36:	4468      	add	r0, sp
   24c38:	78c1      	ldrb	r1, [r0, #3]
   24c3a:	acc3      	add	r4, sp, #780	@ 0x30c
   24c3c:	70a1      	strb	r1, [r4, #2]
   24c3e:	7841      	ldrb	r1, [r0, #1]
   24c40:	7882      	ldrb	r2, [r0, #2]
   24c42:	0212      	lsls	r2, r2, #8
   24c44:	1851      	adds	r1, r2, r1
   24c46:	8021      	strh	r1, [r4, #0]
   24c48:	3008      	adds	r0, #8
   24c4a:	9905      	ldr	r1, [sp, #20]
   24c4c:	6e09      	ldr	r1, [r1, #96]	@ 0x60
   24c4e:	910b      	str	r1, [sp, #44]	@ 0x2c
   24c50:	4b12      	ldr	r3, [pc, #72]	@ (24c9c <_start+0xb58>)
   24c52:	446b      	add	r3, sp
   24c54:	930c      	str	r3, [sp, #48]	@ 0x30
   24c56:	c866      	ldmia	r0!, {r1, r2, r5, r6}
   24c58:	c366      	stmia	r3!, {r1, r2, r5, r6}
   24c5a:	c866      	ldmia	r0!, {r1, r2, r5, r6}
   24c5c:	c366      	stmia	r3!, {r1, r2, r5, r6}
   24c5e:	c866      	ldmia	r0!, {r1, r2, r5, r6}
   24c60:	c366      	stmia	r3!, {r1, r2, r5, r6}
   24c62:	7800      	ldrb	r0, [r0, #0]
   24c64:	7018      	strb	r0, [r3, #0]
   24c66:	990b      	ldr	r1, [sp, #44]	@ 0x2c
   24c68:	0e08      	lsrs	r0, r1, #24
   24c6a:	71a0      	strb	r0, [r4, #6]
   24c6c:	0c08      	lsrs	r0, r1, #16
   24c6e:	7160      	strb	r0, [r4, #5]
   24c70:	0a08      	lsrs	r0, r1, #8
   24c72:	7120      	strb	r0, [r4, #4]
   24c74:	70e1      	strb	r1, [r4, #3]
   24c76:	1de0      	adds	r0, r4, #7
   24c78:	2231      	movs	r2, #49	@ 0x31
   24c7a:	990c      	ldr	r1, [sp, #48]	@ 0x30
   24c7c:	f002 f9c5 	bl	2700a <__aeabi_memcpy>
   24c80:	4d05      	ldr	r5, [pc, #20]	@ (24c98 <_start+0xb54>)
   24c82:	446d      	add	r5, sp
   24c84:	4628      	mov	r0, r5
   24c86:	4621      	mov	r1, r4
   24c88:	f7fe fede 	bl	23a48 <_ZN18complex_no_dynamic3app17he6677085e94e11b7E>
   24c8c:	7828      	ldrb	r0, [r5, #0]
   24c8e:	2801      	cmp	r0, #1
   24c90:	d106      	bne.n	24ca0 <_start+0xb5c>
   24c92:	f001 ffb3 	bl	26bfc <_start+0x2ab8>
   24c96:	46c0      	nop			@ (mov r8, r8)
   24c98:	000013cc 	.word	0x000013cc
   24c9c:	00001370 	.word	0x00001370
   24ca0:	4818      	ldr	r0, [pc, #96]	@ (24d04 <_start+0xbc0>)
   24ca2:	4468      	add	r0, sp
   24ca4:	78c1      	ldrb	r1, [r0, #3]
   24ca6:	acd1      	add	r4, sp, #836	@ 0x344
   24ca8:	70a1      	strb	r1, [r4, #2]
   24caa:	7841      	ldrb	r1, [r0, #1]
   24cac:	7882      	ldrb	r2, [r0, #2]
   24cae:	0212      	lsls	r2, r2, #8
   24cb0:	1851      	adds	r1, r2, r1
   24cb2:	8021      	strh	r1, [r4, #0]
   24cb4:	3008      	adds	r0, #8
   24cb6:	9905      	ldr	r1, [sp, #20]
   24cb8:	6e09      	ldr	r1, [r1, #96]	@ 0x60
   24cba:	910b      	str	r1, [sp, #44]	@ 0x2c
   24cbc:	4b12      	ldr	r3, [pc, #72]	@ (24d08 <_start+0xbc4>)
   24cbe:	446b      	add	r3, sp
   24cc0:	930c      	str	r3, [sp, #48]	@ 0x30
   24cc2:	c864      	ldmia	r0!, {r2, r5, r6}
   24cc4:	c364      	stmia	r3!, {r2, r5, r6}
   24cc6:	c866      	ldmia	r0!, {r1, r2, r5, r6}
   24cc8:	c366      	stmia	r3!, {r1, r2, r5, r6}
   24cca:	c866      	ldmia	r0!, {r1, r2, r5, r6}
   24ccc:	c366      	stmia	r3!, {r1, r2, r5, r6}
   24cce:	7800      	ldrb	r0, [r0, #0]
   24cd0:	7018      	strb	r0, [r3, #0]
   24cd2:	990b      	ldr	r1, [sp, #44]	@ 0x2c
   24cd4:	0e08      	lsrs	r0, r1, #24
   24cd6:	71a0      	strb	r0, [r4, #6]
   24cd8:	0c08      	lsrs	r0, r1, #16
   24cda:	7160      	strb	r0, [r4, #5]
   24cdc:	0a08      	lsrs	r0, r1, #8
   24cde:	7120      	strb	r0, [r4, #4]
   24ce0:	70e1      	strb	r1, [r4, #3]
   24ce2:	1de0      	adds	r0, r4, #7
   24ce4:	222d      	movs	r2, #45	@ 0x2d
   24ce6:	990c      	ldr	r1, [sp, #48]	@ 0x30
   24ce8:	f002 f98f 	bl	2700a <__aeabi_memcpy>
   24cec:	4d05      	ldr	r5, [pc, #20]	@ (24d04 <_start+0xbc0>)
   24cee:	446d      	add	r5, sp
   24cf0:	4628      	mov	r0, r5
   24cf2:	4621      	mov	r1, r4
   24cf4:	f7fd ff30 	bl	22b58 <_ZN18complex_no_dynamic3app17habafbdd556de511aE>
   24cf8:	7828      	ldrb	r0, [r5, #0]
   24cfa:	2801      	cmp	r0, #1
   24cfc:	d106      	bne.n	24d0c <_start+0xbc8>
   24cfe:	f001 ff7d 	bl	26bfc <_start+0x2ab8>
   24d02:	46c0      	nop			@ (mov r8, r8)
   24d04:	000013cc 	.word	0x000013cc
   24d08:	00001370 	.word	0x00001370
   24d0c:	4817      	ldr	r0, [pc, #92]	@ (24d6c <_start+0xc28>)
   24d0e:	4468      	add	r0, sp
   24d10:	78c1      	ldrb	r1, [r0, #3]
   24d12:	acde      	add	r4, sp, #888	@ 0x378
   24d14:	70a1      	strb	r1, [r4, #2]
   24d16:	7841      	ldrb	r1, [r0, #1]
   24d18:	7882      	ldrb	r2, [r0, #2]
   24d1a:	0212      	lsls	r2, r2, #8
   24d1c:	1851      	adds	r1, r2, r1
   24d1e:	8021      	strh	r1, [r4, #0]
   24d20:	3008      	adds	r0, #8
   24d22:	9905      	ldr	r1, [sp, #20]
   24d24:	6e09      	ldr	r1, [r1, #96]	@ 0x60
   24d26:	910b      	str	r1, [sp, #44]	@ 0x2c
   24d28:	4b11      	ldr	r3, [pc, #68]	@ (24d70 <_start+0xc2c>)
   24d2a:	446b      	add	r3, sp
   24d2c:	930c      	str	r3, [sp, #48]	@ 0x30
   24d2e:	c866      	ldmia	r0!, {r1, r2, r5, r6}
   24d30:	c366      	stmia	r3!, {r1, r2, r5, r6}
   24d32:	8801      	ldrh	r1, [r0, #0]
   24d34:	8019      	strh	r1, [r3, #0]
   24d36:	7880      	ldrb	r0, [r0, #2]
   24d38:	7098      	strb	r0, [r3, #2]
   24d3a:	990b      	ldr	r1, [sp, #44]	@ 0x2c
   24d3c:	0e08      	lsrs	r0, r1, #24
   24d3e:	71a0      	strb	r0, [r4, #6]
   24d40:	0c08      	lsrs	r0, r1, #16
   24d42:	7160      	strb	r0, [r4, #5]
   24d44:	0a08      	lsrs	r0, r1, #8
   24d46:	7120      	strb	r0, [r4, #4]
   24d48:	70e1      	strb	r1, [r4, #3]
   24d4a:	1de0      	adds	r0, r4, #7
   24d4c:	2213      	movs	r2, #19
   24d4e:	990c      	ldr	r1, [sp, #48]	@ 0x30
   24d50:	f002 f95b 	bl	2700a <__aeabi_memcpy>
   24d54:	4d05      	ldr	r5, [pc, #20]	@ (24d6c <_start+0xc28>)
   24d56:	446d      	add	r5, sp
   24d58:	4628      	mov	r0, r5
   24d5a:	4621      	mov	r1, r4
   24d5c:	f7fe ffee 	bl	23d3c <_ZN18complex_no_dynamic3app17hf4b09bbd1254ed21E>
   24d60:	7828      	ldrb	r0, [r5, #0]
   24d62:	2801      	cmp	r0, #1
   24d64:	d106      	bne.n	24d74 <_start+0xc30>
   24d66:	f001 ff49 	bl	26bfc <_start+0x2ab8>
   24d6a:	46c0      	nop			@ (mov r8, r8)
   24d6c:	000013cc 	.word	0x000013cc
   24d70:	00001370 	.word	0x00001370
   24d74:	4915      	ldr	r1, [pc, #84]	@ (24dcc <_start+0xc88>)
   24d76:	4469      	add	r1, sp
   24d78:	78c8      	ldrb	r0, [r1, #3]
   24d7a:	ace5      	add	r4, sp, #916	@ 0x394
   24d7c:	70a0      	strb	r0, [r4, #2]
   24d7e:	7848      	ldrb	r0, [r1, #1]
   24d80:	788a      	ldrb	r2, [r1, #2]
   24d82:	0212      	lsls	r2, r2, #8
   24d84:	1810      	adds	r0, r2, r0
   24d86:	8020      	strh	r0, [r4, #0]
   24d88:	9805      	ldr	r0, [sp, #20]
   24d8a:	6e05      	ldr	r5, [r0, #96]	@ 0x60
   24d8c:	3108      	adds	r1, #8
   24d8e:	4810      	ldr	r0, [pc, #64]	@ (24dd0 <_start+0xc8c>)
   24d90:	4468      	add	r0, sp
   24d92:	900c      	str	r0, [sp, #48]	@ 0x30
   24d94:	2649      	movs	r6, #73	@ 0x49
   24d96:	4632      	mov	r2, r6
   24d98:	f001 ffd7 	bl	26d4a <__aeabi_memcpy4>
   24d9c:	0e28      	lsrs	r0, r5, #24
   24d9e:	71a0      	strb	r0, [r4, #6]
   24da0:	0c28      	lsrs	r0, r5, #16
   24da2:	7160      	strb	r0, [r4, #5]
   24da4:	0a28      	lsrs	r0, r5, #8
   24da6:	7120      	strb	r0, [r4, #4]
   24da8:	70e5      	strb	r5, [r4, #3]
   24daa:	1de0      	adds	r0, r4, #7
   24dac:	990c      	ldr	r1, [sp, #48]	@ 0x30
   24dae:	4632      	mov	r2, r6
   24db0:	f002 f92b 	bl	2700a <__aeabi_memcpy>
   24db4:	4d05      	ldr	r5, [pc, #20]	@ (24dcc <_start+0xc88>)
   24db6:	446d      	add	r5, sp
   24db8:	4628      	mov	r0, r5
   24dba:	4621      	mov	r1, r4
   24dbc:	f7fb fecc 	bl	20b58 <_ZN18complex_no_dynamic3app17h31f374ac5a656a64E>
   24dc0:	7828      	ldrb	r0, [r5, #0]
   24dc2:	2801      	cmp	r0, #1
   24dc4:	d106      	bne.n	24dd4 <_start+0xc90>
   24dc6:	f001 ff19 	bl	26bfc <_start+0x2ab8>
   24dca:	46c0      	nop			@ (mov r8, r8)
   24dcc:	000013cc 	.word	0x000013cc
   24dd0:	00001370 	.word	0x00001370
   24dd4:	4819      	ldr	r0, [pc, #100]	@ (24e3c <_start+0xcf8>)
   24dd6:	4468      	add	r0, sp
   24dd8:	78c1      	ldrb	r1, [r0, #3]
   24dda:	acf9      	add	r4, sp, #996	@ 0x3e4
   24ddc:	70a1      	strb	r1, [r4, #2]
   24dde:	7841      	ldrb	r1, [r0, #1]
   24de0:	7882      	ldrb	r2, [r0, #2]
   24de2:	0212      	lsls	r2, r2, #8
   24de4:	1851      	adds	r1, r2, r1
   24de6:	8021      	strh	r1, [r4, #0]
   24de8:	3008      	adds	r0, #8
   24dea:	9905      	ldr	r1, [sp, #20]
   24dec:	6e09      	ldr	r1, [r1, #96]	@ 0x60
   24dee:	910b      	str	r1, [sp, #44]	@ 0x2c
   24df0:	4b13      	ldr	r3, [pc, #76]	@ (24e40 <_start+0xcfc>)
   24df2:	446b      	add	r3, sp
   24df4:	930c      	str	r3, [sp, #48]	@ 0x30
   24df6:	c864      	ldmia	r0!, {r2, r5, r6}
   24df8:	c364      	stmia	r3!, {r2, r5, r6}
   24dfa:	c864      	ldmia	r0!, {r2, r5, r6}
   24dfc:	c364      	stmia	r3!, {r2, r5, r6}
   24dfe:	c864      	ldmia	r0!, {r2, r5, r6}
   24e00:	c364      	stmia	r3!, {r2, r5, r6}
   24e02:	c866      	ldmia	r0!, {r1, r2, r5, r6}
   24e04:	c366      	stmia	r3!, {r1, r2, r5, r6}
   24e06:	7800      	ldrb	r0, [r0, #0]
   24e08:	7018      	strb	r0, [r3, #0]
   24e0a:	990b      	ldr	r1, [sp, #44]	@ 0x2c
   24e0c:	0e08      	lsrs	r0, r1, #24
   24e0e:	71a0      	strb	r0, [r4, #6]
   24e10:	0c08      	lsrs	r0, r1, #16
   24e12:	7160      	strb	r0, [r4, #5]
   24e14:	0a08      	lsrs	r0, r1, #8
   24e16:	7120      	strb	r0, [r4, #4]
   24e18:	70e1      	strb	r1, [r4, #3]
   24e1a:	1de0      	adds	r0, r4, #7
   24e1c:	2235      	movs	r2, #53	@ 0x35
   24e1e:	990c      	ldr	r1, [sp, #48]	@ 0x30
   24e20:	f002 f8f3 	bl	2700a <__aeabi_memcpy>
   24e24:	4d05      	ldr	r5, [pc, #20]	@ (24e3c <_start+0xcf8>)
   24e26:	446d      	add	r5, sp
   24e28:	4628      	mov	r0, r5
   24e2a:	4621      	mov	r1, r4
   24e2c:	f7fd fd94 	bl	22958 <_ZN18complex_no_dynamic3app17haa48fa852ed18ad5E>
   24e30:	7828      	ldrb	r0, [r5, #0]
   24e32:	2801      	cmp	r0, #1
   24e34:	d106      	bne.n	24e44 <_start+0xd00>
   24e36:	f001 fee1 	bl	26bfc <_start+0x2ab8>
   24e3a:	46c0      	nop			@ (mov r8, r8)
   24e3c:	000013cc 	.word	0x000013cc
   24e40:	00001370 	.word	0x00001370
   24e44:	4819      	ldr	r0, [pc, #100]	@ (24eac <_start+0xd68>)
   24e46:	4468      	add	r0, sp
   24e48:	78c1      	ldrb	r1, [r0, #3]
   24e4a:	acff      	add	r4, sp, #1020	@ 0x3fc
   24e4c:	3424      	adds	r4, #36	@ 0x24
   24e4e:	70a1      	strb	r1, [r4, #2]
   24e50:	7841      	ldrb	r1, [r0, #1]
   24e52:	7882      	ldrb	r2, [r0, #2]
   24e54:	0212      	lsls	r2, r2, #8
   24e56:	1851      	adds	r1, r2, r1
   24e58:	8021      	strh	r1, [r4, #0]
   24e5a:	3008      	adds	r0, #8
   24e5c:	9905      	ldr	r1, [sp, #20]
   24e5e:	6e09      	ldr	r1, [r1, #96]	@ 0x60
   24e60:	910b      	str	r1, [sp, #44]	@ 0x2c
   24e62:	4b13      	ldr	r3, [pc, #76]	@ (24eb0 <_start+0xd6c>)
   24e64:	446b      	add	r3, sp
   24e66:	930c      	str	r3, [sp, #48]	@ 0x30
   24e68:	c864      	ldmia	r0!, {r2, r5, r6}
   24e6a:	c364      	stmia	r3!, {r2, r5, r6}
   24e6c:	c864      	ldmia	r0!, {r2, r5, r6}
   24e6e:	c364      	stmia	r3!, {r2, r5, r6}
   24e70:	c866      	ldmia	r0!, {r1, r2, r5, r6}
   24e72:	c366      	stmia	r3!, {r1, r2, r5, r6}
   24e74:	8801      	ldrh	r1, [r0, #0]
   24e76:	8019      	strh	r1, [r3, #0]
   24e78:	7880      	ldrb	r0, [r0, #2]
   24e7a:	7098      	strb	r0, [r3, #2]
   24e7c:	990b      	ldr	r1, [sp, #44]	@ 0x2c
   24e7e:	0e08      	lsrs	r0, r1, #24
   24e80:	71a0      	strb	r0, [r4, #6]
   24e82:	0c08      	lsrs	r0, r1, #16
   24e84:	7160      	strb	r0, [r4, #5]
   24e86:	0a08      	lsrs	r0, r1, #8
   24e88:	7120      	strb	r0, [r4, #4]
   24e8a:	70e1      	strb	r1, [r4, #3]
   24e8c:	1de0      	adds	r0, r4, #7
   24e8e:	222b      	movs	r2, #43	@ 0x2b
   24e90:	990c      	ldr	r1, [sp, #48]	@ 0x30
   24e92:	f002 f8ba 	bl	2700a <__aeabi_memcpy>
   24e96:	4d05      	ldr	r5, [pc, #20]	@ (24eac <_start+0xd68>)
   24e98:	446d      	add	r5, sp
   24e9a:	4628      	mov	r0, r5
   24e9c:	4621      	mov	r1, r4
   24e9e:	f7fd fa59 	bl	22354 <_ZN18complex_no_dynamic3app17h9f6ea8d6efa73117E>
   24ea2:	7828      	ldrb	r0, [r5, #0]
   24ea4:	2801      	cmp	r0, #1
   24ea6:	d105      	bne.n	24eb4 <_start+0xd70>
   24ea8:	f001 fea8 	bl	26bfc <_start+0x2ab8>
   24eac:	000013cc 	.word	0x000013cc
   24eb0:	00001370 	.word	0x00001370
   24eb4:	4819      	ldr	r0, [pc, #100]	@ (24f1c <_start+0xdd8>)
   24eb6:	4468      	add	r0, sp
   24eb8:	78c1      	ldrb	r1, [r0, #3]
   24eba:	acff      	add	r4, sp, #1020	@ 0x3fc
   24ebc:	3458      	adds	r4, #88	@ 0x58
   24ebe:	70a1      	strb	r1, [r4, #2]
   24ec0:	7841      	ldrb	r1, [r0, #1]
   24ec2:	7882      	ldrb	r2, [r0, #2]
   24ec4:	0212      	lsls	r2, r2, #8
   24ec6:	1851      	adds	r1, r2, r1
   24ec8:	8021      	strh	r1, [r4, #0]
   24eca:	3008      	adds	r0, #8
   24ecc:	9905      	ldr	r1, [sp, #20]
   24ece:	6e09      	ldr	r1, [r1, #96]	@ 0x60
   24ed0:	910b      	str	r1, [sp, #44]	@ 0x2c
   24ed2:	4b13      	ldr	r3, [pc, #76]	@ (24f20 <_start+0xddc>)
   24ed4:	446b      	add	r3, sp
   24ed6:	930c      	str	r3, [sp, #48]	@ 0x30
   24ed8:	c864      	ldmia	r0!, {r2, r5, r6}
   24eda:	c364      	stmia	r3!, {r2, r5, r6}
   24edc:	c864      	ldmia	r0!, {r2, r5, r6}
   24ede:	c364      	stmia	r3!, {r2, r5, r6}
   24ee0:	c866      	ldmia	r0!, {r1, r2, r5, r6}
   24ee2:	c366      	stmia	r3!, {r1, r2, r5, r6}
   24ee4:	8801      	ldrh	r1, [r0, #0]
   24ee6:	8019      	strh	r1, [r3, #0]
   24ee8:	7880      	ldrb	r0, [r0, #2]
   24eea:	7098      	strb	r0, [r3, #2]
   24eec:	990b      	ldr	r1, [sp, #44]	@ 0x2c
   24eee:	0e08      	lsrs	r0, r1, #24
   24ef0:	71a0      	strb	r0, [r4, #6]
   24ef2:	0c08      	lsrs	r0, r1, #16
   24ef4:	7160      	strb	r0, [r4, #5]
   24ef6:	0a08      	lsrs	r0, r1, #8
   24ef8:	7120      	strb	r0, [r4, #4]
   24efa:	70e1      	strb	r1, [r4, #3]
   24efc:	1de0      	adds	r0, r4, #7
   24efe:	222b      	movs	r2, #43	@ 0x2b
   24f00:	990c      	ldr	r1, [sp, #48]	@ 0x30
   24f02:	f002 f882 	bl	2700a <__aeabi_memcpy>
   24f06:	4d05      	ldr	r5, [pc, #20]	@ (24f1c <_start+0xdd8>)
   24f08:	446d      	add	r5, sp
   24f0a:	4628      	mov	r0, r5
   24f0c:	4621      	mov	r1, r4
   24f0e:	f7fe fb95 	bl	2363c <_ZN18complex_no_dynamic3app17hd8cea8ee395f3d37E>
   24f12:	7828      	ldrb	r0, [r5, #0]
   24f14:	2801      	cmp	r0, #1
   24f16:	d105      	bne.n	24f24 <_start+0xde0>
   24f18:	f001 fe70 	bl	26bfc <_start+0x2ab8>
   24f1c:	000013cc 	.word	0x000013cc
   24f20:	00001370 	.word	0x00001370
   24f24:	4914      	ldr	r1, [pc, #80]	@ (24f78 <_start+0xe34>)
   24f26:	4469      	add	r1, sp
   24f28:	9b05      	ldr	r3, [sp, #20]
   24f2a:	6ed8      	ldr	r0, [r3, #108]	@ 0x6c
   24f2c:	7208      	strb	r0, [r1, #8]
   24f2e:	4813      	ldr	r0, [pc, #76]	@ (24f7c <_start+0xe38>)
   24f30:	4468      	add	r0, sp
   24f32:	78c2      	ldrb	r2, [r0, #3]
   24f34:	acff      	add	r4, sp, #1020	@ 0x3fc
   24f36:	348c      	adds	r4, #140	@ 0x8c
   24f38:	70a2      	strb	r2, [r4, #2]
   24f3a:	7842      	ldrb	r2, [r0, #1]
   24f3c:	7880      	ldrb	r0, [r0, #2]
   24f3e:	0200      	lsls	r0, r0, #8
   24f40:	1880      	adds	r0, r0, r2
   24f42:	8020      	strh	r0, [r4, #0]
   24f44:	6e18      	ldr	r0, [r3, #96]	@ 0x60
   24f46:	70e0      	strb	r0, [r4, #3]
   24f48:	0e02      	lsrs	r2, r0, #24
   24f4a:	71a2      	strb	r2, [r4, #6]
   24f4c:	0c02      	lsrs	r2, r0, #16
   24f4e:	7162      	strb	r2, [r4, #5]
   24f50:	0a00      	lsrs	r0, r0, #8
   24f52:	7120      	strb	r0, [r4, #4]
   24f54:	6e58      	ldr	r0, [r3, #100]	@ 0x64
   24f56:	6e9a      	ldr	r2, [r3, #104]	@ 0x68
   24f58:	c305      	stmia	r3!, {r0, r2}
   24f5a:	1de0      	adds	r0, r4, #7
   24f5c:	2209      	movs	r2, #9
   24f5e:	f002 f854 	bl	2700a <__aeabi_memcpy>
   24f62:	4d06      	ldr	r5, [pc, #24]	@ (24f7c <_start+0xe38>)
   24f64:	446d      	add	r5, sp
   24f66:	4628      	mov	r0, r5
   24f68:	4621      	mov	r1, r4
   24f6a:	f7fb f9bf 	bl	202ec <_ZN18complex_no_dynamic3app17h129aa851248c9e7cE>
   24f6e:	7828      	ldrb	r0, [r5, #0]
   24f70:	2801      	cmp	r0, #1
   24f72:	d105      	bne.n	24f80 <_start+0xe3c>
   24f74:	f001 fe42 	bl	26bfc <_start+0x2ab8>
   24f78:	00001370 	.word	0x00001370
   24f7c:	000013cc 	.word	0x000013cc
   24f80:	4819      	ldr	r0, [pc, #100]	@ (24fe8 <_start+0xea4>)
   24f82:	4468      	add	r0, sp
   24f84:	78c1      	ldrb	r1, [r0, #3]
   24f86:	acff      	add	r4, sp, #1020	@ 0x3fc
   24f88:	349c      	adds	r4, #156	@ 0x9c
   24f8a:	70a1      	strb	r1, [r4, #2]
   24f8c:	7841      	ldrb	r1, [r0, #1]
   24f8e:	7882      	ldrb	r2, [r0, #2]
   24f90:	0212      	lsls	r2, r2, #8
   24f92:	1851      	adds	r1, r2, r1
   24f94:	8021      	strh	r1, [r4, #0]
   24f96:	3008      	adds	r0, #8
   24f98:	9905      	ldr	r1, [sp, #20]
   24f9a:	6e09      	ldr	r1, [r1, #96]	@ 0x60
   24f9c:	910b      	str	r1, [sp, #44]	@ 0x2c
   24f9e:	4b13      	ldr	r3, [pc, #76]	@ (24fec <_start+0xea8>)
   24fa0:	446b      	add	r3, sp
   24fa2:	930c      	str	r3, [sp, #48]	@ 0x30
   24fa4:	c864      	ldmia	r0!, {r2, r5, r6}
   24fa6:	c364      	stmia	r3!, {r2, r5, r6}
   24fa8:	c866      	ldmia	r0!, {r1, r2, r5, r6}
   24faa:	c366      	stmia	r3!, {r1, r2, r5, r6}
   24fac:	c866      	ldmia	r0!, {r1, r2, r5, r6}
   24fae:	c366      	stmia	r3!, {r1, r2, r5, r6}
   24fb0:	8801      	ldrh	r1, [r0, #0]
   24fb2:	8019      	strh	r1, [r3, #0]
   24fb4:	7880      	ldrb	r0, [r0, #2]
   24fb6:	7098      	strb	r0, [r3, #2]
   24fb8:	990b      	ldr	r1, [sp, #44]	@ 0x2c
   24fba:	0e08      	lsrs	r0, r1, #24
   24fbc:	71a0      	strb	r0, [r4, #6]
   24fbe:	0c08      	lsrs	r0, r1, #16
   24fc0:	7160      	strb	r0, [r4, #5]
   24fc2:	0a08      	lsrs	r0, r1, #8
   24fc4:	7120      	strb	r0, [r4, #4]
   24fc6:	70e1      	strb	r1, [r4, #3]
   24fc8:	1de0      	adds	r0, r4, #7
   24fca:	222f      	movs	r2, #47	@ 0x2f
   24fcc:	990c      	ldr	r1, [sp, #48]	@ 0x30
   24fce:	f002 f81c 	bl	2700a <__aeabi_memcpy>
   24fd2:	4d05      	ldr	r5, [pc, #20]	@ (24fe8 <_start+0xea4>)
   24fd4:	446d      	add	r5, sp
   24fd6:	4628      	mov	r0, r5
   24fd8:	4621      	mov	r1, r4
   24fda:	f7fe fc87 	bl	238ec <_ZN18complex_no_dynamic3app17he2b42cf955791704E>
   24fde:	7828      	ldrb	r0, [r5, #0]
   24fe0:	2801      	cmp	r0, #1
   24fe2:	d105      	bne.n	24ff0 <_start+0xeac>
   24fe4:	f001 fe0a 	bl	26bfc <_start+0x2ab8>
   24fe8:	000013cc 	.word	0x000013cc
   24fec:	00001370 	.word	0x00001370
   24ff0:	9803      	ldr	r0, [sp, #12]
   24ff2:	1cc0      	adds	r0, r0, #3
   24ff4:	4a16      	ldr	r2, [pc, #88]	@ (25050 <_start+0xf0c>)
   24ff6:	446a      	add	r2, sp
   24ff8:	78d3      	ldrb	r3, [r2, #3]
   24ffa:	a9ff      	add	r1, sp, #1020	@ 0x3fc
   24ffc:	31d4      	adds	r1, #212	@ 0xd4
   24ffe:	708b      	strb	r3, [r1, #2]
   25000:	7853      	ldrb	r3, [r2, #1]
   25002:	7892      	ldrb	r2, [r2, #2]
   25004:	0212      	lsls	r2, r2, #8
   25006:	18d2      	adds	r2, r2, r3
   25008:	800a      	strh	r2, [r1, #0]
   2500a:	9c05      	ldr	r4, [sp, #20]
   2500c:	3460      	adds	r4, #96	@ 0x60
   2500e:	cc1c      	ldmia	r4, {r2, r3, r4}
   25010:	0e25      	lsrs	r5, r4, #24
   25012:	72c5      	strb	r5, [r0, #11]
   25014:	0c25      	lsrs	r5, r4, #16
   25016:	7285      	strb	r5, [r0, #10]
   25018:	0a25      	lsrs	r5, r4, #8
   2501a:	7245      	strb	r5, [r0, #9]
   2501c:	7204      	strb	r4, [r0, #8]
   2501e:	0e1c      	lsrs	r4, r3, #24
   25020:	71c4      	strb	r4, [r0, #7]
   25022:	0c1c      	lsrs	r4, r3, #16
   25024:	7184      	strb	r4, [r0, #6]
   25026:	0a1c      	lsrs	r4, r3, #8
   25028:	7144      	strb	r4, [r0, #5]
   2502a:	7103      	strb	r3, [r0, #4]
   2502c:	0e13      	lsrs	r3, r2, #24
   2502e:	70c3      	strb	r3, [r0, #3]
   25030:	0c13      	lsrs	r3, r2, #16
   25032:	7083      	strb	r3, [r0, #2]
   25034:	0a13      	lsrs	r3, r2, #8
   25036:	7043      	strb	r3, [r0, #1]
   25038:	7002      	strb	r2, [r0, #0]
   2503a:	4c05      	ldr	r4, [pc, #20]	@ (25050 <_start+0xf0c>)
   2503c:	446c      	add	r4, sp
   2503e:	4620      	mov	r0, r4
   25040:	f7fe f89e 	bl	23180 <_ZN18complex_no_dynamic3app17hba669f75f893625eE>
   25044:	7820      	ldrb	r0, [r4, #0]
   25046:	2801      	cmp	r0, #1
   25048:	d104      	bne.n	25054 <_start+0xf10>
   2504a:	f001 fdd7 	bl	26bfc <_start+0x2ab8>
   2504e:	46c0      	nop			@ (mov r8, r8)
   25050:	000013cc 	.word	0x000013cc
   25054:	4813      	ldr	r0, [pc, #76]	@ (250a4 <_start+0xf60>)
   25056:	4468      	add	r0, sp
   25058:	78c1      	ldrb	r1, [r0, #3]
   2505a:	acff      	add	r4, sp, #1020	@ 0x3fc
   2505c:	34e4      	adds	r4, #228	@ 0xe4
   2505e:	70a1      	strb	r1, [r4, #2]
   25060:	7841      	ldrb	r1, [r0, #1]
   25062:	7880      	ldrb	r0, [r0, #2]
   25064:	0200      	lsls	r0, r0, #8
   25066:	1840      	adds	r0, r0, r1
   25068:	8020      	strh	r0, [r4, #0]
   2506a:	9e05      	ldr	r6, [sp, #20]
   2506c:	4633      	mov	r3, r6
   2506e:	3360      	adds	r3, #96	@ 0x60
   25070:	cb0f      	ldmia	r3, {r0, r1, r2, r3}
   25072:	70e0      	strb	r0, [r4, #3]
   25074:	0e05      	lsrs	r5, r0, #24
   25076:	71a5      	strb	r5, [r4, #6]
   25078:	0c05      	lsrs	r5, r0, #16
   2507a:	7165      	strb	r5, [r4, #5]
   2507c:	0a00      	lsrs	r0, r0, #8
   2507e:	7120      	strb	r0, [r4, #4]
   25080:	c60e      	stmia	r6!, {r1, r2, r3}
   25082:	1de0      	adds	r0, r4, #7
   25084:	4908      	ldr	r1, [pc, #32]	@ (250a8 <_start+0xf64>)
   25086:	4469      	add	r1, sp
   25088:	220c      	movs	r2, #12
   2508a:	f001 ffbe 	bl	2700a <__aeabi_memcpy>
   2508e:	4d05      	ldr	r5, [pc, #20]	@ (250a4 <_start+0xf60>)
   25090:	446d      	add	r5, sp
   25092:	4628      	mov	r0, r5
   25094:	4621      	mov	r1, r4
   25096:	f7fc ff3b 	bl	21f10 <_ZN18complex_no_dynamic3app17h92d33f7b5b624d6cE>
   2509a:	7828      	ldrb	r0, [r5, #0]
   2509c:	2801      	cmp	r0, #1
   2509e:	d105      	bne.n	250ac <_start+0xf68>
   250a0:	f001 fdac 	bl	26bfc <_start+0x2ab8>
   250a4:	000013cc 	.word	0x000013cc
   250a8:	00001370 	.word	0x00001370
   250ac:	4915      	ldr	r1, [pc, #84]	@ (25104 <_start+0xfc0>)
   250ae:	4469      	add	r1, sp
   250b0:	78c8      	ldrb	r0, [r1, #3]
   250b2:	acff      	add	r4, sp, #1020	@ 0x3fc
   250b4:	34f8      	adds	r4, #248	@ 0xf8
   250b6:	70a0      	strb	r0, [r4, #2]
   250b8:	7848      	ldrb	r0, [r1, #1]
   250ba:	788a      	ldrb	r2, [r1, #2]
   250bc:	0212      	lsls	r2, r2, #8
   250be:	1810      	adds	r0, r2, r0
   250c0:	8020      	strh	r0, [r4, #0]
   250c2:	9805      	ldr	r0, [sp, #20]
   250c4:	6e05      	ldr	r5, [r0, #96]	@ 0x60
   250c6:	3108      	adds	r1, #8
   250c8:	480f      	ldr	r0, [pc, #60]	@ (25108 <_start+0xfc4>)
   250ca:	4468      	add	r0, sp
   250cc:	900c      	str	r0, [sp, #48]	@ 0x30
   250ce:	264e      	movs	r6, #78	@ 0x4e
   250d0:	4632      	mov	r2, r6
   250d2:	f001 fe3a 	bl	26d4a <__aeabi_memcpy4>
   250d6:	0e28      	lsrs	r0, r5, #24
   250d8:	71a0      	strb	r0, [r4, #6]
   250da:	0c28      	lsrs	r0, r5, #16
   250dc:	7160      	strb	r0, [r4, #5]
   250de:	0a28      	lsrs	r0, r5, #8
   250e0:	7120      	strb	r0, [r4, #4]
   250e2:	70e5      	strb	r5, [r4, #3]
   250e4:	1de0      	adds	r0, r4, #7
   250e6:	990c      	ldr	r1, [sp, #48]	@ 0x30
   250e8:	4632      	mov	r2, r6
   250ea:	f001 ff8e 	bl	2700a <__aeabi_memcpy>
   250ee:	4d05      	ldr	r5, [pc, #20]	@ (25104 <_start+0xfc0>)
   250f0:	446d      	add	r5, sp
   250f2:	4628      	mov	r0, r5
   250f4:	4621      	mov	r1, r4
   250f6:	f7fd fa2d 	bl	22554 <_ZN18complex_no_dynamic3app17ha2842a667577adf7E>
   250fa:	7828      	ldrb	r0, [r5, #0]
   250fc:	2801      	cmp	r0, #1
   250fe:	d105      	bne.n	2510c <_start+0xfc8>
   25100:	f001 fd7c 	bl	26bfc <_start+0x2ab8>
   25104:	000013cc 	.word	0x000013cc
   25108:	00001370 	.word	0x00001370
   2510c:	4819      	ldr	r0, [pc, #100]	@ (25174 <_start+0x1030>)
   2510e:	4468      	add	r0, sp
   25110:	78c1      	ldrb	r1, [r0, #3]
   25112:	4c19      	ldr	r4, [pc, #100]	@ (25178 <_start+0x1034>)
   25114:	446c      	add	r4, sp
   25116:	70a1      	strb	r1, [r4, #2]
   25118:	7841      	ldrb	r1, [r0, #1]
   2511a:	7882      	ldrb	r2, [r0, #2]
   2511c:	0212      	lsls	r2, r2, #8
   2511e:	1851      	adds	r1, r2, r1
   25120:	8021      	strh	r1, [r4, #0]
   25122:	3008      	adds	r0, #8
   25124:	9905      	ldr	r1, [sp, #20]
   25126:	6e09      	ldr	r1, [r1, #96]	@ 0x60
   25128:	910b      	str	r1, [sp, #44]	@ 0x2c
   2512a:	4b14      	ldr	r3, [pc, #80]	@ (2517c <_start+0x1038>)
   2512c:	446b      	add	r3, sp
   2512e:	930c      	str	r3, [sp, #48]	@ 0x30
   25130:	c864      	ldmia	r0!, {r2, r5, r6}
   25132:	c364      	stmia	r3!, {r2, r5, r6}
   25134:	c864      	ldmia	r0!, {r2, r5, r6}
   25136:	c364      	stmia	r3!, {r2, r5, r6}
   25138:	c866      	ldmia	r0!, {r1, r2, r5, r6}
   2513a:	c366      	stmia	r3!, {r1, r2, r5, r6}
   2513c:	8801      	ldrh	r1, [r0, #0]
   2513e:	8019      	strh	r1, [r3, #0]
   25140:	7880      	ldrb	r0, [r0, #2]
   25142:	7098      	strb	r0, [r3, #2]
   25144:	990b      	ldr	r1, [sp, #44]	@ 0x2c
   25146:	0e08      	lsrs	r0, r1, #24
   25148:	71a0      	strb	r0, [r4, #6]
   2514a:	0c08      	lsrs	r0, r1, #16
   2514c:	7160      	strb	r0, [r4, #5]
   2514e:	0a08      	lsrs	r0, r1, #8
   25150:	7120      	strb	r0, [r4, #4]
   25152:	70e1      	strb	r1, [r4, #3]
   25154:	1de0      	adds	r0, r4, #7
   25156:	222b      	movs	r2, #43	@ 0x2b
   25158:	990c      	ldr	r1, [sp, #48]	@ 0x30
   2515a:	f001 ff56 	bl	2700a <__aeabi_memcpy>
   2515e:	4d05      	ldr	r5, [pc, #20]	@ (25174 <_start+0x1030>)
   25160:	446d      	add	r5, sp
   25162:	4628      	mov	r0, r5
   25164:	4621      	mov	r1, r4
   25166:	f7fb ffad 	bl	210c4 <_ZN18complex_no_dynamic3app17h4a4a7b799a1c19c4E>
   2516a:	7828      	ldrb	r0, [r5, #0]
   2516c:	2801      	cmp	r0, #1
   2516e:	d107      	bne.n	25180 <_start+0x103c>
   25170:	f001 fd44 	bl	26bfc <_start+0x2ab8>
   25174:	000013cc 	.word	0x000013cc
   25178:	0000054c 	.word	0x0000054c
   2517c:	00001370 	.word	0x00001370
   25180:	4819      	ldr	r0, [pc, #100]	@ (251e8 <_start+0x10a4>)
   25182:	4468      	add	r0, sp
   25184:	78c1      	ldrb	r1, [r0, #3]
   25186:	4c19      	ldr	r4, [pc, #100]	@ (251ec <_start+0x10a8>)
   25188:	446c      	add	r4, sp
   2518a:	70a1      	strb	r1, [r4, #2]
   2518c:	7841      	ldrb	r1, [r0, #1]
   2518e:	7882      	ldrb	r2, [r0, #2]
   25190:	0212      	lsls	r2, r2, #8
   25192:	1851      	adds	r1, r2, r1
   25194:	8021      	strh	r1, [r4, #0]
   25196:	3008      	adds	r0, #8
   25198:	9905      	ldr	r1, [sp, #20]
   2519a:	6e09      	ldr	r1, [r1, #96]	@ 0x60
   2519c:	910b      	str	r1, [sp, #44]	@ 0x2c
   2519e:	4b14      	ldr	r3, [pc, #80]	@ (251f0 <_start+0x10ac>)
   251a0:	446b      	add	r3, sp
   251a2:	930c      	str	r3, [sp, #48]	@ 0x30
   251a4:	c864      	ldmia	r0!, {r2, r5, r6}
   251a6:	c364      	stmia	r3!, {r2, r5, r6}
   251a8:	c866      	ldmia	r0!, {r1, r2, r5, r6}
   251aa:	c366      	stmia	r3!, {r1, r2, r5, r6}
   251ac:	c826      	ldmia	r0!, {r1, r2, r5}
   251ae:	c326      	stmia	r3!, {r1, r2, r5}
   251b0:	c866      	ldmia	r0!, {r1, r2, r5, r6}
   251b2:	c366      	stmia	r3!, {r1, r2, r5, r6}
   251b4:	8800      	ldrh	r0, [r0, #0]
   251b6:	8018      	strh	r0, [r3, #0]
   251b8:	990b      	ldr	r1, [sp, #44]	@ 0x2c
   251ba:	0e08      	lsrs	r0, r1, #24
   251bc:	71a0      	strb	r0, [r4, #6]
   251be:	0c08      	lsrs	r0, r1, #16
   251c0:	7160      	strb	r0, [r4, #5]
   251c2:	0a08      	lsrs	r0, r1, #8
   251c4:	7120      	strb	r0, [r4, #4]
   251c6:	70e1      	strb	r1, [r4, #3]
   251c8:	1de0      	adds	r0, r4, #7
   251ca:	223a      	movs	r2, #58	@ 0x3a
   251cc:	990c      	ldr	r1, [sp, #48]	@ 0x30
   251ce:	f001 ff1c 	bl	2700a <__aeabi_memcpy>
   251d2:	4d05      	ldr	r5, [pc, #20]	@ (251e8 <_start+0x10a4>)
   251d4:	446d      	add	r5, sp
   251d6:	4628      	mov	r0, r5
   251d8:	4621      	mov	r1, r4
   251da:	f7fb fa07 	bl	205ec <_ZN18complex_no_dynamic3app17h2100128647de8b5fE>
   251de:	7828      	ldrb	r0, [r5, #0]
   251e0:	2801      	cmp	r0, #1
   251e2:	d107      	bne.n	251f4 <_start+0x10b0>
   251e4:	f001 fd0a 	bl	26bfc <_start+0x2ab8>
   251e8:	000013cc 	.word	0x000013cc
   251ec:	00000580 	.word	0x00000580
   251f0:	00001370 	.word	0x00001370
   251f4:	4817      	ldr	r0, [pc, #92]	@ (25254 <_start+0x1110>)
   251f6:	4468      	add	r0, sp
   251f8:	78c1      	ldrb	r1, [r0, #3]
   251fa:	4c17      	ldr	r4, [pc, #92]	@ (25258 <_start+0x1114>)
   251fc:	446c      	add	r4, sp
   251fe:	70a1      	strb	r1, [r4, #2]
   25200:	7841      	ldrb	r1, [r0, #1]
   25202:	7882      	ldrb	r2, [r0, #2]
   25204:	0212      	lsls	r2, r2, #8
   25206:	1851      	adds	r1, r2, r1
   25208:	8021      	strh	r1, [r4, #0]
   2520a:	3008      	adds	r0, #8
   2520c:	9905      	ldr	r1, [sp, #20]
   2520e:	6e09      	ldr	r1, [r1, #96]	@ 0x60
   25210:	4b12      	ldr	r3, [pc, #72]	@ (2525c <_start+0x1118>)
   25212:	446b      	add	r3, sp
   25214:	930c      	str	r3, [sp, #48]	@ 0x30
   25216:	c864      	ldmia	r0!, {r2, r5, r6}
   25218:	c364      	stmia	r3!, {r2, r5, r6}
   2521a:	c864      	ldmia	r0!, {r2, r5, r6}
   2521c:	c364      	stmia	r3!, {r2, r5, r6}
   2521e:	8802      	ldrh	r2, [r0, #0]
   25220:	801a      	strh	r2, [r3, #0]
   25222:	7880      	ldrb	r0, [r0, #2]
   25224:	7098      	strb	r0, [r3, #2]
   25226:	0e08      	lsrs	r0, r1, #24
   25228:	71a0      	strb	r0, [r4, #6]
   2522a:	0c08      	lsrs	r0, r1, #16
   2522c:	7160      	strb	r0, [r4, #5]
   2522e:	0a08      	lsrs	r0, r1, #8
   25230:	7120      	strb	r0, [r4, #4]
   25232:	70e1      	strb	r1, [r4, #3]
   25234:	1de0      	adds	r0, r4, #7
   25236:	221b      	movs	r2, #27
   25238:	990c      	ldr	r1, [sp, #48]	@ 0x30
   2523a:	f001 fee6 	bl	2700a <__aeabi_memcpy>
   2523e:	4d05      	ldr	r5, [pc, #20]	@ (25254 <_start+0x1110>)
   25240:	446d      	add	r5, sp
   25242:	4628      	mov	r0, r5
   25244:	4621      	mov	r1, r4
   25246:	f7fb fee7 	bl	21018 <_ZN18complex_no_dynamic3app17h4862691a35e78b0aE>
   2524a:	7828      	ldrb	r0, [r5, #0]
   2524c:	2801      	cmp	r0, #1
   2524e:	d107      	bne.n	25260 <_start+0x111c>
   25250:	f001 fcd4 	bl	26bfc <_start+0x2ab8>
   25254:	000013cc 	.word	0x000013cc
   25258:	000005c4 	.word	0x000005c4
   2525c:	00001370 	.word	0x00001370
   25260:	4915      	ldr	r1, [pc, #84]	@ (252b8 <_start+0x1174>)
   25262:	4469      	add	r1, sp
   25264:	78c8      	ldrb	r0, [r1, #3]
   25266:	4c15      	ldr	r4, [pc, #84]	@ (252bc <_start+0x1178>)
   25268:	446c      	add	r4, sp
   2526a:	70a0      	strb	r0, [r4, #2]
   2526c:	7848      	ldrb	r0, [r1, #1]
   2526e:	788a      	ldrb	r2, [r1, #2]
   25270:	0212      	lsls	r2, r2, #8
   25272:	1810      	adds	r0, r2, r0
   25274:	8020      	strh	r0, [r4, #0]
   25276:	9805      	ldr	r0, [sp, #20]
   25278:	6e05      	ldr	r5, [r0, #96]	@ 0x60
   2527a:	3108      	adds	r1, #8
   2527c:	4810      	ldr	r0, [pc, #64]	@ (252c0 <_start+0x117c>)
   2527e:	4468      	add	r0, sp
   25280:	900c      	str	r0, [sp, #48]	@ 0x30
   25282:	264a      	movs	r6, #74	@ 0x4a
   25284:	4632      	mov	r2, r6
   25286:	f001 fd60 	bl	26d4a <__aeabi_memcpy4>
   2528a:	0e28      	lsrs	r0, r5, #24
   2528c:	71a0      	strb	r0, [r4, #6]
   2528e:	0c28      	lsrs	r0, r5, #16
   25290:	7160      	strb	r0, [r4, #5]
   25292:	0a28      	lsrs	r0, r5, #8
   25294:	7120      	strb	r0, [r4, #4]
   25296:	70e5      	strb	r5, [r4, #3]
   25298:	1de0      	adds	r0, r4, #7
   2529a:	990c      	ldr	r1, [sp, #48]	@ 0x30
   2529c:	4632      	mov	r2, r6
   2529e:	f001 feb4 	bl	2700a <__aeabi_memcpy>
   252a2:	4d05      	ldr	r5, [pc, #20]	@ (252b8 <_start+0x1174>)
   252a4:	446d      	add	r5, sp
   252a6:	4628      	mov	r0, r5
   252a8:	4621      	mov	r1, r4
   252aa:	f7fe f915 	bl	234d8 <_ZN18complex_no_dynamic3app17hd186896003ec9fe1E>
   252ae:	7828      	ldrb	r0, [r5, #0]
   252b0:	2801      	cmp	r0, #1
   252b2:	d107      	bne.n	252c4 <_start+0x1180>
   252b4:	f001 fca2 	bl	26bfc <_start+0x2ab8>
   252b8:	000013cc 	.word	0x000013cc
   252bc:	000005e8 	.word	0x000005e8
   252c0:	00001370 	.word	0x00001370
   252c4:	4915      	ldr	r1, [pc, #84]	@ (2531c <_start+0x11d8>)
   252c6:	4469      	add	r1, sp
   252c8:	78c8      	ldrb	r0, [r1, #3]
   252ca:	4c15      	ldr	r4, [pc, #84]	@ (25320 <_start+0x11dc>)
   252cc:	446c      	add	r4, sp
   252ce:	70a0      	strb	r0, [r4, #2]
   252d0:	7848      	ldrb	r0, [r1, #1]
   252d2:	788a      	ldrb	r2, [r1, #2]
   252d4:	0212      	lsls	r2, r2, #8
   252d6:	1810      	adds	r0, r2, r0
   252d8:	8020      	strh	r0, [r4, #0]
   252da:	9805      	ldr	r0, [sp, #20]
   252dc:	6e05      	ldr	r5, [r0, #96]	@ 0x60
   252de:	3108      	adds	r1, #8
   252e0:	4810      	ldr	r0, [pc, #64]	@ (25324 <_start+0x11e0>)
   252e2:	4468      	add	r0, sp
   252e4:	900c      	str	r0, [sp, #48]	@ 0x30
   252e6:	2648      	movs	r6, #72	@ 0x48
   252e8:	4632      	mov	r2, r6
   252ea:	f001 fd2e 	bl	26d4a <__aeabi_memcpy4>
   252ee:	0e28      	lsrs	r0, r5, #24
   252f0:	71a0      	strb	r0, [r4, #6]
   252f2:	0c28      	lsrs	r0, r5, #16
   252f4:	7160      	strb	r0, [r4, #5]
   252f6:	0a28      	lsrs	r0, r5, #8
   252f8:	7120      	strb	r0, [r4, #4]
   252fa:	70e5      	strb	r5, [r4, #3]
   252fc:	1de0      	adds	r0, r4, #7
   252fe:	990c      	ldr	r1, [sp, #48]	@ 0x30
   25300:	4632      	mov	r2, r6
   25302:	f001 fe82 	bl	2700a <__aeabi_memcpy>
   25306:	4d05      	ldr	r5, [pc, #20]	@ (2531c <_start+0x11d8>)
   25308:	446d      	add	r5, sp
   2530a:	4628      	mov	r0, r5
   2530c:	4621      	mov	r1, r4
   2530e:	f7fe fcbf 	bl	23c90 <_ZN18complex_no_dynamic3app17hea2adfe13a1a9780E>
   25312:	7828      	ldrb	r0, [r5, #0]
   25314:	2801      	cmp	r0, #1
   25316:	d107      	bne.n	25328 <_start+0x11e4>
   25318:	f001 fc70 	bl	26bfc <_start+0x2ab8>
   2531c:	000013cc 	.word	0x000013cc
   25320:	0000063c 	.word	0x0000063c
   25324:	00001370 	.word	0x00001370
   25328:	4818      	ldr	r0, [pc, #96]	@ (2538c <_start+0x1248>)
   2532a:	4468      	add	r0, sp
   2532c:	78c1      	ldrb	r1, [r0, #3]
   2532e:	4c18      	ldr	r4, [pc, #96]	@ (25390 <_start+0x124c>)
   25330:	446c      	add	r4, sp
   25332:	70a1      	strb	r1, [r4, #2]
   25334:	7841      	ldrb	r1, [r0, #1]
   25336:	7882      	ldrb	r2, [r0, #2]
   25338:	0212      	lsls	r2, r2, #8
   2533a:	1851      	adds	r1, r2, r1
   2533c:	8021      	strh	r1, [r4, #0]
   2533e:	3008      	adds	r0, #8
   25340:	9905      	ldr	r1, [sp, #20]
   25342:	6e09      	ldr	r1, [r1, #96]	@ 0x60
   25344:	910b      	str	r1, [sp, #44]	@ 0x2c
   25346:	4b13      	ldr	r3, [pc, #76]	@ (25394 <_start+0x1250>)
   25348:	446b      	add	r3, sp
   2534a:	930c      	str	r3, [sp, #48]	@ 0x30
   2534c:	c864      	ldmia	r0!, {r2, r5, r6}
   2534e:	c364      	stmia	r3!, {r2, r5, r6}
   25350:	c864      	ldmia	r0!, {r2, r5, r6}
   25352:	c364      	stmia	r3!, {r2, r5, r6}
   25354:	c864      	ldmia	r0!, {r2, r5, r6}
   25356:	c364      	stmia	r3!, {r2, r5, r6}
   25358:	c866      	ldmia	r0!, {r1, r2, r5, r6}
   2535a:	c366      	stmia	r3!, {r1, r2, r5, r6}
   2535c:	990b      	ldr	r1, [sp, #44]	@ 0x2c
   2535e:	0e08      	lsrs	r0, r1, #24
   25360:	71a0      	strb	r0, [r4, #6]
   25362:	0c08      	lsrs	r0, r1, #16
   25364:	7160      	strb	r0, [r4, #5]
   25366:	0a08      	lsrs	r0, r1, #8
   25368:	7120      	strb	r0, [r4, #4]
   2536a:	70e1      	strb	r1, [r4, #3]
   2536c:	1de0      	adds	r0, r4, #7
   2536e:	2234      	movs	r2, #52	@ 0x34
   25370:	990c      	ldr	r1, [sp, #48]	@ 0x30
   25372:	f001 fe4a 	bl	2700a <__aeabi_memcpy>
   25376:	4d05      	ldr	r5, [pc, #20]	@ (2538c <_start+0x1248>)
   25378:	446d      	add	r5, sp
   2537a:	4628      	mov	r0, r5
   2537c:	4621      	mov	r1, r4
   2537e:	f7fc fcc5 	bl	21d0c <_ZN18complex_no_dynamic3app17h8a6c207e0dc1a7ecE>
   25382:	7828      	ldrb	r0, [r5, #0]
   25384:	2801      	cmp	r0, #1
   25386:	d107      	bne.n	25398 <_start+0x1254>
   25388:	f001 fc38 	bl	26bfc <_start+0x2ab8>
   2538c:	000013cc 	.word	0x000013cc
   25390:	0000068c 	.word	0x0000068c
   25394:	00001370 	.word	0x00001370
   25398:	4816      	ldr	r0, [pc, #88]	@ (253f4 <_start+0x12b0>)
   2539a:	4468      	add	r0, sp
   2539c:	78c1      	ldrb	r1, [r0, #3]
   2539e:	4c16      	ldr	r4, [pc, #88]	@ (253f8 <_start+0x12b4>)
   253a0:	446c      	add	r4, sp
   253a2:	70a1      	strb	r1, [r4, #2]
   253a4:	7841      	ldrb	r1, [r0, #1]
   253a6:	7882      	ldrb	r2, [r0, #2]
   253a8:	0212      	lsls	r2, r2, #8
   253aa:	1851      	adds	r1, r2, r1
   253ac:	8021      	strh	r1, [r4, #0]
   253ae:	3008      	adds	r0, #8
   253b0:	9905      	ldr	r1, [sp, #20]
   253b2:	6e09      	ldr	r1, [r1, #96]	@ 0x60
   253b4:	910b      	str	r1, [sp, #44]	@ 0x2c
   253b6:	4b11      	ldr	r3, [pc, #68]	@ (253fc <_start+0x12b8>)
   253b8:	446b      	add	r3, sp
   253ba:	930c      	str	r3, [sp, #48]	@ 0x30
   253bc:	c866      	ldmia	r0!, {r1, r2, r5, r6}
   253be:	c366      	stmia	r3!, {r1, r2, r5, r6}
   253c0:	c866      	ldmia	r0!, {r1, r2, r5, r6}
   253c2:	c366      	stmia	r3!, {r1, r2, r5, r6}
   253c4:	990b      	ldr	r1, [sp, #44]	@ 0x2c
   253c6:	0e08      	lsrs	r0, r1, #24
   253c8:	71a0      	strb	r0, [r4, #6]
   253ca:	0c08      	lsrs	r0, r1, #16
   253cc:	7160      	strb	r0, [r4, #5]
   253ce:	0a08      	lsrs	r0, r1, #8
   253d0:	7120      	strb	r0, [r4, #4]
   253d2:	70e1      	strb	r1, [r4, #3]
   253d4:	1de0      	adds	r0, r4, #7
   253d6:	2220      	movs	r2, #32
   253d8:	990c      	ldr	r1, [sp, #48]	@ 0x30
   253da:	f001 fe16 	bl	2700a <__aeabi_memcpy>
   253de:	4d05      	ldr	r5, [pc, #20]	@ (253f4 <_start+0x12b0>)
   253e0:	446d      	add	r5, sp
   253e2:	4628      	mov	r0, r5
   253e4:	4621      	mov	r1, r4
   253e6:	f7fb fa57 	bl	20898 <_ZN18complex_no_dynamic3app17h25eb6b1d76ae4fd2E>
   253ea:	7828      	ldrb	r0, [r5, #0]
   253ec:	2801      	cmp	r0, #1
   253ee:	d107      	bne.n	25400 <_start+0x12bc>
   253f0:	f001 fc04 	bl	26bfc <_start+0x2ab8>
   253f4:	000013cc 	.word	0x000013cc
   253f8:	000006c8 	.word	0x000006c8
   253fc:	00001370 	.word	0x00001370
   25400:	4915      	ldr	r1, [pc, #84]	@ (25458 <_start+0x1314>)
   25402:	4469      	add	r1, sp
   25404:	9d05      	ldr	r5, [sp, #20]
   25406:	6f28      	ldr	r0, [r5, #112]	@ 0x70
   25408:	7308      	strb	r0, [r1, #12]
   2540a:	4814      	ldr	r0, [pc, #80]	@ (2545c <_start+0x1318>)
   2540c:	4468      	add	r0, sp
   2540e:	78c2      	ldrb	r2, [r0, #3]
   25410:	4c13      	ldr	r4, [pc, #76]	@ (25460 <_start+0x131c>)
   25412:	446c      	add	r4, sp
   25414:	70a2      	strb	r2, [r4, #2]
   25416:	7842      	ldrb	r2, [r0, #1]
   25418:	7880      	ldrb	r0, [r0, #2]
   2541a:	0200      	lsls	r0, r0, #8
   2541c:	1880      	adds	r0, r0, r2
   2541e:	8020      	strh	r0, [r4, #0]
   25420:	6e28      	ldr	r0, [r5, #96]	@ 0x60
   25422:	70e0      	strb	r0, [r4, #3]
   25424:	0e02      	lsrs	r2, r0, #24
   25426:	71a2      	strb	r2, [r4, #6]
   25428:	0c02      	lsrs	r2, r0, #16
   2542a:	7162      	strb	r2, [r4, #5]
   2542c:	0a00      	lsrs	r0, r0, #8
   2542e:	7120      	strb	r0, [r4, #4]
   25430:	462b      	mov	r3, r5
   25432:	3364      	adds	r3, #100	@ 0x64
   25434:	cb0d      	ldmia	r3, {r0, r2, r3}
   25436:	c50d      	stmia	r5!, {r0, r2, r3}
   25438:	1de0      	adds	r0, r4, #7
   2543a:	220d      	movs	r2, #13
   2543c:	f001 fde5 	bl	2700a <__aeabi_memcpy>
   25440:	4d06      	ldr	r5, [pc, #24]	@ (2545c <_start+0x1318>)
   25442:	446d      	add	r5, sp
   25444:	4628      	mov	r0, r5
   25446:	4621      	mov	r1, r4
   25448:	f7fc fbb4 	bl	21bb4 <_ZN18complex_no_dynamic3app17h7d7013cc00b8ab9fE>
   2544c:	7828      	ldrb	r0, [r5, #0]
   2544e:	2801      	cmp	r0, #1
   25450:	d108      	bne.n	25464 <_start+0x1320>
   25452:	f001 fbd3 	bl	26bfc <_start+0x2ab8>
   25456:	46c0      	nop			@ (mov r8, r8)
   25458:	00001370 	.word	0x00001370
   2545c:	000013cc 	.word	0x000013cc
   25460:	000006f0 	.word	0x000006f0
   25464:	4816      	ldr	r0, [pc, #88]	@ (254c0 <_start+0x137c>)
   25466:	4468      	add	r0, sp
   25468:	78c1      	ldrb	r1, [r0, #3]
   2546a:	4c16      	ldr	r4, [pc, #88]	@ (254c4 <_start+0x1380>)
   2546c:	446c      	add	r4, sp
   2546e:	70a1      	strb	r1, [r4, #2]
   25470:	7841      	ldrb	r1, [r0, #1]
   25472:	7882      	ldrb	r2, [r0, #2]
   25474:	0212      	lsls	r2, r2, #8
   25476:	1851      	adds	r1, r2, r1
   25478:	8021      	strh	r1, [r4, #0]
   2547a:	3008      	adds	r0, #8
   2547c:	9905      	ldr	r1, [sp, #20]
   2547e:	6e09      	ldr	r1, [r1, #96]	@ 0x60
   25480:	4b11      	ldr	r3, [pc, #68]	@ (254c8 <_start+0x1384>)
   25482:	446b      	add	r3, sp
   25484:	930c      	str	r3, [sp, #48]	@ 0x30
   25486:	c864      	ldmia	r0!, {r2, r5, r6}
   25488:	c364      	stmia	r3!, {r2, r5, r6}
   2548a:	c864      	ldmia	r0!, {r2, r5, r6}
   2548c:	c364      	stmia	r3!, {r2, r5, r6}
   2548e:	c864      	ldmia	r0!, {r2, r5, r6}
   25490:	c364      	stmia	r3!, {r2, r5, r6}
   25492:	0e08      	lsrs	r0, r1, #24
   25494:	71a0      	strb	r0, [r4, #6]
   25496:	0c08      	lsrs	r0, r1, #16
   25498:	7160      	strb	r0, [r4, #5]
   2549a:	0a08      	lsrs	r0, r1, #8
   2549c:	7120      	strb	r0, [r4, #4]
   2549e:	70e1      	strb	r1, [r4, #3]
   254a0:	1de0      	adds	r0, r4, #7
   254a2:	2224      	movs	r2, #36	@ 0x24
   254a4:	990c      	ldr	r1, [sp, #48]	@ 0x30
   254a6:	f001 fdb0 	bl	2700a <__aeabi_memcpy>
   254aa:	4d05      	ldr	r5, [pc, #20]	@ (254c0 <_start+0x137c>)
   254ac:	446d      	add	r5, sp
   254ae:	4628      	mov	r0, r5
   254b0:	4621      	mov	r1, r4
   254b2:	f7fb fe5d 	bl	21170 <_ZN18complex_no_dynamic3app17h4fde1340b2b80fd7E>
   254b6:	7828      	ldrb	r0, [r5, #0]
   254b8:	2801      	cmp	r0, #1
   254ba:	d107      	bne.n	254cc <_start+0x1388>
   254bc:	f001 fb9e 	bl	26bfc <_start+0x2ab8>
   254c0:	000013cc 	.word	0x000013cc
   254c4:	00000704 	.word	0x00000704
   254c8:	00001370 	.word	0x00001370
   254cc:	4817      	ldr	r0, [pc, #92]	@ (2552c <_start+0x13e8>)
   254ce:	4468      	add	r0, sp
   254d0:	78c1      	ldrb	r1, [r0, #3]
   254d2:	4c17      	ldr	r4, [pc, #92]	@ (25530 <_start+0x13ec>)
   254d4:	446c      	add	r4, sp
   254d6:	70a1      	strb	r1, [r4, #2]
   254d8:	7841      	ldrb	r1, [r0, #1]
   254da:	7882      	ldrb	r2, [r0, #2]
   254dc:	0212      	lsls	r2, r2, #8
   254de:	1851      	adds	r1, r2, r1
   254e0:	8021      	strh	r1, [r4, #0]
   254e2:	3008      	adds	r0, #8
   254e4:	9905      	ldr	r1, [sp, #20]
   254e6:	6e09      	ldr	r1, [r1, #96]	@ 0x60
   254e8:	4b12      	ldr	r3, [pc, #72]	@ (25534 <_start+0x13f0>)
   254ea:	446b      	add	r3, sp
   254ec:	930c      	str	r3, [sp, #48]	@ 0x30
   254ee:	c860      	ldmia	r0!, {r5, r6}
   254f0:	c360      	stmia	r3!, {r5, r6}
   254f2:	c864      	ldmia	r0!, {r2, r5, r6}
   254f4:	c364      	stmia	r3!, {r2, r5, r6}
   254f6:	8802      	ldrh	r2, [r0, #0]
   254f8:	801a      	strh	r2, [r3, #0]
   254fa:	7880      	ldrb	r0, [r0, #2]
   254fc:	7098      	strb	r0, [r3, #2]
   254fe:	0e08      	lsrs	r0, r1, #24
   25500:	71a0      	strb	r0, [r4, #6]
   25502:	0c08      	lsrs	r0, r1, #16
   25504:	7160      	strb	r0, [r4, #5]
   25506:	0a08      	lsrs	r0, r1, #8
   25508:	7120      	strb	r0, [r4, #4]
   2550a:	70e1      	strb	r1, [r4, #3]
   2550c:	1de0      	adds	r0, r4, #7
   2550e:	2217      	movs	r2, #23
   25510:	990c      	ldr	r1, [sp, #48]	@ 0x30
   25512:	f001 fd7a 	bl	2700a <__aeabi_memcpy>
   25516:	4d05      	ldr	r5, [pc, #20]	@ (2552c <_start+0x13e8>)
   25518:	446d      	add	r5, sp
   2551a:	4628      	mov	r0, r5
   2551c:	4621      	mov	r1, r4
   2551e:	f7fd f86f 	bl	22600 <_ZN18complex_no_dynamic3app17ha4fe8ab7019e104cE>
   25522:	7828      	ldrb	r0, [r5, #0]
   25524:	2801      	cmp	r0, #1
   25526:	d107      	bne.n	25538 <_start+0x13f4>
   25528:	f001 fb68 	bl	26bfc <_start+0x2ab8>
   2552c:	000013cc 	.word	0x000013cc
   25530:	00000730 	.word	0x00000730
   25534:	00001370 	.word	0x00001370
   25538:	4915      	ldr	r1, [pc, #84]	@ (25590 <_start+0x144c>)
   2553a:	4469      	add	r1, sp
   2553c:	78c8      	ldrb	r0, [r1, #3]
   2553e:	4c15      	ldr	r4, [pc, #84]	@ (25594 <_start+0x1450>)
   25540:	446c      	add	r4, sp
   25542:	70a0      	strb	r0, [r4, #2]
   25544:	7848      	ldrb	r0, [r1, #1]
   25546:	788a      	ldrb	r2, [r1, #2]
   25548:	0212      	lsls	r2, r2, #8
   2554a:	1810      	adds	r0, r2, r0
   2554c:	8020      	strh	r0, [r4, #0]
   2554e:	9805      	ldr	r0, [sp, #20]
   25550:	6e05      	ldr	r5, [r0, #96]	@ 0x60
   25552:	3108      	adds	r1, #8
   25554:	4810      	ldr	r0, [pc, #64]	@ (25598 <_start+0x1454>)
   25556:	4468      	add	r0, sp
   25558:	900c      	str	r0, [sp, #48]	@ 0x30
   2555a:	264a      	movs	r6, #74	@ 0x4a
   2555c:	4632      	mov	r2, r6
   2555e:	f001 fbf4 	bl	26d4a <__aeabi_memcpy4>
   25562:	0e28      	lsrs	r0, r5, #24
   25564:	71a0      	strb	r0, [r4, #6]
   25566:	0c28      	lsrs	r0, r5, #16
   25568:	7160      	strb	r0, [r4, #5]
   2556a:	0a28      	lsrs	r0, r5, #8
   2556c:	7120      	strb	r0, [r4, #4]
   2556e:	70e5      	strb	r5, [r4, #3]
   25570:	1de0      	adds	r0, r4, #7
   25572:	990c      	ldr	r1, [sp, #48]	@ 0x30
   25574:	4632      	mov	r2, r6
   25576:	f001 fd48 	bl	2700a <__aeabi_memcpy>
   2557a:	4d05      	ldr	r5, [pc, #20]	@ (25590 <_start+0x144c>)
   2557c:	446d      	add	r5, sp
   2557e:	4628      	mov	r0, r5
   25580:	4621      	mov	r1, r4
   25582:	f7fc f865 	bl	21650 <_ZN18complex_no_dynamic3app17h5f1e643a9520ea58E>
   25586:	7828      	ldrb	r0, [r5, #0]
   25588:	2801      	cmp	r0, #1
   2558a:	d107      	bne.n	2559c <_start+0x1458>
   2558c:	f001 fb36 	bl	26bfc <_start+0x2ab8>
   25590:	000013cc 	.word	0x000013cc
   25594:	00000750 	.word	0x00000750
   25598:	00001370 	.word	0x00001370
   2559c:	9804      	ldr	r0, [sp, #16]
   2559e:	1cc0      	adds	r0, r0, #3
   255a0:	4a16      	ldr	r2, [pc, #88]	@ (255fc <_start+0x14b8>)
   255a2:	446a      	add	r2, sp
   255a4:	78d3      	ldrb	r3, [r2, #3]
   255a6:	4916      	ldr	r1, [pc, #88]	@ (25600 <_start+0x14bc>)
   255a8:	4469      	add	r1, sp
   255aa:	708b      	strb	r3, [r1, #2]
   255ac:	7853      	ldrb	r3, [r2, #1]
   255ae:	7892      	ldrb	r2, [r2, #2]
   255b0:	0212      	lsls	r2, r2, #8
   255b2:	18d2      	adds	r2, r2, r3
   255b4:	800a      	strh	r2, [r1, #0]
   255b6:	9c05      	ldr	r4, [sp, #20]
   255b8:	3460      	adds	r4, #96	@ 0x60
   255ba:	cc1c      	ldmia	r4, {r2, r3, r4}
   255bc:	0e25      	lsrs	r5, r4, #24
   255be:	72c5      	strb	r5, [r0, #11]
   255c0:	0c25      	lsrs	r5, r4, #16
   255c2:	7285      	strb	r5, [r0, #10]
   255c4:	0a25      	lsrs	r5, r4, #8
   255c6:	7245      	strb	r5, [r0, #9]
   255c8:	7204      	strb	r4, [r0, #8]
   255ca:	0e1c      	lsrs	r4, r3, #24
   255cc:	71c4      	strb	r4, [r0, #7]
   255ce:	0c1c      	lsrs	r4, r3, #16
   255d0:	7184      	strb	r4, [r0, #6]
   255d2:	0a1c      	lsrs	r4, r3, #8
   255d4:	7144      	strb	r4, [r0, #5]
   255d6:	7103      	strb	r3, [r0, #4]
   255d8:	0e13      	lsrs	r3, r2, #24
   255da:	70c3      	strb	r3, [r0, #3]
   255dc:	0c13      	lsrs	r3, r2, #16
   255de:	7083      	strb	r3, [r0, #2]
   255e0:	0a13      	lsrs	r3, r2, #8
   255e2:	7043      	strb	r3, [r0, #1]
   255e4:	7002      	strb	r2, [r0, #0]
   255e6:	4c05      	ldr	r4, [pc, #20]	@ (255fc <_start+0x14b8>)
   255e8:	446c      	add	r4, sp
   255ea:	4620      	mov	r0, r4
   255ec:	f7fe fc52 	bl	23e94 <_ZN18complex_no_dynamic3app17hf9066fa27e29bc22E>
   255f0:	7820      	ldrb	r0, [r4, #0]
   255f2:	2801      	cmp	r0, #1
   255f4:	d106      	bne.n	25604 <_start+0x14c0>
   255f6:	f001 fb01 	bl	26bfc <_start+0x2ab8>
   255fa:	46c0      	nop			@ (mov r8, r8)
   255fc:	000013cc 	.word	0x000013cc
   25600:	000007a4 	.word	0x000007a4
   25604:	481a      	ldr	r0, [pc, #104]	@ (25670 <_start+0x152c>)
   25606:	4468      	add	r0, sp
   25608:	78c1      	ldrb	r1, [r0, #3]
   2560a:	4c1a      	ldr	r4, [pc, #104]	@ (25674 <_start+0x1530>)
   2560c:	446c      	add	r4, sp
   2560e:	70a1      	strb	r1, [r4, #2]
   25610:	7841      	ldrb	r1, [r0, #1]
   25612:	7882      	ldrb	r2, [r0, #2]
   25614:	0212      	lsls	r2, r2, #8
   25616:	1851      	adds	r1, r2, r1
   25618:	8021      	strh	r1, [r4, #0]
   2561a:	3008      	adds	r0, #8
   2561c:	9905      	ldr	r1, [sp, #20]
   2561e:	6e09      	ldr	r1, [r1, #96]	@ 0x60
   25620:	910b      	str	r1, [sp, #44]	@ 0x2c
   25622:	4b15      	ldr	r3, [pc, #84]	@ (25678 <_start+0x1534>)
   25624:	446b      	add	r3, sp
   25626:	930c      	str	r3, [sp, #48]	@ 0x30
   25628:	c864      	ldmia	r0!, {r2, r5, r6}
   2562a:	c364      	stmia	r3!, {r2, r5, r6}
   2562c:	c866      	ldmia	r0!, {r1, r2, r5, r6}
   2562e:	c366      	stmia	r3!, {r1, r2, r5, r6}
   25630:	c866      	ldmia	r0!, {r1, r2, r5, r6}
   25632:	c366      	stmia	r3!, {r1, r2, r5, r6}
   25634:	c866      	ldmia	r0!, {r1, r2, r5, r6}
   25636:	c366      	stmia	r3!, {r1, r2, r5, r6}
   25638:	8801      	ldrh	r1, [r0, #0]
   2563a:	8019      	strh	r1, [r3, #0]
   2563c:	7880      	ldrb	r0, [r0, #2]
   2563e:	7098      	strb	r0, [r3, #2]
   25640:	990b      	ldr	r1, [sp, #44]	@ 0x2c
   25642:	0e08      	lsrs	r0, r1, #24
   25644:	71a0      	strb	r0, [r4, #6]
   25646:	0c08      	lsrs	r0, r1, #16
   25648:	7160      	strb	r0, [r4, #5]
   2564a:	0a08      	lsrs	r0, r1, #8
   2564c:	7120      	strb	r0, [r4, #4]
   2564e:	70e1      	strb	r1, [r4, #3]
   25650:	1de0      	adds	r0, r4, #7
   25652:	223f      	movs	r2, #63	@ 0x3f
   25654:	990c      	ldr	r1, [sp, #48]	@ 0x30
   25656:	f001 fcd8 	bl	2700a <__aeabi_memcpy>
   2565a:	4d05      	ldr	r5, [pc, #20]	@ (25670 <_start+0x152c>)
   2565c:	446d      	add	r5, sp
   2565e:	4628      	mov	r0, r5
   25660:	4621      	mov	r1, r4
   25662:	f7fe fd19 	bl	24098 <_ZN18complex_no_dynamic3app17hfe0e8243a99b3089E>
   25666:	7828      	ldrb	r0, [r5, #0]
   25668:	2801      	cmp	r0, #1
   2566a:	d107      	bne.n	2567c <_start+0x1538>
   2566c:	f001 fac6 	bl	26bfc <_start+0x2ab8>
   25670:	000013cc 	.word	0x000013cc
   25674:	000007b4 	.word	0x000007b4
   25678:	00001370 	.word	0x00001370
   2567c:	4915      	ldr	r1, [pc, #84]	@ (256d4 <_start+0x1590>)
   2567e:	4469      	add	r1, sp
   25680:	78c8      	ldrb	r0, [r1, #3]
   25682:	4c15      	ldr	r4, [pc, #84]	@ (256d8 <_start+0x1594>)
   25684:	446c      	add	r4, sp
   25686:	70a0      	strb	r0, [r4, #2]
   25688:	7848      	ldrb	r0, [r1, #1]
   2568a:	788a      	ldrb	r2, [r1, #2]
   2568c:	0212      	lsls	r2, r2, #8
   2568e:	1810      	adds	r0, r2, r0
   25690:	8020      	strh	r0, [r4, #0]
   25692:	9805      	ldr	r0, [sp, #20]
   25694:	6e05      	ldr	r5, [r0, #96]	@ 0x60
   25696:	3108      	adds	r1, #8
   25698:	4810      	ldr	r0, [pc, #64]	@ (256dc <_start+0x1598>)
   2569a:	4468      	add	r0, sp
   2569c:	900c      	str	r0, [sp, #48]	@ 0x30
   2569e:	264f      	movs	r6, #79	@ 0x4f
   256a0:	4632      	mov	r2, r6
   256a2:	f001 fb52 	bl	26d4a <__aeabi_memcpy4>
   256a6:	0e28      	lsrs	r0, r5, #24
   256a8:	71a0      	strb	r0, [r4, #6]
   256aa:	0c28      	lsrs	r0, r5, #16
   256ac:	7160      	strb	r0, [r4, #5]
   256ae:	0a28      	lsrs	r0, r5, #8
   256b0:	7120      	strb	r0, [r4, #4]
   256b2:	70e5      	strb	r5, [r4, #3]
   256b4:	1de0      	adds	r0, r4, #7
   256b6:	990c      	ldr	r1, [sp, #48]	@ 0x30
   256b8:	4632      	mov	r2, r6
   256ba:	f001 fca6 	bl	2700a <__aeabi_memcpy>
   256be:	4d05      	ldr	r5, [pc, #20]	@ (256d4 <_start+0x1590>)
   256c0:	446d      	add	r5, sp
   256c2:	4628      	mov	r0, r5
   256c4:	4621      	mov	r1, r4
   256c6:	f7fc fb77 	bl	21db8 <_ZN18complex_no_dynamic3app17h91acd4b03ac8eba5E>
   256ca:	7828      	ldrb	r0, [r5, #0]
   256cc:	2801      	cmp	r0, #1
   256ce:	d107      	bne.n	256e0 <_start+0x159c>
   256d0:	f001 fa94 	bl	26bfc <_start+0x2ab8>
   256d4:	000013cc 	.word	0x000013cc
   256d8:	000007fc 	.word	0x000007fc
   256dc:	00001370 	.word	0x00001370
   256e0:	4915      	ldr	r1, [pc, #84]	@ (25738 <_start+0x15f4>)
   256e2:	4469      	add	r1, sp
   256e4:	78c8      	ldrb	r0, [r1, #3]
   256e6:	4c15      	ldr	r4, [pc, #84]	@ (2573c <_start+0x15f8>)
   256e8:	446c      	add	r4, sp
   256ea:	70a0      	strb	r0, [r4, #2]
   256ec:	7848      	ldrb	r0, [r1, #1]
   256ee:	788a      	ldrb	r2, [r1, #2]
   256f0:	0212      	lsls	r2, r2, #8
   256f2:	1810      	adds	r0, r2, r0
   256f4:	8020      	strh	r0, [r4, #0]
   256f6:	9805      	ldr	r0, [sp, #20]
   256f8:	6e05      	ldr	r5, [r0, #96]	@ 0x60
   256fa:	3108      	adds	r1, #8
   256fc:	4810      	ldr	r0, [pc, #64]	@ (25740 <_start+0x15fc>)
   256fe:	4468      	add	r0, sp
   25700:	900c      	str	r0, [sp, #48]	@ 0x30
   25702:	2642      	movs	r6, #66	@ 0x42
   25704:	4632      	mov	r2, r6
   25706:	f001 fb20 	bl	26d4a <__aeabi_memcpy4>
   2570a:	0e28      	lsrs	r0, r5, #24
   2570c:	71a0      	strb	r0, [r4, #6]
   2570e:	0c28      	lsrs	r0, r5, #16
   25710:	7160      	strb	r0, [r4, #5]
   25712:	0a28      	lsrs	r0, r5, #8
   25714:	7120      	strb	r0, [r4, #4]
   25716:	70e5      	strb	r5, [r4, #3]
   25718:	1de0      	adds	r0, r4, #7
   2571a:	990c      	ldr	r1, [sp, #48]	@ 0x30
   2571c:	4632      	mov	r2, r6
   2571e:	f001 fc74 	bl	2700a <__aeabi_memcpy>
   25722:	4d05      	ldr	r5, [pc, #20]	@ (25738 <_start+0x15f4>)
   25724:	446d      	add	r5, sp
   25726:	4628      	mov	r0, r5
   25728:	4621      	mov	r1, r4
   2572a:	f7fe fc09 	bl	23f40 <_ZN18complex_no_dynamic3app17hfb609c1baef8fc65E>
   2572e:	7828      	ldrb	r0, [r5, #0]
   25730:	2801      	cmp	r0, #1
   25732:	d107      	bne.n	25744 <_start+0x1600>
   25734:	f001 fa62 	bl	26bfc <_start+0x2ab8>
   25738:	000013cc 	.word	0x000013cc
   2573c:	00000854 	.word	0x00000854
   25740:	00001370 	.word	0x00001370
   25744:	4816      	ldr	r0, [pc, #88]	@ (257a0 <_start+0x165c>)
   25746:	4468      	add	r0, sp
   25748:	78c1      	ldrb	r1, [r0, #3]
   2574a:	4c16      	ldr	r4, [pc, #88]	@ (257a4 <_start+0x1660>)
   2574c:	446c      	add	r4, sp
   2574e:	70a1      	strb	r1, [r4, #2]
   25750:	7841      	ldrb	r1, [r0, #1]
   25752:	7882      	ldrb	r2, [r0, #2]
   25754:	0212      	lsls	r2, r2, #8
   25756:	1851      	adds	r1, r2, r1
   25758:	8021      	strh	r1, [r4, #0]
   2575a:	3008      	adds	r0, #8
   2575c:	9905      	ldr	r1, [sp, #20]
   2575e:	6e09      	ldr	r1, [r1, #96]	@ 0x60
   25760:	910b      	str	r1, [sp, #44]	@ 0x2c
   25762:	4b11      	ldr	r3, [pc, #68]	@ (257a8 <_start+0x1664>)
   25764:	446b      	add	r3, sp
   25766:	930c      	str	r3, [sp, #48]	@ 0x30
   25768:	c864      	ldmia	r0!, {r2, r5, r6}
   2576a:	c364      	stmia	r3!, {r2, r5, r6}
   2576c:	c866      	ldmia	r0!, {r1, r2, r5, r6}
   2576e:	c366      	stmia	r3!, {r1, r2, r5, r6}
   25770:	990b      	ldr	r1, [sp, #44]	@ 0x2c
   25772:	0e08      	lsrs	r0, r1, #24
   25774:	71a0      	strb	r0, [r4, #6]
   25776:	0c08      	lsrs	r0, r1, #16
   25778:	7160      	strb	r0, [r4, #5]
   2577a:	0a08      	lsrs	r0, r1, #8
   2577c:	7120      	strb	r0, [r4, #4]
   2577e:	70e1      	strb	r1, [r4, #3]
   25780:	1de0      	adds	r0, r4, #7
   25782:	221c      	movs	r2, #28
   25784:	990c      	ldr	r1, [sp, #48]	@ 0x30
   25786:	f001 fc40 	bl	2700a <__aeabi_memcpy>
   2578a:	4d05      	ldr	r5, [pc, #20]	@ (257a0 <_start+0x165c>)
   2578c:	446d      	add	r5, sp
   2578e:	4628      	mov	r0, r5
   25790:	4621      	mov	r1, r4
   25792:	f7fa ff81 	bl	20698 <_ZN18complex_no_dynamic3app17h2237e4237bb6ec1bE>
   25796:	7828      	ldrb	r0, [r5, #0]
   25798:	2801      	cmp	r0, #1
   2579a:	d107      	bne.n	257ac <_start+0x1668>
   2579c:	f001 fa2e 	bl	26bfc <_start+0x2ab8>
   257a0:	000013cc 	.word	0x000013cc
   257a4:	000008a0 	.word	0x000008a0
   257a8:	00001370 	.word	0x00001370
   257ac:	4816      	ldr	r0, [pc, #88]	@ (25808 <_start+0x16c4>)
   257ae:	4468      	add	r0, sp
   257b0:	78c1      	ldrb	r1, [r0, #3]
   257b2:	4c16      	ldr	r4, [pc, #88]	@ (2580c <_start+0x16c8>)
   257b4:	446c      	add	r4, sp
   257b6:	70a1      	strb	r1, [r4, #2]
   257b8:	7841      	ldrb	r1, [r0, #1]
   257ba:	7882      	ldrb	r2, [r0, #2]
   257bc:	0212      	lsls	r2, r2, #8
   257be:	1851      	adds	r1, r2, r1
   257c0:	8021      	strh	r1, [r4, #0]
   257c2:	3008      	adds	r0, #8
   257c4:	9905      	ldr	r1, [sp, #20]
   257c6:	6e09      	ldr	r1, [r1, #96]	@ 0x60
   257c8:	4b11      	ldr	r3, [pc, #68]	@ (25810 <_start+0x16cc>)
   257ca:	446b      	add	r3, sp
   257cc:	930c      	str	r3, [sp, #48]	@ 0x30
   257ce:	c864      	ldmia	r0!, {r2, r5, r6}
   257d0:	c364      	stmia	r3!, {r2, r5, r6}
   257d2:	c864      	ldmia	r0!, {r2, r5, r6}
   257d4:	c364      	stmia	r3!, {r2, r5, r6}
   257d6:	c864      	ldmia	r0!, {r2, r5, r6}
   257d8:	c364      	stmia	r3!, {r2, r5, r6}
   257da:	0e08      	lsrs	r0, r1, #24
   257dc:	71a0      	strb	r0, [r4, #6]
   257de:	0c08      	lsrs	r0, r1, #16
   257e0:	7160      	strb	r0, [r4, #5]
   257e2:	0a08      	lsrs	r0, r1, #8
   257e4:	7120      	strb	r0, [r4, #4]
   257e6:	70e1      	strb	r1, [r4, #3]
   257e8:	1de0      	adds	r0, r4, #7
   257ea:	2224      	movs	r2, #36	@ 0x24
   257ec:	990c      	ldr	r1, [sp, #48]	@ 0x30
   257ee:	f001 fc0c 	bl	2700a <__aeabi_memcpy>
   257f2:	4d05      	ldr	r5, [pc, #20]	@ (25808 <_start+0x16c4>)
   257f4:	446d      	add	r5, sp
   257f6:	4628      	mov	r0, r5
   257f8:	4621      	mov	r1, r4
   257fa:	f7fd f857 	bl	228ac <_ZN18complex_no_dynamic3app17ha93a72525d34a7b4E>
   257fe:	7828      	ldrb	r0, [r5, #0]
   25800:	2801      	cmp	r0, #1
   25802:	d107      	bne.n	25814 <_start+0x16d0>
   25804:	f001 f9fa 	bl	26bfc <_start+0x2ab8>
   25808:	000013cc 	.word	0x000013cc
   2580c:	000008c4 	.word	0x000008c4
   25810:	00001370 	.word	0x00001370
   25814:	4914      	ldr	r1, [pc, #80]	@ (25868 <_start+0x1724>)
   25816:	4469      	add	r1, sp
   25818:	9b05      	ldr	r3, [sp, #20]
   2581a:	6e98      	ldr	r0, [r3, #104]	@ 0x68
   2581c:	8088      	strh	r0, [r1, #4]
   2581e:	4813      	ldr	r0, [pc, #76]	@ (2586c <_start+0x1728>)
   25820:	4468      	add	r0, sp
   25822:	78c2      	ldrb	r2, [r0, #3]
   25824:	4c12      	ldr	r4, [pc, #72]	@ (25870 <_start+0x172c>)
   25826:	446c      	add	r4, sp
   25828:	70a2      	strb	r2, [r4, #2]
   2582a:	7842      	ldrb	r2, [r0, #1]
   2582c:	7880      	ldrb	r0, [r0, #2]
   2582e:	0200      	lsls	r0, r0, #8
   25830:	1880      	adds	r0, r0, r2
   25832:	8020      	strh	r0, [r4, #0]
   25834:	6e18      	ldr	r0, [r3, #96]	@ 0x60
   25836:	70e0      	strb	r0, [r4, #3]
   25838:	0e02      	lsrs	r2, r0, #24
   2583a:	71a2      	strb	r2, [r4, #6]
   2583c:	0c02      	lsrs	r2, r0, #16
   2583e:	7162      	strb	r2, [r4, #5]
   25840:	0a00      	lsrs	r0, r0, #8
   25842:	7120      	strb	r0, [r4, #4]
   25844:	6e58      	ldr	r0, [r3, #100]	@ 0x64
   25846:	6018      	str	r0, [r3, #0]
   25848:	1de0      	adds	r0, r4, #7
   2584a:	2206      	movs	r2, #6
   2584c:	f001 fbdd 	bl	2700a <__aeabi_memcpy>
   25850:	4d06      	ldr	r5, [pc, #24]	@ (2586c <_start+0x1728>)
   25852:	446d      	add	r5, sp
   25854:	4628      	mov	r0, r5
   25856:	4621      	mov	r1, r4
   25858:	f7fe f9a8 	bl	23bac <_ZN18complex_no_dynamic3app17he8f0087616795445E>
   2585c:	7828      	ldrb	r0, [r5, #0]
   2585e:	2801      	cmp	r0, #1
   25860:	d108      	bne.n	25874 <_start+0x1730>
   25862:	f001 f9cb 	bl	26bfc <_start+0x2ab8>
   25866:	46c0      	nop			@ (mov r8, r8)
   25868:	00001370 	.word	0x00001370
   2586c:	000013cc 	.word	0x000013cc
   25870:	000008f0 	.word	0x000008f0
   25874:	4816      	ldr	r0, [pc, #88]	@ (258d0 <_start+0x178c>)
   25876:	4468      	add	r0, sp
   25878:	78c1      	ldrb	r1, [r0, #3]
   2587a:	4c16      	ldr	r4, [pc, #88]	@ (258d4 <_start+0x1790>)
   2587c:	446c      	add	r4, sp
   2587e:	70a1      	strb	r1, [r4, #2]
   25880:	7841      	ldrb	r1, [r0, #1]
   25882:	7882      	ldrb	r2, [r0, #2]
   25884:	0212      	lsls	r2, r2, #8
   25886:	1851      	adds	r1, r2, r1
   25888:	8021      	strh	r1, [r4, #0]
   2588a:	3008      	adds	r0, #8
   2588c:	9905      	ldr	r1, [sp, #20]
   2588e:	6e09      	ldr	r1, [r1, #96]	@ 0x60
   25890:	4b11      	ldr	r3, [pc, #68]	@ (258d8 <_start+0x1794>)
   25892:	446b      	add	r3, sp
   25894:	930c      	str	r3, [sp, #48]	@ 0x30
   25896:	c864      	ldmia	r0!, {r2, r5, r6}
   25898:	c364      	stmia	r3!, {r2, r5, r6}
   2589a:	c864      	ldmia	r0!, {r2, r5, r6}
   2589c:	c364      	stmia	r3!, {r2, r5, r6}
   2589e:	8800      	ldrh	r0, [r0, #0]
   258a0:	8018      	strh	r0, [r3, #0]
   258a2:	0e08      	lsrs	r0, r1, #24
   258a4:	71a0      	strb	r0, [r4, #6]
   258a6:	0c08      	lsrs	r0, r1, #16
   258a8:	7160      	strb	r0, [r4, #5]
   258aa:	0a08      	lsrs	r0, r1, #8
   258ac:	7120      	strb	r0, [r4, #4]
   258ae:	70e1      	strb	r1, [r4, #3]
   258b0:	1de0      	adds	r0, r4, #7
   258b2:	221a      	movs	r2, #26
   258b4:	990c      	ldr	r1, [sp, #48]	@ 0x30
   258b6:	f001 fba8 	bl	2700a <__aeabi_memcpy>
   258ba:	4d05      	ldr	r5, [pc, #20]	@ (258d0 <_start+0x178c>)
   258bc:	446d      	add	r5, sp
   258be:	4628      	mov	r0, r5
   258c0:	4621      	mov	r1, r4
   258c2:	f7fc f81f 	bl	21904 <_ZN18complex_no_dynamic3app17h68385d02d924a5f9E>
   258c6:	7828      	ldrb	r0, [r5, #0]
   258c8:	2801      	cmp	r0, #1
   258ca:	d107      	bne.n	258dc <_start+0x1798>
   258cc:	f001 f996 	bl	26bfc <_start+0x2ab8>
   258d0:	000013cc 	.word	0x000013cc
   258d4:	00000900 	.word	0x00000900
   258d8:	00001370 	.word	0x00001370
   258dc:	4915      	ldr	r1, [pc, #84]	@ (25934 <_start+0x17f0>)
   258de:	4469      	add	r1, sp
   258e0:	78c8      	ldrb	r0, [r1, #3]
   258e2:	4c15      	ldr	r4, [pc, #84]	@ (25938 <_start+0x17f4>)
   258e4:	446c      	add	r4, sp
   258e6:	70a0      	strb	r0, [r4, #2]
   258e8:	7848      	ldrb	r0, [r1, #1]
   258ea:	788a      	ldrb	r2, [r1, #2]
   258ec:	0212      	lsls	r2, r2, #8
   258ee:	1810      	adds	r0, r2, r0
   258f0:	8020      	strh	r0, [r4, #0]
   258f2:	9805      	ldr	r0, [sp, #20]
   258f4:	6e05      	ldr	r5, [r0, #96]	@ 0x60
   258f6:	3108      	adds	r1, #8
   258f8:	4810      	ldr	r0, [pc, #64]	@ (2593c <_start+0x17f8>)
   258fa:	4468      	add	r0, sp
   258fc:	900c      	str	r0, [sp, #48]	@ 0x30
   258fe:	264c      	movs	r6, #76	@ 0x4c
   25900:	4632      	mov	r2, r6
   25902:	f001 fa22 	bl	26d4a <__aeabi_memcpy4>
   25906:	0e28      	lsrs	r0, r5, #24
   25908:	71a0      	strb	r0, [r4, #6]
   2590a:	0c28      	lsrs	r0, r5, #16
   2590c:	7160      	strb	r0, [r4, #5]
   2590e:	0a28      	lsrs	r0, r5, #8
   25910:	7120      	strb	r0, [r4, #4]
   25912:	70e5      	strb	r5, [r4, #3]
   25914:	1de0      	adds	r0, r4, #7
   25916:	990c      	ldr	r1, [sp, #48]	@ 0x30
   25918:	4632      	mov	r2, r6
   2591a:	f001 fb76 	bl	2700a <__aeabi_memcpy>
   2591e:	4d05      	ldr	r5, [pc, #20]	@ (25934 <_start+0x17f0>)
   25920:	446d      	add	r5, sp
   25922:	4628      	mov	r0, r5
   25924:	4621      	mov	r1, r4
   25926:	f7fe fa5f 	bl	23de8 <_ZN18complex_no_dynamic3app17hf8c1850e49961b26E>
   2592a:	7828      	ldrb	r0, [r5, #0]
   2592c:	2801      	cmp	r0, #1
   2592e:	d107      	bne.n	25940 <_start+0x17fc>
   25930:	f001 f964 	bl	26bfc <_start+0x2ab8>
   25934:	000013cc 	.word	0x000013cc
   25938:	00000924 	.word	0x00000924
   2593c:	00001370 	.word	0x00001370
   25940:	4915      	ldr	r1, [pc, #84]	@ (25998 <_start+0x1854>)
   25942:	4469      	add	r1, sp
   25944:	78c8      	ldrb	r0, [r1, #3]
   25946:	4c15      	ldr	r4, [pc, #84]	@ (2599c <_start+0x1858>)
   25948:	446c      	add	r4, sp
   2594a:	70a0      	strb	r0, [r4, #2]
   2594c:	7848      	ldrb	r0, [r1, #1]
   2594e:	788a      	ldrb	r2, [r1, #2]
   25950:	0212      	lsls	r2, r2, #8
   25952:	1810      	adds	r0, r2, r0
   25954:	8020      	strh	r0, [r4, #0]
   25956:	9805      	ldr	r0, [sp, #20]
   25958:	6e05      	ldr	r5, [r0, #96]	@ 0x60
   2595a:	3108      	adds	r1, #8
   2595c:	4810      	ldr	r0, [pc, #64]	@ (259a0 <_start+0x185c>)
   2595e:	4468      	add	r0, sp
   25960:	900c      	str	r0, [sp, #48]	@ 0x30
   25962:	2646      	movs	r6, #70	@ 0x46
   25964:	4632      	mov	r2, r6
   25966:	f001 f9f0 	bl	26d4a <__aeabi_memcpy4>
   2596a:	0e28      	lsrs	r0, r5, #24
   2596c:	71a0      	strb	r0, [r4, #6]
   2596e:	0c28      	lsrs	r0, r5, #16
   25970:	7160      	strb	r0, [r4, #5]
   25972:	0a28      	lsrs	r0, r5, #8
   25974:	7120      	strb	r0, [r4, #4]
   25976:	70e5      	strb	r5, [r4, #3]
   25978:	1de0      	adds	r0, r4, #7
   2597a:	990c      	ldr	r1, [sp, #48]	@ 0x30
   2597c:	4632      	mov	r2, r6
   2597e:	f001 fb44 	bl	2700a <__aeabi_memcpy>
   25982:	4d05      	ldr	r5, [pc, #20]	@ (25998 <_start+0x1854>)
   25984:	446d      	add	r5, sp
   25986:	4628      	mov	r0, r5
   25988:	4621      	mov	r1, r4
   2598a:	f7fb fd03 	bl	21394 <_ZN18complex_no_dynamic3app17h5809bc83b53335b0E>
   2598e:	7828      	ldrb	r0, [r5, #0]
   25990:	2801      	cmp	r0, #1
   25992:	d107      	bne.n	259a4 <_start+0x1860>
   25994:	f001 f932 	bl	26bfc <_start+0x2ab8>
   25998:	000013cc 	.word	0x000013cc
   2599c:	00000978 	.word	0x00000978
   259a0:	00001370 	.word	0x00001370
   259a4:	4819      	ldr	r0, [pc, #100]	@ (25a0c <_start+0x18c8>)
   259a6:	4468      	add	r0, sp
   259a8:	78c1      	ldrb	r1, [r0, #3]
   259aa:	4c19      	ldr	r4, [pc, #100]	@ (25a10 <_start+0x18cc>)
   259ac:	446c      	add	r4, sp
   259ae:	70a1      	strb	r1, [r4, #2]
   259b0:	7841      	ldrb	r1, [r0, #1]
   259b2:	7882      	ldrb	r2, [r0, #2]
   259b4:	0212      	lsls	r2, r2, #8
   259b6:	1851      	adds	r1, r2, r1
   259b8:	8021      	strh	r1, [r4, #0]
   259ba:	3008      	adds	r0, #8
   259bc:	9905      	ldr	r1, [sp, #20]
   259be:	6e09      	ldr	r1, [r1, #96]	@ 0x60
   259c0:	910b      	str	r1, [sp, #44]	@ 0x2c
   259c2:	4b14      	ldr	r3, [pc, #80]	@ (25a14 <_start+0x18d0>)
   259c4:	446b      	add	r3, sp
   259c6:	930c      	str	r3, [sp, #48]	@ 0x30
   259c8:	c864      	ldmia	r0!, {r2, r5, r6}
   259ca:	c364      	stmia	r3!, {r2, r5, r6}
   259cc:	c864      	ldmia	r0!, {r2, r5, r6}
   259ce:	c364      	stmia	r3!, {r2, r5, r6}
   259d0:	c864      	ldmia	r0!, {r2, r5, r6}
   259d2:	c364      	stmia	r3!, {r2, r5, r6}
   259d4:	c866      	ldmia	r0!, {r1, r2, r5, r6}
   259d6:	c366      	stmia	r3!, {r1, r2, r5, r6}
   259d8:	7800      	ldrb	r0, [r0, #0]
   259da:	7018      	strb	r0, [r3, #0]
   259dc:	990b      	ldr	r1, [sp, #44]	@ 0x2c
   259de:	0e08      	lsrs	r0, r1, #24
   259e0:	71a0      	strb	r0, [r4, #6]
   259e2:	0c08      	lsrs	r0, r1, #16
   259e4:	7160      	strb	r0, [r4, #5]
   259e6:	0a08      	lsrs	r0, r1, #8
   259e8:	7120      	strb	r0, [r4, #4]
   259ea:	70e1      	strb	r1, [r4, #3]
   259ec:	1de0      	adds	r0, r4, #7
   259ee:	2235      	movs	r2, #53	@ 0x35
   259f0:	990c      	ldr	r1, [sp, #48]	@ 0x30
   259f2:	f001 fb0a 	bl	2700a <__aeabi_memcpy>
   259f6:	4d05      	ldr	r5, [pc, #20]	@ (25a0c <_start+0x18c8>)
   259f8:	446d      	add	r5, sp
   259fa:	4628      	mov	r0, r5
   259fc:	4621      	mov	r1, r4
   259fe:	f7fa fd9f 	bl	20540 <_ZN18complex_no_dynamic3app17h205b6bbb5ee8fdffE>
   25a02:	7828      	ldrb	r0, [r5, #0]
   25a04:	2801      	cmp	r0, #1
   25a06:	d107      	bne.n	25a18 <_start+0x18d4>
   25a08:	f001 f8f8 	bl	26bfc <_start+0x2ab8>
   25a0c:	000013cc 	.word	0x000013cc
   25a10:	000009c8 	.word	0x000009c8
   25a14:	00001370 	.word	0x00001370
   25a18:	4818      	ldr	r0, [pc, #96]	@ (25a7c <_start+0x1938>)
   25a1a:	4468      	add	r0, sp
   25a1c:	78c1      	ldrb	r1, [r0, #3]
   25a1e:	4c18      	ldr	r4, [pc, #96]	@ (25a80 <_start+0x193c>)
   25a20:	446c      	add	r4, sp
   25a22:	70a1      	strb	r1, [r4, #2]
   25a24:	7841      	ldrb	r1, [r0, #1]
   25a26:	7882      	ldrb	r2, [r0, #2]
   25a28:	0212      	lsls	r2, r2, #8
   25a2a:	1851      	adds	r1, r2, r1
   25a2c:	8021      	strh	r1, [r4, #0]
   25a2e:	3008      	adds	r0, #8
   25a30:	9905      	ldr	r1, [sp, #20]
   25a32:	6e09      	ldr	r1, [r1, #96]	@ 0x60
   25a34:	910b      	str	r1, [sp, #44]	@ 0x2c
   25a36:	4b13      	ldr	r3, [pc, #76]	@ (25a84 <_start+0x1940>)
   25a38:	446b      	add	r3, sp
   25a3a:	930c      	str	r3, [sp, #48]	@ 0x30
   25a3c:	c866      	ldmia	r0!, {r1, r2, r5, r6}
   25a3e:	c366      	stmia	r3!, {r1, r2, r5, r6}
   25a40:	c866      	ldmia	r0!, {r1, r2, r5, r6}
   25a42:	c366      	stmia	r3!, {r1, r2, r5, r6}
   25a44:	c866      	ldmia	r0!, {r1, r2, r5, r6}
   25a46:	c366      	stmia	r3!, {r1, r2, r5, r6}
   25a48:	7800      	ldrb	r0, [r0, #0]
   25a4a:	7018      	strb	r0, [r3, #0]
   25a4c:	990b      	ldr	r1, [sp, #44]	@ 0x2c
   25a4e:	0e08      	lsrs	r0, r1, #24
   25a50:	71a0      	strb	r0, [r4, #6]
   25a52:	0c08      	lsrs	r0, r1, #16
   25a54:	7160      	strb	r0, [r4, #5]
   25a56:	0a08      	lsrs	r0, r1, #8
   25a58:	7120      	strb	r0, [r4, #4]
   25a5a:	70e1      	strb	r1, [r4, #3]
   25a5c:	1de0      	adds	r0, r4, #7
   25a5e:	2231      	movs	r2, #49	@ 0x31
   25a60:	990c      	ldr	r1, [sp, #48]	@ 0x30
   25a62:	f001 fad2 	bl	2700a <__aeabi_memcpy>
   25a66:	4d05      	ldr	r5, [pc, #20]	@ (25a7c <_start+0x1938>)
   25a68:	446d      	add	r5, sp
   25a6a:	4628      	mov	r0, r5
   25a6c:	4621      	mov	r1, r4
   25a6e:	f7fb fe9d 	bl	217ac <_ZN18complex_no_dynamic3app17h6201aec7f4816fa2E>
   25a72:	7828      	ldrb	r0, [r5, #0]
   25a74:	2801      	cmp	r0, #1
   25a76:	d107      	bne.n	25a88 <_start+0x1944>
   25a78:	f001 f8c0 	bl	26bfc <_start+0x2ab8>
   25a7c:	000013cc 	.word	0x000013cc
   25a80:	00000a04 	.word	0x00000a04
   25a84:	00001370 	.word	0x00001370
   25a88:	4816      	ldr	r0, [pc, #88]	@ (25ae4 <_start+0x19a0>)
   25a8a:	4468      	add	r0, sp
   25a8c:	78c1      	ldrb	r1, [r0, #3]
   25a8e:	4c16      	ldr	r4, [pc, #88]	@ (25ae8 <_start+0x19a4>)
   25a90:	446c      	add	r4, sp
   25a92:	70a1      	strb	r1, [r4, #2]
   25a94:	7841      	ldrb	r1, [r0, #1]
   25a96:	7882      	ldrb	r2, [r0, #2]
   25a98:	0212      	lsls	r2, r2, #8
   25a9a:	1851      	adds	r1, r2, r1
   25a9c:	8021      	strh	r1, [r4, #0]
   25a9e:	3008      	adds	r0, #8
   25aa0:	9905      	ldr	r1, [sp, #20]
   25aa2:	6e09      	ldr	r1, [r1, #96]	@ 0x60
   25aa4:	910b      	str	r1, [sp, #44]	@ 0x2c
   25aa6:	4b11      	ldr	r3, [pc, #68]	@ (25aec <_start+0x19a8>)
   25aa8:	446b      	add	r3, sp
   25aaa:	930c      	str	r3, [sp, #48]	@ 0x30
   25aac:	c866      	ldmia	r0!, {r1, r2, r5, r6}
   25aae:	c366      	stmia	r3!, {r1, r2, r5, r6}
   25ab0:	c866      	ldmia	r0!, {r1, r2, r5, r6}
   25ab2:	c366      	stmia	r3!, {r1, r2, r5, r6}
   25ab4:	990b      	ldr	r1, [sp, #44]	@ 0x2c
   25ab6:	0e08      	lsrs	r0, r1, #24
   25ab8:	71a0      	strb	r0, [r4, #6]
   25aba:	0c08      	lsrs	r0, r1, #16
   25abc:	7160      	strb	r0, [r4, #5]
   25abe:	0a08      	lsrs	r0, r1, #8
   25ac0:	7120      	strb	r0, [r4, #4]
   25ac2:	70e1      	strb	r1, [r4, #3]
   25ac4:	1de0      	adds	r0, r4, #7
   25ac6:	2220      	movs	r2, #32
   25ac8:	990c      	ldr	r1, [sp, #48]	@ 0x30
   25aca:	f001 fa9e 	bl	2700a <__aeabi_memcpy>
   25ace:	4d05      	ldr	r5, [pc, #20]	@ (25ae4 <_start+0x19a0>)
   25ad0:	446d      	add	r5, sp
   25ad2:	4628      	mov	r0, r5
   25ad4:	4621      	mov	r1, r4
   25ad6:	f7fc fe3d 	bl	22754 <_ZN18complex_no_dynamic3app17ha7d5891eb423c6b3E>
   25ada:	7828      	ldrb	r0, [r5, #0]
   25adc:	2801      	cmp	r0, #1
   25ade:	d107      	bne.n	25af0 <_start+0x19ac>
   25ae0:	f001 f88c 	bl	26bfc <_start+0x2ab8>
   25ae4:	000013cc 	.word	0x000013cc
   25ae8:	00000a3c 	.word	0x00000a3c
   25aec:	00001370 	.word	0x00001370
   25af0:	4915      	ldr	r1, [pc, #84]	@ (25b48 <_start+0x1a04>)
   25af2:	4469      	add	r1, sp
   25af4:	78c8      	ldrb	r0, [r1, #3]
   25af6:	4c15      	ldr	r4, [pc, #84]	@ (25b4c <_start+0x1a08>)
   25af8:	446c      	add	r4, sp
   25afa:	70a0      	strb	r0, [r4, #2]
   25afc:	7848      	ldrb	r0, [r1, #1]
   25afe:	788a      	ldrb	r2, [r1, #2]
   25b00:	0212      	lsls	r2, r2, #8
   25b02:	1810      	adds	r0, r2, r0
   25b04:	8020      	strh	r0, [r4, #0]
   25b06:	9805      	ldr	r0, [sp, #20]
   25b08:	6e05      	ldr	r5, [r0, #96]	@ 0x60
   25b0a:	3108      	adds	r1, #8
   25b0c:	4810      	ldr	r0, [pc, #64]	@ (25b50 <_start+0x1a0c>)
   25b0e:	4468      	add	r0, sp
   25b10:	900c      	str	r0, [sp, #48]	@ 0x30
   25b12:	264a      	movs	r6, #74	@ 0x4a
   25b14:	4632      	mov	r2, r6
   25b16:	f001 f918 	bl	26d4a <__aeabi_memcpy4>
   25b1a:	0e28      	lsrs	r0, r5, #24
   25b1c:	71a0      	strb	r0, [r4, #6]
   25b1e:	0c28      	lsrs	r0, r5, #16
   25b20:	7160      	strb	r0, [r4, #5]
   25b22:	0a28      	lsrs	r0, r5, #8
   25b24:	7120      	strb	r0, [r4, #4]
   25b26:	70e5      	strb	r5, [r4, #3]
   25b28:	1de0      	adds	r0, r4, #7
   25b2a:	990c      	ldr	r1, [sp, #48]	@ 0x30
   25b2c:	4632      	mov	r2, r6
   25b2e:	f001 fa6c 	bl	2700a <__aeabi_memcpy>
   25b32:	4d05      	ldr	r5, [pc, #20]	@ (25b48 <_start+0x1a04>)
   25b34:	446d      	add	r5, sp
   25b36:	4628      	mov	r0, r5
   25b38:	4621      	mov	r1, r4
   25b3a:	f7fc ff63 	bl	22a04 <_ZN18complex_no_dynamic3app17haaecfc6404d6f944E>
   25b3e:	7828      	ldrb	r0, [r5, #0]
   25b40:	2801      	cmp	r0, #1
   25b42:	d107      	bne.n	25b54 <_start+0x1a10>
   25b44:	f001 f85a 	bl	26bfc <_start+0x2ab8>
   25b48:	000013cc 	.word	0x000013cc
   25b4c:	00000a64 	.word	0x00000a64
   25b50:	00001370 	.word	0x00001370
   25b54:	4915      	ldr	r1, [pc, #84]	@ (25bac <_start+0x1a68>)
   25b56:	4469      	add	r1, sp
   25b58:	78c8      	ldrb	r0, [r1, #3]
   25b5a:	4c15      	ldr	r4, [pc, #84]	@ (25bb0 <_start+0x1a6c>)
   25b5c:	446c      	add	r4, sp
   25b5e:	70a0      	strb	r0, [r4, #2]
   25b60:	7848      	ldrb	r0, [r1, #1]
   25b62:	788a      	ldrb	r2, [r1, #2]
   25b64:	0212      	lsls	r2, r2, #8
   25b66:	1810      	adds	r0, r2, r0
   25b68:	8020      	strh	r0, [r4, #0]
   25b6a:	9805      	ldr	r0, [sp, #20]
   25b6c:	6e05      	ldr	r5, [r0, #96]	@ 0x60
   25b6e:	3108      	adds	r1, #8
   25b70:	4810      	ldr	r0, [pc, #64]	@ (25bb4 <_start+0x1a70>)
   25b72:	4468      	add	r0, sp
   25b74:	900c      	str	r0, [sp, #48]	@ 0x30
   25b76:	2648      	movs	r6, #72	@ 0x48
   25b78:	4632      	mov	r2, r6
   25b7a:	f001 f8e6 	bl	26d4a <__aeabi_memcpy4>
   25b7e:	0e28      	lsrs	r0, r5, #24
   25b80:	71a0      	strb	r0, [r4, #6]
   25b82:	0c28      	lsrs	r0, r5, #16
   25b84:	7160      	strb	r0, [r4, #5]
   25b86:	0a28      	lsrs	r0, r5, #8
   25b88:	7120      	strb	r0, [r4, #4]
   25b8a:	70e5      	strb	r5, [r4, #3]
   25b8c:	1de0      	adds	r0, r4, #7
   25b8e:	990c      	ldr	r1, [sp, #48]	@ 0x30
   25b90:	4632      	mov	r2, r6
   25b92:	f001 fa3a 	bl	2700a <__aeabi_memcpy>
   25b96:	4d05      	ldr	r5, [pc, #20]	@ (25bac <_start+0x1a68>)
   25b98:	446d      	add	r5, sp
   25b9a:	4628      	mov	r0, r5
   25b9c:	4621      	mov	r1, r4
   25b9e:	f7fc f961 	bl	21e64 <_ZN18complex_no_dynamic3app17h92a93e3a68529efaE>
   25ba2:	7828      	ldrb	r0, [r5, #0]
   25ba4:	2801      	cmp	r0, #1
   25ba6:	d107      	bne.n	25bb8 <_start+0x1a74>
   25ba8:	f001 f828 	bl	26bfc <_start+0x2ab8>
   25bac:	000013cc 	.word	0x000013cc
   25bb0:	00000ab8 	.word	0x00000ab8
   25bb4:	00001370 	.word	0x00001370
   25bb8:	4915      	ldr	r1, [pc, #84]	@ (25c10 <_start+0x1acc>)
   25bba:	4469      	add	r1, sp
   25bbc:	78c8      	ldrb	r0, [r1, #3]
   25bbe:	4c15      	ldr	r4, [pc, #84]	@ (25c14 <_start+0x1ad0>)
   25bc0:	446c      	add	r4, sp
   25bc2:	70a0      	strb	r0, [r4, #2]
   25bc4:	7848      	ldrb	r0, [r1, #1]
   25bc6:	788a      	ldrb	r2, [r1, #2]
   25bc8:	0212      	lsls	r2, r2, #8
   25bca:	1810      	adds	r0, r2, r0
   25bcc:	8020      	strh	r0, [r4, #0]
   25bce:	9805      	ldr	r0, [sp, #20]
   25bd0:	6e05      	ldr	r5, [r0, #96]	@ 0x60
   25bd2:	3108      	adds	r1, #8
   25bd4:	4810      	ldr	r0, [pc, #64]	@ (25c18 <_start+0x1ad4>)
   25bd6:	4468      	add	r0, sp
   25bd8:	900c      	str	r0, [sp, #48]	@ 0x30
   25bda:	265a      	movs	r6, #90	@ 0x5a
   25bdc:	4632      	mov	r2, r6
   25bde:	f001 f8b4 	bl	26d4a <__aeabi_memcpy4>
   25be2:	0e28      	lsrs	r0, r5, #24
   25be4:	71a0      	strb	r0, [r4, #6]
   25be6:	0c28      	lsrs	r0, r5, #16
   25be8:	7160      	strb	r0, [r4, #5]
   25bea:	0a28      	lsrs	r0, r5, #8
   25bec:	7120      	strb	r0, [r4, #4]
   25bee:	70e5      	strb	r5, [r4, #3]
   25bf0:	1de0      	adds	r0, r4, #7
   25bf2:	990c      	ldr	r1, [sp, #48]	@ 0x30
   25bf4:	4632      	mov	r2, r6
   25bf6:	f001 fa08 	bl	2700a <__aeabi_memcpy>
   25bfa:	4d05      	ldr	r5, [pc, #20]	@ (25c10 <_start+0x1acc>)
   25bfc:	446d      	add	r5, sp
   25bfe:	4628      	mov	r0, r5
   25c00:	4621      	mov	r1, r4
   25c02:	f7fd f9b3 	bl	22f6c <_ZN18complex_no_dynamic3app17hb9c8e8cd4b60bf4cE>
   25c06:	7828      	ldrb	r0, [r5, #0]
   25c08:	2801      	cmp	r0, #1
   25c0a:	d107      	bne.n	25c1c <_start+0x1ad8>
   25c0c:	f000 fff6 	bl	26bfc <_start+0x2ab8>
   25c10:	000013cc 	.word	0x000013cc
   25c14:	00000b08 	.word	0x00000b08
   25c18:	00001370 	.word	0x00001370
   25c1c:	4817      	ldr	r0, [pc, #92]	@ (25c7c <_start+0x1b38>)
   25c1e:	4468      	add	r0, sp
   25c20:	78c1      	ldrb	r1, [r0, #3]
   25c22:	4c17      	ldr	r4, [pc, #92]	@ (25c80 <_start+0x1b3c>)
   25c24:	446c      	add	r4, sp
   25c26:	70a1      	strb	r1, [r4, #2]
   25c28:	7841      	ldrb	r1, [r0, #1]
   25c2a:	7882      	ldrb	r2, [r0, #2]
   25c2c:	0212      	lsls	r2, r2, #8
   25c2e:	1851      	adds	r1, r2, r1
   25c30:	8021      	strh	r1, [r4, #0]
   25c32:	3008      	adds	r0, #8
   25c34:	9905      	ldr	r1, [sp, #20]
   25c36:	6e09      	ldr	r1, [r1, #96]	@ 0x60
   25c38:	4b12      	ldr	r3, [pc, #72]	@ (25c84 <_start+0x1b40>)
   25c3a:	446b      	add	r3, sp
   25c3c:	930c      	str	r3, [sp, #48]	@ 0x30
   25c3e:	c860      	ldmia	r0!, {r5, r6}
   25c40:	c360      	stmia	r3!, {r5, r6}
   25c42:	c864      	ldmia	r0!, {r2, r5, r6}
   25c44:	c364      	stmia	r3!, {r2, r5, r6}
   25c46:	8802      	ldrh	r2, [r0, #0]
   25c48:	801a      	strh	r2, [r3, #0]
   25c4a:	7880      	ldrb	r0, [r0, #2]
   25c4c:	7098      	strb	r0, [r3, #2]
   25c4e:	0e08      	lsrs	r0, r1, #24
   25c50:	71a0      	strb	r0, [r4, #6]
   25c52:	0c08      	lsrs	r0, r1, #16
   25c54:	7160      	strb	r0, [r4, #5]
   25c56:	0a08      	lsrs	r0, r1, #8
   25c58:	7120      	strb	r0, [r4, #4]
   25c5a:	70e1      	strb	r1, [r4, #3]
   25c5c:	1de0      	adds	r0, r4, #7
   25c5e:	2217      	movs	r2, #23
   25c60:	990c      	ldr	r1, [sp, #48]	@ 0x30
   25c62:	f001 f9d2 	bl	2700a <__aeabi_memcpy>
   25c66:	4d05      	ldr	r5, [pc, #20]	@ (25c7c <_start+0x1b38>)
   25c68:	446d      	add	r5, sp
   25c6a:	4628      	mov	r0, r5
   25c6c:	4621      	mov	r1, r4
   25c6e:	f7fe f9bd 	bl	23fec <_ZN18complex_no_dynamic3app17hfc59a770a284ace0E>
   25c72:	7828      	ldrb	r0, [r5, #0]
   25c74:	2801      	cmp	r0, #1
   25c76:	d107      	bne.n	25c88 <_start+0x1b44>
   25c78:	f000 ffc0 	bl	26bfc <_start+0x2ab8>
   25c7c:	000013cc 	.word	0x000013cc
   25c80:	00000b6c 	.word	0x00000b6c
   25c84:	00001370 	.word	0x00001370
   25c88:	4816      	ldr	r0, [pc, #88]	@ (25ce4 <_start+0x1ba0>)
   25c8a:	4468      	add	r0, sp
   25c8c:	78c1      	ldrb	r1, [r0, #3]
   25c8e:	4c16      	ldr	r4, [pc, #88]	@ (25ce8 <_start+0x1ba4>)
   25c90:	446c      	add	r4, sp
   25c92:	70a1      	strb	r1, [r4, #2]
   25c94:	7841      	ldrb	r1, [r0, #1]
   25c96:	7882      	ldrb	r2, [r0, #2]
   25c98:	0212      	lsls	r2, r2, #8
   25c9a:	1851      	adds	r1, r2, r1
   25c9c:	8021      	strh	r1, [r4, #0]
   25c9e:	3008      	adds	r0, #8
   25ca0:	9905      	ldr	r1, [sp, #20]
   25ca2:	6e09      	ldr	r1, [r1, #96]	@ 0x60
   25ca4:	4b11      	ldr	r3, [pc, #68]	@ (25cec <_start+0x1ba8>)
   25ca6:	446b      	add	r3, sp
   25ca8:	930c      	str	r3, [sp, #48]	@ 0x30
   25caa:	c864      	ldmia	r0!, {r2, r5, r6}
   25cac:	c364      	stmia	r3!, {r2, r5, r6}
   25cae:	c864      	ldmia	r0!, {r2, r5, r6}
   25cb0:	c364      	stmia	r3!, {r2, r5, r6}
   25cb2:	8800      	ldrh	r0, [r0, #0]
   25cb4:	8018      	strh	r0, [r3, #0]
   25cb6:	0e08      	lsrs	r0, r1, #24
   25cb8:	71a0      	strb	r0, [r4, #6]
   25cba:	0c08      	lsrs	r0, r1, #16
   25cbc:	7160      	strb	r0, [r4, #5]
   25cbe:	0a08      	lsrs	r0, r1, #8
   25cc0:	7120      	strb	r0, [r4, #4]
   25cc2:	70e1      	strb	r1, [r4, #3]
   25cc4:	1de0      	adds	r0, r4, #7
   25cc6:	221a      	movs	r2, #26
   25cc8:	990c      	ldr	r1, [sp, #48]	@ 0x30
   25cca:	f001 f99e 	bl	2700a <__aeabi_memcpy>
   25cce:	4d05      	ldr	r5, [pc, #20]	@ (25ce4 <_start+0x1ba0>)
   25cd0:	446d      	add	r5, sp
   25cd2:	4628      	mov	r0, r5
   25cd4:	4621      	mov	r1, r4
   25cd6:	f7fd f9a5 	bl	23024 <_ZN18complex_no_dynamic3app17hb9e6b6f82a75d08dE>
   25cda:	7828      	ldrb	r0, [r5, #0]
   25cdc:	2801      	cmp	r0, #1
   25cde:	d107      	bne.n	25cf0 <_start+0x1bac>
   25ce0:	f000 ff8c 	bl	26bfc <_start+0x2ab8>
   25ce4:	000013cc 	.word	0x000013cc
   25ce8:	00000b8c 	.word	0x00000b8c
   25cec:	00001370 	.word	0x00001370
   25cf0:	4818      	ldr	r0, [pc, #96]	@ (25d54 <_start+0x1c10>)
   25cf2:	4468      	add	r0, sp
   25cf4:	78c1      	ldrb	r1, [r0, #3]
   25cf6:	4c18      	ldr	r4, [pc, #96]	@ (25d58 <_start+0x1c14>)
   25cf8:	446c      	add	r4, sp
   25cfa:	70a1      	strb	r1, [r4, #2]
   25cfc:	7841      	ldrb	r1, [r0, #1]
   25cfe:	7882      	ldrb	r2, [r0, #2]
   25d00:	0212      	lsls	r2, r2, #8
   25d02:	1851      	adds	r1, r2, r1
   25d04:	8021      	strh	r1, [r4, #0]
   25d06:	3008      	adds	r0, #8
   25d08:	9905      	ldr	r1, [sp, #20]
   25d0a:	6e09      	ldr	r1, [r1, #96]	@ 0x60
   25d0c:	910b      	str	r1, [sp, #44]	@ 0x2c
   25d0e:	4b13      	ldr	r3, [pc, #76]	@ (25d5c <_start+0x1c18>)
   25d10:	446b      	add	r3, sp
   25d12:	930c      	str	r3, [sp, #48]	@ 0x30
   25d14:	c866      	ldmia	r0!, {r1, r2, r5, r6}
   25d16:	c366      	stmia	r3!, {r1, r2, r5, r6}
   25d18:	c866      	ldmia	r0!, {r1, r2, r5, r6}
   25d1a:	c366      	stmia	r3!, {r1, r2, r5, r6}
   25d1c:	8801      	ldrh	r1, [r0, #0]
   25d1e:	8019      	strh	r1, [r3, #0]
   25d20:	7880      	ldrb	r0, [r0, #2]
   25d22:	7098      	strb	r0, [r3, #2]
   25d24:	990b      	ldr	r1, [sp, #44]	@ 0x2c
   25d26:	0e08      	lsrs	r0, r1, #24
   25d28:	71a0      	strb	r0, [r4, #6]
   25d2a:	0c08      	lsrs	r0, r1, #16
   25d2c:	7160      	strb	r0, [r4, #5]
   25d2e:	0a08      	lsrs	r0, r1, #8
   25d30:	7120      	strb	r0, [r4, #4]
   25d32:	70e1      	strb	r1, [r4, #3]
   25d34:	1de0      	adds	r0, r4, #7
   25d36:	2223      	movs	r2, #35	@ 0x23
   25d38:	990c      	ldr	r1, [sp, #48]	@ 0x30
   25d3a:	f001 f966 	bl	2700a <__aeabi_memcpy>
   25d3e:	4d05      	ldr	r5, [pc, #20]	@ (25d54 <_start+0x1c10>)
   25d40:	446d      	add	r5, sp
   25d42:	4628      	mov	r0, r5
   25d44:	4621      	mov	r1, r4
   25d46:	f7fa f9cd 	bl	200e4 <_ZN18complex_no_dynamic3app17h00eed057019ae020E>
   25d4a:	7828      	ldrb	r0, [r5, #0]
   25d4c:	2801      	cmp	r0, #1
   25d4e:	d107      	bne.n	25d60 <_start+0x1c1c>
   25d50:	f000 ff54 	bl	26bfc <_start+0x2ab8>
   25d54:	000013cc 	.word	0x000013cc
   25d58:	00000bb0 	.word	0x00000bb0
   25d5c:	00001370 	.word	0x00001370
   25d60:	4915      	ldr	r1, [pc, #84]	@ (25db8 <_start+0x1c74>)
   25d62:	4469      	add	r1, sp
   25d64:	78c8      	ldrb	r0, [r1, #3]
   25d66:	4c15      	ldr	r4, [pc, #84]	@ (25dbc <_start+0x1c78>)
   25d68:	446c      	add	r4, sp
   25d6a:	70a0      	strb	r0, [r4, #2]
   25d6c:	7848      	ldrb	r0, [r1, #1]
   25d6e:	788a      	ldrb	r2, [r1, #2]
   25d70:	0212      	lsls	r2, r2, #8
   25d72:	1810      	adds	r0, r2, r0
   25d74:	8020      	strh	r0, [r4, #0]
   25d76:	9805      	ldr	r0, [sp, #20]
   25d78:	6e05      	ldr	r5, [r0, #96]	@ 0x60
   25d7a:	3108      	adds	r1, #8
   25d7c:	4810      	ldr	r0, [pc, #64]	@ (25dc0 <_start+0x1c7c>)
   25d7e:	4468      	add	r0, sp
   25d80:	900c      	str	r0, [sp, #48]	@ 0x30
   25d82:	2652      	movs	r6, #82	@ 0x52
   25d84:	4632      	mov	r2, r6
   25d86:	f000 ffe0 	bl	26d4a <__aeabi_memcpy4>
   25d8a:	0e28      	lsrs	r0, r5, #24
   25d8c:	71a0      	strb	r0, [r4, #6]
   25d8e:	0c28      	lsrs	r0, r5, #16
   25d90:	7160      	strb	r0, [r4, #5]
   25d92:	0a28      	lsrs	r0, r5, #8
   25d94:	7120      	strb	r0, [r4, #4]
   25d96:	70e5      	strb	r5, [r4, #3]
   25d98:	1de0      	adds	r0, r4, #7
   25d9a:	990c      	ldr	r1, [sp, #48]	@ 0x30
   25d9c:	4632      	mov	r2, r6
   25d9e:	f001 f934 	bl	2700a <__aeabi_memcpy>
   25da2:	4d05      	ldr	r5, [pc, #20]	@ (25db8 <_start+0x1c74>)
   25da4:	446d      	add	r5, sp
   25da6:	4628      	mov	r0, r5
   25da8:	4621      	mov	r1, r4
   25daa:	f7fa fe23 	bl	209f4 <_ZN18complex_no_dynamic3app17h2b3a08784a9434b0E>
   25dae:	7828      	ldrb	r0, [r5, #0]
   25db0:	2801      	cmp	r0, #1
   25db2:	d107      	bne.n	25dc4 <_start+0x1c80>
   25db4:	f000 ff22 	bl	26bfc <_start+0x2ab8>
   25db8:	000013cc 	.word	0x000013cc
   25dbc:	00000bdc 	.word	0x00000bdc
   25dc0:	00001370 	.word	0x00001370
   25dc4:	4915      	ldr	r1, [pc, #84]	@ (25e1c <_start+0x1cd8>)
   25dc6:	4469      	add	r1, sp
   25dc8:	78c8      	ldrb	r0, [r1, #3]
   25dca:	4c15      	ldr	r4, [pc, #84]	@ (25e20 <_start+0x1cdc>)
   25dcc:	446c      	add	r4, sp
   25dce:	70a0      	strb	r0, [r4, #2]
   25dd0:	7848      	ldrb	r0, [r1, #1]
   25dd2:	788a      	ldrb	r2, [r1, #2]
   25dd4:	0212      	lsls	r2, r2, #8
   25dd6:	1810      	adds	r0, r2, r0
   25dd8:	8020      	strh	r0, [r4, #0]
   25dda:	9805      	ldr	r0, [sp, #20]
   25ddc:	6e05      	ldr	r5, [r0, #96]	@ 0x60
   25dde:	3108      	adds	r1, #8
   25de0:	4810      	ldr	r0, [pc, #64]	@ (25e24 <_start+0x1ce0>)
   25de2:	4468      	add	r0, sp
   25de4:	900c      	str	r0, [sp, #48]	@ 0x30
   25de6:	2643      	movs	r6, #67	@ 0x43
   25de8:	4632      	mov	r2, r6
   25dea:	f000 ffae 	bl	26d4a <__aeabi_memcpy4>
   25dee:	0e28      	lsrs	r0, r5, #24
   25df0:	71a0      	strb	r0, [r4, #6]
   25df2:	0c28      	lsrs	r0, r5, #16
   25df4:	7160      	strb	r0, [r4, #5]
   25df6:	0a28      	lsrs	r0, r5, #8
   25df8:	7120      	strb	r0, [r4, #4]
   25dfa:	70e5      	strb	r5, [r4, #3]
   25dfc:	1de0      	adds	r0, r4, #7
   25dfe:	990c      	ldr	r1, [sp, #48]	@ 0x30
   25e00:	4632      	mov	r2, r6
   25e02:	f001 f902 	bl	2700a <__aeabi_memcpy>
   25e06:	4d05      	ldr	r5, [pc, #20]	@ (25e1c <_start+0x1cd8>)
   25e08:	446d      	add	r5, sp
   25e0a:	4628      	mov	r0, r5
   25e0c:	4621      	mov	r1, r4
   25e0e:	f7fc ffad 	bl	22d6c <_ZN18complex_no_dynamic3app17hb112d2baddaefcc4E>
   25e12:	7828      	ldrb	r0, [r5, #0]
   25e14:	2801      	cmp	r0, #1
   25e16:	d107      	bne.n	25e28 <_start+0x1ce4>
   25e18:	f000 fef0 	bl	26bfc <_start+0x2ab8>
   25e1c:	000013cc 	.word	0x000013cc
   25e20:	00000c38 	.word	0x00000c38
   25e24:	00001370 	.word	0x00001370
   25e28:	4817      	ldr	r0, [pc, #92]	@ (25e88 <_start+0x1d44>)
   25e2a:	4468      	add	r0, sp
   25e2c:	78c1      	ldrb	r1, [r0, #3]
   25e2e:	4c17      	ldr	r4, [pc, #92]	@ (25e8c <_start+0x1d48>)
   25e30:	446c      	add	r4, sp
   25e32:	70a1      	strb	r1, [r4, #2]
   25e34:	7841      	ldrb	r1, [r0, #1]
   25e36:	7882      	ldrb	r2, [r0, #2]
   25e38:	0212      	lsls	r2, r2, #8
   25e3a:	1851      	adds	r1, r2, r1
   25e3c:	8021      	strh	r1, [r4, #0]
   25e3e:	3008      	adds	r0, #8
   25e40:	9905      	ldr	r1, [sp, #20]
   25e42:	6e09      	ldr	r1, [r1, #96]	@ 0x60
   25e44:	4b12      	ldr	r3, [pc, #72]	@ (25e90 <_start+0x1d4c>)
   25e46:	446b      	add	r3, sp
   25e48:	930c      	str	r3, [sp, #48]	@ 0x30
   25e4a:	c864      	ldmia	r0!, {r2, r5, r6}
   25e4c:	c364      	stmia	r3!, {r2, r5, r6}
   25e4e:	c864      	ldmia	r0!, {r2, r5, r6}
   25e50:	c364      	stmia	r3!, {r2, r5, r6}
   25e52:	c864      	ldmia	r0!, {r2, r5, r6}
   25e54:	c364      	stmia	r3!, {r2, r5, r6}
   25e56:	8800      	ldrh	r0, [r0, #0]
   25e58:	8018      	strh	r0, [r3, #0]
   25e5a:	0e08      	lsrs	r0, r1, #24
   25e5c:	71a0      	strb	r0, [r4, #6]
   25e5e:	0c08      	lsrs	r0, r1, #16
   25e60:	7160      	strb	r0, [r4, #5]
   25e62:	0a08      	lsrs	r0, r1, #8
   25e64:	7120      	strb	r0, [r4, #4]
   25e66:	70e1      	strb	r1, [r4, #3]
   25e68:	1de0      	adds	r0, r4, #7
   25e6a:	2226      	movs	r2, #38	@ 0x26
   25e6c:	990c      	ldr	r1, [sp, #48]	@ 0x30
   25e6e:	f001 f8cc 	bl	2700a <__aeabi_memcpy>
   25e72:	4d05      	ldr	r5, [pc, #20]	@ (25e88 <_start+0x1d44>)
   25e74:	446d      	add	r5, sp
   25e76:	4628      	mov	r0, r5
   25e78:	4621      	mov	r1, r4
   25e7a:	f7fb fc41 	bl	21700 <_ZN18complex_no_dynamic3app17h605213c3d6be6c43E>
   25e7e:	7828      	ldrb	r0, [r5, #0]
   25e80:	2801      	cmp	r0, #1
   25e82:	d107      	bne.n	25e94 <_start+0x1d50>
   25e84:	f000 feba 	bl	26bfc <_start+0x2ab8>
   25e88:	000013cc 	.word	0x000013cc
   25e8c:	00000c84 	.word	0x00000c84
   25e90:	00001370 	.word	0x00001370
   25e94:	4915      	ldr	r1, [pc, #84]	@ (25eec <_start+0x1da8>)
   25e96:	4469      	add	r1, sp
   25e98:	78c8      	ldrb	r0, [r1, #3]
   25e9a:	4c15      	ldr	r4, [pc, #84]	@ (25ef0 <_start+0x1dac>)
   25e9c:	446c      	add	r4, sp
   25e9e:	70a0      	strb	r0, [r4, #2]
   25ea0:	7848      	ldrb	r0, [r1, #1]
   25ea2:	788a      	ldrb	r2, [r1, #2]
   25ea4:	0212      	lsls	r2, r2, #8
   25ea6:	1810      	adds	r0, r2, r0
   25ea8:	8020      	strh	r0, [r4, #0]
   25eaa:	9805      	ldr	r0, [sp, #20]
   25eac:	6e05      	ldr	r5, [r0, #96]	@ 0x60
   25eae:	3108      	adds	r1, #8
   25eb0:	4810      	ldr	r0, [pc, #64]	@ (25ef4 <_start+0x1db0>)
   25eb2:	4468      	add	r0, sp
   25eb4:	900c      	str	r0, [sp, #48]	@ 0x30
   25eb6:	264c      	movs	r6, #76	@ 0x4c
   25eb8:	4632      	mov	r2, r6
   25eba:	f000 ff46 	bl	26d4a <__aeabi_memcpy4>
   25ebe:	0e28      	lsrs	r0, r5, #24
   25ec0:	71a0      	strb	r0, [r4, #6]
   25ec2:	0c28      	lsrs	r0, r5, #16
   25ec4:	7160      	strb	r0, [r4, #5]
   25ec6:	0a28      	lsrs	r0, r5, #8
   25ec8:	7120      	strb	r0, [r4, #4]
   25eca:	70e5      	strb	r5, [r4, #3]
   25ecc:	1de0      	adds	r0, r4, #7
   25ece:	990c      	ldr	r1, [sp, #48]	@ 0x30
   25ed0:	4632      	mov	r2, r6
   25ed2:	f001 f89a 	bl	2700a <__aeabi_memcpy>
   25ed6:	4d05      	ldr	r5, [pc, #20]	@ (25eec <_start+0x1da8>)
   25ed8:	446d      	add	r5, sp
   25eda:	4628      	mov	r0, r5
   25edc:	4621      	mov	r1, r4
   25ede:	f7fd f9fb 	bl	232d8 <_ZN18complex_no_dynamic3app17hc0e311e6953dc172E>
   25ee2:	7828      	ldrb	r0, [r5, #0]
   25ee4:	2801      	cmp	r0, #1
   25ee6:	d107      	bne.n	25ef8 <_start+0x1db4>
   25ee8:	f000 fe88 	bl	26bfc <_start+0x2ab8>
   25eec:	000013cc 	.word	0x000013cc
   25ef0:	00000cb4 	.word	0x00000cb4
   25ef4:	00001370 	.word	0x00001370
   25ef8:	4819      	ldr	r0, [pc, #100]	@ (25f60 <_start+0x1e1c>)
   25efa:	4468      	add	r0, sp
   25efc:	78c1      	ldrb	r1, [r0, #3]
   25efe:	4c19      	ldr	r4, [pc, #100]	@ (25f64 <_start+0x1e20>)
   25f00:	446c      	add	r4, sp
   25f02:	70a1      	strb	r1, [r4, #2]
   25f04:	7841      	ldrb	r1, [r0, #1]
   25f06:	7882      	ldrb	r2, [r0, #2]
   25f08:	0212      	lsls	r2, r2, #8
   25f0a:	1851      	adds	r1, r2, r1
   25f0c:	8021      	strh	r1, [r4, #0]
   25f0e:	3008      	adds	r0, #8
   25f10:	9905      	ldr	r1, [sp, #20]
   25f12:	6e09      	ldr	r1, [r1, #96]	@ 0x60
   25f14:	910b      	str	r1, [sp, #44]	@ 0x2c
   25f16:	4b14      	ldr	r3, [pc, #80]	@ (25f68 <_start+0x1e24>)
   25f18:	446b      	add	r3, sp
   25f1a:	930c      	str	r3, [sp, #48]	@ 0x30
   25f1c:	c866      	ldmia	r0!, {r1, r2, r5, r6}
   25f1e:	c366      	stmia	r3!, {r1, r2, r5, r6}
   25f20:	c866      	ldmia	r0!, {r1, r2, r5, r6}
   25f22:	c366      	stmia	r3!, {r1, r2, r5, r6}
   25f24:	c866      	ldmia	r0!, {r1, r2, r5, r6}
   25f26:	c366      	stmia	r3!, {r1, r2, r5, r6}
   25f28:	8801      	ldrh	r1, [r0, #0]
   25f2a:	8019      	strh	r1, [r3, #0]
   25f2c:	7880      	ldrb	r0, [r0, #2]
   25f2e:	7098      	strb	r0, [r3, #2]
   25f30:	990b      	ldr	r1, [sp, #44]	@ 0x2c
   25f32:	0e08      	lsrs	r0, r1, #24
   25f34:	71a0      	strb	r0, [r4, #6]
   25f36:	0c08      	lsrs	r0, r1, #16
   25f38:	7160      	strb	r0, [r4, #5]
   25f3a:	0a08      	lsrs	r0, r1, #8
   25f3c:	7120      	strb	r0, [r4, #4]
   25f3e:	70e1      	strb	r1, [r4, #3]
   25f40:	1de0      	adds	r0, r4, #7
   25f42:	2233      	movs	r2, #51	@ 0x33
   25f44:	990c      	ldr	r1, [sp, #48]	@ 0x30
   25f46:	f001 f860 	bl	2700a <__aeabi_memcpy>
   25f4a:	4d05      	ldr	r5, [pc, #20]	@ (25f60 <_start+0x1e1c>)
   25f4c:	446d      	add	r5, sp
   25f4e:	4628      	mov	r0, r5
   25f50:	4621      	mov	r1, r4
   25f52:	f7fb fdd9 	bl	21b08 <_ZN18complex_no_dynamic3app17h72adf8f0463d80dfE>
   25f56:	7828      	ldrb	r0, [r5, #0]
   25f58:	2801      	cmp	r0, #1
   25f5a:	d107      	bne.n	25f6c <_start+0x1e28>
   25f5c:	f000 fe4e 	bl	26bfc <_start+0x2ab8>
   25f60:	000013cc 	.word	0x000013cc
   25f64:	00000d08 	.word	0x00000d08
   25f68:	00001370 	.word	0x00001370
   25f6c:	4915      	ldr	r1, [pc, #84]	@ (25fc4 <_start+0x1e80>)
   25f6e:	4469      	add	r1, sp
   25f70:	78c8      	ldrb	r0, [r1, #3]
   25f72:	4c15      	ldr	r4, [pc, #84]	@ (25fc8 <_start+0x1e84>)
   25f74:	446c      	add	r4, sp
   25f76:	70a0      	strb	r0, [r4, #2]
   25f78:	7848      	ldrb	r0, [r1, #1]
   25f7a:	788a      	ldrb	r2, [r1, #2]
   25f7c:	0212      	lsls	r2, r2, #8
   25f7e:	1810      	adds	r0, r2, r0
   25f80:	8020      	strh	r0, [r4, #0]
   25f82:	9805      	ldr	r0, [sp, #20]
   25f84:	6e05      	ldr	r5, [r0, #96]	@ 0x60
   25f86:	3108      	adds	r1, #8
   25f88:	4810      	ldr	r0, [pc, #64]	@ (25fcc <_start+0x1e88>)
   25f8a:	4468      	add	r0, sp
   25f8c:	900c      	str	r0, [sp, #48]	@ 0x30
   25f8e:	2656      	movs	r6, #86	@ 0x56
   25f90:	4632      	mov	r2, r6
   25f92:	f000 feda 	bl	26d4a <__aeabi_memcpy4>
   25f96:	0e28      	lsrs	r0, r5, #24
   25f98:	71a0      	strb	r0, [r4, #6]
   25f9a:	0c28      	lsrs	r0, r5, #16
   25f9c:	7160      	strb	r0, [r4, #5]
   25f9e:	0a28      	lsrs	r0, r5, #8
   25fa0:	7120      	strb	r0, [r4, #4]
   25fa2:	70e5      	strb	r5, [r4, #3]
   25fa4:	1de0      	adds	r0, r4, #7
   25fa6:	990c      	ldr	r1, [sp, #48]	@ 0x30
   25fa8:	4632      	mov	r2, r6
   25faa:	f001 f82e 	bl	2700a <__aeabi_memcpy>
   25fae:	4d05      	ldr	r5, [pc, #20]	@ (25fc4 <_start+0x1e80>)
   25fb0:	446d      	add	r5, sp
   25fb2:	4628      	mov	r0, r5
   25fb4:	4621      	mov	r1, r4
   25fb6:	f7fc f8cd 	bl	22154 <_ZN18complex_no_dynamic3app17h9893b7ffe69e3e59E>
   25fba:	7828      	ldrb	r0, [r5, #0]
   25fbc:	2801      	cmp	r0, #1
   25fbe:	d107      	bne.n	25fd0 <_start+0x1e8c>
   25fc0:	f000 fe1c 	bl	26bfc <_start+0x2ab8>
   25fc4:	000013cc 	.word	0x000013cc
   25fc8:	00000d44 	.word	0x00000d44
   25fcc:	00001370 	.word	0x00001370
   25fd0:	4819      	ldr	r0, [pc, #100]	@ (26038 <_start+0x1ef4>)
   25fd2:	4468      	add	r0, sp
   25fd4:	78c1      	ldrb	r1, [r0, #3]
   25fd6:	4c19      	ldr	r4, [pc, #100]	@ (2603c <_start+0x1ef8>)
   25fd8:	446c      	add	r4, sp
   25fda:	70a1      	strb	r1, [r4, #2]
   25fdc:	7841      	ldrb	r1, [r0, #1]
   25fde:	7882      	ldrb	r2, [r0, #2]
   25fe0:	0212      	lsls	r2, r2, #8
   25fe2:	1851      	adds	r1, r2, r1
   25fe4:	8021      	strh	r1, [r4, #0]
   25fe6:	3008      	adds	r0, #8
   25fe8:	9905      	ldr	r1, [sp, #20]
   25fea:	6e09      	ldr	r1, [r1, #96]	@ 0x60
   25fec:	910b      	str	r1, [sp, #44]	@ 0x2c
   25fee:	4b14      	ldr	r3, [pc, #80]	@ (26040 <_start+0x1efc>)
   25ff0:	446b      	add	r3, sp
   25ff2:	930c      	str	r3, [sp, #48]	@ 0x30
   25ff4:	c864      	ldmia	r0!, {r2, r5, r6}
   25ff6:	c364      	stmia	r3!, {r2, r5, r6}
   25ff8:	c866      	ldmia	r0!, {r1, r2, r5, r6}
   25ffa:	c366      	stmia	r3!, {r1, r2, r5, r6}
   25ffc:	c826      	ldmia	r0!, {r1, r2, r5}
   25ffe:	c326      	stmia	r3!, {r1, r2, r5}
   26000:	c866      	ldmia	r0!, {r1, r2, r5, r6}
   26002:	c366      	stmia	r3!, {r1, r2, r5, r6}
   26004:	7800      	ldrb	r0, [r0, #0]
   26006:	7018      	strb	r0, [r3, #0]
   26008:	990b      	ldr	r1, [sp, #44]	@ 0x2c
   2600a:	0e08      	lsrs	r0, r1, #24
   2600c:	71a0      	strb	r0, [r4, #6]
   2600e:	0c08      	lsrs	r0, r1, #16
   26010:	7160      	strb	r0, [r4, #5]
   26012:	0a08      	lsrs	r0, r1, #8
   26014:	7120      	strb	r0, [r4, #4]
   26016:	70e1      	strb	r1, [r4, #3]
   26018:	1de0      	adds	r0, r4, #7
   2601a:	2239      	movs	r2, #57	@ 0x39
   2601c:	990c      	ldr	r1, [sp, #48]	@ 0x30
   2601e:	f000 fff4 	bl	2700a <__aeabi_memcpy>
   26022:	4d05      	ldr	r5, [pc, #20]	@ (26038 <_start+0x1ef4>)
   26024:	446d      	add	r5, sp
   26026:	4628      	mov	r0, r5
   26028:	4621      	mov	r1, r4
   2602a:	f7fb fc15 	bl	21858 <_ZN18complex_no_dynamic3app17h637ba9b4f11ee823E>
   2602e:	7828      	ldrb	r0, [r5, #0]
   26030:	2801      	cmp	r0, #1
   26032:	d107      	bne.n	26044 <_start+0x1f00>
   26034:	f000 fde2 	bl	26bfc <_start+0x2ab8>
   26038:	000013cc 	.word	0x000013cc
   2603c:	00000da4 	.word	0x00000da4
   26040:	00001370 	.word	0x00001370
   26044:	4818      	ldr	r0, [pc, #96]	@ (260a8 <_start+0x1f64>)
   26046:	4468      	add	r0, sp
   26048:	78c1      	ldrb	r1, [r0, #3]
   2604a:	4c18      	ldr	r4, [pc, #96]	@ (260ac <_start+0x1f68>)
   2604c:	446c      	add	r4, sp
   2604e:	70a1      	strb	r1, [r4, #2]
   26050:	7841      	ldrb	r1, [r0, #1]
   26052:	7882      	ldrb	r2, [r0, #2]
   26054:	0212      	lsls	r2, r2, #8
   26056:	1851      	adds	r1, r2, r1
   26058:	8021      	strh	r1, [r4, #0]
   2605a:	3008      	adds	r0, #8
   2605c:	9905      	ldr	r1, [sp, #20]
   2605e:	6e09      	ldr	r1, [r1, #96]	@ 0x60
   26060:	910b      	str	r1, [sp, #44]	@ 0x2c
   26062:	4b13      	ldr	r3, [pc, #76]	@ (260b0 <_start+0x1f6c>)
   26064:	446b      	add	r3, sp
   26066:	930c      	str	r3, [sp, #48]	@ 0x30
   26068:	c864      	ldmia	r0!, {r2, r5, r6}
   2606a:	c364      	stmia	r3!, {r2, r5, r6}
   2606c:	c864      	ldmia	r0!, {r2, r5, r6}
   2606e:	c364      	stmia	r3!, {r2, r5, r6}
   26070:	c866      	ldmia	r0!, {r1, r2, r5, r6}
   26072:	c366      	stmia	r3!, {r1, r2, r5, r6}
   26074:	8800      	ldrh	r0, [r0, #0]
   26076:	8018      	strh	r0, [r3, #0]
   26078:	990b      	ldr	r1, [sp, #44]	@ 0x2c
   2607a:	0e08      	lsrs	r0, r1, #24
   2607c:	71a0      	strb	r0, [r4, #6]
   2607e:	0c08      	lsrs	r0, r1, #16
   26080:	7160      	strb	r0, [r4, #5]
   26082:	0a08      	lsrs	r0, r1, #8
   26084:	7120      	strb	r0, [r4, #4]
   26086:	70e1      	strb	r1, [r4, #3]
   26088:	1de0      	adds	r0, r4, #7
   2608a:	222a      	movs	r2, #42	@ 0x2a
   2608c:	990c      	ldr	r1, [sp, #48]	@ 0x30
   2608e:	f000 ffbc 	bl	2700a <__aeabi_memcpy>
   26092:	4d05      	ldr	r5, [pc, #20]	@ (260a8 <_start+0x1f64>)
   26094:	446d      	add	r5, sp
   26096:	4628      	mov	r0, r5
   26098:	4621      	mov	r1, r4
   2609a:	f7fc fb05 	bl	226a8 <_ZN18complex_no_dynamic3app17ha5015b3def7319b5E>
   2609e:	7828      	ldrb	r0, [r5, #0]
   260a0:	2801      	cmp	r0, #1
   260a2:	d107      	bne.n	260b4 <_start+0x1f70>
   260a4:	f000 fdaa 	bl	26bfc <_start+0x2ab8>
   260a8:	000013cc 	.word	0x000013cc
   260ac:	00000de4 	.word	0x00000de4
   260b0:	00001370 	.word	0x00001370
   260b4:	4915      	ldr	r1, [pc, #84]	@ (2610c <_start+0x1fc8>)
   260b6:	4469      	add	r1, sp
   260b8:	78c8      	ldrb	r0, [r1, #3]
   260ba:	4c15      	ldr	r4, [pc, #84]	@ (26110 <_start+0x1fcc>)
   260bc:	446c      	add	r4, sp
   260be:	70a0      	strb	r0, [r4, #2]
   260c0:	7848      	ldrb	r0, [r1, #1]
   260c2:	788a      	ldrb	r2, [r1, #2]
   260c4:	0212      	lsls	r2, r2, #8
   260c6:	1810      	adds	r0, r2, r0
   260c8:	8020      	strh	r0, [r4, #0]
   260ca:	9805      	ldr	r0, [sp, #20]
   260cc:	6e05      	ldr	r5, [r0, #96]	@ 0x60
   260ce:	3108      	adds	r1, #8
   260d0:	4810      	ldr	r0, [pc, #64]	@ (26114 <_start+0x1fd0>)
   260d2:	4468      	add	r0, sp
   260d4:	900c      	str	r0, [sp, #48]	@ 0x30
   260d6:	2641      	movs	r6, #65	@ 0x41
   260d8:	4632      	mov	r2, r6
   260da:	f000 fe36 	bl	26d4a <__aeabi_memcpy4>
   260de:	0e28      	lsrs	r0, r5, #24
   260e0:	71a0      	strb	r0, [r4, #6]
   260e2:	0c28      	lsrs	r0, r5, #16
   260e4:	7160      	strb	r0, [r4, #5]
   260e6:	0a28      	lsrs	r0, r5, #8
   260e8:	7120      	strb	r0, [r4, #4]
   260ea:	70e5      	strb	r5, [r4, #3]
   260ec:	1de0      	adds	r0, r4, #7
   260ee:	990c      	ldr	r1, [sp, #48]	@ 0x30
   260f0:	4632      	mov	r2, r6
   260f2:	f000 ff8a 	bl	2700a <__aeabi_memcpy>
   260f6:	4d05      	ldr	r5, [pc, #20]	@ (2610c <_start+0x1fc8>)
   260f8:	446d      	add	r5, sp
   260fa:	4628      	mov	r0, r5
   260fc:	4621      	mov	r1, r4
   260fe:	f7fa fb75 	bl	207ec <_ZN18complex_no_dynamic3app17h25b8b5041a213995E>
   26102:	7828      	ldrb	r0, [r5, #0]
   26104:	2801      	cmp	r0, #1
   26106:	d107      	bne.n	26118 <_start+0x1fd4>
   26108:	f000 fd78 	bl	26bfc <_start+0x2ab8>
   2610c:	000013cc 	.word	0x000013cc
   26110:	00000e18 	.word	0x00000e18
   26114:	00001370 	.word	0x00001370
   26118:	4817      	ldr	r0, [pc, #92]	@ (26178 <_start+0x2034>)
   2611a:	4468      	add	r0, sp
   2611c:	78c1      	ldrb	r1, [r0, #3]
   2611e:	4c17      	ldr	r4, [pc, #92]	@ (2617c <_start+0x2038>)
   26120:	446c      	add	r4, sp
   26122:	70a1      	strb	r1, [r4, #2]
   26124:	7841      	ldrb	r1, [r0, #1]
   26126:	7882      	ldrb	r2, [r0, #2]
   26128:	0212      	lsls	r2, r2, #8
   2612a:	1851      	adds	r1, r2, r1
   2612c:	8021      	strh	r1, [r4, #0]
   2612e:	3008      	adds	r0, #8
   26130:	9905      	ldr	r1, [sp, #20]
   26132:	6e09      	ldr	r1, [r1, #96]	@ 0x60
   26134:	910b      	str	r1, [sp, #44]	@ 0x2c
   26136:	4b12      	ldr	r3, [pc, #72]	@ (26180 <_start+0x203c>)
   26138:	446b      	add	r3, sp
   2613a:	930c      	str	r3, [sp, #48]	@ 0x30
   2613c:	c866      	ldmia	r0!, {r1, r2, r5, r6}
   2613e:	c366      	stmia	r3!, {r1, r2, r5, r6}
   26140:	c866      	ldmia	r0!, {r1, r2, r5, r6}
   26142:	c366      	stmia	r3!, {r1, r2, r5, r6}
   26144:	8800      	ldrh	r0, [r0, #0]
   26146:	8018      	strh	r0, [r3, #0]
   26148:	990b      	ldr	r1, [sp, #44]	@ 0x2c
   2614a:	0e08      	lsrs	r0, r1, #24
   2614c:	71a0      	strb	r0, [r4, #6]
   2614e:	0c08      	lsrs	r0, r1, #16
   26150:	7160      	strb	r0, [r4, #5]
   26152:	0a08      	lsrs	r0, r1, #8
   26154:	7120      	strb	r0, [r4, #4]
   26156:	70e1      	strb	r1, [r4, #3]
   26158:	1de0      	adds	r0, r4, #7
   2615a:	2222      	movs	r2, #34	@ 0x22
   2615c:	990c      	ldr	r1, [sp, #48]	@ 0x30
   2615e:	f000 ff54 	bl	2700a <__aeabi_memcpy>
   26162:	4d05      	ldr	r5, [pc, #20]	@ (26178 <_start+0x2034>)
   26164:	446d      	add	r5, sp
   26166:	4628      	mov	r0, r5
   26168:	4621      	mov	r1, r4
   2616a:	f7fb f9c1 	bl	214f0 <_ZN18complex_no_dynamic3app17h588fff34a965b866E>
   2616e:	7828      	ldrb	r0, [r5, #0]
   26170:	2801      	cmp	r0, #1
   26172:	d107      	bne.n	26184 <_start+0x2040>
   26174:	f000 fd42 	bl	26bfc <_start+0x2ab8>
   26178:	000013cc 	.word	0x000013cc
   2617c:	00000e60 	.word	0x00000e60
   26180:	00001370 	.word	0x00001370
   26184:	4817      	ldr	r0, [pc, #92]	@ (261e4 <_start+0x20a0>)
   26186:	4468      	add	r0, sp
   26188:	78c1      	ldrb	r1, [r0, #3]
   2618a:	4c17      	ldr	r4, [pc, #92]	@ (261e8 <_start+0x20a4>)
   2618c:	446c      	add	r4, sp
   2618e:	70a1      	strb	r1, [r4, #2]
   26190:	7841      	ldrb	r1, [r0, #1]
   26192:	7882      	ldrb	r2, [r0, #2]
   26194:	0212      	lsls	r2, r2, #8
   26196:	1851      	adds	r1, r2, r1
   26198:	8021      	strh	r1, [r4, #0]
   2619a:	3008      	adds	r0, #8
   2619c:	9905      	ldr	r1, [sp, #20]
   2619e:	6e09      	ldr	r1, [r1, #96]	@ 0x60
   261a0:	910b      	str	r1, [sp, #44]	@ 0x2c
   261a2:	4b12      	ldr	r3, [pc, #72]	@ (261ec <_start+0x20a8>)
   261a4:	446b      	add	r3, sp
   261a6:	930c      	str	r3, [sp, #48]	@ 0x30
   261a8:	c866      	ldmia	r0!, {r1, r2, r5, r6}
   261aa:	c366      	stmia	r3!, {r1, r2, r5, r6}
   261ac:	8801      	ldrh	r1, [r0, #0]
   261ae:	8019      	strh	r1, [r3, #0]
   261b0:	7880      	ldrb	r0, [r0, #2]
   261b2:	7098      	strb	r0, [r3, #2]
   261b4:	990b      	ldr	r1, [sp, #44]	@ 0x2c
   261b6:	0e08      	lsrs	r0, r1, #24
   261b8:	71a0      	strb	r0, [r4, #6]
   261ba:	0c08      	lsrs	r0, r1, #16
   261bc:	7160      	strb	r0, [r4, #5]
   261be:	0a08      	lsrs	r0, r1, #8
   261c0:	7120      	strb	r0, [r4, #4]
   261c2:	70e1      	strb	r1, [r4, #3]
   261c4:	1de0      	adds	r0, r4, #7
   261c6:	2213      	movs	r2, #19
   261c8:	990c      	ldr	r1, [sp, #48]	@ 0x30
   261ca:	f000 ff1e 	bl	2700a <__aeabi_memcpy>
   261ce:	4d05      	ldr	r5, [pc, #20]	@ (261e4 <_start+0x20a0>)
   261d0:	446d      	add	r5, sp
   261d2:	4628      	mov	r0, r5
   261d4:	4621      	mov	r1, r4
   261d6:	f7fd f9d5 	bl	23584 <_ZN18complex_no_dynamic3app17hd68ce61c59707fbaE>
   261da:	7828      	ldrb	r0, [r5, #0]
   261dc:	2801      	cmp	r0, #1
   261de:	d107      	bne.n	261f0 <_start+0x20ac>
   261e0:	f000 fd0c 	bl	26bfc <_start+0x2ab8>
   261e4:	000013cc 	.word	0x000013cc
   261e8:	00000e8c 	.word	0x00000e8c
   261ec:	00001370 	.word	0x00001370
   261f0:	4815      	ldr	r0, [pc, #84]	@ (26248 <_start+0x2104>)
   261f2:	4468      	add	r0, sp
   261f4:	78c1      	ldrb	r1, [r0, #3]
   261f6:	4c15      	ldr	r4, [pc, #84]	@ (2624c <_start+0x2108>)
   261f8:	446c      	add	r4, sp
   261fa:	70a1      	strb	r1, [r4, #2]
   261fc:	7841      	ldrb	r1, [r0, #1]
   261fe:	7882      	ldrb	r2, [r0, #2]
   26200:	0212      	lsls	r2, r2, #8
   26202:	1851      	adds	r1, r2, r1
   26204:	8021      	strh	r1, [r4, #0]
   26206:	3008      	adds	r0, #8
   26208:	9905      	ldr	r1, [sp, #20]
   2620a:	6e09      	ldr	r1, [r1, #96]	@ 0x60
   2620c:	4b10      	ldr	r3, [pc, #64]	@ (26250 <_start+0x210c>)
   2620e:	446b      	add	r3, sp
   26210:	930c      	str	r3, [sp, #48]	@ 0x30
   26212:	c860      	ldmia	r0!, {r5, r6}
   26214:	c360      	stmia	r3!, {r5, r6}
   26216:	c864      	ldmia	r0!, {r2, r5, r6}
   26218:	c364      	stmia	r3!, {r2, r5, r6}
   2621a:	0e08      	lsrs	r0, r1, #24
   2621c:	71a0      	strb	r0, [r4, #6]
   2621e:	0c08      	lsrs	r0, r1, #16
   26220:	7160      	strb	r0, [r4, #5]
   26222:	0a08      	lsrs	r0, r1, #8
   26224:	7120      	strb	r0, [r4, #4]
   26226:	70e1      	strb	r1, [r4, #3]
   26228:	1de0      	adds	r0, r4, #7
   2622a:	2214      	movs	r2, #20
   2622c:	990c      	ldr	r1, [sp, #48]	@ 0x30
   2622e:	f000 feec 	bl	2700a <__aeabi_memcpy>
   26232:	4d05      	ldr	r5, [pc, #20]	@ (26248 <_start+0x2104>)
   26234:	446d      	add	r5, sp
   26236:	4628      	mov	r0, r5
   26238:	4621      	mov	r1, r4
   2623a:	f7fb ff35 	bl	220a8 <_ZN18complex_no_dynamic3app17h981adf012c0d073aE>
   2623e:	7828      	ldrb	r0, [r5, #0]
   26240:	2801      	cmp	r0, #1
   26242:	d107      	bne.n	26254 <_start+0x2110>
   26244:	f000 fcda 	bl	26bfc <_start+0x2ab8>
   26248:	000013cc 	.word	0x000013cc
   2624c:	00000ea8 	.word	0x00000ea8
   26250:	00001370 	.word	0x00001370
   26254:	4819      	ldr	r0, [pc, #100]	@ (262bc <_start+0x2178>)
   26256:	4468      	add	r0, sp
   26258:	78c1      	ldrb	r1, [r0, #3]
   2625a:	4c19      	ldr	r4, [pc, #100]	@ (262c0 <_start+0x217c>)
   2625c:	446c      	add	r4, sp
   2625e:	70a1      	strb	r1, [r4, #2]
   26260:	7841      	ldrb	r1, [r0, #1]
   26262:	7882      	ldrb	r2, [r0, #2]
   26264:	0212      	lsls	r2, r2, #8
   26266:	1851      	adds	r1, r2, r1
   26268:	8021      	strh	r1, [r4, #0]
   2626a:	3008      	adds	r0, #8
   2626c:	9905      	ldr	r1, [sp, #20]
   2626e:	6e09      	ldr	r1, [r1, #96]	@ 0x60
   26270:	910b      	str	r1, [sp, #44]	@ 0x2c
   26272:	4b14      	ldr	r3, [pc, #80]	@ (262c4 <_start+0x2180>)
   26274:	446b      	add	r3, sp
   26276:	930c      	str	r3, [sp, #48]	@ 0x30
   26278:	c864      	ldmia	r0!, {r2, r5, r6}
   2627a:	c364      	stmia	r3!, {r2, r5, r6}
   2627c:	c866      	ldmia	r0!, {r1, r2, r5, r6}
   2627e:	c366      	stmia	r3!, {r1, r2, r5, r6}
   26280:	c826      	ldmia	r0!, {r1, r2, r5}
   26282:	c326      	stmia	r3!, {r1, r2, r5}
   26284:	c866      	ldmia	r0!, {r1, r2, r5, r6}
   26286:	c366      	stmia	r3!, {r1, r2, r5, r6}
   26288:	8800      	ldrh	r0, [r0, #0]
   2628a:	8018      	strh	r0, [r3, #0]
   2628c:	990b      	ldr	r1, [sp, #44]	@ 0x2c
   2628e:	0e08      	lsrs	r0, r1, #24
   26290:	71a0      	strb	r0, [r4, #6]
   26292:	0c08      	lsrs	r0, r1, #16
   26294:	7160      	strb	r0, [r4, #5]
   26296:	0a08      	lsrs	r0, r1, #8
   26298:	7120      	strb	r0, [r4, #4]
   2629a:	70e1      	strb	r1, [r4, #3]
   2629c:	1de0      	adds	r0, r4, #7
   2629e:	223a      	movs	r2, #58	@ 0x3a
   262a0:	990c      	ldr	r1, [sp, #48]	@ 0x30
   262a2:	f000 feb2 	bl	2700a <__aeabi_memcpy>
   262a6:	4d05      	ldr	r5, [pc, #20]	@ (262bc <_start+0x2178>)
   262a8:	446d      	add	r5, sp
   262aa:	4628      	mov	r0, r5
   262ac:	4621      	mov	r1, r4
   262ae:	f7fd fc21 	bl	23af4 <_ZN18complex_no_dynamic3app17he843005d20d19150E>
   262b2:	7828      	ldrb	r0, [r5, #0]
   262b4:	2801      	cmp	r0, #1
   262b6:	d107      	bne.n	262c8 <_start+0x2184>
   262b8:	f000 fca0 	bl	26bfc <_start+0x2ab8>
   262bc:	000013cc 	.word	0x000013cc
   262c0:	00000ec4 	.word	0x00000ec4
   262c4:	00001370 	.word	0x00001370
   262c8:	4816      	ldr	r0, [pc, #88]	@ (26324 <_start+0x21e0>)
   262ca:	4468      	add	r0, sp
   262cc:	78c1      	ldrb	r1, [r0, #3]
   262ce:	4c16      	ldr	r4, [pc, #88]	@ (26328 <_start+0x21e4>)
   262d0:	446c      	add	r4, sp
   262d2:	70a1      	strb	r1, [r4, #2]
   262d4:	7841      	ldrb	r1, [r0, #1]
   262d6:	7882      	ldrb	r2, [r0, #2]
   262d8:	0212      	lsls	r2, r2, #8
   262da:	1851      	adds	r1, r2, r1
   262dc:	8021      	strh	r1, [r4, #0]
   262de:	3008      	adds	r0, #8
   262e0:	9905      	ldr	r1, [sp, #20]
   262e2:	6e09      	ldr	r1, [r1, #96]	@ 0x60
   262e4:	910b      	str	r1, [sp, #44]	@ 0x2c
   262e6:	4b11      	ldr	r3, [pc, #68]	@ (2632c <_start+0x21e8>)
   262e8:	446b      	add	r3, sp
   262ea:	930c      	str	r3, [sp, #48]	@ 0x30
   262ec:	c866      	ldmia	r0!, {r1, r2, r5, r6}
   262ee:	c366      	stmia	r3!, {r1, r2, r5, r6}
   262f0:	7800      	ldrb	r0, [r0, #0]
   262f2:	7018      	strb	r0, [r3, #0]
   262f4:	990b      	ldr	r1, [sp, #44]	@ 0x2c
   262f6:	0e08      	lsrs	r0, r1, #24
   262f8:	71a0      	strb	r0, [r4, #6]
   262fa:	0c08      	lsrs	r0, r1, #16
   262fc:	7160      	strb	r0, [r4, #5]
   262fe:	0a08      	lsrs	r0, r1, #8
   26300:	7120      	strb	r0, [r4, #4]
   26302:	70e1      	strb	r1, [r4, #3]
   26304:	1de0      	adds	r0, r4, #7
   26306:	2211      	movs	r2, #17
   26308:	990c      	ldr	r1, [sp, #48]	@ 0x30
   2630a:	f000 fe7e 	bl	2700a <__aeabi_memcpy>
   2630e:	4d05      	ldr	r5, [pc, #20]	@ (26324 <_start+0x21e0>)
   26310:	446d      	add	r5, sp
   26312:	4628      	mov	r0, r5
   26314:	4621      	mov	r1, r4
   26316:	f7fa ffe1 	bl	212dc <_ZN18complex_no_dynamic3app17h55ab46993a950f1cE>
   2631a:	7828      	ldrb	r0, [r5, #0]
   2631c:	2801      	cmp	r0, #1
   2631e:	d107      	bne.n	26330 <_start+0x21ec>
   26320:	f000 fc6c 	bl	26bfc <_start+0x2ab8>
   26324:	000013cc 	.word	0x000013cc
   26328:	00000f08 	.word	0x00000f08
   2632c:	00001370 	.word	0x00001370
   26330:	4817      	ldr	r0, [pc, #92]	@ (26390 <_start+0x224c>)
   26332:	4468      	add	r0, sp
   26334:	78c1      	ldrb	r1, [r0, #3]
   26336:	4c17      	ldr	r4, [pc, #92]	@ (26394 <_start+0x2250>)
   26338:	446c      	add	r4, sp
   2633a:	70a1      	strb	r1, [r4, #2]
   2633c:	7841      	ldrb	r1, [r0, #1]
   2633e:	7882      	ldrb	r2, [r0, #2]
   26340:	0212      	lsls	r2, r2, #8
   26342:	1851      	adds	r1, r2, r1
   26344:	8021      	strh	r1, [r4, #0]
   26346:	3008      	adds	r0, #8
   26348:	9905      	ldr	r1, [sp, #20]
   2634a:	6e09      	ldr	r1, [r1, #96]	@ 0x60
   2634c:	4b12      	ldr	r3, [pc, #72]	@ (26398 <_start+0x2254>)
   2634e:	446b      	add	r3, sp
   26350:	930c      	str	r3, [sp, #48]	@ 0x30
   26352:	c860      	ldmia	r0!, {r5, r6}
   26354:	c360      	stmia	r3!, {r5, r6}
   26356:	c864      	ldmia	r0!, {r2, r5, r6}
   26358:	c364      	stmia	r3!, {r2, r5, r6}
   2635a:	8802      	ldrh	r2, [r0, #0]
   2635c:	801a      	strh	r2, [r3, #0]
   2635e:	7880      	ldrb	r0, [r0, #2]
   26360:	7098      	strb	r0, [r3, #2]
   26362:	0e08      	lsrs	r0, r1, #24
   26364:	71a0      	strb	r0, [r4, #6]
   26366:	0c08      	lsrs	r0, r1, #16
   26368:	7160      	strb	r0, [r4, #5]
   2636a:	0a08      	lsrs	r0, r1, #8
   2636c:	7120      	strb	r0, [r4, #4]
   2636e:	70e1      	strb	r1, [r4, #3]
   26370:	1de0      	adds	r0, r4, #7
   26372:	2217      	movs	r2, #23
   26374:	990c      	ldr	r1, [sp, #48]	@ 0x30
   26376:	f000 fe48 	bl	2700a <__aeabi_memcpy>
   2637a:	4d05      	ldr	r5, [pc, #20]	@ (26390 <_start+0x224c>)
   2637c:	446d      	add	r5, sp
   2637e:	4628      	mov	r0, r5
   26380:	4621      	mov	r1, r4
   26382:	f7fa fd3f 	bl	20e04 <_ZN18complex_no_dynamic3app17h43744662c55b3df7E>
   26386:	7828      	ldrb	r0, [r5, #0]
   26388:	2801      	cmp	r0, #1
   2638a:	d107      	bne.n	2639c <_start+0x2258>
   2638c:	f000 fc36 	bl	26bfc <_start+0x2ab8>
   26390:	000013cc 	.word	0x000013cc
   26394:	00000f20 	.word	0x00000f20
   26398:	00001370 	.word	0x00001370
   2639c:	4819      	ldr	r0, [pc, #100]	@ (26404 <_start+0x22c0>)
   2639e:	4468      	add	r0, sp
   263a0:	78c1      	ldrb	r1, [r0, #3]
   263a2:	4c19      	ldr	r4, [pc, #100]	@ (26408 <_start+0x22c4>)
   263a4:	446c      	add	r4, sp
   263a6:	70a1      	strb	r1, [r4, #2]
   263a8:	7841      	ldrb	r1, [r0, #1]
   263aa:	7882      	ldrb	r2, [r0, #2]
   263ac:	0212      	lsls	r2, r2, #8
   263ae:	1851      	adds	r1, r2, r1
   263b0:	8021      	strh	r1, [r4, #0]
   263b2:	3008      	adds	r0, #8
   263b4:	9905      	ldr	r1, [sp, #20]
   263b6:	6e09      	ldr	r1, [r1, #96]	@ 0x60
   263b8:	910b      	str	r1, [sp, #44]	@ 0x2c
   263ba:	4b14      	ldr	r3, [pc, #80]	@ (2640c <_start+0x22c8>)
   263bc:	446b      	add	r3, sp
   263be:	930c      	str	r3, [sp, #48]	@ 0x30
   263c0:	c864      	ldmia	r0!, {r2, r5, r6}
   263c2:	c364      	stmia	r3!, {r2, r5, r6}
   263c4:	c864      	ldmia	r0!, {r2, r5, r6}
   263c6:	c364      	stmia	r3!, {r2, r5, r6}
   263c8:	c864      	ldmia	r0!, {r2, r5, r6}
   263ca:	c364      	stmia	r3!, {r2, r5, r6}
   263cc:	c866      	ldmia	r0!, {r1, r2, r5, r6}
   263ce:	c366      	stmia	r3!, {r1, r2, r5, r6}
   263d0:	7800      	ldrb	r0, [r0, #0]
   263d2:	7018      	strb	r0, [r3, #0]
   263d4:	990b      	ldr	r1, [sp, #44]	@ 0x2c
   263d6:	0e08      	lsrs	r0, r1, #24
   263d8:	71a0      	strb	r0, [r4, #6]
   263da:	0c08      	lsrs	r0, r1, #16
   263dc:	7160      	strb	r0, [r4, #5]
   263de:	0a08      	lsrs	r0, r1, #8
   263e0:	7120      	strb	r0, [r4, #4]
   263e2:	70e1      	strb	r1, [r4, #3]
   263e4:	1de0      	adds	r0, r4, #7
   263e6:	2235      	movs	r2, #53	@ 0x35
   263e8:	990c      	ldr	r1, [sp, #48]	@ 0x30
   263ea:	f000 fe0e 	bl	2700a <__aeabi_memcpy>
   263ee:	4d05      	ldr	r5, [pc, #20]	@ (26404 <_start+0x22c0>)
   263f0:	446d      	add	r5, sp
   263f2:	4628      	mov	r0, r5
   263f4:	4621      	mov	r1, r4
   263f6:	f7fc fa03 	bl	22800 <_ZN18complex_no_dynamic3app17ha7ec29a5ade2a29fE>
   263fa:	7828      	ldrb	r0, [r5, #0]
   263fc:	2801      	cmp	r0, #1
   263fe:	d107      	bne.n	26410 <_start+0x22cc>
   26400:	e3fc      	b.n	26bfc <_start+0x2ab8>
   26402:	46c0      	nop			@ (mov r8, r8)
   26404:	000013cc 	.word	0x000013cc
   26408:	00000f40 	.word	0x00000f40
   2640c:	00001370 	.word	0x00001370
   26410:	4817      	ldr	r0, [pc, #92]	@ (26470 <_start+0x232c>)
   26412:	4468      	add	r0, sp
   26414:	78c1      	ldrb	r1, [r0, #3]
   26416:	4c17      	ldr	r4, [pc, #92]	@ (26474 <_start+0x2330>)
   26418:	446c      	add	r4, sp
   2641a:	70a1      	strb	r1, [r4, #2]
   2641c:	7841      	ldrb	r1, [r0, #1]
   2641e:	7882      	ldrb	r2, [r0, #2]
   26420:	0212      	lsls	r2, r2, #8
   26422:	1851      	adds	r1, r2, r1
   26424:	8021      	strh	r1, [r4, #0]
   26426:	3008      	adds	r0, #8
   26428:	9905      	ldr	r1, [sp, #20]
   2642a:	6e09      	ldr	r1, [r1, #96]	@ 0x60
   2642c:	4b12      	ldr	r3, [pc, #72]	@ (26478 <_start+0x2334>)
   2642e:	446b      	add	r3, sp
   26430:	930c      	str	r3, [sp, #48]	@ 0x30
   26432:	c864      	ldmia	r0!, {r2, r5, r6}
   26434:	c364      	stmia	r3!, {r2, r5, r6}
   26436:	c864      	ldmia	r0!, {r2, r5, r6}
   26438:	c364      	stmia	r3!, {r2, r5, r6}
   2643a:	c864      	ldmia	r0!, {r2, r5, r6}
   2643c:	c364      	stmia	r3!, {r2, r5, r6}
   2643e:	7800      	ldrb	r0, [r0, #0]
   26440:	7018      	strb	r0, [r3, #0]
   26442:	0e08      	lsrs	r0, r1, #24
   26444:	71a0      	strb	r0, [r4, #6]
   26446:	0c08      	lsrs	r0, r1, #16
   26448:	7160      	strb	r0, [r4, #5]
   2644a:	0a08      	lsrs	r0, r1, #8
   2644c:	7120      	strb	r0, [r4, #4]
   2644e:	70e1      	strb	r1, [r4, #3]
   26450:	1de0      	adds	r0, r4, #7
   26452:	2225      	movs	r2, #37	@ 0x25
   26454:	990c      	ldr	r1, [sp, #48]	@ 0x30
   26456:	f000 fdd8 	bl	2700a <__aeabi_memcpy>
   2645a:	4d05      	ldr	r5, [pc, #20]	@ (26470 <_start+0x232c>)
   2645c:	446d      	add	r5, sp
   2645e:	4628      	mov	r0, r5
   26460:	4621      	mov	r1, r4
   26462:	f7fb f89f 	bl	215a4 <_ZN18complex_no_dynamic3app17h5b3e021dadffbbfcE>
   26466:	7828      	ldrb	r0, [r5, #0]
   26468:	2801      	cmp	r0, #1
   2646a:	d107      	bne.n	2647c <_start+0x2338>
   2646c:	e3c6      	b.n	26bfc <_start+0x2ab8>
   2646e:	46c0      	nop			@ (mov r8, r8)
   26470:	000013cc 	.word	0x000013cc
   26474:	00000f7c 	.word	0x00000f7c
   26478:	00001370 	.word	0x00001370
   2647c:	4816      	ldr	r0, [pc, #88]	@ (264d8 <_start+0x2394>)
   2647e:	4468      	add	r0, sp
   26480:	78c1      	ldrb	r1, [r0, #3]
   26482:	4c16      	ldr	r4, [pc, #88]	@ (264dc <_start+0x2398>)
   26484:	446c      	add	r4, sp
   26486:	70a1      	strb	r1, [r4, #2]
   26488:	7841      	ldrb	r1, [r0, #1]
   2648a:	7882      	ldrb	r2, [r0, #2]
   2648c:	0212      	lsls	r2, r2, #8
   2648e:	1851      	adds	r1, r2, r1
   26490:	8021      	strh	r1, [r4, #0]
   26492:	3008      	adds	r0, #8
   26494:	9905      	ldr	r1, [sp, #20]
   26496:	6e09      	ldr	r1, [r1, #96]	@ 0x60
   26498:	910b      	str	r1, [sp, #44]	@ 0x2c
   2649a:	4b11      	ldr	r3, [pc, #68]	@ (264e0 <_start+0x239c>)
   2649c:	446b      	add	r3, sp
   2649e:	930c      	str	r3, [sp, #48]	@ 0x30
   264a0:	c866      	ldmia	r0!, {r1, r2, r5, r6}
   264a2:	c366      	stmia	r3!, {r1, r2, r5, r6}
   264a4:	c866      	ldmia	r0!, {r1, r2, r5, r6}
   264a6:	c366      	stmia	r3!, {r1, r2, r5, r6}
   264a8:	990b      	ldr	r1, [sp, #44]	@ 0x2c
   264aa:	0e08      	lsrs	r0, r1, #24
   264ac:	71a0      	strb	r0, [r4, #6]
   264ae:	0c08      	lsrs	r0, r1, #16
   264b0:	7160      	strb	r0, [r4, #5]
   264b2:	0a08      	lsrs	r0, r1, #8
   264b4:	7120      	strb	r0, [r4, #4]
   264b6:	70e1      	strb	r1, [r4, #3]
   264b8:	1de0      	adds	r0, r4, #7
   264ba:	2220      	movs	r2, #32
   264bc:	990c      	ldr	r1, [sp, #48]	@ 0x30
   264be:	f000 fda4 	bl	2700a <__aeabi_memcpy>
   264c2:	4d05      	ldr	r5, [pc, #20]	@ (264d8 <_start+0x2394>)
   264c4:	446d      	add	r5, sp
   264c6:	4628      	mov	r0, r5
   264c8:	4621      	mov	r1, r4
   264ca:	f7fd f965 	bl	23798 <_ZN18complex_no_dynamic3app17hd9f7a3e59a32f168E>
   264ce:	7828      	ldrb	r0, [r5, #0]
   264d0:	2801      	cmp	r0, #1
   264d2:	d107      	bne.n	264e4 <_start+0x23a0>
   264d4:	e392      	b.n	26bfc <_start+0x2ab8>
   264d6:	46c0      	nop			@ (mov r8, r8)
   264d8:	000013cc 	.word	0x000013cc
   264dc:	00000fa8 	.word	0x00000fa8
   264e0:	00001370 	.word	0x00001370
   264e4:	4915      	ldr	r1, [pc, #84]	@ (2653c <_start+0x23f8>)
   264e6:	4469      	add	r1, sp
   264e8:	78c8      	ldrb	r0, [r1, #3]
   264ea:	4c15      	ldr	r4, [pc, #84]	@ (26540 <_start+0x23fc>)
   264ec:	446c      	add	r4, sp
   264ee:	70a0      	strb	r0, [r4, #2]
   264f0:	7848      	ldrb	r0, [r1, #1]
   264f2:	788a      	ldrb	r2, [r1, #2]
   264f4:	0212      	lsls	r2, r2, #8
   264f6:	1810      	adds	r0, r2, r0
   264f8:	8020      	strh	r0, [r4, #0]
   264fa:	9805      	ldr	r0, [sp, #20]
   264fc:	6e05      	ldr	r5, [r0, #96]	@ 0x60
   264fe:	3108      	adds	r1, #8
   26500:	4810      	ldr	r0, [pc, #64]	@ (26544 <_start+0x2400>)
   26502:	4468      	add	r0, sp
   26504:	900c      	str	r0, [sp, #48]	@ 0x30
   26506:	2648      	movs	r6, #72	@ 0x48
   26508:	4632      	mov	r2, r6
   2650a:	f000 fc1e 	bl	26d4a <__aeabi_memcpy4>
   2650e:	0e28      	lsrs	r0, r5, #24
   26510:	71a0      	strb	r0, [r4, #6]
   26512:	0c28      	lsrs	r0, r5, #16
   26514:	7160      	strb	r0, [r4, #5]
   26516:	0a28      	lsrs	r0, r5, #8
   26518:	7120      	strb	r0, [r4, #4]
   2651a:	70e5      	strb	r5, [r4, #3]
   2651c:	1de0      	adds	r0, r4, #7
   2651e:	990c      	ldr	r1, [sp, #48]	@ 0x30
   26520:	4632      	mov	r2, r6
   26522:	f000 fd72 	bl	2700a <__aeabi_memcpy>
   26526:	4d05      	ldr	r5, [pc, #20]	@ (2653c <_start+0x23f8>)
   26528:	446d      	add	r5, sp
   2652a:	4628      	mov	r0, r5
   2652c:	4621      	mov	r1, r4
   2652e:	f7fd f987 	bl	23840 <_ZN18complex_no_dynamic3app17he03a1e86dbedd912E>
   26532:	7828      	ldrb	r0, [r5, #0]
   26534:	2801      	cmp	r0, #1
   26536:	d107      	bne.n	26548 <_start+0x2404>
   26538:	e360      	b.n	26bfc <_start+0x2ab8>
   2653a:	46c0      	nop			@ (mov r8, r8)
   2653c:	000013cc 	.word	0x000013cc
   26540:	00000fd0 	.word	0x00000fd0
   26544:	00001370 	.word	0x00001370
   26548:	4818      	ldr	r0, [pc, #96]	@ (265ac <_start+0x2468>)
   2654a:	4468      	add	r0, sp
   2654c:	78c1      	ldrb	r1, [r0, #3]
   2654e:	4c18      	ldr	r4, [pc, #96]	@ (265b0 <_start+0x246c>)
   26550:	446c      	add	r4, sp
   26552:	70a1      	strb	r1, [r4, #2]
   26554:	7841      	ldrb	r1, [r0, #1]
   26556:	7882      	ldrb	r2, [r0, #2]
   26558:	0212      	lsls	r2, r2, #8
   2655a:	1851      	adds	r1, r2, r1
   2655c:	8021      	strh	r1, [r4, #0]
   2655e:	3008      	adds	r0, #8
   26560:	9905      	ldr	r1, [sp, #20]
   26562:	6e09      	ldr	r1, [r1, #96]	@ 0x60
   26564:	910b      	str	r1, [sp, #44]	@ 0x2c
   26566:	4b13      	ldr	r3, [pc, #76]	@ (265b4 <_start+0x2470>)
   26568:	446b      	add	r3, sp
   2656a:	930c      	str	r3, [sp, #48]	@ 0x30
   2656c:	c864      	ldmia	r0!, {r2, r5, r6}
   2656e:	c364      	stmia	r3!, {r2, r5, r6}
   26570:	c866      	ldmia	r0!, {r1, r2, r5, r6}
   26572:	c366      	stmia	r3!, {r1, r2, r5, r6}
   26574:	c866      	ldmia	r0!, {r1, r2, r5, r6}
   26576:	c366      	stmia	r3!, {r1, r2, r5, r6}
   26578:	8800      	ldrh	r0, [r0, #0]
   2657a:	8018      	strh	r0, [r3, #0]
   2657c:	990b      	ldr	r1, [sp, #44]	@ 0x2c
   2657e:	0e08      	lsrs	r0, r1, #24
   26580:	71a0      	strb	r0, [r4, #6]
   26582:	0c08      	lsrs	r0, r1, #16
   26584:	7160      	strb	r0, [r4, #5]
   26586:	0a08      	lsrs	r0, r1, #8
   26588:	7120      	strb	r0, [r4, #4]
   2658a:	70e1      	strb	r1, [r4, #3]
   2658c:	1de0      	adds	r0, r4, #7
   2658e:	222e      	movs	r2, #46	@ 0x2e
   26590:	990c      	ldr	r1, [sp, #48]	@ 0x30
   26592:	f000 fd3a 	bl	2700a <__aeabi_memcpy>
   26596:	4d05      	ldr	r5, [pc, #20]	@ (265ac <_start+0x2468>)
   26598:	446d      	add	r5, sp
   2659a:	4628      	mov	r0, r5
   2659c:	4621      	mov	r1, r4
   2659e:	f7f9 fdf9 	bl	20194 <_ZN18complex_no_dynamic3app17h02553343b215d5aaE>
   265a2:	7828      	ldrb	r0, [r5, #0]
   265a4:	2801      	cmp	r0, #1
   265a6:	d107      	bne.n	265b8 <_start+0x2474>
   265a8:	e328      	b.n	26bfc <_start+0x2ab8>
   265aa:	46c0      	nop			@ (mov r8, r8)
   265ac:	000013cc 	.word	0x000013cc
   265b0:	00001020 	.word	0x00001020
   265b4:	00001370 	.word	0x00001370
   265b8:	4818      	ldr	r0, [pc, #96]	@ (2661c <_start+0x24d8>)
   265ba:	4468      	add	r0, sp
   265bc:	78c1      	ldrb	r1, [r0, #3]
   265be:	4c18      	ldr	r4, [pc, #96]	@ (26620 <_start+0x24dc>)
   265c0:	446c      	add	r4, sp
   265c2:	70a1      	strb	r1, [r4, #2]
   265c4:	7841      	ldrb	r1, [r0, #1]
   265c6:	7882      	ldrb	r2, [r0, #2]
   265c8:	0212      	lsls	r2, r2, #8
   265ca:	1851      	adds	r1, r2, r1
   265cc:	8021      	strh	r1, [r4, #0]
   265ce:	3008      	adds	r0, #8
   265d0:	9905      	ldr	r1, [sp, #20]
   265d2:	6e09      	ldr	r1, [r1, #96]	@ 0x60
   265d4:	910b      	str	r1, [sp, #44]	@ 0x2c
   265d6:	4b13      	ldr	r3, [pc, #76]	@ (26624 <_start+0x24e0>)
   265d8:	446b      	add	r3, sp
   265da:	930c      	str	r3, [sp, #48]	@ 0x30
   265dc:	c864      	ldmia	r0!, {r2, r5, r6}
   265de:	c364      	stmia	r3!, {r2, r5, r6}
   265e0:	c866      	ldmia	r0!, {r1, r2, r5, r6}
   265e2:	c366      	stmia	r3!, {r1, r2, r5, r6}
   265e4:	c826      	ldmia	r0!, {r1, r2, r5}
   265e6:	c326      	stmia	r3!, {r1, r2, r5}
   265e8:	c866      	ldmia	r0!, {r1, r2, r5, r6}
   265ea:	c366      	stmia	r3!, {r1, r2, r5, r6}
   265ec:	990b      	ldr	r1, [sp, #44]	@ 0x2c
   265ee:	0e08      	lsrs	r0, r1, #24
   265f0:	71a0      	strb	r0, [r4, #6]
   265f2:	0c08      	lsrs	r0, r1, #16
   265f4:	7160      	strb	r0, [r4, #5]
   265f6:	0a08      	lsrs	r0, r1, #8
   265f8:	7120      	strb	r0, [r4, #4]
   265fa:	70e1      	strb	r1, [r4, #3]
   265fc:	1de0      	adds	r0, r4, #7
   265fe:	2238      	movs	r2, #56	@ 0x38
   26600:	990c      	ldr	r1, [sp, #48]	@ 0x30
   26602:	f000 fd02 	bl	2700a <__aeabi_memcpy>
   26606:	4d05      	ldr	r5, [pc, #20]	@ (2661c <_start+0x24d8>)
   26608:	446d      	add	r5, sp
   2660a:	4628      	mov	r0, r5
   2660c:	4621      	mov	r1, r4
   2660e:	f7fa ff17 	bl	21440 <_ZN18complex_no_dynamic3app17h586fcd0dfe0bd338E>
   26612:	7828      	ldrb	r0, [r5, #0]
   26614:	2801      	cmp	r0, #1
   26616:	d107      	bne.n	26628 <_start+0x24e4>
   26618:	e2f0      	b.n	26bfc <_start+0x2ab8>
   2661a:	46c0      	nop			@ (mov r8, r8)
   2661c:	000013cc 	.word	0x000013cc
   26620:	00001058 	.word	0x00001058
   26624:	00001370 	.word	0x00001370
   26628:	4914      	ldr	r1, [pc, #80]	@ (2667c <_start+0x2538>)
   2662a:	4469      	add	r1, sp
   2662c:	9b05      	ldr	r3, [sp, #20]
   2662e:	6ed8      	ldr	r0, [r3, #108]	@ 0x6c
   26630:	8108      	strh	r0, [r1, #8]
   26632:	4813      	ldr	r0, [pc, #76]	@ (26680 <_start+0x253c>)
   26634:	4468      	add	r0, sp
   26636:	78c2      	ldrb	r2, [r0, #3]
   26638:	4c12      	ldr	r4, [pc, #72]	@ (26684 <_start+0x2540>)
   2663a:	446c      	add	r4, sp
   2663c:	70a2      	strb	r2, [r4, #2]
   2663e:	7842      	ldrb	r2, [r0, #1]
   26640:	7880      	ldrb	r0, [r0, #2]
   26642:	0200      	lsls	r0, r0, #8
   26644:	1880      	adds	r0, r0, r2
   26646:	8020      	strh	r0, [r4, #0]
   26648:	6e18      	ldr	r0, [r3, #96]	@ 0x60
   2664a:	70e0      	strb	r0, [r4, #3]
   2664c:	0e02      	lsrs	r2, r0, #24
   2664e:	71a2      	strb	r2, [r4, #6]
   26650:	0c02      	lsrs	r2, r0, #16
   26652:	7162      	strb	r2, [r4, #5]
   26654:	0a00      	lsrs	r0, r0, #8
   26656:	7120      	strb	r0, [r4, #4]
   26658:	6e58      	ldr	r0, [r3, #100]	@ 0x64
   2665a:	6e9a      	ldr	r2, [r3, #104]	@ 0x68
   2665c:	c305      	stmia	r3!, {r0, r2}
   2665e:	1de0      	adds	r0, r4, #7
   26660:	220a      	movs	r2, #10
   26662:	f000 fcd2 	bl	2700a <__aeabi_memcpy>
   26666:	4d06      	ldr	r5, [pc, #24]	@ (26680 <_start+0x253c>)
   26668:	446d      	add	r5, sp
   2666a:	4628      	mov	r0, r5
   2666c:	4621      	mov	r1, r4
   2666e:	f7fc facd 	bl	22c0c <_ZN18complex_no_dynamic3app17hac41ed5e6e24bb12E>
   26672:	7828      	ldrb	r0, [r5, #0]
   26674:	2801      	cmp	r0, #1
   26676:	d107      	bne.n	26688 <_start+0x2544>
   26678:	e2c0      	b.n	26bfc <_start+0x2ab8>
   2667a:	46c0      	nop			@ (mov r8, r8)
   2667c:	00001370 	.word	0x00001370
   26680:	000013cc 	.word	0x000013cc
   26684:	00001098 	.word	0x00001098
   26688:	4818      	ldr	r0, [pc, #96]	@ (266ec <_start+0x25a8>)
   2668a:	4468      	add	r0, sp
   2668c:	78c1      	ldrb	r1, [r0, #3]
   2668e:	4c18      	ldr	r4, [pc, #96]	@ (266f0 <_start+0x25ac>)
   26690:	446c      	add	r4, sp
   26692:	70a1      	strb	r1, [r4, #2]
   26694:	7841      	ldrb	r1, [r0, #1]
   26696:	7882      	ldrb	r2, [r0, #2]
   26698:	0212      	lsls	r2, r2, #8
   2669a:	1851      	adds	r1, r2, r1
   2669c:	8021      	strh	r1, [r4, #0]
   2669e:	3008      	adds	r0, #8
   266a0:	9905      	ldr	r1, [sp, #20]
   266a2:	6e09      	ldr	r1, [r1, #96]	@ 0x60
   266a4:	910b      	str	r1, [sp, #44]	@ 0x2c
   266a6:	4b13      	ldr	r3, [pc, #76]	@ (266f4 <_start+0x25b0>)
   266a8:	446b      	add	r3, sp
   266aa:	930c      	str	r3, [sp, #48]	@ 0x30
   266ac:	c864      	ldmia	r0!, {r2, r5, r6}
   266ae:	c364      	stmia	r3!, {r2, r5, r6}
   266b0:	c866      	ldmia	r0!, {r1, r2, r5, r6}
   266b2:	c366      	stmia	r3!, {r1, r2, r5, r6}
   266b4:	c826      	ldmia	r0!, {r1, r2, r5}
   266b6:	c326      	stmia	r3!, {r1, r2, r5}
   266b8:	c866      	ldmia	r0!, {r1, r2, r5, r6}
   266ba:	c366      	stmia	r3!, {r1, r2, r5, r6}
   266bc:	990b      	ldr	r1, [sp, #44]	@ 0x2c
   266be:	0e08      	lsrs	r0, r1, #24
   266c0:	71a0      	strb	r0, [r4, #6]
   266c2:	0c08      	lsrs	r0, r1, #16
   266c4:	7160      	strb	r0, [r4, #5]
   266c6:	0a08      	lsrs	r0, r1, #8
   266c8:	7120      	strb	r0, [r4, #4]
   266ca:	70e1      	strb	r1, [r4, #3]
   266cc:	1de0      	adds	r0, r4, #7
   266ce:	2238      	movs	r2, #56	@ 0x38
   266d0:	990c      	ldr	r1, [sp, #48]	@ 0x30
   266d2:	f000 fc9a 	bl	2700a <__aeabi_memcpy>
   266d6:	4d05      	ldr	r5, [pc, #20]	@ (266ec <_start+0x25a8>)
   266d8:	446d      	add	r5, sp
   266da:	4628      	mov	r0, r5
   266dc:	4621      	mov	r1, r4
   266de:	f7fc faeb 	bl	22cb8 <_ZN18complex_no_dynamic3app17hb10811511e2613c9E>
   266e2:	7828      	ldrb	r0, [r5, #0]
   266e4:	2801      	cmp	r0, #1
   266e6:	d107      	bne.n	266f8 <_start+0x25b4>
   266e8:	e288      	b.n	26bfc <_start+0x2ab8>
   266ea:	46c0      	nop			@ (mov r8, r8)
   266ec:	000013cc 	.word	0x000013cc
   266f0:	000010ac 	.word	0x000010ac
   266f4:	00001370 	.word	0x00001370
   266f8:	4816      	ldr	r0, [pc, #88]	@ (26754 <_start+0x2610>)
   266fa:	4468      	add	r0, sp
   266fc:	78c1      	ldrb	r1, [r0, #3]
   266fe:	4c16      	ldr	r4, [pc, #88]	@ (26758 <_start+0x2614>)
   26700:	446c      	add	r4, sp
   26702:	70a1      	strb	r1, [r4, #2]
   26704:	7841      	ldrb	r1, [r0, #1]
   26706:	7882      	ldrb	r2, [r0, #2]
   26708:	0212      	lsls	r2, r2, #8
   2670a:	1851      	adds	r1, r2, r1
   2670c:	8021      	strh	r1, [r4, #0]
   2670e:	3008      	adds	r0, #8
   26710:	9905      	ldr	r1, [sp, #20]
   26712:	6e09      	ldr	r1, [r1, #96]	@ 0x60
   26714:	4b11      	ldr	r3, [pc, #68]	@ (2675c <_start+0x2618>)
   26716:	446b      	add	r3, sp
   26718:	930c      	str	r3, [sp, #48]	@ 0x30
   2671a:	c860      	ldmia	r0!, {r5, r6}
   2671c:	c360      	stmia	r3!, {r5, r6}
   2671e:	c864      	ldmia	r0!, {r2, r5, r6}
   26720:	c364      	stmia	r3!, {r2, r5, r6}
   26722:	7800      	ldrb	r0, [r0, #0]
   26724:	7018      	strb	r0, [r3, #0]
   26726:	0e08      	lsrs	r0, r1, #24
   26728:	71a0      	strb	r0, [r4, #6]
   2672a:	0c08      	lsrs	r0, r1, #16
   2672c:	7160      	strb	r0, [r4, #5]
   2672e:	0a08      	lsrs	r0, r1, #8
   26730:	7120      	strb	r0, [r4, #4]
   26732:	70e1      	strb	r1, [r4, #3]
   26734:	1de0      	adds	r0, r4, #7
   26736:	2215      	movs	r2, #21
   26738:	990c      	ldr	r1, [sp, #48]	@ 0x30
   2673a:	f000 fc66 	bl	2700a <__aeabi_memcpy>
   2673e:	4d05      	ldr	r5, [pc, #20]	@ (26754 <_start+0x2610>)
   26740:	446d      	add	r5, sp
   26742:	4628      	mov	r0, r5
   26744:	4621      	mov	r1, r4
   26746:	f7fc fcc5 	bl	230d4 <_ZN18complex_no_dynamic3app17hba497e9e7112a527E>
   2674a:	7828      	ldrb	r0, [r5, #0]
   2674c:	2801      	cmp	r0, #1
   2674e:	d107      	bne.n	26760 <_start+0x261c>
   26750:	e254      	b.n	26bfc <_start+0x2ab8>
   26752:	46c0      	nop			@ (mov r8, r8)
   26754:	000013cc 	.word	0x000013cc
   26758:	000010ec 	.word	0x000010ec
   2675c:	00001370 	.word	0x00001370
   26760:	4915      	ldr	r1, [pc, #84]	@ (267b8 <_start+0x2674>)
   26762:	4469      	add	r1, sp
   26764:	78c8      	ldrb	r0, [r1, #3]
   26766:	4c15      	ldr	r4, [pc, #84]	@ (267bc <_start+0x2678>)
   26768:	446c      	add	r4, sp
   2676a:	70a0      	strb	r0, [r4, #2]
   2676c:	7848      	ldrb	r0, [r1, #1]
   2676e:	788a      	ldrb	r2, [r1, #2]
   26770:	0212      	lsls	r2, r2, #8
   26772:	1810      	adds	r0, r2, r0
   26774:	8020      	strh	r0, [r4, #0]
   26776:	9805      	ldr	r0, [sp, #20]
   26778:	6e05      	ldr	r5, [r0, #96]	@ 0x60
   2677a:	3108      	adds	r1, #8
   2677c:	4810      	ldr	r0, [pc, #64]	@ (267c0 <_start+0x267c>)
   2677e:	4468      	add	r0, sp
   26780:	900c      	str	r0, [sp, #48]	@ 0x30
   26782:	2656      	movs	r6, #86	@ 0x56
   26784:	4632      	mov	r2, r6
   26786:	f000 fae0 	bl	26d4a <__aeabi_memcpy4>
   2678a:	0e28      	lsrs	r0, r5, #24
   2678c:	71a0      	strb	r0, [r4, #6]
   2678e:	0c28      	lsrs	r0, r5, #16
   26790:	7160      	strb	r0, [r4, #5]
   26792:	0a28      	lsrs	r0, r5, #8
   26794:	7120      	strb	r0, [r4, #4]
   26796:	70e5      	strb	r5, [r4, #3]
   26798:	1de0      	adds	r0, r4, #7
   2679a:	990c      	ldr	r1, [sp, #48]	@ 0x30
   2679c:	4632      	mov	r2, r6
   2679e:	f000 fc34 	bl	2700a <__aeabi_memcpy>
   267a2:	4d05      	ldr	r5, [pc, #20]	@ (267b8 <_start+0x2674>)
   267a4:	446d      	add	r5, sp
   267a6:	4628      	mov	r0, r5
   267a8:	4621      	mov	r1, r4
   267aa:	f7fc ff9d 	bl	236e8 <_ZN18complex_no_dynamic3app17hd8fbaefa0b218421E>
   267ae:	7828      	ldrb	r0, [r5, #0]
   267b0:	2801      	cmp	r0, #1
   267b2:	d107      	bne.n	267c4 <_start+0x2680>
   267b4:	e222      	b.n	26bfc <_start+0x2ab8>
   267b6:	46c0      	nop			@ (mov r8, r8)
   267b8:	000013cc 	.word	0x000013cc
   267bc:	00001108 	.word	0x00001108
   267c0:	00001370 	.word	0x00001370
   267c4:	4915      	ldr	r1, [pc, #84]	@ (2681c <_start+0x26d8>)
   267c6:	4469      	add	r1, sp
   267c8:	9b05      	ldr	r3, [sp, #20]
   267ca:	6ed8      	ldr	r0, [r3, #108]	@ 0x6c
   267cc:	8108      	strh	r0, [r1, #8]
   267ce:	4814      	ldr	r0, [pc, #80]	@ (26820 <_start+0x26dc>)
   267d0:	4468      	add	r0, sp
   267d2:	78c2      	ldrb	r2, [r0, #3]
   267d4:	4c13      	ldr	r4, [pc, #76]	@ (26824 <_start+0x26e0>)
   267d6:	446c      	add	r4, sp
   267d8:	70a2      	strb	r2, [r4, #2]
   267da:	7c82      	ldrb	r2, [r0, #18]
   267dc:	728a      	strb	r2, [r1, #10]
   267de:	7842      	ldrb	r2, [r0, #1]
   267e0:	7880      	ldrb	r0, [r0, #2]
   267e2:	0200      	lsls	r0, r0, #8
   267e4:	1880      	adds	r0, r0, r2
   267e6:	8020      	strh	r0, [r4, #0]
   267e8:	6e18      	ldr	r0, [r3, #96]	@ 0x60
   267ea:	70e0      	strb	r0, [r4, #3]
   267ec:	0e02      	lsrs	r2, r0, #24
   267ee:	71a2      	strb	r2, [r4, #6]
   267f0:	0c02      	lsrs	r2, r0, #16
   267f2:	7162      	strb	r2, [r4, #5]
   267f4:	0a00      	lsrs	r0, r0, #8
   267f6:	7120      	strb	r0, [r4, #4]
   267f8:	6e58      	ldr	r0, [r3, #100]	@ 0x64
   267fa:	6e9a      	ldr	r2, [r3, #104]	@ 0x68
   267fc:	c305      	stmia	r3!, {r0, r2}
   267fe:	1de0      	adds	r0, r4, #7
   26800:	220b      	movs	r2, #11
   26802:	f000 fc02 	bl	2700a <__aeabi_memcpy>
   26806:	4d06      	ldr	r5, [pc, #24]	@ (26820 <_start+0x26dc>)
   26808:	446d      	add	r5, sp
   2680a:	4628      	mov	r0, r5
   2680c:	4621      	mov	r1, r4
   2680e:	f7f9 fd17 	bl	20240 <_ZN18complex_no_dynamic3app17h0862bb47b80db5ffE>
   26812:	7828      	ldrb	r0, [r5, #0]
   26814:	2801      	cmp	r0, #1
   26816:	d107      	bne.n	26828 <_start+0x26e4>
   26818:	e1f0      	b.n	26bfc <_start+0x2ab8>
   2681a:	46c0      	nop			@ (mov r8, r8)
   2681c:	00001370 	.word	0x00001370
   26820:	000013cc 	.word	0x000013cc
   26824:	00001168 	.word	0x00001168
   26828:	48f7      	ldr	r0, [pc, #988]	@ (26c08 <_start+0x2ac4>)
   2682a:	4468      	add	r0, sp
   2682c:	78c1      	ldrb	r1, [r0, #3]
   2682e:	4cf7      	ldr	r4, [pc, #988]	@ (26c0c <_start+0x2ac8>)
   26830:	446c      	add	r4, sp
   26832:	70a1      	strb	r1, [r4, #2]
   26834:	7841      	ldrb	r1, [r0, #1]
   26836:	7882      	ldrb	r2, [r0, #2]
   26838:	0212      	lsls	r2, r2, #8
   2683a:	1851      	adds	r1, r2, r1
   2683c:	8021      	strh	r1, [r4, #0]
   2683e:	3008      	adds	r0, #8
   26840:	9905      	ldr	r1, [sp, #20]
   26842:	6e09      	ldr	r1, [r1, #96]	@ 0x60
   26844:	910b      	str	r1, [sp, #44]	@ 0x2c
   26846:	4bf2      	ldr	r3, [pc, #968]	@ (26c10 <_start+0x2acc>)
   26848:	446b      	add	r3, sp
   2684a:	930c      	str	r3, [sp, #48]	@ 0x30
   2684c:	c864      	ldmia	r0!, {r2, r5, r6}
   2684e:	c364      	stmia	r3!, {r2, r5, r6}
   26850:	c866      	ldmia	r0!, {r1, r2, r5, r6}
   26852:	c366      	stmia	r3!, {r1, r2, r5, r6}
   26854:	c866      	ldmia	r0!, {r1, r2, r5, r6}
   26856:	c366      	stmia	r3!, {r1, r2, r5, r6}
   26858:	c866      	ldmia	r0!, {r1, r2, r5, r6}
   2685a:	c366      	stmia	r3!, {r1, r2, r5, r6}
   2685c:	7800      	ldrb	r0, [r0, #0]
   2685e:	7018      	strb	r0, [r3, #0]
   26860:	990b      	ldr	r1, [sp, #44]	@ 0x2c
   26862:	0e08      	lsrs	r0, r1, #24
   26864:	71a0      	strb	r0, [r4, #6]
   26866:	0c08      	lsrs	r0, r1, #16
   26868:	7160      	strb	r0, [r4, #5]
   2686a:	0a08      	lsrs	r0, r1, #8
   2686c:	7120      	strb	r0, [r4, #4]
   2686e:	70e1      	strb	r1, [r4, #3]
   26870:	1de0      	adds	r0, r4, #7
   26872:	223d      	movs	r2, #61	@ 0x3d
   26874:	990c      	ldr	r1, [sp, #48]	@ 0x30
   26876:	f000 fbc8 	bl	2700a <__aeabi_memcpy>
   2687a:	4de3      	ldr	r5, [pc, #908]	@ (26c08 <_start+0x2ac4>)
   2687c:	446d      	add	r5, sp
   2687e:	4628      	mov	r0, r5
   26880:	4621      	mov	r1, r4
   26882:	f7fb fd11 	bl	222a8 <_ZN18complex_no_dynamic3app17h9eaf4676ed713835E>
   26886:	7828      	ldrb	r0, [r5, #0]
   26888:	2801      	cmp	r0, #1
   2688a:	d100      	bne.n	2688e <_start+0x274a>
   2688c:	e1b6      	b.n	26bfc <_start+0x2ab8>
   2688e:	48fb      	ldr	r0, [pc, #1004]	@ (26c7c <_start+0x2b38>)
   26890:	4468      	add	r0, sp
   26892:	78c1      	ldrb	r1, [r0, #3]
   26894:	4cfb      	ldr	r4, [pc, #1004]	@ (26c84 <_start+0x2b40>)
   26896:	446c      	add	r4, sp
   26898:	70a1      	strb	r1, [r4, #2]
   2689a:	7841      	ldrb	r1, [r0, #1]
   2689c:	7882      	ldrb	r2, [r0, #2]
   2689e:	0212      	lsls	r2, r2, #8
   268a0:	1851      	adds	r1, r2, r1
   268a2:	8021      	strh	r1, [r4, #0]
   268a4:	3008      	adds	r0, #8
   268a6:	9905      	ldr	r1, [sp, #20]
   268a8:	6e09      	ldr	r1, [r1, #96]	@ 0x60
   268aa:	910b      	str	r1, [sp, #44]	@ 0x2c
   268ac:	4bf4      	ldr	r3, [pc, #976]	@ (26c80 <_start+0x2b3c>)
   268ae:	446b      	add	r3, sp
   268b0:	930c      	str	r3, [sp, #48]	@ 0x30
   268b2:	c864      	ldmia	r0!, {r2, r5, r6}
   268b4:	c364      	stmia	r3!, {r2, r5, r6}
   268b6:	c866      	ldmia	r0!, {r1, r2, r5, r6}
   268b8:	c366      	stmia	r3!, {r1, r2, r5, r6}
   268ba:	990b      	ldr	r1, [sp, #44]	@ 0x2c
   268bc:	0e08      	lsrs	r0, r1, #24
   268be:	71a0      	strb	r0, [r4, #6]
   268c0:	0c08      	lsrs	r0, r1, #16
   268c2:	7160      	strb	r0, [r4, #5]
   268c4:	0a08      	lsrs	r0, r1, #8
   268c6:	7120      	strb	r0, [r4, #4]
   268c8:	70e1      	strb	r1, [r4, #3]
   268ca:	1de0      	adds	r0, r4, #7
   268cc:	221c      	movs	r2, #28
   268ce:	990c      	ldr	r1, [sp, #48]	@ 0x30
   268d0:	f000 fb9b 	bl	2700a <__aeabi_memcpy>
   268d4:	4de9      	ldr	r5, [pc, #932]	@ (26c7c <_start+0x2b38>)
   268d6:	446d      	add	r5, sp
   268d8:	4628      	mov	r0, r5
   268da:	4621      	mov	r1, r4
   268dc:	f7fa f9e4 	bl	20ca8 <_ZN18complex_no_dynamic3app17h340ac1a2a6677fc9E>
   268e0:	7828      	ldrb	r0, [r5, #0]
   268e2:	2801      	cmp	r0, #1
   268e4:	d100      	bne.n	268e8 <_start+0x27a4>
   268e6:	e189      	b.n	26bfc <_start+0x2ab8>
   268e8:	48e4      	ldr	r0, [pc, #912]	@ (26c7c <_start+0x2b38>)
   268ea:	4468      	add	r0, sp
   268ec:	78c1      	ldrb	r1, [r0, #3]
   268ee:	4ce6      	ldr	r4, [pc, #920]	@ (26c88 <_start+0x2b44>)
   268f0:	446c      	add	r4, sp
   268f2:	70a1      	strb	r1, [r4, #2]
   268f4:	7841      	ldrb	r1, [r0, #1]
   268f6:	7882      	ldrb	r2, [r0, #2]
   268f8:	0212      	lsls	r2, r2, #8
   268fa:	1851      	adds	r1, r2, r1
   268fc:	8021      	strh	r1, [r4, #0]
   268fe:	3008      	adds	r0, #8
   26900:	9905      	ldr	r1, [sp, #20]
   26902:	6e09      	ldr	r1, [r1, #96]	@ 0x60
   26904:	910b      	str	r1, [sp, #44]	@ 0x2c
   26906:	4bde      	ldr	r3, [pc, #888]	@ (26c80 <_start+0x2b3c>)
   26908:	446b      	add	r3, sp
   2690a:	930c      	str	r3, [sp, #48]	@ 0x30
   2690c:	c864      	ldmia	r0!, {r2, r5, r6}
   2690e:	c364      	stmia	r3!, {r2, r5, r6}
   26910:	c866      	ldmia	r0!, {r1, r2, r5, r6}
   26912:	c366      	stmia	r3!, {r1, r2, r5, r6}
   26914:	7800      	ldrb	r0, [r0, #0]
   26916:	7018      	strb	r0, [r3, #0]
   26918:	990b      	ldr	r1, [sp, #44]	@ 0x2c
   2691a:	0e08      	lsrs	r0, r1, #24
   2691c:	71a0      	strb	r0, [r4, #6]
   2691e:	0c08      	lsrs	r0, r1, #16
   26920:	7160      	strb	r0, [r4, #5]
   26922:	0a08      	lsrs	r0, r1, #8
   26924:	7120      	strb	r0, [r4, #4]
   26926:	70e1      	strb	r1, [r4, #3]
   26928:	1de0      	adds	r0, r4, #7
   2692a:	221d      	movs	r2, #29
   2692c:	990c      	ldr	r1, [sp, #48]	@ 0x30
   2692e:	f000 fb6c 	bl	2700a <__aeabi_memcpy>
   26932:	4dd2      	ldr	r5, [pc, #840]	@ (26c7c <_start+0x2b38>)
   26934:	446d      	add	r5, sp
   26936:	4628      	mov	r0, r5
   26938:	4621      	mov	r1, r4
   2693a:	f7fb f991 	bl	21c60 <_ZN18complex_no_dynamic3app17h7e8013c0bf4bec5dE>
   2693e:	7828      	ldrb	r0, [r5, #0]
   26940:	2801      	cmp	r0, #1
   26942:	d100      	bne.n	26946 <_start+0x2802>
   26944:	e15a      	b.n	26bfc <_start+0x2ab8>
   26946:	48cd      	ldr	r0, [pc, #820]	@ (26c7c <_start+0x2b38>)
   26948:	4468      	add	r0, sp
   2694a:	78c1      	ldrb	r1, [r0, #3]
   2694c:	4ccf      	ldr	r4, [pc, #828]	@ (26c8c <_start+0x2b48>)
   2694e:	446c      	add	r4, sp
   26950:	70a1      	strb	r1, [r4, #2]
   26952:	7841      	ldrb	r1, [r0, #1]
   26954:	7882      	ldrb	r2, [r0, #2]
   26956:	0212      	lsls	r2, r2, #8
   26958:	1851      	adds	r1, r2, r1
   2695a:	8021      	strh	r1, [r4, #0]
   2695c:	3008      	adds	r0, #8
   2695e:	9905      	ldr	r1, [sp, #20]
   26960:	6e09      	ldr	r1, [r1, #96]	@ 0x60
   26962:	910b      	str	r1, [sp, #44]	@ 0x2c
   26964:	4bc6      	ldr	r3, [pc, #792]	@ (26c80 <_start+0x2b3c>)
   26966:	446b      	add	r3, sp
   26968:	930c      	str	r3, [sp, #48]	@ 0x30
   2696a:	c864      	ldmia	r0!, {r2, r5, r6}
   2696c:	c364      	stmia	r3!, {r2, r5, r6}
   2696e:	c864      	ldmia	r0!, {r2, r5, r6}
   26970:	c364      	stmia	r3!, {r2, r5, r6}
   26972:	c866      	ldmia	r0!, {r1, r2, r5, r6}
   26974:	c366      	stmia	r3!, {r1, r2, r5, r6}
   26976:	990b      	ldr	r1, [sp, #44]	@ 0x2c
   26978:	0e08      	lsrs	r0, r1, #24
   2697a:	71a0      	strb	r0, [r4, #6]
   2697c:	0c08      	lsrs	r0, r1, #16
   2697e:	7160      	strb	r0, [r4, #5]
   26980:	0a08      	lsrs	r0, r1, #8
   26982:	7120      	strb	r0, [r4, #4]
   26984:	70e1      	strb	r1, [r4, #3]
   26986:	1de0      	adds	r0, r4, #7
   26988:	2228      	movs	r2, #40	@ 0x28
   2698a:	990c      	ldr	r1, [sp, #48]	@ 0x30
   2698c:	f000 fb3d 	bl	2700a <__aeabi_memcpy>
   26990:	4dba      	ldr	r5, [pc, #744]	@ (26c7c <_start+0x2b38>)
   26992:	446d      	add	r5, sp
   26994:	4628      	mov	r0, r5
   26996:	4621      	mov	r1, r4
   26998:	f7f9 ffd6 	bl	20948 <_ZN18complex_no_dynamic3app17h287bfbbaf2da01e7E>
   2699c:	7828      	ldrb	r0, [r5, #0]
   2699e:	2801      	cmp	r0, #1
   269a0:	d100      	bne.n	269a4 <_start+0x2860>
   269a2:	e12b      	b.n	26bfc <_start+0x2ab8>
   269a4:	49b5      	ldr	r1, [pc, #724]	@ (26c7c <_start+0x2b38>)
   269a6:	4469      	add	r1, sp
   269a8:	78c8      	ldrb	r0, [r1, #3]
   269aa:	4cb9      	ldr	r4, [pc, #740]	@ (26c90 <_start+0x2b4c>)
   269ac:	446c      	add	r4, sp
   269ae:	70a0      	strb	r0, [r4, #2]
   269b0:	7848      	ldrb	r0, [r1, #1]
   269b2:	788a      	ldrb	r2, [r1, #2]
   269b4:	0212      	lsls	r2, r2, #8
   269b6:	1810      	adds	r0, r2, r0
   269b8:	8020      	strh	r0, [r4, #0]
   269ba:	9805      	ldr	r0, [sp, #20]
   269bc:	6e05      	ldr	r5, [r0, #96]	@ 0x60
   269be:	3108      	adds	r1, #8
   269c0:	48af      	ldr	r0, [pc, #700]	@ (26c80 <_start+0x2b3c>)
   269c2:	4468      	add	r0, sp
   269c4:	900c      	str	r0, [sp, #48]	@ 0x30
   269c6:	2657      	movs	r6, #87	@ 0x57
   269c8:	4632      	mov	r2, r6
   269ca:	f000 f9be 	bl	26d4a <__aeabi_memcpy4>
   269ce:	0e28      	lsrs	r0, r5, #24
   269d0:	71a0      	strb	r0, [r4, #6]
   269d2:	0c28      	lsrs	r0, r5, #16
   269d4:	7160      	strb	r0, [r4, #5]
   269d6:	0a28      	lsrs	r0, r5, #8
   269d8:	7120      	strb	r0, [r4, #4]
   269da:	70e5      	strb	r5, [r4, #3]
   269dc:	1de0      	adds	r0, r4, #7
   269de:	990c      	ldr	r1, [sp, #48]	@ 0x30
   269e0:	4632      	mov	r2, r6
   269e2:	f000 fb12 	bl	2700a <__aeabi_memcpy>
   269e6:	4da5      	ldr	r5, [pc, #660]	@ (26c7c <_start+0x2b38>)
   269e8:	446d      	add	r5, sp
   269ea:	4628      	mov	r0, r5
   269ec:	4621      	mov	r1, r4
   269ee:	f7fb f835 	bl	21a5c <_ZN18complex_no_dynamic3app17h6b766d93c211ccc5E>
   269f2:	7828      	ldrb	r0, [r5, #0]
   269f4:	2801      	cmp	r0, #1
   269f6:	d100      	bne.n	269fa <_start+0x28b6>
   269f8:	e100      	b.n	26bfc <_start+0x2ab8>
   269fa:	49a0      	ldr	r1, [pc, #640]	@ (26c7c <_start+0x2b38>)
   269fc:	4469      	add	r1, sp
   269fe:	78c8      	ldrb	r0, [r1, #3]
   26a00:	4ca4      	ldr	r4, [pc, #656]	@ (26c94 <_start+0x2b50>)
   26a02:	446c      	add	r4, sp
   26a04:	70a0      	strb	r0, [r4, #2]
   26a06:	7848      	ldrb	r0, [r1, #1]
   26a08:	788a      	ldrb	r2, [r1, #2]
   26a0a:	0212      	lsls	r2, r2, #8
   26a0c:	1810      	adds	r0, r2, r0
   26a0e:	8020      	strh	r0, [r4, #0]
   26a10:	9805      	ldr	r0, [sp, #20]
   26a12:	6e05      	ldr	r5, [r0, #96]	@ 0x60
   26a14:	3108      	adds	r1, #8
   26a16:	489a      	ldr	r0, [pc, #616]	@ (26c80 <_start+0x2b3c>)
   26a18:	4468      	add	r0, sp
   26a1a:	900c      	str	r0, [sp, #48]	@ 0x30
   26a1c:	264e      	movs	r6, #78	@ 0x4e
   26a1e:	4632      	mov	r2, r6
   26a20:	f000 f993 	bl	26d4a <__aeabi_memcpy4>
   26a24:	0e28      	lsrs	r0, r5, #24
   26a26:	71a0      	strb	r0, [r4, #6]
   26a28:	0c28      	lsrs	r0, r5, #16
   26a2a:	7160      	strb	r0, [r4, #5]
   26a2c:	0a28      	lsrs	r0, r5, #8
   26a2e:	7120      	strb	r0, [r4, #4]
   26a30:	70e5      	strb	r5, [r4, #3]
   26a32:	1de0      	adds	r0, r4, #7
   26a34:	990c      	ldr	r1, [sp, #48]	@ 0x30
   26a36:	4632      	mov	r2, r6
   26a38:	f000 fae7 	bl	2700a <__aeabi_memcpy>
   26a3c:	4d8f      	ldr	r5, [pc, #572]	@ (26c7c <_start+0x2b38>)
   26a3e:	446d      	add	r5, sp
   26a40:	4628      	mov	r0, r5
   26a42:	4621      	mov	r1, r4
   26a44:	f7fa fbf0 	bl	21228 <_ZN18complex_no_dynamic3app17h512b4dd5bda2bee1E>
   26a48:	7828      	ldrb	r0, [r5, #0]
   26a4a:	2801      	cmp	r0, #1
   26a4c:	d100      	bne.n	26a50 <_start+0x290c>
   26a4e:	e0d5      	b.n	26bfc <_start+0x2ab8>
   26a50:	498b      	ldr	r1, [pc, #556]	@ (26c80 <_start+0x2b3c>)
   26a52:	4469      	add	r1, sp
   26a54:	9b05      	ldr	r3, [sp, #20]
   26a56:	6ed8      	ldr	r0, [r3, #108]	@ 0x6c
   26a58:	8108      	strh	r0, [r1, #8]
   26a5a:	4888      	ldr	r0, [pc, #544]	@ (26c7c <_start+0x2b38>)
   26a5c:	4468      	add	r0, sp
   26a5e:	78c2      	ldrb	r2, [r0, #3]
   26a60:	4c8d      	ldr	r4, [pc, #564]	@ (26c98 <_start+0x2b54>)
   26a62:	446c      	add	r4, sp
   26a64:	70a2      	strb	r2, [r4, #2]
   26a66:	7842      	ldrb	r2, [r0, #1]
   26a68:	7880      	ldrb	r0, [r0, #2]
   26a6a:	0200      	lsls	r0, r0, #8
   26a6c:	1880      	adds	r0, r0, r2
   26a6e:	8020      	strh	r0, [r4, #0]
   26a70:	6e18      	ldr	r0, [r3, #96]	@ 0x60
   26a72:	70e0      	strb	r0, [r4, #3]
   26a74:	0e02      	lsrs	r2, r0, #24
   26a76:	71a2      	strb	r2, [r4, #6]
   26a78:	0c02      	lsrs	r2, r0, #16
   26a7a:	7162      	strb	r2, [r4, #5]
   26a7c:	0a00      	lsrs	r0, r0, #8
   26a7e:	7120      	strb	r0, [r4, #4]
   26a80:	6e58      	ldr	r0, [r3, #100]	@ 0x64
   26a82:	6e9a      	ldr	r2, [r3, #104]	@ 0x68
   26a84:	c305      	stmia	r3!, {r0, r2}
   26a86:	1de0      	adds	r0, r4, #7
   26a88:	220a      	movs	r2, #10
   26a8a:	f000 fabe 	bl	2700a <__aeabi_memcpy>
   26a8e:	4d7b      	ldr	r5, [pc, #492]	@ (26c7c <_start+0x2b38>)
   26a90:	446d      	add	r5, sp
   26a92:	4628      	mov	r0, r5
   26a94:	4621      	mov	r1, r4
   26a96:	f7f9 fe53 	bl	20740 <_ZN18complex_no_dynamic3app17h238f7854a047fee9E>
   26a9a:	7828      	ldrb	r0, [r5, #0]
   26a9c:	2801      	cmp	r0, #1
   26a9e:	d100      	bne.n	26aa2 <_start+0x295e>
   26aa0:	e0ac      	b.n	26bfc <_start+0x2ab8>
   26aa2:	4976      	ldr	r1, [pc, #472]	@ (26c7c <_start+0x2b38>)
   26aa4:	4469      	add	r1, sp
   26aa6:	78c8      	ldrb	r0, [r1, #3]
   26aa8:	4c7c      	ldr	r4, [pc, #496]	@ (26c9c <_start+0x2b58>)
   26aaa:	446c      	add	r4, sp
   26aac:	70a0      	strb	r0, [r4, #2]
   26aae:	7848      	ldrb	r0, [r1, #1]
   26ab0:	788a      	ldrb	r2, [r1, #2]
   26ab2:	0212      	lsls	r2, r2, #8
   26ab4:	1810      	adds	r0, r2, r0
   26ab6:	8020      	strh	r0, [r4, #0]
   26ab8:	9805      	ldr	r0, [sp, #20]
   26aba:	6e05      	ldr	r5, [r0, #96]	@ 0x60
   26abc:	3108      	adds	r1, #8
   26abe:	4870      	ldr	r0, [pc, #448]	@ (26c80 <_start+0x2b3c>)
   26ac0:	4468      	add	r0, sp
   26ac2:	900c      	str	r0, [sp, #48]	@ 0x30
   26ac4:	2649      	movs	r6, #73	@ 0x49
   26ac6:	4632      	mov	r2, r6
   26ac8:	f000 f93f 	bl	26d4a <__aeabi_memcpy4>
   26acc:	0e28      	lsrs	r0, r5, #24
   26ace:	71a0      	strb	r0, [r4, #6]
   26ad0:	0c28      	lsrs	r0, r5, #16
   26ad2:	7160      	strb	r0, [r4, #5]
   26ad4:	0a28      	lsrs	r0, r5, #8
   26ad6:	7120      	strb	r0, [r4, #4]
   26ad8:	70e5      	strb	r5, [r4, #3]
   26ada:	1de0      	adds	r0, r4, #7
   26adc:	990c      	ldr	r1, [sp, #48]	@ 0x30
   26ade:	4632      	mov	r2, r6
   26ae0:	f000 fa93 	bl	2700a <__aeabi_memcpy>
   26ae4:	4d65      	ldr	r5, [pc, #404]	@ (26c7c <_start+0x2b38>)
   26ae6:	446d      	add	r5, sp
   26ae8:	4628      	mov	r0, r5
   26aea:	4621      	mov	r1, r4
   26aec:	f7fa f9e0 	bl	20eb0 <_ZN18complex_no_dynamic3app17h43c2559dd0859935E>
   26af0:	7828      	ldrb	r0, [r5, #0]
   26af2:	2801      	cmp	r0, #1
   26af4:	d100      	bne.n	26af8 <_start+0x29b4>
   26af6:	e081      	b.n	26bfc <_start+0x2ab8>
   26af8:	4860      	ldr	r0, [pc, #384]	@ (26c7c <_start+0x2b38>)
   26afa:	4468      	add	r0, sp
   26afc:	78c1      	ldrb	r1, [r0, #3]
   26afe:	4c68      	ldr	r4, [pc, #416]	@ (26ca0 <_start+0x2b5c>)
   26b00:	446c      	add	r4, sp
   26b02:	70a1      	strb	r1, [r4, #2]
   26b04:	7841      	ldrb	r1, [r0, #1]
   26b06:	7882      	ldrb	r2, [r0, #2]
   26b08:	0212      	lsls	r2, r2, #8
   26b0a:	1851      	adds	r1, r2, r1
   26b0c:	8021      	strh	r1, [r4, #0]
   26b0e:	3008      	adds	r0, #8
   26b10:	9905      	ldr	r1, [sp, #20]
   26b12:	6e09      	ldr	r1, [r1, #96]	@ 0x60
   26b14:	4b5a      	ldr	r3, [pc, #360]	@ (26c80 <_start+0x2b3c>)
   26b16:	446b      	add	r3, sp
   26b18:	930c      	str	r3, [sp, #48]	@ 0x30
   26b1a:	c860      	ldmia	r0!, {r5, r6}
   26b1c:	c360      	stmia	r3!, {r5, r6}
   26b1e:	c864      	ldmia	r0!, {r2, r5, r6}
   26b20:	c364      	stmia	r3!, {r2, r5, r6}
   26b22:	0e08      	lsrs	r0, r1, #24
   26b24:	71a0      	strb	r0, [r4, #6]
   26b26:	0c08      	lsrs	r0, r1, #16
   26b28:	7160      	strb	r0, [r4, #5]
   26b2a:	0a08      	lsrs	r0, r1, #8
   26b2c:	7120      	strb	r0, [r4, #4]
   26b2e:	70e1      	strb	r1, [r4, #3]
   26b30:	1de0      	adds	r0, r4, #7
   26b32:	2214      	movs	r2, #20
   26b34:	990c      	ldr	r1, [sp, #48]	@ 0x30
   26b36:	f000 fa68 	bl	2700a <__aeabi_memcpy>
   26b3a:	4d50      	ldr	r5, [pc, #320]	@ (26c7c <_start+0x2b38>)
   26b3c:	446d      	add	r5, sp
   26b3e:	4628      	mov	r0, r5
   26b40:	4621      	mov	r1, r4
   26b42:	f7fc ff2b 	bl	2399c <_ZN18complex_no_dynamic3app17he42d229dfd649048E>
   26b46:	7828      	ldrb	r0, [r5, #0]
   26b48:	2801      	cmp	r0, #1
   26b4a:	d057      	beq.n	26bfc <_start+0x2ab8>
   26b4c:	494b      	ldr	r1, [pc, #300]	@ (26c7c <_start+0x2b38>)
   26b4e:	4469      	add	r1, sp
   26b50:	78c8      	ldrb	r0, [r1, #3]
   26b52:	4c54      	ldr	r4, [pc, #336]	@ (26ca4 <_start+0x2b60>)
   26b54:	446c      	add	r4, sp
   26b56:	70a0      	strb	r0, [r4, #2]
   26b58:	7848      	ldrb	r0, [r1, #1]
   26b5a:	788a      	ldrb	r2, [r1, #2]
   26b5c:	0212      	lsls	r2, r2, #8
   26b5e:	1810      	adds	r0, r2, r0
   26b60:	8020      	strh	r0, [r4, #0]
   26b62:	9805      	ldr	r0, [sp, #20]
   26b64:	6e05      	ldr	r5, [r0, #96]	@ 0x60
   26b66:	3108      	adds	r1, #8
   26b68:	4845      	ldr	r0, [pc, #276]	@ (26c80 <_start+0x2b3c>)
   26b6a:	4468      	add	r0, sp
   26b6c:	900c      	str	r0, [sp, #48]	@ 0x30
   26b6e:	265c      	movs	r6, #92	@ 0x5c
   26b70:	4632      	mov	r2, r6
   26b72:	f000 f8ea 	bl	26d4a <__aeabi_memcpy4>
   26b76:	0e28      	lsrs	r0, r5, #24
   26b78:	71a0      	strb	r0, [r4, #6]
   26b7a:	0c28      	lsrs	r0, r5, #16
   26b7c:	7160      	strb	r0, [r4, #5]
   26b7e:	0a28      	lsrs	r0, r5, #8
   26b80:	7120      	strb	r0, [r4, #4]
   26b82:	70e5      	strb	r5, [r4, #3]
   26b84:	1de0      	adds	r0, r4, #7
   26b86:	990c      	ldr	r1, [sp, #48]	@ 0x30
   26b88:	4632      	mov	r2, r6
   26b8a:	f000 fa3e 	bl	2700a <__aeabi_memcpy>
   26b8e:	4d3b      	ldr	r5, [pc, #236]	@ (26c7c <_start+0x2b38>)
   26b90:	446d      	add	r5, sp
   26b92:	4628      	mov	r0, r5
   26b94:	4621      	mov	r1, r4
   26b96:	f7fc fc4b 	bl	23430 <_ZN18complex_no_dynamic3app17hcdb56ede50f46cb5E>
   26b9a:	7828      	ldrb	r0, [r5, #0]
   26b9c:	2801      	cmp	r0, #1
   26b9e:	d02d      	beq.n	26bfc <_start+0x2ab8>
   26ba0:	4836      	ldr	r0, [pc, #216]	@ (26c7c <_start+0x2b38>)
   26ba2:	4468      	add	r0, sp
   26ba4:	78c1      	ldrb	r1, [r0, #3]
   26ba6:	4c40      	ldr	r4, [pc, #256]	@ (26ca8 <_start+0x2b64>)
   26ba8:	446c      	add	r4, sp
   26baa:	70a1      	strb	r1, [r4, #2]
   26bac:	7841      	ldrb	r1, [r0, #1]
   26bae:	7882      	ldrb	r2, [r0, #2]
   26bb0:	0212      	lsls	r2, r2, #8
   26bb2:	1851      	adds	r1, r2, r1
   26bb4:	8021      	strh	r1, [r4, #0]
   26bb6:	3008      	adds	r0, #8
   26bb8:	9905      	ldr	r1, [sp, #20]
   26bba:	6e09      	ldr	r1, [r1, #96]	@ 0x60
   26bbc:	4b30      	ldr	r3, [pc, #192]	@ (26c80 <_start+0x2b3c>)
   26bbe:	446b      	add	r3, sp
   26bc0:	930c      	str	r3, [sp, #48]	@ 0x30
   26bc2:	c864      	ldmia	r0!, {r2, r5, r6}
   26bc4:	c364      	stmia	r3!, {r2, r5, r6}
   26bc6:	c864      	ldmia	r0!, {r2, r5, r6}
   26bc8:	c364      	stmia	r3!, {r2, r5, r6}
   26bca:	c864      	ldmia	r0!, {r2, r5, r6}
   26bcc:	c364      	stmia	r3!, {r2, r5, r6}
   26bce:	7800      	ldrb	r0, [r0, #0]
   26bd0:	7018      	strb	r0, [r3, #0]
   26bd2:	0e08      	lsrs	r0, r1, #24
   26bd4:	71a0      	strb	r0, [r4, #6]
   26bd6:	0c08      	lsrs	r0, r1, #16
   26bd8:	7160      	strb	r0, [r4, #5]
   26bda:	0a08      	lsrs	r0, r1, #8
   26bdc:	7120      	strb	r0, [r4, #4]
   26bde:	70e1      	strb	r1, [r4, #3]
   26be0:	1de0      	adds	r0, r4, #7
   26be2:	2225      	movs	r2, #37	@ 0x25
   26be4:	990c      	ldr	r1, [sp, #48]	@ 0x30
   26be6:	f000 fa10 	bl	2700a <__aeabi_memcpy>
   26bea:	4d24      	ldr	r5, [pc, #144]	@ (26c7c <_start+0x2b38>)
   26bec:	446d      	add	r5, sp
   26bee:	4628      	mov	r0, r5
   26bf0:	4621      	mov	r1, r4
   26bf2:	f7fb fc05 	bl	22400 <_ZN18complex_no_dynamic3app17ha04e42f4b2c95cfbE>
   26bf6:	7828      	ldrb	r0, [r5, #0]
   26bf8:	2801      	cmp	r0, #1
   26bfa:	d10b      	bne.n	26c14 <_start+0x2ad0>
   26bfc:	9805      	ldr	r0, [sp, #20]
   26bfe:	6e00      	ldr	r0, [r0, #96]	@ 0x60
   26c00:	900c      	str	r0, [sp, #48]	@ 0x30
   26c02:	f7fd fada 	bl	241ba <_start+0x76>
   26c06:	46c0      	nop			@ (mov r8, r8)
   26c08:	000013cc 	.word	0x000013cc
   26c0c:	0000117c 	.word	0x0000117c
   26c10:	00001370 	.word	0x00001370
   26c14:	4819      	ldr	r0, [pc, #100]	@ (26c7c <_start+0x2b38>)
   26c16:	4468      	add	r0, sp
   26c18:	78c1      	ldrb	r1, [r0, #3]
   26c1a:	4c24      	ldr	r4, [pc, #144]	@ (26cac <_start+0x2b68>)
   26c1c:	446c      	add	r4, sp
   26c1e:	70a1      	strb	r1, [r4, #2]
   26c20:	7841      	ldrb	r1, [r0, #1]
   26c22:	7882      	ldrb	r2, [r0, #2]
   26c24:	0212      	lsls	r2, r2, #8
   26c26:	1851      	adds	r1, r2, r1
   26c28:	8021      	strh	r1, [r4, #0]
   26c2a:	3008      	adds	r0, #8
   26c2c:	9905      	ldr	r1, [sp, #20]
   26c2e:	6e09      	ldr	r1, [r1, #96]	@ 0x60
   26c30:	910b      	str	r1, [sp, #44]	@ 0x2c
   26c32:	4b13      	ldr	r3, [pc, #76]	@ (26c80 <_start+0x2b3c>)
   26c34:	446b      	add	r3, sp
   26c36:	930c      	str	r3, [sp, #48]	@ 0x30
   26c38:	c866      	ldmia	r0!, {r1, r2, r5, r6}
   26c3a:	c366      	stmia	r3!, {r1, r2, r5, r6}
   26c3c:	c866      	ldmia	r0!, {r1, r2, r5, r6}
   26c3e:	c366      	stmia	r3!, {r1, r2, r5, r6}
   26c40:	8801      	ldrh	r1, [r0, #0]
   26c42:	8019      	strh	r1, [r3, #0]
   26c44:	7880      	ldrb	r0, [r0, #2]
   26c46:	7098      	strb	r0, [r3, #2]
   26c48:	990b      	ldr	r1, [sp, #44]	@ 0x2c
   26c4a:	0e08      	lsrs	r0, r1, #24
   26c4c:	71a0      	strb	r0, [r4, #6]
   26c4e:	0c08      	lsrs	r0, r1, #16
   26c50:	7160      	strb	r0, [r4, #5]
   26c52:	0a08      	lsrs	r0, r1, #8
   26c54:	7120      	strb	r0, [r4, #4]
   26c56:	70e1      	strb	r1, [r4, #3]
   26c58:	1de0      	adds	r0, r4, #7
   26c5a:	2223      	movs	r2, #35	@ 0x23
   26c5c:	990c      	ldr	r1, [sp, #48]	@ 0x30
   26c5e:	f000 f9d4 	bl	2700a <__aeabi_memcpy>
   26c62:	4d06      	ldr	r5, [pc, #24]	@ (26c7c <_start+0x2b38>)
   26c64:	446d      	add	r5, sp
   26c66:	4628      	mov	r0, r5
   26c68:	4621      	mov	r1, r4
   26c6a:	f7fc f929 	bl	22ec0 <_ZN18complex_no_dynamic3app17hb4297dff0ab539c1E>
   26c6e:	7828      	ldrb	r0, [r5, #0]
   26c70:	9905      	ldr	r1, [sp, #20]
   26c72:	6e09      	ldr	r1, [r1, #96]	@ 0x60
   26c74:	910c      	str	r1, [sp, #48]	@ 0x30
   26c76:	f7fd faa1 	bl	241bc <_start+0x78>
   26c7a:	46c0      	nop			@ (mov r8, r8)
   26c7c:	000013cc 	.word	0x000013cc
   26c80:	00001370 	.word	0x00001370
   26c84:	000011c0 	.word	0x000011c0
   26c88:	000011e4 	.word	0x000011e4
   26c8c:	00001208 	.word	0x00001208
   26c90:	00001238 	.word	0x00001238
   26c94:	00001298 	.word	0x00001298
   26c98:	000012f0 	.word	0x000012f0
   26c9c:	00001304 	.word	0x00001304
   26ca0:	00001354 	.word	0x00001354
   26ca4:	00001430 	.word	0x00001430
   26ca8:	00001494 	.word	0x00001494
   26cac:	000014c0 	.word	0x000014c0

00026cb0 <__aeabi_memclr4>:
   26cb0:	b5f0      	push	{r4, r5, r6, r7, lr}
   26cb2:	af03      	add	r7, sp, #12
   26cb4:	2904      	cmp	r1, #4
   26cb6:	d311      	bcc.n	26cdc <__aeabi_memclr4+0x2c>
   26cb8:	1f0c      	subs	r4, r1, #4
   26cba:	250c      	movs	r5, #12
   26cbc:	4025      	ands	r5, r4
   26cbe:	2d0c      	cmp	r5, #12
   26cc0:	d012      	beq.n	26ce8 <__aeabi_memclr4+0x38>
   26cc2:	2600      	movs	r6, #0
   26cc4:	4602      	mov	r2, r0
   26cc6:	c240      	stmia	r2!, {r6}
   26cc8:	0723      	lsls	r3, r4, #28
   26cca:	0f9b      	lsrs	r3, r3, #30
   26ccc:	4623      	mov	r3, r4
   26cce:	d00d      	beq.n	26cec <__aeabi_memclr4+0x3c>
   26cd0:	6046      	str	r6, [r0, #4]
   26cd2:	2d04      	cmp	r5, #4
   26cd4:	d105      	bne.n	26ce2 <__aeabi_memclr4+0x32>
   26cd6:	3908      	subs	r1, #8
   26cd8:	3008      	adds	r0, #8
   26cda:	e005      	b.n	26ce8 <__aeabi_memclr4+0x38>
   26cdc:	460b      	mov	r3, r1
   26cde:	4602      	mov	r2, r0
   26ce0:	e00f      	b.n	26d02 <__aeabi_memclr4+0x52>
   26ce2:	6086      	str	r6, [r0, #8]
   26ce4:	390c      	subs	r1, #12
   26ce6:	300c      	adds	r0, #12
   26ce8:	4602      	mov	r2, r0
   26cea:	460b      	mov	r3, r1
   26cec:	2c0c      	cmp	r4, #12
   26cee:	d308      	bcc.n	26d02 <__aeabi_memclr4+0x52>
   26cf0:	2000      	movs	r0, #0
   26cf2:	6010      	str	r0, [r2, #0]
   26cf4:	6050      	str	r0, [r2, #4]
   26cf6:	6090      	str	r0, [r2, #8]
   26cf8:	60d0      	str	r0, [r2, #12]
   26cfa:	3210      	adds	r2, #16
   26cfc:	3b10      	subs	r3, #16
   26cfe:	2b03      	cmp	r3, #3
   26d00:	d8f6      	bhi.n	26cf0 <__aeabi_memclr4+0x40>
   26d02:	18d0      	adds	r0, r2, r3
   26d04:	4282      	cmp	r2, r0
   26d06:	d21a      	bcs.n	26d3e <__aeabi_memclr4+0x8e>
   26d08:	2403      	movs	r4, #3
   26d0a:	401c      	ands	r4, r3
   26d0c:	1e59      	subs	r1, r3, #1
   26d0e:	2c00      	cmp	r4, #0
   26d10:	d00b      	beq.n	26d2a <__aeabi_memclr4+0x7a>
   26d12:	2300      	movs	r3, #0
   26d14:	7013      	strb	r3, [r2, #0]
   26d16:	2c01      	cmp	r4, #1
   26d18:	d103      	bne.n	26d22 <__aeabi_memclr4+0x72>
   26d1a:	1c52      	adds	r2, r2, #1
   26d1c:	2903      	cmp	r1, #3
   26d1e:	d206      	bcs.n	26d2e <__aeabi_memclr4+0x7e>
   26d20:	e00d      	b.n	26d3e <__aeabi_memclr4+0x8e>
   26d22:	7053      	strb	r3, [r2, #1]
   26d24:	2c02      	cmp	r4, #2
   26d26:	d10b      	bne.n	26d40 <__aeabi_memclr4+0x90>
   26d28:	1c92      	adds	r2, r2, #2
   26d2a:	2903      	cmp	r1, #3
   26d2c:	d307      	bcc.n	26d3e <__aeabi_memclr4+0x8e>
   26d2e:	2100      	movs	r1, #0
   26d30:	70d1      	strb	r1, [r2, #3]
   26d32:	7091      	strb	r1, [r2, #2]
   26d34:	7051      	strb	r1, [r2, #1]
   26d36:	7011      	strb	r1, [r2, #0]
   26d38:	1d12      	adds	r2, r2, #4
   26d3a:	4282      	cmp	r2, r0
   26d3c:	d1f7      	bne.n	26d2e <__aeabi_memclr4+0x7e>
   26d3e:	bdf0      	pop	{r4, r5, r6, r7, pc}
   26d40:	7093      	strb	r3, [r2, #2]
   26d42:	1cd2      	adds	r2, r2, #3
   26d44:	2903      	cmp	r1, #3
   26d46:	d2f2      	bcs.n	26d2e <__aeabi_memclr4+0x7e>
   26d48:	e7f9      	b.n	26d3e <__aeabi_memclr4+0x8e>

00026d4a <__aeabi_memcpy4>:
   26d4a:	b5f0      	push	{r4, r5, r6, r7, lr}
   26d4c:	af03      	add	r7, sp, #12
   26d4e:	b081      	sub	sp, #4
   26d50:	2a04      	cmp	r2, #4
   26d52:	d32d      	bcc.n	26db0 <__aeabi_memcpy4+0x66>
   26d54:	1f13      	subs	r3, r2, #4
   26d56:	250c      	movs	r5, #12
   26d58:	401d      	ands	r5, r3
   26d5a:	2d0c      	cmp	r5, #12
   26d5c:	d019      	beq.n	26d92 <__aeabi_memcpy4+0x48>
   26d5e:	9200      	str	r2, [sp, #0]
   26d60:	460e      	mov	r6, r1
   26d62:	c904      	ldmia	r1!, {r2}
   26d64:	4604      	mov	r4, r0
   26d66:	c004      	stmia	r0!, {r2}
   26d68:	071a      	lsls	r2, r3, #28
   26d6a:	0f92      	lsrs	r2, r2, #30
   26d6c:	461a      	mov	r2, r3
   26d6e:	d010      	beq.n	26d92 <__aeabi_memcpy4+0x48>
   26d70:	4631      	mov	r1, r6
   26d72:	6872      	ldr	r2, [r6, #4]
   26d74:	6062      	str	r2, [r4, #4]
   26d76:	2d04      	cmp	r5, #4
   26d78:	d104      	bne.n	26d84 <__aeabi_memcpy4+0x3a>
   26d7a:	9a00      	ldr	r2, [sp, #0]
   26d7c:	3a08      	subs	r2, #8
   26d7e:	3108      	adds	r1, #8
   26d80:	3408      	adds	r4, #8
   26d82:	e005      	b.n	26d90 <__aeabi_memcpy4+0x46>
   26d84:	688a      	ldr	r2, [r1, #8]
   26d86:	60a2      	str	r2, [r4, #8]
   26d88:	9a00      	ldr	r2, [sp, #0]
   26d8a:	3a0c      	subs	r2, #12
   26d8c:	310c      	adds	r1, #12
   26d8e:	340c      	adds	r4, #12
   26d90:	4620      	mov	r0, r4
   26d92:	2b0c      	cmp	r3, #12
   26d94:	d30c      	bcc.n	26db0 <__aeabi_memcpy4+0x66>
   26d96:	680b      	ldr	r3, [r1, #0]
   26d98:	6003      	str	r3, [r0, #0]
   26d9a:	684b      	ldr	r3, [r1, #4]
   26d9c:	6043      	str	r3, [r0, #4]
   26d9e:	688b      	ldr	r3, [r1, #8]
   26da0:	6083      	str	r3, [r0, #8]
   26da2:	68cb      	ldr	r3, [r1, #12]
   26da4:	60c3      	str	r3, [r0, #12]
   26da6:	3110      	adds	r1, #16
   26da8:	3010      	adds	r0, #16
   26daa:	3a10      	subs	r2, #16
   26dac:	2a03      	cmp	r2, #3
   26dae:	d8f2      	bhi.n	26d96 <__aeabi_memcpy4+0x4c>
   26db0:	f000 f802 	bl	26db8 <_ZN17compiler_builtins3mem6memcpy17h1f9dbb1c3fd18e2fE>
   26db4:	b001      	add	sp, #4
   26db6:	bdf0      	pop	{r4, r5, r6, r7, pc}

00026db8 <_ZN17compiler_builtins3mem6memcpy17h1f9dbb1c3fd18e2fE>:
   26db8:	b5f0      	push	{r4, r5, r6, r7, lr}
   26dba:	af03      	add	r7, sp, #12
   26dbc:	b08f      	sub	sp, #60	@ 0x3c
   26dbe:	2a10      	cmp	r2, #16
   26dc0:	d315      	bcc.n	26dee <_ZN17compiler_builtins3mem6memcpy17h1f9dbb1c3fd18e2fE+0x36>
   26dc2:	920b      	str	r2, [sp, #44]	@ 0x2c
   26dc4:	4242      	negs	r2, r0
   26dc6:	2303      	movs	r3, #3
   26dc8:	9308      	str	r3, [sp, #32]
   26dca:	401a      	ands	r2, r3
   26dcc:	1885      	adds	r5, r0, r2
   26dce:	900a      	str	r0, [sp, #40]	@ 0x28
   26dd0:	42a8      	cmp	r0, r5
   26dd2:	d22a      	bcs.n	26e2a <_ZN17compiler_builtins3mem6memcpy17h1f9dbb1c3fd18e2fE+0x72>
   26dd4:	1e54      	subs	r4, r2, #1
   26dd6:	2a00      	cmp	r2, #0
   26dd8:	980a      	ldr	r0, [sp, #40]	@ 0x28
   26dda:	4606      	mov	r6, r0
   26ddc:	460b      	mov	r3, r1
   26dde:	d016      	beq.n	26e0e <_ZN17compiler_builtins3mem6memcpy17h1f9dbb1c3fd18e2fE+0x56>
   26de0:	780b      	ldrb	r3, [r1, #0]
   26de2:	7003      	strb	r3, [r0, #0]
   26de4:	2a01      	cmp	r2, #1
   26de6:	d107      	bne.n	26df8 <_ZN17compiler_builtins3mem6memcpy17h1f9dbb1c3fd18e2fE+0x40>
   26de8:	1c4b      	adds	r3, r1, #1
   26dea:	1c46      	adds	r6, r0, #1
   26dec:	e00f      	b.n	26e0e <_ZN17compiler_builtins3mem6memcpy17h1f9dbb1c3fd18e2fE+0x56>
   26dee:	4603      	mov	r3, r0
   26df0:	189c      	adds	r4, r3, r2
   26df2:	42a3      	cmp	r3, r4
   26df4:	d341      	bcc.n	26e7a <_ZN17compiler_builtins3mem6memcpy17h1f9dbb1c3fd18e2fE+0xc2>
   26df6:	e062      	b.n	26ebe <_ZN17compiler_builtins3mem6memcpy17h1f9dbb1c3fd18e2fE+0x106>
   26df8:	784b      	ldrb	r3, [r1, #1]
   26dfa:	7043      	strb	r3, [r0, #1]
   26dfc:	2a02      	cmp	r2, #2
   26dfe:	d102      	bne.n	26e06 <_ZN17compiler_builtins3mem6memcpy17h1f9dbb1c3fd18e2fE+0x4e>
   26e00:	1c8b      	adds	r3, r1, #2
   26e02:	1c86      	adds	r6, r0, #2
   26e04:	e003      	b.n	26e0e <_ZN17compiler_builtins3mem6memcpy17h1f9dbb1c3fd18e2fE+0x56>
   26e06:	788b      	ldrb	r3, [r1, #2]
   26e08:	7083      	strb	r3, [r0, #2]
   26e0a:	1ccb      	adds	r3, r1, #3
   26e0c:	1cc6      	adds	r6, r0, #3
   26e0e:	2c03      	cmp	r4, #3
   26e10:	d30b      	bcc.n	26e2a <_ZN17compiler_builtins3mem6memcpy17h1f9dbb1c3fd18e2fE+0x72>
   26e12:	781c      	ldrb	r4, [r3, #0]
   26e14:	7034      	strb	r4, [r6, #0]
   26e16:	785c      	ldrb	r4, [r3, #1]
   26e18:	7074      	strb	r4, [r6, #1]
   26e1a:	789c      	ldrb	r4, [r3, #2]
   26e1c:	70b4      	strb	r4, [r6, #2]
   26e1e:	78dc      	ldrb	r4, [r3, #3]
   26e20:	70f4      	strb	r4, [r6, #3]
   26e22:	1d1b      	adds	r3, r3, #4
   26e24:	1d36      	adds	r6, r6, #4
   26e26:	42ae      	cmp	r6, r5
   26e28:	d1f3      	bne.n	26e12 <_ZN17compiler_builtins3mem6memcpy17h1f9dbb1c3fd18e2fE+0x5a>
   26e2a:	980b      	ldr	r0, [sp, #44]	@ 0x2c
   26e2c:	1a80      	subs	r0, r0, r2
   26e2e:	900b      	str	r0, [sp, #44]	@ 0x2c
   26e30:	9c08      	ldr	r4, [sp, #32]
   26e32:	43a0      	bics	r0, r4
   26e34:	182b      	adds	r3, r5, r0
   26e36:	188e      	adds	r6, r1, r2
   26e38:	9609      	str	r6, [sp, #36]	@ 0x24
   26e3a:	4026      	ands	r6, r4
   26e3c:	9007      	str	r0, [sp, #28]
   26e3e:	d147      	bne.n	26ed0 <_ZN17compiler_builtins3mem6memcpy17h1f9dbb1c3fd18e2fE+0x118>
   26e40:	429d      	cmp	r5, r3
   26e42:	9a0b      	ldr	r2, [sp, #44]	@ 0x2c
   26e44:	9e09      	ldr	r6, [sp, #36]	@ 0x24
   26e46:	d211      	bcs.n	26e6c <_ZN17compiler_builtins3mem6memcpy17h1f9dbb1c3fd18e2fE+0xb4>
   26e48:	4631      	mov	r1, r6
   26e4a:	6808      	ldr	r0, [r1, #0]
   26e4c:	c501      	stmia	r5!, {r0}
   26e4e:	429d      	cmp	r5, r3
   26e50:	d20c      	bcs.n	26e6c <_ZN17compiler_builtins3mem6memcpy17h1f9dbb1c3fd18e2fE+0xb4>
   26e52:	6848      	ldr	r0, [r1, #4]
   26e54:	c501      	stmia	r5!, {r0}
   26e56:	429d      	cmp	r5, r3
   26e58:	d208      	bcs.n	26e6c <_ZN17compiler_builtins3mem6memcpy17h1f9dbb1c3fd18e2fE+0xb4>
   26e5a:	6888      	ldr	r0, [r1, #8]
   26e5c:	c501      	stmia	r5!, {r0}
   26e5e:	429d      	cmp	r5, r3
   26e60:	d204      	bcs.n	26e6c <_ZN17compiler_builtins3mem6memcpy17h1f9dbb1c3fd18e2fE+0xb4>
   26e62:	68c8      	ldr	r0, [r1, #12]
   26e64:	c501      	stmia	r5!, {r0}
   26e66:	3110      	adds	r1, #16
   26e68:	429d      	cmp	r5, r3
   26e6a:	d3ee      	bcc.n	26e4a <_ZN17compiler_builtins3mem6memcpy17h1f9dbb1c3fd18e2fE+0x92>
   26e6c:	4022      	ands	r2, r4
   26e6e:	9807      	ldr	r0, [sp, #28]
   26e70:	1831      	adds	r1, r6, r0
   26e72:	980a      	ldr	r0, [sp, #40]	@ 0x28
   26e74:	189c      	adds	r4, r3, r2
   26e76:	42a3      	cmp	r3, r4
   26e78:	d221      	bcs.n	26ebe <_ZN17compiler_builtins3mem6memcpy17h1f9dbb1c3fd18e2fE+0x106>
   26e7a:	2503      	movs	r5, #3
   26e7c:	4015      	ands	r5, r2
   26e7e:	1e52      	subs	r2, r2, #1
   26e80:	2d00      	cmp	r5, #0
   26e82:	d00e      	beq.n	26ea2 <_ZN17compiler_builtins3mem6memcpy17h1f9dbb1c3fd18e2fE+0xea>
   26e84:	780e      	ldrb	r6, [r1, #0]
   26e86:	701e      	strb	r6, [r3, #0]
   26e88:	2d01      	cmp	r5, #1
   26e8a:	d104      	bne.n	26e96 <_ZN17compiler_builtins3mem6memcpy17h1f9dbb1c3fd18e2fE+0xde>
   26e8c:	1c49      	adds	r1, r1, #1
   26e8e:	1c5b      	adds	r3, r3, #1
   26e90:	2a03      	cmp	r2, #3
   26e92:	d208      	bcs.n	26ea6 <_ZN17compiler_builtins3mem6memcpy17h1f9dbb1c3fd18e2fE+0xee>
   26e94:	e013      	b.n	26ebe <_ZN17compiler_builtins3mem6memcpy17h1f9dbb1c3fd18e2fE+0x106>
   26e96:	784e      	ldrb	r6, [r1, #1]
   26e98:	705e      	strb	r6, [r3, #1]
   26e9a:	2d02      	cmp	r5, #2
   26e9c:	d111      	bne.n	26ec2 <_ZN17compiler_builtins3mem6memcpy17h1f9dbb1c3fd18e2fE+0x10a>
   26e9e:	1c89      	adds	r1, r1, #2
   26ea0:	1c9b      	adds	r3, r3, #2
   26ea2:	2a03      	cmp	r2, #3
   26ea4:	d30b      	bcc.n	26ebe <_ZN17compiler_builtins3mem6memcpy17h1f9dbb1c3fd18e2fE+0x106>
   26ea6:	780a      	ldrb	r2, [r1, #0]
   26ea8:	701a      	strb	r2, [r3, #0]
   26eaa:	784a      	ldrb	r2, [r1, #1]
   26eac:	705a      	strb	r2, [r3, #1]
   26eae:	788a      	ldrb	r2, [r1, #2]
   26eb0:	709a      	strb	r2, [r3, #2]
   26eb2:	78ca      	ldrb	r2, [r1, #3]
   26eb4:	70da      	strb	r2, [r3, #3]
   26eb6:	1d09      	adds	r1, r1, #4
   26eb8:	1d1b      	adds	r3, r3, #4
   26eba:	42a3      	cmp	r3, r4
   26ebc:	d1f3      	bne.n	26ea6 <_ZN17compiler_builtins3mem6memcpy17h1f9dbb1c3fd18e2fE+0xee>
   26ebe:	b00f      	add	sp, #60	@ 0x3c
   26ec0:	bdf0      	pop	{r4, r5, r6, r7, pc}
   26ec2:	788d      	ldrb	r5, [r1, #2]
   26ec4:	709d      	strb	r5, [r3, #2]
   26ec6:	1cc9      	adds	r1, r1, #3
   26ec8:	1cdb      	adds	r3, r3, #3
   26eca:	2a03      	cmp	r2, #3
   26ecc:	d2eb      	bcs.n	26ea6 <_ZN17compiler_builtins3mem6memcpy17h1f9dbb1c3fd18e2fE+0xee>
   26ece:	e7f6      	b.n	26ebe <_ZN17compiler_builtins3mem6memcpy17h1f9dbb1c3fd18e2fE+0x106>
   26ed0:	2400      	movs	r4, #0
   26ed2:	9406      	str	r4, [sp, #24]
   26ed4:	940e      	str	r4, [sp, #56]	@ 0x38
   26ed6:	ac0e      	add	r4, sp, #56	@ 0x38
   26ed8:	19a4      	adds	r4, r4, r6
   26eda:	9405      	str	r4, [sp, #20]
   26edc:	2404      	movs	r4, #4
   26ede:	1ba4      	subs	r4, r4, r6
   26ee0:	9404      	str	r4, [sp, #16]
   26ee2:	07e4      	lsls	r4, r4, #31
   26ee4:	9600      	str	r6, [sp, #0]
   26ee6:	d006      	beq.n	26ef6 <_ZN17compiler_builtins3mem6memcpy17h1f9dbb1c3fd18e2fE+0x13e>
   26ee8:	9c09      	ldr	r4, [sp, #36]	@ 0x24
   26eea:	7824      	ldrb	r4, [r4, #0]
   26eec:	9e05      	ldr	r6, [sp, #20]
   26eee:	7034      	strb	r4, [r6, #0]
   26ef0:	9e00      	ldr	r6, [sp, #0]
   26ef2:	2401      	movs	r4, #1
   26ef4:	9406      	str	r4, [sp, #24]
   26ef6:	9c04      	ldr	r4, [sp, #16]
   26ef8:	07a4      	lsls	r4, r4, #30
   26efa:	d508      	bpl.n	26f0e <_ZN17compiler_builtins3mem6memcpy17h1f9dbb1c3fd18e2fE+0x156>
   26efc:	9c09      	ldr	r4, [sp, #36]	@ 0x24
   26efe:	9204      	str	r2, [sp, #16]
   26f00:	9a06      	ldr	r2, [sp, #24]
   26f02:	5aa4      	ldrh	r4, [r4, r2]
   26f04:	9e05      	ldr	r6, [sp, #20]
   26f06:	9a06      	ldr	r2, [sp, #24]
   26f08:	52b4      	strh	r4, [r6, r2]
   26f0a:	9a04      	ldr	r2, [sp, #16]
   26f0c:	9e00      	ldr	r6, [sp, #0]
   26f0e:	00f4      	lsls	r4, r6, #3
   26f10:	9403      	str	r4, [sp, #12]
   26f12:	9c0e      	ldr	r4, [sp, #56]	@ 0x38
   26f14:	9406      	str	r4, [sp, #24]
   26f16:	1d2c      	adds	r4, r5, #4
   26f18:	429c      	cmp	r4, r3
   26f1a:	d236      	bcs.n	26f8a <_ZN17compiler_builtins3mem6memcpy17h1f9dbb1c3fd18e2fE+0x1d2>
   26f1c:	4274      	negs	r4, r6
   26f1e:	1909      	adds	r1, r1, r4
   26f20:	9105      	str	r1, [sp, #20]
   26f22:	9d03      	ldr	r5, [sp, #12]
   26f24:	4269      	negs	r1, r5
   26f26:	2418      	movs	r4, #24
   26f28:	400c      	ands	r4, r1
   26f2a:	9402      	str	r4, [sp, #8]
   26f2c:	990a      	ldr	r1, [sp, #40]	@ 0x28
   26f2e:	9104      	str	r1, [sp, #16]
   26f30:	4629      	mov	r1, r5
   26f32:	9c06      	ldr	r4, [sp, #24]
   26f34:	40cc      	lsrs	r4, r1
   26f36:	9406      	str	r4, [sp, #24]
   26f38:	9905      	ldr	r1, [sp, #20]
   26f3a:	1889      	adds	r1, r1, r2
   26f3c:	9101      	str	r1, [sp, #4]
   26f3e:	6849      	ldr	r1, [r1, #4]
   26f40:	460c      	mov	r4, r1
   26f42:	9d02      	ldr	r5, [sp, #8]
   26f44:	40ac      	lsls	r4, r5
   26f46:	9d06      	ldr	r5, [sp, #24]
   26f48:	432c      	orrs	r4, r5
   26f4a:	9d04      	ldr	r5, [sp, #16]
   26f4c:	50ac      	str	r4, [r5, r2]
   26f4e:	18ad      	adds	r5, r5, r2
   26f50:	462c      	mov	r4, r5
   26f52:	3408      	adds	r4, #8
   26f54:	429c      	cmp	r4, r3
   26f56:	d21c      	bcs.n	26f92 <_ZN17compiler_builtins3mem6memcpy17h1f9dbb1c3fd18e2fE+0x1da>
   26f58:	9c03      	ldr	r4, [sp, #12]
   26f5a:	40e1      	lsrs	r1, r4
   26f5c:	9c01      	ldr	r4, [sp, #4]
   26f5e:	68a4      	ldr	r4, [r4, #8]
   26f60:	9406      	str	r4, [sp, #24]
   26f62:	9501      	str	r5, [sp, #4]
   26f64:	9d02      	ldr	r5, [sp, #8]
   26f66:	40ac      	lsls	r4, r5
   26f68:	430c      	orrs	r4, r1
   26f6a:	9901      	ldr	r1, [sp, #4]
   26f6c:	604c      	str	r4, [r1, #4]
   26f6e:	9904      	ldr	r1, [sp, #16]
   26f70:	3108      	adds	r1, #8
   26f72:	9104      	str	r1, [sp, #16]
   26f74:	188d      	adds	r5, r1, r2
   26f76:	1d29      	adds	r1, r5, #4
   26f78:	9c05      	ldr	r4, [sp, #20]
   26f7a:	3408      	adds	r4, #8
   26f7c:	9405      	str	r4, [sp, #20]
   26f7e:	4299      	cmp	r1, r3
   26f80:	9903      	ldr	r1, [sp, #12]
   26f82:	d3d6      	bcc.n	26f32 <_ZN17compiler_builtins3mem6memcpy17h1f9dbb1c3fd18e2fE+0x17a>
   26f84:	9805      	ldr	r0, [sp, #20]
   26f86:	1880      	adds	r0, r0, r2
   26f88:	e001      	b.n	26f8e <_ZN17compiler_builtins3mem6memcpy17h1f9dbb1c3fd18e2fE+0x1d6>
   26f8a:	9809      	ldr	r0, [sp, #36]	@ 0x24
   26f8c:	1b80      	subs	r0, r0, r6
   26f8e:	9005      	str	r0, [sp, #20]
   26f90:	e004      	b.n	26f9c <_ZN17compiler_builtins3mem6memcpy17h1f9dbb1c3fd18e2fE+0x1e4>
   26f92:	9801      	ldr	r0, [sp, #4]
   26f94:	1d00      	adds	r0, r0, #4
   26f96:	9005      	str	r0, [sp, #20]
   26f98:	1d2d      	adds	r5, r5, #4
   26f9a:	9106      	str	r1, [sp, #24]
   26f9c:	a80d      	add	r0, sp, #52	@ 0x34
   26f9e:	2100      	movs	r1, #0
   26fa0:	9004      	str	r0, [sp, #16]
   26fa2:	7001      	strb	r1, [r0, #0]
   26fa4:	a80c      	add	r0, sp, #48	@ 0x30
   26fa6:	7001      	strb	r1, [r0, #0]
   26fa8:	2e01      	cmp	r6, #1
   26faa:	460e      	mov	r6, r1
   26fac:	460c      	mov	r4, r1
   26fae:	9102      	str	r1, [sp, #8]
   26fb0:	9a0b      	ldr	r2, [sp, #44]	@ 0x2c
   26fb2:	d009      	beq.n	26fc8 <_ZN17compiler_builtins3mem6memcpy17h1f9dbb1c3fd18e2fE+0x210>
   26fb4:	9c05      	ldr	r4, [sp, #20]
   26fb6:	7960      	ldrb	r0, [r4, #5]
   26fb8:	7926      	ldrb	r6, [r4, #4]
   26fba:	ac0d      	add	r4, sp, #52	@ 0x34
   26fbc:	7026      	strb	r6, [r4, #0]
   26fbe:	0204      	lsls	r4, r0, #8
   26fc0:	2002      	movs	r0, #2
   26fc2:	9002      	str	r0, [sp, #8]
   26fc4:	a80c      	add	r0, sp, #48	@ 0x30
   26fc6:	9004      	str	r0, [sp, #16]
   26fc8:	9809      	ldr	r0, [sp, #36]	@ 0x24
   26fca:	07c0      	lsls	r0, r0, #31
   26fcc:	d00a      	beq.n	26fe4 <_ZN17compiler_builtins3mem6memcpy17h1f9dbb1c3fd18e2fE+0x22c>
   26fce:	9805      	ldr	r0, [sp, #20]
   26fd0:	1d00      	adds	r0, r0, #4
   26fd2:	9902      	ldr	r1, [sp, #8]
   26fd4:	5c40      	ldrb	r0, [r0, r1]
   26fd6:	9904      	ldr	r1, [sp, #16]
   26fd8:	7008      	strb	r0, [r1, #0]
   26fda:	a80d      	add	r0, sp, #52	@ 0x34
   26fdc:	7806      	ldrb	r6, [r0, #0]
   26fde:	a80c      	add	r0, sp, #48	@ 0x30
   26fe0:	7800      	ldrb	r0, [r0, #0]
   26fe2:	0401      	lsls	r1, r0, #16
   26fe4:	9605      	str	r6, [sp, #20]
   26fe6:	9803      	ldr	r0, [sp, #12]
   26fe8:	4240      	negs	r0, r0
   26fea:	9004      	str	r0, [sp, #16]
   26fec:	2618      	movs	r6, #24
   26fee:	9804      	ldr	r0, [sp, #16]
   26ff0:	4006      	ands	r6, r0
   26ff2:	430c      	orrs	r4, r1
   26ff4:	9905      	ldr	r1, [sp, #20]
   26ff6:	430c      	orrs	r4, r1
   26ff8:	40b4      	lsls	r4, r6
   26ffa:	9906      	ldr	r1, [sp, #24]
   26ffc:	9803      	ldr	r0, [sp, #12]
   26ffe:	40c1      	lsrs	r1, r0
   27000:	4321      	orrs	r1, r4
   27002:	6029      	str	r1, [r5, #0]
   27004:	9c08      	ldr	r4, [sp, #32]
   27006:	9e09      	ldr	r6, [sp, #36]	@ 0x24
   27008:	e730      	b.n	26e6c <_ZN17compiler_builtins3mem6memcpy17h1f9dbb1c3fd18e2fE+0xb4>

0002700a <__aeabi_memcpy>:
   2700a:	b580      	push	{r7, lr}
   2700c:	af00      	add	r7, sp, #0
   2700e:	f7ff fed3 	bl	26db8 <_ZN17compiler_builtins3mem6memcpy17h1f9dbb1c3fd18e2fE>
   27012:	bd80      	pop	{r7, pc}
