
target/thumbv6m-none-eabi/opt-3/examples/complex_dynamic_type:     file format elf32-littlearm

Sections:
Idx Name          Size      VMA       LMA       File off  Algn
  0 .ARM.exidx    00000010  000100d4  000100d4  000000d4  2**2
                  CONTENTS, ALLOC, LOAD, READONLY, DATA
  1 .text         0000b032  000200e4  000200e4  000000e4  2**2
                  CONTENTS, ALLOC, LOAD, READONLY, CODE
  2 .comment      00000099  00000000  00000000  0000b116  2**0
                  CONTENTS, READONLY
  3 .ARM.attributes 00000032  00000000  00000000  0000b1af  2**0
                  CONTENTS, READONLY

Disassembly of section .text:

000200e4 <_ZN20complex_dynamic_type3app17h02962e4ccfa6f6c1E>:
   200e4:	b5f0      	push	{r4, r5, r6, r7, lr}
   200e6:	af03      	add	r7, sp, #12
   200e8:	b0af      	sub	sp, #188	@ 0xbc
   200ea:	9004      	str	r0, [sp, #16]
   200ec:	a805      	add	r0, sp, #20
   200ee:	2402      	movs	r4, #2
   200f0:	7004      	strb	r4, [r0, #0]
   200f2:	1c46      	adds	r6, r0, #1
   200f4:	2259      	movs	r2, #89	@ 0x59
   200f6:	9203      	str	r2, [sp, #12]
   200f8:	4630      	mov	r0, r6
   200fa:	f00b f807 	bl	2b10c <__aeabi_memcpy>
   200fe:	ad1c      	add	r5, sp, #112	@ 0x70
   20100:	1c68      	adds	r0, r5, #1
   20102:	214a      	movs	r1, #74	@ 0x4a
   20104:	9002      	str	r0, [sp, #8]
   20106:	f00a fe41 	bl	2ad8c <__aeabi_memclr>
   2010a:	9401      	str	r4, [sp, #4]
   2010c:	702c      	strb	r4, [r5, #0]
   2010e:	4848      	ldr	r0, [pc, #288]	@ (20230 <_ZN20complex_dynamic_type3app17h02962e4ccfa6f6c1E+0x14c>)
   20110:	2100      	movs	r1, #0
   20112:	4632      	mov	r2, r6
   20114:	9b03      	ldr	r3, [sp, #12]
   20116:	df04      	svc	4
   20118:	2802      	cmp	r0, #2
   2011a:	d104      	bne.n	20126 <_ZN20complex_dynamic_type3app17h02962e4ccfa6f6c1E+0x42>
   2011c:	2001      	movs	r0, #1
   2011e:	9a04      	ldr	r2, [sp, #16]
   20120:	7010      	strb	r0, [r2, #0]
   20122:	6051      	str	r1, [r2, #4]
   20124:	e02c      	b.n	20180 <_ZN20complex_dynamic_type3app17h02962e4ccfa6f6c1E+0x9c>
   20126:	9d04      	ldr	r5, [sp, #16]
   20128:	a805      	add	r0, sp, #20
   2012a:	2104      	movs	r1, #4
   2012c:	7001      	strb	r1, [r0, #0]
   2012e:	4840      	ldr	r0, [pc, #256]	@ (20230 <_ZN20complex_dynamic_type3app17h02962e4ccfa6f6c1E+0x14c>)
   20130:	234a      	movs	r3, #74	@ 0x4a
   20132:	9c02      	ldr	r4, [sp, #8]
   20134:	4622      	mov	r2, r4
   20136:	df03      	svc	3
   20138:	2802      	cmp	r0, #2
   2013a:	d10e      	bne.n	2015a <_ZN20complex_dynamic_type3app17h02962e4ccfa6f6c1E+0x76>
   2013c:	2001      	movs	r0, #1
   2013e:	7028      	strb	r0, [r5, #0]
   20140:	6069      	str	r1, [r5, #4]
   20142:	a81c      	add	r0, sp, #112	@ 0x70
   20144:	7800      	ldrb	r0, [r0, #0]
   20146:	2802      	cmp	r0, #2
   20148:	d01a      	beq.n	20180 <_ZN20complex_dynamic_type3app17h02962e4ccfa6f6c1E+0x9c>
   2014a:	2803      	cmp	r0, #3
   2014c:	d013      	beq.n	20176 <_ZN20complex_dynamic_type3app17h02962e4ccfa6f6c1E+0x92>
   2014e:	4838      	ldr	r0, [pc, #224]	@ (20230 <_ZN20complex_dynamic_type3app17h02962e4ccfa6f6c1E+0x14c>)
   20150:	2104      	movs	r1, #4
   20152:	2200      	movs	r2, #0
   20154:	4613      	mov	r3, r2
   20156:	df04      	svc	4
   20158:	e012      	b.n	20180 <_ZN20complex_dynamic_type3app17h02962e4ccfa6f6c1E+0x9c>
   2015a:	a81c      	add	r0, sp, #112	@ 0x70
   2015c:	2103      	movs	r1, #3
   2015e:	7001      	strb	r1, [r0, #0]
   20160:	4833      	ldr	r0, [pc, #204]	@ (20230 <_ZN20complex_dynamic_type3app17h02962e4ccfa6f6c1E+0x14c>)
   20162:	2204      	movs	r2, #4
   20164:	2600      	movs	r6, #0
   20166:	4631      	mov	r1, r6
   20168:	4633      	mov	r3, r6
   2016a:	df02      	svc	2
   2016c:	2880      	cmp	r0, #128	@ 0x80
   2016e:	d21b      	bcs.n	201a8 <_ZN20complex_dynamic_type3app17h02962e4ccfa6f6c1E+0xc4>
   20170:	2001      	movs	r0, #1
   20172:	7028      	strb	r0, [r5, #0]
   20174:	6069      	str	r1, [r5, #4]
   20176:	482e      	ldr	r0, [pc, #184]	@ (20230 <_ZN20complex_dynamic_type3app17h02962e4ccfa6f6c1E+0x14c>)
   20178:	2104      	movs	r1, #4
   2017a:	2200      	movs	r2, #0
   2017c:	4613      	mov	r3, r2
   2017e:	df03      	svc	3
   20180:	a805      	add	r0, sp, #20
   20182:	7800      	ldrb	r0, [r0, #0]
   20184:	2802      	cmp	r0, #2
   20186:	d045      	beq.n	20214 <_ZN20complex_dynamic_type3app17h02962e4ccfa6f6c1E+0x130>
   20188:	2804      	cmp	r0, #4
   2018a:	d106      	bne.n	2019a <_ZN20complex_dynamic_type3app17h02962e4ccfa6f6c1E+0xb6>
   2018c:	4828      	ldr	r0, [pc, #160]	@ (20230 <_ZN20complex_dynamic_type3app17h02962e4ccfa6f6c1E+0x14c>)
   2018e:	2100      	movs	r1, #0
   20190:	460a      	mov	r2, r1
   20192:	460b      	mov	r3, r1
   20194:	df04      	svc	4
   20196:	b02f      	add	sp, #188	@ 0xbc
   20198:	bdf0      	pop	{r4, r5, r6, r7, pc}
   2019a:	4825      	ldr	r0, [pc, #148]	@ (20230 <_ZN20complex_dynamic_type3app17h02962e4ccfa6f6c1E+0x14c>)
   2019c:	2100      	movs	r1, #0
   2019e:	460a      	mov	r2, r1
   201a0:	460b      	mov	r3, r1
   201a2:	df03      	svc	3
   201a4:	b02f      	add	sp, #188	@ 0xbc
   201a6:	bdf0      	pop	{r4, r5, r6, r7, pc}
   201a8:	a805      	add	r0, sp, #20
   201aa:	7800      	ldrb	r0, [r0, #0]
   201ac:	2802      	cmp	r0, #2
   201ae:	d00c      	beq.n	201ca <_ZN20complex_dynamic_type3app17h02962e4ccfa6f6c1E+0xe6>
   201b0:	2803      	cmp	r0, #3
   201b2:	d105      	bne.n	201c0 <_ZN20complex_dynamic_type3app17h02962e4ccfa6f6c1E+0xdc>
   201b4:	481e      	ldr	r0, [pc, #120]	@ (20230 <_ZN20complex_dynamic_type3app17h02962e4ccfa6f6c1E+0x14c>)
   201b6:	2100      	movs	r1, #0
   201b8:	460a      	mov	r2, r1
   201ba:	460b      	mov	r3, r1
   201bc:	df03      	svc	3
   201be:	e004      	b.n	201ca <_ZN20complex_dynamic_type3app17h02962e4ccfa6f6c1E+0xe6>
   201c0:	481b      	ldr	r0, [pc, #108]	@ (20230 <_ZN20complex_dynamic_type3app17h02962e4ccfa6f6c1E+0x14c>)
   201c2:	2100      	movs	r1, #0
   201c4:	460a      	mov	r2, r1
   201c6:	460b      	mov	r3, r1
   201c8:	df04      	svc	4
   201ca:	a805      	add	r0, sp, #20
   201cc:	9901      	ldr	r1, [sp, #4]
   201ce:	7001      	strb	r1, [r0, #0]
   201d0:	a81c      	add	r0, sp, #112	@ 0x70
   201d2:	7800      	ldrb	r0, [r0, #0]
   201d4:	2804      	cmp	r0, #4
   201d6:	d007      	beq.n	201e8 <_ZN20complex_dynamic_type3app17h02962e4ccfa6f6c1E+0x104>
   201d8:	2803      	cmp	r0, #3
   201da:	d11d      	bne.n	20218 <_ZN20complex_dynamic_type3app17h02962e4ccfa6f6c1E+0x134>
   201dc:	4814      	ldr	r0, [pc, #80]	@ (20230 <_ZN20complex_dynamic_type3app17h02962e4ccfa6f6c1E+0x14c>)
   201de:	2104      	movs	r1, #4
   201e0:	2200      	movs	r2, #0
   201e2:	4613      	mov	r3, r2
   201e4:	df03      	svc	3
   201e6:	e004      	b.n	201f2 <_ZN20complex_dynamic_type3app17h02962e4ccfa6f6c1E+0x10e>
   201e8:	4811      	ldr	r0, [pc, #68]	@ (20230 <_ZN20complex_dynamic_type3app17h02962e4ccfa6f6c1E+0x14c>)
   201ea:	2104      	movs	r1, #4
   201ec:	2200      	movs	r2, #0
   201ee:	4613      	mov	r3, r2
   201f0:	df04      	svc	4
   201f2:	a805      	add	r0, sp, #20
   201f4:	7804      	ldrb	r4, [r0, #0]
   201f6:	1c68      	adds	r0, r5, #1
   201f8:	224a      	movs	r2, #74	@ 0x4a
   201fa:	9902      	ldr	r1, [sp, #8]
   201fc:	f00a ff86 	bl	2b10c <__aeabi_memcpy>
   20200:	702e      	strb	r6, [r5, #0]
   20202:	2c02      	cmp	r4, #2
   20204:	d006      	beq.n	20214 <_ZN20complex_dynamic_type3app17h02962e4ccfa6f6c1E+0x130>
   20206:	480a      	ldr	r0, [pc, #40]	@ (20230 <_ZN20complex_dynamic_type3app17h02962e4ccfa6f6c1E+0x14c>)
   20208:	2100      	movs	r1, #0
   2020a:	460a      	mov	r2, r1
   2020c:	460b      	mov	r3, r1
   2020e:	2c04      	cmp	r4, #4
   20210:	d10a      	bne.n	20228 <_ZN20complex_dynamic_type3app17h02962e4ccfa6f6c1E+0x144>
   20212:	df04      	svc	4
   20214:	b02f      	add	sp, #188	@ 0xbc
   20216:	bdf0      	pop	{r4, r5, r6, r7, pc}
   20218:	1c68      	adds	r0, r5, #1
   2021a:	224a      	movs	r2, #74	@ 0x4a
   2021c:	4621      	mov	r1, r4
   2021e:	f00a ff75 	bl	2b10c <__aeabi_memcpy>
   20222:	702e      	strb	r6, [r5, #0]
   20224:	b02f      	add	sp, #188	@ 0xbc
   20226:	bdf0      	pop	{r4, r5, r6, r7, pc}
   20228:	df03      	svc	3
   2022a:	b02f      	add	sp, #188	@ 0xbc
   2022c:	bdf0      	pop	{r4, r5, r6, r7, pc}
   2022e:	46c0      	nop			@ (mov r8, r8)
   20230:	00001484 	.word	0x00001484

00020234 <_ZN20complex_dynamic_type3app17h060e83eb53d0360dE>:
   20234:	b5f0      	push	{r4, r5, r6, r7, lr}
   20236:	af03      	add	r7, sp, #12
   20238:	b0a5      	sub	sp, #148	@ 0x94
   2023a:	9004      	str	r0, [sp, #16]
   2023c:	a805      	add	r0, sp, #20
   2023e:	2402      	movs	r4, #2
   20240:	7004      	strb	r4, [r0, #0]
   20242:	1c46      	adds	r6, r0, #1
   20244:	221b      	movs	r2, #27
   20246:	9203      	str	r2, [sp, #12]
   20248:	4630      	mov	r0, r6
   2024a:	f00a ff5f 	bl	2b10c <__aeabi_memcpy>
   2024e:	ad0c      	add	r5, sp, #48	@ 0x30
   20250:	1c68      	adds	r0, r5, #1
   20252:	2163      	movs	r1, #99	@ 0x63
   20254:	9002      	str	r0, [sp, #8]
   20256:	f00a fd99 	bl	2ad8c <__aeabi_memclr>
   2025a:	9401      	str	r4, [sp, #4]
   2025c:	702c      	strb	r4, [r5, #0]
   2025e:	4848      	ldr	r0, [pc, #288]	@ (20380 <_ZN20complex_dynamic_type3app17h060e83eb53d0360dE+0x14c>)
   20260:	2103      	movs	r1, #3
   20262:	4632      	mov	r2, r6
   20264:	9b03      	ldr	r3, [sp, #12]
   20266:	df04      	svc	4
   20268:	2802      	cmp	r0, #2
   2026a:	d104      	bne.n	20276 <_ZN20complex_dynamic_type3app17h060e83eb53d0360dE+0x42>
   2026c:	2001      	movs	r0, #1
   2026e:	9a04      	ldr	r2, [sp, #16]
   20270:	7010      	strb	r0, [r2, #0]
   20272:	6051      	str	r1, [r2, #4]
   20274:	e02c      	b.n	202d0 <_ZN20complex_dynamic_type3app17h060e83eb53d0360dE+0x9c>
   20276:	9d04      	ldr	r5, [sp, #16]
   20278:	a805      	add	r0, sp, #20
   2027a:	2104      	movs	r1, #4
   2027c:	7001      	strb	r1, [r0, #0]
   2027e:	4840      	ldr	r0, [pc, #256]	@ (20380 <_ZN20complex_dynamic_type3app17h060e83eb53d0360dE+0x14c>)
   20280:	2403      	movs	r4, #3
   20282:	2363      	movs	r3, #99	@ 0x63
   20284:	4621      	mov	r1, r4
   20286:	9a02      	ldr	r2, [sp, #8]
   20288:	df03      	svc	3
   2028a:	2802      	cmp	r0, #2
   2028c:	d10e      	bne.n	202ac <_ZN20complex_dynamic_type3app17h060e83eb53d0360dE+0x78>
   2028e:	2001      	movs	r0, #1
   20290:	7028      	strb	r0, [r5, #0]
   20292:	6069      	str	r1, [r5, #4]
   20294:	a80c      	add	r0, sp, #48	@ 0x30
   20296:	7800      	ldrb	r0, [r0, #0]
   20298:	2802      	cmp	r0, #2
   2029a:	d019      	beq.n	202d0 <_ZN20complex_dynamic_type3app17h060e83eb53d0360dE+0x9c>
   2029c:	2803      	cmp	r0, #3
   2029e:	d012      	beq.n	202c6 <_ZN20complex_dynamic_type3app17h060e83eb53d0360dE+0x92>
   202a0:	4837      	ldr	r0, [pc, #220]	@ (20380 <_ZN20complex_dynamic_type3app17h060e83eb53d0360dE+0x14c>)
   202a2:	2103      	movs	r1, #3
   202a4:	2200      	movs	r2, #0
   202a6:	4613      	mov	r3, r2
   202a8:	df04      	svc	4
   202aa:	e011      	b.n	202d0 <_ZN20complex_dynamic_type3app17h060e83eb53d0360dE+0x9c>
   202ac:	a80c      	add	r0, sp, #48	@ 0x30
   202ae:	7004      	strb	r4, [r0, #0]
   202b0:	4833      	ldr	r0, [pc, #204]	@ (20380 <_ZN20complex_dynamic_type3app17h060e83eb53d0360dE+0x14c>)
   202b2:	2600      	movs	r6, #0
   202b4:	4621      	mov	r1, r4
   202b6:	4622      	mov	r2, r4
   202b8:	4633      	mov	r3, r6
   202ba:	df02      	svc	2
   202bc:	2880      	cmp	r0, #128	@ 0x80
   202be:	d21b      	bcs.n	202f8 <_ZN20complex_dynamic_type3app17h060e83eb53d0360dE+0xc4>
   202c0:	2001      	movs	r0, #1
   202c2:	7028      	strb	r0, [r5, #0]
   202c4:	6069      	str	r1, [r5, #4]
   202c6:	482e      	ldr	r0, [pc, #184]	@ (20380 <_ZN20complex_dynamic_type3app17h060e83eb53d0360dE+0x14c>)
   202c8:	2103      	movs	r1, #3
   202ca:	2200      	movs	r2, #0
   202cc:	4613      	mov	r3, r2
   202ce:	df03      	svc	3
   202d0:	a805      	add	r0, sp, #20
   202d2:	7800      	ldrb	r0, [r0, #0]
   202d4:	2802      	cmp	r0, #2
   202d6:	d045      	beq.n	20364 <_ZN20complex_dynamic_type3app17h060e83eb53d0360dE+0x130>
   202d8:	2804      	cmp	r0, #4
   202da:	d106      	bne.n	202ea <_ZN20complex_dynamic_type3app17h060e83eb53d0360dE+0xb6>
   202dc:	4828      	ldr	r0, [pc, #160]	@ (20380 <_ZN20complex_dynamic_type3app17h060e83eb53d0360dE+0x14c>)
   202de:	2103      	movs	r1, #3
   202e0:	2200      	movs	r2, #0
   202e2:	4613      	mov	r3, r2
   202e4:	df04      	svc	4
   202e6:	b025      	add	sp, #148	@ 0x94
   202e8:	bdf0      	pop	{r4, r5, r6, r7, pc}
   202ea:	4825      	ldr	r0, [pc, #148]	@ (20380 <_ZN20complex_dynamic_type3app17h060e83eb53d0360dE+0x14c>)
   202ec:	2103      	movs	r1, #3
   202ee:	2200      	movs	r2, #0
   202f0:	4613      	mov	r3, r2
   202f2:	df03      	svc	3
   202f4:	b025      	add	sp, #148	@ 0x94
   202f6:	bdf0      	pop	{r4, r5, r6, r7, pc}
   202f8:	a805      	add	r0, sp, #20
   202fa:	7800      	ldrb	r0, [r0, #0]
   202fc:	2802      	cmp	r0, #2
   202fe:	d00c      	beq.n	2031a <_ZN20complex_dynamic_type3app17h060e83eb53d0360dE+0xe6>
   20300:	2803      	cmp	r0, #3
   20302:	d105      	bne.n	20310 <_ZN20complex_dynamic_type3app17h060e83eb53d0360dE+0xdc>
   20304:	481e      	ldr	r0, [pc, #120]	@ (20380 <_ZN20complex_dynamic_type3app17h060e83eb53d0360dE+0x14c>)
   20306:	2103      	movs	r1, #3
   20308:	2200      	movs	r2, #0
   2030a:	4613      	mov	r3, r2
   2030c:	df03      	svc	3
   2030e:	e004      	b.n	2031a <_ZN20complex_dynamic_type3app17h060e83eb53d0360dE+0xe6>
   20310:	481b      	ldr	r0, [pc, #108]	@ (20380 <_ZN20complex_dynamic_type3app17h060e83eb53d0360dE+0x14c>)
   20312:	2103      	movs	r1, #3
   20314:	2200      	movs	r2, #0
   20316:	4613      	mov	r3, r2
   20318:	df04      	svc	4
   2031a:	a805      	add	r0, sp, #20
   2031c:	9901      	ldr	r1, [sp, #4]
   2031e:	7001      	strb	r1, [r0, #0]
   20320:	a80c      	add	r0, sp, #48	@ 0x30
   20322:	7800      	ldrb	r0, [r0, #0]
   20324:	2804      	cmp	r0, #4
   20326:	d007      	beq.n	20338 <_ZN20complex_dynamic_type3app17h060e83eb53d0360dE+0x104>
   20328:	2803      	cmp	r0, #3
   2032a:	d11d      	bne.n	20368 <_ZN20complex_dynamic_type3app17h060e83eb53d0360dE+0x134>
   2032c:	4814      	ldr	r0, [pc, #80]	@ (20380 <_ZN20complex_dynamic_type3app17h060e83eb53d0360dE+0x14c>)
   2032e:	2103      	movs	r1, #3
   20330:	2200      	movs	r2, #0
   20332:	4613      	mov	r3, r2
   20334:	df03      	svc	3
   20336:	e004      	b.n	20342 <_ZN20complex_dynamic_type3app17h060e83eb53d0360dE+0x10e>
   20338:	4811      	ldr	r0, [pc, #68]	@ (20380 <_ZN20complex_dynamic_type3app17h060e83eb53d0360dE+0x14c>)
   2033a:	2103      	movs	r1, #3
   2033c:	2200      	movs	r2, #0
   2033e:	4613      	mov	r3, r2
   20340:	df04      	svc	4
   20342:	a805      	add	r0, sp, #20
   20344:	7804      	ldrb	r4, [r0, #0]
   20346:	1c68      	adds	r0, r5, #1
   20348:	2263      	movs	r2, #99	@ 0x63
   2034a:	9902      	ldr	r1, [sp, #8]
   2034c:	f00a fede 	bl	2b10c <__aeabi_memcpy>
   20350:	702e      	strb	r6, [r5, #0]
   20352:	2c02      	cmp	r4, #2
   20354:	d006      	beq.n	20364 <_ZN20complex_dynamic_type3app17h060e83eb53d0360dE+0x130>
   20356:	480a      	ldr	r0, [pc, #40]	@ (20380 <_ZN20complex_dynamic_type3app17h060e83eb53d0360dE+0x14c>)
   20358:	2103      	movs	r1, #3
   2035a:	2200      	movs	r2, #0
   2035c:	4613      	mov	r3, r2
   2035e:	2c04      	cmp	r4, #4
   20360:	d10a      	bne.n	20378 <_ZN20complex_dynamic_type3app17h060e83eb53d0360dE+0x144>
   20362:	df04      	svc	4
   20364:	b025      	add	sp, #148	@ 0x94
   20366:	bdf0      	pop	{r4, r5, r6, r7, pc}
   20368:	1c68      	adds	r0, r5, #1
   2036a:	2263      	movs	r2, #99	@ 0x63
   2036c:	9902      	ldr	r1, [sp, #8]
   2036e:	f00a fecd 	bl	2b10c <__aeabi_memcpy>
   20372:	702e      	strb	r6, [r5, #0]
   20374:	b025      	add	sp, #148	@ 0x94
   20376:	bdf0      	pop	{r4, r5, r6, r7, pc}
   20378:	df03      	svc	3
   2037a:	b025      	add	sp, #148	@ 0x94
   2037c:	bdf0      	pop	{r4, r5, r6, r7, pc}
   2037e:	46c0      	nop			@ (mov r8, r8)
   20380:	00002548 	.word	0x00002548

00020384 <_ZN20complex_dynamic_type3app17h0a286a836f10fb4dE>:
   20384:	b5f0      	push	{r4, r5, r6, r7, lr}
   20386:	af03      	add	r7, sp, #12
   20388:	b099      	sub	sp, #100	@ 0x64
   2038a:	9003      	str	r0, [sp, #12]
   2038c:	a804      	add	r0, sp, #16
   2038e:	2402      	movs	r4, #2
   20390:	7004      	strb	r4, [r0, #0]
   20392:	1c46      	adds	r6, r0, #1
   20394:	2225      	movs	r2, #37	@ 0x25
   20396:	9202      	str	r2, [sp, #8]
   20398:	4630      	mov	r0, r6
   2039a:	f00a feb7 	bl	2b10c <__aeabi_memcpy>
   2039e:	ad0e      	add	r5, sp, #56	@ 0x38
   203a0:	1c68      	adds	r0, r5, #1
   203a2:	212a      	movs	r1, #42	@ 0x2a
   203a4:	9001      	str	r0, [sp, #4]
   203a6:	f00a fcf1 	bl	2ad8c <__aeabi_memclr>
   203aa:	9400      	str	r4, [sp, #0]
   203ac:	702c      	strb	r4, [r5, #0]
   203ae:	4848      	ldr	r0, [pc, #288]	@ (204d0 <_ZN20complex_dynamic_type3app17h0a286a836f10fb4dE+0x14c>)
   203b0:	2100      	movs	r1, #0
   203b2:	4632      	mov	r2, r6
   203b4:	9b02      	ldr	r3, [sp, #8]
   203b6:	df04      	svc	4
   203b8:	2802      	cmp	r0, #2
   203ba:	d104      	bne.n	203c6 <_ZN20complex_dynamic_type3app17h0a286a836f10fb4dE+0x42>
   203bc:	2001      	movs	r0, #1
   203be:	9a03      	ldr	r2, [sp, #12]
   203c0:	7010      	strb	r0, [r2, #0]
   203c2:	6051      	str	r1, [r2, #4]
   203c4:	e02c      	b.n	20420 <_ZN20complex_dynamic_type3app17h0a286a836f10fb4dE+0x9c>
   203c6:	9d03      	ldr	r5, [sp, #12]
   203c8:	a804      	add	r0, sp, #16
   203ca:	2104      	movs	r1, #4
   203cc:	7001      	strb	r1, [r0, #0]
   203ce:	4840      	ldr	r0, [pc, #256]	@ (204d0 <_ZN20complex_dynamic_type3app17h0a286a836f10fb4dE+0x14c>)
   203d0:	2403      	movs	r4, #3
   203d2:	232a      	movs	r3, #42	@ 0x2a
   203d4:	4621      	mov	r1, r4
   203d6:	9a01      	ldr	r2, [sp, #4]
   203d8:	df03      	svc	3
   203da:	2802      	cmp	r0, #2
   203dc:	d10e      	bne.n	203fc <_ZN20complex_dynamic_type3app17h0a286a836f10fb4dE+0x78>
   203de:	2001      	movs	r0, #1
   203e0:	7028      	strb	r0, [r5, #0]
   203e2:	6069      	str	r1, [r5, #4]
   203e4:	a80e      	add	r0, sp, #56	@ 0x38
   203e6:	7800      	ldrb	r0, [r0, #0]
   203e8:	2802      	cmp	r0, #2
   203ea:	d019      	beq.n	20420 <_ZN20complex_dynamic_type3app17h0a286a836f10fb4dE+0x9c>
   203ec:	2803      	cmp	r0, #3
   203ee:	d012      	beq.n	20416 <_ZN20complex_dynamic_type3app17h0a286a836f10fb4dE+0x92>
   203f0:	4837      	ldr	r0, [pc, #220]	@ (204d0 <_ZN20complex_dynamic_type3app17h0a286a836f10fb4dE+0x14c>)
   203f2:	2103      	movs	r1, #3
   203f4:	2200      	movs	r2, #0
   203f6:	4613      	mov	r3, r2
   203f8:	df04      	svc	4
   203fa:	e011      	b.n	20420 <_ZN20complex_dynamic_type3app17h0a286a836f10fb4dE+0x9c>
   203fc:	a80e      	add	r0, sp, #56	@ 0x38
   203fe:	7004      	strb	r4, [r0, #0]
   20400:	4833      	ldr	r0, [pc, #204]	@ (204d0 <_ZN20complex_dynamic_type3app17h0a286a836f10fb4dE+0x14c>)
   20402:	2600      	movs	r6, #0
   20404:	4631      	mov	r1, r6
   20406:	4622      	mov	r2, r4
   20408:	4633      	mov	r3, r6
   2040a:	df02      	svc	2
   2040c:	2880      	cmp	r0, #128	@ 0x80
   2040e:	d21b      	bcs.n	20448 <_ZN20complex_dynamic_type3app17h0a286a836f10fb4dE+0xc4>
   20410:	2001      	movs	r0, #1
   20412:	7028      	strb	r0, [r5, #0]
   20414:	6069      	str	r1, [r5, #4]
   20416:	482e      	ldr	r0, [pc, #184]	@ (204d0 <_ZN20complex_dynamic_type3app17h0a286a836f10fb4dE+0x14c>)
   20418:	2103      	movs	r1, #3
   2041a:	2200      	movs	r2, #0
   2041c:	4613      	mov	r3, r2
   2041e:	df03      	svc	3
   20420:	a804      	add	r0, sp, #16
   20422:	7800      	ldrb	r0, [r0, #0]
   20424:	2802      	cmp	r0, #2
   20426:	d045      	beq.n	204b4 <_ZN20complex_dynamic_type3app17h0a286a836f10fb4dE+0x130>
   20428:	2804      	cmp	r0, #4
   2042a:	d106      	bne.n	2043a <_ZN20complex_dynamic_type3app17h0a286a836f10fb4dE+0xb6>
   2042c:	4828      	ldr	r0, [pc, #160]	@ (204d0 <_ZN20complex_dynamic_type3app17h0a286a836f10fb4dE+0x14c>)
   2042e:	2100      	movs	r1, #0
   20430:	460a      	mov	r2, r1
   20432:	460b      	mov	r3, r1
   20434:	df04      	svc	4
   20436:	b019      	add	sp, #100	@ 0x64
   20438:	bdf0      	pop	{r4, r5, r6, r7, pc}
   2043a:	4825      	ldr	r0, [pc, #148]	@ (204d0 <_ZN20complex_dynamic_type3app17h0a286a836f10fb4dE+0x14c>)
   2043c:	2100      	movs	r1, #0
   2043e:	460a      	mov	r2, r1
   20440:	460b      	mov	r3, r1
   20442:	df03      	svc	3
   20444:	b019      	add	sp, #100	@ 0x64
   20446:	bdf0      	pop	{r4, r5, r6, r7, pc}
   20448:	a804      	add	r0, sp, #16
   2044a:	7800      	ldrb	r0, [r0, #0]
   2044c:	2802      	cmp	r0, #2
   2044e:	d00c      	beq.n	2046a <_ZN20complex_dynamic_type3app17h0a286a836f10fb4dE+0xe6>
   20450:	2803      	cmp	r0, #3
   20452:	d105      	bne.n	20460 <_ZN20complex_dynamic_type3app17h0a286a836f10fb4dE+0xdc>
   20454:	481e      	ldr	r0, [pc, #120]	@ (204d0 <_ZN20complex_dynamic_type3app17h0a286a836f10fb4dE+0x14c>)
   20456:	2100      	movs	r1, #0
   20458:	460a      	mov	r2, r1
   2045a:	460b      	mov	r3, r1
   2045c:	df03      	svc	3
   2045e:	e004      	b.n	2046a <_ZN20complex_dynamic_type3app17h0a286a836f10fb4dE+0xe6>
   20460:	481b      	ldr	r0, [pc, #108]	@ (204d0 <_ZN20complex_dynamic_type3app17h0a286a836f10fb4dE+0x14c>)
   20462:	2100      	movs	r1, #0
   20464:	460a      	mov	r2, r1
   20466:	460b      	mov	r3, r1
   20468:	df04      	svc	4
   2046a:	a804      	add	r0, sp, #16
   2046c:	9900      	ldr	r1, [sp, #0]
   2046e:	7001      	strb	r1, [r0, #0]
   20470:	a80e      	add	r0, sp, #56	@ 0x38
   20472:	7800      	ldrb	r0, [r0, #0]
   20474:	2804      	cmp	r0, #4
   20476:	d007      	beq.n	20488 <_ZN20complex_dynamic_type3app17h0a286a836f10fb4dE+0x104>
   20478:	2803      	cmp	r0, #3
   2047a:	d11d      	bne.n	204b8 <_ZN20complex_dynamic_type3app17h0a286a836f10fb4dE+0x134>
   2047c:	4814      	ldr	r0, [pc, #80]	@ (204d0 <_ZN20complex_dynamic_type3app17h0a286a836f10fb4dE+0x14c>)
   2047e:	2103      	movs	r1, #3
   20480:	2200      	movs	r2, #0
   20482:	4613      	mov	r3, r2
   20484:	df03      	svc	3
   20486:	e004      	b.n	20492 <_ZN20complex_dynamic_type3app17h0a286a836f10fb4dE+0x10e>
   20488:	4811      	ldr	r0, [pc, #68]	@ (204d0 <_ZN20complex_dynamic_type3app17h0a286a836f10fb4dE+0x14c>)
   2048a:	2103      	movs	r1, #3
   2048c:	2200      	movs	r2, #0
   2048e:	4613      	mov	r3, r2
   20490:	df04      	svc	4
   20492:	a804      	add	r0, sp, #16
   20494:	7804      	ldrb	r4, [r0, #0]
   20496:	1c68      	adds	r0, r5, #1
   20498:	222a      	movs	r2, #42	@ 0x2a
   2049a:	9901      	ldr	r1, [sp, #4]
   2049c:	f00a fe36 	bl	2b10c <__aeabi_memcpy>
   204a0:	702e      	strb	r6, [r5, #0]
   204a2:	2c02      	cmp	r4, #2
   204a4:	d006      	beq.n	204b4 <_ZN20complex_dynamic_type3app17h0a286a836f10fb4dE+0x130>
   204a6:	480a      	ldr	r0, [pc, #40]	@ (204d0 <_ZN20complex_dynamic_type3app17h0a286a836f10fb4dE+0x14c>)
   204a8:	2100      	movs	r1, #0
   204aa:	460a      	mov	r2, r1
   204ac:	460b      	mov	r3, r1
   204ae:	2c04      	cmp	r4, #4
   204b0:	d10a      	bne.n	204c8 <_ZN20complex_dynamic_type3app17h0a286a836f10fb4dE+0x144>
   204b2:	df04      	svc	4
   204b4:	b019      	add	sp, #100	@ 0x64
   204b6:	bdf0      	pop	{r4, r5, r6, r7, pc}
   204b8:	1c68      	adds	r0, r5, #1
   204ba:	222a      	movs	r2, #42	@ 0x2a
   204bc:	9901      	ldr	r1, [sp, #4]
   204be:	f00a fe25 	bl	2b10c <__aeabi_memcpy>
   204c2:	702e      	strb	r6, [r5, #0]
   204c4:	b019      	add	sp, #100	@ 0x64
   204c6:	bdf0      	pop	{r4, r5, r6, r7, pc}
   204c8:	df03      	svc	3
   204ca:	b019      	add	sp, #100	@ 0x64
   204cc:	bdf0      	pop	{r4, r5, r6, r7, pc}
   204ce:	46c0      	nop			@ (mov r8, r8)
   204d0:	0000093c 	.word	0x0000093c

000204d4 <_ZN20complex_dynamic_type3app17h0bce55fc2f9af1d1E>:
   204d4:	b5f0      	push	{r4, r5, r6, r7, lr}
   204d6:	af03      	add	r7, sp, #12
   204d8:	b091      	sub	sp, #68	@ 0x44
   204da:	9002      	str	r0, [sp, #8]
   204dc:	a803      	add	r0, sp, #12
   204de:	2502      	movs	r5, #2
   204e0:	7005      	strb	r5, [r0, #0]
   204e2:	1c46      	adds	r6, r0, #1
   204e4:	221a      	movs	r2, #26
   204e6:	9201      	str	r2, [sp, #4]
   204e8:	4630      	mov	r0, r6
   204ea:	f00a fe0f 	bl	2b10c <__aeabi_memcpy>
   204ee:	ac0a      	add	r4, sp, #40	@ 0x28
   204f0:	1c60      	adds	r0, r4, #1
   204f2:	211b      	movs	r1, #27
   204f4:	9000      	str	r0, [sp, #0]
   204f6:	f00a fc49 	bl	2ad8c <__aeabi_memclr>
   204fa:	7025      	strb	r5, [r4, #0]
   204fc:	484a      	ldr	r0, [pc, #296]	@ (20628 <_ZN20complex_dynamic_type3app17h0bce55fc2f9af1d1E+0x154>)
   204fe:	2105      	movs	r1, #5
   20500:	4632      	mov	r2, r6
   20502:	9b01      	ldr	r3, [sp, #4]
   20504:	df04      	svc	4
   20506:	2802      	cmp	r0, #2
   20508:	d104      	bne.n	20514 <_ZN20complex_dynamic_type3app17h0bce55fc2f9af1d1E+0x40>
   2050a:	2001      	movs	r0, #1
   2050c:	9a02      	ldr	r2, [sp, #8]
   2050e:	7010      	strb	r0, [r2, #0]
   20510:	6051      	str	r1, [r2, #4]
   20512:	e02e      	b.n	20572 <_ZN20complex_dynamic_type3app17h0bce55fc2f9af1d1E+0x9e>
   20514:	9d02      	ldr	r5, [sp, #8]
   20516:	a803      	add	r0, sp, #12
   20518:	2104      	movs	r1, #4
   2051a:	7001      	strb	r1, [r0, #0]
   2051c:	4842      	ldr	r0, [pc, #264]	@ (20628 <_ZN20complex_dynamic_type3app17h0bce55fc2f9af1d1E+0x154>)
   2051e:	2102      	movs	r1, #2
   20520:	231b      	movs	r3, #27
   20522:	9c00      	ldr	r4, [sp, #0]
   20524:	4622      	mov	r2, r4
   20526:	df03      	svc	3
   20528:	2802      	cmp	r0, #2
   2052a:	d10e      	bne.n	2054a <_ZN20complex_dynamic_type3app17h0bce55fc2f9af1d1E+0x76>
   2052c:	2001      	movs	r0, #1
   2052e:	7028      	strb	r0, [r5, #0]
   20530:	6069      	str	r1, [r5, #4]
   20532:	a80a      	add	r0, sp, #40	@ 0x28
   20534:	7800      	ldrb	r0, [r0, #0]
   20536:	2802      	cmp	r0, #2
   20538:	d01b      	beq.n	20572 <_ZN20complex_dynamic_type3app17h0bce55fc2f9af1d1E+0x9e>
   2053a:	2803      	cmp	r0, #3
   2053c:	d014      	beq.n	20568 <_ZN20complex_dynamic_type3app17h0bce55fc2f9af1d1E+0x94>
   2053e:	483a      	ldr	r0, [pc, #232]	@ (20628 <_ZN20complex_dynamic_type3app17h0bce55fc2f9af1d1E+0x154>)
   20540:	2102      	movs	r1, #2
   20542:	2200      	movs	r2, #0
   20544:	4613      	mov	r3, r2
   20546:	df04      	svc	4
   20548:	e013      	b.n	20572 <_ZN20complex_dynamic_type3app17h0bce55fc2f9af1d1E+0x9e>
   2054a:	a80a      	add	r0, sp, #40	@ 0x28
   2054c:	2103      	movs	r1, #3
   2054e:	7001      	strb	r1, [r0, #0]
   20550:	4835      	ldr	r0, [pc, #212]	@ (20628 <_ZN20complex_dynamic_type3app17h0bce55fc2f9af1d1E+0x154>)
   20552:	2105      	movs	r1, #5
   20554:	2602      	movs	r6, #2
   20556:	2300      	movs	r3, #0
   20558:	4632      	mov	r2, r6
   2055a:	9301      	str	r3, [sp, #4]
   2055c:	df02      	svc	2
   2055e:	2880      	cmp	r0, #128	@ 0x80
   20560:	d21b      	bcs.n	2059a <_ZN20complex_dynamic_type3app17h0bce55fc2f9af1d1E+0xc6>
   20562:	2001      	movs	r0, #1
   20564:	7028      	strb	r0, [r5, #0]
   20566:	6069      	str	r1, [r5, #4]
   20568:	482f      	ldr	r0, [pc, #188]	@ (20628 <_ZN20complex_dynamic_type3app17h0bce55fc2f9af1d1E+0x154>)
   2056a:	2102      	movs	r1, #2
   2056c:	2200      	movs	r2, #0
   2056e:	4613      	mov	r3, r2
   20570:	df03      	svc	3
   20572:	a803      	add	r0, sp, #12
   20574:	7800      	ldrb	r0, [r0, #0]
   20576:	2802      	cmp	r0, #2
   20578:	d047      	beq.n	2060a <_ZN20complex_dynamic_type3app17h0bce55fc2f9af1d1E+0x136>
   2057a:	2804      	cmp	r0, #4
   2057c:	d106      	bne.n	2058c <_ZN20complex_dynamic_type3app17h0bce55fc2f9af1d1E+0xb8>
   2057e:	482a      	ldr	r0, [pc, #168]	@ (20628 <_ZN20complex_dynamic_type3app17h0bce55fc2f9af1d1E+0x154>)
   20580:	2105      	movs	r1, #5
   20582:	2200      	movs	r2, #0
   20584:	4613      	mov	r3, r2
   20586:	df04      	svc	4
   20588:	b011      	add	sp, #68	@ 0x44
   2058a:	bdf0      	pop	{r4, r5, r6, r7, pc}
   2058c:	4826      	ldr	r0, [pc, #152]	@ (20628 <_ZN20complex_dynamic_type3app17h0bce55fc2f9af1d1E+0x154>)
   2058e:	2105      	movs	r1, #5
   20590:	2200      	movs	r2, #0
   20592:	4613      	mov	r3, r2
   20594:	df03      	svc	3
   20596:	b011      	add	sp, #68	@ 0x44
   20598:	bdf0      	pop	{r4, r5, r6, r7, pc}
   2059a:	a803      	add	r0, sp, #12
   2059c:	7800      	ldrb	r0, [r0, #0]
   2059e:	2802      	cmp	r0, #2
   205a0:	d00c      	beq.n	205bc <_ZN20complex_dynamic_type3app17h0bce55fc2f9af1d1E+0xe8>
   205a2:	2803      	cmp	r0, #3
   205a4:	d105      	bne.n	205b2 <_ZN20complex_dynamic_type3app17h0bce55fc2f9af1d1E+0xde>
   205a6:	4820      	ldr	r0, [pc, #128]	@ (20628 <_ZN20complex_dynamic_type3app17h0bce55fc2f9af1d1E+0x154>)
   205a8:	2105      	movs	r1, #5
   205aa:	2200      	movs	r2, #0
   205ac:	4613      	mov	r3, r2
   205ae:	df03      	svc	3
   205b0:	e004      	b.n	205bc <_ZN20complex_dynamic_type3app17h0bce55fc2f9af1d1E+0xe8>
   205b2:	481d      	ldr	r0, [pc, #116]	@ (20628 <_ZN20complex_dynamic_type3app17h0bce55fc2f9af1d1E+0x154>)
   205b4:	2105      	movs	r1, #5
   205b6:	2200      	movs	r2, #0
   205b8:	4613      	mov	r3, r2
   205ba:	df04      	svc	4
   205bc:	a803      	add	r0, sp, #12
   205be:	7006      	strb	r6, [r0, #0]
   205c0:	a80a      	add	r0, sp, #40	@ 0x28
   205c2:	7800      	ldrb	r0, [r0, #0]
   205c4:	2804      	cmp	r0, #4
   205c6:	d008      	beq.n	205da <_ZN20complex_dynamic_type3app17h0bce55fc2f9af1d1E+0x106>
   205c8:	2803      	cmp	r0, #3
   205ca:	d120      	bne.n	2060e <_ZN20complex_dynamic_type3app17h0bce55fc2f9af1d1E+0x13a>
   205cc:	4626      	mov	r6, r4
   205ce:	4816      	ldr	r0, [pc, #88]	@ (20628 <_ZN20complex_dynamic_type3app17h0bce55fc2f9af1d1E+0x154>)
   205d0:	2102      	movs	r1, #2
   205d2:	2200      	movs	r2, #0
   205d4:	4613      	mov	r3, r2
   205d6:	df03      	svc	3
   205d8:	e005      	b.n	205e6 <_ZN20complex_dynamic_type3app17h0bce55fc2f9af1d1E+0x112>
   205da:	4626      	mov	r6, r4
   205dc:	4812      	ldr	r0, [pc, #72]	@ (20628 <_ZN20complex_dynamic_type3app17h0bce55fc2f9af1d1E+0x154>)
   205de:	2102      	movs	r1, #2
   205e0:	2200      	movs	r2, #0
   205e2:	4613      	mov	r3, r2
   205e4:	df04      	svc	4
   205e6:	a803      	add	r0, sp, #12
   205e8:	7804      	ldrb	r4, [r0, #0]
   205ea:	1c68      	adds	r0, r5, #1
   205ec:	221b      	movs	r2, #27
   205ee:	4631      	mov	r1, r6
   205f0:	f00a fd8c 	bl	2b10c <__aeabi_memcpy>
   205f4:	9801      	ldr	r0, [sp, #4]
   205f6:	7028      	strb	r0, [r5, #0]
   205f8:	2c02      	cmp	r4, #2
   205fa:	d006      	beq.n	2060a <_ZN20complex_dynamic_type3app17h0bce55fc2f9af1d1E+0x136>
   205fc:	480a      	ldr	r0, [pc, #40]	@ (20628 <_ZN20complex_dynamic_type3app17h0bce55fc2f9af1d1E+0x154>)
   205fe:	2105      	movs	r1, #5
   20600:	2200      	movs	r2, #0
   20602:	4613      	mov	r3, r2
   20604:	2c04      	cmp	r4, #4
   20606:	d10b      	bne.n	20620 <_ZN20complex_dynamic_type3app17h0bce55fc2f9af1d1E+0x14c>
   20608:	df04      	svc	4
   2060a:	b011      	add	sp, #68	@ 0x44
   2060c:	bdf0      	pop	{r4, r5, r6, r7, pc}
   2060e:	1c68      	adds	r0, r5, #1
   20610:	221b      	movs	r2, #27
   20612:	4621      	mov	r1, r4
   20614:	f00a fd7a 	bl	2b10c <__aeabi_memcpy>
   20618:	9801      	ldr	r0, [sp, #4]
   2061a:	7028      	strb	r0, [r5, #0]
   2061c:	b011      	add	sp, #68	@ 0x44
   2061e:	bdf0      	pop	{r4, r5, r6, r7, pc}
   20620:	df03      	svc	3
   20622:	b011      	add	sp, #68	@ 0x44
   20624:	bdf0      	pop	{r4, r5, r6, r7, pc}
   20626:	46c0      	nop			@ (mov r8, r8)
   20628:	00001cce 	.word	0x00001cce

0002062c <_ZN20complex_dynamic_type3app17h0f288093d53fd7bcE>:
   2062c:	b5f0      	push	{r4, r5, r6, r7, lr}
   2062e:	af03      	add	r7, sp, #12
   20630:	b09b      	sub	sp, #108	@ 0x6c
   20632:	9003      	str	r0, [sp, #12]
   20634:	a804      	add	r0, sp, #16
   20636:	2402      	movs	r4, #2
   20638:	7004      	strb	r4, [r0, #0]
   2063a:	1c46      	adds	r6, r0, #1
   2063c:	2248      	movs	r2, #72	@ 0x48
   2063e:	9202      	str	r2, [sp, #8]
   20640:	4630      	mov	r0, r6
   20642:	f00a fd63 	bl	2b10c <__aeabi_memcpy>
   20646:	ad17      	add	r5, sp, #92	@ 0x5c
   20648:	1c68      	adds	r0, r5, #1
   2064a:	210f      	movs	r1, #15
   2064c:	9001      	str	r0, [sp, #4]
   2064e:	f00a fb9d 	bl	2ad8c <__aeabi_memclr>
   20652:	9400      	str	r4, [sp, #0]
   20654:	702c      	strb	r4, [r5, #0]
   20656:	4848      	ldr	r0, [pc, #288]	@ (20778 <_ZN20complex_dynamic_type3app17h0f288093d53fd7bcE+0x14c>)
   20658:	2108      	movs	r1, #8
   2065a:	4632      	mov	r2, r6
   2065c:	9b02      	ldr	r3, [sp, #8]
   2065e:	df04      	svc	4
   20660:	2802      	cmp	r0, #2
   20662:	d104      	bne.n	2066e <_ZN20complex_dynamic_type3app17h0f288093d53fd7bcE+0x42>
   20664:	2001      	movs	r0, #1
   20666:	9a03      	ldr	r2, [sp, #12]
   20668:	7010      	strb	r0, [r2, #0]
   2066a:	6051      	str	r1, [r2, #4]
   2066c:	e02d      	b.n	206ca <_ZN20complex_dynamic_type3app17h0f288093d53fd7bcE+0x9e>
   2066e:	9d03      	ldr	r5, [sp, #12]
   20670:	a804      	add	r0, sp, #16
   20672:	2104      	movs	r1, #4
   20674:	7001      	strb	r1, [r0, #0]
   20676:	4840      	ldr	r0, [pc, #256]	@ (20778 <_ZN20complex_dynamic_type3app17h0f288093d53fd7bcE+0x14c>)
   20678:	2109      	movs	r1, #9
   2067a:	230f      	movs	r3, #15
   2067c:	9c01      	ldr	r4, [sp, #4]
   2067e:	4622      	mov	r2, r4
   20680:	df03      	svc	3
   20682:	2802      	cmp	r0, #2
   20684:	d10e      	bne.n	206a4 <_ZN20complex_dynamic_type3app17h0f288093d53fd7bcE+0x78>
   20686:	2001      	movs	r0, #1
   20688:	7028      	strb	r0, [r5, #0]
   2068a:	6069      	str	r1, [r5, #4]
   2068c:	a817      	add	r0, sp, #92	@ 0x5c
   2068e:	7800      	ldrb	r0, [r0, #0]
   20690:	2802      	cmp	r0, #2
   20692:	d01a      	beq.n	206ca <_ZN20complex_dynamic_type3app17h0f288093d53fd7bcE+0x9e>
   20694:	2803      	cmp	r0, #3
   20696:	d013      	beq.n	206c0 <_ZN20complex_dynamic_type3app17h0f288093d53fd7bcE+0x94>
   20698:	4837      	ldr	r0, [pc, #220]	@ (20778 <_ZN20complex_dynamic_type3app17h0f288093d53fd7bcE+0x14c>)
   2069a:	2109      	movs	r1, #9
   2069c:	2200      	movs	r2, #0
   2069e:	4613      	mov	r3, r2
   206a0:	df04      	svc	4
   206a2:	e012      	b.n	206ca <_ZN20complex_dynamic_type3app17h0f288093d53fd7bcE+0x9e>
   206a4:	a817      	add	r0, sp, #92	@ 0x5c
   206a6:	2103      	movs	r1, #3
   206a8:	7001      	strb	r1, [r0, #0]
   206aa:	4833      	ldr	r0, [pc, #204]	@ (20778 <_ZN20complex_dynamic_type3app17h0f288093d53fd7bcE+0x14c>)
   206ac:	2108      	movs	r1, #8
   206ae:	2209      	movs	r2, #9
   206b0:	2600      	movs	r6, #0
   206b2:	4633      	mov	r3, r6
   206b4:	df02      	svc	2
   206b6:	2880      	cmp	r0, #128	@ 0x80
   206b8:	d21b      	bcs.n	206f2 <_ZN20complex_dynamic_type3app17h0f288093d53fd7bcE+0xc6>
   206ba:	2001      	movs	r0, #1
   206bc:	7028      	strb	r0, [r5, #0]
   206be:	6069      	str	r1, [r5, #4]
   206c0:	482d      	ldr	r0, [pc, #180]	@ (20778 <_ZN20complex_dynamic_type3app17h0f288093d53fd7bcE+0x14c>)
   206c2:	2109      	movs	r1, #9
   206c4:	2200      	movs	r2, #0
   206c6:	4613      	mov	r3, r2
   206c8:	df03      	svc	3
   206ca:	a804      	add	r0, sp, #16
   206cc:	7800      	ldrb	r0, [r0, #0]
   206ce:	2802      	cmp	r0, #2
   206d0:	d045      	beq.n	2075e <_ZN20complex_dynamic_type3app17h0f288093d53fd7bcE+0x132>
   206d2:	2804      	cmp	r0, #4
   206d4:	d106      	bne.n	206e4 <_ZN20complex_dynamic_type3app17h0f288093d53fd7bcE+0xb8>
   206d6:	4828      	ldr	r0, [pc, #160]	@ (20778 <_ZN20complex_dynamic_type3app17h0f288093d53fd7bcE+0x14c>)
   206d8:	2108      	movs	r1, #8
   206da:	2200      	movs	r2, #0
   206dc:	4613      	mov	r3, r2
   206de:	df04      	svc	4
   206e0:	b01b      	add	sp, #108	@ 0x6c
   206e2:	bdf0      	pop	{r4, r5, r6, r7, pc}
   206e4:	4824      	ldr	r0, [pc, #144]	@ (20778 <_ZN20complex_dynamic_type3app17h0f288093d53fd7bcE+0x14c>)
   206e6:	2108      	movs	r1, #8
   206e8:	2200      	movs	r2, #0
   206ea:	4613      	mov	r3, r2
   206ec:	df03      	svc	3
   206ee:	b01b      	add	sp, #108	@ 0x6c
   206f0:	bdf0      	pop	{r4, r5, r6, r7, pc}
   206f2:	a804      	add	r0, sp, #16
   206f4:	7800      	ldrb	r0, [r0, #0]
   206f6:	2802      	cmp	r0, #2
   206f8:	d00c      	beq.n	20714 <_ZN20complex_dynamic_type3app17h0f288093d53fd7bcE+0xe8>
   206fa:	2803      	cmp	r0, #3
   206fc:	d105      	bne.n	2070a <_ZN20complex_dynamic_type3app17h0f288093d53fd7bcE+0xde>
   206fe:	481e      	ldr	r0, [pc, #120]	@ (20778 <_ZN20complex_dynamic_type3app17h0f288093d53fd7bcE+0x14c>)
   20700:	2108      	movs	r1, #8
   20702:	2200      	movs	r2, #0
   20704:	4613      	mov	r3, r2
   20706:	df03      	svc	3
   20708:	e004      	b.n	20714 <_ZN20complex_dynamic_type3app17h0f288093d53fd7bcE+0xe8>
   2070a:	481b      	ldr	r0, [pc, #108]	@ (20778 <_ZN20complex_dynamic_type3app17h0f288093d53fd7bcE+0x14c>)
   2070c:	2108      	movs	r1, #8
   2070e:	2200      	movs	r2, #0
   20710:	4613      	mov	r3, r2
   20712:	df04      	svc	4
   20714:	a804      	add	r0, sp, #16
   20716:	9900      	ldr	r1, [sp, #0]
   20718:	7001      	strb	r1, [r0, #0]
   2071a:	a817      	add	r0, sp, #92	@ 0x5c
   2071c:	7800      	ldrb	r0, [r0, #0]
   2071e:	2804      	cmp	r0, #4
   20720:	d007      	beq.n	20732 <_ZN20complex_dynamic_type3app17h0f288093d53fd7bcE+0x106>
   20722:	2803      	cmp	r0, #3
   20724:	d11d      	bne.n	20762 <_ZN20complex_dynamic_type3app17h0f288093d53fd7bcE+0x136>
   20726:	4814      	ldr	r0, [pc, #80]	@ (20778 <_ZN20complex_dynamic_type3app17h0f288093d53fd7bcE+0x14c>)
   20728:	2109      	movs	r1, #9
   2072a:	2200      	movs	r2, #0
   2072c:	4613      	mov	r3, r2
   2072e:	df03      	svc	3
   20730:	e004      	b.n	2073c <_ZN20complex_dynamic_type3app17h0f288093d53fd7bcE+0x110>
   20732:	4811      	ldr	r0, [pc, #68]	@ (20778 <_ZN20complex_dynamic_type3app17h0f288093d53fd7bcE+0x14c>)
   20734:	2109      	movs	r1, #9
   20736:	2200      	movs	r2, #0
   20738:	4613      	mov	r3, r2
   2073a:	df04      	svc	4
   2073c:	a804      	add	r0, sp, #16
   2073e:	7804      	ldrb	r4, [r0, #0]
   20740:	1c68      	adds	r0, r5, #1
   20742:	220f      	movs	r2, #15
   20744:	9901      	ldr	r1, [sp, #4]
   20746:	f00a fce1 	bl	2b10c <__aeabi_memcpy>
   2074a:	702e      	strb	r6, [r5, #0]
   2074c:	2c02      	cmp	r4, #2
   2074e:	d006      	beq.n	2075e <_ZN20complex_dynamic_type3app17h0f288093d53fd7bcE+0x132>
   20750:	4809      	ldr	r0, [pc, #36]	@ (20778 <_ZN20complex_dynamic_type3app17h0f288093d53fd7bcE+0x14c>)
   20752:	2108      	movs	r1, #8
   20754:	2200      	movs	r2, #0
   20756:	4613      	mov	r3, r2
   20758:	2c04      	cmp	r4, #4
   2075a:	d10a      	bne.n	20772 <_ZN20complex_dynamic_type3app17h0f288093d53fd7bcE+0x146>
   2075c:	df04      	svc	4
   2075e:	b01b      	add	sp, #108	@ 0x6c
   20760:	bdf0      	pop	{r4, r5, r6, r7, pc}
   20762:	1c68      	adds	r0, r5, #1
   20764:	220f      	movs	r2, #15
   20766:	4621      	mov	r1, r4
   20768:	f00a fcd0 	bl	2b10c <__aeabi_memcpy>
   2076c:	702e      	strb	r6, [r5, #0]
   2076e:	b01b      	add	sp, #108	@ 0x6c
   20770:	bdf0      	pop	{r4, r5, r6, r7, pc}
   20772:	df03      	svc	3
   20774:	b01b      	add	sp, #108	@ 0x6c
   20776:	bdf0      	pop	{r4, r5, r6, r7, pc}
   20778:	0000111d 	.word	0x0000111d

0002077c <_ZN20complex_dynamic_type3app17h0fc713fc9f52fceeE>:
   2077c:	b5f0      	push	{r4, r5, r6, r7, lr}
   2077e:	af03      	add	r7, sp, #12
   20780:	b0a1      	sub	sp, #132	@ 0x84
   20782:	9004      	str	r0, [sp, #16]
   20784:	a805      	add	r0, sp, #20
   20786:	2402      	movs	r4, #2
   20788:	7004      	strb	r4, [r0, #0]
   2078a:	1c46      	adds	r6, r0, #1
   2078c:	223c      	movs	r2, #60	@ 0x3c
   2078e:	9203      	str	r2, [sp, #12]
   20790:	4630      	mov	r0, r6
   20792:	f00a fcbb 	bl	2b10c <__aeabi_memcpy>
   20796:	ad15      	add	r5, sp, #84	@ 0x54
   20798:	1c68      	adds	r0, r5, #1
   2079a:	212c      	movs	r1, #44	@ 0x2c
   2079c:	9002      	str	r0, [sp, #8]
   2079e:	f00a faf5 	bl	2ad8c <__aeabi_memclr>
   207a2:	9401      	str	r4, [sp, #4]
   207a4:	702c      	strb	r4, [r5, #0]
   207a6:	4848      	ldr	r0, [pc, #288]	@ (208c8 <_ZN20complex_dynamic_type3app17h0fc713fc9f52fceeE+0x14c>)
   207a8:	2105      	movs	r1, #5
   207aa:	4632      	mov	r2, r6
   207ac:	9b03      	ldr	r3, [sp, #12]
   207ae:	df04      	svc	4
   207b0:	2802      	cmp	r0, #2
   207b2:	d104      	bne.n	207be <_ZN20complex_dynamic_type3app17h0fc713fc9f52fceeE+0x42>
   207b4:	2001      	movs	r0, #1
   207b6:	9a04      	ldr	r2, [sp, #16]
   207b8:	7010      	strb	r0, [r2, #0]
   207ba:	6051      	str	r1, [r2, #4]
   207bc:	e02d      	b.n	2081a <_ZN20complex_dynamic_type3app17h0fc713fc9f52fceeE+0x9e>
   207be:	9d04      	ldr	r5, [sp, #16]
   207c0:	a805      	add	r0, sp, #20
   207c2:	2104      	movs	r1, #4
   207c4:	7001      	strb	r1, [r0, #0]
   207c6:	4840      	ldr	r0, [pc, #256]	@ (208c8 <_ZN20complex_dynamic_type3app17h0fc713fc9f52fceeE+0x14c>)
   207c8:	2107      	movs	r1, #7
   207ca:	232c      	movs	r3, #44	@ 0x2c
   207cc:	9c02      	ldr	r4, [sp, #8]
   207ce:	4622      	mov	r2, r4
   207d0:	df03      	svc	3
   207d2:	2802      	cmp	r0, #2
   207d4:	d10e      	bne.n	207f4 <_ZN20complex_dynamic_type3app17h0fc713fc9f52fceeE+0x78>
   207d6:	2001      	movs	r0, #1
   207d8:	7028      	strb	r0, [r5, #0]
   207da:	6069      	str	r1, [r5, #4]
   207dc:	a815      	add	r0, sp, #84	@ 0x54
   207de:	7800      	ldrb	r0, [r0, #0]
   207e0:	2802      	cmp	r0, #2
   207e2:	d01a      	beq.n	2081a <_ZN20complex_dynamic_type3app17h0fc713fc9f52fceeE+0x9e>
   207e4:	2803      	cmp	r0, #3
   207e6:	d013      	beq.n	20810 <_ZN20complex_dynamic_type3app17h0fc713fc9f52fceeE+0x94>
   207e8:	4837      	ldr	r0, [pc, #220]	@ (208c8 <_ZN20complex_dynamic_type3app17h0fc713fc9f52fceeE+0x14c>)
   207ea:	2107      	movs	r1, #7
   207ec:	2200      	movs	r2, #0
   207ee:	4613      	mov	r3, r2
   207f0:	df04      	svc	4
   207f2:	e012      	b.n	2081a <_ZN20complex_dynamic_type3app17h0fc713fc9f52fceeE+0x9e>
   207f4:	a815      	add	r0, sp, #84	@ 0x54
   207f6:	2103      	movs	r1, #3
   207f8:	7001      	strb	r1, [r0, #0]
   207fa:	4833      	ldr	r0, [pc, #204]	@ (208c8 <_ZN20complex_dynamic_type3app17h0fc713fc9f52fceeE+0x14c>)
   207fc:	2105      	movs	r1, #5
   207fe:	2207      	movs	r2, #7
   20800:	2600      	movs	r6, #0
   20802:	4633      	mov	r3, r6
   20804:	df02      	svc	2
   20806:	2880      	cmp	r0, #128	@ 0x80
   20808:	d21b      	bcs.n	20842 <_ZN20complex_dynamic_type3app17h0fc713fc9f52fceeE+0xc6>
   2080a:	2001      	movs	r0, #1
   2080c:	7028      	strb	r0, [r5, #0]
   2080e:	6069      	str	r1, [r5, #4]
   20810:	482d      	ldr	r0, [pc, #180]	@ (208c8 <_ZN20complex_dynamic_type3app17h0fc713fc9f52fceeE+0x14c>)
   20812:	2107      	movs	r1, #7
   20814:	2200      	movs	r2, #0
   20816:	4613      	mov	r3, r2
   20818:	df03      	svc	3
   2081a:	a805      	add	r0, sp, #20
   2081c:	7800      	ldrb	r0, [r0, #0]
   2081e:	2802      	cmp	r0, #2
   20820:	d045      	beq.n	208ae <_ZN20complex_dynamic_type3app17h0fc713fc9f52fceeE+0x132>
   20822:	2804      	cmp	r0, #4
   20824:	d106      	bne.n	20834 <_ZN20complex_dynamic_type3app17h0fc713fc9f52fceeE+0xb8>
   20826:	4828      	ldr	r0, [pc, #160]	@ (208c8 <_ZN20complex_dynamic_type3app17h0fc713fc9f52fceeE+0x14c>)
   20828:	2105      	movs	r1, #5
   2082a:	2200      	movs	r2, #0
   2082c:	4613      	mov	r3, r2
   2082e:	df04      	svc	4
   20830:	b021      	add	sp, #132	@ 0x84
   20832:	bdf0      	pop	{r4, r5, r6, r7, pc}
   20834:	4824      	ldr	r0, [pc, #144]	@ (208c8 <_ZN20complex_dynamic_type3app17h0fc713fc9f52fceeE+0x14c>)
   20836:	2105      	movs	r1, #5
   20838:	2200      	movs	r2, #0
   2083a:	4613      	mov	r3, r2
   2083c:	df03      	svc	3
   2083e:	b021      	add	sp, #132	@ 0x84
   20840:	bdf0      	pop	{r4, r5, r6, r7, pc}
   20842:	a805      	add	r0, sp, #20
   20844:	7800      	ldrb	r0, [r0, #0]
   20846:	2802      	cmp	r0, #2
   20848:	d00c      	beq.n	20864 <_ZN20complex_dynamic_type3app17h0fc713fc9f52fceeE+0xe8>
   2084a:	2803      	cmp	r0, #3
   2084c:	d105      	bne.n	2085a <_ZN20complex_dynamic_type3app17h0fc713fc9f52fceeE+0xde>
   2084e:	481e      	ldr	r0, [pc, #120]	@ (208c8 <_ZN20complex_dynamic_type3app17h0fc713fc9f52fceeE+0x14c>)
   20850:	2105      	movs	r1, #5
   20852:	2200      	movs	r2, #0
   20854:	4613      	mov	r3, r2
   20856:	df03      	svc	3
   20858:	e004      	b.n	20864 <_ZN20complex_dynamic_type3app17h0fc713fc9f52fceeE+0xe8>
   2085a:	481b      	ldr	r0, [pc, #108]	@ (208c8 <_ZN20complex_dynamic_type3app17h0fc713fc9f52fceeE+0x14c>)
   2085c:	2105      	movs	r1, #5
   2085e:	2200      	movs	r2, #0
   20860:	4613      	mov	r3, r2
   20862:	df04      	svc	4
   20864:	a805      	add	r0, sp, #20
   20866:	9901      	ldr	r1, [sp, #4]
   20868:	7001      	strb	r1, [r0, #0]
   2086a:	a815      	add	r0, sp, #84	@ 0x54
   2086c:	7800      	ldrb	r0, [r0, #0]
   2086e:	2804      	cmp	r0, #4
   20870:	d007      	beq.n	20882 <_ZN20complex_dynamic_type3app17h0fc713fc9f52fceeE+0x106>
   20872:	2803      	cmp	r0, #3
   20874:	d11d      	bne.n	208b2 <_ZN20complex_dynamic_type3app17h0fc713fc9f52fceeE+0x136>
   20876:	4814      	ldr	r0, [pc, #80]	@ (208c8 <_ZN20complex_dynamic_type3app17h0fc713fc9f52fceeE+0x14c>)
   20878:	2107      	movs	r1, #7
   2087a:	2200      	movs	r2, #0
   2087c:	4613      	mov	r3, r2
   2087e:	df03      	svc	3
   20880:	e004      	b.n	2088c <_ZN20complex_dynamic_type3app17h0fc713fc9f52fceeE+0x110>
   20882:	4811      	ldr	r0, [pc, #68]	@ (208c8 <_ZN20complex_dynamic_type3app17h0fc713fc9f52fceeE+0x14c>)
   20884:	2107      	movs	r1, #7
   20886:	2200      	movs	r2, #0
   20888:	4613      	mov	r3, r2
   2088a:	df04      	svc	4
   2088c:	a805      	add	r0, sp, #20
   2088e:	7804      	ldrb	r4, [r0, #0]
   20890:	1c68      	adds	r0, r5, #1
   20892:	222c      	movs	r2, #44	@ 0x2c
   20894:	9902      	ldr	r1, [sp, #8]
   20896:	f00a fc39 	bl	2b10c <__aeabi_memcpy>
   2089a:	702e      	strb	r6, [r5, #0]
   2089c:	2c02      	cmp	r4, #2
   2089e:	d006      	beq.n	208ae <_ZN20complex_dynamic_type3app17h0fc713fc9f52fceeE+0x132>
   208a0:	4809      	ldr	r0, [pc, #36]	@ (208c8 <_ZN20complex_dynamic_type3app17h0fc713fc9f52fceeE+0x14c>)
   208a2:	2105      	movs	r1, #5
   208a4:	2200      	movs	r2, #0
   208a6:	4613      	mov	r3, r2
   208a8:	2c04      	cmp	r4, #4
   208aa:	d10a      	bne.n	208c2 <_ZN20complex_dynamic_type3app17h0fc713fc9f52fceeE+0x146>
   208ac:	df04      	svc	4
   208ae:	b021      	add	sp, #132	@ 0x84
   208b0:	bdf0      	pop	{r4, r5, r6, r7, pc}
   208b2:	1c68      	adds	r0, r5, #1
   208b4:	222c      	movs	r2, #44	@ 0x2c
   208b6:	4621      	mov	r1, r4
   208b8:	f00a fc28 	bl	2b10c <__aeabi_memcpy>
   208bc:	702e      	strb	r6, [r5, #0]
   208be:	b021      	add	sp, #132	@ 0x84
   208c0:	bdf0      	pop	{r4, r5, r6, r7, pc}
   208c2:	df03      	svc	3
   208c4:	b021      	add	sp, #132	@ 0x84
   208c6:	bdf0      	pop	{r4, r5, r6, r7, pc}
   208c8:	00001eac 	.word	0x00001eac

000208cc <_ZN20complex_dynamic_type3app17h150583c70acc0878E>:
   208cc:	b5f0      	push	{r4, r5, r6, r7, lr}
   208ce:	af03      	add	r7, sp, #12
   208d0:	b0a3      	sub	sp, #140	@ 0x8c
   208d2:	9004      	str	r0, [sp, #16]
   208d4:	a805      	add	r0, sp, #20
   208d6:	2402      	movs	r4, #2
   208d8:	7004      	strb	r4, [r0, #0]
   208da:	1c46      	adds	r6, r0, #1
   208dc:	2235      	movs	r2, #53	@ 0x35
   208de:	9203      	str	r2, [sp, #12]
   208e0:	4630      	mov	r0, r6
   208e2:	f00a fc13 	bl	2b10c <__aeabi_memcpy>
   208e6:	ad13      	add	r5, sp, #76	@ 0x4c
   208e8:	1c68      	adds	r0, r5, #1
   208ea:	213f      	movs	r1, #63	@ 0x3f
   208ec:	9002      	str	r0, [sp, #8]
   208ee:	f00a fa4d 	bl	2ad8c <__aeabi_memclr>
   208f2:	9401      	str	r4, [sp, #4]
   208f4:	702c      	strb	r4, [r5, #0]
   208f6:	4848      	ldr	r0, [pc, #288]	@ (20a18 <_ZN20complex_dynamic_type3app17h150583c70acc0878E+0x14c>)
   208f8:	2100      	movs	r1, #0
   208fa:	4632      	mov	r2, r6
   208fc:	9b03      	ldr	r3, [sp, #12]
   208fe:	df04      	svc	4
   20900:	2802      	cmp	r0, #2
   20902:	d104      	bne.n	2090e <_ZN20complex_dynamic_type3app17h150583c70acc0878E+0x42>
   20904:	2001      	movs	r0, #1
   20906:	9a04      	ldr	r2, [sp, #16]
   20908:	7010      	strb	r0, [r2, #0]
   2090a:	6051      	str	r1, [r2, #4]
   2090c:	e02c      	b.n	20968 <_ZN20complex_dynamic_type3app17h150583c70acc0878E+0x9c>
   2090e:	9d04      	ldr	r5, [sp, #16]
   20910:	a805      	add	r0, sp, #20
   20912:	2104      	movs	r1, #4
   20914:	7001      	strb	r1, [r0, #0]
   20916:	4840      	ldr	r0, [pc, #256]	@ (20a18 <_ZN20complex_dynamic_type3app17h150583c70acc0878E+0x14c>)
   20918:	2403      	movs	r4, #3
   2091a:	233f      	movs	r3, #63	@ 0x3f
   2091c:	4621      	mov	r1, r4
   2091e:	9a02      	ldr	r2, [sp, #8]
   20920:	df03      	svc	3
   20922:	2802      	cmp	r0, #2
   20924:	d10e      	bne.n	20944 <_ZN20complex_dynamic_type3app17h150583c70acc0878E+0x78>
   20926:	2001      	movs	r0, #1
   20928:	7028      	strb	r0, [r5, #0]
   2092a:	6069      	str	r1, [r5, #4]
   2092c:	a813      	add	r0, sp, #76	@ 0x4c
   2092e:	7800      	ldrb	r0, [r0, #0]
   20930:	2802      	cmp	r0, #2
   20932:	d019      	beq.n	20968 <_ZN20complex_dynamic_type3app17h150583c70acc0878E+0x9c>
   20934:	2803      	cmp	r0, #3
   20936:	d012      	beq.n	2095e <_ZN20complex_dynamic_type3app17h150583c70acc0878E+0x92>
   20938:	4837      	ldr	r0, [pc, #220]	@ (20a18 <_ZN20complex_dynamic_type3app17h150583c70acc0878E+0x14c>)
   2093a:	2103      	movs	r1, #3
   2093c:	2200      	movs	r2, #0
   2093e:	4613      	mov	r3, r2
   20940:	df04      	svc	4
   20942:	e011      	b.n	20968 <_ZN20complex_dynamic_type3app17h150583c70acc0878E+0x9c>
   20944:	a813      	add	r0, sp, #76	@ 0x4c
   20946:	7004      	strb	r4, [r0, #0]
   20948:	4833      	ldr	r0, [pc, #204]	@ (20a18 <_ZN20complex_dynamic_type3app17h150583c70acc0878E+0x14c>)
   2094a:	2600      	movs	r6, #0
   2094c:	4631      	mov	r1, r6
   2094e:	4622      	mov	r2, r4
   20950:	4633      	mov	r3, r6
   20952:	df02      	svc	2
   20954:	2880      	cmp	r0, #128	@ 0x80
   20956:	d21b      	bcs.n	20990 <_ZN20complex_dynamic_type3app17h150583c70acc0878E+0xc4>
   20958:	2001      	movs	r0, #1
   2095a:	7028      	strb	r0, [r5, #0]
   2095c:	6069      	str	r1, [r5, #4]
   2095e:	482e      	ldr	r0, [pc, #184]	@ (20a18 <_ZN20complex_dynamic_type3app17h150583c70acc0878E+0x14c>)
   20960:	2103      	movs	r1, #3
   20962:	2200      	movs	r2, #0
   20964:	4613      	mov	r3, r2
   20966:	df03      	svc	3
   20968:	a805      	add	r0, sp, #20
   2096a:	7800      	ldrb	r0, [r0, #0]
   2096c:	2802      	cmp	r0, #2
   2096e:	d045      	beq.n	209fc <_ZN20complex_dynamic_type3app17h150583c70acc0878E+0x130>
   20970:	2804      	cmp	r0, #4
   20972:	d106      	bne.n	20982 <_ZN20complex_dynamic_type3app17h150583c70acc0878E+0xb6>
   20974:	4828      	ldr	r0, [pc, #160]	@ (20a18 <_ZN20complex_dynamic_type3app17h150583c70acc0878E+0x14c>)
   20976:	2100      	movs	r1, #0
   20978:	460a      	mov	r2, r1
   2097a:	460b      	mov	r3, r1
   2097c:	df04      	svc	4
   2097e:	b023      	add	sp, #140	@ 0x8c
   20980:	bdf0      	pop	{r4, r5, r6, r7, pc}
   20982:	4825      	ldr	r0, [pc, #148]	@ (20a18 <_ZN20complex_dynamic_type3app17h150583c70acc0878E+0x14c>)
   20984:	2100      	movs	r1, #0
   20986:	460a      	mov	r2, r1
   20988:	460b      	mov	r3, r1
   2098a:	df03      	svc	3
   2098c:	b023      	add	sp, #140	@ 0x8c
   2098e:	bdf0      	pop	{r4, r5, r6, r7, pc}
   20990:	a805      	add	r0, sp, #20
   20992:	7800      	ldrb	r0, [r0, #0]
   20994:	2802      	cmp	r0, #2
   20996:	d00c      	beq.n	209b2 <_ZN20complex_dynamic_type3app17h150583c70acc0878E+0xe6>
   20998:	2803      	cmp	r0, #3
   2099a:	d105      	bne.n	209a8 <_ZN20complex_dynamic_type3app17h150583c70acc0878E+0xdc>
   2099c:	481e      	ldr	r0, [pc, #120]	@ (20a18 <_ZN20complex_dynamic_type3app17h150583c70acc0878E+0x14c>)
   2099e:	2100      	movs	r1, #0
   209a0:	460a      	mov	r2, r1
   209a2:	460b      	mov	r3, r1
   209a4:	df03      	svc	3
   209a6:	e004      	b.n	209b2 <_ZN20complex_dynamic_type3app17h150583c70acc0878E+0xe6>
   209a8:	481b      	ldr	r0, [pc, #108]	@ (20a18 <_ZN20complex_dynamic_type3app17h150583c70acc0878E+0x14c>)
   209aa:	2100      	movs	r1, #0
   209ac:	460a      	mov	r2, r1
   209ae:	460b      	mov	r3, r1
   209b0:	df04      	svc	4
   209b2:	a805      	add	r0, sp, #20
   209b4:	9901      	ldr	r1, [sp, #4]
   209b6:	7001      	strb	r1, [r0, #0]
   209b8:	a813      	add	r0, sp, #76	@ 0x4c
   209ba:	7800      	ldrb	r0, [r0, #0]
   209bc:	2804      	cmp	r0, #4
   209be:	d007      	beq.n	209d0 <_ZN20complex_dynamic_type3app17h150583c70acc0878E+0x104>
   209c0:	2803      	cmp	r0, #3
   209c2:	d11d      	bne.n	20a00 <_ZN20complex_dynamic_type3app17h150583c70acc0878E+0x134>
   209c4:	4814      	ldr	r0, [pc, #80]	@ (20a18 <_ZN20complex_dynamic_type3app17h150583c70acc0878E+0x14c>)
   209c6:	2103      	movs	r1, #3
   209c8:	2200      	movs	r2, #0
   209ca:	4613      	mov	r3, r2
   209cc:	df03      	svc	3
   209ce:	e004      	b.n	209da <_ZN20complex_dynamic_type3app17h150583c70acc0878E+0x10e>
   209d0:	4811      	ldr	r0, [pc, #68]	@ (20a18 <_ZN20complex_dynamic_type3app17h150583c70acc0878E+0x14c>)
   209d2:	2103      	movs	r1, #3
   209d4:	2200      	movs	r2, #0
   209d6:	4613      	mov	r3, r2
   209d8:	df04      	svc	4
   209da:	a805      	add	r0, sp, #20
   209dc:	7804      	ldrb	r4, [r0, #0]
   209de:	1c68      	adds	r0, r5, #1
   209e0:	223f      	movs	r2, #63	@ 0x3f
   209e2:	9902      	ldr	r1, [sp, #8]
   209e4:	f00a fb92 	bl	2b10c <__aeabi_memcpy>
   209e8:	702e      	strb	r6, [r5, #0]
   209ea:	2c02      	cmp	r4, #2
   209ec:	d006      	beq.n	209fc <_ZN20complex_dynamic_type3app17h150583c70acc0878E+0x130>
   209ee:	480a      	ldr	r0, [pc, #40]	@ (20a18 <_ZN20complex_dynamic_type3app17h150583c70acc0878E+0x14c>)
   209f0:	2100      	movs	r1, #0
   209f2:	460a      	mov	r2, r1
   209f4:	460b      	mov	r3, r1
   209f6:	2c04      	cmp	r4, #4
   209f8:	d10a      	bne.n	20a10 <_ZN20complex_dynamic_type3app17h150583c70acc0878E+0x144>
   209fa:	df04      	svc	4
   209fc:	b023      	add	sp, #140	@ 0x8c
   209fe:	bdf0      	pop	{r4, r5, r6, r7, pc}
   20a00:	1c68      	adds	r0, r5, #1
   20a02:	223f      	movs	r2, #63	@ 0x3f
   20a04:	9902      	ldr	r1, [sp, #8]
   20a06:	f00a fb81 	bl	2b10c <__aeabi_memcpy>
   20a0a:	702e      	strb	r6, [r5, #0]
   20a0c:	b023      	add	sp, #140	@ 0x8c
   20a0e:	bdf0      	pop	{r4, r5, r6, r7, pc}
   20a10:	df03      	svc	3
   20a12:	b023      	add	sp, #140	@ 0x8c
   20a14:	bdf0      	pop	{r4, r5, r6, r7, pc}
   20a16:	46c0      	nop			@ (mov r8, r8)
   20a18:	00000e57 	.word	0x00000e57

00020a1c <_ZN20complex_dynamic_type3app17h1785cddbd0d7bafaE>:
   20a1c:	b5f0      	push	{r4, r5, r6, r7, lr}
   20a1e:	af03      	add	r7, sp, #12
   20a20:	b0ad      	sub	sp, #180	@ 0xb4
   20a22:	9003      	str	r0, [sp, #12]
   20a24:	a804      	add	r0, sp, #16
   20a26:	2402      	movs	r4, #2
   20a28:	7004      	strb	r4, [r0, #0]
   20a2a:	1c46      	adds	r6, r0, #1
   20a2c:	2251      	movs	r2, #81	@ 0x51
   20a2e:	9202      	str	r2, [sp, #8]
   20a30:	4630      	mov	r0, r6
   20a32:	f00a fb6b 	bl	2b10c <__aeabi_memcpy>
   20a36:	ad19      	add	r5, sp, #100	@ 0x64
   20a38:	1c68      	adds	r0, r5, #1
   20a3a:	214f      	movs	r1, #79	@ 0x4f
   20a3c:	9001      	str	r0, [sp, #4]
   20a3e:	f00a f9a5 	bl	2ad8c <__aeabi_memclr>
   20a42:	9400      	str	r4, [sp, #0]
   20a44:	702c      	strb	r4, [r5, #0]
   20a46:	4848      	ldr	r0, [pc, #288]	@ (20b68 <_ZN20complex_dynamic_type3app17h1785cddbd0d7bafaE+0x14c>)
   20a48:	2504      	movs	r5, #4
   20a4a:	4629      	mov	r1, r5
   20a4c:	4632      	mov	r2, r6
   20a4e:	9b02      	ldr	r3, [sp, #8]
   20a50:	df04      	svc	4
   20a52:	2802      	cmp	r0, #2
   20a54:	d104      	bne.n	20a60 <_ZN20complex_dynamic_type3app17h1785cddbd0d7bafaE+0x44>
   20a56:	2001      	movs	r0, #1
   20a58:	9a03      	ldr	r2, [sp, #12]
   20a5a:	7010      	strb	r0, [r2, #0]
   20a5c:	6051      	str	r1, [r2, #4]
   20a5e:	e02c      	b.n	20aba <_ZN20complex_dynamic_type3app17h1785cddbd0d7bafaE+0x9e>
   20a60:	9c03      	ldr	r4, [sp, #12]
   20a62:	a804      	add	r0, sp, #16
   20a64:	7005      	strb	r5, [r0, #0]
   20a66:	4840      	ldr	r0, [pc, #256]	@ (20b68 <_ZN20complex_dynamic_type3app17h1785cddbd0d7bafaE+0x14c>)
   20a68:	2109      	movs	r1, #9
   20a6a:	234f      	movs	r3, #79	@ 0x4f
   20a6c:	9a01      	ldr	r2, [sp, #4]
   20a6e:	df03      	svc	3
   20a70:	2802      	cmp	r0, #2
   20a72:	d10e      	bne.n	20a92 <_ZN20complex_dynamic_type3app17h1785cddbd0d7bafaE+0x76>
   20a74:	2001      	movs	r0, #1
   20a76:	7020      	strb	r0, [r4, #0]
   20a78:	6061      	str	r1, [r4, #4]
   20a7a:	a819      	add	r0, sp, #100	@ 0x64
   20a7c:	7800      	ldrb	r0, [r0, #0]
   20a7e:	2802      	cmp	r0, #2
   20a80:	d01b      	beq.n	20aba <_ZN20complex_dynamic_type3app17h1785cddbd0d7bafaE+0x9e>
   20a82:	2803      	cmp	r0, #3
   20a84:	d014      	beq.n	20ab0 <_ZN20complex_dynamic_type3app17h1785cddbd0d7bafaE+0x94>
   20a86:	4838      	ldr	r0, [pc, #224]	@ (20b68 <_ZN20complex_dynamic_type3app17h1785cddbd0d7bafaE+0x14c>)
   20a88:	2109      	movs	r1, #9
   20a8a:	2200      	movs	r2, #0
   20a8c:	4613      	mov	r3, r2
   20a8e:	df04      	svc	4
   20a90:	e013      	b.n	20aba <_ZN20complex_dynamic_type3app17h1785cddbd0d7bafaE+0x9e>
   20a92:	a819      	add	r0, sp, #100	@ 0x64
   20a94:	2103      	movs	r1, #3
   20a96:	7001      	strb	r1, [r0, #0]
   20a98:	4833      	ldr	r0, [pc, #204]	@ (20b68 <_ZN20complex_dynamic_type3app17h1785cddbd0d7bafaE+0x14c>)
   20a9a:	2104      	movs	r1, #4
   20a9c:	2209      	movs	r2, #9
   20a9e:	2600      	movs	r6, #0
   20aa0:	4633      	mov	r3, r6
   20aa2:	df02      	svc	2
   20aa4:	2880      	cmp	r0, #128	@ 0x80
   20aa6:	4625      	mov	r5, r4
   20aa8:	d21b      	bcs.n	20ae2 <_ZN20complex_dynamic_type3app17h1785cddbd0d7bafaE+0xc6>
   20aaa:	2001      	movs	r0, #1
   20aac:	7028      	strb	r0, [r5, #0]
   20aae:	6069      	str	r1, [r5, #4]
   20ab0:	482d      	ldr	r0, [pc, #180]	@ (20b68 <_ZN20complex_dynamic_type3app17h1785cddbd0d7bafaE+0x14c>)
   20ab2:	2109      	movs	r1, #9
   20ab4:	2200      	movs	r2, #0
   20ab6:	4613      	mov	r3, r2
   20ab8:	df03      	svc	3
   20aba:	a804      	add	r0, sp, #16
   20abc:	7800      	ldrb	r0, [r0, #0]
   20abe:	2802      	cmp	r0, #2
   20ac0:	d045      	beq.n	20b4e <_ZN20complex_dynamic_type3app17h1785cddbd0d7bafaE+0x132>
   20ac2:	2804      	cmp	r0, #4
   20ac4:	d106      	bne.n	20ad4 <_ZN20complex_dynamic_type3app17h1785cddbd0d7bafaE+0xb8>
   20ac6:	4828      	ldr	r0, [pc, #160]	@ (20b68 <_ZN20complex_dynamic_type3app17h1785cddbd0d7bafaE+0x14c>)
   20ac8:	2104      	movs	r1, #4
   20aca:	2200      	movs	r2, #0
   20acc:	4613      	mov	r3, r2
   20ace:	df04      	svc	4
   20ad0:	b02d      	add	sp, #180	@ 0xb4
   20ad2:	bdf0      	pop	{r4, r5, r6, r7, pc}
   20ad4:	4824      	ldr	r0, [pc, #144]	@ (20b68 <_ZN20complex_dynamic_type3app17h1785cddbd0d7bafaE+0x14c>)
   20ad6:	2104      	movs	r1, #4
   20ad8:	2200      	movs	r2, #0
   20ada:	4613      	mov	r3, r2
   20adc:	df03      	svc	3
   20ade:	b02d      	add	sp, #180	@ 0xb4
   20ae0:	bdf0      	pop	{r4, r5, r6, r7, pc}
   20ae2:	a804      	add	r0, sp, #16
   20ae4:	7800      	ldrb	r0, [r0, #0]
   20ae6:	2802      	cmp	r0, #2
   20ae8:	d00c      	beq.n	20b04 <_ZN20complex_dynamic_type3app17h1785cddbd0d7bafaE+0xe8>
   20aea:	2803      	cmp	r0, #3
   20aec:	d105      	bne.n	20afa <_ZN20complex_dynamic_type3app17h1785cddbd0d7bafaE+0xde>
   20aee:	481e      	ldr	r0, [pc, #120]	@ (20b68 <_ZN20complex_dynamic_type3app17h1785cddbd0d7bafaE+0x14c>)
   20af0:	2104      	movs	r1, #4
   20af2:	2200      	movs	r2, #0
   20af4:	4613      	mov	r3, r2
   20af6:	df03      	svc	3
   20af8:	e004      	b.n	20b04 <_ZN20complex_dynamic_type3app17h1785cddbd0d7bafaE+0xe8>
   20afa:	481b      	ldr	r0, [pc, #108]	@ (20b68 <_ZN20complex_dynamic_type3app17h1785cddbd0d7bafaE+0x14c>)
   20afc:	2104      	movs	r1, #4
   20afe:	2200      	movs	r2, #0
   20b00:	4613      	mov	r3, r2
   20b02:	df04      	svc	4
   20b04:	a804      	add	r0, sp, #16
   20b06:	9900      	ldr	r1, [sp, #0]
   20b08:	7001      	strb	r1, [r0, #0]
   20b0a:	a819      	add	r0, sp, #100	@ 0x64
   20b0c:	7800      	ldrb	r0, [r0, #0]
   20b0e:	2804      	cmp	r0, #4
   20b10:	d007      	beq.n	20b22 <_ZN20complex_dynamic_type3app17h1785cddbd0d7bafaE+0x106>
   20b12:	2803      	cmp	r0, #3
   20b14:	d11d      	bne.n	20b52 <_ZN20complex_dynamic_type3app17h1785cddbd0d7bafaE+0x136>
   20b16:	4814      	ldr	r0, [pc, #80]	@ (20b68 <_ZN20complex_dynamic_type3app17h1785cddbd0d7bafaE+0x14c>)
   20b18:	2109      	movs	r1, #9
   20b1a:	2200      	movs	r2, #0
   20b1c:	4613      	mov	r3, r2
   20b1e:	df03      	svc	3
   20b20:	e004      	b.n	20b2c <_ZN20complex_dynamic_type3app17h1785cddbd0d7bafaE+0x110>
   20b22:	4811      	ldr	r0, [pc, #68]	@ (20b68 <_ZN20complex_dynamic_type3app17h1785cddbd0d7bafaE+0x14c>)
   20b24:	2109      	movs	r1, #9
   20b26:	2200      	movs	r2, #0
   20b28:	4613      	mov	r3, r2
   20b2a:	df04      	svc	4
   20b2c:	a804      	add	r0, sp, #16
   20b2e:	7804      	ldrb	r4, [r0, #0]
   20b30:	1c68      	adds	r0, r5, #1
   20b32:	224f      	movs	r2, #79	@ 0x4f
   20b34:	9901      	ldr	r1, [sp, #4]
   20b36:	f00a fae9 	bl	2b10c <__aeabi_memcpy>
   20b3a:	702e      	strb	r6, [r5, #0]
   20b3c:	2c02      	cmp	r4, #2
   20b3e:	d006      	beq.n	20b4e <_ZN20complex_dynamic_type3app17h1785cddbd0d7bafaE+0x132>
   20b40:	4809      	ldr	r0, [pc, #36]	@ (20b68 <_ZN20complex_dynamic_type3app17h1785cddbd0d7bafaE+0x14c>)
   20b42:	2104      	movs	r1, #4
   20b44:	2200      	movs	r2, #0
   20b46:	4613      	mov	r3, r2
   20b48:	2c04      	cmp	r4, #4
   20b4a:	d10a      	bne.n	20b62 <_ZN20complex_dynamic_type3app17h1785cddbd0d7bafaE+0x146>
   20b4c:	df04      	svc	4
   20b4e:	b02d      	add	sp, #180	@ 0xb4
   20b50:	bdf0      	pop	{r4, r5, r6, r7, pc}
   20b52:	1c68      	adds	r0, r5, #1
   20b54:	224f      	movs	r2, #79	@ 0x4f
   20b56:	9901      	ldr	r1, [sp, #4]
   20b58:	f00a fad8 	bl	2b10c <__aeabi_memcpy>
   20b5c:	702e      	strb	r6, [r5, #0]
   20b5e:	b02d      	add	sp, #180	@ 0xb4
   20b60:	bdf0      	pop	{r4, r5, r6, r7, pc}
   20b62:	df03      	svc	3
   20b64:	b02d      	add	sp, #180	@ 0xb4
   20b66:	bdf0      	pop	{r4, r5, r6, r7, pc}
   20b68:	000020ee 	.word	0x000020ee

00020b6c <_ZN20complex_dynamic_type3app17h19bb8febb8a885deE>:
   20b6c:	b5f0      	push	{r4, r5, r6, r7, lr}
   20b6e:	af03      	add	r7, sp, #12
   20b70:	b0a7      	sub	sp, #156	@ 0x9c
   20b72:	9003      	str	r0, [sp, #12]
   20b74:	a804      	add	r0, sp, #16
   20b76:	2402      	movs	r4, #2
   20b78:	7004      	strb	r4, [r0, #0]
   20b7a:	1c46      	adds	r6, r0, #1
   20b7c:	2263      	movs	r2, #99	@ 0x63
   20b7e:	9202      	str	r2, [sp, #8]
   20b80:	4630      	mov	r0, r6
   20b82:	f00a fac3 	bl	2b10c <__aeabi_memcpy>
   20b86:	ad1d      	add	r5, sp, #116	@ 0x74
   20b88:	1c68      	adds	r0, r5, #1
   20b8a:	2127      	movs	r1, #39	@ 0x27
   20b8c:	9001      	str	r0, [sp, #4]
   20b8e:	f00a f8fd 	bl	2ad8c <__aeabi_memclr>
   20b92:	9400      	str	r4, [sp, #0]
   20b94:	702c      	strb	r4, [r5, #0]
   20b96:	4848      	ldr	r0, [pc, #288]	@ (20cb8 <_ZN20complex_dynamic_type3app17h19bb8febb8a885deE+0x14c>)
   20b98:	2107      	movs	r1, #7
   20b9a:	4632      	mov	r2, r6
   20b9c:	9b02      	ldr	r3, [sp, #8]
   20b9e:	df04      	svc	4
   20ba0:	2802      	cmp	r0, #2
   20ba2:	d104      	bne.n	20bae <_ZN20complex_dynamic_type3app17h19bb8febb8a885deE+0x42>
   20ba4:	2001      	movs	r0, #1
   20ba6:	9a03      	ldr	r2, [sp, #12]
   20ba8:	7010      	strb	r0, [r2, #0]
   20baa:	6051      	str	r1, [r2, #4]
   20bac:	e02d      	b.n	20c0a <_ZN20complex_dynamic_type3app17h19bb8febb8a885deE+0x9e>
   20bae:	9d03      	ldr	r5, [sp, #12]
   20bb0:	a804      	add	r0, sp, #16
   20bb2:	2104      	movs	r1, #4
   20bb4:	7001      	strb	r1, [r0, #0]
   20bb6:	4840      	ldr	r0, [pc, #256]	@ (20cb8 <_ZN20complex_dynamic_type3app17h19bb8febb8a885deE+0x14c>)
   20bb8:	2100      	movs	r1, #0
   20bba:	2327      	movs	r3, #39	@ 0x27
   20bbc:	9c01      	ldr	r4, [sp, #4]
   20bbe:	4622      	mov	r2, r4
   20bc0:	df03      	svc	3
   20bc2:	2802      	cmp	r0, #2
   20bc4:	d10e      	bne.n	20be4 <_ZN20complex_dynamic_type3app17h19bb8febb8a885deE+0x78>
   20bc6:	2001      	movs	r0, #1
   20bc8:	7028      	strb	r0, [r5, #0]
   20bca:	6069      	str	r1, [r5, #4]
   20bcc:	a81d      	add	r0, sp, #116	@ 0x74
   20bce:	7800      	ldrb	r0, [r0, #0]
   20bd0:	2802      	cmp	r0, #2
   20bd2:	d01a      	beq.n	20c0a <_ZN20complex_dynamic_type3app17h19bb8febb8a885deE+0x9e>
   20bd4:	2803      	cmp	r0, #3
   20bd6:	d013      	beq.n	20c00 <_ZN20complex_dynamic_type3app17h19bb8febb8a885deE+0x94>
   20bd8:	4837      	ldr	r0, [pc, #220]	@ (20cb8 <_ZN20complex_dynamic_type3app17h19bb8febb8a885deE+0x14c>)
   20bda:	2100      	movs	r1, #0
   20bdc:	460a      	mov	r2, r1
   20bde:	460b      	mov	r3, r1
   20be0:	df04      	svc	4
   20be2:	e012      	b.n	20c0a <_ZN20complex_dynamic_type3app17h19bb8febb8a885deE+0x9e>
   20be4:	a81d      	add	r0, sp, #116	@ 0x74
   20be6:	2103      	movs	r1, #3
   20be8:	7001      	strb	r1, [r0, #0]
   20bea:	4833      	ldr	r0, [pc, #204]	@ (20cb8 <_ZN20complex_dynamic_type3app17h19bb8febb8a885deE+0x14c>)
   20bec:	2107      	movs	r1, #7
   20bee:	2600      	movs	r6, #0
   20bf0:	4632      	mov	r2, r6
   20bf2:	4633      	mov	r3, r6
   20bf4:	df02      	svc	2
   20bf6:	2880      	cmp	r0, #128	@ 0x80
   20bf8:	d21b      	bcs.n	20c32 <_ZN20complex_dynamic_type3app17h19bb8febb8a885deE+0xc6>
   20bfa:	2001      	movs	r0, #1
   20bfc:	7028      	strb	r0, [r5, #0]
   20bfe:	6069      	str	r1, [r5, #4]
   20c00:	482d      	ldr	r0, [pc, #180]	@ (20cb8 <_ZN20complex_dynamic_type3app17h19bb8febb8a885deE+0x14c>)
   20c02:	2100      	movs	r1, #0
   20c04:	460a      	mov	r2, r1
   20c06:	460b      	mov	r3, r1
   20c08:	df03      	svc	3
   20c0a:	a804      	add	r0, sp, #16
   20c0c:	7800      	ldrb	r0, [r0, #0]
   20c0e:	2802      	cmp	r0, #2
   20c10:	d045      	beq.n	20c9e <_ZN20complex_dynamic_type3app17h19bb8febb8a885deE+0x132>
   20c12:	2804      	cmp	r0, #4
   20c14:	d106      	bne.n	20c24 <_ZN20complex_dynamic_type3app17h19bb8febb8a885deE+0xb8>
   20c16:	4828      	ldr	r0, [pc, #160]	@ (20cb8 <_ZN20complex_dynamic_type3app17h19bb8febb8a885deE+0x14c>)
   20c18:	2107      	movs	r1, #7
   20c1a:	2200      	movs	r2, #0
   20c1c:	4613      	mov	r3, r2
   20c1e:	df04      	svc	4
   20c20:	b027      	add	sp, #156	@ 0x9c
   20c22:	bdf0      	pop	{r4, r5, r6, r7, pc}
   20c24:	4824      	ldr	r0, [pc, #144]	@ (20cb8 <_ZN20complex_dynamic_type3app17h19bb8febb8a885deE+0x14c>)
   20c26:	2107      	movs	r1, #7
   20c28:	2200      	movs	r2, #0
   20c2a:	4613      	mov	r3, r2
   20c2c:	df03      	svc	3
   20c2e:	b027      	add	sp, #156	@ 0x9c
   20c30:	bdf0      	pop	{r4, r5, r6, r7, pc}
   20c32:	a804      	add	r0, sp, #16
   20c34:	7800      	ldrb	r0, [r0, #0]
   20c36:	2802      	cmp	r0, #2
   20c38:	d00c      	beq.n	20c54 <_ZN20complex_dynamic_type3app17h19bb8febb8a885deE+0xe8>
   20c3a:	2803      	cmp	r0, #3
   20c3c:	d105      	bne.n	20c4a <_ZN20complex_dynamic_type3app17h19bb8febb8a885deE+0xde>
   20c3e:	481e      	ldr	r0, [pc, #120]	@ (20cb8 <_ZN20complex_dynamic_type3app17h19bb8febb8a885deE+0x14c>)
   20c40:	2107      	movs	r1, #7
   20c42:	2200      	movs	r2, #0
   20c44:	4613      	mov	r3, r2
   20c46:	df03      	svc	3
   20c48:	e004      	b.n	20c54 <_ZN20complex_dynamic_type3app17h19bb8febb8a885deE+0xe8>
   20c4a:	481b      	ldr	r0, [pc, #108]	@ (20cb8 <_ZN20complex_dynamic_type3app17h19bb8febb8a885deE+0x14c>)
   20c4c:	2107      	movs	r1, #7
   20c4e:	2200      	movs	r2, #0
   20c50:	4613      	mov	r3, r2
   20c52:	df04      	svc	4
   20c54:	a804      	add	r0, sp, #16
   20c56:	9900      	ldr	r1, [sp, #0]
   20c58:	7001      	strb	r1, [r0, #0]
   20c5a:	a81d      	add	r0, sp, #116	@ 0x74
   20c5c:	7800      	ldrb	r0, [r0, #0]
   20c5e:	2804      	cmp	r0, #4
   20c60:	d007      	beq.n	20c72 <_ZN20complex_dynamic_type3app17h19bb8febb8a885deE+0x106>
   20c62:	2803      	cmp	r0, #3
   20c64:	d11d      	bne.n	20ca2 <_ZN20complex_dynamic_type3app17h19bb8febb8a885deE+0x136>
   20c66:	4814      	ldr	r0, [pc, #80]	@ (20cb8 <_ZN20complex_dynamic_type3app17h19bb8febb8a885deE+0x14c>)
   20c68:	2100      	movs	r1, #0
   20c6a:	460a      	mov	r2, r1
   20c6c:	460b      	mov	r3, r1
   20c6e:	df03      	svc	3
   20c70:	e004      	b.n	20c7c <_ZN20complex_dynamic_type3app17h19bb8febb8a885deE+0x110>
   20c72:	4811      	ldr	r0, [pc, #68]	@ (20cb8 <_ZN20complex_dynamic_type3app17h19bb8febb8a885deE+0x14c>)
   20c74:	2100      	movs	r1, #0
   20c76:	460a      	mov	r2, r1
   20c78:	460b      	mov	r3, r1
   20c7a:	df04      	svc	4
   20c7c:	a804      	add	r0, sp, #16
   20c7e:	7804      	ldrb	r4, [r0, #0]
   20c80:	1c68      	adds	r0, r5, #1
   20c82:	2227      	movs	r2, #39	@ 0x27
   20c84:	9901      	ldr	r1, [sp, #4]
   20c86:	f00a fa41 	bl	2b10c <__aeabi_memcpy>
   20c8a:	702e      	strb	r6, [r5, #0]
   20c8c:	2c02      	cmp	r4, #2
   20c8e:	d006      	beq.n	20c9e <_ZN20complex_dynamic_type3app17h19bb8febb8a885deE+0x132>
   20c90:	4809      	ldr	r0, [pc, #36]	@ (20cb8 <_ZN20complex_dynamic_type3app17h19bb8febb8a885deE+0x14c>)
   20c92:	2107      	movs	r1, #7
   20c94:	2200      	movs	r2, #0
   20c96:	4613      	mov	r3, r2
   20c98:	2c04      	cmp	r4, #4
   20c9a:	d10a      	bne.n	20cb2 <_ZN20complex_dynamic_type3app17h19bb8febb8a885deE+0x146>
   20c9c:	df04      	svc	4
   20c9e:	b027      	add	sp, #156	@ 0x9c
   20ca0:	bdf0      	pop	{r4, r5, r6, r7, pc}
   20ca2:	1c68      	adds	r0, r5, #1
   20ca4:	2227      	movs	r2, #39	@ 0x27
   20ca6:	4621      	mov	r1, r4
   20ca8:	f00a fa30 	bl	2b10c <__aeabi_memcpy>
   20cac:	702e      	strb	r6, [r5, #0]
   20cae:	b027      	add	sp, #156	@ 0x9c
   20cb0:	bdf0      	pop	{r4, r5, r6, r7, pc}
   20cb2:	df03      	svc	3
   20cb4:	b027      	add	sp, #156	@ 0x9c
   20cb6:	bdf0      	pop	{r4, r5, r6, r7, pc}
   20cb8:	00001e54 	.word	0x00001e54

00020cbc <_ZN20complex_dynamic_type3app17h1a7b325bb3cefd4aE>:
   20cbc:	b5f0      	push	{r4, r5, r6, r7, lr}
   20cbe:	af03      	add	r7, sp, #12
   20cc0:	b09d      	sub	sp, #116	@ 0x74
   20cc2:	9003      	str	r0, [sp, #12]
   20cc4:	a804      	add	r0, sp, #16
   20cc6:	2602      	movs	r6, #2
   20cc8:	7006      	strb	r6, [r0, #0]
   20cca:	1c40      	adds	r0, r0, #1
   20ccc:	9002      	str	r0, [sp, #8]
   20cce:	2538      	movs	r5, #56	@ 0x38
   20cd0:	462a      	mov	r2, r5
   20cd2:	f00a fa1b 	bl	2b10c <__aeabi_memcpy>
   20cd6:	ac13      	add	r4, sp, #76	@ 0x4c
   20cd8:	1c60      	adds	r0, r4, #1
   20cda:	2127      	movs	r1, #39	@ 0x27
   20cdc:	9001      	str	r0, [sp, #4]
   20cde:	f00a f855 	bl	2ad8c <__aeabi_memclr>
   20ce2:	7026      	strb	r6, [r4, #0]
   20ce4:	484a      	ldr	r0, [pc, #296]	@ (20e10 <_ZN20complex_dynamic_type3app17h1a7b325bb3cefd4aE+0x154>)
   20ce6:	4631      	mov	r1, r6
   20ce8:	9a02      	ldr	r2, [sp, #8]
   20cea:	462b      	mov	r3, r5
   20cec:	df04      	svc	4
   20cee:	2802      	cmp	r0, #2
   20cf0:	d104      	bne.n	20cfc <_ZN20complex_dynamic_type3app17h1a7b325bb3cefd4aE+0x40>
   20cf2:	2001      	movs	r0, #1
   20cf4:	9a03      	ldr	r2, [sp, #12]
   20cf6:	7010      	strb	r0, [r2, #0]
   20cf8:	6051      	str	r1, [r2, #4]
   20cfa:	e02e      	b.n	20d5a <_ZN20complex_dynamic_type3app17h1a7b325bb3cefd4aE+0x9e>
   20cfc:	9d03      	ldr	r5, [sp, #12]
   20cfe:	a804      	add	r0, sp, #16
   20d00:	2104      	movs	r1, #4
   20d02:	7001      	strb	r1, [r0, #0]
   20d04:	4842      	ldr	r0, [pc, #264]	@ (20e10 <_ZN20complex_dynamic_type3app17h1a7b325bb3cefd4aE+0x154>)
   20d06:	2108      	movs	r1, #8
   20d08:	2327      	movs	r3, #39	@ 0x27
   20d0a:	9c01      	ldr	r4, [sp, #4]
   20d0c:	4622      	mov	r2, r4
   20d0e:	df03      	svc	3
   20d10:	2802      	cmp	r0, #2
   20d12:	d10e      	bne.n	20d32 <_ZN20complex_dynamic_type3app17h1a7b325bb3cefd4aE+0x76>
   20d14:	2001      	movs	r0, #1
   20d16:	7028      	strb	r0, [r5, #0]
   20d18:	6069      	str	r1, [r5, #4]
   20d1a:	a813      	add	r0, sp, #76	@ 0x4c
   20d1c:	7800      	ldrb	r0, [r0, #0]
   20d1e:	2802      	cmp	r0, #2
   20d20:	d01b      	beq.n	20d5a <_ZN20complex_dynamic_type3app17h1a7b325bb3cefd4aE+0x9e>
   20d22:	2803      	cmp	r0, #3
   20d24:	d014      	beq.n	20d50 <_ZN20complex_dynamic_type3app17h1a7b325bb3cefd4aE+0x94>
   20d26:	483a      	ldr	r0, [pc, #232]	@ (20e10 <_ZN20complex_dynamic_type3app17h1a7b325bb3cefd4aE+0x154>)
   20d28:	2108      	movs	r1, #8
   20d2a:	2200      	movs	r2, #0
   20d2c:	4613      	mov	r3, r2
   20d2e:	df04      	svc	4
   20d30:	e013      	b.n	20d5a <_ZN20complex_dynamic_type3app17h1a7b325bb3cefd4aE+0x9e>
   20d32:	a813      	add	r0, sp, #76	@ 0x4c
   20d34:	2103      	movs	r1, #3
   20d36:	7001      	strb	r1, [r0, #0]
   20d38:	4835      	ldr	r0, [pc, #212]	@ (20e10 <_ZN20complex_dynamic_type3app17h1a7b325bb3cefd4aE+0x154>)
   20d3a:	2602      	movs	r6, #2
   20d3c:	2208      	movs	r2, #8
   20d3e:	2300      	movs	r3, #0
   20d40:	4631      	mov	r1, r6
   20d42:	9302      	str	r3, [sp, #8]
   20d44:	df02      	svc	2
   20d46:	2880      	cmp	r0, #128	@ 0x80
   20d48:	d21b      	bcs.n	20d82 <_ZN20complex_dynamic_type3app17h1a7b325bb3cefd4aE+0xc6>
   20d4a:	2001      	movs	r0, #1
   20d4c:	7028      	strb	r0, [r5, #0]
   20d4e:	6069      	str	r1, [r5, #4]
   20d50:	482f      	ldr	r0, [pc, #188]	@ (20e10 <_ZN20complex_dynamic_type3app17h1a7b325bb3cefd4aE+0x154>)
   20d52:	2108      	movs	r1, #8
   20d54:	2200      	movs	r2, #0
   20d56:	4613      	mov	r3, r2
   20d58:	df03      	svc	3
   20d5a:	a804      	add	r0, sp, #16
   20d5c:	7800      	ldrb	r0, [r0, #0]
   20d5e:	2802      	cmp	r0, #2
   20d60:	d047      	beq.n	20df2 <_ZN20complex_dynamic_type3app17h1a7b325bb3cefd4aE+0x136>
   20d62:	2804      	cmp	r0, #4
   20d64:	d106      	bne.n	20d74 <_ZN20complex_dynamic_type3app17h1a7b325bb3cefd4aE+0xb8>
   20d66:	482a      	ldr	r0, [pc, #168]	@ (20e10 <_ZN20complex_dynamic_type3app17h1a7b325bb3cefd4aE+0x154>)
   20d68:	2102      	movs	r1, #2
   20d6a:	2200      	movs	r2, #0
   20d6c:	4613      	mov	r3, r2
   20d6e:	df04      	svc	4
   20d70:	b01d      	add	sp, #116	@ 0x74
   20d72:	bdf0      	pop	{r4, r5, r6, r7, pc}
   20d74:	4826      	ldr	r0, [pc, #152]	@ (20e10 <_ZN20complex_dynamic_type3app17h1a7b325bb3cefd4aE+0x154>)
   20d76:	2102      	movs	r1, #2
   20d78:	2200      	movs	r2, #0
   20d7a:	4613      	mov	r3, r2
   20d7c:	df03      	svc	3
   20d7e:	b01d      	add	sp, #116	@ 0x74
   20d80:	bdf0      	pop	{r4, r5, r6, r7, pc}
   20d82:	a804      	add	r0, sp, #16
   20d84:	7800      	ldrb	r0, [r0, #0]
   20d86:	2802      	cmp	r0, #2
   20d88:	d00c      	beq.n	20da4 <_ZN20complex_dynamic_type3app17h1a7b325bb3cefd4aE+0xe8>
   20d8a:	2803      	cmp	r0, #3
   20d8c:	d105      	bne.n	20d9a <_ZN20complex_dynamic_type3app17h1a7b325bb3cefd4aE+0xde>
   20d8e:	4820      	ldr	r0, [pc, #128]	@ (20e10 <_ZN20complex_dynamic_type3app17h1a7b325bb3cefd4aE+0x154>)
   20d90:	2102      	movs	r1, #2
   20d92:	2200      	movs	r2, #0
   20d94:	4613      	mov	r3, r2
   20d96:	df03      	svc	3
   20d98:	e004      	b.n	20da4 <_ZN20complex_dynamic_type3app17h1a7b325bb3cefd4aE+0xe8>
   20d9a:	481d      	ldr	r0, [pc, #116]	@ (20e10 <_ZN20complex_dynamic_type3app17h1a7b325bb3cefd4aE+0x154>)
   20d9c:	2102      	movs	r1, #2
   20d9e:	2200      	movs	r2, #0
   20da0:	4613      	mov	r3, r2
   20da2:	df04      	svc	4
   20da4:	a804      	add	r0, sp, #16
   20da6:	7006      	strb	r6, [r0, #0]
   20da8:	a813      	add	r0, sp, #76	@ 0x4c
   20daa:	7800      	ldrb	r0, [r0, #0]
   20dac:	2804      	cmp	r0, #4
   20dae:	d008      	beq.n	20dc2 <_ZN20complex_dynamic_type3app17h1a7b325bb3cefd4aE+0x106>
   20db0:	2803      	cmp	r0, #3
   20db2:	d120      	bne.n	20df6 <_ZN20complex_dynamic_type3app17h1a7b325bb3cefd4aE+0x13a>
   20db4:	4626      	mov	r6, r4
   20db6:	4816      	ldr	r0, [pc, #88]	@ (20e10 <_ZN20complex_dynamic_type3app17h1a7b325bb3cefd4aE+0x154>)
   20db8:	2108      	movs	r1, #8
   20dba:	2200      	movs	r2, #0
   20dbc:	4613      	mov	r3, r2
   20dbe:	df03      	svc	3
   20dc0:	e005      	b.n	20dce <_ZN20complex_dynamic_type3app17h1a7b325bb3cefd4aE+0x112>
   20dc2:	4626      	mov	r6, r4
   20dc4:	4812      	ldr	r0, [pc, #72]	@ (20e10 <_ZN20complex_dynamic_type3app17h1a7b325bb3cefd4aE+0x154>)
   20dc6:	2108      	movs	r1, #8
   20dc8:	2200      	movs	r2, #0
   20dca:	4613      	mov	r3, r2
   20dcc:	df04      	svc	4
   20dce:	a804      	add	r0, sp, #16
   20dd0:	7804      	ldrb	r4, [r0, #0]
   20dd2:	1c68      	adds	r0, r5, #1
   20dd4:	2227      	movs	r2, #39	@ 0x27
   20dd6:	4631      	mov	r1, r6
   20dd8:	f00a f998 	bl	2b10c <__aeabi_memcpy>
   20ddc:	9802      	ldr	r0, [sp, #8]
   20dde:	7028      	strb	r0, [r5, #0]
   20de0:	2c02      	cmp	r4, #2
   20de2:	d006      	beq.n	20df2 <_ZN20complex_dynamic_type3app17h1a7b325bb3cefd4aE+0x136>
   20de4:	480a      	ldr	r0, [pc, #40]	@ (20e10 <_ZN20complex_dynamic_type3app17h1a7b325bb3cefd4aE+0x154>)
   20de6:	2102      	movs	r1, #2
   20de8:	2200      	movs	r2, #0
   20dea:	4613      	mov	r3, r2
   20dec:	2c04      	cmp	r4, #4
   20dee:	d10b      	bne.n	20e08 <_ZN20complex_dynamic_type3app17h1a7b325bb3cefd4aE+0x14c>
   20df0:	df04      	svc	4
   20df2:	b01d      	add	sp, #116	@ 0x74
   20df4:	bdf0      	pop	{r4, r5, r6, r7, pc}
   20df6:	1c68      	adds	r0, r5, #1
   20df8:	2227      	movs	r2, #39	@ 0x27
   20dfa:	4621      	mov	r1, r4
   20dfc:	f00a f986 	bl	2b10c <__aeabi_memcpy>
   20e00:	9802      	ldr	r0, [sp, #8]
   20e02:	7028      	strb	r0, [r5, #0]
   20e04:	b01d      	add	sp, #116	@ 0x74
   20e06:	bdf0      	pop	{r4, r5, r6, r7, pc}
   20e08:	df03      	svc	3
   20e0a:	b01d      	add	sp, #116	@ 0x74
   20e0c:	bdf0      	pop	{r4, r5, r6, r7, pc}
   20e0e:	46c0      	nop			@ (mov r8, r8)
   20e10:	00000e2b 	.word	0x00000e2b

00020e14 <_ZN20complex_dynamic_type3app17h1b738517f8b98f40E>:
   20e14:	b5f0      	push	{r4, r5, r6, r7, lr}
   20e16:	af03      	add	r7, sp, #12
   20e18:	b0a7      	sub	sp, #156	@ 0x9c
   20e1a:	9004      	str	r0, [sp, #16]
   20e1c:	a805      	add	r0, sp, #20
   20e1e:	2402      	movs	r4, #2
   20e20:	7004      	strb	r4, [r0, #0]
   20e22:	1c46      	adds	r6, r0, #1
   20e24:	224f      	movs	r2, #79	@ 0x4f
   20e26:	9203      	str	r2, [sp, #12]
   20e28:	4630      	mov	r0, r6
   20e2a:	f00a f96f 	bl	2b10c <__aeabi_memcpy>
   20e2e:	ad19      	add	r5, sp, #100	@ 0x64
   20e30:	1c68      	adds	r0, r5, #1
   20e32:	2135      	movs	r1, #53	@ 0x35
   20e34:	9002      	str	r0, [sp, #8]
   20e36:	f009 ffa9 	bl	2ad8c <__aeabi_memclr>
   20e3a:	9401      	str	r4, [sp, #4]
   20e3c:	702c      	strb	r4, [r5, #0]
   20e3e:	4848      	ldr	r0, [pc, #288]	@ (20f60 <_ZN20complex_dynamic_type3app17h1b738517f8b98f40E+0x14c>)
   20e40:	2107      	movs	r1, #7
   20e42:	4632      	mov	r2, r6
   20e44:	9b03      	ldr	r3, [sp, #12]
   20e46:	df04      	svc	4
   20e48:	2802      	cmp	r0, #2
   20e4a:	d104      	bne.n	20e56 <_ZN20complex_dynamic_type3app17h1b738517f8b98f40E+0x42>
   20e4c:	2001      	movs	r0, #1
   20e4e:	9a04      	ldr	r2, [sp, #16]
   20e50:	7010      	strb	r0, [r2, #0]
   20e52:	6051      	str	r1, [r2, #4]
   20e54:	e02c      	b.n	20eb0 <_ZN20complex_dynamic_type3app17h1b738517f8b98f40E+0x9c>
   20e56:	9d04      	ldr	r5, [sp, #16]
   20e58:	a805      	add	r0, sp, #20
   20e5a:	2104      	movs	r1, #4
   20e5c:	7001      	strb	r1, [r0, #0]
   20e5e:	4840      	ldr	r0, [pc, #256]	@ (20f60 <_ZN20complex_dynamic_type3app17h1b738517f8b98f40E+0x14c>)
   20e60:	2401      	movs	r4, #1
   20e62:	2335      	movs	r3, #53	@ 0x35
   20e64:	4621      	mov	r1, r4
   20e66:	9a02      	ldr	r2, [sp, #8]
   20e68:	df03      	svc	3
   20e6a:	2802      	cmp	r0, #2
   20e6c:	d10d      	bne.n	20e8a <_ZN20complex_dynamic_type3app17h1b738517f8b98f40E+0x76>
   20e6e:	702c      	strb	r4, [r5, #0]
   20e70:	6069      	str	r1, [r5, #4]
   20e72:	a819      	add	r0, sp, #100	@ 0x64
   20e74:	7800      	ldrb	r0, [r0, #0]
   20e76:	2802      	cmp	r0, #2
   20e78:	d01a      	beq.n	20eb0 <_ZN20complex_dynamic_type3app17h1b738517f8b98f40E+0x9c>
   20e7a:	2803      	cmp	r0, #3
   20e7c:	d013      	beq.n	20ea6 <_ZN20complex_dynamic_type3app17h1b738517f8b98f40E+0x92>
   20e7e:	4838      	ldr	r0, [pc, #224]	@ (20f60 <_ZN20complex_dynamic_type3app17h1b738517f8b98f40E+0x14c>)
   20e80:	2101      	movs	r1, #1
   20e82:	2200      	movs	r2, #0
   20e84:	4613      	mov	r3, r2
   20e86:	df04      	svc	4
   20e88:	e012      	b.n	20eb0 <_ZN20complex_dynamic_type3app17h1b738517f8b98f40E+0x9c>
   20e8a:	a819      	add	r0, sp, #100	@ 0x64
   20e8c:	2103      	movs	r1, #3
   20e8e:	7001      	strb	r1, [r0, #0]
   20e90:	4833      	ldr	r0, [pc, #204]	@ (20f60 <_ZN20complex_dynamic_type3app17h1b738517f8b98f40E+0x14c>)
   20e92:	2107      	movs	r1, #7
   20e94:	2401      	movs	r4, #1
   20e96:	2600      	movs	r6, #0
   20e98:	4622      	mov	r2, r4
   20e9a:	4633      	mov	r3, r6
   20e9c:	df02      	svc	2
   20e9e:	2880      	cmp	r0, #128	@ 0x80
   20ea0:	d21a      	bcs.n	20ed8 <_ZN20complex_dynamic_type3app17h1b738517f8b98f40E+0xc4>
   20ea2:	702c      	strb	r4, [r5, #0]
   20ea4:	6069      	str	r1, [r5, #4]
   20ea6:	482e      	ldr	r0, [pc, #184]	@ (20f60 <_ZN20complex_dynamic_type3app17h1b738517f8b98f40E+0x14c>)
   20ea8:	2101      	movs	r1, #1
   20eaa:	2200      	movs	r2, #0
   20eac:	4613      	mov	r3, r2
   20eae:	df03      	svc	3
   20eb0:	a805      	add	r0, sp, #20
   20eb2:	7800      	ldrb	r0, [r0, #0]
   20eb4:	2802      	cmp	r0, #2
   20eb6:	d045      	beq.n	20f44 <_ZN20complex_dynamic_type3app17h1b738517f8b98f40E+0x130>
   20eb8:	2804      	cmp	r0, #4
   20eba:	d106      	bne.n	20eca <_ZN20complex_dynamic_type3app17h1b738517f8b98f40E+0xb6>
   20ebc:	4828      	ldr	r0, [pc, #160]	@ (20f60 <_ZN20complex_dynamic_type3app17h1b738517f8b98f40E+0x14c>)
   20ebe:	2107      	movs	r1, #7
   20ec0:	2200      	movs	r2, #0
   20ec2:	4613      	mov	r3, r2
   20ec4:	df04      	svc	4
   20ec6:	b027      	add	sp, #156	@ 0x9c
   20ec8:	bdf0      	pop	{r4, r5, r6, r7, pc}
   20eca:	4825      	ldr	r0, [pc, #148]	@ (20f60 <_ZN20complex_dynamic_type3app17h1b738517f8b98f40E+0x14c>)
   20ecc:	2107      	movs	r1, #7
   20ece:	2200      	movs	r2, #0
   20ed0:	4613      	mov	r3, r2
   20ed2:	df03      	svc	3
   20ed4:	b027      	add	sp, #156	@ 0x9c
   20ed6:	bdf0      	pop	{r4, r5, r6, r7, pc}
   20ed8:	a805      	add	r0, sp, #20
   20eda:	7800      	ldrb	r0, [r0, #0]
   20edc:	2802      	cmp	r0, #2
   20ede:	d00c      	beq.n	20efa <_ZN20complex_dynamic_type3app17h1b738517f8b98f40E+0xe6>
   20ee0:	2803      	cmp	r0, #3
   20ee2:	d105      	bne.n	20ef0 <_ZN20complex_dynamic_type3app17h1b738517f8b98f40E+0xdc>
   20ee4:	481e      	ldr	r0, [pc, #120]	@ (20f60 <_ZN20complex_dynamic_type3app17h1b738517f8b98f40E+0x14c>)
   20ee6:	2107      	movs	r1, #7
   20ee8:	2200      	movs	r2, #0
   20eea:	4613      	mov	r3, r2
   20eec:	df03      	svc	3
   20eee:	e004      	b.n	20efa <_ZN20complex_dynamic_type3app17h1b738517f8b98f40E+0xe6>
   20ef0:	481b      	ldr	r0, [pc, #108]	@ (20f60 <_ZN20complex_dynamic_type3app17h1b738517f8b98f40E+0x14c>)
   20ef2:	2107      	movs	r1, #7
   20ef4:	2200      	movs	r2, #0
   20ef6:	4613      	mov	r3, r2
   20ef8:	df04      	svc	4
   20efa:	a805      	add	r0, sp, #20
   20efc:	9901      	ldr	r1, [sp, #4]
   20efe:	7001      	strb	r1, [r0, #0]
   20f00:	a819      	add	r0, sp, #100	@ 0x64
   20f02:	7800      	ldrb	r0, [r0, #0]
   20f04:	2804      	cmp	r0, #4
   20f06:	d007      	beq.n	20f18 <_ZN20complex_dynamic_type3app17h1b738517f8b98f40E+0x104>
   20f08:	2803      	cmp	r0, #3
   20f0a:	d11d      	bne.n	20f48 <_ZN20complex_dynamic_type3app17h1b738517f8b98f40E+0x134>
   20f0c:	4814      	ldr	r0, [pc, #80]	@ (20f60 <_ZN20complex_dynamic_type3app17h1b738517f8b98f40E+0x14c>)
   20f0e:	2101      	movs	r1, #1
   20f10:	2200      	movs	r2, #0
   20f12:	4613      	mov	r3, r2
   20f14:	df03      	svc	3
   20f16:	e004      	b.n	20f22 <_ZN20complex_dynamic_type3app17h1b738517f8b98f40E+0x10e>
   20f18:	4811      	ldr	r0, [pc, #68]	@ (20f60 <_ZN20complex_dynamic_type3app17h1b738517f8b98f40E+0x14c>)
   20f1a:	2101      	movs	r1, #1
   20f1c:	2200      	movs	r2, #0
   20f1e:	4613      	mov	r3, r2
   20f20:	df04      	svc	4
   20f22:	a805      	add	r0, sp, #20
   20f24:	7804      	ldrb	r4, [r0, #0]
   20f26:	1c68      	adds	r0, r5, #1
   20f28:	2235      	movs	r2, #53	@ 0x35
   20f2a:	9902      	ldr	r1, [sp, #8]
   20f2c:	f00a f8ee 	bl	2b10c <__aeabi_memcpy>
   20f30:	702e      	strb	r6, [r5, #0]
   20f32:	2c02      	cmp	r4, #2
   20f34:	d006      	beq.n	20f44 <_ZN20complex_dynamic_type3app17h1b738517f8b98f40E+0x130>
   20f36:	480a      	ldr	r0, [pc, #40]	@ (20f60 <_ZN20complex_dynamic_type3app17h1b738517f8b98f40E+0x14c>)
   20f38:	2107      	movs	r1, #7
   20f3a:	2200      	movs	r2, #0
   20f3c:	4613      	mov	r3, r2
   20f3e:	2c04      	cmp	r4, #4
   20f40:	d10a      	bne.n	20f58 <_ZN20complex_dynamic_type3app17h1b738517f8b98f40E+0x144>
   20f42:	df04      	svc	4
   20f44:	b027      	add	sp, #156	@ 0x9c
   20f46:	bdf0      	pop	{r4, r5, r6, r7, pc}
   20f48:	1c68      	adds	r0, r5, #1
   20f4a:	2235      	movs	r2, #53	@ 0x35
   20f4c:	9902      	ldr	r1, [sp, #8]
   20f4e:	f00a f8dd 	bl	2b10c <__aeabi_memcpy>
   20f52:	702e      	strb	r6, [r5, #0]
   20f54:	b027      	add	sp, #156	@ 0x9c
   20f56:	bdf0      	pop	{r4, r5, r6, r7, pc}
   20f58:	df03      	svc	3
   20f5a:	b027      	add	sp, #156	@ 0x9c
   20f5c:	bdf0      	pop	{r4, r5, r6, r7, pc}
   20f5e:	46c0      	nop			@ (mov r8, r8)
   20f60:	000016d7 	.word	0x000016d7

00020f64 <_ZN20complex_dynamic_type3app17h1d5bb97204ecce4eE>:
   20f64:	b5f0      	push	{r4, r5, r6, r7, lr}
   20f66:	af03      	add	r7, sp, #12
   20f68:	b0a9      	sub	sp, #164	@ 0xa4
   20f6a:	9004      	str	r0, [sp, #16]
   20f6c:	a805      	add	r0, sp, #20
   20f6e:	2402      	movs	r4, #2
   20f70:	7004      	strb	r4, [r0, #0]
   20f72:	1c46      	adds	r6, r0, #1
   20f74:	224d      	movs	r2, #77	@ 0x4d
   20f76:	9203      	str	r2, [sp, #12]
   20f78:	4630      	mov	r0, r6
   20f7a:	f00a f8c7 	bl	2b10c <__aeabi_memcpy>
   20f7e:	ad19      	add	r5, sp, #100	@ 0x64
   20f80:	1c68      	adds	r0, r5, #1
   20f82:	213c      	movs	r1, #60	@ 0x3c
   20f84:	9002      	str	r0, [sp, #8]
   20f86:	f009 ff01 	bl	2ad8c <__aeabi_memclr>
   20f8a:	9401      	str	r4, [sp, #4]
   20f8c:	702c      	strb	r4, [r5, #0]
   20f8e:	4848      	ldr	r0, [pc, #288]	@ (210b0 <_ZN20complex_dynamic_type3app17h1d5bb97204ecce4eE+0x14c>)
   20f90:	2504      	movs	r5, #4
   20f92:	4629      	mov	r1, r5
   20f94:	4632      	mov	r2, r6
   20f96:	9b03      	ldr	r3, [sp, #12]
   20f98:	df04      	svc	4
   20f9a:	2802      	cmp	r0, #2
   20f9c:	d104      	bne.n	20fa8 <_ZN20complex_dynamic_type3app17h1d5bb97204ecce4eE+0x44>
   20f9e:	2001      	movs	r0, #1
   20fa0:	9a04      	ldr	r2, [sp, #16]
   20fa2:	7010      	strb	r0, [r2, #0]
   20fa4:	6051      	str	r1, [r2, #4]
   20fa6:	e02c      	b.n	21002 <_ZN20complex_dynamic_type3app17h1d5bb97204ecce4eE+0x9e>
   20fa8:	9c04      	ldr	r4, [sp, #16]
   20faa:	a805      	add	r0, sp, #20
   20fac:	7005      	strb	r5, [r0, #0]
   20fae:	4840      	ldr	r0, [pc, #256]	@ (210b0 <_ZN20complex_dynamic_type3app17h1d5bb97204ecce4eE+0x14c>)
   20fb0:	2109      	movs	r1, #9
   20fb2:	233c      	movs	r3, #60	@ 0x3c
   20fb4:	9a02      	ldr	r2, [sp, #8]
   20fb6:	df03      	svc	3
   20fb8:	2802      	cmp	r0, #2
   20fba:	d10e      	bne.n	20fda <_ZN20complex_dynamic_type3app17h1d5bb97204ecce4eE+0x76>
   20fbc:	2001      	movs	r0, #1
   20fbe:	7020      	strb	r0, [r4, #0]
   20fc0:	6061      	str	r1, [r4, #4]
   20fc2:	a819      	add	r0, sp, #100	@ 0x64
   20fc4:	7800      	ldrb	r0, [r0, #0]
   20fc6:	2802      	cmp	r0, #2
   20fc8:	d01b      	beq.n	21002 <_ZN20complex_dynamic_type3app17h1d5bb97204ecce4eE+0x9e>
   20fca:	2803      	cmp	r0, #3
   20fcc:	d014      	beq.n	20ff8 <_ZN20complex_dynamic_type3app17h1d5bb97204ecce4eE+0x94>
   20fce:	4838      	ldr	r0, [pc, #224]	@ (210b0 <_ZN20complex_dynamic_type3app17h1d5bb97204ecce4eE+0x14c>)
   20fd0:	2109      	movs	r1, #9
   20fd2:	2200      	movs	r2, #0
   20fd4:	4613      	mov	r3, r2
   20fd6:	df04      	svc	4
   20fd8:	e013      	b.n	21002 <_ZN20complex_dynamic_type3app17h1d5bb97204ecce4eE+0x9e>
   20fda:	a819      	add	r0, sp, #100	@ 0x64
   20fdc:	2103      	movs	r1, #3
   20fde:	7001      	strb	r1, [r0, #0]
   20fe0:	4833      	ldr	r0, [pc, #204]	@ (210b0 <_ZN20complex_dynamic_type3app17h1d5bb97204ecce4eE+0x14c>)
   20fe2:	2104      	movs	r1, #4
   20fe4:	2209      	movs	r2, #9
   20fe6:	2600      	movs	r6, #0
   20fe8:	4633      	mov	r3, r6
   20fea:	df02      	svc	2
   20fec:	2880      	cmp	r0, #128	@ 0x80
   20fee:	4625      	mov	r5, r4
   20ff0:	d21b      	bcs.n	2102a <_ZN20complex_dynamic_type3app17h1d5bb97204ecce4eE+0xc6>
   20ff2:	2001      	movs	r0, #1
   20ff4:	7028      	strb	r0, [r5, #0]
   20ff6:	6069      	str	r1, [r5, #4]
   20ff8:	482d      	ldr	r0, [pc, #180]	@ (210b0 <_ZN20complex_dynamic_type3app17h1d5bb97204ecce4eE+0x14c>)
   20ffa:	2109      	movs	r1, #9
   20ffc:	2200      	movs	r2, #0
   20ffe:	4613      	mov	r3, r2
   21000:	df03      	svc	3
   21002:	a805      	add	r0, sp, #20
   21004:	7800      	ldrb	r0, [r0, #0]
   21006:	2802      	cmp	r0, #2
   21008:	d045      	beq.n	21096 <_ZN20complex_dynamic_type3app17h1d5bb97204ecce4eE+0x132>
   2100a:	2804      	cmp	r0, #4
   2100c:	d106      	bne.n	2101c <_ZN20complex_dynamic_type3app17h1d5bb97204ecce4eE+0xb8>
   2100e:	4828      	ldr	r0, [pc, #160]	@ (210b0 <_ZN20complex_dynamic_type3app17h1d5bb97204ecce4eE+0x14c>)
   21010:	2104      	movs	r1, #4
   21012:	2200      	movs	r2, #0
   21014:	4613      	mov	r3, r2
   21016:	df04      	svc	4
   21018:	b029      	add	sp, #164	@ 0xa4
   2101a:	bdf0      	pop	{r4, r5, r6, r7, pc}
   2101c:	4824      	ldr	r0, [pc, #144]	@ (210b0 <_ZN20complex_dynamic_type3app17h1d5bb97204ecce4eE+0x14c>)
   2101e:	2104      	movs	r1, #4
   21020:	2200      	movs	r2, #0
   21022:	4613      	mov	r3, r2
   21024:	df03      	svc	3
   21026:	b029      	add	sp, #164	@ 0xa4
   21028:	bdf0      	pop	{r4, r5, r6, r7, pc}
   2102a:	a805      	add	r0, sp, #20
   2102c:	7800      	ldrb	r0, [r0, #0]
   2102e:	2802      	cmp	r0, #2
   21030:	d00c      	beq.n	2104c <_ZN20complex_dynamic_type3app17h1d5bb97204ecce4eE+0xe8>
   21032:	2803      	cmp	r0, #3
   21034:	d105      	bne.n	21042 <_ZN20complex_dynamic_type3app17h1d5bb97204ecce4eE+0xde>
   21036:	481e      	ldr	r0, [pc, #120]	@ (210b0 <_ZN20complex_dynamic_type3app17h1d5bb97204ecce4eE+0x14c>)
   21038:	2104      	movs	r1, #4
   2103a:	2200      	movs	r2, #0
   2103c:	4613      	mov	r3, r2
   2103e:	df03      	svc	3
   21040:	e004      	b.n	2104c <_ZN20complex_dynamic_type3app17h1d5bb97204ecce4eE+0xe8>
   21042:	481b      	ldr	r0, [pc, #108]	@ (210b0 <_ZN20complex_dynamic_type3app17h1d5bb97204ecce4eE+0x14c>)
   21044:	2104      	movs	r1, #4
   21046:	2200      	movs	r2, #0
   21048:	4613      	mov	r3, r2
   2104a:	df04      	svc	4
   2104c:	a805      	add	r0, sp, #20
   2104e:	9901      	ldr	r1, [sp, #4]
   21050:	7001      	strb	r1, [r0, #0]
   21052:	a819      	add	r0, sp, #100	@ 0x64
   21054:	7800      	ldrb	r0, [r0, #0]
   21056:	2804      	cmp	r0, #4
   21058:	d007      	beq.n	2106a <_ZN20complex_dynamic_type3app17h1d5bb97204ecce4eE+0x106>
   2105a:	2803      	cmp	r0, #3
   2105c:	d11d      	bne.n	2109a <_ZN20complex_dynamic_type3app17h1d5bb97204ecce4eE+0x136>
   2105e:	4814      	ldr	r0, [pc, #80]	@ (210b0 <_ZN20complex_dynamic_type3app17h1d5bb97204ecce4eE+0x14c>)
   21060:	2109      	movs	r1, #9
   21062:	2200      	movs	r2, #0
   21064:	4613      	mov	r3, r2
   21066:	df03      	svc	3
   21068:	e004      	b.n	21074 <_ZN20complex_dynamic_type3app17h1d5bb97204ecce4eE+0x110>
   2106a:	4811      	ldr	r0, [pc, #68]	@ (210b0 <_ZN20complex_dynamic_type3app17h1d5bb97204ecce4eE+0x14c>)
   2106c:	2109      	movs	r1, #9
   2106e:	2200      	movs	r2, #0
   21070:	4613      	mov	r3, r2
   21072:	df04      	svc	4
   21074:	a805      	add	r0, sp, #20
   21076:	7804      	ldrb	r4, [r0, #0]
   21078:	1c68      	adds	r0, r5, #1
   2107a:	223c      	movs	r2, #60	@ 0x3c
   2107c:	9902      	ldr	r1, [sp, #8]
   2107e:	f00a f845 	bl	2b10c <__aeabi_memcpy>
   21082:	702e      	strb	r6, [r5, #0]
   21084:	2c02      	cmp	r4, #2
   21086:	d006      	beq.n	21096 <_ZN20complex_dynamic_type3app17h1d5bb97204ecce4eE+0x132>
   21088:	4809      	ldr	r0, [pc, #36]	@ (210b0 <_ZN20complex_dynamic_type3app17h1d5bb97204ecce4eE+0x14c>)
   2108a:	2104      	movs	r1, #4
   2108c:	2200      	movs	r2, #0
   2108e:	4613      	mov	r3, r2
   21090:	2c04      	cmp	r4, #4
   21092:	d10a      	bne.n	210aa <_ZN20complex_dynamic_type3app17h1d5bb97204ecce4eE+0x146>
   21094:	df04      	svc	4
   21096:	b029      	add	sp, #164	@ 0xa4
   21098:	bdf0      	pop	{r4, r5, r6, r7, pc}
   2109a:	1c68      	adds	r0, r5, #1
   2109c:	223c      	movs	r2, #60	@ 0x3c
   2109e:	9902      	ldr	r1, [sp, #8]
   210a0:	f00a f834 	bl	2b10c <__aeabi_memcpy>
   210a4:	702e      	strb	r6, [r5, #0]
   210a6:	b029      	add	sp, #164	@ 0xa4
   210a8:	bdf0      	pop	{r4, r5, r6, r7, pc}
   210aa:	df03      	svc	3
   210ac:	b029      	add	sp, #164	@ 0xa4
   210ae:	bdf0      	pop	{r4, r5, r6, r7, pc}
   210b0:	000021ab 	.word	0x000021ab

000210b4 <_ZN20complex_dynamic_type3app17h1dc62e1d0211039fE>:
   210b4:	b5f0      	push	{r4, r5, r6, r7, lr}
   210b6:	af03      	add	r7, sp, #12
   210b8:	b0a9      	sub	sp, #164	@ 0xa4
   210ba:	9004      	str	r0, [sp, #16]
   210bc:	a805      	add	r0, sp, #20
   210be:	2402      	movs	r4, #2
   210c0:	7004      	strb	r4, [r0, #0]
   210c2:	1c46      	adds	r6, r0, #1
   210c4:	2253      	movs	r2, #83	@ 0x53
   210c6:	9203      	str	r2, [sp, #12]
   210c8:	4630      	mov	r0, r6
   210ca:	f00a f81f 	bl	2b10c <__aeabi_memcpy>
   210ce:	ad1a      	add	r5, sp, #104	@ 0x68
   210d0:	1c68      	adds	r0, r5, #1
   210d2:	213a      	movs	r1, #58	@ 0x3a
   210d4:	9002      	str	r0, [sp, #8]
   210d6:	f009 fe59 	bl	2ad8c <__aeabi_memclr>
   210da:	9401      	str	r4, [sp, #4]
   210dc:	702c      	strb	r4, [r5, #0]
   210de:	4848      	ldr	r0, [pc, #288]	@ (21200 <_ZN20complex_dynamic_type3app17h1dc62e1d0211039fE+0x14c>)
   210e0:	2106      	movs	r1, #6
   210e2:	4632      	mov	r2, r6
   210e4:	9b03      	ldr	r3, [sp, #12]
   210e6:	df04      	svc	4
   210e8:	2802      	cmp	r0, #2
   210ea:	d104      	bne.n	210f6 <_ZN20complex_dynamic_type3app17h1dc62e1d0211039fE+0x42>
   210ec:	2001      	movs	r0, #1
   210ee:	9a04      	ldr	r2, [sp, #16]
   210f0:	7010      	strb	r0, [r2, #0]
   210f2:	6051      	str	r1, [r2, #4]
   210f4:	e02d      	b.n	21152 <_ZN20complex_dynamic_type3app17h1dc62e1d0211039fE+0x9e>
   210f6:	9d04      	ldr	r5, [sp, #16]
   210f8:	a805      	add	r0, sp, #20
   210fa:	2104      	movs	r1, #4
   210fc:	7001      	strb	r1, [r0, #0]
   210fe:	4840      	ldr	r0, [pc, #256]	@ (21200 <_ZN20complex_dynamic_type3app17h1dc62e1d0211039fE+0x14c>)
   21100:	2107      	movs	r1, #7
   21102:	233a      	movs	r3, #58	@ 0x3a
   21104:	9c02      	ldr	r4, [sp, #8]
   21106:	4622      	mov	r2, r4
   21108:	df03      	svc	3
   2110a:	2802      	cmp	r0, #2
   2110c:	d10e      	bne.n	2112c <_ZN20complex_dynamic_type3app17h1dc62e1d0211039fE+0x78>
   2110e:	2001      	movs	r0, #1
   21110:	7028      	strb	r0, [r5, #0]
   21112:	6069      	str	r1, [r5, #4]
   21114:	a81a      	add	r0, sp, #104	@ 0x68
   21116:	7800      	ldrb	r0, [r0, #0]
   21118:	2802      	cmp	r0, #2
   2111a:	d01a      	beq.n	21152 <_ZN20complex_dynamic_type3app17h1dc62e1d0211039fE+0x9e>
   2111c:	2803      	cmp	r0, #3
   2111e:	d013      	beq.n	21148 <_ZN20complex_dynamic_type3app17h1dc62e1d0211039fE+0x94>
   21120:	4837      	ldr	r0, [pc, #220]	@ (21200 <_ZN20complex_dynamic_type3app17h1dc62e1d0211039fE+0x14c>)
   21122:	2107      	movs	r1, #7
   21124:	2200      	movs	r2, #0
   21126:	4613      	mov	r3, r2
   21128:	df04      	svc	4
   2112a:	e012      	b.n	21152 <_ZN20complex_dynamic_type3app17h1dc62e1d0211039fE+0x9e>
   2112c:	a81a      	add	r0, sp, #104	@ 0x68
   2112e:	2103      	movs	r1, #3
   21130:	7001      	strb	r1, [r0, #0]
   21132:	4833      	ldr	r0, [pc, #204]	@ (21200 <_ZN20complex_dynamic_type3app17h1dc62e1d0211039fE+0x14c>)
   21134:	2106      	movs	r1, #6
   21136:	2207      	movs	r2, #7
   21138:	2600      	movs	r6, #0
   2113a:	4633      	mov	r3, r6
   2113c:	df02      	svc	2
   2113e:	2880      	cmp	r0, #128	@ 0x80
   21140:	d21b      	bcs.n	2117a <_ZN20complex_dynamic_type3app17h1dc62e1d0211039fE+0xc6>
   21142:	2001      	movs	r0, #1
   21144:	7028      	strb	r0, [r5, #0]
   21146:	6069      	str	r1, [r5, #4]
   21148:	482d      	ldr	r0, [pc, #180]	@ (21200 <_ZN20complex_dynamic_type3app17h1dc62e1d0211039fE+0x14c>)
   2114a:	2107      	movs	r1, #7
   2114c:	2200      	movs	r2, #0
   2114e:	4613      	mov	r3, r2
   21150:	df03      	svc	3
   21152:	a805      	add	r0, sp, #20
   21154:	7800      	ldrb	r0, [r0, #0]
   21156:	2802      	cmp	r0, #2
   21158:	d045      	beq.n	211e6 <_ZN20complex_dynamic_type3app17h1dc62e1d0211039fE+0x132>
   2115a:	2804      	cmp	r0, #4
   2115c:	d106      	bne.n	2116c <_ZN20complex_dynamic_type3app17h1dc62e1d0211039fE+0xb8>
   2115e:	4828      	ldr	r0, [pc, #160]	@ (21200 <_ZN20complex_dynamic_type3app17h1dc62e1d0211039fE+0x14c>)
   21160:	2106      	movs	r1, #6
   21162:	2200      	movs	r2, #0
   21164:	4613      	mov	r3, r2
   21166:	df04      	svc	4
   21168:	b029      	add	sp, #164	@ 0xa4
   2116a:	bdf0      	pop	{r4, r5, r6, r7, pc}
   2116c:	4824      	ldr	r0, [pc, #144]	@ (21200 <_ZN20complex_dynamic_type3app17h1dc62e1d0211039fE+0x14c>)
   2116e:	2106      	movs	r1, #6
   21170:	2200      	movs	r2, #0
   21172:	4613      	mov	r3, r2
   21174:	df03      	svc	3
   21176:	b029      	add	sp, #164	@ 0xa4
   21178:	bdf0      	pop	{r4, r5, r6, r7, pc}
   2117a:	a805      	add	r0, sp, #20
   2117c:	7800      	ldrb	r0, [r0, #0]
   2117e:	2802      	cmp	r0, #2
   21180:	d00c      	beq.n	2119c <_ZN20complex_dynamic_type3app17h1dc62e1d0211039fE+0xe8>
   21182:	2803      	cmp	r0, #3
   21184:	d105      	bne.n	21192 <_ZN20complex_dynamic_type3app17h1dc62e1d0211039fE+0xde>
   21186:	481e      	ldr	r0, [pc, #120]	@ (21200 <_ZN20complex_dynamic_type3app17h1dc62e1d0211039fE+0x14c>)
   21188:	2106      	movs	r1, #6
   2118a:	2200      	movs	r2, #0
   2118c:	4613      	mov	r3, r2
   2118e:	df03      	svc	3
   21190:	e004      	b.n	2119c <_ZN20complex_dynamic_type3app17h1dc62e1d0211039fE+0xe8>
   21192:	481b      	ldr	r0, [pc, #108]	@ (21200 <_ZN20complex_dynamic_type3app17h1dc62e1d0211039fE+0x14c>)
   21194:	2106      	movs	r1, #6
   21196:	2200      	movs	r2, #0
   21198:	4613      	mov	r3, r2
   2119a:	df04      	svc	4
   2119c:	a805      	add	r0, sp, #20
   2119e:	9901      	ldr	r1, [sp, #4]
   211a0:	7001      	strb	r1, [r0, #0]
   211a2:	a81a      	add	r0, sp, #104	@ 0x68
   211a4:	7800      	ldrb	r0, [r0, #0]
   211a6:	2804      	cmp	r0, #4
   211a8:	d007      	beq.n	211ba <_ZN20complex_dynamic_type3app17h1dc62e1d0211039fE+0x106>
   211aa:	2803      	cmp	r0, #3
   211ac:	d11d      	bne.n	211ea <_ZN20complex_dynamic_type3app17h1dc62e1d0211039fE+0x136>
   211ae:	4814      	ldr	r0, [pc, #80]	@ (21200 <_ZN20complex_dynamic_type3app17h1dc62e1d0211039fE+0x14c>)
   211b0:	2107      	movs	r1, #7
   211b2:	2200      	movs	r2, #0
   211b4:	4613      	mov	r3, r2
   211b6:	df03      	svc	3
   211b8:	e004      	b.n	211c4 <_ZN20complex_dynamic_type3app17h1dc62e1d0211039fE+0x110>
   211ba:	4811      	ldr	r0, [pc, #68]	@ (21200 <_ZN20complex_dynamic_type3app17h1dc62e1d0211039fE+0x14c>)
   211bc:	2107      	movs	r1, #7
   211be:	2200      	movs	r2, #0
   211c0:	4613      	mov	r3, r2
   211c2:	df04      	svc	4
   211c4:	a805      	add	r0, sp, #20
   211c6:	7804      	ldrb	r4, [r0, #0]
   211c8:	1c68      	adds	r0, r5, #1
   211ca:	223a      	movs	r2, #58	@ 0x3a
   211cc:	9902      	ldr	r1, [sp, #8]
   211ce:	f009 ff9d 	bl	2b10c <__aeabi_memcpy>
   211d2:	702e      	strb	r6, [r5, #0]
   211d4:	2c02      	cmp	r4, #2
   211d6:	d006      	beq.n	211e6 <_ZN20complex_dynamic_type3app17h1dc62e1d0211039fE+0x132>
   211d8:	4809      	ldr	r0, [pc, #36]	@ (21200 <_ZN20complex_dynamic_type3app17h1dc62e1d0211039fE+0x14c>)
   211da:	2106      	movs	r1, #6
   211dc:	2200      	movs	r2, #0
   211de:	4613      	mov	r3, r2
   211e0:	2c04      	cmp	r4, #4
   211e2:	d10a      	bne.n	211fa <_ZN20complex_dynamic_type3app17h1dc62e1d0211039fE+0x146>
   211e4:	df04      	svc	4
   211e6:	b029      	add	sp, #164	@ 0xa4
   211e8:	bdf0      	pop	{r4, r5, r6, r7, pc}
   211ea:	1c68      	adds	r0, r5, #1
   211ec:	223a      	movs	r2, #58	@ 0x3a
   211ee:	4621      	mov	r1, r4
   211f0:	f009 ff8c 	bl	2b10c <__aeabi_memcpy>
   211f4:	702e      	strb	r6, [r5, #0]
   211f6:	b029      	add	sp, #164	@ 0xa4
   211f8:	bdf0      	pop	{r4, r5, r6, r7, pc}
   211fa:	df03      	svc	3
   211fc:	b029      	add	sp, #164	@ 0xa4
   211fe:	bdf0      	pop	{r4, r5, r6, r7, pc}
   21200:	00002645 	.word	0x00002645

00021204 <_ZN20complex_dynamic_type3app17h27c74325977a6820E>:
   21204:	b5f0      	push	{r4, r5, r6, r7, lr}
   21206:	af03      	add	r7, sp, #12
   21208:	b097      	sub	sp, #92	@ 0x5c
   2120a:	9004      	str	r0, [sp, #16]
   2120c:	a805      	add	r0, sp, #20
   2120e:	2402      	movs	r4, #2
   21210:	7004      	strb	r4, [r0, #0]
   21212:	1c46      	adds	r6, r0, #1
   21214:	2229      	movs	r2, #41	@ 0x29
   21216:	9203      	str	r2, [sp, #12]
   21218:	4630      	mov	r0, r6
   2121a:	f009 ff77 	bl	2b10c <__aeabi_memcpy>
   2121e:	ad10      	add	r5, sp, #64	@ 0x40
   21220:	1c68      	adds	r0, r5, #1
   21222:	211a      	movs	r1, #26
   21224:	9002      	str	r0, [sp, #8]
   21226:	f009 fdb1 	bl	2ad8c <__aeabi_memclr>
   2122a:	9401      	str	r4, [sp, #4]
   2122c:	702c      	strb	r4, [r5, #0]
   2122e:	4848      	ldr	r0, [pc, #288]	@ (21350 <_ZN20complex_dynamic_type3app17h27c74325977a6820E+0x14c>)
   21230:	2105      	movs	r1, #5
   21232:	4632      	mov	r2, r6
   21234:	9b03      	ldr	r3, [sp, #12]
   21236:	df04      	svc	4
   21238:	2802      	cmp	r0, #2
   2123a:	d104      	bne.n	21246 <_ZN20complex_dynamic_type3app17h27c74325977a6820E+0x42>
   2123c:	2001      	movs	r0, #1
   2123e:	9a04      	ldr	r2, [sp, #16]
   21240:	7010      	strb	r0, [r2, #0]
   21242:	6051      	str	r1, [r2, #4]
   21244:	e02c      	b.n	212a0 <_ZN20complex_dynamic_type3app17h27c74325977a6820E+0x9c>
   21246:	9d04      	ldr	r5, [sp, #16]
   21248:	a805      	add	r0, sp, #20
   2124a:	2104      	movs	r1, #4
   2124c:	7001      	strb	r1, [r0, #0]
   2124e:	4840      	ldr	r0, [pc, #256]	@ (21350 <_ZN20complex_dynamic_type3app17h27c74325977a6820E+0x14c>)
   21250:	2403      	movs	r4, #3
   21252:	231a      	movs	r3, #26
   21254:	4621      	mov	r1, r4
   21256:	9a02      	ldr	r2, [sp, #8]
   21258:	df03      	svc	3
   2125a:	2802      	cmp	r0, #2
   2125c:	d10e      	bne.n	2127c <_ZN20complex_dynamic_type3app17h27c74325977a6820E+0x78>
   2125e:	2001      	movs	r0, #1
   21260:	7028      	strb	r0, [r5, #0]
   21262:	6069      	str	r1, [r5, #4]
   21264:	a810      	add	r0, sp, #64	@ 0x40
   21266:	7800      	ldrb	r0, [r0, #0]
   21268:	2802      	cmp	r0, #2
   2126a:	d019      	beq.n	212a0 <_ZN20complex_dynamic_type3app17h27c74325977a6820E+0x9c>
   2126c:	2803      	cmp	r0, #3
   2126e:	d012      	beq.n	21296 <_ZN20complex_dynamic_type3app17h27c74325977a6820E+0x92>
   21270:	4837      	ldr	r0, [pc, #220]	@ (21350 <_ZN20complex_dynamic_type3app17h27c74325977a6820E+0x14c>)
   21272:	2103      	movs	r1, #3
   21274:	2200      	movs	r2, #0
   21276:	4613      	mov	r3, r2
   21278:	df04      	svc	4
   2127a:	e011      	b.n	212a0 <_ZN20complex_dynamic_type3app17h27c74325977a6820E+0x9c>
   2127c:	a810      	add	r0, sp, #64	@ 0x40
   2127e:	7004      	strb	r4, [r0, #0]
   21280:	4833      	ldr	r0, [pc, #204]	@ (21350 <_ZN20complex_dynamic_type3app17h27c74325977a6820E+0x14c>)
   21282:	2105      	movs	r1, #5
   21284:	2600      	movs	r6, #0
   21286:	4622      	mov	r2, r4
   21288:	4633      	mov	r3, r6
   2128a:	df02      	svc	2
   2128c:	2880      	cmp	r0, #128	@ 0x80
   2128e:	d21b      	bcs.n	212c8 <_ZN20complex_dynamic_type3app17h27c74325977a6820E+0xc4>
   21290:	2001      	movs	r0, #1
   21292:	7028      	strb	r0, [r5, #0]
   21294:	6069      	str	r1, [r5, #4]
   21296:	482e      	ldr	r0, [pc, #184]	@ (21350 <_ZN20complex_dynamic_type3app17h27c74325977a6820E+0x14c>)
   21298:	2103      	movs	r1, #3
   2129a:	2200      	movs	r2, #0
   2129c:	4613      	mov	r3, r2
   2129e:	df03      	svc	3
   212a0:	a805      	add	r0, sp, #20
   212a2:	7800      	ldrb	r0, [r0, #0]
   212a4:	2802      	cmp	r0, #2
   212a6:	d045      	beq.n	21334 <_ZN20complex_dynamic_type3app17h27c74325977a6820E+0x130>
   212a8:	2804      	cmp	r0, #4
   212aa:	d106      	bne.n	212ba <_ZN20complex_dynamic_type3app17h27c74325977a6820E+0xb6>
   212ac:	4828      	ldr	r0, [pc, #160]	@ (21350 <_ZN20complex_dynamic_type3app17h27c74325977a6820E+0x14c>)
   212ae:	2105      	movs	r1, #5
   212b0:	2200      	movs	r2, #0
   212b2:	4613      	mov	r3, r2
   212b4:	df04      	svc	4
   212b6:	b017      	add	sp, #92	@ 0x5c
   212b8:	bdf0      	pop	{r4, r5, r6, r7, pc}
   212ba:	4825      	ldr	r0, [pc, #148]	@ (21350 <_ZN20complex_dynamic_type3app17h27c74325977a6820E+0x14c>)
   212bc:	2105      	movs	r1, #5
   212be:	2200      	movs	r2, #0
   212c0:	4613      	mov	r3, r2
   212c2:	df03      	svc	3
   212c4:	b017      	add	sp, #92	@ 0x5c
   212c6:	bdf0      	pop	{r4, r5, r6, r7, pc}
   212c8:	a805      	add	r0, sp, #20
   212ca:	7800      	ldrb	r0, [r0, #0]
   212cc:	2802      	cmp	r0, #2
   212ce:	d00c      	beq.n	212ea <_ZN20complex_dynamic_type3app17h27c74325977a6820E+0xe6>
   212d0:	2803      	cmp	r0, #3
   212d2:	d105      	bne.n	212e0 <_ZN20complex_dynamic_type3app17h27c74325977a6820E+0xdc>
   212d4:	481e      	ldr	r0, [pc, #120]	@ (21350 <_ZN20complex_dynamic_type3app17h27c74325977a6820E+0x14c>)
   212d6:	2105      	movs	r1, #5
   212d8:	2200      	movs	r2, #0
   212da:	4613      	mov	r3, r2
   212dc:	df03      	svc	3
   212de:	e004      	b.n	212ea <_ZN20complex_dynamic_type3app17h27c74325977a6820E+0xe6>
   212e0:	481b      	ldr	r0, [pc, #108]	@ (21350 <_ZN20complex_dynamic_type3app17h27c74325977a6820E+0x14c>)
   212e2:	2105      	movs	r1, #5
   212e4:	2200      	movs	r2, #0
   212e6:	4613      	mov	r3, r2
   212e8:	df04      	svc	4
   212ea:	a805      	add	r0, sp, #20
   212ec:	9901      	ldr	r1, [sp, #4]
   212ee:	7001      	strb	r1, [r0, #0]
   212f0:	a810      	add	r0, sp, #64	@ 0x40
   212f2:	7800      	ldrb	r0, [r0, #0]
   212f4:	2804      	cmp	r0, #4
   212f6:	d007      	beq.n	21308 <_ZN20complex_dynamic_type3app17h27c74325977a6820E+0x104>
   212f8:	2803      	cmp	r0, #3
   212fa:	d11d      	bne.n	21338 <_ZN20complex_dynamic_type3app17h27c74325977a6820E+0x134>
   212fc:	4814      	ldr	r0, [pc, #80]	@ (21350 <_ZN20complex_dynamic_type3app17h27c74325977a6820E+0x14c>)
   212fe:	2103      	movs	r1, #3
   21300:	2200      	movs	r2, #0
   21302:	4613      	mov	r3, r2
   21304:	df03      	svc	3
   21306:	e004      	b.n	21312 <_ZN20complex_dynamic_type3app17h27c74325977a6820E+0x10e>
   21308:	4811      	ldr	r0, [pc, #68]	@ (21350 <_ZN20complex_dynamic_type3app17h27c74325977a6820E+0x14c>)
   2130a:	2103      	movs	r1, #3
   2130c:	2200      	movs	r2, #0
   2130e:	4613      	mov	r3, r2
   21310:	df04      	svc	4
   21312:	a805      	add	r0, sp, #20
   21314:	7804      	ldrb	r4, [r0, #0]
   21316:	1c68      	adds	r0, r5, #1
   21318:	221a      	movs	r2, #26
   2131a:	9902      	ldr	r1, [sp, #8]
   2131c:	f009 fef6 	bl	2b10c <__aeabi_memcpy>
   21320:	702e      	strb	r6, [r5, #0]
   21322:	2c02      	cmp	r4, #2
   21324:	d006      	beq.n	21334 <_ZN20complex_dynamic_type3app17h27c74325977a6820E+0x130>
   21326:	480a      	ldr	r0, [pc, #40]	@ (21350 <_ZN20complex_dynamic_type3app17h27c74325977a6820E+0x14c>)
   21328:	2105      	movs	r1, #5
   2132a:	2200      	movs	r2, #0
   2132c:	4613      	mov	r3, r2
   2132e:	2c04      	cmp	r4, #4
   21330:	d10a      	bne.n	21348 <_ZN20complex_dynamic_type3app17h27c74325977a6820E+0x144>
   21332:	df04      	svc	4
   21334:	b017      	add	sp, #92	@ 0x5c
   21336:	bdf0      	pop	{r4, r5, r6, r7, pc}
   21338:	1c68      	adds	r0, r5, #1
   2133a:	221a      	movs	r2, #26
   2133c:	9902      	ldr	r1, [sp, #8]
   2133e:	f009 fee5 	bl	2b10c <__aeabi_memcpy>
   21342:	702e      	strb	r6, [r5, #0]
   21344:	b017      	add	sp, #92	@ 0x5c
   21346:	bdf0      	pop	{r4, r5, r6, r7, pc}
   21348:	df03      	svc	3
   2134a:	b017      	add	sp, #92	@ 0x5c
   2134c:	bdf0      	pop	{r4, r5, r6, r7, pc}
   2134e:	46c0      	nop			@ (mov r8, r8)
   21350:	00002048 	.word	0x00002048

00021354 <_ZN20complex_dynamic_type3app17h30c3c9b6d99d3c35E>:
   21354:	b5f0      	push	{r4, r5, r6, r7, lr}
   21356:	af03      	add	r7, sp, #12
   21358:	b0b1      	sub	sp, #196	@ 0xc4
   2135a:	9003      	str	r0, [sp, #12]
   2135c:	a804      	add	r0, sp, #16
   2135e:	2502      	movs	r5, #2
   21360:	7005      	strb	r5, [r0, #0]
   21362:	1c46      	adds	r6, r0, #1
   21364:	224f      	movs	r2, #79	@ 0x4f
   21366:	9202      	str	r2, [sp, #8]
   21368:	4630      	mov	r0, r6
   2136a:	f009 fecf 	bl	2b10c <__aeabi_memcpy>
   2136e:	ac18      	add	r4, sp, #96	@ 0x60
   21370:	1c60      	adds	r0, r4, #1
   21372:	2161      	movs	r1, #97	@ 0x61
   21374:	9001      	str	r0, [sp, #4]
   21376:	f009 fd09 	bl	2ad8c <__aeabi_memclr>
   2137a:	7025      	strb	r5, [r4, #0]
   2137c:	20db      	movs	r0, #219	@ 0xdb
   2137e:	0044      	lsls	r4, r0, #1
   21380:	4620      	mov	r0, r4
   21382:	4629      	mov	r1, r5
   21384:	4632      	mov	r2, r6
   21386:	9b02      	ldr	r3, [sp, #8]
   21388:	df04      	svc	4
   2138a:	2802      	cmp	r0, #2
   2138c:	d104      	bne.n	21398 <_ZN20complex_dynamic_type3app17h30c3c9b6d99d3c35E+0x44>
   2138e:	2001      	movs	r0, #1
   21390:	9a03      	ldr	r2, [sp, #12]
   21392:	7010      	strb	r0, [r2, #0]
   21394:	6051      	str	r1, [r2, #4]
   21396:	e02e      	b.n	213f6 <_ZN20complex_dynamic_type3app17h30c3c9b6d99d3c35E+0xa2>
   21398:	9e03      	ldr	r6, [sp, #12]
   2139a:	a804      	add	r0, sp, #16
   2139c:	2104      	movs	r1, #4
   2139e:	7001      	strb	r1, [r0, #0]
   213a0:	2108      	movs	r1, #8
   213a2:	2361      	movs	r3, #97	@ 0x61
   213a4:	4620      	mov	r0, r4
   213a6:	9d01      	ldr	r5, [sp, #4]
   213a8:	462a      	mov	r2, r5
   213aa:	df03      	svc	3
   213ac:	2802      	cmp	r0, #2
   213ae:	d10e      	bne.n	213ce <_ZN20complex_dynamic_type3app17h30c3c9b6d99d3c35E+0x7a>
   213b0:	2001      	movs	r0, #1
   213b2:	7030      	strb	r0, [r6, #0]
   213b4:	6071      	str	r1, [r6, #4]
   213b6:	a818      	add	r0, sp, #96	@ 0x60
   213b8:	7800      	ldrb	r0, [r0, #0]
   213ba:	2802      	cmp	r0, #2
   213bc:	d01b      	beq.n	213f6 <_ZN20complex_dynamic_type3app17h30c3c9b6d99d3c35E+0xa2>
   213be:	2803      	cmp	r0, #3
   213c0:	d014      	beq.n	213ec <_ZN20complex_dynamic_type3app17h30c3c9b6d99d3c35E+0x98>
   213c2:	2108      	movs	r1, #8
   213c4:	2200      	movs	r2, #0
   213c6:	4620      	mov	r0, r4
   213c8:	4613      	mov	r3, r2
   213ca:	df04      	svc	4
   213cc:	e013      	b.n	213f6 <_ZN20complex_dynamic_type3app17h30c3c9b6d99d3c35E+0xa2>
   213ce:	a818      	add	r0, sp, #96	@ 0x60
   213d0:	2103      	movs	r1, #3
   213d2:	7001      	strb	r1, [r0, #0]
   213d4:	2102      	movs	r1, #2
   213d6:	2208      	movs	r2, #8
   213d8:	2300      	movs	r3, #0
   213da:	4620      	mov	r0, r4
   213dc:	9100      	str	r1, [sp, #0]
   213de:	9302      	str	r3, [sp, #8]
   213e0:	df02      	svc	2
   213e2:	2880      	cmp	r0, #128	@ 0x80
   213e4:	d219      	bcs.n	2141a <_ZN20complex_dynamic_type3app17h30c3c9b6d99d3c35E+0xc6>
   213e6:	2001      	movs	r0, #1
   213e8:	7030      	strb	r0, [r6, #0]
   213ea:	6071      	str	r1, [r6, #4]
   213ec:	2108      	movs	r1, #8
   213ee:	2200      	movs	r2, #0
   213f0:	4620      	mov	r0, r4
   213f2:	4613      	mov	r3, r2
   213f4:	df03      	svc	3
   213f6:	a804      	add	r0, sp, #16
   213f8:	7800      	ldrb	r0, [r0, #0]
   213fa:	2802      	cmp	r0, #2
   213fc:	d044      	beq.n	21488 <_ZN20complex_dynamic_type3app17h30c3c9b6d99d3c35E+0x134>
   213fe:	2102      	movs	r1, #2
   21400:	2200      	movs	r2, #0
   21402:	2804      	cmp	r0, #4
   21404:	d104      	bne.n	21410 <_ZN20complex_dynamic_type3app17h30c3c9b6d99d3c35E+0xbc>
   21406:	4620      	mov	r0, r4
   21408:	4613      	mov	r3, r2
   2140a:	df04      	svc	4
   2140c:	b031      	add	sp, #196	@ 0xc4
   2140e:	bdf0      	pop	{r4, r5, r6, r7, pc}
   21410:	4620      	mov	r0, r4
   21412:	4613      	mov	r3, r2
   21414:	df03      	svc	3
   21416:	b031      	add	sp, #196	@ 0xc4
   21418:	bdf0      	pop	{r4, r5, r6, r7, pc}
   2141a:	a804      	add	r0, sp, #16
   2141c:	7800      	ldrb	r0, [r0, #0]
   2141e:	2802      	cmp	r0, #2
   21420:	d00a      	beq.n	21438 <_ZN20complex_dynamic_type3app17h30c3c9b6d99d3c35E+0xe4>
   21422:	2102      	movs	r1, #2
   21424:	2200      	movs	r2, #0
   21426:	2803      	cmp	r0, #3
   21428:	d103      	bne.n	21432 <_ZN20complex_dynamic_type3app17h30c3c9b6d99d3c35E+0xde>
   2142a:	4620      	mov	r0, r4
   2142c:	4613      	mov	r3, r2
   2142e:	df03      	svc	3
   21430:	e002      	b.n	21438 <_ZN20complex_dynamic_type3app17h30c3c9b6d99d3c35E+0xe4>
   21432:	4620      	mov	r0, r4
   21434:	4613      	mov	r3, r2
   21436:	df04      	svc	4
   21438:	a804      	add	r0, sp, #16
   2143a:	9900      	ldr	r1, [sp, #0]
   2143c:	7001      	strb	r1, [r0, #0]
   2143e:	a818      	add	r0, sp, #96	@ 0x60
   21440:	7800      	ldrb	r0, [r0, #0]
   21442:	2804      	cmp	r0, #4
   21444:	d008      	beq.n	21458 <_ZN20complex_dynamic_type3app17h30c3c9b6d99d3c35E+0x104>
   21446:	2803      	cmp	r0, #3
   21448:	d120      	bne.n	2148c <_ZN20complex_dynamic_type3app17h30c3c9b6d99d3c35E+0x138>
   2144a:	2108      	movs	r1, #8
   2144c:	2200      	movs	r2, #0
   2144e:	9400      	str	r4, [sp, #0]
   21450:	4620      	mov	r0, r4
   21452:	4613      	mov	r3, r2
   21454:	df03      	svc	3
   21456:	e005      	b.n	21464 <_ZN20complex_dynamic_type3app17h30c3c9b6d99d3c35E+0x110>
   21458:	2108      	movs	r1, #8
   2145a:	2200      	movs	r2, #0
   2145c:	9400      	str	r4, [sp, #0]
   2145e:	4620      	mov	r0, r4
   21460:	4613      	mov	r3, r2
   21462:	df04      	svc	4
   21464:	a804      	add	r0, sp, #16
   21466:	7804      	ldrb	r4, [r0, #0]
   21468:	1c70      	adds	r0, r6, #1
   2146a:	2261      	movs	r2, #97	@ 0x61
   2146c:	4629      	mov	r1, r5
   2146e:	f009 fe4d 	bl	2b10c <__aeabi_memcpy>
   21472:	9802      	ldr	r0, [sp, #8]
   21474:	7030      	strb	r0, [r6, #0]
   21476:	2c02      	cmp	r4, #2
   21478:	d006      	beq.n	21488 <_ZN20complex_dynamic_type3app17h30c3c9b6d99d3c35E+0x134>
   2147a:	2c04      	cmp	r4, #4
   2147c:	d10f      	bne.n	2149e <_ZN20complex_dynamic_type3app17h30c3c9b6d99d3c35E+0x14a>
   2147e:	2102      	movs	r1, #2
   21480:	2200      	movs	r2, #0
   21482:	9800      	ldr	r0, [sp, #0]
   21484:	4613      	mov	r3, r2
   21486:	df04      	svc	4
   21488:	b031      	add	sp, #196	@ 0xc4
   2148a:	bdf0      	pop	{r4, r5, r6, r7, pc}
   2148c:	1c70      	adds	r0, r6, #1
   2148e:	2261      	movs	r2, #97	@ 0x61
   21490:	4629      	mov	r1, r5
   21492:	f009 fe3b 	bl	2b10c <__aeabi_memcpy>
   21496:	9802      	ldr	r0, [sp, #8]
   21498:	7030      	strb	r0, [r6, #0]
   2149a:	b031      	add	sp, #196	@ 0xc4
   2149c:	bdf0      	pop	{r4, r5, r6, r7, pc}
   2149e:	9800      	ldr	r0, [sp, #0]
   214a0:	2102      	movs	r1, #2
   214a2:	2200      	movs	r2, #0
   214a4:	4613      	mov	r3, r2
   214a6:	df03      	svc	3
   214a8:	b031      	add	sp, #196	@ 0xc4
   214aa:	bdf0      	pop	{r4, r5, r6, r7, pc}

000214ac <_ZN20complex_dynamic_type3app17h310292204680c64aE>:
   214ac:	b5f0      	push	{r4, r5, r6, r7, lr}
   214ae:	af03      	add	r7, sp, #12
   214b0:	b0a5      	sub	sp, #148	@ 0x94
   214b2:	9004      	str	r0, [sp, #16]
   214b4:	a805      	add	r0, sp, #20
   214b6:	2402      	movs	r4, #2
   214b8:	7004      	strb	r4, [r0, #0]
   214ba:	1c46      	adds	r6, r0, #1
   214bc:	2231      	movs	r2, #49	@ 0x31
   214be:	9203      	str	r2, [sp, #12]
   214c0:	4630      	mov	r0, r6
   214c2:	f009 fe23 	bl	2b10c <__aeabi_memcpy>
   214c6:	ad12      	add	r5, sp, #72	@ 0x48
   214c8:	1c68      	adds	r0, r5, #1
   214ca:	2148      	movs	r1, #72	@ 0x48
   214cc:	9002      	str	r0, [sp, #8]
   214ce:	f009 fc5d 	bl	2ad8c <__aeabi_memclr>
   214d2:	9401      	str	r4, [sp, #4]
   214d4:	702c      	strb	r4, [r5, #0]
   214d6:	4848      	ldr	r0, [pc, #288]	@ (215f8 <_ZN20complex_dynamic_type3app17h310292204680c64aE+0x14c>)
   214d8:	2504      	movs	r5, #4
   214da:	4629      	mov	r1, r5
   214dc:	4632      	mov	r2, r6
   214de:	9b03      	ldr	r3, [sp, #12]
   214e0:	df04      	svc	4
   214e2:	2802      	cmp	r0, #2
   214e4:	d104      	bne.n	214f0 <_ZN20complex_dynamic_type3app17h310292204680c64aE+0x44>
   214e6:	2001      	movs	r0, #1
   214e8:	9a04      	ldr	r2, [sp, #16]
   214ea:	7010      	strb	r0, [r2, #0]
   214ec:	6051      	str	r1, [r2, #4]
   214ee:	e02b      	b.n	21548 <_ZN20complex_dynamic_type3app17h310292204680c64aE+0x9c>
   214f0:	9e04      	ldr	r6, [sp, #16]
   214f2:	a805      	add	r0, sp, #20
   214f4:	7005      	strb	r5, [r0, #0]
   214f6:	4840      	ldr	r0, [pc, #256]	@ (215f8 <_ZN20complex_dynamic_type3app17h310292204680c64aE+0x14c>)
   214f8:	2403      	movs	r4, #3
   214fa:	2348      	movs	r3, #72	@ 0x48
   214fc:	4621      	mov	r1, r4
   214fe:	9a02      	ldr	r2, [sp, #8]
   21500:	df03      	svc	3
   21502:	2802      	cmp	r0, #2
   21504:	d10e      	bne.n	21524 <_ZN20complex_dynamic_type3app17h310292204680c64aE+0x78>
   21506:	2001      	movs	r0, #1
   21508:	7030      	strb	r0, [r6, #0]
   2150a:	6071      	str	r1, [r6, #4]
   2150c:	a812      	add	r0, sp, #72	@ 0x48
   2150e:	7800      	ldrb	r0, [r0, #0]
   21510:	2802      	cmp	r0, #2
   21512:	d019      	beq.n	21548 <_ZN20complex_dynamic_type3app17h310292204680c64aE+0x9c>
   21514:	2803      	cmp	r0, #3
   21516:	d012      	beq.n	2153e <_ZN20complex_dynamic_type3app17h310292204680c64aE+0x92>
   21518:	4837      	ldr	r0, [pc, #220]	@ (215f8 <_ZN20complex_dynamic_type3app17h310292204680c64aE+0x14c>)
   2151a:	2103      	movs	r1, #3
   2151c:	2200      	movs	r2, #0
   2151e:	4613      	mov	r3, r2
   21520:	df04      	svc	4
   21522:	e011      	b.n	21548 <_ZN20complex_dynamic_type3app17h310292204680c64aE+0x9c>
   21524:	a812      	add	r0, sp, #72	@ 0x48
   21526:	7004      	strb	r4, [r0, #0]
   21528:	4833      	ldr	r0, [pc, #204]	@ (215f8 <_ZN20complex_dynamic_type3app17h310292204680c64aE+0x14c>)
   2152a:	2104      	movs	r1, #4
   2152c:	2500      	movs	r5, #0
   2152e:	4622      	mov	r2, r4
   21530:	462b      	mov	r3, r5
   21532:	df02      	svc	2
   21534:	2880      	cmp	r0, #128	@ 0x80
   21536:	d21b      	bcs.n	21570 <_ZN20complex_dynamic_type3app17h310292204680c64aE+0xc4>
   21538:	2001      	movs	r0, #1
   2153a:	7030      	strb	r0, [r6, #0]
   2153c:	6071      	str	r1, [r6, #4]
   2153e:	482e      	ldr	r0, [pc, #184]	@ (215f8 <_ZN20complex_dynamic_type3app17h310292204680c64aE+0x14c>)
   21540:	2103      	movs	r1, #3
   21542:	2200      	movs	r2, #0
   21544:	4613      	mov	r3, r2
   21546:	df03      	svc	3
   21548:	a805      	add	r0, sp, #20
   2154a:	7800      	ldrb	r0, [r0, #0]
   2154c:	2802      	cmp	r0, #2
   2154e:	d045      	beq.n	215dc <_ZN20complex_dynamic_type3app17h310292204680c64aE+0x130>
   21550:	2804      	cmp	r0, #4
   21552:	d106      	bne.n	21562 <_ZN20complex_dynamic_type3app17h310292204680c64aE+0xb6>
   21554:	4828      	ldr	r0, [pc, #160]	@ (215f8 <_ZN20complex_dynamic_type3app17h310292204680c64aE+0x14c>)
   21556:	2104      	movs	r1, #4
   21558:	2200      	movs	r2, #0
   2155a:	4613      	mov	r3, r2
   2155c:	df04      	svc	4
   2155e:	b025      	add	sp, #148	@ 0x94
   21560:	bdf0      	pop	{r4, r5, r6, r7, pc}
   21562:	4825      	ldr	r0, [pc, #148]	@ (215f8 <_ZN20complex_dynamic_type3app17h310292204680c64aE+0x14c>)
   21564:	2104      	movs	r1, #4
   21566:	2200      	movs	r2, #0
   21568:	4613      	mov	r3, r2
   2156a:	df03      	svc	3
   2156c:	b025      	add	sp, #148	@ 0x94
   2156e:	bdf0      	pop	{r4, r5, r6, r7, pc}
   21570:	a805      	add	r0, sp, #20
   21572:	7800      	ldrb	r0, [r0, #0]
   21574:	2802      	cmp	r0, #2
   21576:	d00c      	beq.n	21592 <_ZN20complex_dynamic_type3app17h310292204680c64aE+0xe6>
   21578:	2803      	cmp	r0, #3
   2157a:	d105      	bne.n	21588 <_ZN20complex_dynamic_type3app17h310292204680c64aE+0xdc>
   2157c:	481e      	ldr	r0, [pc, #120]	@ (215f8 <_ZN20complex_dynamic_type3app17h310292204680c64aE+0x14c>)
   2157e:	2104      	movs	r1, #4
   21580:	2200      	movs	r2, #0
   21582:	4613      	mov	r3, r2
   21584:	df03      	svc	3
   21586:	e004      	b.n	21592 <_ZN20complex_dynamic_type3app17h310292204680c64aE+0xe6>
   21588:	481b      	ldr	r0, [pc, #108]	@ (215f8 <_ZN20complex_dynamic_type3app17h310292204680c64aE+0x14c>)
   2158a:	2104      	movs	r1, #4
   2158c:	2200      	movs	r2, #0
   2158e:	4613      	mov	r3, r2
   21590:	df04      	svc	4
   21592:	a805      	add	r0, sp, #20
   21594:	9901      	ldr	r1, [sp, #4]
   21596:	7001      	strb	r1, [r0, #0]
   21598:	a812      	add	r0, sp, #72	@ 0x48
   2159a:	7800      	ldrb	r0, [r0, #0]
   2159c:	2804      	cmp	r0, #4
   2159e:	d007      	beq.n	215b0 <_ZN20complex_dynamic_type3app17h310292204680c64aE+0x104>
   215a0:	2803      	cmp	r0, #3
   215a2:	d11d      	bne.n	215e0 <_ZN20complex_dynamic_type3app17h310292204680c64aE+0x134>
   215a4:	4814      	ldr	r0, [pc, #80]	@ (215f8 <_ZN20complex_dynamic_type3app17h310292204680c64aE+0x14c>)
   215a6:	2103      	movs	r1, #3
   215a8:	2200      	movs	r2, #0
   215aa:	4613      	mov	r3, r2
   215ac:	df03      	svc	3
   215ae:	e004      	b.n	215ba <_ZN20complex_dynamic_type3app17h310292204680c64aE+0x10e>
   215b0:	4811      	ldr	r0, [pc, #68]	@ (215f8 <_ZN20complex_dynamic_type3app17h310292204680c64aE+0x14c>)
   215b2:	2103      	movs	r1, #3
   215b4:	2200      	movs	r2, #0
   215b6:	4613      	mov	r3, r2
   215b8:	df04      	svc	4
   215ba:	a805      	add	r0, sp, #20
   215bc:	7804      	ldrb	r4, [r0, #0]
   215be:	1c70      	adds	r0, r6, #1
   215c0:	2248      	movs	r2, #72	@ 0x48
   215c2:	9902      	ldr	r1, [sp, #8]
   215c4:	f009 fda2 	bl	2b10c <__aeabi_memcpy>
   215c8:	7035      	strb	r5, [r6, #0]
   215ca:	2c02      	cmp	r4, #2
   215cc:	d006      	beq.n	215dc <_ZN20complex_dynamic_type3app17h310292204680c64aE+0x130>
   215ce:	480a      	ldr	r0, [pc, #40]	@ (215f8 <_ZN20complex_dynamic_type3app17h310292204680c64aE+0x14c>)
   215d0:	2104      	movs	r1, #4
   215d2:	2200      	movs	r2, #0
   215d4:	4613      	mov	r3, r2
   215d6:	2c04      	cmp	r4, #4
   215d8:	d10a      	bne.n	215f0 <_ZN20complex_dynamic_type3app17h310292204680c64aE+0x144>
   215da:	df04      	svc	4
   215dc:	b025      	add	sp, #148	@ 0x94
   215de:	bdf0      	pop	{r4, r5, r6, r7, pc}
   215e0:	1c70      	adds	r0, r6, #1
   215e2:	2248      	movs	r2, #72	@ 0x48
   215e4:	9902      	ldr	r1, [sp, #8]
   215e6:	f009 fd91 	bl	2b10c <__aeabi_memcpy>
   215ea:	7035      	strb	r5, [r6, #0]
   215ec:	b025      	add	sp, #148	@ 0x94
   215ee:	bdf0      	pop	{r4, r5, r6, r7, pc}
   215f0:	df03      	svc	3
   215f2:	b025      	add	sp, #148	@ 0x94
   215f4:	bdf0      	pop	{r4, r5, r6, r7, pc}
   215f6:	46c0      	nop			@ (mov r8, r8)
   215f8:	0000180e 	.word	0x0000180e

000215fc <_ZN20complex_dynamic_type3app17h348e422e82f8314bE>:
   215fc:	b5f0      	push	{r4, r5, r6, r7, lr}
   215fe:	af03      	add	r7, sp, #12
   21600:	b0a1      	sub	sp, #132	@ 0x84
   21602:	9003      	str	r0, [sp, #12]
   21604:	a804      	add	r0, sp, #16
   21606:	2502      	movs	r5, #2
   21608:	7005      	strb	r5, [r0, #0]
   2160a:	1c46      	adds	r6, r0, #1
   2160c:	225d      	movs	r2, #93	@ 0x5d
   2160e:	9202      	str	r2, [sp, #8]
   21610:	4630      	mov	r0, r6
   21612:	f009 fd7b 	bl	2b10c <__aeabi_memcpy>
   21616:	ac1c      	add	r4, sp, #112	@ 0x70
   21618:	1c60      	adds	r0, r4, #1
   2161a:	2112      	movs	r1, #18
   2161c:	9001      	str	r0, [sp, #4]
   2161e:	f009 fbb5 	bl	2ad8c <__aeabi_memclr>
   21622:	7025      	strb	r5, [r4, #0]
   21624:	484a      	ldr	r0, [pc, #296]	@ (21750 <_ZN20complex_dynamic_type3app17h348e422e82f8314bE+0x154>)
   21626:	2100      	movs	r1, #0
   21628:	4632      	mov	r2, r6
   2162a:	9b02      	ldr	r3, [sp, #8]
   2162c:	df04      	svc	4
   2162e:	2802      	cmp	r0, #2
   21630:	d104      	bne.n	2163c <_ZN20complex_dynamic_type3app17h348e422e82f8314bE+0x40>
   21632:	2001      	movs	r0, #1
   21634:	9a03      	ldr	r2, [sp, #12]
   21636:	7010      	strb	r0, [r2, #0]
   21638:	6051      	str	r1, [r2, #4]
   2163a:	e02e      	b.n	2169a <_ZN20complex_dynamic_type3app17h348e422e82f8314bE+0x9e>
   2163c:	9d03      	ldr	r5, [sp, #12]
   2163e:	a804      	add	r0, sp, #16
   21640:	2104      	movs	r1, #4
   21642:	7001      	strb	r1, [r0, #0]
   21644:	4842      	ldr	r0, [pc, #264]	@ (21750 <_ZN20complex_dynamic_type3app17h348e422e82f8314bE+0x154>)
   21646:	2102      	movs	r1, #2
   21648:	2312      	movs	r3, #18
   2164a:	9c01      	ldr	r4, [sp, #4]
   2164c:	4622      	mov	r2, r4
   2164e:	df03      	svc	3
   21650:	2802      	cmp	r0, #2
   21652:	d10e      	bne.n	21672 <_ZN20complex_dynamic_type3app17h348e422e82f8314bE+0x76>
   21654:	2001      	movs	r0, #1
   21656:	7028      	strb	r0, [r5, #0]
   21658:	6069      	str	r1, [r5, #4]
   2165a:	a81c      	add	r0, sp, #112	@ 0x70
   2165c:	7800      	ldrb	r0, [r0, #0]
   2165e:	2802      	cmp	r0, #2
   21660:	d01b      	beq.n	2169a <_ZN20complex_dynamic_type3app17h348e422e82f8314bE+0x9e>
   21662:	2803      	cmp	r0, #3
   21664:	d014      	beq.n	21690 <_ZN20complex_dynamic_type3app17h348e422e82f8314bE+0x94>
   21666:	483a      	ldr	r0, [pc, #232]	@ (21750 <_ZN20complex_dynamic_type3app17h348e422e82f8314bE+0x154>)
   21668:	2102      	movs	r1, #2
   2166a:	2200      	movs	r2, #0
   2166c:	4613      	mov	r3, r2
   2166e:	df04      	svc	4
   21670:	e013      	b.n	2169a <_ZN20complex_dynamic_type3app17h348e422e82f8314bE+0x9e>
   21672:	a81c      	add	r0, sp, #112	@ 0x70
   21674:	2103      	movs	r1, #3
   21676:	7001      	strb	r1, [r0, #0]
   21678:	4835      	ldr	r0, [pc, #212]	@ (21750 <_ZN20complex_dynamic_type3app17h348e422e82f8314bE+0x154>)
   2167a:	2602      	movs	r6, #2
   2167c:	2100      	movs	r1, #0
   2167e:	4632      	mov	r2, r6
   21680:	9102      	str	r1, [sp, #8]
   21682:	460b      	mov	r3, r1
   21684:	df02      	svc	2
   21686:	2880      	cmp	r0, #128	@ 0x80
   21688:	d21b      	bcs.n	216c2 <_ZN20complex_dynamic_type3app17h348e422e82f8314bE+0xc6>
   2168a:	2001      	movs	r0, #1
   2168c:	7028      	strb	r0, [r5, #0]
   2168e:	6069      	str	r1, [r5, #4]
   21690:	482f      	ldr	r0, [pc, #188]	@ (21750 <_ZN20complex_dynamic_type3app17h348e422e82f8314bE+0x154>)
   21692:	2102      	movs	r1, #2
   21694:	2200      	movs	r2, #0
   21696:	4613      	mov	r3, r2
   21698:	df03      	svc	3
   2169a:	a804      	add	r0, sp, #16
   2169c:	7800      	ldrb	r0, [r0, #0]
   2169e:	2802      	cmp	r0, #2
   216a0:	d047      	beq.n	21732 <_ZN20complex_dynamic_type3app17h348e422e82f8314bE+0x136>
   216a2:	2804      	cmp	r0, #4
   216a4:	d106      	bne.n	216b4 <_ZN20complex_dynamic_type3app17h348e422e82f8314bE+0xb8>
   216a6:	482a      	ldr	r0, [pc, #168]	@ (21750 <_ZN20complex_dynamic_type3app17h348e422e82f8314bE+0x154>)
   216a8:	2100      	movs	r1, #0
   216aa:	460a      	mov	r2, r1
   216ac:	460b      	mov	r3, r1
   216ae:	df04      	svc	4
   216b0:	b021      	add	sp, #132	@ 0x84
   216b2:	bdf0      	pop	{r4, r5, r6, r7, pc}
   216b4:	4826      	ldr	r0, [pc, #152]	@ (21750 <_ZN20complex_dynamic_type3app17h348e422e82f8314bE+0x154>)
   216b6:	2100      	movs	r1, #0
   216b8:	460a      	mov	r2, r1
   216ba:	460b      	mov	r3, r1
   216bc:	df03      	svc	3
   216be:	b021      	add	sp, #132	@ 0x84
   216c0:	bdf0      	pop	{r4, r5, r6, r7, pc}
   216c2:	a804      	add	r0, sp, #16
   216c4:	7800      	ldrb	r0, [r0, #0]
   216c6:	2802      	cmp	r0, #2
   216c8:	d00c      	beq.n	216e4 <_ZN20complex_dynamic_type3app17h348e422e82f8314bE+0xe8>
   216ca:	2803      	cmp	r0, #3
   216cc:	d105      	bne.n	216da <_ZN20complex_dynamic_type3app17h348e422e82f8314bE+0xde>
   216ce:	4820      	ldr	r0, [pc, #128]	@ (21750 <_ZN20complex_dynamic_type3app17h348e422e82f8314bE+0x154>)
   216d0:	2100      	movs	r1, #0
   216d2:	460a      	mov	r2, r1
   216d4:	460b      	mov	r3, r1
   216d6:	df03      	svc	3
   216d8:	e004      	b.n	216e4 <_ZN20complex_dynamic_type3app17h348e422e82f8314bE+0xe8>
   216da:	481d      	ldr	r0, [pc, #116]	@ (21750 <_ZN20complex_dynamic_type3app17h348e422e82f8314bE+0x154>)
   216dc:	2100      	movs	r1, #0
   216de:	460a      	mov	r2, r1
   216e0:	460b      	mov	r3, r1
   216e2:	df04      	svc	4
   216e4:	a804      	add	r0, sp, #16
   216e6:	7006      	strb	r6, [r0, #0]
   216e8:	a81c      	add	r0, sp, #112	@ 0x70
   216ea:	7800      	ldrb	r0, [r0, #0]
   216ec:	2804      	cmp	r0, #4
   216ee:	d008      	beq.n	21702 <_ZN20complex_dynamic_type3app17h348e422e82f8314bE+0x106>
   216f0:	2803      	cmp	r0, #3
   216f2:	d120      	bne.n	21736 <_ZN20complex_dynamic_type3app17h348e422e82f8314bE+0x13a>
   216f4:	4626      	mov	r6, r4
   216f6:	4816      	ldr	r0, [pc, #88]	@ (21750 <_ZN20complex_dynamic_type3app17h348e422e82f8314bE+0x154>)
   216f8:	2102      	movs	r1, #2
   216fa:	2200      	movs	r2, #0
   216fc:	4613      	mov	r3, r2
   216fe:	df03      	svc	3
   21700:	e005      	b.n	2170e <_ZN20complex_dynamic_type3app17h348e422e82f8314bE+0x112>
   21702:	4626      	mov	r6, r4
   21704:	4812      	ldr	r0, [pc, #72]	@ (21750 <_ZN20complex_dynamic_type3app17h348e422e82f8314bE+0x154>)
   21706:	2102      	movs	r1, #2
   21708:	2200      	movs	r2, #0
   2170a:	4613      	mov	r3, r2
   2170c:	df04      	svc	4
   2170e:	a804      	add	r0, sp, #16
   21710:	7804      	ldrb	r4, [r0, #0]
   21712:	1c68      	adds	r0, r5, #1
   21714:	2212      	movs	r2, #18
   21716:	4631      	mov	r1, r6
   21718:	f009 fcf8 	bl	2b10c <__aeabi_memcpy>
   2171c:	9802      	ldr	r0, [sp, #8]
   2171e:	7028      	strb	r0, [r5, #0]
   21720:	2c02      	cmp	r4, #2
   21722:	d006      	beq.n	21732 <_ZN20complex_dynamic_type3app17h348e422e82f8314bE+0x136>
   21724:	480a      	ldr	r0, [pc, #40]	@ (21750 <_ZN20complex_dynamic_type3app17h348e422e82f8314bE+0x154>)
   21726:	2100      	movs	r1, #0
   21728:	460a      	mov	r2, r1
   2172a:	460b      	mov	r3, r1
   2172c:	2c04      	cmp	r4, #4
   2172e:	d10b      	bne.n	21748 <_ZN20complex_dynamic_type3app17h348e422e82f8314bE+0x14c>
   21730:	df04      	svc	4
   21732:	b021      	add	sp, #132	@ 0x84
   21734:	bdf0      	pop	{r4, r5, r6, r7, pc}
   21736:	1c68      	adds	r0, r5, #1
   21738:	2212      	movs	r2, #18
   2173a:	4621      	mov	r1, r4
   2173c:	f009 fce6 	bl	2b10c <__aeabi_memcpy>
   21740:	9802      	ldr	r0, [sp, #8]
   21742:	7028      	strb	r0, [r5, #0]
   21744:	b021      	add	sp, #132	@ 0x84
   21746:	bdf0      	pop	{r4, r5, r6, r7, pc}
   21748:	df03      	svc	3
   2174a:	b021      	add	sp, #132	@ 0x84
   2174c:	bdf0      	pop	{r4, r5, r6, r7, pc}
   2174e:	46c0      	nop			@ (mov r8, r8)
   21750:	000015f1 	.word	0x000015f1

00021754 <_ZN20complex_dynamic_type3app17h3549b2af0e74604cE>:
   21754:	b5f0      	push	{r4, r5, r6, r7, lr}
   21756:	af03      	add	r7, sp, #12
   21758:	b0a3      	sub	sp, #140	@ 0x8c
   2175a:	9003      	str	r0, [sp, #12]
   2175c:	a804      	add	r0, sp, #16
   2175e:	2402      	movs	r4, #2
   21760:	7004      	strb	r4, [r0, #0]
   21762:	1c46      	adds	r6, r0, #1
   21764:	223c      	movs	r2, #60	@ 0x3c
   21766:	9202      	str	r2, [sp, #8]
   21768:	4630      	mov	r0, r6
   2176a:	f009 fccf 	bl	2b10c <__aeabi_memcpy>
   2176e:	ad14      	add	r5, sp, #80	@ 0x50
   21770:	1c68      	adds	r0, r5, #1
   21772:	2138      	movs	r1, #56	@ 0x38
   21774:	9001      	str	r0, [sp, #4]
   21776:	f009 fb09 	bl	2ad8c <__aeabi_memclr>
   2177a:	9400      	str	r4, [sp, #0]
   2177c:	702c      	strb	r4, [r5, #0]
   2177e:	4848      	ldr	r0, [pc, #288]	@ (218a0 <_ZN20complex_dynamic_type3app17h3549b2af0e74604cE+0x14c>)
   21780:	2103      	movs	r1, #3
   21782:	4632      	mov	r2, r6
   21784:	9b02      	ldr	r3, [sp, #8]
   21786:	df04      	svc	4
   21788:	2802      	cmp	r0, #2
   2178a:	d104      	bne.n	21796 <_ZN20complex_dynamic_type3app17h3549b2af0e74604cE+0x42>
   2178c:	2001      	movs	r0, #1
   2178e:	9a03      	ldr	r2, [sp, #12]
   21790:	7010      	strb	r0, [r2, #0]
   21792:	6051      	str	r1, [r2, #4]
   21794:	e02c      	b.n	217f0 <_ZN20complex_dynamic_type3app17h3549b2af0e74604cE+0x9c>
   21796:	9d03      	ldr	r5, [sp, #12]
   21798:	a804      	add	r0, sp, #16
   2179a:	2104      	movs	r1, #4
   2179c:	7001      	strb	r1, [r0, #0]
   2179e:	4840      	ldr	r0, [pc, #256]	@ (218a0 <_ZN20complex_dynamic_type3app17h3549b2af0e74604cE+0x14c>)
   217a0:	2403      	movs	r4, #3
   217a2:	2338      	movs	r3, #56	@ 0x38
   217a4:	4621      	mov	r1, r4
   217a6:	9a01      	ldr	r2, [sp, #4]
   217a8:	df03      	svc	3
   217aa:	2802      	cmp	r0, #2
   217ac:	d10e      	bne.n	217cc <_ZN20complex_dynamic_type3app17h3549b2af0e74604cE+0x78>
   217ae:	2001      	movs	r0, #1
   217b0:	7028      	strb	r0, [r5, #0]
   217b2:	6069      	str	r1, [r5, #4]
   217b4:	a814      	add	r0, sp, #80	@ 0x50
   217b6:	7800      	ldrb	r0, [r0, #0]
   217b8:	2802      	cmp	r0, #2
   217ba:	d019      	beq.n	217f0 <_ZN20complex_dynamic_type3app17h3549b2af0e74604cE+0x9c>
   217bc:	2803      	cmp	r0, #3
   217be:	d012      	beq.n	217e6 <_ZN20complex_dynamic_type3app17h3549b2af0e74604cE+0x92>
   217c0:	4837      	ldr	r0, [pc, #220]	@ (218a0 <_ZN20complex_dynamic_type3app17h3549b2af0e74604cE+0x14c>)
   217c2:	2103      	movs	r1, #3
   217c4:	2200      	movs	r2, #0
   217c6:	4613      	mov	r3, r2
   217c8:	df04      	svc	4
   217ca:	e011      	b.n	217f0 <_ZN20complex_dynamic_type3app17h3549b2af0e74604cE+0x9c>
   217cc:	a814      	add	r0, sp, #80	@ 0x50
   217ce:	7004      	strb	r4, [r0, #0]
   217d0:	4833      	ldr	r0, [pc, #204]	@ (218a0 <_ZN20complex_dynamic_type3app17h3549b2af0e74604cE+0x14c>)
   217d2:	2600      	movs	r6, #0
   217d4:	4621      	mov	r1, r4
   217d6:	4622      	mov	r2, r4
   217d8:	4633      	mov	r3, r6
   217da:	df02      	svc	2
   217dc:	2880      	cmp	r0, #128	@ 0x80
   217de:	d21b      	bcs.n	21818 <_ZN20complex_dynamic_type3app17h3549b2af0e74604cE+0xc4>
   217e0:	2001      	movs	r0, #1
   217e2:	7028      	strb	r0, [r5, #0]
   217e4:	6069      	str	r1, [r5, #4]
   217e6:	482e      	ldr	r0, [pc, #184]	@ (218a0 <_ZN20complex_dynamic_type3app17h3549b2af0e74604cE+0x14c>)
   217e8:	2103      	movs	r1, #3
   217ea:	2200      	movs	r2, #0
   217ec:	4613      	mov	r3, r2
   217ee:	df03      	svc	3
   217f0:	a804      	add	r0, sp, #16
   217f2:	7800      	ldrb	r0, [r0, #0]
   217f4:	2802      	cmp	r0, #2
   217f6:	d045      	beq.n	21884 <_ZN20complex_dynamic_type3app17h3549b2af0e74604cE+0x130>
   217f8:	2804      	cmp	r0, #4
   217fa:	d106      	bne.n	2180a <_ZN20complex_dynamic_type3app17h3549b2af0e74604cE+0xb6>
   217fc:	4828      	ldr	r0, [pc, #160]	@ (218a0 <_ZN20complex_dynamic_type3app17h3549b2af0e74604cE+0x14c>)
   217fe:	2103      	movs	r1, #3
   21800:	2200      	movs	r2, #0
   21802:	4613      	mov	r3, r2
   21804:	df04      	svc	4
   21806:	b023      	add	sp, #140	@ 0x8c
   21808:	bdf0      	pop	{r4, r5, r6, r7, pc}
   2180a:	4825      	ldr	r0, [pc, #148]	@ (218a0 <_ZN20complex_dynamic_type3app17h3549b2af0e74604cE+0x14c>)
   2180c:	2103      	movs	r1, #3
   2180e:	2200      	movs	r2, #0
   21810:	4613      	mov	r3, r2
   21812:	df03      	svc	3
   21814:	b023      	add	sp, #140	@ 0x8c
   21816:	bdf0      	pop	{r4, r5, r6, r7, pc}
   21818:	a804      	add	r0, sp, #16
   2181a:	7800      	ldrb	r0, [r0, #0]
   2181c:	2802      	cmp	r0, #2
   2181e:	d00c      	beq.n	2183a <_ZN20complex_dynamic_type3app17h3549b2af0e74604cE+0xe6>
   21820:	2803      	cmp	r0, #3
   21822:	d105      	bne.n	21830 <_ZN20complex_dynamic_type3app17h3549b2af0e74604cE+0xdc>
   21824:	481e      	ldr	r0, [pc, #120]	@ (218a0 <_ZN20complex_dynamic_type3app17h3549b2af0e74604cE+0x14c>)
   21826:	2103      	movs	r1, #3
   21828:	2200      	movs	r2, #0
   2182a:	4613      	mov	r3, r2
   2182c:	df03      	svc	3
   2182e:	e004      	b.n	2183a <_ZN20complex_dynamic_type3app17h3549b2af0e74604cE+0xe6>
   21830:	481b      	ldr	r0, [pc, #108]	@ (218a0 <_ZN20complex_dynamic_type3app17h3549b2af0e74604cE+0x14c>)
   21832:	2103      	movs	r1, #3
   21834:	2200      	movs	r2, #0
   21836:	4613      	mov	r3, r2
   21838:	df04      	svc	4
   2183a:	a804      	add	r0, sp, #16
   2183c:	9900      	ldr	r1, [sp, #0]
   2183e:	7001      	strb	r1, [r0, #0]
   21840:	a814      	add	r0, sp, #80	@ 0x50
   21842:	7800      	ldrb	r0, [r0, #0]
   21844:	2804      	cmp	r0, #4
   21846:	d007      	beq.n	21858 <_ZN20complex_dynamic_type3app17h3549b2af0e74604cE+0x104>
   21848:	2803      	cmp	r0, #3
   2184a:	d11d      	bne.n	21888 <_ZN20complex_dynamic_type3app17h3549b2af0e74604cE+0x134>
   2184c:	4814      	ldr	r0, [pc, #80]	@ (218a0 <_ZN20complex_dynamic_type3app17h3549b2af0e74604cE+0x14c>)
   2184e:	2103      	movs	r1, #3
   21850:	2200      	movs	r2, #0
   21852:	4613      	mov	r3, r2
   21854:	df03      	svc	3
   21856:	e004      	b.n	21862 <_ZN20complex_dynamic_type3app17h3549b2af0e74604cE+0x10e>
   21858:	4811      	ldr	r0, [pc, #68]	@ (218a0 <_ZN20complex_dynamic_type3app17h3549b2af0e74604cE+0x14c>)
   2185a:	2103      	movs	r1, #3
   2185c:	2200      	movs	r2, #0
   2185e:	4613      	mov	r3, r2
   21860:	df04      	svc	4
   21862:	a804      	add	r0, sp, #16
   21864:	7804      	ldrb	r4, [r0, #0]
   21866:	1c68      	adds	r0, r5, #1
   21868:	2238      	movs	r2, #56	@ 0x38
   2186a:	9901      	ldr	r1, [sp, #4]
   2186c:	f009 fc4e 	bl	2b10c <__aeabi_memcpy>
   21870:	702e      	strb	r6, [r5, #0]
   21872:	2c02      	cmp	r4, #2
   21874:	d006      	beq.n	21884 <_ZN20complex_dynamic_type3app17h3549b2af0e74604cE+0x130>
   21876:	480a      	ldr	r0, [pc, #40]	@ (218a0 <_ZN20complex_dynamic_type3app17h3549b2af0e74604cE+0x14c>)
   21878:	2103      	movs	r1, #3
   2187a:	2200      	movs	r2, #0
   2187c:	4613      	mov	r3, r2
   2187e:	2c04      	cmp	r4, #4
   21880:	d10a      	bne.n	21898 <_ZN20complex_dynamic_type3app17h3549b2af0e74604cE+0x144>
   21882:	df04      	svc	4
   21884:	b023      	add	sp, #140	@ 0x8c
   21886:	bdf0      	pop	{r4, r5, r6, r7, pc}
   21888:	1c68      	adds	r0, r5, #1
   2188a:	2238      	movs	r2, #56	@ 0x38
   2188c:	9901      	ldr	r1, [sp, #4]
   2188e:	f009 fc3d 	bl	2b10c <__aeabi_memcpy>
   21892:	702e      	strb	r6, [r5, #0]
   21894:	b023      	add	sp, #140	@ 0x8c
   21896:	bdf0      	pop	{r4, r5, r6, r7, pc}
   21898:	df03      	svc	3
   2189a:	b023      	add	sp, #140	@ 0x8c
   2189c:	bdf0      	pop	{r4, r5, r6, r7, pc}
   2189e:	46c0      	nop			@ (mov r8, r8)
   218a0:	00001d19 	.word	0x00001d19

000218a4 <_ZN20complex_dynamic_type3app17h3720b553db454f5aE>:
   218a4:	b5f0      	push	{r4, r5, r6, r7, lr}
   218a6:	af03      	add	r7, sp, #12
   218a8:	b0ab      	sub	sp, #172	@ 0xac
   218aa:	9003      	str	r0, [sp, #12]
   218ac:	a804      	add	r0, sp, #16
   218ae:	2402      	movs	r4, #2
   218b0:	7004      	strb	r4, [r0, #0]
   218b2:	1c46      	adds	r6, r0, #1
   218b4:	223a      	movs	r2, #58	@ 0x3a
   218b6:	9202      	str	r2, [sp, #8]
   218b8:	4630      	mov	r0, r6
   218ba:	f009 fc27 	bl	2b10c <__aeabi_memcpy>
   218be:	ad13      	add	r5, sp, #76	@ 0x4c
   218c0:	1c68      	adds	r0, r5, #1
   218c2:	215d      	movs	r1, #93	@ 0x5d
   218c4:	9001      	str	r0, [sp, #4]
   218c6:	f009 fa61 	bl	2ad8c <__aeabi_memclr>
   218ca:	9400      	str	r4, [sp, #0]
   218cc:	702c      	strb	r4, [r5, #0]
   218ce:	4848      	ldr	r0, [pc, #288]	@ (219f0 <_ZN20complex_dynamic_type3app17h3720b553db454f5aE+0x14c>)
   218d0:	2100      	movs	r1, #0
   218d2:	4632      	mov	r2, r6
   218d4:	9b02      	ldr	r3, [sp, #8]
   218d6:	df04      	svc	4
   218d8:	2802      	cmp	r0, #2
   218da:	d104      	bne.n	218e6 <_ZN20complex_dynamic_type3app17h3720b553db454f5aE+0x42>
   218dc:	2001      	movs	r0, #1
   218de:	9a03      	ldr	r2, [sp, #12]
   218e0:	7010      	strb	r0, [r2, #0]
   218e2:	6051      	str	r1, [r2, #4]
   218e4:	e02d      	b.n	21942 <_ZN20complex_dynamic_type3app17h3720b553db454f5aE+0x9e>
   218e6:	9d03      	ldr	r5, [sp, #12]
   218e8:	a804      	add	r0, sp, #16
   218ea:	2104      	movs	r1, #4
   218ec:	7001      	strb	r1, [r0, #0]
   218ee:	4840      	ldr	r0, [pc, #256]	@ (219f0 <_ZN20complex_dynamic_type3app17h3720b553db454f5aE+0x14c>)
   218f0:	2105      	movs	r1, #5
   218f2:	235d      	movs	r3, #93	@ 0x5d
   218f4:	9c01      	ldr	r4, [sp, #4]
   218f6:	4622      	mov	r2, r4
   218f8:	df03      	svc	3
   218fa:	2802      	cmp	r0, #2
   218fc:	d10e      	bne.n	2191c <_ZN20complex_dynamic_type3app17h3720b553db454f5aE+0x78>
   218fe:	2001      	movs	r0, #1
   21900:	7028      	strb	r0, [r5, #0]
   21902:	6069      	str	r1, [r5, #4]
   21904:	a813      	add	r0, sp, #76	@ 0x4c
   21906:	7800      	ldrb	r0, [r0, #0]
   21908:	2802      	cmp	r0, #2
   2190a:	d01a      	beq.n	21942 <_ZN20complex_dynamic_type3app17h3720b553db454f5aE+0x9e>
   2190c:	2803      	cmp	r0, #3
   2190e:	d013      	beq.n	21938 <_ZN20complex_dynamic_type3app17h3720b553db454f5aE+0x94>
   21910:	4837      	ldr	r0, [pc, #220]	@ (219f0 <_ZN20complex_dynamic_type3app17h3720b553db454f5aE+0x14c>)
   21912:	2105      	movs	r1, #5
   21914:	2200      	movs	r2, #0
   21916:	4613      	mov	r3, r2
   21918:	df04      	svc	4
   2191a:	e012      	b.n	21942 <_ZN20complex_dynamic_type3app17h3720b553db454f5aE+0x9e>
   2191c:	a813      	add	r0, sp, #76	@ 0x4c
   2191e:	2103      	movs	r1, #3
   21920:	7001      	strb	r1, [r0, #0]
   21922:	4833      	ldr	r0, [pc, #204]	@ (219f0 <_ZN20complex_dynamic_type3app17h3720b553db454f5aE+0x14c>)
   21924:	2205      	movs	r2, #5
   21926:	2600      	movs	r6, #0
   21928:	4631      	mov	r1, r6
   2192a:	4633      	mov	r3, r6
   2192c:	df02      	svc	2
   2192e:	2880      	cmp	r0, #128	@ 0x80
   21930:	d21b      	bcs.n	2196a <_ZN20complex_dynamic_type3app17h3720b553db454f5aE+0xc6>
   21932:	2001      	movs	r0, #1
   21934:	7028      	strb	r0, [r5, #0]
   21936:	6069      	str	r1, [r5, #4]
   21938:	482d      	ldr	r0, [pc, #180]	@ (219f0 <_ZN20complex_dynamic_type3app17h3720b553db454f5aE+0x14c>)
   2193a:	2105      	movs	r1, #5
   2193c:	2200      	movs	r2, #0
   2193e:	4613      	mov	r3, r2
   21940:	df03      	svc	3
   21942:	a804      	add	r0, sp, #16
   21944:	7800      	ldrb	r0, [r0, #0]
   21946:	2802      	cmp	r0, #2
   21948:	d045      	beq.n	219d6 <_ZN20complex_dynamic_type3app17h3720b553db454f5aE+0x132>
   2194a:	2804      	cmp	r0, #4
   2194c:	d106      	bne.n	2195c <_ZN20complex_dynamic_type3app17h3720b553db454f5aE+0xb8>
   2194e:	4828      	ldr	r0, [pc, #160]	@ (219f0 <_ZN20complex_dynamic_type3app17h3720b553db454f5aE+0x14c>)
   21950:	2100      	movs	r1, #0
   21952:	460a      	mov	r2, r1
   21954:	460b      	mov	r3, r1
   21956:	df04      	svc	4
   21958:	b02b      	add	sp, #172	@ 0xac
   2195a:	bdf0      	pop	{r4, r5, r6, r7, pc}
   2195c:	4824      	ldr	r0, [pc, #144]	@ (219f0 <_ZN20complex_dynamic_type3app17h3720b553db454f5aE+0x14c>)
   2195e:	2100      	movs	r1, #0
   21960:	460a      	mov	r2, r1
   21962:	460b      	mov	r3, r1
   21964:	df03      	svc	3
   21966:	b02b      	add	sp, #172	@ 0xac
   21968:	bdf0      	pop	{r4, r5, r6, r7, pc}
   2196a:	a804      	add	r0, sp, #16
   2196c:	7800      	ldrb	r0, [r0, #0]
   2196e:	2802      	cmp	r0, #2
   21970:	d00c      	beq.n	2198c <_ZN20complex_dynamic_type3app17h3720b553db454f5aE+0xe8>
   21972:	2803      	cmp	r0, #3
   21974:	d105      	bne.n	21982 <_ZN20complex_dynamic_type3app17h3720b553db454f5aE+0xde>
   21976:	481e      	ldr	r0, [pc, #120]	@ (219f0 <_ZN20complex_dynamic_type3app17h3720b553db454f5aE+0x14c>)
   21978:	2100      	movs	r1, #0
   2197a:	460a      	mov	r2, r1
   2197c:	460b      	mov	r3, r1
   2197e:	df03      	svc	3
   21980:	e004      	b.n	2198c <_ZN20complex_dynamic_type3app17h3720b553db454f5aE+0xe8>
   21982:	481b      	ldr	r0, [pc, #108]	@ (219f0 <_ZN20complex_dynamic_type3app17h3720b553db454f5aE+0x14c>)
   21984:	2100      	movs	r1, #0
   21986:	460a      	mov	r2, r1
   21988:	460b      	mov	r3, r1
   2198a:	df04      	svc	4
   2198c:	a804      	add	r0, sp, #16
   2198e:	9900      	ldr	r1, [sp, #0]
   21990:	7001      	strb	r1, [r0, #0]
   21992:	a813      	add	r0, sp, #76	@ 0x4c
   21994:	7800      	ldrb	r0, [r0, #0]
   21996:	2804      	cmp	r0, #4
   21998:	d007      	beq.n	219aa <_ZN20complex_dynamic_type3app17h3720b553db454f5aE+0x106>
   2199a:	2803      	cmp	r0, #3
   2199c:	d11d      	bne.n	219da <_ZN20complex_dynamic_type3app17h3720b553db454f5aE+0x136>
   2199e:	4814      	ldr	r0, [pc, #80]	@ (219f0 <_ZN20complex_dynamic_type3app17h3720b553db454f5aE+0x14c>)
   219a0:	2105      	movs	r1, #5
   219a2:	2200      	movs	r2, #0
   219a4:	4613      	mov	r3, r2
   219a6:	df03      	svc	3
   219a8:	e004      	b.n	219b4 <_ZN20complex_dynamic_type3app17h3720b553db454f5aE+0x110>
   219aa:	4811      	ldr	r0, [pc, #68]	@ (219f0 <_ZN20complex_dynamic_type3app17h3720b553db454f5aE+0x14c>)
   219ac:	2105      	movs	r1, #5
   219ae:	2200      	movs	r2, #0
   219b0:	4613      	mov	r3, r2
   219b2:	df04      	svc	4
   219b4:	a804      	add	r0, sp, #16
   219b6:	7804      	ldrb	r4, [r0, #0]
   219b8:	1c68      	adds	r0, r5, #1
   219ba:	225d      	movs	r2, #93	@ 0x5d
   219bc:	9901      	ldr	r1, [sp, #4]
   219be:	f009 fba5 	bl	2b10c <__aeabi_memcpy>
   219c2:	702e      	strb	r6, [r5, #0]
   219c4:	2c02      	cmp	r4, #2
   219c6:	d006      	beq.n	219d6 <_ZN20complex_dynamic_type3app17h3720b553db454f5aE+0x132>
   219c8:	4809      	ldr	r0, [pc, #36]	@ (219f0 <_ZN20complex_dynamic_type3app17h3720b553db454f5aE+0x14c>)
   219ca:	2100      	movs	r1, #0
   219cc:	460a      	mov	r2, r1
   219ce:	460b      	mov	r3, r1
   219d0:	2c04      	cmp	r4, #4
   219d2:	d10a      	bne.n	219ea <_ZN20complex_dynamic_type3app17h3720b553db454f5aE+0x146>
   219d4:	df04      	svc	4
   219d6:	b02b      	add	sp, #172	@ 0xac
   219d8:	bdf0      	pop	{r4, r5, r6, r7, pc}
   219da:	1c68      	adds	r0, r5, #1
   219dc:	225d      	movs	r2, #93	@ 0x5d
   219de:	4621      	mov	r1, r4
   219e0:	f009 fb94 	bl	2b10c <__aeabi_memcpy>
   219e4:	702e      	strb	r6, [r5, #0]
   219e6:	b02b      	add	sp, #172	@ 0xac
   219e8:	bdf0      	pop	{r4, r5, r6, r7, pc}
   219ea:	df03      	svc	3
   219ec:	b02b      	add	sp, #172	@ 0xac
   219ee:	bdf0      	pop	{r4, r5, r6, r7, pc}
   219f0:	000014a4 	.word	0x000014a4

000219f4 <_ZN20complex_dynamic_type3app17h3c11a45a85a2f99aE>:
   219f4:	b5f0      	push	{r4, r5, r6, r7, lr}
   219f6:	af03      	add	r7, sp, #12
   219f8:	b08d      	sub	sp, #52	@ 0x34
   219fa:	9003      	str	r0, [sp, #12]
   219fc:	a804      	add	r0, sp, #16
   219fe:	2402      	movs	r4, #2
   21a00:	7004      	strb	r4, [r0, #0]
   21a02:	1c40      	adds	r0, r0, #1
   21a04:	9002      	str	r0, [sp, #8]
   21a06:	250f      	movs	r5, #15
   21a08:	462a      	mov	r2, r5
   21a0a:	f009 fb7f 	bl	2b10c <__aeabi_memcpy>
   21a0e:	ae08      	add	r6, sp, #32
   21a10:	1c70      	adds	r0, r6, #1
   21a12:	2113      	movs	r1, #19
   21a14:	9001      	str	r0, [sp, #4]
   21a16:	f009 f9b9 	bl	2ad8c <__aeabi_memclr>
   21a1a:	9400      	str	r4, [sp, #0]
   21a1c:	7034      	strb	r4, [r6, #0]
   21a1e:	484a      	ldr	r0, [pc, #296]	@ (21b48 <_ZN20complex_dynamic_type3app17h3c11a45a85a2f99aE+0x154>)
   21a20:	2603      	movs	r6, #3
   21a22:	4631      	mov	r1, r6
   21a24:	9a02      	ldr	r2, [sp, #8]
   21a26:	462b      	mov	r3, r5
   21a28:	df04      	svc	4
   21a2a:	2802      	cmp	r0, #2
   21a2c:	d104      	bne.n	21a38 <_ZN20complex_dynamic_type3app17h3c11a45a85a2f99aE+0x44>
   21a2e:	2001      	movs	r0, #1
   21a30:	9a03      	ldr	r2, [sp, #12]
   21a32:	7010      	strb	r0, [r2, #0]
   21a34:	6051      	str	r1, [r2, #4]
   21a36:	e02c      	b.n	21a92 <_ZN20complex_dynamic_type3app17h3c11a45a85a2f99aE+0x9e>
   21a38:	9d03      	ldr	r5, [sp, #12]
   21a3a:	a804      	add	r0, sp, #16
   21a3c:	2104      	movs	r1, #4
   21a3e:	7001      	strb	r1, [r0, #0]
   21a40:	4841      	ldr	r0, [pc, #260]	@ (21b48 <_ZN20complex_dynamic_type3app17h3c11a45a85a2f99aE+0x154>)
   21a42:	2100      	movs	r1, #0
   21a44:	2313      	movs	r3, #19
   21a46:	9c01      	ldr	r4, [sp, #4]
   21a48:	4622      	mov	r2, r4
   21a4a:	df03      	svc	3
   21a4c:	2802      	cmp	r0, #2
   21a4e:	d10e      	bne.n	21a6e <_ZN20complex_dynamic_type3app17h3c11a45a85a2f99aE+0x7a>
   21a50:	2001      	movs	r0, #1
   21a52:	7028      	strb	r0, [r5, #0]
   21a54:	6069      	str	r1, [r5, #4]
   21a56:	a808      	add	r0, sp, #32
   21a58:	7800      	ldrb	r0, [r0, #0]
   21a5a:	2802      	cmp	r0, #2
   21a5c:	d019      	beq.n	21a92 <_ZN20complex_dynamic_type3app17h3c11a45a85a2f99aE+0x9e>
   21a5e:	2803      	cmp	r0, #3
   21a60:	d012      	beq.n	21a88 <_ZN20complex_dynamic_type3app17h3c11a45a85a2f99aE+0x94>
   21a62:	4839      	ldr	r0, [pc, #228]	@ (21b48 <_ZN20complex_dynamic_type3app17h3c11a45a85a2f99aE+0x154>)
   21a64:	2100      	movs	r1, #0
   21a66:	460a      	mov	r2, r1
   21a68:	460b      	mov	r3, r1
   21a6a:	df04      	svc	4
   21a6c:	e011      	b.n	21a92 <_ZN20complex_dynamic_type3app17h3c11a45a85a2f99aE+0x9e>
   21a6e:	a808      	add	r0, sp, #32
   21a70:	7006      	strb	r6, [r0, #0]
   21a72:	4835      	ldr	r0, [pc, #212]	@ (21b48 <_ZN20complex_dynamic_type3app17h3c11a45a85a2f99aE+0x154>)
   21a74:	2200      	movs	r2, #0
   21a76:	4631      	mov	r1, r6
   21a78:	9202      	str	r2, [sp, #8]
   21a7a:	4613      	mov	r3, r2
   21a7c:	df02      	svc	2
   21a7e:	2880      	cmp	r0, #128	@ 0x80
   21a80:	d21b      	bcs.n	21aba <_ZN20complex_dynamic_type3app17h3c11a45a85a2f99aE+0xc6>
   21a82:	2001      	movs	r0, #1
   21a84:	7028      	strb	r0, [r5, #0]
   21a86:	6069      	str	r1, [r5, #4]
   21a88:	482f      	ldr	r0, [pc, #188]	@ (21b48 <_ZN20complex_dynamic_type3app17h3c11a45a85a2f99aE+0x154>)
   21a8a:	2100      	movs	r1, #0
   21a8c:	460a      	mov	r2, r1
   21a8e:	460b      	mov	r3, r1
   21a90:	df03      	svc	3
   21a92:	a804      	add	r0, sp, #16
   21a94:	7800      	ldrb	r0, [r0, #0]
   21a96:	2802      	cmp	r0, #2
   21a98:	d048      	beq.n	21b2c <_ZN20complex_dynamic_type3app17h3c11a45a85a2f99aE+0x138>
   21a9a:	2804      	cmp	r0, #4
   21a9c:	d106      	bne.n	21aac <_ZN20complex_dynamic_type3app17h3c11a45a85a2f99aE+0xb8>
   21a9e:	482a      	ldr	r0, [pc, #168]	@ (21b48 <_ZN20complex_dynamic_type3app17h3c11a45a85a2f99aE+0x154>)
   21aa0:	2103      	movs	r1, #3
   21aa2:	2200      	movs	r2, #0
   21aa4:	4613      	mov	r3, r2
   21aa6:	df04      	svc	4
   21aa8:	b00d      	add	sp, #52	@ 0x34
   21aaa:	bdf0      	pop	{r4, r5, r6, r7, pc}
   21aac:	4826      	ldr	r0, [pc, #152]	@ (21b48 <_ZN20complex_dynamic_type3app17h3c11a45a85a2f99aE+0x154>)
   21aae:	2103      	movs	r1, #3
   21ab0:	2200      	movs	r2, #0
   21ab2:	4613      	mov	r3, r2
   21ab4:	df03      	svc	3
   21ab6:	b00d      	add	sp, #52	@ 0x34
   21ab8:	bdf0      	pop	{r4, r5, r6, r7, pc}
   21aba:	a804      	add	r0, sp, #16
   21abc:	7800      	ldrb	r0, [r0, #0]
   21abe:	2802      	cmp	r0, #2
   21ac0:	d00c      	beq.n	21adc <_ZN20complex_dynamic_type3app17h3c11a45a85a2f99aE+0xe8>
   21ac2:	2803      	cmp	r0, #3
   21ac4:	d105      	bne.n	21ad2 <_ZN20complex_dynamic_type3app17h3c11a45a85a2f99aE+0xde>
   21ac6:	4820      	ldr	r0, [pc, #128]	@ (21b48 <_ZN20complex_dynamic_type3app17h3c11a45a85a2f99aE+0x154>)
   21ac8:	2103      	movs	r1, #3
   21aca:	2200      	movs	r2, #0
   21acc:	4613      	mov	r3, r2
   21ace:	df03      	svc	3
   21ad0:	e004      	b.n	21adc <_ZN20complex_dynamic_type3app17h3c11a45a85a2f99aE+0xe8>
   21ad2:	481d      	ldr	r0, [pc, #116]	@ (21b48 <_ZN20complex_dynamic_type3app17h3c11a45a85a2f99aE+0x154>)
   21ad4:	2103      	movs	r1, #3
   21ad6:	2200      	movs	r2, #0
   21ad8:	4613      	mov	r3, r2
   21ada:	df04      	svc	4
   21adc:	a804      	add	r0, sp, #16
   21ade:	9900      	ldr	r1, [sp, #0]
   21ae0:	7001      	strb	r1, [r0, #0]
   21ae2:	a808      	add	r0, sp, #32
   21ae4:	7800      	ldrb	r0, [r0, #0]
   21ae6:	2804      	cmp	r0, #4
   21ae8:	d008      	beq.n	21afc <_ZN20complex_dynamic_type3app17h3c11a45a85a2f99aE+0x108>
   21aea:	2803      	cmp	r0, #3
   21aec:	d120      	bne.n	21b30 <_ZN20complex_dynamic_type3app17h3c11a45a85a2f99aE+0x13c>
   21aee:	4626      	mov	r6, r4
   21af0:	4815      	ldr	r0, [pc, #84]	@ (21b48 <_ZN20complex_dynamic_type3app17h3c11a45a85a2f99aE+0x154>)
   21af2:	2100      	movs	r1, #0
   21af4:	460a      	mov	r2, r1
   21af6:	460b      	mov	r3, r1
   21af8:	df03      	svc	3
   21afa:	e005      	b.n	21b08 <_ZN20complex_dynamic_type3app17h3c11a45a85a2f99aE+0x114>
   21afc:	4626      	mov	r6, r4
   21afe:	4812      	ldr	r0, [pc, #72]	@ (21b48 <_ZN20complex_dynamic_type3app17h3c11a45a85a2f99aE+0x154>)
   21b00:	2100      	movs	r1, #0
   21b02:	460a      	mov	r2, r1
   21b04:	460b      	mov	r3, r1
   21b06:	df04      	svc	4
   21b08:	a804      	add	r0, sp, #16
   21b0a:	7804      	ldrb	r4, [r0, #0]
   21b0c:	1c68      	adds	r0, r5, #1
   21b0e:	2213      	movs	r2, #19
   21b10:	4631      	mov	r1, r6
   21b12:	f009 fafb 	bl	2b10c <__aeabi_memcpy>
   21b16:	9802      	ldr	r0, [sp, #8]
   21b18:	7028      	strb	r0, [r5, #0]
   21b1a:	2c02      	cmp	r4, #2
   21b1c:	d006      	beq.n	21b2c <_ZN20complex_dynamic_type3app17h3c11a45a85a2f99aE+0x138>
   21b1e:	480a      	ldr	r0, [pc, #40]	@ (21b48 <_ZN20complex_dynamic_type3app17h3c11a45a85a2f99aE+0x154>)
   21b20:	2103      	movs	r1, #3
   21b22:	2200      	movs	r2, #0
   21b24:	4613      	mov	r3, r2
   21b26:	2c04      	cmp	r4, #4
   21b28:	d10b      	bne.n	21b42 <_ZN20complex_dynamic_type3app17h3c11a45a85a2f99aE+0x14e>
   21b2a:	df04      	svc	4
   21b2c:	b00d      	add	sp, #52	@ 0x34
   21b2e:	bdf0      	pop	{r4, r5, r6, r7, pc}
   21b30:	1c68      	adds	r0, r5, #1
   21b32:	2213      	movs	r2, #19
   21b34:	4621      	mov	r1, r4
   21b36:	f009 fae9 	bl	2b10c <__aeabi_memcpy>
   21b3a:	9802      	ldr	r0, [sp, #8]
   21b3c:	7028      	strb	r0, [r5, #0]
   21b3e:	b00d      	add	sp, #52	@ 0x34
   21b40:	bdf0      	pop	{r4, r5, r6, r7, pc}
   21b42:	df03      	svc	3
   21b44:	b00d      	add	sp, #52	@ 0x34
   21b46:	bdf0      	pop	{r4, r5, r6, r7, pc}
   21b48:	00001e4b 	.word	0x00001e4b

00021b4c <_ZN20complex_dynamic_type3app17h3f30240c46054220E>:
   21b4c:	b5f0      	push	{r4, r5, r6, r7, lr}
   21b4e:	af03      	add	r7, sp, #12
   21b50:	b0ad      	sub	sp, #180	@ 0xb4
   21b52:	9004      	str	r0, [sp, #16]
   21b54:	a805      	add	r0, sp, #20
   21b56:	2402      	movs	r4, #2
   21b58:	7004      	strb	r4, [r0, #0]
   21b5a:	1c46      	adds	r6, r0, #1
   21b5c:	2246      	movs	r2, #70	@ 0x46
   21b5e:	9203      	str	r2, [sp, #12]
   21b60:	4630      	mov	r0, r6
   21b62:	f009 fad3 	bl	2b10c <__aeabi_memcpy>
   21b66:	ad17      	add	r5, sp, #92	@ 0x5c
   21b68:	1c68      	adds	r0, r5, #1
   21b6a:	2156      	movs	r1, #86	@ 0x56
   21b6c:	9002      	str	r0, [sp, #8]
   21b6e:	f009 f90d 	bl	2ad8c <__aeabi_memclr>
   21b72:	9401      	str	r4, [sp, #4]
   21b74:	702c      	strb	r4, [r5, #0]
   21b76:	4848      	ldr	r0, [pc, #288]	@ (21c98 <_ZN20complex_dynamic_type3app17h3f30240c46054220E+0x14c>)
   21b78:	2107      	movs	r1, #7
   21b7a:	4632      	mov	r2, r6
   21b7c:	9b03      	ldr	r3, [sp, #12]
   21b7e:	df04      	svc	4
   21b80:	2802      	cmp	r0, #2
   21b82:	d104      	bne.n	21b8e <_ZN20complex_dynamic_type3app17h3f30240c46054220E+0x42>
   21b84:	2001      	movs	r0, #1
   21b86:	9a04      	ldr	r2, [sp, #16]
   21b88:	7010      	strb	r0, [r2, #0]
   21b8a:	6051      	str	r1, [r2, #4]
   21b8c:	e02c      	b.n	21be8 <_ZN20complex_dynamic_type3app17h3f30240c46054220E+0x9c>
   21b8e:	9d04      	ldr	r5, [sp, #16]
   21b90:	a805      	add	r0, sp, #20
   21b92:	2104      	movs	r1, #4
   21b94:	7001      	strb	r1, [r0, #0]
   21b96:	4840      	ldr	r0, [pc, #256]	@ (21c98 <_ZN20complex_dynamic_type3app17h3f30240c46054220E+0x14c>)
   21b98:	2403      	movs	r4, #3
   21b9a:	2356      	movs	r3, #86	@ 0x56
   21b9c:	4621      	mov	r1, r4
   21b9e:	9a02      	ldr	r2, [sp, #8]
   21ba0:	df03      	svc	3
   21ba2:	2802      	cmp	r0, #2
   21ba4:	d10e      	bne.n	21bc4 <_ZN20complex_dynamic_type3app17h3f30240c46054220E+0x78>
   21ba6:	2001      	movs	r0, #1
   21ba8:	7028      	strb	r0, [r5, #0]
   21baa:	6069      	str	r1, [r5, #4]
   21bac:	a817      	add	r0, sp, #92	@ 0x5c
   21bae:	7800      	ldrb	r0, [r0, #0]
   21bb0:	2802      	cmp	r0, #2
   21bb2:	d019      	beq.n	21be8 <_ZN20complex_dynamic_type3app17h3f30240c46054220E+0x9c>
   21bb4:	2803      	cmp	r0, #3
   21bb6:	d012      	beq.n	21bde <_ZN20complex_dynamic_type3app17h3f30240c46054220E+0x92>
   21bb8:	4837      	ldr	r0, [pc, #220]	@ (21c98 <_ZN20complex_dynamic_type3app17h3f30240c46054220E+0x14c>)
   21bba:	2103      	movs	r1, #3
   21bbc:	2200      	movs	r2, #0
   21bbe:	4613      	mov	r3, r2
   21bc0:	df04      	svc	4
   21bc2:	e011      	b.n	21be8 <_ZN20complex_dynamic_type3app17h3f30240c46054220E+0x9c>
   21bc4:	a817      	add	r0, sp, #92	@ 0x5c
   21bc6:	7004      	strb	r4, [r0, #0]
   21bc8:	4833      	ldr	r0, [pc, #204]	@ (21c98 <_ZN20complex_dynamic_type3app17h3f30240c46054220E+0x14c>)
   21bca:	2107      	movs	r1, #7
   21bcc:	2600      	movs	r6, #0
   21bce:	4622      	mov	r2, r4
   21bd0:	4633      	mov	r3, r6
   21bd2:	df02      	svc	2
   21bd4:	2880      	cmp	r0, #128	@ 0x80
   21bd6:	d21b      	bcs.n	21c10 <_ZN20complex_dynamic_type3app17h3f30240c46054220E+0xc4>
   21bd8:	2001      	movs	r0, #1
   21bda:	7028      	strb	r0, [r5, #0]
   21bdc:	6069      	str	r1, [r5, #4]
   21bde:	482e      	ldr	r0, [pc, #184]	@ (21c98 <_ZN20complex_dynamic_type3app17h3f30240c46054220E+0x14c>)
   21be0:	2103      	movs	r1, #3
   21be2:	2200      	movs	r2, #0
   21be4:	4613      	mov	r3, r2
   21be6:	df03      	svc	3
   21be8:	a805      	add	r0, sp, #20
   21bea:	7800      	ldrb	r0, [r0, #0]
   21bec:	2802      	cmp	r0, #2
   21bee:	d045      	beq.n	21c7c <_ZN20complex_dynamic_type3app17h3f30240c46054220E+0x130>
   21bf0:	2804      	cmp	r0, #4
   21bf2:	d106      	bne.n	21c02 <_ZN20complex_dynamic_type3app17h3f30240c46054220E+0xb6>
   21bf4:	4828      	ldr	r0, [pc, #160]	@ (21c98 <_ZN20complex_dynamic_type3app17h3f30240c46054220E+0x14c>)
   21bf6:	2107      	movs	r1, #7
   21bf8:	2200      	movs	r2, #0
   21bfa:	4613      	mov	r3, r2
   21bfc:	df04      	svc	4
   21bfe:	b02d      	add	sp, #180	@ 0xb4
   21c00:	bdf0      	pop	{r4, r5, r6, r7, pc}
   21c02:	4825      	ldr	r0, [pc, #148]	@ (21c98 <_ZN20complex_dynamic_type3app17h3f30240c46054220E+0x14c>)
   21c04:	2107      	movs	r1, #7
   21c06:	2200      	movs	r2, #0
   21c08:	4613      	mov	r3, r2
   21c0a:	df03      	svc	3
   21c0c:	b02d      	add	sp, #180	@ 0xb4
   21c0e:	bdf0      	pop	{r4, r5, r6, r7, pc}
   21c10:	a805      	add	r0, sp, #20
   21c12:	7800      	ldrb	r0, [r0, #0]
   21c14:	2802      	cmp	r0, #2
   21c16:	d00c      	beq.n	21c32 <_ZN20complex_dynamic_type3app17h3f30240c46054220E+0xe6>
   21c18:	2803      	cmp	r0, #3
   21c1a:	d105      	bne.n	21c28 <_ZN20complex_dynamic_type3app17h3f30240c46054220E+0xdc>
   21c1c:	481e      	ldr	r0, [pc, #120]	@ (21c98 <_ZN20complex_dynamic_type3app17h3f30240c46054220E+0x14c>)
   21c1e:	2107      	movs	r1, #7
   21c20:	2200      	movs	r2, #0
   21c22:	4613      	mov	r3, r2
   21c24:	df03      	svc	3
   21c26:	e004      	b.n	21c32 <_ZN20complex_dynamic_type3app17h3f30240c46054220E+0xe6>
   21c28:	481b      	ldr	r0, [pc, #108]	@ (21c98 <_ZN20complex_dynamic_type3app17h3f30240c46054220E+0x14c>)
   21c2a:	2107      	movs	r1, #7
   21c2c:	2200      	movs	r2, #0
   21c2e:	4613      	mov	r3, r2
   21c30:	df04      	svc	4
   21c32:	a805      	add	r0, sp, #20
   21c34:	9901      	ldr	r1, [sp, #4]
   21c36:	7001      	strb	r1, [r0, #0]
   21c38:	a817      	add	r0, sp, #92	@ 0x5c
   21c3a:	7800      	ldrb	r0, [r0, #0]
   21c3c:	2804      	cmp	r0, #4
   21c3e:	d007      	beq.n	21c50 <_ZN20complex_dynamic_type3app17h3f30240c46054220E+0x104>
   21c40:	2803      	cmp	r0, #3
   21c42:	d11d      	bne.n	21c80 <_ZN20complex_dynamic_type3app17h3f30240c46054220E+0x134>
   21c44:	4814      	ldr	r0, [pc, #80]	@ (21c98 <_ZN20complex_dynamic_type3app17h3f30240c46054220E+0x14c>)
   21c46:	2103      	movs	r1, #3
   21c48:	2200      	movs	r2, #0
   21c4a:	4613      	mov	r3, r2
   21c4c:	df03      	svc	3
   21c4e:	e004      	b.n	21c5a <_ZN20complex_dynamic_type3app17h3f30240c46054220E+0x10e>
   21c50:	4811      	ldr	r0, [pc, #68]	@ (21c98 <_ZN20complex_dynamic_type3app17h3f30240c46054220E+0x14c>)
   21c52:	2103      	movs	r1, #3
   21c54:	2200      	movs	r2, #0
   21c56:	4613      	mov	r3, r2
   21c58:	df04      	svc	4
   21c5a:	a805      	add	r0, sp, #20
   21c5c:	7804      	ldrb	r4, [r0, #0]
   21c5e:	1c68      	adds	r0, r5, #1
   21c60:	2256      	movs	r2, #86	@ 0x56
   21c62:	9902      	ldr	r1, [sp, #8]
   21c64:	f009 fa52 	bl	2b10c <__aeabi_memcpy>
   21c68:	702e      	strb	r6, [r5, #0]
   21c6a:	2c02      	cmp	r4, #2
   21c6c:	d006      	beq.n	21c7c <_ZN20complex_dynamic_type3app17h3f30240c46054220E+0x130>
   21c6e:	480a      	ldr	r0, [pc, #40]	@ (21c98 <_ZN20complex_dynamic_type3app17h3f30240c46054220E+0x14c>)
   21c70:	2107      	movs	r1, #7
   21c72:	2200      	movs	r2, #0
   21c74:	4613      	mov	r3, r2
   21c76:	2c04      	cmp	r4, #4
   21c78:	d10a      	bne.n	21c90 <_ZN20complex_dynamic_type3app17h3f30240c46054220E+0x144>
   21c7a:	df04      	svc	4
   21c7c:	b02d      	add	sp, #180	@ 0xb4
   21c7e:	bdf0      	pop	{r4, r5, r6, r7, pc}
   21c80:	1c68      	adds	r0, r5, #1
   21c82:	2256      	movs	r2, #86	@ 0x56
   21c84:	9902      	ldr	r1, [sp, #8]
   21c86:	f009 fa41 	bl	2b10c <__aeabi_memcpy>
   21c8a:	702e      	strb	r6, [r5, #0]
   21c8c:	b02d      	add	sp, #180	@ 0xb4
   21c8e:	bdf0      	pop	{r4, r5, r6, r7, pc}
   21c90:	df03      	svc	3
   21c92:	b02d      	add	sp, #180	@ 0xb4
   21c94:	bdf0      	pop	{r4, r5, r6, r7, pc}
   21c96:	46c0      	nop			@ (mov r8, r8)
   21c98:	00001e50 	.word	0x00001e50

00021c9c <_ZN20complex_dynamic_type3app17h42aa0f2161b4cce4E>:
   21c9c:	b5f0      	push	{r4, r5, r6, r7, lr}
   21c9e:	af03      	add	r7, sp, #12
   21ca0:	b099      	sub	sp, #100	@ 0x64
   21ca2:	9003      	str	r0, [sp, #12]
   21ca4:	a804      	add	r0, sp, #16
   21ca6:	2402      	movs	r4, #2
   21ca8:	7004      	strb	r4, [r0, #0]
   21caa:	1c46      	adds	r6, r0, #1
   21cac:	223f      	movs	r2, #63	@ 0x3f
   21cae:	9202      	str	r2, [sp, #8]
   21cb0:	4630      	mov	r0, r6
   21cb2:	f009 fa2b 	bl	2b10c <__aeabi_memcpy>
   21cb6:	ad14      	add	r5, sp, #80	@ 0x50
   21cb8:	1c68      	adds	r0, r5, #1
   21cba:	2111      	movs	r1, #17
   21cbc:	9001      	str	r0, [sp, #4]
   21cbe:	f009 f865 	bl	2ad8c <__aeabi_memclr>
   21cc2:	9400      	str	r4, [sp, #0]
   21cc4:	702c      	strb	r4, [r5, #0]
   21cc6:	4848      	ldr	r0, [pc, #288]	@ (21de8 <_ZN20complex_dynamic_type3app17h42aa0f2161b4cce4E+0x14c>)
   21cc8:	2504      	movs	r5, #4
   21cca:	4629      	mov	r1, r5
   21ccc:	4632      	mov	r2, r6
   21cce:	9b02      	ldr	r3, [sp, #8]
   21cd0:	df04      	svc	4
   21cd2:	2802      	cmp	r0, #2
   21cd4:	d104      	bne.n	21ce0 <_ZN20complex_dynamic_type3app17h42aa0f2161b4cce4E+0x44>
   21cd6:	2001      	movs	r0, #1
   21cd8:	9a03      	ldr	r2, [sp, #12]
   21cda:	7010      	strb	r0, [r2, #0]
   21cdc:	6051      	str	r1, [r2, #4]
   21cde:	e02b      	b.n	21d38 <_ZN20complex_dynamic_type3app17h42aa0f2161b4cce4E+0x9c>
   21ce0:	9e03      	ldr	r6, [sp, #12]
   21ce2:	a804      	add	r0, sp, #16
   21ce4:	7005      	strb	r5, [r0, #0]
   21ce6:	4840      	ldr	r0, [pc, #256]	@ (21de8 <_ZN20complex_dynamic_type3app17h42aa0f2161b4cce4E+0x14c>)
   21ce8:	2403      	movs	r4, #3
   21cea:	2311      	movs	r3, #17
   21cec:	4621      	mov	r1, r4
   21cee:	9a01      	ldr	r2, [sp, #4]
   21cf0:	df03      	svc	3
   21cf2:	2802      	cmp	r0, #2
   21cf4:	d10e      	bne.n	21d14 <_ZN20complex_dynamic_type3app17h42aa0f2161b4cce4E+0x78>
   21cf6:	2001      	movs	r0, #1
   21cf8:	7030      	strb	r0, [r6, #0]
   21cfa:	6071      	str	r1, [r6, #4]
   21cfc:	a814      	add	r0, sp, #80	@ 0x50
   21cfe:	7800      	ldrb	r0, [r0, #0]
   21d00:	2802      	cmp	r0, #2
   21d02:	d019      	beq.n	21d38 <_ZN20complex_dynamic_type3app17h42aa0f2161b4cce4E+0x9c>
   21d04:	2803      	cmp	r0, #3
   21d06:	d012      	beq.n	21d2e <_ZN20complex_dynamic_type3app17h42aa0f2161b4cce4E+0x92>
   21d08:	4837      	ldr	r0, [pc, #220]	@ (21de8 <_ZN20complex_dynamic_type3app17h42aa0f2161b4cce4E+0x14c>)
   21d0a:	2103      	movs	r1, #3
   21d0c:	2200      	movs	r2, #0
   21d0e:	4613      	mov	r3, r2
   21d10:	df04      	svc	4
   21d12:	e011      	b.n	21d38 <_ZN20complex_dynamic_type3app17h42aa0f2161b4cce4E+0x9c>
   21d14:	a814      	add	r0, sp, #80	@ 0x50
   21d16:	7004      	strb	r4, [r0, #0]
   21d18:	4833      	ldr	r0, [pc, #204]	@ (21de8 <_ZN20complex_dynamic_type3app17h42aa0f2161b4cce4E+0x14c>)
   21d1a:	2104      	movs	r1, #4
   21d1c:	2500      	movs	r5, #0
   21d1e:	4622      	mov	r2, r4
   21d20:	462b      	mov	r3, r5
   21d22:	df02      	svc	2
   21d24:	2880      	cmp	r0, #128	@ 0x80
   21d26:	d21b      	bcs.n	21d60 <_ZN20complex_dynamic_type3app17h42aa0f2161b4cce4E+0xc4>
   21d28:	2001      	movs	r0, #1
   21d2a:	7030      	strb	r0, [r6, #0]
   21d2c:	6071      	str	r1, [r6, #4]
   21d2e:	482e      	ldr	r0, [pc, #184]	@ (21de8 <_ZN20complex_dynamic_type3app17h42aa0f2161b4cce4E+0x14c>)
   21d30:	2103      	movs	r1, #3
   21d32:	2200      	movs	r2, #0
   21d34:	4613      	mov	r3, r2
   21d36:	df03      	svc	3
   21d38:	a804      	add	r0, sp, #16
   21d3a:	7800      	ldrb	r0, [r0, #0]
   21d3c:	2802      	cmp	r0, #2
   21d3e:	d045      	beq.n	21dcc <_ZN20complex_dynamic_type3app17h42aa0f2161b4cce4E+0x130>
   21d40:	2804      	cmp	r0, #4
   21d42:	d106      	bne.n	21d52 <_ZN20complex_dynamic_type3app17h42aa0f2161b4cce4E+0xb6>
   21d44:	4828      	ldr	r0, [pc, #160]	@ (21de8 <_ZN20complex_dynamic_type3app17h42aa0f2161b4cce4E+0x14c>)
   21d46:	2104      	movs	r1, #4
   21d48:	2200      	movs	r2, #0
   21d4a:	4613      	mov	r3, r2
   21d4c:	df04      	svc	4
   21d4e:	b019      	add	sp, #100	@ 0x64
   21d50:	bdf0      	pop	{r4, r5, r6, r7, pc}
   21d52:	4825      	ldr	r0, [pc, #148]	@ (21de8 <_ZN20complex_dynamic_type3app17h42aa0f2161b4cce4E+0x14c>)
   21d54:	2104      	movs	r1, #4
   21d56:	2200      	movs	r2, #0
   21d58:	4613      	mov	r3, r2
   21d5a:	df03      	svc	3
   21d5c:	b019      	add	sp, #100	@ 0x64
   21d5e:	bdf0      	pop	{r4, r5, r6, r7, pc}
   21d60:	a804      	add	r0, sp, #16
   21d62:	7800      	ldrb	r0, [r0, #0]
   21d64:	2802      	cmp	r0, #2
   21d66:	d00c      	beq.n	21d82 <_ZN20complex_dynamic_type3app17h42aa0f2161b4cce4E+0xe6>
   21d68:	2803      	cmp	r0, #3
   21d6a:	d105      	bne.n	21d78 <_ZN20complex_dynamic_type3app17h42aa0f2161b4cce4E+0xdc>
   21d6c:	481e      	ldr	r0, [pc, #120]	@ (21de8 <_ZN20complex_dynamic_type3app17h42aa0f2161b4cce4E+0x14c>)
   21d6e:	2104      	movs	r1, #4
   21d70:	2200      	movs	r2, #0
   21d72:	4613      	mov	r3, r2
   21d74:	df03      	svc	3
   21d76:	e004      	b.n	21d82 <_ZN20complex_dynamic_type3app17h42aa0f2161b4cce4E+0xe6>
   21d78:	481b      	ldr	r0, [pc, #108]	@ (21de8 <_ZN20complex_dynamic_type3app17h42aa0f2161b4cce4E+0x14c>)
   21d7a:	2104      	movs	r1, #4
   21d7c:	2200      	movs	r2, #0
   21d7e:	4613      	mov	r3, r2
   21d80:	df04      	svc	4
   21d82:	a804      	add	r0, sp, #16
   21d84:	9900      	ldr	r1, [sp, #0]
   21d86:	7001      	strb	r1, [r0, #0]
   21d88:	a814      	add	r0, sp, #80	@ 0x50
   21d8a:	7800      	ldrb	r0, [r0, #0]
   21d8c:	2804      	cmp	r0, #4
   21d8e:	d007      	beq.n	21da0 <_ZN20complex_dynamic_type3app17h42aa0f2161b4cce4E+0x104>
   21d90:	2803      	cmp	r0, #3
   21d92:	d11d      	bne.n	21dd0 <_ZN20complex_dynamic_type3app17h42aa0f2161b4cce4E+0x134>
   21d94:	4814      	ldr	r0, [pc, #80]	@ (21de8 <_ZN20complex_dynamic_type3app17h42aa0f2161b4cce4E+0x14c>)
   21d96:	2103      	movs	r1, #3
   21d98:	2200      	movs	r2, #0
   21d9a:	4613      	mov	r3, r2
   21d9c:	df03      	svc	3
   21d9e:	e004      	b.n	21daa <_ZN20complex_dynamic_type3app17h42aa0f2161b4cce4E+0x10e>
   21da0:	4811      	ldr	r0, [pc, #68]	@ (21de8 <_ZN20complex_dynamic_type3app17h42aa0f2161b4cce4E+0x14c>)
   21da2:	2103      	movs	r1, #3
   21da4:	2200      	movs	r2, #0
   21da6:	4613      	mov	r3, r2
   21da8:	df04      	svc	4
   21daa:	a804      	add	r0, sp, #16
   21dac:	7804      	ldrb	r4, [r0, #0]
   21dae:	1c70      	adds	r0, r6, #1
   21db0:	2211      	movs	r2, #17
   21db2:	9901      	ldr	r1, [sp, #4]
   21db4:	f009 f9aa 	bl	2b10c <__aeabi_memcpy>
   21db8:	7035      	strb	r5, [r6, #0]
   21dba:	2c02      	cmp	r4, #2
   21dbc:	d006      	beq.n	21dcc <_ZN20complex_dynamic_type3app17h42aa0f2161b4cce4E+0x130>
   21dbe:	480a      	ldr	r0, [pc, #40]	@ (21de8 <_ZN20complex_dynamic_type3app17h42aa0f2161b4cce4E+0x14c>)
   21dc0:	2104      	movs	r1, #4
   21dc2:	2200      	movs	r2, #0
   21dc4:	4613      	mov	r3, r2
   21dc6:	2c04      	cmp	r4, #4
   21dc8:	d10a      	bne.n	21de0 <_ZN20complex_dynamic_type3app17h42aa0f2161b4cce4E+0x144>
   21dca:	df04      	svc	4
   21dcc:	b019      	add	sp, #100	@ 0x64
   21dce:	bdf0      	pop	{r4, r5, r6, r7, pc}
   21dd0:	1c70      	adds	r0, r6, #1
   21dd2:	2211      	movs	r2, #17
   21dd4:	9901      	ldr	r1, [sp, #4]
   21dd6:	f009 f999 	bl	2b10c <__aeabi_memcpy>
   21dda:	7035      	strb	r5, [r6, #0]
   21ddc:	b019      	add	sp, #100	@ 0x64
   21dde:	bdf0      	pop	{r4, r5, r6, r7, pc}
   21de0:	df03      	svc	3
   21de2:	b019      	add	sp, #100	@ 0x64
   21de4:	bdf0      	pop	{r4, r5, r6, r7, pc}
   21de6:	46c0      	nop			@ (mov r8, r8)
   21de8:	000014d7 	.word	0x000014d7

00021dec <_ZN20complex_dynamic_type3app17h469109ad4f2cf727E>:
   21dec:	b5f0      	push	{r4, r5, r6, r7, lr}
   21dee:	af03      	add	r7, sp, #12
   21df0:	b0a3      	sub	sp, #140	@ 0x8c
   21df2:	9004      	str	r0, [sp, #16]
   21df4:	a805      	add	r0, sp, #20
   21df6:	2402      	movs	r4, #2
   21df8:	7004      	strb	r4, [r0, #0]
   21dfa:	1c46      	adds	r6, r0, #1
   21dfc:	2222      	movs	r2, #34	@ 0x22
   21dfe:	9203      	str	r2, [sp, #12]
   21e00:	4630      	mov	r0, r6
   21e02:	f009 f983 	bl	2b10c <__aeabi_memcpy>
   21e06:	ad0e      	add	r5, sp, #56	@ 0x38
   21e08:	1c68      	adds	r0, r5, #1
   21e0a:	2151      	movs	r1, #81	@ 0x51
   21e0c:	9002      	str	r0, [sp, #8]
   21e0e:	f008 ffbd 	bl	2ad8c <__aeabi_memclr>
   21e12:	9401      	str	r4, [sp, #4]
   21e14:	702c      	strb	r4, [r5, #0]
   21e16:	4848      	ldr	r0, [pc, #288]	@ (21f38 <_ZN20complex_dynamic_type3app17h469109ad4f2cf727E+0x14c>)
   21e18:	2109      	movs	r1, #9
   21e1a:	4632      	mov	r2, r6
   21e1c:	9b03      	ldr	r3, [sp, #12]
   21e1e:	df04      	svc	4
   21e20:	2802      	cmp	r0, #2
   21e22:	d104      	bne.n	21e2e <_ZN20complex_dynamic_type3app17h469109ad4f2cf727E+0x42>
   21e24:	2001      	movs	r0, #1
   21e26:	9a04      	ldr	r2, [sp, #16]
   21e28:	7010      	strb	r0, [r2, #0]
   21e2a:	6051      	str	r1, [r2, #4]
   21e2c:	e02d      	b.n	21e8a <_ZN20complex_dynamic_type3app17h469109ad4f2cf727E+0x9e>
   21e2e:	9d04      	ldr	r5, [sp, #16]
   21e30:	a805      	add	r0, sp, #20
   21e32:	2104      	movs	r1, #4
   21e34:	7001      	strb	r1, [r0, #0]
   21e36:	4840      	ldr	r0, [pc, #256]	@ (21f38 <_ZN20complex_dynamic_type3app17h469109ad4f2cf727E+0x14c>)
   21e38:	2109      	movs	r1, #9
   21e3a:	2351      	movs	r3, #81	@ 0x51
   21e3c:	9c02      	ldr	r4, [sp, #8]
   21e3e:	4622      	mov	r2, r4
   21e40:	df03      	svc	3
   21e42:	2802      	cmp	r0, #2
   21e44:	d10e      	bne.n	21e64 <_ZN20complex_dynamic_type3app17h469109ad4f2cf727E+0x78>
   21e46:	2001      	movs	r0, #1
   21e48:	7028      	strb	r0, [r5, #0]
   21e4a:	6069      	str	r1, [r5, #4]
   21e4c:	a80e      	add	r0, sp, #56	@ 0x38
   21e4e:	7800      	ldrb	r0, [r0, #0]
   21e50:	2802      	cmp	r0, #2
   21e52:	d01a      	beq.n	21e8a <_ZN20complex_dynamic_type3app17h469109ad4f2cf727E+0x9e>
   21e54:	2803      	cmp	r0, #3
   21e56:	d013      	beq.n	21e80 <_ZN20complex_dynamic_type3app17h469109ad4f2cf727E+0x94>
   21e58:	4837      	ldr	r0, [pc, #220]	@ (21f38 <_ZN20complex_dynamic_type3app17h469109ad4f2cf727E+0x14c>)
   21e5a:	2109      	movs	r1, #9
   21e5c:	2200      	movs	r2, #0
   21e5e:	4613      	mov	r3, r2
   21e60:	df04      	svc	4
   21e62:	e012      	b.n	21e8a <_ZN20complex_dynamic_type3app17h469109ad4f2cf727E+0x9e>
   21e64:	a80e      	add	r0, sp, #56	@ 0x38
   21e66:	2103      	movs	r1, #3
   21e68:	7001      	strb	r1, [r0, #0]
   21e6a:	4833      	ldr	r0, [pc, #204]	@ (21f38 <_ZN20complex_dynamic_type3app17h469109ad4f2cf727E+0x14c>)
   21e6c:	2109      	movs	r1, #9
   21e6e:	2600      	movs	r6, #0
   21e70:	460a      	mov	r2, r1
   21e72:	4633      	mov	r3, r6
   21e74:	df02      	svc	2
   21e76:	2880      	cmp	r0, #128	@ 0x80
   21e78:	d21b      	bcs.n	21eb2 <_ZN20complex_dynamic_type3app17h469109ad4f2cf727E+0xc6>
   21e7a:	2001      	movs	r0, #1
   21e7c:	7028      	strb	r0, [r5, #0]
   21e7e:	6069      	str	r1, [r5, #4]
   21e80:	482d      	ldr	r0, [pc, #180]	@ (21f38 <_ZN20complex_dynamic_type3app17h469109ad4f2cf727E+0x14c>)
   21e82:	2109      	movs	r1, #9
   21e84:	2200      	movs	r2, #0
   21e86:	4613      	mov	r3, r2
   21e88:	df03      	svc	3
   21e8a:	a805      	add	r0, sp, #20
   21e8c:	7800      	ldrb	r0, [r0, #0]
   21e8e:	2802      	cmp	r0, #2
   21e90:	d045      	beq.n	21f1e <_ZN20complex_dynamic_type3app17h469109ad4f2cf727E+0x132>
   21e92:	2804      	cmp	r0, #4
   21e94:	d106      	bne.n	21ea4 <_ZN20complex_dynamic_type3app17h469109ad4f2cf727E+0xb8>
   21e96:	4828      	ldr	r0, [pc, #160]	@ (21f38 <_ZN20complex_dynamic_type3app17h469109ad4f2cf727E+0x14c>)
   21e98:	2109      	movs	r1, #9
   21e9a:	2200      	movs	r2, #0
   21e9c:	4613      	mov	r3, r2
   21e9e:	df04      	svc	4
   21ea0:	b023      	add	sp, #140	@ 0x8c
   21ea2:	bdf0      	pop	{r4, r5, r6, r7, pc}
   21ea4:	4824      	ldr	r0, [pc, #144]	@ (21f38 <_ZN20complex_dynamic_type3app17h469109ad4f2cf727E+0x14c>)
   21ea6:	2109      	movs	r1, #9
   21ea8:	2200      	movs	r2, #0
   21eaa:	4613      	mov	r3, r2
   21eac:	df03      	svc	3
   21eae:	b023      	add	sp, #140	@ 0x8c
   21eb0:	bdf0      	pop	{r4, r5, r6, r7, pc}
   21eb2:	a805      	add	r0, sp, #20
   21eb4:	7800      	ldrb	r0, [r0, #0]
   21eb6:	2802      	cmp	r0, #2
   21eb8:	d00c      	beq.n	21ed4 <_ZN20complex_dynamic_type3app17h469109ad4f2cf727E+0xe8>
   21eba:	2803      	cmp	r0, #3
   21ebc:	d105      	bne.n	21eca <_ZN20complex_dynamic_type3app17h469109ad4f2cf727E+0xde>
   21ebe:	481e      	ldr	r0, [pc, #120]	@ (21f38 <_ZN20complex_dynamic_type3app17h469109ad4f2cf727E+0x14c>)
   21ec0:	2109      	movs	r1, #9
   21ec2:	2200      	movs	r2, #0
   21ec4:	4613      	mov	r3, r2
   21ec6:	df03      	svc	3
   21ec8:	e004      	b.n	21ed4 <_ZN20complex_dynamic_type3app17h469109ad4f2cf727E+0xe8>
   21eca:	481b      	ldr	r0, [pc, #108]	@ (21f38 <_ZN20complex_dynamic_type3app17h469109ad4f2cf727E+0x14c>)
   21ecc:	2109      	movs	r1, #9
   21ece:	2200      	movs	r2, #0
   21ed0:	4613      	mov	r3, r2
   21ed2:	df04      	svc	4
   21ed4:	a805      	add	r0, sp, #20
   21ed6:	9901      	ldr	r1, [sp, #4]
   21ed8:	7001      	strb	r1, [r0, #0]
   21eda:	a80e      	add	r0, sp, #56	@ 0x38
   21edc:	7800      	ldrb	r0, [r0, #0]
   21ede:	2804      	cmp	r0, #4
   21ee0:	d007      	beq.n	21ef2 <_ZN20complex_dynamic_type3app17h469109ad4f2cf727E+0x106>
   21ee2:	2803      	cmp	r0, #3
   21ee4:	d11d      	bne.n	21f22 <_ZN20complex_dynamic_type3app17h469109ad4f2cf727E+0x136>
   21ee6:	4814      	ldr	r0, [pc, #80]	@ (21f38 <_ZN20complex_dynamic_type3app17h469109ad4f2cf727E+0x14c>)
   21ee8:	2109      	movs	r1, #9
   21eea:	2200      	movs	r2, #0
   21eec:	4613      	mov	r3, r2
   21eee:	df03      	svc	3
   21ef0:	e004      	b.n	21efc <_ZN20complex_dynamic_type3app17h469109ad4f2cf727E+0x110>
   21ef2:	4811      	ldr	r0, [pc, #68]	@ (21f38 <_ZN20complex_dynamic_type3app17h469109ad4f2cf727E+0x14c>)
   21ef4:	2109      	movs	r1, #9
   21ef6:	2200      	movs	r2, #0
   21ef8:	4613      	mov	r3, r2
   21efa:	df04      	svc	4
   21efc:	a805      	add	r0, sp, #20
   21efe:	7804      	ldrb	r4, [r0, #0]
   21f00:	1c68      	adds	r0, r5, #1
   21f02:	2251      	movs	r2, #81	@ 0x51
   21f04:	9902      	ldr	r1, [sp, #8]
   21f06:	f009 f901 	bl	2b10c <__aeabi_memcpy>
   21f0a:	702e      	strb	r6, [r5, #0]
   21f0c:	2c02      	cmp	r4, #2
   21f0e:	d006      	beq.n	21f1e <_ZN20complex_dynamic_type3app17h469109ad4f2cf727E+0x132>
   21f10:	4809      	ldr	r0, [pc, #36]	@ (21f38 <_ZN20complex_dynamic_type3app17h469109ad4f2cf727E+0x14c>)
   21f12:	2109      	movs	r1, #9
   21f14:	2200      	movs	r2, #0
   21f16:	4613      	mov	r3, r2
   21f18:	2c04      	cmp	r4, #4
   21f1a:	d10a      	bne.n	21f32 <_ZN20complex_dynamic_type3app17h469109ad4f2cf727E+0x146>
   21f1c:	df04      	svc	4
   21f1e:	b023      	add	sp, #140	@ 0x8c
   21f20:	bdf0      	pop	{r4, r5, r6, r7, pc}
   21f22:	1c68      	adds	r0, r5, #1
   21f24:	2251      	movs	r2, #81	@ 0x51
   21f26:	4621      	mov	r1, r4
   21f28:	f009 f8f0 	bl	2b10c <__aeabi_memcpy>
   21f2c:	702e      	strb	r6, [r5, #0]
   21f2e:	b023      	add	sp, #140	@ 0x8c
   21f30:	bdf0      	pop	{r4, r5, r6, r7, pc}
   21f32:	df03      	svc	3
   21f34:	b023      	add	sp, #140	@ 0x8c
   21f36:	bdf0      	pop	{r4, r5, r6, r7, pc}
   21f38:	0000055e 	.word	0x0000055e

00021f3c <_ZN20complex_dynamic_type3app17h48e0c2bd4f8121bcE>:
   21f3c:	b5f0      	push	{r4, r5, r6, r7, lr}
   21f3e:	af03      	add	r7, sp, #12
   21f40:	b093      	sub	sp, #76	@ 0x4c
   21f42:	9003      	str	r0, [sp, #12]
   21f44:	a804      	add	r0, sp, #16
   21f46:	2402      	movs	r4, #2
   21f48:	7004      	strb	r4, [r0, #0]
   21f4a:	1c46      	adds	r6, r0, #1
   21f4c:	2218      	movs	r2, #24
   21f4e:	9202      	str	r2, [sp, #8]
   21f50:	4630      	mov	r0, r6
   21f52:	f009 f8db 	bl	2b10c <__aeabi_memcpy>
   21f56:	ad0b      	add	r5, sp, #44	@ 0x2c
   21f58:	1c68      	adds	r0, r5, #1
   21f5a:	211e      	movs	r1, #30
   21f5c:	9001      	str	r0, [sp, #4]
   21f5e:	f008 ff15 	bl	2ad8c <__aeabi_memclr>
   21f62:	9400      	str	r4, [sp, #0]
   21f64:	702c      	strb	r4, [r5, #0]
   21f66:	4848      	ldr	r0, [pc, #288]	@ (22088 <_ZN20complex_dynamic_type3app17h48e0c2bd4f8121bcE+0x14c>)
   21f68:	2109      	movs	r1, #9
   21f6a:	4632      	mov	r2, r6
   21f6c:	9b02      	ldr	r3, [sp, #8]
   21f6e:	df04      	svc	4
   21f70:	2802      	cmp	r0, #2
   21f72:	d104      	bne.n	21f7e <_ZN20complex_dynamic_type3app17h48e0c2bd4f8121bcE+0x42>
   21f74:	2001      	movs	r0, #1
   21f76:	9a03      	ldr	r2, [sp, #12]
   21f78:	7010      	strb	r0, [r2, #0]
   21f7a:	6051      	str	r1, [r2, #4]
   21f7c:	e02d      	b.n	21fda <_ZN20complex_dynamic_type3app17h48e0c2bd4f8121bcE+0x9e>
   21f7e:	9d03      	ldr	r5, [sp, #12]
   21f80:	a804      	add	r0, sp, #16
   21f82:	2104      	movs	r1, #4
   21f84:	7001      	strb	r1, [r0, #0]
   21f86:	4840      	ldr	r0, [pc, #256]	@ (22088 <_ZN20complex_dynamic_type3app17h48e0c2bd4f8121bcE+0x14c>)
   21f88:	2105      	movs	r1, #5
   21f8a:	231e      	movs	r3, #30
   21f8c:	9c01      	ldr	r4, [sp, #4]
   21f8e:	4622      	mov	r2, r4
   21f90:	df03      	svc	3
   21f92:	2802      	cmp	r0, #2
   21f94:	d10e      	bne.n	21fb4 <_ZN20complex_dynamic_type3app17h48e0c2bd4f8121bcE+0x78>
   21f96:	2001      	movs	r0, #1
   21f98:	7028      	strb	r0, [r5, #0]
   21f9a:	6069      	str	r1, [r5, #4]
   21f9c:	a80b      	add	r0, sp, #44	@ 0x2c
   21f9e:	7800      	ldrb	r0, [r0, #0]
   21fa0:	2802      	cmp	r0, #2
   21fa2:	d01a      	beq.n	21fda <_ZN20complex_dynamic_type3app17h48e0c2bd4f8121bcE+0x9e>
   21fa4:	2803      	cmp	r0, #3
   21fa6:	d013      	beq.n	21fd0 <_ZN20complex_dynamic_type3app17h48e0c2bd4f8121bcE+0x94>
   21fa8:	4837      	ldr	r0, [pc, #220]	@ (22088 <_ZN20complex_dynamic_type3app17h48e0c2bd4f8121bcE+0x14c>)
   21faa:	2105      	movs	r1, #5
   21fac:	2200      	movs	r2, #0
   21fae:	4613      	mov	r3, r2
   21fb0:	df04      	svc	4
   21fb2:	e012      	b.n	21fda <_ZN20complex_dynamic_type3app17h48e0c2bd4f8121bcE+0x9e>
   21fb4:	a80b      	add	r0, sp, #44	@ 0x2c
   21fb6:	2103      	movs	r1, #3
   21fb8:	7001      	strb	r1, [r0, #0]
   21fba:	4833      	ldr	r0, [pc, #204]	@ (22088 <_ZN20complex_dynamic_type3app17h48e0c2bd4f8121bcE+0x14c>)
   21fbc:	2109      	movs	r1, #9
   21fbe:	2205      	movs	r2, #5
   21fc0:	2600      	movs	r6, #0
   21fc2:	4633      	mov	r3, r6
   21fc4:	df02      	svc	2
   21fc6:	2880      	cmp	r0, #128	@ 0x80
   21fc8:	d21b      	bcs.n	22002 <_ZN20complex_dynamic_type3app17h48e0c2bd4f8121bcE+0xc6>
   21fca:	2001      	movs	r0, #1
   21fcc:	7028      	strb	r0, [r5, #0]
   21fce:	6069      	str	r1, [r5, #4]
   21fd0:	482d      	ldr	r0, [pc, #180]	@ (22088 <_ZN20complex_dynamic_type3app17h48e0c2bd4f8121bcE+0x14c>)
   21fd2:	2105      	movs	r1, #5
   21fd4:	2200      	movs	r2, #0
   21fd6:	4613      	mov	r3, r2
   21fd8:	df03      	svc	3
   21fda:	a804      	add	r0, sp, #16
   21fdc:	7800      	ldrb	r0, [r0, #0]
   21fde:	2802      	cmp	r0, #2
   21fe0:	d045      	beq.n	2206e <_ZN20complex_dynamic_type3app17h48e0c2bd4f8121bcE+0x132>
   21fe2:	2804      	cmp	r0, #4
   21fe4:	d106      	bne.n	21ff4 <_ZN20complex_dynamic_type3app17h48e0c2bd4f8121bcE+0xb8>
   21fe6:	4828      	ldr	r0, [pc, #160]	@ (22088 <_ZN20complex_dynamic_type3app17h48e0c2bd4f8121bcE+0x14c>)
   21fe8:	2109      	movs	r1, #9
   21fea:	2200      	movs	r2, #0
   21fec:	4613      	mov	r3, r2
   21fee:	df04      	svc	4
   21ff0:	b013      	add	sp, #76	@ 0x4c
   21ff2:	bdf0      	pop	{r4, r5, r6, r7, pc}
   21ff4:	4824      	ldr	r0, [pc, #144]	@ (22088 <_ZN20complex_dynamic_type3app17h48e0c2bd4f8121bcE+0x14c>)
   21ff6:	2109      	movs	r1, #9
   21ff8:	2200      	movs	r2, #0
   21ffa:	4613      	mov	r3, r2
   21ffc:	df03      	svc	3
   21ffe:	b013      	add	sp, #76	@ 0x4c
   22000:	bdf0      	pop	{r4, r5, r6, r7, pc}
   22002:	a804      	add	r0, sp, #16
   22004:	7800      	ldrb	r0, [r0, #0]
   22006:	2802      	cmp	r0, #2
   22008:	d00c      	beq.n	22024 <_ZN20complex_dynamic_type3app17h48e0c2bd4f8121bcE+0xe8>
   2200a:	2803      	cmp	r0, #3
   2200c:	d105      	bne.n	2201a <_ZN20complex_dynamic_type3app17h48e0c2bd4f8121bcE+0xde>
   2200e:	481e      	ldr	r0, [pc, #120]	@ (22088 <_ZN20complex_dynamic_type3app17h48e0c2bd4f8121bcE+0x14c>)
   22010:	2109      	movs	r1, #9
   22012:	2200      	movs	r2, #0
   22014:	4613      	mov	r3, r2
   22016:	df03      	svc	3
   22018:	e004      	b.n	22024 <_ZN20complex_dynamic_type3app17h48e0c2bd4f8121bcE+0xe8>
   2201a:	481b      	ldr	r0, [pc, #108]	@ (22088 <_ZN20complex_dynamic_type3app17h48e0c2bd4f8121bcE+0x14c>)
   2201c:	2109      	movs	r1, #9
   2201e:	2200      	movs	r2, #0
   22020:	4613      	mov	r3, r2
   22022:	df04      	svc	4
   22024:	a804      	add	r0, sp, #16
   22026:	9900      	ldr	r1, [sp, #0]
   22028:	7001      	strb	r1, [r0, #0]
   2202a:	a80b      	add	r0, sp, #44	@ 0x2c
   2202c:	7800      	ldrb	r0, [r0, #0]
   2202e:	2804      	cmp	r0, #4
   22030:	d007      	beq.n	22042 <_ZN20complex_dynamic_type3app17h48e0c2bd4f8121bcE+0x106>
   22032:	2803      	cmp	r0, #3
   22034:	d11d      	bne.n	22072 <_ZN20complex_dynamic_type3app17h48e0c2bd4f8121bcE+0x136>
   22036:	4814      	ldr	r0, [pc, #80]	@ (22088 <_ZN20complex_dynamic_type3app17h48e0c2bd4f8121bcE+0x14c>)
   22038:	2105      	movs	r1, #5
   2203a:	2200      	movs	r2, #0
   2203c:	4613      	mov	r3, r2
   2203e:	df03      	svc	3
   22040:	e004      	b.n	2204c <_ZN20complex_dynamic_type3app17h48e0c2bd4f8121bcE+0x110>
   22042:	4811      	ldr	r0, [pc, #68]	@ (22088 <_ZN20complex_dynamic_type3app17h48e0c2bd4f8121bcE+0x14c>)
   22044:	2105      	movs	r1, #5
   22046:	2200      	movs	r2, #0
   22048:	4613      	mov	r3, r2
   2204a:	df04      	svc	4
   2204c:	a804      	add	r0, sp, #16
   2204e:	7804      	ldrb	r4, [r0, #0]
   22050:	1c68      	adds	r0, r5, #1
   22052:	221e      	movs	r2, #30
   22054:	9901      	ldr	r1, [sp, #4]
   22056:	f009 f859 	bl	2b10c <__aeabi_memcpy>
   2205a:	702e      	strb	r6, [r5, #0]
   2205c:	2c02      	cmp	r4, #2
   2205e:	d006      	beq.n	2206e <_ZN20complex_dynamic_type3app17h48e0c2bd4f8121bcE+0x132>
   22060:	4809      	ldr	r0, [pc, #36]	@ (22088 <_ZN20complex_dynamic_type3app17h48e0c2bd4f8121bcE+0x14c>)
   22062:	2109      	movs	r1, #9
   22064:	2200      	movs	r2, #0
   22066:	4613      	mov	r3, r2
   22068:	2c04      	cmp	r4, #4
   2206a:	d10a      	bne.n	22082 <_ZN20complex_dynamic_type3app17h48e0c2bd4f8121bcE+0x146>
   2206c:	df04      	svc	4
   2206e:	b013      	add	sp, #76	@ 0x4c
   22070:	bdf0      	pop	{r4, r5, r6, r7, pc}
   22072:	1c68      	adds	r0, r5, #1
   22074:	221e      	movs	r2, #30
   22076:	4621      	mov	r1, r4
   22078:	f009 f848 	bl	2b10c <__aeabi_memcpy>
   2207c:	702e      	strb	r6, [r5, #0]
   2207e:	b013      	add	sp, #76	@ 0x4c
   22080:	bdf0      	pop	{r4, r5, r6, r7, pc}
   22082:	df03      	svc	3
   22084:	b013      	add	sp, #76	@ 0x4c
   22086:	bdf0      	pop	{r4, r5, r6, r7, pc}
   22088:	00000cbb 	.word	0x00000cbb

0002208c <_ZN20complex_dynamic_type3app17h4cb6c45c46387de9E>:
   2208c:	b5f0      	push	{r4, r5, r6, r7, lr}
   2208e:	af03      	add	r7, sp, #12
   22090:	b0a1      	sub	sp, #132	@ 0x84
   22092:	9003      	str	r0, [sp, #12]
   22094:	a804      	add	r0, sp, #16
   22096:	2402      	movs	r4, #2
   22098:	7004      	strb	r4, [r0, #0]
   2209a:	1c46      	adds	r6, r0, #1
   2209c:	223c      	movs	r2, #60	@ 0x3c
   2209e:	9202      	str	r2, [sp, #8]
   220a0:	4630      	mov	r0, r6
   220a2:	f009 f833 	bl	2b10c <__aeabi_memcpy>
   220a6:	ad14      	add	r5, sp, #80	@ 0x50
   220a8:	1c68      	adds	r0, r5, #1
   220aa:	2132      	movs	r1, #50	@ 0x32
   220ac:	9001      	str	r0, [sp, #4]
   220ae:	f008 fe6d 	bl	2ad8c <__aeabi_memclr>
   220b2:	9400      	str	r4, [sp, #0]
   220b4:	702c      	strb	r4, [r5, #0]
   220b6:	4848      	ldr	r0, [pc, #288]	@ (221d8 <_ZN20complex_dynamic_type3app17h4cb6c45c46387de9E+0x14c>)
   220b8:	2106      	movs	r1, #6
   220ba:	4632      	mov	r2, r6
   220bc:	9b02      	ldr	r3, [sp, #8]
   220be:	df04      	svc	4
   220c0:	2802      	cmp	r0, #2
   220c2:	d104      	bne.n	220ce <_ZN20complex_dynamic_type3app17h4cb6c45c46387de9E+0x42>
   220c4:	2001      	movs	r0, #1
   220c6:	9a03      	ldr	r2, [sp, #12]
   220c8:	7010      	strb	r0, [r2, #0]
   220ca:	6051      	str	r1, [r2, #4]
   220cc:	e02d      	b.n	2212a <_ZN20complex_dynamic_type3app17h4cb6c45c46387de9E+0x9e>
   220ce:	9d03      	ldr	r5, [sp, #12]
   220d0:	a804      	add	r0, sp, #16
   220d2:	2104      	movs	r1, #4
   220d4:	7001      	strb	r1, [r0, #0]
   220d6:	4840      	ldr	r0, [pc, #256]	@ (221d8 <_ZN20complex_dynamic_type3app17h4cb6c45c46387de9E+0x14c>)
   220d8:	2108      	movs	r1, #8
   220da:	2332      	movs	r3, #50	@ 0x32
   220dc:	9c01      	ldr	r4, [sp, #4]
   220de:	4622      	mov	r2, r4
   220e0:	df03      	svc	3
   220e2:	2802      	cmp	r0, #2
   220e4:	d10e      	bne.n	22104 <_ZN20complex_dynamic_type3app17h4cb6c45c46387de9E+0x78>
   220e6:	2001      	movs	r0, #1
   220e8:	7028      	strb	r0, [r5, #0]
   220ea:	6069      	str	r1, [r5, #4]
   220ec:	a814      	add	r0, sp, #80	@ 0x50
   220ee:	7800      	ldrb	r0, [r0, #0]
   220f0:	2802      	cmp	r0, #2
   220f2:	d01a      	beq.n	2212a <_ZN20complex_dynamic_type3app17h4cb6c45c46387de9E+0x9e>
   220f4:	2803      	cmp	r0, #3
   220f6:	d013      	beq.n	22120 <_ZN20complex_dynamic_type3app17h4cb6c45c46387de9E+0x94>
   220f8:	4837      	ldr	r0, [pc, #220]	@ (221d8 <_ZN20complex_dynamic_type3app17h4cb6c45c46387de9E+0x14c>)
   220fa:	2108      	movs	r1, #8
   220fc:	2200      	movs	r2, #0
   220fe:	4613      	mov	r3, r2
   22100:	df04      	svc	4
   22102:	e012      	b.n	2212a <_ZN20complex_dynamic_type3app17h4cb6c45c46387de9E+0x9e>
   22104:	a814      	add	r0, sp, #80	@ 0x50
   22106:	2103      	movs	r1, #3
   22108:	7001      	strb	r1, [r0, #0]
   2210a:	4833      	ldr	r0, [pc, #204]	@ (221d8 <_ZN20complex_dynamic_type3app17h4cb6c45c46387de9E+0x14c>)
   2210c:	2106      	movs	r1, #6
   2210e:	2208      	movs	r2, #8
   22110:	2600      	movs	r6, #0
   22112:	4633      	mov	r3, r6
   22114:	df02      	svc	2
   22116:	2880      	cmp	r0, #128	@ 0x80
   22118:	d21b      	bcs.n	22152 <_ZN20complex_dynamic_type3app17h4cb6c45c46387de9E+0xc6>
   2211a:	2001      	movs	r0, #1
   2211c:	7028      	strb	r0, [r5, #0]
   2211e:	6069      	str	r1, [r5, #4]
   22120:	482d      	ldr	r0, [pc, #180]	@ (221d8 <_ZN20complex_dynamic_type3app17h4cb6c45c46387de9E+0x14c>)
   22122:	2108      	movs	r1, #8
   22124:	2200      	movs	r2, #0
   22126:	4613      	mov	r3, r2
   22128:	df03      	svc	3
   2212a:	a804      	add	r0, sp, #16
   2212c:	7800      	ldrb	r0, [r0, #0]
   2212e:	2802      	cmp	r0, #2
   22130:	d045      	beq.n	221be <_ZN20complex_dynamic_type3app17h4cb6c45c46387de9E+0x132>
   22132:	2804      	cmp	r0, #4
   22134:	d106      	bne.n	22144 <_ZN20complex_dynamic_type3app17h4cb6c45c46387de9E+0xb8>
   22136:	4828      	ldr	r0, [pc, #160]	@ (221d8 <_ZN20complex_dynamic_type3app17h4cb6c45c46387de9E+0x14c>)
   22138:	2106      	movs	r1, #6
   2213a:	2200      	movs	r2, #0
   2213c:	4613      	mov	r3, r2
   2213e:	df04      	svc	4
   22140:	b021      	add	sp, #132	@ 0x84
   22142:	bdf0      	pop	{r4, r5, r6, r7, pc}
   22144:	4824      	ldr	r0, [pc, #144]	@ (221d8 <_ZN20complex_dynamic_type3app17h4cb6c45c46387de9E+0x14c>)
   22146:	2106      	movs	r1, #6
   22148:	2200      	movs	r2, #0
   2214a:	4613      	mov	r3, r2
   2214c:	df03      	svc	3
   2214e:	b021      	add	sp, #132	@ 0x84
   22150:	bdf0      	pop	{r4, r5, r6, r7, pc}
   22152:	a804      	add	r0, sp, #16
   22154:	7800      	ldrb	r0, [r0, #0]
   22156:	2802      	cmp	r0, #2
   22158:	d00c      	beq.n	22174 <_ZN20complex_dynamic_type3app17h4cb6c45c46387de9E+0xe8>
   2215a:	2803      	cmp	r0, #3
   2215c:	d105      	bne.n	2216a <_ZN20complex_dynamic_type3app17h4cb6c45c46387de9E+0xde>
   2215e:	481e      	ldr	r0, [pc, #120]	@ (221d8 <_ZN20complex_dynamic_type3app17h4cb6c45c46387de9E+0x14c>)
   22160:	2106      	movs	r1, #6
   22162:	2200      	movs	r2, #0
   22164:	4613      	mov	r3, r2
   22166:	df03      	svc	3
   22168:	e004      	b.n	22174 <_ZN20complex_dynamic_type3app17h4cb6c45c46387de9E+0xe8>
   2216a:	481b      	ldr	r0, [pc, #108]	@ (221d8 <_ZN20complex_dynamic_type3app17h4cb6c45c46387de9E+0x14c>)
   2216c:	2106      	movs	r1, #6
   2216e:	2200      	movs	r2, #0
   22170:	4613      	mov	r3, r2
   22172:	df04      	svc	4
   22174:	a804      	add	r0, sp, #16
   22176:	9900      	ldr	r1, [sp, #0]
   22178:	7001      	strb	r1, [r0, #0]
   2217a:	a814      	add	r0, sp, #80	@ 0x50
   2217c:	7800      	ldrb	r0, [r0, #0]
   2217e:	2804      	cmp	r0, #4
   22180:	d007      	beq.n	22192 <_ZN20complex_dynamic_type3app17h4cb6c45c46387de9E+0x106>
   22182:	2803      	cmp	r0, #3
   22184:	d11d      	bne.n	221c2 <_ZN20complex_dynamic_type3app17h4cb6c45c46387de9E+0x136>
   22186:	4814      	ldr	r0, [pc, #80]	@ (221d8 <_ZN20complex_dynamic_type3app17h4cb6c45c46387de9E+0x14c>)
   22188:	2108      	movs	r1, #8
   2218a:	2200      	movs	r2, #0
   2218c:	4613      	mov	r3, r2
   2218e:	df03      	svc	3
   22190:	e004      	b.n	2219c <_ZN20complex_dynamic_type3app17h4cb6c45c46387de9E+0x110>
   22192:	4811      	ldr	r0, [pc, #68]	@ (221d8 <_ZN20complex_dynamic_type3app17h4cb6c45c46387de9E+0x14c>)
   22194:	2108      	movs	r1, #8
   22196:	2200      	movs	r2, #0
   22198:	4613      	mov	r3, r2
   2219a:	df04      	svc	4
   2219c:	a804      	add	r0, sp, #16
   2219e:	7804      	ldrb	r4, [r0, #0]
   221a0:	1c68      	adds	r0, r5, #1
   221a2:	2232      	movs	r2, #50	@ 0x32
   221a4:	9901      	ldr	r1, [sp, #4]
   221a6:	f008 ffb1 	bl	2b10c <__aeabi_memcpy>
   221aa:	702e      	strb	r6, [r5, #0]
   221ac:	2c02      	cmp	r4, #2
   221ae:	d006      	beq.n	221be <_ZN20complex_dynamic_type3app17h4cb6c45c46387de9E+0x132>
   221b0:	4809      	ldr	r0, [pc, #36]	@ (221d8 <_ZN20complex_dynamic_type3app17h4cb6c45c46387de9E+0x14c>)
   221b2:	2106      	movs	r1, #6
   221b4:	2200      	movs	r2, #0
   221b6:	4613      	mov	r3, r2
   221b8:	2c04      	cmp	r4, #4
   221ba:	d10a      	bne.n	221d2 <_ZN20complex_dynamic_type3app17h4cb6c45c46387de9E+0x146>
   221bc:	df04      	svc	4
   221be:	b021      	add	sp, #132	@ 0x84
   221c0:	bdf0      	pop	{r4, r5, r6, r7, pc}
   221c2:	1c68      	adds	r0, r5, #1
   221c4:	2232      	movs	r2, #50	@ 0x32
   221c6:	4621      	mov	r1, r4
   221c8:	f008 ffa0 	bl	2b10c <__aeabi_memcpy>
   221cc:	702e      	strb	r6, [r5, #0]
   221ce:	b021      	add	sp, #132	@ 0x84
   221d0:	bdf0      	pop	{r4, r5, r6, r7, pc}
   221d2:	df03      	svc	3
   221d4:	b021      	add	sp, #132	@ 0x84
   221d6:	bdf0      	pop	{r4, r5, r6, r7, pc}
   221d8:	00001b1e 	.word	0x00001b1e

000221dc <_ZN20complex_dynamic_type3app17h5189d70375013476E>:
   221dc:	b5f0      	push	{r4, r5, r6, r7, lr}
   221de:	af03      	add	r7, sp, #12
   221e0:	b0a3      	sub	sp, #140	@ 0x8c
   221e2:	9004      	str	r0, [sp, #16]
   221e4:	a805      	add	r0, sp, #20
   221e6:	2402      	movs	r4, #2
   221e8:	7004      	strb	r4, [r0, #0]
   221ea:	1c40      	adds	r0, r0, #1
   221ec:	9003      	str	r0, [sp, #12]
   221ee:	2548      	movs	r5, #72	@ 0x48
   221f0:	462a      	mov	r2, r5
   221f2:	f008 ff8b 	bl	2b10c <__aeabi_memcpy>
   221f6:	ae18      	add	r6, sp, #96	@ 0x60
   221f8:	1c70      	adds	r0, r6, #1
   221fa:	2129      	movs	r1, #41	@ 0x29
   221fc:	9002      	str	r0, [sp, #8]
   221fe:	f008 fdc5 	bl	2ad8c <__aeabi_memclr>
   22202:	9401      	str	r4, [sp, #4]
   22204:	7034      	strb	r4, [r6, #0]
   22206:	484a      	ldr	r0, [pc, #296]	@ (22330 <_ZN20complex_dynamic_type3app17h5189d70375013476E+0x154>)
   22208:	2603      	movs	r6, #3
   2220a:	4631      	mov	r1, r6
   2220c:	9a03      	ldr	r2, [sp, #12]
   2220e:	462b      	mov	r3, r5
   22210:	df04      	svc	4
   22212:	2802      	cmp	r0, #2
   22214:	d104      	bne.n	22220 <_ZN20complex_dynamic_type3app17h5189d70375013476E+0x44>
   22216:	2001      	movs	r0, #1
   22218:	9a04      	ldr	r2, [sp, #16]
   2221a:	7010      	strb	r0, [r2, #0]
   2221c:	6051      	str	r1, [r2, #4]
   2221e:	e02b      	b.n	22278 <_ZN20complex_dynamic_type3app17h5189d70375013476E+0x9c>
   22220:	9d04      	ldr	r5, [sp, #16]
   22222:	a805      	add	r0, sp, #20
   22224:	2104      	movs	r1, #4
   22226:	7001      	strb	r1, [r0, #0]
   22228:	4841      	ldr	r0, [pc, #260]	@ (22330 <_ZN20complex_dynamic_type3app17h5189d70375013476E+0x154>)
   2222a:	2329      	movs	r3, #41	@ 0x29
   2222c:	9c02      	ldr	r4, [sp, #8]
   2222e:	4622      	mov	r2, r4
   22230:	df03      	svc	3
   22232:	2802      	cmp	r0, #2
   22234:	d10e      	bne.n	22254 <_ZN20complex_dynamic_type3app17h5189d70375013476E+0x78>
   22236:	2001      	movs	r0, #1
   22238:	7028      	strb	r0, [r5, #0]
   2223a:	6069      	str	r1, [r5, #4]
   2223c:	a818      	add	r0, sp, #96	@ 0x60
   2223e:	7800      	ldrb	r0, [r0, #0]
   22240:	2802      	cmp	r0, #2
   22242:	d019      	beq.n	22278 <_ZN20complex_dynamic_type3app17h5189d70375013476E+0x9c>
   22244:	2803      	cmp	r0, #3
   22246:	d012      	beq.n	2226e <_ZN20complex_dynamic_type3app17h5189d70375013476E+0x92>
   22248:	4839      	ldr	r0, [pc, #228]	@ (22330 <_ZN20complex_dynamic_type3app17h5189d70375013476E+0x154>)
   2224a:	2104      	movs	r1, #4
   2224c:	2200      	movs	r2, #0
   2224e:	4613      	mov	r3, r2
   22250:	df04      	svc	4
   22252:	e011      	b.n	22278 <_ZN20complex_dynamic_type3app17h5189d70375013476E+0x9c>
   22254:	a818      	add	r0, sp, #96	@ 0x60
   22256:	7006      	strb	r6, [r0, #0]
   22258:	4835      	ldr	r0, [pc, #212]	@ (22330 <_ZN20complex_dynamic_type3app17h5189d70375013476E+0x154>)
   2225a:	2204      	movs	r2, #4
   2225c:	2300      	movs	r3, #0
   2225e:	4631      	mov	r1, r6
   22260:	9303      	str	r3, [sp, #12]
   22262:	df02      	svc	2
   22264:	2880      	cmp	r0, #128	@ 0x80
   22266:	d21b      	bcs.n	222a0 <_ZN20complex_dynamic_type3app17h5189d70375013476E+0xc4>
   22268:	2001      	movs	r0, #1
   2226a:	7028      	strb	r0, [r5, #0]
   2226c:	6069      	str	r1, [r5, #4]
   2226e:	4830      	ldr	r0, [pc, #192]	@ (22330 <_ZN20complex_dynamic_type3app17h5189d70375013476E+0x154>)
   22270:	2104      	movs	r1, #4
   22272:	2200      	movs	r2, #0
   22274:	4613      	mov	r3, r2
   22276:	df03      	svc	3
   22278:	a805      	add	r0, sp, #20
   2227a:	7800      	ldrb	r0, [r0, #0]
   2227c:	2802      	cmp	r0, #2
   2227e:	d048      	beq.n	22312 <_ZN20complex_dynamic_type3app17h5189d70375013476E+0x136>
   22280:	2804      	cmp	r0, #4
   22282:	d106      	bne.n	22292 <_ZN20complex_dynamic_type3app17h5189d70375013476E+0xb6>
   22284:	482a      	ldr	r0, [pc, #168]	@ (22330 <_ZN20complex_dynamic_type3app17h5189d70375013476E+0x154>)
   22286:	2103      	movs	r1, #3
   22288:	2200      	movs	r2, #0
   2228a:	4613      	mov	r3, r2
   2228c:	df04      	svc	4
   2228e:	b023      	add	sp, #140	@ 0x8c
   22290:	bdf0      	pop	{r4, r5, r6, r7, pc}
   22292:	4827      	ldr	r0, [pc, #156]	@ (22330 <_ZN20complex_dynamic_type3app17h5189d70375013476E+0x154>)
   22294:	2103      	movs	r1, #3
   22296:	2200      	movs	r2, #0
   22298:	4613      	mov	r3, r2
   2229a:	df03      	svc	3
   2229c:	b023      	add	sp, #140	@ 0x8c
   2229e:	bdf0      	pop	{r4, r5, r6, r7, pc}
   222a0:	a805      	add	r0, sp, #20
   222a2:	7800      	ldrb	r0, [r0, #0]
   222a4:	2802      	cmp	r0, #2
   222a6:	d00c      	beq.n	222c2 <_ZN20complex_dynamic_type3app17h5189d70375013476E+0xe6>
   222a8:	2803      	cmp	r0, #3
   222aa:	d105      	bne.n	222b8 <_ZN20complex_dynamic_type3app17h5189d70375013476E+0xdc>
   222ac:	4820      	ldr	r0, [pc, #128]	@ (22330 <_ZN20complex_dynamic_type3app17h5189d70375013476E+0x154>)
   222ae:	2103      	movs	r1, #3
   222b0:	2200      	movs	r2, #0
   222b2:	4613      	mov	r3, r2
   222b4:	df03      	svc	3
   222b6:	e004      	b.n	222c2 <_ZN20complex_dynamic_type3app17h5189d70375013476E+0xe6>
   222b8:	481d      	ldr	r0, [pc, #116]	@ (22330 <_ZN20complex_dynamic_type3app17h5189d70375013476E+0x154>)
   222ba:	2103      	movs	r1, #3
   222bc:	2200      	movs	r2, #0
   222be:	4613      	mov	r3, r2
   222c0:	df04      	svc	4
   222c2:	a805      	add	r0, sp, #20
   222c4:	9901      	ldr	r1, [sp, #4]
   222c6:	7001      	strb	r1, [r0, #0]
   222c8:	a818      	add	r0, sp, #96	@ 0x60
   222ca:	7800      	ldrb	r0, [r0, #0]
   222cc:	2804      	cmp	r0, #4
   222ce:	d008      	beq.n	222e2 <_ZN20complex_dynamic_type3app17h5189d70375013476E+0x106>
   222d0:	2803      	cmp	r0, #3
   222d2:	d120      	bne.n	22316 <_ZN20complex_dynamic_type3app17h5189d70375013476E+0x13a>
   222d4:	4626      	mov	r6, r4
   222d6:	4816      	ldr	r0, [pc, #88]	@ (22330 <_ZN20complex_dynamic_type3app17h5189d70375013476E+0x154>)
   222d8:	2104      	movs	r1, #4
   222da:	2200      	movs	r2, #0
   222dc:	4613      	mov	r3, r2
   222de:	df03      	svc	3
   222e0:	e005      	b.n	222ee <_ZN20complex_dynamic_type3app17h5189d70375013476E+0x112>
   222e2:	4626      	mov	r6, r4
   222e4:	4812      	ldr	r0, [pc, #72]	@ (22330 <_ZN20complex_dynamic_type3app17h5189d70375013476E+0x154>)
   222e6:	2104      	movs	r1, #4
   222e8:	2200      	movs	r2, #0
   222ea:	4613      	mov	r3, r2
   222ec:	df04      	svc	4
   222ee:	a805      	add	r0, sp, #20
   222f0:	7804      	ldrb	r4, [r0, #0]
   222f2:	1c68      	adds	r0, r5, #1
   222f4:	2229      	movs	r2, #41	@ 0x29
   222f6:	4631      	mov	r1, r6
   222f8:	f008 ff08 	bl	2b10c <__aeabi_memcpy>
   222fc:	9803      	ldr	r0, [sp, #12]
   222fe:	7028      	strb	r0, [r5, #0]
   22300:	2c02      	cmp	r4, #2
   22302:	d006      	beq.n	22312 <_ZN20complex_dynamic_type3app17h5189d70375013476E+0x136>
   22304:	480a      	ldr	r0, [pc, #40]	@ (22330 <_ZN20complex_dynamic_type3app17h5189d70375013476E+0x154>)
   22306:	2103      	movs	r1, #3
   22308:	2200      	movs	r2, #0
   2230a:	4613      	mov	r3, r2
   2230c:	2c04      	cmp	r4, #4
   2230e:	d10b      	bne.n	22328 <_ZN20complex_dynamic_type3app17h5189d70375013476E+0x14c>
   22310:	df04      	svc	4
   22312:	b023      	add	sp, #140	@ 0x8c
   22314:	bdf0      	pop	{r4, r5, r6, r7, pc}
   22316:	1c68      	adds	r0, r5, #1
   22318:	2229      	movs	r2, #41	@ 0x29
   2231a:	4621      	mov	r1, r4
   2231c:	f008 fef6 	bl	2b10c <__aeabi_memcpy>
   22320:	9803      	ldr	r0, [sp, #12]
   22322:	7028      	strb	r0, [r5, #0]
   22324:	b023      	add	sp, #140	@ 0x8c
   22326:	bdf0      	pop	{r4, r5, r6, r7, pc}
   22328:	df03      	svc	3
   2232a:	b023      	add	sp, #140	@ 0x8c
   2232c:	bdf0      	pop	{r4, r5, r6, r7, pc}
   2232e:	46c0      	nop			@ (mov r8, r8)
   22330:	000026a4 	.word	0x000026a4

00022334 <_ZN20complex_dynamic_type3app17h5761aeda522a743fE>:
   22334:	b5f0      	push	{r4, r5, r6, r7, lr}
   22336:	af03      	add	r7, sp, #12
   22338:	b0b3      	sub	sp, #204	@ 0xcc
   2233a:	9004      	str	r0, [sp, #16]
   2233c:	a805      	add	r0, sp, #20
   2233e:	2402      	movs	r4, #2
   22340:	7004      	strb	r4, [r0, #0]
   22342:	1c46      	adds	r6, r0, #1
   22344:	225e      	movs	r2, #94	@ 0x5e
   22346:	9203      	str	r2, [sp, #12]
   22348:	4630      	mov	r0, r6
   2234a:	f008 fedf 	bl	2b10c <__aeabi_memcpy>
   2234e:	ad1d      	add	r5, sp, #116	@ 0x74
   22350:	1c68      	adds	r0, r5, #1
   22352:	2155      	movs	r1, #85	@ 0x55
   22354:	9002      	str	r0, [sp, #8]
   22356:	f008 fd19 	bl	2ad8c <__aeabi_memclr>
   2235a:	9401      	str	r4, [sp, #4]
   2235c:	702c      	strb	r4, [r5, #0]
   2235e:	4848      	ldr	r0, [pc, #288]	@ (22480 <_ZN20complex_dynamic_type3app17h5761aeda522a743fE+0x14c>)
   22360:	2107      	movs	r1, #7
   22362:	4632      	mov	r2, r6
   22364:	9b03      	ldr	r3, [sp, #12]
   22366:	df04      	svc	4
   22368:	2802      	cmp	r0, #2
   2236a:	d104      	bne.n	22376 <_ZN20complex_dynamic_type3app17h5761aeda522a743fE+0x42>
   2236c:	2001      	movs	r0, #1
   2236e:	9a04      	ldr	r2, [sp, #16]
   22370:	7010      	strb	r0, [r2, #0]
   22372:	6051      	str	r1, [r2, #4]
   22374:	e02c      	b.n	223d0 <_ZN20complex_dynamic_type3app17h5761aeda522a743fE+0x9c>
   22376:	9d04      	ldr	r5, [sp, #16]
   22378:	a805      	add	r0, sp, #20
   2237a:	2104      	movs	r1, #4
   2237c:	7001      	strb	r1, [r0, #0]
   2237e:	4840      	ldr	r0, [pc, #256]	@ (22480 <_ZN20complex_dynamic_type3app17h5761aeda522a743fE+0x14c>)
   22380:	2403      	movs	r4, #3
   22382:	2355      	movs	r3, #85	@ 0x55
   22384:	4621      	mov	r1, r4
   22386:	9a02      	ldr	r2, [sp, #8]
   22388:	df03      	svc	3
   2238a:	2802      	cmp	r0, #2
   2238c:	d10e      	bne.n	223ac <_ZN20complex_dynamic_type3app17h5761aeda522a743fE+0x78>
   2238e:	2001      	movs	r0, #1
   22390:	7028      	strb	r0, [r5, #0]
   22392:	6069      	str	r1, [r5, #4]
   22394:	a81d      	add	r0, sp, #116	@ 0x74
   22396:	7800      	ldrb	r0, [r0, #0]
   22398:	2802      	cmp	r0, #2
   2239a:	d019      	beq.n	223d0 <_ZN20complex_dynamic_type3app17h5761aeda522a743fE+0x9c>
   2239c:	2803      	cmp	r0, #3
   2239e:	d012      	beq.n	223c6 <_ZN20complex_dynamic_type3app17h5761aeda522a743fE+0x92>
   223a0:	4837      	ldr	r0, [pc, #220]	@ (22480 <_ZN20complex_dynamic_type3app17h5761aeda522a743fE+0x14c>)
   223a2:	2103      	movs	r1, #3
   223a4:	2200      	movs	r2, #0
   223a6:	4613      	mov	r3, r2
   223a8:	df04      	svc	4
   223aa:	e011      	b.n	223d0 <_ZN20complex_dynamic_type3app17h5761aeda522a743fE+0x9c>
   223ac:	a81d      	add	r0, sp, #116	@ 0x74
   223ae:	7004      	strb	r4, [r0, #0]
   223b0:	4833      	ldr	r0, [pc, #204]	@ (22480 <_ZN20complex_dynamic_type3app17h5761aeda522a743fE+0x14c>)
   223b2:	2107      	movs	r1, #7
   223b4:	2600      	movs	r6, #0
   223b6:	4622      	mov	r2, r4
   223b8:	4633      	mov	r3, r6
   223ba:	df02      	svc	2
   223bc:	2880      	cmp	r0, #128	@ 0x80
   223be:	d21b      	bcs.n	223f8 <_ZN20complex_dynamic_type3app17h5761aeda522a743fE+0xc4>
   223c0:	2001      	movs	r0, #1
   223c2:	7028      	strb	r0, [r5, #0]
   223c4:	6069      	str	r1, [r5, #4]
   223c6:	482e      	ldr	r0, [pc, #184]	@ (22480 <_ZN20complex_dynamic_type3app17h5761aeda522a743fE+0x14c>)
   223c8:	2103      	movs	r1, #3
   223ca:	2200      	movs	r2, #0
   223cc:	4613      	mov	r3, r2
   223ce:	df03      	svc	3
   223d0:	a805      	add	r0, sp, #20
   223d2:	7800      	ldrb	r0, [r0, #0]
   223d4:	2802      	cmp	r0, #2
   223d6:	d045      	beq.n	22464 <_ZN20complex_dynamic_type3app17h5761aeda522a743fE+0x130>
   223d8:	2804      	cmp	r0, #4
   223da:	d106      	bne.n	223ea <_ZN20complex_dynamic_type3app17h5761aeda522a743fE+0xb6>
   223dc:	4828      	ldr	r0, [pc, #160]	@ (22480 <_ZN20complex_dynamic_type3app17h5761aeda522a743fE+0x14c>)
   223de:	2107      	movs	r1, #7
   223e0:	2200      	movs	r2, #0
   223e2:	4613      	mov	r3, r2
   223e4:	df04      	svc	4
   223e6:	b033      	add	sp, #204	@ 0xcc
   223e8:	bdf0      	pop	{r4, r5, r6, r7, pc}
   223ea:	4825      	ldr	r0, [pc, #148]	@ (22480 <_ZN20complex_dynamic_type3app17h5761aeda522a743fE+0x14c>)
   223ec:	2107      	movs	r1, #7
   223ee:	2200      	movs	r2, #0
   223f0:	4613      	mov	r3, r2
   223f2:	df03      	svc	3
   223f4:	b033      	add	sp, #204	@ 0xcc
   223f6:	bdf0      	pop	{r4, r5, r6, r7, pc}
   223f8:	a805      	add	r0, sp, #20
   223fa:	7800      	ldrb	r0, [r0, #0]
   223fc:	2802      	cmp	r0, #2
   223fe:	d00c      	beq.n	2241a <_ZN20complex_dynamic_type3app17h5761aeda522a743fE+0xe6>
   22400:	2803      	cmp	r0, #3
   22402:	d105      	bne.n	22410 <_ZN20complex_dynamic_type3app17h5761aeda522a743fE+0xdc>
   22404:	481e      	ldr	r0, [pc, #120]	@ (22480 <_ZN20complex_dynamic_type3app17h5761aeda522a743fE+0x14c>)
   22406:	2107      	movs	r1, #7
   22408:	2200      	movs	r2, #0
   2240a:	4613      	mov	r3, r2
   2240c:	df03      	svc	3
   2240e:	e004      	b.n	2241a <_ZN20complex_dynamic_type3app17h5761aeda522a743fE+0xe6>
   22410:	481b      	ldr	r0, [pc, #108]	@ (22480 <_ZN20complex_dynamic_type3app17h5761aeda522a743fE+0x14c>)
   22412:	2107      	movs	r1, #7
   22414:	2200      	movs	r2, #0
   22416:	4613      	mov	r3, r2
   22418:	df04      	svc	4
   2241a:	a805      	add	r0, sp, #20
   2241c:	9901      	ldr	r1, [sp, #4]
   2241e:	7001      	strb	r1, [r0, #0]
   22420:	a81d      	add	r0, sp, #116	@ 0x74
   22422:	7800      	ldrb	r0, [r0, #0]
   22424:	2804      	cmp	r0, #4
   22426:	d007      	beq.n	22438 <_ZN20complex_dynamic_type3app17h5761aeda522a743fE+0x104>
   22428:	2803      	cmp	r0, #3
   2242a:	d11d      	bne.n	22468 <_ZN20complex_dynamic_type3app17h5761aeda522a743fE+0x134>
   2242c:	4814      	ldr	r0, [pc, #80]	@ (22480 <_ZN20complex_dynamic_type3app17h5761aeda522a743fE+0x14c>)
   2242e:	2103      	movs	r1, #3
   22430:	2200      	movs	r2, #0
   22432:	4613      	mov	r3, r2
   22434:	df03      	svc	3
   22436:	e004      	b.n	22442 <_ZN20complex_dynamic_type3app17h5761aeda522a743fE+0x10e>
   22438:	4811      	ldr	r0, [pc, #68]	@ (22480 <_ZN20complex_dynamic_type3app17h5761aeda522a743fE+0x14c>)
   2243a:	2103      	movs	r1, #3
   2243c:	2200      	movs	r2, #0
   2243e:	4613      	mov	r3, r2
   22440:	df04      	svc	4
   22442:	a805      	add	r0, sp, #20
   22444:	7804      	ldrb	r4, [r0, #0]
   22446:	1c68      	adds	r0, r5, #1
   22448:	2255      	movs	r2, #85	@ 0x55
   2244a:	9902      	ldr	r1, [sp, #8]
   2244c:	f008 fe5e 	bl	2b10c <__aeabi_memcpy>
   22450:	702e      	strb	r6, [r5, #0]
   22452:	2c02      	cmp	r4, #2
   22454:	d006      	beq.n	22464 <_ZN20complex_dynamic_type3app17h5761aeda522a743fE+0x130>
   22456:	480a      	ldr	r0, [pc, #40]	@ (22480 <_ZN20complex_dynamic_type3app17h5761aeda522a743fE+0x14c>)
   22458:	2107      	movs	r1, #7
   2245a:	2200      	movs	r2, #0
   2245c:	4613      	mov	r3, r2
   2245e:	2c04      	cmp	r4, #4
   22460:	d10a      	bne.n	22478 <_ZN20complex_dynamic_type3app17h5761aeda522a743fE+0x144>
   22462:	df04      	svc	4
   22464:	b033      	add	sp, #204	@ 0xcc
   22466:	bdf0      	pop	{r4, r5, r6, r7, pc}
   22468:	1c68      	adds	r0, r5, #1
   2246a:	2255      	movs	r2, #85	@ 0x55
   2246c:	9902      	ldr	r1, [sp, #8]
   2246e:	f008 fe4d 	bl	2b10c <__aeabi_memcpy>
   22472:	702e      	strb	r6, [r5, #0]
   22474:	b033      	add	sp, #204	@ 0xcc
   22476:	bdf0      	pop	{r4, r5, r6, r7, pc}
   22478:	df03      	svc	3
   2247a:	b033      	add	sp, #204	@ 0xcc
   2247c:	bdf0      	pop	{r4, r5, r6, r7, pc}
   2247e:	46c0      	nop			@ (mov r8, r8)
   22480:	0000178a 	.word	0x0000178a

00022484 <_ZN20complex_dynamic_type3app17h5b7bc60d6e5eb05aE>:
   22484:	b5f0      	push	{r4, r5, r6, r7, lr}
   22486:	af03      	add	r7, sp, #12
   22488:	b099      	sub	sp, #100	@ 0x64
   2248a:	9002      	str	r0, [sp, #8]
   2248c:	a803      	add	r0, sp, #12
   2248e:	2502      	movs	r5, #2
   22490:	7005      	strb	r5, [r0, #0]
   22492:	1c46      	adds	r6, r0, #1
   22494:	220f      	movs	r2, #15
   22496:	9201      	str	r2, [sp, #4]
   22498:	4630      	mov	r0, r6
   2249a:	f008 fe37 	bl	2b10c <__aeabi_memcpy>
   2249e:	ac07      	add	r4, sp, #28
   224a0:	1c60      	adds	r0, r4, #1
   224a2:	2146      	movs	r1, #70	@ 0x46
   224a4:	9000      	str	r0, [sp, #0]
   224a6:	f008 fc71 	bl	2ad8c <__aeabi_memclr>
   224aa:	7025      	strb	r5, [r4, #0]
   224ac:	484a      	ldr	r0, [pc, #296]	@ (225d8 <_ZN20complex_dynamic_type3app17h5b7bc60d6e5eb05aE+0x154>)
   224ae:	2109      	movs	r1, #9
   224b0:	4632      	mov	r2, r6
   224b2:	9b01      	ldr	r3, [sp, #4]
   224b4:	df04      	svc	4
   224b6:	2802      	cmp	r0, #2
   224b8:	d104      	bne.n	224c4 <_ZN20complex_dynamic_type3app17h5b7bc60d6e5eb05aE+0x40>
   224ba:	2001      	movs	r0, #1
   224bc:	9a02      	ldr	r2, [sp, #8]
   224be:	7010      	strb	r0, [r2, #0]
   224c0:	6051      	str	r1, [r2, #4]
   224c2:	e02e      	b.n	22522 <_ZN20complex_dynamic_type3app17h5b7bc60d6e5eb05aE+0x9e>
   224c4:	9d02      	ldr	r5, [sp, #8]
   224c6:	a803      	add	r0, sp, #12
   224c8:	2104      	movs	r1, #4
   224ca:	7001      	strb	r1, [r0, #0]
   224cc:	4842      	ldr	r0, [pc, #264]	@ (225d8 <_ZN20complex_dynamic_type3app17h5b7bc60d6e5eb05aE+0x154>)
   224ce:	2102      	movs	r1, #2
   224d0:	2346      	movs	r3, #70	@ 0x46
   224d2:	9c00      	ldr	r4, [sp, #0]
   224d4:	4622      	mov	r2, r4
   224d6:	df03      	svc	3
   224d8:	2802      	cmp	r0, #2
   224da:	d10e      	bne.n	224fa <_ZN20complex_dynamic_type3app17h5b7bc60d6e5eb05aE+0x76>
   224dc:	2001      	movs	r0, #1
   224de:	7028      	strb	r0, [r5, #0]
   224e0:	6069      	str	r1, [r5, #4]
   224e2:	a807      	add	r0, sp, #28
   224e4:	7800      	ldrb	r0, [r0, #0]
   224e6:	2802      	cmp	r0, #2
   224e8:	d01b      	beq.n	22522 <_ZN20complex_dynamic_type3app17h5b7bc60d6e5eb05aE+0x9e>
   224ea:	2803      	cmp	r0, #3
   224ec:	d014      	beq.n	22518 <_ZN20complex_dynamic_type3app17h5b7bc60d6e5eb05aE+0x94>
   224ee:	483a      	ldr	r0, [pc, #232]	@ (225d8 <_ZN20complex_dynamic_type3app17h5b7bc60d6e5eb05aE+0x154>)
   224f0:	2102      	movs	r1, #2
   224f2:	2200      	movs	r2, #0
   224f4:	4613      	mov	r3, r2
   224f6:	df04      	svc	4
   224f8:	e013      	b.n	22522 <_ZN20complex_dynamic_type3app17h5b7bc60d6e5eb05aE+0x9e>
   224fa:	a807      	add	r0, sp, #28
   224fc:	2103      	movs	r1, #3
   224fe:	7001      	strb	r1, [r0, #0]
   22500:	4835      	ldr	r0, [pc, #212]	@ (225d8 <_ZN20complex_dynamic_type3app17h5b7bc60d6e5eb05aE+0x154>)
   22502:	2109      	movs	r1, #9
   22504:	2602      	movs	r6, #2
   22506:	2300      	movs	r3, #0
   22508:	4632      	mov	r2, r6
   2250a:	9301      	str	r3, [sp, #4]
   2250c:	df02      	svc	2
   2250e:	2880      	cmp	r0, #128	@ 0x80
   22510:	d21b      	bcs.n	2254a <_ZN20complex_dynamic_type3app17h5b7bc60d6e5eb05aE+0xc6>
   22512:	2001      	movs	r0, #1
   22514:	7028      	strb	r0, [r5, #0]
   22516:	6069      	str	r1, [r5, #4]
   22518:	482f      	ldr	r0, [pc, #188]	@ (225d8 <_ZN20complex_dynamic_type3app17h5b7bc60d6e5eb05aE+0x154>)
   2251a:	2102      	movs	r1, #2
   2251c:	2200      	movs	r2, #0
   2251e:	4613      	mov	r3, r2
   22520:	df03      	svc	3
   22522:	a803      	add	r0, sp, #12
   22524:	7800      	ldrb	r0, [r0, #0]
   22526:	2802      	cmp	r0, #2
   22528:	d047      	beq.n	225ba <_ZN20complex_dynamic_type3app17h5b7bc60d6e5eb05aE+0x136>
   2252a:	2804      	cmp	r0, #4
   2252c:	d106      	bne.n	2253c <_ZN20complex_dynamic_type3app17h5b7bc60d6e5eb05aE+0xb8>
   2252e:	482a      	ldr	r0, [pc, #168]	@ (225d8 <_ZN20complex_dynamic_type3app17h5b7bc60d6e5eb05aE+0x154>)
   22530:	2109      	movs	r1, #9
   22532:	2200      	movs	r2, #0
   22534:	4613      	mov	r3, r2
   22536:	df04      	svc	4
   22538:	b019      	add	sp, #100	@ 0x64
   2253a:	bdf0      	pop	{r4, r5, r6, r7, pc}
   2253c:	4826      	ldr	r0, [pc, #152]	@ (225d8 <_ZN20complex_dynamic_type3app17h5b7bc60d6e5eb05aE+0x154>)
   2253e:	2109      	movs	r1, #9
   22540:	2200      	movs	r2, #0
   22542:	4613      	mov	r3, r2
   22544:	df03      	svc	3
   22546:	b019      	add	sp, #100	@ 0x64
   22548:	bdf0      	pop	{r4, r5, r6, r7, pc}
   2254a:	a803      	add	r0, sp, #12
   2254c:	7800      	ldrb	r0, [r0, #0]
   2254e:	2802      	cmp	r0, #2
   22550:	d00c      	beq.n	2256c <_ZN20complex_dynamic_type3app17h5b7bc60d6e5eb05aE+0xe8>
   22552:	2803      	cmp	r0, #3
   22554:	d105      	bne.n	22562 <_ZN20complex_dynamic_type3app17h5b7bc60d6e5eb05aE+0xde>
   22556:	4820      	ldr	r0, [pc, #128]	@ (225d8 <_ZN20complex_dynamic_type3app17h5b7bc60d6e5eb05aE+0x154>)
   22558:	2109      	movs	r1, #9
   2255a:	2200      	movs	r2, #0
   2255c:	4613      	mov	r3, r2
   2255e:	df03      	svc	3
   22560:	e004      	b.n	2256c <_ZN20complex_dynamic_type3app17h5b7bc60d6e5eb05aE+0xe8>
   22562:	481d      	ldr	r0, [pc, #116]	@ (225d8 <_ZN20complex_dynamic_type3app17h5b7bc60d6e5eb05aE+0x154>)
   22564:	2109      	movs	r1, #9
   22566:	2200      	movs	r2, #0
   22568:	4613      	mov	r3, r2
   2256a:	df04      	svc	4
   2256c:	a803      	add	r0, sp, #12
   2256e:	7006      	strb	r6, [r0, #0]
   22570:	a807      	add	r0, sp, #28
   22572:	7800      	ldrb	r0, [r0, #0]
   22574:	2804      	cmp	r0, #4
   22576:	d008      	beq.n	2258a <_ZN20complex_dynamic_type3app17h5b7bc60d6e5eb05aE+0x106>
   22578:	2803      	cmp	r0, #3
   2257a:	d120      	bne.n	225be <_ZN20complex_dynamic_type3app17h5b7bc60d6e5eb05aE+0x13a>
   2257c:	4626      	mov	r6, r4
   2257e:	4816      	ldr	r0, [pc, #88]	@ (225d8 <_ZN20complex_dynamic_type3app17h5b7bc60d6e5eb05aE+0x154>)
   22580:	2102      	movs	r1, #2
   22582:	2200      	movs	r2, #0
   22584:	4613      	mov	r3, r2
   22586:	df03      	svc	3
   22588:	e005      	b.n	22596 <_ZN20complex_dynamic_type3app17h5b7bc60d6e5eb05aE+0x112>
   2258a:	4626      	mov	r6, r4
   2258c:	4812      	ldr	r0, [pc, #72]	@ (225d8 <_ZN20complex_dynamic_type3app17h5b7bc60d6e5eb05aE+0x154>)
   2258e:	2102      	movs	r1, #2
   22590:	2200      	movs	r2, #0
   22592:	4613      	mov	r3, r2
   22594:	df04      	svc	4
   22596:	a803      	add	r0, sp, #12
   22598:	7804      	ldrb	r4, [r0, #0]
   2259a:	1c68      	adds	r0, r5, #1
   2259c:	2246      	movs	r2, #70	@ 0x46
   2259e:	4631      	mov	r1, r6
   225a0:	f008 fdb4 	bl	2b10c <__aeabi_memcpy>
   225a4:	9801      	ldr	r0, [sp, #4]
   225a6:	7028      	strb	r0, [r5, #0]
   225a8:	2c02      	cmp	r4, #2
   225aa:	d006      	beq.n	225ba <_ZN20complex_dynamic_type3app17h5b7bc60d6e5eb05aE+0x136>
   225ac:	480a      	ldr	r0, [pc, #40]	@ (225d8 <_ZN20complex_dynamic_type3app17h5b7bc60d6e5eb05aE+0x154>)
   225ae:	2109      	movs	r1, #9
   225b0:	2200      	movs	r2, #0
   225b2:	4613      	mov	r3, r2
   225b4:	2c04      	cmp	r4, #4
   225b6:	d10b      	bne.n	225d0 <_ZN20complex_dynamic_type3app17h5b7bc60d6e5eb05aE+0x14c>
   225b8:	df04      	svc	4
   225ba:	b019      	add	sp, #100	@ 0x64
   225bc:	bdf0      	pop	{r4, r5, r6, r7, pc}
   225be:	1c68      	adds	r0, r5, #1
   225c0:	2246      	movs	r2, #70	@ 0x46
   225c2:	4621      	mov	r1, r4
   225c4:	f008 fda2 	bl	2b10c <__aeabi_memcpy>
   225c8:	9801      	ldr	r0, [sp, #4]
   225ca:	7028      	strb	r0, [r5, #0]
   225cc:	b019      	add	sp, #100	@ 0x64
   225ce:	bdf0      	pop	{r4, r5, r6, r7, pc}
   225d0:	df03      	svc	3
   225d2:	b019      	add	sp, #100	@ 0x64
   225d4:	bdf0      	pop	{r4, r5, r6, r7, pc}
   225d6:	46c0      	nop			@ (mov r8, r8)
   225d8:	00001d7e 	.word	0x00001d7e

000225dc <_ZN20complex_dynamic_type3app17h5fe3afa169c11195E>:
   225dc:	b5f0      	push	{r4, r5, r6, r7, lr}
   225de:	af03      	add	r7, sp, #12
   225e0:	b09f      	sub	sp, #124	@ 0x7c
   225e2:	9003      	str	r0, [sp, #12]
   225e4:	a804      	add	r0, sp, #16
   225e6:	2602      	movs	r6, #2
   225e8:	7006      	strb	r6, [r0, #0]
   225ea:	1c40      	adds	r0, r0, #1
   225ec:	9002      	str	r0, [sp, #8]
   225ee:	2555      	movs	r5, #85	@ 0x55
   225f0:	462a      	mov	r2, r5
   225f2:	f008 fd8b 	bl	2b10c <__aeabi_memcpy>
   225f6:	ac1a      	add	r4, sp, #104	@ 0x68
   225f8:	1c60      	adds	r0, r4, #1
   225fa:	2111      	movs	r1, #17
   225fc:	9001      	str	r0, [sp, #4]
   225fe:	f008 fbc5 	bl	2ad8c <__aeabi_memclr>
   22602:	7026      	strb	r6, [r4, #0]
   22604:	484a      	ldr	r0, [pc, #296]	@ (22730 <_ZN20complex_dynamic_type3app17h5fe3afa169c11195E+0x154>)
   22606:	4631      	mov	r1, r6
   22608:	9a02      	ldr	r2, [sp, #8]
   2260a:	462b      	mov	r3, r5
   2260c:	df04      	svc	4
   2260e:	2802      	cmp	r0, #2
   22610:	d104      	bne.n	2261c <_ZN20complex_dynamic_type3app17h5fe3afa169c11195E+0x40>
   22612:	2001      	movs	r0, #1
   22614:	9a03      	ldr	r2, [sp, #12]
   22616:	7010      	strb	r0, [r2, #0]
   22618:	6051      	str	r1, [r2, #4]
   2261a:	e02e      	b.n	2267a <_ZN20complex_dynamic_type3app17h5fe3afa169c11195E+0x9e>
   2261c:	9d03      	ldr	r5, [sp, #12]
   2261e:	a804      	add	r0, sp, #16
   22620:	2104      	movs	r1, #4
   22622:	7001      	strb	r1, [r0, #0]
   22624:	4842      	ldr	r0, [pc, #264]	@ (22730 <_ZN20complex_dynamic_type3app17h5fe3afa169c11195E+0x154>)
   22626:	2102      	movs	r1, #2
   22628:	2311      	movs	r3, #17
   2262a:	9c01      	ldr	r4, [sp, #4]
   2262c:	4622      	mov	r2, r4
   2262e:	df03      	svc	3
   22630:	2802      	cmp	r0, #2
   22632:	d10e      	bne.n	22652 <_ZN20complex_dynamic_type3app17h5fe3afa169c11195E+0x76>
   22634:	2001      	movs	r0, #1
   22636:	7028      	strb	r0, [r5, #0]
   22638:	6069      	str	r1, [r5, #4]
   2263a:	a81a      	add	r0, sp, #104	@ 0x68
   2263c:	7800      	ldrb	r0, [r0, #0]
   2263e:	2802      	cmp	r0, #2
   22640:	d01b      	beq.n	2267a <_ZN20complex_dynamic_type3app17h5fe3afa169c11195E+0x9e>
   22642:	2803      	cmp	r0, #3
   22644:	d014      	beq.n	22670 <_ZN20complex_dynamic_type3app17h5fe3afa169c11195E+0x94>
   22646:	483a      	ldr	r0, [pc, #232]	@ (22730 <_ZN20complex_dynamic_type3app17h5fe3afa169c11195E+0x154>)
   22648:	2102      	movs	r1, #2
   2264a:	2200      	movs	r2, #0
   2264c:	4613      	mov	r3, r2
   2264e:	df04      	svc	4
   22650:	e013      	b.n	2267a <_ZN20complex_dynamic_type3app17h5fe3afa169c11195E+0x9e>
   22652:	a81a      	add	r0, sp, #104	@ 0x68
   22654:	2103      	movs	r1, #3
   22656:	7001      	strb	r1, [r0, #0]
   22658:	4835      	ldr	r0, [pc, #212]	@ (22730 <_ZN20complex_dynamic_type3app17h5fe3afa169c11195E+0x154>)
   2265a:	2602      	movs	r6, #2
   2265c:	2300      	movs	r3, #0
   2265e:	4631      	mov	r1, r6
   22660:	4632      	mov	r2, r6
   22662:	9302      	str	r3, [sp, #8]
   22664:	df02      	svc	2
   22666:	2880      	cmp	r0, #128	@ 0x80
   22668:	d21b      	bcs.n	226a2 <_ZN20complex_dynamic_type3app17h5fe3afa169c11195E+0xc6>
   2266a:	2001      	movs	r0, #1
   2266c:	7028      	strb	r0, [r5, #0]
   2266e:	6069      	str	r1, [r5, #4]
   22670:	482f      	ldr	r0, [pc, #188]	@ (22730 <_ZN20complex_dynamic_type3app17h5fe3afa169c11195E+0x154>)
   22672:	2102      	movs	r1, #2
   22674:	2200      	movs	r2, #0
   22676:	4613      	mov	r3, r2
   22678:	df03      	svc	3
   2267a:	a804      	add	r0, sp, #16
   2267c:	7800      	ldrb	r0, [r0, #0]
   2267e:	2802      	cmp	r0, #2
   22680:	d047      	beq.n	22712 <_ZN20complex_dynamic_type3app17h5fe3afa169c11195E+0x136>
   22682:	2804      	cmp	r0, #4
   22684:	d106      	bne.n	22694 <_ZN20complex_dynamic_type3app17h5fe3afa169c11195E+0xb8>
   22686:	482a      	ldr	r0, [pc, #168]	@ (22730 <_ZN20complex_dynamic_type3app17h5fe3afa169c11195E+0x154>)
   22688:	2102      	movs	r1, #2
   2268a:	2200      	movs	r2, #0
   2268c:	4613      	mov	r3, r2
   2268e:	df04      	svc	4
   22690:	b01f      	add	sp, #124	@ 0x7c
   22692:	bdf0      	pop	{r4, r5, r6, r7, pc}
   22694:	4826      	ldr	r0, [pc, #152]	@ (22730 <_ZN20complex_dynamic_type3app17h5fe3afa169c11195E+0x154>)
   22696:	2102      	movs	r1, #2
   22698:	2200      	movs	r2, #0
   2269a:	4613      	mov	r3, r2
   2269c:	df03      	svc	3
   2269e:	b01f      	add	sp, #124	@ 0x7c
   226a0:	bdf0      	pop	{r4, r5, r6, r7, pc}
   226a2:	a804      	add	r0, sp, #16
   226a4:	7800      	ldrb	r0, [r0, #0]
   226a6:	2802      	cmp	r0, #2
   226a8:	d00c      	beq.n	226c4 <_ZN20complex_dynamic_type3app17h5fe3afa169c11195E+0xe8>
   226aa:	2803      	cmp	r0, #3
   226ac:	d105      	bne.n	226ba <_ZN20complex_dynamic_type3app17h5fe3afa169c11195E+0xde>
   226ae:	4820      	ldr	r0, [pc, #128]	@ (22730 <_ZN20complex_dynamic_type3app17h5fe3afa169c11195E+0x154>)
   226b0:	2102      	movs	r1, #2
   226b2:	2200      	movs	r2, #0
   226b4:	4613      	mov	r3, r2
   226b6:	df03      	svc	3
   226b8:	e004      	b.n	226c4 <_ZN20complex_dynamic_type3app17h5fe3afa169c11195E+0xe8>
   226ba:	481d      	ldr	r0, [pc, #116]	@ (22730 <_ZN20complex_dynamic_type3app17h5fe3afa169c11195E+0x154>)
   226bc:	2102      	movs	r1, #2
   226be:	2200      	movs	r2, #0
   226c0:	4613      	mov	r3, r2
   226c2:	df04      	svc	4
   226c4:	a804      	add	r0, sp, #16
   226c6:	7006      	strb	r6, [r0, #0]
   226c8:	a81a      	add	r0, sp, #104	@ 0x68
   226ca:	7800      	ldrb	r0, [r0, #0]
   226cc:	2804      	cmp	r0, #4
   226ce:	d008      	beq.n	226e2 <_ZN20complex_dynamic_type3app17h5fe3afa169c11195E+0x106>
   226d0:	2803      	cmp	r0, #3
   226d2:	d120      	bne.n	22716 <_ZN20complex_dynamic_type3app17h5fe3afa169c11195E+0x13a>
   226d4:	4626      	mov	r6, r4
   226d6:	4816      	ldr	r0, [pc, #88]	@ (22730 <_ZN20complex_dynamic_type3app17h5fe3afa169c11195E+0x154>)
   226d8:	2102      	movs	r1, #2
   226da:	2200      	movs	r2, #0
   226dc:	4613      	mov	r3, r2
   226de:	df03      	svc	3
   226e0:	e005      	b.n	226ee <_ZN20complex_dynamic_type3app17h5fe3afa169c11195E+0x112>
   226e2:	4626      	mov	r6, r4
   226e4:	4812      	ldr	r0, [pc, #72]	@ (22730 <_ZN20complex_dynamic_type3app17h5fe3afa169c11195E+0x154>)
   226e6:	2102      	movs	r1, #2
   226e8:	2200      	movs	r2, #0
   226ea:	4613      	mov	r3, r2
   226ec:	df04      	svc	4
   226ee:	a804      	add	r0, sp, #16
   226f0:	7804      	ldrb	r4, [r0, #0]
   226f2:	1c68      	adds	r0, r5, #1
   226f4:	2211      	movs	r2, #17
   226f6:	4631      	mov	r1, r6
   226f8:	f008 fd08 	bl	2b10c <__aeabi_memcpy>
   226fc:	9802      	ldr	r0, [sp, #8]
   226fe:	7028      	strb	r0, [r5, #0]
   22700:	2c02      	cmp	r4, #2
   22702:	d006      	beq.n	22712 <_ZN20complex_dynamic_type3app17h5fe3afa169c11195E+0x136>
   22704:	480a      	ldr	r0, [pc, #40]	@ (22730 <_ZN20complex_dynamic_type3app17h5fe3afa169c11195E+0x154>)
   22706:	2102      	movs	r1, #2
   22708:	2200      	movs	r2, #0
   2270a:	4613      	mov	r3, r2
   2270c:	2c04      	cmp	r4, #4
   2270e:	d10b      	bne.n	22728 <_ZN20complex_dynamic_type3app17h5fe3afa169c11195E+0x14c>
   22710:	df04      	svc	4
   22712:	b01f      	add	sp, #124	@ 0x7c
   22714:	bdf0      	pop	{r4, r5, r6, r7, pc}
   22716:	1c68      	adds	r0, r5, #1
   22718:	2211      	movs	r2, #17
   2271a:	4621      	mov	r1, r4
   2271c:	f008 fcf6 	bl	2b10c <__aeabi_memcpy>
   22720:	9802      	ldr	r0, [sp, #8]
   22722:	7028      	strb	r0, [r5, #0]
   22724:	b01f      	add	sp, #124	@ 0x7c
   22726:	bdf0      	pop	{r4, r5, r6, r7, pc}
   22728:	df03      	svc	3
   2272a:	b01f      	add	sp, #124	@ 0x7c
   2272c:	bdf0      	pop	{r4, r5, r6, r7, pc}
   2272e:	46c0      	nop			@ (mov r8, r8)
   22730:	00000c89 	.word	0x00000c89

00022734 <_ZN20complex_dynamic_type3app17h61107acc5270ab0bE>:
   22734:	b5f0      	push	{r4, r5, r6, r7, lr}
   22736:	af03      	add	r7, sp, #12
   22738:	b09f      	sub	sp, #124	@ 0x7c
   2273a:	9003      	str	r0, [sp, #12]
   2273c:	a804      	add	r0, sp, #16
   2273e:	2402      	movs	r4, #2
   22740:	7004      	strb	r4, [r0, #0]
   22742:	1c46      	adds	r6, r0, #1
   22744:	2213      	movs	r2, #19
   22746:	9202      	str	r2, [sp, #8]
   22748:	4630      	mov	r0, r6
   2274a:	f008 fcdf 	bl	2b10c <__aeabi_memcpy>
   2274e:	ad09      	add	r5, sp, #36	@ 0x24
   22750:	1c68      	adds	r0, r5, #1
   22752:	2155      	movs	r1, #85	@ 0x55
   22754:	9001      	str	r0, [sp, #4]
   22756:	f008 fb19 	bl	2ad8c <__aeabi_memclr>
   2275a:	9400      	str	r4, [sp, #0]
   2275c:	702c      	strb	r4, [r5, #0]
   2275e:	4848      	ldr	r0, [pc, #288]	@ (22880 <_ZN20complex_dynamic_type3app17h61107acc5270ab0bE+0x14c>)
   22760:	2109      	movs	r1, #9
   22762:	4632      	mov	r2, r6
   22764:	9b02      	ldr	r3, [sp, #8]
   22766:	df04      	svc	4
   22768:	2802      	cmp	r0, #2
   2276a:	d104      	bne.n	22776 <_ZN20complex_dynamic_type3app17h61107acc5270ab0bE+0x42>
   2276c:	2001      	movs	r0, #1
   2276e:	9a03      	ldr	r2, [sp, #12]
   22770:	7010      	strb	r0, [r2, #0]
   22772:	6051      	str	r1, [r2, #4]
   22774:	e02d      	b.n	227d2 <_ZN20complex_dynamic_type3app17h61107acc5270ab0bE+0x9e>
   22776:	9d03      	ldr	r5, [sp, #12]
   22778:	a804      	add	r0, sp, #16
   2277a:	2104      	movs	r1, #4
   2277c:	7001      	strb	r1, [r0, #0]
   2277e:	4840      	ldr	r0, [pc, #256]	@ (22880 <_ZN20complex_dynamic_type3app17h61107acc5270ab0bE+0x14c>)
   22780:	2107      	movs	r1, #7
   22782:	2355      	movs	r3, #85	@ 0x55
   22784:	9c01      	ldr	r4, [sp, #4]
   22786:	4622      	mov	r2, r4
   22788:	df03      	svc	3
   2278a:	2802      	cmp	r0, #2
   2278c:	d10e      	bne.n	227ac <_ZN20complex_dynamic_type3app17h61107acc5270ab0bE+0x78>
   2278e:	2001      	movs	r0, #1
   22790:	7028      	strb	r0, [r5, #0]
   22792:	6069      	str	r1, [r5, #4]
   22794:	a809      	add	r0, sp, #36	@ 0x24
   22796:	7800      	ldrb	r0, [r0, #0]
   22798:	2802      	cmp	r0, #2
   2279a:	d01a      	beq.n	227d2 <_ZN20complex_dynamic_type3app17h61107acc5270ab0bE+0x9e>
   2279c:	2803      	cmp	r0, #3
   2279e:	d013      	beq.n	227c8 <_ZN20complex_dynamic_type3app17h61107acc5270ab0bE+0x94>
   227a0:	4837      	ldr	r0, [pc, #220]	@ (22880 <_ZN20complex_dynamic_type3app17h61107acc5270ab0bE+0x14c>)
   227a2:	2107      	movs	r1, #7
   227a4:	2200      	movs	r2, #0
   227a6:	4613      	mov	r3, r2
   227a8:	df04      	svc	4
   227aa:	e012      	b.n	227d2 <_ZN20complex_dynamic_type3app17h61107acc5270ab0bE+0x9e>
   227ac:	a809      	add	r0, sp, #36	@ 0x24
   227ae:	2103      	movs	r1, #3
   227b0:	7001      	strb	r1, [r0, #0]
   227b2:	4833      	ldr	r0, [pc, #204]	@ (22880 <_ZN20complex_dynamic_type3app17h61107acc5270ab0bE+0x14c>)
   227b4:	2109      	movs	r1, #9
   227b6:	2207      	movs	r2, #7
   227b8:	2600      	movs	r6, #0
   227ba:	4633      	mov	r3, r6
   227bc:	df02      	svc	2
   227be:	2880      	cmp	r0, #128	@ 0x80
   227c0:	d21b      	bcs.n	227fa <_ZN20complex_dynamic_type3app17h61107acc5270ab0bE+0xc6>
   227c2:	2001      	movs	r0, #1
   227c4:	7028      	strb	r0, [r5, #0]
   227c6:	6069      	str	r1, [r5, #4]
   227c8:	482d      	ldr	r0, [pc, #180]	@ (22880 <_ZN20complex_dynamic_type3app17h61107acc5270ab0bE+0x14c>)
   227ca:	2107      	movs	r1, #7
   227cc:	2200      	movs	r2, #0
   227ce:	4613      	mov	r3, r2
   227d0:	df03      	svc	3
   227d2:	a804      	add	r0, sp, #16
   227d4:	7800      	ldrb	r0, [r0, #0]
   227d6:	2802      	cmp	r0, #2
   227d8:	d045      	beq.n	22866 <_ZN20complex_dynamic_type3app17h61107acc5270ab0bE+0x132>
   227da:	2804      	cmp	r0, #4
   227dc:	d106      	bne.n	227ec <_ZN20complex_dynamic_type3app17h61107acc5270ab0bE+0xb8>
   227de:	4828      	ldr	r0, [pc, #160]	@ (22880 <_ZN20complex_dynamic_type3app17h61107acc5270ab0bE+0x14c>)
   227e0:	2109      	movs	r1, #9
   227e2:	2200      	movs	r2, #0
   227e4:	4613      	mov	r3, r2
   227e6:	df04      	svc	4
   227e8:	b01f      	add	sp, #124	@ 0x7c
   227ea:	bdf0      	pop	{r4, r5, r6, r7, pc}
   227ec:	4824      	ldr	r0, [pc, #144]	@ (22880 <_ZN20complex_dynamic_type3app17h61107acc5270ab0bE+0x14c>)
   227ee:	2109      	movs	r1, #9
   227f0:	2200      	movs	r2, #0
   227f2:	4613      	mov	r3, r2
   227f4:	df03      	svc	3
   227f6:	b01f      	add	sp, #124	@ 0x7c
   227f8:	bdf0      	pop	{r4, r5, r6, r7, pc}
   227fa:	a804      	add	r0, sp, #16
   227fc:	7800      	ldrb	r0, [r0, #0]
   227fe:	2802      	cmp	r0, #2
   22800:	d00c      	beq.n	2281c <_ZN20complex_dynamic_type3app17h61107acc5270ab0bE+0xe8>
   22802:	2803      	cmp	r0, #3
   22804:	d105      	bne.n	22812 <_ZN20complex_dynamic_type3app17h61107acc5270ab0bE+0xde>
   22806:	481e      	ldr	r0, [pc, #120]	@ (22880 <_ZN20complex_dynamic_type3app17h61107acc5270ab0bE+0x14c>)
   22808:	2109      	movs	r1, #9
   2280a:	2200      	movs	r2, #0
   2280c:	4613      	mov	r3, r2
   2280e:	df03      	svc	3
   22810:	e004      	b.n	2281c <_ZN20complex_dynamic_type3app17h61107acc5270ab0bE+0xe8>
   22812:	481b      	ldr	r0, [pc, #108]	@ (22880 <_ZN20complex_dynamic_type3app17h61107acc5270ab0bE+0x14c>)
   22814:	2109      	movs	r1, #9
   22816:	2200      	movs	r2, #0
   22818:	4613      	mov	r3, r2
   2281a:	df04      	svc	4
   2281c:	a804      	add	r0, sp, #16
   2281e:	9900      	ldr	r1, [sp, #0]
   22820:	7001      	strb	r1, [r0, #0]
   22822:	a809      	add	r0, sp, #36	@ 0x24
   22824:	7800      	ldrb	r0, [r0, #0]
   22826:	2804      	cmp	r0, #4
   22828:	d007      	beq.n	2283a <_ZN20complex_dynamic_type3app17h61107acc5270ab0bE+0x106>
   2282a:	2803      	cmp	r0, #3
   2282c:	d11d      	bne.n	2286a <_ZN20complex_dynamic_type3app17h61107acc5270ab0bE+0x136>
   2282e:	4814      	ldr	r0, [pc, #80]	@ (22880 <_ZN20complex_dynamic_type3app17h61107acc5270ab0bE+0x14c>)
   22830:	2107      	movs	r1, #7
   22832:	2200      	movs	r2, #0
   22834:	4613      	mov	r3, r2
   22836:	df03      	svc	3
   22838:	e004      	b.n	22844 <_ZN20complex_dynamic_type3app17h61107acc5270ab0bE+0x110>
   2283a:	4811      	ldr	r0, [pc, #68]	@ (22880 <_ZN20complex_dynamic_type3app17h61107acc5270ab0bE+0x14c>)
   2283c:	2107      	movs	r1, #7
   2283e:	2200      	movs	r2, #0
   22840:	4613      	mov	r3, r2
   22842:	df04      	svc	4
   22844:	a804      	add	r0, sp, #16
   22846:	7804      	ldrb	r4, [r0, #0]
   22848:	1c68      	adds	r0, r5, #1
   2284a:	2255      	movs	r2, #85	@ 0x55
   2284c:	9901      	ldr	r1, [sp, #4]
   2284e:	f008 fc5d 	bl	2b10c <__aeabi_memcpy>
   22852:	702e      	strb	r6, [r5, #0]
   22854:	2c02      	cmp	r4, #2
   22856:	d006      	beq.n	22866 <_ZN20complex_dynamic_type3app17h61107acc5270ab0bE+0x132>
   22858:	4809      	ldr	r0, [pc, #36]	@ (22880 <_ZN20complex_dynamic_type3app17h61107acc5270ab0bE+0x14c>)
   2285a:	2109      	movs	r1, #9
   2285c:	2200      	movs	r2, #0
   2285e:	4613      	mov	r3, r2
   22860:	2c04      	cmp	r4, #4
   22862:	d10a      	bne.n	2287a <_ZN20complex_dynamic_type3app17h61107acc5270ab0bE+0x146>
   22864:	df04      	svc	4
   22866:	b01f      	add	sp, #124	@ 0x7c
   22868:	bdf0      	pop	{r4, r5, r6, r7, pc}
   2286a:	1c68      	adds	r0, r5, #1
   2286c:	2255      	movs	r2, #85	@ 0x55
   2286e:	4621      	mov	r1, r4
   22870:	f008 fc4c 	bl	2b10c <__aeabi_memcpy>
   22874:	702e      	strb	r6, [r5, #0]
   22876:	b01f      	add	sp, #124	@ 0x7c
   22878:	bdf0      	pop	{r4, r5, r6, r7, pc}
   2287a:	df03      	svc	3
   2287c:	b01f      	add	sp, #124	@ 0x7c
   2287e:	bdf0      	pop	{r4, r5, r6, r7, pc}
   22880:	0000032e 	.word	0x0000032e

00022884 <_ZN20complex_dynamic_type3app17h6181de168ef18544E>:
   22884:	b5f0      	push	{r4, r5, r6, r7, lr}
   22886:	af03      	add	r7, sp, #12
   22888:	b099      	sub	sp, #100	@ 0x64
   2288a:	9004      	str	r0, [sp, #16]
   2288c:	a805      	add	r0, sp, #20
   2288e:	2402      	movs	r4, #2
   22890:	7004      	strb	r4, [r0, #0]
   22892:	1c46      	adds	r6, r0, #1
   22894:	221e      	movs	r2, #30
   22896:	9203      	str	r2, [sp, #12]
   22898:	4630      	mov	r0, r6
   2289a:	f008 fc37 	bl	2b10c <__aeabi_memcpy>
   2289e:	ad0d      	add	r5, sp, #52	@ 0x34
   228a0:	1c68      	adds	r0, r5, #1
   228a2:	212c      	movs	r1, #44	@ 0x2c
   228a4:	9002      	str	r0, [sp, #8]
   228a6:	f008 fa71 	bl	2ad8c <__aeabi_memclr>
   228aa:	9401      	str	r4, [sp, #4]
   228ac:	702c      	strb	r4, [r5, #0]
   228ae:	4848      	ldr	r0, [pc, #288]	@ (229d0 <_ZN20complex_dynamic_type3app17h6181de168ef18544E+0x14c>)
   228b0:	2107      	movs	r1, #7
   228b2:	4632      	mov	r2, r6
   228b4:	9b03      	ldr	r3, [sp, #12]
   228b6:	df04      	svc	4
   228b8:	2802      	cmp	r0, #2
   228ba:	d104      	bne.n	228c6 <_ZN20complex_dynamic_type3app17h6181de168ef18544E+0x42>
   228bc:	2001      	movs	r0, #1
   228be:	9a04      	ldr	r2, [sp, #16]
   228c0:	7010      	strb	r0, [r2, #0]
   228c2:	6051      	str	r1, [r2, #4]
   228c4:	e02d      	b.n	22922 <_ZN20complex_dynamic_type3app17h6181de168ef18544E+0x9e>
   228c6:	9d04      	ldr	r5, [sp, #16]
   228c8:	a805      	add	r0, sp, #20
   228ca:	2104      	movs	r1, #4
   228cc:	7001      	strb	r1, [r0, #0]
   228ce:	4840      	ldr	r0, [pc, #256]	@ (229d0 <_ZN20complex_dynamic_type3app17h6181de168ef18544E+0x14c>)
   228d0:	2100      	movs	r1, #0
   228d2:	232c      	movs	r3, #44	@ 0x2c
   228d4:	9c02      	ldr	r4, [sp, #8]
   228d6:	4622      	mov	r2, r4
   228d8:	df03      	svc	3
   228da:	2802      	cmp	r0, #2
   228dc:	d10e      	bne.n	228fc <_ZN20complex_dynamic_type3app17h6181de168ef18544E+0x78>
   228de:	2001      	movs	r0, #1
   228e0:	7028      	strb	r0, [r5, #0]
   228e2:	6069      	str	r1, [r5, #4]
   228e4:	a80d      	add	r0, sp, #52	@ 0x34
   228e6:	7800      	ldrb	r0, [r0, #0]
   228e8:	2802      	cmp	r0, #2
   228ea:	d01a      	beq.n	22922 <_ZN20complex_dynamic_type3app17h6181de168ef18544E+0x9e>
   228ec:	2803      	cmp	r0, #3
   228ee:	d013      	beq.n	22918 <_ZN20complex_dynamic_type3app17h6181de168ef18544E+0x94>
   228f0:	4837      	ldr	r0, [pc, #220]	@ (229d0 <_ZN20complex_dynamic_type3app17h6181de168ef18544E+0x14c>)
   228f2:	2100      	movs	r1, #0
   228f4:	460a      	mov	r2, r1
   228f6:	460b      	mov	r3, r1
   228f8:	df04      	svc	4
   228fa:	e012      	b.n	22922 <_ZN20complex_dynamic_type3app17h6181de168ef18544E+0x9e>
   228fc:	a80d      	add	r0, sp, #52	@ 0x34
   228fe:	2103      	movs	r1, #3
   22900:	7001      	strb	r1, [r0, #0]
   22902:	4833      	ldr	r0, [pc, #204]	@ (229d0 <_ZN20complex_dynamic_type3app17h6181de168ef18544E+0x14c>)
   22904:	2107      	movs	r1, #7
   22906:	2600      	movs	r6, #0
   22908:	4632      	mov	r2, r6
   2290a:	4633      	mov	r3, r6
   2290c:	df02      	svc	2
   2290e:	2880      	cmp	r0, #128	@ 0x80
   22910:	d21b      	bcs.n	2294a <_ZN20complex_dynamic_type3app17h6181de168ef18544E+0xc6>
   22912:	2001      	movs	r0, #1
   22914:	7028      	strb	r0, [r5, #0]
   22916:	6069      	str	r1, [r5, #4]
   22918:	482d      	ldr	r0, [pc, #180]	@ (229d0 <_ZN20complex_dynamic_type3app17h6181de168ef18544E+0x14c>)
   2291a:	2100      	movs	r1, #0
   2291c:	460a      	mov	r2, r1
   2291e:	460b      	mov	r3, r1
   22920:	df03      	svc	3
   22922:	a805      	add	r0, sp, #20
   22924:	7800      	ldrb	r0, [r0, #0]
   22926:	2802      	cmp	r0, #2
   22928:	d045      	beq.n	229b6 <_ZN20complex_dynamic_type3app17h6181de168ef18544E+0x132>
   2292a:	2804      	cmp	r0, #4
   2292c:	d106      	bne.n	2293c <_ZN20complex_dynamic_type3app17h6181de168ef18544E+0xb8>
   2292e:	4828      	ldr	r0, [pc, #160]	@ (229d0 <_ZN20complex_dynamic_type3app17h6181de168ef18544E+0x14c>)
   22930:	2107      	movs	r1, #7
   22932:	2200      	movs	r2, #0
   22934:	4613      	mov	r3, r2
   22936:	df04      	svc	4
   22938:	b019      	add	sp, #100	@ 0x64
   2293a:	bdf0      	pop	{r4, r5, r6, r7, pc}
   2293c:	4824      	ldr	r0, [pc, #144]	@ (229d0 <_ZN20complex_dynamic_type3app17h6181de168ef18544E+0x14c>)
   2293e:	2107      	movs	r1, #7
   22940:	2200      	movs	r2, #0
   22942:	4613      	mov	r3, r2
   22944:	df03      	svc	3
   22946:	b019      	add	sp, #100	@ 0x64
   22948:	bdf0      	pop	{r4, r5, r6, r7, pc}
   2294a:	a805      	add	r0, sp, #20
   2294c:	7800      	ldrb	r0, [r0, #0]
   2294e:	2802      	cmp	r0, #2
   22950:	d00c      	beq.n	2296c <_ZN20complex_dynamic_type3app17h6181de168ef18544E+0xe8>
   22952:	2803      	cmp	r0, #3
   22954:	d105      	bne.n	22962 <_ZN20complex_dynamic_type3app17h6181de168ef18544E+0xde>
   22956:	481e      	ldr	r0, [pc, #120]	@ (229d0 <_ZN20complex_dynamic_type3app17h6181de168ef18544E+0x14c>)
   22958:	2107      	movs	r1, #7
   2295a:	2200      	movs	r2, #0
   2295c:	4613      	mov	r3, r2
   2295e:	df03      	svc	3
   22960:	e004      	b.n	2296c <_ZN20complex_dynamic_type3app17h6181de168ef18544E+0xe8>
   22962:	481b      	ldr	r0, [pc, #108]	@ (229d0 <_ZN20complex_dynamic_type3app17h6181de168ef18544E+0x14c>)
   22964:	2107      	movs	r1, #7
   22966:	2200      	movs	r2, #0
   22968:	4613      	mov	r3, r2
   2296a:	df04      	svc	4
   2296c:	a805      	add	r0, sp, #20
   2296e:	9901      	ldr	r1, [sp, #4]
   22970:	7001      	strb	r1, [r0, #0]
   22972:	a80d      	add	r0, sp, #52	@ 0x34
   22974:	7800      	ldrb	r0, [r0, #0]
   22976:	2804      	cmp	r0, #4
   22978:	d007      	beq.n	2298a <_ZN20complex_dynamic_type3app17h6181de168ef18544E+0x106>
   2297a:	2803      	cmp	r0, #3
   2297c:	d11d      	bne.n	229ba <_ZN20complex_dynamic_type3app17h6181de168ef18544E+0x136>
   2297e:	4814      	ldr	r0, [pc, #80]	@ (229d0 <_ZN20complex_dynamic_type3app17h6181de168ef18544E+0x14c>)
   22980:	2100      	movs	r1, #0
   22982:	460a      	mov	r2, r1
   22984:	460b      	mov	r3, r1
   22986:	df03      	svc	3
   22988:	e004      	b.n	22994 <_ZN20complex_dynamic_type3app17h6181de168ef18544E+0x110>
   2298a:	4811      	ldr	r0, [pc, #68]	@ (229d0 <_ZN20complex_dynamic_type3app17h6181de168ef18544E+0x14c>)
   2298c:	2100      	movs	r1, #0
   2298e:	460a      	mov	r2, r1
   22990:	460b      	mov	r3, r1
   22992:	df04      	svc	4
   22994:	a805      	add	r0, sp, #20
   22996:	7804      	ldrb	r4, [r0, #0]
   22998:	1c68      	adds	r0, r5, #1
   2299a:	222c      	movs	r2, #44	@ 0x2c
   2299c:	9902      	ldr	r1, [sp, #8]
   2299e:	f008 fbb5 	bl	2b10c <__aeabi_memcpy>
   229a2:	702e      	strb	r6, [r5, #0]
   229a4:	2c02      	cmp	r4, #2
   229a6:	d006      	beq.n	229b6 <_ZN20complex_dynamic_type3app17h6181de168ef18544E+0x132>
   229a8:	4809      	ldr	r0, [pc, #36]	@ (229d0 <_ZN20complex_dynamic_type3app17h6181de168ef18544E+0x14c>)
   229aa:	2107      	movs	r1, #7
   229ac:	2200      	movs	r2, #0
   229ae:	4613      	mov	r3, r2
   229b0:	2c04      	cmp	r4, #4
   229b2:	d10a      	bne.n	229ca <_ZN20complex_dynamic_type3app17h6181de168ef18544E+0x146>
   229b4:	df04      	svc	4
   229b6:	b019      	add	sp, #100	@ 0x64
   229b8:	bdf0      	pop	{r4, r5, r6, r7, pc}
   229ba:	1c68      	adds	r0, r5, #1
   229bc:	222c      	movs	r2, #44	@ 0x2c
   229be:	4621      	mov	r1, r4
   229c0:	f008 fba4 	bl	2b10c <__aeabi_memcpy>
   229c4:	702e      	strb	r6, [r5, #0]
   229c6:	b019      	add	sp, #100	@ 0x64
   229c8:	bdf0      	pop	{r4, r5, r6, r7, pc}
   229ca:	df03      	svc	3
   229cc:	b019      	add	sp, #100	@ 0x64
   229ce:	bdf0      	pop	{r4, r5, r6, r7, pc}
   229d0:	000003fb 	.word	0x000003fb

000229d4 <_ZN20complex_dynamic_type3app17h67ea43fa1344c534E>:
   229d4:	b5f0      	push	{r4, r5, r6, r7, lr}
   229d6:	af03      	add	r7, sp, #12
   229d8:	b09d      	sub	sp, #116	@ 0x74
   229da:	9002      	str	r0, [sp, #8]
   229dc:	a803      	add	r0, sp, #12
   229de:	2602      	movs	r6, #2
   229e0:	7006      	strb	r6, [r0, #0]
   229e2:	1c40      	adds	r0, r0, #1
   229e4:	9001      	str	r0, [sp, #4]
   229e6:	2534      	movs	r5, #52	@ 0x34
   229e8:	462a      	mov	r2, r5
   229ea:	f008 fb8f 	bl	2b10c <__aeabi_memcpy>
   229ee:	ac11      	add	r4, sp, #68	@ 0x44
   229f0:	1c60      	adds	r0, r4, #1
   229f2:	212e      	movs	r1, #46	@ 0x2e
   229f4:	9000      	str	r0, [sp, #0]
   229f6:	f008 f9c9 	bl	2ad8c <__aeabi_memclr>
   229fa:	7026      	strb	r6, [r4, #0]
   229fc:	484a      	ldr	r0, [pc, #296]	@ (22b28 <_ZN20complex_dynamic_type3app17h67ea43fa1344c534E+0x154>)
   229fe:	4631      	mov	r1, r6
   22a00:	9a01      	ldr	r2, [sp, #4]
   22a02:	462b      	mov	r3, r5
   22a04:	df04      	svc	4
   22a06:	2802      	cmp	r0, #2
   22a08:	d104      	bne.n	22a14 <_ZN20complex_dynamic_type3app17h67ea43fa1344c534E+0x40>
   22a0a:	2001      	movs	r0, #1
   22a0c:	9a02      	ldr	r2, [sp, #8]
   22a0e:	7010      	strb	r0, [r2, #0]
   22a10:	6051      	str	r1, [r2, #4]
   22a12:	e02e      	b.n	22a72 <_ZN20complex_dynamic_type3app17h67ea43fa1344c534E+0x9e>
   22a14:	9d02      	ldr	r5, [sp, #8]
   22a16:	a803      	add	r0, sp, #12
   22a18:	2104      	movs	r1, #4
   22a1a:	7001      	strb	r1, [r0, #0]
   22a1c:	4842      	ldr	r0, [pc, #264]	@ (22b28 <_ZN20complex_dynamic_type3app17h67ea43fa1344c534E+0x154>)
   22a1e:	2108      	movs	r1, #8
   22a20:	232e      	movs	r3, #46	@ 0x2e
   22a22:	9c00      	ldr	r4, [sp, #0]
   22a24:	4622      	mov	r2, r4
   22a26:	df03      	svc	3
   22a28:	2802      	cmp	r0, #2
   22a2a:	d10e      	bne.n	22a4a <_ZN20complex_dynamic_type3app17h67ea43fa1344c534E+0x76>
   22a2c:	2001      	movs	r0, #1
   22a2e:	7028      	strb	r0, [r5, #0]
   22a30:	6069      	str	r1, [r5, #4]
   22a32:	a811      	add	r0, sp, #68	@ 0x44
   22a34:	7800      	ldrb	r0, [r0, #0]
   22a36:	2802      	cmp	r0, #2
   22a38:	d01b      	beq.n	22a72 <_ZN20complex_dynamic_type3app17h67ea43fa1344c534E+0x9e>
   22a3a:	2803      	cmp	r0, #3
   22a3c:	d014      	beq.n	22a68 <_ZN20complex_dynamic_type3app17h67ea43fa1344c534E+0x94>
   22a3e:	483a      	ldr	r0, [pc, #232]	@ (22b28 <_ZN20complex_dynamic_type3app17h67ea43fa1344c534E+0x154>)
   22a40:	2108      	movs	r1, #8
   22a42:	2200      	movs	r2, #0
   22a44:	4613      	mov	r3, r2
   22a46:	df04      	svc	4
   22a48:	e013      	b.n	22a72 <_ZN20complex_dynamic_type3app17h67ea43fa1344c534E+0x9e>
   22a4a:	a811      	add	r0, sp, #68	@ 0x44
   22a4c:	2103      	movs	r1, #3
   22a4e:	7001      	strb	r1, [r0, #0]
   22a50:	4835      	ldr	r0, [pc, #212]	@ (22b28 <_ZN20complex_dynamic_type3app17h67ea43fa1344c534E+0x154>)
   22a52:	2602      	movs	r6, #2
   22a54:	2208      	movs	r2, #8
   22a56:	2300      	movs	r3, #0
   22a58:	4631      	mov	r1, r6
   22a5a:	9301      	str	r3, [sp, #4]
   22a5c:	df02      	svc	2
   22a5e:	2880      	cmp	r0, #128	@ 0x80
   22a60:	d21b      	bcs.n	22a9a <_ZN20complex_dynamic_type3app17h67ea43fa1344c534E+0xc6>
   22a62:	2001      	movs	r0, #1
   22a64:	7028      	strb	r0, [r5, #0]
   22a66:	6069      	str	r1, [r5, #4]
   22a68:	482f      	ldr	r0, [pc, #188]	@ (22b28 <_ZN20complex_dynamic_type3app17h67ea43fa1344c534E+0x154>)
   22a6a:	2108      	movs	r1, #8
   22a6c:	2200      	movs	r2, #0
   22a6e:	4613      	mov	r3, r2
   22a70:	df03      	svc	3
   22a72:	a803      	add	r0, sp, #12
   22a74:	7800      	ldrb	r0, [r0, #0]
   22a76:	2802      	cmp	r0, #2
   22a78:	d047      	beq.n	22b0a <_ZN20complex_dynamic_type3app17h67ea43fa1344c534E+0x136>
   22a7a:	2804      	cmp	r0, #4
   22a7c:	d106      	bne.n	22a8c <_ZN20complex_dynamic_type3app17h67ea43fa1344c534E+0xb8>
   22a7e:	482a      	ldr	r0, [pc, #168]	@ (22b28 <_ZN20complex_dynamic_type3app17h67ea43fa1344c534E+0x154>)
   22a80:	2102      	movs	r1, #2
   22a82:	2200      	movs	r2, #0
   22a84:	4613      	mov	r3, r2
   22a86:	df04      	svc	4
   22a88:	b01d      	add	sp, #116	@ 0x74
   22a8a:	bdf0      	pop	{r4, r5, r6, r7, pc}
   22a8c:	4826      	ldr	r0, [pc, #152]	@ (22b28 <_ZN20complex_dynamic_type3app17h67ea43fa1344c534E+0x154>)
   22a8e:	2102      	movs	r1, #2
   22a90:	2200      	movs	r2, #0
   22a92:	4613      	mov	r3, r2
   22a94:	df03      	svc	3
   22a96:	b01d      	add	sp, #116	@ 0x74
   22a98:	bdf0      	pop	{r4, r5, r6, r7, pc}
   22a9a:	a803      	add	r0, sp, #12
   22a9c:	7800      	ldrb	r0, [r0, #0]
   22a9e:	2802      	cmp	r0, #2
   22aa0:	d00c      	beq.n	22abc <_ZN20complex_dynamic_type3app17h67ea43fa1344c534E+0xe8>
   22aa2:	2803      	cmp	r0, #3
   22aa4:	d105      	bne.n	22ab2 <_ZN20complex_dynamic_type3app17h67ea43fa1344c534E+0xde>
   22aa6:	4820      	ldr	r0, [pc, #128]	@ (22b28 <_ZN20complex_dynamic_type3app17h67ea43fa1344c534E+0x154>)
   22aa8:	2102      	movs	r1, #2
   22aaa:	2200      	movs	r2, #0
   22aac:	4613      	mov	r3, r2
   22aae:	df03      	svc	3
   22ab0:	e004      	b.n	22abc <_ZN20complex_dynamic_type3app17h67ea43fa1344c534E+0xe8>
   22ab2:	481d      	ldr	r0, [pc, #116]	@ (22b28 <_ZN20complex_dynamic_type3app17h67ea43fa1344c534E+0x154>)
   22ab4:	2102      	movs	r1, #2
   22ab6:	2200      	movs	r2, #0
   22ab8:	4613      	mov	r3, r2
   22aba:	df04      	svc	4
   22abc:	a803      	add	r0, sp, #12
   22abe:	7006      	strb	r6, [r0, #0]
   22ac0:	a811      	add	r0, sp, #68	@ 0x44
   22ac2:	7800      	ldrb	r0, [r0, #0]
   22ac4:	2804      	cmp	r0, #4
   22ac6:	d008      	beq.n	22ada <_ZN20complex_dynamic_type3app17h67ea43fa1344c534E+0x106>
   22ac8:	2803      	cmp	r0, #3
   22aca:	d120      	bne.n	22b0e <_ZN20complex_dynamic_type3app17h67ea43fa1344c534E+0x13a>
   22acc:	4626      	mov	r6, r4
   22ace:	4816      	ldr	r0, [pc, #88]	@ (22b28 <_ZN20complex_dynamic_type3app17h67ea43fa1344c534E+0x154>)
   22ad0:	2108      	movs	r1, #8
   22ad2:	2200      	movs	r2, #0
   22ad4:	4613      	mov	r3, r2
   22ad6:	df03      	svc	3
   22ad8:	e005      	b.n	22ae6 <_ZN20complex_dynamic_type3app17h67ea43fa1344c534E+0x112>
   22ada:	4626      	mov	r6, r4
   22adc:	4812      	ldr	r0, [pc, #72]	@ (22b28 <_ZN20complex_dynamic_type3app17h67ea43fa1344c534E+0x154>)
   22ade:	2108      	movs	r1, #8
   22ae0:	2200      	movs	r2, #0
   22ae2:	4613      	mov	r3, r2
   22ae4:	df04      	svc	4
   22ae6:	a803      	add	r0, sp, #12
   22ae8:	7804      	ldrb	r4, [r0, #0]
   22aea:	1c68      	adds	r0, r5, #1
   22aec:	222e      	movs	r2, #46	@ 0x2e
   22aee:	4631      	mov	r1, r6
   22af0:	f008 fb0c 	bl	2b10c <__aeabi_memcpy>
   22af4:	9801      	ldr	r0, [sp, #4]
   22af6:	7028      	strb	r0, [r5, #0]
   22af8:	2c02      	cmp	r4, #2
   22afa:	d006      	beq.n	22b0a <_ZN20complex_dynamic_type3app17h67ea43fa1344c534E+0x136>
   22afc:	480a      	ldr	r0, [pc, #40]	@ (22b28 <_ZN20complex_dynamic_type3app17h67ea43fa1344c534E+0x154>)
   22afe:	2102      	movs	r1, #2
   22b00:	2200      	movs	r2, #0
   22b02:	4613      	mov	r3, r2
   22b04:	2c04      	cmp	r4, #4
   22b06:	d10b      	bne.n	22b20 <_ZN20complex_dynamic_type3app17h67ea43fa1344c534E+0x14c>
   22b08:	df04      	svc	4
   22b0a:	b01d      	add	sp, #116	@ 0x74
   22b0c:	bdf0      	pop	{r4, r5, r6, r7, pc}
   22b0e:	1c68      	adds	r0, r5, #1
   22b10:	222e      	movs	r2, #46	@ 0x2e
   22b12:	4621      	mov	r1, r4
   22b14:	f008 fafa 	bl	2b10c <__aeabi_memcpy>
   22b18:	9801      	ldr	r0, [sp, #4]
   22b1a:	7028      	strb	r0, [r5, #0]
   22b1c:	b01d      	add	sp, #116	@ 0x74
   22b1e:	bdf0      	pop	{r4, r5, r6, r7, pc}
   22b20:	df03      	svc	3
   22b22:	b01d      	add	sp, #116	@ 0x74
   22b24:	bdf0      	pop	{r4, r5, r6, r7, pc}
   22b26:	46c0      	nop			@ (mov r8, r8)
   22b28:	00000209 	.word	0x00000209

00022b2c <_ZN20complex_dynamic_type3app17h68b0e57693ea540cE>:
   22b2c:	b5f0      	push	{r4, r5, r6, r7, lr}
   22b2e:	af03      	add	r7, sp, #12
   22b30:	b097      	sub	sp, #92	@ 0x5c
   22b32:	9004      	str	r0, [sp, #16]
   22b34:	a805      	add	r0, sp, #20
   22b36:	2402      	movs	r4, #2
   22b38:	7004      	strb	r4, [r0, #0]
   22b3a:	1c46      	adds	r6, r0, #1
   22b3c:	2227      	movs	r2, #39	@ 0x27
   22b3e:	9203      	str	r2, [sp, #12]
   22b40:	4630      	mov	r0, r6
   22b42:	f008 fae3 	bl	2b10c <__aeabi_memcpy>
   22b46:	ad0f      	add	r5, sp, #60	@ 0x3c
   22b48:	1c68      	adds	r0, r5, #1
   22b4a:	211e      	movs	r1, #30
   22b4c:	9002      	str	r0, [sp, #8]
   22b4e:	f008 f91d 	bl	2ad8c <__aeabi_memclr>
   22b52:	9401      	str	r4, [sp, #4]
   22b54:	702c      	strb	r4, [r5, #0]
   22b56:	4848      	ldr	r0, [pc, #288]	@ (22c78 <_ZN20complex_dynamic_type3app17h68b0e57693ea540cE+0x14c>)
   22b58:	2103      	movs	r1, #3
   22b5a:	4632      	mov	r2, r6
   22b5c:	9b03      	ldr	r3, [sp, #12]
   22b5e:	df04      	svc	4
   22b60:	2802      	cmp	r0, #2
   22b62:	d104      	bne.n	22b6e <_ZN20complex_dynamic_type3app17h68b0e57693ea540cE+0x42>
   22b64:	2001      	movs	r0, #1
   22b66:	9a04      	ldr	r2, [sp, #16]
   22b68:	7010      	strb	r0, [r2, #0]
   22b6a:	6051      	str	r1, [r2, #4]
   22b6c:	e02c      	b.n	22bc8 <_ZN20complex_dynamic_type3app17h68b0e57693ea540cE+0x9c>
   22b6e:	9d04      	ldr	r5, [sp, #16]
   22b70:	a805      	add	r0, sp, #20
   22b72:	2104      	movs	r1, #4
   22b74:	7001      	strb	r1, [r0, #0]
   22b76:	4840      	ldr	r0, [pc, #256]	@ (22c78 <_ZN20complex_dynamic_type3app17h68b0e57693ea540cE+0x14c>)
   22b78:	2403      	movs	r4, #3
   22b7a:	231e      	movs	r3, #30
   22b7c:	4621      	mov	r1, r4
   22b7e:	9a02      	ldr	r2, [sp, #8]
   22b80:	df03      	svc	3
   22b82:	2802      	cmp	r0, #2
   22b84:	d10e      	bne.n	22ba4 <_ZN20complex_dynamic_type3app17h68b0e57693ea540cE+0x78>
   22b86:	2001      	movs	r0, #1
   22b88:	7028      	strb	r0, [r5, #0]
   22b8a:	6069      	str	r1, [r5, #4]
   22b8c:	a80f      	add	r0, sp, #60	@ 0x3c
   22b8e:	7800      	ldrb	r0, [r0, #0]
   22b90:	2802      	cmp	r0, #2
   22b92:	d019      	beq.n	22bc8 <_ZN20complex_dynamic_type3app17h68b0e57693ea540cE+0x9c>
   22b94:	2803      	cmp	r0, #3
   22b96:	d012      	beq.n	22bbe <_ZN20complex_dynamic_type3app17h68b0e57693ea540cE+0x92>
   22b98:	4837      	ldr	r0, [pc, #220]	@ (22c78 <_ZN20complex_dynamic_type3app17h68b0e57693ea540cE+0x14c>)
   22b9a:	2103      	movs	r1, #3
   22b9c:	2200      	movs	r2, #0
   22b9e:	4613      	mov	r3, r2
   22ba0:	df04      	svc	4
   22ba2:	e011      	b.n	22bc8 <_ZN20complex_dynamic_type3app17h68b0e57693ea540cE+0x9c>
   22ba4:	a80f      	add	r0, sp, #60	@ 0x3c
   22ba6:	7004      	strb	r4, [r0, #0]
   22ba8:	4833      	ldr	r0, [pc, #204]	@ (22c78 <_ZN20complex_dynamic_type3app17h68b0e57693ea540cE+0x14c>)
   22baa:	2600      	movs	r6, #0
   22bac:	4621      	mov	r1, r4
   22bae:	4622      	mov	r2, r4
   22bb0:	4633      	mov	r3, r6
   22bb2:	df02      	svc	2
   22bb4:	2880      	cmp	r0, #128	@ 0x80
   22bb6:	d21b      	bcs.n	22bf0 <_ZN20complex_dynamic_type3app17h68b0e57693ea540cE+0xc4>
   22bb8:	2001      	movs	r0, #1
   22bba:	7028      	strb	r0, [r5, #0]
   22bbc:	6069      	str	r1, [r5, #4]
   22bbe:	482e      	ldr	r0, [pc, #184]	@ (22c78 <_ZN20complex_dynamic_type3app17h68b0e57693ea540cE+0x14c>)
   22bc0:	2103      	movs	r1, #3
   22bc2:	2200      	movs	r2, #0
   22bc4:	4613      	mov	r3, r2
   22bc6:	df03      	svc	3
   22bc8:	a805      	add	r0, sp, #20
   22bca:	7800      	ldrb	r0, [r0, #0]
   22bcc:	2802      	cmp	r0, #2
   22bce:	d045      	beq.n	22c5c <_ZN20complex_dynamic_type3app17h68b0e57693ea540cE+0x130>
   22bd0:	2804      	cmp	r0, #4
   22bd2:	d106      	bne.n	22be2 <_ZN20complex_dynamic_type3app17h68b0e57693ea540cE+0xb6>
   22bd4:	4828      	ldr	r0, [pc, #160]	@ (22c78 <_ZN20complex_dynamic_type3app17h68b0e57693ea540cE+0x14c>)
   22bd6:	2103      	movs	r1, #3
   22bd8:	2200      	movs	r2, #0
   22bda:	4613      	mov	r3, r2
   22bdc:	df04      	svc	4
   22bde:	b017      	add	sp, #92	@ 0x5c
   22be0:	bdf0      	pop	{r4, r5, r6, r7, pc}
   22be2:	4825      	ldr	r0, [pc, #148]	@ (22c78 <_ZN20complex_dynamic_type3app17h68b0e57693ea540cE+0x14c>)
   22be4:	2103      	movs	r1, #3
   22be6:	2200      	movs	r2, #0
   22be8:	4613      	mov	r3, r2
   22bea:	df03      	svc	3
   22bec:	b017      	add	sp, #92	@ 0x5c
   22bee:	bdf0      	pop	{r4, r5, r6, r7, pc}
   22bf0:	a805      	add	r0, sp, #20
   22bf2:	7800      	ldrb	r0, [r0, #0]
   22bf4:	2802      	cmp	r0, #2
   22bf6:	d00c      	beq.n	22c12 <_ZN20complex_dynamic_type3app17h68b0e57693ea540cE+0xe6>
   22bf8:	2803      	cmp	r0, #3
   22bfa:	d105      	bne.n	22c08 <_ZN20complex_dynamic_type3app17h68b0e57693ea540cE+0xdc>
   22bfc:	481e      	ldr	r0, [pc, #120]	@ (22c78 <_ZN20complex_dynamic_type3app17h68b0e57693ea540cE+0x14c>)
   22bfe:	2103      	movs	r1, #3
   22c00:	2200      	movs	r2, #0
   22c02:	4613      	mov	r3, r2
   22c04:	df03      	svc	3
   22c06:	e004      	b.n	22c12 <_ZN20complex_dynamic_type3app17h68b0e57693ea540cE+0xe6>
   22c08:	481b      	ldr	r0, [pc, #108]	@ (22c78 <_ZN20complex_dynamic_type3app17h68b0e57693ea540cE+0x14c>)
   22c0a:	2103      	movs	r1, #3
   22c0c:	2200      	movs	r2, #0
   22c0e:	4613      	mov	r3, r2
   22c10:	df04      	svc	4
   22c12:	a805      	add	r0, sp, #20
   22c14:	9901      	ldr	r1, [sp, #4]
   22c16:	7001      	strb	r1, [r0, #0]
   22c18:	a80f      	add	r0, sp, #60	@ 0x3c
   22c1a:	7800      	ldrb	r0, [r0, #0]
   22c1c:	2804      	cmp	r0, #4
   22c1e:	d007      	beq.n	22c30 <_ZN20complex_dynamic_type3app17h68b0e57693ea540cE+0x104>
   22c20:	2803      	cmp	r0, #3
   22c22:	d11d      	bne.n	22c60 <_ZN20complex_dynamic_type3app17h68b0e57693ea540cE+0x134>
   22c24:	4814      	ldr	r0, [pc, #80]	@ (22c78 <_ZN20complex_dynamic_type3app17h68b0e57693ea540cE+0x14c>)
   22c26:	2103      	movs	r1, #3
   22c28:	2200      	movs	r2, #0
   22c2a:	4613      	mov	r3, r2
   22c2c:	df03      	svc	3
   22c2e:	e004      	b.n	22c3a <_ZN20complex_dynamic_type3app17h68b0e57693ea540cE+0x10e>
   22c30:	4811      	ldr	r0, [pc, #68]	@ (22c78 <_ZN20complex_dynamic_type3app17h68b0e57693ea540cE+0x14c>)
   22c32:	2103      	movs	r1, #3
   22c34:	2200      	movs	r2, #0
   22c36:	4613      	mov	r3, r2
   22c38:	df04      	svc	4
   22c3a:	a805      	add	r0, sp, #20
   22c3c:	7804      	ldrb	r4, [r0, #0]
   22c3e:	1c68      	adds	r0, r5, #1
   22c40:	221e      	movs	r2, #30
   22c42:	9902      	ldr	r1, [sp, #8]
   22c44:	f008 fa62 	bl	2b10c <__aeabi_memcpy>
   22c48:	702e      	strb	r6, [r5, #0]
   22c4a:	2c02      	cmp	r4, #2
   22c4c:	d006      	beq.n	22c5c <_ZN20complex_dynamic_type3app17h68b0e57693ea540cE+0x130>
   22c4e:	480a      	ldr	r0, [pc, #40]	@ (22c78 <_ZN20complex_dynamic_type3app17h68b0e57693ea540cE+0x14c>)
   22c50:	2103      	movs	r1, #3
   22c52:	2200      	movs	r2, #0
   22c54:	4613      	mov	r3, r2
   22c56:	2c04      	cmp	r4, #4
   22c58:	d10a      	bne.n	22c70 <_ZN20complex_dynamic_type3app17h68b0e57693ea540cE+0x144>
   22c5a:	df04      	svc	4
   22c5c:	b017      	add	sp, #92	@ 0x5c
   22c5e:	bdf0      	pop	{r4, r5, r6, r7, pc}
   22c60:	1c68      	adds	r0, r5, #1
   22c62:	221e      	movs	r2, #30
   22c64:	9902      	ldr	r1, [sp, #8]
   22c66:	f008 fa51 	bl	2b10c <__aeabi_memcpy>
   22c6a:	702e      	strb	r6, [r5, #0]
   22c6c:	b017      	add	sp, #92	@ 0x5c
   22c6e:	bdf0      	pop	{r4, r5, r6, r7, pc}
   22c70:	df03      	svc	3
   22c72:	b017      	add	sp, #92	@ 0x5c
   22c74:	bdf0      	pop	{r4, r5, r6, r7, pc}
   22c76:	46c0      	nop			@ (mov r8, r8)
   22c78:	000010e2 	.word	0x000010e2

00022c7c <_ZN20complex_dynamic_type3app17h696b71b4b226ffe6E>:
   22c7c:	b5f0      	push	{r4, r5, r6, r7, lr}
   22c7e:	af03      	add	r7, sp, #12
   22c80:	b0a9      	sub	sp, #164	@ 0xa4
   22c82:	9003      	str	r0, [sp, #12]
   22c84:	a804      	add	r0, sp, #16
   22c86:	2402      	movs	r4, #2
   22c88:	7004      	strb	r4, [r0, #0]
   22c8a:	1c46      	adds	r6, r0, #1
   22c8c:	2263      	movs	r2, #99	@ 0x63
   22c8e:	9202      	str	r2, [sp, #8]
   22c90:	4630      	mov	r0, r6
   22c92:	f008 fa3b 	bl	2b10c <__aeabi_memcpy>
   22c96:	ad1d      	add	r5, sp, #116	@ 0x74
   22c98:	1c68      	adds	r0, r5, #1
   22c9a:	212c      	movs	r1, #44	@ 0x2c
   22c9c:	9001      	str	r0, [sp, #4]
   22c9e:	f008 f875 	bl	2ad8c <__aeabi_memclr>
   22ca2:	9400      	str	r4, [sp, #0]
   22ca4:	702c      	strb	r4, [r5, #0]
   22ca6:	2018      	movs	r0, #24
   22ca8:	2105      	movs	r1, #5
   22caa:	4632      	mov	r2, r6
   22cac:	9b02      	ldr	r3, [sp, #8]
   22cae:	df04      	svc	4
   22cb0:	2802      	cmp	r0, #2
   22cb2:	d104      	bne.n	22cbe <_ZN20complex_dynamic_type3app17h696b71b4b226ffe6E+0x42>
   22cb4:	2001      	movs	r0, #1
   22cb6:	9a03      	ldr	r2, [sp, #12]
   22cb8:	7010      	strb	r0, [r2, #0]
   22cba:	6051      	str	r1, [r2, #4]
   22cbc:	e02c      	b.n	22d18 <_ZN20complex_dynamic_type3app17h696b71b4b226ffe6E+0x9c>
   22cbe:	9d03      	ldr	r5, [sp, #12]
   22cc0:	a804      	add	r0, sp, #16
   22cc2:	2104      	movs	r1, #4
   22cc4:	7001      	strb	r1, [r0, #0]
   22cc6:	2018      	movs	r0, #24
   22cc8:	2403      	movs	r4, #3
   22cca:	232c      	movs	r3, #44	@ 0x2c
   22ccc:	4621      	mov	r1, r4
   22cce:	9a01      	ldr	r2, [sp, #4]
   22cd0:	df03      	svc	3
   22cd2:	2802      	cmp	r0, #2
   22cd4:	d10e      	bne.n	22cf4 <_ZN20complex_dynamic_type3app17h696b71b4b226ffe6E+0x78>
   22cd6:	2001      	movs	r0, #1
   22cd8:	7028      	strb	r0, [r5, #0]
   22cda:	6069      	str	r1, [r5, #4]
   22cdc:	a81d      	add	r0, sp, #116	@ 0x74
   22cde:	7800      	ldrb	r0, [r0, #0]
   22ce0:	2802      	cmp	r0, #2
   22ce2:	d019      	beq.n	22d18 <_ZN20complex_dynamic_type3app17h696b71b4b226ffe6E+0x9c>
   22ce4:	2803      	cmp	r0, #3
   22ce6:	d012      	beq.n	22d0e <_ZN20complex_dynamic_type3app17h696b71b4b226ffe6E+0x92>
   22ce8:	2018      	movs	r0, #24
   22cea:	2103      	movs	r1, #3
   22cec:	2200      	movs	r2, #0
   22cee:	4613      	mov	r3, r2
   22cf0:	df04      	svc	4
   22cf2:	e011      	b.n	22d18 <_ZN20complex_dynamic_type3app17h696b71b4b226ffe6E+0x9c>
   22cf4:	a81d      	add	r0, sp, #116	@ 0x74
   22cf6:	7004      	strb	r4, [r0, #0]
   22cf8:	2018      	movs	r0, #24
   22cfa:	2105      	movs	r1, #5
   22cfc:	2600      	movs	r6, #0
   22cfe:	4622      	mov	r2, r4
   22d00:	4633      	mov	r3, r6
   22d02:	df02      	svc	2
   22d04:	2880      	cmp	r0, #128	@ 0x80
   22d06:	d21b      	bcs.n	22d40 <_ZN20complex_dynamic_type3app17h696b71b4b226ffe6E+0xc4>
   22d08:	2001      	movs	r0, #1
   22d0a:	7028      	strb	r0, [r5, #0]
   22d0c:	6069      	str	r1, [r5, #4]
   22d0e:	2018      	movs	r0, #24
   22d10:	2103      	movs	r1, #3
   22d12:	2200      	movs	r2, #0
   22d14:	4613      	mov	r3, r2
   22d16:	df03      	svc	3
   22d18:	a804      	add	r0, sp, #16
   22d1a:	7800      	ldrb	r0, [r0, #0]
   22d1c:	2802      	cmp	r0, #2
   22d1e:	d045      	beq.n	22dac <_ZN20complex_dynamic_type3app17h696b71b4b226ffe6E+0x130>
   22d20:	2804      	cmp	r0, #4
   22d22:	d106      	bne.n	22d32 <_ZN20complex_dynamic_type3app17h696b71b4b226ffe6E+0xb6>
   22d24:	2018      	movs	r0, #24
   22d26:	2105      	movs	r1, #5
   22d28:	2200      	movs	r2, #0
   22d2a:	4613      	mov	r3, r2
   22d2c:	df04      	svc	4
   22d2e:	b029      	add	sp, #164	@ 0xa4
   22d30:	bdf0      	pop	{r4, r5, r6, r7, pc}
   22d32:	2018      	movs	r0, #24
   22d34:	2105      	movs	r1, #5
   22d36:	2200      	movs	r2, #0
   22d38:	4613      	mov	r3, r2
   22d3a:	df03      	svc	3
   22d3c:	b029      	add	sp, #164	@ 0xa4
   22d3e:	bdf0      	pop	{r4, r5, r6, r7, pc}
   22d40:	a804      	add	r0, sp, #16
   22d42:	7800      	ldrb	r0, [r0, #0]
   22d44:	2802      	cmp	r0, #2
   22d46:	d00c      	beq.n	22d62 <_ZN20complex_dynamic_type3app17h696b71b4b226ffe6E+0xe6>
   22d48:	2803      	cmp	r0, #3
   22d4a:	d105      	bne.n	22d58 <_ZN20complex_dynamic_type3app17h696b71b4b226ffe6E+0xdc>
   22d4c:	2018      	movs	r0, #24
   22d4e:	2105      	movs	r1, #5
   22d50:	2200      	movs	r2, #0
   22d52:	4613      	mov	r3, r2
   22d54:	df03      	svc	3
   22d56:	e004      	b.n	22d62 <_ZN20complex_dynamic_type3app17h696b71b4b226ffe6E+0xe6>
   22d58:	2018      	movs	r0, #24
   22d5a:	2105      	movs	r1, #5
   22d5c:	2200      	movs	r2, #0
   22d5e:	4613      	mov	r3, r2
   22d60:	df04      	svc	4
   22d62:	a804      	add	r0, sp, #16
   22d64:	9900      	ldr	r1, [sp, #0]
   22d66:	7001      	strb	r1, [r0, #0]
   22d68:	a81d      	add	r0, sp, #116	@ 0x74
   22d6a:	7800      	ldrb	r0, [r0, #0]
   22d6c:	2804      	cmp	r0, #4
   22d6e:	d007      	beq.n	22d80 <_ZN20complex_dynamic_type3app17h696b71b4b226ffe6E+0x104>
   22d70:	2803      	cmp	r0, #3
   22d72:	d11d      	bne.n	22db0 <_ZN20complex_dynamic_type3app17h696b71b4b226ffe6E+0x134>
   22d74:	2018      	movs	r0, #24
   22d76:	2103      	movs	r1, #3
   22d78:	2200      	movs	r2, #0
   22d7a:	4613      	mov	r3, r2
   22d7c:	df03      	svc	3
   22d7e:	e004      	b.n	22d8a <_ZN20complex_dynamic_type3app17h696b71b4b226ffe6E+0x10e>
   22d80:	2018      	movs	r0, #24
   22d82:	2103      	movs	r1, #3
   22d84:	2200      	movs	r2, #0
   22d86:	4613      	mov	r3, r2
   22d88:	df04      	svc	4
   22d8a:	a804      	add	r0, sp, #16
   22d8c:	7804      	ldrb	r4, [r0, #0]
   22d8e:	1c68      	adds	r0, r5, #1
   22d90:	222c      	movs	r2, #44	@ 0x2c
   22d92:	9901      	ldr	r1, [sp, #4]
   22d94:	f008 f9ba 	bl	2b10c <__aeabi_memcpy>
   22d98:	702e      	strb	r6, [r5, #0]
   22d9a:	2c02      	cmp	r4, #2
   22d9c:	d006      	beq.n	22dac <_ZN20complex_dynamic_type3app17h696b71b4b226ffe6E+0x130>
   22d9e:	2018      	movs	r0, #24
   22da0:	2105      	movs	r1, #5
   22da2:	2200      	movs	r2, #0
   22da4:	4613      	mov	r3, r2
   22da6:	2c04      	cmp	r4, #4
   22da8:	d10a      	bne.n	22dc0 <_ZN20complex_dynamic_type3app17h696b71b4b226ffe6E+0x144>
   22daa:	df04      	svc	4
   22dac:	b029      	add	sp, #164	@ 0xa4
   22dae:	bdf0      	pop	{r4, r5, r6, r7, pc}
   22db0:	1c68      	adds	r0, r5, #1
   22db2:	222c      	movs	r2, #44	@ 0x2c
   22db4:	9901      	ldr	r1, [sp, #4]
   22db6:	f008 f9a9 	bl	2b10c <__aeabi_memcpy>
   22dba:	702e      	strb	r6, [r5, #0]
   22dbc:	b029      	add	sp, #164	@ 0xa4
   22dbe:	bdf0      	pop	{r4, r5, r6, r7, pc}
   22dc0:	df03      	svc	3
   22dc2:	b029      	add	sp, #164	@ 0xa4
   22dc4:	bdf0      	pop	{r4, r5, r6, r7, pc}
   22dc6:	d4d4      	bmi.n	22d72 <_ZN20complex_dynamic_type3app17h696b71b4b226ffe6E+0xf6>

00022dc8 <_ZN20complex_dynamic_type3app17h69f710cba2021f4bE>:
   22dc8:	b5f0      	push	{r4, r5, r6, r7, lr}
   22dca:	af03      	add	r7, sp, #12
   22dcc:	b0a3      	sub	sp, #140	@ 0x8c
   22dce:	9003      	str	r0, [sp, #12]
   22dd0:	a804      	add	r0, sp, #16
   22dd2:	2602      	movs	r6, #2
   22dd4:	7006      	strb	r6, [r0, #0]
   22dd6:	1c40      	adds	r0, r0, #1
   22dd8:	9002      	str	r0, [sp, #8]
   22dda:	254a      	movs	r5, #74	@ 0x4a
   22ddc:	462a      	mov	r2, r5
   22dde:	f008 f995 	bl	2b10c <__aeabi_memcpy>
   22de2:	ac17      	add	r4, sp, #92	@ 0x5c
   22de4:	1c60      	adds	r0, r4, #1
   22de6:	212d      	movs	r1, #45	@ 0x2d
   22de8:	9001      	str	r0, [sp, #4]
   22dea:	f007 ffcf 	bl	2ad8c <__aeabi_memclr>
   22dee:	7026      	strb	r6, [r4, #0]
   22df0:	484a      	ldr	r0, [pc, #296]	@ (22f1c <_ZN20complex_dynamic_type3app17h69f710cba2021f4bE+0x154>)
   22df2:	4631      	mov	r1, r6
   22df4:	9a02      	ldr	r2, [sp, #8]
   22df6:	462b      	mov	r3, r5
   22df8:	df04      	svc	4
   22dfa:	2802      	cmp	r0, #2
   22dfc:	d104      	bne.n	22e08 <_ZN20complex_dynamic_type3app17h69f710cba2021f4bE+0x40>
   22dfe:	2001      	movs	r0, #1
   22e00:	9a03      	ldr	r2, [sp, #12]
   22e02:	7010      	strb	r0, [r2, #0]
   22e04:	6051      	str	r1, [r2, #4]
   22e06:	e02e      	b.n	22e66 <_ZN20complex_dynamic_type3app17h69f710cba2021f4bE+0x9e>
   22e08:	9d03      	ldr	r5, [sp, #12]
   22e0a:	a804      	add	r0, sp, #16
   22e0c:	2104      	movs	r1, #4
   22e0e:	7001      	strb	r1, [r0, #0]
   22e10:	4842      	ldr	r0, [pc, #264]	@ (22f1c <_ZN20complex_dynamic_type3app17h69f710cba2021f4bE+0x154>)
   22e12:	2603      	movs	r6, #3
   22e14:	232d      	movs	r3, #45	@ 0x2d
   22e16:	4631      	mov	r1, r6
   22e18:	9c01      	ldr	r4, [sp, #4]
   22e1a:	4622      	mov	r2, r4
   22e1c:	df03      	svc	3
   22e1e:	2802      	cmp	r0, #2
   22e20:	d10e      	bne.n	22e40 <_ZN20complex_dynamic_type3app17h69f710cba2021f4bE+0x78>
   22e22:	2001      	movs	r0, #1
   22e24:	7028      	strb	r0, [r5, #0]
   22e26:	6069      	str	r1, [r5, #4]
   22e28:	a817      	add	r0, sp, #92	@ 0x5c
   22e2a:	7800      	ldrb	r0, [r0, #0]
   22e2c:	2802      	cmp	r0, #2
   22e2e:	d01a      	beq.n	22e66 <_ZN20complex_dynamic_type3app17h69f710cba2021f4bE+0x9e>
   22e30:	2803      	cmp	r0, #3
   22e32:	d013      	beq.n	22e5c <_ZN20complex_dynamic_type3app17h69f710cba2021f4bE+0x94>
   22e34:	4839      	ldr	r0, [pc, #228]	@ (22f1c <_ZN20complex_dynamic_type3app17h69f710cba2021f4bE+0x154>)
   22e36:	2103      	movs	r1, #3
   22e38:	2200      	movs	r2, #0
   22e3a:	4613      	mov	r3, r2
   22e3c:	df04      	svc	4
   22e3e:	e012      	b.n	22e66 <_ZN20complex_dynamic_type3app17h69f710cba2021f4bE+0x9e>
   22e40:	a817      	add	r0, sp, #92	@ 0x5c
   22e42:	7006      	strb	r6, [r0, #0]
   22e44:	4835      	ldr	r0, [pc, #212]	@ (22f1c <_ZN20complex_dynamic_type3app17h69f710cba2021f4bE+0x154>)
   22e46:	2102      	movs	r1, #2
   22e48:	2300      	movs	r3, #0
   22e4a:	9100      	str	r1, [sp, #0]
   22e4c:	4632      	mov	r2, r6
   22e4e:	9302      	str	r3, [sp, #8]
   22e50:	df02      	svc	2
   22e52:	2880      	cmp	r0, #128	@ 0x80
   22e54:	d21b      	bcs.n	22e8e <_ZN20complex_dynamic_type3app17h69f710cba2021f4bE+0xc6>
   22e56:	2001      	movs	r0, #1
   22e58:	7028      	strb	r0, [r5, #0]
   22e5a:	6069      	str	r1, [r5, #4]
   22e5c:	482f      	ldr	r0, [pc, #188]	@ (22f1c <_ZN20complex_dynamic_type3app17h69f710cba2021f4bE+0x154>)
   22e5e:	2103      	movs	r1, #3
   22e60:	2200      	movs	r2, #0
   22e62:	4613      	mov	r3, r2
   22e64:	df03      	svc	3
   22e66:	a804      	add	r0, sp, #16
   22e68:	7800      	ldrb	r0, [r0, #0]
   22e6a:	2802      	cmp	r0, #2
   22e6c:	d048      	beq.n	22f00 <_ZN20complex_dynamic_type3app17h69f710cba2021f4bE+0x138>
   22e6e:	2804      	cmp	r0, #4
   22e70:	d106      	bne.n	22e80 <_ZN20complex_dynamic_type3app17h69f710cba2021f4bE+0xb8>
   22e72:	482a      	ldr	r0, [pc, #168]	@ (22f1c <_ZN20complex_dynamic_type3app17h69f710cba2021f4bE+0x154>)
   22e74:	2102      	movs	r1, #2
   22e76:	2200      	movs	r2, #0
   22e78:	4613      	mov	r3, r2
   22e7a:	df04      	svc	4
   22e7c:	b023      	add	sp, #140	@ 0x8c
   22e7e:	bdf0      	pop	{r4, r5, r6, r7, pc}
   22e80:	4826      	ldr	r0, [pc, #152]	@ (22f1c <_ZN20complex_dynamic_type3app17h69f710cba2021f4bE+0x154>)
   22e82:	2102      	movs	r1, #2
   22e84:	2200      	movs	r2, #0
   22e86:	4613      	mov	r3, r2
   22e88:	df03      	svc	3
   22e8a:	b023      	add	sp, #140	@ 0x8c
   22e8c:	bdf0      	pop	{r4, r5, r6, r7, pc}
   22e8e:	a804      	add	r0, sp, #16
   22e90:	7800      	ldrb	r0, [r0, #0]
   22e92:	2802      	cmp	r0, #2
   22e94:	d00c      	beq.n	22eb0 <_ZN20complex_dynamic_type3app17h69f710cba2021f4bE+0xe8>
   22e96:	2803      	cmp	r0, #3
   22e98:	d105      	bne.n	22ea6 <_ZN20complex_dynamic_type3app17h69f710cba2021f4bE+0xde>
   22e9a:	4820      	ldr	r0, [pc, #128]	@ (22f1c <_ZN20complex_dynamic_type3app17h69f710cba2021f4bE+0x154>)
   22e9c:	2102      	movs	r1, #2
   22e9e:	2200      	movs	r2, #0
   22ea0:	4613      	mov	r3, r2
   22ea2:	df03      	svc	3
   22ea4:	e004      	b.n	22eb0 <_ZN20complex_dynamic_type3app17h69f710cba2021f4bE+0xe8>
   22ea6:	481d      	ldr	r0, [pc, #116]	@ (22f1c <_ZN20complex_dynamic_type3app17h69f710cba2021f4bE+0x154>)
   22ea8:	2102      	movs	r1, #2
   22eaa:	2200      	movs	r2, #0
   22eac:	4613      	mov	r3, r2
   22eae:	df04      	svc	4
   22eb0:	a804      	add	r0, sp, #16
   22eb2:	9900      	ldr	r1, [sp, #0]
   22eb4:	7001      	strb	r1, [r0, #0]
   22eb6:	a817      	add	r0, sp, #92	@ 0x5c
   22eb8:	7800      	ldrb	r0, [r0, #0]
   22eba:	2804      	cmp	r0, #4
   22ebc:	d008      	beq.n	22ed0 <_ZN20complex_dynamic_type3app17h69f710cba2021f4bE+0x108>
   22ebe:	2803      	cmp	r0, #3
   22ec0:	d120      	bne.n	22f04 <_ZN20complex_dynamic_type3app17h69f710cba2021f4bE+0x13c>
   22ec2:	4626      	mov	r6, r4
   22ec4:	4815      	ldr	r0, [pc, #84]	@ (22f1c <_ZN20complex_dynamic_type3app17h69f710cba2021f4bE+0x154>)
   22ec6:	2103      	movs	r1, #3
   22ec8:	2200      	movs	r2, #0
   22eca:	4613      	mov	r3, r2
   22ecc:	df03      	svc	3
   22ece:	e005      	b.n	22edc <_ZN20complex_dynamic_type3app17h69f710cba2021f4bE+0x114>
   22ed0:	4626      	mov	r6, r4
   22ed2:	4812      	ldr	r0, [pc, #72]	@ (22f1c <_ZN20complex_dynamic_type3app17h69f710cba2021f4bE+0x154>)
   22ed4:	2103      	movs	r1, #3
   22ed6:	2200      	movs	r2, #0
   22ed8:	4613      	mov	r3, r2
   22eda:	df04      	svc	4
   22edc:	a804      	add	r0, sp, #16
   22ede:	7804      	ldrb	r4, [r0, #0]
   22ee0:	1c68      	adds	r0, r5, #1
   22ee2:	222d      	movs	r2, #45	@ 0x2d
   22ee4:	4631      	mov	r1, r6
   22ee6:	f008 f911 	bl	2b10c <__aeabi_memcpy>
   22eea:	9802      	ldr	r0, [sp, #8]
   22eec:	7028      	strb	r0, [r5, #0]
   22eee:	2c02      	cmp	r4, #2
   22ef0:	d006      	beq.n	22f00 <_ZN20complex_dynamic_type3app17h69f710cba2021f4bE+0x138>
   22ef2:	480a      	ldr	r0, [pc, #40]	@ (22f1c <_ZN20complex_dynamic_type3app17h69f710cba2021f4bE+0x154>)
   22ef4:	2102      	movs	r1, #2
   22ef6:	2200      	movs	r2, #0
   22ef8:	4613      	mov	r3, r2
   22efa:	2c04      	cmp	r4, #4
   22efc:	d10b      	bne.n	22f16 <_ZN20complex_dynamic_type3app17h69f710cba2021f4bE+0x14e>
   22efe:	df04      	svc	4
   22f00:	b023      	add	sp, #140	@ 0x8c
   22f02:	bdf0      	pop	{r4, r5, r6, r7, pc}
   22f04:	1c68      	adds	r0, r5, #1
   22f06:	222d      	movs	r2, #45	@ 0x2d
   22f08:	4621      	mov	r1, r4
   22f0a:	f008 f8ff 	bl	2b10c <__aeabi_memcpy>
   22f0e:	9802      	ldr	r0, [sp, #8]
   22f10:	7028      	strb	r0, [r5, #0]
   22f12:	b023      	add	sp, #140	@ 0x8c
   22f14:	bdf0      	pop	{r4, r5, r6, r7, pc}
   22f16:	df03      	svc	3
   22f18:	b023      	add	sp, #140	@ 0x8c
   22f1a:	bdf0      	pop	{r4, r5, r6, r7, pc}
   22f1c:	00000e3d 	.word	0x00000e3d

00022f20 <_ZN20complex_dynamic_type3app17h6a136286ea571344E>:
   22f20:	b5f0      	push	{r4, r5, r6, r7, lr}
   22f22:	af03      	add	r7, sp, #12
   22f24:	b0a5      	sub	sp, #148	@ 0x94
   22f26:	9004      	str	r0, [sp, #16]
   22f28:	a805      	add	r0, sp, #20
   22f2a:	2402      	movs	r4, #2
   22f2c:	7004      	strb	r4, [r0, #0]
   22f2e:	1c46      	adds	r6, r0, #1
   22f30:	221c      	movs	r2, #28
   22f32:	9203      	str	r2, [sp, #12]
   22f34:	4630      	mov	r0, r6
   22f36:	f008 f8e9 	bl	2b10c <__aeabi_memcpy>
   22f3a:	ad0d      	add	r5, sp, #52	@ 0x34
   22f3c:	1c68      	adds	r0, r5, #1
   22f3e:	215d      	movs	r1, #93	@ 0x5d
   22f40:	9002      	str	r0, [sp, #8]
   22f42:	f007 ff23 	bl	2ad8c <__aeabi_memclr>
   22f46:	9401      	str	r4, [sp, #4]
   22f48:	702c      	strb	r4, [r5, #0]
   22f4a:	4848      	ldr	r0, [pc, #288]	@ (2306c <_ZN20complex_dynamic_type3app17h6a136286ea571344E+0x14c>)
   22f4c:	2108      	movs	r1, #8
   22f4e:	4632      	mov	r2, r6
   22f50:	9b03      	ldr	r3, [sp, #12]
   22f52:	df04      	svc	4
   22f54:	2802      	cmp	r0, #2
   22f56:	d104      	bne.n	22f62 <_ZN20complex_dynamic_type3app17h6a136286ea571344E+0x42>
   22f58:	2001      	movs	r0, #1
   22f5a:	9a04      	ldr	r2, [sp, #16]
   22f5c:	7010      	strb	r0, [r2, #0]
   22f5e:	6051      	str	r1, [r2, #4]
   22f60:	e02d      	b.n	22fbe <_ZN20complex_dynamic_type3app17h6a136286ea571344E+0x9e>
   22f62:	9d04      	ldr	r5, [sp, #16]
   22f64:	a805      	add	r0, sp, #20
   22f66:	2104      	movs	r1, #4
   22f68:	7001      	strb	r1, [r0, #0]
   22f6a:	4840      	ldr	r0, [pc, #256]	@ (2306c <_ZN20complex_dynamic_type3app17h6a136286ea571344E+0x14c>)
   22f6c:	2105      	movs	r1, #5
   22f6e:	235d      	movs	r3, #93	@ 0x5d
   22f70:	9c02      	ldr	r4, [sp, #8]
   22f72:	4622      	mov	r2, r4
   22f74:	df03      	svc	3
   22f76:	2802      	cmp	r0, #2
   22f78:	d10e      	bne.n	22f98 <_ZN20complex_dynamic_type3app17h6a136286ea571344E+0x78>
   22f7a:	2001      	movs	r0, #1
   22f7c:	7028      	strb	r0, [r5, #0]
   22f7e:	6069      	str	r1, [r5, #4]
   22f80:	a80d      	add	r0, sp, #52	@ 0x34
   22f82:	7800      	ldrb	r0, [r0, #0]
   22f84:	2802      	cmp	r0, #2
   22f86:	d01a      	beq.n	22fbe <_ZN20complex_dynamic_type3app17h6a136286ea571344E+0x9e>
   22f88:	2803      	cmp	r0, #3
   22f8a:	d013      	beq.n	22fb4 <_ZN20complex_dynamic_type3app17h6a136286ea571344E+0x94>
   22f8c:	4837      	ldr	r0, [pc, #220]	@ (2306c <_ZN20complex_dynamic_type3app17h6a136286ea571344E+0x14c>)
   22f8e:	2105      	movs	r1, #5
   22f90:	2200      	movs	r2, #0
   22f92:	4613      	mov	r3, r2
   22f94:	df04      	svc	4
   22f96:	e012      	b.n	22fbe <_ZN20complex_dynamic_type3app17h6a136286ea571344E+0x9e>
   22f98:	a80d      	add	r0, sp, #52	@ 0x34
   22f9a:	2103      	movs	r1, #3
   22f9c:	7001      	strb	r1, [r0, #0]
   22f9e:	4833      	ldr	r0, [pc, #204]	@ (2306c <_ZN20complex_dynamic_type3app17h6a136286ea571344E+0x14c>)
   22fa0:	2108      	movs	r1, #8
   22fa2:	2205      	movs	r2, #5
   22fa4:	2600      	movs	r6, #0
   22fa6:	4633      	mov	r3, r6
   22fa8:	df02      	svc	2
   22faa:	2880      	cmp	r0, #128	@ 0x80
   22fac:	d21b      	bcs.n	22fe6 <_ZN20complex_dynamic_type3app17h6a136286ea571344E+0xc6>
   22fae:	2001      	movs	r0, #1
   22fb0:	7028      	strb	r0, [r5, #0]
   22fb2:	6069      	str	r1, [r5, #4]
   22fb4:	482d      	ldr	r0, [pc, #180]	@ (2306c <_ZN20complex_dynamic_type3app17h6a136286ea571344E+0x14c>)
   22fb6:	2105      	movs	r1, #5
   22fb8:	2200      	movs	r2, #0
   22fba:	4613      	mov	r3, r2
   22fbc:	df03      	svc	3
   22fbe:	a805      	add	r0, sp, #20
   22fc0:	7800      	ldrb	r0, [r0, #0]
   22fc2:	2802      	cmp	r0, #2
   22fc4:	d045      	beq.n	23052 <_ZN20complex_dynamic_type3app17h6a136286ea571344E+0x132>
   22fc6:	2804      	cmp	r0, #4
   22fc8:	d106      	bne.n	22fd8 <_ZN20complex_dynamic_type3app17h6a136286ea571344E+0xb8>
   22fca:	4828      	ldr	r0, [pc, #160]	@ (2306c <_ZN20complex_dynamic_type3app17h6a136286ea571344E+0x14c>)
   22fcc:	2108      	movs	r1, #8
   22fce:	2200      	movs	r2, #0
   22fd0:	4613      	mov	r3, r2
   22fd2:	df04      	svc	4
   22fd4:	b025      	add	sp, #148	@ 0x94
   22fd6:	bdf0      	pop	{r4, r5, r6, r7, pc}
   22fd8:	4824      	ldr	r0, [pc, #144]	@ (2306c <_ZN20complex_dynamic_type3app17h6a136286ea571344E+0x14c>)
   22fda:	2108      	movs	r1, #8
   22fdc:	2200      	movs	r2, #0
   22fde:	4613      	mov	r3, r2
   22fe0:	df03      	svc	3
   22fe2:	b025      	add	sp, #148	@ 0x94
   22fe4:	bdf0      	pop	{r4, r5, r6, r7, pc}
   22fe6:	a805      	add	r0, sp, #20
   22fe8:	7800      	ldrb	r0, [r0, #0]
   22fea:	2802      	cmp	r0, #2
   22fec:	d00c      	beq.n	23008 <_ZN20complex_dynamic_type3app17h6a136286ea571344E+0xe8>
   22fee:	2803      	cmp	r0, #3
   22ff0:	d105      	bne.n	22ffe <_ZN20complex_dynamic_type3app17h6a136286ea571344E+0xde>
   22ff2:	481e      	ldr	r0, [pc, #120]	@ (2306c <_ZN20complex_dynamic_type3app17h6a136286ea571344E+0x14c>)
   22ff4:	2108      	movs	r1, #8
   22ff6:	2200      	movs	r2, #0
   22ff8:	4613      	mov	r3, r2
   22ffa:	df03      	svc	3
   22ffc:	e004      	b.n	23008 <_ZN20complex_dynamic_type3app17h6a136286ea571344E+0xe8>
   22ffe:	481b      	ldr	r0, [pc, #108]	@ (2306c <_ZN20complex_dynamic_type3app17h6a136286ea571344E+0x14c>)
   23000:	2108      	movs	r1, #8
   23002:	2200      	movs	r2, #0
   23004:	4613      	mov	r3, r2
   23006:	df04      	svc	4
   23008:	a805      	add	r0, sp, #20
   2300a:	9901      	ldr	r1, [sp, #4]
   2300c:	7001      	strb	r1, [r0, #0]
   2300e:	a80d      	add	r0, sp, #52	@ 0x34
   23010:	7800      	ldrb	r0, [r0, #0]
   23012:	2804      	cmp	r0, #4
   23014:	d007      	beq.n	23026 <_ZN20complex_dynamic_type3app17h6a136286ea571344E+0x106>
   23016:	2803      	cmp	r0, #3
   23018:	d11d      	bne.n	23056 <_ZN20complex_dynamic_type3app17h6a136286ea571344E+0x136>
   2301a:	4814      	ldr	r0, [pc, #80]	@ (2306c <_ZN20complex_dynamic_type3app17h6a136286ea571344E+0x14c>)
   2301c:	2105      	movs	r1, #5
   2301e:	2200      	movs	r2, #0
   23020:	4613      	mov	r3, r2
   23022:	df03      	svc	3
   23024:	e004      	b.n	23030 <_ZN20complex_dynamic_type3app17h6a136286ea571344E+0x110>
   23026:	4811      	ldr	r0, [pc, #68]	@ (2306c <_ZN20complex_dynamic_type3app17h6a136286ea571344E+0x14c>)
   23028:	2105      	movs	r1, #5
   2302a:	2200      	movs	r2, #0
   2302c:	4613      	mov	r3, r2
   2302e:	df04      	svc	4
   23030:	a805      	add	r0, sp, #20
   23032:	7804      	ldrb	r4, [r0, #0]
   23034:	1c68      	adds	r0, r5, #1
   23036:	225d      	movs	r2, #93	@ 0x5d
   23038:	9902      	ldr	r1, [sp, #8]
   2303a:	f008 f867 	bl	2b10c <__aeabi_memcpy>
   2303e:	702e      	strb	r6, [r5, #0]
   23040:	2c02      	cmp	r4, #2
   23042:	d006      	beq.n	23052 <_ZN20complex_dynamic_type3app17h6a136286ea571344E+0x132>
   23044:	4809      	ldr	r0, [pc, #36]	@ (2306c <_ZN20complex_dynamic_type3app17h6a136286ea571344E+0x14c>)
   23046:	2108      	movs	r1, #8
   23048:	2200      	movs	r2, #0
   2304a:	4613      	mov	r3, r2
   2304c:	2c04      	cmp	r4, #4
   2304e:	d10a      	bne.n	23066 <_ZN20complex_dynamic_type3app17h6a136286ea571344E+0x146>
   23050:	df04      	svc	4
   23052:	b025      	add	sp, #148	@ 0x94
   23054:	bdf0      	pop	{r4, r5, r6, r7, pc}
   23056:	1c68      	adds	r0, r5, #1
   23058:	225d      	movs	r2, #93	@ 0x5d
   2305a:	4621      	mov	r1, r4
   2305c:	f008 f856 	bl	2b10c <__aeabi_memcpy>
   23060:	702e      	strb	r6, [r5, #0]
   23062:	b025      	add	sp, #148	@ 0x94
   23064:	bdf0      	pop	{r4, r5, r6, r7, pc}
   23066:	df03      	svc	3
   23068:	b025      	add	sp, #148	@ 0x94
   2306a:	bdf0      	pop	{r4, r5, r6, r7, pc}
   2306c:	00000c3e 	.word	0x00000c3e

00023070 <_ZN20complex_dynamic_type3app17h6d5db16a2b9cdf90E>:
   23070:	b5f0      	push	{r4, r5, r6, r7, lr}
   23072:	af03      	add	r7, sp, #12
   23074:	b0a1      	sub	sp, #132	@ 0x84
   23076:	9004      	str	r0, [sp, #16]
   23078:	a805      	add	r0, sp, #20
   2307a:	2402      	movs	r4, #2
   2307c:	7004      	strb	r4, [r0, #0]
   2307e:	1c46      	adds	r6, r0, #1
   23080:	221a      	movs	r2, #26
   23082:	9203      	str	r2, [sp, #12]
   23084:	4630      	mov	r0, r6
   23086:	f008 f841 	bl	2b10c <__aeabi_memcpy>
   2308a:	ad0c      	add	r5, sp, #48	@ 0x30
   2308c:	1c68      	adds	r0, r5, #1
   2308e:	2150      	movs	r1, #80	@ 0x50
   23090:	9002      	str	r0, [sp, #8]
   23092:	f007 fe7b 	bl	2ad8c <__aeabi_memclr>
   23096:	9401      	str	r4, [sp, #4]
   23098:	702c      	strb	r4, [r5, #0]
   2309a:	4848      	ldr	r0, [pc, #288]	@ (231bc <_ZN20complex_dynamic_type3app17h6d5db16a2b9cdf90E+0x14c>)
   2309c:	2107      	movs	r1, #7
   2309e:	4632      	mov	r2, r6
   230a0:	9b03      	ldr	r3, [sp, #12]
   230a2:	df04      	svc	4
   230a4:	2802      	cmp	r0, #2
   230a6:	d104      	bne.n	230b2 <_ZN20complex_dynamic_type3app17h6d5db16a2b9cdf90E+0x42>
   230a8:	2001      	movs	r0, #1
   230aa:	9a04      	ldr	r2, [sp, #16]
   230ac:	7010      	strb	r0, [r2, #0]
   230ae:	6051      	str	r1, [r2, #4]
   230b0:	e02c      	b.n	2310c <_ZN20complex_dynamic_type3app17h6d5db16a2b9cdf90E+0x9c>
   230b2:	9d04      	ldr	r5, [sp, #16]
   230b4:	a805      	add	r0, sp, #20
   230b6:	2104      	movs	r1, #4
   230b8:	7001      	strb	r1, [r0, #0]
   230ba:	4840      	ldr	r0, [pc, #256]	@ (231bc <_ZN20complex_dynamic_type3app17h6d5db16a2b9cdf90E+0x14c>)
   230bc:	2350      	movs	r3, #80	@ 0x50
   230be:	9c02      	ldr	r4, [sp, #8]
   230c0:	4622      	mov	r2, r4
   230c2:	df03      	svc	3
   230c4:	2802      	cmp	r0, #2
   230c6:	d10e      	bne.n	230e6 <_ZN20complex_dynamic_type3app17h6d5db16a2b9cdf90E+0x76>
   230c8:	2001      	movs	r0, #1
   230ca:	7028      	strb	r0, [r5, #0]
   230cc:	6069      	str	r1, [r5, #4]
   230ce:	a80c      	add	r0, sp, #48	@ 0x30
   230d0:	7800      	ldrb	r0, [r0, #0]
   230d2:	2802      	cmp	r0, #2
   230d4:	d01a      	beq.n	2310c <_ZN20complex_dynamic_type3app17h6d5db16a2b9cdf90E+0x9c>
   230d6:	2803      	cmp	r0, #3
   230d8:	d013      	beq.n	23102 <_ZN20complex_dynamic_type3app17h6d5db16a2b9cdf90E+0x92>
   230da:	4838      	ldr	r0, [pc, #224]	@ (231bc <_ZN20complex_dynamic_type3app17h6d5db16a2b9cdf90E+0x14c>)
   230dc:	2104      	movs	r1, #4
   230de:	2200      	movs	r2, #0
   230e0:	4613      	mov	r3, r2
   230e2:	df04      	svc	4
   230e4:	e012      	b.n	2310c <_ZN20complex_dynamic_type3app17h6d5db16a2b9cdf90E+0x9c>
   230e6:	a80c      	add	r0, sp, #48	@ 0x30
   230e8:	2103      	movs	r1, #3
   230ea:	7001      	strb	r1, [r0, #0]
   230ec:	4833      	ldr	r0, [pc, #204]	@ (231bc <_ZN20complex_dynamic_type3app17h6d5db16a2b9cdf90E+0x14c>)
   230ee:	2107      	movs	r1, #7
   230f0:	2204      	movs	r2, #4
   230f2:	2600      	movs	r6, #0
   230f4:	4633      	mov	r3, r6
   230f6:	df02      	svc	2
   230f8:	2880      	cmp	r0, #128	@ 0x80
   230fa:	d21b      	bcs.n	23134 <_ZN20complex_dynamic_type3app17h6d5db16a2b9cdf90E+0xc4>
   230fc:	2001      	movs	r0, #1
   230fe:	7028      	strb	r0, [r5, #0]
   23100:	6069      	str	r1, [r5, #4]
   23102:	482e      	ldr	r0, [pc, #184]	@ (231bc <_ZN20complex_dynamic_type3app17h6d5db16a2b9cdf90E+0x14c>)
   23104:	2104      	movs	r1, #4
   23106:	2200      	movs	r2, #0
   23108:	4613      	mov	r3, r2
   2310a:	df03      	svc	3
   2310c:	a805      	add	r0, sp, #20
   2310e:	7800      	ldrb	r0, [r0, #0]
   23110:	2802      	cmp	r0, #2
   23112:	d045      	beq.n	231a0 <_ZN20complex_dynamic_type3app17h6d5db16a2b9cdf90E+0x130>
   23114:	2804      	cmp	r0, #4
   23116:	d106      	bne.n	23126 <_ZN20complex_dynamic_type3app17h6d5db16a2b9cdf90E+0xb6>
   23118:	4828      	ldr	r0, [pc, #160]	@ (231bc <_ZN20complex_dynamic_type3app17h6d5db16a2b9cdf90E+0x14c>)
   2311a:	2107      	movs	r1, #7
   2311c:	2200      	movs	r2, #0
   2311e:	4613      	mov	r3, r2
   23120:	df04      	svc	4
   23122:	b021      	add	sp, #132	@ 0x84
   23124:	bdf0      	pop	{r4, r5, r6, r7, pc}
   23126:	4825      	ldr	r0, [pc, #148]	@ (231bc <_ZN20complex_dynamic_type3app17h6d5db16a2b9cdf90E+0x14c>)
   23128:	2107      	movs	r1, #7
   2312a:	2200      	movs	r2, #0
   2312c:	4613      	mov	r3, r2
   2312e:	df03      	svc	3
   23130:	b021      	add	sp, #132	@ 0x84
   23132:	bdf0      	pop	{r4, r5, r6, r7, pc}
   23134:	a805      	add	r0, sp, #20
   23136:	7800      	ldrb	r0, [r0, #0]
   23138:	2802      	cmp	r0, #2
   2313a:	d00c      	beq.n	23156 <_ZN20complex_dynamic_type3app17h6d5db16a2b9cdf90E+0xe6>
   2313c:	2803      	cmp	r0, #3
   2313e:	d105      	bne.n	2314c <_ZN20complex_dynamic_type3app17h6d5db16a2b9cdf90E+0xdc>
   23140:	481e      	ldr	r0, [pc, #120]	@ (231bc <_ZN20complex_dynamic_type3app17h6d5db16a2b9cdf90E+0x14c>)
   23142:	2107      	movs	r1, #7
   23144:	2200      	movs	r2, #0
   23146:	4613      	mov	r3, r2
   23148:	df03      	svc	3
   2314a:	e004      	b.n	23156 <_ZN20complex_dynamic_type3app17h6d5db16a2b9cdf90E+0xe6>
   2314c:	481b      	ldr	r0, [pc, #108]	@ (231bc <_ZN20complex_dynamic_type3app17h6d5db16a2b9cdf90E+0x14c>)
   2314e:	2107      	movs	r1, #7
   23150:	2200      	movs	r2, #0
   23152:	4613      	mov	r3, r2
   23154:	df04      	svc	4
   23156:	a805      	add	r0, sp, #20
   23158:	9901      	ldr	r1, [sp, #4]
   2315a:	7001      	strb	r1, [r0, #0]
   2315c:	a80c      	add	r0, sp, #48	@ 0x30
   2315e:	7800      	ldrb	r0, [r0, #0]
   23160:	2804      	cmp	r0, #4
   23162:	d007      	beq.n	23174 <_ZN20complex_dynamic_type3app17h6d5db16a2b9cdf90E+0x104>
   23164:	2803      	cmp	r0, #3
   23166:	d11d      	bne.n	231a4 <_ZN20complex_dynamic_type3app17h6d5db16a2b9cdf90E+0x134>
   23168:	4814      	ldr	r0, [pc, #80]	@ (231bc <_ZN20complex_dynamic_type3app17h6d5db16a2b9cdf90E+0x14c>)
   2316a:	2104      	movs	r1, #4
   2316c:	2200      	movs	r2, #0
   2316e:	4613      	mov	r3, r2
   23170:	df03      	svc	3
   23172:	e004      	b.n	2317e <_ZN20complex_dynamic_type3app17h6d5db16a2b9cdf90E+0x10e>
   23174:	4811      	ldr	r0, [pc, #68]	@ (231bc <_ZN20complex_dynamic_type3app17h6d5db16a2b9cdf90E+0x14c>)
   23176:	2104      	movs	r1, #4
   23178:	2200      	movs	r2, #0
   2317a:	4613      	mov	r3, r2
   2317c:	df04      	svc	4
   2317e:	a805      	add	r0, sp, #20
   23180:	7804      	ldrb	r4, [r0, #0]
   23182:	1c68      	adds	r0, r5, #1
   23184:	2250      	movs	r2, #80	@ 0x50
   23186:	9902      	ldr	r1, [sp, #8]
   23188:	f007 ffc0 	bl	2b10c <__aeabi_memcpy>
   2318c:	702e      	strb	r6, [r5, #0]
   2318e:	2c02      	cmp	r4, #2
   23190:	d006      	beq.n	231a0 <_ZN20complex_dynamic_type3app17h6d5db16a2b9cdf90E+0x130>
   23192:	480a      	ldr	r0, [pc, #40]	@ (231bc <_ZN20complex_dynamic_type3app17h6d5db16a2b9cdf90E+0x14c>)
   23194:	2107      	movs	r1, #7
   23196:	2200      	movs	r2, #0
   23198:	4613      	mov	r3, r2
   2319a:	2c04      	cmp	r4, #4
   2319c:	d10a      	bne.n	231b4 <_ZN20complex_dynamic_type3app17h6d5db16a2b9cdf90E+0x144>
   2319e:	df04      	svc	4
   231a0:	b021      	add	sp, #132	@ 0x84
   231a2:	bdf0      	pop	{r4, r5, r6, r7, pc}
   231a4:	1c68      	adds	r0, r5, #1
   231a6:	2250      	movs	r2, #80	@ 0x50
   231a8:	4621      	mov	r1, r4
   231aa:	f007 ffaf 	bl	2b10c <__aeabi_memcpy>
   231ae:	702e      	strb	r6, [r5, #0]
   231b0:	b021      	add	sp, #132	@ 0x84
   231b2:	bdf0      	pop	{r4, r5, r6, r7, pc}
   231b4:	df03      	svc	3
   231b6:	b021      	add	sp, #132	@ 0x84
   231b8:	bdf0      	pop	{r4, r5, r6, r7, pc}
   231ba:	46c0      	nop			@ (mov r8, r8)
   231bc:	00000aee 	.word	0x00000aee

000231c0 <_ZN20complex_dynamic_type3app17h6e6774c4ad6e5314E>:
   231c0:	b5f0      	push	{r4, r5, r6, r7, lr}
   231c2:	af03      	add	r7, sp, #12
   231c4:	b09f      	sub	sp, #124	@ 0x7c
   231c6:	9003      	str	r0, [sp, #12]
   231c8:	a804      	add	r0, sp, #16
   231ca:	2402      	movs	r4, #2
   231cc:	7004      	strb	r4, [r0, #0]
   231ce:	1c46      	adds	r6, r0, #1
   231d0:	2244      	movs	r2, #68	@ 0x44
   231d2:	9202      	str	r2, [sp, #8]
   231d4:	4630      	mov	r0, r6
   231d6:	f007 ff99 	bl	2b10c <__aeabi_memcpy>
   231da:	ad16      	add	r5, sp, #88	@ 0x58
   231dc:	1c68      	adds	r0, r5, #1
   231de:	2123      	movs	r1, #35	@ 0x23
   231e0:	9001      	str	r0, [sp, #4]
   231e2:	f007 fdd3 	bl	2ad8c <__aeabi_memclr>
   231e6:	9400      	str	r4, [sp, #0]
   231e8:	702c      	strb	r4, [r5, #0]
   231ea:	4848      	ldr	r0, [pc, #288]	@ (2330c <_ZN20complex_dynamic_type3app17h6e6774c4ad6e5314E+0x14c>)
   231ec:	2106      	movs	r1, #6
   231ee:	4632      	mov	r2, r6
   231f0:	9b02      	ldr	r3, [sp, #8]
   231f2:	df04      	svc	4
   231f4:	2802      	cmp	r0, #2
   231f6:	d104      	bne.n	23202 <_ZN20complex_dynamic_type3app17h6e6774c4ad6e5314E+0x42>
   231f8:	2001      	movs	r0, #1
   231fa:	9a03      	ldr	r2, [sp, #12]
   231fc:	7010      	strb	r0, [r2, #0]
   231fe:	6051      	str	r1, [r2, #4]
   23200:	e02c      	b.n	2325c <_ZN20complex_dynamic_type3app17h6e6774c4ad6e5314E+0x9c>
   23202:	9d03      	ldr	r5, [sp, #12]
   23204:	a804      	add	r0, sp, #16
   23206:	2104      	movs	r1, #4
   23208:	7001      	strb	r1, [r0, #0]
   2320a:	4840      	ldr	r0, [pc, #256]	@ (2330c <_ZN20complex_dynamic_type3app17h6e6774c4ad6e5314E+0x14c>)
   2320c:	2403      	movs	r4, #3
   2320e:	2323      	movs	r3, #35	@ 0x23
   23210:	4621      	mov	r1, r4
   23212:	9a01      	ldr	r2, [sp, #4]
   23214:	df03      	svc	3
   23216:	2802      	cmp	r0, #2
   23218:	d10e      	bne.n	23238 <_ZN20complex_dynamic_type3app17h6e6774c4ad6e5314E+0x78>
   2321a:	2001      	movs	r0, #1
   2321c:	7028      	strb	r0, [r5, #0]
   2321e:	6069      	str	r1, [r5, #4]
   23220:	a816      	add	r0, sp, #88	@ 0x58
   23222:	7800      	ldrb	r0, [r0, #0]
   23224:	2802      	cmp	r0, #2
   23226:	d019      	beq.n	2325c <_ZN20complex_dynamic_type3app17h6e6774c4ad6e5314E+0x9c>
   23228:	2803      	cmp	r0, #3
   2322a:	d012      	beq.n	23252 <_ZN20complex_dynamic_type3app17h6e6774c4ad6e5314E+0x92>
   2322c:	4837      	ldr	r0, [pc, #220]	@ (2330c <_ZN20complex_dynamic_type3app17h6e6774c4ad6e5314E+0x14c>)
   2322e:	2103      	movs	r1, #3
   23230:	2200      	movs	r2, #0
   23232:	4613      	mov	r3, r2
   23234:	df04      	svc	4
   23236:	e011      	b.n	2325c <_ZN20complex_dynamic_type3app17h6e6774c4ad6e5314E+0x9c>
   23238:	a816      	add	r0, sp, #88	@ 0x58
   2323a:	7004      	strb	r4, [r0, #0]
   2323c:	4833      	ldr	r0, [pc, #204]	@ (2330c <_ZN20complex_dynamic_type3app17h6e6774c4ad6e5314E+0x14c>)
   2323e:	2106      	movs	r1, #6
   23240:	2600      	movs	r6, #0
   23242:	4622      	mov	r2, r4
   23244:	4633      	mov	r3, r6
   23246:	df02      	svc	2
   23248:	2880      	cmp	r0, #128	@ 0x80
   2324a:	d21b      	bcs.n	23284 <_ZN20complex_dynamic_type3app17h6e6774c4ad6e5314E+0xc4>
   2324c:	2001      	movs	r0, #1
   2324e:	7028      	strb	r0, [r5, #0]
   23250:	6069      	str	r1, [r5, #4]
   23252:	482e      	ldr	r0, [pc, #184]	@ (2330c <_ZN20complex_dynamic_type3app17h6e6774c4ad6e5314E+0x14c>)
   23254:	2103      	movs	r1, #3
   23256:	2200      	movs	r2, #0
   23258:	4613      	mov	r3, r2
   2325a:	df03      	svc	3
   2325c:	a804      	add	r0, sp, #16
   2325e:	7800      	ldrb	r0, [r0, #0]
   23260:	2802      	cmp	r0, #2
   23262:	d045      	beq.n	232f0 <_ZN20complex_dynamic_type3app17h6e6774c4ad6e5314E+0x130>
   23264:	2804      	cmp	r0, #4
   23266:	d106      	bne.n	23276 <_ZN20complex_dynamic_type3app17h6e6774c4ad6e5314E+0xb6>
   23268:	4828      	ldr	r0, [pc, #160]	@ (2330c <_ZN20complex_dynamic_type3app17h6e6774c4ad6e5314E+0x14c>)
   2326a:	2106      	movs	r1, #6
   2326c:	2200      	movs	r2, #0
   2326e:	4613      	mov	r3, r2
   23270:	df04      	svc	4
   23272:	b01f      	add	sp, #124	@ 0x7c
   23274:	bdf0      	pop	{r4, r5, r6, r7, pc}
   23276:	4825      	ldr	r0, [pc, #148]	@ (2330c <_ZN20complex_dynamic_type3app17h6e6774c4ad6e5314E+0x14c>)
   23278:	2106      	movs	r1, #6
   2327a:	2200      	movs	r2, #0
   2327c:	4613      	mov	r3, r2
   2327e:	df03      	svc	3
   23280:	b01f      	add	sp, #124	@ 0x7c
   23282:	bdf0      	pop	{r4, r5, r6, r7, pc}
   23284:	a804      	add	r0, sp, #16
   23286:	7800      	ldrb	r0, [r0, #0]
   23288:	2802      	cmp	r0, #2
   2328a:	d00c      	beq.n	232a6 <_ZN20complex_dynamic_type3app17h6e6774c4ad6e5314E+0xe6>
   2328c:	2803      	cmp	r0, #3
   2328e:	d105      	bne.n	2329c <_ZN20complex_dynamic_type3app17h6e6774c4ad6e5314E+0xdc>
   23290:	481e      	ldr	r0, [pc, #120]	@ (2330c <_ZN20complex_dynamic_type3app17h6e6774c4ad6e5314E+0x14c>)
   23292:	2106      	movs	r1, #6
   23294:	2200      	movs	r2, #0
   23296:	4613      	mov	r3, r2
   23298:	df03      	svc	3
   2329a:	e004      	b.n	232a6 <_ZN20complex_dynamic_type3app17h6e6774c4ad6e5314E+0xe6>
   2329c:	481b      	ldr	r0, [pc, #108]	@ (2330c <_ZN20complex_dynamic_type3app17h6e6774c4ad6e5314E+0x14c>)
   2329e:	2106      	movs	r1, #6
   232a0:	2200      	movs	r2, #0
   232a2:	4613      	mov	r3, r2
   232a4:	df04      	svc	4
   232a6:	a804      	add	r0, sp, #16
   232a8:	9900      	ldr	r1, [sp, #0]
   232aa:	7001      	strb	r1, [r0, #0]
   232ac:	a816      	add	r0, sp, #88	@ 0x58
   232ae:	7800      	ldrb	r0, [r0, #0]
   232b0:	2804      	cmp	r0, #4
   232b2:	d007      	beq.n	232c4 <_ZN20complex_dynamic_type3app17h6e6774c4ad6e5314E+0x104>
   232b4:	2803      	cmp	r0, #3
   232b6:	d11d      	bne.n	232f4 <_ZN20complex_dynamic_type3app17h6e6774c4ad6e5314E+0x134>
   232b8:	4814      	ldr	r0, [pc, #80]	@ (2330c <_ZN20complex_dynamic_type3app17h6e6774c4ad6e5314E+0x14c>)
   232ba:	2103      	movs	r1, #3
   232bc:	2200      	movs	r2, #0
   232be:	4613      	mov	r3, r2
   232c0:	df03      	svc	3
   232c2:	e004      	b.n	232ce <_ZN20complex_dynamic_type3app17h6e6774c4ad6e5314E+0x10e>
   232c4:	4811      	ldr	r0, [pc, #68]	@ (2330c <_ZN20complex_dynamic_type3app17h6e6774c4ad6e5314E+0x14c>)
   232c6:	2103      	movs	r1, #3
   232c8:	2200      	movs	r2, #0
   232ca:	4613      	mov	r3, r2
   232cc:	df04      	svc	4
   232ce:	a804      	add	r0, sp, #16
   232d0:	7804      	ldrb	r4, [r0, #0]
   232d2:	1c68      	adds	r0, r5, #1
   232d4:	2223      	movs	r2, #35	@ 0x23
   232d6:	9901      	ldr	r1, [sp, #4]
   232d8:	f007 ff18 	bl	2b10c <__aeabi_memcpy>
   232dc:	702e      	strb	r6, [r5, #0]
   232de:	2c02      	cmp	r4, #2
   232e0:	d006      	beq.n	232f0 <_ZN20complex_dynamic_type3app17h6e6774c4ad6e5314E+0x130>
   232e2:	480a      	ldr	r0, [pc, #40]	@ (2330c <_ZN20complex_dynamic_type3app17h6e6774c4ad6e5314E+0x14c>)
   232e4:	2106      	movs	r1, #6
   232e6:	2200      	movs	r2, #0
   232e8:	4613      	mov	r3, r2
   232ea:	2c04      	cmp	r4, #4
   232ec:	d10a      	bne.n	23304 <_ZN20complex_dynamic_type3app17h6e6774c4ad6e5314E+0x144>
   232ee:	df04      	svc	4
   232f0:	b01f      	add	sp, #124	@ 0x7c
   232f2:	bdf0      	pop	{r4, r5, r6, r7, pc}
   232f4:	1c68      	adds	r0, r5, #1
   232f6:	2223      	movs	r2, #35	@ 0x23
   232f8:	9901      	ldr	r1, [sp, #4]
   232fa:	f007 ff07 	bl	2b10c <__aeabi_memcpy>
   232fe:	702e      	strb	r6, [r5, #0]
   23300:	b01f      	add	sp, #124	@ 0x7c
   23302:	bdf0      	pop	{r4, r5, r6, r7, pc}
   23304:	df03      	svc	3
   23306:	b01f      	add	sp, #124	@ 0x7c
   23308:	bdf0      	pop	{r4, r5, r6, r7, pc}
   2330a:	46c0      	nop			@ (mov r8, r8)
   2330c:	000009bf 	.word	0x000009bf

00023310 <_ZN20complex_dynamic_type3app17h6f3513e68e6c139dE>:
   23310:	b5f0      	push	{r4, r5, r6, r7, lr}
   23312:	af03      	add	r7, sp, #12
   23314:	b09f      	sub	sp, #124	@ 0x7c
   23316:	9003      	str	r0, [sp, #12]
   23318:	a804      	add	r0, sp, #16
   2331a:	2402      	movs	r4, #2
   2331c:	7004      	strb	r4, [r0, #0]
   2331e:	1c46      	adds	r6, r0, #1
   23320:	222e      	movs	r2, #46	@ 0x2e
   23322:	9202      	str	r2, [sp, #8]
   23324:	4630      	mov	r0, r6
   23326:	f007 fef1 	bl	2b10c <__aeabi_memcpy>
   2332a:	ad10      	add	r5, sp, #64	@ 0x40
   2332c:	1c68      	adds	r0, r5, #1
   2332e:	2138      	movs	r1, #56	@ 0x38
   23330:	9001      	str	r0, [sp, #4]
   23332:	f007 fd2b 	bl	2ad8c <__aeabi_memclr>
   23336:	9400      	str	r4, [sp, #0]
   23338:	702c      	strb	r4, [r5, #0]
   2333a:	4848      	ldr	r0, [pc, #288]	@ (2345c <_ZN20complex_dynamic_type3app17h6f3513e68e6c139dE+0x14c>)
   2333c:	2109      	movs	r1, #9
   2333e:	4632      	mov	r2, r6
   23340:	9b02      	ldr	r3, [sp, #8]
   23342:	df04      	svc	4
   23344:	2802      	cmp	r0, #2
   23346:	d104      	bne.n	23352 <_ZN20complex_dynamic_type3app17h6f3513e68e6c139dE+0x42>
   23348:	2001      	movs	r0, #1
   2334a:	9a03      	ldr	r2, [sp, #12]
   2334c:	7010      	strb	r0, [r2, #0]
   2334e:	6051      	str	r1, [r2, #4]
   23350:	e02d      	b.n	233ae <_ZN20complex_dynamic_type3app17h6f3513e68e6c139dE+0x9e>
   23352:	9d03      	ldr	r5, [sp, #12]
   23354:	a804      	add	r0, sp, #16
   23356:	2104      	movs	r1, #4
   23358:	7001      	strb	r1, [r0, #0]
   2335a:	4840      	ldr	r0, [pc, #256]	@ (2345c <_ZN20complex_dynamic_type3app17h6f3513e68e6c139dE+0x14c>)
   2335c:	2109      	movs	r1, #9
   2335e:	2338      	movs	r3, #56	@ 0x38
   23360:	9c01      	ldr	r4, [sp, #4]
   23362:	4622      	mov	r2, r4
   23364:	df03      	svc	3
   23366:	2802      	cmp	r0, #2
   23368:	d10e      	bne.n	23388 <_ZN20complex_dynamic_type3app17h6f3513e68e6c139dE+0x78>
   2336a:	2001      	movs	r0, #1
   2336c:	7028      	strb	r0, [r5, #0]
   2336e:	6069      	str	r1, [r5, #4]
   23370:	a810      	add	r0, sp, #64	@ 0x40
   23372:	7800      	ldrb	r0, [r0, #0]
   23374:	2802      	cmp	r0, #2
   23376:	d01a      	beq.n	233ae <_ZN20complex_dynamic_type3app17h6f3513e68e6c139dE+0x9e>
   23378:	2803      	cmp	r0, #3
   2337a:	d013      	beq.n	233a4 <_ZN20complex_dynamic_type3app17h6f3513e68e6c139dE+0x94>
   2337c:	4837      	ldr	r0, [pc, #220]	@ (2345c <_ZN20complex_dynamic_type3app17h6f3513e68e6c139dE+0x14c>)
   2337e:	2109      	movs	r1, #9
   23380:	2200      	movs	r2, #0
   23382:	4613      	mov	r3, r2
   23384:	df04      	svc	4
   23386:	e012      	b.n	233ae <_ZN20complex_dynamic_type3app17h6f3513e68e6c139dE+0x9e>
   23388:	a810      	add	r0, sp, #64	@ 0x40
   2338a:	2103      	movs	r1, #3
   2338c:	7001      	strb	r1, [r0, #0]
   2338e:	4833      	ldr	r0, [pc, #204]	@ (2345c <_ZN20complex_dynamic_type3app17h6f3513e68e6c139dE+0x14c>)
   23390:	2109      	movs	r1, #9
   23392:	2600      	movs	r6, #0
   23394:	460a      	mov	r2, r1
   23396:	4633      	mov	r3, r6
   23398:	df02      	svc	2
   2339a:	2880      	cmp	r0, #128	@ 0x80
   2339c:	d21b      	bcs.n	233d6 <_ZN20complex_dynamic_type3app17h6f3513e68e6c139dE+0xc6>
   2339e:	2001      	movs	r0, #1
   233a0:	7028      	strb	r0, [r5, #0]
   233a2:	6069      	str	r1, [r5, #4]
   233a4:	482d      	ldr	r0, [pc, #180]	@ (2345c <_ZN20complex_dynamic_type3app17h6f3513e68e6c139dE+0x14c>)
   233a6:	2109      	movs	r1, #9
   233a8:	2200      	movs	r2, #0
   233aa:	4613      	mov	r3, r2
   233ac:	df03      	svc	3
   233ae:	a804      	add	r0, sp, #16
   233b0:	7800      	ldrb	r0, [r0, #0]
   233b2:	2802      	cmp	r0, #2
   233b4:	d045      	beq.n	23442 <_ZN20complex_dynamic_type3app17h6f3513e68e6c139dE+0x132>
   233b6:	2804      	cmp	r0, #4
   233b8:	d106      	bne.n	233c8 <_ZN20complex_dynamic_type3app17h6f3513e68e6c139dE+0xb8>
   233ba:	4828      	ldr	r0, [pc, #160]	@ (2345c <_ZN20complex_dynamic_type3app17h6f3513e68e6c139dE+0x14c>)
   233bc:	2109      	movs	r1, #9
   233be:	2200      	movs	r2, #0
   233c0:	4613      	mov	r3, r2
   233c2:	df04      	svc	4
   233c4:	b01f      	add	sp, #124	@ 0x7c
   233c6:	bdf0      	pop	{r4, r5, r6, r7, pc}
   233c8:	4824      	ldr	r0, [pc, #144]	@ (2345c <_ZN20complex_dynamic_type3app17h6f3513e68e6c139dE+0x14c>)
   233ca:	2109      	movs	r1, #9
   233cc:	2200      	movs	r2, #0
   233ce:	4613      	mov	r3, r2
   233d0:	df03      	svc	3
   233d2:	b01f      	add	sp, #124	@ 0x7c
   233d4:	bdf0      	pop	{r4, r5, r6, r7, pc}
   233d6:	a804      	add	r0, sp, #16
   233d8:	7800      	ldrb	r0, [r0, #0]
   233da:	2802      	cmp	r0, #2
   233dc:	d00c      	beq.n	233f8 <_ZN20complex_dynamic_type3app17h6f3513e68e6c139dE+0xe8>
   233de:	2803      	cmp	r0, #3
   233e0:	d105      	bne.n	233ee <_ZN20complex_dynamic_type3app17h6f3513e68e6c139dE+0xde>
   233e2:	481e      	ldr	r0, [pc, #120]	@ (2345c <_ZN20complex_dynamic_type3app17h6f3513e68e6c139dE+0x14c>)
   233e4:	2109      	movs	r1, #9
   233e6:	2200      	movs	r2, #0
   233e8:	4613      	mov	r3, r2
   233ea:	df03      	svc	3
   233ec:	e004      	b.n	233f8 <_ZN20complex_dynamic_type3app17h6f3513e68e6c139dE+0xe8>
   233ee:	481b      	ldr	r0, [pc, #108]	@ (2345c <_ZN20complex_dynamic_type3app17h6f3513e68e6c139dE+0x14c>)
   233f0:	2109      	movs	r1, #9
   233f2:	2200      	movs	r2, #0
   233f4:	4613      	mov	r3, r2
   233f6:	df04      	svc	4
   233f8:	a804      	add	r0, sp, #16
   233fa:	9900      	ldr	r1, [sp, #0]
   233fc:	7001      	strb	r1, [r0, #0]
   233fe:	a810      	add	r0, sp, #64	@ 0x40
   23400:	7800      	ldrb	r0, [r0, #0]
   23402:	2804      	cmp	r0, #4
   23404:	d007      	beq.n	23416 <_ZN20complex_dynamic_type3app17h6f3513e68e6c139dE+0x106>
   23406:	2803      	cmp	r0, #3
   23408:	d11d      	bne.n	23446 <_ZN20complex_dynamic_type3app17h6f3513e68e6c139dE+0x136>
   2340a:	4814      	ldr	r0, [pc, #80]	@ (2345c <_ZN20complex_dynamic_type3app17h6f3513e68e6c139dE+0x14c>)
   2340c:	2109      	movs	r1, #9
   2340e:	2200      	movs	r2, #0
   23410:	4613      	mov	r3, r2
   23412:	df03      	svc	3
   23414:	e004      	b.n	23420 <_ZN20complex_dynamic_type3app17h6f3513e68e6c139dE+0x110>
   23416:	4811      	ldr	r0, [pc, #68]	@ (2345c <_ZN20complex_dynamic_type3app17h6f3513e68e6c139dE+0x14c>)
   23418:	2109      	movs	r1, #9
   2341a:	2200      	movs	r2, #0
   2341c:	4613      	mov	r3, r2
   2341e:	df04      	svc	4
   23420:	a804      	add	r0, sp, #16
   23422:	7804      	ldrb	r4, [r0, #0]
   23424:	1c68      	adds	r0, r5, #1
   23426:	2238      	movs	r2, #56	@ 0x38
   23428:	9901      	ldr	r1, [sp, #4]
   2342a:	f007 fe6f 	bl	2b10c <__aeabi_memcpy>
   2342e:	702e      	strb	r6, [r5, #0]
   23430:	2c02      	cmp	r4, #2
   23432:	d006      	beq.n	23442 <_ZN20complex_dynamic_type3app17h6f3513e68e6c139dE+0x132>
   23434:	4809      	ldr	r0, [pc, #36]	@ (2345c <_ZN20complex_dynamic_type3app17h6f3513e68e6c139dE+0x14c>)
   23436:	2109      	movs	r1, #9
   23438:	2200      	movs	r2, #0
   2343a:	4613      	mov	r3, r2
   2343c:	2c04      	cmp	r4, #4
   2343e:	d10a      	bne.n	23456 <_ZN20complex_dynamic_type3app17h6f3513e68e6c139dE+0x146>
   23440:	df04      	svc	4
   23442:	b01f      	add	sp, #124	@ 0x7c
   23444:	bdf0      	pop	{r4, r5, r6, r7, pc}
   23446:	1c68      	adds	r0, r5, #1
   23448:	2238      	movs	r2, #56	@ 0x38
   2344a:	4621      	mov	r1, r4
   2344c:	f007 fe5e 	bl	2b10c <__aeabi_memcpy>
   23450:	702e      	strb	r6, [r5, #0]
   23452:	b01f      	add	sp, #124	@ 0x7c
   23454:	bdf0      	pop	{r4, r5, r6, r7, pc}
   23456:	df03      	svc	3
   23458:	b01f      	add	sp, #124	@ 0x7c
   2345a:	bdf0      	pop	{r4, r5, r6, r7, pc}
   2345c:	00000a9d 	.word	0x00000a9d

00023460 <_ZN20complex_dynamic_type3app17h730d6009fd580f1dE>:
   23460:	b5f0      	push	{r4, r5, r6, r7, lr}
   23462:	af03      	add	r7, sp, #12
   23464:	b09b      	sub	sp, #108	@ 0x6c
   23466:	9004      	str	r0, [sp, #16]
   23468:	a805      	add	r0, sp, #20
   2346a:	2402      	movs	r4, #2
   2346c:	7004      	strb	r4, [r0, #0]
   2346e:	1c46      	adds	r6, r0, #1
   23470:	222a      	movs	r2, #42	@ 0x2a
   23472:	9203      	str	r2, [sp, #12]
   23474:	4630      	mov	r0, r6
   23476:	f007 fe49 	bl	2b10c <__aeabi_memcpy>
   2347a:	ad10      	add	r5, sp, #64	@ 0x40
   2347c:	1c68      	adds	r0, r5, #1
   2347e:	2128      	movs	r1, #40	@ 0x28
   23480:	9002      	str	r0, [sp, #8]
   23482:	f007 fc83 	bl	2ad8c <__aeabi_memclr>
   23486:	9401      	str	r4, [sp, #4]
   23488:	702c      	strb	r4, [r5, #0]
   2348a:	4848      	ldr	r0, [pc, #288]	@ (235ac <_ZN20complex_dynamic_type3app17h730d6009fd580f1dE+0x14c>)
   2348c:	2504      	movs	r5, #4
   2348e:	4629      	mov	r1, r5
   23490:	4632      	mov	r2, r6
   23492:	9b03      	ldr	r3, [sp, #12]
   23494:	df04      	svc	4
   23496:	2802      	cmp	r0, #2
   23498:	d104      	bne.n	234a4 <_ZN20complex_dynamic_type3app17h730d6009fd580f1dE+0x44>
   2349a:	2001      	movs	r0, #1
   2349c:	9a04      	ldr	r2, [sp, #16]
   2349e:	7010      	strb	r0, [r2, #0]
   234a0:	6051      	str	r1, [r2, #4]
   234a2:	e02c      	b.n	234fe <_ZN20complex_dynamic_type3app17h730d6009fd580f1dE+0x9e>
   234a4:	9c04      	ldr	r4, [sp, #16]
   234a6:	a805      	add	r0, sp, #20
   234a8:	7005      	strb	r5, [r0, #0]
   234aa:	4840      	ldr	r0, [pc, #256]	@ (235ac <_ZN20complex_dynamic_type3app17h730d6009fd580f1dE+0x14c>)
   234ac:	2108      	movs	r1, #8
   234ae:	2328      	movs	r3, #40	@ 0x28
   234b0:	9a02      	ldr	r2, [sp, #8]
   234b2:	df03      	svc	3
   234b4:	2802      	cmp	r0, #2
   234b6:	d10e      	bne.n	234d6 <_ZN20complex_dynamic_type3app17h730d6009fd580f1dE+0x76>
   234b8:	2001      	movs	r0, #1
   234ba:	7020      	strb	r0, [r4, #0]
   234bc:	6061      	str	r1, [r4, #4]
   234be:	a810      	add	r0, sp, #64	@ 0x40
   234c0:	7800      	ldrb	r0, [r0, #0]
   234c2:	2802      	cmp	r0, #2
   234c4:	d01b      	beq.n	234fe <_ZN20complex_dynamic_type3app17h730d6009fd580f1dE+0x9e>
   234c6:	2803      	cmp	r0, #3
   234c8:	d014      	beq.n	234f4 <_ZN20complex_dynamic_type3app17h730d6009fd580f1dE+0x94>
   234ca:	4838      	ldr	r0, [pc, #224]	@ (235ac <_ZN20complex_dynamic_type3app17h730d6009fd580f1dE+0x14c>)
   234cc:	2108      	movs	r1, #8
   234ce:	2200      	movs	r2, #0
   234d0:	4613      	mov	r3, r2
   234d2:	df04      	svc	4
   234d4:	e013      	b.n	234fe <_ZN20complex_dynamic_type3app17h730d6009fd580f1dE+0x9e>
   234d6:	a810      	add	r0, sp, #64	@ 0x40
   234d8:	2103      	movs	r1, #3
   234da:	7001      	strb	r1, [r0, #0]
   234dc:	4833      	ldr	r0, [pc, #204]	@ (235ac <_ZN20complex_dynamic_type3app17h730d6009fd580f1dE+0x14c>)
   234de:	2104      	movs	r1, #4
   234e0:	2208      	movs	r2, #8
   234e2:	2600      	movs	r6, #0
   234e4:	4633      	mov	r3, r6
   234e6:	df02      	svc	2
   234e8:	2880      	cmp	r0, #128	@ 0x80
   234ea:	4625      	mov	r5, r4
   234ec:	d21b      	bcs.n	23526 <_ZN20complex_dynamic_type3app17h730d6009fd580f1dE+0xc6>
   234ee:	2001      	movs	r0, #1
   234f0:	7028      	strb	r0, [r5, #0]
   234f2:	6069      	str	r1, [r5, #4]
   234f4:	482d      	ldr	r0, [pc, #180]	@ (235ac <_ZN20complex_dynamic_type3app17h730d6009fd580f1dE+0x14c>)
   234f6:	2108      	movs	r1, #8
   234f8:	2200      	movs	r2, #0
   234fa:	4613      	mov	r3, r2
   234fc:	df03      	svc	3
   234fe:	a805      	add	r0, sp, #20
   23500:	7800      	ldrb	r0, [r0, #0]
   23502:	2802      	cmp	r0, #2
   23504:	d045      	beq.n	23592 <_ZN20complex_dynamic_type3app17h730d6009fd580f1dE+0x132>
   23506:	2804      	cmp	r0, #4
   23508:	d106      	bne.n	23518 <_ZN20complex_dynamic_type3app17h730d6009fd580f1dE+0xb8>
   2350a:	4828      	ldr	r0, [pc, #160]	@ (235ac <_ZN20complex_dynamic_type3app17h730d6009fd580f1dE+0x14c>)
   2350c:	2104      	movs	r1, #4
   2350e:	2200      	movs	r2, #0
   23510:	4613      	mov	r3, r2
   23512:	df04      	svc	4
   23514:	b01b      	add	sp, #108	@ 0x6c
   23516:	bdf0      	pop	{r4, r5, r6, r7, pc}
   23518:	4824      	ldr	r0, [pc, #144]	@ (235ac <_ZN20complex_dynamic_type3app17h730d6009fd580f1dE+0x14c>)
   2351a:	2104      	movs	r1, #4
   2351c:	2200      	movs	r2, #0
   2351e:	4613      	mov	r3, r2
   23520:	df03      	svc	3
   23522:	b01b      	add	sp, #108	@ 0x6c
   23524:	bdf0      	pop	{r4, r5, r6, r7, pc}
   23526:	a805      	add	r0, sp, #20
   23528:	7800      	ldrb	r0, [r0, #0]
   2352a:	2802      	cmp	r0, #2
   2352c:	d00c      	beq.n	23548 <_ZN20complex_dynamic_type3app17h730d6009fd580f1dE+0xe8>
   2352e:	2803      	cmp	r0, #3
   23530:	d105      	bne.n	2353e <_ZN20complex_dynamic_type3app17h730d6009fd580f1dE+0xde>
   23532:	481e      	ldr	r0, [pc, #120]	@ (235ac <_ZN20complex_dynamic_type3app17h730d6009fd580f1dE+0x14c>)
   23534:	2104      	movs	r1, #4
   23536:	2200      	movs	r2, #0
   23538:	4613      	mov	r3, r2
   2353a:	df03      	svc	3
   2353c:	e004      	b.n	23548 <_ZN20complex_dynamic_type3app17h730d6009fd580f1dE+0xe8>
   2353e:	481b      	ldr	r0, [pc, #108]	@ (235ac <_ZN20complex_dynamic_type3app17h730d6009fd580f1dE+0x14c>)
   23540:	2104      	movs	r1, #4
   23542:	2200      	movs	r2, #0
   23544:	4613      	mov	r3, r2
   23546:	df04      	svc	4
   23548:	a805      	add	r0, sp, #20
   2354a:	9901      	ldr	r1, [sp, #4]
   2354c:	7001      	strb	r1, [r0, #0]
   2354e:	a810      	add	r0, sp, #64	@ 0x40
   23550:	7800      	ldrb	r0, [r0, #0]
   23552:	2804      	cmp	r0, #4
   23554:	d007      	beq.n	23566 <_ZN20complex_dynamic_type3app17h730d6009fd580f1dE+0x106>
   23556:	2803      	cmp	r0, #3
   23558:	d11d      	bne.n	23596 <_ZN20complex_dynamic_type3app17h730d6009fd580f1dE+0x136>
   2355a:	4814      	ldr	r0, [pc, #80]	@ (235ac <_ZN20complex_dynamic_type3app17h730d6009fd580f1dE+0x14c>)
   2355c:	2108      	movs	r1, #8
   2355e:	2200      	movs	r2, #0
   23560:	4613      	mov	r3, r2
   23562:	df03      	svc	3
   23564:	e004      	b.n	23570 <_ZN20complex_dynamic_type3app17h730d6009fd580f1dE+0x110>
   23566:	4811      	ldr	r0, [pc, #68]	@ (235ac <_ZN20complex_dynamic_type3app17h730d6009fd580f1dE+0x14c>)
   23568:	2108      	movs	r1, #8
   2356a:	2200      	movs	r2, #0
   2356c:	4613      	mov	r3, r2
   2356e:	df04      	svc	4
   23570:	a805      	add	r0, sp, #20
   23572:	7804      	ldrb	r4, [r0, #0]
   23574:	1c68      	adds	r0, r5, #1
   23576:	2228      	movs	r2, #40	@ 0x28
   23578:	9902      	ldr	r1, [sp, #8]
   2357a:	f007 fdc7 	bl	2b10c <__aeabi_memcpy>
   2357e:	702e      	strb	r6, [r5, #0]
   23580:	2c02      	cmp	r4, #2
   23582:	d006      	beq.n	23592 <_ZN20complex_dynamic_type3app17h730d6009fd580f1dE+0x132>
   23584:	4809      	ldr	r0, [pc, #36]	@ (235ac <_ZN20complex_dynamic_type3app17h730d6009fd580f1dE+0x14c>)
   23586:	2104      	movs	r1, #4
   23588:	2200      	movs	r2, #0
   2358a:	4613      	mov	r3, r2
   2358c:	2c04      	cmp	r4, #4
   2358e:	d10a      	bne.n	235a6 <_ZN20complex_dynamic_type3app17h730d6009fd580f1dE+0x146>
   23590:	df04      	svc	4
   23592:	b01b      	add	sp, #108	@ 0x6c
   23594:	bdf0      	pop	{r4, r5, r6, r7, pc}
   23596:	1c68      	adds	r0, r5, #1
   23598:	2228      	movs	r2, #40	@ 0x28
   2359a:	9902      	ldr	r1, [sp, #8]
   2359c:	f007 fdb6 	bl	2b10c <__aeabi_memcpy>
   235a0:	702e      	strb	r6, [r5, #0]
   235a2:	b01b      	add	sp, #108	@ 0x6c
   235a4:	bdf0      	pop	{r4, r5, r6, r7, pc}
   235a6:	df03      	svc	3
   235a8:	b01b      	add	sp, #108	@ 0x6c
   235aa:	bdf0      	pop	{r4, r5, r6, r7, pc}
   235ac:	00001efa 	.word	0x00001efa

000235b0 <_ZN20complex_dynamic_type3app17h74abbabf0d539379E>:
   235b0:	b5f0      	push	{r4, r5, r6, r7, lr}
   235b2:	af03      	add	r7, sp, #12
   235b4:	b0a1      	sub	sp, #132	@ 0x84
   235b6:	9003      	str	r0, [sp, #12]
   235b8:	a804      	add	r0, sp, #16
   235ba:	2502      	movs	r5, #2
   235bc:	7005      	strb	r5, [r0, #0]
   235be:	1c40      	adds	r0, r0, #1
   235c0:	9002      	str	r0, [sp, #8]
   235c2:	2638      	movs	r6, #56	@ 0x38
   235c4:	4632      	mov	r2, r6
   235c6:	f007 fda1 	bl	2b10c <__aeabi_memcpy>
   235ca:	ac13      	add	r4, sp, #76	@ 0x4c
   235cc:	1c60      	adds	r0, r4, #1
   235ce:	2134      	movs	r1, #52	@ 0x34
   235d0:	9001      	str	r0, [sp, #4]
   235d2:	f007 fbdb 	bl	2ad8c <__aeabi_memclr>
   235d6:	9500      	str	r5, [sp, #0]
   235d8:	7025      	strb	r5, [r4, #0]
   235da:	2097      	movs	r0, #151	@ 0x97
   235dc:	0044      	lsls	r4, r0, #1
   235de:	2108      	movs	r1, #8
   235e0:	4620      	mov	r0, r4
   235e2:	9a02      	ldr	r2, [sp, #8]
   235e4:	4633      	mov	r3, r6
   235e6:	df04      	svc	4
   235e8:	2802      	cmp	r0, #2
   235ea:	d104      	bne.n	235f6 <_ZN20complex_dynamic_type3app17h74abbabf0d539379E+0x46>
   235ec:	2001      	movs	r0, #1
   235ee:	9a03      	ldr	r2, [sp, #12]
   235f0:	7010      	strb	r0, [r2, #0]
   235f2:	6051      	str	r1, [r2, #4]
   235f4:	e02c      	b.n	23650 <_ZN20complex_dynamic_type3app17h74abbabf0d539379E+0xa0>
   235f6:	9e03      	ldr	r6, [sp, #12]
   235f8:	a804      	add	r0, sp, #16
   235fa:	2104      	movs	r1, #4
   235fc:	7001      	strb	r1, [r0, #0]
   235fe:	2503      	movs	r5, #3
   23600:	2334      	movs	r3, #52	@ 0x34
   23602:	4620      	mov	r0, r4
   23604:	4629      	mov	r1, r5
   23606:	9a01      	ldr	r2, [sp, #4]
   23608:	df03      	svc	3
   2360a:	2802      	cmp	r0, #2
   2360c:	d10e      	bne.n	2362c <_ZN20complex_dynamic_type3app17h74abbabf0d539379E+0x7c>
   2360e:	2001      	movs	r0, #1
   23610:	7030      	strb	r0, [r6, #0]
   23612:	6071      	str	r1, [r6, #4]
   23614:	a813      	add	r0, sp, #76	@ 0x4c
   23616:	7800      	ldrb	r0, [r0, #0]
   23618:	2802      	cmp	r0, #2
   2361a:	d019      	beq.n	23650 <_ZN20complex_dynamic_type3app17h74abbabf0d539379E+0xa0>
   2361c:	2803      	cmp	r0, #3
   2361e:	d012      	beq.n	23646 <_ZN20complex_dynamic_type3app17h74abbabf0d539379E+0x96>
   23620:	2103      	movs	r1, #3
   23622:	2200      	movs	r2, #0
   23624:	4620      	mov	r0, r4
   23626:	4613      	mov	r3, r2
   23628:	df04      	svc	4
   2362a:	e011      	b.n	23650 <_ZN20complex_dynamic_type3app17h74abbabf0d539379E+0xa0>
   2362c:	a813      	add	r0, sp, #76	@ 0x4c
   2362e:	7005      	strb	r5, [r0, #0]
   23630:	2108      	movs	r1, #8
   23632:	2300      	movs	r3, #0
   23634:	4620      	mov	r0, r4
   23636:	462a      	mov	r2, r5
   23638:	461d      	mov	r5, r3
   2363a:	df02      	svc	2
   2363c:	2880      	cmp	r0, #128	@ 0x80
   2363e:	d219      	bcs.n	23674 <_ZN20complex_dynamic_type3app17h74abbabf0d539379E+0xc4>
   23640:	2001      	movs	r0, #1
   23642:	7030      	strb	r0, [r6, #0]
   23644:	6071      	str	r1, [r6, #4]
   23646:	2103      	movs	r1, #3
   23648:	2200      	movs	r2, #0
   2364a:	4620      	mov	r0, r4
   2364c:	4613      	mov	r3, r2
   2364e:	df03      	svc	3
   23650:	a804      	add	r0, sp, #16
   23652:	7800      	ldrb	r0, [r0, #0]
   23654:	2802      	cmp	r0, #2
   23656:	d043      	beq.n	236e0 <_ZN20complex_dynamic_type3app17h74abbabf0d539379E+0x130>
   23658:	2108      	movs	r1, #8
   2365a:	2200      	movs	r2, #0
   2365c:	2804      	cmp	r0, #4
   2365e:	d104      	bne.n	2366a <_ZN20complex_dynamic_type3app17h74abbabf0d539379E+0xba>
   23660:	4620      	mov	r0, r4
   23662:	4613      	mov	r3, r2
   23664:	df04      	svc	4
   23666:	b021      	add	sp, #132	@ 0x84
   23668:	bdf0      	pop	{r4, r5, r6, r7, pc}
   2366a:	4620      	mov	r0, r4
   2366c:	4613      	mov	r3, r2
   2366e:	df03      	svc	3
   23670:	b021      	add	sp, #132	@ 0x84
   23672:	bdf0      	pop	{r4, r5, r6, r7, pc}
   23674:	a804      	add	r0, sp, #16
   23676:	7800      	ldrb	r0, [r0, #0]
   23678:	2802      	cmp	r0, #2
   2367a:	d00a      	beq.n	23692 <_ZN20complex_dynamic_type3app17h74abbabf0d539379E+0xe2>
   2367c:	2108      	movs	r1, #8
   2367e:	2200      	movs	r2, #0
   23680:	2803      	cmp	r0, #3
   23682:	d103      	bne.n	2368c <_ZN20complex_dynamic_type3app17h74abbabf0d539379E+0xdc>
   23684:	4620      	mov	r0, r4
   23686:	4613      	mov	r3, r2
   23688:	df03      	svc	3
   2368a:	e002      	b.n	23692 <_ZN20complex_dynamic_type3app17h74abbabf0d539379E+0xe2>
   2368c:	4620      	mov	r0, r4
   2368e:	4613      	mov	r3, r2
   23690:	df04      	svc	4
   23692:	a804      	add	r0, sp, #16
   23694:	9900      	ldr	r1, [sp, #0]
   23696:	7001      	strb	r1, [r0, #0]
   23698:	a813      	add	r0, sp, #76	@ 0x4c
   2369a:	7800      	ldrb	r0, [r0, #0]
   2369c:	2804      	cmp	r0, #4
   2369e:	d008      	beq.n	236b2 <_ZN20complex_dynamic_type3app17h74abbabf0d539379E+0x102>
   236a0:	2803      	cmp	r0, #3
   236a2:	d11f      	bne.n	236e4 <_ZN20complex_dynamic_type3app17h74abbabf0d539379E+0x134>
   236a4:	2103      	movs	r1, #3
   236a6:	2200      	movs	r2, #0
   236a8:	9402      	str	r4, [sp, #8]
   236aa:	4620      	mov	r0, r4
   236ac:	4613      	mov	r3, r2
   236ae:	df03      	svc	3
   236b0:	e005      	b.n	236be <_ZN20complex_dynamic_type3app17h74abbabf0d539379E+0x10e>
   236b2:	2103      	movs	r1, #3
   236b4:	2200      	movs	r2, #0
   236b6:	9402      	str	r4, [sp, #8]
   236b8:	4620      	mov	r0, r4
   236ba:	4613      	mov	r3, r2
   236bc:	df04      	svc	4
   236be:	a804      	add	r0, sp, #16
   236c0:	7804      	ldrb	r4, [r0, #0]
   236c2:	1c70      	adds	r0, r6, #1
   236c4:	2234      	movs	r2, #52	@ 0x34
   236c6:	9901      	ldr	r1, [sp, #4]
   236c8:	f007 fd20 	bl	2b10c <__aeabi_memcpy>
   236cc:	7035      	strb	r5, [r6, #0]
   236ce:	2c02      	cmp	r4, #2
   236d0:	d006      	beq.n	236e0 <_ZN20complex_dynamic_type3app17h74abbabf0d539379E+0x130>
   236d2:	2c04      	cmp	r4, #4
   236d4:	d10e      	bne.n	236f4 <_ZN20complex_dynamic_type3app17h74abbabf0d539379E+0x144>
   236d6:	2108      	movs	r1, #8
   236d8:	2200      	movs	r2, #0
   236da:	9802      	ldr	r0, [sp, #8]
   236dc:	4613      	mov	r3, r2
   236de:	df04      	svc	4
   236e0:	b021      	add	sp, #132	@ 0x84
   236e2:	bdf0      	pop	{r4, r5, r6, r7, pc}
   236e4:	9901      	ldr	r1, [sp, #4]
   236e6:	1c70      	adds	r0, r6, #1
   236e8:	2234      	movs	r2, #52	@ 0x34
   236ea:	f007 fd0f 	bl	2b10c <__aeabi_memcpy>
   236ee:	7035      	strb	r5, [r6, #0]
   236f0:	b021      	add	sp, #132	@ 0x84
   236f2:	bdf0      	pop	{r4, r5, r6, r7, pc}
   236f4:	9802      	ldr	r0, [sp, #8]
   236f6:	2108      	movs	r1, #8
   236f8:	2200      	movs	r2, #0
   236fa:	4613      	mov	r3, r2
   236fc:	df03      	svc	3
   236fe:	b021      	add	sp, #132	@ 0x84
   23700:	bdf0      	pop	{r4, r5, r6, r7, pc}
   23702:	d4d4      	bmi.n	236ae <_ZN20complex_dynamic_type3app17h74abbabf0d539379E+0xfe>

00023704 <_ZN20complex_dynamic_type3app17h7881493ea8f10d18E>:
   23704:	b5f0      	push	{r4, r5, r6, r7, lr}
   23706:	af03      	add	r7, sp, #12
   23708:	b0a7      	sub	sp, #156	@ 0x9c
   2370a:	9002      	str	r0, [sp, #8]
   2370c:	a803      	add	r0, sp, #12
   2370e:	2502      	movs	r5, #2
   23710:	7005      	strb	r5, [r0, #0]
   23712:	1c46      	adds	r6, r0, #1
   23714:	222f      	movs	r2, #47	@ 0x2f
   23716:	9201      	str	r2, [sp, #4]
   23718:	4630      	mov	r0, r6
   2371a:	f007 fcf7 	bl	2b10c <__aeabi_memcpy>
   2371e:	ac0f      	add	r4, sp, #60	@ 0x3c
   23720:	1c60      	adds	r0, r4, #1
   23722:	215e      	movs	r1, #94	@ 0x5e
   23724:	9000      	str	r0, [sp, #0]
   23726:	f007 fb31 	bl	2ad8c <__aeabi_memclr>
   2372a:	7025      	strb	r5, [r4, #0]
   2372c:	484a      	ldr	r0, [pc, #296]	@ (23858 <_ZN20complex_dynamic_type3app17h7881493ea8f10d18E+0x154>)
   2372e:	2105      	movs	r1, #5
   23730:	4632      	mov	r2, r6
   23732:	9b01      	ldr	r3, [sp, #4]
   23734:	df04      	svc	4
   23736:	2802      	cmp	r0, #2
   23738:	d104      	bne.n	23744 <_ZN20complex_dynamic_type3app17h7881493ea8f10d18E+0x40>
   2373a:	2001      	movs	r0, #1
   2373c:	9a02      	ldr	r2, [sp, #8]
   2373e:	7010      	strb	r0, [r2, #0]
   23740:	6051      	str	r1, [r2, #4]
   23742:	e02e      	b.n	237a2 <_ZN20complex_dynamic_type3app17h7881493ea8f10d18E+0x9e>
   23744:	9d02      	ldr	r5, [sp, #8]
   23746:	a803      	add	r0, sp, #12
   23748:	2104      	movs	r1, #4
   2374a:	7001      	strb	r1, [r0, #0]
   2374c:	4842      	ldr	r0, [pc, #264]	@ (23858 <_ZN20complex_dynamic_type3app17h7881493ea8f10d18E+0x154>)
   2374e:	2102      	movs	r1, #2
   23750:	235e      	movs	r3, #94	@ 0x5e
   23752:	9c00      	ldr	r4, [sp, #0]
   23754:	4622      	mov	r2, r4
   23756:	df03      	svc	3
   23758:	2802      	cmp	r0, #2
   2375a:	d10e      	bne.n	2377a <_ZN20complex_dynamic_type3app17h7881493ea8f10d18E+0x76>
   2375c:	2001      	movs	r0, #1
   2375e:	7028      	strb	r0, [r5, #0]
   23760:	6069      	str	r1, [r5, #4]
   23762:	a80f      	add	r0, sp, #60	@ 0x3c
   23764:	7800      	ldrb	r0, [r0, #0]
   23766:	2802      	cmp	r0, #2
   23768:	d01b      	beq.n	237a2 <_ZN20complex_dynamic_type3app17h7881493ea8f10d18E+0x9e>
   2376a:	2803      	cmp	r0, #3
   2376c:	d014      	beq.n	23798 <_ZN20complex_dynamic_type3app17h7881493ea8f10d18E+0x94>
   2376e:	483a      	ldr	r0, [pc, #232]	@ (23858 <_ZN20complex_dynamic_type3app17h7881493ea8f10d18E+0x154>)
   23770:	2102      	movs	r1, #2
   23772:	2200      	movs	r2, #0
   23774:	4613      	mov	r3, r2
   23776:	df04      	svc	4
   23778:	e013      	b.n	237a2 <_ZN20complex_dynamic_type3app17h7881493ea8f10d18E+0x9e>
   2377a:	a80f      	add	r0, sp, #60	@ 0x3c
   2377c:	2103      	movs	r1, #3
   2377e:	7001      	strb	r1, [r0, #0]
   23780:	4835      	ldr	r0, [pc, #212]	@ (23858 <_ZN20complex_dynamic_type3app17h7881493ea8f10d18E+0x154>)
   23782:	2105      	movs	r1, #5
   23784:	2602      	movs	r6, #2
   23786:	2300      	movs	r3, #0
   23788:	4632      	mov	r2, r6
   2378a:	9301      	str	r3, [sp, #4]
   2378c:	df02      	svc	2
   2378e:	2880      	cmp	r0, #128	@ 0x80
   23790:	d21b      	bcs.n	237ca <_ZN20complex_dynamic_type3app17h7881493ea8f10d18E+0xc6>
   23792:	2001      	movs	r0, #1
   23794:	7028      	strb	r0, [r5, #0]
   23796:	6069      	str	r1, [r5, #4]
   23798:	482f      	ldr	r0, [pc, #188]	@ (23858 <_ZN20complex_dynamic_type3app17h7881493ea8f10d18E+0x154>)
   2379a:	2102      	movs	r1, #2
   2379c:	2200      	movs	r2, #0
   2379e:	4613      	mov	r3, r2
   237a0:	df03      	svc	3
   237a2:	a803      	add	r0, sp, #12
   237a4:	7800      	ldrb	r0, [r0, #0]
   237a6:	2802      	cmp	r0, #2
   237a8:	d047      	beq.n	2383a <_ZN20complex_dynamic_type3app17h7881493ea8f10d18E+0x136>
   237aa:	2804      	cmp	r0, #4
   237ac:	d106      	bne.n	237bc <_ZN20complex_dynamic_type3app17h7881493ea8f10d18E+0xb8>
   237ae:	482a      	ldr	r0, [pc, #168]	@ (23858 <_ZN20complex_dynamic_type3app17h7881493ea8f10d18E+0x154>)
   237b0:	2105      	movs	r1, #5
   237b2:	2200      	movs	r2, #0
   237b4:	4613      	mov	r3, r2
   237b6:	df04      	svc	4
   237b8:	b027      	add	sp, #156	@ 0x9c
   237ba:	bdf0      	pop	{r4, r5, r6, r7, pc}
   237bc:	4826      	ldr	r0, [pc, #152]	@ (23858 <_ZN20complex_dynamic_type3app17h7881493ea8f10d18E+0x154>)
   237be:	2105      	movs	r1, #5
   237c0:	2200      	movs	r2, #0
   237c2:	4613      	mov	r3, r2
   237c4:	df03      	svc	3
   237c6:	b027      	add	sp, #156	@ 0x9c
   237c8:	bdf0      	pop	{r4, r5, r6, r7, pc}
   237ca:	a803      	add	r0, sp, #12
   237cc:	7800      	ldrb	r0, [r0, #0]
   237ce:	2802      	cmp	r0, #2
   237d0:	d00c      	beq.n	237ec <_ZN20complex_dynamic_type3app17h7881493ea8f10d18E+0xe8>
   237d2:	2803      	cmp	r0, #3
   237d4:	d105      	bne.n	237e2 <_ZN20complex_dynamic_type3app17h7881493ea8f10d18E+0xde>
   237d6:	4820      	ldr	r0, [pc, #128]	@ (23858 <_ZN20complex_dynamic_type3app17h7881493ea8f10d18E+0x154>)
   237d8:	2105      	movs	r1, #5
   237da:	2200      	movs	r2, #0
   237dc:	4613      	mov	r3, r2
   237de:	df03      	svc	3
   237e0:	e004      	b.n	237ec <_ZN20complex_dynamic_type3app17h7881493ea8f10d18E+0xe8>
   237e2:	481d      	ldr	r0, [pc, #116]	@ (23858 <_ZN20complex_dynamic_type3app17h7881493ea8f10d18E+0x154>)
   237e4:	2105      	movs	r1, #5
   237e6:	2200      	movs	r2, #0
   237e8:	4613      	mov	r3, r2
   237ea:	df04      	svc	4
   237ec:	a803      	add	r0, sp, #12
   237ee:	7006      	strb	r6, [r0, #0]
   237f0:	a80f      	add	r0, sp, #60	@ 0x3c
   237f2:	7800      	ldrb	r0, [r0, #0]
   237f4:	2804      	cmp	r0, #4
   237f6:	d008      	beq.n	2380a <_ZN20complex_dynamic_type3app17h7881493ea8f10d18E+0x106>
   237f8:	2803      	cmp	r0, #3
   237fa:	d120      	bne.n	2383e <_ZN20complex_dynamic_type3app17h7881493ea8f10d18E+0x13a>
   237fc:	4626      	mov	r6, r4
   237fe:	4816      	ldr	r0, [pc, #88]	@ (23858 <_ZN20complex_dynamic_type3app17h7881493ea8f10d18E+0x154>)
   23800:	2102      	movs	r1, #2
   23802:	2200      	movs	r2, #0
   23804:	4613      	mov	r3, r2
   23806:	df03      	svc	3
   23808:	e005      	b.n	23816 <_ZN20complex_dynamic_type3app17h7881493ea8f10d18E+0x112>
   2380a:	4626      	mov	r6, r4
   2380c:	4812      	ldr	r0, [pc, #72]	@ (23858 <_ZN20complex_dynamic_type3app17h7881493ea8f10d18E+0x154>)
   2380e:	2102      	movs	r1, #2
   23810:	2200      	movs	r2, #0
   23812:	4613      	mov	r3, r2
   23814:	df04      	svc	4
   23816:	a803      	add	r0, sp, #12
   23818:	7804      	ldrb	r4, [r0, #0]
   2381a:	1c68      	adds	r0, r5, #1
   2381c:	225e      	movs	r2, #94	@ 0x5e
   2381e:	4631      	mov	r1, r6
   23820:	f007 fc74 	bl	2b10c <__aeabi_memcpy>
   23824:	9801      	ldr	r0, [sp, #4]
   23826:	7028      	strb	r0, [r5, #0]
   23828:	2c02      	cmp	r4, #2
   2382a:	d006      	beq.n	2383a <_ZN20complex_dynamic_type3app17h7881493ea8f10d18E+0x136>
   2382c:	480a      	ldr	r0, [pc, #40]	@ (23858 <_ZN20complex_dynamic_type3app17h7881493ea8f10d18E+0x154>)
   2382e:	2105      	movs	r1, #5
   23830:	2200      	movs	r2, #0
   23832:	4613      	mov	r3, r2
   23834:	2c04      	cmp	r4, #4
   23836:	d10b      	bne.n	23850 <_ZN20complex_dynamic_type3app17h7881493ea8f10d18E+0x14c>
   23838:	df04      	svc	4
   2383a:	b027      	add	sp, #156	@ 0x9c
   2383c:	bdf0      	pop	{r4, r5, r6, r7, pc}
   2383e:	1c68      	adds	r0, r5, #1
   23840:	225e      	movs	r2, #94	@ 0x5e
   23842:	4621      	mov	r1, r4
   23844:	f007 fc62 	bl	2b10c <__aeabi_memcpy>
   23848:	9801      	ldr	r0, [sp, #4]
   2384a:	7028      	strb	r0, [r5, #0]
   2384c:	b027      	add	sp, #156	@ 0x9c
   2384e:	bdf0      	pop	{r4, r5, r6, r7, pc}
   23850:	df03      	svc	3
   23852:	b027      	add	sp, #156	@ 0x9c
   23854:	bdf0      	pop	{r4, r5, r6, r7, pc}
   23856:	46c0      	nop			@ (mov r8, r8)
   23858:	0000022b 	.word	0x0000022b

0002385c <_ZN20complex_dynamic_type3app17h78dedc375bc786d1E>:
   2385c:	b5f0      	push	{r4, r5, r6, r7, lr}
   2385e:	af03      	add	r7, sp, #12
   23860:	b099      	sub	sp, #100	@ 0x64
   23862:	9003      	str	r0, [sp, #12]
   23864:	a804      	add	r0, sp, #16
   23866:	2402      	movs	r4, #2
   23868:	7004      	strb	r4, [r0, #0]
   2386a:	1c46      	adds	r6, r0, #1
   2386c:	2234      	movs	r2, #52	@ 0x34
   2386e:	9202      	str	r2, [sp, #8]
   23870:	4630      	mov	r0, r6
   23872:	f007 fc4b 	bl	2b10c <__aeabi_memcpy>
   23876:	ad12      	add	r5, sp, #72	@ 0x48
   23878:	1c68      	adds	r0, r5, #1
   2387a:	211a      	movs	r1, #26
   2387c:	9001      	str	r0, [sp, #4]
   2387e:	f007 fa85 	bl	2ad8c <__aeabi_memclr>
   23882:	9400      	str	r4, [sp, #0]
   23884:	702c      	strb	r4, [r5, #0]
   23886:	4848      	ldr	r0, [pc, #288]	@ (239a8 <_ZN20complex_dynamic_type3app17h78dedc375bc786d1E+0x14c>)
   23888:	2100      	movs	r1, #0
   2388a:	4632      	mov	r2, r6
   2388c:	9b02      	ldr	r3, [sp, #8]
   2388e:	df04      	svc	4
   23890:	2802      	cmp	r0, #2
   23892:	d104      	bne.n	2389e <_ZN20complex_dynamic_type3app17h78dedc375bc786d1E+0x42>
   23894:	2001      	movs	r0, #1
   23896:	9a03      	ldr	r2, [sp, #12]
   23898:	7010      	strb	r0, [r2, #0]
   2389a:	6051      	str	r1, [r2, #4]
   2389c:	e02d      	b.n	238fa <_ZN20complex_dynamic_type3app17h78dedc375bc786d1E+0x9e>
   2389e:	9d03      	ldr	r5, [sp, #12]
   238a0:	a804      	add	r0, sp, #16
   238a2:	2104      	movs	r1, #4
   238a4:	7001      	strb	r1, [r0, #0]
   238a6:	4840      	ldr	r0, [pc, #256]	@ (239a8 <_ZN20complex_dynamic_type3app17h78dedc375bc786d1E+0x14c>)
   238a8:	2105      	movs	r1, #5
   238aa:	231a      	movs	r3, #26
   238ac:	9c01      	ldr	r4, [sp, #4]
   238ae:	4622      	mov	r2, r4
   238b0:	df03      	svc	3
   238b2:	2802      	cmp	r0, #2
   238b4:	d10e      	bne.n	238d4 <_ZN20complex_dynamic_type3app17h78dedc375bc786d1E+0x78>
   238b6:	2001      	movs	r0, #1
   238b8:	7028      	strb	r0, [r5, #0]
   238ba:	6069      	str	r1, [r5, #4]
   238bc:	a812      	add	r0, sp, #72	@ 0x48
   238be:	7800      	ldrb	r0, [r0, #0]
   238c0:	2802      	cmp	r0, #2
   238c2:	d01a      	beq.n	238fa <_ZN20complex_dynamic_type3app17h78dedc375bc786d1E+0x9e>
   238c4:	2803      	cmp	r0, #3
   238c6:	d013      	beq.n	238f0 <_ZN20complex_dynamic_type3app17h78dedc375bc786d1E+0x94>
   238c8:	4837      	ldr	r0, [pc, #220]	@ (239a8 <_ZN20complex_dynamic_type3app17h78dedc375bc786d1E+0x14c>)
   238ca:	2105      	movs	r1, #5
   238cc:	2200      	movs	r2, #0
   238ce:	4613      	mov	r3, r2
   238d0:	df04      	svc	4
   238d2:	e012      	b.n	238fa <_ZN20complex_dynamic_type3app17h78dedc375bc786d1E+0x9e>
   238d4:	a812      	add	r0, sp, #72	@ 0x48
   238d6:	2103      	movs	r1, #3
   238d8:	7001      	strb	r1, [r0, #0]
   238da:	4833      	ldr	r0, [pc, #204]	@ (239a8 <_ZN20complex_dynamic_type3app17h78dedc375bc786d1E+0x14c>)
   238dc:	2205      	movs	r2, #5
   238de:	2600      	movs	r6, #0
   238e0:	4631      	mov	r1, r6
   238e2:	4633      	mov	r3, r6
   238e4:	df02      	svc	2
   238e6:	2880      	cmp	r0, #128	@ 0x80
   238e8:	d21b      	bcs.n	23922 <_ZN20complex_dynamic_type3app17h78dedc375bc786d1E+0xc6>
   238ea:	2001      	movs	r0, #1
   238ec:	7028      	strb	r0, [r5, #0]
   238ee:	6069      	str	r1, [r5, #4]
   238f0:	482d      	ldr	r0, [pc, #180]	@ (239a8 <_ZN20complex_dynamic_type3app17h78dedc375bc786d1E+0x14c>)
   238f2:	2105      	movs	r1, #5
   238f4:	2200      	movs	r2, #0
   238f6:	4613      	mov	r3, r2
   238f8:	df03      	svc	3
   238fa:	a804      	add	r0, sp, #16
   238fc:	7800      	ldrb	r0, [r0, #0]
   238fe:	2802      	cmp	r0, #2
   23900:	d045      	beq.n	2398e <_ZN20complex_dynamic_type3app17h78dedc375bc786d1E+0x132>
   23902:	2804      	cmp	r0, #4
   23904:	d106      	bne.n	23914 <_ZN20complex_dynamic_type3app17h78dedc375bc786d1E+0xb8>
   23906:	4828      	ldr	r0, [pc, #160]	@ (239a8 <_ZN20complex_dynamic_type3app17h78dedc375bc786d1E+0x14c>)
   23908:	2100      	movs	r1, #0
   2390a:	460a      	mov	r2, r1
   2390c:	460b      	mov	r3, r1
   2390e:	df04      	svc	4
   23910:	b019      	add	sp, #100	@ 0x64
   23912:	bdf0      	pop	{r4, r5, r6, r7, pc}
   23914:	4824      	ldr	r0, [pc, #144]	@ (239a8 <_ZN20complex_dynamic_type3app17h78dedc375bc786d1E+0x14c>)
   23916:	2100      	movs	r1, #0
   23918:	460a      	mov	r2, r1
   2391a:	460b      	mov	r3, r1
   2391c:	df03      	svc	3
   2391e:	b019      	add	sp, #100	@ 0x64
   23920:	bdf0      	pop	{r4, r5, r6, r7, pc}
   23922:	a804      	add	r0, sp, #16
   23924:	7800      	ldrb	r0, [r0, #0]
   23926:	2802      	cmp	r0, #2
   23928:	d00c      	beq.n	23944 <_ZN20complex_dynamic_type3app17h78dedc375bc786d1E+0xe8>
   2392a:	2803      	cmp	r0, #3
   2392c:	d105      	bne.n	2393a <_ZN20complex_dynamic_type3app17h78dedc375bc786d1E+0xde>
   2392e:	481e      	ldr	r0, [pc, #120]	@ (239a8 <_ZN20complex_dynamic_type3app17h78dedc375bc786d1E+0x14c>)
   23930:	2100      	movs	r1, #0
   23932:	460a      	mov	r2, r1
   23934:	460b      	mov	r3, r1
   23936:	df03      	svc	3
   23938:	e004      	b.n	23944 <_ZN20complex_dynamic_type3app17h78dedc375bc786d1E+0xe8>
   2393a:	481b      	ldr	r0, [pc, #108]	@ (239a8 <_ZN20complex_dynamic_type3app17h78dedc375bc786d1E+0x14c>)
   2393c:	2100      	movs	r1, #0
   2393e:	460a      	mov	r2, r1
   23940:	460b      	mov	r3, r1
   23942:	df04      	svc	4
   23944:	a804      	add	r0, sp, #16
   23946:	9900      	ldr	r1, [sp, #0]
   23948:	7001      	strb	r1, [r0, #0]
   2394a:	a812      	add	r0, sp, #72	@ 0x48
   2394c:	7800      	ldrb	r0, [r0, #0]
   2394e:	2804      	cmp	r0, #4
   23950:	d007      	beq.n	23962 <_ZN20complex_dynamic_type3app17h78dedc375bc786d1E+0x106>
   23952:	2803      	cmp	r0, #3
   23954:	d11d      	bne.n	23992 <_ZN20complex_dynamic_type3app17h78dedc375bc786d1E+0x136>
   23956:	4814      	ldr	r0, [pc, #80]	@ (239a8 <_ZN20complex_dynamic_type3app17h78dedc375bc786d1E+0x14c>)
   23958:	2105      	movs	r1, #5
   2395a:	2200      	movs	r2, #0
   2395c:	4613      	mov	r3, r2
   2395e:	df03      	svc	3
   23960:	e004      	b.n	2396c <_ZN20complex_dynamic_type3app17h78dedc375bc786d1E+0x110>
   23962:	4811      	ldr	r0, [pc, #68]	@ (239a8 <_ZN20complex_dynamic_type3app17h78dedc375bc786d1E+0x14c>)
   23964:	2105      	movs	r1, #5
   23966:	2200      	movs	r2, #0
   23968:	4613      	mov	r3, r2
   2396a:	df04      	svc	4
   2396c:	a804      	add	r0, sp, #16
   2396e:	7804      	ldrb	r4, [r0, #0]
   23970:	1c68      	adds	r0, r5, #1
   23972:	221a      	movs	r2, #26
   23974:	9901      	ldr	r1, [sp, #4]
   23976:	f007 fbc9 	bl	2b10c <__aeabi_memcpy>
   2397a:	702e      	strb	r6, [r5, #0]
   2397c:	2c02      	cmp	r4, #2
   2397e:	d006      	beq.n	2398e <_ZN20complex_dynamic_type3app17h78dedc375bc786d1E+0x132>
   23980:	4809      	ldr	r0, [pc, #36]	@ (239a8 <_ZN20complex_dynamic_type3app17h78dedc375bc786d1E+0x14c>)
   23982:	2100      	movs	r1, #0
   23984:	460a      	mov	r2, r1
   23986:	460b      	mov	r3, r1
   23988:	2c04      	cmp	r4, #4
   2398a:	d10a      	bne.n	239a2 <_ZN20complex_dynamic_type3app17h78dedc375bc786d1E+0x146>
   2398c:	df04      	svc	4
   2398e:	b019      	add	sp, #100	@ 0x64
   23990:	bdf0      	pop	{r4, r5, r6, r7, pc}
   23992:	1c68      	adds	r0, r5, #1
   23994:	221a      	movs	r2, #26
   23996:	4621      	mov	r1, r4
   23998:	f007 fbb8 	bl	2b10c <__aeabi_memcpy>
   2399c:	702e      	strb	r6, [r5, #0]
   2399e:	b019      	add	sp, #100	@ 0x64
   239a0:	bdf0      	pop	{r4, r5, r6, r7, pc}
   239a2:	df03      	svc	3
   239a4:	b019      	add	sp, #100	@ 0x64
   239a6:	bdf0      	pop	{r4, r5, r6, r7, pc}
   239a8:	000012cc 	.word	0x000012cc

000239ac <_ZN20complex_dynamic_type3app17h7a280281f9cfa32bE>:
   239ac:	b5f0      	push	{r4, r5, r6, r7, lr}
   239ae:	af03      	add	r7, sp, #12
   239b0:	b097      	sub	sp, #92	@ 0x5c
   239b2:	9004      	str	r0, [sp, #16]
   239b4:	a805      	add	r0, sp, #20
   239b6:	2402      	movs	r4, #2
   239b8:	7004      	strb	r4, [r0, #0]
   239ba:	1c46      	adds	r6, r0, #1
   239bc:	2236      	movs	r2, #54	@ 0x36
   239be:	9203      	str	r2, [sp, #12]
   239c0:	4630      	mov	r0, r6
   239c2:	f007 fba3 	bl	2b10c <__aeabi_memcpy>
   239c6:	ad13      	add	r5, sp, #76	@ 0x4c
   239c8:	1c68      	adds	r0, r5, #1
   239ca:	210f      	movs	r1, #15
   239cc:	9002      	str	r0, [sp, #8]
   239ce:	f007 f9dd 	bl	2ad8c <__aeabi_memclr>
   239d2:	9401      	str	r4, [sp, #4]
   239d4:	702c      	strb	r4, [r5, #0]
   239d6:	4848      	ldr	r0, [pc, #288]	@ (23af8 <_ZN20complex_dynamic_type3app17h7a280281f9cfa32bE+0x14c>)
   239d8:	2105      	movs	r1, #5
   239da:	4632      	mov	r2, r6
   239dc:	9b03      	ldr	r3, [sp, #12]
   239de:	df04      	svc	4
   239e0:	2802      	cmp	r0, #2
   239e2:	d104      	bne.n	239ee <_ZN20complex_dynamic_type3app17h7a280281f9cfa32bE+0x42>
   239e4:	2001      	movs	r0, #1
   239e6:	9a04      	ldr	r2, [sp, #16]
   239e8:	7010      	strb	r0, [r2, #0]
   239ea:	6051      	str	r1, [r2, #4]
   239ec:	e02c      	b.n	23a48 <_ZN20complex_dynamic_type3app17h7a280281f9cfa32bE+0x9c>
   239ee:	9d04      	ldr	r5, [sp, #16]
   239f0:	a805      	add	r0, sp, #20
   239f2:	2104      	movs	r1, #4
   239f4:	7001      	strb	r1, [r0, #0]
   239f6:	4840      	ldr	r0, [pc, #256]	@ (23af8 <_ZN20complex_dynamic_type3app17h7a280281f9cfa32bE+0x14c>)
   239f8:	2403      	movs	r4, #3
   239fa:	230f      	movs	r3, #15
   239fc:	4621      	mov	r1, r4
   239fe:	9a02      	ldr	r2, [sp, #8]
   23a00:	df03      	svc	3
   23a02:	2802      	cmp	r0, #2
   23a04:	d10e      	bne.n	23a24 <_ZN20complex_dynamic_type3app17h7a280281f9cfa32bE+0x78>
   23a06:	2001      	movs	r0, #1
   23a08:	7028      	strb	r0, [r5, #0]
   23a0a:	6069      	str	r1, [r5, #4]
   23a0c:	a813      	add	r0, sp, #76	@ 0x4c
   23a0e:	7800      	ldrb	r0, [r0, #0]
   23a10:	2802      	cmp	r0, #2
   23a12:	d019      	beq.n	23a48 <_ZN20complex_dynamic_type3app17h7a280281f9cfa32bE+0x9c>
   23a14:	2803      	cmp	r0, #3
   23a16:	d012      	beq.n	23a3e <_ZN20complex_dynamic_type3app17h7a280281f9cfa32bE+0x92>
   23a18:	4837      	ldr	r0, [pc, #220]	@ (23af8 <_ZN20complex_dynamic_type3app17h7a280281f9cfa32bE+0x14c>)
   23a1a:	2103      	movs	r1, #3
   23a1c:	2200      	movs	r2, #0
   23a1e:	4613      	mov	r3, r2
   23a20:	df04      	svc	4
   23a22:	e011      	b.n	23a48 <_ZN20complex_dynamic_type3app17h7a280281f9cfa32bE+0x9c>
   23a24:	a813      	add	r0, sp, #76	@ 0x4c
   23a26:	7004      	strb	r4, [r0, #0]
   23a28:	4833      	ldr	r0, [pc, #204]	@ (23af8 <_ZN20complex_dynamic_type3app17h7a280281f9cfa32bE+0x14c>)
   23a2a:	2105      	movs	r1, #5
   23a2c:	2600      	movs	r6, #0
   23a2e:	4622      	mov	r2, r4
   23a30:	4633      	mov	r3, r6
   23a32:	df02      	svc	2
   23a34:	2880      	cmp	r0, #128	@ 0x80
   23a36:	d21b      	bcs.n	23a70 <_ZN20complex_dynamic_type3app17h7a280281f9cfa32bE+0xc4>
   23a38:	2001      	movs	r0, #1
   23a3a:	7028      	strb	r0, [r5, #0]
   23a3c:	6069      	str	r1, [r5, #4]
   23a3e:	482e      	ldr	r0, [pc, #184]	@ (23af8 <_ZN20complex_dynamic_type3app17h7a280281f9cfa32bE+0x14c>)
   23a40:	2103      	movs	r1, #3
   23a42:	2200      	movs	r2, #0
   23a44:	4613      	mov	r3, r2
   23a46:	df03      	svc	3
   23a48:	a805      	add	r0, sp, #20
   23a4a:	7800      	ldrb	r0, [r0, #0]
   23a4c:	2802      	cmp	r0, #2
   23a4e:	d045      	beq.n	23adc <_ZN20complex_dynamic_type3app17h7a280281f9cfa32bE+0x130>
   23a50:	2804      	cmp	r0, #4
   23a52:	d106      	bne.n	23a62 <_ZN20complex_dynamic_type3app17h7a280281f9cfa32bE+0xb6>
   23a54:	4828      	ldr	r0, [pc, #160]	@ (23af8 <_ZN20complex_dynamic_type3app17h7a280281f9cfa32bE+0x14c>)
   23a56:	2105      	movs	r1, #5
   23a58:	2200      	movs	r2, #0
   23a5a:	4613      	mov	r3, r2
   23a5c:	df04      	svc	4
   23a5e:	b017      	add	sp, #92	@ 0x5c
   23a60:	bdf0      	pop	{r4, r5, r6, r7, pc}
   23a62:	4825      	ldr	r0, [pc, #148]	@ (23af8 <_ZN20complex_dynamic_type3app17h7a280281f9cfa32bE+0x14c>)
   23a64:	2105      	movs	r1, #5
   23a66:	2200      	movs	r2, #0
   23a68:	4613      	mov	r3, r2
   23a6a:	df03      	svc	3
   23a6c:	b017      	add	sp, #92	@ 0x5c
   23a6e:	bdf0      	pop	{r4, r5, r6, r7, pc}
   23a70:	a805      	add	r0, sp, #20
   23a72:	7800      	ldrb	r0, [r0, #0]
   23a74:	2802      	cmp	r0, #2
   23a76:	d00c      	beq.n	23a92 <_ZN20complex_dynamic_type3app17h7a280281f9cfa32bE+0xe6>
   23a78:	2803      	cmp	r0, #3
   23a7a:	d105      	bne.n	23a88 <_ZN20complex_dynamic_type3app17h7a280281f9cfa32bE+0xdc>
   23a7c:	481e      	ldr	r0, [pc, #120]	@ (23af8 <_ZN20complex_dynamic_type3app17h7a280281f9cfa32bE+0x14c>)
   23a7e:	2105      	movs	r1, #5
   23a80:	2200      	movs	r2, #0
   23a82:	4613      	mov	r3, r2
   23a84:	df03      	svc	3
   23a86:	e004      	b.n	23a92 <_ZN20complex_dynamic_type3app17h7a280281f9cfa32bE+0xe6>
   23a88:	481b      	ldr	r0, [pc, #108]	@ (23af8 <_ZN20complex_dynamic_type3app17h7a280281f9cfa32bE+0x14c>)
   23a8a:	2105      	movs	r1, #5
   23a8c:	2200      	movs	r2, #0
   23a8e:	4613      	mov	r3, r2
   23a90:	df04      	svc	4
   23a92:	a805      	add	r0, sp, #20
   23a94:	9901      	ldr	r1, [sp, #4]
   23a96:	7001      	strb	r1, [r0, #0]
   23a98:	a813      	add	r0, sp, #76	@ 0x4c
   23a9a:	7800      	ldrb	r0, [r0, #0]
   23a9c:	2804      	cmp	r0, #4
   23a9e:	d007      	beq.n	23ab0 <_ZN20complex_dynamic_type3app17h7a280281f9cfa32bE+0x104>
   23aa0:	2803      	cmp	r0, #3
   23aa2:	d11d      	bne.n	23ae0 <_ZN20complex_dynamic_type3app17h7a280281f9cfa32bE+0x134>
   23aa4:	4814      	ldr	r0, [pc, #80]	@ (23af8 <_ZN20complex_dynamic_type3app17h7a280281f9cfa32bE+0x14c>)
   23aa6:	2103      	movs	r1, #3
   23aa8:	2200      	movs	r2, #0
   23aaa:	4613      	mov	r3, r2
   23aac:	df03      	svc	3
   23aae:	e004      	b.n	23aba <_ZN20complex_dynamic_type3app17h7a280281f9cfa32bE+0x10e>
   23ab0:	4811      	ldr	r0, [pc, #68]	@ (23af8 <_ZN20complex_dynamic_type3app17h7a280281f9cfa32bE+0x14c>)
   23ab2:	2103      	movs	r1, #3
   23ab4:	2200      	movs	r2, #0
   23ab6:	4613      	mov	r3, r2
   23ab8:	df04      	svc	4
   23aba:	a805      	add	r0, sp, #20
   23abc:	7804      	ldrb	r4, [r0, #0]
   23abe:	1c68      	adds	r0, r5, #1
   23ac0:	220f      	movs	r2, #15
   23ac2:	9902      	ldr	r1, [sp, #8]
   23ac4:	f007 fb22 	bl	2b10c <__aeabi_memcpy>
   23ac8:	702e      	strb	r6, [r5, #0]
   23aca:	2c02      	cmp	r4, #2
   23acc:	d006      	beq.n	23adc <_ZN20complex_dynamic_type3app17h7a280281f9cfa32bE+0x130>
   23ace:	480a      	ldr	r0, [pc, #40]	@ (23af8 <_ZN20complex_dynamic_type3app17h7a280281f9cfa32bE+0x14c>)
   23ad0:	2105      	movs	r1, #5
   23ad2:	2200      	movs	r2, #0
   23ad4:	4613      	mov	r3, r2
   23ad6:	2c04      	cmp	r4, #4
   23ad8:	d10a      	bne.n	23af0 <_ZN20complex_dynamic_type3app17h7a280281f9cfa32bE+0x144>
   23ada:	df04      	svc	4
   23adc:	b017      	add	sp, #92	@ 0x5c
   23ade:	bdf0      	pop	{r4, r5, r6, r7, pc}
   23ae0:	1c68      	adds	r0, r5, #1
   23ae2:	220f      	movs	r2, #15
   23ae4:	9902      	ldr	r1, [sp, #8]
   23ae6:	f007 fb11 	bl	2b10c <__aeabi_memcpy>
   23aea:	702e      	strb	r6, [r5, #0]
   23aec:	b017      	add	sp, #92	@ 0x5c
   23aee:	bdf0      	pop	{r4, r5, r6, r7, pc}
   23af0:	df03      	svc	3
   23af2:	b017      	add	sp, #92	@ 0x5c
   23af4:	bdf0      	pop	{r4, r5, r6, r7, pc}
   23af6:	46c0      	nop			@ (mov r8, r8)
   23af8:	00000653 	.word	0x00000653

00023afc <_ZN20complex_dynamic_type3app17h7cab82dec30744c7E>:
   23afc:	b5f0      	push	{r4, r5, r6, r7, lr}
   23afe:	af03      	add	r7, sp, #12
   23b00:	b0ad      	sub	sp, #180	@ 0xb4
   23b02:	9003      	str	r0, [sp, #12]
   23b04:	a804      	add	r0, sp, #16
   23b06:	2402      	movs	r4, #2
   23b08:	7004      	strb	r4, [r0, #0]
   23b0a:	1c46      	adds	r6, r0, #1
   23b0c:	2256      	movs	r2, #86	@ 0x56
   23b0e:	9202      	str	r2, [sp, #8]
   23b10:	4630      	mov	r0, r6
   23b12:	f007 fafb 	bl	2b10c <__aeabi_memcpy>
   23b16:	ad1a      	add	r5, sp, #104	@ 0x68
   23b18:	1c68      	adds	r0, r5, #1
   23b1a:	2149      	movs	r1, #73	@ 0x49
   23b1c:	9001      	str	r0, [sp, #4]
   23b1e:	f007 f935 	bl	2ad8c <__aeabi_memclr>
   23b22:	9400      	str	r4, [sp, #0]
   23b24:	702c      	strb	r4, [r5, #0]
   23b26:	4848      	ldr	r0, [pc, #288]	@ (23c48 <_ZN20complex_dynamic_type3app17h7cab82dec30744c7E+0x14c>)
   23b28:	2106      	movs	r1, #6
   23b2a:	4632      	mov	r2, r6
   23b2c:	9b02      	ldr	r3, [sp, #8]
   23b2e:	df04      	svc	4
   23b30:	2802      	cmp	r0, #2
   23b32:	d104      	bne.n	23b3e <_ZN20complex_dynamic_type3app17h7cab82dec30744c7E+0x42>
   23b34:	2001      	movs	r0, #1
   23b36:	9a03      	ldr	r2, [sp, #12]
   23b38:	7010      	strb	r0, [r2, #0]
   23b3a:	6051      	str	r1, [r2, #4]
   23b3c:	e02d      	b.n	23b9a <_ZN20complex_dynamic_type3app17h7cab82dec30744c7E+0x9e>
   23b3e:	9d03      	ldr	r5, [sp, #12]
   23b40:	a804      	add	r0, sp, #16
   23b42:	2104      	movs	r1, #4
   23b44:	7001      	strb	r1, [r0, #0]
   23b46:	4840      	ldr	r0, [pc, #256]	@ (23c48 <_ZN20complex_dynamic_type3app17h7cab82dec30744c7E+0x14c>)
   23b48:	2106      	movs	r1, #6
   23b4a:	2349      	movs	r3, #73	@ 0x49
   23b4c:	9c01      	ldr	r4, [sp, #4]
   23b4e:	4622      	mov	r2, r4
   23b50:	df03      	svc	3
   23b52:	2802      	cmp	r0, #2
   23b54:	d10e      	bne.n	23b74 <_ZN20complex_dynamic_type3app17h7cab82dec30744c7E+0x78>
   23b56:	2001      	movs	r0, #1
   23b58:	7028      	strb	r0, [r5, #0]
   23b5a:	6069      	str	r1, [r5, #4]
   23b5c:	a81a      	add	r0, sp, #104	@ 0x68
   23b5e:	7800      	ldrb	r0, [r0, #0]
   23b60:	2802      	cmp	r0, #2
   23b62:	d01a      	beq.n	23b9a <_ZN20complex_dynamic_type3app17h7cab82dec30744c7E+0x9e>
   23b64:	2803      	cmp	r0, #3
   23b66:	d013      	beq.n	23b90 <_ZN20complex_dynamic_type3app17h7cab82dec30744c7E+0x94>
   23b68:	4837      	ldr	r0, [pc, #220]	@ (23c48 <_ZN20complex_dynamic_type3app17h7cab82dec30744c7E+0x14c>)
   23b6a:	2106      	movs	r1, #6
   23b6c:	2200      	movs	r2, #0
   23b6e:	4613      	mov	r3, r2
   23b70:	df04      	svc	4
   23b72:	e012      	b.n	23b9a <_ZN20complex_dynamic_type3app17h7cab82dec30744c7E+0x9e>
   23b74:	a81a      	add	r0, sp, #104	@ 0x68
   23b76:	2103      	movs	r1, #3
   23b78:	7001      	strb	r1, [r0, #0]
   23b7a:	4833      	ldr	r0, [pc, #204]	@ (23c48 <_ZN20complex_dynamic_type3app17h7cab82dec30744c7E+0x14c>)
   23b7c:	2106      	movs	r1, #6
   23b7e:	2600      	movs	r6, #0
   23b80:	460a      	mov	r2, r1
   23b82:	4633      	mov	r3, r6
   23b84:	df02      	svc	2
   23b86:	2880      	cmp	r0, #128	@ 0x80
   23b88:	d21b      	bcs.n	23bc2 <_ZN20complex_dynamic_type3app17h7cab82dec30744c7E+0xc6>
   23b8a:	2001      	movs	r0, #1
   23b8c:	7028      	strb	r0, [r5, #0]
   23b8e:	6069      	str	r1, [r5, #4]
   23b90:	482d      	ldr	r0, [pc, #180]	@ (23c48 <_ZN20complex_dynamic_type3app17h7cab82dec30744c7E+0x14c>)
   23b92:	2106      	movs	r1, #6
   23b94:	2200      	movs	r2, #0
   23b96:	4613      	mov	r3, r2
   23b98:	df03      	svc	3
   23b9a:	a804      	add	r0, sp, #16
   23b9c:	7800      	ldrb	r0, [r0, #0]
   23b9e:	2802      	cmp	r0, #2
   23ba0:	d045      	beq.n	23c2e <_ZN20complex_dynamic_type3app17h7cab82dec30744c7E+0x132>
   23ba2:	2804      	cmp	r0, #4
   23ba4:	d106      	bne.n	23bb4 <_ZN20complex_dynamic_type3app17h7cab82dec30744c7E+0xb8>
   23ba6:	4828      	ldr	r0, [pc, #160]	@ (23c48 <_ZN20complex_dynamic_type3app17h7cab82dec30744c7E+0x14c>)
   23ba8:	2106      	movs	r1, #6
   23baa:	2200      	movs	r2, #0
   23bac:	4613      	mov	r3, r2
   23bae:	df04      	svc	4
   23bb0:	b02d      	add	sp, #180	@ 0xb4
   23bb2:	bdf0      	pop	{r4, r5, r6, r7, pc}
   23bb4:	4824      	ldr	r0, [pc, #144]	@ (23c48 <_ZN20complex_dynamic_type3app17h7cab82dec30744c7E+0x14c>)
   23bb6:	2106      	movs	r1, #6
   23bb8:	2200      	movs	r2, #0
   23bba:	4613      	mov	r3, r2
   23bbc:	df03      	svc	3
   23bbe:	b02d      	add	sp, #180	@ 0xb4
   23bc0:	bdf0      	pop	{r4, r5, r6, r7, pc}
   23bc2:	a804      	add	r0, sp, #16
   23bc4:	7800      	ldrb	r0, [r0, #0]
   23bc6:	2802      	cmp	r0, #2
   23bc8:	d00c      	beq.n	23be4 <_ZN20complex_dynamic_type3app17h7cab82dec30744c7E+0xe8>
   23bca:	2803      	cmp	r0, #3
   23bcc:	d105      	bne.n	23bda <_ZN20complex_dynamic_type3app17h7cab82dec30744c7E+0xde>
   23bce:	481e      	ldr	r0, [pc, #120]	@ (23c48 <_ZN20complex_dynamic_type3app17h7cab82dec30744c7E+0x14c>)
   23bd0:	2106      	movs	r1, #6
   23bd2:	2200      	movs	r2, #0
   23bd4:	4613      	mov	r3, r2
   23bd6:	df03      	svc	3
   23bd8:	e004      	b.n	23be4 <_ZN20complex_dynamic_type3app17h7cab82dec30744c7E+0xe8>
   23bda:	481b      	ldr	r0, [pc, #108]	@ (23c48 <_ZN20complex_dynamic_type3app17h7cab82dec30744c7E+0x14c>)
   23bdc:	2106      	movs	r1, #6
   23bde:	2200      	movs	r2, #0
   23be0:	4613      	mov	r3, r2
   23be2:	df04      	svc	4
   23be4:	a804      	add	r0, sp, #16
   23be6:	9900      	ldr	r1, [sp, #0]
   23be8:	7001      	strb	r1, [r0, #0]
   23bea:	a81a      	add	r0, sp, #104	@ 0x68
   23bec:	7800      	ldrb	r0, [r0, #0]
   23bee:	2804      	cmp	r0, #4
   23bf0:	d007      	beq.n	23c02 <_ZN20complex_dynamic_type3app17h7cab82dec30744c7E+0x106>
   23bf2:	2803      	cmp	r0, #3
   23bf4:	d11d      	bne.n	23c32 <_ZN20complex_dynamic_type3app17h7cab82dec30744c7E+0x136>
   23bf6:	4814      	ldr	r0, [pc, #80]	@ (23c48 <_ZN20complex_dynamic_type3app17h7cab82dec30744c7E+0x14c>)
   23bf8:	2106      	movs	r1, #6
   23bfa:	2200      	movs	r2, #0
   23bfc:	4613      	mov	r3, r2
   23bfe:	df03      	svc	3
   23c00:	e004      	b.n	23c0c <_ZN20complex_dynamic_type3app17h7cab82dec30744c7E+0x110>
   23c02:	4811      	ldr	r0, [pc, #68]	@ (23c48 <_ZN20complex_dynamic_type3app17h7cab82dec30744c7E+0x14c>)
   23c04:	2106      	movs	r1, #6
   23c06:	2200      	movs	r2, #0
   23c08:	4613      	mov	r3, r2
   23c0a:	df04      	svc	4
   23c0c:	a804      	add	r0, sp, #16
   23c0e:	7804      	ldrb	r4, [r0, #0]
   23c10:	1c68      	adds	r0, r5, #1
   23c12:	2249      	movs	r2, #73	@ 0x49
   23c14:	9901      	ldr	r1, [sp, #4]
   23c16:	f007 fa79 	bl	2b10c <__aeabi_memcpy>
   23c1a:	702e      	strb	r6, [r5, #0]
   23c1c:	2c02      	cmp	r4, #2
   23c1e:	d006      	beq.n	23c2e <_ZN20complex_dynamic_type3app17h7cab82dec30744c7E+0x132>
   23c20:	4809      	ldr	r0, [pc, #36]	@ (23c48 <_ZN20complex_dynamic_type3app17h7cab82dec30744c7E+0x14c>)
   23c22:	2106      	movs	r1, #6
   23c24:	2200      	movs	r2, #0
   23c26:	4613      	mov	r3, r2
   23c28:	2c04      	cmp	r4, #4
   23c2a:	d10a      	bne.n	23c42 <_ZN20complex_dynamic_type3app17h7cab82dec30744c7E+0x146>
   23c2c:	df04      	svc	4
   23c2e:	b02d      	add	sp, #180	@ 0xb4
   23c30:	bdf0      	pop	{r4, r5, r6, r7, pc}
   23c32:	1c68      	adds	r0, r5, #1
   23c34:	2249      	movs	r2, #73	@ 0x49
   23c36:	4621      	mov	r1, r4
   23c38:	f007 fa68 	bl	2b10c <__aeabi_memcpy>
   23c3c:	702e      	strb	r6, [r5, #0]
   23c3e:	b02d      	add	sp, #180	@ 0xb4
   23c40:	bdf0      	pop	{r4, r5, r6, r7, pc}
   23c42:	df03      	svc	3
   23c44:	b02d      	add	sp, #180	@ 0xb4
   23c46:	bdf0      	pop	{r4, r5, r6, r7, pc}
   23c48:	00001c6b 	.word	0x00001c6b

00023c4c <_ZN20complex_dynamic_type3app17h85202b3693a54a81E>:
   23c4c:	b5f0      	push	{r4, r5, r6, r7, lr}
   23c4e:	af03      	add	r7, sp, #12
   23c50:	b0a1      	sub	sp, #132	@ 0x84
   23c52:	9004      	str	r0, [sp, #16]
   23c54:	a805      	add	r0, sp, #20
   23c56:	2402      	movs	r4, #2
   23c58:	7004      	strb	r4, [r0, #0]
   23c5a:	1c46      	adds	r6, r0, #1
   23c5c:	2249      	movs	r2, #73	@ 0x49
   23c5e:	9203      	str	r2, [sp, #12]
   23c60:	4630      	mov	r0, r6
   23c62:	f007 fa53 	bl	2b10c <__aeabi_memcpy>
   23c66:	ad18      	add	r5, sp, #96	@ 0x60
   23c68:	1c68      	adds	r0, r5, #1
   23c6a:	2123      	movs	r1, #35	@ 0x23
   23c6c:	9002      	str	r0, [sp, #8]
   23c6e:	f007 f88d 	bl	2ad8c <__aeabi_memclr>
   23c72:	9401      	str	r4, [sp, #4]
   23c74:	702c      	strb	r4, [r5, #0]
   23c76:	4848      	ldr	r0, [pc, #288]	@ (23d98 <_ZN20complex_dynamic_type3app17h85202b3693a54a81E+0x14c>)
   23c78:	2107      	movs	r1, #7
   23c7a:	4632      	mov	r2, r6
   23c7c:	9b03      	ldr	r3, [sp, #12]
   23c7e:	df04      	svc	4
   23c80:	2802      	cmp	r0, #2
   23c82:	d104      	bne.n	23c8e <_ZN20complex_dynamic_type3app17h85202b3693a54a81E+0x42>
   23c84:	2001      	movs	r0, #1
   23c86:	9a04      	ldr	r2, [sp, #16]
   23c88:	7010      	strb	r0, [r2, #0]
   23c8a:	6051      	str	r1, [r2, #4]
   23c8c:	e02c      	b.n	23ce8 <_ZN20complex_dynamic_type3app17h85202b3693a54a81E+0x9c>
   23c8e:	9d04      	ldr	r5, [sp, #16]
   23c90:	a805      	add	r0, sp, #20
   23c92:	2104      	movs	r1, #4
   23c94:	7001      	strb	r1, [r0, #0]
   23c96:	4840      	ldr	r0, [pc, #256]	@ (23d98 <_ZN20complex_dynamic_type3app17h85202b3693a54a81E+0x14c>)
   23c98:	2401      	movs	r4, #1
   23c9a:	2323      	movs	r3, #35	@ 0x23
   23c9c:	4621      	mov	r1, r4
   23c9e:	9a02      	ldr	r2, [sp, #8]
   23ca0:	df03      	svc	3
   23ca2:	2802      	cmp	r0, #2
   23ca4:	d10d      	bne.n	23cc2 <_ZN20complex_dynamic_type3app17h85202b3693a54a81E+0x76>
   23ca6:	702c      	strb	r4, [r5, #0]
   23ca8:	6069      	str	r1, [r5, #4]
   23caa:	a818      	add	r0, sp, #96	@ 0x60
   23cac:	7800      	ldrb	r0, [r0, #0]
   23cae:	2802      	cmp	r0, #2
   23cb0:	d01a      	beq.n	23ce8 <_ZN20complex_dynamic_type3app17h85202b3693a54a81E+0x9c>
   23cb2:	2803      	cmp	r0, #3
   23cb4:	d013      	beq.n	23cde <_ZN20complex_dynamic_type3app17h85202b3693a54a81E+0x92>
   23cb6:	4838      	ldr	r0, [pc, #224]	@ (23d98 <_ZN20complex_dynamic_type3app17h85202b3693a54a81E+0x14c>)
   23cb8:	2101      	movs	r1, #1
   23cba:	2200      	movs	r2, #0
   23cbc:	4613      	mov	r3, r2
   23cbe:	df04      	svc	4
   23cc0:	e012      	b.n	23ce8 <_ZN20complex_dynamic_type3app17h85202b3693a54a81E+0x9c>
   23cc2:	a818      	add	r0, sp, #96	@ 0x60
   23cc4:	2103      	movs	r1, #3
   23cc6:	7001      	strb	r1, [r0, #0]
   23cc8:	4833      	ldr	r0, [pc, #204]	@ (23d98 <_ZN20complex_dynamic_type3app17h85202b3693a54a81E+0x14c>)
   23cca:	2107      	movs	r1, #7
   23ccc:	2401      	movs	r4, #1
   23cce:	2600      	movs	r6, #0
   23cd0:	4622      	mov	r2, r4
   23cd2:	4633      	mov	r3, r6
   23cd4:	df02      	svc	2
   23cd6:	2880      	cmp	r0, #128	@ 0x80
   23cd8:	d21a      	bcs.n	23d10 <_ZN20complex_dynamic_type3app17h85202b3693a54a81E+0xc4>
   23cda:	702c      	strb	r4, [r5, #0]
   23cdc:	6069      	str	r1, [r5, #4]
   23cde:	482e      	ldr	r0, [pc, #184]	@ (23d98 <_ZN20complex_dynamic_type3app17h85202b3693a54a81E+0x14c>)
   23ce0:	2101      	movs	r1, #1
   23ce2:	2200      	movs	r2, #0
   23ce4:	4613      	mov	r3, r2
   23ce6:	df03      	svc	3
   23ce8:	a805      	add	r0, sp, #20
   23cea:	7800      	ldrb	r0, [r0, #0]
   23cec:	2802      	cmp	r0, #2
   23cee:	d045      	beq.n	23d7c <_ZN20complex_dynamic_type3app17h85202b3693a54a81E+0x130>
   23cf0:	2804      	cmp	r0, #4
   23cf2:	d106      	bne.n	23d02 <_ZN20complex_dynamic_type3app17h85202b3693a54a81E+0xb6>
   23cf4:	4828      	ldr	r0, [pc, #160]	@ (23d98 <_ZN20complex_dynamic_type3app17h85202b3693a54a81E+0x14c>)
   23cf6:	2107      	movs	r1, #7
   23cf8:	2200      	movs	r2, #0
   23cfa:	4613      	mov	r3, r2
   23cfc:	df04      	svc	4
   23cfe:	b021      	add	sp, #132	@ 0x84
   23d00:	bdf0      	pop	{r4, r5, r6, r7, pc}
   23d02:	4825      	ldr	r0, [pc, #148]	@ (23d98 <_ZN20complex_dynamic_type3app17h85202b3693a54a81E+0x14c>)
   23d04:	2107      	movs	r1, #7
   23d06:	2200      	movs	r2, #0
   23d08:	4613      	mov	r3, r2
   23d0a:	df03      	svc	3
   23d0c:	b021      	add	sp, #132	@ 0x84
   23d0e:	bdf0      	pop	{r4, r5, r6, r7, pc}
   23d10:	a805      	add	r0, sp, #20
   23d12:	7800      	ldrb	r0, [r0, #0]
   23d14:	2802      	cmp	r0, #2
   23d16:	d00c      	beq.n	23d32 <_ZN20complex_dynamic_type3app17h85202b3693a54a81E+0xe6>
   23d18:	2803      	cmp	r0, #3
   23d1a:	d105      	bne.n	23d28 <_ZN20complex_dynamic_type3app17h85202b3693a54a81E+0xdc>
   23d1c:	481e      	ldr	r0, [pc, #120]	@ (23d98 <_ZN20complex_dynamic_type3app17h85202b3693a54a81E+0x14c>)
   23d1e:	2107      	movs	r1, #7
   23d20:	2200      	movs	r2, #0
   23d22:	4613      	mov	r3, r2
   23d24:	df03      	svc	3
   23d26:	e004      	b.n	23d32 <_ZN20complex_dynamic_type3app17h85202b3693a54a81E+0xe6>
   23d28:	481b      	ldr	r0, [pc, #108]	@ (23d98 <_ZN20complex_dynamic_type3app17h85202b3693a54a81E+0x14c>)
   23d2a:	2107      	movs	r1, #7
   23d2c:	2200      	movs	r2, #0
   23d2e:	4613      	mov	r3, r2
   23d30:	df04      	svc	4
   23d32:	a805      	add	r0, sp, #20
   23d34:	9901      	ldr	r1, [sp, #4]
   23d36:	7001      	strb	r1, [r0, #0]
   23d38:	a818      	add	r0, sp, #96	@ 0x60
   23d3a:	7800      	ldrb	r0, [r0, #0]
   23d3c:	2804      	cmp	r0, #4
   23d3e:	d007      	beq.n	23d50 <_ZN20complex_dynamic_type3app17h85202b3693a54a81E+0x104>
   23d40:	2803      	cmp	r0, #3
   23d42:	d11d      	bne.n	23d80 <_ZN20complex_dynamic_type3app17h85202b3693a54a81E+0x134>
   23d44:	4814      	ldr	r0, [pc, #80]	@ (23d98 <_ZN20complex_dynamic_type3app17h85202b3693a54a81E+0x14c>)
   23d46:	2101      	movs	r1, #1
   23d48:	2200      	movs	r2, #0
   23d4a:	4613      	mov	r3, r2
   23d4c:	df03      	svc	3
   23d4e:	e004      	b.n	23d5a <_ZN20complex_dynamic_type3app17h85202b3693a54a81E+0x10e>
   23d50:	4811      	ldr	r0, [pc, #68]	@ (23d98 <_ZN20complex_dynamic_type3app17h85202b3693a54a81E+0x14c>)
   23d52:	2101      	movs	r1, #1
   23d54:	2200      	movs	r2, #0
   23d56:	4613      	mov	r3, r2
   23d58:	df04      	svc	4
   23d5a:	a805      	add	r0, sp, #20
   23d5c:	7804      	ldrb	r4, [r0, #0]
   23d5e:	1c68      	adds	r0, r5, #1
   23d60:	2223      	movs	r2, #35	@ 0x23
   23d62:	9902      	ldr	r1, [sp, #8]
   23d64:	f007 f9d2 	bl	2b10c <__aeabi_memcpy>
   23d68:	702e      	strb	r6, [r5, #0]
   23d6a:	2c02      	cmp	r4, #2
   23d6c:	d006      	beq.n	23d7c <_ZN20complex_dynamic_type3app17h85202b3693a54a81E+0x130>
   23d6e:	480a      	ldr	r0, [pc, #40]	@ (23d98 <_ZN20complex_dynamic_type3app17h85202b3693a54a81E+0x14c>)
   23d70:	2107      	movs	r1, #7
   23d72:	2200      	movs	r2, #0
   23d74:	4613      	mov	r3, r2
   23d76:	2c04      	cmp	r4, #4
   23d78:	d10a      	bne.n	23d90 <_ZN20complex_dynamic_type3app17h85202b3693a54a81E+0x144>
   23d7a:	df04      	svc	4
   23d7c:	b021      	add	sp, #132	@ 0x84
   23d7e:	bdf0      	pop	{r4, r5, r6, r7, pc}
   23d80:	1c68      	adds	r0, r5, #1
   23d82:	2223      	movs	r2, #35	@ 0x23
   23d84:	9902      	ldr	r1, [sp, #8]
   23d86:	f007 f9c1 	bl	2b10c <__aeabi_memcpy>
   23d8a:	702e      	strb	r6, [r5, #0]
   23d8c:	b021      	add	sp, #132	@ 0x84
   23d8e:	bdf0      	pop	{r4, r5, r6, r7, pc}
   23d90:	df03      	svc	3
   23d92:	b021      	add	sp, #132	@ 0x84
   23d94:	bdf0      	pop	{r4, r5, r6, r7, pc}
   23d96:	46c0      	nop			@ (mov r8, r8)
   23d98:	00001551 	.word	0x00001551

00023d9c <_ZN20complex_dynamic_type3app17h8c28942c007fdbfaE>:
   23d9c:	b5f0      	push	{r4, r5, r6, r7, lr}
   23d9e:	af03      	add	r7, sp, #12
   23da0:	b095      	sub	sp, #84	@ 0x54
   23da2:	9003      	str	r0, [sp, #12]
   23da4:	a804      	add	r0, sp, #16
   23da6:	2402      	movs	r4, #2
   23da8:	7004      	strb	r4, [r0, #0]
   23daa:	1c46      	adds	r6, r0, #1
   23dac:	221e      	movs	r2, #30
   23dae:	9202      	str	r2, [sp, #8]
   23db0:	4630      	mov	r0, r6
   23db2:	f007 f9ab 	bl	2b10c <__aeabi_memcpy>
   23db6:	ad0c      	add	r5, sp, #48	@ 0x30
   23db8:	1c68      	adds	r0, r5, #1
   23dba:	2121      	movs	r1, #33	@ 0x21
   23dbc:	9001      	str	r0, [sp, #4]
   23dbe:	f006 ffe5 	bl	2ad8c <__aeabi_memclr>
   23dc2:	9400      	str	r4, [sp, #0]
   23dc4:	702c      	strb	r4, [r5, #0]
   23dc6:	4848      	ldr	r0, [pc, #288]	@ (23ee8 <_ZN20complex_dynamic_type3app17h8c28942c007fdbfaE+0x14c>)
   23dc8:	2106      	movs	r1, #6
   23dca:	4632      	mov	r2, r6
   23dcc:	9b02      	ldr	r3, [sp, #8]
   23dce:	df04      	svc	4
   23dd0:	2802      	cmp	r0, #2
   23dd2:	d104      	bne.n	23dde <_ZN20complex_dynamic_type3app17h8c28942c007fdbfaE+0x42>
   23dd4:	2001      	movs	r0, #1
   23dd6:	9a03      	ldr	r2, [sp, #12]
   23dd8:	7010      	strb	r0, [r2, #0]
   23dda:	6051      	str	r1, [r2, #4]
   23ddc:	e02d      	b.n	23e3a <_ZN20complex_dynamic_type3app17h8c28942c007fdbfaE+0x9e>
   23dde:	9d03      	ldr	r5, [sp, #12]
   23de0:	a804      	add	r0, sp, #16
   23de2:	2104      	movs	r1, #4
   23de4:	7001      	strb	r1, [r0, #0]
   23de6:	4840      	ldr	r0, [pc, #256]	@ (23ee8 <_ZN20complex_dynamic_type3app17h8c28942c007fdbfaE+0x14c>)
   23de8:	2109      	movs	r1, #9
   23dea:	2321      	movs	r3, #33	@ 0x21
   23dec:	9c01      	ldr	r4, [sp, #4]
   23dee:	4622      	mov	r2, r4
   23df0:	df03      	svc	3
   23df2:	2802      	cmp	r0, #2
   23df4:	d10e      	bne.n	23e14 <_ZN20complex_dynamic_type3app17h8c28942c007fdbfaE+0x78>
   23df6:	2001      	movs	r0, #1
   23df8:	7028      	strb	r0, [r5, #0]
   23dfa:	6069      	str	r1, [r5, #4]
   23dfc:	a80c      	add	r0, sp, #48	@ 0x30
   23dfe:	7800      	ldrb	r0, [r0, #0]
   23e00:	2802      	cmp	r0, #2
   23e02:	d01a      	beq.n	23e3a <_ZN20complex_dynamic_type3app17h8c28942c007fdbfaE+0x9e>
   23e04:	2803      	cmp	r0, #3
   23e06:	d013      	beq.n	23e30 <_ZN20complex_dynamic_type3app17h8c28942c007fdbfaE+0x94>
   23e08:	4837      	ldr	r0, [pc, #220]	@ (23ee8 <_ZN20complex_dynamic_type3app17h8c28942c007fdbfaE+0x14c>)
   23e0a:	2109      	movs	r1, #9
   23e0c:	2200      	movs	r2, #0
   23e0e:	4613      	mov	r3, r2
   23e10:	df04      	svc	4
   23e12:	e012      	b.n	23e3a <_ZN20complex_dynamic_type3app17h8c28942c007fdbfaE+0x9e>
   23e14:	a80c      	add	r0, sp, #48	@ 0x30
   23e16:	2103      	movs	r1, #3
   23e18:	7001      	strb	r1, [r0, #0]
   23e1a:	4833      	ldr	r0, [pc, #204]	@ (23ee8 <_ZN20complex_dynamic_type3app17h8c28942c007fdbfaE+0x14c>)
   23e1c:	2106      	movs	r1, #6
   23e1e:	2209      	movs	r2, #9
   23e20:	2600      	movs	r6, #0
   23e22:	4633      	mov	r3, r6
   23e24:	df02      	svc	2
   23e26:	2880      	cmp	r0, #128	@ 0x80
   23e28:	d21b      	bcs.n	23e62 <_ZN20complex_dynamic_type3app17h8c28942c007fdbfaE+0xc6>
   23e2a:	2001      	movs	r0, #1
   23e2c:	7028      	strb	r0, [r5, #0]
   23e2e:	6069      	str	r1, [r5, #4]
   23e30:	482d      	ldr	r0, [pc, #180]	@ (23ee8 <_ZN20complex_dynamic_type3app17h8c28942c007fdbfaE+0x14c>)
   23e32:	2109      	movs	r1, #9
   23e34:	2200      	movs	r2, #0
   23e36:	4613      	mov	r3, r2
   23e38:	df03      	svc	3
   23e3a:	a804      	add	r0, sp, #16
   23e3c:	7800      	ldrb	r0, [r0, #0]
   23e3e:	2802      	cmp	r0, #2
   23e40:	d045      	beq.n	23ece <_ZN20complex_dynamic_type3app17h8c28942c007fdbfaE+0x132>
   23e42:	2804      	cmp	r0, #4
   23e44:	d106      	bne.n	23e54 <_ZN20complex_dynamic_type3app17h8c28942c007fdbfaE+0xb8>
   23e46:	4828      	ldr	r0, [pc, #160]	@ (23ee8 <_ZN20complex_dynamic_type3app17h8c28942c007fdbfaE+0x14c>)
   23e48:	2106      	movs	r1, #6
   23e4a:	2200      	movs	r2, #0
   23e4c:	4613      	mov	r3, r2
   23e4e:	df04      	svc	4
   23e50:	b015      	add	sp, #84	@ 0x54
   23e52:	bdf0      	pop	{r4, r5, r6, r7, pc}
   23e54:	4824      	ldr	r0, [pc, #144]	@ (23ee8 <_ZN20complex_dynamic_type3app17h8c28942c007fdbfaE+0x14c>)
   23e56:	2106      	movs	r1, #6
   23e58:	2200      	movs	r2, #0
   23e5a:	4613      	mov	r3, r2
   23e5c:	df03      	svc	3
   23e5e:	b015      	add	sp, #84	@ 0x54
   23e60:	bdf0      	pop	{r4, r5, r6, r7, pc}
   23e62:	a804      	add	r0, sp, #16
   23e64:	7800      	ldrb	r0, [r0, #0]
   23e66:	2802      	cmp	r0, #2
   23e68:	d00c      	beq.n	23e84 <_ZN20complex_dynamic_type3app17h8c28942c007fdbfaE+0xe8>
   23e6a:	2803      	cmp	r0, #3
   23e6c:	d105      	bne.n	23e7a <_ZN20complex_dynamic_type3app17h8c28942c007fdbfaE+0xde>
   23e6e:	481e      	ldr	r0, [pc, #120]	@ (23ee8 <_ZN20complex_dynamic_type3app17h8c28942c007fdbfaE+0x14c>)
   23e70:	2106      	movs	r1, #6
   23e72:	2200      	movs	r2, #0
   23e74:	4613      	mov	r3, r2
   23e76:	df03      	svc	3
   23e78:	e004      	b.n	23e84 <_ZN20complex_dynamic_type3app17h8c28942c007fdbfaE+0xe8>
   23e7a:	481b      	ldr	r0, [pc, #108]	@ (23ee8 <_ZN20complex_dynamic_type3app17h8c28942c007fdbfaE+0x14c>)
   23e7c:	2106      	movs	r1, #6
   23e7e:	2200      	movs	r2, #0
   23e80:	4613      	mov	r3, r2
   23e82:	df04      	svc	4
   23e84:	a804      	add	r0, sp, #16
   23e86:	9900      	ldr	r1, [sp, #0]
   23e88:	7001      	strb	r1, [r0, #0]
   23e8a:	a80c      	add	r0, sp, #48	@ 0x30
   23e8c:	7800      	ldrb	r0, [r0, #0]
   23e8e:	2804      	cmp	r0, #4
   23e90:	d007      	beq.n	23ea2 <_ZN20complex_dynamic_type3app17h8c28942c007fdbfaE+0x106>
   23e92:	2803      	cmp	r0, #3
   23e94:	d11d      	bne.n	23ed2 <_ZN20complex_dynamic_type3app17h8c28942c007fdbfaE+0x136>
   23e96:	4814      	ldr	r0, [pc, #80]	@ (23ee8 <_ZN20complex_dynamic_type3app17h8c28942c007fdbfaE+0x14c>)
   23e98:	2109      	movs	r1, #9
   23e9a:	2200      	movs	r2, #0
   23e9c:	4613      	mov	r3, r2
   23e9e:	df03      	svc	3
   23ea0:	e004      	b.n	23eac <_ZN20complex_dynamic_type3app17h8c28942c007fdbfaE+0x110>
   23ea2:	4811      	ldr	r0, [pc, #68]	@ (23ee8 <_ZN20complex_dynamic_type3app17h8c28942c007fdbfaE+0x14c>)
   23ea4:	2109      	movs	r1, #9
   23ea6:	2200      	movs	r2, #0
   23ea8:	4613      	mov	r3, r2
   23eaa:	df04      	svc	4
   23eac:	a804      	add	r0, sp, #16
   23eae:	7804      	ldrb	r4, [r0, #0]
   23eb0:	1c68      	adds	r0, r5, #1
   23eb2:	2221      	movs	r2, #33	@ 0x21
   23eb4:	9901      	ldr	r1, [sp, #4]
   23eb6:	f007 f929 	bl	2b10c <__aeabi_memcpy>
   23eba:	702e      	strb	r6, [r5, #0]
   23ebc:	2c02      	cmp	r4, #2
   23ebe:	d006      	beq.n	23ece <_ZN20complex_dynamic_type3app17h8c28942c007fdbfaE+0x132>
   23ec0:	4809      	ldr	r0, [pc, #36]	@ (23ee8 <_ZN20complex_dynamic_type3app17h8c28942c007fdbfaE+0x14c>)
   23ec2:	2106      	movs	r1, #6
   23ec4:	2200      	movs	r2, #0
   23ec6:	4613      	mov	r3, r2
   23ec8:	2c04      	cmp	r4, #4
   23eca:	d10a      	bne.n	23ee2 <_ZN20complex_dynamic_type3app17h8c28942c007fdbfaE+0x146>
   23ecc:	df04      	svc	4
   23ece:	b015      	add	sp, #84	@ 0x54
   23ed0:	bdf0      	pop	{r4, r5, r6, r7, pc}
   23ed2:	1c68      	adds	r0, r5, #1
   23ed4:	2221      	movs	r2, #33	@ 0x21
   23ed6:	4621      	mov	r1, r4
   23ed8:	f007 f918 	bl	2b10c <__aeabi_memcpy>
   23edc:	702e      	strb	r6, [r5, #0]
   23ede:	b015      	add	sp, #84	@ 0x54
   23ee0:	bdf0      	pop	{r4, r5, r6, r7, pc}
   23ee2:	df03      	svc	3
   23ee4:	b015      	add	sp, #84	@ 0x54
   23ee6:	bdf0      	pop	{r4, r5, r6, r7, pc}
   23ee8:	000019b5 	.word	0x000019b5

00023eec <_ZN20complex_dynamic_type3app17h8da156112548887dE>:
   23eec:	b5f0      	push	{r4, r5, r6, r7, lr}
   23eee:	af03      	add	r7, sp, #12
   23ef0:	b09f      	sub	sp, #124	@ 0x7c
   23ef2:	9004      	str	r0, [sp, #16]
   23ef4:	a805      	add	r0, sp, #20
   23ef6:	2402      	movs	r4, #2
   23ef8:	7004      	strb	r4, [r0, #0]
   23efa:	1c46      	adds	r6, r0, #1
   23efc:	2211      	movs	r2, #17
   23efe:	9203      	str	r2, [sp, #12]
   23f00:	4630      	mov	r0, r6
   23f02:	f007 f903 	bl	2b10c <__aeabi_memcpy>
   23f06:	ad0a      	add	r5, sp, #40	@ 0x28
   23f08:	1c68      	adds	r0, r5, #1
   23f0a:	2150      	movs	r1, #80	@ 0x50
   23f0c:	9002      	str	r0, [sp, #8]
   23f0e:	f006 ff3d 	bl	2ad8c <__aeabi_memclr>
   23f12:	9401      	str	r4, [sp, #4]
   23f14:	702c      	strb	r4, [r5, #0]
   23f16:	4848      	ldr	r0, [pc, #288]	@ (24038 <_ZN20complex_dynamic_type3app17h8da156112548887dE+0x14c>)
   23f18:	2106      	movs	r1, #6
   23f1a:	4632      	mov	r2, r6
   23f1c:	9b03      	ldr	r3, [sp, #12]
   23f1e:	df04      	svc	4
   23f20:	2802      	cmp	r0, #2
   23f22:	d104      	bne.n	23f2e <_ZN20complex_dynamic_type3app17h8da156112548887dE+0x42>
   23f24:	2001      	movs	r0, #1
   23f26:	9a04      	ldr	r2, [sp, #16]
   23f28:	7010      	strb	r0, [r2, #0]
   23f2a:	6051      	str	r1, [r2, #4]
   23f2c:	e02d      	b.n	23f8a <_ZN20complex_dynamic_type3app17h8da156112548887dE+0x9e>
   23f2e:	9d04      	ldr	r5, [sp, #16]
   23f30:	a805      	add	r0, sp, #20
   23f32:	2104      	movs	r1, #4
   23f34:	7001      	strb	r1, [r0, #0]
   23f36:	4840      	ldr	r0, [pc, #256]	@ (24038 <_ZN20complex_dynamic_type3app17h8da156112548887dE+0x14c>)
   23f38:	2105      	movs	r1, #5
   23f3a:	2350      	movs	r3, #80	@ 0x50
   23f3c:	9c02      	ldr	r4, [sp, #8]
   23f3e:	4622      	mov	r2, r4
   23f40:	df03      	svc	3
   23f42:	2802      	cmp	r0, #2
   23f44:	d10e      	bne.n	23f64 <_ZN20complex_dynamic_type3app17h8da156112548887dE+0x78>
   23f46:	2001      	movs	r0, #1
   23f48:	7028      	strb	r0, [r5, #0]
   23f4a:	6069      	str	r1, [r5, #4]
   23f4c:	a80a      	add	r0, sp, #40	@ 0x28
   23f4e:	7800      	ldrb	r0, [r0, #0]
   23f50:	2802      	cmp	r0, #2
   23f52:	d01a      	beq.n	23f8a <_ZN20complex_dynamic_type3app17h8da156112548887dE+0x9e>
   23f54:	2803      	cmp	r0, #3
   23f56:	d013      	beq.n	23f80 <_ZN20complex_dynamic_type3app17h8da156112548887dE+0x94>
   23f58:	4837      	ldr	r0, [pc, #220]	@ (24038 <_ZN20complex_dynamic_type3app17h8da156112548887dE+0x14c>)
   23f5a:	2105      	movs	r1, #5
   23f5c:	2200      	movs	r2, #0
   23f5e:	4613      	mov	r3, r2
   23f60:	df04      	svc	4
   23f62:	e012      	b.n	23f8a <_ZN20complex_dynamic_type3app17h8da156112548887dE+0x9e>
   23f64:	a80a      	add	r0, sp, #40	@ 0x28
   23f66:	2103      	movs	r1, #3
   23f68:	7001      	strb	r1, [r0, #0]
   23f6a:	4833      	ldr	r0, [pc, #204]	@ (24038 <_ZN20complex_dynamic_type3app17h8da156112548887dE+0x14c>)
   23f6c:	2106      	movs	r1, #6
   23f6e:	2205      	movs	r2, #5
   23f70:	2600      	movs	r6, #0
   23f72:	4633      	mov	r3, r6
   23f74:	df02      	svc	2
   23f76:	2880      	cmp	r0, #128	@ 0x80
   23f78:	d21b      	bcs.n	23fb2 <_ZN20complex_dynamic_type3app17h8da156112548887dE+0xc6>
   23f7a:	2001      	movs	r0, #1
   23f7c:	7028      	strb	r0, [r5, #0]
   23f7e:	6069      	str	r1, [r5, #4]
   23f80:	482d      	ldr	r0, [pc, #180]	@ (24038 <_ZN20complex_dynamic_type3app17h8da156112548887dE+0x14c>)
   23f82:	2105      	movs	r1, #5
   23f84:	2200      	movs	r2, #0
   23f86:	4613      	mov	r3, r2
   23f88:	df03      	svc	3
   23f8a:	a805      	add	r0, sp, #20
   23f8c:	7800      	ldrb	r0, [r0, #0]
   23f8e:	2802      	cmp	r0, #2
   23f90:	d045      	beq.n	2401e <_ZN20complex_dynamic_type3app17h8da156112548887dE+0x132>
   23f92:	2804      	cmp	r0, #4
   23f94:	d106      	bne.n	23fa4 <_ZN20complex_dynamic_type3app17h8da156112548887dE+0xb8>
   23f96:	4828      	ldr	r0, [pc, #160]	@ (24038 <_ZN20complex_dynamic_type3app17h8da156112548887dE+0x14c>)
   23f98:	2106      	movs	r1, #6
   23f9a:	2200      	movs	r2, #0
   23f9c:	4613      	mov	r3, r2
   23f9e:	df04      	svc	4
   23fa0:	b01f      	add	sp, #124	@ 0x7c
   23fa2:	bdf0      	pop	{r4, r5, r6, r7, pc}
   23fa4:	4824      	ldr	r0, [pc, #144]	@ (24038 <_ZN20complex_dynamic_type3app17h8da156112548887dE+0x14c>)
   23fa6:	2106      	movs	r1, #6
   23fa8:	2200      	movs	r2, #0
   23faa:	4613      	mov	r3, r2
   23fac:	df03      	svc	3
   23fae:	b01f      	add	sp, #124	@ 0x7c
   23fb0:	bdf0      	pop	{r4, r5, r6, r7, pc}
   23fb2:	a805      	add	r0, sp, #20
   23fb4:	7800      	ldrb	r0, [r0, #0]
   23fb6:	2802      	cmp	r0, #2
   23fb8:	d00c      	beq.n	23fd4 <_ZN20complex_dynamic_type3app17h8da156112548887dE+0xe8>
   23fba:	2803      	cmp	r0, #3
   23fbc:	d105      	bne.n	23fca <_ZN20complex_dynamic_type3app17h8da156112548887dE+0xde>
   23fbe:	481e      	ldr	r0, [pc, #120]	@ (24038 <_ZN20complex_dynamic_type3app17h8da156112548887dE+0x14c>)
   23fc0:	2106      	movs	r1, #6
   23fc2:	2200      	movs	r2, #0
   23fc4:	4613      	mov	r3, r2
   23fc6:	df03      	svc	3
   23fc8:	e004      	b.n	23fd4 <_ZN20complex_dynamic_type3app17h8da156112548887dE+0xe8>
   23fca:	481b      	ldr	r0, [pc, #108]	@ (24038 <_ZN20complex_dynamic_type3app17h8da156112548887dE+0x14c>)
   23fcc:	2106      	movs	r1, #6
   23fce:	2200      	movs	r2, #0
   23fd0:	4613      	mov	r3, r2
   23fd2:	df04      	svc	4
   23fd4:	a805      	add	r0, sp, #20
   23fd6:	9901      	ldr	r1, [sp, #4]
   23fd8:	7001      	strb	r1, [r0, #0]
   23fda:	a80a      	add	r0, sp, #40	@ 0x28
   23fdc:	7800      	ldrb	r0, [r0, #0]
   23fde:	2804      	cmp	r0, #4
   23fe0:	d007      	beq.n	23ff2 <_ZN20complex_dynamic_type3app17h8da156112548887dE+0x106>
   23fe2:	2803      	cmp	r0, #3
   23fe4:	d11d      	bne.n	24022 <_ZN20complex_dynamic_type3app17h8da156112548887dE+0x136>
   23fe6:	4814      	ldr	r0, [pc, #80]	@ (24038 <_ZN20complex_dynamic_type3app17h8da156112548887dE+0x14c>)
   23fe8:	2105      	movs	r1, #5
   23fea:	2200      	movs	r2, #0
   23fec:	4613      	mov	r3, r2
   23fee:	df03      	svc	3
   23ff0:	e004      	b.n	23ffc <_ZN20complex_dynamic_type3app17h8da156112548887dE+0x110>
   23ff2:	4811      	ldr	r0, [pc, #68]	@ (24038 <_ZN20complex_dynamic_type3app17h8da156112548887dE+0x14c>)
   23ff4:	2105      	movs	r1, #5
   23ff6:	2200      	movs	r2, #0
   23ff8:	4613      	mov	r3, r2
   23ffa:	df04      	svc	4
   23ffc:	a805      	add	r0, sp, #20
   23ffe:	7804      	ldrb	r4, [r0, #0]
   24000:	1c68      	adds	r0, r5, #1
   24002:	2250      	movs	r2, #80	@ 0x50
   24004:	9902      	ldr	r1, [sp, #8]
   24006:	f007 f881 	bl	2b10c <__aeabi_memcpy>
   2400a:	702e      	strb	r6, [r5, #0]
   2400c:	2c02      	cmp	r4, #2
   2400e:	d006      	beq.n	2401e <_ZN20complex_dynamic_type3app17h8da156112548887dE+0x132>
   24010:	4809      	ldr	r0, [pc, #36]	@ (24038 <_ZN20complex_dynamic_type3app17h8da156112548887dE+0x14c>)
   24012:	2106      	movs	r1, #6
   24014:	2200      	movs	r2, #0
   24016:	4613      	mov	r3, r2
   24018:	2c04      	cmp	r4, #4
   2401a:	d10a      	bne.n	24032 <_ZN20complex_dynamic_type3app17h8da156112548887dE+0x146>
   2401c:	df04      	svc	4
   2401e:	b01f      	add	sp, #124	@ 0x7c
   24020:	bdf0      	pop	{r4, r5, r6, r7, pc}
   24022:	1c68      	adds	r0, r5, #1
   24024:	2250      	movs	r2, #80	@ 0x50
   24026:	4621      	mov	r1, r4
   24028:	f007 f870 	bl	2b10c <__aeabi_memcpy>
   2402c:	702e      	strb	r6, [r5, #0]
   2402e:	b01f      	add	sp, #124	@ 0x7c
   24030:	bdf0      	pop	{r4, r5, r6, r7, pc}
   24032:	df03      	svc	3
   24034:	b01f      	add	sp, #124	@ 0x7c
   24036:	bdf0      	pop	{r4, r5, r6, r7, pc}
   24038:	00001aa9 	.word	0x00001aa9

0002403c <_ZN20complex_dynamic_type3app17h8e6eefdd8f282d7eE>:
   2403c:	b5f0      	push	{r4, r5, r6, r7, lr}
   2403e:	af03      	add	r7, sp, #12
   24040:	b0ad      	sub	sp, #180	@ 0xb4
   24042:	9003      	str	r0, [sp, #12]
   24044:	a804      	add	r0, sp, #16
   24046:	2602      	movs	r6, #2
   24048:	7006      	strb	r6, [r0, #0]
   2404a:	1c40      	adds	r0, r0, #1
   2404c:	9002      	str	r0, [sp, #8]
   2404e:	2551      	movs	r5, #81	@ 0x51
   24050:	462a      	mov	r2, r5
   24052:	f007 f85b 	bl	2b10c <__aeabi_memcpy>
   24056:	ac19      	add	r4, sp, #100	@ 0x64
   24058:	1c60      	adds	r0, r4, #1
   2405a:	214f      	movs	r1, #79	@ 0x4f
   2405c:	9001      	str	r0, [sp, #4]
   2405e:	f006 fe95 	bl	2ad8c <__aeabi_memclr>
   24062:	7026      	strb	r6, [r4, #0]
   24064:	4849      	ldr	r0, [pc, #292]	@ (2418c <_ZN20complex_dynamic_type3app17h8e6eefdd8f282d7eE+0x150>)
   24066:	4631      	mov	r1, r6
   24068:	9a02      	ldr	r2, [sp, #8]
   2406a:	462b      	mov	r3, r5
   2406c:	df04      	svc	4
   2406e:	2802      	cmp	r0, #2
   24070:	d104      	bne.n	2407c <_ZN20complex_dynamic_type3app17h8e6eefdd8f282d7eE+0x40>
   24072:	2001      	movs	r0, #1
   24074:	9a03      	ldr	r2, [sp, #12]
   24076:	7010      	strb	r0, [r2, #0]
   24078:	6051      	str	r1, [r2, #4]
   2407a:	e02d      	b.n	240d8 <_ZN20complex_dynamic_type3app17h8e6eefdd8f282d7eE+0x9c>
   2407c:	9d03      	ldr	r5, [sp, #12]
   2407e:	a804      	add	r0, sp, #16
   24080:	2104      	movs	r1, #4
   24082:	7001      	strb	r1, [r0, #0]
   24084:	4841      	ldr	r0, [pc, #260]	@ (2418c <_ZN20complex_dynamic_type3app17h8e6eefdd8f282d7eE+0x150>)
   24086:	234f      	movs	r3, #79	@ 0x4f
   24088:	9c01      	ldr	r4, [sp, #4]
   2408a:	4622      	mov	r2, r4
   2408c:	df03      	svc	3
   2408e:	2802      	cmp	r0, #2
   24090:	d10e      	bne.n	240b0 <_ZN20complex_dynamic_type3app17h8e6eefdd8f282d7eE+0x74>
   24092:	2001      	movs	r0, #1
   24094:	7028      	strb	r0, [r5, #0]
   24096:	6069      	str	r1, [r5, #4]
   24098:	a819      	add	r0, sp, #100	@ 0x64
   2409a:	7800      	ldrb	r0, [r0, #0]
   2409c:	2802      	cmp	r0, #2
   2409e:	d01b      	beq.n	240d8 <_ZN20complex_dynamic_type3app17h8e6eefdd8f282d7eE+0x9c>
   240a0:	2803      	cmp	r0, #3
   240a2:	d014      	beq.n	240ce <_ZN20complex_dynamic_type3app17h8e6eefdd8f282d7eE+0x92>
   240a4:	4839      	ldr	r0, [pc, #228]	@ (2418c <_ZN20complex_dynamic_type3app17h8e6eefdd8f282d7eE+0x150>)
   240a6:	2104      	movs	r1, #4
   240a8:	2200      	movs	r2, #0
   240aa:	4613      	mov	r3, r2
   240ac:	df04      	svc	4
   240ae:	e013      	b.n	240d8 <_ZN20complex_dynamic_type3app17h8e6eefdd8f282d7eE+0x9c>
   240b0:	a819      	add	r0, sp, #100	@ 0x64
   240b2:	2103      	movs	r1, #3
   240b4:	7001      	strb	r1, [r0, #0]
   240b6:	4835      	ldr	r0, [pc, #212]	@ (2418c <_ZN20complex_dynamic_type3app17h8e6eefdd8f282d7eE+0x150>)
   240b8:	2602      	movs	r6, #2
   240ba:	2204      	movs	r2, #4
   240bc:	2300      	movs	r3, #0
   240be:	4631      	mov	r1, r6
   240c0:	9302      	str	r3, [sp, #8]
   240c2:	df02      	svc	2
   240c4:	2880      	cmp	r0, #128	@ 0x80
   240c6:	d21b      	bcs.n	24100 <_ZN20complex_dynamic_type3app17h8e6eefdd8f282d7eE+0xc4>
   240c8:	2001      	movs	r0, #1
   240ca:	7028      	strb	r0, [r5, #0]
   240cc:	6069      	str	r1, [r5, #4]
   240ce:	482f      	ldr	r0, [pc, #188]	@ (2418c <_ZN20complex_dynamic_type3app17h8e6eefdd8f282d7eE+0x150>)
   240d0:	2104      	movs	r1, #4
   240d2:	2200      	movs	r2, #0
   240d4:	4613      	mov	r3, r2
   240d6:	df03      	svc	3
   240d8:	a804      	add	r0, sp, #16
   240da:	7800      	ldrb	r0, [r0, #0]
   240dc:	2802      	cmp	r0, #2
   240de:	d047      	beq.n	24170 <_ZN20complex_dynamic_type3app17h8e6eefdd8f282d7eE+0x134>
   240e0:	2804      	cmp	r0, #4
   240e2:	d106      	bne.n	240f2 <_ZN20complex_dynamic_type3app17h8e6eefdd8f282d7eE+0xb6>
   240e4:	4829      	ldr	r0, [pc, #164]	@ (2418c <_ZN20complex_dynamic_type3app17h8e6eefdd8f282d7eE+0x150>)
   240e6:	2102      	movs	r1, #2
   240e8:	2200      	movs	r2, #0
   240ea:	4613      	mov	r3, r2
   240ec:	df04      	svc	4
   240ee:	b02d      	add	sp, #180	@ 0xb4
   240f0:	bdf0      	pop	{r4, r5, r6, r7, pc}
   240f2:	4826      	ldr	r0, [pc, #152]	@ (2418c <_ZN20complex_dynamic_type3app17h8e6eefdd8f282d7eE+0x150>)
   240f4:	2102      	movs	r1, #2
   240f6:	2200      	movs	r2, #0
   240f8:	4613      	mov	r3, r2
   240fa:	df03      	svc	3
   240fc:	b02d      	add	sp, #180	@ 0xb4
   240fe:	bdf0      	pop	{r4, r5, r6, r7, pc}
   24100:	a804      	add	r0, sp, #16
   24102:	7800      	ldrb	r0, [r0, #0]
   24104:	2802      	cmp	r0, #2
   24106:	d00c      	beq.n	24122 <_ZN20complex_dynamic_type3app17h8e6eefdd8f282d7eE+0xe6>
   24108:	2803      	cmp	r0, #3
   2410a:	d105      	bne.n	24118 <_ZN20complex_dynamic_type3app17h8e6eefdd8f282d7eE+0xdc>
   2410c:	481f      	ldr	r0, [pc, #124]	@ (2418c <_ZN20complex_dynamic_type3app17h8e6eefdd8f282d7eE+0x150>)
   2410e:	2102      	movs	r1, #2
   24110:	2200      	movs	r2, #0
   24112:	4613      	mov	r3, r2
   24114:	df03      	svc	3
   24116:	e004      	b.n	24122 <_ZN20complex_dynamic_type3app17h8e6eefdd8f282d7eE+0xe6>
   24118:	481c      	ldr	r0, [pc, #112]	@ (2418c <_ZN20complex_dynamic_type3app17h8e6eefdd8f282d7eE+0x150>)
   2411a:	2102      	movs	r1, #2
   2411c:	2200      	movs	r2, #0
   2411e:	4613      	mov	r3, r2
   24120:	df04      	svc	4
   24122:	a804      	add	r0, sp, #16
   24124:	7006      	strb	r6, [r0, #0]
   24126:	a819      	add	r0, sp, #100	@ 0x64
   24128:	7800      	ldrb	r0, [r0, #0]
   2412a:	2804      	cmp	r0, #4
   2412c:	d008      	beq.n	24140 <_ZN20complex_dynamic_type3app17h8e6eefdd8f282d7eE+0x104>
   2412e:	2803      	cmp	r0, #3
   24130:	d120      	bne.n	24174 <_ZN20complex_dynamic_type3app17h8e6eefdd8f282d7eE+0x138>
   24132:	4626      	mov	r6, r4
   24134:	4815      	ldr	r0, [pc, #84]	@ (2418c <_ZN20complex_dynamic_type3app17h8e6eefdd8f282d7eE+0x150>)
   24136:	2104      	movs	r1, #4
   24138:	2200      	movs	r2, #0
   2413a:	4613      	mov	r3, r2
   2413c:	df03      	svc	3
   2413e:	e005      	b.n	2414c <_ZN20complex_dynamic_type3app17h8e6eefdd8f282d7eE+0x110>
   24140:	4626      	mov	r6, r4
   24142:	4812      	ldr	r0, [pc, #72]	@ (2418c <_ZN20complex_dynamic_type3app17h8e6eefdd8f282d7eE+0x150>)
   24144:	2104      	movs	r1, #4
   24146:	2200      	movs	r2, #0
   24148:	4613      	mov	r3, r2
   2414a:	df04      	svc	4
   2414c:	a804      	add	r0, sp, #16
   2414e:	7804      	ldrb	r4, [r0, #0]
   24150:	1c68      	adds	r0, r5, #1
   24152:	224f      	movs	r2, #79	@ 0x4f
   24154:	4631      	mov	r1, r6
   24156:	f006 ffd9 	bl	2b10c <__aeabi_memcpy>
   2415a:	9802      	ldr	r0, [sp, #8]
   2415c:	7028      	strb	r0, [r5, #0]
   2415e:	2c02      	cmp	r4, #2
   24160:	d006      	beq.n	24170 <_ZN20complex_dynamic_type3app17h8e6eefdd8f282d7eE+0x134>
   24162:	480a      	ldr	r0, [pc, #40]	@ (2418c <_ZN20complex_dynamic_type3app17h8e6eefdd8f282d7eE+0x150>)
   24164:	2102      	movs	r1, #2
   24166:	2200      	movs	r2, #0
   24168:	4613      	mov	r3, r2
   2416a:	2c04      	cmp	r4, #4
   2416c:	d10b      	bne.n	24186 <_ZN20complex_dynamic_type3app17h8e6eefdd8f282d7eE+0x14a>
   2416e:	df04      	svc	4
   24170:	b02d      	add	sp, #180	@ 0xb4
   24172:	bdf0      	pop	{r4, r5, r6, r7, pc}
   24174:	1c68      	adds	r0, r5, #1
   24176:	224f      	movs	r2, #79	@ 0x4f
   24178:	4621      	mov	r1, r4
   2417a:	f006 ffc7 	bl	2b10c <__aeabi_memcpy>
   2417e:	9802      	ldr	r0, [sp, #8]
   24180:	7028      	strb	r0, [r5, #0]
   24182:	b02d      	add	sp, #180	@ 0xb4
   24184:	bdf0      	pop	{r4, r5, r6, r7, pc}
   24186:	df03      	svc	3
   24188:	b02d      	add	sp, #180	@ 0xb4
   2418a:	bdf0      	pop	{r4, r5, r6, r7, pc}
   2418c:	00000e16 	.word	0x00000e16

00024190 <_ZN20complex_dynamic_type3app17h9140df4b4371a156E>:
   24190:	b5f0      	push	{r4, r5, r6, r7, lr}
   24192:	af03      	add	r7, sp, #12
   24194:	b09b      	sub	sp, #108	@ 0x6c
   24196:	9004      	str	r0, [sp, #16]
   24198:	a805      	add	r0, sp, #20
   2419a:	2402      	movs	r4, #2
   2419c:	7004      	strb	r4, [r0, #0]
   2419e:	1c40      	adds	r0, r0, #1
   241a0:	9003      	str	r0, [sp, #12]
   241a2:	252c      	movs	r5, #44	@ 0x2c
   241a4:	462a      	mov	r2, r5
   241a6:	f006 ffb1 	bl	2b10c <__aeabi_memcpy>
   241aa:	ae11      	add	r6, sp, #68	@ 0x44
   241ac:	1c70      	adds	r0, r6, #1
   241ae:	2125      	movs	r1, #37	@ 0x25
   241b0:	9002      	str	r0, [sp, #8]
   241b2:	f006 fdeb 	bl	2ad8c <__aeabi_memclr>
   241b6:	9401      	str	r4, [sp, #4]
   241b8:	7034      	strb	r4, [r6, #0]
   241ba:	484a      	ldr	r0, [pc, #296]	@ (242e4 <_ZN20complex_dynamic_type3app17h9140df4b4371a156E+0x154>)
   241bc:	2603      	movs	r6, #3
   241be:	4631      	mov	r1, r6
   241c0:	9a03      	ldr	r2, [sp, #12]
   241c2:	462b      	mov	r3, r5
   241c4:	df04      	svc	4
   241c6:	2802      	cmp	r0, #2
   241c8:	d104      	bne.n	241d4 <_ZN20complex_dynamic_type3app17h9140df4b4371a156E+0x44>
   241ca:	2001      	movs	r0, #1
   241cc:	9a04      	ldr	r2, [sp, #16]
   241ce:	7010      	strb	r0, [r2, #0]
   241d0:	6051      	str	r1, [r2, #4]
   241d2:	e02c      	b.n	2422e <_ZN20complex_dynamic_type3app17h9140df4b4371a156E+0x9e>
   241d4:	9d04      	ldr	r5, [sp, #16]
   241d6:	a805      	add	r0, sp, #20
   241d8:	2104      	movs	r1, #4
   241da:	7001      	strb	r1, [r0, #0]
   241dc:	4841      	ldr	r0, [pc, #260]	@ (242e4 <_ZN20complex_dynamic_type3app17h9140df4b4371a156E+0x154>)
   241de:	2100      	movs	r1, #0
   241e0:	2325      	movs	r3, #37	@ 0x25
   241e2:	9c02      	ldr	r4, [sp, #8]
   241e4:	4622      	mov	r2, r4
   241e6:	df03      	svc	3
   241e8:	2802      	cmp	r0, #2
   241ea:	d10e      	bne.n	2420a <_ZN20complex_dynamic_type3app17h9140df4b4371a156E+0x7a>
   241ec:	2001      	movs	r0, #1
   241ee:	7028      	strb	r0, [r5, #0]
   241f0:	6069      	str	r1, [r5, #4]
   241f2:	a811      	add	r0, sp, #68	@ 0x44
   241f4:	7800      	ldrb	r0, [r0, #0]
   241f6:	2802      	cmp	r0, #2
   241f8:	d019      	beq.n	2422e <_ZN20complex_dynamic_type3app17h9140df4b4371a156E+0x9e>
   241fa:	2803      	cmp	r0, #3
   241fc:	d012      	beq.n	24224 <_ZN20complex_dynamic_type3app17h9140df4b4371a156E+0x94>
   241fe:	4839      	ldr	r0, [pc, #228]	@ (242e4 <_ZN20complex_dynamic_type3app17h9140df4b4371a156E+0x154>)
   24200:	2100      	movs	r1, #0
   24202:	460a      	mov	r2, r1
   24204:	460b      	mov	r3, r1
   24206:	df04      	svc	4
   24208:	e011      	b.n	2422e <_ZN20complex_dynamic_type3app17h9140df4b4371a156E+0x9e>
   2420a:	a811      	add	r0, sp, #68	@ 0x44
   2420c:	7006      	strb	r6, [r0, #0]
   2420e:	4835      	ldr	r0, [pc, #212]	@ (242e4 <_ZN20complex_dynamic_type3app17h9140df4b4371a156E+0x154>)
   24210:	2200      	movs	r2, #0
   24212:	4631      	mov	r1, r6
   24214:	9203      	str	r2, [sp, #12]
   24216:	4613      	mov	r3, r2
   24218:	df02      	svc	2
   2421a:	2880      	cmp	r0, #128	@ 0x80
   2421c:	d21b      	bcs.n	24256 <_ZN20complex_dynamic_type3app17h9140df4b4371a156E+0xc6>
   2421e:	2001      	movs	r0, #1
   24220:	7028      	strb	r0, [r5, #0]
   24222:	6069      	str	r1, [r5, #4]
   24224:	482f      	ldr	r0, [pc, #188]	@ (242e4 <_ZN20complex_dynamic_type3app17h9140df4b4371a156E+0x154>)
   24226:	2100      	movs	r1, #0
   24228:	460a      	mov	r2, r1
   2422a:	460b      	mov	r3, r1
   2422c:	df03      	svc	3
   2422e:	a805      	add	r0, sp, #20
   24230:	7800      	ldrb	r0, [r0, #0]
   24232:	2802      	cmp	r0, #2
   24234:	d048      	beq.n	242c8 <_ZN20complex_dynamic_type3app17h9140df4b4371a156E+0x138>
   24236:	2804      	cmp	r0, #4
   24238:	d106      	bne.n	24248 <_ZN20complex_dynamic_type3app17h9140df4b4371a156E+0xb8>
   2423a:	482a      	ldr	r0, [pc, #168]	@ (242e4 <_ZN20complex_dynamic_type3app17h9140df4b4371a156E+0x154>)
   2423c:	2103      	movs	r1, #3
   2423e:	2200      	movs	r2, #0
   24240:	4613      	mov	r3, r2
   24242:	df04      	svc	4
   24244:	b01b      	add	sp, #108	@ 0x6c
   24246:	bdf0      	pop	{r4, r5, r6, r7, pc}
   24248:	4826      	ldr	r0, [pc, #152]	@ (242e4 <_ZN20complex_dynamic_type3app17h9140df4b4371a156E+0x154>)
   2424a:	2103      	movs	r1, #3
   2424c:	2200      	movs	r2, #0
   2424e:	4613      	mov	r3, r2
   24250:	df03      	svc	3
   24252:	b01b      	add	sp, #108	@ 0x6c
   24254:	bdf0      	pop	{r4, r5, r6, r7, pc}
   24256:	a805      	add	r0, sp, #20
   24258:	7800      	ldrb	r0, [r0, #0]
   2425a:	2802      	cmp	r0, #2
   2425c:	d00c      	beq.n	24278 <_ZN20complex_dynamic_type3app17h9140df4b4371a156E+0xe8>
   2425e:	2803      	cmp	r0, #3
   24260:	d105      	bne.n	2426e <_ZN20complex_dynamic_type3app17h9140df4b4371a156E+0xde>
   24262:	4820      	ldr	r0, [pc, #128]	@ (242e4 <_ZN20complex_dynamic_type3app17h9140df4b4371a156E+0x154>)
   24264:	2103      	movs	r1, #3
   24266:	2200      	movs	r2, #0
   24268:	4613      	mov	r3, r2
   2426a:	df03      	svc	3
   2426c:	e004      	b.n	24278 <_ZN20complex_dynamic_type3app17h9140df4b4371a156E+0xe8>
   2426e:	481d      	ldr	r0, [pc, #116]	@ (242e4 <_ZN20complex_dynamic_type3app17h9140df4b4371a156E+0x154>)
   24270:	2103      	movs	r1, #3
   24272:	2200      	movs	r2, #0
   24274:	4613      	mov	r3, r2
   24276:	df04      	svc	4
   24278:	a805      	add	r0, sp, #20
   2427a:	9901      	ldr	r1, [sp, #4]
   2427c:	7001      	strb	r1, [r0, #0]
   2427e:	a811      	add	r0, sp, #68	@ 0x44
   24280:	7800      	ldrb	r0, [r0, #0]
   24282:	2804      	cmp	r0, #4
   24284:	d008      	beq.n	24298 <_ZN20complex_dynamic_type3app17h9140df4b4371a156E+0x108>
   24286:	2803      	cmp	r0, #3
   24288:	d120      	bne.n	242cc <_ZN20complex_dynamic_type3app17h9140df4b4371a156E+0x13c>
   2428a:	4626      	mov	r6, r4
   2428c:	4815      	ldr	r0, [pc, #84]	@ (242e4 <_ZN20complex_dynamic_type3app17h9140df4b4371a156E+0x154>)
   2428e:	2100      	movs	r1, #0
   24290:	460a      	mov	r2, r1
   24292:	460b      	mov	r3, r1
   24294:	df03      	svc	3
   24296:	e005      	b.n	242a4 <_ZN20complex_dynamic_type3app17h9140df4b4371a156E+0x114>
   24298:	4626      	mov	r6, r4
   2429a:	4812      	ldr	r0, [pc, #72]	@ (242e4 <_ZN20complex_dynamic_type3app17h9140df4b4371a156E+0x154>)
   2429c:	2100      	movs	r1, #0
   2429e:	460a      	mov	r2, r1
   242a0:	460b      	mov	r3, r1
   242a2:	df04      	svc	4
   242a4:	a805      	add	r0, sp, #20
   242a6:	7804      	ldrb	r4, [r0, #0]
   242a8:	1c68      	adds	r0, r5, #1
   242aa:	2225      	movs	r2, #37	@ 0x25
   242ac:	4631      	mov	r1, r6
   242ae:	f006 ff2d 	bl	2b10c <__aeabi_memcpy>
   242b2:	9803      	ldr	r0, [sp, #12]
   242b4:	7028      	strb	r0, [r5, #0]
   242b6:	2c02      	cmp	r4, #2
   242b8:	d006      	beq.n	242c8 <_ZN20complex_dynamic_type3app17h9140df4b4371a156E+0x138>
   242ba:	480a      	ldr	r0, [pc, #40]	@ (242e4 <_ZN20complex_dynamic_type3app17h9140df4b4371a156E+0x154>)
   242bc:	2103      	movs	r1, #3
   242be:	2200      	movs	r2, #0
   242c0:	4613      	mov	r3, r2
   242c2:	2c04      	cmp	r4, #4
   242c4:	d10b      	bne.n	242de <_ZN20complex_dynamic_type3app17h9140df4b4371a156E+0x14e>
   242c6:	df04      	svc	4
   242c8:	b01b      	add	sp, #108	@ 0x6c
   242ca:	bdf0      	pop	{r4, r5, r6, r7, pc}
   242cc:	1c68      	adds	r0, r5, #1
   242ce:	2225      	movs	r2, #37	@ 0x25
   242d0:	4621      	mov	r1, r4
   242d2:	f006 ff1b 	bl	2b10c <__aeabi_memcpy>
   242d6:	9803      	ldr	r0, [sp, #12]
   242d8:	7028      	strb	r0, [r5, #0]
   242da:	b01b      	add	sp, #108	@ 0x6c
   242dc:	bdf0      	pop	{r4, r5, r6, r7, pc}
   242de:	df03      	svc	3
   242e0:	b01b      	add	sp, #108	@ 0x6c
   242e2:	bdf0      	pop	{r4, r5, r6, r7, pc}
   242e4:	0000077f 	.word	0x0000077f

000242e8 <_ZN20complex_dynamic_type3app17h95087799bef13b8dE>:
   242e8:	b5f0      	push	{r4, r5, r6, r7, lr}
   242ea:	af03      	add	r7, sp, #12
   242ec:	b09d      	sub	sp, #116	@ 0x74
   242ee:	9003      	str	r0, [sp, #12]
   242f0:	a804      	add	r0, sp, #16
   242f2:	2402      	movs	r4, #2
   242f4:	7004      	strb	r4, [r0, #0]
   242f6:	1c46      	adds	r6, r0, #1
   242f8:	2251      	movs	r2, #81	@ 0x51
   242fa:	9202      	str	r2, [sp, #8]
   242fc:	4630      	mov	r0, r6
   242fe:	f006 ff05 	bl	2b10c <__aeabi_memcpy>
   24302:	ad19      	add	r5, sp, #100	@ 0x64
   24304:	1c68      	adds	r0, r5, #1
   24306:	210f      	movs	r1, #15
   24308:	9001      	str	r0, [sp, #4]
   2430a:	f006 fd3f 	bl	2ad8c <__aeabi_memclr>
   2430e:	9400      	str	r4, [sp, #0]
   24310:	702c      	strb	r4, [r5, #0]
   24312:	4848      	ldr	r0, [pc, #288]	@ (24434 <_ZN20complex_dynamic_type3app17h95087799bef13b8dE+0x14c>)
   24314:	2100      	movs	r1, #0
   24316:	4632      	mov	r2, r6
   24318:	9b02      	ldr	r3, [sp, #8]
   2431a:	df04      	svc	4
   2431c:	2802      	cmp	r0, #2
   2431e:	d104      	bne.n	2432a <_ZN20complex_dynamic_type3app17h95087799bef13b8dE+0x42>
   24320:	2001      	movs	r0, #1
   24322:	9a03      	ldr	r2, [sp, #12]
   24324:	7010      	strb	r0, [r2, #0]
   24326:	6051      	str	r1, [r2, #4]
   24328:	e02c      	b.n	24384 <_ZN20complex_dynamic_type3app17h95087799bef13b8dE+0x9c>
   2432a:	9d03      	ldr	r5, [sp, #12]
   2432c:	a804      	add	r0, sp, #16
   2432e:	2104      	movs	r1, #4
   24330:	7001      	strb	r1, [r0, #0]
   24332:	4840      	ldr	r0, [pc, #256]	@ (24434 <_ZN20complex_dynamic_type3app17h95087799bef13b8dE+0x14c>)
   24334:	2403      	movs	r4, #3
   24336:	230f      	movs	r3, #15
   24338:	4621      	mov	r1, r4
   2433a:	9a01      	ldr	r2, [sp, #4]
   2433c:	df03      	svc	3
   2433e:	2802      	cmp	r0, #2
   24340:	d10e      	bne.n	24360 <_ZN20complex_dynamic_type3app17h95087799bef13b8dE+0x78>
   24342:	2001      	movs	r0, #1
   24344:	7028      	strb	r0, [r5, #0]
   24346:	6069      	str	r1, [r5, #4]
   24348:	a819      	add	r0, sp, #100	@ 0x64
   2434a:	7800      	ldrb	r0, [r0, #0]
   2434c:	2802      	cmp	r0, #2
   2434e:	d019      	beq.n	24384 <_ZN20complex_dynamic_type3app17h95087799bef13b8dE+0x9c>
   24350:	2803      	cmp	r0, #3
   24352:	d012      	beq.n	2437a <_ZN20complex_dynamic_type3app17h95087799bef13b8dE+0x92>
   24354:	4837      	ldr	r0, [pc, #220]	@ (24434 <_ZN20complex_dynamic_type3app17h95087799bef13b8dE+0x14c>)
   24356:	2103      	movs	r1, #3
   24358:	2200      	movs	r2, #0
   2435a:	4613      	mov	r3, r2
   2435c:	df04      	svc	4
   2435e:	e011      	b.n	24384 <_ZN20complex_dynamic_type3app17h95087799bef13b8dE+0x9c>
   24360:	a819      	add	r0, sp, #100	@ 0x64
   24362:	7004      	strb	r4, [r0, #0]
   24364:	4833      	ldr	r0, [pc, #204]	@ (24434 <_ZN20complex_dynamic_type3app17h95087799bef13b8dE+0x14c>)
   24366:	2600      	movs	r6, #0
   24368:	4631      	mov	r1, r6
   2436a:	4622      	mov	r2, r4
   2436c:	4633      	mov	r3, r6
   2436e:	df02      	svc	2
   24370:	2880      	cmp	r0, #128	@ 0x80
   24372:	d21b      	bcs.n	243ac <_ZN20complex_dynamic_type3app17h95087799bef13b8dE+0xc4>
   24374:	2001      	movs	r0, #1
   24376:	7028      	strb	r0, [r5, #0]
   24378:	6069      	str	r1, [r5, #4]
   2437a:	482e      	ldr	r0, [pc, #184]	@ (24434 <_ZN20complex_dynamic_type3app17h95087799bef13b8dE+0x14c>)
   2437c:	2103      	movs	r1, #3
   2437e:	2200      	movs	r2, #0
   24380:	4613      	mov	r3, r2
   24382:	df03      	svc	3
   24384:	a804      	add	r0, sp, #16
   24386:	7800      	ldrb	r0, [r0, #0]
   24388:	2802      	cmp	r0, #2
   2438a:	d045      	beq.n	24418 <_ZN20complex_dynamic_type3app17h95087799bef13b8dE+0x130>
   2438c:	2804      	cmp	r0, #4
   2438e:	d106      	bne.n	2439e <_ZN20complex_dynamic_type3app17h95087799bef13b8dE+0xb6>
   24390:	4828      	ldr	r0, [pc, #160]	@ (24434 <_ZN20complex_dynamic_type3app17h95087799bef13b8dE+0x14c>)
   24392:	2100      	movs	r1, #0
   24394:	460a      	mov	r2, r1
   24396:	460b      	mov	r3, r1
   24398:	df04      	svc	4
   2439a:	b01d      	add	sp, #116	@ 0x74
   2439c:	bdf0      	pop	{r4, r5, r6, r7, pc}
   2439e:	4825      	ldr	r0, [pc, #148]	@ (24434 <_ZN20complex_dynamic_type3app17h95087799bef13b8dE+0x14c>)
   243a0:	2100      	movs	r1, #0
   243a2:	460a      	mov	r2, r1
   243a4:	460b      	mov	r3, r1
   243a6:	df03      	svc	3
   243a8:	b01d      	add	sp, #116	@ 0x74
   243aa:	bdf0      	pop	{r4, r5, r6, r7, pc}
   243ac:	a804      	add	r0, sp, #16
   243ae:	7800      	ldrb	r0, [r0, #0]
   243b0:	2802      	cmp	r0, #2
   243b2:	d00c      	beq.n	243ce <_ZN20complex_dynamic_type3app17h95087799bef13b8dE+0xe6>
   243b4:	2803      	cmp	r0, #3
   243b6:	d105      	bne.n	243c4 <_ZN20complex_dynamic_type3app17h95087799bef13b8dE+0xdc>
   243b8:	481e      	ldr	r0, [pc, #120]	@ (24434 <_ZN20complex_dynamic_type3app17h95087799bef13b8dE+0x14c>)
   243ba:	2100      	movs	r1, #0
   243bc:	460a      	mov	r2, r1
   243be:	460b      	mov	r3, r1
   243c0:	df03      	svc	3
   243c2:	e004      	b.n	243ce <_ZN20complex_dynamic_type3app17h95087799bef13b8dE+0xe6>
   243c4:	481b      	ldr	r0, [pc, #108]	@ (24434 <_ZN20complex_dynamic_type3app17h95087799bef13b8dE+0x14c>)
   243c6:	2100      	movs	r1, #0
   243c8:	460a      	mov	r2, r1
   243ca:	460b      	mov	r3, r1
   243cc:	df04      	svc	4
   243ce:	a804      	add	r0, sp, #16
   243d0:	9900      	ldr	r1, [sp, #0]
   243d2:	7001      	strb	r1, [r0, #0]
   243d4:	a819      	add	r0, sp, #100	@ 0x64
   243d6:	7800      	ldrb	r0, [r0, #0]
   243d8:	2804      	cmp	r0, #4
   243da:	d007      	beq.n	243ec <_ZN20complex_dynamic_type3app17h95087799bef13b8dE+0x104>
   243dc:	2803      	cmp	r0, #3
   243de:	d11d      	bne.n	2441c <_ZN20complex_dynamic_type3app17h95087799bef13b8dE+0x134>
   243e0:	4814      	ldr	r0, [pc, #80]	@ (24434 <_ZN20complex_dynamic_type3app17h95087799bef13b8dE+0x14c>)
   243e2:	2103      	movs	r1, #3
   243e4:	2200      	movs	r2, #0
   243e6:	4613      	mov	r3, r2
   243e8:	df03      	svc	3
   243ea:	e004      	b.n	243f6 <_ZN20complex_dynamic_type3app17h95087799bef13b8dE+0x10e>
   243ec:	4811      	ldr	r0, [pc, #68]	@ (24434 <_ZN20complex_dynamic_type3app17h95087799bef13b8dE+0x14c>)
   243ee:	2103      	movs	r1, #3
   243f0:	2200      	movs	r2, #0
   243f2:	4613      	mov	r3, r2
   243f4:	df04      	svc	4
   243f6:	a804      	add	r0, sp, #16
   243f8:	7804      	ldrb	r4, [r0, #0]
   243fa:	1c68      	adds	r0, r5, #1
   243fc:	220f      	movs	r2, #15
   243fe:	9901      	ldr	r1, [sp, #4]
   24400:	f006 fe84 	bl	2b10c <__aeabi_memcpy>
   24404:	702e      	strb	r6, [r5, #0]
   24406:	2c02      	cmp	r4, #2
   24408:	d006      	beq.n	24418 <_ZN20complex_dynamic_type3app17h95087799bef13b8dE+0x130>
   2440a:	480a      	ldr	r0, [pc, #40]	@ (24434 <_ZN20complex_dynamic_type3app17h95087799bef13b8dE+0x14c>)
   2440c:	2100      	movs	r1, #0
   2440e:	460a      	mov	r2, r1
   24410:	460b      	mov	r3, r1
   24412:	2c04      	cmp	r4, #4
   24414:	d10a      	bne.n	2442c <_ZN20complex_dynamic_type3app17h95087799bef13b8dE+0x144>
   24416:	df04      	svc	4
   24418:	b01d      	add	sp, #116	@ 0x74
   2441a:	bdf0      	pop	{r4, r5, r6, r7, pc}
   2441c:	1c68      	adds	r0, r5, #1
   2441e:	220f      	movs	r2, #15
   24420:	9901      	ldr	r1, [sp, #4]
   24422:	f006 fe73 	bl	2b10c <__aeabi_memcpy>
   24426:	702e      	strb	r6, [r5, #0]
   24428:	b01d      	add	sp, #116	@ 0x74
   2442a:	bdf0      	pop	{r4, r5, r6, r7, pc}
   2442c:	df03      	svc	3
   2442e:	b01d      	add	sp, #116	@ 0x74
   24430:	bdf0      	pop	{r4, r5, r6, r7, pc}
   24432:	46c0      	nop			@ (mov r8, r8)
   24434:	000013bf 	.word	0x000013bf

00024438 <_ZN20complex_dynamic_type3app17h981f192463430db8E>:
   24438:	b5f0      	push	{r4, r5, r6, r7, lr}
   2443a:	af03      	add	r7, sp, #12
   2443c:	b093      	sub	sp, #76	@ 0x4c
   2443e:	9003      	str	r0, [sp, #12]
   24440:	a804      	add	r0, sp, #16
   24442:	2402      	movs	r4, #2
   24444:	7004      	strb	r4, [r0, #0]
   24446:	1c46      	adds	r6, r0, #1
   24448:	222b      	movs	r2, #43	@ 0x2b
   2444a:	9202      	str	r2, [sp, #8]
   2444c:	4630      	mov	r0, r6
   2444e:	f006 fe5d 	bl	2b10c <__aeabi_memcpy>
   24452:	ad0f      	add	r5, sp, #60	@ 0x3c
   24454:	1c68      	adds	r0, r5, #1
   24456:	210d      	movs	r1, #13
   24458:	9001      	str	r0, [sp, #4]
   2445a:	f006 fc97 	bl	2ad8c <__aeabi_memclr>
   2445e:	9400      	str	r4, [sp, #0]
   24460:	702c      	strb	r4, [r5, #0]
   24462:	4848      	ldr	r0, [pc, #288]	@ (24584 <_ZN20complex_dynamic_type3app17h981f192463430db8E+0x14c>)
   24464:	2106      	movs	r1, #6
   24466:	4632      	mov	r2, r6
   24468:	9b02      	ldr	r3, [sp, #8]
   2446a:	df04      	svc	4
   2446c:	2802      	cmp	r0, #2
   2446e:	d104      	bne.n	2447a <_ZN20complex_dynamic_type3app17h981f192463430db8E+0x42>
   24470:	2001      	movs	r0, #1
   24472:	9a03      	ldr	r2, [sp, #12]
   24474:	7010      	strb	r0, [r2, #0]
   24476:	6051      	str	r1, [r2, #4]
   24478:	e02d      	b.n	244d6 <_ZN20complex_dynamic_type3app17h981f192463430db8E+0x9e>
   2447a:	9d03      	ldr	r5, [sp, #12]
   2447c:	a804      	add	r0, sp, #16
   2447e:	2104      	movs	r1, #4
   24480:	7001      	strb	r1, [r0, #0]
   24482:	4840      	ldr	r0, [pc, #256]	@ (24584 <_ZN20complex_dynamic_type3app17h981f192463430db8E+0x14c>)
   24484:	2100      	movs	r1, #0
   24486:	230d      	movs	r3, #13
   24488:	9c01      	ldr	r4, [sp, #4]
   2448a:	4622      	mov	r2, r4
   2448c:	df03      	svc	3
   2448e:	2802      	cmp	r0, #2
   24490:	d10e      	bne.n	244b0 <_ZN20complex_dynamic_type3app17h981f192463430db8E+0x78>
   24492:	2001      	movs	r0, #1
   24494:	7028      	strb	r0, [r5, #0]
   24496:	6069      	str	r1, [r5, #4]
   24498:	a80f      	add	r0, sp, #60	@ 0x3c
   2449a:	7800      	ldrb	r0, [r0, #0]
   2449c:	2802      	cmp	r0, #2
   2449e:	d01a      	beq.n	244d6 <_ZN20complex_dynamic_type3app17h981f192463430db8E+0x9e>
   244a0:	2803      	cmp	r0, #3
   244a2:	d013      	beq.n	244cc <_ZN20complex_dynamic_type3app17h981f192463430db8E+0x94>
   244a4:	4837      	ldr	r0, [pc, #220]	@ (24584 <_ZN20complex_dynamic_type3app17h981f192463430db8E+0x14c>)
   244a6:	2100      	movs	r1, #0
   244a8:	460a      	mov	r2, r1
   244aa:	460b      	mov	r3, r1
   244ac:	df04      	svc	4
   244ae:	e012      	b.n	244d6 <_ZN20complex_dynamic_type3app17h981f192463430db8E+0x9e>
   244b0:	a80f      	add	r0, sp, #60	@ 0x3c
   244b2:	2103      	movs	r1, #3
   244b4:	7001      	strb	r1, [r0, #0]
   244b6:	4833      	ldr	r0, [pc, #204]	@ (24584 <_ZN20complex_dynamic_type3app17h981f192463430db8E+0x14c>)
   244b8:	2106      	movs	r1, #6
   244ba:	2600      	movs	r6, #0
   244bc:	4632      	mov	r2, r6
   244be:	4633      	mov	r3, r6
   244c0:	df02      	svc	2
   244c2:	2880      	cmp	r0, #128	@ 0x80
   244c4:	d21b      	bcs.n	244fe <_ZN20complex_dynamic_type3app17h981f192463430db8E+0xc6>
   244c6:	2001      	movs	r0, #1
   244c8:	7028      	strb	r0, [r5, #0]
   244ca:	6069      	str	r1, [r5, #4]
   244cc:	482d      	ldr	r0, [pc, #180]	@ (24584 <_ZN20complex_dynamic_type3app17h981f192463430db8E+0x14c>)
   244ce:	2100      	movs	r1, #0
   244d0:	460a      	mov	r2, r1
   244d2:	460b      	mov	r3, r1
   244d4:	df03      	svc	3
   244d6:	a804      	add	r0, sp, #16
   244d8:	7800      	ldrb	r0, [r0, #0]
   244da:	2802      	cmp	r0, #2
   244dc:	d045      	beq.n	2456a <_ZN20complex_dynamic_type3app17h981f192463430db8E+0x132>
   244de:	2804      	cmp	r0, #4
   244e0:	d106      	bne.n	244f0 <_ZN20complex_dynamic_type3app17h981f192463430db8E+0xb8>
   244e2:	4828      	ldr	r0, [pc, #160]	@ (24584 <_ZN20complex_dynamic_type3app17h981f192463430db8E+0x14c>)
   244e4:	2106      	movs	r1, #6
   244e6:	2200      	movs	r2, #0
   244e8:	4613      	mov	r3, r2
   244ea:	df04      	svc	4
   244ec:	b013      	add	sp, #76	@ 0x4c
   244ee:	bdf0      	pop	{r4, r5, r6, r7, pc}
   244f0:	4824      	ldr	r0, [pc, #144]	@ (24584 <_ZN20complex_dynamic_type3app17h981f192463430db8E+0x14c>)
   244f2:	2106      	movs	r1, #6
   244f4:	2200      	movs	r2, #0
   244f6:	4613      	mov	r3, r2
   244f8:	df03      	svc	3
   244fa:	b013      	add	sp, #76	@ 0x4c
   244fc:	bdf0      	pop	{r4, r5, r6, r7, pc}
   244fe:	a804      	add	r0, sp, #16
   24500:	7800      	ldrb	r0, [r0, #0]
   24502:	2802      	cmp	r0, #2
   24504:	d00c      	beq.n	24520 <_ZN20complex_dynamic_type3app17h981f192463430db8E+0xe8>
   24506:	2803      	cmp	r0, #3
   24508:	d105      	bne.n	24516 <_ZN20complex_dynamic_type3app17h981f192463430db8E+0xde>
   2450a:	481e      	ldr	r0, [pc, #120]	@ (24584 <_ZN20complex_dynamic_type3app17h981f192463430db8E+0x14c>)
   2450c:	2106      	movs	r1, #6
   2450e:	2200      	movs	r2, #0
   24510:	4613      	mov	r3, r2
   24512:	df03      	svc	3
   24514:	e004      	b.n	24520 <_ZN20complex_dynamic_type3app17h981f192463430db8E+0xe8>
   24516:	481b      	ldr	r0, [pc, #108]	@ (24584 <_ZN20complex_dynamic_type3app17h981f192463430db8E+0x14c>)
   24518:	2106      	movs	r1, #6
   2451a:	2200      	movs	r2, #0
   2451c:	4613      	mov	r3, r2
   2451e:	df04      	svc	4
   24520:	a804      	add	r0, sp, #16
   24522:	9900      	ldr	r1, [sp, #0]
   24524:	7001      	strb	r1, [r0, #0]
   24526:	a80f      	add	r0, sp, #60	@ 0x3c
   24528:	7800      	ldrb	r0, [r0, #0]
   2452a:	2804      	cmp	r0, #4
   2452c:	d007      	beq.n	2453e <_ZN20complex_dynamic_type3app17h981f192463430db8E+0x106>
   2452e:	2803      	cmp	r0, #3
   24530:	d11d      	bne.n	2456e <_ZN20complex_dynamic_type3app17h981f192463430db8E+0x136>
   24532:	4814      	ldr	r0, [pc, #80]	@ (24584 <_ZN20complex_dynamic_type3app17h981f192463430db8E+0x14c>)
   24534:	2100      	movs	r1, #0
   24536:	460a      	mov	r2, r1
   24538:	460b      	mov	r3, r1
   2453a:	df03      	svc	3
   2453c:	e004      	b.n	24548 <_ZN20complex_dynamic_type3app17h981f192463430db8E+0x110>
   2453e:	4811      	ldr	r0, [pc, #68]	@ (24584 <_ZN20complex_dynamic_type3app17h981f192463430db8E+0x14c>)
   24540:	2100      	movs	r1, #0
   24542:	460a      	mov	r2, r1
   24544:	460b      	mov	r3, r1
   24546:	df04      	svc	4
   24548:	a804      	add	r0, sp, #16
   2454a:	7804      	ldrb	r4, [r0, #0]
   2454c:	1c68      	adds	r0, r5, #1
   2454e:	220d      	movs	r2, #13
   24550:	9901      	ldr	r1, [sp, #4]
   24552:	f006 fddb 	bl	2b10c <__aeabi_memcpy>
   24556:	702e      	strb	r6, [r5, #0]
   24558:	2c02      	cmp	r4, #2
   2455a:	d006      	beq.n	2456a <_ZN20complex_dynamic_type3app17h981f192463430db8E+0x132>
   2455c:	4809      	ldr	r0, [pc, #36]	@ (24584 <_ZN20complex_dynamic_type3app17h981f192463430db8E+0x14c>)
   2455e:	2106      	movs	r1, #6
   24560:	2200      	movs	r2, #0
   24562:	4613      	mov	r3, r2
   24564:	2c04      	cmp	r4, #4
   24566:	d10a      	bne.n	2457e <_ZN20complex_dynamic_type3app17h981f192463430db8E+0x146>
   24568:	df04      	svc	4
   2456a:	b013      	add	sp, #76	@ 0x4c
   2456c:	bdf0      	pop	{r4, r5, r6, r7, pc}
   2456e:	1c68      	adds	r0, r5, #1
   24570:	220d      	movs	r2, #13
   24572:	4621      	mov	r1, r4
   24574:	f006 fdca 	bl	2b10c <__aeabi_memcpy>
   24578:	702e      	strb	r6, [r5, #0]
   2457a:	b013      	add	sp, #76	@ 0x4c
   2457c:	bdf0      	pop	{r4, r5, r6, r7, pc}
   2457e:	df03      	svc	3
   24580:	b013      	add	sp, #76	@ 0x4c
   24582:	bdf0      	pop	{r4, r5, r6, r7, pc}
   24584:	00001465 	.word	0x00001465

00024588 <_ZN20complex_dynamic_type3app17h99ba12d06a7056daE>:
   24588:	b5f0      	push	{r4, r5, r6, r7, lr}
   2458a:	af03      	add	r7, sp, #12
   2458c:	b0a9      	sub	sp, #164	@ 0xa4
   2458e:	9004      	str	r0, [sp, #16]
   24590:	a805      	add	r0, sp, #20
   24592:	2402      	movs	r4, #2
   24594:	7004      	strb	r4, [r0, #0]
   24596:	1c46      	adds	r6, r0, #1
   24598:	222a      	movs	r2, #42	@ 0x2a
   2459a:	9203      	str	r2, [sp, #12]
   2459c:	4630      	mov	r0, r6
   2459e:	f006 fdb5 	bl	2b10c <__aeabi_memcpy>
   245a2:	ad10      	add	r5, sp, #64	@ 0x40
   245a4:	1c68      	adds	r0, r5, #1
   245a6:	2163      	movs	r1, #99	@ 0x63
   245a8:	9002      	str	r0, [sp, #8]
   245aa:	f006 fbef 	bl	2ad8c <__aeabi_memclr>
   245ae:	9401      	str	r4, [sp, #4]
   245b0:	702c      	strb	r4, [r5, #0]
   245b2:	4848      	ldr	r0, [pc, #288]	@ (246d4 <_ZN20complex_dynamic_type3app17h99ba12d06a7056daE+0x14c>)
   245b4:	2504      	movs	r5, #4
   245b6:	4629      	mov	r1, r5
   245b8:	4632      	mov	r2, r6
   245ba:	9b03      	ldr	r3, [sp, #12]
   245bc:	df04      	svc	4
   245be:	2802      	cmp	r0, #2
   245c0:	d104      	bne.n	245cc <_ZN20complex_dynamic_type3app17h99ba12d06a7056daE+0x44>
   245c2:	2001      	movs	r0, #1
   245c4:	9a04      	ldr	r2, [sp, #16]
   245c6:	7010      	strb	r0, [r2, #0]
   245c8:	6051      	str	r1, [r2, #4]
   245ca:	e02c      	b.n	24626 <_ZN20complex_dynamic_type3app17h99ba12d06a7056daE+0x9e>
   245cc:	9c04      	ldr	r4, [sp, #16]
   245ce:	a805      	add	r0, sp, #20
   245d0:	7005      	strb	r5, [r0, #0]
   245d2:	4840      	ldr	r0, [pc, #256]	@ (246d4 <_ZN20complex_dynamic_type3app17h99ba12d06a7056daE+0x14c>)
   245d4:	2100      	movs	r1, #0
   245d6:	2363      	movs	r3, #99	@ 0x63
   245d8:	9a02      	ldr	r2, [sp, #8]
   245da:	df03      	svc	3
   245dc:	2802      	cmp	r0, #2
   245de:	d10e      	bne.n	245fe <_ZN20complex_dynamic_type3app17h99ba12d06a7056daE+0x76>
   245e0:	2001      	movs	r0, #1
   245e2:	7020      	strb	r0, [r4, #0]
   245e4:	6061      	str	r1, [r4, #4]
   245e6:	a810      	add	r0, sp, #64	@ 0x40
   245e8:	7800      	ldrb	r0, [r0, #0]
   245ea:	2802      	cmp	r0, #2
   245ec:	d01b      	beq.n	24626 <_ZN20complex_dynamic_type3app17h99ba12d06a7056daE+0x9e>
   245ee:	2803      	cmp	r0, #3
   245f0:	d014      	beq.n	2461c <_ZN20complex_dynamic_type3app17h99ba12d06a7056daE+0x94>
   245f2:	4838      	ldr	r0, [pc, #224]	@ (246d4 <_ZN20complex_dynamic_type3app17h99ba12d06a7056daE+0x14c>)
   245f4:	2100      	movs	r1, #0
   245f6:	460a      	mov	r2, r1
   245f8:	460b      	mov	r3, r1
   245fa:	df04      	svc	4
   245fc:	e013      	b.n	24626 <_ZN20complex_dynamic_type3app17h99ba12d06a7056daE+0x9e>
   245fe:	a810      	add	r0, sp, #64	@ 0x40
   24600:	2103      	movs	r1, #3
   24602:	7001      	strb	r1, [r0, #0]
   24604:	4833      	ldr	r0, [pc, #204]	@ (246d4 <_ZN20complex_dynamic_type3app17h99ba12d06a7056daE+0x14c>)
   24606:	2104      	movs	r1, #4
   24608:	2600      	movs	r6, #0
   2460a:	4632      	mov	r2, r6
   2460c:	4633      	mov	r3, r6
   2460e:	df02      	svc	2
   24610:	2880      	cmp	r0, #128	@ 0x80
   24612:	4625      	mov	r5, r4
   24614:	d21b      	bcs.n	2464e <_ZN20complex_dynamic_type3app17h99ba12d06a7056daE+0xc6>
   24616:	2001      	movs	r0, #1
   24618:	7028      	strb	r0, [r5, #0]
   2461a:	6069      	str	r1, [r5, #4]
   2461c:	482d      	ldr	r0, [pc, #180]	@ (246d4 <_ZN20complex_dynamic_type3app17h99ba12d06a7056daE+0x14c>)
   2461e:	2100      	movs	r1, #0
   24620:	460a      	mov	r2, r1
   24622:	460b      	mov	r3, r1
   24624:	df03      	svc	3
   24626:	a805      	add	r0, sp, #20
   24628:	7800      	ldrb	r0, [r0, #0]
   2462a:	2802      	cmp	r0, #2
   2462c:	d045      	beq.n	246ba <_ZN20complex_dynamic_type3app17h99ba12d06a7056daE+0x132>
   2462e:	2804      	cmp	r0, #4
   24630:	d106      	bne.n	24640 <_ZN20complex_dynamic_type3app17h99ba12d06a7056daE+0xb8>
   24632:	4828      	ldr	r0, [pc, #160]	@ (246d4 <_ZN20complex_dynamic_type3app17h99ba12d06a7056daE+0x14c>)
   24634:	2104      	movs	r1, #4
   24636:	2200      	movs	r2, #0
   24638:	4613      	mov	r3, r2
   2463a:	df04      	svc	4
   2463c:	b029      	add	sp, #164	@ 0xa4
   2463e:	bdf0      	pop	{r4, r5, r6, r7, pc}
   24640:	4824      	ldr	r0, [pc, #144]	@ (246d4 <_ZN20complex_dynamic_type3app17h99ba12d06a7056daE+0x14c>)
   24642:	2104      	movs	r1, #4
   24644:	2200      	movs	r2, #0
   24646:	4613      	mov	r3, r2
   24648:	df03      	svc	3
   2464a:	b029      	add	sp, #164	@ 0xa4
   2464c:	bdf0      	pop	{r4, r5, r6, r7, pc}
   2464e:	a805      	add	r0, sp, #20
   24650:	7800      	ldrb	r0, [r0, #0]
   24652:	2802      	cmp	r0, #2
   24654:	d00c      	beq.n	24670 <_ZN20complex_dynamic_type3app17h99ba12d06a7056daE+0xe8>
   24656:	2803      	cmp	r0, #3
   24658:	d105      	bne.n	24666 <_ZN20complex_dynamic_type3app17h99ba12d06a7056daE+0xde>
   2465a:	481e      	ldr	r0, [pc, #120]	@ (246d4 <_ZN20complex_dynamic_type3app17h99ba12d06a7056daE+0x14c>)
   2465c:	2104      	movs	r1, #4
   2465e:	2200      	movs	r2, #0
   24660:	4613      	mov	r3, r2
   24662:	df03      	svc	3
   24664:	e004      	b.n	24670 <_ZN20complex_dynamic_type3app17h99ba12d06a7056daE+0xe8>
   24666:	481b      	ldr	r0, [pc, #108]	@ (246d4 <_ZN20complex_dynamic_type3app17h99ba12d06a7056daE+0x14c>)
   24668:	2104      	movs	r1, #4
   2466a:	2200      	movs	r2, #0
   2466c:	4613      	mov	r3, r2
   2466e:	df04      	svc	4
   24670:	a805      	add	r0, sp, #20
   24672:	9901      	ldr	r1, [sp, #4]
   24674:	7001      	strb	r1, [r0, #0]
   24676:	a810      	add	r0, sp, #64	@ 0x40
   24678:	7800      	ldrb	r0, [r0, #0]
   2467a:	2804      	cmp	r0, #4
   2467c:	d007      	beq.n	2468e <_ZN20complex_dynamic_type3app17h99ba12d06a7056daE+0x106>
   2467e:	2803      	cmp	r0, #3
   24680:	d11d      	bne.n	246be <_ZN20complex_dynamic_type3app17h99ba12d06a7056daE+0x136>
   24682:	4814      	ldr	r0, [pc, #80]	@ (246d4 <_ZN20complex_dynamic_type3app17h99ba12d06a7056daE+0x14c>)
   24684:	2100      	movs	r1, #0
   24686:	460a      	mov	r2, r1
   24688:	460b      	mov	r3, r1
   2468a:	df03      	svc	3
   2468c:	e004      	b.n	24698 <_ZN20complex_dynamic_type3app17h99ba12d06a7056daE+0x110>
   2468e:	4811      	ldr	r0, [pc, #68]	@ (246d4 <_ZN20complex_dynamic_type3app17h99ba12d06a7056daE+0x14c>)
   24690:	2100      	movs	r1, #0
   24692:	460a      	mov	r2, r1
   24694:	460b      	mov	r3, r1
   24696:	df04      	svc	4
   24698:	a805      	add	r0, sp, #20
   2469a:	7804      	ldrb	r4, [r0, #0]
   2469c:	1c68      	adds	r0, r5, #1
   2469e:	2263      	movs	r2, #99	@ 0x63
   246a0:	9902      	ldr	r1, [sp, #8]
   246a2:	f006 fd33 	bl	2b10c <__aeabi_memcpy>
   246a6:	702e      	strb	r6, [r5, #0]
   246a8:	2c02      	cmp	r4, #2
   246aa:	d006      	beq.n	246ba <_ZN20complex_dynamic_type3app17h99ba12d06a7056daE+0x132>
   246ac:	4809      	ldr	r0, [pc, #36]	@ (246d4 <_ZN20complex_dynamic_type3app17h99ba12d06a7056daE+0x14c>)
   246ae:	2104      	movs	r1, #4
   246b0:	2200      	movs	r2, #0
   246b2:	4613      	mov	r3, r2
   246b4:	2c04      	cmp	r4, #4
   246b6:	d10a      	bne.n	246ce <_ZN20complex_dynamic_type3app17h99ba12d06a7056daE+0x146>
   246b8:	df04      	svc	4
   246ba:	b029      	add	sp, #164	@ 0xa4
   246bc:	bdf0      	pop	{r4, r5, r6, r7, pc}
   246be:	1c68      	adds	r0, r5, #1
   246c0:	2263      	movs	r2, #99	@ 0x63
   246c2:	9902      	ldr	r1, [sp, #8]
   246c4:	f006 fd22 	bl	2b10c <__aeabi_memcpy>
   246c8:	702e      	strb	r6, [r5, #0]
   246ca:	b029      	add	sp, #164	@ 0xa4
   246cc:	bdf0      	pop	{r4, r5, r6, r7, pc}
   246ce:	df03      	svc	3
   246d0:	b029      	add	sp, #164	@ 0xa4
   246d2:	bdf0      	pop	{r4, r5, r6, r7, pc}
   246d4:	00001c7c 	.word	0x00001c7c

000246d8 <_ZN20complex_dynamic_type3app17h9b9cf32392fd01ecE>:
   246d8:	b5f0      	push	{r4, r5, r6, r7, lr}
   246da:	af03      	add	r7, sp, #12
   246dc:	b0a1      	sub	sp, #132	@ 0x84
   246de:	9002      	str	r0, [sp, #8]
   246e0:	a803      	add	r0, sp, #12
   246e2:	2602      	movs	r6, #2
   246e4:	7006      	strb	r6, [r0, #0]
   246e6:	1c40      	adds	r0, r0, #1
   246e8:	9001      	str	r0, [sp, #4]
   246ea:	2521      	movs	r5, #33	@ 0x21
   246ec:	462a      	mov	r2, r5
   246ee:	f006 fd0d 	bl	2b10c <__aeabi_memcpy>
   246f2:	ac0c      	add	r4, sp, #48	@ 0x30
   246f4:	1c60      	adds	r0, r4, #1
   246f6:	2153      	movs	r1, #83	@ 0x53
   246f8:	9000      	str	r0, [sp, #0]
   246fa:	f006 fb47 	bl	2ad8c <__aeabi_memclr>
   246fe:	7026      	strb	r6, [r4, #0]
   24700:	484a      	ldr	r0, [pc, #296]	@ (2482c <_ZN20complex_dynamic_type3app17h9b9cf32392fd01ecE+0x154>)
   24702:	4631      	mov	r1, r6
   24704:	9a01      	ldr	r2, [sp, #4]
   24706:	462b      	mov	r3, r5
   24708:	df04      	svc	4
   2470a:	2802      	cmp	r0, #2
   2470c:	d104      	bne.n	24718 <_ZN20complex_dynamic_type3app17h9b9cf32392fd01ecE+0x40>
   2470e:	2001      	movs	r0, #1
   24710:	9a02      	ldr	r2, [sp, #8]
   24712:	7010      	strb	r0, [r2, #0]
   24714:	6051      	str	r1, [r2, #4]
   24716:	e02e      	b.n	24776 <_ZN20complex_dynamic_type3app17h9b9cf32392fd01ecE+0x9e>
   24718:	9d02      	ldr	r5, [sp, #8]
   2471a:	a803      	add	r0, sp, #12
   2471c:	2104      	movs	r1, #4
   2471e:	7001      	strb	r1, [r0, #0]
   24720:	4842      	ldr	r0, [pc, #264]	@ (2482c <_ZN20complex_dynamic_type3app17h9b9cf32392fd01ecE+0x154>)
   24722:	2108      	movs	r1, #8
   24724:	2353      	movs	r3, #83	@ 0x53
   24726:	9c00      	ldr	r4, [sp, #0]
   24728:	4622      	mov	r2, r4
   2472a:	df03      	svc	3
   2472c:	2802      	cmp	r0, #2
   2472e:	d10e      	bne.n	2474e <_ZN20complex_dynamic_type3app17h9b9cf32392fd01ecE+0x76>
   24730:	2001      	movs	r0, #1
   24732:	7028      	strb	r0, [r5, #0]
   24734:	6069      	str	r1, [r5, #4]
   24736:	a80c      	add	r0, sp, #48	@ 0x30
   24738:	7800      	ldrb	r0, [r0, #0]
   2473a:	2802      	cmp	r0, #2
   2473c:	d01b      	beq.n	24776 <_ZN20complex_dynamic_type3app17h9b9cf32392fd01ecE+0x9e>
   2473e:	2803      	cmp	r0, #3
   24740:	d014      	beq.n	2476c <_ZN20complex_dynamic_type3app17h9b9cf32392fd01ecE+0x94>
   24742:	483a      	ldr	r0, [pc, #232]	@ (2482c <_ZN20complex_dynamic_type3app17h9b9cf32392fd01ecE+0x154>)
   24744:	2108      	movs	r1, #8
   24746:	2200      	movs	r2, #0
   24748:	4613      	mov	r3, r2
   2474a:	df04      	svc	4
   2474c:	e013      	b.n	24776 <_ZN20complex_dynamic_type3app17h9b9cf32392fd01ecE+0x9e>
   2474e:	a80c      	add	r0, sp, #48	@ 0x30
   24750:	2103      	movs	r1, #3
   24752:	7001      	strb	r1, [r0, #0]
   24754:	4835      	ldr	r0, [pc, #212]	@ (2482c <_ZN20complex_dynamic_type3app17h9b9cf32392fd01ecE+0x154>)
   24756:	2602      	movs	r6, #2
   24758:	2208      	movs	r2, #8
   2475a:	2300      	movs	r3, #0
   2475c:	4631      	mov	r1, r6
   2475e:	9301      	str	r3, [sp, #4]
   24760:	df02      	svc	2
   24762:	2880      	cmp	r0, #128	@ 0x80
   24764:	d21b      	bcs.n	2479e <_ZN20complex_dynamic_type3app17h9b9cf32392fd01ecE+0xc6>
   24766:	2001      	movs	r0, #1
   24768:	7028      	strb	r0, [r5, #0]
   2476a:	6069      	str	r1, [r5, #4]
   2476c:	482f      	ldr	r0, [pc, #188]	@ (2482c <_ZN20complex_dynamic_type3app17h9b9cf32392fd01ecE+0x154>)
   2476e:	2108      	movs	r1, #8
   24770:	2200      	movs	r2, #0
   24772:	4613      	mov	r3, r2
   24774:	df03      	svc	3
   24776:	a803      	add	r0, sp, #12
   24778:	7800      	ldrb	r0, [r0, #0]
   2477a:	2802      	cmp	r0, #2
   2477c:	d047      	beq.n	2480e <_ZN20complex_dynamic_type3app17h9b9cf32392fd01ecE+0x136>
   2477e:	2804      	cmp	r0, #4
   24780:	d106      	bne.n	24790 <_ZN20complex_dynamic_type3app17h9b9cf32392fd01ecE+0xb8>
   24782:	482a      	ldr	r0, [pc, #168]	@ (2482c <_ZN20complex_dynamic_type3app17h9b9cf32392fd01ecE+0x154>)
   24784:	2102      	movs	r1, #2
   24786:	2200      	movs	r2, #0
   24788:	4613      	mov	r3, r2
   2478a:	df04      	svc	4
   2478c:	b021      	add	sp, #132	@ 0x84
   2478e:	bdf0      	pop	{r4, r5, r6, r7, pc}
   24790:	4826      	ldr	r0, [pc, #152]	@ (2482c <_ZN20complex_dynamic_type3app17h9b9cf32392fd01ecE+0x154>)
   24792:	2102      	movs	r1, #2
   24794:	2200      	movs	r2, #0
   24796:	4613      	mov	r3, r2
   24798:	df03      	svc	3
   2479a:	b021      	add	sp, #132	@ 0x84
   2479c:	bdf0      	pop	{r4, r5, r6, r7, pc}
   2479e:	a803      	add	r0, sp, #12
   247a0:	7800      	ldrb	r0, [r0, #0]
   247a2:	2802      	cmp	r0, #2
   247a4:	d00c      	beq.n	247c0 <_ZN20complex_dynamic_type3app17h9b9cf32392fd01ecE+0xe8>
   247a6:	2803      	cmp	r0, #3
   247a8:	d105      	bne.n	247b6 <_ZN20complex_dynamic_type3app17h9b9cf32392fd01ecE+0xde>
   247aa:	4820      	ldr	r0, [pc, #128]	@ (2482c <_ZN20complex_dynamic_type3app17h9b9cf32392fd01ecE+0x154>)
   247ac:	2102      	movs	r1, #2
   247ae:	2200      	movs	r2, #0
   247b0:	4613      	mov	r3, r2
   247b2:	df03      	svc	3
   247b4:	e004      	b.n	247c0 <_ZN20complex_dynamic_type3app17h9b9cf32392fd01ecE+0xe8>
   247b6:	481d      	ldr	r0, [pc, #116]	@ (2482c <_ZN20complex_dynamic_type3app17h9b9cf32392fd01ecE+0x154>)
   247b8:	2102      	movs	r1, #2
   247ba:	2200      	movs	r2, #0
   247bc:	4613      	mov	r3, r2
   247be:	df04      	svc	4
   247c0:	a803      	add	r0, sp, #12
   247c2:	7006      	strb	r6, [r0, #0]
   247c4:	a80c      	add	r0, sp, #48	@ 0x30
   247c6:	7800      	ldrb	r0, [r0, #0]
   247c8:	2804      	cmp	r0, #4
   247ca:	d008      	beq.n	247de <_ZN20complex_dynamic_type3app17h9b9cf32392fd01ecE+0x106>
   247cc:	2803      	cmp	r0, #3
   247ce:	d120      	bne.n	24812 <_ZN20complex_dynamic_type3app17h9b9cf32392fd01ecE+0x13a>
   247d0:	4626      	mov	r6, r4
   247d2:	4816      	ldr	r0, [pc, #88]	@ (2482c <_ZN20complex_dynamic_type3app17h9b9cf32392fd01ecE+0x154>)
   247d4:	2108      	movs	r1, #8
   247d6:	2200      	movs	r2, #0
   247d8:	4613      	mov	r3, r2
   247da:	df03      	svc	3
   247dc:	e005      	b.n	247ea <_ZN20complex_dynamic_type3app17h9b9cf32392fd01ecE+0x112>
   247de:	4626      	mov	r6, r4
   247e0:	4812      	ldr	r0, [pc, #72]	@ (2482c <_ZN20complex_dynamic_type3app17h9b9cf32392fd01ecE+0x154>)
   247e2:	2108      	movs	r1, #8
   247e4:	2200      	movs	r2, #0
   247e6:	4613      	mov	r3, r2
   247e8:	df04      	svc	4
   247ea:	a803      	add	r0, sp, #12
   247ec:	7804      	ldrb	r4, [r0, #0]
   247ee:	1c68      	adds	r0, r5, #1
   247f0:	2253      	movs	r2, #83	@ 0x53
   247f2:	4631      	mov	r1, r6
   247f4:	f006 fc8a 	bl	2b10c <__aeabi_memcpy>
   247f8:	9801      	ldr	r0, [sp, #4]
   247fa:	7028      	strb	r0, [r5, #0]
   247fc:	2c02      	cmp	r4, #2
   247fe:	d006      	beq.n	2480e <_ZN20complex_dynamic_type3app17h9b9cf32392fd01ecE+0x136>
   24800:	480a      	ldr	r0, [pc, #40]	@ (2482c <_ZN20complex_dynamic_type3app17h9b9cf32392fd01ecE+0x154>)
   24802:	2102      	movs	r1, #2
   24804:	2200      	movs	r2, #0
   24806:	4613      	mov	r3, r2
   24808:	2c04      	cmp	r4, #4
   2480a:	d10b      	bne.n	24824 <_ZN20complex_dynamic_type3app17h9b9cf32392fd01ecE+0x14c>
   2480c:	df04      	svc	4
   2480e:	b021      	add	sp, #132	@ 0x84
   24810:	bdf0      	pop	{r4, r5, r6, r7, pc}
   24812:	1c68      	adds	r0, r5, #1
   24814:	2253      	movs	r2, #83	@ 0x53
   24816:	4621      	mov	r1, r4
   24818:	f006 fc78 	bl	2b10c <__aeabi_memcpy>
   2481c:	9801      	ldr	r0, [sp, #4]
   2481e:	7028      	strb	r0, [r5, #0]
   24820:	b021      	add	sp, #132	@ 0x84
   24822:	bdf0      	pop	{r4, r5, r6, r7, pc}
   24824:	df03      	svc	3
   24826:	b021      	add	sp, #132	@ 0x84
   24828:	bdf0      	pop	{r4, r5, r6, r7, pc}
   2482a:	46c0      	nop			@ (mov r8, r8)
   2482c:	0000253e 	.word	0x0000253e

00024830 <_ZN20complex_dynamic_type3app17ha033bf98663a288bE>:
   24830:	b5f0      	push	{r4, r5, r6, r7, lr}
   24832:	af03      	add	r7, sp, #12
   24834:	b0a3      	sub	sp, #140	@ 0x8c
   24836:	9004      	str	r0, [sp, #16]
   24838:	a805      	add	r0, sp, #20
   2483a:	2402      	movs	r4, #2
   2483c:	7004      	strb	r4, [r0, #0]
   2483e:	1c46      	adds	r6, r0, #1
   24840:	2227      	movs	r2, #39	@ 0x27
   24842:	9203      	str	r2, [sp, #12]
   24844:	4630      	mov	r0, r6
   24846:	f006 fc61 	bl	2b10c <__aeabi_memcpy>
   2484a:	ad0f      	add	r5, sp, #60	@ 0x3c
   2484c:	1c68      	adds	r0, r5, #1
   2484e:	214f      	movs	r1, #79	@ 0x4f
   24850:	9002      	str	r0, [sp, #8]
   24852:	f006 fa9b 	bl	2ad8c <__aeabi_memclr>
   24856:	9401      	str	r4, [sp, #4]
   24858:	702c      	strb	r4, [r5, #0]
   2485a:	4848      	ldr	r0, [pc, #288]	@ (2497c <_ZN20complex_dynamic_type3app17ha033bf98663a288bE+0x14c>)
   2485c:	2109      	movs	r1, #9
   2485e:	4632      	mov	r2, r6
   24860:	9b03      	ldr	r3, [sp, #12]
   24862:	df04      	svc	4
   24864:	2802      	cmp	r0, #2
   24866:	d104      	bne.n	24872 <_ZN20complex_dynamic_type3app17ha033bf98663a288bE+0x42>
   24868:	2001      	movs	r0, #1
   2486a:	9a04      	ldr	r2, [sp, #16]
   2486c:	7010      	strb	r0, [r2, #0]
   2486e:	6051      	str	r1, [r2, #4]
   24870:	e02d      	b.n	248ce <_ZN20complex_dynamic_type3app17ha033bf98663a288bE+0x9e>
   24872:	9d04      	ldr	r5, [sp, #16]
   24874:	a805      	add	r0, sp, #20
   24876:	2104      	movs	r1, #4
   24878:	7001      	strb	r1, [r0, #0]
   2487a:	4840      	ldr	r0, [pc, #256]	@ (2497c <_ZN20complex_dynamic_type3app17ha033bf98663a288bE+0x14c>)
   2487c:	2100      	movs	r1, #0
   2487e:	234f      	movs	r3, #79	@ 0x4f
   24880:	9c02      	ldr	r4, [sp, #8]
   24882:	4622      	mov	r2, r4
   24884:	df03      	svc	3
   24886:	2802      	cmp	r0, #2
   24888:	d10e      	bne.n	248a8 <_ZN20complex_dynamic_type3app17ha033bf98663a288bE+0x78>
   2488a:	2001      	movs	r0, #1
   2488c:	7028      	strb	r0, [r5, #0]
   2488e:	6069      	str	r1, [r5, #4]
   24890:	a80f      	add	r0, sp, #60	@ 0x3c
   24892:	7800      	ldrb	r0, [r0, #0]
   24894:	2802      	cmp	r0, #2
   24896:	d01a      	beq.n	248ce <_ZN20complex_dynamic_type3app17ha033bf98663a288bE+0x9e>
   24898:	2803      	cmp	r0, #3
   2489a:	d013      	beq.n	248c4 <_ZN20complex_dynamic_type3app17ha033bf98663a288bE+0x94>
   2489c:	4837      	ldr	r0, [pc, #220]	@ (2497c <_ZN20complex_dynamic_type3app17ha033bf98663a288bE+0x14c>)
   2489e:	2100      	movs	r1, #0
   248a0:	460a      	mov	r2, r1
   248a2:	460b      	mov	r3, r1
   248a4:	df04      	svc	4
   248a6:	e012      	b.n	248ce <_ZN20complex_dynamic_type3app17ha033bf98663a288bE+0x9e>
   248a8:	a80f      	add	r0, sp, #60	@ 0x3c
   248aa:	2103      	movs	r1, #3
   248ac:	7001      	strb	r1, [r0, #0]
   248ae:	4833      	ldr	r0, [pc, #204]	@ (2497c <_ZN20complex_dynamic_type3app17ha033bf98663a288bE+0x14c>)
   248b0:	2109      	movs	r1, #9
   248b2:	2600      	movs	r6, #0
   248b4:	4632      	mov	r2, r6
   248b6:	4633      	mov	r3, r6
   248b8:	df02      	svc	2
   248ba:	2880      	cmp	r0, #128	@ 0x80
   248bc:	d21b      	bcs.n	248f6 <_ZN20complex_dynamic_type3app17ha033bf98663a288bE+0xc6>
   248be:	2001      	movs	r0, #1
   248c0:	7028      	strb	r0, [r5, #0]
   248c2:	6069      	str	r1, [r5, #4]
   248c4:	482d      	ldr	r0, [pc, #180]	@ (2497c <_ZN20complex_dynamic_type3app17ha033bf98663a288bE+0x14c>)
   248c6:	2100      	movs	r1, #0
   248c8:	460a      	mov	r2, r1
   248ca:	460b      	mov	r3, r1
   248cc:	df03      	svc	3
   248ce:	a805      	add	r0, sp, #20
   248d0:	7800      	ldrb	r0, [r0, #0]
   248d2:	2802      	cmp	r0, #2
   248d4:	d045      	beq.n	24962 <_ZN20complex_dynamic_type3app17ha033bf98663a288bE+0x132>
   248d6:	2804      	cmp	r0, #4
   248d8:	d106      	bne.n	248e8 <_ZN20complex_dynamic_type3app17ha033bf98663a288bE+0xb8>
   248da:	4828      	ldr	r0, [pc, #160]	@ (2497c <_ZN20complex_dynamic_type3app17ha033bf98663a288bE+0x14c>)
   248dc:	2109      	movs	r1, #9
   248de:	2200      	movs	r2, #0
   248e0:	4613      	mov	r3, r2
   248e2:	df04      	svc	4
   248e4:	b023      	add	sp, #140	@ 0x8c
   248e6:	bdf0      	pop	{r4, r5, r6, r7, pc}
   248e8:	4824      	ldr	r0, [pc, #144]	@ (2497c <_ZN20complex_dynamic_type3app17ha033bf98663a288bE+0x14c>)
   248ea:	2109      	movs	r1, #9
   248ec:	2200      	movs	r2, #0
   248ee:	4613      	mov	r3, r2
   248f0:	df03      	svc	3
   248f2:	b023      	add	sp, #140	@ 0x8c
   248f4:	bdf0      	pop	{r4, r5, r6, r7, pc}
   248f6:	a805      	add	r0, sp, #20
   248f8:	7800      	ldrb	r0, [r0, #0]
   248fa:	2802      	cmp	r0, #2
   248fc:	d00c      	beq.n	24918 <_ZN20complex_dynamic_type3app17ha033bf98663a288bE+0xe8>
   248fe:	2803      	cmp	r0, #3
   24900:	d105      	bne.n	2490e <_ZN20complex_dynamic_type3app17ha033bf98663a288bE+0xde>
   24902:	481e      	ldr	r0, [pc, #120]	@ (2497c <_ZN20complex_dynamic_type3app17ha033bf98663a288bE+0x14c>)
   24904:	2109      	movs	r1, #9
   24906:	2200      	movs	r2, #0
   24908:	4613      	mov	r3, r2
   2490a:	df03      	svc	3
   2490c:	e004      	b.n	24918 <_ZN20complex_dynamic_type3app17ha033bf98663a288bE+0xe8>
   2490e:	481b      	ldr	r0, [pc, #108]	@ (2497c <_ZN20complex_dynamic_type3app17ha033bf98663a288bE+0x14c>)
   24910:	2109      	movs	r1, #9
   24912:	2200      	movs	r2, #0
   24914:	4613      	mov	r3, r2
   24916:	df04      	svc	4
   24918:	a805      	add	r0, sp, #20
   2491a:	9901      	ldr	r1, [sp, #4]
   2491c:	7001      	strb	r1, [r0, #0]
   2491e:	a80f      	add	r0, sp, #60	@ 0x3c
   24920:	7800      	ldrb	r0, [r0, #0]
   24922:	2804      	cmp	r0, #4
   24924:	d007      	beq.n	24936 <_ZN20complex_dynamic_type3app17ha033bf98663a288bE+0x106>
   24926:	2803      	cmp	r0, #3
   24928:	d11d      	bne.n	24966 <_ZN20complex_dynamic_type3app17ha033bf98663a288bE+0x136>
   2492a:	4814      	ldr	r0, [pc, #80]	@ (2497c <_ZN20complex_dynamic_type3app17ha033bf98663a288bE+0x14c>)
   2492c:	2100      	movs	r1, #0
   2492e:	460a      	mov	r2, r1
   24930:	460b      	mov	r3, r1
   24932:	df03      	svc	3
   24934:	e004      	b.n	24940 <_ZN20complex_dynamic_type3app17ha033bf98663a288bE+0x110>
   24936:	4811      	ldr	r0, [pc, #68]	@ (2497c <_ZN20complex_dynamic_type3app17ha033bf98663a288bE+0x14c>)
   24938:	2100      	movs	r1, #0
   2493a:	460a      	mov	r2, r1
   2493c:	460b      	mov	r3, r1
   2493e:	df04      	svc	4
   24940:	a805      	add	r0, sp, #20
   24942:	7804      	ldrb	r4, [r0, #0]
   24944:	1c68      	adds	r0, r5, #1
   24946:	224f      	movs	r2, #79	@ 0x4f
   24948:	9902      	ldr	r1, [sp, #8]
   2494a:	f006 fbdf 	bl	2b10c <__aeabi_memcpy>
   2494e:	702e      	strb	r6, [r5, #0]
   24950:	2c02      	cmp	r4, #2
   24952:	d006      	beq.n	24962 <_ZN20complex_dynamic_type3app17ha033bf98663a288bE+0x132>
   24954:	4809      	ldr	r0, [pc, #36]	@ (2497c <_ZN20complex_dynamic_type3app17ha033bf98663a288bE+0x14c>)
   24956:	2109      	movs	r1, #9
   24958:	2200      	movs	r2, #0
   2495a:	4613      	mov	r3, r2
   2495c:	2c04      	cmp	r4, #4
   2495e:	d10a      	bne.n	24976 <_ZN20complex_dynamic_type3app17ha033bf98663a288bE+0x146>
   24960:	df04      	svc	4
   24962:	b023      	add	sp, #140	@ 0x8c
   24964:	bdf0      	pop	{r4, r5, r6, r7, pc}
   24966:	1c68      	adds	r0, r5, #1
   24968:	224f      	movs	r2, #79	@ 0x4f
   2496a:	4621      	mov	r1, r4
   2496c:	f006 fbce 	bl	2b10c <__aeabi_memcpy>
   24970:	702e      	strb	r6, [r5, #0]
   24972:	b023      	add	sp, #140	@ 0x8c
   24974:	bdf0      	pop	{r4, r5, r6, r7, pc}
   24976:	df03      	svc	3
   24978:	b023      	add	sp, #140	@ 0x8c
   2497a:	bdf0      	pop	{r4, r5, r6, r7, pc}
   2497c:	00000b4c 	.word	0x00000b4c

00024980 <_ZN20complex_dynamic_type3app17ha03629917e3c2321E>:
   24980:	b5f0      	push	{r4, r5, r6, r7, lr}
   24982:	af03      	add	r7, sp, #12
   24984:	b095      	sub	sp, #84	@ 0x54
   24986:	9003      	str	r0, [sp, #12]
   24988:	a804      	add	r0, sp, #16
   2498a:	2402      	movs	r4, #2
   2498c:	7004      	strb	r4, [r0, #0]
   2498e:	1c46      	adds	r6, r0, #1
   24990:	2214      	movs	r2, #20
   24992:	9202      	str	r2, [sp, #8]
   24994:	4630      	mov	r0, r6
   24996:	f006 fbb9 	bl	2b10c <__aeabi_memcpy>
   2499a:	ad0a      	add	r5, sp, #40	@ 0x28
   2499c:	1c68      	adds	r0, r5, #1
   2499e:	212b      	movs	r1, #43	@ 0x2b
   249a0:	9001      	str	r0, [sp, #4]
   249a2:	f006 f9f3 	bl	2ad8c <__aeabi_memclr>
   249a6:	9400      	str	r4, [sp, #0]
   249a8:	702c      	strb	r4, [r5, #0]
   249aa:	4848      	ldr	r0, [pc, #288]	@ (24acc <_ZN20complex_dynamic_type3app17ha03629917e3c2321E+0x14c>)
   249ac:	2108      	movs	r1, #8
   249ae:	4632      	mov	r2, r6
   249b0:	9b02      	ldr	r3, [sp, #8]
   249b2:	df04      	svc	4
   249b4:	2802      	cmp	r0, #2
   249b6:	d104      	bne.n	249c2 <_ZN20complex_dynamic_type3app17ha03629917e3c2321E+0x42>
   249b8:	2001      	movs	r0, #1
   249ba:	9a03      	ldr	r2, [sp, #12]
   249bc:	7010      	strb	r0, [r2, #0]
   249be:	6051      	str	r1, [r2, #4]
   249c0:	e02c      	b.n	24a1c <_ZN20complex_dynamic_type3app17ha03629917e3c2321E+0x9c>
   249c2:	9d03      	ldr	r5, [sp, #12]
   249c4:	a804      	add	r0, sp, #16
   249c6:	2104      	movs	r1, #4
   249c8:	7001      	strb	r1, [r0, #0]
   249ca:	4840      	ldr	r0, [pc, #256]	@ (24acc <_ZN20complex_dynamic_type3app17ha03629917e3c2321E+0x14c>)
   249cc:	232b      	movs	r3, #43	@ 0x2b
   249ce:	9c01      	ldr	r4, [sp, #4]
   249d0:	4622      	mov	r2, r4
   249d2:	df03      	svc	3
   249d4:	2802      	cmp	r0, #2
   249d6:	d10e      	bne.n	249f6 <_ZN20complex_dynamic_type3app17ha03629917e3c2321E+0x76>
   249d8:	2001      	movs	r0, #1
   249da:	7028      	strb	r0, [r5, #0]
   249dc:	6069      	str	r1, [r5, #4]
   249de:	a80a      	add	r0, sp, #40	@ 0x28
   249e0:	7800      	ldrb	r0, [r0, #0]
   249e2:	2802      	cmp	r0, #2
   249e4:	d01a      	beq.n	24a1c <_ZN20complex_dynamic_type3app17ha03629917e3c2321E+0x9c>
   249e6:	2803      	cmp	r0, #3
   249e8:	d013      	beq.n	24a12 <_ZN20complex_dynamic_type3app17ha03629917e3c2321E+0x92>
   249ea:	4838      	ldr	r0, [pc, #224]	@ (24acc <_ZN20complex_dynamic_type3app17ha03629917e3c2321E+0x14c>)
   249ec:	2104      	movs	r1, #4
   249ee:	2200      	movs	r2, #0
   249f0:	4613      	mov	r3, r2
   249f2:	df04      	svc	4
   249f4:	e012      	b.n	24a1c <_ZN20complex_dynamic_type3app17ha03629917e3c2321E+0x9c>
   249f6:	a80a      	add	r0, sp, #40	@ 0x28
   249f8:	2103      	movs	r1, #3
   249fa:	7001      	strb	r1, [r0, #0]
   249fc:	4833      	ldr	r0, [pc, #204]	@ (24acc <_ZN20complex_dynamic_type3app17ha03629917e3c2321E+0x14c>)
   249fe:	2108      	movs	r1, #8
   24a00:	2204      	movs	r2, #4
   24a02:	2600      	movs	r6, #0
   24a04:	4633      	mov	r3, r6
   24a06:	df02      	svc	2
   24a08:	2880      	cmp	r0, #128	@ 0x80
   24a0a:	d21b      	bcs.n	24a44 <_ZN20complex_dynamic_type3app17ha03629917e3c2321E+0xc4>
   24a0c:	2001      	movs	r0, #1
   24a0e:	7028      	strb	r0, [r5, #0]
   24a10:	6069      	str	r1, [r5, #4]
   24a12:	482e      	ldr	r0, [pc, #184]	@ (24acc <_ZN20complex_dynamic_type3app17ha03629917e3c2321E+0x14c>)
   24a14:	2104      	movs	r1, #4
   24a16:	2200      	movs	r2, #0
   24a18:	4613      	mov	r3, r2
   24a1a:	df03      	svc	3
   24a1c:	a804      	add	r0, sp, #16
   24a1e:	7800      	ldrb	r0, [r0, #0]
   24a20:	2802      	cmp	r0, #2
   24a22:	d045      	beq.n	24ab0 <_ZN20complex_dynamic_type3app17ha03629917e3c2321E+0x130>
   24a24:	2804      	cmp	r0, #4
   24a26:	d106      	bne.n	24a36 <_ZN20complex_dynamic_type3app17ha03629917e3c2321E+0xb6>
   24a28:	4828      	ldr	r0, [pc, #160]	@ (24acc <_ZN20complex_dynamic_type3app17ha03629917e3c2321E+0x14c>)
   24a2a:	2108      	movs	r1, #8
   24a2c:	2200      	movs	r2, #0
   24a2e:	4613      	mov	r3, r2
   24a30:	df04      	svc	4
   24a32:	b015      	add	sp, #84	@ 0x54
   24a34:	bdf0      	pop	{r4, r5, r6, r7, pc}
   24a36:	4825      	ldr	r0, [pc, #148]	@ (24acc <_ZN20complex_dynamic_type3app17ha03629917e3c2321E+0x14c>)
   24a38:	2108      	movs	r1, #8
   24a3a:	2200      	movs	r2, #0
   24a3c:	4613      	mov	r3, r2
   24a3e:	df03      	svc	3
   24a40:	b015      	add	sp, #84	@ 0x54
   24a42:	bdf0      	pop	{r4, r5, r6, r7, pc}
   24a44:	a804      	add	r0, sp, #16
   24a46:	7800      	ldrb	r0, [r0, #0]
   24a48:	2802      	cmp	r0, #2
   24a4a:	d00c      	beq.n	24a66 <_ZN20complex_dynamic_type3app17ha03629917e3c2321E+0xe6>
   24a4c:	2803      	cmp	r0, #3
   24a4e:	d105      	bne.n	24a5c <_ZN20complex_dynamic_type3app17ha03629917e3c2321E+0xdc>
   24a50:	481e      	ldr	r0, [pc, #120]	@ (24acc <_ZN20complex_dynamic_type3app17ha03629917e3c2321E+0x14c>)
   24a52:	2108      	movs	r1, #8
   24a54:	2200      	movs	r2, #0
   24a56:	4613      	mov	r3, r2
   24a58:	df03      	svc	3
   24a5a:	e004      	b.n	24a66 <_ZN20complex_dynamic_type3app17ha03629917e3c2321E+0xe6>
   24a5c:	481b      	ldr	r0, [pc, #108]	@ (24acc <_ZN20complex_dynamic_type3app17ha03629917e3c2321E+0x14c>)
   24a5e:	2108      	movs	r1, #8
   24a60:	2200      	movs	r2, #0
   24a62:	4613      	mov	r3, r2
   24a64:	df04      	svc	4
   24a66:	a804      	add	r0, sp, #16
   24a68:	9900      	ldr	r1, [sp, #0]
   24a6a:	7001      	strb	r1, [r0, #0]
   24a6c:	a80a      	add	r0, sp, #40	@ 0x28
   24a6e:	7800      	ldrb	r0, [r0, #0]
   24a70:	2804      	cmp	r0, #4
   24a72:	d007      	beq.n	24a84 <_ZN20complex_dynamic_type3app17ha03629917e3c2321E+0x104>
   24a74:	2803      	cmp	r0, #3
   24a76:	d11d      	bne.n	24ab4 <_ZN20complex_dynamic_type3app17ha03629917e3c2321E+0x134>
   24a78:	4814      	ldr	r0, [pc, #80]	@ (24acc <_ZN20complex_dynamic_type3app17ha03629917e3c2321E+0x14c>)
   24a7a:	2104      	movs	r1, #4
   24a7c:	2200      	movs	r2, #0
   24a7e:	4613      	mov	r3, r2
   24a80:	df03      	svc	3
   24a82:	e004      	b.n	24a8e <_ZN20complex_dynamic_type3app17ha03629917e3c2321E+0x10e>
   24a84:	4811      	ldr	r0, [pc, #68]	@ (24acc <_ZN20complex_dynamic_type3app17ha03629917e3c2321E+0x14c>)
   24a86:	2104      	movs	r1, #4
   24a88:	2200      	movs	r2, #0
   24a8a:	4613      	mov	r3, r2
   24a8c:	df04      	svc	4
   24a8e:	a804      	add	r0, sp, #16
   24a90:	7804      	ldrb	r4, [r0, #0]
   24a92:	1c68      	adds	r0, r5, #1
   24a94:	222b      	movs	r2, #43	@ 0x2b
   24a96:	9901      	ldr	r1, [sp, #4]
   24a98:	f006 fb38 	bl	2b10c <__aeabi_memcpy>
   24a9c:	702e      	strb	r6, [r5, #0]
   24a9e:	2c02      	cmp	r4, #2
   24aa0:	d006      	beq.n	24ab0 <_ZN20complex_dynamic_type3app17ha03629917e3c2321E+0x130>
   24aa2:	480a      	ldr	r0, [pc, #40]	@ (24acc <_ZN20complex_dynamic_type3app17ha03629917e3c2321E+0x14c>)
   24aa4:	2108      	movs	r1, #8
   24aa6:	2200      	movs	r2, #0
   24aa8:	4613      	mov	r3, r2
   24aaa:	2c04      	cmp	r4, #4
   24aac:	d10a      	bne.n	24ac4 <_ZN20complex_dynamic_type3app17ha03629917e3c2321E+0x144>
   24aae:	df04      	svc	4
   24ab0:	b015      	add	sp, #84	@ 0x54
   24ab2:	bdf0      	pop	{r4, r5, r6, r7, pc}
   24ab4:	1c68      	adds	r0, r5, #1
   24ab6:	222b      	movs	r2, #43	@ 0x2b
   24ab8:	4621      	mov	r1, r4
   24aba:	f006 fb27 	bl	2b10c <__aeabi_memcpy>
   24abe:	702e      	strb	r6, [r5, #0]
   24ac0:	b015      	add	sp, #84	@ 0x54
   24ac2:	bdf0      	pop	{r4, r5, r6, r7, pc}
   24ac4:	df03      	svc	3
   24ac6:	b015      	add	sp, #84	@ 0x54
   24ac8:	bdf0      	pop	{r4, r5, r6, r7, pc}
   24aca:	46c0      	nop			@ (mov r8, r8)
   24acc:	0000239f 	.word	0x0000239f

00024ad0 <_ZN20complex_dynamic_type3app17ha0db79972d79b01fE>:
   24ad0:	b5f0      	push	{r4, r5, r6, r7, lr}
   24ad2:	af03      	add	r7, sp, #12
   24ad4:	b09b      	sub	sp, #108	@ 0x6c
   24ad6:	9004      	str	r0, [sp, #16]
   24ad8:	a805      	add	r0, sp, #20
   24ada:	2402      	movs	r4, #2
   24adc:	7004      	strb	r4, [r0, #0]
   24ade:	1c46      	adds	r6, r0, #1
   24ae0:	2224      	movs	r2, #36	@ 0x24
   24ae2:	9203      	str	r2, [sp, #12]
   24ae4:	4630      	mov	r0, r6
   24ae6:	f006 fb11 	bl	2b10c <__aeabi_memcpy>
   24aea:	ad0f      	add	r5, sp, #60	@ 0x3c
   24aec:	1c68      	adds	r0, r5, #1
   24aee:	212f      	movs	r1, #47	@ 0x2f
   24af0:	9002      	str	r0, [sp, #8]
   24af2:	f006 f94b 	bl	2ad8c <__aeabi_memclr>
   24af6:	9401      	str	r4, [sp, #4]
   24af8:	702c      	strb	r4, [r5, #0]
   24afa:	4848      	ldr	r0, [pc, #288]	@ (24c1c <_ZN20complex_dynamic_type3app17ha0db79972d79b01fE+0x14c>)
   24afc:	2106      	movs	r1, #6
   24afe:	4632      	mov	r2, r6
   24b00:	9b03      	ldr	r3, [sp, #12]
   24b02:	df04      	svc	4
   24b04:	2802      	cmp	r0, #2
   24b06:	d104      	bne.n	24b12 <_ZN20complex_dynamic_type3app17ha0db79972d79b01fE+0x42>
   24b08:	2001      	movs	r0, #1
   24b0a:	9a04      	ldr	r2, [sp, #16]
   24b0c:	7010      	strb	r0, [r2, #0]
   24b0e:	6051      	str	r1, [r2, #4]
   24b10:	e02d      	b.n	24b6e <_ZN20complex_dynamic_type3app17ha0db79972d79b01fE+0x9e>
   24b12:	9d04      	ldr	r5, [sp, #16]
   24b14:	a805      	add	r0, sp, #20
   24b16:	2104      	movs	r1, #4
   24b18:	7001      	strb	r1, [r0, #0]
   24b1a:	4840      	ldr	r0, [pc, #256]	@ (24c1c <_ZN20complex_dynamic_type3app17ha0db79972d79b01fE+0x14c>)
   24b1c:	2109      	movs	r1, #9
   24b1e:	232f      	movs	r3, #47	@ 0x2f
   24b20:	9c02      	ldr	r4, [sp, #8]
   24b22:	4622      	mov	r2, r4
   24b24:	df03      	svc	3
   24b26:	2802      	cmp	r0, #2
   24b28:	d10e      	bne.n	24b48 <_ZN20complex_dynamic_type3app17ha0db79972d79b01fE+0x78>
   24b2a:	2001      	movs	r0, #1
   24b2c:	7028      	strb	r0, [r5, #0]
   24b2e:	6069      	str	r1, [r5, #4]
   24b30:	a80f      	add	r0, sp, #60	@ 0x3c
   24b32:	7800      	ldrb	r0, [r0, #0]
   24b34:	2802      	cmp	r0, #2
   24b36:	d01a      	beq.n	24b6e <_ZN20complex_dynamic_type3app17ha0db79972d79b01fE+0x9e>
   24b38:	2803      	cmp	r0, #3
   24b3a:	d013      	beq.n	24b64 <_ZN20complex_dynamic_type3app17ha0db79972d79b01fE+0x94>
   24b3c:	4837      	ldr	r0, [pc, #220]	@ (24c1c <_ZN20complex_dynamic_type3app17ha0db79972d79b01fE+0x14c>)
   24b3e:	2109      	movs	r1, #9
   24b40:	2200      	movs	r2, #0
   24b42:	4613      	mov	r3, r2
   24b44:	df04      	svc	4
   24b46:	e012      	b.n	24b6e <_ZN20complex_dynamic_type3app17ha0db79972d79b01fE+0x9e>
   24b48:	a80f      	add	r0, sp, #60	@ 0x3c
   24b4a:	2103      	movs	r1, #3
   24b4c:	7001      	strb	r1, [r0, #0]
   24b4e:	4833      	ldr	r0, [pc, #204]	@ (24c1c <_ZN20complex_dynamic_type3app17ha0db79972d79b01fE+0x14c>)
   24b50:	2106      	movs	r1, #6
   24b52:	2209      	movs	r2, #9
   24b54:	2600      	movs	r6, #0
   24b56:	4633      	mov	r3, r6
   24b58:	df02      	svc	2
   24b5a:	2880      	cmp	r0, #128	@ 0x80
   24b5c:	d21b      	bcs.n	24b96 <_ZN20complex_dynamic_type3app17ha0db79972d79b01fE+0xc6>
   24b5e:	2001      	movs	r0, #1
   24b60:	7028      	strb	r0, [r5, #0]
   24b62:	6069      	str	r1, [r5, #4]
   24b64:	482d      	ldr	r0, [pc, #180]	@ (24c1c <_ZN20complex_dynamic_type3app17ha0db79972d79b01fE+0x14c>)
   24b66:	2109      	movs	r1, #9
   24b68:	2200      	movs	r2, #0
   24b6a:	4613      	mov	r3, r2
   24b6c:	df03      	svc	3
   24b6e:	a805      	add	r0, sp, #20
   24b70:	7800      	ldrb	r0, [r0, #0]
   24b72:	2802      	cmp	r0, #2
   24b74:	d045      	beq.n	24c02 <_ZN20complex_dynamic_type3app17ha0db79972d79b01fE+0x132>
   24b76:	2804      	cmp	r0, #4
   24b78:	d106      	bne.n	24b88 <_ZN20complex_dynamic_type3app17ha0db79972d79b01fE+0xb8>
   24b7a:	4828      	ldr	r0, [pc, #160]	@ (24c1c <_ZN20complex_dynamic_type3app17ha0db79972d79b01fE+0x14c>)
   24b7c:	2106      	movs	r1, #6
   24b7e:	2200      	movs	r2, #0
   24b80:	4613      	mov	r3, r2
   24b82:	df04      	svc	4
   24b84:	b01b      	add	sp, #108	@ 0x6c
   24b86:	bdf0      	pop	{r4, r5, r6, r7, pc}
   24b88:	4824      	ldr	r0, [pc, #144]	@ (24c1c <_ZN20complex_dynamic_type3app17ha0db79972d79b01fE+0x14c>)
   24b8a:	2106      	movs	r1, #6
   24b8c:	2200      	movs	r2, #0
   24b8e:	4613      	mov	r3, r2
   24b90:	df03      	svc	3
   24b92:	b01b      	add	sp, #108	@ 0x6c
   24b94:	bdf0      	pop	{r4, r5, r6, r7, pc}
   24b96:	a805      	add	r0, sp, #20
   24b98:	7800      	ldrb	r0, [r0, #0]
   24b9a:	2802      	cmp	r0, #2
   24b9c:	d00c      	beq.n	24bb8 <_ZN20complex_dynamic_type3app17ha0db79972d79b01fE+0xe8>
   24b9e:	2803      	cmp	r0, #3
   24ba0:	d105      	bne.n	24bae <_ZN20complex_dynamic_type3app17ha0db79972d79b01fE+0xde>
   24ba2:	481e      	ldr	r0, [pc, #120]	@ (24c1c <_ZN20complex_dynamic_type3app17ha0db79972d79b01fE+0x14c>)
   24ba4:	2106      	movs	r1, #6
   24ba6:	2200      	movs	r2, #0
   24ba8:	4613      	mov	r3, r2
   24baa:	df03      	svc	3
   24bac:	e004      	b.n	24bb8 <_ZN20complex_dynamic_type3app17ha0db79972d79b01fE+0xe8>
   24bae:	481b      	ldr	r0, [pc, #108]	@ (24c1c <_ZN20complex_dynamic_type3app17ha0db79972d79b01fE+0x14c>)
   24bb0:	2106      	movs	r1, #6
   24bb2:	2200      	movs	r2, #0
   24bb4:	4613      	mov	r3, r2
   24bb6:	df04      	svc	4
   24bb8:	a805      	add	r0, sp, #20
   24bba:	9901      	ldr	r1, [sp, #4]
   24bbc:	7001      	strb	r1, [r0, #0]
   24bbe:	a80f      	add	r0, sp, #60	@ 0x3c
   24bc0:	7800      	ldrb	r0, [r0, #0]
   24bc2:	2804      	cmp	r0, #4
   24bc4:	d007      	beq.n	24bd6 <_ZN20complex_dynamic_type3app17ha0db79972d79b01fE+0x106>
   24bc6:	2803      	cmp	r0, #3
   24bc8:	d11d      	bne.n	24c06 <_ZN20complex_dynamic_type3app17ha0db79972d79b01fE+0x136>
   24bca:	4814      	ldr	r0, [pc, #80]	@ (24c1c <_ZN20complex_dynamic_type3app17ha0db79972d79b01fE+0x14c>)
   24bcc:	2109      	movs	r1, #9
   24bce:	2200      	movs	r2, #0
   24bd0:	4613      	mov	r3, r2
   24bd2:	df03      	svc	3
   24bd4:	e004      	b.n	24be0 <_ZN20complex_dynamic_type3app17ha0db79972d79b01fE+0x110>
   24bd6:	4811      	ldr	r0, [pc, #68]	@ (24c1c <_ZN20complex_dynamic_type3app17ha0db79972d79b01fE+0x14c>)
   24bd8:	2109      	movs	r1, #9
   24bda:	2200      	movs	r2, #0
   24bdc:	4613      	mov	r3, r2
   24bde:	df04      	svc	4
   24be0:	a805      	add	r0, sp, #20
   24be2:	7804      	ldrb	r4, [r0, #0]
   24be4:	1c68      	adds	r0, r5, #1
   24be6:	222f      	movs	r2, #47	@ 0x2f
   24be8:	9902      	ldr	r1, [sp, #8]
   24bea:	f006 fa8f 	bl	2b10c <__aeabi_memcpy>
   24bee:	702e      	strb	r6, [r5, #0]
   24bf0:	2c02      	cmp	r4, #2
   24bf2:	d006      	beq.n	24c02 <_ZN20complex_dynamic_type3app17ha0db79972d79b01fE+0x132>
   24bf4:	4809      	ldr	r0, [pc, #36]	@ (24c1c <_ZN20complex_dynamic_type3app17ha0db79972d79b01fE+0x14c>)
   24bf6:	2106      	movs	r1, #6
   24bf8:	2200      	movs	r2, #0
   24bfa:	4613      	mov	r3, r2
   24bfc:	2c04      	cmp	r4, #4
   24bfe:	d10a      	bne.n	24c16 <_ZN20complex_dynamic_type3app17ha0db79972d79b01fE+0x146>
   24c00:	df04      	svc	4
   24c02:	b01b      	add	sp, #108	@ 0x6c
   24c04:	bdf0      	pop	{r4, r5, r6, r7, pc}
   24c06:	1c68      	adds	r0, r5, #1
   24c08:	222f      	movs	r2, #47	@ 0x2f
   24c0a:	4621      	mov	r1, r4
   24c0c:	f006 fa7e 	bl	2b10c <__aeabi_memcpy>
   24c10:	702e      	strb	r6, [r5, #0]
   24c12:	b01b      	add	sp, #108	@ 0x6c
   24c14:	bdf0      	pop	{r4, r5, r6, r7, pc}
   24c16:	df03      	svc	3
   24c18:	b01b      	add	sp, #108	@ 0x6c
   24c1a:	bdf0      	pop	{r4, r5, r6, r7, pc}
   24c1c:	00001273 	.word	0x00001273

00024c20 <_ZN20complex_dynamic_type3app17ha223722a4e3d85b5E>:
   24c20:	b5f0      	push	{r4, r5, r6, r7, lr}
   24c22:	af03      	add	r7, sp, #12
   24c24:	b09f      	sub	sp, #124	@ 0x7c
   24c26:	9004      	str	r0, [sp, #16]
   24c28:	a805      	add	r0, sp, #20
   24c2a:	2402      	movs	r4, #2
   24c2c:	7004      	strb	r4, [r0, #0]
   24c2e:	1c40      	adds	r0, r0, #1
   24c30:	9003      	str	r0, [sp, #12]
   24c32:	2541      	movs	r5, #65	@ 0x41
   24c34:	462a      	mov	r2, r5
   24c36:	f006 fa69 	bl	2b10c <__aeabi_memcpy>
   24c3a:	ae16      	add	r6, sp, #88	@ 0x58
   24c3c:	1c70      	adds	r0, r6, #1
   24c3e:	2122      	movs	r1, #34	@ 0x22
   24c40:	9002      	str	r0, [sp, #8]
   24c42:	f006 f8a3 	bl	2ad8c <__aeabi_memclr>
   24c46:	9401      	str	r4, [sp, #4]
   24c48:	7034      	strb	r4, [r6, #0]
   24c4a:	4847      	ldr	r0, [pc, #284]	@ (24d68 <_ZN20complex_dynamic_type3app17ha223722a4e3d85b5E+0x148>)
   24c4c:	2601      	movs	r6, #1
   24c4e:	4631      	mov	r1, r6
   24c50:	9a03      	ldr	r2, [sp, #12]
   24c52:	462b      	mov	r3, r5
   24c54:	df04      	svc	4
   24c56:	2802      	cmp	r0, #2
   24c58:	d103      	bne.n	24c62 <_ZN20complex_dynamic_type3app17ha223722a4e3d85b5E+0x42>
   24c5a:	9804      	ldr	r0, [sp, #16]
   24c5c:	7006      	strb	r6, [r0, #0]
   24c5e:	6041      	str	r1, [r0, #4]
   24c60:	e02b      	b.n	24cba <_ZN20complex_dynamic_type3app17ha223722a4e3d85b5E+0x9a>
   24c62:	9d04      	ldr	r5, [sp, #16]
   24c64:	a805      	add	r0, sp, #20
   24c66:	2104      	movs	r1, #4
   24c68:	7001      	strb	r1, [r0, #0]
   24c6a:	483f      	ldr	r0, [pc, #252]	@ (24d68 <_ZN20complex_dynamic_type3app17ha223722a4e3d85b5E+0x148>)
   24c6c:	2100      	movs	r1, #0
   24c6e:	2322      	movs	r3, #34	@ 0x22
   24c70:	9a02      	ldr	r2, [sp, #8]
   24c72:	df03      	svc	3
   24c74:	2802      	cmp	r0, #2
   24c76:	d10d      	bne.n	24c94 <_ZN20complex_dynamic_type3app17ha223722a4e3d85b5E+0x74>
   24c78:	702e      	strb	r6, [r5, #0]
   24c7a:	6069      	str	r1, [r5, #4]
   24c7c:	a816      	add	r0, sp, #88	@ 0x58
   24c7e:	7800      	ldrb	r0, [r0, #0]
   24c80:	2802      	cmp	r0, #2
   24c82:	d01a      	beq.n	24cba <_ZN20complex_dynamic_type3app17ha223722a4e3d85b5E+0x9a>
   24c84:	2803      	cmp	r0, #3
   24c86:	d013      	beq.n	24cb0 <_ZN20complex_dynamic_type3app17ha223722a4e3d85b5E+0x90>
   24c88:	4837      	ldr	r0, [pc, #220]	@ (24d68 <_ZN20complex_dynamic_type3app17ha223722a4e3d85b5E+0x148>)
   24c8a:	2100      	movs	r1, #0
   24c8c:	460a      	mov	r2, r1
   24c8e:	460b      	mov	r3, r1
   24c90:	df04      	svc	4
   24c92:	e012      	b.n	24cba <_ZN20complex_dynamic_type3app17ha223722a4e3d85b5E+0x9a>
   24c94:	a816      	add	r0, sp, #88	@ 0x58
   24c96:	2103      	movs	r1, #3
   24c98:	7001      	strb	r1, [r0, #0]
   24c9a:	4833      	ldr	r0, [pc, #204]	@ (24d68 <_ZN20complex_dynamic_type3app17ha223722a4e3d85b5E+0x148>)
   24c9c:	2401      	movs	r4, #1
   24c9e:	2600      	movs	r6, #0
   24ca0:	4621      	mov	r1, r4
   24ca2:	4632      	mov	r2, r6
   24ca4:	4633      	mov	r3, r6
   24ca6:	df02      	svc	2
   24ca8:	2880      	cmp	r0, #128	@ 0x80
   24caa:	d21a      	bcs.n	24ce2 <_ZN20complex_dynamic_type3app17ha223722a4e3d85b5E+0xc2>
   24cac:	702c      	strb	r4, [r5, #0]
   24cae:	6069      	str	r1, [r5, #4]
   24cb0:	482d      	ldr	r0, [pc, #180]	@ (24d68 <_ZN20complex_dynamic_type3app17ha223722a4e3d85b5E+0x148>)
   24cb2:	2100      	movs	r1, #0
   24cb4:	460a      	mov	r2, r1
   24cb6:	460b      	mov	r3, r1
   24cb8:	df03      	svc	3
   24cba:	a805      	add	r0, sp, #20
   24cbc:	7800      	ldrb	r0, [r0, #0]
   24cbe:	2802      	cmp	r0, #2
   24cc0:	d045      	beq.n	24d4e <_ZN20complex_dynamic_type3app17ha223722a4e3d85b5E+0x12e>
   24cc2:	2804      	cmp	r0, #4
   24cc4:	d106      	bne.n	24cd4 <_ZN20complex_dynamic_type3app17ha223722a4e3d85b5E+0xb4>
   24cc6:	4828      	ldr	r0, [pc, #160]	@ (24d68 <_ZN20complex_dynamic_type3app17ha223722a4e3d85b5E+0x148>)
   24cc8:	2101      	movs	r1, #1
   24cca:	2200      	movs	r2, #0
   24ccc:	4613      	mov	r3, r2
   24cce:	df04      	svc	4
   24cd0:	b01f      	add	sp, #124	@ 0x7c
   24cd2:	bdf0      	pop	{r4, r5, r6, r7, pc}
   24cd4:	4824      	ldr	r0, [pc, #144]	@ (24d68 <_ZN20complex_dynamic_type3app17ha223722a4e3d85b5E+0x148>)
   24cd6:	2101      	movs	r1, #1
   24cd8:	2200      	movs	r2, #0
   24cda:	4613      	mov	r3, r2
   24cdc:	df03      	svc	3
   24cde:	b01f      	add	sp, #124	@ 0x7c
   24ce0:	bdf0      	pop	{r4, r5, r6, r7, pc}
   24ce2:	a805      	add	r0, sp, #20
   24ce4:	7800      	ldrb	r0, [r0, #0]
   24ce6:	2802      	cmp	r0, #2
   24ce8:	d00c      	beq.n	24d04 <_ZN20complex_dynamic_type3app17ha223722a4e3d85b5E+0xe4>
   24cea:	2803      	cmp	r0, #3
   24cec:	d105      	bne.n	24cfa <_ZN20complex_dynamic_type3app17ha223722a4e3d85b5E+0xda>
   24cee:	481e      	ldr	r0, [pc, #120]	@ (24d68 <_ZN20complex_dynamic_type3app17ha223722a4e3d85b5E+0x148>)
   24cf0:	2101      	movs	r1, #1
   24cf2:	2200      	movs	r2, #0
   24cf4:	4613      	mov	r3, r2
   24cf6:	df03      	svc	3
   24cf8:	e004      	b.n	24d04 <_ZN20complex_dynamic_type3app17ha223722a4e3d85b5E+0xe4>
   24cfa:	481b      	ldr	r0, [pc, #108]	@ (24d68 <_ZN20complex_dynamic_type3app17ha223722a4e3d85b5E+0x148>)
   24cfc:	2101      	movs	r1, #1
   24cfe:	2200      	movs	r2, #0
   24d00:	4613      	mov	r3, r2
   24d02:	df04      	svc	4
   24d04:	a805      	add	r0, sp, #20
   24d06:	9901      	ldr	r1, [sp, #4]
   24d08:	7001      	strb	r1, [r0, #0]
   24d0a:	a816      	add	r0, sp, #88	@ 0x58
   24d0c:	7800      	ldrb	r0, [r0, #0]
   24d0e:	2804      	cmp	r0, #4
   24d10:	d007      	beq.n	24d22 <_ZN20complex_dynamic_type3app17ha223722a4e3d85b5E+0x102>
   24d12:	2803      	cmp	r0, #3
   24d14:	d11d      	bne.n	24d52 <_ZN20complex_dynamic_type3app17ha223722a4e3d85b5E+0x132>
   24d16:	4814      	ldr	r0, [pc, #80]	@ (24d68 <_ZN20complex_dynamic_type3app17ha223722a4e3d85b5E+0x148>)
   24d18:	2100      	movs	r1, #0
   24d1a:	460a      	mov	r2, r1
   24d1c:	460b      	mov	r3, r1
   24d1e:	df03      	svc	3
   24d20:	e004      	b.n	24d2c <_ZN20complex_dynamic_type3app17ha223722a4e3d85b5E+0x10c>
   24d22:	4811      	ldr	r0, [pc, #68]	@ (24d68 <_ZN20complex_dynamic_type3app17ha223722a4e3d85b5E+0x148>)
   24d24:	2100      	movs	r1, #0
   24d26:	460a      	mov	r2, r1
   24d28:	460b      	mov	r3, r1
   24d2a:	df04      	svc	4
   24d2c:	a805      	add	r0, sp, #20
   24d2e:	7804      	ldrb	r4, [r0, #0]
   24d30:	1c68      	adds	r0, r5, #1
   24d32:	2222      	movs	r2, #34	@ 0x22
   24d34:	9902      	ldr	r1, [sp, #8]
   24d36:	f006 f9e9 	bl	2b10c <__aeabi_memcpy>
   24d3a:	702e      	strb	r6, [r5, #0]
   24d3c:	2c02      	cmp	r4, #2
   24d3e:	d006      	beq.n	24d4e <_ZN20complex_dynamic_type3app17ha223722a4e3d85b5E+0x12e>
   24d40:	4809      	ldr	r0, [pc, #36]	@ (24d68 <_ZN20complex_dynamic_type3app17ha223722a4e3d85b5E+0x148>)
   24d42:	2101      	movs	r1, #1
   24d44:	2200      	movs	r2, #0
   24d46:	4613      	mov	r3, r2
   24d48:	2c04      	cmp	r4, #4
   24d4a:	d10a      	bne.n	24d62 <_ZN20complex_dynamic_type3app17ha223722a4e3d85b5E+0x142>
   24d4c:	df04      	svc	4
   24d4e:	b01f      	add	sp, #124	@ 0x7c
   24d50:	bdf0      	pop	{r4, r5, r6, r7, pc}
   24d52:	9902      	ldr	r1, [sp, #8]
   24d54:	1c68      	adds	r0, r5, #1
   24d56:	2222      	movs	r2, #34	@ 0x22
   24d58:	f006 f9d8 	bl	2b10c <__aeabi_memcpy>
   24d5c:	702e      	strb	r6, [r5, #0]
   24d5e:	b01f      	add	sp, #124	@ 0x7c
   24d60:	bdf0      	pop	{r4, r5, r6, r7, pc}
   24d62:	df03      	svc	3
   24d64:	b01f      	add	sp, #124	@ 0x7c
   24d66:	bdf0      	pop	{r4, r5, r6, r7, pc}
   24d68:	0000247c 	.word	0x0000247c

00024d6c <_ZN20complex_dynamic_type3app17ha4caea24361f4b4cE>:
   24d6c:	b5f0      	push	{r4, r5, r6, r7, lr}
   24d6e:	af03      	add	r7, sp, #12
   24d70:	b097      	sub	sp, #92	@ 0x5c
   24d72:	9003      	str	r0, [sp, #12]
   24d74:	a804      	add	r0, sp, #16
   24d76:	2402      	movs	r4, #2
   24d78:	7004      	strb	r4, [r0, #0]
   24d7a:	1c46      	adds	r6, r0, #1
   24d7c:	2223      	movs	r2, #35	@ 0x23
   24d7e:	9202      	str	r2, [sp, #8]
   24d80:	4630      	mov	r0, r6
   24d82:	f006 f9c3 	bl	2b10c <__aeabi_memcpy>
   24d86:	ad0d      	add	r5, sp, #52	@ 0x34
   24d88:	1c68      	adds	r0, r5, #1
   24d8a:	2124      	movs	r1, #36	@ 0x24
   24d8c:	9001      	str	r0, [sp, #4]
   24d8e:	f005 fffd 	bl	2ad8c <__aeabi_memclr>
   24d92:	9400      	str	r4, [sp, #0]
   24d94:	702c      	strb	r4, [r5, #0]
   24d96:	4848      	ldr	r0, [pc, #288]	@ (24eb8 <_ZN20complex_dynamic_type3app17ha4caea24361f4b4cE+0x14c>)
   24d98:	2504      	movs	r5, #4
   24d9a:	4629      	mov	r1, r5
   24d9c:	4632      	mov	r2, r6
   24d9e:	9b02      	ldr	r3, [sp, #8]
   24da0:	df04      	svc	4
   24da2:	2802      	cmp	r0, #2
   24da4:	d104      	bne.n	24db0 <_ZN20complex_dynamic_type3app17ha4caea24361f4b4cE+0x44>
   24da6:	2001      	movs	r0, #1
   24da8:	9a03      	ldr	r2, [sp, #12]
   24daa:	7010      	strb	r0, [r2, #0]
   24dac:	6051      	str	r1, [r2, #4]
   24dae:	e02c      	b.n	24e0a <_ZN20complex_dynamic_type3app17ha4caea24361f4b4cE+0x9e>
   24db0:	9c03      	ldr	r4, [sp, #12]
   24db2:	a804      	add	r0, sp, #16
   24db4:	7005      	strb	r5, [r0, #0]
   24db6:	4840      	ldr	r0, [pc, #256]	@ (24eb8 <_ZN20complex_dynamic_type3app17ha4caea24361f4b4cE+0x14c>)
   24db8:	2108      	movs	r1, #8
   24dba:	2324      	movs	r3, #36	@ 0x24
   24dbc:	9a01      	ldr	r2, [sp, #4]
   24dbe:	df03      	svc	3
   24dc0:	2802      	cmp	r0, #2
   24dc2:	d10e      	bne.n	24de2 <_ZN20complex_dynamic_type3app17ha4caea24361f4b4cE+0x76>
   24dc4:	2001      	movs	r0, #1
   24dc6:	7020      	strb	r0, [r4, #0]
   24dc8:	6061      	str	r1, [r4, #4]
   24dca:	a80d      	add	r0, sp, #52	@ 0x34
   24dcc:	7800      	ldrb	r0, [r0, #0]
   24dce:	2802      	cmp	r0, #2
   24dd0:	d01b      	beq.n	24e0a <_ZN20complex_dynamic_type3app17ha4caea24361f4b4cE+0x9e>
   24dd2:	2803      	cmp	r0, #3
   24dd4:	d014      	beq.n	24e00 <_ZN20complex_dynamic_type3app17ha4caea24361f4b4cE+0x94>
   24dd6:	4838      	ldr	r0, [pc, #224]	@ (24eb8 <_ZN20complex_dynamic_type3app17ha4caea24361f4b4cE+0x14c>)
   24dd8:	2108      	movs	r1, #8
   24dda:	2200      	movs	r2, #0
   24ddc:	4613      	mov	r3, r2
   24dde:	df04      	svc	4
   24de0:	e013      	b.n	24e0a <_ZN20complex_dynamic_type3app17ha4caea24361f4b4cE+0x9e>
   24de2:	a80d      	add	r0, sp, #52	@ 0x34
   24de4:	2103      	movs	r1, #3
   24de6:	7001      	strb	r1, [r0, #0]
   24de8:	4833      	ldr	r0, [pc, #204]	@ (24eb8 <_ZN20complex_dynamic_type3app17ha4caea24361f4b4cE+0x14c>)
   24dea:	2104      	movs	r1, #4
   24dec:	2208      	movs	r2, #8
   24dee:	2600      	movs	r6, #0
   24df0:	4633      	mov	r3, r6
   24df2:	df02      	svc	2
   24df4:	2880      	cmp	r0, #128	@ 0x80
   24df6:	4625      	mov	r5, r4
   24df8:	d21b      	bcs.n	24e32 <_ZN20complex_dynamic_type3app17ha4caea24361f4b4cE+0xc6>
   24dfa:	2001      	movs	r0, #1
   24dfc:	7028      	strb	r0, [r5, #0]
   24dfe:	6069      	str	r1, [r5, #4]
   24e00:	482d      	ldr	r0, [pc, #180]	@ (24eb8 <_ZN20complex_dynamic_type3app17ha4caea24361f4b4cE+0x14c>)
   24e02:	2108      	movs	r1, #8
   24e04:	2200      	movs	r2, #0
   24e06:	4613      	mov	r3, r2
   24e08:	df03      	svc	3
   24e0a:	a804      	add	r0, sp, #16
   24e0c:	7800      	ldrb	r0, [r0, #0]
   24e0e:	2802      	cmp	r0, #2
   24e10:	d045      	beq.n	24e9e <_ZN20complex_dynamic_type3app17ha4caea24361f4b4cE+0x132>
   24e12:	2804      	cmp	r0, #4
   24e14:	d106      	bne.n	24e24 <_ZN20complex_dynamic_type3app17ha4caea24361f4b4cE+0xb8>
   24e16:	4828      	ldr	r0, [pc, #160]	@ (24eb8 <_ZN20complex_dynamic_type3app17ha4caea24361f4b4cE+0x14c>)
   24e18:	2104      	movs	r1, #4
   24e1a:	2200      	movs	r2, #0
   24e1c:	4613      	mov	r3, r2
   24e1e:	df04      	svc	4
   24e20:	b017      	add	sp, #92	@ 0x5c
   24e22:	bdf0      	pop	{r4, r5, r6, r7, pc}
   24e24:	4824      	ldr	r0, [pc, #144]	@ (24eb8 <_ZN20complex_dynamic_type3app17ha4caea24361f4b4cE+0x14c>)
   24e26:	2104      	movs	r1, #4
   24e28:	2200      	movs	r2, #0
   24e2a:	4613      	mov	r3, r2
   24e2c:	df03      	svc	3
   24e2e:	b017      	add	sp, #92	@ 0x5c
   24e30:	bdf0      	pop	{r4, r5, r6, r7, pc}
   24e32:	a804      	add	r0, sp, #16
   24e34:	7800      	ldrb	r0, [r0, #0]
   24e36:	2802      	cmp	r0, #2
   24e38:	d00c      	beq.n	24e54 <_ZN20complex_dynamic_type3app17ha4caea24361f4b4cE+0xe8>
   24e3a:	2803      	cmp	r0, #3
   24e3c:	d105      	bne.n	24e4a <_ZN20complex_dynamic_type3app17ha4caea24361f4b4cE+0xde>
   24e3e:	481e      	ldr	r0, [pc, #120]	@ (24eb8 <_ZN20complex_dynamic_type3app17ha4caea24361f4b4cE+0x14c>)
   24e40:	2104      	movs	r1, #4
   24e42:	2200      	movs	r2, #0
   24e44:	4613      	mov	r3, r2
   24e46:	df03      	svc	3
   24e48:	e004      	b.n	24e54 <_ZN20complex_dynamic_type3app17ha4caea24361f4b4cE+0xe8>
   24e4a:	481b      	ldr	r0, [pc, #108]	@ (24eb8 <_ZN20complex_dynamic_type3app17ha4caea24361f4b4cE+0x14c>)
   24e4c:	2104      	movs	r1, #4
   24e4e:	2200      	movs	r2, #0
   24e50:	4613      	mov	r3, r2
   24e52:	df04      	svc	4
   24e54:	a804      	add	r0, sp, #16
   24e56:	9900      	ldr	r1, [sp, #0]
   24e58:	7001      	strb	r1, [r0, #0]
   24e5a:	a80d      	add	r0, sp, #52	@ 0x34
   24e5c:	7800      	ldrb	r0, [r0, #0]
   24e5e:	2804      	cmp	r0, #4
   24e60:	d007      	beq.n	24e72 <_ZN20complex_dynamic_type3app17ha4caea24361f4b4cE+0x106>
   24e62:	2803      	cmp	r0, #3
   24e64:	d11d      	bne.n	24ea2 <_ZN20complex_dynamic_type3app17ha4caea24361f4b4cE+0x136>
   24e66:	4814      	ldr	r0, [pc, #80]	@ (24eb8 <_ZN20complex_dynamic_type3app17ha4caea24361f4b4cE+0x14c>)
   24e68:	2108      	movs	r1, #8
   24e6a:	2200      	movs	r2, #0
   24e6c:	4613      	mov	r3, r2
   24e6e:	df03      	svc	3
   24e70:	e004      	b.n	24e7c <_ZN20complex_dynamic_type3app17ha4caea24361f4b4cE+0x110>
   24e72:	4811      	ldr	r0, [pc, #68]	@ (24eb8 <_ZN20complex_dynamic_type3app17ha4caea24361f4b4cE+0x14c>)
   24e74:	2108      	movs	r1, #8
   24e76:	2200      	movs	r2, #0
   24e78:	4613      	mov	r3, r2
   24e7a:	df04      	svc	4
   24e7c:	a804      	add	r0, sp, #16
   24e7e:	7804      	ldrb	r4, [r0, #0]
   24e80:	1c68      	adds	r0, r5, #1
   24e82:	2224      	movs	r2, #36	@ 0x24
   24e84:	9901      	ldr	r1, [sp, #4]
   24e86:	f006 f941 	bl	2b10c <__aeabi_memcpy>
   24e8a:	702e      	strb	r6, [r5, #0]
   24e8c:	2c02      	cmp	r4, #2
   24e8e:	d006      	beq.n	24e9e <_ZN20complex_dynamic_type3app17ha4caea24361f4b4cE+0x132>
   24e90:	4809      	ldr	r0, [pc, #36]	@ (24eb8 <_ZN20complex_dynamic_type3app17ha4caea24361f4b4cE+0x14c>)
   24e92:	2104      	movs	r1, #4
   24e94:	2200      	movs	r2, #0
   24e96:	4613      	mov	r3, r2
   24e98:	2c04      	cmp	r4, #4
   24e9a:	d10a      	bne.n	24eb2 <_ZN20complex_dynamic_type3app17ha4caea24361f4b4cE+0x146>
   24e9c:	df04      	svc	4
   24e9e:	b017      	add	sp, #92	@ 0x5c
   24ea0:	bdf0      	pop	{r4, r5, r6, r7, pc}
   24ea2:	1c68      	adds	r0, r5, #1
   24ea4:	2224      	movs	r2, #36	@ 0x24
   24ea6:	9901      	ldr	r1, [sp, #4]
   24ea8:	f006 f930 	bl	2b10c <__aeabi_memcpy>
   24eac:	702e      	strb	r6, [r5, #0]
   24eae:	b017      	add	sp, #92	@ 0x5c
   24eb0:	bdf0      	pop	{r4, r5, r6, r7, pc}
   24eb2:	df03      	svc	3
   24eb4:	b017      	add	sp, #92	@ 0x5c
   24eb6:	bdf0      	pop	{r4, r5, r6, r7, pc}
   24eb8:	00001bd6 	.word	0x00001bd6

00024ebc <_ZN20complex_dynamic_type3app17haa8603ae0a663eb0E>:
   24ebc:	b5f0      	push	{r4, r5, r6, r7, lr}
   24ebe:	af03      	add	r7, sp, #12
   24ec0:	b0a7      	sub	sp, #156	@ 0x9c
   24ec2:	9003      	str	r0, [sp, #12]
   24ec4:	a804      	add	r0, sp, #16
   24ec6:	2402      	movs	r4, #2
   24ec8:	7004      	strb	r4, [r0, #0]
   24eca:	1c46      	adds	r6, r0, #1
   24ecc:	224f      	movs	r2, #79	@ 0x4f
   24ece:	9202      	str	r2, [sp, #8]
   24ed0:	4630      	mov	r0, r6
   24ed2:	f006 f91b 	bl	2b10c <__aeabi_memcpy>
   24ed6:	ad18      	add	r5, sp, #96	@ 0x60
   24ed8:	1c68      	adds	r0, r5, #1
   24eda:	213b      	movs	r1, #59	@ 0x3b
   24edc:	9001      	str	r0, [sp, #4]
   24ede:	f005 ff55 	bl	2ad8c <__aeabi_memclr>
   24ee2:	9400      	str	r4, [sp, #0]
   24ee4:	702c      	strb	r4, [r5, #0]
   24ee6:	4848      	ldr	r0, [pc, #288]	@ (25008 <_ZN20complex_dynamic_type3app17haa8603ae0a663eb0E+0x14c>)
   24ee8:	2108      	movs	r1, #8
   24eea:	4632      	mov	r2, r6
   24eec:	9b02      	ldr	r3, [sp, #8]
   24eee:	df04      	svc	4
   24ef0:	2802      	cmp	r0, #2
   24ef2:	d104      	bne.n	24efe <_ZN20complex_dynamic_type3app17haa8603ae0a663eb0E+0x42>
   24ef4:	2001      	movs	r0, #1
   24ef6:	9a03      	ldr	r2, [sp, #12]
   24ef8:	7010      	strb	r0, [r2, #0]
   24efa:	6051      	str	r1, [r2, #4]
   24efc:	e02d      	b.n	24f5a <_ZN20complex_dynamic_type3app17haa8603ae0a663eb0E+0x9e>
   24efe:	9d03      	ldr	r5, [sp, #12]
   24f00:	a804      	add	r0, sp, #16
   24f02:	2104      	movs	r1, #4
   24f04:	7001      	strb	r1, [r0, #0]
   24f06:	4840      	ldr	r0, [pc, #256]	@ (25008 <_ZN20complex_dynamic_type3app17haa8603ae0a663eb0E+0x14c>)
   24f08:	2105      	movs	r1, #5
   24f0a:	233b      	movs	r3, #59	@ 0x3b
   24f0c:	9c01      	ldr	r4, [sp, #4]
   24f0e:	4622      	mov	r2, r4
   24f10:	df03      	svc	3
   24f12:	2802      	cmp	r0, #2
   24f14:	d10e      	bne.n	24f34 <_ZN20complex_dynamic_type3app17haa8603ae0a663eb0E+0x78>
   24f16:	2001      	movs	r0, #1
   24f18:	7028      	strb	r0, [r5, #0]
   24f1a:	6069      	str	r1, [r5, #4]
   24f1c:	a818      	add	r0, sp, #96	@ 0x60
   24f1e:	7800      	ldrb	r0, [r0, #0]
   24f20:	2802      	cmp	r0, #2
   24f22:	d01a      	beq.n	24f5a <_ZN20complex_dynamic_type3app17haa8603ae0a663eb0E+0x9e>
   24f24:	2803      	cmp	r0, #3
   24f26:	d013      	beq.n	24f50 <_ZN20complex_dynamic_type3app17haa8603ae0a663eb0E+0x94>
   24f28:	4837      	ldr	r0, [pc, #220]	@ (25008 <_ZN20complex_dynamic_type3app17haa8603ae0a663eb0E+0x14c>)
   24f2a:	2105      	movs	r1, #5
   24f2c:	2200      	movs	r2, #0
   24f2e:	4613      	mov	r3, r2
   24f30:	df04      	svc	4
   24f32:	e012      	b.n	24f5a <_ZN20complex_dynamic_type3app17haa8603ae0a663eb0E+0x9e>
   24f34:	a818      	add	r0, sp, #96	@ 0x60
   24f36:	2103      	movs	r1, #3
   24f38:	7001      	strb	r1, [r0, #0]
   24f3a:	4833      	ldr	r0, [pc, #204]	@ (25008 <_ZN20complex_dynamic_type3app17haa8603ae0a663eb0E+0x14c>)
   24f3c:	2108      	movs	r1, #8
   24f3e:	2205      	movs	r2, #5
   24f40:	2600      	movs	r6, #0
   24f42:	4633      	mov	r3, r6
   24f44:	df02      	svc	2
   24f46:	2880      	cmp	r0, #128	@ 0x80
   24f48:	d21b      	bcs.n	24f82 <_ZN20complex_dynamic_type3app17haa8603ae0a663eb0E+0xc6>
   24f4a:	2001      	movs	r0, #1
   24f4c:	7028      	strb	r0, [r5, #0]
   24f4e:	6069      	str	r1, [r5, #4]
   24f50:	482d      	ldr	r0, [pc, #180]	@ (25008 <_ZN20complex_dynamic_type3app17haa8603ae0a663eb0E+0x14c>)
   24f52:	2105      	movs	r1, #5
   24f54:	2200      	movs	r2, #0
   24f56:	4613      	mov	r3, r2
   24f58:	df03      	svc	3
   24f5a:	a804      	add	r0, sp, #16
   24f5c:	7800      	ldrb	r0, [r0, #0]
   24f5e:	2802      	cmp	r0, #2
   24f60:	d045      	beq.n	24fee <_ZN20complex_dynamic_type3app17haa8603ae0a663eb0E+0x132>
   24f62:	2804      	cmp	r0, #4
   24f64:	d106      	bne.n	24f74 <_ZN20complex_dynamic_type3app17haa8603ae0a663eb0E+0xb8>
   24f66:	4828      	ldr	r0, [pc, #160]	@ (25008 <_ZN20complex_dynamic_type3app17haa8603ae0a663eb0E+0x14c>)
   24f68:	2108      	movs	r1, #8
   24f6a:	2200      	movs	r2, #0
   24f6c:	4613      	mov	r3, r2
   24f6e:	df04      	svc	4
   24f70:	b027      	add	sp, #156	@ 0x9c
   24f72:	bdf0      	pop	{r4, r5, r6, r7, pc}
   24f74:	4824      	ldr	r0, [pc, #144]	@ (25008 <_ZN20complex_dynamic_type3app17haa8603ae0a663eb0E+0x14c>)
   24f76:	2108      	movs	r1, #8
   24f78:	2200      	movs	r2, #0
   24f7a:	4613      	mov	r3, r2
   24f7c:	df03      	svc	3
   24f7e:	b027      	add	sp, #156	@ 0x9c
   24f80:	bdf0      	pop	{r4, r5, r6, r7, pc}
   24f82:	a804      	add	r0, sp, #16
   24f84:	7800      	ldrb	r0, [r0, #0]
   24f86:	2802      	cmp	r0, #2
   24f88:	d00c      	beq.n	24fa4 <_ZN20complex_dynamic_type3app17haa8603ae0a663eb0E+0xe8>
   24f8a:	2803      	cmp	r0, #3
   24f8c:	d105      	bne.n	24f9a <_ZN20complex_dynamic_type3app17haa8603ae0a663eb0E+0xde>
   24f8e:	481e      	ldr	r0, [pc, #120]	@ (25008 <_ZN20complex_dynamic_type3app17haa8603ae0a663eb0E+0x14c>)
   24f90:	2108      	movs	r1, #8
   24f92:	2200      	movs	r2, #0
   24f94:	4613      	mov	r3, r2
   24f96:	df03      	svc	3
   24f98:	e004      	b.n	24fa4 <_ZN20complex_dynamic_type3app17haa8603ae0a663eb0E+0xe8>
   24f9a:	481b      	ldr	r0, [pc, #108]	@ (25008 <_ZN20complex_dynamic_type3app17haa8603ae0a663eb0E+0x14c>)
   24f9c:	2108      	movs	r1, #8
   24f9e:	2200      	movs	r2, #0
   24fa0:	4613      	mov	r3, r2
   24fa2:	df04      	svc	4
   24fa4:	a804      	add	r0, sp, #16
   24fa6:	9900      	ldr	r1, [sp, #0]
   24fa8:	7001      	strb	r1, [r0, #0]
   24faa:	a818      	add	r0, sp, #96	@ 0x60
   24fac:	7800      	ldrb	r0, [r0, #0]
   24fae:	2804      	cmp	r0, #4
   24fb0:	d007      	beq.n	24fc2 <_ZN20complex_dynamic_type3app17haa8603ae0a663eb0E+0x106>
   24fb2:	2803      	cmp	r0, #3
   24fb4:	d11d      	bne.n	24ff2 <_ZN20complex_dynamic_type3app17haa8603ae0a663eb0E+0x136>
   24fb6:	4814      	ldr	r0, [pc, #80]	@ (25008 <_ZN20complex_dynamic_type3app17haa8603ae0a663eb0E+0x14c>)
   24fb8:	2105      	movs	r1, #5
   24fba:	2200      	movs	r2, #0
   24fbc:	4613      	mov	r3, r2
   24fbe:	df03      	svc	3
   24fc0:	e004      	b.n	24fcc <_ZN20complex_dynamic_type3app17haa8603ae0a663eb0E+0x110>
   24fc2:	4811      	ldr	r0, [pc, #68]	@ (25008 <_ZN20complex_dynamic_type3app17haa8603ae0a663eb0E+0x14c>)
   24fc4:	2105      	movs	r1, #5
   24fc6:	2200      	movs	r2, #0
   24fc8:	4613      	mov	r3, r2
   24fca:	df04      	svc	4
   24fcc:	a804      	add	r0, sp, #16
   24fce:	7804      	ldrb	r4, [r0, #0]
   24fd0:	1c68      	adds	r0, r5, #1
   24fd2:	223b      	movs	r2, #59	@ 0x3b
   24fd4:	9901      	ldr	r1, [sp, #4]
   24fd6:	f006 f899 	bl	2b10c <__aeabi_memcpy>
   24fda:	702e      	strb	r6, [r5, #0]
   24fdc:	2c02      	cmp	r4, #2
   24fde:	d006      	beq.n	24fee <_ZN20complex_dynamic_type3app17haa8603ae0a663eb0E+0x132>
   24fe0:	4809      	ldr	r0, [pc, #36]	@ (25008 <_ZN20complex_dynamic_type3app17haa8603ae0a663eb0E+0x14c>)
   24fe2:	2108      	movs	r1, #8
   24fe4:	2200      	movs	r2, #0
   24fe6:	4613      	mov	r3, r2
   24fe8:	2c04      	cmp	r4, #4
   24fea:	d10a      	bne.n	25002 <_ZN20complex_dynamic_type3app17haa8603ae0a663eb0E+0x146>
   24fec:	df04      	svc	4
   24fee:	b027      	add	sp, #156	@ 0x9c
   24ff0:	bdf0      	pop	{r4, r5, r6, r7, pc}
   24ff2:	1c68      	adds	r0, r5, #1
   24ff4:	223b      	movs	r2, #59	@ 0x3b
   24ff6:	4621      	mov	r1, r4
   24ff8:	f006 f888 	bl	2b10c <__aeabi_memcpy>
   24ffc:	702e      	strb	r6, [r5, #0]
   24ffe:	b027      	add	sp, #156	@ 0x9c
   25000:	bdf0      	pop	{r4, r5, r6, r7, pc}
   25002:	df03      	svc	3
   25004:	b027      	add	sp, #156	@ 0x9c
   25006:	bdf0      	pop	{r4, r5, r6, r7, pc}
   25008:	00000a06 	.word	0x00000a06

0002500c <_ZN20complex_dynamic_type3app17haaf9c256bc4cc903E>:
   2500c:	b5f0      	push	{r4, r5, r6, r7, lr}
   2500e:	af03      	add	r7, sp, #12
   25010:	b0ad      	sub	sp, #180	@ 0xb4
   25012:	9003      	str	r0, [sp, #12]
   25014:	a804      	add	r0, sp, #16
   25016:	2402      	movs	r4, #2
   25018:	7004      	strb	r4, [r0, #0]
   2501a:	1c46      	adds	r6, r0, #1
   2501c:	2253      	movs	r2, #83	@ 0x53
   2501e:	9202      	str	r2, [sp, #8]
   25020:	4630      	mov	r0, r6
   25022:	f006 f873 	bl	2b10c <__aeabi_memcpy>
   25026:	ad19      	add	r5, sp, #100	@ 0x64
   25028:	1c68      	adds	r0, r5, #1
   2502a:	214d      	movs	r1, #77	@ 0x4d
   2502c:	9001      	str	r0, [sp, #4]
   2502e:	f005 fead 	bl	2ad8c <__aeabi_memclr>
   25032:	9400      	str	r4, [sp, #0]
   25034:	702c      	strb	r4, [r5, #0]
   25036:	4848      	ldr	r0, [pc, #288]	@ (25158 <_ZN20complex_dynamic_type3app17haaf9c256bc4cc903E+0x14c>)
   25038:	2109      	movs	r1, #9
   2503a:	4632      	mov	r2, r6
   2503c:	9b02      	ldr	r3, [sp, #8]
   2503e:	df04      	svc	4
   25040:	2802      	cmp	r0, #2
   25042:	d104      	bne.n	2504e <_ZN20complex_dynamic_type3app17haaf9c256bc4cc903E+0x42>
   25044:	2001      	movs	r0, #1
   25046:	9a03      	ldr	r2, [sp, #12]
   25048:	7010      	strb	r0, [r2, #0]
   2504a:	6051      	str	r1, [r2, #4]
   2504c:	e02c      	b.n	250a8 <_ZN20complex_dynamic_type3app17haaf9c256bc4cc903E+0x9c>
   2504e:	9d03      	ldr	r5, [sp, #12]
   25050:	a804      	add	r0, sp, #16
   25052:	2104      	movs	r1, #4
   25054:	7001      	strb	r1, [r0, #0]
   25056:	4840      	ldr	r0, [pc, #256]	@ (25158 <_ZN20complex_dynamic_type3app17haaf9c256bc4cc903E+0x14c>)
   25058:	234d      	movs	r3, #77	@ 0x4d
   2505a:	9c01      	ldr	r4, [sp, #4]
   2505c:	4622      	mov	r2, r4
   2505e:	df03      	svc	3
   25060:	2802      	cmp	r0, #2
   25062:	d10e      	bne.n	25082 <_ZN20complex_dynamic_type3app17haaf9c256bc4cc903E+0x76>
   25064:	2001      	movs	r0, #1
   25066:	7028      	strb	r0, [r5, #0]
   25068:	6069      	str	r1, [r5, #4]
   2506a:	a819      	add	r0, sp, #100	@ 0x64
   2506c:	7800      	ldrb	r0, [r0, #0]
   2506e:	2802      	cmp	r0, #2
   25070:	d01a      	beq.n	250a8 <_ZN20complex_dynamic_type3app17haaf9c256bc4cc903E+0x9c>
   25072:	2803      	cmp	r0, #3
   25074:	d013      	beq.n	2509e <_ZN20complex_dynamic_type3app17haaf9c256bc4cc903E+0x92>
   25076:	4838      	ldr	r0, [pc, #224]	@ (25158 <_ZN20complex_dynamic_type3app17haaf9c256bc4cc903E+0x14c>)
   25078:	2104      	movs	r1, #4
   2507a:	2200      	movs	r2, #0
   2507c:	4613      	mov	r3, r2
   2507e:	df04      	svc	4
   25080:	e012      	b.n	250a8 <_ZN20complex_dynamic_type3app17haaf9c256bc4cc903E+0x9c>
   25082:	a819      	add	r0, sp, #100	@ 0x64
   25084:	2103      	movs	r1, #3
   25086:	7001      	strb	r1, [r0, #0]
   25088:	4833      	ldr	r0, [pc, #204]	@ (25158 <_ZN20complex_dynamic_type3app17haaf9c256bc4cc903E+0x14c>)
   2508a:	2109      	movs	r1, #9
   2508c:	2204      	movs	r2, #4
   2508e:	2600      	movs	r6, #0
   25090:	4633      	mov	r3, r6
   25092:	df02      	svc	2
   25094:	2880      	cmp	r0, #128	@ 0x80
   25096:	d21b      	bcs.n	250d0 <_ZN20complex_dynamic_type3app17haaf9c256bc4cc903E+0xc4>
   25098:	2001      	movs	r0, #1
   2509a:	7028      	strb	r0, [r5, #0]
   2509c:	6069      	str	r1, [r5, #4]
   2509e:	482e      	ldr	r0, [pc, #184]	@ (25158 <_ZN20complex_dynamic_type3app17haaf9c256bc4cc903E+0x14c>)
   250a0:	2104      	movs	r1, #4
   250a2:	2200      	movs	r2, #0
   250a4:	4613      	mov	r3, r2
   250a6:	df03      	svc	3
   250a8:	a804      	add	r0, sp, #16
   250aa:	7800      	ldrb	r0, [r0, #0]
   250ac:	2802      	cmp	r0, #2
   250ae:	d045      	beq.n	2513c <_ZN20complex_dynamic_type3app17haaf9c256bc4cc903E+0x130>
   250b0:	2804      	cmp	r0, #4
   250b2:	d106      	bne.n	250c2 <_ZN20complex_dynamic_type3app17haaf9c256bc4cc903E+0xb6>
   250b4:	4828      	ldr	r0, [pc, #160]	@ (25158 <_ZN20complex_dynamic_type3app17haaf9c256bc4cc903E+0x14c>)
   250b6:	2109      	movs	r1, #9
   250b8:	2200      	movs	r2, #0
   250ba:	4613      	mov	r3, r2
   250bc:	df04      	svc	4
   250be:	b02d      	add	sp, #180	@ 0xb4
   250c0:	bdf0      	pop	{r4, r5, r6, r7, pc}
   250c2:	4825      	ldr	r0, [pc, #148]	@ (25158 <_ZN20complex_dynamic_type3app17haaf9c256bc4cc903E+0x14c>)
   250c4:	2109      	movs	r1, #9
   250c6:	2200      	movs	r2, #0
   250c8:	4613      	mov	r3, r2
   250ca:	df03      	svc	3
   250cc:	b02d      	add	sp, #180	@ 0xb4
   250ce:	bdf0      	pop	{r4, r5, r6, r7, pc}
   250d0:	a804      	add	r0, sp, #16
   250d2:	7800      	ldrb	r0, [r0, #0]
   250d4:	2802      	cmp	r0, #2
   250d6:	d00c      	beq.n	250f2 <_ZN20complex_dynamic_type3app17haaf9c256bc4cc903E+0xe6>
   250d8:	2803      	cmp	r0, #3
   250da:	d105      	bne.n	250e8 <_ZN20complex_dynamic_type3app17haaf9c256bc4cc903E+0xdc>
   250dc:	481e      	ldr	r0, [pc, #120]	@ (25158 <_ZN20complex_dynamic_type3app17haaf9c256bc4cc903E+0x14c>)
   250de:	2109      	movs	r1, #9
   250e0:	2200      	movs	r2, #0
   250e2:	4613      	mov	r3, r2
   250e4:	df03      	svc	3
   250e6:	e004      	b.n	250f2 <_ZN20complex_dynamic_type3app17haaf9c256bc4cc903E+0xe6>
   250e8:	481b      	ldr	r0, [pc, #108]	@ (25158 <_ZN20complex_dynamic_type3app17haaf9c256bc4cc903E+0x14c>)
   250ea:	2109      	movs	r1, #9
   250ec:	2200      	movs	r2, #0
   250ee:	4613      	mov	r3, r2
   250f0:	df04      	svc	4
   250f2:	a804      	add	r0, sp, #16
   250f4:	9900      	ldr	r1, [sp, #0]
   250f6:	7001      	strb	r1, [r0, #0]
   250f8:	a819      	add	r0, sp, #100	@ 0x64
   250fa:	7800      	ldrb	r0, [r0, #0]
   250fc:	2804      	cmp	r0, #4
   250fe:	d007      	beq.n	25110 <_ZN20complex_dynamic_type3app17haaf9c256bc4cc903E+0x104>
   25100:	2803      	cmp	r0, #3
   25102:	d11d      	bne.n	25140 <_ZN20complex_dynamic_type3app17haaf9c256bc4cc903E+0x134>
   25104:	4814      	ldr	r0, [pc, #80]	@ (25158 <_ZN20complex_dynamic_type3app17haaf9c256bc4cc903E+0x14c>)
   25106:	2104      	movs	r1, #4
   25108:	2200      	movs	r2, #0
   2510a:	4613      	mov	r3, r2
   2510c:	df03      	svc	3
   2510e:	e004      	b.n	2511a <_ZN20complex_dynamic_type3app17haaf9c256bc4cc903E+0x10e>
   25110:	4811      	ldr	r0, [pc, #68]	@ (25158 <_ZN20complex_dynamic_type3app17haaf9c256bc4cc903E+0x14c>)
   25112:	2104      	movs	r1, #4
   25114:	2200      	movs	r2, #0
   25116:	4613      	mov	r3, r2
   25118:	df04      	svc	4
   2511a:	a804      	add	r0, sp, #16
   2511c:	7804      	ldrb	r4, [r0, #0]
   2511e:	1c68      	adds	r0, r5, #1
   25120:	224d      	movs	r2, #77	@ 0x4d
   25122:	9901      	ldr	r1, [sp, #4]
   25124:	f005 fff2 	bl	2b10c <__aeabi_memcpy>
   25128:	702e      	strb	r6, [r5, #0]
   2512a:	2c02      	cmp	r4, #2
   2512c:	d006      	beq.n	2513c <_ZN20complex_dynamic_type3app17haaf9c256bc4cc903E+0x130>
   2512e:	480a      	ldr	r0, [pc, #40]	@ (25158 <_ZN20complex_dynamic_type3app17haaf9c256bc4cc903E+0x14c>)
   25130:	2109      	movs	r1, #9
   25132:	2200      	movs	r2, #0
   25134:	4613      	mov	r3, r2
   25136:	2c04      	cmp	r4, #4
   25138:	d10a      	bne.n	25150 <_ZN20complex_dynamic_type3app17haaf9c256bc4cc903E+0x144>
   2513a:	df04      	svc	4
   2513c:	b02d      	add	sp, #180	@ 0xb4
   2513e:	bdf0      	pop	{r4, r5, r6, r7, pc}
   25140:	1c68      	adds	r0, r5, #1
   25142:	224d      	movs	r2, #77	@ 0x4d
   25144:	4621      	mov	r1, r4
   25146:	f005 ffe1 	bl	2b10c <__aeabi_memcpy>
   2514a:	702e      	strb	r6, [r5, #0]
   2514c:	b02d      	add	sp, #180	@ 0xb4
   2514e:	bdf0      	pop	{r4, r5, r6, r7, pc}
   25150:	df03      	svc	3
   25152:	b02d      	add	sp, #180	@ 0xb4
   25154:	bdf0      	pop	{r4, r5, r6, r7, pc}
   25156:	46c0      	nop			@ (mov r8, r8)
   25158:	000016ba 	.word	0x000016ba

0002515c <_ZN20complex_dynamic_type3app17hababc3a3b6a2ea48E>:
   2515c:	b5f0      	push	{r4, r5, r6, r7, lr}
   2515e:	af03      	add	r7, sp, #12
   25160:	b09d      	sub	sp, #116	@ 0x74
   25162:	9004      	str	r0, [sp, #16]
   25164:	a805      	add	r0, sp, #20
   25166:	2402      	movs	r4, #2
   25168:	7004      	strb	r4, [r0, #0]
   2516a:	1c46      	adds	r6, r0, #1
   2516c:	223f      	movs	r2, #63	@ 0x3f
   2516e:	9203      	str	r2, [sp, #12]
   25170:	4630      	mov	r0, r6
   25172:	f005 ffcb 	bl	2b10c <__aeabi_memcpy>
   25176:	ad15      	add	r5, sp, #84	@ 0x54
   25178:	1c68      	adds	r0, r5, #1
   2517a:	211c      	movs	r1, #28
   2517c:	9002      	str	r0, [sp, #8]
   2517e:	f005 fe05 	bl	2ad8c <__aeabi_memclr>
   25182:	9401      	str	r4, [sp, #4]
   25184:	702c      	strb	r4, [r5, #0]
   25186:	4848      	ldr	r0, [pc, #288]	@ (252a8 <_ZN20complex_dynamic_type3app17hababc3a3b6a2ea48E+0x14c>)
   25188:	2105      	movs	r1, #5
   2518a:	4632      	mov	r2, r6
   2518c:	9b03      	ldr	r3, [sp, #12]
   2518e:	df04      	svc	4
   25190:	2802      	cmp	r0, #2
   25192:	d104      	bne.n	2519e <_ZN20complex_dynamic_type3app17hababc3a3b6a2ea48E+0x42>
   25194:	2001      	movs	r0, #1
   25196:	9a04      	ldr	r2, [sp, #16]
   25198:	7010      	strb	r0, [r2, #0]
   2519a:	6051      	str	r1, [r2, #4]
   2519c:	e02d      	b.n	251fa <_ZN20complex_dynamic_type3app17hababc3a3b6a2ea48E+0x9e>
   2519e:	9d04      	ldr	r5, [sp, #16]
   251a0:	a805      	add	r0, sp, #20
   251a2:	2104      	movs	r1, #4
   251a4:	7001      	strb	r1, [r0, #0]
   251a6:	4840      	ldr	r0, [pc, #256]	@ (252a8 <_ZN20complex_dynamic_type3app17hababc3a3b6a2ea48E+0x14c>)
   251a8:	2109      	movs	r1, #9
   251aa:	231c      	movs	r3, #28
   251ac:	9c02      	ldr	r4, [sp, #8]
   251ae:	4622      	mov	r2, r4
   251b0:	df03      	svc	3
   251b2:	2802      	cmp	r0, #2
   251b4:	d10e      	bne.n	251d4 <_ZN20complex_dynamic_type3app17hababc3a3b6a2ea48E+0x78>
   251b6:	2001      	movs	r0, #1
   251b8:	7028      	strb	r0, [r5, #0]
   251ba:	6069      	str	r1, [r5, #4]
   251bc:	a815      	add	r0, sp, #84	@ 0x54
   251be:	7800      	ldrb	r0, [r0, #0]
   251c0:	2802      	cmp	r0, #2
   251c2:	d01a      	beq.n	251fa <_ZN20complex_dynamic_type3app17hababc3a3b6a2ea48E+0x9e>
   251c4:	2803      	cmp	r0, #3
   251c6:	d013      	beq.n	251f0 <_ZN20complex_dynamic_type3app17hababc3a3b6a2ea48E+0x94>
   251c8:	4837      	ldr	r0, [pc, #220]	@ (252a8 <_ZN20complex_dynamic_type3app17hababc3a3b6a2ea48E+0x14c>)
   251ca:	2109      	movs	r1, #9
   251cc:	2200      	movs	r2, #0
   251ce:	4613      	mov	r3, r2
   251d0:	df04      	svc	4
   251d2:	e012      	b.n	251fa <_ZN20complex_dynamic_type3app17hababc3a3b6a2ea48E+0x9e>
   251d4:	a815      	add	r0, sp, #84	@ 0x54
   251d6:	2103      	movs	r1, #3
   251d8:	7001      	strb	r1, [r0, #0]
   251da:	4833      	ldr	r0, [pc, #204]	@ (252a8 <_ZN20complex_dynamic_type3app17hababc3a3b6a2ea48E+0x14c>)
   251dc:	2105      	movs	r1, #5
   251de:	2209      	movs	r2, #9
   251e0:	2600      	movs	r6, #0
   251e2:	4633      	mov	r3, r6
   251e4:	df02      	svc	2
   251e6:	2880      	cmp	r0, #128	@ 0x80
   251e8:	d21b      	bcs.n	25222 <_ZN20complex_dynamic_type3app17hababc3a3b6a2ea48E+0xc6>
   251ea:	2001      	movs	r0, #1
   251ec:	7028      	strb	r0, [r5, #0]
   251ee:	6069      	str	r1, [r5, #4]
   251f0:	482d      	ldr	r0, [pc, #180]	@ (252a8 <_ZN20complex_dynamic_type3app17hababc3a3b6a2ea48E+0x14c>)
   251f2:	2109      	movs	r1, #9
   251f4:	2200      	movs	r2, #0
   251f6:	4613      	mov	r3, r2
   251f8:	df03      	svc	3
   251fa:	a805      	add	r0, sp, #20
   251fc:	7800      	ldrb	r0, [r0, #0]
   251fe:	2802      	cmp	r0, #2
   25200:	d045      	beq.n	2528e <_ZN20complex_dynamic_type3app17hababc3a3b6a2ea48E+0x132>
   25202:	2804      	cmp	r0, #4
   25204:	d106      	bne.n	25214 <_ZN20complex_dynamic_type3app17hababc3a3b6a2ea48E+0xb8>
   25206:	4828      	ldr	r0, [pc, #160]	@ (252a8 <_ZN20complex_dynamic_type3app17hababc3a3b6a2ea48E+0x14c>)
   25208:	2105      	movs	r1, #5
   2520a:	2200      	movs	r2, #0
   2520c:	4613      	mov	r3, r2
   2520e:	df04      	svc	4
   25210:	b01d      	add	sp, #116	@ 0x74
   25212:	bdf0      	pop	{r4, r5, r6, r7, pc}
   25214:	4824      	ldr	r0, [pc, #144]	@ (252a8 <_ZN20complex_dynamic_type3app17hababc3a3b6a2ea48E+0x14c>)
   25216:	2105      	movs	r1, #5
   25218:	2200      	movs	r2, #0
   2521a:	4613      	mov	r3, r2
   2521c:	df03      	svc	3
   2521e:	b01d      	add	sp, #116	@ 0x74
   25220:	bdf0      	pop	{r4, r5, r6, r7, pc}
   25222:	a805      	add	r0, sp, #20
   25224:	7800      	ldrb	r0, [r0, #0]
   25226:	2802      	cmp	r0, #2
   25228:	d00c      	beq.n	25244 <_ZN20complex_dynamic_type3app17hababc3a3b6a2ea48E+0xe8>
   2522a:	2803      	cmp	r0, #3
   2522c:	d105      	bne.n	2523a <_ZN20complex_dynamic_type3app17hababc3a3b6a2ea48E+0xde>
   2522e:	481e      	ldr	r0, [pc, #120]	@ (252a8 <_ZN20complex_dynamic_type3app17hababc3a3b6a2ea48E+0x14c>)
   25230:	2105      	movs	r1, #5
   25232:	2200      	movs	r2, #0
   25234:	4613      	mov	r3, r2
   25236:	df03      	svc	3
   25238:	e004      	b.n	25244 <_ZN20complex_dynamic_type3app17hababc3a3b6a2ea48E+0xe8>
   2523a:	481b      	ldr	r0, [pc, #108]	@ (252a8 <_ZN20complex_dynamic_type3app17hababc3a3b6a2ea48E+0x14c>)
   2523c:	2105      	movs	r1, #5
   2523e:	2200      	movs	r2, #0
   25240:	4613      	mov	r3, r2
   25242:	df04      	svc	4
   25244:	a805      	add	r0, sp, #20
   25246:	9901      	ldr	r1, [sp, #4]
   25248:	7001      	strb	r1, [r0, #0]
   2524a:	a815      	add	r0, sp, #84	@ 0x54
   2524c:	7800      	ldrb	r0, [r0, #0]
   2524e:	2804      	cmp	r0, #4
   25250:	d007      	beq.n	25262 <_ZN20complex_dynamic_type3app17hababc3a3b6a2ea48E+0x106>
   25252:	2803      	cmp	r0, #3
   25254:	d11d      	bne.n	25292 <_ZN20complex_dynamic_type3app17hababc3a3b6a2ea48E+0x136>
   25256:	4814      	ldr	r0, [pc, #80]	@ (252a8 <_ZN20complex_dynamic_type3app17hababc3a3b6a2ea48E+0x14c>)
   25258:	2109      	movs	r1, #9
   2525a:	2200      	movs	r2, #0
   2525c:	4613      	mov	r3, r2
   2525e:	df03      	svc	3
   25260:	e004      	b.n	2526c <_ZN20complex_dynamic_type3app17hababc3a3b6a2ea48E+0x110>
   25262:	4811      	ldr	r0, [pc, #68]	@ (252a8 <_ZN20complex_dynamic_type3app17hababc3a3b6a2ea48E+0x14c>)
   25264:	2109      	movs	r1, #9
   25266:	2200      	movs	r2, #0
   25268:	4613      	mov	r3, r2
   2526a:	df04      	svc	4
   2526c:	a805      	add	r0, sp, #20
   2526e:	7804      	ldrb	r4, [r0, #0]
   25270:	1c68      	adds	r0, r5, #1
   25272:	221c      	movs	r2, #28
   25274:	9902      	ldr	r1, [sp, #8]
   25276:	f005 ff49 	bl	2b10c <__aeabi_memcpy>
   2527a:	702e      	strb	r6, [r5, #0]
   2527c:	2c02      	cmp	r4, #2
   2527e:	d006      	beq.n	2528e <_ZN20complex_dynamic_type3app17hababc3a3b6a2ea48E+0x132>
   25280:	4809      	ldr	r0, [pc, #36]	@ (252a8 <_ZN20complex_dynamic_type3app17hababc3a3b6a2ea48E+0x14c>)
   25282:	2105      	movs	r1, #5
   25284:	2200      	movs	r2, #0
   25286:	4613      	mov	r3, r2
   25288:	2c04      	cmp	r4, #4
   2528a:	d10a      	bne.n	252a2 <_ZN20complex_dynamic_type3app17hababc3a3b6a2ea48E+0x146>
   2528c:	df04      	svc	4
   2528e:	b01d      	add	sp, #116	@ 0x74
   25290:	bdf0      	pop	{r4, r5, r6, r7, pc}
   25292:	1c68      	adds	r0, r5, #1
   25294:	221c      	movs	r2, #28
   25296:	4621      	mov	r1, r4
   25298:	f005 ff38 	bl	2b10c <__aeabi_memcpy>
   2529c:	702e      	strb	r6, [r5, #0]
   2529e:	b01d      	add	sp, #116	@ 0x74
   252a0:	bdf0      	pop	{r4, r5, r6, r7, pc}
   252a2:	df03      	svc	3
   252a4:	b01d      	add	sp, #116	@ 0x74
   252a6:	bdf0      	pop	{r4, r5, r6, r7, pc}
   252a8:	00001694 	.word	0x00001694

000252ac <_ZN20complex_dynamic_type3app17hac7a53d3f13c6b33E>:
   252ac:	b5f0      	push	{r4, r5, r6, r7, lr}
   252ae:	af03      	add	r7, sp, #12
   252b0:	b0a7      	sub	sp, #156	@ 0x9c
   252b2:	9003      	str	r0, [sp, #12]
   252b4:	a804      	add	r0, sp, #16
   252b6:	2402      	movs	r4, #2
   252b8:	7004      	strb	r4, [r0, #0]
   252ba:	1c46      	adds	r6, r0, #1
   252bc:	2255      	movs	r2, #85	@ 0x55
   252be:	9202      	str	r2, [sp, #8]
   252c0:	4630      	mov	r0, r6
   252c2:	f005 ff23 	bl	2b10c <__aeabi_memcpy>
   252c6:	ad1a      	add	r5, sp, #104	@ 0x68
   252c8:	1c68      	adds	r0, r5, #1
   252ca:	2132      	movs	r1, #50	@ 0x32
   252cc:	9001      	str	r0, [sp, #4]
   252ce:	f005 fd5d 	bl	2ad8c <__aeabi_memclr>
   252d2:	9400      	str	r4, [sp, #0]
   252d4:	702c      	strb	r4, [r5, #0]
   252d6:	4848      	ldr	r0, [pc, #288]	@ (253f8 <_ZN20complex_dynamic_type3app17hac7a53d3f13c6b33E+0x14c>)
   252d8:	2108      	movs	r1, #8
   252da:	4632      	mov	r2, r6
   252dc:	9b02      	ldr	r3, [sp, #8]
   252de:	df04      	svc	4
   252e0:	2802      	cmp	r0, #2
   252e2:	d104      	bne.n	252ee <_ZN20complex_dynamic_type3app17hac7a53d3f13c6b33E+0x42>
   252e4:	2001      	movs	r0, #1
   252e6:	9a03      	ldr	r2, [sp, #12]
   252e8:	7010      	strb	r0, [r2, #0]
   252ea:	6051      	str	r1, [r2, #4]
   252ec:	e02d      	b.n	2534a <_ZN20complex_dynamic_type3app17hac7a53d3f13c6b33E+0x9e>
   252ee:	9d03      	ldr	r5, [sp, #12]
   252f0:	a804      	add	r0, sp, #16
   252f2:	2104      	movs	r1, #4
   252f4:	7001      	strb	r1, [r0, #0]
   252f6:	4840      	ldr	r0, [pc, #256]	@ (253f8 <_ZN20complex_dynamic_type3app17hac7a53d3f13c6b33E+0x14c>)
   252f8:	2108      	movs	r1, #8
   252fa:	2332      	movs	r3, #50	@ 0x32
   252fc:	9c01      	ldr	r4, [sp, #4]
   252fe:	4622      	mov	r2, r4
   25300:	df03      	svc	3
   25302:	2802      	cmp	r0, #2
   25304:	d10e      	bne.n	25324 <_ZN20complex_dynamic_type3app17hac7a53d3f13c6b33E+0x78>
   25306:	2001      	movs	r0, #1
   25308:	7028      	strb	r0, [r5, #0]
   2530a:	6069      	str	r1, [r5, #4]
   2530c:	a81a      	add	r0, sp, #104	@ 0x68
   2530e:	7800      	ldrb	r0, [r0, #0]
   25310:	2802      	cmp	r0, #2
   25312:	d01a      	beq.n	2534a <_ZN20complex_dynamic_type3app17hac7a53d3f13c6b33E+0x9e>
   25314:	2803      	cmp	r0, #3
   25316:	d013      	beq.n	25340 <_ZN20complex_dynamic_type3app17hac7a53d3f13c6b33E+0x94>
   25318:	4837      	ldr	r0, [pc, #220]	@ (253f8 <_ZN20complex_dynamic_type3app17hac7a53d3f13c6b33E+0x14c>)
   2531a:	2108      	movs	r1, #8
   2531c:	2200      	movs	r2, #0
   2531e:	4613      	mov	r3, r2
   25320:	df04      	svc	4
   25322:	e012      	b.n	2534a <_ZN20complex_dynamic_type3app17hac7a53d3f13c6b33E+0x9e>
   25324:	a81a      	add	r0, sp, #104	@ 0x68
   25326:	2103      	movs	r1, #3
   25328:	7001      	strb	r1, [r0, #0]
   2532a:	4833      	ldr	r0, [pc, #204]	@ (253f8 <_ZN20complex_dynamic_type3app17hac7a53d3f13c6b33E+0x14c>)
   2532c:	2108      	movs	r1, #8
   2532e:	2600      	movs	r6, #0
   25330:	460a      	mov	r2, r1
   25332:	4633      	mov	r3, r6
   25334:	df02      	svc	2
   25336:	2880      	cmp	r0, #128	@ 0x80
   25338:	d21b      	bcs.n	25372 <_ZN20complex_dynamic_type3app17hac7a53d3f13c6b33E+0xc6>
   2533a:	2001      	movs	r0, #1
   2533c:	7028      	strb	r0, [r5, #0]
   2533e:	6069      	str	r1, [r5, #4]
   25340:	482d      	ldr	r0, [pc, #180]	@ (253f8 <_ZN20complex_dynamic_type3app17hac7a53d3f13c6b33E+0x14c>)
   25342:	2108      	movs	r1, #8
   25344:	2200      	movs	r2, #0
   25346:	4613      	mov	r3, r2
   25348:	df03      	svc	3
   2534a:	a804      	add	r0, sp, #16
   2534c:	7800      	ldrb	r0, [r0, #0]
   2534e:	2802      	cmp	r0, #2
   25350:	d045      	beq.n	253de <_ZN20complex_dynamic_type3app17hac7a53d3f13c6b33E+0x132>
   25352:	2804      	cmp	r0, #4
   25354:	d106      	bne.n	25364 <_ZN20complex_dynamic_type3app17hac7a53d3f13c6b33E+0xb8>
   25356:	4828      	ldr	r0, [pc, #160]	@ (253f8 <_ZN20complex_dynamic_type3app17hac7a53d3f13c6b33E+0x14c>)
   25358:	2108      	movs	r1, #8
   2535a:	2200      	movs	r2, #0
   2535c:	4613      	mov	r3, r2
   2535e:	df04      	svc	4
   25360:	b027      	add	sp, #156	@ 0x9c
   25362:	bdf0      	pop	{r4, r5, r6, r7, pc}
   25364:	4824      	ldr	r0, [pc, #144]	@ (253f8 <_ZN20complex_dynamic_type3app17hac7a53d3f13c6b33E+0x14c>)
   25366:	2108      	movs	r1, #8
   25368:	2200      	movs	r2, #0
   2536a:	4613      	mov	r3, r2
   2536c:	df03      	svc	3
   2536e:	b027      	add	sp, #156	@ 0x9c
   25370:	bdf0      	pop	{r4, r5, r6, r7, pc}
   25372:	a804      	add	r0, sp, #16
   25374:	7800      	ldrb	r0, [r0, #0]
   25376:	2802      	cmp	r0, #2
   25378:	d00c      	beq.n	25394 <_ZN20complex_dynamic_type3app17hac7a53d3f13c6b33E+0xe8>
   2537a:	2803      	cmp	r0, #3
   2537c:	d105      	bne.n	2538a <_ZN20complex_dynamic_type3app17hac7a53d3f13c6b33E+0xde>
   2537e:	481e      	ldr	r0, [pc, #120]	@ (253f8 <_ZN20complex_dynamic_type3app17hac7a53d3f13c6b33E+0x14c>)
   25380:	2108      	movs	r1, #8
   25382:	2200      	movs	r2, #0
   25384:	4613      	mov	r3, r2
   25386:	df03      	svc	3
   25388:	e004      	b.n	25394 <_ZN20complex_dynamic_type3app17hac7a53d3f13c6b33E+0xe8>
   2538a:	481b      	ldr	r0, [pc, #108]	@ (253f8 <_ZN20complex_dynamic_type3app17hac7a53d3f13c6b33E+0x14c>)
   2538c:	2108      	movs	r1, #8
   2538e:	2200      	movs	r2, #0
   25390:	4613      	mov	r3, r2
   25392:	df04      	svc	4
   25394:	a804      	add	r0, sp, #16
   25396:	9900      	ldr	r1, [sp, #0]
   25398:	7001      	strb	r1, [r0, #0]
   2539a:	a81a      	add	r0, sp, #104	@ 0x68
   2539c:	7800      	ldrb	r0, [r0, #0]
   2539e:	2804      	cmp	r0, #4
   253a0:	d007      	beq.n	253b2 <_ZN20complex_dynamic_type3app17hac7a53d3f13c6b33E+0x106>
   253a2:	2803      	cmp	r0, #3
   253a4:	d11d      	bne.n	253e2 <_ZN20complex_dynamic_type3app17hac7a53d3f13c6b33E+0x136>
   253a6:	4814      	ldr	r0, [pc, #80]	@ (253f8 <_ZN20complex_dynamic_type3app17hac7a53d3f13c6b33E+0x14c>)
   253a8:	2108      	movs	r1, #8
   253aa:	2200      	movs	r2, #0
   253ac:	4613      	mov	r3, r2
   253ae:	df03      	svc	3
   253b0:	e004      	b.n	253bc <_ZN20complex_dynamic_type3app17hac7a53d3f13c6b33E+0x110>
   253b2:	4811      	ldr	r0, [pc, #68]	@ (253f8 <_ZN20complex_dynamic_type3app17hac7a53d3f13c6b33E+0x14c>)
   253b4:	2108      	movs	r1, #8
   253b6:	2200      	movs	r2, #0
   253b8:	4613      	mov	r3, r2
   253ba:	df04      	svc	4
   253bc:	a804      	add	r0, sp, #16
   253be:	7804      	ldrb	r4, [r0, #0]
   253c0:	1c68      	adds	r0, r5, #1
   253c2:	2232      	movs	r2, #50	@ 0x32
   253c4:	9901      	ldr	r1, [sp, #4]
   253c6:	f005 fea1 	bl	2b10c <__aeabi_memcpy>
   253ca:	702e      	strb	r6, [r5, #0]
   253cc:	2c02      	cmp	r4, #2
   253ce:	d006      	beq.n	253de <_ZN20complex_dynamic_type3app17hac7a53d3f13c6b33E+0x132>
   253d0:	4809      	ldr	r0, [pc, #36]	@ (253f8 <_ZN20complex_dynamic_type3app17hac7a53d3f13c6b33E+0x14c>)
   253d2:	2108      	movs	r1, #8
   253d4:	2200      	movs	r2, #0
   253d6:	4613      	mov	r3, r2
   253d8:	2c04      	cmp	r4, #4
   253da:	d10a      	bne.n	253f2 <_ZN20complex_dynamic_type3app17hac7a53d3f13c6b33E+0x146>
   253dc:	df04      	svc	4
   253de:	b027      	add	sp, #156	@ 0x9c
   253e0:	bdf0      	pop	{r4, r5, r6, r7, pc}
   253e2:	1c68      	adds	r0, r5, #1
   253e4:	2232      	movs	r2, #50	@ 0x32
   253e6:	4621      	mov	r1, r4
   253e8:	f005 fe90 	bl	2b10c <__aeabi_memcpy>
   253ec:	702e      	strb	r6, [r5, #0]
   253ee:	b027      	add	sp, #156	@ 0x9c
   253f0:	bdf0      	pop	{r4, r5, r6, r7, pc}
   253f2:	df03      	svc	3
   253f4:	b027      	add	sp, #156	@ 0x9c
   253f6:	bdf0      	pop	{r4, r5, r6, r7, pc}
   253f8:	00002095 	.word	0x00002095

000253fc <_ZN20complex_dynamic_type3app17hae5fefd81595f1ecE>:
   253fc:	b5f0      	push	{r4, r5, r6, r7, lr}
   253fe:	af03      	add	r7, sp, #12
   25400:	b095      	sub	sp, #84	@ 0x54
   25402:	9003      	str	r0, [sp, #12]
   25404:	a804      	add	r0, sp, #16
   25406:	2502      	movs	r5, #2
   25408:	7005      	strb	r5, [r0, #0]
   2540a:	1c40      	adds	r0, r0, #1
   2540c:	9002      	str	r0, [sp, #8]
   2540e:	2625      	movs	r6, #37	@ 0x25
   25410:	4632      	mov	r2, r6
   25412:	f005 fe7b 	bl	2b10c <__aeabi_memcpy>
   25416:	ac0e      	add	r4, sp, #56	@ 0x38
   25418:	1c60      	adds	r0, r4, #1
   2541a:	2118      	movs	r1, #24
   2541c:	9001      	str	r0, [sp, #4]
   2541e:	f005 fcb5 	bl	2ad8c <__aeabi_memclr>
   25422:	9500      	str	r5, [sp, #0]
   25424:	7025      	strb	r5, [r4, #0]
   25426:	20a7      	movs	r0, #167	@ 0xa7
   25428:	0104      	lsls	r4, r0, #4
   2542a:	2109      	movs	r1, #9
   2542c:	4620      	mov	r0, r4
   2542e:	9a02      	ldr	r2, [sp, #8]
   25430:	4633      	mov	r3, r6
   25432:	df04      	svc	4
   25434:	2802      	cmp	r0, #2
   25436:	d104      	bne.n	25442 <_ZN20complex_dynamic_type3app17hae5fefd81595f1ecE+0x46>
   25438:	2001      	movs	r0, #1
   2543a:	9a03      	ldr	r2, [sp, #12]
   2543c:	7010      	strb	r0, [r2, #0]
   2543e:	6051      	str	r1, [r2, #4]
   25440:	e02d      	b.n	2549e <_ZN20complex_dynamic_type3app17hae5fefd81595f1ecE+0xa2>
   25442:	9e03      	ldr	r6, [sp, #12]
   25444:	a804      	add	r0, sp, #16
   25446:	2104      	movs	r1, #4
   25448:	7001      	strb	r1, [r0, #0]
   2544a:	2108      	movs	r1, #8
   2544c:	2318      	movs	r3, #24
   2544e:	4620      	mov	r0, r4
   25450:	9d01      	ldr	r5, [sp, #4]
   25452:	462a      	mov	r2, r5
   25454:	df03      	svc	3
   25456:	2802      	cmp	r0, #2
   25458:	d10e      	bne.n	25478 <_ZN20complex_dynamic_type3app17hae5fefd81595f1ecE+0x7c>
   2545a:	2001      	movs	r0, #1
   2545c:	7030      	strb	r0, [r6, #0]
   2545e:	6071      	str	r1, [r6, #4]
   25460:	a80e      	add	r0, sp, #56	@ 0x38
   25462:	7800      	ldrb	r0, [r0, #0]
   25464:	2802      	cmp	r0, #2
   25466:	d01a      	beq.n	2549e <_ZN20complex_dynamic_type3app17hae5fefd81595f1ecE+0xa2>
   25468:	2803      	cmp	r0, #3
   2546a:	d013      	beq.n	25494 <_ZN20complex_dynamic_type3app17hae5fefd81595f1ecE+0x98>
   2546c:	2108      	movs	r1, #8
   2546e:	2200      	movs	r2, #0
   25470:	4620      	mov	r0, r4
   25472:	4613      	mov	r3, r2
   25474:	df04      	svc	4
   25476:	e012      	b.n	2549e <_ZN20complex_dynamic_type3app17hae5fefd81595f1ecE+0xa2>
   25478:	a80e      	add	r0, sp, #56	@ 0x38
   2547a:	2103      	movs	r1, #3
   2547c:	7001      	strb	r1, [r0, #0]
   2547e:	2109      	movs	r1, #9
   25480:	2208      	movs	r2, #8
   25482:	2300      	movs	r3, #0
   25484:	4620      	mov	r0, r4
   25486:	9302      	str	r3, [sp, #8]
   25488:	df02      	svc	2
   2548a:	2880      	cmp	r0, #128	@ 0x80
   2548c:	d219      	bcs.n	254c2 <_ZN20complex_dynamic_type3app17hae5fefd81595f1ecE+0xc6>
   2548e:	2001      	movs	r0, #1
   25490:	7030      	strb	r0, [r6, #0]
   25492:	6071      	str	r1, [r6, #4]
   25494:	2108      	movs	r1, #8
   25496:	2200      	movs	r2, #0
   25498:	4620      	mov	r0, r4
   2549a:	4613      	mov	r3, r2
   2549c:	df03      	svc	3
   2549e:	a804      	add	r0, sp, #16
   254a0:	7800      	ldrb	r0, [r0, #0]
   254a2:	2802      	cmp	r0, #2
   254a4:	d044      	beq.n	25530 <_ZN20complex_dynamic_type3app17hae5fefd81595f1ecE+0x134>
   254a6:	2109      	movs	r1, #9
   254a8:	2200      	movs	r2, #0
   254aa:	2804      	cmp	r0, #4
   254ac:	d104      	bne.n	254b8 <_ZN20complex_dynamic_type3app17hae5fefd81595f1ecE+0xbc>
   254ae:	4620      	mov	r0, r4
   254b0:	4613      	mov	r3, r2
   254b2:	df04      	svc	4
   254b4:	b015      	add	sp, #84	@ 0x54
   254b6:	bdf0      	pop	{r4, r5, r6, r7, pc}
   254b8:	4620      	mov	r0, r4
   254ba:	4613      	mov	r3, r2
   254bc:	df03      	svc	3
   254be:	b015      	add	sp, #84	@ 0x54
   254c0:	bdf0      	pop	{r4, r5, r6, r7, pc}
   254c2:	a804      	add	r0, sp, #16
   254c4:	7800      	ldrb	r0, [r0, #0]
   254c6:	2802      	cmp	r0, #2
   254c8:	d00a      	beq.n	254e0 <_ZN20complex_dynamic_type3app17hae5fefd81595f1ecE+0xe4>
   254ca:	2109      	movs	r1, #9
   254cc:	2200      	movs	r2, #0
   254ce:	2803      	cmp	r0, #3
   254d0:	d103      	bne.n	254da <_ZN20complex_dynamic_type3app17hae5fefd81595f1ecE+0xde>
   254d2:	4620      	mov	r0, r4
   254d4:	4613      	mov	r3, r2
   254d6:	df03      	svc	3
   254d8:	e002      	b.n	254e0 <_ZN20complex_dynamic_type3app17hae5fefd81595f1ecE+0xe4>
   254da:	4620      	mov	r0, r4
   254dc:	4613      	mov	r3, r2
   254de:	df04      	svc	4
   254e0:	a804      	add	r0, sp, #16
   254e2:	9900      	ldr	r1, [sp, #0]
   254e4:	7001      	strb	r1, [r0, #0]
   254e6:	a80e      	add	r0, sp, #56	@ 0x38
   254e8:	7800      	ldrb	r0, [r0, #0]
   254ea:	2804      	cmp	r0, #4
   254ec:	d008      	beq.n	25500 <_ZN20complex_dynamic_type3app17hae5fefd81595f1ecE+0x104>
   254ee:	2803      	cmp	r0, #3
   254f0:	d120      	bne.n	25534 <_ZN20complex_dynamic_type3app17hae5fefd81595f1ecE+0x138>
   254f2:	2108      	movs	r1, #8
   254f4:	2200      	movs	r2, #0
   254f6:	9400      	str	r4, [sp, #0]
   254f8:	4620      	mov	r0, r4
   254fa:	4613      	mov	r3, r2
   254fc:	df03      	svc	3
   254fe:	e005      	b.n	2550c <_ZN20complex_dynamic_type3app17hae5fefd81595f1ecE+0x110>
   25500:	2108      	movs	r1, #8
   25502:	2200      	movs	r2, #0
   25504:	9400      	str	r4, [sp, #0]
   25506:	4620      	mov	r0, r4
   25508:	4613      	mov	r3, r2
   2550a:	df04      	svc	4
   2550c:	a804      	add	r0, sp, #16
   2550e:	7804      	ldrb	r4, [r0, #0]
   25510:	1c70      	adds	r0, r6, #1
   25512:	2218      	movs	r2, #24
   25514:	4629      	mov	r1, r5
   25516:	f005 fdf9 	bl	2b10c <__aeabi_memcpy>
   2551a:	9802      	ldr	r0, [sp, #8]
   2551c:	7030      	strb	r0, [r6, #0]
   2551e:	2c02      	cmp	r4, #2
   25520:	d006      	beq.n	25530 <_ZN20complex_dynamic_type3app17hae5fefd81595f1ecE+0x134>
   25522:	2c04      	cmp	r4, #4
   25524:	d10f      	bne.n	25546 <_ZN20complex_dynamic_type3app17hae5fefd81595f1ecE+0x14a>
   25526:	2109      	movs	r1, #9
   25528:	2200      	movs	r2, #0
   2552a:	9800      	ldr	r0, [sp, #0]
   2552c:	4613      	mov	r3, r2
   2552e:	df04      	svc	4
   25530:	b015      	add	sp, #84	@ 0x54
   25532:	bdf0      	pop	{r4, r5, r6, r7, pc}
   25534:	1c70      	adds	r0, r6, #1
   25536:	2218      	movs	r2, #24
   25538:	4629      	mov	r1, r5
   2553a:	f005 fde7 	bl	2b10c <__aeabi_memcpy>
   2553e:	9802      	ldr	r0, [sp, #8]
   25540:	7030      	strb	r0, [r6, #0]
   25542:	b015      	add	sp, #84	@ 0x54
   25544:	bdf0      	pop	{r4, r5, r6, r7, pc}
   25546:	9800      	ldr	r0, [sp, #0]
   25548:	2109      	movs	r1, #9
   2554a:	2200      	movs	r2, #0
   2554c:	4613      	mov	r3, r2
   2554e:	df03      	svc	3
   25550:	b015      	add	sp, #84	@ 0x54
   25552:	bdf0      	pop	{r4, r5, r6, r7, pc}

00025554 <_ZN20complex_dynamic_type3app17haf3105825f4fef4eE>:
   25554:	b5f0      	push	{r4, r5, r6, r7, lr}
   25556:	af03      	add	r7, sp, #12
   25558:	b099      	sub	sp, #100	@ 0x64
   2555a:	9003      	str	r0, [sp, #12]
   2555c:	a804      	add	r0, sp, #16
   2555e:	2502      	movs	r5, #2
   25560:	7005      	strb	r5, [r0, #0]
   25562:	1c40      	adds	r0, r0, #1
   25564:	9002      	str	r0, [sp, #8]
   25566:	2611      	movs	r6, #17
   25568:	4632      	mov	r2, r6
   2556a:	f005 fdcf 	bl	2b10c <__aeabi_memcpy>
   2556e:	ac09      	add	r4, sp, #36	@ 0x24
   25570:	1c60      	adds	r0, r4, #1
   25572:	213f      	movs	r1, #63	@ 0x3f
   25574:	9001      	str	r0, [sp, #4]
   25576:	f005 fc09 	bl	2ad8c <__aeabi_memclr>
   2557a:	9500      	str	r5, [sp, #0]
   2557c:	7025      	strb	r5, [r4, #0]
   2557e:	20cb      	movs	r0, #203	@ 0xcb
   25580:	0104      	lsls	r4, r0, #4
   25582:	2107      	movs	r1, #7
   25584:	4620      	mov	r0, r4
   25586:	9a02      	ldr	r2, [sp, #8]
   25588:	4633      	mov	r3, r6
   2558a:	df04      	svc	4
   2558c:	2802      	cmp	r0, #2
   2558e:	d104      	bne.n	2559a <_ZN20complex_dynamic_type3app17haf3105825f4fef4eE+0x46>
   25590:	2001      	movs	r0, #1
   25592:	9a03      	ldr	r2, [sp, #12]
   25594:	7010      	strb	r0, [r2, #0]
   25596:	6051      	str	r1, [r2, #4]
   25598:	e02c      	b.n	255f4 <_ZN20complex_dynamic_type3app17haf3105825f4fef4eE+0xa0>
   2559a:	9e03      	ldr	r6, [sp, #12]
   2559c:	a804      	add	r0, sp, #16
   2559e:	2104      	movs	r1, #4
   255a0:	7001      	strb	r1, [r0, #0]
   255a2:	233f      	movs	r3, #63	@ 0x3f
   255a4:	4620      	mov	r0, r4
   255a6:	9d01      	ldr	r5, [sp, #4]
   255a8:	462a      	mov	r2, r5
   255aa:	df03      	svc	3
   255ac:	2802      	cmp	r0, #2
   255ae:	d10e      	bne.n	255ce <_ZN20complex_dynamic_type3app17haf3105825f4fef4eE+0x7a>
   255b0:	2001      	movs	r0, #1
   255b2:	7030      	strb	r0, [r6, #0]
   255b4:	6071      	str	r1, [r6, #4]
   255b6:	a809      	add	r0, sp, #36	@ 0x24
   255b8:	7800      	ldrb	r0, [r0, #0]
   255ba:	2802      	cmp	r0, #2
   255bc:	d01a      	beq.n	255f4 <_ZN20complex_dynamic_type3app17haf3105825f4fef4eE+0xa0>
   255be:	2803      	cmp	r0, #3
   255c0:	d013      	beq.n	255ea <_ZN20complex_dynamic_type3app17haf3105825f4fef4eE+0x96>
   255c2:	2104      	movs	r1, #4
   255c4:	2200      	movs	r2, #0
   255c6:	4620      	mov	r0, r4
   255c8:	4613      	mov	r3, r2
   255ca:	df04      	svc	4
   255cc:	e012      	b.n	255f4 <_ZN20complex_dynamic_type3app17haf3105825f4fef4eE+0xa0>
   255ce:	a809      	add	r0, sp, #36	@ 0x24
   255d0:	2103      	movs	r1, #3
   255d2:	7001      	strb	r1, [r0, #0]
   255d4:	2107      	movs	r1, #7
   255d6:	2204      	movs	r2, #4
   255d8:	2300      	movs	r3, #0
   255da:	4620      	mov	r0, r4
   255dc:	9302      	str	r3, [sp, #8]
   255de:	df02      	svc	2
   255e0:	2880      	cmp	r0, #128	@ 0x80
   255e2:	d219      	bcs.n	25618 <_ZN20complex_dynamic_type3app17haf3105825f4fef4eE+0xc4>
   255e4:	2001      	movs	r0, #1
   255e6:	7030      	strb	r0, [r6, #0]
   255e8:	6071      	str	r1, [r6, #4]
   255ea:	2104      	movs	r1, #4
   255ec:	2200      	movs	r2, #0
   255ee:	4620      	mov	r0, r4
   255f0:	4613      	mov	r3, r2
   255f2:	df03      	svc	3
   255f4:	a804      	add	r0, sp, #16
   255f6:	7800      	ldrb	r0, [r0, #0]
   255f8:	2802      	cmp	r0, #2
   255fa:	d044      	beq.n	25686 <_ZN20complex_dynamic_type3app17haf3105825f4fef4eE+0x132>
   255fc:	2107      	movs	r1, #7
   255fe:	2200      	movs	r2, #0
   25600:	2804      	cmp	r0, #4
   25602:	d104      	bne.n	2560e <_ZN20complex_dynamic_type3app17haf3105825f4fef4eE+0xba>
   25604:	4620      	mov	r0, r4
   25606:	4613      	mov	r3, r2
   25608:	df04      	svc	4
   2560a:	b019      	add	sp, #100	@ 0x64
   2560c:	bdf0      	pop	{r4, r5, r6, r7, pc}
   2560e:	4620      	mov	r0, r4
   25610:	4613      	mov	r3, r2
   25612:	df03      	svc	3
   25614:	b019      	add	sp, #100	@ 0x64
   25616:	bdf0      	pop	{r4, r5, r6, r7, pc}
   25618:	a804      	add	r0, sp, #16
   2561a:	7800      	ldrb	r0, [r0, #0]
   2561c:	2802      	cmp	r0, #2
   2561e:	d00a      	beq.n	25636 <_ZN20complex_dynamic_type3app17haf3105825f4fef4eE+0xe2>
   25620:	2107      	movs	r1, #7
   25622:	2200      	movs	r2, #0
   25624:	2803      	cmp	r0, #3
   25626:	d103      	bne.n	25630 <_ZN20complex_dynamic_type3app17haf3105825f4fef4eE+0xdc>
   25628:	4620      	mov	r0, r4
   2562a:	4613      	mov	r3, r2
   2562c:	df03      	svc	3
   2562e:	e002      	b.n	25636 <_ZN20complex_dynamic_type3app17haf3105825f4fef4eE+0xe2>
   25630:	4620      	mov	r0, r4
   25632:	4613      	mov	r3, r2
   25634:	df04      	svc	4
   25636:	a804      	add	r0, sp, #16
   25638:	9900      	ldr	r1, [sp, #0]
   2563a:	7001      	strb	r1, [r0, #0]
   2563c:	a809      	add	r0, sp, #36	@ 0x24
   2563e:	7800      	ldrb	r0, [r0, #0]
   25640:	2804      	cmp	r0, #4
   25642:	d008      	beq.n	25656 <_ZN20complex_dynamic_type3app17haf3105825f4fef4eE+0x102>
   25644:	2803      	cmp	r0, #3
   25646:	d120      	bne.n	2568a <_ZN20complex_dynamic_type3app17haf3105825f4fef4eE+0x136>
   25648:	2104      	movs	r1, #4
   2564a:	2200      	movs	r2, #0
   2564c:	9400      	str	r4, [sp, #0]
   2564e:	4620      	mov	r0, r4
   25650:	4613      	mov	r3, r2
   25652:	df03      	svc	3
   25654:	e005      	b.n	25662 <_ZN20complex_dynamic_type3app17haf3105825f4fef4eE+0x10e>
   25656:	2104      	movs	r1, #4
   25658:	2200      	movs	r2, #0
   2565a:	9400      	str	r4, [sp, #0]
   2565c:	4620      	mov	r0, r4
   2565e:	4613      	mov	r3, r2
   25660:	df04      	svc	4
   25662:	a804      	add	r0, sp, #16
   25664:	7804      	ldrb	r4, [r0, #0]
   25666:	1c70      	adds	r0, r6, #1
   25668:	223f      	movs	r2, #63	@ 0x3f
   2566a:	4629      	mov	r1, r5
   2566c:	f005 fd4e 	bl	2b10c <__aeabi_memcpy>
   25670:	9802      	ldr	r0, [sp, #8]
   25672:	7030      	strb	r0, [r6, #0]
   25674:	2c02      	cmp	r4, #2
   25676:	d006      	beq.n	25686 <_ZN20complex_dynamic_type3app17haf3105825f4fef4eE+0x132>
   25678:	2c04      	cmp	r4, #4
   2567a:	d10f      	bne.n	2569c <_ZN20complex_dynamic_type3app17haf3105825f4fef4eE+0x148>
   2567c:	2107      	movs	r1, #7
   2567e:	2200      	movs	r2, #0
   25680:	9800      	ldr	r0, [sp, #0]
   25682:	4613      	mov	r3, r2
   25684:	df04      	svc	4
   25686:	b019      	add	sp, #100	@ 0x64
   25688:	bdf0      	pop	{r4, r5, r6, r7, pc}
   2568a:	1c70      	adds	r0, r6, #1
   2568c:	223f      	movs	r2, #63	@ 0x3f
   2568e:	4629      	mov	r1, r5
   25690:	f005 fd3c 	bl	2b10c <__aeabi_memcpy>
   25694:	9802      	ldr	r0, [sp, #8]
   25696:	7030      	strb	r0, [r6, #0]
   25698:	b019      	add	sp, #100	@ 0x64
   2569a:	bdf0      	pop	{r4, r5, r6, r7, pc}
   2569c:	9800      	ldr	r0, [sp, #0]
   2569e:	2107      	movs	r1, #7
   256a0:	2200      	movs	r2, #0
   256a2:	4613      	mov	r3, r2
   256a4:	df03      	svc	3
   256a6:	b019      	add	sp, #100	@ 0x64
   256a8:	bdf0      	pop	{r4, r5, r6, r7, pc}
   256aa:	d4d4      	bmi.n	25656 <_ZN20complex_dynamic_type3app17haf3105825f4fef4eE+0x102>

000256ac <_ZN20complex_dynamic_type3app17hb01c4fcedc123d0eE>:
   256ac:	b5f0      	push	{r4, r5, r6, r7, lr}
   256ae:	af03      	add	r7, sp, #12
   256b0:	b09f      	sub	sp, #124	@ 0x7c
   256b2:	9004      	str	r0, [sp, #16]
   256b4:	a805      	add	r0, sp, #20
   256b6:	2402      	movs	r4, #2
   256b8:	7004      	strb	r4, [r0, #0]
   256ba:	1c40      	adds	r0, r0, #1
   256bc:	9003      	str	r0, [sp, #12]
   256be:	2532      	movs	r5, #50	@ 0x32
   256c0:	462a      	mov	r2, r5
   256c2:	f005 fd23 	bl	2b10c <__aeabi_memcpy>
   256c6:	ae12      	add	r6, sp, #72	@ 0x48
   256c8:	1c70      	adds	r0, r6, #1
   256ca:	9002      	str	r0, [sp, #8]
   256cc:	4629      	mov	r1, r5
   256ce:	f005 fb5d 	bl	2ad8c <__aeabi_memclr>
   256d2:	9401      	str	r4, [sp, #4]
   256d4:	7034      	strb	r4, [r6, #0]
   256d6:	4848      	ldr	r0, [pc, #288]	@ (257f8 <_ZN20complex_dynamic_type3app17hb01c4fcedc123d0eE+0x14c>)
   256d8:	2603      	movs	r6, #3
   256da:	4631      	mov	r1, r6
   256dc:	9a03      	ldr	r2, [sp, #12]
   256de:	462b      	mov	r3, r5
   256e0:	df04      	svc	4
   256e2:	2802      	cmp	r0, #2
   256e4:	d104      	bne.n	256f0 <_ZN20complex_dynamic_type3app17hb01c4fcedc123d0eE+0x44>
   256e6:	2001      	movs	r0, #1
   256e8:	9a04      	ldr	r2, [sp, #16]
   256ea:	7010      	strb	r0, [r2, #0]
   256ec:	6051      	str	r1, [r2, #4]
   256ee:	e02c      	b.n	2574a <_ZN20complex_dynamic_type3app17hb01c4fcedc123d0eE+0x9e>
   256f0:	9d04      	ldr	r5, [sp, #16]
   256f2:	a805      	add	r0, sp, #20
   256f4:	2104      	movs	r1, #4
   256f6:	7001      	strb	r1, [r0, #0]
   256f8:	483f      	ldr	r0, [pc, #252]	@ (257f8 <_ZN20complex_dynamic_type3app17hb01c4fcedc123d0eE+0x14c>)
   256fa:	2401      	movs	r4, #1
   256fc:	2332      	movs	r3, #50	@ 0x32
   256fe:	4621      	mov	r1, r4
   25700:	9a02      	ldr	r2, [sp, #8]
   25702:	df03      	svc	3
   25704:	2802      	cmp	r0, #2
   25706:	d10d      	bne.n	25724 <_ZN20complex_dynamic_type3app17hb01c4fcedc123d0eE+0x78>
   25708:	702c      	strb	r4, [r5, #0]
   2570a:	6069      	str	r1, [r5, #4]
   2570c:	a812      	add	r0, sp, #72	@ 0x48
   2570e:	7800      	ldrb	r0, [r0, #0]
   25710:	2802      	cmp	r0, #2
   25712:	d01a      	beq.n	2574a <_ZN20complex_dynamic_type3app17hb01c4fcedc123d0eE+0x9e>
   25714:	2803      	cmp	r0, #3
   25716:	d013      	beq.n	25740 <_ZN20complex_dynamic_type3app17hb01c4fcedc123d0eE+0x94>
   25718:	4837      	ldr	r0, [pc, #220]	@ (257f8 <_ZN20complex_dynamic_type3app17hb01c4fcedc123d0eE+0x14c>)
   2571a:	2101      	movs	r1, #1
   2571c:	2200      	movs	r2, #0
   2571e:	4613      	mov	r3, r2
   25720:	df04      	svc	4
   25722:	e012      	b.n	2574a <_ZN20complex_dynamic_type3app17hb01c4fcedc123d0eE+0x9e>
   25724:	a812      	add	r0, sp, #72	@ 0x48
   25726:	7006      	strb	r6, [r0, #0]
   25728:	4833      	ldr	r0, [pc, #204]	@ (257f8 <_ZN20complex_dynamic_type3app17hb01c4fcedc123d0eE+0x14c>)
   2572a:	2401      	movs	r4, #1
   2572c:	2200      	movs	r2, #0
   2572e:	4631      	mov	r1, r6
   25730:	4616      	mov	r6, r2
   25732:	4622      	mov	r2, r4
   25734:	4633      	mov	r3, r6
   25736:	df02      	svc	2
   25738:	2880      	cmp	r0, #128	@ 0x80
   2573a:	d21a      	bcs.n	25772 <_ZN20complex_dynamic_type3app17hb01c4fcedc123d0eE+0xc6>
   2573c:	702c      	strb	r4, [r5, #0]
   2573e:	6069      	str	r1, [r5, #4]
   25740:	482d      	ldr	r0, [pc, #180]	@ (257f8 <_ZN20complex_dynamic_type3app17hb01c4fcedc123d0eE+0x14c>)
   25742:	2101      	movs	r1, #1
   25744:	2200      	movs	r2, #0
   25746:	4613      	mov	r3, r2
   25748:	df03      	svc	3
   2574a:	a805      	add	r0, sp, #20
   2574c:	7800      	ldrb	r0, [r0, #0]
   2574e:	2802      	cmp	r0, #2
   25750:	d045      	beq.n	257de <_ZN20complex_dynamic_type3app17hb01c4fcedc123d0eE+0x132>
   25752:	2804      	cmp	r0, #4
   25754:	d106      	bne.n	25764 <_ZN20complex_dynamic_type3app17hb01c4fcedc123d0eE+0xb8>
   25756:	4828      	ldr	r0, [pc, #160]	@ (257f8 <_ZN20complex_dynamic_type3app17hb01c4fcedc123d0eE+0x14c>)
   25758:	2103      	movs	r1, #3
   2575a:	2200      	movs	r2, #0
   2575c:	4613      	mov	r3, r2
   2575e:	df04      	svc	4
   25760:	b01f      	add	sp, #124	@ 0x7c
   25762:	bdf0      	pop	{r4, r5, r6, r7, pc}
   25764:	4824      	ldr	r0, [pc, #144]	@ (257f8 <_ZN20complex_dynamic_type3app17hb01c4fcedc123d0eE+0x14c>)
   25766:	2103      	movs	r1, #3
   25768:	2200      	movs	r2, #0
   2576a:	4613      	mov	r3, r2
   2576c:	df03      	svc	3
   2576e:	b01f      	add	sp, #124	@ 0x7c
   25770:	bdf0      	pop	{r4, r5, r6, r7, pc}
   25772:	a805      	add	r0, sp, #20
   25774:	7800      	ldrb	r0, [r0, #0]
   25776:	2802      	cmp	r0, #2
   25778:	d00c      	beq.n	25794 <_ZN20complex_dynamic_type3app17hb01c4fcedc123d0eE+0xe8>
   2577a:	2803      	cmp	r0, #3
   2577c:	d105      	bne.n	2578a <_ZN20complex_dynamic_type3app17hb01c4fcedc123d0eE+0xde>
   2577e:	481e      	ldr	r0, [pc, #120]	@ (257f8 <_ZN20complex_dynamic_type3app17hb01c4fcedc123d0eE+0x14c>)
   25780:	2103      	movs	r1, #3
   25782:	2200      	movs	r2, #0
   25784:	4613      	mov	r3, r2
   25786:	df03      	svc	3
   25788:	e004      	b.n	25794 <_ZN20complex_dynamic_type3app17hb01c4fcedc123d0eE+0xe8>
   2578a:	481b      	ldr	r0, [pc, #108]	@ (257f8 <_ZN20complex_dynamic_type3app17hb01c4fcedc123d0eE+0x14c>)
   2578c:	2103      	movs	r1, #3
   2578e:	2200      	movs	r2, #0
   25790:	4613      	mov	r3, r2
   25792:	df04      	svc	4
   25794:	a805      	add	r0, sp, #20
   25796:	9901      	ldr	r1, [sp, #4]
   25798:	7001      	strb	r1, [r0, #0]
   2579a:	a812      	add	r0, sp, #72	@ 0x48
   2579c:	7800      	ldrb	r0, [r0, #0]
   2579e:	2804      	cmp	r0, #4
   257a0:	d007      	beq.n	257b2 <_ZN20complex_dynamic_type3app17hb01c4fcedc123d0eE+0x106>
   257a2:	2803      	cmp	r0, #3
   257a4:	d11d      	bne.n	257e2 <_ZN20complex_dynamic_type3app17hb01c4fcedc123d0eE+0x136>
   257a6:	4814      	ldr	r0, [pc, #80]	@ (257f8 <_ZN20complex_dynamic_type3app17hb01c4fcedc123d0eE+0x14c>)
   257a8:	2101      	movs	r1, #1
   257aa:	2200      	movs	r2, #0
   257ac:	4613      	mov	r3, r2
   257ae:	df03      	svc	3
   257b0:	e004      	b.n	257bc <_ZN20complex_dynamic_type3app17hb01c4fcedc123d0eE+0x110>
   257b2:	4811      	ldr	r0, [pc, #68]	@ (257f8 <_ZN20complex_dynamic_type3app17hb01c4fcedc123d0eE+0x14c>)
   257b4:	2101      	movs	r1, #1
   257b6:	2200      	movs	r2, #0
   257b8:	4613      	mov	r3, r2
   257ba:	df04      	svc	4
   257bc:	a805      	add	r0, sp, #20
   257be:	7804      	ldrb	r4, [r0, #0]
   257c0:	1c68      	adds	r0, r5, #1
   257c2:	2232      	movs	r2, #50	@ 0x32
   257c4:	9902      	ldr	r1, [sp, #8]
   257c6:	f005 fca1 	bl	2b10c <__aeabi_memcpy>
   257ca:	702e      	strb	r6, [r5, #0]
   257cc:	2c02      	cmp	r4, #2
   257ce:	d006      	beq.n	257de <_ZN20complex_dynamic_type3app17hb01c4fcedc123d0eE+0x132>
   257d0:	4809      	ldr	r0, [pc, #36]	@ (257f8 <_ZN20complex_dynamic_type3app17hb01c4fcedc123d0eE+0x14c>)
   257d2:	2103      	movs	r1, #3
   257d4:	2200      	movs	r2, #0
   257d6:	4613      	mov	r3, r2
   257d8:	2c04      	cmp	r4, #4
   257da:	d10a      	bne.n	257f2 <_ZN20complex_dynamic_type3app17hb01c4fcedc123d0eE+0x146>
   257dc:	df04      	svc	4
   257de:	b01f      	add	sp, #124	@ 0x7c
   257e0:	bdf0      	pop	{r4, r5, r6, r7, pc}
   257e2:	9902      	ldr	r1, [sp, #8]
   257e4:	1c68      	adds	r0, r5, #1
   257e6:	2232      	movs	r2, #50	@ 0x32
   257e8:	f005 fc90 	bl	2b10c <__aeabi_memcpy>
   257ec:	702e      	strb	r6, [r5, #0]
   257ee:	b01f      	add	sp, #124	@ 0x7c
   257f0:	bdf0      	pop	{r4, r5, r6, r7, pc}
   257f2:	df03      	svc	3
   257f4:	b01f      	add	sp, #124	@ 0x7c
   257f6:	bdf0      	pop	{r4, r5, r6, r7, pc}
   257f8:	00001f07 	.word	0x00001f07

000257fc <_ZN20complex_dynamic_type3app17hb291704bc4b68e58E>:
   257fc:	b5f0      	push	{r4, r5, r6, r7, lr}
   257fe:	af03      	add	r7, sp, #12
   25800:	b0a7      	sub	sp, #156	@ 0x9c
   25802:	9004      	str	r0, [sp, #16]
   25804:	a805      	add	r0, sp, #20
   25806:	2402      	movs	r4, #2
   25808:	7004      	strb	r4, [r0, #0]
   2580a:	1c40      	adds	r0, r0, #1
   2580c:	9003      	str	r0, [sp, #12]
   2580e:	252a      	movs	r5, #42	@ 0x2a
   25810:	462a      	mov	r2, r5
   25812:	f005 fc7b 	bl	2b10c <__aeabi_memcpy>
   25816:	ae10      	add	r6, sp, #64	@ 0x40
   25818:	1c70      	adds	r0, r6, #1
   2581a:	2159      	movs	r1, #89	@ 0x59
   2581c:	9002      	str	r0, [sp, #8]
   2581e:	f005 fab5 	bl	2ad8c <__aeabi_memclr>
   25822:	9401      	str	r4, [sp, #4]
   25824:	7034      	strb	r4, [r6, #0]
   25826:	4849      	ldr	r0, [pc, #292]	@ (2594c <_ZN20complex_dynamic_type3app17hb291704bc4b68e58E+0x150>)
   25828:	2601      	movs	r6, #1
   2582a:	4631      	mov	r1, r6
   2582c:	9a03      	ldr	r2, [sp, #12]
   2582e:	462b      	mov	r3, r5
   25830:	df04      	svc	4
   25832:	2802      	cmp	r0, #2
   25834:	d103      	bne.n	2583e <_ZN20complex_dynamic_type3app17hb291704bc4b68e58E+0x42>
   25836:	9804      	ldr	r0, [sp, #16]
   25838:	7006      	strb	r6, [r0, #0]
   2583a:	6041      	str	r1, [r0, #4]
   2583c:	e02c      	b.n	25898 <_ZN20complex_dynamic_type3app17hb291704bc4b68e58E+0x9c>
   2583e:	a805      	add	r0, sp, #20
   25840:	2104      	movs	r1, #4
   25842:	7001      	strb	r1, [r0, #0]
   25844:	4841      	ldr	r0, [pc, #260]	@ (2594c <_ZN20complex_dynamic_type3app17hb291704bc4b68e58E+0x150>)
   25846:	2403      	movs	r4, #3
   25848:	2359      	movs	r3, #89	@ 0x59
   2584a:	4621      	mov	r1, r4
   2584c:	9a02      	ldr	r2, [sp, #8]
   2584e:	df03      	svc	3
   25850:	2802      	cmp	r0, #2
   25852:	d10e      	bne.n	25872 <_ZN20complex_dynamic_type3app17hb291704bc4b68e58E+0x76>
   25854:	9804      	ldr	r0, [sp, #16]
   25856:	7006      	strb	r6, [r0, #0]
   25858:	6041      	str	r1, [r0, #4]
   2585a:	a810      	add	r0, sp, #64	@ 0x40
   2585c:	7800      	ldrb	r0, [r0, #0]
   2585e:	2802      	cmp	r0, #2
   25860:	d01a      	beq.n	25898 <_ZN20complex_dynamic_type3app17hb291704bc4b68e58E+0x9c>
   25862:	2803      	cmp	r0, #3
   25864:	d013      	beq.n	2588e <_ZN20complex_dynamic_type3app17hb291704bc4b68e58E+0x92>
   25866:	4839      	ldr	r0, [pc, #228]	@ (2594c <_ZN20complex_dynamic_type3app17hb291704bc4b68e58E+0x150>)
   25868:	2103      	movs	r1, #3
   2586a:	2200      	movs	r2, #0
   2586c:	4613      	mov	r3, r2
   2586e:	df04      	svc	4
   25870:	e012      	b.n	25898 <_ZN20complex_dynamic_type3app17hb291704bc4b68e58E+0x9c>
   25872:	a810      	add	r0, sp, #64	@ 0x40
   25874:	7004      	strb	r4, [r0, #0]
   25876:	4835      	ldr	r0, [pc, #212]	@ (2594c <_ZN20complex_dynamic_type3app17hb291704bc4b68e58E+0x150>)
   25878:	2501      	movs	r5, #1
   2587a:	2600      	movs	r6, #0
   2587c:	4629      	mov	r1, r5
   2587e:	4622      	mov	r2, r4
   25880:	4633      	mov	r3, r6
   25882:	df02      	svc	2
   25884:	2880      	cmp	r0, #128	@ 0x80
   25886:	d21b      	bcs.n	258c0 <_ZN20complex_dynamic_type3app17hb291704bc4b68e58E+0xc4>
   25888:	9804      	ldr	r0, [sp, #16]
   2588a:	7005      	strb	r5, [r0, #0]
   2588c:	6041      	str	r1, [r0, #4]
   2588e:	482f      	ldr	r0, [pc, #188]	@ (2594c <_ZN20complex_dynamic_type3app17hb291704bc4b68e58E+0x150>)
   25890:	2103      	movs	r1, #3
   25892:	2200      	movs	r2, #0
   25894:	4613      	mov	r3, r2
   25896:	df03      	svc	3
   25898:	a805      	add	r0, sp, #20
   2589a:	7800      	ldrb	r0, [r0, #0]
   2589c:	2802      	cmp	r0, #2
   2589e:	d046      	beq.n	2592e <_ZN20complex_dynamic_type3app17hb291704bc4b68e58E+0x132>
   258a0:	2804      	cmp	r0, #4
   258a2:	d106      	bne.n	258b2 <_ZN20complex_dynamic_type3app17hb291704bc4b68e58E+0xb6>
   258a4:	4829      	ldr	r0, [pc, #164]	@ (2594c <_ZN20complex_dynamic_type3app17hb291704bc4b68e58E+0x150>)
   258a6:	2101      	movs	r1, #1
   258a8:	2200      	movs	r2, #0
   258aa:	4613      	mov	r3, r2
   258ac:	df04      	svc	4
   258ae:	b027      	add	sp, #156	@ 0x9c
   258b0:	bdf0      	pop	{r4, r5, r6, r7, pc}
   258b2:	4826      	ldr	r0, [pc, #152]	@ (2594c <_ZN20complex_dynamic_type3app17hb291704bc4b68e58E+0x150>)
   258b4:	2101      	movs	r1, #1
   258b6:	2200      	movs	r2, #0
   258b8:	4613      	mov	r3, r2
   258ba:	df03      	svc	3
   258bc:	b027      	add	sp, #156	@ 0x9c
   258be:	bdf0      	pop	{r4, r5, r6, r7, pc}
   258c0:	a805      	add	r0, sp, #20
   258c2:	7800      	ldrb	r0, [r0, #0]
   258c4:	2802      	cmp	r0, #2
   258c6:	d00c      	beq.n	258e2 <_ZN20complex_dynamic_type3app17hb291704bc4b68e58E+0xe6>
   258c8:	2803      	cmp	r0, #3
   258ca:	d105      	bne.n	258d8 <_ZN20complex_dynamic_type3app17hb291704bc4b68e58E+0xdc>
   258cc:	481f      	ldr	r0, [pc, #124]	@ (2594c <_ZN20complex_dynamic_type3app17hb291704bc4b68e58E+0x150>)
   258ce:	2101      	movs	r1, #1
   258d0:	2200      	movs	r2, #0
   258d2:	4613      	mov	r3, r2
   258d4:	df03      	svc	3
   258d6:	e004      	b.n	258e2 <_ZN20complex_dynamic_type3app17hb291704bc4b68e58E+0xe6>
   258d8:	481c      	ldr	r0, [pc, #112]	@ (2594c <_ZN20complex_dynamic_type3app17hb291704bc4b68e58E+0x150>)
   258da:	2101      	movs	r1, #1
   258dc:	2200      	movs	r2, #0
   258de:	4613      	mov	r3, r2
   258e0:	df04      	svc	4
   258e2:	a805      	add	r0, sp, #20
   258e4:	9901      	ldr	r1, [sp, #4]
   258e6:	7001      	strb	r1, [r0, #0]
   258e8:	a810      	add	r0, sp, #64	@ 0x40
   258ea:	7800      	ldrb	r0, [r0, #0]
   258ec:	2804      	cmp	r0, #4
   258ee:	d007      	beq.n	25900 <_ZN20complex_dynamic_type3app17hb291704bc4b68e58E+0x104>
   258f0:	2803      	cmp	r0, #3
   258f2:	d11e      	bne.n	25932 <_ZN20complex_dynamic_type3app17hb291704bc4b68e58E+0x136>
   258f4:	4815      	ldr	r0, [pc, #84]	@ (2594c <_ZN20complex_dynamic_type3app17hb291704bc4b68e58E+0x150>)
   258f6:	2103      	movs	r1, #3
   258f8:	2200      	movs	r2, #0
   258fa:	4613      	mov	r3, r2
   258fc:	df03      	svc	3
   258fe:	e004      	b.n	2590a <_ZN20complex_dynamic_type3app17hb291704bc4b68e58E+0x10e>
   25900:	4812      	ldr	r0, [pc, #72]	@ (2594c <_ZN20complex_dynamic_type3app17hb291704bc4b68e58E+0x150>)
   25902:	2103      	movs	r1, #3
   25904:	2200      	movs	r2, #0
   25906:	4613      	mov	r3, r2
   25908:	df04      	svc	4
   2590a:	a805      	add	r0, sp, #20
   2590c:	7804      	ldrb	r4, [r0, #0]
   2590e:	9d04      	ldr	r5, [sp, #16]
   25910:	1c68      	adds	r0, r5, #1
   25912:	2259      	movs	r2, #89	@ 0x59
   25914:	9902      	ldr	r1, [sp, #8]
   25916:	f005 fbf9 	bl	2b10c <__aeabi_memcpy>
   2591a:	702e      	strb	r6, [r5, #0]
   2591c:	2c02      	cmp	r4, #2
   2591e:	d006      	beq.n	2592e <_ZN20complex_dynamic_type3app17hb291704bc4b68e58E+0x132>
   25920:	480a      	ldr	r0, [pc, #40]	@ (2594c <_ZN20complex_dynamic_type3app17hb291704bc4b68e58E+0x150>)
   25922:	2101      	movs	r1, #1
   25924:	2200      	movs	r2, #0
   25926:	4613      	mov	r3, r2
   25928:	2c04      	cmp	r4, #4
   2592a:	d10b      	bne.n	25944 <_ZN20complex_dynamic_type3app17hb291704bc4b68e58E+0x148>
   2592c:	df04      	svc	4
   2592e:	b027      	add	sp, #156	@ 0x9c
   25930:	bdf0      	pop	{r4, r5, r6, r7, pc}
   25932:	9c04      	ldr	r4, [sp, #16]
   25934:	9902      	ldr	r1, [sp, #8]
   25936:	1c60      	adds	r0, r4, #1
   25938:	2259      	movs	r2, #89	@ 0x59
   2593a:	f005 fbe7 	bl	2b10c <__aeabi_memcpy>
   2593e:	7026      	strb	r6, [r4, #0]
   25940:	b027      	add	sp, #156	@ 0x9c
   25942:	bdf0      	pop	{r4, r5, r6, r7, pc}
   25944:	df03      	svc	3
   25946:	b027      	add	sp, #156	@ 0x9c
   25948:	bdf0      	pop	{r4, r5, r6, r7, pc}
   2594a:	46c0      	nop			@ (mov r8, r8)
   2594c:	00000ed2 	.word	0x00000ed2

00025950 <_ZN20complex_dynamic_type3app17hb2e9c317b96a8bbfE>:
   25950:	b5f0      	push	{r4, r5, r6, r7, lr}
   25952:	af03      	add	r7, sp, #12
   25954:	b099      	sub	sp, #100	@ 0x64
   25956:	9004      	str	r0, [sp, #16]
   25958:	a805      	add	r0, sp, #20
   2595a:	2402      	movs	r4, #2
   2595c:	7004      	strb	r4, [r0, #0]
   2595e:	1c40      	adds	r0, r0, #1
   25960:	9003      	str	r0, [sp, #12]
   25962:	2521      	movs	r5, #33	@ 0x21
   25964:	462a      	mov	r2, r5
   25966:	f005 fbd1 	bl	2b10c <__aeabi_memcpy>
   2596a:	ae0e      	add	r6, sp, #56	@ 0x38
   2596c:	1c70      	adds	r0, r6, #1
   2596e:	212a      	movs	r1, #42	@ 0x2a
   25970:	9002      	str	r0, [sp, #8]
   25972:	f005 fa0b 	bl	2ad8c <__aeabi_memclr>
   25976:	9401      	str	r4, [sp, #4]
   25978:	7034      	strb	r4, [r6, #0]
   2597a:	4849      	ldr	r0, [pc, #292]	@ (25aa0 <_ZN20complex_dynamic_type3app17hb2e9c317b96a8bbfE+0x150>)
   2597c:	2601      	movs	r6, #1
   2597e:	4631      	mov	r1, r6
   25980:	9a03      	ldr	r2, [sp, #12]
   25982:	462b      	mov	r3, r5
   25984:	df04      	svc	4
   25986:	2802      	cmp	r0, #2
   25988:	d103      	bne.n	25992 <_ZN20complex_dynamic_type3app17hb2e9c317b96a8bbfE+0x42>
   2598a:	9804      	ldr	r0, [sp, #16]
   2598c:	7006      	strb	r6, [r0, #0]
   2598e:	6041      	str	r1, [r0, #4]
   25990:	e02c      	b.n	259ec <_ZN20complex_dynamic_type3app17hb2e9c317b96a8bbfE+0x9c>
   25992:	a805      	add	r0, sp, #20
   25994:	2104      	movs	r1, #4
   25996:	7001      	strb	r1, [r0, #0]
   25998:	4841      	ldr	r0, [pc, #260]	@ (25aa0 <_ZN20complex_dynamic_type3app17hb2e9c317b96a8bbfE+0x150>)
   2599a:	2403      	movs	r4, #3
   2599c:	232a      	movs	r3, #42	@ 0x2a
   2599e:	4621      	mov	r1, r4
   259a0:	9a02      	ldr	r2, [sp, #8]
   259a2:	df03      	svc	3
   259a4:	2802      	cmp	r0, #2
   259a6:	d10e      	bne.n	259c6 <_ZN20complex_dynamic_type3app17hb2e9c317b96a8bbfE+0x76>
   259a8:	9804      	ldr	r0, [sp, #16]
   259aa:	7006      	strb	r6, [r0, #0]
   259ac:	6041      	str	r1, [r0, #4]
   259ae:	a80e      	add	r0, sp, #56	@ 0x38
   259b0:	7800      	ldrb	r0, [r0, #0]
   259b2:	2802      	cmp	r0, #2
   259b4:	d01a      	beq.n	259ec <_ZN20complex_dynamic_type3app17hb2e9c317b96a8bbfE+0x9c>
   259b6:	2803      	cmp	r0, #3
   259b8:	d013      	beq.n	259e2 <_ZN20complex_dynamic_type3app17hb2e9c317b96a8bbfE+0x92>
   259ba:	4839      	ldr	r0, [pc, #228]	@ (25aa0 <_ZN20complex_dynamic_type3app17hb2e9c317b96a8bbfE+0x150>)
   259bc:	2103      	movs	r1, #3
   259be:	2200      	movs	r2, #0
   259c0:	4613      	mov	r3, r2
   259c2:	df04      	svc	4
   259c4:	e012      	b.n	259ec <_ZN20complex_dynamic_type3app17hb2e9c317b96a8bbfE+0x9c>
   259c6:	a80e      	add	r0, sp, #56	@ 0x38
   259c8:	7004      	strb	r4, [r0, #0]
   259ca:	4835      	ldr	r0, [pc, #212]	@ (25aa0 <_ZN20complex_dynamic_type3app17hb2e9c317b96a8bbfE+0x150>)
   259cc:	2501      	movs	r5, #1
   259ce:	2600      	movs	r6, #0
   259d0:	4629      	mov	r1, r5
   259d2:	4622      	mov	r2, r4
   259d4:	4633      	mov	r3, r6
   259d6:	df02      	svc	2
   259d8:	2880      	cmp	r0, #128	@ 0x80
   259da:	d21b      	bcs.n	25a14 <_ZN20complex_dynamic_type3app17hb2e9c317b96a8bbfE+0xc4>
   259dc:	9804      	ldr	r0, [sp, #16]
   259de:	7005      	strb	r5, [r0, #0]
   259e0:	6041      	str	r1, [r0, #4]
   259e2:	482f      	ldr	r0, [pc, #188]	@ (25aa0 <_ZN20complex_dynamic_type3app17hb2e9c317b96a8bbfE+0x150>)
   259e4:	2103      	movs	r1, #3
   259e6:	2200      	movs	r2, #0
   259e8:	4613      	mov	r3, r2
   259ea:	df03      	svc	3
   259ec:	a805      	add	r0, sp, #20
   259ee:	7800      	ldrb	r0, [r0, #0]
   259f0:	2802      	cmp	r0, #2
   259f2:	d046      	beq.n	25a82 <_ZN20complex_dynamic_type3app17hb2e9c317b96a8bbfE+0x132>
   259f4:	2804      	cmp	r0, #4
   259f6:	d106      	bne.n	25a06 <_ZN20complex_dynamic_type3app17hb2e9c317b96a8bbfE+0xb6>
   259f8:	4829      	ldr	r0, [pc, #164]	@ (25aa0 <_ZN20complex_dynamic_type3app17hb2e9c317b96a8bbfE+0x150>)
   259fa:	2101      	movs	r1, #1
   259fc:	2200      	movs	r2, #0
   259fe:	4613      	mov	r3, r2
   25a00:	df04      	svc	4
   25a02:	b019      	add	sp, #100	@ 0x64
   25a04:	bdf0      	pop	{r4, r5, r6, r7, pc}
   25a06:	4826      	ldr	r0, [pc, #152]	@ (25aa0 <_ZN20complex_dynamic_type3app17hb2e9c317b96a8bbfE+0x150>)
   25a08:	2101      	movs	r1, #1
   25a0a:	2200      	movs	r2, #0
   25a0c:	4613      	mov	r3, r2
   25a0e:	df03      	svc	3
   25a10:	b019      	add	sp, #100	@ 0x64
   25a12:	bdf0      	pop	{r4, r5, r6, r7, pc}
   25a14:	a805      	add	r0, sp, #20
   25a16:	7800      	ldrb	r0, [r0, #0]
   25a18:	2802      	cmp	r0, #2
   25a1a:	d00c      	beq.n	25a36 <_ZN20complex_dynamic_type3app17hb2e9c317b96a8bbfE+0xe6>
   25a1c:	2803      	cmp	r0, #3
   25a1e:	d105      	bne.n	25a2c <_ZN20complex_dynamic_type3app17hb2e9c317b96a8bbfE+0xdc>
   25a20:	481f      	ldr	r0, [pc, #124]	@ (25aa0 <_ZN20complex_dynamic_type3app17hb2e9c317b96a8bbfE+0x150>)
   25a22:	2101      	movs	r1, #1
   25a24:	2200      	movs	r2, #0
   25a26:	4613      	mov	r3, r2
   25a28:	df03      	svc	3
   25a2a:	e004      	b.n	25a36 <_ZN20complex_dynamic_type3app17hb2e9c317b96a8bbfE+0xe6>
   25a2c:	481c      	ldr	r0, [pc, #112]	@ (25aa0 <_ZN20complex_dynamic_type3app17hb2e9c317b96a8bbfE+0x150>)
   25a2e:	2101      	movs	r1, #1
   25a30:	2200      	movs	r2, #0
   25a32:	4613      	mov	r3, r2
   25a34:	df04      	svc	4
   25a36:	a805      	add	r0, sp, #20
   25a38:	9901      	ldr	r1, [sp, #4]
   25a3a:	7001      	strb	r1, [r0, #0]
   25a3c:	a80e      	add	r0, sp, #56	@ 0x38
   25a3e:	7800      	ldrb	r0, [r0, #0]
   25a40:	2804      	cmp	r0, #4
   25a42:	d007      	beq.n	25a54 <_ZN20complex_dynamic_type3app17hb2e9c317b96a8bbfE+0x104>
   25a44:	2803      	cmp	r0, #3
   25a46:	d11e      	bne.n	25a86 <_ZN20complex_dynamic_type3app17hb2e9c317b96a8bbfE+0x136>
   25a48:	4815      	ldr	r0, [pc, #84]	@ (25aa0 <_ZN20complex_dynamic_type3app17hb2e9c317b96a8bbfE+0x150>)
   25a4a:	2103      	movs	r1, #3
   25a4c:	2200      	movs	r2, #0
   25a4e:	4613      	mov	r3, r2
   25a50:	df03      	svc	3
   25a52:	e004      	b.n	25a5e <_ZN20complex_dynamic_type3app17hb2e9c317b96a8bbfE+0x10e>
   25a54:	4812      	ldr	r0, [pc, #72]	@ (25aa0 <_ZN20complex_dynamic_type3app17hb2e9c317b96a8bbfE+0x150>)
   25a56:	2103      	movs	r1, #3
   25a58:	2200      	movs	r2, #0
   25a5a:	4613      	mov	r3, r2
   25a5c:	df04      	svc	4
   25a5e:	a805      	add	r0, sp, #20
   25a60:	7804      	ldrb	r4, [r0, #0]
   25a62:	9d04      	ldr	r5, [sp, #16]
   25a64:	1c68      	adds	r0, r5, #1
   25a66:	222a      	movs	r2, #42	@ 0x2a
   25a68:	9902      	ldr	r1, [sp, #8]
   25a6a:	f005 fb4f 	bl	2b10c <__aeabi_memcpy>
   25a6e:	702e      	strb	r6, [r5, #0]
   25a70:	2c02      	cmp	r4, #2
   25a72:	d006      	beq.n	25a82 <_ZN20complex_dynamic_type3app17hb2e9c317b96a8bbfE+0x132>
   25a74:	480a      	ldr	r0, [pc, #40]	@ (25aa0 <_ZN20complex_dynamic_type3app17hb2e9c317b96a8bbfE+0x150>)
   25a76:	2101      	movs	r1, #1
   25a78:	2200      	movs	r2, #0
   25a7a:	4613      	mov	r3, r2
   25a7c:	2c04      	cmp	r4, #4
   25a7e:	d10b      	bne.n	25a98 <_ZN20complex_dynamic_type3app17hb2e9c317b96a8bbfE+0x148>
   25a80:	df04      	svc	4
   25a82:	b019      	add	sp, #100	@ 0x64
   25a84:	bdf0      	pop	{r4, r5, r6, r7, pc}
   25a86:	9c04      	ldr	r4, [sp, #16]
   25a88:	9902      	ldr	r1, [sp, #8]
   25a8a:	1c60      	adds	r0, r4, #1
   25a8c:	222a      	movs	r2, #42	@ 0x2a
   25a8e:	f005 fb3d 	bl	2b10c <__aeabi_memcpy>
   25a92:	7026      	strb	r6, [r4, #0]
   25a94:	b019      	add	sp, #100	@ 0x64
   25a96:	bdf0      	pop	{r4, r5, r6, r7, pc}
   25a98:	df03      	svc	3
   25a9a:	b019      	add	sp, #100	@ 0x64
   25a9c:	bdf0      	pop	{r4, r5, r6, r7, pc}
   25a9e:	46c0      	nop			@ (mov r8, r8)
   25aa0:	000015f3 	.word	0x000015f3

00025aa4 <_ZN20complex_dynamic_type3app17hb5a1e7e78f620771E>:
   25aa4:	b5f0      	push	{r4, r5, r6, r7, lr}
   25aa6:	af03      	add	r7, sp, #12
   25aa8:	b0a5      	sub	sp, #148	@ 0x94
   25aaa:	9003      	str	r0, [sp, #12]
   25aac:	a804      	add	r0, sp, #16
   25aae:	2502      	movs	r5, #2
   25ab0:	7005      	strb	r5, [r0, #0]
   25ab2:	1c40      	adds	r0, r0, #1
   25ab4:	9002      	str	r0, [sp, #8]
   25ab6:	2661      	movs	r6, #97	@ 0x61
   25ab8:	4632      	mov	r2, r6
   25aba:	f005 fb27 	bl	2b10c <__aeabi_memcpy>
   25abe:	ac1d      	add	r4, sp, #116	@ 0x74
   25ac0:	1c60      	adds	r0, r4, #1
   25ac2:	211e      	movs	r1, #30
   25ac4:	9001      	str	r0, [sp, #4]
   25ac6:	f005 f961 	bl	2ad8c <__aeabi_memclr>
   25aca:	9500      	str	r5, [sp, #0]
   25acc:	7025      	strb	r5, [r4, #0]
   25ace:	2031      	movs	r0, #49	@ 0x31
   25ad0:	00c5      	lsls	r5, r0, #3
   25ad2:	2404      	movs	r4, #4
   25ad4:	4628      	mov	r0, r5
   25ad6:	4621      	mov	r1, r4
   25ad8:	9a02      	ldr	r2, [sp, #8]
   25ada:	4633      	mov	r3, r6
   25adc:	df04      	svc	4
   25ade:	2802      	cmp	r0, #2
   25ae0:	d104      	bne.n	25aec <_ZN20complex_dynamic_type3app17hb5a1e7e78f620771E+0x48>
   25ae2:	2001      	movs	r0, #1
   25ae4:	9a03      	ldr	r2, [sp, #12]
   25ae6:	7010      	strb	r0, [r2, #0]
   25ae8:	6051      	str	r1, [r2, #4]
   25aea:	e02c      	b.n	25b46 <_ZN20complex_dynamic_type3app17hb5a1e7e78f620771E+0xa2>
   25aec:	9e03      	ldr	r6, [sp, #12]
   25aee:	a804      	add	r0, sp, #16
   25af0:	7004      	strb	r4, [r0, #0]
   25af2:	2106      	movs	r1, #6
   25af4:	231e      	movs	r3, #30
   25af6:	4628      	mov	r0, r5
   25af8:	9c01      	ldr	r4, [sp, #4]
   25afa:	4622      	mov	r2, r4
   25afc:	df03      	svc	3
   25afe:	2802      	cmp	r0, #2
   25b00:	d10e      	bne.n	25b20 <_ZN20complex_dynamic_type3app17hb5a1e7e78f620771E+0x7c>
   25b02:	2001      	movs	r0, #1
   25b04:	7030      	strb	r0, [r6, #0]
   25b06:	6071      	str	r1, [r6, #4]
   25b08:	a81d      	add	r0, sp, #116	@ 0x74
   25b0a:	7800      	ldrb	r0, [r0, #0]
   25b0c:	2802      	cmp	r0, #2
   25b0e:	d01a      	beq.n	25b46 <_ZN20complex_dynamic_type3app17hb5a1e7e78f620771E+0xa2>
   25b10:	2803      	cmp	r0, #3
   25b12:	d013      	beq.n	25b3c <_ZN20complex_dynamic_type3app17hb5a1e7e78f620771E+0x98>
   25b14:	2106      	movs	r1, #6
   25b16:	2200      	movs	r2, #0
   25b18:	4628      	mov	r0, r5
   25b1a:	4613      	mov	r3, r2
   25b1c:	df04      	svc	4
   25b1e:	e012      	b.n	25b46 <_ZN20complex_dynamic_type3app17hb5a1e7e78f620771E+0xa2>
   25b20:	a81d      	add	r0, sp, #116	@ 0x74
   25b22:	2103      	movs	r1, #3
   25b24:	7001      	strb	r1, [r0, #0]
   25b26:	2104      	movs	r1, #4
   25b28:	2206      	movs	r2, #6
   25b2a:	2300      	movs	r3, #0
   25b2c:	4628      	mov	r0, r5
   25b2e:	9302      	str	r3, [sp, #8]
   25b30:	df02      	svc	2
   25b32:	2880      	cmp	r0, #128	@ 0x80
   25b34:	d219      	bcs.n	25b6a <_ZN20complex_dynamic_type3app17hb5a1e7e78f620771E+0xc6>
   25b36:	2001      	movs	r0, #1
   25b38:	7030      	strb	r0, [r6, #0]
   25b3a:	6071      	str	r1, [r6, #4]
   25b3c:	2106      	movs	r1, #6
   25b3e:	2200      	movs	r2, #0
   25b40:	4628      	mov	r0, r5
   25b42:	4613      	mov	r3, r2
   25b44:	df03      	svc	3
   25b46:	a804      	add	r0, sp, #16
   25b48:	7800      	ldrb	r0, [r0, #0]
   25b4a:	2802      	cmp	r0, #2
   25b4c:	d042      	beq.n	25bd4 <_ZN20complex_dynamic_type3app17hb5a1e7e78f620771E+0x130>
   25b4e:	2104      	movs	r1, #4
   25b50:	2200      	movs	r2, #0
   25b52:	2804      	cmp	r0, #4
   25b54:	d104      	bne.n	25b60 <_ZN20complex_dynamic_type3app17hb5a1e7e78f620771E+0xbc>
   25b56:	4628      	mov	r0, r5
   25b58:	4613      	mov	r3, r2
   25b5a:	df04      	svc	4
   25b5c:	b025      	add	sp, #148	@ 0x94
   25b5e:	bdf0      	pop	{r4, r5, r6, r7, pc}
   25b60:	4628      	mov	r0, r5
   25b62:	4613      	mov	r3, r2
   25b64:	df03      	svc	3
   25b66:	b025      	add	sp, #148	@ 0x94
   25b68:	bdf0      	pop	{r4, r5, r6, r7, pc}
   25b6a:	a804      	add	r0, sp, #16
   25b6c:	7800      	ldrb	r0, [r0, #0]
   25b6e:	2802      	cmp	r0, #2
   25b70:	d00a      	beq.n	25b88 <_ZN20complex_dynamic_type3app17hb5a1e7e78f620771E+0xe4>
   25b72:	2104      	movs	r1, #4
   25b74:	2200      	movs	r2, #0
   25b76:	2803      	cmp	r0, #3
   25b78:	d103      	bne.n	25b82 <_ZN20complex_dynamic_type3app17hb5a1e7e78f620771E+0xde>
   25b7a:	4628      	mov	r0, r5
   25b7c:	4613      	mov	r3, r2
   25b7e:	df03      	svc	3
   25b80:	e002      	b.n	25b88 <_ZN20complex_dynamic_type3app17hb5a1e7e78f620771E+0xe4>
   25b82:	4628      	mov	r0, r5
   25b84:	4613      	mov	r3, r2
   25b86:	df04      	svc	4
   25b88:	a804      	add	r0, sp, #16
   25b8a:	9900      	ldr	r1, [sp, #0]
   25b8c:	7001      	strb	r1, [r0, #0]
   25b8e:	a81d      	add	r0, sp, #116	@ 0x74
   25b90:	7800      	ldrb	r0, [r0, #0]
   25b92:	2804      	cmp	r0, #4
   25b94:	d007      	beq.n	25ba6 <_ZN20complex_dynamic_type3app17hb5a1e7e78f620771E+0x102>
   25b96:	2803      	cmp	r0, #3
   25b98:	d11e      	bne.n	25bd8 <_ZN20complex_dynamic_type3app17hb5a1e7e78f620771E+0x134>
   25b9a:	2106      	movs	r1, #6
   25b9c:	2200      	movs	r2, #0
   25b9e:	4628      	mov	r0, r5
   25ba0:	4613      	mov	r3, r2
   25ba2:	df03      	svc	3
   25ba4:	e004      	b.n	25bb0 <_ZN20complex_dynamic_type3app17hb5a1e7e78f620771E+0x10c>
   25ba6:	2106      	movs	r1, #6
   25ba8:	2200      	movs	r2, #0
   25baa:	4628      	mov	r0, r5
   25bac:	4613      	mov	r3, r2
   25bae:	df04      	svc	4
   25bb0:	a804      	add	r0, sp, #16
   25bb2:	7804      	ldrb	r4, [r0, #0]
   25bb4:	1c70      	adds	r0, r6, #1
   25bb6:	221e      	movs	r2, #30
   25bb8:	9901      	ldr	r1, [sp, #4]
   25bba:	f005 faa7 	bl	2b10c <__aeabi_memcpy>
   25bbe:	9802      	ldr	r0, [sp, #8]
   25bc0:	7030      	strb	r0, [r6, #0]
   25bc2:	2c02      	cmp	r4, #2
   25bc4:	d006      	beq.n	25bd4 <_ZN20complex_dynamic_type3app17hb5a1e7e78f620771E+0x130>
   25bc6:	2104      	movs	r1, #4
   25bc8:	2200      	movs	r2, #0
   25bca:	4628      	mov	r0, r5
   25bcc:	4613      	mov	r3, r2
   25bce:	2c04      	cmp	r4, #4
   25bd0:	d10b      	bne.n	25bea <_ZN20complex_dynamic_type3app17hb5a1e7e78f620771E+0x146>
   25bd2:	df04      	svc	4
   25bd4:	b025      	add	sp, #148	@ 0x94
   25bd6:	bdf0      	pop	{r4, r5, r6, r7, pc}
   25bd8:	1c70      	adds	r0, r6, #1
   25bda:	221e      	movs	r2, #30
   25bdc:	4621      	mov	r1, r4
   25bde:	f005 fa95 	bl	2b10c <__aeabi_memcpy>
   25be2:	9802      	ldr	r0, [sp, #8]
   25be4:	7030      	strb	r0, [r6, #0]
   25be6:	b025      	add	sp, #148	@ 0x94
   25be8:	bdf0      	pop	{r4, r5, r6, r7, pc}
   25bea:	df03      	svc	3
   25bec:	b025      	add	sp, #148	@ 0x94
   25bee:	bdf0      	pop	{r4, r5, r6, r7, pc}

00025bf0 <_ZN20complex_dynamic_type3app17hb762c710570c6283E>:
   25bf0:	b5f0      	push	{r4, r5, r6, r7, lr}
   25bf2:	af03      	add	r7, sp, #12
   25bf4:	b0ad      	sub	sp, #180	@ 0xb4
   25bf6:	9003      	str	r0, [sp, #12]
   25bf8:	a804      	add	r0, sp, #16
   25bfa:	2402      	movs	r4, #2
   25bfc:	7004      	strb	r4, [r0, #0]
   25bfe:	1c46      	adds	r6, r0, #1
   25c00:	225d      	movs	r2, #93	@ 0x5d
   25c02:	9202      	str	r2, [sp, #8]
   25c04:	4630      	mov	r0, r6
   25c06:	f005 fa81 	bl	2b10c <__aeabi_memcpy>
   25c0a:	ad1c      	add	r5, sp, #112	@ 0x70
   25c0c:	1c68      	adds	r0, r5, #1
   25c0e:	2140      	movs	r1, #64	@ 0x40
   25c10:	9001      	str	r0, [sp, #4]
   25c12:	f005 f8bb 	bl	2ad8c <__aeabi_memclr>
   25c16:	9400      	str	r4, [sp, #0]
   25c18:	702c      	strb	r4, [r5, #0]
   25c1a:	4848      	ldr	r0, [pc, #288]	@ (25d3c <_ZN20complex_dynamic_type3app17hb762c710570c6283E+0x14c>)
   25c1c:	2108      	movs	r1, #8
   25c1e:	4632      	mov	r2, r6
   25c20:	9b02      	ldr	r3, [sp, #8]
   25c22:	df04      	svc	4
   25c24:	2802      	cmp	r0, #2
   25c26:	d104      	bne.n	25c32 <_ZN20complex_dynamic_type3app17hb762c710570c6283E+0x42>
   25c28:	2001      	movs	r0, #1
   25c2a:	9a03      	ldr	r2, [sp, #12]
   25c2c:	7010      	strb	r0, [r2, #0]
   25c2e:	6051      	str	r1, [r2, #4]
   25c30:	e02c      	b.n	25c8c <_ZN20complex_dynamic_type3app17hb762c710570c6283E+0x9c>
   25c32:	9d03      	ldr	r5, [sp, #12]
   25c34:	a804      	add	r0, sp, #16
   25c36:	2104      	movs	r1, #4
   25c38:	7001      	strb	r1, [r0, #0]
   25c3a:	4840      	ldr	r0, [pc, #256]	@ (25d3c <_ZN20complex_dynamic_type3app17hb762c710570c6283E+0x14c>)
   25c3c:	2340      	movs	r3, #64	@ 0x40
   25c3e:	9c01      	ldr	r4, [sp, #4]
   25c40:	4622      	mov	r2, r4
   25c42:	df03      	svc	3
   25c44:	2802      	cmp	r0, #2
   25c46:	d10e      	bne.n	25c66 <_ZN20complex_dynamic_type3app17hb762c710570c6283E+0x76>
   25c48:	2001      	movs	r0, #1
   25c4a:	7028      	strb	r0, [r5, #0]
   25c4c:	6069      	str	r1, [r5, #4]
   25c4e:	a81c      	add	r0, sp, #112	@ 0x70
   25c50:	7800      	ldrb	r0, [r0, #0]
   25c52:	2802      	cmp	r0, #2
   25c54:	d01a      	beq.n	25c8c <_ZN20complex_dynamic_type3app17hb762c710570c6283E+0x9c>
   25c56:	2803      	cmp	r0, #3
   25c58:	d013      	beq.n	25c82 <_ZN20complex_dynamic_type3app17hb762c710570c6283E+0x92>
   25c5a:	4838      	ldr	r0, [pc, #224]	@ (25d3c <_ZN20complex_dynamic_type3app17hb762c710570c6283E+0x14c>)
   25c5c:	2104      	movs	r1, #4
   25c5e:	2200      	movs	r2, #0
   25c60:	4613      	mov	r3, r2
   25c62:	df04      	svc	4
   25c64:	e012      	b.n	25c8c <_ZN20complex_dynamic_type3app17hb762c710570c6283E+0x9c>
   25c66:	a81c      	add	r0, sp, #112	@ 0x70
   25c68:	2103      	movs	r1, #3
   25c6a:	7001      	strb	r1, [r0, #0]
   25c6c:	4833      	ldr	r0, [pc, #204]	@ (25d3c <_ZN20complex_dynamic_type3app17hb762c710570c6283E+0x14c>)
   25c6e:	2108      	movs	r1, #8
   25c70:	2204      	movs	r2, #4
   25c72:	2600      	movs	r6, #0
   25c74:	4633      	mov	r3, r6
   25c76:	df02      	svc	2
   25c78:	2880      	cmp	r0, #128	@ 0x80
   25c7a:	d21b      	bcs.n	25cb4 <_ZN20complex_dynamic_type3app17hb762c710570c6283E+0xc4>
   25c7c:	2001      	movs	r0, #1
   25c7e:	7028      	strb	r0, [r5, #0]
   25c80:	6069      	str	r1, [r5, #4]
   25c82:	482e      	ldr	r0, [pc, #184]	@ (25d3c <_ZN20complex_dynamic_type3app17hb762c710570c6283E+0x14c>)
   25c84:	2104      	movs	r1, #4
   25c86:	2200      	movs	r2, #0
   25c88:	4613      	mov	r3, r2
   25c8a:	df03      	svc	3
   25c8c:	a804      	add	r0, sp, #16
   25c8e:	7800      	ldrb	r0, [r0, #0]
   25c90:	2802      	cmp	r0, #2
   25c92:	d045      	beq.n	25d20 <_ZN20complex_dynamic_type3app17hb762c710570c6283E+0x130>
   25c94:	2804      	cmp	r0, #4
   25c96:	d106      	bne.n	25ca6 <_ZN20complex_dynamic_type3app17hb762c710570c6283E+0xb6>
   25c98:	4828      	ldr	r0, [pc, #160]	@ (25d3c <_ZN20complex_dynamic_type3app17hb762c710570c6283E+0x14c>)
   25c9a:	2108      	movs	r1, #8
   25c9c:	2200      	movs	r2, #0
   25c9e:	4613      	mov	r3, r2
   25ca0:	df04      	svc	4
   25ca2:	b02d      	add	sp, #180	@ 0xb4
   25ca4:	bdf0      	pop	{r4, r5, r6, r7, pc}
   25ca6:	4825      	ldr	r0, [pc, #148]	@ (25d3c <_ZN20complex_dynamic_type3app17hb762c710570c6283E+0x14c>)
   25ca8:	2108      	movs	r1, #8
   25caa:	2200      	movs	r2, #0
   25cac:	4613      	mov	r3, r2
   25cae:	df03      	svc	3
   25cb0:	b02d      	add	sp, #180	@ 0xb4
   25cb2:	bdf0      	pop	{r4, r5, r6, r7, pc}
   25cb4:	a804      	add	r0, sp, #16
   25cb6:	7800      	ldrb	r0, [r0, #0]
   25cb8:	2802      	cmp	r0, #2
   25cba:	d00c      	beq.n	25cd6 <_ZN20complex_dynamic_type3app17hb762c710570c6283E+0xe6>
   25cbc:	2803      	cmp	r0, #3
   25cbe:	d105      	bne.n	25ccc <_ZN20complex_dynamic_type3app17hb762c710570c6283E+0xdc>
   25cc0:	481e      	ldr	r0, [pc, #120]	@ (25d3c <_ZN20complex_dynamic_type3app17hb762c710570c6283E+0x14c>)
   25cc2:	2108      	movs	r1, #8
   25cc4:	2200      	movs	r2, #0
   25cc6:	4613      	mov	r3, r2
   25cc8:	df03      	svc	3
   25cca:	e004      	b.n	25cd6 <_ZN20complex_dynamic_type3app17hb762c710570c6283E+0xe6>
   25ccc:	481b      	ldr	r0, [pc, #108]	@ (25d3c <_ZN20complex_dynamic_type3app17hb762c710570c6283E+0x14c>)
   25cce:	2108      	movs	r1, #8
   25cd0:	2200      	movs	r2, #0
   25cd2:	4613      	mov	r3, r2
   25cd4:	df04      	svc	4
   25cd6:	a804      	add	r0, sp, #16
   25cd8:	9900      	ldr	r1, [sp, #0]
   25cda:	7001      	strb	r1, [r0, #0]
   25cdc:	a81c      	add	r0, sp, #112	@ 0x70
   25cde:	7800      	ldrb	r0, [r0, #0]
   25ce0:	2804      	cmp	r0, #4
   25ce2:	d007      	beq.n	25cf4 <_ZN20complex_dynamic_type3app17hb762c710570c6283E+0x104>
   25ce4:	2803      	cmp	r0, #3
   25ce6:	d11d      	bne.n	25d24 <_ZN20complex_dynamic_type3app17hb762c710570c6283E+0x134>
   25ce8:	4814      	ldr	r0, [pc, #80]	@ (25d3c <_ZN20complex_dynamic_type3app17hb762c710570c6283E+0x14c>)
   25cea:	2104      	movs	r1, #4
   25cec:	2200      	movs	r2, #0
   25cee:	4613      	mov	r3, r2
   25cf0:	df03      	svc	3
   25cf2:	e004      	b.n	25cfe <_ZN20complex_dynamic_type3app17hb762c710570c6283E+0x10e>
   25cf4:	4811      	ldr	r0, [pc, #68]	@ (25d3c <_ZN20complex_dynamic_type3app17hb762c710570c6283E+0x14c>)
   25cf6:	2104      	movs	r1, #4
   25cf8:	2200      	movs	r2, #0
   25cfa:	4613      	mov	r3, r2
   25cfc:	df04      	svc	4
   25cfe:	a804      	add	r0, sp, #16
   25d00:	7804      	ldrb	r4, [r0, #0]
   25d02:	1c68      	adds	r0, r5, #1
   25d04:	2240      	movs	r2, #64	@ 0x40
   25d06:	9901      	ldr	r1, [sp, #4]
   25d08:	f005 fa00 	bl	2b10c <__aeabi_memcpy>
   25d0c:	702e      	strb	r6, [r5, #0]
   25d0e:	2c02      	cmp	r4, #2
   25d10:	d006      	beq.n	25d20 <_ZN20complex_dynamic_type3app17hb762c710570c6283E+0x130>
   25d12:	480a      	ldr	r0, [pc, #40]	@ (25d3c <_ZN20complex_dynamic_type3app17hb762c710570c6283E+0x14c>)
   25d14:	2108      	movs	r1, #8
   25d16:	2200      	movs	r2, #0
   25d18:	4613      	mov	r3, r2
   25d1a:	2c04      	cmp	r4, #4
   25d1c:	d10a      	bne.n	25d34 <_ZN20complex_dynamic_type3app17hb762c710570c6283E+0x144>
   25d1e:	df04      	svc	4
   25d20:	b02d      	add	sp, #180	@ 0xb4
   25d22:	bdf0      	pop	{r4, r5, r6, r7, pc}
   25d24:	1c68      	adds	r0, r5, #1
   25d26:	2240      	movs	r2, #64	@ 0x40
   25d28:	4621      	mov	r1, r4
   25d2a:	f005 f9ef 	bl	2b10c <__aeabi_memcpy>
   25d2e:	702e      	strb	r6, [r5, #0]
   25d30:	b02d      	add	sp, #180	@ 0xb4
   25d32:	bdf0      	pop	{r4, r5, r6, r7, pc}
   25d34:	df03      	svc	3
   25d36:	b02d      	add	sp, #180	@ 0xb4
   25d38:	bdf0      	pop	{r4, r5, r6, r7, pc}
   25d3a:	46c0      	nop			@ (mov r8, r8)
   25d3c:	00001028 	.word	0x00001028

00025d40 <_ZN20complex_dynamic_type3app17hb8bc98814ac5fff6E>:
   25d40:	b5f0      	push	{r4, r5, r6, r7, lr}
   25d42:	af03      	add	r7, sp, #12
   25d44:	b097      	sub	sp, #92	@ 0x5c
   25d46:	9004      	str	r0, [sp, #16]
   25d48:	a805      	add	r0, sp, #20
   25d4a:	2402      	movs	r4, #2
   25d4c:	7004      	strb	r4, [r0, #0]
   25d4e:	1c46      	adds	r6, r0, #1
   25d50:	2232      	movs	r2, #50	@ 0x32
   25d52:	9203      	str	r2, [sp, #12]
   25d54:	4630      	mov	r0, r6
   25d56:	f005 f9d9 	bl	2b10c <__aeabi_memcpy>
   25d5a:	ad12      	add	r5, sp, #72	@ 0x48
   25d5c:	1c68      	adds	r0, r5, #1
   25d5e:	2110      	movs	r1, #16
   25d60:	9002      	str	r0, [sp, #8]
   25d62:	f005 f813 	bl	2ad8c <__aeabi_memclr>
   25d66:	9401      	str	r4, [sp, #4]
   25d68:	702c      	strb	r4, [r5, #0]
   25d6a:	4848      	ldr	r0, [pc, #288]	@ (25e8c <_ZN20complex_dynamic_type3app17hb8bc98814ac5fff6E+0x14c>)
   25d6c:	2504      	movs	r5, #4
   25d6e:	4629      	mov	r1, r5
   25d70:	4632      	mov	r2, r6
   25d72:	9b03      	ldr	r3, [sp, #12]
   25d74:	df04      	svc	4
   25d76:	2802      	cmp	r0, #2
   25d78:	d104      	bne.n	25d84 <_ZN20complex_dynamic_type3app17hb8bc98814ac5fff6E+0x44>
   25d7a:	2001      	movs	r0, #1
   25d7c:	9a04      	ldr	r2, [sp, #16]
   25d7e:	7010      	strb	r0, [r2, #0]
   25d80:	6051      	str	r1, [r2, #4]
   25d82:	e02c      	b.n	25dde <_ZN20complex_dynamic_type3app17hb8bc98814ac5fff6E+0x9e>
   25d84:	9c04      	ldr	r4, [sp, #16]
   25d86:	a805      	add	r0, sp, #20
   25d88:	7005      	strb	r5, [r0, #0]
   25d8a:	4840      	ldr	r0, [pc, #256]	@ (25e8c <_ZN20complex_dynamic_type3app17hb8bc98814ac5fff6E+0x14c>)
   25d8c:	2109      	movs	r1, #9
   25d8e:	2310      	movs	r3, #16
   25d90:	9a02      	ldr	r2, [sp, #8]
   25d92:	df03      	svc	3
   25d94:	2802      	cmp	r0, #2
   25d96:	d10e      	bne.n	25db6 <_ZN20complex_dynamic_type3app17hb8bc98814ac5fff6E+0x76>
   25d98:	2001      	movs	r0, #1
   25d9a:	7020      	strb	r0, [r4, #0]
   25d9c:	6061      	str	r1, [r4, #4]
   25d9e:	a812      	add	r0, sp, #72	@ 0x48
   25da0:	7800      	ldrb	r0, [r0, #0]
   25da2:	2802      	cmp	r0, #2
   25da4:	d01b      	beq.n	25dde <_ZN20complex_dynamic_type3app17hb8bc98814ac5fff6E+0x9e>
   25da6:	2803      	cmp	r0, #3
   25da8:	d014      	beq.n	25dd4 <_ZN20complex_dynamic_type3app17hb8bc98814ac5fff6E+0x94>
   25daa:	4838      	ldr	r0, [pc, #224]	@ (25e8c <_ZN20complex_dynamic_type3app17hb8bc98814ac5fff6E+0x14c>)
   25dac:	2109      	movs	r1, #9
   25dae:	2200      	movs	r2, #0
   25db0:	4613      	mov	r3, r2
   25db2:	df04      	svc	4
   25db4:	e013      	b.n	25dde <_ZN20complex_dynamic_type3app17hb8bc98814ac5fff6E+0x9e>
   25db6:	a812      	add	r0, sp, #72	@ 0x48
   25db8:	2103      	movs	r1, #3
   25dba:	7001      	strb	r1, [r0, #0]
   25dbc:	4833      	ldr	r0, [pc, #204]	@ (25e8c <_ZN20complex_dynamic_type3app17hb8bc98814ac5fff6E+0x14c>)
   25dbe:	2104      	movs	r1, #4
   25dc0:	2209      	movs	r2, #9
   25dc2:	2600      	movs	r6, #0
   25dc4:	4633      	mov	r3, r6
   25dc6:	df02      	svc	2
   25dc8:	2880      	cmp	r0, #128	@ 0x80
   25dca:	4625      	mov	r5, r4
   25dcc:	d21b      	bcs.n	25e06 <_ZN20complex_dynamic_type3app17hb8bc98814ac5fff6E+0xc6>
   25dce:	2001      	movs	r0, #1
   25dd0:	7028      	strb	r0, [r5, #0]
   25dd2:	6069      	str	r1, [r5, #4]
   25dd4:	482d      	ldr	r0, [pc, #180]	@ (25e8c <_ZN20complex_dynamic_type3app17hb8bc98814ac5fff6E+0x14c>)
   25dd6:	2109      	movs	r1, #9
   25dd8:	2200      	movs	r2, #0
   25dda:	4613      	mov	r3, r2
   25ddc:	df03      	svc	3
   25dde:	a805      	add	r0, sp, #20
   25de0:	7800      	ldrb	r0, [r0, #0]
   25de2:	2802      	cmp	r0, #2
   25de4:	d045      	beq.n	25e72 <_ZN20complex_dynamic_type3app17hb8bc98814ac5fff6E+0x132>
   25de6:	2804      	cmp	r0, #4
   25de8:	d106      	bne.n	25df8 <_ZN20complex_dynamic_type3app17hb8bc98814ac5fff6E+0xb8>
   25dea:	4828      	ldr	r0, [pc, #160]	@ (25e8c <_ZN20complex_dynamic_type3app17hb8bc98814ac5fff6E+0x14c>)
   25dec:	2104      	movs	r1, #4
   25dee:	2200      	movs	r2, #0
   25df0:	4613      	mov	r3, r2
   25df2:	df04      	svc	4
   25df4:	b017      	add	sp, #92	@ 0x5c
   25df6:	bdf0      	pop	{r4, r5, r6, r7, pc}
   25df8:	4824      	ldr	r0, [pc, #144]	@ (25e8c <_ZN20complex_dynamic_type3app17hb8bc98814ac5fff6E+0x14c>)
   25dfa:	2104      	movs	r1, #4
   25dfc:	2200      	movs	r2, #0
   25dfe:	4613      	mov	r3, r2
   25e00:	df03      	svc	3
   25e02:	b017      	add	sp, #92	@ 0x5c
   25e04:	bdf0      	pop	{r4, r5, r6, r7, pc}
   25e06:	a805      	add	r0, sp, #20
   25e08:	7800      	ldrb	r0, [r0, #0]
   25e0a:	2802      	cmp	r0, #2
   25e0c:	d00c      	beq.n	25e28 <_ZN20complex_dynamic_type3app17hb8bc98814ac5fff6E+0xe8>
   25e0e:	2803      	cmp	r0, #3
   25e10:	d105      	bne.n	25e1e <_ZN20complex_dynamic_type3app17hb8bc98814ac5fff6E+0xde>
   25e12:	481e      	ldr	r0, [pc, #120]	@ (25e8c <_ZN20complex_dynamic_type3app17hb8bc98814ac5fff6E+0x14c>)
   25e14:	2104      	movs	r1, #4
   25e16:	2200      	movs	r2, #0
   25e18:	4613      	mov	r3, r2
   25e1a:	df03      	svc	3
   25e1c:	e004      	b.n	25e28 <_ZN20complex_dynamic_type3app17hb8bc98814ac5fff6E+0xe8>
   25e1e:	481b      	ldr	r0, [pc, #108]	@ (25e8c <_ZN20complex_dynamic_type3app17hb8bc98814ac5fff6E+0x14c>)
   25e20:	2104      	movs	r1, #4
   25e22:	2200      	movs	r2, #0
   25e24:	4613      	mov	r3, r2
   25e26:	df04      	svc	4
   25e28:	a805      	add	r0, sp, #20
   25e2a:	9901      	ldr	r1, [sp, #4]
   25e2c:	7001      	strb	r1, [r0, #0]
   25e2e:	a812      	add	r0, sp, #72	@ 0x48
   25e30:	7800      	ldrb	r0, [r0, #0]
   25e32:	2804      	cmp	r0, #4
   25e34:	d007      	beq.n	25e46 <_ZN20complex_dynamic_type3app17hb8bc98814ac5fff6E+0x106>
   25e36:	2803      	cmp	r0, #3
   25e38:	d11d      	bne.n	25e76 <_ZN20complex_dynamic_type3app17hb8bc98814ac5fff6E+0x136>
   25e3a:	4814      	ldr	r0, [pc, #80]	@ (25e8c <_ZN20complex_dynamic_type3app17hb8bc98814ac5fff6E+0x14c>)
   25e3c:	2109      	movs	r1, #9
   25e3e:	2200      	movs	r2, #0
   25e40:	4613      	mov	r3, r2
   25e42:	df03      	svc	3
   25e44:	e004      	b.n	25e50 <_ZN20complex_dynamic_type3app17hb8bc98814ac5fff6E+0x110>
   25e46:	4811      	ldr	r0, [pc, #68]	@ (25e8c <_ZN20complex_dynamic_type3app17hb8bc98814ac5fff6E+0x14c>)
   25e48:	2109      	movs	r1, #9
   25e4a:	2200      	movs	r2, #0
   25e4c:	4613      	mov	r3, r2
   25e4e:	df04      	svc	4
   25e50:	a805      	add	r0, sp, #20
   25e52:	7804      	ldrb	r4, [r0, #0]
   25e54:	1c68      	adds	r0, r5, #1
   25e56:	2210      	movs	r2, #16
   25e58:	9902      	ldr	r1, [sp, #8]
   25e5a:	f005 f957 	bl	2b10c <__aeabi_memcpy>
   25e5e:	702e      	strb	r6, [r5, #0]
   25e60:	2c02      	cmp	r4, #2
   25e62:	d006      	beq.n	25e72 <_ZN20complex_dynamic_type3app17hb8bc98814ac5fff6E+0x132>
   25e64:	4809      	ldr	r0, [pc, #36]	@ (25e8c <_ZN20complex_dynamic_type3app17hb8bc98814ac5fff6E+0x14c>)
   25e66:	2104      	movs	r1, #4
   25e68:	2200      	movs	r2, #0
   25e6a:	4613      	mov	r3, r2
   25e6c:	2c04      	cmp	r4, #4
   25e6e:	d10a      	bne.n	25e86 <_ZN20complex_dynamic_type3app17hb8bc98814ac5fff6E+0x146>
   25e70:	df04      	svc	4
   25e72:	b017      	add	sp, #92	@ 0x5c
   25e74:	bdf0      	pop	{r4, r5, r6, r7, pc}
   25e76:	1c68      	adds	r0, r5, #1
   25e78:	2210      	movs	r2, #16
   25e7a:	9902      	ldr	r1, [sp, #8]
   25e7c:	f005 f946 	bl	2b10c <__aeabi_memcpy>
   25e80:	702e      	strb	r6, [r5, #0]
   25e82:	b017      	add	sp, #92	@ 0x5c
   25e84:	bdf0      	pop	{r4, r5, r6, r7, pc}
   25e86:	df03      	svc	3
   25e88:	b017      	add	sp, #92	@ 0x5c
   25e8a:	bdf0      	pop	{r4, r5, r6, r7, pc}
   25e8c:	000019d6 	.word	0x000019d6

00025e90 <_ZN20complex_dynamic_type3app17hb96f3150196a7104E>:
   25e90:	b5f0      	push	{r4, r5, r6, r7, lr}
   25e92:	af03      	add	r7, sp, #12
   25e94:	b09f      	sub	sp, #124	@ 0x7c
   25e96:	9002      	str	r0, [sp, #8]
   25e98:	a803      	add	r0, sp, #12
   25e9a:	2602      	movs	r6, #2
   25e9c:	7006      	strb	r6, [r0, #0]
   25e9e:	1c40      	adds	r0, r0, #1
   25ea0:	9001      	str	r0, [sp, #4]
   25ea2:	2550      	movs	r5, #80	@ 0x50
   25ea4:	462a      	mov	r2, r5
   25ea6:	f005 f931 	bl	2b10c <__aeabi_memcpy>
   25eaa:	ac18      	add	r4, sp, #96	@ 0x60
   25eac:	1c60      	adds	r0, r4, #1
   25eae:	211b      	movs	r1, #27
   25eb0:	9000      	str	r0, [sp, #0]
   25eb2:	f004 ff6b 	bl	2ad8c <__aeabi_memclr>
   25eb6:	7026      	strb	r6, [r4, #0]
   25eb8:	4848      	ldr	r0, [pc, #288]	@ (25fdc <_ZN20complex_dynamic_type3app17hb96f3150196a7104E+0x14c>)
   25eba:	2601      	movs	r6, #1
   25ebc:	4631      	mov	r1, r6
   25ebe:	9a01      	ldr	r2, [sp, #4]
   25ec0:	462b      	mov	r3, r5
   25ec2:	df04      	svc	4
   25ec4:	2802      	cmp	r0, #2
   25ec6:	d103      	bne.n	25ed0 <_ZN20complex_dynamic_type3app17hb96f3150196a7104E+0x40>
   25ec8:	9802      	ldr	r0, [sp, #8]
   25eca:	7006      	strb	r6, [r0, #0]
   25ecc:	6041      	str	r1, [r0, #4]
   25ece:	e02c      	b.n	25f2a <_ZN20complex_dynamic_type3app17hb96f3150196a7104E+0x9a>
   25ed0:	9d02      	ldr	r5, [sp, #8]
   25ed2:	a803      	add	r0, sp, #12
   25ed4:	2104      	movs	r1, #4
   25ed6:	7001      	strb	r1, [r0, #0]
   25ed8:	4840      	ldr	r0, [pc, #256]	@ (25fdc <_ZN20complex_dynamic_type3app17hb96f3150196a7104E+0x14c>)
   25eda:	2102      	movs	r1, #2
   25edc:	231b      	movs	r3, #27
   25ede:	9a00      	ldr	r2, [sp, #0]
   25ee0:	df03      	svc	3
   25ee2:	2802      	cmp	r0, #2
   25ee4:	d10d      	bne.n	25f02 <_ZN20complex_dynamic_type3app17hb96f3150196a7104E+0x72>
   25ee6:	702e      	strb	r6, [r5, #0]
   25ee8:	6069      	str	r1, [r5, #4]
   25eea:	a818      	add	r0, sp, #96	@ 0x60
   25eec:	7800      	ldrb	r0, [r0, #0]
   25eee:	2802      	cmp	r0, #2
   25ef0:	d01b      	beq.n	25f2a <_ZN20complex_dynamic_type3app17hb96f3150196a7104E+0x9a>
   25ef2:	2803      	cmp	r0, #3
   25ef4:	d014      	beq.n	25f20 <_ZN20complex_dynamic_type3app17hb96f3150196a7104E+0x90>
   25ef6:	4839      	ldr	r0, [pc, #228]	@ (25fdc <_ZN20complex_dynamic_type3app17hb96f3150196a7104E+0x14c>)
   25ef8:	2102      	movs	r1, #2
   25efa:	2200      	movs	r2, #0
   25efc:	4613      	mov	r3, r2
   25efe:	df04      	svc	4
   25f00:	e013      	b.n	25f2a <_ZN20complex_dynamic_type3app17hb96f3150196a7104E+0x9a>
   25f02:	a818      	add	r0, sp, #96	@ 0x60
   25f04:	2103      	movs	r1, #3
   25f06:	7001      	strb	r1, [r0, #0]
   25f08:	4834      	ldr	r0, [pc, #208]	@ (25fdc <_ZN20complex_dynamic_type3app17hb96f3150196a7104E+0x14c>)
   25f0a:	2401      	movs	r4, #1
   25f0c:	2602      	movs	r6, #2
   25f0e:	2300      	movs	r3, #0
   25f10:	4621      	mov	r1, r4
   25f12:	4632      	mov	r2, r6
   25f14:	9301      	str	r3, [sp, #4]
   25f16:	df02      	svc	2
   25f18:	2880      	cmp	r0, #128	@ 0x80
   25f1a:	d21a      	bcs.n	25f52 <_ZN20complex_dynamic_type3app17hb96f3150196a7104E+0xc2>
   25f1c:	702c      	strb	r4, [r5, #0]
   25f1e:	6069      	str	r1, [r5, #4]
   25f20:	482e      	ldr	r0, [pc, #184]	@ (25fdc <_ZN20complex_dynamic_type3app17hb96f3150196a7104E+0x14c>)
   25f22:	2102      	movs	r1, #2
   25f24:	2200      	movs	r2, #0
   25f26:	4613      	mov	r3, r2
   25f28:	df03      	svc	3
   25f2a:	a803      	add	r0, sp, #12
   25f2c:	7800      	ldrb	r0, [r0, #0]
   25f2e:	2802      	cmp	r0, #2
   25f30:	d045      	beq.n	25fbe <_ZN20complex_dynamic_type3app17hb96f3150196a7104E+0x12e>
   25f32:	2804      	cmp	r0, #4
   25f34:	d106      	bne.n	25f44 <_ZN20complex_dynamic_type3app17hb96f3150196a7104E+0xb4>
   25f36:	4829      	ldr	r0, [pc, #164]	@ (25fdc <_ZN20complex_dynamic_type3app17hb96f3150196a7104E+0x14c>)
   25f38:	2101      	movs	r1, #1
   25f3a:	2200      	movs	r2, #0
   25f3c:	4613      	mov	r3, r2
   25f3e:	df04      	svc	4
   25f40:	b01f      	add	sp, #124	@ 0x7c
   25f42:	bdf0      	pop	{r4, r5, r6, r7, pc}
   25f44:	4825      	ldr	r0, [pc, #148]	@ (25fdc <_ZN20complex_dynamic_type3app17hb96f3150196a7104E+0x14c>)
   25f46:	2101      	movs	r1, #1
   25f48:	2200      	movs	r2, #0
   25f4a:	4613      	mov	r3, r2
   25f4c:	df03      	svc	3
   25f4e:	b01f      	add	sp, #124	@ 0x7c
   25f50:	bdf0      	pop	{r4, r5, r6, r7, pc}
   25f52:	a803      	add	r0, sp, #12
   25f54:	7800      	ldrb	r0, [r0, #0]
   25f56:	2802      	cmp	r0, #2
   25f58:	d00c      	beq.n	25f74 <_ZN20complex_dynamic_type3app17hb96f3150196a7104E+0xe4>
   25f5a:	2803      	cmp	r0, #3
   25f5c:	d105      	bne.n	25f6a <_ZN20complex_dynamic_type3app17hb96f3150196a7104E+0xda>
   25f5e:	481f      	ldr	r0, [pc, #124]	@ (25fdc <_ZN20complex_dynamic_type3app17hb96f3150196a7104E+0x14c>)
   25f60:	2101      	movs	r1, #1
   25f62:	2200      	movs	r2, #0
   25f64:	4613      	mov	r3, r2
   25f66:	df03      	svc	3
   25f68:	e004      	b.n	25f74 <_ZN20complex_dynamic_type3app17hb96f3150196a7104E+0xe4>
   25f6a:	481c      	ldr	r0, [pc, #112]	@ (25fdc <_ZN20complex_dynamic_type3app17hb96f3150196a7104E+0x14c>)
   25f6c:	2101      	movs	r1, #1
   25f6e:	2200      	movs	r2, #0
   25f70:	4613      	mov	r3, r2
   25f72:	df04      	svc	4
   25f74:	a803      	add	r0, sp, #12
   25f76:	7006      	strb	r6, [r0, #0]
   25f78:	a818      	add	r0, sp, #96	@ 0x60
   25f7a:	7800      	ldrb	r0, [r0, #0]
   25f7c:	2804      	cmp	r0, #4
   25f7e:	d007      	beq.n	25f90 <_ZN20complex_dynamic_type3app17hb96f3150196a7104E+0x100>
   25f80:	2803      	cmp	r0, #3
   25f82:	d11e      	bne.n	25fc2 <_ZN20complex_dynamic_type3app17hb96f3150196a7104E+0x132>
   25f84:	4815      	ldr	r0, [pc, #84]	@ (25fdc <_ZN20complex_dynamic_type3app17hb96f3150196a7104E+0x14c>)
   25f86:	2102      	movs	r1, #2
   25f88:	2200      	movs	r2, #0
   25f8a:	4613      	mov	r3, r2
   25f8c:	df03      	svc	3
   25f8e:	e004      	b.n	25f9a <_ZN20complex_dynamic_type3app17hb96f3150196a7104E+0x10a>
   25f90:	4812      	ldr	r0, [pc, #72]	@ (25fdc <_ZN20complex_dynamic_type3app17hb96f3150196a7104E+0x14c>)
   25f92:	2102      	movs	r1, #2
   25f94:	2200      	movs	r2, #0
   25f96:	4613      	mov	r3, r2
   25f98:	df04      	svc	4
   25f9a:	a803      	add	r0, sp, #12
   25f9c:	7804      	ldrb	r4, [r0, #0]
   25f9e:	1c68      	adds	r0, r5, #1
   25fa0:	221b      	movs	r2, #27
   25fa2:	9900      	ldr	r1, [sp, #0]
   25fa4:	f005 f8b2 	bl	2b10c <__aeabi_memcpy>
   25fa8:	9801      	ldr	r0, [sp, #4]
   25faa:	7028      	strb	r0, [r5, #0]
   25fac:	2c02      	cmp	r4, #2
   25fae:	d006      	beq.n	25fbe <_ZN20complex_dynamic_type3app17hb96f3150196a7104E+0x12e>
   25fb0:	480a      	ldr	r0, [pc, #40]	@ (25fdc <_ZN20complex_dynamic_type3app17hb96f3150196a7104E+0x14c>)
   25fb2:	2101      	movs	r1, #1
   25fb4:	2200      	movs	r2, #0
   25fb6:	4613      	mov	r3, r2
   25fb8:	2c04      	cmp	r4, #4
   25fba:	d10b      	bne.n	25fd4 <_ZN20complex_dynamic_type3app17hb96f3150196a7104E+0x144>
   25fbc:	df04      	svc	4
   25fbe:	b01f      	add	sp, #124	@ 0x7c
   25fc0:	bdf0      	pop	{r4, r5, r6, r7, pc}
   25fc2:	9900      	ldr	r1, [sp, #0]
   25fc4:	1c68      	adds	r0, r5, #1
   25fc6:	221b      	movs	r2, #27
   25fc8:	f005 f8a0 	bl	2b10c <__aeabi_memcpy>
   25fcc:	9801      	ldr	r0, [sp, #4]
   25fce:	7028      	strb	r0, [r5, #0]
   25fd0:	b01f      	add	sp, #124	@ 0x7c
   25fd2:	bdf0      	pop	{r4, r5, r6, r7, pc}
   25fd4:	df03      	svc	3
   25fd6:	b01f      	add	sp, #124	@ 0x7c
   25fd8:	bdf0      	pop	{r4, r5, r6, r7, pc}
   25fda:	46c0      	nop			@ (mov r8, r8)
   25fdc:	000003d9 	.word	0x000003d9

00025fe0 <_ZN20complex_dynamic_type3app17hbb2694a3e132e46eE>:
   25fe0:	b5f0      	push	{r4, r5, r6, r7, lr}
   25fe2:	af03      	add	r7, sp, #12
   25fe4:	b097      	sub	sp, #92	@ 0x5c
   25fe6:	9002      	str	r0, [sp, #8]
   25fe8:	a803      	add	r0, sp, #12
   25fea:	2602      	movs	r6, #2
   25fec:	7006      	strb	r6, [r0, #0]
   25fee:	1c40      	adds	r0, r0, #1
   25ff0:	9001      	str	r0, [sp, #4]
   25ff2:	2523      	movs	r5, #35	@ 0x23
   25ff4:	462a      	mov	r2, r5
   25ff6:	f005 f889 	bl	2b10c <__aeabi_memcpy>
   25ffa:	ac0c      	add	r4, sp, #48	@ 0x30
   25ffc:	1c60      	adds	r0, r4, #1
   25ffe:	212b      	movs	r1, #43	@ 0x2b
   26000:	9000      	str	r0, [sp, #0]
   26002:	f004 fec3 	bl	2ad8c <__aeabi_memclr>
   26006:	7026      	strb	r6, [r4, #0]
   26008:	484a      	ldr	r0, [pc, #296]	@ (26134 <_ZN20complex_dynamic_type3app17hbb2694a3e132e46eE+0x154>)
   2600a:	4631      	mov	r1, r6
   2600c:	9a01      	ldr	r2, [sp, #4]
   2600e:	462b      	mov	r3, r5
   26010:	df04      	svc	4
   26012:	2802      	cmp	r0, #2
   26014:	d104      	bne.n	26020 <_ZN20complex_dynamic_type3app17hbb2694a3e132e46eE+0x40>
   26016:	2001      	movs	r0, #1
   26018:	9a02      	ldr	r2, [sp, #8]
   2601a:	7010      	strb	r0, [r2, #0]
   2601c:	6051      	str	r1, [r2, #4]
   2601e:	e02e      	b.n	2607e <_ZN20complex_dynamic_type3app17hbb2694a3e132e46eE+0x9e>
   26020:	9d02      	ldr	r5, [sp, #8]
   26022:	a803      	add	r0, sp, #12
   26024:	2104      	movs	r1, #4
   26026:	7001      	strb	r1, [r0, #0]
   26028:	4842      	ldr	r0, [pc, #264]	@ (26134 <_ZN20complex_dynamic_type3app17hbb2694a3e132e46eE+0x154>)
   2602a:	2100      	movs	r1, #0
   2602c:	232b      	movs	r3, #43	@ 0x2b
   2602e:	9c00      	ldr	r4, [sp, #0]
   26030:	4622      	mov	r2, r4
   26032:	df03      	svc	3
   26034:	2802      	cmp	r0, #2
   26036:	d10e      	bne.n	26056 <_ZN20complex_dynamic_type3app17hbb2694a3e132e46eE+0x76>
   26038:	2001      	movs	r0, #1
   2603a:	7028      	strb	r0, [r5, #0]
   2603c:	6069      	str	r1, [r5, #4]
   2603e:	a80c      	add	r0, sp, #48	@ 0x30
   26040:	7800      	ldrb	r0, [r0, #0]
   26042:	2802      	cmp	r0, #2
   26044:	d01b      	beq.n	2607e <_ZN20complex_dynamic_type3app17hbb2694a3e132e46eE+0x9e>
   26046:	2803      	cmp	r0, #3
   26048:	d014      	beq.n	26074 <_ZN20complex_dynamic_type3app17hbb2694a3e132e46eE+0x94>
   2604a:	483a      	ldr	r0, [pc, #232]	@ (26134 <_ZN20complex_dynamic_type3app17hbb2694a3e132e46eE+0x154>)
   2604c:	2100      	movs	r1, #0
   2604e:	460a      	mov	r2, r1
   26050:	460b      	mov	r3, r1
   26052:	df04      	svc	4
   26054:	e013      	b.n	2607e <_ZN20complex_dynamic_type3app17hbb2694a3e132e46eE+0x9e>
   26056:	a80c      	add	r0, sp, #48	@ 0x30
   26058:	2103      	movs	r1, #3
   2605a:	7001      	strb	r1, [r0, #0]
   2605c:	4835      	ldr	r0, [pc, #212]	@ (26134 <_ZN20complex_dynamic_type3app17hbb2694a3e132e46eE+0x154>)
   2605e:	2602      	movs	r6, #2
   26060:	2200      	movs	r2, #0
   26062:	4631      	mov	r1, r6
   26064:	9201      	str	r2, [sp, #4]
   26066:	4613      	mov	r3, r2
   26068:	df02      	svc	2
   2606a:	2880      	cmp	r0, #128	@ 0x80
   2606c:	d21b      	bcs.n	260a6 <_ZN20complex_dynamic_type3app17hbb2694a3e132e46eE+0xc6>
   2606e:	2001      	movs	r0, #1
   26070:	7028      	strb	r0, [r5, #0]
   26072:	6069      	str	r1, [r5, #4]
   26074:	482f      	ldr	r0, [pc, #188]	@ (26134 <_ZN20complex_dynamic_type3app17hbb2694a3e132e46eE+0x154>)
   26076:	2100      	movs	r1, #0
   26078:	460a      	mov	r2, r1
   2607a:	460b      	mov	r3, r1
   2607c:	df03      	svc	3
   2607e:	a803      	add	r0, sp, #12
   26080:	7800      	ldrb	r0, [r0, #0]
   26082:	2802      	cmp	r0, #2
   26084:	d047      	beq.n	26116 <_ZN20complex_dynamic_type3app17hbb2694a3e132e46eE+0x136>
   26086:	2804      	cmp	r0, #4
   26088:	d106      	bne.n	26098 <_ZN20complex_dynamic_type3app17hbb2694a3e132e46eE+0xb8>
   2608a:	482a      	ldr	r0, [pc, #168]	@ (26134 <_ZN20complex_dynamic_type3app17hbb2694a3e132e46eE+0x154>)
   2608c:	2102      	movs	r1, #2
   2608e:	2200      	movs	r2, #0
   26090:	4613      	mov	r3, r2
   26092:	df04      	svc	4
   26094:	b017      	add	sp, #92	@ 0x5c
   26096:	bdf0      	pop	{r4, r5, r6, r7, pc}
   26098:	4826      	ldr	r0, [pc, #152]	@ (26134 <_ZN20complex_dynamic_type3app17hbb2694a3e132e46eE+0x154>)
   2609a:	2102      	movs	r1, #2
   2609c:	2200      	movs	r2, #0
   2609e:	4613      	mov	r3, r2
   260a0:	df03      	svc	3
   260a2:	b017      	add	sp, #92	@ 0x5c
   260a4:	bdf0      	pop	{r4, r5, r6, r7, pc}
   260a6:	a803      	add	r0, sp, #12
   260a8:	7800      	ldrb	r0, [r0, #0]
   260aa:	2802      	cmp	r0, #2
   260ac:	d00c      	beq.n	260c8 <_ZN20complex_dynamic_type3app17hbb2694a3e132e46eE+0xe8>
   260ae:	2803      	cmp	r0, #3
   260b0:	d105      	bne.n	260be <_ZN20complex_dynamic_type3app17hbb2694a3e132e46eE+0xde>
   260b2:	4820      	ldr	r0, [pc, #128]	@ (26134 <_ZN20complex_dynamic_type3app17hbb2694a3e132e46eE+0x154>)
   260b4:	2102      	movs	r1, #2
   260b6:	2200      	movs	r2, #0
   260b8:	4613      	mov	r3, r2
   260ba:	df03      	svc	3
   260bc:	e004      	b.n	260c8 <_ZN20complex_dynamic_type3app17hbb2694a3e132e46eE+0xe8>
   260be:	481d      	ldr	r0, [pc, #116]	@ (26134 <_ZN20complex_dynamic_type3app17hbb2694a3e132e46eE+0x154>)
   260c0:	2102      	movs	r1, #2
   260c2:	2200      	movs	r2, #0
   260c4:	4613      	mov	r3, r2
   260c6:	df04      	svc	4
   260c8:	a803      	add	r0, sp, #12
   260ca:	7006      	strb	r6, [r0, #0]
   260cc:	a80c      	add	r0, sp, #48	@ 0x30
   260ce:	7800      	ldrb	r0, [r0, #0]
   260d0:	2804      	cmp	r0, #4
   260d2:	d008      	beq.n	260e6 <_ZN20complex_dynamic_type3app17hbb2694a3e132e46eE+0x106>
   260d4:	2803      	cmp	r0, #3
   260d6:	d120      	bne.n	2611a <_ZN20complex_dynamic_type3app17hbb2694a3e132e46eE+0x13a>
   260d8:	4626      	mov	r6, r4
   260da:	4816      	ldr	r0, [pc, #88]	@ (26134 <_ZN20complex_dynamic_type3app17hbb2694a3e132e46eE+0x154>)
   260dc:	2100      	movs	r1, #0
   260de:	460a      	mov	r2, r1
   260e0:	460b      	mov	r3, r1
   260e2:	df03      	svc	3
   260e4:	e005      	b.n	260f2 <_ZN20complex_dynamic_type3app17hbb2694a3e132e46eE+0x112>
   260e6:	4626      	mov	r6, r4
   260e8:	4812      	ldr	r0, [pc, #72]	@ (26134 <_ZN20complex_dynamic_type3app17hbb2694a3e132e46eE+0x154>)
   260ea:	2100      	movs	r1, #0
   260ec:	460a      	mov	r2, r1
   260ee:	460b      	mov	r3, r1
   260f0:	df04      	svc	4
   260f2:	a803      	add	r0, sp, #12
   260f4:	7804      	ldrb	r4, [r0, #0]
   260f6:	1c68      	adds	r0, r5, #1
   260f8:	222b      	movs	r2, #43	@ 0x2b
   260fa:	4631      	mov	r1, r6
   260fc:	f005 f806 	bl	2b10c <__aeabi_memcpy>
   26100:	9801      	ldr	r0, [sp, #4]
   26102:	7028      	strb	r0, [r5, #0]
   26104:	2c02      	cmp	r4, #2
   26106:	d006      	beq.n	26116 <_ZN20complex_dynamic_type3app17hbb2694a3e132e46eE+0x136>
   26108:	480a      	ldr	r0, [pc, #40]	@ (26134 <_ZN20complex_dynamic_type3app17hbb2694a3e132e46eE+0x154>)
   2610a:	2102      	movs	r1, #2
   2610c:	2200      	movs	r2, #0
   2610e:	4613      	mov	r3, r2
   26110:	2c04      	cmp	r4, #4
   26112:	d10b      	bne.n	2612c <_ZN20complex_dynamic_type3app17hbb2694a3e132e46eE+0x14c>
   26114:	df04      	svc	4
   26116:	b017      	add	sp, #92	@ 0x5c
   26118:	bdf0      	pop	{r4, r5, r6, r7, pc}
   2611a:	1c68      	adds	r0, r5, #1
   2611c:	222b      	movs	r2, #43	@ 0x2b
   2611e:	4621      	mov	r1, r4
   26120:	f004 fff4 	bl	2b10c <__aeabi_memcpy>
   26124:	9801      	ldr	r0, [sp, #4]
   26126:	7028      	strb	r0, [r5, #0]
   26128:	b017      	add	sp, #92	@ 0x5c
   2612a:	bdf0      	pop	{r4, r5, r6, r7, pc}
   2612c:	df03      	svc	3
   2612e:	b017      	add	sp, #92	@ 0x5c
   26130:	bdf0      	pop	{r4, r5, r6, r7, pc}
   26132:	46c0      	nop			@ (mov r8, r8)
   26134:	00000d5d 	.word	0x00000d5d

00026138 <_ZN20complex_dynamic_type3app17hbbd5114f3e28c791E>:
   26138:	b5f0      	push	{r4, r5, r6, r7, lr}
   2613a:	af03      	add	r7, sp, #12
   2613c:	b0a9      	sub	sp, #164	@ 0xa4
   2613e:	9003      	str	r0, [sp, #12]
   26140:	a804      	add	r0, sp, #16
   26142:	2402      	movs	r4, #2
   26144:	7004      	strb	r4, [r0, #0]
   26146:	1c40      	adds	r0, r0, #1
   26148:	9002      	str	r0, [sp, #8]
   2614a:	2550      	movs	r5, #80	@ 0x50
   2614c:	462a      	mov	r2, r5
   2614e:	f004 ffdd 	bl	2b10c <__aeabi_memcpy>
   26152:	ae19      	add	r6, sp, #100	@ 0x64
   26154:	1c70      	adds	r0, r6, #1
   26156:	213c      	movs	r1, #60	@ 0x3c
   26158:	9001      	str	r0, [sp, #4]
   2615a:	f004 fe17 	bl	2ad8c <__aeabi_memclr>
   2615e:	9400      	str	r4, [sp, #0]
   26160:	7034      	strb	r4, [r6, #0]
   26162:	484a      	ldr	r0, [pc, #296]	@ (2628c <_ZN20complex_dynamic_type3app17hbbd5114f3e28c791E+0x154>)
   26164:	2603      	movs	r6, #3
   26166:	4631      	mov	r1, r6
   26168:	9a02      	ldr	r2, [sp, #8]
   2616a:	462b      	mov	r3, r5
   2616c:	df04      	svc	4
   2616e:	2802      	cmp	r0, #2
   26170:	d104      	bne.n	2617c <_ZN20complex_dynamic_type3app17hbbd5114f3e28c791E+0x44>
   26172:	2001      	movs	r0, #1
   26174:	9a03      	ldr	r2, [sp, #12]
   26176:	7010      	strb	r0, [r2, #0]
   26178:	6051      	str	r1, [r2, #4]
   2617a:	e02c      	b.n	261d6 <_ZN20complex_dynamic_type3app17hbbd5114f3e28c791E+0x9e>
   2617c:	9d03      	ldr	r5, [sp, #12]
   2617e:	a804      	add	r0, sp, #16
   26180:	2104      	movs	r1, #4
   26182:	7001      	strb	r1, [r0, #0]
   26184:	4841      	ldr	r0, [pc, #260]	@ (2628c <_ZN20complex_dynamic_type3app17hbbd5114f3e28c791E+0x154>)
   26186:	2109      	movs	r1, #9
   26188:	233c      	movs	r3, #60	@ 0x3c
   2618a:	9c01      	ldr	r4, [sp, #4]
   2618c:	4622      	mov	r2, r4
   2618e:	df03      	svc	3
   26190:	2802      	cmp	r0, #2
   26192:	d10e      	bne.n	261b2 <_ZN20complex_dynamic_type3app17hbbd5114f3e28c791E+0x7a>
   26194:	2001      	movs	r0, #1
   26196:	7028      	strb	r0, [r5, #0]
   26198:	6069      	str	r1, [r5, #4]
   2619a:	a819      	add	r0, sp, #100	@ 0x64
   2619c:	7800      	ldrb	r0, [r0, #0]
   2619e:	2802      	cmp	r0, #2
   261a0:	d019      	beq.n	261d6 <_ZN20complex_dynamic_type3app17hbbd5114f3e28c791E+0x9e>
   261a2:	2803      	cmp	r0, #3
   261a4:	d012      	beq.n	261cc <_ZN20complex_dynamic_type3app17hbbd5114f3e28c791E+0x94>
   261a6:	4839      	ldr	r0, [pc, #228]	@ (2628c <_ZN20complex_dynamic_type3app17hbbd5114f3e28c791E+0x154>)
   261a8:	2109      	movs	r1, #9
   261aa:	2200      	movs	r2, #0
   261ac:	4613      	mov	r3, r2
   261ae:	df04      	svc	4
   261b0:	e011      	b.n	261d6 <_ZN20complex_dynamic_type3app17hbbd5114f3e28c791E+0x9e>
   261b2:	a819      	add	r0, sp, #100	@ 0x64
   261b4:	7006      	strb	r6, [r0, #0]
   261b6:	4835      	ldr	r0, [pc, #212]	@ (2628c <_ZN20complex_dynamic_type3app17hbbd5114f3e28c791E+0x154>)
   261b8:	2209      	movs	r2, #9
   261ba:	2300      	movs	r3, #0
   261bc:	4631      	mov	r1, r6
   261be:	9302      	str	r3, [sp, #8]
   261c0:	df02      	svc	2
   261c2:	2880      	cmp	r0, #128	@ 0x80
   261c4:	d21b      	bcs.n	261fe <_ZN20complex_dynamic_type3app17hbbd5114f3e28c791E+0xc6>
   261c6:	2001      	movs	r0, #1
   261c8:	7028      	strb	r0, [r5, #0]
   261ca:	6069      	str	r1, [r5, #4]
   261cc:	482f      	ldr	r0, [pc, #188]	@ (2628c <_ZN20complex_dynamic_type3app17hbbd5114f3e28c791E+0x154>)
   261ce:	2109      	movs	r1, #9
   261d0:	2200      	movs	r2, #0
   261d2:	4613      	mov	r3, r2
   261d4:	df03      	svc	3
   261d6:	a804      	add	r0, sp, #16
   261d8:	7800      	ldrb	r0, [r0, #0]
   261da:	2802      	cmp	r0, #2
   261dc:	d048      	beq.n	26270 <_ZN20complex_dynamic_type3app17hbbd5114f3e28c791E+0x138>
   261de:	2804      	cmp	r0, #4
   261e0:	d106      	bne.n	261f0 <_ZN20complex_dynamic_type3app17hbbd5114f3e28c791E+0xb8>
   261e2:	482a      	ldr	r0, [pc, #168]	@ (2628c <_ZN20complex_dynamic_type3app17hbbd5114f3e28c791E+0x154>)
   261e4:	2103      	movs	r1, #3
   261e6:	2200      	movs	r2, #0
   261e8:	4613      	mov	r3, r2
   261ea:	df04      	svc	4
   261ec:	b029      	add	sp, #164	@ 0xa4
   261ee:	bdf0      	pop	{r4, r5, r6, r7, pc}
   261f0:	4826      	ldr	r0, [pc, #152]	@ (2628c <_ZN20complex_dynamic_type3app17hbbd5114f3e28c791E+0x154>)
   261f2:	2103      	movs	r1, #3
   261f4:	2200      	movs	r2, #0
   261f6:	4613      	mov	r3, r2
   261f8:	df03      	svc	3
   261fa:	b029      	add	sp, #164	@ 0xa4
   261fc:	bdf0      	pop	{r4, r5, r6, r7, pc}
   261fe:	a804      	add	r0, sp, #16
   26200:	7800      	ldrb	r0, [r0, #0]
   26202:	2802      	cmp	r0, #2
   26204:	d00c      	beq.n	26220 <_ZN20complex_dynamic_type3app17hbbd5114f3e28c791E+0xe8>
   26206:	2803      	cmp	r0, #3
   26208:	d105      	bne.n	26216 <_ZN20complex_dynamic_type3app17hbbd5114f3e28c791E+0xde>
   2620a:	4820      	ldr	r0, [pc, #128]	@ (2628c <_ZN20complex_dynamic_type3app17hbbd5114f3e28c791E+0x154>)
   2620c:	2103      	movs	r1, #3
   2620e:	2200      	movs	r2, #0
   26210:	4613      	mov	r3, r2
   26212:	df03      	svc	3
   26214:	e004      	b.n	26220 <_ZN20complex_dynamic_type3app17hbbd5114f3e28c791E+0xe8>
   26216:	481d      	ldr	r0, [pc, #116]	@ (2628c <_ZN20complex_dynamic_type3app17hbbd5114f3e28c791E+0x154>)
   26218:	2103      	movs	r1, #3
   2621a:	2200      	movs	r2, #0
   2621c:	4613      	mov	r3, r2
   2621e:	df04      	svc	4
   26220:	a804      	add	r0, sp, #16
   26222:	9900      	ldr	r1, [sp, #0]
   26224:	7001      	strb	r1, [r0, #0]
   26226:	a819      	add	r0, sp, #100	@ 0x64
   26228:	7800      	ldrb	r0, [r0, #0]
   2622a:	2804      	cmp	r0, #4
   2622c:	d008      	beq.n	26240 <_ZN20complex_dynamic_type3app17hbbd5114f3e28c791E+0x108>
   2622e:	2803      	cmp	r0, #3
   26230:	d120      	bne.n	26274 <_ZN20complex_dynamic_type3app17hbbd5114f3e28c791E+0x13c>
   26232:	4626      	mov	r6, r4
   26234:	4815      	ldr	r0, [pc, #84]	@ (2628c <_ZN20complex_dynamic_type3app17hbbd5114f3e28c791E+0x154>)
   26236:	2109      	movs	r1, #9
   26238:	2200      	movs	r2, #0
   2623a:	4613      	mov	r3, r2
   2623c:	df03      	svc	3
   2623e:	e005      	b.n	2624c <_ZN20complex_dynamic_type3app17hbbd5114f3e28c791E+0x114>
   26240:	4626      	mov	r6, r4
   26242:	4812      	ldr	r0, [pc, #72]	@ (2628c <_ZN20complex_dynamic_type3app17hbbd5114f3e28c791E+0x154>)
   26244:	2109      	movs	r1, #9
   26246:	2200      	movs	r2, #0
   26248:	4613      	mov	r3, r2
   2624a:	df04      	svc	4
   2624c:	a804      	add	r0, sp, #16
   2624e:	7804      	ldrb	r4, [r0, #0]
   26250:	1c68      	adds	r0, r5, #1
   26252:	223c      	movs	r2, #60	@ 0x3c
   26254:	4631      	mov	r1, r6
   26256:	f004 ff59 	bl	2b10c <__aeabi_memcpy>
   2625a:	9802      	ldr	r0, [sp, #8]
   2625c:	7028      	strb	r0, [r5, #0]
   2625e:	2c02      	cmp	r4, #2
   26260:	d006      	beq.n	26270 <_ZN20complex_dynamic_type3app17hbbd5114f3e28c791E+0x138>
   26262:	480a      	ldr	r0, [pc, #40]	@ (2628c <_ZN20complex_dynamic_type3app17hbbd5114f3e28c791E+0x154>)
   26264:	2103      	movs	r1, #3
   26266:	2200      	movs	r2, #0
   26268:	4613      	mov	r3, r2
   2626a:	2c04      	cmp	r4, #4
   2626c:	d10b      	bne.n	26286 <_ZN20complex_dynamic_type3app17hbbd5114f3e28c791E+0x14e>
   2626e:	df04      	svc	4
   26270:	b029      	add	sp, #164	@ 0xa4
   26272:	bdf0      	pop	{r4, r5, r6, r7, pc}
   26274:	1c68      	adds	r0, r5, #1
   26276:	223c      	movs	r2, #60	@ 0x3c
   26278:	4621      	mov	r1, r4
   2627a:	f004 ff47 	bl	2b10c <__aeabi_memcpy>
   2627e:	9802      	ldr	r0, [sp, #8]
   26280:	7028      	strb	r0, [r5, #0]
   26282:	b029      	add	sp, #164	@ 0xa4
   26284:	bdf0      	pop	{r4, r5, r6, r7, pc}
   26286:	df03      	svc	3
   26288:	b029      	add	sp, #164	@ 0xa4
   2628a:	bdf0      	pop	{r4, r5, r6, r7, pc}
   2628c:	00000d7a 	.word	0x00000d7a

00026290 <_ZN20complex_dynamic_type3app17hbc692f6ef13ad3ccE>:
   26290:	b5f0      	push	{r4, r5, r6, r7, lr}
   26292:	af03      	add	r7, sp, #12
   26294:	b0a3      	sub	sp, #140	@ 0x8c
   26296:	9004      	str	r0, [sp, #16]
   26298:	a805      	add	r0, sp, #20
   2629a:	2402      	movs	r4, #2
   2629c:	7004      	strb	r4, [r0, #0]
   2629e:	1c46      	adds	r6, r0, #1
   262a0:	2232      	movs	r2, #50	@ 0x32
   262a2:	9203      	str	r2, [sp, #12]
   262a4:	4630      	mov	r0, r6
   262a6:	f004 ff31 	bl	2b10c <__aeabi_memcpy>
   262aa:	ad12      	add	r5, sp, #72	@ 0x48
   262ac:	1c68      	adds	r0, r5, #1
   262ae:	2141      	movs	r1, #65	@ 0x41
   262b0:	9002      	str	r0, [sp, #8]
   262b2:	f004 fd6b 	bl	2ad8c <__aeabi_memclr>
   262b6:	9401      	str	r4, [sp, #4]
   262b8:	702c      	strb	r4, [r5, #0]
   262ba:	4848      	ldr	r0, [pc, #288]	@ (263dc <_ZN20complex_dynamic_type3app17hbc692f6ef13ad3ccE+0x14c>)
   262bc:	2107      	movs	r1, #7
   262be:	4632      	mov	r2, r6
   262c0:	9b03      	ldr	r3, [sp, #12]
   262c2:	df04      	svc	4
   262c4:	2802      	cmp	r0, #2
   262c6:	d104      	bne.n	262d2 <_ZN20complex_dynamic_type3app17hbc692f6ef13ad3ccE+0x42>
   262c8:	2001      	movs	r0, #1
   262ca:	9a04      	ldr	r2, [sp, #16]
   262cc:	7010      	strb	r0, [r2, #0]
   262ce:	6051      	str	r1, [r2, #4]
   262d0:	e02d      	b.n	2632e <_ZN20complex_dynamic_type3app17hbc692f6ef13ad3ccE+0x9e>
   262d2:	9d04      	ldr	r5, [sp, #16]
   262d4:	a805      	add	r0, sp, #20
   262d6:	2104      	movs	r1, #4
   262d8:	7001      	strb	r1, [r0, #0]
   262da:	4840      	ldr	r0, [pc, #256]	@ (263dc <_ZN20complex_dynamic_type3app17hbc692f6ef13ad3ccE+0x14c>)
   262dc:	2105      	movs	r1, #5
   262de:	2341      	movs	r3, #65	@ 0x41
   262e0:	9c02      	ldr	r4, [sp, #8]
   262e2:	4622      	mov	r2, r4
   262e4:	df03      	svc	3
   262e6:	2802      	cmp	r0, #2
   262e8:	d10e      	bne.n	26308 <_ZN20complex_dynamic_type3app17hbc692f6ef13ad3ccE+0x78>
   262ea:	2001      	movs	r0, #1
   262ec:	7028      	strb	r0, [r5, #0]
   262ee:	6069      	str	r1, [r5, #4]
   262f0:	a812      	add	r0, sp, #72	@ 0x48
   262f2:	7800      	ldrb	r0, [r0, #0]
   262f4:	2802      	cmp	r0, #2
   262f6:	d01a      	beq.n	2632e <_ZN20complex_dynamic_type3app17hbc692f6ef13ad3ccE+0x9e>
   262f8:	2803      	cmp	r0, #3
   262fa:	d013      	beq.n	26324 <_ZN20complex_dynamic_type3app17hbc692f6ef13ad3ccE+0x94>
   262fc:	4837      	ldr	r0, [pc, #220]	@ (263dc <_ZN20complex_dynamic_type3app17hbc692f6ef13ad3ccE+0x14c>)
   262fe:	2105      	movs	r1, #5
   26300:	2200      	movs	r2, #0
   26302:	4613      	mov	r3, r2
   26304:	df04      	svc	4
   26306:	e012      	b.n	2632e <_ZN20complex_dynamic_type3app17hbc692f6ef13ad3ccE+0x9e>
   26308:	a812      	add	r0, sp, #72	@ 0x48
   2630a:	2103      	movs	r1, #3
   2630c:	7001      	strb	r1, [r0, #0]
   2630e:	4833      	ldr	r0, [pc, #204]	@ (263dc <_ZN20complex_dynamic_type3app17hbc692f6ef13ad3ccE+0x14c>)
   26310:	2107      	movs	r1, #7
   26312:	2205      	movs	r2, #5
   26314:	2600      	movs	r6, #0
   26316:	4633      	mov	r3, r6
   26318:	df02      	svc	2
   2631a:	2880      	cmp	r0, #128	@ 0x80
   2631c:	d21b      	bcs.n	26356 <_ZN20complex_dynamic_type3app17hbc692f6ef13ad3ccE+0xc6>
   2631e:	2001      	movs	r0, #1
   26320:	7028      	strb	r0, [r5, #0]
   26322:	6069      	str	r1, [r5, #4]
   26324:	482d      	ldr	r0, [pc, #180]	@ (263dc <_ZN20complex_dynamic_type3app17hbc692f6ef13ad3ccE+0x14c>)
   26326:	2105      	movs	r1, #5
   26328:	2200      	movs	r2, #0
   2632a:	4613      	mov	r3, r2
   2632c:	df03      	svc	3
   2632e:	a805      	add	r0, sp, #20
   26330:	7800      	ldrb	r0, [r0, #0]
   26332:	2802      	cmp	r0, #2
   26334:	d045      	beq.n	263c2 <_ZN20complex_dynamic_type3app17hbc692f6ef13ad3ccE+0x132>
   26336:	2804      	cmp	r0, #4
   26338:	d106      	bne.n	26348 <_ZN20complex_dynamic_type3app17hbc692f6ef13ad3ccE+0xb8>
   2633a:	4828      	ldr	r0, [pc, #160]	@ (263dc <_ZN20complex_dynamic_type3app17hbc692f6ef13ad3ccE+0x14c>)
   2633c:	2107      	movs	r1, #7
   2633e:	2200      	movs	r2, #0
   26340:	4613      	mov	r3, r2
   26342:	df04      	svc	4
   26344:	b023      	add	sp, #140	@ 0x8c
   26346:	bdf0      	pop	{r4, r5, r6, r7, pc}
   26348:	4824      	ldr	r0, [pc, #144]	@ (263dc <_ZN20complex_dynamic_type3app17hbc692f6ef13ad3ccE+0x14c>)
   2634a:	2107      	movs	r1, #7
   2634c:	2200      	movs	r2, #0
   2634e:	4613      	mov	r3, r2
   26350:	df03      	svc	3
   26352:	b023      	add	sp, #140	@ 0x8c
   26354:	bdf0      	pop	{r4, r5, r6, r7, pc}
   26356:	a805      	add	r0, sp, #20
   26358:	7800      	ldrb	r0, [r0, #0]
   2635a:	2802      	cmp	r0, #2
   2635c:	d00c      	beq.n	26378 <_ZN20complex_dynamic_type3app17hbc692f6ef13ad3ccE+0xe8>
   2635e:	2803      	cmp	r0, #3
   26360:	d105      	bne.n	2636e <_ZN20complex_dynamic_type3app17hbc692f6ef13ad3ccE+0xde>
   26362:	481e      	ldr	r0, [pc, #120]	@ (263dc <_ZN20complex_dynamic_type3app17hbc692f6ef13ad3ccE+0x14c>)
   26364:	2107      	movs	r1, #7
   26366:	2200      	movs	r2, #0
   26368:	4613      	mov	r3, r2
   2636a:	df03      	svc	3
   2636c:	e004      	b.n	26378 <_ZN20complex_dynamic_type3app17hbc692f6ef13ad3ccE+0xe8>
   2636e:	481b      	ldr	r0, [pc, #108]	@ (263dc <_ZN20complex_dynamic_type3app17hbc692f6ef13ad3ccE+0x14c>)
   26370:	2107      	movs	r1, #7
   26372:	2200      	movs	r2, #0
   26374:	4613      	mov	r3, r2
   26376:	df04      	svc	4
   26378:	a805      	add	r0, sp, #20
   2637a:	9901      	ldr	r1, [sp, #4]
   2637c:	7001      	strb	r1, [r0, #0]
   2637e:	a812      	add	r0, sp, #72	@ 0x48
   26380:	7800      	ldrb	r0, [r0, #0]
   26382:	2804      	cmp	r0, #4
   26384:	d007      	beq.n	26396 <_ZN20complex_dynamic_type3app17hbc692f6ef13ad3ccE+0x106>
   26386:	2803      	cmp	r0, #3
   26388:	d11d      	bne.n	263c6 <_ZN20complex_dynamic_type3app17hbc692f6ef13ad3ccE+0x136>
   2638a:	4814      	ldr	r0, [pc, #80]	@ (263dc <_ZN20complex_dynamic_type3app17hbc692f6ef13ad3ccE+0x14c>)
   2638c:	2105      	movs	r1, #5
   2638e:	2200      	movs	r2, #0
   26390:	4613      	mov	r3, r2
   26392:	df03      	svc	3
   26394:	e004      	b.n	263a0 <_ZN20complex_dynamic_type3app17hbc692f6ef13ad3ccE+0x110>
   26396:	4811      	ldr	r0, [pc, #68]	@ (263dc <_ZN20complex_dynamic_type3app17hbc692f6ef13ad3ccE+0x14c>)
   26398:	2105      	movs	r1, #5
   2639a:	2200      	movs	r2, #0
   2639c:	4613      	mov	r3, r2
   2639e:	df04      	svc	4
   263a0:	a805      	add	r0, sp, #20
   263a2:	7804      	ldrb	r4, [r0, #0]
   263a4:	1c68      	adds	r0, r5, #1
   263a6:	2241      	movs	r2, #65	@ 0x41
   263a8:	9902      	ldr	r1, [sp, #8]
   263aa:	f004 feaf 	bl	2b10c <__aeabi_memcpy>
   263ae:	702e      	strb	r6, [r5, #0]
   263b0:	2c02      	cmp	r4, #2
   263b2:	d006      	beq.n	263c2 <_ZN20complex_dynamic_type3app17hbc692f6ef13ad3ccE+0x132>
   263b4:	4809      	ldr	r0, [pc, #36]	@ (263dc <_ZN20complex_dynamic_type3app17hbc692f6ef13ad3ccE+0x14c>)
   263b6:	2107      	movs	r1, #7
   263b8:	2200      	movs	r2, #0
   263ba:	4613      	mov	r3, r2
   263bc:	2c04      	cmp	r4, #4
   263be:	d10a      	bne.n	263d6 <_ZN20complex_dynamic_type3app17hbc692f6ef13ad3ccE+0x146>
   263c0:	df04      	svc	4
   263c2:	b023      	add	sp, #140	@ 0x8c
   263c4:	bdf0      	pop	{r4, r5, r6, r7, pc}
   263c6:	1c68      	adds	r0, r5, #1
   263c8:	2241      	movs	r2, #65	@ 0x41
   263ca:	4621      	mov	r1, r4
   263cc:	f004 fe9e 	bl	2b10c <__aeabi_memcpy>
   263d0:	702e      	strb	r6, [r5, #0]
   263d2:	b023      	add	sp, #140	@ 0x8c
   263d4:	bdf0      	pop	{r4, r5, r6, r7, pc}
   263d6:	df03      	svc	3
   263d8:	b023      	add	sp, #140	@ 0x8c
   263da:	bdf0      	pop	{r4, r5, r6, r7, pc}
   263dc:	0000091d 	.word	0x0000091d

000263e0 <_ZN20complex_dynamic_type3app17hbc8e99b110145eadE>:
   263e0:	b5f0      	push	{r4, r5, r6, r7, lr}
   263e2:	af03      	add	r7, sp, #12
   263e4:	b099      	sub	sp, #100	@ 0x64
   263e6:	9003      	str	r0, [sp, #12]
   263e8:	a804      	add	r0, sp, #16
   263ea:	2402      	movs	r4, #2
   263ec:	7004      	strb	r4, [r0, #0]
   263ee:	1c46      	adds	r6, r0, #1
   263f0:	2218      	movs	r2, #24
   263f2:	9202      	str	r2, [sp, #8]
   263f4:	4630      	mov	r0, r6
   263f6:	f004 fe89 	bl	2b10c <__aeabi_memcpy>
   263fa:	ad0b      	add	r5, sp, #44	@ 0x2c
   263fc:	1c68      	adds	r0, r5, #1
   263fe:	2136      	movs	r1, #54	@ 0x36
   26400:	9001      	str	r0, [sp, #4]
   26402:	f004 fcc3 	bl	2ad8c <__aeabi_memclr>
   26406:	9400      	str	r4, [sp, #0]
   26408:	702c      	strb	r4, [r5, #0]
   2640a:	20f3      	movs	r0, #243	@ 0xf3
   2640c:	2108      	movs	r1, #8
   2640e:	4632      	mov	r2, r6
   26410:	9b02      	ldr	r3, [sp, #8]
   26412:	df04      	svc	4
   26414:	2802      	cmp	r0, #2
   26416:	d104      	bne.n	26422 <_ZN20complex_dynamic_type3app17hbc8e99b110145eadE+0x42>
   26418:	2001      	movs	r0, #1
   2641a:	9a03      	ldr	r2, [sp, #12]
   2641c:	7010      	strb	r0, [r2, #0]
   2641e:	6051      	str	r1, [r2, #4]
   26420:	e02c      	b.n	2647c <_ZN20complex_dynamic_type3app17hbc8e99b110145eadE+0x9c>
   26422:	9d03      	ldr	r5, [sp, #12]
   26424:	a804      	add	r0, sp, #16
   26426:	2104      	movs	r1, #4
   26428:	7001      	strb	r1, [r0, #0]
   2642a:	20f3      	movs	r0, #243	@ 0xf3
   2642c:	2336      	movs	r3, #54	@ 0x36
   2642e:	9c01      	ldr	r4, [sp, #4]
   26430:	4622      	mov	r2, r4
   26432:	df03      	svc	3
   26434:	2802      	cmp	r0, #2
   26436:	d10e      	bne.n	26456 <_ZN20complex_dynamic_type3app17hbc8e99b110145eadE+0x76>
   26438:	2001      	movs	r0, #1
   2643a:	7028      	strb	r0, [r5, #0]
   2643c:	6069      	str	r1, [r5, #4]
   2643e:	a80b      	add	r0, sp, #44	@ 0x2c
   26440:	7800      	ldrb	r0, [r0, #0]
   26442:	2802      	cmp	r0, #2
   26444:	d01a      	beq.n	2647c <_ZN20complex_dynamic_type3app17hbc8e99b110145eadE+0x9c>
   26446:	2803      	cmp	r0, #3
   26448:	d013      	beq.n	26472 <_ZN20complex_dynamic_type3app17hbc8e99b110145eadE+0x92>
   2644a:	20f3      	movs	r0, #243	@ 0xf3
   2644c:	2104      	movs	r1, #4
   2644e:	2200      	movs	r2, #0
   26450:	4613      	mov	r3, r2
   26452:	df04      	svc	4
   26454:	e012      	b.n	2647c <_ZN20complex_dynamic_type3app17hbc8e99b110145eadE+0x9c>
   26456:	a80b      	add	r0, sp, #44	@ 0x2c
   26458:	2103      	movs	r1, #3
   2645a:	7001      	strb	r1, [r0, #0]
   2645c:	20f3      	movs	r0, #243	@ 0xf3
   2645e:	2108      	movs	r1, #8
   26460:	2204      	movs	r2, #4
   26462:	2600      	movs	r6, #0
   26464:	4633      	mov	r3, r6
   26466:	df02      	svc	2
   26468:	2880      	cmp	r0, #128	@ 0x80
   2646a:	d21b      	bcs.n	264a4 <_ZN20complex_dynamic_type3app17hbc8e99b110145eadE+0xc4>
   2646c:	2001      	movs	r0, #1
   2646e:	7028      	strb	r0, [r5, #0]
   26470:	6069      	str	r1, [r5, #4]
   26472:	20f3      	movs	r0, #243	@ 0xf3
   26474:	2104      	movs	r1, #4
   26476:	2200      	movs	r2, #0
   26478:	4613      	mov	r3, r2
   2647a:	df03      	svc	3
   2647c:	a804      	add	r0, sp, #16
   2647e:	7800      	ldrb	r0, [r0, #0]
   26480:	2802      	cmp	r0, #2
   26482:	d045      	beq.n	26510 <_ZN20complex_dynamic_type3app17hbc8e99b110145eadE+0x130>
   26484:	2804      	cmp	r0, #4
   26486:	d106      	bne.n	26496 <_ZN20complex_dynamic_type3app17hbc8e99b110145eadE+0xb6>
   26488:	20f3      	movs	r0, #243	@ 0xf3
   2648a:	2108      	movs	r1, #8
   2648c:	2200      	movs	r2, #0
   2648e:	4613      	mov	r3, r2
   26490:	df04      	svc	4
   26492:	b019      	add	sp, #100	@ 0x64
   26494:	bdf0      	pop	{r4, r5, r6, r7, pc}
   26496:	20f3      	movs	r0, #243	@ 0xf3
   26498:	2108      	movs	r1, #8
   2649a:	2200      	movs	r2, #0
   2649c:	4613      	mov	r3, r2
   2649e:	df03      	svc	3
   264a0:	b019      	add	sp, #100	@ 0x64
   264a2:	bdf0      	pop	{r4, r5, r6, r7, pc}
   264a4:	a804      	add	r0, sp, #16
   264a6:	7800      	ldrb	r0, [r0, #0]
   264a8:	2802      	cmp	r0, #2
   264aa:	d00c      	beq.n	264c6 <_ZN20complex_dynamic_type3app17hbc8e99b110145eadE+0xe6>
   264ac:	2803      	cmp	r0, #3
   264ae:	d105      	bne.n	264bc <_ZN20complex_dynamic_type3app17hbc8e99b110145eadE+0xdc>
   264b0:	20f3      	movs	r0, #243	@ 0xf3
   264b2:	2108      	movs	r1, #8
   264b4:	2200      	movs	r2, #0
   264b6:	4613      	mov	r3, r2
   264b8:	df03      	svc	3
   264ba:	e004      	b.n	264c6 <_ZN20complex_dynamic_type3app17hbc8e99b110145eadE+0xe6>
   264bc:	20f3      	movs	r0, #243	@ 0xf3
   264be:	2108      	movs	r1, #8
   264c0:	2200      	movs	r2, #0
   264c2:	4613      	mov	r3, r2
   264c4:	df04      	svc	4
   264c6:	a804      	add	r0, sp, #16
   264c8:	9900      	ldr	r1, [sp, #0]
   264ca:	7001      	strb	r1, [r0, #0]
   264cc:	a80b      	add	r0, sp, #44	@ 0x2c
   264ce:	7800      	ldrb	r0, [r0, #0]
   264d0:	2804      	cmp	r0, #4
   264d2:	d007      	beq.n	264e4 <_ZN20complex_dynamic_type3app17hbc8e99b110145eadE+0x104>
   264d4:	2803      	cmp	r0, #3
   264d6:	d11d      	bne.n	26514 <_ZN20complex_dynamic_type3app17hbc8e99b110145eadE+0x134>
   264d8:	20f3      	movs	r0, #243	@ 0xf3
   264da:	2104      	movs	r1, #4
   264dc:	2200      	movs	r2, #0
   264de:	4613      	mov	r3, r2
   264e0:	df03      	svc	3
   264e2:	e004      	b.n	264ee <_ZN20complex_dynamic_type3app17hbc8e99b110145eadE+0x10e>
   264e4:	20f3      	movs	r0, #243	@ 0xf3
   264e6:	2104      	movs	r1, #4
   264e8:	2200      	movs	r2, #0
   264ea:	4613      	mov	r3, r2
   264ec:	df04      	svc	4
   264ee:	a804      	add	r0, sp, #16
   264f0:	7804      	ldrb	r4, [r0, #0]
   264f2:	1c68      	adds	r0, r5, #1
   264f4:	2236      	movs	r2, #54	@ 0x36
   264f6:	9901      	ldr	r1, [sp, #4]
   264f8:	f004 fe08 	bl	2b10c <__aeabi_memcpy>
   264fc:	702e      	strb	r6, [r5, #0]
   264fe:	2c02      	cmp	r4, #2
   26500:	d006      	beq.n	26510 <_ZN20complex_dynamic_type3app17hbc8e99b110145eadE+0x130>
   26502:	20f3      	movs	r0, #243	@ 0xf3
   26504:	2108      	movs	r1, #8
   26506:	2200      	movs	r2, #0
   26508:	4613      	mov	r3, r2
   2650a:	2c04      	cmp	r4, #4
   2650c:	d10a      	bne.n	26524 <_ZN20complex_dynamic_type3app17hbc8e99b110145eadE+0x144>
   2650e:	df04      	svc	4
   26510:	b019      	add	sp, #100	@ 0x64
   26512:	bdf0      	pop	{r4, r5, r6, r7, pc}
   26514:	1c68      	adds	r0, r5, #1
   26516:	2236      	movs	r2, #54	@ 0x36
   26518:	4621      	mov	r1, r4
   2651a:	f004 fdf7 	bl	2b10c <__aeabi_memcpy>
   2651e:	702e      	strb	r6, [r5, #0]
   26520:	b019      	add	sp, #100	@ 0x64
   26522:	bdf0      	pop	{r4, r5, r6, r7, pc}
   26524:	df03      	svc	3
   26526:	b019      	add	sp, #100	@ 0x64
   26528:	bdf0      	pop	{r4, r5, r6, r7, pc}
   2652a:	d4d4      	bmi.n	264d6 <_ZN20complex_dynamic_type3app17hbc8e99b110145eadE+0xf6>

0002652c <_ZN20complex_dynamic_type3app17hbf6103dc6885b4a8E>:
   2652c:	b5f0      	push	{r4, r5, r6, r7, lr}
   2652e:	af03      	add	r7, sp, #12
   26530:	b0a3      	sub	sp, #140	@ 0x8c
   26532:	9004      	str	r0, [sp, #16]
   26534:	a805      	add	r0, sp, #20
   26536:	2402      	movs	r4, #2
   26538:	7004      	strb	r4, [r0, #0]
   2653a:	1c46      	adds	r6, r0, #1
   2653c:	2240      	movs	r2, #64	@ 0x40
   2653e:	9203      	str	r2, [sp, #12]
   26540:	4630      	mov	r0, r6
   26542:	f004 fde3 	bl	2b10c <__aeabi_memcpy>
   26546:	ad16      	add	r5, sp, #88	@ 0x58
   26548:	1c68      	adds	r0, r5, #1
   2654a:	2131      	movs	r1, #49	@ 0x31
   2654c:	9002      	str	r0, [sp, #8]
   2654e:	f004 fc1d 	bl	2ad8c <__aeabi_memclr>
   26552:	9401      	str	r4, [sp, #4]
   26554:	702c      	strb	r4, [r5, #0]
   26556:	4848      	ldr	r0, [pc, #288]	@ (26678 <_ZN20complex_dynamic_type3app17hbf6103dc6885b4a8E+0x14c>)
   26558:	2108      	movs	r1, #8
   2655a:	4632      	mov	r2, r6
   2655c:	9b03      	ldr	r3, [sp, #12]
   2655e:	df04      	svc	4
   26560:	2802      	cmp	r0, #2
   26562:	d104      	bne.n	2656e <_ZN20complex_dynamic_type3app17hbf6103dc6885b4a8E+0x42>
   26564:	2001      	movs	r0, #1
   26566:	9a04      	ldr	r2, [sp, #16]
   26568:	7010      	strb	r0, [r2, #0]
   2656a:	6051      	str	r1, [r2, #4]
   2656c:	e02d      	b.n	265ca <_ZN20complex_dynamic_type3app17hbf6103dc6885b4a8E+0x9e>
   2656e:	9d04      	ldr	r5, [sp, #16]
   26570:	a805      	add	r0, sp, #20
   26572:	2104      	movs	r1, #4
   26574:	7001      	strb	r1, [r0, #0]
   26576:	4840      	ldr	r0, [pc, #256]	@ (26678 <_ZN20complex_dynamic_type3app17hbf6103dc6885b4a8E+0x14c>)
   26578:	2105      	movs	r1, #5
   2657a:	2331      	movs	r3, #49	@ 0x31
   2657c:	9c02      	ldr	r4, [sp, #8]
   2657e:	4622      	mov	r2, r4
   26580:	df03      	svc	3
   26582:	2802      	cmp	r0, #2
   26584:	d10e      	bne.n	265a4 <_ZN20complex_dynamic_type3app17hbf6103dc6885b4a8E+0x78>
   26586:	2001      	movs	r0, #1
   26588:	7028      	strb	r0, [r5, #0]
   2658a:	6069      	str	r1, [r5, #4]
   2658c:	a816      	add	r0, sp, #88	@ 0x58
   2658e:	7800      	ldrb	r0, [r0, #0]
   26590:	2802      	cmp	r0, #2
   26592:	d01a      	beq.n	265ca <_ZN20complex_dynamic_type3app17hbf6103dc6885b4a8E+0x9e>
   26594:	2803      	cmp	r0, #3
   26596:	d013      	beq.n	265c0 <_ZN20complex_dynamic_type3app17hbf6103dc6885b4a8E+0x94>
   26598:	4837      	ldr	r0, [pc, #220]	@ (26678 <_ZN20complex_dynamic_type3app17hbf6103dc6885b4a8E+0x14c>)
   2659a:	2105      	movs	r1, #5
   2659c:	2200      	movs	r2, #0
   2659e:	4613      	mov	r3, r2
   265a0:	df04      	svc	4
   265a2:	e012      	b.n	265ca <_ZN20complex_dynamic_type3app17hbf6103dc6885b4a8E+0x9e>
   265a4:	a816      	add	r0, sp, #88	@ 0x58
   265a6:	2103      	movs	r1, #3
   265a8:	7001      	strb	r1, [r0, #0]
   265aa:	4833      	ldr	r0, [pc, #204]	@ (26678 <_ZN20complex_dynamic_type3app17hbf6103dc6885b4a8E+0x14c>)
   265ac:	2108      	movs	r1, #8
   265ae:	2205      	movs	r2, #5
   265b0:	2600      	movs	r6, #0
   265b2:	4633      	mov	r3, r6
   265b4:	df02      	svc	2
   265b6:	2880      	cmp	r0, #128	@ 0x80
   265b8:	d21b      	bcs.n	265f2 <_ZN20complex_dynamic_type3app17hbf6103dc6885b4a8E+0xc6>
   265ba:	2001      	movs	r0, #1
   265bc:	7028      	strb	r0, [r5, #0]
   265be:	6069      	str	r1, [r5, #4]
   265c0:	482d      	ldr	r0, [pc, #180]	@ (26678 <_ZN20complex_dynamic_type3app17hbf6103dc6885b4a8E+0x14c>)
   265c2:	2105      	movs	r1, #5
   265c4:	2200      	movs	r2, #0
   265c6:	4613      	mov	r3, r2
   265c8:	df03      	svc	3
   265ca:	a805      	add	r0, sp, #20
   265cc:	7800      	ldrb	r0, [r0, #0]
   265ce:	2802      	cmp	r0, #2
   265d0:	d045      	beq.n	2665e <_ZN20complex_dynamic_type3app17hbf6103dc6885b4a8E+0x132>
   265d2:	2804      	cmp	r0, #4
   265d4:	d106      	bne.n	265e4 <_ZN20complex_dynamic_type3app17hbf6103dc6885b4a8E+0xb8>
   265d6:	4828      	ldr	r0, [pc, #160]	@ (26678 <_ZN20complex_dynamic_type3app17hbf6103dc6885b4a8E+0x14c>)
   265d8:	2108      	movs	r1, #8
   265da:	2200      	movs	r2, #0
   265dc:	4613      	mov	r3, r2
   265de:	df04      	svc	4
   265e0:	b023      	add	sp, #140	@ 0x8c
   265e2:	bdf0      	pop	{r4, r5, r6, r7, pc}
   265e4:	4824      	ldr	r0, [pc, #144]	@ (26678 <_ZN20complex_dynamic_type3app17hbf6103dc6885b4a8E+0x14c>)
   265e6:	2108      	movs	r1, #8
   265e8:	2200      	movs	r2, #0
   265ea:	4613      	mov	r3, r2
   265ec:	df03      	svc	3
   265ee:	b023      	add	sp, #140	@ 0x8c
   265f0:	bdf0      	pop	{r4, r5, r6, r7, pc}
   265f2:	a805      	add	r0, sp, #20
   265f4:	7800      	ldrb	r0, [r0, #0]
   265f6:	2802      	cmp	r0, #2
   265f8:	d00c      	beq.n	26614 <_ZN20complex_dynamic_type3app17hbf6103dc6885b4a8E+0xe8>
   265fa:	2803      	cmp	r0, #3
   265fc:	d105      	bne.n	2660a <_ZN20complex_dynamic_type3app17hbf6103dc6885b4a8E+0xde>
   265fe:	481e      	ldr	r0, [pc, #120]	@ (26678 <_ZN20complex_dynamic_type3app17hbf6103dc6885b4a8E+0x14c>)
   26600:	2108      	movs	r1, #8
   26602:	2200      	movs	r2, #0
   26604:	4613      	mov	r3, r2
   26606:	df03      	svc	3
   26608:	e004      	b.n	26614 <_ZN20complex_dynamic_type3app17hbf6103dc6885b4a8E+0xe8>
   2660a:	481b      	ldr	r0, [pc, #108]	@ (26678 <_ZN20complex_dynamic_type3app17hbf6103dc6885b4a8E+0x14c>)
   2660c:	2108      	movs	r1, #8
   2660e:	2200      	movs	r2, #0
   26610:	4613      	mov	r3, r2
   26612:	df04      	svc	4
   26614:	a805      	add	r0, sp, #20
   26616:	9901      	ldr	r1, [sp, #4]
   26618:	7001      	strb	r1, [r0, #0]
   2661a:	a816      	add	r0, sp, #88	@ 0x58
   2661c:	7800      	ldrb	r0, [r0, #0]
   2661e:	2804      	cmp	r0, #4
   26620:	d007      	beq.n	26632 <_ZN20complex_dynamic_type3app17hbf6103dc6885b4a8E+0x106>
   26622:	2803      	cmp	r0, #3
   26624:	d11d      	bne.n	26662 <_ZN20complex_dynamic_type3app17hbf6103dc6885b4a8E+0x136>
   26626:	4814      	ldr	r0, [pc, #80]	@ (26678 <_ZN20complex_dynamic_type3app17hbf6103dc6885b4a8E+0x14c>)
   26628:	2105      	movs	r1, #5
   2662a:	2200      	movs	r2, #0
   2662c:	4613      	mov	r3, r2
   2662e:	df03      	svc	3
   26630:	e004      	b.n	2663c <_ZN20complex_dynamic_type3app17hbf6103dc6885b4a8E+0x110>
   26632:	4811      	ldr	r0, [pc, #68]	@ (26678 <_ZN20complex_dynamic_type3app17hbf6103dc6885b4a8E+0x14c>)
   26634:	2105      	movs	r1, #5
   26636:	2200      	movs	r2, #0
   26638:	4613      	mov	r3, r2
   2663a:	df04      	svc	4
   2663c:	a805      	add	r0, sp, #20
   2663e:	7804      	ldrb	r4, [r0, #0]
   26640:	1c68      	adds	r0, r5, #1
   26642:	2231      	movs	r2, #49	@ 0x31
   26644:	9902      	ldr	r1, [sp, #8]
   26646:	f004 fd61 	bl	2b10c <__aeabi_memcpy>
   2664a:	702e      	strb	r6, [r5, #0]
   2664c:	2c02      	cmp	r4, #2
   2664e:	d006      	beq.n	2665e <_ZN20complex_dynamic_type3app17hbf6103dc6885b4a8E+0x132>
   26650:	4809      	ldr	r0, [pc, #36]	@ (26678 <_ZN20complex_dynamic_type3app17hbf6103dc6885b4a8E+0x14c>)
   26652:	2108      	movs	r1, #8
   26654:	2200      	movs	r2, #0
   26656:	4613      	mov	r3, r2
   26658:	2c04      	cmp	r4, #4
   2665a:	d10a      	bne.n	26672 <_ZN20complex_dynamic_type3app17hbf6103dc6885b4a8E+0x146>
   2665c:	df04      	svc	4
   2665e:	b023      	add	sp, #140	@ 0x8c
   26660:	bdf0      	pop	{r4, r5, r6, r7, pc}
   26662:	1c68      	adds	r0, r5, #1
   26664:	2231      	movs	r2, #49	@ 0x31
   26666:	4621      	mov	r1, r4
   26668:	f004 fd50 	bl	2b10c <__aeabi_memcpy>
   2666c:	702e      	strb	r6, [r5, #0]
   2666e:	b023      	add	sp, #140	@ 0x8c
   26670:	bdf0      	pop	{r4, r5, r6, r7, pc}
   26672:	df03      	svc	3
   26674:	b023      	add	sp, #140	@ 0x8c
   26676:	bdf0      	pop	{r4, r5, r6, r7, pc}
   26678:	00000fce 	.word	0x00000fce

0002667c <_ZN20complex_dynamic_type3app17hbf77078bbe61f6ccE>:
   2667c:	b5f0      	push	{r4, r5, r6, r7, lr}
   2667e:	af03      	add	r7, sp, #12
   26680:	b095      	sub	sp, #84	@ 0x54
   26682:	9004      	str	r0, [sp, #16]
   26684:	a805      	add	r0, sp, #20
   26686:	2402      	movs	r4, #2
   26688:	7004      	strb	r4, [r0, #0]
   2668a:	1c46      	adds	r6, r0, #1
   2668c:	2227      	movs	r2, #39	@ 0x27
   2668e:	9203      	str	r2, [sp, #12]
   26690:	4630      	mov	r0, r6
   26692:	f004 fd3b 	bl	2b10c <__aeabi_memcpy>
   26696:	ad0f      	add	r5, sp, #60	@ 0x3c
   26698:	1c68      	adds	r0, r5, #1
   2669a:	2114      	movs	r1, #20
   2669c:	9002      	str	r0, [sp, #8]
   2669e:	f004 fb75 	bl	2ad8c <__aeabi_memclr>
   266a2:	9401      	str	r4, [sp, #4]
   266a4:	702c      	strb	r4, [r5, #0]
   266a6:	4848      	ldr	r0, [pc, #288]	@ (267c8 <_ZN20complex_dynamic_type3app17hbf77078bbe61f6ccE+0x14c>)
   266a8:	2106      	movs	r1, #6
   266aa:	4632      	mov	r2, r6
   266ac:	9b03      	ldr	r3, [sp, #12]
   266ae:	df04      	svc	4
   266b0:	2802      	cmp	r0, #2
   266b2:	d104      	bne.n	266be <_ZN20complex_dynamic_type3app17hbf77078bbe61f6ccE+0x42>
   266b4:	2001      	movs	r0, #1
   266b6:	9a04      	ldr	r2, [sp, #16]
   266b8:	7010      	strb	r0, [r2, #0]
   266ba:	6051      	str	r1, [r2, #4]
   266bc:	e02d      	b.n	2671a <_ZN20complex_dynamic_type3app17hbf77078bbe61f6ccE+0x9e>
   266be:	9d04      	ldr	r5, [sp, #16]
   266c0:	a805      	add	r0, sp, #20
   266c2:	2104      	movs	r1, #4
   266c4:	7001      	strb	r1, [r0, #0]
   266c6:	4840      	ldr	r0, [pc, #256]	@ (267c8 <_ZN20complex_dynamic_type3app17hbf77078bbe61f6ccE+0x14c>)
   266c8:	2105      	movs	r1, #5
   266ca:	2314      	movs	r3, #20
   266cc:	9c02      	ldr	r4, [sp, #8]
   266ce:	4622      	mov	r2, r4
   266d0:	df03      	svc	3
   266d2:	2802      	cmp	r0, #2
   266d4:	d10e      	bne.n	266f4 <_ZN20complex_dynamic_type3app17hbf77078bbe61f6ccE+0x78>
   266d6:	2001      	movs	r0, #1
   266d8:	7028      	strb	r0, [r5, #0]
   266da:	6069      	str	r1, [r5, #4]
   266dc:	a80f      	add	r0, sp, #60	@ 0x3c
   266de:	7800      	ldrb	r0, [r0, #0]
   266e0:	2802      	cmp	r0, #2
   266e2:	d01a      	beq.n	2671a <_ZN20complex_dynamic_type3app17hbf77078bbe61f6ccE+0x9e>
   266e4:	2803      	cmp	r0, #3
   266e6:	d013      	beq.n	26710 <_ZN20complex_dynamic_type3app17hbf77078bbe61f6ccE+0x94>
   266e8:	4837      	ldr	r0, [pc, #220]	@ (267c8 <_ZN20complex_dynamic_type3app17hbf77078bbe61f6ccE+0x14c>)
   266ea:	2105      	movs	r1, #5
   266ec:	2200      	movs	r2, #0
   266ee:	4613      	mov	r3, r2
   266f0:	df04      	svc	4
   266f2:	e012      	b.n	2671a <_ZN20complex_dynamic_type3app17hbf77078bbe61f6ccE+0x9e>
   266f4:	a80f      	add	r0, sp, #60	@ 0x3c
   266f6:	2103      	movs	r1, #3
   266f8:	7001      	strb	r1, [r0, #0]
   266fa:	4833      	ldr	r0, [pc, #204]	@ (267c8 <_ZN20complex_dynamic_type3app17hbf77078bbe61f6ccE+0x14c>)
   266fc:	2106      	movs	r1, #6
   266fe:	2205      	movs	r2, #5
   26700:	2600      	movs	r6, #0
   26702:	4633      	mov	r3, r6
   26704:	df02      	svc	2
   26706:	2880      	cmp	r0, #128	@ 0x80
   26708:	d21b      	bcs.n	26742 <_ZN20complex_dynamic_type3app17hbf77078bbe61f6ccE+0xc6>
   2670a:	2001      	movs	r0, #1
   2670c:	7028      	strb	r0, [r5, #0]
   2670e:	6069      	str	r1, [r5, #4]
   26710:	482d      	ldr	r0, [pc, #180]	@ (267c8 <_ZN20complex_dynamic_type3app17hbf77078bbe61f6ccE+0x14c>)
   26712:	2105      	movs	r1, #5
   26714:	2200      	movs	r2, #0
   26716:	4613      	mov	r3, r2
   26718:	df03      	svc	3
   2671a:	a805      	add	r0, sp, #20
   2671c:	7800      	ldrb	r0, [r0, #0]
   2671e:	2802      	cmp	r0, #2
   26720:	d045      	beq.n	267ae <_ZN20complex_dynamic_type3app17hbf77078bbe61f6ccE+0x132>
   26722:	2804      	cmp	r0, #4
   26724:	d106      	bne.n	26734 <_ZN20complex_dynamic_type3app17hbf77078bbe61f6ccE+0xb8>
   26726:	4828      	ldr	r0, [pc, #160]	@ (267c8 <_ZN20complex_dynamic_type3app17hbf77078bbe61f6ccE+0x14c>)
   26728:	2106      	movs	r1, #6
   2672a:	2200      	movs	r2, #0
   2672c:	4613      	mov	r3, r2
   2672e:	df04      	svc	4
   26730:	b015      	add	sp, #84	@ 0x54
   26732:	bdf0      	pop	{r4, r5, r6, r7, pc}
   26734:	4824      	ldr	r0, [pc, #144]	@ (267c8 <_ZN20complex_dynamic_type3app17hbf77078bbe61f6ccE+0x14c>)
   26736:	2106      	movs	r1, #6
   26738:	2200      	movs	r2, #0
   2673a:	4613      	mov	r3, r2
   2673c:	df03      	svc	3
   2673e:	b015      	add	sp, #84	@ 0x54
   26740:	bdf0      	pop	{r4, r5, r6, r7, pc}
   26742:	a805      	add	r0, sp, #20
   26744:	7800      	ldrb	r0, [r0, #0]
   26746:	2802      	cmp	r0, #2
   26748:	d00c      	beq.n	26764 <_ZN20complex_dynamic_type3app17hbf77078bbe61f6ccE+0xe8>
   2674a:	2803      	cmp	r0, #3
   2674c:	d105      	bne.n	2675a <_ZN20complex_dynamic_type3app17hbf77078bbe61f6ccE+0xde>
   2674e:	481e      	ldr	r0, [pc, #120]	@ (267c8 <_ZN20complex_dynamic_type3app17hbf77078bbe61f6ccE+0x14c>)
   26750:	2106      	movs	r1, #6
   26752:	2200      	movs	r2, #0
   26754:	4613      	mov	r3, r2
   26756:	df03      	svc	3
   26758:	e004      	b.n	26764 <_ZN20complex_dynamic_type3app17hbf77078bbe61f6ccE+0xe8>
   2675a:	481b      	ldr	r0, [pc, #108]	@ (267c8 <_ZN20complex_dynamic_type3app17hbf77078bbe61f6ccE+0x14c>)
   2675c:	2106      	movs	r1, #6
   2675e:	2200      	movs	r2, #0
   26760:	4613      	mov	r3, r2
   26762:	df04      	svc	4
   26764:	a805      	add	r0, sp, #20
   26766:	9901      	ldr	r1, [sp, #4]
   26768:	7001      	strb	r1, [r0, #0]
   2676a:	a80f      	add	r0, sp, #60	@ 0x3c
   2676c:	7800      	ldrb	r0, [r0, #0]
   2676e:	2804      	cmp	r0, #4
   26770:	d007      	beq.n	26782 <_ZN20complex_dynamic_type3app17hbf77078bbe61f6ccE+0x106>
   26772:	2803      	cmp	r0, #3
   26774:	d11d      	bne.n	267b2 <_ZN20complex_dynamic_type3app17hbf77078bbe61f6ccE+0x136>
   26776:	4814      	ldr	r0, [pc, #80]	@ (267c8 <_ZN20complex_dynamic_type3app17hbf77078bbe61f6ccE+0x14c>)
   26778:	2105      	movs	r1, #5
   2677a:	2200      	movs	r2, #0
   2677c:	4613      	mov	r3, r2
   2677e:	df03      	svc	3
   26780:	e004      	b.n	2678c <_ZN20complex_dynamic_type3app17hbf77078bbe61f6ccE+0x110>
   26782:	4811      	ldr	r0, [pc, #68]	@ (267c8 <_ZN20complex_dynamic_type3app17hbf77078bbe61f6ccE+0x14c>)
   26784:	2105      	movs	r1, #5
   26786:	2200      	movs	r2, #0
   26788:	4613      	mov	r3, r2
   2678a:	df04      	svc	4
   2678c:	a805      	add	r0, sp, #20
   2678e:	7804      	ldrb	r4, [r0, #0]
   26790:	1c68      	adds	r0, r5, #1
   26792:	2214      	movs	r2, #20
   26794:	9902      	ldr	r1, [sp, #8]
   26796:	f004 fcb9 	bl	2b10c <__aeabi_memcpy>
   2679a:	702e      	strb	r6, [r5, #0]
   2679c:	2c02      	cmp	r4, #2
   2679e:	d006      	beq.n	267ae <_ZN20complex_dynamic_type3app17hbf77078bbe61f6ccE+0x132>
   267a0:	4809      	ldr	r0, [pc, #36]	@ (267c8 <_ZN20complex_dynamic_type3app17hbf77078bbe61f6ccE+0x14c>)
   267a2:	2106      	movs	r1, #6
   267a4:	2200      	movs	r2, #0
   267a6:	4613      	mov	r3, r2
   267a8:	2c04      	cmp	r4, #4
   267aa:	d10a      	bne.n	267c2 <_ZN20complex_dynamic_type3app17hbf77078bbe61f6ccE+0x146>
   267ac:	df04      	svc	4
   267ae:	b015      	add	sp, #84	@ 0x54
   267b0:	bdf0      	pop	{r4, r5, r6, r7, pc}
   267b2:	1c68      	adds	r0, r5, #1
   267b4:	2214      	movs	r2, #20
   267b6:	4621      	mov	r1, r4
   267b8:	f004 fca8 	bl	2b10c <__aeabi_memcpy>
   267bc:	702e      	strb	r6, [r5, #0]
   267be:	b015      	add	sp, #84	@ 0x54
   267c0:	bdf0      	pop	{r4, r5, r6, r7, pc}
   267c2:	df03      	svc	3
   267c4:	b015      	add	sp, #84	@ 0x54
   267c6:	bdf0      	pop	{r4, r5, r6, r7, pc}
   267c8:	000022c9 	.word	0x000022c9

000267cc <_ZN20complex_dynamic_type3app17hbfa7906871098db3E>:
   267cc:	b5f0      	push	{r4, r5, r6, r7, lr}
   267ce:	af03      	add	r7, sp, #12
   267d0:	b09b      	sub	sp, #108	@ 0x6c
   267d2:	9003      	str	r0, [sp, #12]
   267d4:	a804      	add	r0, sp, #16
   267d6:	2602      	movs	r6, #2
   267d8:	7006      	strb	r6, [r0, #0]
   267da:	1c40      	adds	r0, r0, #1
   267dc:	9002      	str	r0, [sp, #8]
   267de:	2512      	movs	r5, #18
   267e0:	462a      	mov	r2, r5
   267e2:	f004 fc93 	bl	2b10c <__aeabi_memcpy>
   267e6:	ac09      	add	r4, sp, #36	@ 0x24
   267e8:	1c60      	adds	r0, r4, #1
   267ea:	2144      	movs	r1, #68	@ 0x44
   267ec:	9001      	str	r0, [sp, #4]
   267ee:	f004 facd 	bl	2ad8c <__aeabi_memclr>
   267f2:	7026      	strb	r6, [r4, #0]
   267f4:	484a      	ldr	r0, [pc, #296]	@ (26920 <_ZN20complex_dynamic_type3app17hbfa7906871098db3E+0x154>)
   267f6:	4631      	mov	r1, r6
   267f8:	9a02      	ldr	r2, [sp, #8]
   267fa:	462b      	mov	r3, r5
   267fc:	df04      	svc	4
   267fe:	2802      	cmp	r0, #2
   26800:	d104      	bne.n	2680c <_ZN20complex_dynamic_type3app17hbfa7906871098db3E+0x40>
   26802:	2001      	movs	r0, #1
   26804:	9a03      	ldr	r2, [sp, #12]
   26806:	7010      	strb	r0, [r2, #0]
   26808:	6051      	str	r1, [r2, #4]
   2680a:	e02e      	b.n	2686a <_ZN20complex_dynamic_type3app17hbfa7906871098db3E+0x9e>
   2680c:	9d03      	ldr	r5, [sp, #12]
   2680e:	a804      	add	r0, sp, #16
   26810:	2104      	movs	r1, #4
   26812:	7001      	strb	r1, [r0, #0]
   26814:	4842      	ldr	r0, [pc, #264]	@ (26920 <_ZN20complex_dynamic_type3app17hbfa7906871098db3E+0x154>)
   26816:	2109      	movs	r1, #9
   26818:	2344      	movs	r3, #68	@ 0x44
   2681a:	9c01      	ldr	r4, [sp, #4]
   2681c:	4622      	mov	r2, r4
   2681e:	df03      	svc	3
   26820:	2802      	cmp	r0, #2
   26822:	d10e      	bne.n	26842 <_ZN20complex_dynamic_type3app17hbfa7906871098db3E+0x76>
   26824:	2001      	movs	r0, #1
   26826:	7028      	strb	r0, [r5, #0]
   26828:	6069      	str	r1, [r5, #4]
   2682a:	a809      	add	r0, sp, #36	@ 0x24
   2682c:	7800      	ldrb	r0, [r0, #0]
   2682e:	2802      	cmp	r0, #2
   26830:	d01b      	beq.n	2686a <_ZN20complex_dynamic_type3app17hbfa7906871098db3E+0x9e>
   26832:	2803      	cmp	r0, #3
   26834:	d014      	beq.n	26860 <_ZN20complex_dynamic_type3app17hbfa7906871098db3E+0x94>
   26836:	483a      	ldr	r0, [pc, #232]	@ (26920 <_ZN20complex_dynamic_type3app17hbfa7906871098db3E+0x154>)
   26838:	2109      	movs	r1, #9
   2683a:	2200      	movs	r2, #0
   2683c:	4613      	mov	r3, r2
   2683e:	df04      	svc	4
   26840:	e013      	b.n	2686a <_ZN20complex_dynamic_type3app17hbfa7906871098db3E+0x9e>
   26842:	a809      	add	r0, sp, #36	@ 0x24
   26844:	2103      	movs	r1, #3
   26846:	7001      	strb	r1, [r0, #0]
   26848:	4835      	ldr	r0, [pc, #212]	@ (26920 <_ZN20complex_dynamic_type3app17hbfa7906871098db3E+0x154>)
   2684a:	2602      	movs	r6, #2
   2684c:	2209      	movs	r2, #9
   2684e:	2300      	movs	r3, #0
   26850:	4631      	mov	r1, r6
   26852:	9302      	str	r3, [sp, #8]
   26854:	df02      	svc	2
   26856:	2880      	cmp	r0, #128	@ 0x80
   26858:	d21b      	bcs.n	26892 <_ZN20complex_dynamic_type3app17hbfa7906871098db3E+0xc6>
   2685a:	2001      	movs	r0, #1
   2685c:	7028      	strb	r0, [r5, #0]
   2685e:	6069      	str	r1, [r5, #4]
   26860:	482f      	ldr	r0, [pc, #188]	@ (26920 <_ZN20complex_dynamic_type3app17hbfa7906871098db3E+0x154>)
   26862:	2109      	movs	r1, #9
   26864:	2200      	movs	r2, #0
   26866:	4613      	mov	r3, r2
   26868:	df03      	svc	3
   2686a:	a804      	add	r0, sp, #16
   2686c:	7800      	ldrb	r0, [r0, #0]
   2686e:	2802      	cmp	r0, #2
   26870:	d047      	beq.n	26902 <_ZN20complex_dynamic_type3app17hbfa7906871098db3E+0x136>
   26872:	2804      	cmp	r0, #4
   26874:	d106      	bne.n	26884 <_ZN20complex_dynamic_type3app17hbfa7906871098db3E+0xb8>
   26876:	482a      	ldr	r0, [pc, #168]	@ (26920 <_ZN20complex_dynamic_type3app17hbfa7906871098db3E+0x154>)
   26878:	2102      	movs	r1, #2
   2687a:	2200      	movs	r2, #0
   2687c:	4613      	mov	r3, r2
   2687e:	df04      	svc	4
   26880:	b01b      	add	sp, #108	@ 0x6c
   26882:	bdf0      	pop	{r4, r5, r6, r7, pc}
   26884:	4826      	ldr	r0, [pc, #152]	@ (26920 <_ZN20complex_dynamic_type3app17hbfa7906871098db3E+0x154>)
   26886:	2102      	movs	r1, #2
   26888:	2200      	movs	r2, #0
   2688a:	4613      	mov	r3, r2
   2688c:	df03      	svc	3
   2688e:	b01b      	add	sp, #108	@ 0x6c
   26890:	bdf0      	pop	{r4, r5, r6, r7, pc}
   26892:	a804      	add	r0, sp, #16
   26894:	7800      	ldrb	r0, [r0, #0]
   26896:	2802      	cmp	r0, #2
   26898:	d00c      	beq.n	268b4 <_ZN20complex_dynamic_type3app17hbfa7906871098db3E+0xe8>
   2689a:	2803      	cmp	r0, #3
   2689c:	d105      	bne.n	268aa <_ZN20complex_dynamic_type3app17hbfa7906871098db3E+0xde>
   2689e:	4820      	ldr	r0, [pc, #128]	@ (26920 <_ZN20complex_dynamic_type3app17hbfa7906871098db3E+0x154>)
   268a0:	2102      	movs	r1, #2
   268a2:	2200      	movs	r2, #0
   268a4:	4613      	mov	r3, r2
   268a6:	df03      	svc	3
   268a8:	e004      	b.n	268b4 <_ZN20complex_dynamic_type3app17hbfa7906871098db3E+0xe8>
   268aa:	481d      	ldr	r0, [pc, #116]	@ (26920 <_ZN20complex_dynamic_type3app17hbfa7906871098db3E+0x154>)
   268ac:	2102      	movs	r1, #2
   268ae:	2200      	movs	r2, #0
   268b0:	4613      	mov	r3, r2
   268b2:	df04      	svc	4
   268b4:	a804      	add	r0, sp, #16
   268b6:	7006      	strb	r6, [r0, #0]
   268b8:	a809      	add	r0, sp, #36	@ 0x24
   268ba:	7800      	ldrb	r0, [r0, #0]
   268bc:	2804      	cmp	r0, #4
   268be:	d008      	beq.n	268d2 <_ZN20complex_dynamic_type3app17hbfa7906871098db3E+0x106>
   268c0:	2803      	cmp	r0, #3
   268c2:	d120      	bne.n	26906 <_ZN20complex_dynamic_type3app17hbfa7906871098db3E+0x13a>
   268c4:	4626      	mov	r6, r4
   268c6:	4816      	ldr	r0, [pc, #88]	@ (26920 <_ZN20complex_dynamic_type3app17hbfa7906871098db3E+0x154>)
   268c8:	2109      	movs	r1, #9
   268ca:	2200      	movs	r2, #0
   268cc:	4613      	mov	r3, r2
   268ce:	df03      	svc	3
   268d0:	e005      	b.n	268de <_ZN20complex_dynamic_type3app17hbfa7906871098db3E+0x112>
   268d2:	4626      	mov	r6, r4
   268d4:	4812      	ldr	r0, [pc, #72]	@ (26920 <_ZN20complex_dynamic_type3app17hbfa7906871098db3E+0x154>)
   268d6:	2109      	movs	r1, #9
   268d8:	2200      	movs	r2, #0
   268da:	4613      	mov	r3, r2
   268dc:	df04      	svc	4
   268de:	a804      	add	r0, sp, #16
   268e0:	7804      	ldrb	r4, [r0, #0]
   268e2:	1c68      	adds	r0, r5, #1
   268e4:	2244      	movs	r2, #68	@ 0x44
   268e6:	4631      	mov	r1, r6
   268e8:	f004 fc10 	bl	2b10c <__aeabi_memcpy>
   268ec:	9802      	ldr	r0, [sp, #8]
   268ee:	7028      	strb	r0, [r5, #0]
   268f0:	2c02      	cmp	r4, #2
   268f2:	d006      	beq.n	26902 <_ZN20complex_dynamic_type3app17hbfa7906871098db3E+0x136>
   268f4:	480a      	ldr	r0, [pc, #40]	@ (26920 <_ZN20complex_dynamic_type3app17hbfa7906871098db3E+0x154>)
   268f6:	2102      	movs	r1, #2
   268f8:	2200      	movs	r2, #0
   268fa:	4613      	mov	r3, r2
   268fc:	2c04      	cmp	r4, #4
   268fe:	d10b      	bne.n	26918 <_ZN20complex_dynamic_type3app17hbfa7906871098db3E+0x14c>
   26900:	df04      	svc	4
   26902:	b01b      	add	sp, #108	@ 0x6c
   26904:	bdf0      	pop	{r4, r5, r6, r7, pc}
   26906:	1c68      	adds	r0, r5, #1
   26908:	2244      	movs	r2, #68	@ 0x44
   2690a:	4621      	mov	r1, r4
   2690c:	f004 fbfe 	bl	2b10c <__aeabi_memcpy>
   26910:	9802      	ldr	r0, [sp, #8]
   26912:	7028      	strb	r0, [r5, #0]
   26914:	b01b      	add	sp, #108	@ 0x6c
   26916:	bdf0      	pop	{r4, r5, r6, r7, pc}
   26918:	df03      	svc	3
   2691a:	b01b      	add	sp, #108	@ 0x6c
   2691c:	bdf0      	pop	{r4, r5, r6, r7, pc}
   2691e:	46c0      	nop			@ (mov r8, r8)
   26920:	00002432 	.word	0x00002432

00026924 <_ZN20complex_dynamic_type3app17hc19f4c73ec24f4abE>:
   26924:	b5f0      	push	{r4, r5, r6, r7, lr}
   26926:	af03      	add	r7, sp, #12
   26928:	b09b      	sub	sp, #108	@ 0x6c
   2692a:	9004      	str	r0, [sp, #16]
   2692c:	a805      	add	r0, sp, #20
   2692e:	2402      	movs	r4, #2
   26930:	7004      	strb	r4, [r0, #0]
   26932:	1c46      	adds	r6, r0, #1
   26934:	222c      	movs	r2, #44	@ 0x2c
   26936:	9203      	str	r2, [sp, #12]
   26938:	4630      	mov	r0, r6
   2693a:	f004 fbe7 	bl	2b10c <__aeabi_memcpy>
   2693e:	ad11      	add	r5, sp, #68	@ 0x44
   26940:	1c68      	adds	r0, r5, #1
   26942:	2127      	movs	r1, #39	@ 0x27
   26944:	9002      	str	r0, [sp, #8]
   26946:	f004 fa21 	bl	2ad8c <__aeabi_memclr>
   2694a:	9401      	str	r4, [sp, #4]
   2694c:	702c      	strb	r4, [r5, #0]
   2694e:	4848      	ldr	r0, [pc, #288]	@ (26a70 <_ZN20complex_dynamic_type3app17hc19f4c73ec24f4abE+0x14c>)
   26950:	2504      	movs	r5, #4
   26952:	4629      	mov	r1, r5
   26954:	4632      	mov	r2, r6
   26956:	9b03      	ldr	r3, [sp, #12]
   26958:	df04      	svc	4
   2695a:	2802      	cmp	r0, #2
   2695c:	d104      	bne.n	26968 <_ZN20complex_dynamic_type3app17hc19f4c73ec24f4abE+0x44>
   2695e:	2001      	movs	r0, #1
   26960:	9a04      	ldr	r2, [sp, #16]
   26962:	7010      	strb	r0, [r2, #0]
   26964:	6051      	str	r1, [r2, #4]
   26966:	e02b      	b.n	269c0 <_ZN20complex_dynamic_type3app17hc19f4c73ec24f4abE+0x9c>
   26968:	9e04      	ldr	r6, [sp, #16]
   2696a:	a805      	add	r0, sp, #20
   2696c:	7005      	strb	r5, [r0, #0]
   2696e:	4840      	ldr	r0, [pc, #256]	@ (26a70 <_ZN20complex_dynamic_type3app17hc19f4c73ec24f4abE+0x14c>)
   26970:	2403      	movs	r4, #3
   26972:	2327      	movs	r3, #39	@ 0x27
   26974:	4621      	mov	r1, r4
   26976:	9a02      	ldr	r2, [sp, #8]
   26978:	df03      	svc	3
   2697a:	2802      	cmp	r0, #2
   2697c:	d10e      	bne.n	2699c <_ZN20complex_dynamic_type3app17hc19f4c73ec24f4abE+0x78>
   2697e:	2001      	movs	r0, #1
   26980:	7030      	strb	r0, [r6, #0]
   26982:	6071      	str	r1, [r6, #4]
   26984:	a811      	add	r0, sp, #68	@ 0x44
   26986:	7800      	ldrb	r0, [r0, #0]
   26988:	2802      	cmp	r0, #2
   2698a:	d019      	beq.n	269c0 <_ZN20complex_dynamic_type3app17hc19f4c73ec24f4abE+0x9c>
   2698c:	2803      	cmp	r0, #3
   2698e:	d012      	beq.n	269b6 <_ZN20complex_dynamic_type3app17hc19f4c73ec24f4abE+0x92>
   26990:	4837      	ldr	r0, [pc, #220]	@ (26a70 <_ZN20complex_dynamic_type3app17hc19f4c73ec24f4abE+0x14c>)
   26992:	2103      	movs	r1, #3
   26994:	2200      	movs	r2, #0
   26996:	4613      	mov	r3, r2
   26998:	df04      	svc	4
   2699a:	e011      	b.n	269c0 <_ZN20complex_dynamic_type3app17hc19f4c73ec24f4abE+0x9c>
   2699c:	a811      	add	r0, sp, #68	@ 0x44
   2699e:	7004      	strb	r4, [r0, #0]
   269a0:	4833      	ldr	r0, [pc, #204]	@ (26a70 <_ZN20complex_dynamic_type3app17hc19f4c73ec24f4abE+0x14c>)
   269a2:	2104      	movs	r1, #4
   269a4:	2500      	movs	r5, #0
   269a6:	4622      	mov	r2, r4
   269a8:	462b      	mov	r3, r5
   269aa:	df02      	svc	2
   269ac:	2880      	cmp	r0, #128	@ 0x80
   269ae:	d21b      	bcs.n	269e8 <_ZN20complex_dynamic_type3app17hc19f4c73ec24f4abE+0xc4>
   269b0:	2001      	movs	r0, #1
   269b2:	7030      	strb	r0, [r6, #0]
   269b4:	6071      	str	r1, [r6, #4]
   269b6:	482e      	ldr	r0, [pc, #184]	@ (26a70 <_ZN20complex_dynamic_type3app17hc19f4c73ec24f4abE+0x14c>)
   269b8:	2103      	movs	r1, #3
   269ba:	2200      	movs	r2, #0
   269bc:	4613      	mov	r3, r2
   269be:	df03      	svc	3
   269c0:	a805      	add	r0, sp, #20
   269c2:	7800      	ldrb	r0, [r0, #0]
   269c4:	2802      	cmp	r0, #2
   269c6:	d045      	beq.n	26a54 <_ZN20complex_dynamic_type3app17hc19f4c73ec24f4abE+0x130>
   269c8:	2804      	cmp	r0, #4
   269ca:	d106      	bne.n	269da <_ZN20complex_dynamic_type3app17hc19f4c73ec24f4abE+0xb6>
   269cc:	4828      	ldr	r0, [pc, #160]	@ (26a70 <_ZN20complex_dynamic_type3app17hc19f4c73ec24f4abE+0x14c>)
   269ce:	2104      	movs	r1, #4
   269d0:	2200      	movs	r2, #0
   269d2:	4613      	mov	r3, r2
   269d4:	df04      	svc	4
   269d6:	b01b      	add	sp, #108	@ 0x6c
   269d8:	bdf0      	pop	{r4, r5, r6, r7, pc}
   269da:	4825      	ldr	r0, [pc, #148]	@ (26a70 <_ZN20complex_dynamic_type3app17hc19f4c73ec24f4abE+0x14c>)
   269dc:	2104      	movs	r1, #4
   269de:	2200      	movs	r2, #0
   269e0:	4613      	mov	r3, r2
   269e2:	df03      	svc	3
   269e4:	b01b      	add	sp, #108	@ 0x6c
   269e6:	bdf0      	pop	{r4, r5, r6, r7, pc}
   269e8:	a805      	add	r0, sp, #20
   269ea:	7800      	ldrb	r0, [r0, #0]
   269ec:	2802      	cmp	r0, #2
   269ee:	d00c      	beq.n	26a0a <_ZN20complex_dynamic_type3app17hc19f4c73ec24f4abE+0xe6>
   269f0:	2803      	cmp	r0, #3
   269f2:	d105      	bne.n	26a00 <_ZN20complex_dynamic_type3app17hc19f4c73ec24f4abE+0xdc>
   269f4:	481e      	ldr	r0, [pc, #120]	@ (26a70 <_ZN20complex_dynamic_type3app17hc19f4c73ec24f4abE+0x14c>)
   269f6:	2104      	movs	r1, #4
   269f8:	2200      	movs	r2, #0
   269fa:	4613      	mov	r3, r2
   269fc:	df03      	svc	3
   269fe:	e004      	b.n	26a0a <_ZN20complex_dynamic_type3app17hc19f4c73ec24f4abE+0xe6>
   26a00:	481b      	ldr	r0, [pc, #108]	@ (26a70 <_ZN20complex_dynamic_type3app17hc19f4c73ec24f4abE+0x14c>)
   26a02:	2104      	movs	r1, #4
   26a04:	2200      	movs	r2, #0
   26a06:	4613      	mov	r3, r2
   26a08:	df04      	svc	4
   26a0a:	a805      	add	r0, sp, #20
   26a0c:	9901      	ldr	r1, [sp, #4]
   26a0e:	7001      	strb	r1, [r0, #0]
   26a10:	a811      	add	r0, sp, #68	@ 0x44
   26a12:	7800      	ldrb	r0, [r0, #0]
   26a14:	2804      	cmp	r0, #4
   26a16:	d007      	beq.n	26a28 <_ZN20complex_dynamic_type3app17hc19f4c73ec24f4abE+0x104>
   26a18:	2803      	cmp	r0, #3
   26a1a:	d11d      	bne.n	26a58 <_ZN20complex_dynamic_type3app17hc19f4c73ec24f4abE+0x134>
   26a1c:	4814      	ldr	r0, [pc, #80]	@ (26a70 <_ZN20complex_dynamic_type3app17hc19f4c73ec24f4abE+0x14c>)
   26a1e:	2103      	movs	r1, #3
   26a20:	2200      	movs	r2, #0
   26a22:	4613      	mov	r3, r2
   26a24:	df03      	svc	3
   26a26:	e004      	b.n	26a32 <_ZN20complex_dynamic_type3app17hc19f4c73ec24f4abE+0x10e>
   26a28:	4811      	ldr	r0, [pc, #68]	@ (26a70 <_ZN20complex_dynamic_type3app17hc19f4c73ec24f4abE+0x14c>)
   26a2a:	2103      	movs	r1, #3
   26a2c:	2200      	movs	r2, #0
   26a2e:	4613      	mov	r3, r2
   26a30:	df04      	svc	4
   26a32:	a805      	add	r0, sp, #20
   26a34:	7804      	ldrb	r4, [r0, #0]
   26a36:	1c70      	adds	r0, r6, #1
   26a38:	2227      	movs	r2, #39	@ 0x27
   26a3a:	9902      	ldr	r1, [sp, #8]
   26a3c:	f004 fb66 	bl	2b10c <__aeabi_memcpy>
   26a40:	7035      	strb	r5, [r6, #0]
   26a42:	2c02      	cmp	r4, #2
   26a44:	d006      	beq.n	26a54 <_ZN20complex_dynamic_type3app17hc19f4c73ec24f4abE+0x130>
   26a46:	480a      	ldr	r0, [pc, #40]	@ (26a70 <_ZN20complex_dynamic_type3app17hc19f4c73ec24f4abE+0x14c>)
   26a48:	2104      	movs	r1, #4
   26a4a:	2200      	movs	r2, #0
   26a4c:	4613      	mov	r3, r2
   26a4e:	2c04      	cmp	r4, #4
   26a50:	d10a      	bne.n	26a68 <_ZN20complex_dynamic_type3app17hc19f4c73ec24f4abE+0x144>
   26a52:	df04      	svc	4
   26a54:	b01b      	add	sp, #108	@ 0x6c
   26a56:	bdf0      	pop	{r4, r5, r6, r7, pc}
   26a58:	1c70      	adds	r0, r6, #1
   26a5a:	2227      	movs	r2, #39	@ 0x27
   26a5c:	9902      	ldr	r1, [sp, #8]
   26a5e:	f004 fb55 	bl	2b10c <__aeabi_memcpy>
   26a62:	7035      	strb	r5, [r6, #0]
   26a64:	b01b      	add	sp, #108	@ 0x6c
   26a66:	bdf0      	pop	{r4, r5, r6, r7, pc}
   26a68:	df03      	svc	3
   26a6a:	b01b      	add	sp, #108	@ 0x6c
   26a6c:	bdf0      	pop	{r4, r5, r6, r7, pc}
   26a6e:	46c0      	nop			@ (mov r8, r8)
   26a70:	000011b5 	.word	0x000011b5

00026a74 <_ZN20complex_dynamic_type3app17hc3a3207f707cbcbbE>:
   26a74:	b5f0      	push	{r4, r5, r6, r7, lr}
   26a76:	af03      	add	r7, sp, #12
   26a78:	b09d      	sub	sp, #116	@ 0x74
   26a7a:	9004      	str	r0, [sp, #16]
   26a7c:	a805      	add	r0, sp, #20
   26a7e:	2502      	movs	r5, #2
   26a80:	7005      	strb	r5, [r0, #0]
   26a82:	1c40      	adds	r0, r0, #1
   26a84:	9003      	str	r0, [sp, #12]
   26a86:	261b      	movs	r6, #27
   26a88:	4632      	mov	r2, r6
   26a8a:	f004 fb3f 	bl	2b10c <__aeabi_memcpy>
   26a8e:	ac0c      	add	r4, sp, #48	@ 0x30
   26a90:	1c60      	adds	r0, r4, #1
   26a92:	2141      	movs	r1, #65	@ 0x41
   26a94:	9002      	str	r0, [sp, #8]
   26a96:	f004 f979 	bl	2ad8c <__aeabi_memclr>
   26a9a:	9501      	str	r5, [sp, #4]
   26a9c:	7025      	strb	r5, [r4, #0]
   26a9e:	2005      	movs	r0, #5
   26aa0:	0184      	lsls	r4, r0, #6
   26aa2:	2108      	movs	r1, #8
   26aa4:	4620      	mov	r0, r4
   26aa6:	9a03      	ldr	r2, [sp, #12]
   26aa8:	4633      	mov	r3, r6
   26aaa:	df04      	svc	4
   26aac:	2802      	cmp	r0, #2
   26aae:	d104      	bne.n	26aba <_ZN20complex_dynamic_type3app17hc3a3207f707cbcbbE+0x46>
   26ab0:	2001      	movs	r0, #1
   26ab2:	9a04      	ldr	r2, [sp, #16]
   26ab4:	7010      	strb	r0, [r2, #0]
   26ab6:	6051      	str	r1, [r2, #4]
   26ab8:	e02d      	b.n	26b16 <_ZN20complex_dynamic_type3app17hc3a3207f707cbcbbE+0xa2>
   26aba:	9e04      	ldr	r6, [sp, #16]
   26abc:	a805      	add	r0, sp, #20
   26abe:	2104      	movs	r1, #4
   26ac0:	7001      	strb	r1, [r0, #0]
   26ac2:	2109      	movs	r1, #9
   26ac4:	2341      	movs	r3, #65	@ 0x41
   26ac6:	4620      	mov	r0, r4
   26ac8:	9d02      	ldr	r5, [sp, #8]
   26aca:	462a      	mov	r2, r5
   26acc:	df03      	svc	3
   26ace:	2802      	cmp	r0, #2
   26ad0:	d10e      	bne.n	26af0 <_ZN20complex_dynamic_type3app17hc3a3207f707cbcbbE+0x7c>
   26ad2:	2001      	movs	r0, #1
   26ad4:	7030      	strb	r0, [r6, #0]
   26ad6:	6071      	str	r1, [r6, #4]
   26ad8:	a80c      	add	r0, sp, #48	@ 0x30
   26ada:	7800      	ldrb	r0, [r0, #0]
   26adc:	2802      	cmp	r0, #2
   26ade:	d01a      	beq.n	26b16 <_ZN20complex_dynamic_type3app17hc3a3207f707cbcbbE+0xa2>
   26ae0:	2803      	cmp	r0, #3
   26ae2:	d013      	beq.n	26b0c <_ZN20complex_dynamic_type3app17hc3a3207f707cbcbbE+0x98>
   26ae4:	2109      	movs	r1, #9
   26ae6:	2200      	movs	r2, #0
   26ae8:	4620      	mov	r0, r4
   26aea:	4613      	mov	r3, r2
   26aec:	df04      	svc	4
   26aee:	e012      	b.n	26b16 <_ZN20complex_dynamic_type3app17hc3a3207f707cbcbbE+0xa2>
   26af0:	a80c      	add	r0, sp, #48	@ 0x30
   26af2:	2103      	movs	r1, #3
   26af4:	7001      	strb	r1, [r0, #0]
   26af6:	2108      	movs	r1, #8
   26af8:	2209      	movs	r2, #9
   26afa:	2300      	movs	r3, #0
   26afc:	4620      	mov	r0, r4
   26afe:	9303      	str	r3, [sp, #12]
   26b00:	df02      	svc	2
   26b02:	2880      	cmp	r0, #128	@ 0x80
   26b04:	d219      	bcs.n	26b3a <_ZN20complex_dynamic_type3app17hc3a3207f707cbcbbE+0xc6>
   26b06:	2001      	movs	r0, #1
   26b08:	7030      	strb	r0, [r6, #0]
   26b0a:	6071      	str	r1, [r6, #4]
   26b0c:	2109      	movs	r1, #9
   26b0e:	2200      	movs	r2, #0
   26b10:	4620      	mov	r0, r4
   26b12:	4613      	mov	r3, r2
   26b14:	df03      	svc	3
   26b16:	a805      	add	r0, sp, #20
   26b18:	7800      	ldrb	r0, [r0, #0]
   26b1a:	2802      	cmp	r0, #2
   26b1c:	d044      	beq.n	26ba8 <_ZN20complex_dynamic_type3app17hc3a3207f707cbcbbE+0x134>
   26b1e:	2108      	movs	r1, #8
   26b20:	2200      	movs	r2, #0
   26b22:	2804      	cmp	r0, #4
   26b24:	d104      	bne.n	26b30 <_ZN20complex_dynamic_type3app17hc3a3207f707cbcbbE+0xbc>
   26b26:	4620      	mov	r0, r4
   26b28:	4613      	mov	r3, r2
   26b2a:	df04      	svc	4
   26b2c:	b01d      	add	sp, #116	@ 0x74
   26b2e:	bdf0      	pop	{r4, r5, r6, r7, pc}
   26b30:	4620      	mov	r0, r4
   26b32:	4613      	mov	r3, r2
   26b34:	df03      	svc	3
   26b36:	b01d      	add	sp, #116	@ 0x74
   26b38:	bdf0      	pop	{r4, r5, r6, r7, pc}
   26b3a:	a805      	add	r0, sp, #20
   26b3c:	7800      	ldrb	r0, [r0, #0]
   26b3e:	2802      	cmp	r0, #2
   26b40:	d00a      	beq.n	26b58 <_ZN20complex_dynamic_type3app17hc3a3207f707cbcbbE+0xe4>
   26b42:	2108      	movs	r1, #8
   26b44:	2200      	movs	r2, #0
   26b46:	2803      	cmp	r0, #3
   26b48:	d103      	bne.n	26b52 <_ZN20complex_dynamic_type3app17hc3a3207f707cbcbbE+0xde>
   26b4a:	4620      	mov	r0, r4
   26b4c:	4613      	mov	r3, r2
   26b4e:	df03      	svc	3
   26b50:	e002      	b.n	26b58 <_ZN20complex_dynamic_type3app17hc3a3207f707cbcbbE+0xe4>
   26b52:	4620      	mov	r0, r4
   26b54:	4613      	mov	r3, r2
   26b56:	df04      	svc	4
   26b58:	a805      	add	r0, sp, #20
   26b5a:	9901      	ldr	r1, [sp, #4]
   26b5c:	7001      	strb	r1, [r0, #0]
   26b5e:	a80c      	add	r0, sp, #48	@ 0x30
   26b60:	7800      	ldrb	r0, [r0, #0]
   26b62:	2804      	cmp	r0, #4
   26b64:	d008      	beq.n	26b78 <_ZN20complex_dynamic_type3app17hc3a3207f707cbcbbE+0x104>
   26b66:	2803      	cmp	r0, #3
   26b68:	d120      	bne.n	26bac <_ZN20complex_dynamic_type3app17hc3a3207f707cbcbbE+0x138>
   26b6a:	2109      	movs	r1, #9
   26b6c:	2200      	movs	r2, #0
   26b6e:	9401      	str	r4, [sp, #4]
   26b70:	4620      	mov	r0, r4
   26b72:	4613      	mov	r3, r2
   26b74:	df03      	svc	3
   26b76:	e005      	b.n	26b84 <_ZN20complex_dynamic_type3app17hc3a3207f707cbcbbE+0x110>
   26b78:	2109      	movs	r1, #9
   26b7a:	2200      	movs	r2, #0
   26b7c:	9401      	str	r4, [sp, #4]
   26b7e:	4620      	mov	r0, r4
   26b80:	4613      	mov	r3, r2
   26b82:	df04      	svc	4
   26b84:	a805      	add	r0, sp, #20
   26b86:	7804      	ldrb	r4, [r0, #0]
   26b88:	1c70      	adds	r0, r6, #1
   26b8a:	2241      	movs	r2, #65	@ 0x41
   26b8c:	4629      	mov	r1, r5
   26b8e:	f004 fabd 	bl	2b10c <__aeabi_memcpy>
   26b92:	9803      	ldr	r0, [sp, #12]
   26b94:	7030      	strb	r0, [r6, #0]
   26b96:	2c02      	cmp	r4, #2
   26b98:	d006      	beq.n	26ba8 <_ZN20complex_dynamic_type3app17hc3a3207f707cbcbbE+0x134>
   26b9a:	2c04      	cmp	r4, #4
   26b9c:	d10f      	bne.n	26bbe <_ZN20complex_dynamic_type3app17hc3a3207f707cbcbbE+0x14a>
   26b9e:	2108      	movs	r1, #8
   26ba0:	2200      	movs	r2, #0
   26ba2:	9801      	ldr	r0, [sp, #4]
   26ba4:	4613      	mov	r3, r2
   26ba6:	df04      	svc	4
   26ba8:	b01d      	add	sp, #116	@ 0x74
   26baa:	bdf0      	pop	{r4, r5, r6, r7, pc}
   26bac:	1c70      	adds	r0, r6, #1
   26bae:	2241      	movs	r2, #65	@ 0x41
   26bb0:	4629      	mov	r1, r5
   26bb2:	f004 faab 	bl	2b10c <__aeabi_memcpy>
   26bb6:	9803      	ldr	r0, [sp, #12]
   26bb8:	7030      	strb	r0, [r6, #0]
   26bba:	b01d      	add	sp, #116	@ 0x74
   26bbc:	bdf0      	pop	{r4, r5, r6, r7, pc}
   26bbe:	9801      	ldr	r0, [sp, #4]
   26bc0:	2108      	movs	r1, #8
   26bc2:	2200      	movs	r2, #0
   26bc4:	4613      	mov	r3, r2
   26bc6:	df03      	svc	3
   26bc8:	b01d      	add	sp, #116	@ 0x74
   26bca:	bdf0      	pop	{r4, r5, r6, r7, pc}

00026bcc <_ZN20complex_dynamic_type3app17hcabca0b71f0d8029E>:
   26bcc:	b5f0      	push	{r4, r5, r6, r7, lr}
   26bce:	af03      	add	r7, sp, #12
   26bd0:	b097      	sub	sp, #92	@ 0x5c
   26bd2:	9003      	str	r0, [sp, #12]
   26bd4:	a804      	add	r0, sp, #16
   26bd6:	2402      	movs	r4, #2
   26bd8:	7004      	strb	r4, [r0, #0]
   26bda:	1c46      	adds	r6, r0, #1
   26bdc:	222b      	movs	r2, #43	@ 0x2b
   26bde:	9202      	str	r2, [sp, #8]
   26be0:	4630      	mov	r0, r6
   26be2:	f004 fa93 	bl	2b10c <__aeabi_memcpy>
   26be6:	ad0f      	add	r5, sp, #60	@ 0x3c
   26be8:	1c68      	adds	r0, r5, #1
   26bea:	211e      	movs	r1, #30
   26bec:	9001      	str	r0, [sp, #4]
   26bee:	f004 f8cd 	bl	2ad8c <__aeabi_memclr>
   26bf2:	9400      	str	r4, [sp, #0]
   26bf4:	702c      	strb	r4, [r5, #0]
   26bf6:	4848      	ldr	r0, [pc, #288]	@ (26d18 <_ZN20complex_dynamic_type3app17hcabca0b71f0d8029E+0x14c>)
   26bf8:	2107      	movs	r1, #7
   26bfa:	4632      	mov	r2, r6
   26bfc:	9b02      	ldr	r3, [sp, #8]
   26bfe:	df04      	svc	4
   26c00:	2802      	cmp	r0, #2
   26c02:	d104      	bne.n	26c0e <_ZN20complex_dynamic_type3app17hcabca0b71f0d8029E+0x42>
   26c04:	2001      	movs	r0, #1
   26c06:	9a03      	ldr	r2, [sp, #12]
   26c08:	7010      	strb	r0, [r2, #0]
   26c0a:	6051      	str	r1, [r2, #4]
   26c0c:	e02d      	b.n	26c6a <_ZN20complex_dynamic_type3app17hcabca0b71f0d8029E+0x9e>
   26c0e:	9d03      	ldr	r5, [sp, #12]
   26c10:	a804      	add	r0, sp, #16
   26c12:	2104      	movs	r1, #4
   26c14:	7001      	strb	r1, [r0, #0]
   26c16:	4840      	ldr	r0, [pc, #256]	@ (26d18 <_ZN20complex_dynamic_type3app17hcabca0b71f0d8029E+0x14c>)
   26c18:	2108      	movs	r1, #8
   26c1a:	231e      	movs	r3, #30
   26c1c:	9c01      	ldr	r4, [sp, #4]
   26c1e:	4622      	mov	r2, r4
   26c20:	df03      	svc	3
   26c22:	2802      	cmp	r0, #2
   26c24:	d10e      	bne.n	26c44 <_ZN20complex_dynamic_type3app17hcabca0b71f0d8029E+0x78>
   26c26:	2001      	movs	r0, #1
   26c28:	7028      	strb	r0, [r5, #0]
   26c2a:	6069      	str	r1, [r5, #4]
   26c2c:	a80f      	add	r0, sp, #60	@ 0x3c
   26c2e:	7800      	ldrb	r0, [r0, #0]
   26c30:	2802      	cmp	r0, #2
   26c32:	d01a      	beq.n	26c6a <_ZN20complex_dynamic_type3app17hcabca0b71f0d8029E+0x9e>
   26c34:	2803      	cmp	r0, #3
   26c36:	d013      	beq.n	26c60 <_ZN20complex_dynamic_type3app17hcabca0b71f0d8029E+0x94>
   26c38:	4837      	ldr	r0, [pc, #220]	@ (26d18 <_ZN20complex_dynamic_type3app17hcabca0b71f0d8029E+0x14c>)
   26c3a:	2108      	movs	r1, #8
   26c3c:	2200      	movs	r2, #0
   26c3e:	4613      	mov	r3, r2
   26c40:	df04      	svc	4
   26c42:	e012      	b.n	26c6a <_ZN20complex_dynamic_type3app17hcabca0b71f0d8029E+0x9e>
   26c44:	a80f      	add	r0, sp, #60	@ 0x3c
   26c46:	2103      	movs	r1, #3
   26c48:	7001      	strb	r1, [r0, #0]
   26c4a:	4833      	ldr	r0, [pc, #204]	@ (26d18 <_ZN20complex_dynamic_type3app17hcabca0b71f0d8029E+0x14c>)
   26c4c:	2107      	movs	r1, #7
   26c4e:	2208      	movs	r2, #8
   26c50:	2600      	movs	r6, #0
   26c52:	4633      	mov	r3, r6
   26c54:	df02      	svc	2
   26c56:	2880      	cmp	r0, #128	@ 0x80
   26c58:	d21b      	bcs.n	26c92 <_ZN20complex_dynamic_type3app17hcabca0b71f0d8029E+0xc6>
   26c5a:	2001      	movs	r0, #1
   26c5c:	7028      	strb	r0, [r5, #0]
   26c5e:	6069      	str	r1, [r5, #4]
   26c60:	482d      	ldr	r0, [pc, #180]	@ (26d18 <_ZN20complex_dynamic_type3app17hcabca0b71f0d8029E+0x14c>)
   26c62:	2108      	movs	r1, #8
   26c64:	2200      	movs	r2, #0
   26c66:	4613      	mov	r3, r2
   26c68:	df03      	svc	3
   26c6a:	a804      	add	r0, sp, #16
   26c6c:	7800      	ldrb	r0, [r0, #0]
   26c6e:	2802      	cmp	r0, #2
   26c70:	d045      	beq.n	26cfe <_ZN20complex_dynamic_type3app17hcabca0b71f0d8029E+0x132>
   26c72:	2804      	cmp	r0, #4
   26c74:	d106      	bne.n	26c84 <_ZN20complex_dynamic_type3app17hcabca0b71f0d8029E+0xb8>
   26c76:	4828      	ldr	r0, [pc, #160]	@ (26d18 <_ZN20complex_dynamic_type3app17hcabca0b71f0d8029E+0x14c>)
   26c78:	2107      	movs	r1, #7
   26c7a:	2200      	movs	r2, #0
   26c7c:	4613      	mov	r3, r2
   26c7e:	df04      	svc	4
   26c80:	b017      	add	sp, #92	@ 0x5c
   26c82:	bdf0      	pop	{r4, r5, r6, r7, pc}
   26c84:	4824      	ldr	r0, [pc, #144]	@ (26d18 <_ZN20complex_dynamic_type3app17hcabca0b71f0d8029E+0x14c>)
   26c86:	2107      	movs	r1, #7
   26c88:	2200      	movs	r2, #0
   26c8a:	4613      	mov	r3, r2
   26c8c:	df03      	svc	3
   26c8e:	b017      	add	sp, #92	@ 0x5c
   26c90:	bdf0      	pop	{r4, r5, r6, r7, pc}
   26c92:	a804      	add	r0, sp, #16
   26c94:	7800      	ldrb	r0, [r0, #0]
   26c96:	2802      	cmp	r0, #2
   26c98:	d00c      	beq.n	26cb4 <_ZN20complex_dynamic_type3app17hcabca0b71f0d8029E+0xe8>
   26c9a:	2803      	cmp	r0, #3
   26c9c:	d105      	bne.n	26caa <_ZN20complex_dynamic_type3app17hcabca0b71f0d8029E+0xde>
   26c9e:	481e      	ldr	r0, [pc, #120]	@ (26d18 <_ZN20complex_dynamic_type3app17hcabca0b71f0d8029E+0x14c>)
   26ca0:	2107      	movs	r1, #7
   26ca2:	2200      	movs	r2, #0
   26ca4:	4613      	mov	r3, r2
   26ca6:	df03      	svc	3
   26ca8:	e004      	b.n	26cb4 <_ZN20complex_dynamic_type3app17hcabca0b71f0d8029E+0xe8>
   26caa:	481b      	ldr	r0, [pc, #108]	@ (26d18 <_ZN20complex_dynamic_type3app17hcabca0b71f0d8029E+0x14c>)
   26cac:	2107      	movs	r1, #7
   26cae:	2200      	movs	r2, #0
   26cb0:	4613      	mov	r3, r2
   26cb2:	df04      	svc	4
   26cb4:	a804      	add	r0, sp, #16
   26cb6:	9900      	ldr	r1, [sp, #0]
   26cb8:	7001      	strb	r1, [r0, #0]
   26cba:	a80f      	add	r0, sp, #60	@ 0x3c
   26cbc:	7800      	ldrb	r0, [r0, #0]
   26cbe:	2804      	cmp	r0, #4
   26cc0:	d007      	beq.n	26cd2 <_ZN20complex_dynamic_type3app17hcabca0b71f0d8029E+0x106>
   26cc2:	2803      	cmp	r0, #3
   26cc4:	d11d      	bne.n	26d02 <_ZN20complex_dynamic_type3app17hcabca0b71f0d8029E+0x136>
   26cc6:	4814      	ldr	r0, [pc, #80]	@ (26d18 <_ZN20complex_dynamic_type3app17hcabca0b71f0d8029E+0x14c>)
   26cc8:	2108      	movs	r1, #8
   26cca:	2200      	movs	r2, #0
   26ccc:	4613      	mov	r3, r2
   26cce:	df03      	svc	3
   26cd0:	e004      	b.n	26cdc <_ZN20complex_dynamic_type3app17hcabca0b71f0d8029E+0x110>
   26cd2:	4811      	ldr	r0, [pc, #68]	@ (26d18 <_ZN20complex_dynamic_type3app17hcabca0b71f0d8029E+0x14c>)
   26cd4:	2108      	movs	r1, #8
   26cd6:	2200      	movs	r2, #0
   26cd8:	4613      	mov	r3, r2
   26cda:	df04      	svc	4
   26cdc:	a804      	add	r0, sp, #16
   26cde:	7804      	ldrb	r4, [r0, #0]
   26ce0:	1c68      	adds	r0, r5, #1
   26ce2:	221e      	movs	r2, #30
   26ce4:	9901      	ldr	r1, [sp, #4]
   26ce6:	f004 fa11 	bl	2b10c <__aeabi_memcpy>
   26cea:	702e      	strb	r6, [r5, #0]
   26cec:	2c02      	cmp	r4, #2
   26cee:	d006      	beq.n	26cfe <_ZN20complex_dynamic_type3app17hcabca0b71f0d8029E+0x132>
   26cf0:	4809      	ldr	r0, [pc, #36]	@ (26d18 <_ZN20complex_dynamic_type3app17hcabca0b71f0d8029E+0x14c>)
   26cf2:	2107      	movs	r1, #7
   26cf4:	2200      	movs	r2, #0
   26cf6:	4613      	mov	r3, r2
   26cf8:	2c04      	cmp	r4, #4
   26cfa:	d10a      	bne.n	26d12 <_ZN20complex_dynamic_type3app17hcabca0b71f0d8029E+0x146>
   26cfc:	df04      	svc	4
   26cfe:	b017      	add	sp, #92	@ 0x5c
   26d00:	bdf0      	pop	{r4, r5, r6, r7, pc}
   26d02:	1c68      	adds	r0, r5, #1
   26d04:	221e      	movs	r2, #30
   26d06:	4621      	mov	r1, r4
   26d08:	f004 fa00 	bl	2b10c <__aeabi_memcpy>
   26d0c:	702e      	strb	r6, [r5, #0]
   26d0e:	b017      	add	sp, #92	@ 0x5c
   26d10:	bdf0      	pop	{r4, r5, r6, r7, pc}
   26d12:	df03      	svc	3
   26d14:	b017      	add	sp, #92	@ 0x5c
   26d16:	bdf0      	pop	{r4, r5, r6, r7, pc}
   26d18:	000007e3 	.word	0x000007e3

00026d1c <_ZN20complex_dynamic_type3app17hcc3f1ed83c2afc5bE>:
   26d1c:	b5f0      	push	{r4, r5, r6, r7, lr}
   26d1e:	af03      	add	r7, sp, #12
   26d20:	b0a5      	sub	sp, #148	@ 0x94
   26d22:	9003      	str	r0, [sp, #12]
   26d24:	a804      	add	r0, sp, #16
   26d26:	2602      	movs	r6, #2
   26d28:	7006      	strb	r6, [r0, #0]
   26d2a:	1c40      	adds	r0, r0, #1
   26d2c:	9002      	str	r0, [sp, #8]
   26d2e:	252d      	movs	r5, #45	@ 0x2d
   26d30:	462a      	mov	r2, r5
   26d32:	f004 f9eb 	bl	2b10c <__aeabi_memcpy>
   26d36:	ac10      	add	r4, sp, #64	@ 0x40
   26d38:	1c60      	adds	r0, r4, #1
   26d3a:	2153      	movs	r1, #83	@ 0x53
   26d3c:	9001      	str	r0, [sp, #4]
   26d3e:	f004 f825 	bl	2ad8c <__aeabi_memclr>
   26d42:	7026      	strb	r6, [r4, #0]
   26d44:	484a      	ldr	r0, [pc, #296]	@ (26e70 <_ZN20complex_dynamic_type3app17hcc3f1ed83c2afc5bE+0x154>)
   26d46:	4631      	mov	r1, r6
   26d48:	9a02      	ldr	r2, [sp, #8]
   26d4a:	462b      	mov	r3, r5
   26d4c:	df04      	svc	4
   26d4e:	2802      	cmp	r0, #2
   26d50:	d104      	bne.n	26d5c <_ZN20complex_dynamic_type3app17hcc3f1ed83c2afc5bE+0x40>
   26d52:	2001      	movs	r0, #1
   26d54:	9a03      	ldr	r2, [sp, #12]
   26d56:	7010      	strb	r0, [r2, #0]
   26d58:	6051      	str	r1, [r2, #4]
   26d5a:	e02e      	b.n	26dba <_ZN20complex_dynamic_type3app17hcc3f1ed83c2afc5bE+0x9e>
   26d5c:	9d03      	ldr	r5, [sp, #12]
   26d5e:	a804      	add	r0, sp, #16
   26d60:	2104      	movs	r1, #4
   26d62:	7001      	strb	r1, [r0, #0]
   26d64:	4842      	ldr	r0, [pc, #264]	@ (26e70 <_ZN20complex_dynamic_type3app17hcc3f1ed83c2afc5bE+0x154>)
   26d66:	2107      	movs	r1, #7
   26d68:	2353      	movs	r3, #83	@ 0x53
   26d6a:	9c01      	ldr	r4, [sp, #4]
   26d6c:	4622      	mov	r2, r4
   26d6e:	df03      	svc	3
   26d70:	2802      	cmp	r0, #2
   26d72:	d10e      	bne.n	26d92 <_ZN20complex_dynamic_type3app17hcc3f1ed83c2afc5bE+0x76>
   26d74:	2001      	movs	r0, #1
   26d76:	7028      	strb	r0, [r5, #0]
   26d78:	6069      	str	r1, [r5, #4]
   26d7a:	a810      	add	r0, sp, #64	@ 0x40
   26d7c:	7800      	ldrb	r0, [r0, #0]
   26d7e:	2802      	cmp	r0, #2
   26d80:	d01b      	beq.n	26dba <_ZN20complex_dynamic_type3app17hcc3f1ed83c2afc5bE+0x9e>
   26d82:	2803      	cmp	r0, #3
   26d84:	d014      	beq.n	26db0 <_ZN20complex_dynamic_type3app17hcc3f1ed83c2afc5bE+0x94>
   26d86:	483a      	ldr	r0, [pc, #232]	@ (26e70 <_ZN20complex_dynamic_type3app17hcc3f1ed83c2afc5bE+0x154>)
   26d88:	2107      	movs	r1, #7
   26d8a:	2200      	movs	r2, #0
   26d8c:	4613      	mov	r3, r2
   26d8e:	df04      	svc	4
   26d90:	e013      	b.n	26dba <_ZN20complex_dynamic_type3app17hcc3f1ed83c2afc5bE+0x9e>
   26d92:	a810      	add	r0, sp, #64	@ 0x40
   26d94:	2103      	movs	r1, #3
   26d96:	7001      	strb	r1, [r0, #0]
   26d98:	4835      	ldr	r0, [pc, #212]	@ (26e70 <_ZN20complex_dynamic_type3app17hcc3f1ed83c2afc5bE+0x154>)
   26d9a:	2602      	movs	r6, #2
   26d9c:	2207      	movs	r2, #7
   26d9e:	2300      	movs	r3, #0
   26da0:	4631      	mov	r1, r6
   26da2:	9302      	str	r3, [sp, #8]
   26da4:	df02      	svc	2
   26da6:	2880      	cmp	r0, #128	@ 0x80
   26da8:	d21b      	bcs.n	26de2 <_ZN20complex_dynamic_type3app17hcc3f1ed83c2afc5bE+0xc6>
   26daa:	2001      	movs	r0, #1
   26dac:	7028      	strb	r0, [r5, #0]
   26dae:	6069      	str	r1, [r5, #4]
   26db0:	482f      	ldr	r0, [pc, #188]	@ (26e70 <_ZN20complex_dynamic_type3app17hcc3f1ed83c2afc5bE+0x154>)
   26db2:	2107      	movs	r1, #7
   26db4:	2200      	movs	r2, #0
   26db6:	4613      	mov	r3, r2
   26db8:	df03      	svc	3
   26dba:	a804      	add	r0, sp, #16
   26dbc:	7800      	ldrb	r0, [r0, #0]
   26dbe:	2802      	cmp	r0, #2
   26dc0:	d047      	beq.n	26e52 <_ZN20complex_dynamic_type3app17hcc3f1ed83c2afc5bE+0x136>
   26dc2:	2804      	cmp	r0, #4
   26dc4:	d106      	bne.n	26dd4 <_ZN20complex_dynamic_type3app17hcc3f1ed83c2afc5bE+0xb8>
   26dc6:	482a      	ldr	r0, [pc, #168]	@ (26e70 <_ZN20complex_dynamic_type3app17hcc3f1ed83c2afc5bE+0x154>)
   26dc8:	2102      	movs	r1, #2
   26dca:	2200      	movs	r2, #0
   26dcc:	4613      	mov	r3, r2
   26dce:	df04      	svc	4
   26dd0:	b025      	add	sp, #148	@ 0x94
   26dd2:	bdf0      	pop	{r4, r5, r6, r7, pc}
   26dd4:	4826      	ldr	r0, [pc, #152]	@ (26e70 <_ZN20complex_dynamic_type3app17hcc3f1ed83c2afc5bE+0x154>)
   26dd6:	2102      	movs	r1, #2
   26dd8:	2200      	movs	r2, #0
   26dda:	4613      	mov	r3, r2
   26ddc:	df03      	svc	3
   26dde:	b025      	add	sp, #148	@ 0x94
   26de0:	bdf0      	pop	{r4, r5, r6, r7, pc}
   26de2:	a804      	add	r0, sp, #16
   26de4:	7800      	ldrb	r0, [r0, #0]
   26de6:	2802      	cmp	r0, #2
   26de8:	d00c      	beq.n	26e04 <_ZN20complex_dynamic_type3app17hcc3f1ed83c2afc5bE+0xe8>
   26dea:	2803      	cmp	r0, #3
   26dec:	d105      	bne.n	26dfa <_ZN20complex_dynamic_type3app17hcc3f1ed83c2afc5bE+0xde>
   26dee:	4820      	ldr	r0, [pc, #128]	@ (26e70 <_ZN20complex_dynamic_type3app17hcc3f1ed83c2afc5bE+0x154>)
   26df0:	2102      	movs	r1, #2
   26df2:	2200      	movs	r2, #0
   26df4:	4613      	mov	r3, r2
   26df6:	df03      	svc	3
   26df8:	e004      	b.n	26e04 <_ZN20complex_dynamic_type3app17hcc3f1ed83c2afc5bE+0xe8>
   26dfa:	481d      	ldr	r0, [pc, #116]	@ (26e70 <_ZN20complex_dynamic_type3app17hcc3f1ed83c2afc5bE+0x154>)
   26dfc:	2102      	movs	r1, #2
   26dfe:	2200      	movs	r2, #0
   26e00:	4613      	mov	r3, r2
   26e02:	df04      	svc	4
   26e04:	a804      	add	r0, sp, #16
   26e06:	7006      	strb	r6, [r0, #0]
   26e08:	a810      	add	r0, sp, #64	@ 0x40
   26e0a:	7800      	ldrb	r0, [r0, #0]
   26e0c:	2804      	cmp	r0, #4
   26e0e:	d008      	beq.n	26e22 <_ZN20complex_dynamic_type3app17hcc3f1ed83c2afc5bE+0x106>
   26e10:	2803      	cmp	r0, #3
   26e12:	d120      	bne.n	26e56 <_ZN20complex_dynamic_type3app17hcc3f1ed83c2afc5bE+0x13a>
   26e14:	4626      	mov	r6, r4
   26e16:	4816      	ldr	r0, [pc, #88]	@ (26e70 <_ZN20complex_dynamic_type3app17hcc3f1ed83c2afc5bE+0x154>)
   26e18:	2107      	movs	r1, #7
   26e1a:	2200      	movs	r2, #0
   26e1c:	4613      	mov	r3, r2
   26e1e:	df03      	svc	3
   26e20:	e005      	b.n	26e2e <_ZN20complex_dynamic_type3app17hcc3f1ed83c2afc5bE+0x112>
   26e22:	4626      	mov	r6, r4
   26e24:	4812      	ldr	r0, [pc, #72]	@ (26e70 <_ZN20complex_dynamic_type3app17hcc3f1ed83c2afc5bE+0x154>)
   26e26:	2107      	movs	r1, #7
   26e28:	2200      	movs	r2, #0
   26e2a:	4613      	mov	r3, r2
   26e2c:	df04      	svc	4
   26e2e:	a804      	add	r0, sp, #16
   26e30:	7804      	ldrb	r4, [r0, #0]
   26e32:	1c68      	adds	r0, r5, #1
   26e34:	2253      	movs	r2, #83	@ 0x53
   26e36:	4631      	mov	r1, r6
   26e38:	f004 f968 	bl	2b10c <__aeabi_memcpy>
   26e3c:	9802      	ldr	r0, [sp, #8]
   26e3e:	7028      	strb	r0, [r5, #0]
   26e40:	2c02      	cmp	r4, #2
   26e42:	d006      	beq.n	26e52 <_ZN20complex_dynamic_type3app17hcc3f1ed83c2afc5bE+0x136>
   26e44:	480a      	ldr	r0, [pc, #40]	@ (26e70 <_ZN20complex_dynamic_type3app17hcc3f1ed83c2afc5bE+0x154>)
   26e46:	2102      	movs	r1, #2
   26e48:	2200      	movs	r2, #0
   26e4a:	4613      	mov	r3, r2
   26e4c:	2c04      	cmp	r4, #4
   26e4e:	d10b      	bne.n	26e68 <_ZN20complex_dynamic_type3app17hcc3f1ed83c2afc5bE+0x14c>
   26e50:	df04      	svc	4
   26e52:	b025      	add	sp, #148	@ 0x94
   26e54:	bdf0      	pop	{r4, r5, r6, r7, pc}
   26e56:	1c68      	adds	r0, r5, #1
   26e58:	2253      	movs	r2, #83	@ 0x53
   26e5a:	4621      	mov	r1, r4
   26e5c:	f004 f956 	bl	2b10c <__aeabi_memcpy>
   26e60:	9802      	ldr	r0, [sp, #8]
   26e62:	7028      	strb	r0, [r5, #0]
   26e64:	b025      	add	sp, #148	@ 0x94
   26e66:	bdf0      	pop	{r4, r5, r6, r7, pc}
   26e68:	df03      	svc	3
   26e6a:	b025      	add	sp, #148	@ 0x94
   26e6c:	bdf0      	pop	{r4, r5, r6, r7, pc}
   26e6e:	46c0      	nop			@ (mov r8, r8)
   26e70:	00000ec3 	.word	0x00000ec3

00026e74 <_ZN20complex_dynamic_type3app17hcd8b9a12121a6c65E>:
   26e74:	b5f0      	push	{r4, r5, r6, r7, lr}
   26e76:	af03      	add	r7, sp, #12
   26e78:	b09b      	sub	sp, #108	@ 0x6c
   26e7a:	9003      	str	r0, [sp, #12]
   26e7c:	a804      	add	r0, sp, #16
   26e7e:	2402      	movs	r4, #2
   26e80:	7004      	strb	r4, [r0, #0]
   26e82:	1c40      	adds	r0, r0, #1
   26e84:	9002      	str	r0, [sp, #8]
   26e86:	252c      	movs	r5, #44	@ 0x2c
   26e88:	462a      	mov	r2, r5
   26e8a:	f004 f93f 	bl	2b10c <__aeabi_memcpy>
   26e8e:	ae10      	add	r6, sp, #64	@ 0x40
   26e90:	1c70      	adds	r0, r6, #1
   26e92:	212a      	movs	r1, #42	@ 0x2a
   26e94:	9001      	str	r0, [sp, #4]
   26e96:	f003 ff79 	bl	2ad8c <__aeabi_memclr>
   26e9a:	9400      	str	r4, [sp, #0]
   26e9c:	7034      	strb	r4, [r6, #0]
   26e9e:	484a      	ldr	r0, [pc, #296]	@ (26fc8 <_ZN20complex_dynamic_type3app17hcd8b9a12121a6c65E+0x154>)
   26ea0:	2603      	movs	r6, #3
   26ea2:	4631      	mov	r1, r6
   26ea4:	9a02      	ldr	r2, [sp, #8]
   26ea6:	462b      	mov	r3, r5
   26ea8:	df04      	svc	4
   26eaa:	2802      	cmp	r0, #2
   26eac:	d104      	bne.n	26eb8 <_ZN20complex_dynamic_type3app17hcd8b9a12121a6c65E+0x44>
   26eae:	2001      	movs	r0, #1
   26eb0:	9a03      	ldr	r2, [sp, #12]
   26eb2:	7010      	strb	r0, [r2, #0]
   26eb4:	6051      	str	r1, [r2, #4]
   26eb6:	e02c      	b.n	26f12 <_ZN20complex_dynamic_type3app17hcd8b9a12121a6c65E+0x9e>
   26eb8:	9d03      	ldr	r5, [sp, #12]
   26eba:	a804      	add	r0, sp, #16
   26ebc:	2104      	movs	r1, #4
   26ebe:	7001      	strb	r1, [r0, #0]
   26ec0:	4841      	ldr	r0, [pc, #260]	@ (26fc8 <_ZN20complex_dynamic_type3app17hcd8b9a12121a6c65E+0x154>)
   26ec2:	2100      	movs	r1, #0
   26ec4:	232a      	movs	r3, #42	@ 0x2a
   26ec6:	9c01      	ldr	r4, [sp, #4]
   26ec8:	4622      	mov	r2, r4
   26eca:	df03      	svc	3
   26ecc:	2802      	cmp	r0, #2
   26ece:	d10e      	bne.n	26eee <_ZN20complex_dynamic_type3app17hcd8b9a12121a6c65E+0x7a>
   26ed0:	2001      	movs	r0, #1
   26ed2:	7028      	strb	r0, [r5, #0]
   26ed4:	6069      	str	r1, [r5, #4]
   26ed6:	a810      	add	r0, sp, #64	@ 0x40
   26ed8:	7800      	ldrb	r0, [r0, #0]
   26eda:	2802      	cmp	r0, #2
   26edc:	d019      	beq.n	26f12 <_ZN20complex_dynamic_type3app17hcd8b9a12121a6c65E+0x9e>
   26ede:	2803      	cmp	r0, #3
   26ee0:	d012      	beq.n	26f08 <_ZN20complex_dynamic_type3app17hcd8b9a12121a6c65E+0x94>
   26ee2:	4839      	ldr	r0, [pc, #228]	@ (26fc8 <_ZN20complex_dynamic_type3app17hcd8b9a12121a6c65E+0x154>)
   26ee4:	2100      	movs	r1, #0
   26ee6:	460a      	mov	r2, r1
   26ee8:	460b      	mov	r3, r1
   26eea:	df04      	svc	4
   26eec:	e011      	b.n	26f12 <_ZN20complex_dynamic_type3app17hcd8b9a12121a6c65E+0x9e>
   26eee:	a810      	add	r0, sp, #64	@ 0x40
   26ef0:	7006      	strb	r6, [r0, #0]
   26ef2:	4835      	ldr	r0, [pc, #212]	@ (26fc8 <_ZN20complex_dynamic_type3app17hcd8b9a12121a6c65E+0x154>)
   26ef4:	2200      	movs	r2, #0
   26ef6:	4631      	mov	r1, r6
   26ef8:	9202      	str	r2, [sp, #8]
   26efa:	4613      	mov	r3, r2
   26efc:	df02      	svc	2
   26efe:	2880      	cmp	r0, #128	@ 0x80
   26f00:	d21b      	bcs.n	26f3a <_ZN20complex_dynamic_type3app17hcd8b9a12121a6c65E+0xc6>
   26f02:	2001      	movs	r0, #1
   26f04:	7028      	strb	r0, [r5, #0]
   26f06:	6069      	str	r1, [r5, #4]
   26f08:	482f      	ldr	r0, [pc, #188]	@ (26fc8 <_ZN20complex_dynamic_type3app17hcd8b9a12121a6c65E+0x154>)
   26f0a:	2100      	movs	r1, #0
   26f0c:	460a      	mov	r2, r1
   26f0e:	460b      	mov	r3, r1
   26f10:	df03      	svc	3
   26f12:	a804      	add	r0, sp, #16
   26f14:	7800      	ldrb	r0, [r0, #0]
   26f16:	2802      	cmp	r0, #2
   26f18:	d048      	beq.n	26fac <_ZN20complex_dynamic_type3app17hcd8b9a12121a6c65E+0x138>
   26f1a:	2804      	cmp	r0, #4
   26f1c:	d106      	bne.n	26f2c <_ZN20complex_dynamic_type3app17hcd8b9a12121a6c65E+0xb8>
   26f1e:	482a      	ldr	r0, [pc, #168]	@ (26fc8 <_ZN20complex_dynamic_type3app17hcd8b9a12121a6c65E+0x154>)
   26f20:	2103      	movs	r1, #3
   26f22:	2200      	movs	r2, #0
   26f24:	4613      	mov	r3, r2
   26f26:	df04      	svc	4
   26f28:	b01b      	add	sp, #108	@ 0x6c
   26f2a:	bdf0      	pop	{r4, r5, r6, r7, pc}
   26f2c:	4826      	ldr	r0, [pc, #152]	@ (26fc8 <_ZN20complex_dynamic_type3app17hcd8b9a12121a6c65E+0x154>)
   26f2e:	2103      	movs	r1, #3
   26f30:	2200      	movs	r2, #0
   26f32:	4613      	mov	r3, r2
   26f34:	df03      	svc	3
   26f36:	b01b      	add	sp, #108	@ 0x6c
   26f38:	bdf0      	pop	{r4, r5, r6, r7, pc}
   26f3a:	a804      	add	r0, sp, #16
   26f3c:	7800      	ldrb	r0, [r0, #0]
   26f3e:	2802      	cmp	r0, #2
   26f40:	d00c      	beq.n	26f5c <_ZN20complex_dynamic_type3app17hcd8b9a12121a6c65E+0xe8>
   26f42:	2803      	cmp	r0, #3
   26f44:	d105      	bne.n	26f52 <_ZN20complex_dynamic_type3app17hcd8b9a12121a6c65E+0xde>
   26f46:	4820      	ldr	r0, [pc, #128]	@ (26fc8 <_ZN20complex_dynamic_type3app17hcd8b9a12121a6c65E+0x154>)
   26f48:	2103      	movs	r1, #3
   26f4a:	2200      	movs	r2, #0
   26f4c:	4613      	mov	r3, r2
   26f4e:	df03      	svc	3
   26f50:	e004      	b.n	26f5c <_ZN20complex_dynamic_type3app17hcd8b9a12121a6c65E+0xe8>
   26f52:	481d      	ldr	r0, [pc, #116]	@ (26fc8 <_ZN20complex_dynamic_type3app17hcd8b9a12121a6c65E+0x154>)
   26f54:	2103      	movs	r1, #3
   26f56:	2200      	movs	r2, #0
   26f58:	4613      	mov	r3, r2
   26f5a:	df04      	svc	4
   26f5c:	a804      	add	r0, sp, #16
   26f5e:	9900      	ldr	r1, [sp, #0]
   26f60:	7001      	strb	r1, [r0, #0]
   26f62:	a810      	add	r0, sp, #64	@ 0x40
   26f64:	7800      	ldrb	r0, [r0, #0]
   26f66:	2804      	cmp	r0, #4
   26f68:	d008      	beq.n	26f7c <_ZN20complex_dynamic_type3app17hcd8b9a12121a6c65E+0x108>
   26f6a:	2803      	cmp	r0, #3
   26f6c:	d120      	bne.n	26fb0 <_ZN20complex_dynamic_type3app17hcd8b9a12121a6c65E+0x13c>
   26f6e:	4626      	mov	r6, r4
   26f70:	4815      	ldr	r0, [pc, #84]	@ (26fc8 <_ZN20complex_dynamic_type3app17hcd8b9a12121a6c65E+0x154>)
   26f72:	2100      	movs	r1, #0
   26f74:	460a      	mov	r2, r1
   26f76:	460b      	mov	r3, r1
   26f78:	df03      	svc	3
   26f7a:	e005      	b.n	26f88 <_ZN20complex_dynamic_type3app17hcd8b9a12121a6c65E+0x114>
   26f7c:	4626      	mov	r6, r4
   26f7e:	4812      	ldr	r0, [pc, #72]	@ (26fc8 <_ZN20complex_dynamic_type3app17hcd8b9a12121a6c65E+0x154>)
   26f80:	2100      	movs	r1, #0
   26f82:	460a      	mov	r2, r1
   26f84:	460b      	mov	r3, r1
   26f86:	df04      	svc	4
   26f88:	a804      	add	r0, sp, #16
   26f8a:	7804      	ldrb	r4, [r0, #0]
   26f8c:	1c68      	adds	r0, r5, #1
   26f8e:	222a      	movs	r2, #42	@ 0x2a
   26f90:	4631      	mov	r1, r6
   26f92:	f004 f8bb 	bl	2b10c <__aeabi_memcpy>
   26f96:	9802      	ldr	r0, [sp, #8]
   26f98:	7028      	strb	r0, [r5, #0]
   26f9a:	2c02      	cmp	r4, #2
   26f9c:	d006      	beq.n	26fac <_ZN20complex_dynamic_type3app17hcd8b9a12121a6c65E+0x138>
   26f9e:	480a      	ldr	r0, [pc, #40]	@ (26fc8 <_ZN20complex_dynamic_type3app17hcd8b9a12121a6c65E+0x154>)
   26fa0:	2103      	movs	r1, #3
   26fa2:	2200      	movs	r2, #0
   26fa4:	4613      	mov	r3, r2
   26fa6:	2c04      	cmp	r4, #4
   26fa8:	d10b      	bne.n	26fc2 <_ZN20complex_dynamic_type3app17hcd8b9a12121a6c65E+0x14e>
   26faa:	df04      	svc	4
   26fac:	b01b      	add	sp, #108	@ 0x6c
   26fae:	bdf0      	pop	{r4, r5, r6, r7, pc}
   26fb0:	1c68      	adds	r0, r5, #1
   26fb2:	222a      	movs	r2, #42	@ 0x2a
   26fb4:	4621      	mov	r1, r4
   26fb6:	f004 f8a9 	bl	2b10c <__aeabi_memcpy>
   26fba:	9802      	ldr	r0, [sp, #8]
   26fbc:	7028      	strb	r0, [r5, #0]
   26fbe:	b01b      	add	sp, #108	@ 0x6c
   26fc0:	bdf0      	pop	{r4, r5, r6, r7, pc}
   26fc2:	df03      	svc	3
   26fc4:	b01b      	add	sp, #108	@ 0x6c
   26fc6:	bdf0      	pop	{r4, r5, r6, r7, pc}
   26fc8:	000024f0 	.word	0x000024f0

00026fcc <_ZN20complex_dynamic_type3app17hd3e7fbb35d99da4aE>:
   26fcc:	b5f0      	push	{r4, r5, r6, r7, lr}
   26fce:	af03      	add	r7, sp, #12
   26fd0:	b0a1      	sub	sp, #132	@ 0x84
   26fd2:	9003      	str	r0, [sp, #12]
   26fd4:	a804      	add	r0, sp, #16
   26fd6:	2602      	movs	r6, #2
   26fd8:	7006      	strb	r6, [r0, #0]
   26fda:	1c40      	adds	r0, r0, #1
   26fdc:	9002      	str	r0, [sp, #8]
   26fde:	251e      	movs	r5, #30
   26fe0:	462a      	mov	r2, r5
   26fe2:	f004 f893 	bl	2b10c <__aeabi_memcpy>
   26fe6:	ac0c      	add	r4, sp, #48	@ 0x30
   26fe8:	1c60      	adds	r0, r4, #1
   26fea:	2151      	movs	r1, #81	@ 0x51
   26fec:	9001      	str	r0, [sp, #4]
   26fee:	f003 fecd 	bl	2ad8c <__aeabi_memclr>
   26ff2:	7026      	strb	r6, [r4, #0]
   26ff4:	484a      	ldr	r0, [pc, #296]	@ (27120 <_ZN20complex_dynamic_type3app17hd3e7fbb35d99da4aE+0x154>)
   26ff6:	4631      	mov	r1, r6
   26ff8:	9a02      	ldr	r2, [sp, #8]
   26ffa:	462b      	mov	r3, r5
   26ffc:	df04      	svc	4
   26ffe:	2802      	cmp	r0, #2
   27000:	d104      	bne.n	2700c <_ZN20complex_dynamic_type3app17hd3e7fbb35d99da4aE+0x40>
   27002:	2001      	movs	r0, #1
   27004:	9a03      	ldr	r2, [sp, #12]
   27006:	7010      	strb	r0, [r2, #0]
   27008:	6051      	str	r1, [r2, #4]
   2700a:	e02e      	b.n	2706a <_ZN20complex_dynamic_type3app17hd3e7fbb35d99da4aE+0x9e>
   2700c:	9d03      	ldr	r5, [sp, #12]
   2700e:	a804      	add	r0, sp, #16
   27010:	2104      	movs	r1, #4
   27012:	7001      	strb	r1, [r0, #0]
   27014:	4842      	ldr	r0, [pc, #264]	@ (27120 <_ZN20complex_dynamic_type3app17hd3e7fbb35d99da4aE+0x154>)
   27016:	2100      	movs	r1, #0
   27018:	2351      	movs	r3, #81	@ 0x51
   2701a:	9c01      	ldr	r4, [sp, #4]
   2701c:	4622      	mov	r2, r4
   2701e:	df03      	svc	3
   27020:	2802      	cmp	r0, #2
   27022:	d10e      	bne.n	27042 <_ZN20complex_dynamic_type3app17hd3e7fbb35d99da4aE+0x76>
   27024:	2001      	movs	r0, #1
   27026:	7028      	strb	r0, [r5, #0]
   27028:	6069      	str	r1, [r5, #4]
   2702a:	a80c      	add	r0, sp, #48	@ 0x30
   2702c:	7800      	ldrb	r0, [r0, #0]
   2702e:	2802      	cmp	r0, #2
   27030:	d01b      	beq.n	2706a <_ZN20complex_dynamic_type3app17hd3e7fbb35d99da4aE+0x9e>
   27032:	2803      	cmp	r0, #3
   27034:	d014      	beq.n	27060 <_ZN20complex_dynamic_type3app17hd3e7fbb35d99da4aE+0x94>
   27036:	483a      	ldr	r0, [pc, #232]	@ (27120 <_ZN20complex_dynamic_type3app17hd3e7fbb35d99da4aE+0x154>)
   27038:	2100      	movs	r1, #0
   2703a:	460a      	mov	r2, r1
   2703c:	460b      	mov	r3, r1
   2703e:	df04      	svc	4
   27040:	e013      	b.n	2706a <_ZN20complex_dynamic_type3app17hd3e7fbb35d99da4aE+0x9e>
   27042:	a80c      	add	r0, sp, #48	@ 0x30
   27044:	2103      	movs	r1, #3
   27046:	7001      	strb	r1, [r0, #0]
   27048:	4835      	ldr	r0, [pc, #212]	@ (27120 <_ZN20complex_dynamic_type3app17hd3e7fbb35d99da4aE+0x154>)
   2704a:	2602      	movs	r6, #2
   2704c:	2200      	movs	r2, #0
   2704e:	4631      	mov	r1, r6
   27050:	9202      	str	r2, [sp, #8]
   27052:	4613      	mov	r3, r2
   27054:	df02      	svc	2
   27056:	2880      	cmp	r0, #128	@ 0x80
   27058:	d21b      	bcs.n	27092 <_ZN20complex_dynamic_type3app17hd3e7fbb35d99da4aE+0xc6>
   2705a:	2001      	movs	r0, #1
   2705c:	7028      	strb	r0, [r5, #0]
   2705e:	6069      	str	r1, [r5, #4]
   27060:	482f      	ldr	r0, [pc, #188]	@ (27120 <_ZN20complex_dynamic_type3app17hd3e7fbb35d99da4aE+0x154>)
   27062:	2100      	movs	r1, #0
   27064:	460a      	mov	r2, r1
   27066:	460b      	mov	r3, r1
   27068:	df03      	svc	3
   2706a:	a804      	add	r0, sp, #16
   2706c:	7800      	ldrb	r0, [r0, #0]
   2706e:	2802      	cmp	r0, #2
   27070:	d047      	beq.n	27102 <_ZN20complex_dynamic_type3app17hd3e7fbb35d99da4aE+0x136>
   27072:	2804      	cmp	r0, #4
   27074:	d106      	bne.n	27084 <_ZN20complex_dynamic_type3app17hd3e7fbb35d99da4aE+0xb8>
   27076:	482a      	ldr	r0, [pc, #168]	@ (27120 <_ZN20complex_dynamic_type3app17hd3e7fbb35d99da4aE+0x154>)
   27078:	2102      	movs	r1, #2
   2707a:	2200      	movs	r2, #0
   2707c:	4613      	mov	r3, r2
   2707e:	df04      	svc	4
   27080:	b021      	add	sp, #132	@ 0x84
   27082:	bdf0      	pop	{r4, r5, r6, r7, pc}
   27084:	4826      	ldr	r0, [pc, #152]	@ (27120 <_ZN20complex_dynamic_type3app17hd3e7fbb35d99da4aE+0x154>)
   27086:	2102      	movs	r1, #2
   27088:	2200      	movs	r2, #0
   2708a:	4613      	mov	r3, r2
   2708c:	df03      	svc	3
   2708e:	b021      	add	sp, #132	@ 0x84
   27090:	bdf0      	pop	{r4, r5, r6, r7, pc}
   27092:	a804      	add	r0, sp, #16
   27094:	7800      	ldrb	r0, [r0, #0]
   27096:	2802      	cmp	r0, #2
   27098:	d00c      	beq.n	270b4 <_ZN20complex_dynamic_type3app17hd3e7fbb35d99da4aE+0xe8>
   2709a:	2803      	cmp	r0, #3
   2709c:	d105      	bne.n	270aa <_ZN20complex_dynamic_type3app17hd3e7fbb35d99da4aE+0xde>
   2709e:	4820      	ldr	r0, [pc, #128]	@ (27120 <_ZN20complex_dynamic_type3app17hd3e7fbb35d99da4aE+0x154>)
   270a0:	2102      	movs	r1, #2
   270a2:	2200      	movs	r2, #0
   270a4:	4613      	mov	r3, r2
   270a6:	df03      	svc	3
   270a8:	e004      	b.n	270b4 <_ZN20complex_dynamic_type3app17hd3e7fbb35d99da4aE+0xe8>
   270aa:	481d      	ldr	r0, [pc, #116]	@ (27120 <_ZN20complex_dynamic_type3app17hd3e7fbb35d99da4aE+0x154>)
   270ac:	2102      	movs	r1, #2
   270ae:	2200      	movs	r2, #0
   270b0:	4613      	mov	r3, r2
   270b2:	df04      	svc	4
   270b4:	a804      	add	r0, sp, #16
   270b6:	7006      	strb	r6, [r0, #0]
   270b8:	a80c      	add	r0, sp, #48	@ 0x30
   270ba:	7800      	ldrb	r0, [r0, #0]
   270bc:	2804      	cmp	r0, #4
   270be:	d008      	beq.n	270d2 <_ZN20complex_dynamic_type3app17hd3e7fbb35d99da4aE+0x106>
   270c0:	2803      	cmp	r0, #3
   270c2:	d120      	bne.n	27106 <_ZN20complex_dynamic_type3app17hd3e7fbb35d99da4aE+0x13a>
   270c4:	4626      	mov	r6, r4
   270c6:	4816      	ldr	r0, [pc, #88]	@ (27120 <_ZN20complex_dynamic_type3app17hd3e7fbb35d99da4aE+0x154>)
   270c8:	2100      	movs	r1, #0
   270ca:	460a      	mov	r2, r1
   270cc:	460b      	mov	r3, r1
   270ce:	df03      	svc	3
   270d0:	e005      	b.n	270de <_ZN20complex_dynamic_type3app17hd3e7fbb35d99da4aE+0x112>
   270d2:	4626      	mov	r6, r4
   270d4:	4812      	ldr	r0, [pc, #72]	@ (27120 <_ZN20complex_dynamic_type3app17hd3e7fbb35d99da4aE+0x154>)
   270d6:	2100      	movs	r1, #0
   270d8:	460a      	mov	r2, r1
   270da:	460b      	mov	r3, r1
   270dc:	df04      	svc	4
   270de:	a804      	add	r0, sp, #16
   270e0:	7804      	ldrb	r4, [r0, #0]
   270e2:	1c68      	adds	r0, r5, #1
   270e4:	2251      	movs	r2, #81	@ 0x51
   270e6:	4631      	mov	r1, r6
   270e8:	f004 f810 	bl	2b10c <__aeabi_memcpy>
   270ec:	9802      	ldr	r0, [sp, #8]
   270ee:	7028      	strb	r0, [r5, #0]
   270f0:	2c02      	cmp	r4, #2
   270f2:	d006      	beq.n	27102 <_ZN20complex_dynamic_type3app17hd3e7fbb35d99da4aE+0x136>
   270f4:	480a      	ldr	r0, [pc, #40]	@ (27120 <_ZN20complex_dynamic_type3app17hd3e7fbb35d99da4aE+0x154>)
   270f6:	2102      	movs	r1, #2
   270f8:	2200      	movs	r2, #0
   270fa:	4613      	mov	r3, r2
   270fc:	2c04      	cmp	r4, #4
   270fe:	d10b      	bne.n	27118 <_ZN20complex_dynamic_type3app17hd3e7fbb35d99da4aE+0x14c>
   27100:	df04      	svc	4
   27102:	b021      	add	sp, #132	@ 0x84
   27104:	bdf0      	pop	{r4, r5, r6, r7, pc}
   27106:	1c68      	adds	r0, r5, #1
   27108:	2251      	movs	r2, #81	@ 0x51
   2710a:	4621      	mov	r1, r4
   2710c:	f003 fffe 	bl	2b10c <__aeabi_memcpy>
   27110:	9802      	ldr	r0, [sp, #8]
   27112:	7028      	strb	r0, [r5, #0]
   27114:	b021      	add	sp, #132	@ 0x84
   27116:	bdf0      	pop	{r4, r5, r6, r7, pc}
   27118:	df03      	svc	3
   2711a:	b021      	add	sp, #132	@ 0x84
   2711c:	bdf0      	pop	{r4, r5, r6, r7, pc}
   2711e:	46c0      	nop			@ (mov r8, r8)
   27120:	0000196b 	.word	0x0000196b

00027124 <_ZN20complex_dynamic_type3app17he6f93a721ec87003E>:
   27124:	b5f0      	push	{r4, r5, r6, r7, lr}
   27126:	af03      	add	r7, sp, #12
   27128:	b09d      	sub	sp, #116	@ 0x74
   2712a:	9004      	str	r0, [sp, #16]
   2712c:	a805      	add	r0, sp, #20
   2712e:	2402      	movs	r4, #2
   27130:	7004      	strb	r4, [r0, #0]
   27132:	1c40      	adds	r0, r0, #1
   27134:	9003      	str	r0, [sp, #12]
   27136:	2541      	movs	r5, #65	@ 0x41
   27138:	462a      	mov	r2, r5
   2713a:	f003 ffe7 	bl	2b10c <__aeabi_memcpy>
   2713e:	ae16      	add	r6, sp, #88	@ 0x58
   27140:	1c70      	adds	r0, r6, #1
   27142:	2118      	movs	r1, #24
   27144:	9002      	str	r0, [sp, #8]
   27146:	f003 fe21 	bl	2ad8c <__aeabi_memclr>
   2714a:	9401      	str	r4, [sp, #4]
   2714c:	7034      	strb	r4, [r6, #0]
   2714e:	4847      	ldr	r0, [pc, #284]	@ (2726c <_ZN20complex_dynamic_type3app17he6f93a721ec87003E+0x148>)
   27150:	2601      	movs	r6, #1
   27152:	4631      	mov	r1, r6
   27154:	9a03      	ldr	r2, [sp, #12]
   27156:	462b      	mov	r3, r5
   27158:	df04      	svc	4
   2715a:	2802      	cmp	r0, #2
   2715c:	d103      	bne.n	27166 <_ZN20complex_dynamic_type3app17he6f93a721ec87003E+0x42>
   2715e:	9804      	ldr	r0, [sp, #16]
   27160:	7006      	strb	r6, [r0, #0]
   27162:	6041      	str	r1, [r0, #4]
   27164:	e02b      	b.n	271be <_ZN20complex_dynamic_type3app17he6f93a721ec87003E+0x9a>
   27166:	9d04      	ldr	r5, [sp, #16]
   27168:	a805      	add	r0, sp, #20
   2716a:	2104      	movs	r1, #4
   2716c:	7001      	strb	r1, [r0, #0]
   2716e:	483f      	ldr	r0, [pc, #252]	@ (2726c <_ZN20complex_dynamic_type3app17he6f93a721ec87003E+0x148>)
   27170:	2109      	movs	r1, #9
   27172:	2318      	movs	r3, #24
   27174:	9a02      	ldr	r2, [sp, #8]
   27176:	df03      	svc	3
   27178:	2802      	cmp	r0, #2
   2717a:	d10d      	bne.n	27198 <_ZN20complex_dynamic_type3app17he6f93a721ec87003E+0x74>
   2717c:	702e      	strb	r6, [r5, #0]
   2717e:	6069      	str	r1, [r5, #4]
   27180:	a816      	add	r0, sp, #88	@ 0x58
   27182:	7800      	ldrb	r0, [r0, #0]
   27184:	2802      	cmp	r0, #2
   27186:	d01a      	beq.n	271be <_ZN20complex_dynamic_type3app17he6f93a721ec87003E+0x9a>
   27188:	2803      	cmp	r0, #3
   2718a:	d013      	beq.n	271b4 <_ZN20complex_dynamic_type3app17he6f93a721ec87003E+0x90>
   2718c:	4837      	ldr	r0, [pc, #220]	@ (2726c <_ZN20complex_dynamic_type3app17he6f93a721ec87003E+0x148>)
   2718e:	2109      	movs	r1, #9
   27190:	2200      	movs	r2, #0
   27192:	4613      	mov	r3, r2
   27194:	df04      	svc	4
   27196:	e012      	b.n	271be <_ZN20complex_dynamic_type3app17he6f93a721ec87003E+0x9a>
   27198:	a816      	add	r0, sp, #88	@ 0x58
   2719a:	2103      	movs	r1, #3
   2719c:	7001      	strb	r1, [r0, #0]
   2719e:	4833      	ldr	r0, [pc, #204]	@ (2726c <_ZN20complex_dynamic_type3app17he6f93a721ec87003E+0x148>)
   271a0:	2401      	movs	r4, #1
   271a2:	2209      	movs	r2, #9
   271a4:	2600      	movs	r6, #0
   271a6:	4621      	mov	r1, r4
   271a8:	4633      	mov	r3, r6
   271aa:	df02      	svc	2
   271ac:	2880      	cmp	r0, #128	@ 0x80
   271ae:	d21a      	bcs.n	271e6 <_ZN20complex_dynamic_type3app17he6f93a721ec87003E+0xc2>
   271b0:	702c      	strb	r4, [r5, #0]
   271b2:	6069      	str	r1, [r5, #4]
   271b4:	482d      	ldr	r0, [pc, #180]	@ (2726c <_ZN20complex_dynamic_type3app17he6f93a721ec87003E+0x148>)
   271b6:	2109      	movs	r1, #9
   271b8:	2200      	movs	r2, #0
   271ba:	4613      	mov	r3, r2
   271bc:	df03      	svc	3
   271be:	a805      	add	r0, sp, #20
   271c0:	7800      	ldrb	r0, [r0, #0]
   271c2:	2802      	cmp	r0, #2
   271c4:	d045      	beq.n	27252 <_ZN20complex_dynamic_type3app17he6f93a721ec87003E+0x12e>
   271c6:	2804      	cmp	r0, #4
   271c8:	d106      	bne.n	271d8 <_ZN20complex_dynamic_type3app17he6f93a721ec87003E+0xb4>
   271ca:	4828      	ldr	r0, [pc, #160]	@ (2726c <_ZN20complex_dynamic_type3app17he6f93a721ec87003E+0x148>)
   271cc:	2101      	movs	r1, #1
   271ce:	2200      	movs	r2, #0
   271d0:	4613      	mov	r3, r2
   271d2:	df04      	svc	4
   271d4:	b01d      	add	sp, #116	@ 0x74
   271d6:	bdf0      	pop	{r4, r5, r6, r7, pc}
   271d8:	4824      	ldr	r0, [pc, #144]	@ (2726c <_ZN20complex_dynamic_type3app17he6f93a721ec87003E+0x148>)
   271da:	2101      	movs	r1, #1
   271dc:	2200      	movs	r2, #0
   271de:	4613      	mov	r3, r2
   271e0:	df03      	svc	3
   271e2:	b01d      	add	sp, #116	@ 0x74
   271e4:	bdf0      	pop	{r4, r5, r6, r7, pc}
   271e6:	a805      	add	r0, sp, #20
   271e8:	7800      	ldrb	r0, [r0, #0]
   271ea:	2802      	cmp	r0, #2
   271ec:	d00c      	beq.n	27208 <_ZN20complex_dynamic_type3app17he6f93a721ec87003E+0xe4>
   271ee:	2803      	cmp	r0, #3
   271f0:	d105      	bne.n	271fe <_ZN20complex_dynamic_type3app17he6f93a721ec87003E+0xda>
   271f2:	481e      	ldr	r0, [pc, #120]	@ (2726c <_ZN20complex_dynamic_type3app17he6f93a721ec87003E+0x148>)
   271f4:	2101      	movs	r1, #1
   271f6:	2200      	movs	r2, #0
   271f8:	4613      	mov	r3, r2
   271fa:	df03      	svc	3
   271fc:	e004      	b.n	27208 <_ZN20complex_dynamic_type3app17he6f93a721ec87003E+0xe4>
   271fe:	481b      	ldr	r0, [pc, #108]	@ (2726c <_ZN20complex_dynamic_type3app17he6f93a721ec87003E+0x148>)
   27200:	2101      	movs	r1, #1
   27202:	2200      	movs	r2, #0
   27204:	4613      	mov	r3, r2
   27206:	df04      	svc	4
   27208:	a805      	add	r0, sp, #20
   2720a:	9901      	ldr	r1, [sp, #4]
   2720c:	7001      	strb	r1, [r0, #0]
   2720e:	a816      	add	r0, sp, #88	@ 0x58
   27210:	7800      	ldrb	r0, [r0, #0]
   27212:	2804      	cmp	r0, #4
   27214:	d007      	beq.n	27226 <_ZN20complex_dynamic_type3app17he6f93a721ec87003E+0x102>
   27216:	2803      	cmp	r0, #3
   27218:	d11d      	bne.n	27256 <_ZN20complex_dynamic_type3app17he6f93a721ec87003E+0x132>
   2721a:	4814      	ldr	r0, [pc, #80]	@ (2726c <_ZN20complex_dynamic_type3app17he6f93a721ec87003E+0x148>)
   2721c:	2109      	movs	r1, #9
   2721e:	2200      	movs	r2, #0
   27220:	4613      	mov	r3, r2
   27222:	df03      	svc	3
   27224:	e004      	b.n	27230 <_ZN20complex_dynamic_type3app17he6f93a721ec87003E+0x10c>
   27226:	4811      	ldr	r0, [pc, #68]	@ (2726c <_ZN20complex_dynamic_type3app17he6f93a721ec87003E+0x148>)
   27228:	2109      	movs	r1, #9
   2722a:	2200      	movs	r2, #0
   2722c:	4613      	mov	r3, r2
   2722e:	df04      	svc	4
   27230:	a805      	add	r0, sp, #20
   27232:	7804      	ldrb	r4, [r0, #0]
   27234:	1c68      	adds	r0, r5, #1
   27236:	2218      	movs	r2, #24
   27238:	9902      	ldr	r1, [sp, #8]
   2723a:	f003 ff67 	bl	2b10c <__aeabi_memcpy>
   2723e:	702e      	strb	r6, [r5, #0]
   27240:	2c02      	cmp	r4, #2
   27242:	d006      	beq.n	27252 <_ZN20complex_dynamic_type3app17he6f93a721ec87003E+0x12e>
   27244:	4809      	ldr	r0, [pc, #36]	@ (2726c <_ZN20complex_dynamic_type3app17he6f93a721ec87003E+0x148>)
   27246:	2101      	movs	r1, #1
   27248:	2200      	movs	r2, #0
   2724a:	4613      	mov	r3, r2
   2724c:	2c04      	cmp	r4, #4
   2724e:	d10a      	bne.n	27266 <_ZN20complex_dynamic_type3app17he6f93a721ec87003E+0x142>
   27250:	df04      	svc	4
   27252:	b01d      	add	sp, #116	@ 0x74
   27254:	bdf0      	pop	{r4, r5, r6, r7, pc}
   27256:	9902      	ldr	r1, [sp, #8]
   27258:	1c68      	adds	r0, r5, #1
   2725a:	2218      	movs	r2, #24
   2725c:	f003 ff56 	bl	2b10c <__aeabi_memcpy>
   27260:	702e      	strb	r6, [r5, #0]
   27262:	b01d      	add	sp, #116	@ 0x74
   27264:	bdf0      	pop	{r4, r5, r6, r7, pc}
   27266:	df03      	svc	3
   27268:	b01d      	add	sp, #116	@ 0x74
   2726a:	bdf0      	pop	{r4, r5, r6, r7, pc}
   2726c:	00002156 	.word	0x00002156

00027270 <_ZN20complex_dynamic_type3app17he92777e1f1263c34E>:
   27270:	b5f0      	push	{r4, r5, r6, r7, lr}
   27272:	af03      	add	r7, sp, #12
   27274:	b09d      	sub	sp, #116	@ 0x74
   27276:	9003      	str	r0, [sp, #12]
   27278:	a804      	add	r0, sp, #16
   2727a:	2402      	movs	r4, #2
   2727c:	7004      	strb	r4, [r0, #0]
   2727e:	1c46      	adds	r6, r0, #1
   27280:	223b      	movs	r2, #59	@ 0x3b
   27282:	9202      	str	r2, [sp, #8]
   27284:	4630      	mov	r0, r6
   27286:	f003 ff41 	bl	2b10c <__aeabi_memcpy>
   2728a:	ad13      	add	r5, sp, #76	@ 0x4c
   2728c:	1c68      	adds	r0, r5, #1
   2728e:	2127      	movs	r1, #39	@ 0x27
   27290:	9001      	str	r0, [sp, #4]
   27292:	f003 fd7b 	bl	2ad8c <__aeabi_memclr>
   27296:	9400      	str	r4, [sp, #0]
   27298:	702c      	strb	r4, [r5, #0]
   2729a:	4848      	ldr	r0, [pc, #288]	@ (273bc <_ZN20complex_dynamic_type3app17he92777e1f1263c34E+0x14c>)
   2729c:	2105      	movs	r1, #5
   2729e:	4632      	mov	r2, r6
   272a0:	9b02      	ldr	r3, [sp, #8]
   272a2:	df04      	svc	4
   272a4:	2802      	cmp	r0, #2
   272a6:	d104      	bne.n	272b2 <_ZN20complex_dynamic_type3app17he92777e1f1263c34E+0x42>
   272a8:	2001      	movs	r0, #1
   272aa:	9a03      	ldr	r2, [sp, #12]
   272ac:	7010      	strb	r0, [r2, #0]
   272ae:	6051      	str	r1, [r2, #4]
   272b0:	e02c      	b.n	2730c <_ZN20complex_dynamic_type3app17he92777e1f1263c34E+0x9c>
   272b2:	9d03      	ldr	r5, [sp, #12]
   272b4:	a804      	add	r0, sp, #16
   272b6:	2104      	movs	r1, #4
   272b8:	7001      	strb	r1, [r0, #0]
   272ba:	4840      	ldr	r0, [pc, #256]	@ (273bc <_ZN20complex_dynamic_type3app17he92777e1f1263c34E+0x14c>)
   272bc:	2403      	movs	r4, #3
   272be:	2327      	movs	r3, #39	@ 0x27
   272c0:	4621      	mov	r1, r4
   272c2:	9a01      	ldr	r2, [sp, #4]
   272c4:	df03      	svc	3
   272c6:	2802      	cmp	r0, #2
   272c8:	d10e      	bne.n	272e8 <_ZN20complex_dynamic_type3app17he92777e1f1263c34E+0x78>
   272ca:	2001      	movs	r0, #1
   272cc:	7028      	strb	r0, [r5, #0]
   272ce:	6069      	str	r1, [r5, #4]
   272d0:	a813      	add	r0, sp, #76	@ 0x4c
   272d2:	7800      	ldrb	r0, [r0, #0]
   272d4:	2802      	cmp	r0, #2
   272d6:	d019      	beq.n	2730c <_ZN20complex_dynamic_type3app17he92777e1f1263c34E+0x9c>
   272d8:	2803      	cmp	r0, #3
   272da:	d012      	beq.n	27302 <_ZN20complex_dynamic_type3app17he92777e1f1263c34E+0x92>
   272dc:	4837      	ldr	r0, [pc, #220]	@ (273bc <_ZN20complex_dynamic_type3app17he92777e1f1263c34E+0x14c>)
   272de:	2103      	movs	r1, #3
   272e0:	2200      	movs	r2, #0
   272e2:	4613      	mov	r3, r2
   272e4:	df04      	svc	4
   272e6:	e011      	b.n	2730c <_ZN20complex_dynamic_type3app17he92777e1f1263c34E+0x9c>
   272e8:	a813      	add	r0, sp, #76	@ 0x4c
   272ea:	7004      	strb	r4, [r0, #0]
   272ec:	4833      	ldr	r0, [pc, #204]	@ (273bc <_ZN20complex_dynamic_type3app17he92777e1f1263c34E+0x14c>)
   272ee:	2105      	movs	r1, #5
   272f0:	2600      	movs	r6, #0
   272f2:	4622      	mov	r2, r4
   272f4:	4633      	mov	r3, r6
   272f6:	df02      	svc	2
   272f8:	2880      	cmp	r0, #128	@ 0x80
   272fa:	d21b      	bcs.n	27334 <_ZN20complex_dynamic_type3app17he92777e1f1263c34E+0xc4>
   272fc:	2001      	movs	r0, #1
   272fe:	7028      	strb	r0, [r5, #0]
   27300:	6069      	str	r1, [r5, #4]
   27302:	482e      	ldr	r0, [pc, #184]	@ (273bc <_ZN20complex_dynamic_type3app17he92777e1f1263c34E+0x14c>)
   27304:	2103      	movs	r1, #3
   27306:	2200      	movs	r2, #0
   27308:	4613      	mov	r3, r2
   2730a:	df03      	svc	3
   2730c:	a804      	add	r0, sp, #16
   2730e:	7800      	ldrb	r0, [r0, #0]
   27310:	2802      	cmp	r0, #2
   27312:	d045      	beq.n	273a0 <_ZN20complex_dynamic_type3app17he92777e1f1263c34E+0x130>
   27314:	2804      	cmp	r0, #4
   27316:	d106      	bne.n	27326 <_ZN20complex_dynamic_type3app17he92777e1f1263c34E+0xb6>
   27318:	4828      	ldr	r0, [pc, #160]	@ (273bc <_ZN20complex_dynamic_type3app17he92777e1f1263c34E+0x14c>)
   2731a:	2105      	movs	r1, #5
   2731c:	2200      	movs	r2, #0
   2731e:	4613      	mov	r3, r2
   27320:	df04      	svc	4
   27322:	b01d      	add	sp, #116	@ 0x74
   27324:	bdf0      	pop	{r4, r5, r6, r7, pc}
   27326:	4825      	ldr	r0, [pc, #148]	@ (273bc <_ZN20complex_dynamic_type3app17he92777e1f1263c34E+0x14c>)
   27328:	2105      	movs	r1, #5
   2732a:	2200      	movs	r2, #0
   2732c:	4613      	mov	r3, r2
   2732e:	df03      	svc	3
   27330:	b01d      	add	sp, #116	@ 0x74
   27332:	bdf0      	pop	{r4, r5, r6, r7, pc}
   27334:	a804      	add	r0, sp, #16
   27336:	7800      	ldrb	r0, [r0, #0]
   27338:	2802      	cmp	r0, #2
   2733a:	d00c      	beq.n	27356 <_ZN20complex_dynamic_type3app17he92777e1f1263c34E+0xe6>
   2733c:	2803      	cmp	r0, #3
   2733e:	d105      	bne.n	2734c <_ZN20complex_dynamic_type3app17he92777e1f1263c34E+0xdc>
   27340:	481e      	ldr	r0, [pc, #120]	@ (273bc <_ZN20complex_dynamic_type3app17he92777e1f1263c34E+0x14c>)
   27342:	2105      	movs	r1, #5
   27344:	2200      	movs	r2, #0
   27346:	4613      	mov	r3, r2
   27348:	df03      	svc	3
   2734a:	e004      	b.n	27356 <_ZN20complex_dynamic_type3app17he92777e1f1263c34E+0xe6>
   2734c:	481b      	ldr	r0, [pc, #108]	@ (273bc <_ZN20complex_dynamic_type3app17he92777e1f1263c34E+0x14c>)
   2734e:	2105      	movs	r1, #5
   27350:	2200      	movs	r2, #0
   27352:	4613      	mov	r3, r2
   27354:	df04      	svc	4
   27356:	a804      	add	r0, sp, #16
   27358:	9900      	ldr	r1, [sp, #0]
   2735a:	7001      	strb	r1, [r0, #0]
   2735c:	a813      	add	r0, sp, #76	@ 0x4c
   2735e:	7800      	ldrb	r0, [r0, #0]
   27360:	2804      	cmp	r0, #4
   27362:	d007      	beq.n	27374 <_ZN20complex_dynamic_type3app17he92777e1f1263c34E+0x104>
   27364:	2803      	cmp	r0, #3
   27366:	d11d      	bne.n	273a4 <_ZN20complex_dynamic_type3app17he92777e1f1263c34E+0x134>
   27368:	4814      	ldr	r0, [pc, #80]	@ (273bc <_ZN20complex_dynamic_type3app17he92777e1f1263c34E+0x14c>)
   2736a:	2103      	movs	r1, #3
   2736c:	2200      	movs	r2, #0
   2736e:	4613      	mov	r3, r2
   27370:	df03      	svc	3
   27372:	e004      	b.n	2737e <_ZN20complex_dynamic_type3app17he92777e1f1263c34E+0x10e>
   27374:	4811      	ldr	r0, [pc, #68]	@ (273bc <_ZN20complex_dynamic_type3app17he92777e1f1263c34E+0x14c>)
   27376:	2103      	movs	r1, #3
   27378:	2200      	movs	r2, #0
   2737a:	4613      	mov	r3, r2
   2737c:	df04      	svc	4
   2737e:	a804      	add	r0, sp, #16
   27380:	7804      	ldrb	r4, [r0, #0]
   27382:	1c68      	adds	r0, r5, #1
   27384:	2227      	movs	r2, #39	@ 0x27
   27386:	9901      	ldr	r1, [sp, #4]
   27388:	f003 fec0 	bl	2b10c <__aeabi_memcpy>
   2738c:	702e      	strb	r6, [r5, #0]
   2738e:	2c02      	cmp	r4, #2
   27390:	d006      	beq.n	273a0 <_ZN20complex_dynamic_type3app17he92777e1f1263c34E+0x130>
   27392:	480a      	ldr	r0, [pc, #40]	@ (273bc <_ZN20complex_dynamic_type3app17he92777e1f1263c34E+0x14c>)
   27394:	2105      	movs	r1, #5
   27396:	2200      	movs	r2, #0
   27398:	4613      	mov	r3, r2
   2739a:	2c04      	cmp	r4, #4
   2739c:	d10a      	bne.n	273b4 <_ZN20complex_dynamic_type3app17he92777e1f1263c34E+0x144>
   2739e:	df04      	svc	4
   273a0:	b01d      	add	sp, #116	@ 0x74
   273a2:	bdf0      	pop	{r4, r5, r6, r7, pc}
   273a4:	1c68      	adds	r0, r5, #1
   273a6:	2227      	movs	r2, #39	@ 0x27
   273a8:	9901      	ldr	r1, [sp, #4]
   273aa:	f003 feaf 	bl	2b10c <__aeabi_memcpy>
   273ae:	702e      	strb	r6, [r5, #0]
   273b0:	b01d      	add	sp, #116	@ 0x74
   273b2:	bdf0      	pop	{r4, r5, r6, r7, pc}
   273b4:	df03      	svc	3
   273b6:	b01d      	add	sp, #116	@ 0x74
   273b8:	bdf0      	pop	{r4, r5, r6, r7, pc}
   273ba:	46c0      	nop			@ (mov r8, r8)
   273bc:	00000bd3 	.word	0x00000bd3

000273c0 <_ZN20complex_dynamic_type3app17he9e66adb83d115b5E>:
   273c0:	b5f0      	push	{r4, r5, r6, r7, lr}
   273c2:	af03      	add	r7, sp, #12
   273c4:	b09d      	sub	sp, #116	@ 0x74
   273c6:	9004      	str	r0, [sp, #16]
   273c8:	a805      	add	r0, sp, #20
   273ca:	2602      	movs	r6, #2
   273cc:	7006      	strb	r6, [r0, #0]
   273ce:	1c40      	adds	r0, r0, #1
   273d0:	9003      	str	r0, [sp, #12]
   273d2:	251e      	movs	r5, #30
   273d4:	462a      	mov	r2, r5
   273d6:	f003 fe99 	bl	2b10c <__aeabi_memcpy>
   273da:	ac0d      	add	r4, sp, #52	@ 0x34
   273dc:	1c60      	adds	r0, r4, #1
   273de:	213c      	movs	r1, #60	@ 0x3c
   273e0:	9002      	str	r0, [sp, #8]
   273e2:	f003 fcd3 	bl	2ad8c <__aeabi_memclr>
   273e6:	7026      	strb	r6, [r4, #0]
   273e8:	484a      	ldr	r0, [pc, #296]	@ (27514 <_ZN20complex_dynamic_type3app17he9e66adb83d115b5E+0x154>)
   273ea:	4631      	mov	r1, r6
   273ec:	9a03      	ldr	r2, [sp, #12]
   273ee:	462b      	mov	r3, r5
   273f0:	df04      	svc	4
   273f2:	2802      	cmp	r0, #2
   273f4:	d104      	bne.n	27400 <_ZN20complex_dynamic_type3app17he9e66adb83d115b5E+0x40>
   273f6:	2001      	movs	r0, #1
   273f8:	9a04      	ldr	r2, [sp, #16]
   273fa:	7010      	strb	r0, [r2, #0]
   273fc:	6051      	str	r1, [r2, #4]
   273fe:	e02e      	b.n	2745e <_ZN20complex_dynamic_type3app17he9e66adb83d115b5E+0x9e>
   27400:	9d04      	ldr	r5, [sp, #16]
   27402:	a805      	add	r0, sp, #20
   27404:	2104      	movs	r1, #4
   27406:	7001      	strb	r1, [r0, #0]
   27408:	4842      	ldr	r0, [pc, #264]	@ (27514 <_ZN20complex_dynamic_type3app17he9e66adb83d115b5E+0x154>)
   2740a:	2603      	movs	r6, #3
   2740c:	233c      	movs	r3, #60	@ 0x3c
   2740e:	4631      	mov	r1, r6
   27410:	9c02      	ldr	r4, [sp, #8]
   27412:	4622      	mov	r2, r4
   27414:	df03      	svc	3
   27416:	2802      	cmp	r0, #2
   27418:	d10e      	bne.n	27438 <_ZN20complex_dynamic_type3app17he9e66adb83d115b5E+0x78>
   2741a:	2001      	movs	r0, #1
   2741c:	7028      	strb	r0, [r5, #0]
   2741e:	6069      	str	r1, [r5, #4]
   27420:	a80d      	add	r0, sp, #52	@ 0x34
   27422:	7800      	ldrb	r0, [r0, #0]
   27424:	2802      	cmp	r0, #2
   27426:	d01a      	beq.n	2745e <_ZN20complex_dynamic_type3app17he9e66adb83d115b5E+0x9e>
   27428:	2803      	cmp	r0, #3
   2742a:	d013      	beq.n	27454 <_ZN20complex_dynamic_type3app17he9e66adb83d115b5E+0x94>
   2742c:	4839      	ldr	r0, [pc, #228]	@ (27514 <_ZN20complex_dynamic_type3app17he9e66adb83d115b5E+0x154>)
   2742e:	2103      	movs	r1, #3
   27430:	2200      	movs	r2, #0
   27432:	4613      	mov	r3, r2
   27434:	df04      	svc	4
   27436:	e012      	b.n	2745e <_ZN20complex_dynamic_type3app17he9e66adb83d115b5E+0x9e>
   27438:	a80d      	add	r0, sp, #52	@ 0x34
   2743a:	7006      	strb	r6, [r0, #0]
   2743c:	4835      	ldr	r0, [pc, #212]	@ (27514 <_ZN20complex_dynamic_type3app17he9e66adb83d115b5E+0x154>)
   2743e:	2102      	movs	r1, #2
   27440:	2300      	movs	r3, #0
   27442:	9101      	str	r1, [sp, #4]
   27444:	4632      	mov	r2, r6
   27446:	9303      	str	r3, [sp, #12]
   27448:	df02      	svc	2
   2744a:	2880      	cmp	r0, #128	@ 0x80
   2744c:	d21b      	bcs.n	27486 <_ZN20complex_dynamic_type3app17he9e66adb83d115b5E+0xc6>
   2744e:	2001      	movs	r0, #1
   27450:	7028      	strb	r0, [r5, #0]
   27452:	6069      	str	r1, [r5, #4]
   27454:	482f      	ldr	r0, [pc, #188]	@ (27514 <_ZN20complex_dynamic_type3app17he9e66adb83d115b5E+0x154>)
   27456:	2103      	movs	r1, #3
   27458:	2200      	movs	r2, #0
   2745a:	4613      	mov	r3, r2
   2745c:	df03      	svc	3
   2745e:	a805      	add	r0, sp, #20
   27460:	7800      	ldrb	r0, [r0, #0]
   27462:	2802      	cmp	r0, #2
   27464:	d048      	beq.n	274f8 <_ZN20complex_dynamic_type3app17he9e66adb83d115b5E+0x138>
   27466:	2804      	cmp	r0, #4
   27468:	d106      	bne.n	27478 <_ZN20complex_dynamic_type3app17he9e66adb83d115b5E+0xb8>
   2746a:	482a      	ldr	r0, [pc, #168]	@ (27514 <_ZN20complex_dynamic_type3app17he9e66adb83d115b5E+0x154>)
   2746c:	2102      	movs	r1, #2
   2746e:	2200      	movs	r2, #0
   27470:	4613      	mov	r3, r2
   27472:	df04      	svc	4
   27474:	b01d      	add	sp, #116	@ 0x74
   27476:	bdf0      	pop	{r4, r5, r6, r7, pc}
   27478:	4826      	ldr	r0, [pc, #152]	@ (27514 <_ZN20complex_dynamic_type3app17he9e66adb83d115b5E+0x154>)
   2747a:	2102      	movs	r1, #2
   2747c:	2200      	movs	r2, #0
   2747e:	4613      	mov	r3, r2
   27480:	df03      	svc	3
   27482:	b01d      	add	sp, #116	@ 0x74
   27484:	bdf0      	pop	{r4, r5, r6, r7, pc}
   27486:	a805      	add	r0, sp, #20
   27488:	7800      	ldrb	r0, [r0, #0]
   2748a:	2802      	cmp	r0, #2
   2748c:	d00c      	beq.n	274a8 <_ZN20complex_dynamic_type3app17he9e66adb83d115b5E+0xe8>
   2748e:	2803      	cmp	r0, #3
   27490:	d105      	bne.n	2749e <_ZN20complex_dynamic_type3app17he9e66adb83d115b5E+0xde>
   27492:	4820      	ldr	r0, [pc, #128]	@ (27514 <_ZN20complex_dynamic_type3app17he9e66adb83d115b5E+0x154>)
   27494:	2102      	movs	r1, #2
   27496:	2200      	movs	r2, #0
   27498:	4613      	mov	r3, r2
   2749a:	df03      	svc	3
   2749c:	e004      	b.n	274a8 <_ZN20complex_dynamic_type3app17he9e66adb83d115b5E+0xe8>
   2749e:	481d      	ldr	r0, [pc, #116]	@ (27514 <_ZN20complex_dynamic_type3app17he9e66adb83d115b5E+0x154>)
   274a0:	2102      	movs	r1, #2
   274a2:	2200      	movs	r2, #0
   274a4:	4613      	mov	r3, r2
   274a6:	df04      	svc	4
   274a8:	a805      	add	r0, sp, #20
   274aa:	9901      	ldr	r1, [sp, #4]
   274ac:	7001      	strb	r1, [r0, #0]
   274ae:	a80d      	add	r0, sp, #52	@ 0x34
   274b0:	7800      	ldrb	r0, [r0, #0]
   274b2:	2804      	cmp	r0, #4
   274b4:	d008      	beq.n	274c8 <_ZN20complex_dynamic_type3app17he9e66adb83d115b5E+0x108>
   274b6:	2803      	cmp	r0, #3
   274b8:	d120      	bne.n	274fc <_ZN20complex_dynamic_type3app17he9e66adb83d115b5E+0x13c>
   274ba:	4626      	mov	r6, r4
   274bc:	4815      	ldr	r0, [pc, #84]	@ (27514 <_ZN20complex_dynamic_type3app17he9e66adb83d115b5E+0x154>)
   274be:	2103      	movs	r1, #3
   274c0:	2200      	movs	r2, #0
   274c2:	4613      	mov	r3, r2
   274c4:	df03      	svc	3
   274c6:	e005      	b.n	274d4 <_ZN20complex_dynamic_type3app17he9e66adb83d115b5E+0x114>
   274c8:	4626      	mov	r6, r4
   274ca:	4812      	ldr	r0, [pc, #72]	@ (27514 <_ZN20complex_dynamic_type3app17he9e66adb83d115b5E+0x154>)
   274cc:	2103      	movs	r1, #3
   274ce:	2200      	movs	r2, #0
   274d0:	4613      	mov	r3, r2
   274d2:	df04      	svc	4
   274d4:	a805      	add	r0, sp, #20
   274d6:	7804      	ldrb	r4, [r0, #0]
   274d8:	1c68      	adds	r0, r5, #1
   274da:	223c      	movs	r2, #60	@ 0x3c
   274dc:	4631      	mov	r1, r6
   274de:	f003 fe15 	bl	2b10c <__aeabi_memcpy>
   274e2:	9803      	ldr	r0, [sp, #12]
   274e4:	7028      	strb	r0, [r5, #0]
   274e6:	2c02      	cmp	r4, #2
   274e8:	d006      	beq.n	274f8 <_ZN20complex_dynamic_type3app17he9e66adb83d115b5E+0x138>
   274ea:	480a      	ldr	r0, [pc, #40]	@ (27514 <_ZN20complex_dynamic_type3app17he9e66adb83d115b5E+0x154>)
   274ec:	2102      	movs	r1, #2
   274ee:	2200      	movs	r2, #0
   274f0:	4613      	mov	r3, r2
   274f2:	2c04      	cmp	r4, #4
   274f4:	d10b      	bne.n	2750e <_ZN20complex_dynamic_type3app17he9e66adb83d115b5E+0x14e>
   274f6:	df04      	svc	4
   274f8:	b01d      	add	sp, #116	@ 0x74
   274fa:	bdf0      	pop	{r4, r5, r6, r7, pc}
   274fc:	1c68      	adds	r0, r5, #1
   274fe:	223c      	movs	r2, #60	@ 0x3c
   27500:	4621      	mov	r1, r4
   27502:	f003 fe03 	bl	2b10c <__aeabi_memcpy>
   27506:	9803      	ldr	r0, [sp, #12]
   27508:	7028      	strb	r0, [r5, #0]
   2750a:	b01d      	add	sp, #116	@ 0x74
   2750c:	bdf0      	pop	{r4, r5, r6, r7, pc}
   2750e:	df03      	svc	3
   27510:	b01d      	add	sp, #116	@ 0x74
   27512:	bdf0      	pop	{r4, r5, r6, r7, pc}
   27514:	00000b3c 	.word	0x00000b3c

00027518 <_ZN20complex_dynamic_type3app17hea088d8c588e34bfE>:
   27518:	b5f0      	push	{r4, r5, r6, r7, lr}
   2751a:	af03      	add	r7, sp, #12
   2751c:	b091      	sub	sp, #68	@ 0x44
   2751e:	9003      	str	r0, [sp, #12]
   27520:	a804      	add	r0, sp, #16
   27522:	2402      	movs	r4, #2
   27524:	7004      	strb	r4, [r0, #0]
   27526:	1c46      	adds	r6, r0, #1
   27528:	220d      	movs	r2, #13
   2752a:	9202      	str	r2, [sp, #8]
   2752c:	4630      	mov	r0, r6
   2752e:	f003 fded 	bl	2b10c <__aeabi_memcpy>
   27532:	ad08      	add	r5, sp, #32
   27534:	1c68      	adds	r0, r5, #1
   27536:	2121      	movs	r1, #33	@ 0x21
   27538:	9001      	str	r0, [sp, #4]
   2753a:	f003 fc27 	bl	2ad8c <__aeabi_memclr>
   2753e:	9400      	str	r4, [sp, #0]
   27540:	702c      	strb	r4, [r5, #0]
   27542:	4848      	ldr	r0, [pc, #288]	@ (27664 <_ZN20complex_dynamic_type3app17hea088d8c588e34bfE+0x14c>)
   27544:	2100      	movs	r1, #0
   27546:	4632      	mov	r2, r6
   27548:	9b02      	ldr	r3, [sp, #8]
   2754a:	df04      	svc	4
   2754c:	2802      	cmp	r0, #2
   2754e:	d104      	bne.n	2755a <_ZN20complex_dynamic_type3app17hea088d8c588e34bfE+0x42>
   27550:	2001      	movs	r0, #1
   27552:	9a03      	ldr	r2, [sp, #12]
   27554:	7010      	strb	r0, [r2, #0]
   27556:	6051      	str	r1, [r2, #4]
   27558:	e02d      	b.n	275b6 <_ZN20complex_dynamic_type3app17hea088d8c588e34bfE+0x9e>
   2755a:	9d03      	ldr	r5, [sp, #12]
   2755c:	a804      	add	r0, sp, #16
   2755e:	2104      	movs	r1, #4
   27560:	7001      	strb	r1, [r0, #0]
   27562:	4840      	ldr	r0, [pc, #256]	@ (27664 <_ZN20complex_dynamic_type3app17hea088d8c588e34bfE+0x14c>)
   27564:	2100      	movs	r1, #0
   27566:	2321      	movs	r3, #33	@ 0x21
   27568:	9c01      	ldr	r4, [sp, #4]
   2756a:	4622      	mov	r2, r4
   2756c:	df03      	svc	3
   2756e:	2802      	cmp	r0, #2
   27570:	d10e      	bne.n	27590 <_ZN20complex_dynamic_type3app17hea088d8c588e34bfE+0x78>
   27572:	2001      	movs	r0, #1
   27574:	7028      	strb	r0, [r5, #0]
   27576:	6069      	str	r1, [r5, #4]
   27578:	a808      	add	r0, sp, #32
   2757a:	7800      	ldrb	r0, [r0, #0]
   2757c:	2802      	cmp	r0, #2
   2757e:	d01a      	beq.n	275b6 <_ZN20complex_dynamic_type3app17hea088d8c588e34bfE+0x9e>
   27580:	2803      	cmp	r0, #3
   27582:	d013      	beq.n	275ac <_ZN20complex_dynamic_type3app17hea088d8c588e34bfE+0x94>
   27584:	4837      	ldr	r0, [pc, #220]	@ (27664 <_ZN20complex_dynamic_type3app17hea088d8c588e34bfE+0x14c>)
   27586:	2100      	movs	r1, #0
   27588:	460a      	mov	r2, r1
   2758a:	460b      	mov	r3, r1
   2758c:	df04      	svc	4
   2758e:	e012      	b.n	275b6 <_ZN20complex_dynamic_type3app17hea088d8c588e34bfE+0x9e>
   27590:	a808      	add	r0, sp, #32
   27592:	2103      	movs	r1, #3
   27594:	7001      	strb	r1, [r0, #0]
   27596:	4833      	ldr	r0, [pc, #204]	@ (27664 <_ZN20complex_dynamic_type3app17hea088d8c588e34bfE+0x14c>)
   27598:	2600      	movs	r6, #0
   2759a:	4631      	mov	r1, r6
   2759c:	4632      	mov	r2, r6
   2759e:	4633      	mov	r3, r6
   275a0:	df02      	svc	2
   275a2:	2880      	cmp	r0, #128	@ 0x80
   275a4:	d21b      	bcs.n	275de <_ZN20complex_dynamic_type3app17hea088d8c588e34bfE+0xc6>
   275a6:	2001      	movs	r0, #1
   275a8:	7028      	strb	r0, [r5, #0]
   275aa:	6069      	str	r1, [r5, #4]
   275ac:	482d      	ldr	r0, [pc, #180]	@ (27664 <_ZN20complex_dynamic_type3app17hea088d8c588e34bfE+0x14c>)
   275ae:	2100      	movs	r1, #0
   275b0:	460a      	mov	r2, r1
   275b2:	460b      	mov	r3, r1
   275b4:	df03      	svc	3
   275b6:	a804      	add	r0, sp, #16
   275b8:	7800      	ldrb	r0, [r0, #0]
   275ba:	2802      	cmp	r0, #2
   275bc:	d045      	beq.n	2764a <_ZN20complex_dynamic_type3app17hea088d8c588e34bfE+0x132>
   275be:	2804      	cmp	r0, #4
   275c0:	d106      	bne.n	275d0 <_ZN20complex_dynamic_type3app17hea088d8c588e34bfE+0xb8>
   275c2:	4828      	ldr	r0, [pc, #160]	@ (27664 <_ZN20complex_dynamic_type3app17hea088d8c588e34bfE+0x14c>)
   275c4:	2100      	movs	r1, #0
   275c6:	460a      	mov	r2, r1
   275c8:	460b      	mov	r3, r1
   275ca:	df04      	svc	4
   275cc:	b011      	add	sp, #68	@ 0x44
   275ce:	bdf0      	pop	{r4, r5, r6, r7, pc}
   275d0:	4824      	ldr	r0, [pc, #144]	@ (27664 <_ZN20complex_dynamic_type3app17hea088d8c588e34bfE+0x14c>)
   275d2:	2100      	movs	r1, #0
   275d4:	460a      	mov	r2, r1
   275d6:	460b      	mov	r3, r1
   275d8:	df03      	svc	3
   275da:	b011      	add	sp, #68	@ 0x44
   275dc:	bdf0      	pop	{r4, r5, r6, r7, pc}
   275de:	a804      	add	r0, sp, #16
   275e0:	7800      	ldrb	r0, [r0, #0]
   275e2:	2802      	cmp	r0, #2
   275e4:	d00c      	beq.n	27600 <_ZN20complex_dynamic_type3app17hea088d8c588e34bfE+0xe8>
   275e6:	2803      	cmp	r0, #3
   275e8:	d105      	bne.n	275f6 <_ZN20complex_dynamic_type3app17hea088d8c588e34bfE+0xde>
   275ea:	481e      	ldr	r0, [pc, #120]	@ (27664 <_ZN20complex_dynamic_type3app17hea088d8c588e34bfE+0x14c>)
   275ec:	2100      	movs	r1, #0
   275ee:	460a      	mov	r2, r1
   275f0:	460b      	mov	r3, r1
   275f2:	df03      	svc	3
   275f4:	e004      	b.n	27600 <_ZN20complex_dynamic_type3app17hea088d8c588e34bfE+0xe8>
   275f6:	481b      	ldr	r0, [pc, #108]	@ (27664 <_ZN20complex_dynamic_type3app17hea088d8c588e34bfE+0x14c>)
   275f8:	2100      	movs	r1, #0
   275fa:	460a      	mov	r2, r1
   275fc:	460b      	mov	r3, r1
   275fe:	df04      	svc	4
   27600:	a804      	add	r0, sp, #16
   27602:	9900      	ldr	r1, [sp, #0]
   27604:	7001      	strb	r1, [r0, #0]
   27606:	a808      	add	r0, sp, #32
   27608:	7800      	ldrb	r0, [r0, #0]
   2760a:	2804      	cmp	r0, #4
   2760c:	d007      	beq.n	2761e <_ZN20complex_dynamic_type3app17hea088d8c588e34bfE+0x106>
   2760e:	2803      	cmp	r0, #3
   27610:	d11d      	bne.n	2764e <_ZN20complex_dynamic_type3app17hea088d8c588e34bfE+0x136>
   27612:	4814      	ldr	r0, [pc, #80]	@ (27664 <_ZN20complex_dynamic_type3app17hea088d8c588e34bfE+0x14c>)
   27614:	2100      	movs	r1, #0
   27616:	460a      	mov	r2, r1
   27618:	460b      	mov	r3, r1
   2761a:	df03      	svc	3
   2761c:	e004      	b.n	27628 <_ZN20complex_dynamic_type3app17hea088d8c588e34bfE+0x110>
   2761e:	4811      	ldr	r0, [pc, #68]	@ (27664 <_ZN20complex_dynamic_type3app17hea088d8c588e34bfE+0x14c>)
   27620:	2100      	movs	r1, #0
   27622:	460a      	mov	r2, r1
   27624:	460b      	mov	r3, r1
   27626:	df04      	svc	4
   27628:	a804      	add	r0, sp, #16
   2762a:	7804      	ldrb	r4, [r0, #0]
   2762c:	1c68      	adds	r0, r5, #1
   2762e:	2221      	movs	r2, #33	@ 0x21
   27630:	9901      	ldr	r1, [sp, #4]
   27632:	f003 fd6b 	bl	2b10c <__aeabi_memcpy>
   27636:	702e      	strb	r6, [r5, #0]
   27638:	2c02      	cmp	r4, #2
   2763a:	d006      	beq.n	2764a <_ZN20complex_dynamic_type3app17hea088d8c588e34bfE+0x132>
   2763c:	4809      	ldr	r0, [pc, #36]	@ (27664 <_ZN20complex_dynamic_type3app17hea088d8c588e34bfE+0x14c>)
   2763e:	2100      	movs	r1, #0
   27640:	460a      	mov	r2, r1
   27642:	460b      	mov	r3, r1
   27644:	2c04      	cmp	r4, #4
   27646:	d10a      	bne.n	2765e <_ZN20complex_dynamic_type3app17hea088d8c588e34bfE+0x146>
   27648:	df04      	svc	4
   2764a:	b011      	add	sp, #68	@ 0x44
   2764c:	bdf0      	pop	{r4, r5, r6, r7, pc}
   2764e:	1c68      	adds	r0, r5, #1
   27650:	2221      	movs	r2, #33	@ 0x21
   27652:	4621      	mov	r1, r4
   27654:	f003 fd5a 	bl	2b10c <__aeabi_memcpy>
   27658:	702e      	strb	r6, [r5, #0]
   2765a:	b011      	add	sp, #68	@ 0x44
   2765c:	bdf0      	pop	{r4, r5, r6, r7, pc}
   2765e:	df03      	svc	3
   27660:	b011      	add	sp, #68	@ 0x44
   27662:	bdf0      	pop	{r4, r5, r6, r7, pc}
   27664:	000016b0 	.word	0x000016b0

00027668 <_ZN20complex_dynamic_type3app17heb4d213861d5d344E>:
   27668:	b5f0      	push	{r4, r5, r6, r7, lr}
   2766a:	af03      	add	r7, sp, #12
   2766c:	b097      	sub	sp, #92	@ 0x5c
   2766e:	9003      	str	r0, [sp, #12]
   27670:	a804      	add	r0, sp, #16
   27672:	2402      	movs	r4, #2
   27674:	7004      	strb	r4, [r0, #0]
   27676:	1c40      	adds	r0, r0, #1
   27678:	9002      	str	r0, [sp, #8]
   2767a:	2510      	movs	r5, #16
   2767c:	462a      	mov	r2, r5
   2767e:	f003 fd45 	bl	2b10c <__aeabi_memcpy>
   27682:	ae09      	add	r6, sp, #36	@ 0x24
   27684:	1c70      	adds	r0, r6, #1
   27686:	2136      	movs	r1, #54	@ 0x36
   27688:	9001      	str	r0, [sp, #4]
   2768a:	f003 fb7f 	bl	2ad8c <__aeabi_memclr>
   2768e:	9400      	str	r4, [sp, #0]
   27690:	7034      	strb	r4, [r6, #0]
   27692:	4847      	ldr	r0, [pc, #284]	@ (277b0 <_ZN20complex_dynamic_type3app17heb4d213861d5d344E+0x148>)
   27694:	2601      	movs	r6, #1
   27696:	4631      	mov	r1, r6
   27698:	9a02      	ldr	r2, [sp, #8]
   2769a:	462b      	mov	r3, r5
   2769c:	df04      	svc	4
   2769e:	2802      	cmp	r0, #2
   276a0:	d103      	bne.n	276aa <_ZN20complex_dynamic_type3app17heb4d213861d5d344E+0x42>
   276a2:	9803      	ldr	r0, [sp, #12]
   276a4:	7006      	strb	r6, [r0, #0]
   276a6:	6041      	str	r1, [r0, #4]
   276a8:	e02b      	b.n	27702 <_ZN20complex_dynamic_type3app17heb4d213861d5d344E+0x9a>
   276aa:	9d03      	ldr	r5, [sp, #12]
   276ac:	a804      	add	r0, sp, #16
   276ae:	2104      	movs	r1, #4
   276b0:	7001      	strb	r1, [r0, #0]
   276b2:	483f      	ldr	r0, [pc, #252]	@ (277b0 <_ZN20complex_dynamic_type3app17heb4d213861d5d344E+0x148>)
   276b4:	2107      	movs	r1, #7
   276b6:	2336      	movs	r3, #54	@ 0x36
   276b8:	9a01      	ldr	r2, [sp, #4]
   276ba:	df03      	svc	3
   276bc:	2802      	cmp	r0, #2
   276be:	d10d      	bne.n	276dc <_ZN20complex_dynamic_type3app17heb4d213861d5d344E+0x74>
   276c0:	702e      	strb	r6, [r5, #0]
   276c2:	6069      	str	r1, [r5, #4]
   276c4:	a809      	add	r0, sp, #36	@ 0x24
   276c6:	7800      	ldrb	r0, [r0, #0]
   276c8:	2802      	cmp	r0, #2
   276ca:	d01a      	beq.n	27702 <_ZN20complex_dynamic_type3app17heb4d213861d5d344E+0x9a>
   276cc:	2803      	cmp	r0, #3
   276ce:	d013      	beq.n	276f8 <_ZN20complex_dynamic_type3app17heb4d213861d5d344E+0x90>
   276d0:	4837      	ldr	r0, [pc, #220]	@ (277b0 <_ZN20complex_dynamic_type3app17heb4d213861d5d344E+0x148>)
   276d2:	2107      	movs	r1, #7
   276d4:	2200      	movs	r2, #0
   276d6:	4613      	mov	r3, r2
   276d8:	df04      	svc	4
   276da:	e012      	b.n	27702 <_ZN20complex_dynamic_type3app17heb4d213861d5d344E+0x9a>
   276dc:	a809      	add	r0, sp, #36	@ 0x24
   276de:	2103      	movs	r1, #3
   276e0:	7001      	strb	r1, [r0, #0]
   276e2:	4833      	ldr	r0, [pc, #204]	@ (277b0 <_ZN20complex_dynamic_type3app17heb4d213861d5d344E+0x148>)
   276e4:	2401      	movs	r4, #1
   276e6:	2207      	movs	r2, #7
   276e8:	2600      	movs	r6, #0
   276ea:	4621      	mov	r1, r4
   276ec:	4633      	mov	r3, r6
   276ee:	df02      	svc	2
   276f0:	2880      	cmp	r0, #128	@ 0x80
   276f2:	d21a      	bcs.n	2772a <_ZN20complex_dynamic_type3app17heb4d213861d5d344E+0xc2>
   276f4:	702c      	strb	r4, [r5, #0]
   276f6:	6069      	str	r1, [r5, #4]
   276f8:	482d      	ldr	r0, [pc, #180]	@ (277b0 <_ZN20complex_dynamic_type3app17heb4d213861d5d344E+0x148>)
   276fa:	2107      	movs	r1, #7
   276fc:	2200      	movs	r2, #0
   276fe:	4613      	mov	r3, r2
   27700:	df03      	svc	3
   27702:	a804      	add	r0, sp, #16
   27704:	7800      	ldrb	r0, [r0, #0]
   27706:	2802      	cmp	r0, #2
   27708:	d045      	beq.n	27796 <_ZN20complex_dynamic_type3app17heb4d213861d5d344E+0x12e>
   2770a:	2804      	cmp	r0, #4
   2770c:	d106      	bne.n	2771c <_ZN20complex_dynamic_type3app17heb4d213861d5d344E+0xb4>
   2770e:	4828      	ldr	r0, [pc, #160]	@ (277b0 <_ZN20complex_dynamic_type3app17heb4d213861d5d344E+0x148>)
   27710:	2101      	movs	r1, #1
   27712:	2200      	movs	r2, #0
   27714:	4613      	mov	r3, r2
   27716:	df04      	svc	4
   27718:	b017      	add	sp, #92	@ 0x5c
   2771a:	bdf0      	pop	{r4, r5, r6, r7, pc}
   2771c:	4824      	ldr	r0, [pc, #144]	@ (277b0 <_ZN20complex_dynamic_type3app17heb4d213861d5d344E+0x148>)
   2771e:	2101      	movs	r1, #1
   27720:	2200      	movs	r2, #0
   27722:	4613      	mov	r3, r2
   27724:	df03      	svc	3
   27726:	b017      	add	sp, #92	@ 0x5c
   27728:	bdf0      	pop	{r4, r5, r6, r7, pc}
   2772a:	a804      	add	r0, sp, #16
   2772c:	7800      	ldrb	r0, [r0, #0]
   2772e:	2802      	cmp	r0, #2
   27730:	d00c      	beq.n	2774c <_ZN20complex_dynamic_type3app17heb4d213861d5d344E+0xe4>
   27732:	2803      	cmp	r0, #3
   27734:	d105      	bne.n	27742 <_ZN20complex_dynamic_type3app17heb4d213861d5d344E+0xda>
   27736:	481e      	ldr	r0, [pc, #120]	@ (277b0 <_ZN20complex_dynamic_type3app17heb4d213861d5d344E+0x148>)
   27738:	2101      	movs	r1, #1
   2773a:	2200      	movs	r2, #0
   2773c:	4613      	mov	r3, r2
   2773e:	df03      	svc	3
   27740:	e004      	b.n	2774c <_ZN20complex_dynamic_type3app17heb4d213861d5d344E+0xe4>
   27742:	481b      	ldr	r0, [pc, #108]	@ (277b0 <_ZN20complex_dynamic_type3app17heb4d213861d5d344E+0x148>)
   27744:	2101      	movs	r1, #1
   27746:	2200      	movs	r2, #0
   27748:	4613      	mov	r3, r2
   2774a:	df04      	svc	4
   2774c:	a804      	add	r0, sp, #16
   2774e:	9900      	ldr	r1, [sp, #0]
   27750:	7001      	strb	r1, [r0, #0]
   27752:	a809      	add	r0, sp, #36	@ 0x24
   27754:	7800      	ldrb	r0, [r0, #0]
   27756:	2804      	cmp	r0, #4
   27758:	d007      	beq.n	2776a <_ZN20complex_dynamic_type3app17heb4d213861d5d344E+0x102>
   2775a:	2803      	cmp	r0, #3
   2775c:	d11d      	bne.n	2779a <_ZN20complex_dynamic_type3app17heb4d213861d5d344E+0x132>
   2775e:	4814      	ldr	r0, [pc, #80]	@ (277b0 <_ZN20complex_dynamic_type3app17heb4d213861d5d344E+0x148>)
   27760:	2107      	movs	r1, #7
   27762:	2200      	movs	r2, #0
   27764:	4613      	mov	r3, r2
   27766:	df03      	svc	3
   27768:	e004      	b.n	27774 <_ZN20complex_dynamic_type3app17heb4d213861d5d344E+0x10c>
   2776a:	4811      	ldr	r0, [pc, #68]	@ (277b0 <_ZN20complex_dynamic_type3app17heb4d213861d5d344E+0x148>)
   2776c:	2107      	movs	r1, #7
   2776e:	2200      	movs	r2, #0
   27770:	4613      	mov	r3, r2
   27772:	df04      	svc	4
   27774:	a804      	add	r0, sp, #16
   27776:	7804      	ldrb	r4, [r0, #0]
   27778:	1c68      	adds	r0, r5, #1
   2777a:	2236      	movs	r2, #54	@ 0x36
   2777c:	9901      	ldr	r1, [sp, #4]
   2777e:	f003 fcc5 	bl	2b10c <__aeabi_memcpy>
   27782:	702e      	strb	r6, [r5, #0]
   27784:	2c02      	cmp	r4, #2
   27786:	d006      	beq.n	27796 <_ZN20complex_dynamic_type3app17heb4d213861d5d344E+0x12e>
   27788:	4809      	ldr	r0, [pc, #36]	@ (277b0 <_ZN20complex_dynamic_type3app17heb4d213861d5d344E+0x148>)
   2778a:	2101      	movs	r1, #1
   2778c:	2200      	movs	r2, #0
   2778e:	4613      	mov	r3, r2
   27790:	2c04      	cmp	r4, #4
   27792:	d10a      	bne.n	277aa <_ZN20complex_dynamic_type3app17heb4d213861d5d344E+0x142>
   27794:	df04      	svc	4
   27796:	b017      	add	sp, #92	@ 0x5c
   27798:	bdf0      	pop	{r4, r5, r6, r7, pc}
   2779a:	9901      	ldr	r1, [sp, #4]
   2779c:	1c68      	adds	r0, r5, #1
   2779e:	2236      	movs	r2, #54	@ 0x36
   277a0:	f003 fcb4 	bl	2b10c <__aeabi_memcpy>
   277a4:	702e      	strb	r6, [r5, #0]
   277a6:	b017      	add	sp, #92	@ 0x5c
   277a8:	bdf0      	pop	{r4, r5, r6, r7, pc}
   277aa:	df03      	svc	3
   277ac:	b017      	add	sp, #92	@ 0x5c
   277ae:	bdf0      	pop	{r4, r5, r6, r7, pc}
   277b0:	00001989 	.word	0x00001989

000277b4 <_ZN20complex_dynamic_type3app17hefcf42e53739fff6E>:
   277b4:	b5f0      	push	{r4, r5, r6, r7, lr}
   277b6:	af03      	add	r7, sp, #12
   277b8:	b093      	sub	sp, #76	@ 0x4c
   277ba:	9004      	str	r0, [sp, #16]
   277bc:	a805      	add	r0, sp, #20
   277be:	2402      	movs	r4, #2
   277c0:	7004      	strb	r4, [r0, #0]
   277c2:	1c46      	adds	r6, r0, #1
   277c4:	220f      	movs	r2, #15
   277c6:	9203      	str	r2, [sp, #12]
   277c8:	4630      	mov	r0, r6
   277ca:	f003 fc9f 	bl	2b10c <__aeabi_memcpy>
   277ce:	ad09      	add	r5, sp, #36	@ 0x24
   277d0:	1c68      	adds	r0, r5, #1
   277d2:	2125      	movs	r1, #37	@ 0x25
   277d4:	9002      	str	r0, [sp, #8]
   277d6:	f003 fad9 	bl	2ad8c <__aeabi_memclr>
   277da:	9401      	str	r4, [sp, #4]
   277dc:	702c      	strb	r4, [r5, #0]
   277de:	20a2      	movs	r0, #162	@ 0xa2
   277e0:	2108      	movs	r1, #8
   277e2:	4632      	mov	r2, r6
   277e4:	9b03      	ldr	r3, [sp, #12]
   277e6:	df04      	svc	4
   277e8:	2802      	cmp	r0, #2
   277ea:	d104      	bne.n	277f6 <_ZN20complex_dynamic_type3app17hefcf42e53739fff6E+0x42>
   277ec:	2001      	movs	r0, #1
   277ee:	9a04      	ldr	r2, [sp, #16]
   277f0:	7010      	strb	r0, [r2, #0]
   277f2:	6051      	str	r1, [r2, #4]
   277f4:	e02d      	b.n	27852 <_ZN20complex_dynamic_type3app17hefcf42e53739fff6E+0x9e>
   277f6:	9d04      	ldr	r5, [sp, #16]
   277f8:	a805      	add	r0, sp, #20
   277fa:	2104      	movs	r1, #4
   277fc:	7001      	strb	r1, [r0, #0]
   277fe:	20a2      	movs	r0, #162	@ 0xa2
   27800:	2100      	movs	r1, #0
   27802:	2325      	movs	r3, #37	@ 0x25
   27804:	9c02      	ldr	r4, [sp, #8]
   27806:	4622      	mov	r2, r4
   27808:	df03      	svc	3
   2780a:	2802      	cmp	r0, #2
   2780c:	d10e      	bne.n	2782c <_ZN20complex_dynamic_type3app17hefcf42e53739fff6E+0x78>
   2780e:	2001      	movs	r0, #1
   27810:	7028      	strb	r0, [r5, #0]
   27812:	6069      	str	r1, [r5, #4]
   27814:	a809      	add	r0, sp, #36	@ 0x24
   27816:	7800      	ldrb	r0, [r0, #0]
   27818:	2802      	cmp	r0, #2
   2781a:	d01a      	beq.n	27852 <_ZN20complex_dynamic_type3app17hefcf42e53739fff6E+0x9e>
   2781c:	2803      	cmp	r0, #3
   2781e:	d013      	beq.n	27848 <_ZN20complex_dynamic_type3app17hefcf42e53739fff6E+0x94>
   27820:	20a2      	movs	r0, #162	@ 0xa2
   27822:	2100      	movs	r1, #0
   27824:	460a      	mov	r2, r1
   27826:	460b      	mov	r3, r1
   27828:	df04      	svc	4
   2782a:	e012      	b.n	27852 <_ZN20complex_dynamic_type3app17hefcf42e53739fff6E+0x9e>
   2782c:	a809      	add	r0, sp, #36	@ 0x24
   2782e:	2103      	movs	r1, #3
   27830:	7001      	strb	r1, [r0, #0]
   27832:	20a2      	movs	r0, #162	@ 0xa2
   27834:	2108      	movs	r1, #8
   27836:	2600      	movs	r6, #0
   27838:	4632      	mov	r2, r6
   2783a:	4633      	mov	r3, r6
   2783c:	df02      	svc	2
   2783e:	2880      	cmp	r0, #128	@ 0x80
   27840:	d21b      	bcs.n	2787a <_ZN20complex_dynamic_type3app17hefcf42e53739fff6E+0xc6>
   27842:	2001      	movs	r0, #1
   27844:	7028      	strb	r0, [r5, #0]
   27846:	6069      	str	r1, [r5, #4]
   27848:	20a2      	movs	r0, #162	@ 0xa2
   2784a:	2100      	movs	r1, #0
   2784c:	460a      	mov	r2, r1
   2784e:	460b      	mov	r3, r1
   27850:	df03      	svc	3
   27852:	a805      	add	r0, sp, #20
   27854:	7800      	ldrb	r0, [r0, #0]
   27856:	2802      	cmp	r0, #2
   27858:	d045      	beq.n	278e6 <_ZN20complex_dynamic_type3app17hefcf42e53739fff6E+0x132>
   2785a:	2804      	cmp	r0, #4
   2785c:	d106      	bne.n	2786c <_ZN20complex_dynamic_type3app17hefcf42e53739fff6E+0xb8>
   2785e:	20a2      	movs	r0, #162	@ 0xa2
   27860:	2108      	movs	r1, #8
   27862:	2200      	movs	r2, #0
   27864:	4613      	mov	r3, r2
   27866:	df04      	svc	4
   27868:	b013      	add	sp, #76	@ 0x4c
   2786a:	bdf0      	pop	{r4, r5, r6, r7, pc}
   2786c:	20a2      	movs	r0, #162	@ 0xa2
   2786e:	2108      	movs	r1, #8
   27870:	2200      	movs	r2, #0
   27872:	4613      	mov	r3, r2
   27874:	df03      	svc	3
   27876:	b013      	add	sp, #76	@ 0x4c
   27878:	bdf0      	pop	{r4, r5, r6, r7, pc}
   2787a:	a805      	add	r0, sp, #20
   2787c:	7800      	ldrb	r0, [r0, #0]
   2787e:	2802      	cmp	r0, #2
   27880:	d00c      	beq.n	2789c <_ZN20complex_dynamic_type3app17hefcf42e53739fff6E+0xe8>
   27882:	2803      	cmp	r0, #3
   27884:	d105      	bne.n	27892 <_ZN20complex_dynamic_type3app17hefcf42e53739fff6E+0xde>
   27886:	20a2      	movs	r0, #162	@ 0xa2
   27888:	2108      	movs	r1, #8
   2788a:	2200      	movs	r2, #0
   2788c:	4613      	mov	r3, r2
   2788e:	df03      	svc	3
   27890:	e004      	b.n	2789c <_ZN20complex_dynamic_type3app17hefcf42e53739fff6E+0xe8>
   27892:	20a2      	movs	r0, #162	@ 0xa2
   27894:	2108      	movs	r1, #8
   27896:	2200      	movs	r2, #0
   27898:	4613      	mov	r3, r2
   2789a:	df04      	svc	4
   2789c:	a805      	add	r0, sp, #20
   2789e:	9901      	ldr	r1, [sp, #4]
   278a0:	7001      	strb	r1, [r0, #0]
   278a2:	a809      	add	r0, sp, #36	@ 0x24
   278a4:	7800      	ldrb	r0, [r0, #0]
   278a6:	2804      	cmp	r0, #4
   278a8:	d007      	beq.n	278ba <_ZN20complex_dynamic_type3app17hefcf42e53739fff6E+0x106>
   278aa:	2803      	cmp	r0, #3
   278ac:	d11d      	bne.n	278ea <_ZN20complex_dynamic_type3app17hefcf42e53739fff6E+0x136>
   278ae:	20a2      	movs	r0, #162	@ 0xa2
   278b0:	2100      	movs	r1, #0
   278b2:	460a      	mov	r2, r1
   278b4:	460b      	mov	r3, r1
   278b6:	df03      	svc	3
   278b8:	e004      	b.n	278c4 <_ZN20complex_dynamic_type3app17hefcf42e53739fff6E+0x110>
   278ba:	20a2      	movs	r0, #162	@ 0xa2
   278bc:	2100      	movs	r1, #0
   278be:	460a      	mov	r2, r1
   278c0:	460b      	mov	r3, r1
   278c2:	df04      	svc	4
   278c4:	a805      	add	r0, sp, #20
   278c6:	7804      	ldrb	r4, [r0, #0]
   278c8:	1c68      	adds	r0, r5, #1
   278ca:	2225      	movs	r2, #37	@ 0x25
   278cc:	9902      	ldr	r1, [sp, #8]
   278ce:	f003 fc1d 	bl	2b10c <__aeabi_memcpy>
   278d2:	702e      	strb	r6, [r5, #0]
   278d4:	2c02      	cmp	r4, #2
   278d6:	d006      	beq.n	278e6 <_ZN20complex_dynamic_type3app17hefcf42e53739fff6E+0x132>
   278d8:	20a2      	movs	r0, #162	@ 0xa2
   278da:	2108      	movs	r1, #8
   278dc:	2200      	movs	r2, #0
   278de:	4613      	mov	r3, r2
   278e0:	2c04      	cmp	r4, #4
   278e2:	d10a      	bne.n	278fa <_ZN20complex_dynamic_type3app17hefcf42e53739fff6E+0x146>
   278e4:	df04      	svc	4
   278e6:	b013      	add	sp, #76	@ 0x4c
   278e8:	bdf0      	pop	{r4, r5, r6, r7, pc}
   278ea:	1c68      	adds	r0, r5, #1
   278ec:	2225      	movs	r2, #37	@ 0x25
   278ee:	4621      	mov	r1, r4
   278f0:	f003 fc0c 	bl	2b10c <__aeabi_memcpy>
   278f4:	702e      	strb	r6, [r5, #0]
   278f6:	b013      	add	sp, #76	@ 0x4c
   278f8:	bdf0      	pop	{r4, r5, r6, r7, pc}
   278fa:	df03      	svc	3
   278fc:	b013      	add	sp, #76	@ 0x4c
   278fe:	bdf0      	pop	{r4, r5, r6, r7, pc}

00027900 <_ZN20complex_dynamic_type3app17hf3784686d84308b6E>:
   27900:	b5f0      	push	{r4, r5, r6, r7, lr}
   27902:	af03      	add	r7, sp, #12
   27904:	b0a3      	sub	sp, #140	@ 0x8c
   27906:	9003      	str	r0, [sp, #12]
   27908:	a804      	add	r0, sp, #16
   2790a:	2402      	movs	r4, #2
   2790c:	7004      	strb	r4, [r0, #0]
   2790e:	1c46      	adds	r6, r0, #1
   27910:	2227      	movs	r2, #39	@ 0x27
   27912:	9202      	str	r2, [sp, #8]
   27914:	4630      	mov	r0, r6
   27916:	f003 fbf9 	bl	2b10c <__aeabi_memcpy>
   2791a:	ad0e      	add	r5, sp, #56	@ 0x38
   2791c:	1c68      	adds	r0, r5, #1
   2791e:	2151      	movs	r1, #81	@ 0x51
   27920:	9001      	str	r0, [sp, #4]
   27922:	f003 fa33 	bl	2ad8c <__aeabi_memclr>
   27926:	9400      	str	r4, [sp, #0]
   27928:	702c      	strb	r4, [r5, #0]
   2792a:	4848      	ldr	r0, [pc, #288]	@ (27a4c <_ZN20complex_dynamic_type3app17hf3784686d84308b6E+0x14c>)
   2792c:	2100      	movs	r1, #0
   2792e:	4632      	mov	r2, r6
   27930:	9b02      	ldr	r3, [sp, #8]
   27932:	df04      	svc	4
   27934:	2802      	cmp	r0, #2
   27936:	d104      	bne.n	27942 <_ZN20complex_dynamic_type3app17hf3784686d84308b6E+0x42>
   27938:	2001      	movs	r0, #1
   2793a:	9a03      	ldr	r2, [sp, #12]
   2793c:	7010      	strb	r0, [r2, #0]
   2793e:	6051      	str	r1, [r2, #4]
   27940:	e02c      	b.n	2799c <_ZN20complex_dynamic_type3app17hf3784686d84308b6E+0x9c>
   27942:	9d03      	ldr	r5, [sp, #12]
   27944:	a804      	add	r0, sp, #16
   27946:	2104      	movs	r1, #4
   27948:	7001      	strb	r1, [r0, #0]
   2794a:	4840      	ldr	r0, [pc, #256]	@ (27a4c <_ZN20complex_dynamic_type3app17hf3784686d84308b6E+0x14c>)
   2794c:	2351      	movs	r3, #81	@ 0x51
   2794e:	9c01      	ldr	r4, [sp, #4]
   27950:	4622      	mov	r2, r4
   27952:	df03      	svc	3
   27954:	2802      	cmp	r0, #2
   27956:	d10e      	bne.n	27976 <_ZN20complex_dynamic_type3app17hf3784686d84308b6E+0x76>
   27958:	2001      	movs	r0, #1
   2795a:	7028      	strb	r0, [r5, #0]
   2795c:	6069      	str	r1, [r5, #4]
   2795e:	a80e      	add	r0, sp, #56	@ 0x38
   27960:	7800      	ldrb	r0, [r0, #0]
   27962:	2802      	cmp	r0, #2
   27964:	d01a      	beq.n	2799c <_ZN20complex_dynamic_type3app17hf3784686d84308b6E+0x9c>
   27966:	2803      	cmp	r0, #3
   27968:	d013      	beq.n	27992 <_ZN20complex_dynamic_type3app17hf3784686d84308b6E+0x92>
   2796a:	4838      	ldr	r0, [pc, #224]	@ (27a4c <_ZN20complex_dynamic_type3app17hf3784686d84308b6E+0x14c>)
   2796c:	2104      	movs	r1, #4
   2796e:	2200      	movs	r2, #0
   27970:	4613      	mov	r3, r2
   27972:	df04      	svc	4
   27974:	e012      	b.n	2799c <_ZN20complex_dynamic_type3app17hf3784686d84308b6E+0x9c>
   27976:	a80e      	add	r0, sp, #56	@ 0x38
   27978:	2103      	movs	r1, #3
   2797a:	7001      	strb	r1, [r0, #0]
   2797c:	4833      	ldr	r0, [pc, #204]	@ (27a4c <_ZN20complex_dynamic_type3app17hf3784686d84308b6E+0x14c>)
   2797e:	2204      	movs	r2, #4
   27980:	2600      	movs	r6, #0
   27982:	4631      	mov	r1, r6
   27984:	4633      	mov	r3, r6
   27986:	df02      	svc	2
   27988:	2880      	cmp	r0, #128	@ 0x80
   2798a:	d21b      	bcs.n	279c4 <_ZN20complex_dynamic_type3app17hf3784686d84308b6E+0xc4>
   2798c:	2001      	movs	r0, #1
   2798e:	7028      	strb	r0, [r5, #0]
   27990:	6069      	str	r1, [r5, #4]
   27992:	482e      	ldr	r0, [pc, #184]	@ (27a4c <_ZN20complex_dynamic_type3app17hf3784686d84308b6E+0x14c>)
   27994:	2104      	movs	r1, #4
   27996:	2200      	movs	r2, #0
   27998:	4613      	mov	r3, r2
   2799a:	df03      	svc	3
   2799c:	a804      	add	r0, sp, #16
   2799e:	7800      	ldrb	r0, [r0, #0]
   279a0:	2802      	cmp	r0, #2
   279a2:	d045      	beq.n	27a30 <_ZN20complex_dynamic_type3app17hf3784686d84308b6E+0x130>
   279a4:	2804      	cmp	r0, #4
   279a6:	d106      	bne.n	279b6 <_ZN20complex_dynamic_type3app17hf3784686d84308b6E+0xb6>
   279a8:	4828      	ldr	r0, [pc, #160]	@ (27a4c <_ZN20complex_dynamic_type3app17hf3784686d84308b6E+0x14c>)
   279aa:	2100      	movs	r1, #0
   279ac:	460a      	mov	r2, r1
   279ae:	460b      	mov	r3, r1
   279b0:	df04      	svc	4
   279b2:	b023      	add	sp, #140	@ 0x8c
   279b4:	bdf0      	pop	{r4, r5, r6, r7, pc}
   279b6:	4825      	ldr	r0, [pc, #148]	@ (27a4c <_ZN20complex_dynamic_type3app17hf3784686d84308b6E+0x14c>)
   279b8:	2100      	movs	r1, #0
   279ba:	460a      	mov	r2, r1
   279bc:	460b      	mov	r3, r1
   279be:	df03      	svc	3
   279c0:	b023      	add	sp, #140	@ 0x8c
   279c2:	bdf0      	pop	{r4, r5, r6, r7, pc}
   279c4:	a804      	add	r0, sp, #16
   279c6:	7800      	ldrb	r0, [r0, #0]
   279c8:	2802      	cmp	r0, #2
   279ca:	d00c      	beq.n	279e6 <_ZN20complex_dynamic_type3app17hf3784686d84308b6E+0xe6>
   279cc:	2803      	cmp	r0, #3
   279ce:	d105      	bne.n	279dc <_ZN20complex_dynamic_type3app17hf3784686d84308b6E+0xdc>
   279d0:	481e      	ldr	r0, [pc, #120]	@ (27a4c <_ZN20complex_dynamic_type3app17hf3784686d84308b6E+0x14c>)
   279d2:	2100      	movs	r1, #0
   279d4:	460a      	mov	r2, r1
   279d6:	460b      	mov	r3, r1
   279d8:	df03      	svc	3
   279da:	e004      	b.n	279e6 <_ZN20complex_dynamic_type3app17hf3784686d84308b6E+0xe6>
   279dc:	481b      	ldr	r0, [pc, #108]	@ (27a4c <_ZN20complex_dynamic_type3app17hf3784686d84308b6E+0x14c>)
   279de:	2100      	movs	r1, #0
   279e0:	460a      	mov	r2, r1
   279e2:	460b      	mov	r3, r1
   279e4:	df04      	svc	4
   279e6:	a804      	add	r0, sp, #16
   279e8:	9900      	ldr	r1, [sp, #0]
   279ea:	7001      	strb	r1, [r0, #0]
   279ec:	a80e      	add	r0, sp, #56	@ 0x38
   279ee:	7800      	ldrb	r0, [r0, #0]
   279f0:	2804      	cmp	r0, #4
   279f2:	d007      	beq.n	27a04 <_ZN20complex_dynamic_type3app17hf3784686d84308b6E+0x104>
   279f4:	2803      	cmp	r0, #3
   279f6:	d11d      	bne.n	27a34 <_ZN20complex_dynamic_type3app17hf3784686d84308b6E+0x134>
   279f8:	4814      	ldr	r0, [pc, #80]	@ (27a4c <_ZN20complex_dynamic_type3app17hf3784686d84308b6E+0x14c>)
   279fa:	2104      	movs	r1, #4
   279fc:	2200      	movs	r2, #0
   279fe:	4613      	mov	r3, r2
   27a00:	df03      	svc	3
   27a02:	e004      	b.n	27a0e <_ZN20complex_dynamic_type3app17hf3784686d84308b6E+0x10e>
   27a04:	4811      	ldr	r0, [pc, #68]	@ (27a4c <_ZN20complex_dynamic_type3app17hf3784686d84308b6E+0x14c>)
   27a06:	2104      	movs	r1, #4
   27a08:	2200      	movs	r2, #0
   27a0a:	4613      	mov	r3, r2
   27a0c:	df04      	svc	4
   27a0e:	a804      	add	r0, sp, #16
   27a10:	7804      	ldrb	r4, [r0, #0]
   27a12:	1c68      	adds	r0, r5, #1
   27a14:	2251      	movs	r2, #81	@ 0x51
   27a16:	9901      	ldr	r1, [sp, #4]
   27a18:	f003 fb78 	bl	2b10c <__aeabi_memcpy>
   27a1c:	702e      	strb	r6, [r5, #0]
   27a1e:	2c02      	cmp	r4, #2
   27a20:	d006      	beq.n	27a30 <_ZN20complex_dynamic_type3app17hf3784686d84308b6E+0x130>
   27a22:	480a      	ldr	r0, [pc, #40]	@ (27a4c <_ZN20complex_dynamic_type3app17hf3784686d84308b6E+0x14c>)
   27a24:	2100      	movs	r1, #0
   27a26:	460a      	mov	r2, r1
   27a28:	460b      	mov	r3, r1
   27a2a:	2c04      	cmp	r4, #4
   27a2c:	d10a      	bne.n	27a44 <_ZN20complex_dynamic_type3app17hf3784686d84308b6E+0x144>
   27a2e:	df04      	svc	4
   27a30:	b023      	add	sp, #140	@ 0x8c
   27a32:	bdf0      	pop	{r4, r5, r6, r7, pc}
   27a34:	1c68      	adds	r0, r5, #1
   27a36:	2251      	movs	r2, #81	@ 0x51
   27a38:	4621      	mov	r1, r4
   27a3a:	f003 fb67 	bl	2b10c <__aeabi_memcpy>
   27a3e:	702e      	strb	r6, [r5, #0]
   27a40:	b023      	add	sp, #140	@ 0x8c
   27a42:	bdf0      	pop	{r4, r5, r6, r7, pc}
   27a44:	df03      	svc	3
   27a46:	b023      	add	sp, #140	@ 0x8c
   27a48:	bdf0      	pop	{r4, r5, r6, r7, pc}
   27a4a:	46c0      	nop			@ (mov r8, r8)
   27a4c:	00000a36 	.word	0x00000a36

00027a50 <_ZN20complex_dynamic_type3app17hf63c8648ad1832d6E>:
   27a50:	b5f0      	push	{r4, r5, r6, r7, lr}
   27a52:	af03      	add	r7, sp, #12
   27a54:	b09f      	sub	sp, #124	@ 0x7c
   27a56:	9002      	str	r0, [sp, #8]
   27a58:	a803      	add	r0, sp, #12
   27a5a:	2502      	movs	r5, #2
   27a5c:	7005      	strb	r5, [r0, #0]
   27a5e:	1c46      	adds	r6, r0, #1
   27a60:	2236      	movs	r2, #54	@ 0x36
   27a62:	9201      	str	r2, [sp, #4]
   27a64:	4630      	mov	r0, r6
   27a66:	f003 fb51 	bl	2b10c <__aeabi_memcpy>
   27a6a:	ac11      	add	r4, sp, #68	@ 0x44
   27a6c:	1c60      	adds	r0, r4, #1
   27a6e:	2134      	movs	r1, #52	@ 0x34
   27a70:	9000      	str	r0, [sp, #0]
   27a72:	f003 f98b 	bl	2ad8c <__aeabi_memclr>
   27a76:	7025      	strb	r5, [r4, #0]
   27a78:	4849      	ldr	r0, [pc, #292]	@ (27ba0 <_ZN20complex_dynamic_type3app17hf63c8648ad1832d6E+0x150>)
   27a7a:	2504      	movs	r5, #4
   27a7c:	4629      	mov	r1, r5
   27a7e:	4632      	mov	r2, r6
   27a80:	9b01      	ldr	r3, [sp, #4]
   27a82:	df04      	svc	4
   27a84:	2802      	cmp	r0, #2
   27a86:	d104      	bne.n	27a92 <_ZN20complex_dynamic_type3app17hf63c8648ad1832d6E+0x42>
   27a88:	2001      	movs	r0, #1
   27a8a:	9a02      	ldr	r2, [sp, #8]
   27a8c:	7010      	strb	r0, [r2, #0]
   27a8e:	6051      	str	r1, [r2, #4]
   27a90:	e02d      	b.n	27aee <_ZN20complex_dynamic_type3app17hf63c8648ad1832d6E+0x9e>
   27a92:	9c02      	ldr	r4, [sp, #8]
   27a94:	a803      	add	r0, sp, #12
   27a96:	7005      	strb	r5, [r0, #0]
   27a98:	4841      	ldr	r0, [pc, #260]	@ (27ba0 <_ZN20complex_dynamic_type3app17hf63c8648ad1832d6E+0x150>)
   27a9a:	2102      	movs	r1, #2
   27a9c:	2334      	movs	r3, #52	@ 0x34
   27a9e:	9a00      	ldr	r2, [sp, #0]
   27aa0:	df03      	svc	3
   27aa2:	2802      	cmp	r0, #2
   27aa4:	d10e      	bne.n	27ac4 <_ZN20complex_dynamic_type3app17hf63c8648ad1832d6E+0x74>
   27aa6:	2001      	movs	r0, #1
   27aa8:	7020      	strb	r0, [r4, #0]
   27aaa:	6061      	str	r1, [r4, #4]
   27aac:	a811      	add	r0, sp, #68	@ 0x44
   27aae:	7800      	ldrb	r0, [r0, #0]
   27ab0:	2802      	cmp	r0, #2
   27ab2:	d01c      	beq.n	27aee <_ZN20complex_dynamic_type3app17hf63c8648ad1832d6E+0x9e>
   27ab4:	2803      	cmp	r0, #3
   27ab6:	d015      	beq.n	27ae4 <_ZN20complex_dynamic_type3app17hf63c8648ad1832d6E+0x94>
   27ab8:	4839      	ldr	r0, [pc, #228]	@ (27ba0 <_ZN20complex_dynamic_type3app17hf63c8648ad1832d6E+0x150>)
   27aba:	2102      	movs	r1, #2
   27abc:	2200      	movs	r2, #0
   27abe:	4613      	mov	r3, r2
   27ac0:	df04      	svc	4
   27ac2:	e014      	b.n	27aee <_ZN20complex_dynamic_type3app17hf63c8648ad1832d6E+0x9e>
   27ac4:	a811      	add	r0, sp, #68	@ 0x44
   27ac6:	2103      	movs	r1, #3
   27ac8:	7001      	strb	r1, [r0, #0]
   27aca:	4835      	ldr	r0, [pc, #212]	@ (27ba0 <_ZN20complex_dynamic_type3app17hf63c8648ad1832d6E+0x150>)
   27acc:	2104      	movs	r1, #4
   27ace:	2602      	movs	r6, #2
   27ad0:	2300      	movs	r3, #0
   27ad2:	4632      	mov	r2, r6
   27ad4:	9301      	str	r3, [sp, #4]
   27ad6:	df02      	svc	2
   27ad8:	2880      	cmp	r0, #128	@ 0x80
   27ada:	4625      	mov	r5, r4
   27adc:	d21b      	bcs.n	27b16 <_ZN20complex_dynamic_type3app17hf63c8648ad1832d6E+0xc6>
   27ade:	2001      	movs	r0, #1
   27ae0:	7028      	strb	r0, [r5, #0]
   27ae2:	6069      	str	r1, [r5, #4]
   27ae4:	482e      	ldr	r0, [pc, #184]	@ (27ba0 <_ZN20complex_dynamic_type3app17hf63c8648ad1832d6E+0x150>)
   27ae6:	2102      	movs	r1, #2
   27ae8:	2200      	movs	r2, #0
   27aea:	4613      	mov	r3, r2
   27aec:	df03      	svc	3
   27aee:	a803      	add	r0, sp, #12
   27af0:	7800      	ldrb	r0, [r0, #0]
   27af2:	2802      	cmp	r0, #2
   27af4:	d045      	beq.n	27b82 <_ZN20complex_dynamic_type3app17hf63c8648ad1832d6E+0x132>
   27af6:	2804      	cmp	r0, #4
   27af8:	d106      	bne.n	27b08 <_ZN20complex_dynamic_type3app17hf63c8648ad1832d6E+0xb8>
   27afa:	4829      	ldr	r0, [pc, #164]	@ (27ba0 <_ZN20complex_dynamic_type3app17hf63c8648ad1832d6E+0x150>)
   27afc:	2104      	movs	r1, #4
   27afe:	2200      	movs	r2, #0
   27b00:	4613      	mov	r3, r2
   27b02:	df04      	svc	4
   27b04:	b01f      	add	sp, #124	@ 0x7c
   27b06:	bdf0      	pop	{r4, r5, r6, r7, pc}
   27b08:	4825      	ldr	r0, [pc, #148]	@ (27ba0 <_ZN20complex_dynamic_type3app17hf63c8648ad1832d6E+0x150>)
   27b0a:	2104      	movs	r1, #4
   27b0c:	2200      	movs	r2, #0
   27b0e:	4613      	mov	r3, r2
   27b10:	df03      	svc	3
   27b12:	b01f      	add	sp, #124	@ 0x7c
   27b14:	bdf0      	pop	{r4, r5, r6, r7, pc}
   27b16:	a803      	add	r0, sp, #12
   27b18:	7800      	ldrb	r0, [r0, #0]
   27b1a:	2802      	cmp	r0, #2
   27b1c:	d00c      	beq.n	27b38 <_ZN20complex_dynamic_type3app17hf63c8648ad1832d6E+0xe8>
   27b1e:	2803      	cmp	r0, #3
   27b20:	d105      	bne.n	27b2e <_ZN20complex_dynamic_type3app17hf63c8648ad1832d6E+0xde>
   27b22:	481f      	ldr	r0, [pc, #124]	@ (27ba0 <_ZN20complex_dynamic_type3app17hf63c8648ad1832d6E+0x150>)
   27b24:	2104      	movs	r1, #4
   27b26:	2200      	movs	r2, #0
   27b28:	4613      	mov	r3, r2
   27b2a:	df03      	svc	3
   27b2c:	e004      	b.n	27b38 <_ZN20complex_dynamic_type3app17hf63c8648ad1832d6E+0xe8>
   27b2e:	481c      	ldr	r0, [pc, #112]	@ (27ba0 <_ZN20complex_dynamic_type3app17hf63c8648ad1832d6E+0x150>)
   27b30:	2104      	movs	r1, #4
   27b32:	2200      	movs	r2, #0
   27b34:	4613      	mov	r3, r2
   27b36:	df04      	svc	4
   27b38:	a803      	add	r0, sp, #12
   27b3a:	7006      	strb	r6, [r0, #0]
   27b3c:	a811      	add	r0, sp, #68	@ 0x44
   27b3e:	7800      	ldrb	r0, [r0, #0]
   27b40:	2804      	cmp	r0, #4
   27b42:	d007      	beq.n	27b54 <_ZN20complex_dynamic_type3app17hf63c8648ad1832d6E+0x104>
   27b44:	2803      	cmp	r0, #3
   27b46:	d11e      	bne.n	27b86 <_ZN20complex_dynamic_type3app17hf63c8648ad1832d6E+0x136>
   27b48:	4815      	ldr	r0, [pc, #84]	@ (27ba0 <_ZN20complex_dynamic_type3app17hf63c8648ad1832d6E+0x150>)
   27b4a:	2102      	movs	r1, #2
   27b4c:	2200      	movs	r2, #0
   27b4e:	4613      	mov	r3, r2
   27b50:	df03      	svc	3
   27b52:	e004      	b.n	27b5e <_ZN20complex_dynamic_type3app17hf63c8648ad1832d6E+0x10e>
   27b54:	4812      	ldr	r0, [pc, #72]	@ (27ba0 <_ZN20complex_dynamic_type3app17hf63c8648ad1832d6E+0x150>)
   27b56:	2102      	movs	r1, #2
   27b58:	2200      	movs	r2, #0
   27b5a:	4613      	mov	r3, r2
   27b5c:	df04      	svc	4
   27b5e:	a803      	add	r0, sp, #12
   27b60:	7804      	ldrb	r4, [r0, #0]
   27b62:	1c68      	adds	r0, r5, #1
   27b64:	2234      	movs	r2, #52	@ 0x34
   27b66:	9900      	ldr	r1, [sp, #0]
   27b68:	f003 fad0 	bl	2b10c <__aeabi_memcpy>
   27b6c:	9801      	ldr	r0, [sp, #4]
   27b6e:	7028      	strb	r0, [r5, #0]
   27b70:	2c02      	cmp	r4, #2
   27b72:	d006      	beq.n	27b82 <_ZN20complex_dynamic_type3app17hf63c8648ad1832d6E+0x132>
   27b74:	480a      	ldr	r0, [pc, #40]	@ (27ba0 <_ZN20complex_dynamic_type3app17hf63c8648ad1832d6E+0x150>)
   27b76:	2104      	movs	r1, #4
   27b78:	2200      	movs	r2, #0
   27b7a:	4613      	mov	r3, r2
   27b7c:	2c04      	cmp	r4, #4
   27b7e:	d10b      	bne.n	27b98 <_ZN20complex_dynamic_type3app17hf63c8648ad1832d6E+0x148>
   27b80:	df04      	svc	4
   27b82:	b01f      	add	sp, #124	@ 0x7c
   27b84:	bdf0      	pop	{r4, r5, r6, r7, pc}
   27b86:	1c68      	adds	r0, r5, #1
   27b88:	2234      	movs	r2, #52	@ 0x34
   27b8a:	9900      	ldr	r1, [sp, #0]
   27b8c:	f003 fabe 	bl	2b10c <__aeabi_memcpy>
   27b90:	9801      	ldr	r0, [sp, #4]
   27b92:	7028      	strb	r0, [r5, #0]
   27b94:	b01f      	add	sp, #124	@ 0x7c
   27b96:	bdf0      	pop	{r4, r5, r6, r7, pc}
   27b98:	df03      	svc	3
   27b9a:	b01f      	add	sp, #124	@ 0x7c
   27b9c:	bdf0      	pop	{r4, r5, r6, r7, pc}
   27b9e:	46c0      	nop			@ (mov r8, r8)
   27ba0:	000023c6 	.word	0x000023c6

00027ba4 <_ZN20complex_dynamic_type3app17hf879849aa6482b41E>:
   27ba4:	b5f0      	push	{r4, r5, r6, r7, lr}
   27ba6:	af03      	add	r7, sp, #12
   27ba8:	b09b      	sub	sp, #108	@ 0x6c
   27baa:	9003      	str	r0, [sp, #12]
   27bac:	a804      	add	r0, sp, #16
   27bae:	2402      	movs	r4, #2
   27bb0:	7004      	strb	r4, [r0, #0]
   27bb2:	1c40      	adds	r0, r0, #1
   27bb4:	9002      	str	r0, [sp, #8]
   27bb6:	250e      	movs	r5, #14
   27bb8:	462a      	mov	r2, r5
   27bba:	f003 faa7 	bl	2b10c <__aeabi_memcpy>
   27bbe:	ae08      	add	r6, sp, #32
   27bc0:	1c70      	adds	r0, r6, #1
   27bc2:	2148      	movs	r1, #72	@ 0x48
   27bc4:	9001      	str	r0, [sp, #4]
   27bc6:	f003 f8e1 	bl	2ad8c <__aeabi_memclr>
   27bca:	9400      	str	r4, [sp, #0]
   27bcc:	7034      	strb	r4, [r6, #0]
   27bce:	484a      	ldr	r0, [pc, #296]	@ (27cf8 <_ZN20complex_dynamic_type3app17hf879849aa6482b41E+0x154>)
   27bd0:	2603      	movs	r6, #3
   27bd2:	4631      	mov	r1, r6
   27bd4:	9a02      	ldr	r2, [sp, #8]
   27bd6:	462b      	mov	r3, r5
   27bd8:	df04      	svc	4
   27bda:	2802      	cmp	r0, #2
   27bdc:	d104      	bne.n	27be8 <_ZN20complex_dynamic_type3app17hf879849aa6482b41E+0x44>
   27bde:	2001      	movs	r0, #1
   27be0:	9a03      	ldr	r2, [sp, #12]
   27be2:	7010      	strb	r0, [r2, #0]
   27be4:	6051      	str	r1, [r2, #4]
   27be6:	e02c      	b.n	27c42 <_ZN20complex_dynamic_type3app17hf879849aa6482b41E+0x9e>
   27be8:	9d03      	ldr	r5, [sp, #12]
   27bea:	a804      	add	r0, sp, #16
   27bec:	2104      	movs	r1, #4
   27bee:	7001      	strb	r1, [r0, #0]
   27bf0:	4841      	ldr	r0, [pc, #260]	@ (27cf8 <_ZN20complex_dynamic_type3app17hf879849aa6482b41E+0x154>)
   27bf2:	2108      	movs	r1, #8
   27bf4:	2348      	movs	r3, #72	@ 0x48
   27bf6:	9c01      	ldr	r4, [sp, #4]
   27bf8:	4622      	mov	r2, r4
   27bfa:	df03      	svc	3
   27bfc:	2802      	cmp	r0, #2
   27bfe:	d10e      	bne.n	27c1e <_ZN20complex_dynamic_type3app17hf879849aa6482b41E+0x7a>
   27c00:	2001      	movs	r0, #1
   27c02:	7028      	strb	r0, [r5, #0]
   27c04:	6069      	str	r1, [r5, #4]
   27c06:	a808      	add	r0, sp, #32
   27c08:	7800      	ldrb	r0, [r0, #0]
   27c0a:	2802      	cmp	r0, #2
   27c0c:	d019      	beq.n	27c42 <_ZN20complex_dynamic_type3app17hf879849aa6482b41E+0x9e>
   27c0e:	2803      	cmp	r0, #3
   27c10:	d012      	beq.n	27c38 <_ZN20complex_dynamic_type3app17hf879849aa6482b41E+0x94>
   27c12:	4839      	ldr	r0, [pc, #228]	@ (27cf8 <_ZN20complex_dynamic_type3app17hf879849aa6482b41E+0x154>)
   27c14:	2108      	movs	r1, #8
   27c16:	2200      	movs	r2, #0
   27c18:	4613      	mov	r3, r2
   27c1a:	df04      	svc	4
   27c1c:	e011      	b.n	27c42 <_ZN20complex_dynamic_type3app17hf879849aa6482b41E+0x9e>
   27c1e:	a808      	add	r0, sp, #32
   27c20:	7006      	strb	r6, [r0, #0]
   27c22:	4835      	ldr	r0, [pc, #212]	@ (27cf8 <_ZN20complex_dynamic_type3app17hf879849aa6482b41E+0x154>)
   27c24:	2208      	movs	r2, #8
   27c26:	2300      	movs	r3, #0
   27c28:	4631      	mov	r1, r6
   27c2a:	9302      	str	r3, [sp, #8]
   27c2c:	df02      	svc	2
   27c2e:	2880      	cmp	r0, #128	@ 0x80
   27c30:	d21b      	bcs.n	27c6a <_ZN20complex_dynamic_type3app17hf879849aa6482b41E+0xc6>
   27c32:	2001      	movs	r0, #1
   27c34:	7028      	strb	r0, [r5, #0]
   27c36:	6069      	str	r1, [r5, #4]
   27c38:	482f      	ldr	r0, [pc, #188]	@ (27cf8 <_ZN20complex_dynamic_type3app17hf879849aa6482b41E+0x154>)
   27c3a:	2108      	movs	r1, #8
   27c3c:	2200      	movs	r2, #0
   27c3e:	4613      	mov	r3, r2
   27c40:	df03      	svc	3
   27c42:	a804      	add	r0, sp, #16
   27c44:	7800      	ldrb	r0, [r0, #0]
   27c46:	2802      	cmp	r0, #2
   27c48:	d048      	beq.n	27cdc <_ZN20complex_dynamic_type3app17hf879849aa6482b41E+0x138>
   27c4a:	2804      	cmp	r0, #4
   27c4c:	d106      	bne.n	27c5c <_ZN20complex_dynamic_type3app17hf879849aa6482b41E+0xb8>
   27c4e:	482a      	ldr	r0, [pc, #168]	@ (27cf8 <_ZN20complex_dynamic_type3app17hf879849aa6482b41E+0x154>)
   27c50:	2103      	movs	r1, #3
   27c52:	2200      	movs	r2, #0
   27c54:	4613      	mov	r3, r2
   27c56:	df04      	svc	4
   27c58:	b01b      	add	sp, #108	@ 0x6c
   27c5a:	bdf0      	pop	{r4, r5, r6, r7, pc}
   27c5c:	4826      	ldr	r0, [pc, #152]	@ (27cf8 <_ZN20complex_dynamic_type3app17hf879849aa6482b41E+0x154>)
   27c5e:	2103      	movs	r1, #3
   27c60:	2200      	movs	r2, #0
   27c62:	4613      	mov	r3, r2
   27c64:	df03      	svc	3
   27c66:	b01b      	add	sp, #108	@ 0x6c
   27c68:	bdf0      	pop	{r4, r5, r6, r7, pc}
   27c6a:	a804      	add	r0, sp, #16
   27c6c:	7800      	ldrb	r0, [r0, #0]
   27c6e:	2802      	cmp	r0, #2
   27c70:	d00c      	beq.n	27c8c <_ZN20complex_dynamic_type3app17hf879849aa6482b41E+0xe8>
   27c72:	2803      	cmp	r0, #3
   27c74:	d105      	bne.n	27c82 <_ZN20complex_dynamic_type3app17hf879849aa6482b41E+0xde>
   27c76:	4820      	ldr	r0, [pc, #128]	@ (27cf8 <_ZN20complex_dynamic_type3app17hf879849aa6482b41E+0x154>)
   27c78:	2103      	movs	r1, #3
   27c7a:	2200      	movs	r2, #0
   27c7c:	4613      	mov	r3, r2
   27c7e:	df03      	svc	3
   27c80:	e004      	b.n	27c8c <_ZN20complex_dynamic_type3app17hf879849aa6482b41E+0xe8>
   27c82:	481d      	ldr	r0, [pc, #116]	@ (27cf8 <_ZN20complex_dynamic_type3app17hf879849aa6482b41E+0x154>)
   27c84:	2103      	movs	r1, #3
   27c86:	2200      	movs	r2, #0
   27c88:	4613      	mov	r3, r2
   27c8a:	df04      	svc	4
   27c8c:	a804      	add	r0, sp, #16
   27c8e:	9900      	ldr	r1, [sp, #0]
   27c90:	7001      	strb	r1, [r0, #0]
   27c92:	a808      	add	r0, sp, #32
   27c94:	7800      	ldrb	r0, [r0, #0]
   27c96:	2804      	cmp	r0, #4
   27c98:	d008      	beq.n	27cac <_ZN20complex_dynamic_type3app17hf879849aa6482b41E+0x108>
   27c9a:	2803      	cmp	r0, #3
   27c9c:	d120      	bne.n	27ce0 <_ZN20complex_dynamic_type3app17hf879849aa6482b41E+0x13c>
   27c9e:	4626      	mov	r6, r4
   27ca0:	4815      	ldr	r0, [pc, #84]	@ (27cf8 <_ZN20complex_dynamic_type3app17hf879849aa6482b41E+0x154>)
   27ca2:	2108      	movs	r1, #8
   27ca4:	2200      	movs	r2, #0
   27ca6:	4613      	mov	r3, r2
   27ca8:	df03      	svc	3
   27caa:	e005      	b.n	27cb8 <_ZN20complex_dynamic_type3app17hf879849aa6482b41E+0x114>
   27cac:	4626      	mov	r6, r4
   27cae:	4812      	ldr	r0, [pc, #72]	@ (27cf8 <_ZN20complex_dynamic_type3app17hf879849aa6482b41E+0x154>)
   27cb0:	2108      	movs	r1, #8
   27cb2:	2200      	movs	r2, #0
   27cb4:	4613      	mov	r3, r2
   27cb6:	df04      	svc	4
   27cb8:	a804      	add	r0, sp, #16
   27cba:	7804      	ldrb	r4, [r0, #0]
   27cbc:	1c68      	adds	r0, r5, #1
   27cbe:	2248      	movs	r2, #72	@ 0x48
   27cc0:	4631      	mov	r1, r6
   27cc2:	f003 fa23 	bl	2b10c <__aeabi_memcpy>
   27cc6:	9802      	ldr	r0, [sp, #8]
   27cc8:	7028      	strb	r0, [r5, #0]
   27cca:	2c02      	cmp	r4, #2
   27ccc:	d006      	beq.n	27cdc <_ZN20complex_dynamic_type3app17hf879849aa6482b41E+0x138>
   27cce:	480a      	ldr	r0, [pc, #40]	@ (27cf8 <_ZN20complex_dynamic_type3app17hf879849aa6482b41E+0x154>)
   27cd0:	2103      	movs	r1, #3
   27cd2:	2200      	movs	r2, #0
   27cd4:	4613      	mov	r3, r2
   27cd6:	2c04      	cmp	r4, #4
   27cd8:	d10b      	bne.n	27cf2 <_ZN20complex_dynamic_type3app17hf879849aa6482b41E+0x14e>
   27cda:	df04      	svc	4
   27cdc:	b01b      	add	sp, #108	@ 0x6c
   27cde:	bdf0      	pop	{r4, r5, r6, r7, pc}
   27ce0:	1c68      	adds	r0, r5, #1
   27ce2:	2248      	movs	r2, #72	@ 0x48
   27ce4:	4621      	mov	r1, r4
   27ce6:	f003 fa11 	bl	2b10c <__aeabi_memcpy>
   27cea:	9802      	ldr	r0, [sp, #8]
   27cec:	7028      	strb	r0, [r5, #0]
   27cee:	b01b      	add	sp, #108	@ 0x6c
   27cf0:	bdf0      	pop	{r4, r5, r6, r7, pc}
   27cf2:	df03      	svc	3
   27cf4:	b01b      	add	sp, #108	@ 0x6c
   27cf6:	bdf0      	pop	{r4, r5, r6, r7, pc}
   27cf8:	000012d1 	.word	0x000012d1

00027cfc <_start>:
   27cfc:	b5f0      	push	{r4, r5, r6, r7, lr}
   27cfe:	af03      	add	r7, sp, #12
   27d00:	4ed1      	ldr	r6, [pc, #836]	@ (28048 <_start+0x34c>)
   27d02:	44b5      	add	sp, r6
   27d04:	48d1      	ldr	r0, [pc, #836]	@ (2804c <_start+0x350>)
   27d06:	4468      	add	r0, sp
   27d08:	9008      	str	r0, [sp, #32]
   27d0a:	48d1      	ldr	r0, [pc, #836]	@ (28050 <_start+0x354>)
   27d0c:	4468      	add	r0, sp
   27d0e:	9007      	str	r0, [sp, #28]
   27d10:	ac1f      	add	r4, sp, #124	@ 0x7c
   27d12:	1c60      	adds	r0, r4, #1
   27d14:	900b      	str	r0, [sp, #44]	@ 0x2c
   27d16:	2628      	movs	r6, #40	@ 0x28
   27d18:	4631      	mov	r1, r6
   27d1a:	f003 f837 	bl	2ad8c <__aeabi_memclr>
   27d1e:	2502      	movs	r5, #2
   27d20:	7025      	strb	r5, [r4, #0]
   27d22:	4ccc      	ldr	r4, [pc, #816]	@ (28054 <_start+0x358>)
   27d24:	446c      	add	r4, sp
   27d26:	1c60      	adds	r0, r4, #1
   27d28:	2151      	movs	r1, #81	@ 0x51
   27d2a:	900a      	str	r0, [sp, #40]	@ 0x28
   27d2c:	f003 f82e 	bl	2ad8c <__aeabi_memclr>
   27d30:	9509      	str	r5, [sp, #36]	@ 0x24
   27d32:	7025      	strb	r5, [r4, #0]
   27d34:	48c8      	ldr	r0, [pc, #800]	@ (28058 <_start+0x35c>)
   27d36:	2109      	movs	r1, #9
   27d38:	9a0b      	ldr	r2, [sp, #44]	@ 0x2c
   27d3a:	4633      	mov	r3, r6
   27d3c:	df04      	svc	4
   27d3e:	ac4b      	add	r4, sp, #300	@ 0x12c
   27d40:	4ec6      	ldr	r6, [pc, #792]	@ (2805c <_start+0x360>)
   27d42:	446e      	add	r6, sp
   27d44:	4dc6      	ldr	r5, [pc, #792]	@ (28060 <_start+0x364>)
   27d46:	446d      	add	r5, sp
   27d48:	2802      	cmp	r0, #2
   27d4a:	d02b      	beq.n	27da4 <_start+0xa8>
   27d4c:	a81f      	add	r0, sp, #124	@ 0x7c
   27d4e:	2104      	movs	r1, #4
   27d50:	910b      	str	r1, [sp, #44]	@ 0x2c
   27d52:	7001      	strb	r1, [r0, #0]
   27d54:	48c0      	ldr	r0, [pc, #768]	@ (28058 <_start+0x35c>)
   27d56:	2109      	movs	r1, #9
   27d58:	2351      	movs	r3, #81	@ 0x51
   27d5a:	9a0a      	ldr	r2, [sp, #40]	@ 0x28
   27d5c:	df03      	svc	3
   27d5e:	2802      	cmp	r0, #2
   27d60:	d10d      	bne.n	27d7e <_start+0x82>
   27d62:	48bc      	ldr	r0, [pc, #752]	@ (28054 <_start+0x358>)
   27d64:	4468      	add	r0, sp
   27d66:	7800      	ldrb	r0, [r0, #0]
   27d68:	2802      	cmp	r0, #2
   27d6a:	d01b      	beq.n	27da4 <_start+0xa8>
   27d6c:	460c      	mov	r4, r1
   27d6e:	2803      	cmp	r0, #3
   27d70:	d012      	beq.n	27d98 <_start+0x9c>
   27d72:	48b9      	ldr	r0, [pc, #740]	@ (28058 <_start+0x35c>)
   27d74:	2109      	movs	r1, #9
   27d76:	2200      	movs	r2, #0
   27d78:	4613      	mov	r3, r2
   27d7a:	df04      	svc	4
   27d7c:	e011      	b.n	27da2 <_start+0xa6>
   27d7e:	48b5      	ldr	r0, [pc, #724]	@ (28054 <_start+0x358>)
   27d80:	4468      	add	r0, sp
   27d82:	2103      	movs	r1, #3
   27d84:	9106      	str	r1, [sp, #24]
   27d86:	7001      	strb	r1, [r0, #0]
   27d88:	48b3      	ldr	r0, [pc, #716]	@ (28058 <_start+0x35c>)
   27d8a:	2109      	movs	r1, #9
   27d8c:	2300      	movs	r3, #0
   27d8e:	460a      	mov	r2, r1
   27d90:	df02      	svc	2
   27d92:	2880      	cmp	r0, #128	@ 0x80
   27d94:	d220      	bcs.n	27dd8 <_start+0xdc>
   27d96:	460c      	mov	r4, r1
   27d98:	48af      	ldr	r0, [pc, #700]	@ (28058 <_start+0x35c>)
   27d9a:	2109      	movs	r1, #9
   27d9c:	2200      	movs	r2, #0
   27d9e:	4613      	mov	r3, r2
   27da0:	df03      	svc	3
   27da2:	4621      	mov	r1, r4
   27da4:	a81f      	add	r0, sp, #124	@ 0x7c
   27da6:	7800      	ldrb	r0, [r0, #0]
   27da8:	2802      	cmp	r0, #2
   27daa:	d010      	beq.n	27dce <_start+0xd2>
   27dac:	2804      	cmp	r0, #4
   27dae:	d107      	bne.n	27dc0 <_start+0xc4>
   27db0:	48a9      	ldr	r0, [pc, #676]	@ (28058 <_start+0x35c>)
   27db2:	2209      	movs	r2, #9
   27db4:	2300      	movs	r3, #0
   27db6:	460c      	mov	r4, r1
   27db8:	4611      	mov	r1, r2
   27dba:	461a      	mov	r2, r3
   27dbc:	df04      	svc	4
   27dbe:	e005      	b.n	27dcc <_start+0xd0>
   27dc0:	460c      	mov	r4, r1
   27dc2:	48a5      	ldr	r0, [pc, #660]	@ (28058 <_start+0x35c>)
   27dc4:	2109      	movs	r1, #9
   27dc6:	2200      	movs	r2, #0
   27dc8:	4613      	mov	r3, r2
   27dca:	df03      	svc	3
   27dcc:	4621      	mov	r1, r4
   27dce:	2001      	movs	r0, #1
   27dd0:	1ffe      	subs	r6, r7, #7
   27dd2:	3e05      	subs	r6, #5
   27dd4:	46b5      	mov	sp, r6
   27dd6:	bdf0      	pop	{r4, r5, r6, r7, pc}
   27dd8:	a81f      	add	r0, sp, #124	@ 0x7c
   27dda:	7800      	ldrb	r0, [r0, #0]
   27ddc:	2802      	cmp	r0, #2
   27dde:	d00c      	beq.n	27dfa <_start+0xfe>
   27de0:	2803      	cmp	r0, #3
   27de2:	d105      	bne.n	27df0 <_start+0xf4>
   27de4:	489c      	ldr	r0, [pc, #624]	@ (28058 <_start+0x35c>)
   27de6:	2109      	movs	r1, #9
   27de8:	2200      	movs	r2, #0
   27dea:	4613      	mov	r3, r2
   27dec:	df03      	svc	3
   27dee:	e004      	b.n	27dfa <_start+0xfe>
   27df0:	4899      	ldr	r0, [pc, #612]	@ (28058 <_start+0x35c>)
   27df2:	2109      	movs	r1, #9
   27df4:	2200      	movs	r2, #0
   27df6:	4613      	mov	r3, r2
   27df8:	df04      	svc	4
   27dfa:	a81f      	add	r0, sp, #124	@ 0x7c
   27dfc:	9909      	ldr	r1, [sp, #36]	@ 0x24
   27dfe:	7001      	strb	r1, [r0, #0]
   27e00:	4894      	ldr	r0, [pc, #592]	@ (28054 <_start+0x358>)
   27e02:	4468      	add	r0, sp
   27e04:	7800      	ldrb	r0, [r0, #0]
   27e06:	2804      	cmp	r0, #4
   27e08:	9504      	str	r5, [sp, #16]
   27e0a:	9603      	str	r6, [sp, #12]
   27e0c:	9405      	str	r4, [sp, #20]
   27e0e:	d007      	beq.n	27e20 <_start+0x124>
   27e10:	2803      	cmp	r0, #3
   27e12:	d129      	bne.n	27e68 <_start+0x16c>
   27e14:	4890      	ldr	r0, [pc, #576]	@ (28058 <_start+0x35c>)
   27e16:	2109      	movs	r1, #9
   27e18:	2200      	movs	r2, #0
   27e1a:	4613      	mov	r3, r2
   27e1c:	df03      	svc	3
   27e1e:	e004      	b.n	27e2a <_start+0x12e>
   27e20:	488d      	ldr	r0, [pc, #564]	@ (28058 <_start+0x35c>)
   27e22:	2109      	movs	r1, #9
   27e24:	2200      	movs	r2, #0
   27e26:	4613      	mov	r3, r2
   27e28:	df04      	svc	4
   27e2a:	9a0a      	ldr	r2, [sp, #40]	@ 0x28
   27e2c:	7890      	ldrb	r0, [r2, #2]
   27e2e:	a92f      	add	r1, sp, #188	@ 0xbc
   27e30:	7088      	strb	r0, [r1, #2]
   27e32:	7810      	ldrb	r0, [r2, #0]
   27e34:	7852      	ldrb	r2, [r2, #1]
   27e36:	0212      	lsls	r2, r2, #8
   27e38:	1810      	adds	r0, r2, r0
   27e3a:	8008      	strh	r0, [r1, #0]
   27e3c:	a81f      	add	r0, sp, #124	@ 0x7c
   27e3e:	7804      	ldrb	r4, [r0, #0]
   27e40:	9808      	ldr	r0, [sp, #32]
   27e42:	6e00      	ldr	r0, [r0, #96]	@ 0x60
   27e44:	900a      	str	r0, [sp, #40]	@ 0x28
   27e46:	4983      	ldr	r1, [pc, #524]	@ (28054 <_start+0x358>)
   27e48:	4469      	add	r1, sp
   27e4a:	3108      	adds	r1, #8
   27e4c:	a80c      	add	r0, sp, #48	@ 0x30
   27e4e:	224a      	movs	r2, #74	@ 0x4a
   27e50:	f002 fffc 	bl	2ae4c <__aeabi_memcpy4>
   27e54:	2c02      	cmp	r4, #2
   27e56:	d01c      	beq.n	27e92 <_start+0x196>
   27e58:	487f      	ldr	r0, [pc, #508]	@ (28058 <_start+0x35c>)
   27e5a:	2109      	movs	r1, #9
   27e5c:	2200      	movs	r2, #0
   27e5e:	4613      	mov	r3, r2
   27e60:	2c04      	cmp	r4, #4
   27e62:	d115      	bne.n	27e90 <_start+0x194>
   27e64:	df04      	svc	4
   27e66:	e014      	b.n	27e92 <_start+0x196>
   27e68:	9a0a      	ldr	r2, [sp, #40]	@ 0x28
   27e6a:	7890      	ldrb	r0, [r2, #2]
   27e6c:	a92f      	add	r1, sp, #188	@ 0xbc
   27e6e:	7088      	strb	r0, [r1, #2]
   27e70:	7810      	ldrb	r0, [r2, #0]
   27e72:	7852      	ldrb	r2, [r2, #1]
   27e74:	0212      	lsls	r2, r2, #8
   27e76:	1810      	adds	r0, r2, r0
   27e78:	8008      	strh	r0, [r1, #0]
   27e7a:	9808      	ldr	r0, [sp, #32]
   27e7c:	6e00      	ldr	r0, [r0, #96]	@ 0x60
   27e7e:	900a      	str	r0, [sp, #40]	@ 0x28
   27e80:	4974      	ldr	r1, [pc, #464]	@ (28054 <_start+0x358>)
   27e82:	4469      	add	r1, sp
   27e84:	3108      	adds	r1, #8
   27e86:	a80c      	add	r0, sp, #48	@ 0x30
   27e88:	224a      	movs	r2, #74	@ 0x4a
   27e8a:	f002 ffdf 	bl	2ae4c <__aeabi_memcpy4>
   27e8e:	e000      	b.n	27e92 <_start+0x196>
   27e90:	df03      	svc	3
   27e92:	a82f      	add	r0, sp, #188	@ 0xbc
   27e94:	7881      	ldrb	r1, [r0, #2]
   27e96:	4e6f      	ldr	r6, [pc, #444]	@ (28054 <_start+0x358>)
   27e98:	446e      	add	r6, sp
   27e9a:	70f1      	strb	r1, [r6, #3]
   27e9c:	7840      	ldrb	r0, [r0, #1]
   27e9e:	70b0      	strb	r0, [r6, #2]
   27ea0:	982f      	ldr	r0, [sp, #188]	@ 0xbc
   27ea2:	7070      	strb	r0, [r6, #1]
   27ea4:	4c69      	ldr	r4, [pc, #420]	@ (2804c <_start+0x350>)
   27ea6:	446c      	add	r4, sp
   27ea8:	a90c      	add	r1, sp, #48	@ 0x30
   27eaa:	254a      	movs	r5, #74	@ 0x4a
   27eac:	4620      	mov	r0, r4
   27eae:	462a      	mov	r2, r5
   27eb0:	f002 ffcc 	bl	2ae4c <__aeabi_memcpy4>
   27eb4:	4630      	mov	r0, r6
   27eb6:	3008      	adds	r0, #8
   27eb8:	4621      	mov	r1, r4
   27eba:	462a      	mov	r2, r5
   27ebc:	f002 ffc6 	bl	2ae4c <__aeabi_memcpy4>
   27ec0:	9c09      	ldr	r4, [sp, #36]	@ 0x24
   27ec2:	7034      	strb	r4, [r6, #0]
   27ec4:	9808      	ldr	r0, [sp, #32]
   27ec6:	990a      	ldr	r1, [sp, #40]	@ 0x28
   27ec8:	6601      	str	r1, [r0, #96]	@ 0x60
   27eca:	4d60      	ldr	r5, [pc, #384]	@ (2804c <_start+0x350>)
   27ecc:	446d      	add	r5, sp
   27ece:	1c68      	adds	r0, r5, #1
   27ed0:	2146      	movs	r1, #70	@ 0x46
   27ed2:	900a      	str	r0, [sp, #40]	@ 0x28
   27ed4:	f002 ff5a 	bl	2ad8c <__aeabi_memclr>
   27ed8:	702c      	strb	r4, [r5, #0]
   27eda:	1c72      	adds	r2, r6, #1
   27edc:	4861      	ldr	r0, [pc, #388]	@ (28064 <_start+0x368>)
   27ede:	2107      	movs	r1, #7
   27ee0:	2351      	movs	r3, #81	@ 0x51
   27ee2:	df04      	svc	4
   27ee4:	2802      	cmp	r0, #2
   27ee6:	d02b      	beq.n	27f40 <_start+0x244>
   27ee8:	485a      	ldr	r0, [pc, #360]	@ (28054 <_start+0x358>)
   27eea:	4468      	add	r0, sp
   27eec:	990b      	ldr	r1, [sp, #44]	@ 0x2c
   27eee:	7001      	strb	r1, [r0, #0]
   27ef0:	485c      	ldr	r0, [pc, #368]	@ (28064 <_start+0x368>)
   27ef2:	2100      	movs	r1, #0
   27ef4:	2346      	movs	r3, #70	@ 0x46
   27ef6:	9c0a      	ldr	r4, [sp, #40]	@ 0x28
   27ef8:	4622      	mov	r2, r4
   27efa:	df03      	svc	3
   27efc:	2802      	cmp	r0, #2
   27efe:	d10d      	bne.n	27f1c <_start+0x220>
   27f00:	4852      	ldr	r0, [pc, #328]	@ (2804c <_start+0x350>)
   27f02:	4468      	add	r0, sp
   27f04:	7800      	ldrb	r0, [r0, #0]
   27f06:	2802      	cmp	r0, #2
   27f08:	d01a      	beq.n	27f40 <_start+0x244>
   27f0a:	460c      	mov	r4, r1
   27f0c:	2803      	cmp	r0, #3
   27f0e:	d011      	beq.n	27f34 <_start+0x238>
   27f10:	4854      	ldr	r0, [pc, #336]	@ (28064 <_start+0x368>)
   27f12:	2100      	movs	r1, #0
   27f14:	460a      	mov	r2, r1
   27f16:	460b      	mov	r3, r1
   27f18:	df04      	svc	4
   27f1a:	e010      	b.n	27f3e <_start+0x242>
   27f1c:	484b      	ldr	r0, [pc, #300]	@ (2804c <_start+0x350>)
   27f1e:	4468      	add	r0, sp
   27f20:	9906      	ldr	r1, [sp, #24]
   27f22:	7001      	strb	r1, [r0, #0]
   27f24:	484f      	ldr	r0, [pc, #316]	@ (28064 <_start+0x368>)
   27f26:	2107      	movs	r1, #7
   27f28:	2200      	movs	r2, #0
   27f2a:	4613      	mov	r3, r2
   27f2c:	df02      	svc	2
   27f2e:	2880      	cmp	r0, #128	@ 0x80
   27f30:	d21d      	bcs.n	27f6e <_start+0x272>
   27f32:	460c      	mov	r4, r1
   27f34:	484b      	ldr	r0, [pc, #300]	@ (28064 <_start+0x368>)
   27f36:	2100      	movs	r1, #0
   27f38:	460a      	mov	r2, r1
   27f3a:	460b      	mov	r3, r1
   27f3c:	df03      	svc	3
   27f3e:	4621      	mov	r1, r4
   27f40:	4844      	ldr	r0, [pc, #272]	@ (28054 <_start+0x358>)
   27f42:	4468      	add	r0, sp
   27f44:	7800      	ldrb	r0, [r0, #0]
   27f46:	2802      	cmp	r0, #2
   27f48:	d100      	bne.n	27f4c <_start+0x250>
   27f4a:	e740      	b.n	27dce <_start+0xd2>
   27f4c:	2804      	cmp	r0, #4
   27f4e:	d107      	bne.n	27f60 <_start+0x264>
   27f50:	4844      	ldr	r0, [pc, #272]	@ (28064 <_start+0x368>)
   27f52:	2207      	movs	r2, #7
   27f54:	2300      	movs	r3, #0
   27f56:	460c      	mov	r4, r1
   27f58:	4611      	mov	r1, r2
   27f5a:	461a      	mov	r2, r3
   27f5c:	df04      	svc	4
   27f5e:	e735      	b.n	27dcc <_start+0xd0>
   27f60:	460c      	mov	r4, r1
   27f62:	4840      	ldr	r0, [pc, #256]	@ (28064 <_start+0x368>)
   27f64:	2107      	movs	r1, #7
   27f66:	2200      	movs	r2, #0
   27f68:	4613      	mov	r3, r2
   27f6a:	df03      	svc	3
   27f6c:	e72e      	b.n	27dcc <_start+0xd0>
   27f6e:	4839      	ldr	r0, [pc, #228]	@ (28054 <_start+0x358>)
   27f70:	4468      	add	r0, sp
   27f72:	7800      	ldrb	r0, [r0, #0]
   27f74:	2802      	cmp	r0, #2
   27f76:	d00c      	beq.n	27f92 <_start+0x296>
   27f78:	2803      	cmp	r0, #3
   27f7a:	d105      	bne.n	27f88 <_start+0x28c>
   27f7c:	4839      	ldr	r0, [pc, #228]	@ (28064 <_start+0x368>)
   27f7e:	2107      	movs	r1, #7
   27f80:	2200      	movs	r2, #0
   27f82:	4613      	mov	r3, r2
   27f84:	df03      	svc	3
   27f86:	e004      	b.n	27f92 <_start+0x296>
   27f88:	4836      	ldr	r0, [pc, #216]	@ (28064 <_start+0x368>)
   27f8a:	2107      	movs	r1, #7
   27f8c:	2200      	movs	r2, #0
   27f8e:	4613      	mov	r3, r2
   27f90:	df04      	svc	4
   27f92:	4830      	ldr	r0, [pc, #192]	@ (28054 <_start+0x358>)
   27f94:	4468      	add	r0, sp
   27f96:	9909      	ldr	r1, [sp, #36]	@ 0x24
   27f98:	7001      	strb	r1, [r0, #0]
   27f9a:	482c      	ldr	r0, [pc, #176]	@ (2804c <_start+0x350>)
   27f9c:	4468      	add	r0, sp
   27f9e:	7800      	ldrb	r0, [r0, #0]
   27fa0:	2804      	cmp	r0, #4
   27fa2:	d007      	beq.n	27fb4 <_start+0x2b8>
   27fa4:	2803      	cmp	r0, #3
   27fa6:	d132      	bne.n	2800e <_start+0x312>
   27fa8:	482e      	ldr	r0, [pc, #184]	@ (28064 <_start+0x368>)
   27faa:	2100      	movs	r1, #0
   27fac:	460a      	mov	r2, r1
   27fae:	460b      	mov	r3, r1
   27fb0:	df03      	svc	3
   27fb2:	e004      	b.n	27fbe <_start+0x2c2>
   27fb4:	482b      	ldr	r0, [pc, #172]	@ (28064 <_start+0x368>)
   27fb6:	2100      	movs	r1, #0
   27fb8:	460a      	mov	r2, r1
   27fba:	460b      	mov	r3, r1
   27fbc:	df04      	svc	4
   27fbe:	78a0      	ldrb	r0, [r4, #2]
   27fc0:	a92f      	add	r1, sp, #188	@ 0xbc
   27fc2:	7088      	strb	r0, [r1, #2]
   27fc4:	7820      	ldrb	r0, [r4, #0]
   27fc6:	7862      	ldrb	r2, [r4, #1]
   27fc8:	0212      	lsls	r2, r2, #8
   27fca:	1810      	adds	r0, r2, r0
   27fcc:	8008      	strh	r0, [r1, #0]
   27fce:	4821      	ldr	r0, [pc, #132]	@ (28054 <_start+0x358>)
   27fd0:	4468      	add	r0, sp
   27fd2:	7800      	ldrb	r0, [r0, #0]
   27fd4:	491d      	ldr	r1, [pc, #116]	@ (2804c <_start+0x350>)
   27fd6:	4469      	add	r1, sp
   27fd8:	3108      	adds	r1, #8
   27fda:	9a07      	ldr	r2, [sp, #28]
   27fdc:	6812      	ldr	r2, [r2, #0]
   27fde:	9206      	str	r2, [sp, #24]
   27fe0:	aa1f      	add	r2, sp, #124	@ 0x7c
   27fe2:	c968      	ldmia	r1!, {r3, r5, r6}
   27fe4:	c268      	stmia	r2!, {r3, r5, r6}
   27fe6:	c978      	ldmia	r1!, {r3, r4, r5, r6}
   27fe8:	c278      	stmia	r2!, {r3, r4, r5, r6}
   27fea:	c978      	ldmia	r1!, {r3, r4, r5, r6}
   27fec:	c278      	stmia	r2!, {r3, r4, r5, r6}
   27fee:	c978      	ldmia	r1!, {r3, r4, r5, r6}
   27ff0:	c278      	stmia	r2!, {r3, r4, r5, r6}
   27ff2:	880b      	ldrh	r3, [r1, #0]
   27ff4:	8013      	strh	r3, [r2, #0]
   27ff6:	7889      	ldrb	r1, [r1, #2]
   27ff8:	7091      	strb	r1, [r2, #2]
   27ffa:	2802      	cmp	r0, #2
   27ffc:	d039      	beq.n	28072 <_start+0x376>
   27ffe:	2804      	cmp	r0, #4
   28000:	d132      	bne.n	28068 <_start+0x36c>
   28002:	4818      	ldr	r0, [pc, #96]	@ (28064 <_start+0x368>)
   28004:	2107      	movs	r1, #7
   28006:	2200      	movs	r2, #0
   28008:	4613      	mov	r3, r2
   2800a:	df04      	svc	4
   2800c:	e031      	b.n	28072 <_start+0x376>
   2800e:	78a0      	ldrb	r0, [r4, #2]
   28010:	a92f      	add	r1, sp, #188	@ 0xbc
   28012:	7088      	strb	r0, [r1, #2]
   28014:	7820      	ldrb	r0, [r4, #0]
   28016:	7862      	ldrb	r2, [r4, #1]
   28018:	0212      	lsls	r2, r2, #8
   2801a:	1810      	adds	r0, r2, r0
   2801c:	8008      	strh	r0, [r1, #0]
   2801e:	480b      	ldr	r0, [pc, #44]	@ (2804c <_start+0x350>)
   28020:	4468      	add	r0, sp
   28022:	3008      	adds	r0, #8
   28024:	9907      	ldr	r1, [sp, #28]
   28026:	6809      	ldr	r1, [r1, #0]
   28028:	9106      	str	r1, [sp, #24]
   2802a:	a91f      	add	r1, sp, #124	@ 0x7c
   2802c:	c82c      	ldmia	r0!, {r2, r3, r5}
   2802e:	c12c      	stmia	r1!, {r2, r3, r5}
   28030:	c86c      	ldmia	r0!, {r2, r3, r5, r6}
   28032:	c16c      	stmia	r1!, {r2, r3, r5, r6}
   28034:	c86c      	ldmia	r0!, {r2, r3, r5, r6}
   28036:	c16c      	stmia	r1!, {r2, r3, r5, r6}
   28038:	c86c      	ldmia	r0!, {r2, r3, r5, r6}
   2803a:	c16c      	stmia	r1!, {r2, r3, r5, r6}
   2803c:	8802      	ldrh	r2, [r0, #0]
   2803e:	800a      	strh	r2, [r1, #0]
   28040:	7880      	ldrb	r0, [r0, #2]
   28042:	7088      	strb	r0, [r1, #2]
   28044:	e015      	b.n	28072 <_start+0x376>
   28046:	46c0      	nop			@ (mov r8, r8)
   28048:	ffffeadc 	.word	0xffffeadc
   2804c:	000013a8 	.word	0x000013a8
   28050:	000013ac 	.word	0x000013ac
   28054:	00001404 	.word	0x00001404
   28058:	00002006 	.word	0x00002006
   2805c:	00000508 	.word	0x00000508
   28060:	000007dc 	.word	0x000007dc
   28064:	000020c4 	.word	0x000020c4
   28068:	48da      	ldr	r0, [pc, #872]	@ (283d4 <_start+0x6d8>)
   2806a:	2107      	movs	r1, #7
   2806c:	2200      	movs	r2, #0
   2806e:	4613      	mov	r3, r2
   28070:	df03      	svc	3
   28072:	a82f      	add	r0, sp, #188	@ 0xbc
   28074:	7881      	ldrb	r1, [r0, #2]
   28076:	4ad8      	ldr	r2, [pc, #864]	@ (283d8 <_start+0x6dc>)
   28078:	446a      	add	r2, sp
   2807a:	920a      	str	r2, [sp, #40]	@ 0x28
   2807c:	70d1      	strb	r1, [r2, #3]
   2807e:	7840      	ldrb	r0, [r0, #1]
   28080:	7090      	strb	r0, [r2, #2]
   28082:	982f      	ldr	r0, [sp, #188]	@ 0xbc
   28084:	7050      	strb	r0, [r2, #1]
   28086:	a91f      	add	r1, sp, #124	@ 0x7c
   28088:	a80c      	add	r0, sp, #48	@ 0x30
   2808a:	4602      	mov	r2, r0
   2808c:	c938      	ldmia	r1!, {r3, r4, r5}
   2808e:	c238      	stmia	r2!, {r3, r4, r5}
   28090:	c978      	ldmia	r1!, {r3, r4, r5, r6}
   28092:	c278      	stmia	r2!, {r3, r4, r5, r6}
   28094:	c978      	ldmia	r1!, {r3, r4, r5, r6}
   28096:	c278      	stmia	r2!, {r3, r4, r5, r6}
   28098:	c978      	ldmia	r1!, {r3, r4, r5, r6}
   2809a:	c278      	stmia	r2!, {r3, r4, r5, r6}
   2809c:	880b      	ldrh	r3, [r1, #0]
   2809e:	8013      	strh	r3, [r2, #0]
   280a0:	7889      	ldrb	r1, [r1, #2]
   280a2:	7091      	strb	r1, [r2, #2]
   280a4:	990a      	ldr	r1, [sp, #40]	@ 0x28
   280a6:	3108      	adds	r1, #8
   280a8:	c81c      	ldmia	r0!, {r2, r3, r4}
   280aa:	c11c      	stmia	r1!, {r2, r3, r4}
   280ac:	c83c      	ldmia	r0!, {r2, r3, r4, r5}
   280ae:	c13c      	stmia	r1!, {r2, r3, r4, r5}
   280b0:	c83c      	ldmia	r0!, {r2, r3, r4, r5}
   280b2:	c13c      	stmia	r1!, {r2, r3, r4, r5}
   280b4:	c83c      	ldmia	r0!, {r2, r3, r4, r5}
   280b6:	c13c      	stmia	r1!, {r2, r3, r4, r5}
   280b8:	8802      	ldrh	r2, [r0, #0]
   280ba:	800a      	strh	r2, [r1, #0]
   280bc:	7880      	ldrb	r0, [r0, #2]
   280be:	7088      	strb	r0, [r1, #2]
   280c0:	9e09      	ldr	r6, [sp, #36]	@ 0x24
   280c2:	9d0a      	ldr	r5, [sp, #40]	@ 0x28
   280c4:	702e      	strb	r6, [r5, #0]
   280c6:	9808      	ldr	r0, [sp, #32]
   280c8:	9906      	ldr	r1, [sp, #24]
   280ca:	6601      	str	r1, [r0, #96]	@ 0x60
   280cc:	4cc3      	ldr	r4, [pc, #780]	@ (283dc <_start+0x6e0>)
   280ce:	446c      	add	r4, sp
   280d0:	1c60      	adds	r0, r4, #1
   280d2:	2118      	movs	r1, #24
   280d4:	9006      	str	r0, [sp, #24]
   280d6:	f002 fe59 	bl	2ad8c <__aeabi_memclr>
   280da:	7026      	strb	r6, [r4, #0]
   280dc:	1c6a      	adds	r2, r5, #1
   280de:	48c0      	ldr	r0, [pc, #768]	@ (283e0 <_start+0x6e4>)
   280e0:	2403      	movs	r4, #3
   280e2:	2346      	movs	r3, #70	@ 0x46
   280e4:	4621      	mov	r1, r4
   280e6:	df04      	svc	4
   280e8:	2802      	cmp	r0, #2
   280ea:	d02b      	beq.n	28144 <_start+0x448>
   280ec:	48ba      	ldr	r0, [pc, #744]	@ (283d8 <_start+0x6dc>)
   280ee:	4468      	add	r0, sp
   280f0:	990b      	ldr	r1, [sp, #44]	@ 0x2c
   280f2:	7001      	strb	r1, [r0, #0]
   280f4:	48ba      	ldr	r0, [pc, #744]	@ (283e0 <_start+0x6e4>)
   280f6:	2102      	movs	r1, #2
   280f8:	2318      	movs	r3, #24
   280fa:	9d06      	ldr	r5, [sp, #24]
   280fc:	462a      	mov	r2, r5
   280fe:	df03      	svc	3
   28100:	2802      	cmp	r0, #2
   28102:	d10d      	bne.n	28120 <_start+0x424>
   28104:	48b5      	ldr	r0, [pc, #724]	@ (283dc <_start+0x6e0>)
   28106:	4468      	add	r0, sp
   28108:	7800      	ldrb	r0, [r0, #0]
   2810a:	2802      	cmp	r0, #2
   2810c:	d01a      	beq.n	28144 <_start+0x448>
   2810e:	460c      	mov	r4, r1
   28110:	2803      	cmp	r0, #3
   28112:	d011      	beq.n	28138 <_start+0x43c>
   28114:	48b2      	ldr	r0, [pc, #712]	@ (283e0 <_start+0x6e4>)
   28116:	2102      	movs	r1, #2
   28118:	2200      	movs	r2, #0
   2811a:	4613      	mov	r3, r2
   2811c:	df04      	svc	4
   2811e:	e010      	b.n	28142 <_start+0x446>
   28120:	48ae      	ldr	r0, [pc, #696]	@ (283dc <_start+0x6e0>)
   28122:	4468      	add	r0, sp
   28124:	7004      	strb	r4, [r0, #0]
   28126:	48ae      	ldr	r0, [pc, #696]	@ (283e0 <_start+0x6e4>)
   28128:	2602      	movs	r6, #2
   2812a:	2300      	movs	r3, #0
   2812c:	4621      	mov	r1, r4
   2812e:	4632      	mov	r2, r6
   28130:	df02      	svc	2
   28132:	2880      	cmp	r0, #128	@ 0x80
   28134:	d21d      	bcs.n	28172 <_start+0x476>
   28136:	460c      	mov	r4, r1
   28138:	48a9      	ldr	r0, [pc, #676]	@ (283e0 <_start+0x6e4>)
   2813a:	2102      	movs	r1, #2
   2813c:	2200      	movs	r2, #0
   2813e:	4613      	mov	r3, r2
   28140:	df03      	svc	3
   28142:	4621      	mov	r1, r4
   28144:	48a4      	ldr	r0, [pc, #656]	@ (283d8 <_start+0x6dc>)
   28146:	4468      	add	r0, sp
   28148:	7800      	ldrb	r0, [r0, #0]
   2814a:	2802      	cmp	r0, #2
   2814c:	d100      	bne.n	28150 <_start+0x454>
   2814e:	e63e      	b.n	27dce <_start+0xd2>
   28150:	2804      	cmp	r0, #4
   28152:	d107      	bne.n	28164 <_start+0x468>
   28154:	48a2      	ldr	r0, [pc, #648]	@ (283e0 <_start+0x6e4>)
   28156:	2203      	movs	r2, #3
   28158:	2300      	movs	r3, #0
   2815a:	460c      	mov	r4, r1
   2815c:	4611      	mov	r1, r2
   2815e:	461a      	mov	r2, r3
   28160:	df04      	svc	4
   28162:	e633      	b.n	27dcc <_start+0xd0>
   28164:	460c      	mov	r4, r1
   28166:	489e      	ldr	r0, [pc, #632]	@ (283e0 <_start+0x6e4>)
   28168:	2103      	movs	r1, #3
   2816a:	2200      	movs	r2, #0
   2816c:	4613      	mov	r3, r2
   2816e:	df03      	svc	3
   28170:	e62c      	b.n	27dcc <_start+0xd0>
   28172:	4899      	ldr	r0, [pc, #612]	@ (283d8 <_start+0x6dc>)
   28174:	4468      	add	r0, sp
   28176:	7800      	ldrb	r0, [r0, #0]
   28178:	2802      	cmp	r0, #2
   2817a:	d00c      	beq.n	28196 <_start+0x49a>
   2817c:	2803      	cmp	r0, #3
   2817e:	d105      	bne.n	2818c <_start+0x490>
   28180:	4897      	ldr	r0, [pc, #604]	@ (283e0 <_start+0x6e4>)
   28182:	2103      	movs	r1, #3
   28184:	2200      	movs	r2, #0
   28186:	4613      	mov	r3, r2
   28188:	df03      	svc	3
   2818a:	e004      	b.n	28196 <_start+0x49a>
   2818c:	4894      	ldr	r0, [pc, #592]	@ (283e0 <_start+0x6e4>)
   2818e:	2103      	movs	r1, #3
   28190:	2200      	movs	r2, #0
   28192:	4613      	mov	r3, r2
   28194:	df04      	svc	4
   28196:	4890      	ldr	r0, [pc, #576]	@ (283d8 <_start+0x6dc>)
   28198:	4468      	add	r0, sp
   2819a:	7006      	strb	r6, [r0, #0]
   2819c:	488f      	ldr	r0, [pc, #572]	@ (283dc <_start+0x6e0>)
   2819e:	4468      	add	r0, sp
   281a0:	7800      	ldrb	r0, [r0, #0]
   281a2:	2804      	cmp	r0, #4
   281a4:	9402      	str	r4, [sp, #8]
   281a6:	960a      	str	r6, [sp, #40]	@ 0x28
   281a8:	d007      	beq.n	281ba <_start+0x4be>
   281aa:	2803      	cmp	r0, #3
   281ac:	d12a      	bne.n	28204 <_start+0x508>
   281ae:	488c      	ldr	r0, [pc, #560]	@ (283e0 <_start+0x6e4>)
   281b0:	2102      	movs	r1, #2
   281b2:	2200      	movs	r2, #0
   281b4:	4613      	mov	r3, r2
   281b6:	df03      	svc	3
   281b8:	e004      	b.n	281c4 <_start+0x4c8>
   281ba:	4889      	ldr	r0, [pc, #548]	@ (283e0 <_start+0x6e4>)
   281bc:	2102      	movs	r1, #2
   281be:	2200      	movs	r2, #0
   281c0:	4613      	mov	r3, r2
   281c2:	df04      	svc	4
   281c4:	78a8      	ldrb	r0, [r5, #2]
   281c6:	a934      	add	r1, sp, #208	@ 0xd0
   281c8:	7088      	strb	r0, [r1, #2]
   281ca:	7828      	ldrb	r0, [r5, #0]
   281cc:	786a      	ldrb	r2, [r5, #1]
   281ce:	0212      	lsls	r2, r2, #8
   281d0:	1810      	adds	r0, r2, r0
   281d2:	8008      	strh	r0, [r1, #0]
   281d4:	4880      	ldr	r0, [pc, #512]	@ (283d8 <_start+0x6dc>)
   281d6:	4468      	add	r0, sp
   281d8:	7800      	ldrb	r0, [r0, #0]
   281da:	4980      	ldr	r1, [pc, #512]	@ (283dc <_start+0x6e0>)
   281dc:	4469      	add	r1, sp
   281de:	3108      	adds	r1, #8
   281e0:	9a07      	ldr	r2, [sp, #28]
   281e2:	6812      	ldr	r2, [r2, #0]
   281e4:	9209      	str	r2, [sp, #36]	@ 0x24
   281e6:	aa2f      	add	r2, sp, #188	@ 0xbc
   281e8:	c978      	ldmia	r1!, {r3, r4, r5, r6}
   281ea:	c278      	stmia	r2!, {r3, r4, r5, r6}
   281ec:	7809      	ldrb	r1, [r1, #0]
   281ee:	7011      	strb	r1, [r2, #0]
   281f0:	2802      	cmp	r0, #2
   281f2:	d020      	beq.n	28236 <_start+0x53a>
   281f4:	2804      	cmp	r0, #4
   281f6:	d119      	bne.n	2822c <_start+0x530>
   281f8:	4879      	ldr	r0, [pc, #484]	@ (283e0 <_start+0x6e4>)
   281fa:	2103      	movs	r1, #3
   281fc:	2200      	movs	r2, #0
   281fe:	4613      	mov	r3, r2
   28200:	df04      	svc	4
   28202:	e018      	b.n	28236 <_start+0x53a>
   28204:	78a8      	ldrb	r0, [r5, #2]
   28206:	a934      	add	r1, sp, #208	@ 0xd0
   28208:	7088      	strb	r0, [r1, #2]
   2820a:	7828      	ldrb	r0, [r5, #0]
   2820c:	786a      	ldrb	r2, [r5, #1]
   2820e:	0212      	lsls	r2, r2, #8
   28210:	1810      	adds	r0, r2, r0
   28212:	8008      	strh	r0, [r1, #0]
   28214:	4871      	ldr	r0, [pc, #452]	@ (283dc <_start+0x6e0>)
   28216:	4468      	add	r0, sp
   28218:	3008      	adds	r0, #8
   2821a:	9907      	ldr	r1, [sp, #28]
   2821c:	6809      	ldr	r1, [r1, #0]
   2821e:	9109      	str	r1, [sp, #36]	@ 0x24
   28220:	a92f      	add	r1, sp, #188	@ 0xbc
   28222:	c86c      	ldmia	r0!, {r2, r3, r5, r6}
   28224:	c16c      	stmia	r1!, {r2, r3, r5, r6}
   28226:	7800      	ldrb	r0, [r0, #0]
   28228:	7008      	strb	r0, [r1, #0]
   2822a:	e004      	b.n	28236 <_start+0x53a>
   2822c:	486c      	ldr	r0, [pc, #432]	@ (283e0 <_start+0x6e4>)
   2822e:	2103      	movs	r1, #3
   28230:	2200      	movs	r2, #0
   28232:	4613      	mov	r3, r2
   28234:	df03      	svc	3
   28236:	a834      	add	r0, sp, #208	@ 0xd0
   28238:	7881      	ldrb	r1, [r0, #2]
   2823a:	aa1f      	add	r2, sp, #124	@ 0x7c
   2823c:	9206      	str	r2, [sp, #24]
   2823e:	70d1      	strb	r1, [r2, #3]
   28240:	7840      	ldrb	r0, [r0, #1]
   28242:	7090      	strb	r0, [r2, #2]
   28244:	9834      	ldr	r0, [sp, #208]	@ 0xd0
   28246:	7050      	strb	r0, [r2, #1]
   28248:	a82f      	add	r0, sp, #188	@ 0xbc
   2824a:	a90c      	add	r1, sp, #48	@ 0x30
   2824c:	460a      	mov	r2, r1
   2824e:	c878      	ldmia	r0!, {r3, r4, r5, r6}
   28250:	c278      	stmia	r2!, {r3, r4, r5, r6}
   28252:	7800      	ldrb	r0, [r0, #0]
   28254:	7010      	strb	r0, [r2, #0]
   28256:	9e06      	ldr	r6, [sp, #24]
   28258:	4630      	mov	r0, r6
   2825a:	3008      	adds	r0, #8
   2825c:	c93c      	ldmia	r1!, {r2, r3, r4, r5}
   2825e:	c03c      	stmia	r0!, {r2, r3, r4, r5}
   28260:	7809      	ldrb	r1, [r1, #0]
   28262:	7001      	strb	r1, [r0, #0]
   28264:	9c0a      	ldr	r4, [sp, #40]	@ 0x28
   28266:	7034      	strb	r4, [r6, #0]
   28268:	9809      	ldr	r0, [sp, #36]	@ 0x24
   2826a:	9020      	str	r0, [sp, #128]	@ 0x80
   2826c:	4d5a      	ldr	r5, [pc, #360]	@ (283d8 <_start+0x6dc>)
   2826e:	446d      	add	r5, sp
   28270:	1c68      	adds	r0, r5, #1
   28272:	2136      	movs	r1, #54	@ 0x36
   28274:	9009      	str	r0, [sp, #36]	@ 0x24
   28276:	f002 fd89 	bl	2ad8c <__aeabi_memclr>
   2827a:	702c      	strb	r4, [r5, #0]
   2827c:	1c72      	adds	r2, r6, #1
   2827e:	4859      	ldr	r0, [pc, #356]	@ (283e4 <_start+0x6e8>)
   28280:	2100      	movs	r1, #0
   28282:	2318      	movs	r3, #24
   28284:	df04      	svc	4
   28286:	2802      	cmp	r0, #2
   28288:	d02a      	beq.n	282e0 <_start+0x5e4>
   2828a:	a81f      	add	r0, sp, #124	@ 0x7c
   2828c:	990b      	ldr	r1, [sp, #44]	@ 0x2c
   2828e:	7001      	strb	r1, [r0, #0]
   28290:	4854      	ldr	r0, [pc, #336]	@ (283e4 <_start+0x6e8>)
   28292:	2107      	movs	r1, #7
   28294:	2336      	movs	r3, #54	@ 0x36
   28296:	9d09      	ldr	r5, [sp, #36]	@ 0x24
   28298:	462a      	mov	r2, r5
   2829a:	df03      	svc	3
   2829c:	2802      	cmp	r0, #2
   2829e:	d10d      	bne.n	282bc <_start+0x5c0>
   282a0:	484d      	ldr	r0, [pc, #308]	@ (283d8 <_start+0x6dc>)
   282a2:	4468      	add	r0, sp
   282a4:	7800      	ldrb	r0, [r0, #0]
   282a6:	2802      	cmp	r0, #2
   282a8:	d01a      	beq.n	282e0 <_start+0x5e4>
   282aa:	460c      	mov	r4, r1
   282ac:	2803      	cmp	r0, #3
   282ae:	d011      	beq.n	282d4 <_start+0x5d8>
   282b0:	484c      	ldr	r0, [pc, #304]	@ (283e4 <_start+0x6e8>)
   282b2:	2107      	movs	r1, #7
   282b4:	2200      	movs	r2, #0
   282b6:	4613      	mov	r3, r2
   282b8:	df04      	svc	4
   282ba:	e010      	b.n	282de <_start+0x5e2>
   282bc:	4846      	ldr	r0, [pc, #280]	@ (283d8 <_start+0x6dc>)
   282be:	4468      	add	r0, sp
   282c0:	9902      	ldr	r1, [sp, #8]
   282c2:	7001      	strb	r1, [r0, #0]
   282c4:	4847      	ldr	r0, [pc, #284]	@ (283e4 <_start+0x6e8>)
   282c6:	2207      	movs	r2, #7
   282c8:	2100      	movs	r1, #0
   282ca:	460b      	mov	r3, r1
   282cc:	df02      	svc	2
   282ce:	2880      	cmp	r0, #128	@ 0x80
   282d0:	d21b      	bcs.n	2830a <_start+0x60e>
   282d2:	460c      	mov	r4, r1
   282d4:	4843      	ldr	r0, [pc, #268]	@ (283e4 <_start+0x6e8>)
   282d6:	2107      	movs	r1, #7
   282d8:	2200      	movs	r2, #0
   282da:	4613      	mov	r3, r2
   282dc:	df03      	svc	3
   282de:	4621      	mov	r1, r4
   282e0:	a81f      	add	r0, sp, #124	@ 0x7c
   282e2:	7800      	ldrb	r0, [r0, #0]
   282e4:	2802      	cmp	r0, #2
   282e6:	d100      	bne.n	282ea <_start+0x5ee>
   282e8:	e571      	b.n	27dce <_start+0xd2>
   282ea:	2804      	cmp	r0, #4
   282ec:	d106      	bne.n	282fc <_start+0x600>
   282ee:	483d      	ldr	r0, [pc, #244]	@ (283e4 <_start+0x6e8>)
   282f0:	2200      	movs	r2, #0
   282f2:	460c      	mov	r4, r1
   282f4:	4611      	mov	r1, r2
   282f6:	4613      	mov	r3, r2
   282f8:	df04      	svc	4
   282fa:	e567      	b.n	27dcc <_start+0xd0>
   282fc:	460c      	mov	r4, r1
   282fe:	4839      	ldr	r0, [pc, #228]	@ (283e4 <_start+0x6e8>)
   28300:	2100      	movs	r1, #0
   28302:	460a      	mov	r2, r1
   28304:	460b      	mov	r3, r1
   28306:	df03      	svc	3
   28308:	e560      	b.n	27dcc <_start+0xd0>
   2830a:	a81f      	add	r0, sp, #124	@ 0x7c
   2830c:	7800      	ldrb	r0, [r0, #0]
   2830e:	2802      	cmp	r0, #2
   28310:	d00c      	beq.n	2832c <_start+0x630>
   28312:	2803      	cmp	r0, #3
   28314:	d105      	bne.n	28322 <_start+0x626>
   28316:	4833      	ldr	r0, [pc, #204]	@ (283e4 <_start+0x6e8>)
   28318:	2100      	movs	r1, #0
   2831a:	460a      	mov	r2, r1
   2831c:	460b      	mov	r3, r1
   2831e:	df03      	svc	3
   28320:	e004      	b.n	2832c <_start+0x630>
   28322:	4830      	ldr	r0, [pc, #192]	@ (283e4 <_start+0x6e8>)
   28324:	2100      	movs	r1, #0
   28326:	460a      	mov	r2, r1
   28328:	460b      	mov	r3, r1
   2832a:	df04      	svc	4
   2832c:	a81f      	add	r0, sp, #124	@ 0x7c
   2832e:	7004      	strb	r4, [r0, #0]
   28330:	4829      	ldr	r0, [pc, #164]	@ (283d8 <_start+0x6dc>)
   28332:	4468      	add	r0, sp
   28334:	7800      	ldrb	r0, [r0, #0]
   28336:	2804      	cmp	r0, #4
   28338:	d007      	beq.n	2834a <_start+0x64e>
   2833a:	2803      	cmp	r0, #3
   2833c:	d12f      	bne.n	2839e <_start+0x6a2>
   2833e:	4829      	ldr	r0, [pc, #164]	@ (283e4 <_start+0x6e8>)
   28340:	2107      	movs	r1, #7
   28342:	2200      	movs	r2, #0
   28344:	4613      	mov	r3, r2
   28346:	df03      	svc	3
   28348:	e004      	b.n	28354 <_start+0x658>
   2834a:	4826      	ldr	r0, [pc, #152]	@ (283e4 <_start+0x6e8>)
   2834c:	2107      	movs	r1, #7
   2834e:	2200      	movs	r2, #0
   28350:	4613      	mov	r3, r2
   28352:	df04      	svc	4
   28354:	78a8      	ldrb	r0, [r5, #2]
   28356:	a92f      	add	r1, sp, #188	@ 0xbc
   28358:	7088      	strb	r0, [r1, #2]
   2835a:	7828      	ldrb	r0, [r5, #0]
   2835c:	786a      	ldrb	r2, [r5, #1]
   2835e:	0212      	lsls	r2, r2, #8
   28360:	1810      	adds	r0, r2, r0
   28362:	8008      	strh	r0, [r1, #0]
   28364:	a81f      	add	r0, sp, #124	@ 0x7c
   28366:	7800      	ldrb	r0, [r0, #0]
   28368:	491b      	ldr	r1, [pc, #108]	@ (283d8 <_start+0x6dc>)
   2836a:	4469      	add	r1, sp
   2836c:	3108      	adds	r1, #8
   2836e:	9a08      	ldr	r2, [sp, #32]
   28370:	6e12      	ldr	r2, [r2, #96]	@ 0x60
   28372:	9209      	str	r2, [sp, #36]	@ 0x24
   28374:	aa0c      	add	r2, sp, #48	@ 0x30
   28376:	c958      	ldmia	r1!, {r3, r4, r6}
   28378:	c258      	stmia	r2!, {r3, r4, r6}
   2837a:	c978      	ldmia	r1!, {r3, r4, r5, r6}
   2837c:	c278      	stmia	r2!, {r3, r4, r5, r6}
   2837e:	c978      	ldmia	r1!, {r3, r4, r5, r6}
   28380:	c278      	stmia	r2!, {r3, r4, r5, r6}
   28382:	880b      	ldrh	r3, [r1, #0]
   28384:	8013      	strh	r3, [r2, #0]
   28386:	7889      	ldrb	r1, [r1, #2]
   28388:	7091      	strb	r1, [r2, #2]
   2838a:	2802      	cmp	r0, #2
   2838c:	d031      	beq.n	283f2 <_start+0x6f6>
   2838e:	2804      	cmp	r0, #4
   28390:	d12a      	bne.n	283e8 <_start+0x6ec>
   28392:	4814      	ldr	r0, [pc, #80]	@ (283e4 <_start+0x6e8>)
   28394:	2100      	movs	r1, #0
   28396:	460a      	mov	r2, r1
   28398:	460b      	mov	r3, r1
   2839a:	df04      	svc	4
   2839c:	e029      	b.n	283f2 <_start+0x6f6>
   2839e:	78a8      	ldrb	r0, [r5, #2]
   283a0:	a92f      	add	r1, sp, #188	@ 0xbc
   283a2:	7088      	strb	r0, [r1, #2]
   283a4:	7828      	ldrb	r0, [r5, #0]
   283a6:	786a      	ldrb	r2, [r5, #1]
   283a8:	0212      	lsls	r2, r2, #8
   283aa:	1810      	adds	r0, r2, r0
   283ac:	8008      	strh	r0, [r1, #0]
   283ae:	480a      	ldr	r0, [pc, #40]	@ (283d8 <_start+0x6dc>)
   283b0:	4468      	add	r0, sp
   283b2:	3008      	adds	r0, #8
   283b4:	9908      	ldr	r1, [sp, #32]
   283b6:	6e09      	ldr	r1, [r1, #96]	@ 0x60
   283b8:	9109      	str	r1, [sp, #36]	@ 0x24
   283ba:	a90c      	add	r1, sp, #48	@ 0x30
   283bc:	c81c      	ldmia	r0!, {r2, r3, r4}
   283be:	c11c      	stmia	r1!, {r2, r3, r4}
   283c0:	c85c      	ldmia	r0!, {r2, r3, r4, r6}
   283c2:	c15c      	stmia	r1!, {r2, r3, r4, r6}
   283c4:	c85c      	ldmia	r0!, {r2, r3, r4, r6}
   283c6:	c15c      	stmia	r1!, {r2, r3, r4, r6}
   283c8:	8802      	ldrh	r2, [r0, #0]
   283ca:	800a      	strh	r2, [r1, #0]
   283cc:	7880      	ldrb	r0, [r0, #2]
   283ce:	7088      	strb	r0, [r1, #2]
   283d0:	e00f      	b.n	283f2 <_start+0x6f6>
   283d2:	46c0      	nop			@ (mov r8, r8)
   283d4:	000020c4 	.word	0x000020c4
   283d8:	00001404 	.word	0x00001404
   283dc:	000013a8 	.word	0x000013a8
   283e0:	000023cf 	.word	0x000023cf
   283e4:	0000021f 	.word	0x0000021f
   283e8:	48dc      	ldr	r0, [pc, #880]	@ (2875c <_start+0xa60>)
   283ea:	2100      	movs	r1, #0
   283ec:	460a      	mov	r2, r1
   283ee:	460b      	mov	r3, r1
   283f0:	df03      	svc	3
   283f2:	a82f      	add	r0, sp, #188	@ 0xbc
   283f4:	7881      	ldrb	r1, [r0, #2]
   283f6:	4ada      	ldr	r2, [pc, #872]	@ (28760 <_start+0xa64>)
   283f8:	446a      	add	r2, sp
   283fa:	9206      	str	r2, [sp, #24]
   283fc:	70d1      	strb	r1, [r2, #3]
   283fe:	7840      	ldrb	r0, [r0, #1]
   28400:	7090      	strb	r0, [r2, #2]
   28402:	982f      	ldr	r0, [sp, #188]	@ 0xbc
   28404:	7050      	strb	r0, [r2, #1]
   28406:	a90c      	add	r1, sp, #48	@ 0x30
   28408:	48d6      	ldr	r0, [pc, #856]	@ (28764 <_start+0xa68>)
   2840a:	4468      	add	r0, sp
   2840c:	4602      	mov	r2, r0
   2840e:	c938      	ldmia	r1!, {r3, r4, r5}
   28410:	c238      	stmia	r2!, {r3, r4, r5}
   28412:	c978      	ldmia	r1!, {r3, r4, r5, r6}
   28414:	c278      	stmia	r2!, {r3, r4, r5, r6}
   28416:	c978      	ldmia	r1!, {r3, r4, r5, r6}
   28418:	c278      	stmia	r2!, {r3, r4, r5, r6}
   2841a:	880b      	ldrh	r3, [r1, #0]
   2841c:	8013      	strh	r3, [r2, #0]
   2841e:	7889      	ldrb	r1, [r1, #2]
   28420:	7091      	strb	r1, [r2, #2]
   28422:	9e06      	ldr	r6, [sp, #24]
   28424:	4631      	mov	r1, r6
   28426:	3108      	adds	r1, #8
   28428:	c81c      	ldmia	r0!, {r2, r3, r4}
   2842a:	c11c      	stmia	r1!, {r2, r3, r4}
   2842c:	c83c      	ldmia	r0!, {r2, r3, r4, r5}
   2842e:	c13c      	stmia	r1!, {r2, r3, r4, r5}
   28430:	c83c      	ldmia	r0!, {r2, r3, r4, r5}
   28432:	c13c      	stmia	r1!, {r2, r3, r4, r5}
   28434:	8802      	ldrh	r2, [r0, #0]
   28436:	800a      	strh	r2, [r1, #0]
   28438:	7880      	ldrb	r0, [r0, #2]
   2843a:	7088      	strb	r0, [r1, #2]
   2843c:	980a      	ldr	r0, [sp, #40]	@ 0x28
   2843e:	4635      	mov	r5, r6
   28440:	7030      	strb	r0, [r6, #0]
   28442:	4606      	mov	r6, r0
   28444:	9808      	ldr	r0, [sp, #32]
   28446:	9909      	ldr	r1, [sp, #36]	@ 0x24
   28448:	6601      	str	r1, [r0, #96]	@ 0x60
   2844a:	4cc6      	ldr	r4, [pc, #792]	@ (28764 <_start+0xa68>)
   2844c:	446c      	add	r4, sp
   2844e:	1c60      	adds	r0, r4, #1
   28450:	2125      	movs	r1, #37	@ 0x25
   28452:	9009      	str	r0, [sp, #36]	@ 0x24
   28454:	f002 fc9a 	bl	2ad8c <__aeabi_memclr>
   28458:	7026      	strb	r6, [r4, #0]
   2845a:	1c6a      	adds	r2, r5, #1
   2845c:	48c2      	ldr	r0, [pc, #776]	@ (28768 <_start+0xa6c>)
   2845e:	2107      	movs	r1, #7
   28460:	2336      	movs	r3, #54	@ 0x36
   28462:	df04      	svc	4
   28464:	2802      	cmp	r0, #2
   28466:	d02b      	beq.n	284c0 <_start+0x7c4>
   28468:	48bd      	ldr	r0, [pc, #756]	@ (28760 <_start+0xa64>)
   2846a:	4468      	add	r0, sp
   2846c:	990b      	ldr	r1, [sp, #44]	@ 0x2c
   2846e:	7001      	strb	r1, [r0, #0]
   28470:	48bd      	ldr	r0, [pc, #756]	@ (28768 <_start+0xa6c>)
   28472:	2100      	movs	r1, #0
   28474:	2325      	movs	r3, #37	@ 0x25
   28476:	9e09      	ldr	r6, [sp, #36]	@ 0x24
   28478:	4632      	mov	r2, r6
   2847a:	df03      	svc	3
   2847c:	2802      	cmp	r0, #2
   2847e:	d10d      	bne.n	2849c <_start+0x7a0>
   28480:	9106      	str	r1, [sp, #24]
   28482:	48b8      	ldr	r0, [pc, #736]	@ (28764 <_start+0xa68>)
   28484:	4468      	add	r0, sp
   28486:	7800      	ldrb	r0, [r0, #0]
   28488:	2802      	cmp	r0, #2
   2848a:	d018      	beq.n	284be <_start+0x7c2>
   2848c:	2803      	cmp	r0, #3
   2848e:	d011      	beq.n	284b4 <_start+0x7b8>
   28490:	48b5      	ldr	r0, [pc, #724]	@ (28768 <_start+0xa6c>)
   28492:	2100      	movs	r1, #0
   28494:	460a      	mov	r2, r1
   28496:	460b      	mov	r3, r1
   28498:	df04      	svc	4
   2849a:	e010      	b.n	284be <_start+0x7c2>
   2849c:	48b1      	ldr	r0, [pc, #708]	@ (28764 <_start+0xa68>)
   2849e:	4468      	add	r0, sp
   284a0:	9902      	ldr	r1, [sp, #8]
   284a2:	7001      	strb	r1, [r0, #0]
   284a4:	48b0      	ldr	r0, [pc, #704]	@ (28768 <_start+0xa6c>)
   284a6:	2107      	movs	r1, #7
   284a8:	2200      	movs	r2, #0
   284aa:	4613      	mov	r3, r2
   284ac:	df02      	svc	2
   284ae:	9106      	str	r1, [sp, #24]
   284b0:	2880      	cmp	r0, #128	@ 0x80
   284b2:	d21a      	bcs.n	284ea <_start+0x7ee>
   284b4:	48ac      	ldr	r0, [pc, #688]	@ (28768 <_start+0xa6c>)
   284b6:	2100      	movs	r1, #0
   284b8:	460a      	mov	r2, r1
   284ba:	460b      	mov	r3, r1
   284bc:	df03      	svc	3
   284be:	9906      	ldr	r1, [sp, #24]
   284c0:	48a7      	ldr	r0, [pc, #668]	@ (28760 <_start+0xa64>)
   284c2:	4468      	add	r0, sp
   284c4:	7800      	ldrb	r0, [r0, #0]
   284c6:	2802      	cmp	r0, #2
   284c8:	d100      	bne.n	284cc <_start+0x7d0>
   284ca:	e480      	b.n	27dce <_start+0xd2>
   284cc:	460c      	mov	r4, r1
   284ce:	2804      	cmp	r0, #4
   284d0:	d105      	bne.n	284de <_start+0x7e2>
   284d2:	48a5      	ldr	r0, [pc, #660]	@ (28768 <_start+0xa6c>)
   284d4:	2107      	movs	r1, #7
   284d6:	2200      	movs	r2, #0
   284d8:	4613      	mov	r3, r2
   284da:	df04      	svc	4
   284dc:	e476      	b.n	27dcc <_start+0xd0>
   284de:	48a2      	ldr	r0, [pc, #648]	@ (28768 <_start+0xa6c>)
   284e0:	2107      	movs	r1, #7
   284e2:	2200      	movs	r2, #0
   284e4:	4613      	mov	r3, r2
   284e6:	df03      	svc	3
   284e8:	e470      	b.n	27dcc <_start+0xd0>
   284ea:	4634      	mov	r4, r6
   284ec:	489c      	ldr	r0, [pc, #624]	@ (28760 <_start+0xa64>)
   284ee:	4468      	add	r0, sp
   284f0:	7800      	ldrb	r0, [r0, #0]
   284f2:	2802      	cmp	r0, #2
   284f4:	d00c      	beq.n	28510 <_start+0x814>
   284f6:	2803      	cmp	r0, #3
   284f8:	d105      	bne.n	28506 <_start+0x80a>
   284fa:	489b      	ldr	r0, [pc, #620]	@ (28768 <_start+0xa6c>)
   284fc:	2107      	movs	r1, #7
   284fe:	2200      	movs	r2, #0
   28500:	4613      	mov	r3, r2
   28502:	df03      	svc	3
   28504:	e004      	b.n	28510 <_start+0x814>
   28506:	4898      	ldr	r0, [pc, #608]	@ (28768 <_start+0xa6c>)
   28508:	2107      	movs	r1, #7
   2850a:	2200      	movs	r2, #0
   2850c:	4613      	mov	r3, r2
   2850e:	df04      	svc	4
   28510:	4893      	ldr	r0, [pc, #588]	@ (28760 <_start+0xa64>)
   28512:	4468      	add	r0, sp
   28514:	990a      	ldr	r1, [sp, #40]	@ 0x28
   28516:	7001      	strb	r1, [r0, #0]
   28518:	4892      	ldr	r0, [pc, #584]	@ (28764 <_start+0xa68>)
   2851a:	4468      	add	r0, sp
   2851c:	7800      	ldrb	r0, [r0, #0]
   2851e:	2804      	cmp	r0, #4
   28520:	d007      	beq.n	28532 <_start+0x836>
   28522:	2803      	cmp	r0, #3
   28524:	d12c      	bne.n	28580 <_start+0x884>
   28526:	4890      	ldr	r0, [pc, #576]	@ (28768 <_start+0xa6c>)
   28528:	2100      	movs	r1, #0
   2852a:	460a      	mov	r2, r1
   2852c:	460b      	mov	r3, r1
   2852e:	df03      	svc	3
   28530:	e004      	b.n	2853c <_start+0x840>
   28532:	488d      	ldr	r0, [pc, #564]	@ (28768 <_start+0xa6c>)
   28534:	2100      	movs	r1, #0
   28536:	460a      	mov	r2, r1
   28538:	460b      	mov	r3, r1
   2853a:	df04      	svc	4
   2853c:	78a0      	ldrb	r0, [r4, #2]
   2853e:	a92f      	add	r1, sp, #188	@ 0xbc
   28540:	7088      	strb	r0, [r1, #2]
   28542:	7820      	ldrb	r0, [r4, #0]
   28544:	7862      	ldrb	r2, [r4, #1]
   28546:	0212      	lsls	r2, r2, #8
   28548:	1810      	adds	r0, r2, r0
   2854a:	8008      	strh	r0, [r1, #0]
   2854c:	4884      	ldr	r0, [pc, #528]	@ (28760 <_start+0xa64>)
   2854e:	4468      	add	r0, sp
   28550:	7800      	ldrb	r0, [r0, #0]
   28552:	4984      	ldr	r1, [pc, #528]	@ (28764 <_start+0xa68>)
   28554:	4469      	add	r1, sp
   28556:	3108      	adds	r1, #8
   28558:	9a07      	ldr	r2, [sp, #28]
   2855a:	6812      	ldr	r2, [r2, #0]
   2855c:	9209      	str	r2, [sp, #36]	@ 0x24
   2855e:	aa1f      	add	r2, sp, #124	@ 0x7c
   28560:	c958      	ldmia	r1!, {r3, r4, r6}
   28562:	c258      	stmia	r2!, {r3, r4, r6}
   28564:	c978      	ldmia	r1!, {r3, r4, r5, r6}
   28566:	c278      	stmia	r2!, {r3, r4, r5, r6}
   28568:	8809      	ldrh	r1, [r1, #0]
   2856a:	8011      	strh	r1, [r2, #0]
   2856c:	2802      	cmp	r0, #2
   2856e:	d022      	beq.n	285b6 <_start+0x8ba>
   28570:	2804      	cmp	r0, #4
   28572:	d11b      	bne.n	285ac <_start+0x8b0>
   28574:	487c      	ldr	r0, [pc, #496]	@ (28768 <_start+0xa6c>)
   28576:	2107      	movs	r1, #7
   28578:	2200      	movs	r2, #0
   2857a:	4613      	mov	r3, r2
   2857c:	df04      	svc	4
   2857e:	e01a      	b.n	285b6 <_start+0x8ba>
   28580:	78a0      	ldrb	r0, [r4, #2]
   28582:	a92f      	add	r1, sp, #188	@ 0xbc
   28584:	7088      	strb	r0, [r1, #2]
   28586:	7820      	ldrb	r0, [r4, #0]
   28588:	7862      	ldrb	r2, [r4, #1]
   2858a:	0212      	lsls	r2, r2, #8
   2858c:	1810      	adds	r0, r2, r0
   2858e:	8008      	strh	r0, [r1, #0]
   28590:	4874      	ldr	r0, [pc, #464]	@ (28764 <_start+0xa68>)
   28592:	4468      	add	r0, sp
   28594:	3008      	adds	r0, #8
   28596:	9907      	ldr	r1, [sp, #28]
   28598:	6809      	ldr	r1, [r1, #0]
   2859a:	9109      	str	r1, [sp, #36]	@ 0x24
   2859c:	a91f      	add	r1, sp, #124	@ 0x7c
   2859e:	c81c      	ldmia	r0!, {r2, r3, r4}
   285a0:	c11c      	stmia	r1!, {r2, r3, r4}
   285a2:	c85c      	ldmia	r0!, {r2, r3, r4, r6}
   285a4:	c15c      	stmia	r1!, {r2, r3, r4, r6}
   285a6:	8800      	ldrh	r0, [r0, #0]
   285a8:	8008      	strh	r0, [r1, #0]
   285aa:	e004      	b.n	285b6 <_start+0x8ba>
   285ac:	486e      	ldr	r0, [pc, #440]	@ (28768 <_start+0xa6c>)
   285ae:	2107      	movs	r1, #7
   285b0:	2200      	movs	r2, #0
   285b2:	4613      	mov	r3, r2
   285b4:	df03      	svc	3
   285b6:	a82f      	add	r0, sp, #188	@ 0xbc
   285b8:	7881      	ldrb	r1, [r0, #2]
   285ba:	4a69      	ldr	r2, [pc, #420]	@ (28760 <_start+0xa64>)
   285bc:	446a      	add	r2, sp
   285be:	9206      	str	r2, [sp, #24]
   285c0:	70d1      	strb	r1, [r2, #3]
   285c2:	7840      	ldrb	r0, [r0, #1]
   285c4:	7090      	strb	r0, [r2, #2]
   285c6:	982f      	ldr	r0, [sp, #188]	@ 0xbc
   285c8:	7050      	strb	r0, [r2, #1]
   285ca:	a91f      	add	r1, sp, #124	@ 0x7c
   285cc:	a80c      	add	r0, sp, #48	@ 0x30
   285ce:	4602      	mov	r2, r0
   285d0:	c938      	ldmia	r1!, {r3, r4, r5}
   285d2:	c238      	stmia	r2!, {r3, r4, r5}
   285d4:	c978      	ldmia	r1!, {r3, r4, r5, r6}
   285d6:	c278      	stmia	r2!, {r3, r4, r5, r6}
   285d8:	8809      	ldrh	r1, [r1, #0]
   285da:	8011      	strh	r1, [r2, #0]
   285dc:	9e06      	ldr	r6, [sp, #24]
   285de:	4631      	mov	r1, r6
   285e0:	3108      	adds	r1, #8
   285e2:	c81c      	ldmia	r0!, {r2, r3, r4}
   285e4:	c11c      	stmia	r1!, {r2, r3, r4}
   285e6:	c83c      	ldmia	r0!, {r2, r3, r4, r5}
   285e8:	c13c      	stmia	r1!, {r2, r3, r4, r5}
   285ea:	8800      	ldrh	r0, [r0, #0]
   285ec:	8008      	strh	r0, [r1, #0]
   285ee:	9d0a      	ldr	r5, [sp, #40]	@ 0x28
   285f0:	7035      	strb	r5, [r6, #0]
   285f2:	9808      	ldr	r0, [sp, #32]
   285f4:	9909      	ldr	r1, [sp, #36]	@ 0x24
   285f6:	6601      	str	r1, [r0, #96]	@ 0x60
   285f8:	4c5a      	ldr	r4, [pc, #360]	@ (28764 <_start+0xa68>)
   285fa:	446c      	add	r4, sp
   285fc:	1c60      	adds	r0, r4, #1
   285fe:	210e      	movs	r1, #14
   28600:	9009      	str	r0, [sp, #36]	@ 0x24
   28602:	f002 fbc3 	bl	2ad8c <__aeabi_memclr>
   28606:	7025      	strb	r5, [r4, #0]
   28608:	1c72      	adds	r2, r6, #1
   2860a:	4858      	ldr	r0, [pc, #352]	@ (2876c <_start+0xa70>)
   2860c:	2325      	movs	r3, #37	@ 0x25
   2860e:	4629      	mov	r1, r5
   28610:	df04      	svc	4
   28612:	2802      	cmp	r0, #2
   28614:	d101      	bne.n	2861a <_start+0x91e>
   28616:	460d      	mov	r5, r1
   28618:	e02a      	b.n	28670 <_start+0x974>
   2861a:	4851      	ldr	r0, [pc, #324]	@ (28760 <_start+0xa64>)
   2861c:	4468      	add	r0, sp
   2861e:	990b      	ldr	r1, [sp, #44]	@ 0x2c
   28620:	7001      	strb	r1, [r0, #0]
   28622:	4852      	ldr	r0, [pc, #328]	@ (2876c <_start+0xa70>)
   28624:	2108      	movs	r1, #8
   28626:	230e      	movs	r3, #14
   28628:	9a09      	ldr	r2, [sp, #36]	@ 0x24
   2862a:	df03      	svc	3
   2862c:	2802      	cmp	r0, #2
   2862e:	d10d      	bne.n	2864c <_start+0x950>
   28630:	460d      	mov	r5, r1
   28632:	484c      	ldr	r0, [pc, #304]	@ (28764 <_start+0xa68>)
   28634:	4468      	add	r0, sp
   28636:	7800      	ldrb	r0, [r0, #0]
   28638:	2802      	cmp	r0, #2
   2863a:	d019      	beq.n	28670 <_start+0x974>
   2863c:	2803      	cmp	r0, #3
   2863e:	d012      	beq.n	28666 <_start+0x96a>
   28640:	484a      	ldr	r0, [pc, #296]	@ (2876c <_start+0xa70>)
   28642:	2108      	movs	r1, #8
   28644:	2200      	movs	r2, #0
   28646:	4613      	mov	r3, r2
   28648:	df04      	svc	4
   2864a:	e011      	b.n	28670 <_start+0x974>
   2864c:	4845      	ldr	r0, [pc, #276]	@ (28764 <_start+0xa68>)
   2864e:	4468      	add	r0, sp
   28650:	9902      	ldr	r1, [sp, #8]
   28652:	7001      	strb	r1, [r0, #0]
   28654:	4845      	ldr	r0, [pc, #276]	@ (2876c <_start+0xa70>)
   28656:	2402      	movs	r4, #2
   28658:	2208      	movs	r2, #8
   2865a:	2300      	movs	r3, #0
   2865c:	4621      	mov	r1, r4
   2865e:	df02      	svc	2
   28660:	2880      	cmp	r0, #128	@ 0x80
   28662:	d21d      	bcs.n	286a0 <_start+0x9a4>
   28664:	460d      	mov	r5, r1
   28666:	4841      	ldr	r0, [pc, #260]	@ (2876c <_start+0xa70>)
   28668:	2108      	movs	r1, #8
   2866a:	2200      	movs	r2, #0
   2866c:	4613      	mov	r3, r2
   2866e:	df03      	svc	3
   28670:	483b      	ldr	r0, [pc, #236]	@ (28760 <_start+0xa64>)
   28672:	4468      	add	r0, sp
   28674:	7800      	ldrb	r0, [r0, #0]
   28676:	2802      	cmp	r0, #2
   28678:	d00c      	beq.n	28694 <_start+0x998>
   2867a:	2804      	cmp	r0, #4
   2867c:	d105      	bne.n	2868a <_start+0x98e>
   2867e:	483b      	ldr	r0, [pc, #236]	@ (2876c <_start+0xa70>)
   28680:	2102      	movs	r1, #2
   28682:	2200      	movs	r2, #0
   28684:	4613      	mov	r3, r2
   28686:	df04      	svc	4
   28688:	e004      	b.n	28694 <_start+0x998>
   2868a:	4838      	ldr	r0, [pc, #224]	@ (2876c <_start+0xa70>)
   2868c:	2102      	movs	r1, #2
   2868e:	2200      	movs	r2, #0
   28690:	4613      	mov	r3, r2
   28692:	df03      	svc	3
   28694:	2001      	movs	r0, #1
   28696:	4629      	mov	r1, r5
   28698:	1ffe      	subs	r6, r7, #7
   2869a:	3e05      	subs	r6, #5
   2869c:	46b5      	mov	sp, r6
   2869e:	bdf0      	pop	{r4, r5, r6, r7, pc}
   286a0:	482f      	ldr	r0, [pc, #188]	@ (28760 <_start+0xa64>)
   286a2:	4468      	add	r0, sp
   286a4:	7800      	ldrb	r0, [r0, #0]
   286a6:	2802      	cmp	r0, #2
   286a8:	d00c      	beq.n	286c4 <_start+0x9c8>
   286aa:	2803      	cmp	r0, #3
   286ac:	d105      	bne.n	286ba <_start+0x9be>
   286ae:	482f      	ldr	r0, [pc, #188]	@ (2876c <_start+0xa70>)
   286b0:	2102      	movs	r1, #2
   286b2:	2200      	movs	r2, #0
   286b4:	4613      	mov	r3, r2
   286b6:	df03      	svc	3
   286b8:	e004      	b.n	286c4 <_start+0x9c8>
   286ba:	482c      	ldr	r0, [pc, #176]	@ (2876c <_start+0xa70>)
   286bc:	2102      	movs	r1, #2
   286be:	2200      	movs	r2, #0
   286c0:	4613      	mov	r3, r2
   286c2:	df04      	svc	4
   286c4:	4826      	ldr	r0, [pc, #152]	@ (28760 <_start+0xa64>)
   286c6:	4468      	add	r0, sp
   286c8:	7004      	strb	r4, [r0, #0]
   286ca:	4826      	ldr	r0, [pc, #152]	@ (28764 <_start+0xa68>)
   286cc:	4468      	add	r0, sp
   286ce:	7800      	ldrb	r0, [r0, #0]
   286d0:	2804      	cmp	r0, #4
   286d2:	d007      	beq.n	286e4 <_start+0x9e8>
   286d4:	2803      	cmp	r0, #3
   286d6:	d12b      	bne.n	28730 <_start+0xa34>
   286d8:	4824      	ldr	r0, [pc, #144]	@ (2876c <_start+0xa70>)
   286da:	2108      	movs	r1, #8
   286dc:	2200      	movs	r2, #0
   286de:	4613      	mov	r3, r2
   286e0:	df03      	svc	3
   286e2:	e004      	b.n	286ee <_start+0x9f2>
   286e4:	4821      	ldr	r0, [pc, #132]	@ (2876c <_start+0xa70>)
   286e6:	2108      	movs	r1, #8
   286e8:	2200      	movs	r2, #0
   286ea:	4613      	mov	r3, r2
   286ec:	df04      	svc	4
   286ee:	a81f      	add	r0, sp, #124	@ 0x7c
   286f0:	9b07      	ldr	r3, [sp, #28]
   286f2:	6899      	ldr	r1, [r3, #8]
   286f4:	8081      	strh	r1, [r0, #4]
   286f6:	9c09      	ldr	r4, [sp, #36]	@ 0x24
   286f8:	78a1      	ldrb	r1, [r4, #2]
   286fa:	aa2f      	add	r2, sp, #188	@ 0xbc
   286fc:	7091      	strb	r1, [r2, #2]
   286fe:	4919      	ldr	r1, [pc, #100]	@ (28764 <_start+0xa68>)
   28700:	4469      	add	r1, sp
   28702:	7b89      	ldrb	r1, [r1, #14]
   28704:	7181      	strb	r1, [r0, #6]
   28706:	7820      	ldrb	r0, [r4, #0]
   28708:	7861      	ldrb	r1, [r4, #1]
   2870a:	0209      	lsls	r1, r1, #8
   2870c:	1808      	adds	r0, r1, r0
   2870e:	8010      	strh	r0, [r2, #0]
   28710:	6858      	ldr	r0, [r3, #4]
   28712:	901f      	str	r0, [sp, #124]	@ 0x7c
   28714:	4812      	ldr	r0, [pc, #72]	@ (28760 <_start+0xa64>)
   28716:	4468      	add	r0, sp
   28718:	7800      	ldrb	r0, [r0, #0]
   2871a:	681d      	ldr	r5, [r3, #0]
   2871c:	2802      	cmp	r0, #2
   2871e:	d02f      	beq.n	28780 <_start+0xa84>
   28720:	2804      	cmp	r0, #4
   28722:	d125      	bne.n	28770 <_start+0xa74>
   28724:	4811      	ldr	r0, [pc, #68]	@ (2876c <_start+0xa70>)
   28726:	2102      	movs	r1, #2
   28728:	2200      	movs	r2, #0
   2872a:	4613      	mov	r3, r2
   2872c:	df04      	svc	4
   2872e:	e027      	b.n	28780 <_start+0xa84>
   28730:	a81f      	add	r0, sp, #124	@ 0x7c
   28732:	9b07      	ldr	r3, [sp, #28]
   28734:	6899      	ldr	r1, [r3, #8]
   28736:	8081      	strh	r1, [r0, #4]
   28738:	9c09      	ldr	r4, [sp, #36]	@ 0x24
   2873a:	78a1      	ldrb	r1, [r4, #2]
   2873c:	aa2f      	add	r2, sp, #188	@ 0xbc
   2873e:	7091      	strb	r1, [r2, #2]
   28740:	4908      	ldr	r1, [pc, #32]	@ (28764 <_start+0xa68>)
   28742:	4469      	add	r1, sp
   28744:	7b89      	ldrb	r1, [r1, #14]
   28746:	7181      	strb	r1, [r0, #6]
   28748:	7820      	ldrb	r0, [r4, #0]
   2874a:	7861      	ldrb	r1, [r4, #1]
   2874c:	0209      	lsls	r1, r1, #8
   2874e:	1808      	adds	r0, r1, r0
   28750:	8010      	strh	r0, [r2, #0]
   28752:	6858      	ldr	r0, [r3, #4]
   28754:	901f      	str	r0, [sp, #124]	@ 0x7c
   28756:	681d      	ldr	r5, [r3, #0]
   28758:	e012      	b.n	28780 <_start+0xa84>
   2875a:	46c0      	nop			@ (mov r8, r8)
   2875c:	0000021f 	.word	0x0000021f
   28760:	00001404 	.word	0x00001404
   28764:	000013a8 	.word	0x000013a8
   28768:	00001597 	.word	0x00001597
   2876c:	00000667 	.word	0x00000667
   28770:	4802      	ldr	r0, [pc, #8]	@ (2877c <_start+0xa80>)
   28772:	2102      	movs	r1, #2
   28774:	2200      	movs	r2, #0
   28776:	4613      	mov	r3, r2
   28778:	df03      	svc	3
   2877a:	e001      	b.n	28780 <_start+0xa84>
   2877c:	00000667 	.word	0x00000667
   28780:	ac35      	add	r4, sp, #212	@ 0xd4
   28782:	982f      	ldr	r0, [sp, #188]	@ 0xbc
   28784:	8020      	strh	r0, [r4, #0]
   28786:	a90c      	add	r1, sp, #48	@ 0x30
   28788:	9820      	ldr	r0, [sp, #128]	@ 0x80
   2878a:	8088      	strh	r0, [r1, #4]
   2878c:	a82f      	add	r0, sp, #188	@ 0xbc
   2878e:	7880      	ldrb	r0, [r0, #2]
   28790:	70a0      	strb	r0, [r4, #2]
   28792:	a81f      	add	r0, sp, #124	@ 0x7c
   28794:	7980      	ldrb	r0, [r0, #6]
   28796:	7188      	strb	r0, [r1, #6]
   28798:	70e5      	strb	r5, [r4, #3]
   2879a:	0e28      	lsrs	r0, r5, #24
   2879c:	71a0      	strb	r0, [r4, #6]
   2879e:	0c28      	lsrs	r0, r5, #16
   287a0:	7160      	strb	r0, [r4, #5]
   287a2:	0a28      	lsrs	r0, r5, #8
   287a4:	7120      	strb	r0, [r4, #4]
   287a6:	981f      	ldr	r0, [sp, #124]	@ 0x7c
   287a8:	900c      	str	r0, [sp, #48]	@ 0x30
   287aa:	1de0      	adds	r0, r4, #7
   287ac:	2207      	movs	r2, #7
   287ae:	f002 fcad 	bl	2b10c <__aeabi_memcpy>
   287b2:	4d05      	ldr	r5, [pc, #20]	@ (287c8 <_start+0xacc>)
   287b4:	446d      	add	r5, sp
   287b6:	4628      	mov	r0, r5
   287b8:	4621      	mov	r1, r4
   287ba:	f7ff f9f3 	bl	27ba4 <_ZN20complex_dynamic_type3app17hf879849aa6482b41E>
   287be:	7828      	ldrb	r0, [r5, #0]
   287c0:	2801      	cmp	r0, #1
   287c2:	d103      	bne.n	287cc <_start+0xad0>
   287c4:	f002 fa8a 	bl	2acdc <_start+0x2fe0>
   287c8:	00001404 	.word	0x00001404
   287cc:	4915      	ldr	r1, [pc, #84]	@ (28824 <_start+0xb28>)
   287ce:	4469      	add	r1, sp
   287d0:	78c8      	ldrb	r0, [r1, #3]
   287d2:	ac39      	add	r4, sp, #228	@ 0xe4
   287d4:	70a0      	strb	r0, [r4, #2]
   287d6:	7848      	ldrb	r0, [r1, #1]
   287d8:	788a      	ldrb	r2, [r1, #2]
   287da:	0212      	lsls	r2, r2, #8
   287dc:	1810      	adds	r0, r2, r0
   287de:	8020      	strh	r0, [r4, #0]
   287e0:	9808      	ldr	r0, [sp, #32]
   287e2:	6e06      	ldr	r6, [r0, #96]	@ 0x60
   287e4:	3108      	adds	r1, #8
   287e6:	4d10      	ldr	r5, [pc, #64]	@ (28828 <_start+0xb2c>)
   287e8:	446d      	add	r5, sp
   287ea:	2241      	movs	r2, #65	@ 0x41
   287ec:	920b      	str	r2, [sp, #44]	@ 0x2c
   287ee:	4628      	mov	r0, r5
   287f0:	f002 fb2c 	bl	2ae4c <__aeabi_memcpy4>
   287f4:	0e30      	lsrs	r0, r6, #24
   287f6:	71a0      	strb	r0, [r4, #6]
   287f8:	0c30      	lsrs	r0, r6, #16
   287fa:	7160      	strb	r0, [r4, #5]
   287fc:	0a30      	lsrs	r0, r6, #8
   287fe:	7120      	strb	r0, [r4, #4]
   28800:	70e6      	strb	r6, [r4, #3]
   28802:	1de0      	adds	r0, r4, #7
   28804:	4629      	mov	r1, r5
   28806:	9a0b      	ldr	r2, [sp, #44]	@ 0x2c
   28808:	f002 fc80 	bl	2b10c <__aeabi_memcpy>
   2880c:	4d05      	ldr	r5, [pc, #20]	@ (28824 <_start+0xb28>)
   2880e:	446d      	add	r5, sp
   28810:	4628      	mov	r0, r5
   28812:	4621      	mov	r1, r4
   28814:	f7f7 ff0a 	bl	2062c <_ZN20complex_dynamic_type3app17h0f288093d53fd7bcE>
   28818:	7828      	ldrb	r0, [r5, #0]
   2881a:	2801      	cmp	r0, #1
   2881c:	d106      	bne.n	2882c <_start+0xb30>
   2881e:	f002 fa5d 	bl	2acdc <_start+0x2fe0>
   28822:	46c0      	nop			@ (mov r8, r8)
   28824:	00001404 	.word	0x00001404
   28828:	000013a8 	.word	0x000013a8
   2882c:	9805      	ldr	r0, [sp, #20]
   2882e:	1cc0      	adds	r0, r0, #3
   28830:	4a15      	ldr	r2, [pc, #84]	@ (28888 <_start+0xb8c>)
   28832:	446a      	add	r2, sp
   28834:	78d3      	ldrb	r3, [r2, #3]
   28836:	a94b      	add	r1, sp, #300	@ 0x12c
   28838:	708b      	strb	r3, [r1, #2]
   2883a:	7853      	ldrb	r3, [r2, #1]
   2883c:	7892      	ldrb	r2, [r2, #2]
   2883e:	0212      	lsls	r2, r2, #8
   28840:	18d2      	adds	r2, r2, r3
   28842:	800a      	strh	r2, [r1, #0]
   28844:	9c08      	ldr	r4, [sp, #32]
   28846:	3460      	adds	r4, #96	@ 0x60
   28848:	cc1c      	ldmia	r4, {r2, r3, r4}
   2884a:	0e25      	lsrs	r5, r4, #24
   2884c:	72c5      	strb	r5, [r0, #11]
   2884e:	0c25      	lsrs	r5, r4, #16
   28850:	7285      	strb	r5, [r0, #10]
   28852:	0a25      	lsrs	r5, r4, #8
   28854:	7245      	strb	r5, [r0, #9]
   28856:	7204      	strb	r4, [r0, #8]
   28858:	0e1c      	lsrs	r4, r3, #24
   2885a:	71c4      	strb	r4, [r0, #7]
   2885c:	0c1c      	lsrs	r4, r3, #16
   2885e:	7184      	strb	r4, [r0, #6]
   28860:	0a1c      	lsrs	r4, r3, #8
   28862:	7144      	strb	r4, [r0, #5]
   28864:	7103      	strb	r3, [r0, #4]
   28866:	0e13      	lsrs	r3, r2, #24
   28868:	70c3      	strb	r3, [r0, #3]
   2886a:	0c13      	lsrs	r3, r2, #16
   2886c:	7083      	strb	r3, [r0, #2]
   2886e:	0a13      	lsrs	r3, r2, #8
   28870:	7043      	strb	r3, [r0, #1]
   28872:	7002      	strb	r2, [r0, #0]
   28874:	4c04      	ldr	r4, [pc, #16]	@ (28888 <_start+0xb8c>)
   28876:	446c      	add	r4, sp
   28878:	4620      	mov	r0, r4
   2887a:	f7fe ff9b 	bl	277b4 <_ZN20complex_dynamic_type3app17hefcf42e53739fff6E>
   2887e:	7820      	ldrb	r0, [r4, #0]
   28880:	2801      	cmp	r0, #1
   28882:	d103      	bne.n	2888c <_start+0xb90>
   28884:	f002 fa2a 	bl	2acdc <_start+0x2fe0>
   28888:	00001404 	.word	0x00001404
   2888c:	4817      	ldr	r0, [pc, #92]	@ (288ec <_start+0xbf0>)
   2888e:	4468      	add	r0, sp
   28890:	78c1      	ldrb	r1, [r0, #3]
   28892:	ac4f      	add	r4, sp, #316	@ 0x13c
   28894:	70a1      	strb	r1, [r4, #2]
   28896:	7841      	ldrb	r1, [r0, #1]
   28898:	7882      	ldrb	r2, [r0, #2]
   2889a:	0212      	lsls	r2, r2, #8
   2889c:	1851      	adds	r1, r2, r1
   2889e:	8021      	strh	r1, [r4, #0]
   288a0:	3008      	adds	r0, #8
   288a2:	9908      	ldr	r1, [sp, #32]
   288a4:	6e09      	ldr	r1, [r1, #96]	@ 0x60
   288a6:	910a      	str	r1, [sp, #40]	@ 0x28
   288a8:	4b11      	ldr	r3, [pc, #68]	@ (288f0 <_start+0xbf4>)
   288aa:	446b      	add	r3, sp
   288ac:	930b      	str	r3, [sp, #44]	@ 0x2c
   288ae:	c864      	ldmia	r0!, {r2, r5, r6}
   288b0:	c364      	stmia	r3!, {r2, r5, r6}
   288b2:	c866      	ldmia	r0!, {r1, r2, r5, r6}
   288b4:	c366      	stmia	r3!, {r1, r2, r5, r6}
   288b6:	8800      	ldrh	r0, [r0, #0]
   288b8:	8018      	strh	r0, [r3, #0]
   288ba:	990a      	ldr	r1, [sp, #40]	@ 0x28
   288bc:	0e08      	lsrs	r0, r1, #24
   288be:	71a0      	strb	r0, [r4, #6]
   288c0:	0c08      	lsrs	r0, r1, #16
   288c2:	7160      	strb	r0, [r4, #5]
   288c4:	0a08      	lsrs	r0, r1, #8
   288c6:	7120      	strb	r0, [r4, #4]
   288c8:	70e1      	strb	r1, [r4, #3]
   288ca:	1de0      	adds	r0, r4, #7
   288cc:	221e      	movs	r2, #30
   288ce:	990b      	ldr	r1, [sp, #44]	@ 0x2c
   288d0:	f002 fc1c 	bl	2b10c <__aeabi_memcpy>
   288d4:	4d05      	ldr	r5, [pc, #20]	@ (288ec <_start+0xbf0>)
   288d6:	446d      	add	r5, sp
   288d8:	4628      	mov	r0, r5
   288da:	4621      	mov	r1, r4
   288dc:	f7f7 fd52 	bl	20384 <_ZN20complex_dynamic_type3app17h0a286a836f10fb4dE>
   288e0:	7828      	ldrb	r0, [r5, #0]
   288e2:	2801      	cmp	r0, #1
   288e4:	d106      	bne.n	288f4 <_start+0xbf8>
   288e6:	f002 f9f9 	bl	2acdc <_start+0x2fe0>
   288ea:	46c0      	nop			@ (mov r8, r8)
   288ec:	00001404 	.word	0x00001404
   288f0:	000013a8 	.word	0x000013a8
   288f4:	4818      	ldr	r0, [pc, #96]	@ (28958 <_start+0xc5c>)
   288f6:	4468      	add	r0, sp
   288f8:	78c1      	ldrb	r1, [r0, #3]
   288fa:	ac59      	add	r4, sp, #356	@ 0x164
   288fc:	70a1      	strb	r1, [r4, #2]
   288fe:	7841      	ldrb	r1, [r0, #1]
   28900:	7882      	ldrb	r2, [r0, #2]
   28902:	0212      	lsls	r2, r2, #8
   28904:	1851      	adds	r1, r2, r1
   28906:	8021      	strh	r1, [r4, #0]
   28908:	3008      	adds	r0, #8
   2890a:	9908      	ldr	r1, [sp, #32]
   2890c:	6e09      	ldr	r1, [r1, #96]	@ 0x60
   2890e:	910a      	str	r1, [sp, #40]	@ 0x28
   28910:	4b12      	ldr	r3, [pc, #72]	@ (2895c <_start+0xc60>)
   28912:	446b      	add	r3, sp
   28914:	930b      	str	r3, [sp, #44]	@ 0x2c
   28916:	c866      	ldmia	r0!, {r1, r2, r5, r6}
   28918:	c366      	stmia	r3!, {r1, r2, r5, r6}
   2891a:	c866      	ldmia	r0!, {r1, r2, r5, r6}
   2891c:	c366      	stmia	r3!, {r1, r2, r5, r6}
   2891e:	8801      	ldrh	r1, [r0, #0]
   28920:	8019      	strh	r1, [r3, #0]
   28922:	7880      	ldrb	r0, [r0, #2]
   28924:	7098      	strb	r0, [r3, #2]
   28926:	990a      	ldr	r1, [sp, #40]	@ 0x28
   28928:	0e08      	lsrs	r0, r1, #24
   2892a:	71a0      	strb	r0, [r4, #6]
   2892c:	0c08      	lsrs	r0, r1, #16
   2892e:	7160      	strb	r0, [r4, #5]
   28930:	0a08      	lsrs	r0, r1, #8
   28932:	7120      	strb	r0, [r4, #4]
   28934:	70e1      	strb	r1, [r4, #3]
   28936:	1de0      	adds	r0, r4, #7
   28938:	2223      	movs	r2, #35	@ 0x23
   2893a:	990b      	ldr	r1, [sp, #44]	@ 0x2c
   2893c:	f002 fbe6 	bl	2b10c <__aeabi_memcpy>
   28940:	4d05      	ldr	r5, [pc, #20]	@ (28958 <_start+0xc5c>)
   28942:	446d      	add	r5, sp
   28944:	4628      	mov	r0, r5
   28946:	4621      	mov	r1, r4
   28948:	f7fb fe1e 	bl	24588 <_ZN20complex_dynamic_type3app17h99ba12d06a7056daE>
   2894c:	7828      	ldrb	r0, [r5, #0]
   2894e:	2801      	cmp	r0, #1
   28950:	d106      	bne.n	28960 <_start+0xc64>
   28952:	f002 f9c3 	bl	2acdc <_start+0x2fe0>
   28956:	46c0      	nop			@ (mov r8, r8)
   28958:	00001404 	.word	0x00001404
   2895c:	000013a8 	.word	0x000013a8
   28960:	4915      	ldr	r1, [pc, #84]	@ (289b8 <_start+0xcbc>)
   28962:	4469      	add	r1, sp
   28964:	78c8      	ldrb	r0, [r1, #3]
   28966:	ac64      	add	r4, sp, #400	@ 0x190
   28968:	70a0      	strb	r0, [r4, #2]
   2896a:	7848      	ldrb	r0, [r1, #1]
   2896c:	788a      	ldrb	r2, [r1, #2]
   2896e:	0212      	lsls	r2, r2, #8
   28970:	1810      	adds	r0, r2, r0
   28972:	8020      	strh	r0, [r4, #0]
   28974:	9808      	ldr	r0, [sp, #32]
   28976:	6e06      	ldr	r6, [r0, #96]	@ 0x60
   28978:	3108      	adds	r1, #8
   2897a:	4d10      	ldr	r5, [pc, #64]	@ (289bc <_start+0xcc0>)
   2897c:	446d      	add	r5, sp
   2897e:	225c      	movs	r2, #92	@ 0x5c
   28980:	920b      	str	r2, [sp, #44]	@ 0x2c
   28982:	4628      	mov	r0, r5
   28984:	f002 fa62 	bl	2ae4c <__aeabi_memcpy4>
   28988:	0e30      	lsrs	r0, r6, #24
   2898a:	71a0      	strb	r0, [r4, #6]
   2898c:	0c30      	lsrs	r0, r6, #16
   2898e:	7160      	strb	r0, [r4, #5]
   28990:	0a30      	lsrs	r0, r6, #8
   28992:	7120      	strb	r0, [r4, #4]
   28994:	70e6      	strb	r6, [r4, #3]
   28996:	1de0      	adds	r0, r4, #7
   28998:	4629      	mov	r1, r5
   2899a:	9a0b      	ldr	r2, [sp, #44]	@ 0x2c
   2899c:	f002 fbb6 	bl	2b10c <__aeabi_memcpy>
   289a0:	4d05      	ldr	r5, [pc, #20]	@ (289b8 <_start+0xcbc>)
   289a2:	446d      	add	r5, sp
   289a4:	4628      	mov	r0, r5
   289a6:	4621      	mov	r1, r4
   289a8:	f7f8 f8e0 	bl	20b6c <_ZN20complex_dynamic_type3app17h19bb8febb8a885deE>
   289ac:	7828      	ldrb	r0, [r5, #0]
   289ae:	2801      	cmp	r0, #1
   289b0:	d106      	bne.n	289c0 <_start+0xcc4>
   289b2:	f002 f993 	bl	2acdc <_start+0x2fe0>
   289b6:	46c0      	nop			@ (mov r8, r8)
   289b8:	00001404 	.word	0x00001404
   289bc:	000013a8 	.word	0x000013a8
   289c0:	4816      	ldr	r0, [pc, #88]	@ (28a1c <_start+0xd20>)
   289c2:	4468      	add	r0, sp
   289c4:	78c1      	ldrb	r1, [r0, #3]
   289c6:	ac7d      	add	r4, sp, #500	@ 0x1f4
   289c8:	70a1      	strb	r1, [r4, #2]
   289ca:	7841      	ldrb	r1, [r0, #1]
   289cc:	7882      	ldrb	r2, [r0, #2]
   289ce:	0212      	lsls	r2, r2, #8
   289d0:	1851      	adds	r1, r2, r1
   289d2:	8021      	strh	r1, [r4, #0]
   289d4:	3008      	adds	r0, #8
   289d6:	9908      	ldr	r1, [sp, #32]
   289d8:	6e09      	ldr	r1, [r1, #96]	@ 0x60
   289da:	910a      	str	r1, [sp, #40]	@ 0x28
   289dc:	4b10      	ldr	r3, [pc, #64]	@ (28a20 <_start+0xd24>)
   289de:	446b      	add	r3, sp
   289e0:	930b      	str	r3, [sp, #44]	@ 0x2c
   289e2:	c866      	ldmia	r0!, {r1, r2, r5, r6}
   289e4:	c366      	stmia	r3!, {r1, r2, r5, r6}
   289e6:	c866      	ldmia	r0!, {r1, r2, r5, r6}
   289e8:	c366      	stmia	r3!, {r1, r2, r5, r6}
   289ea:	990a      	ldr	r1, [sp, #40]	@ 0x28
   289ec:	0e08      	lsrs	r0, r1, #24
   289ee:	71a0      	strb	r0, [r4, #6]
   289f0:	0c08      	lsrs	r0, r1, #16
   289f2:	7160      	strb	r0, [r4, #5]
   289f4:	0a08      	lsrs	r0, r1, #8
   289f6:	7120      	strb	r0, [r4, #4]
   289f8:	70e1      	strb	r1, [r4, #3]
   289fa:	1de0      	adds	r0, r4, #7
   289fc:	2220      	movs	r2, #32
   289fe:	990b      	ldr	r1, [sp, #44]	@ 0x2c
   28a00:	f002 fb84 	bl	2b10c <__aeabi_memcpy>
   28a04:	4d05      	ldr	r5, [pc, #20]	@ (28a1c <_start+0xd20>)
   28a06:	446d      	add	r5, sp
   28a08:	4628      	mov	r0, r5
   28a0a:	4621      	mov	r1, r4
   28a0c:	f7fa f88e 	bl	22b2c <_ZN20complex_dynamic_type3app17h68b0e57693ea540cE>
   28a10:	7828      	ldrb	r0, [r5, #0]
   28a12:	2801      	cmp	r0, #1
   28a14:	d106      	bne.n	28a24 <_start+0xd28>
   28a16:	f002 f961 	bl	2acdc <_start+0x2fe0>
   28a1a:	46c0      	nop			@ (mov r8, r8)
   28a1c:	00001404 	.word	0x00001404
   28a20:	000013a8 	.word	0x000013a8
   28a24:	4817      	ldr	r0, [pc, #92]	@ (28a84 <_start+0xd88>)
   28a26:	4468      	add	r0, sp
   28a28:	78c1      	ldrb	r1, [r0, #3]
   28a2a:	ac87      	add	r4, sp, #540	@ 0x21c
   28a2c:	70a1      	strb	r1, [r4, #2]
   28a2e:	7841      	ldrb	r1, [r0, #1]
   28a30:	7882      	ldrb	r2, [r0, #2]
   28a32:	0212      	lsls	r2, r2, #8
   28a34:	1851      	adds	r1, r2, r1
   28a36:	8021      	strh	r1, [r4, #0]
   28a38:	3008      	adds	r0, #8
   28a3a:	9908      	ldr	r1, [sp, #32]
   28a3c:	6e09      	ldr	r1, [r1, #96]	@ 0x60
   28a3e:	4b12      	ldr	r3, [pc, #72]	@ (28a88 <_start+0xd8c>)
   28a40:	446b      	add	r3, sp
   28a42:	930b      	str	r3, [sp, #44]	@ 0x2c
   28a44:	c860      	ldmia	r0!, {r5, r6}
   28a46:	c360      	stmia	r3!, {r5, r6}
   28a48:	c864      	ldmia	r0!, {r2, r5, r6}
   28a4a:	c364      	stmia	r3!, {r2, r5, r6}
   28a4c:	8802      	ldrh	r2, [r0, #0]
   28a4e:	801a      	strh	r2, [r3, #0]
   28a50:	7880      	ldrb	r0, [r0, #2]
   28a52:	7098      	strb	r0, [r3, #2]
   28a54:	0e08      	lsrs	r0, r1, #24
   28a56:	71a0      	strb	r0, [r4, #6]
   28a58:	0c08      	lsrs	r0, r1, #16
   28a5a:	7160      	strb	r0, [r4, #5]
   28a5c:	0a08      	lsrs	r0, r1, #8
   28a5e:	7120      	strb	r0, [r4, #4]
   28a60:	70e1      	strb	r1, [r4, #3]
   28a62:	1de0      	adds	r0, r4, #7
   28a64:	2217      	movs	r2, #23
   28a66:	990b      	ldr	r1, [sp, #44]	@ 0x2c
   28a68:	f002 fb50 	bl	2b10c <__aeabi_memcpy>
   28a6c:	4d05      	ldr	r5, [pc, #20]	@ (28a84 <_start+0xd88>)
   28a6e:	446d      	add	r5, sp
   28a70:	4628      	mov	r0, r5
   28a72:	4621      	mov	r1, r4
   28a74:	f7f9 ff06 	bl	22884 <_ZN20complex_dynamic_type3app17h6181de168ef18544E>
   28a78:	7828      	ldrb	r0, [r5, #0]
   28a7a:	2801      	cmp	r0, #1
   28a7c:	d106      	bne.n	28a8c <_start+0xd90>
   28a7e:	f002 f92d 	bl	2acdc <_start+0x2fe0>
   28a82:	46c0      	nop			@ (mov r8, r8)
   28a84:	00001404 	.word	0x00001404
   28a88:	000013a8 	.word	0x000013a8
   28a8c:	4817      	ldr	r0, [pc, #92]	@ (28aec <_start+0xdf0>)
   28a8e:	4468      	add	r0, sp
   28a90:	78c1      	ldrb	r1, [r0, #3]
   28a92:	ac8f      	add	r4, sp, #572	@ 0x23c
   28a94:	70a1      	strb	r1, [r4, #2]
   28a96:	7841      	ldrb	r1, [r0, #1]
   28a98:	7882      	ldrb	r2, [r0, #2]
   28a9a:	0212      	lsls	r2, r2, #8
   28a9c:	1851      	adds	r1, r2, r1
   28a9e:	8021      	strh	r1, [r4, #0]
   28aa0:	3008      	adds	r0, #8
   28aa2:	9908      	ldr	r1, [sp, #32]
   28aa4:	6e09      	ldr	r1, [r1, #96]	@ 0x60
   28aa6:	4b12      	ldr	r3, [pc, #72]	@ (28af0 <_start+0xdf4>)
   28aa8:	446b      	add	r3, sp
   28aaa:	930b      	str	r3, [sp, #44]	@ 0x2c
   28aac:	c864      	ldmia	r0!, {r2, r5, r6}
   28aae:	c364      	stmia	r3!, {r2, r5, r6}
   28ab0:	c864      	ldmia	r0!, {r2, r5, r6}
   28ab2:	c364      	stmia	r3!, {r2, r5, r6}
   28ab4:	c864      	ldmia	r0!, {r2, r5, r6}
   28ab6:	c364      	stmia	r3!, {r2, r5, r6}
   28ab8:	7800      	ldrb	r0, [r0, #0]
   28aba:	7018      	strb	r0, [r3, #0]
   28abc:	0e08      	lsrs	r0, r1, #24
   28abe:	71a0      	strb	r0, [r4, #6]
   28ac0:	0c08      	lsrs	r0, r1, #16
   28ac2:	7160      	strb	r0, [r4, #5]
   28ac4:	0a08      	lsrs	r0, r1, #8
   28ac6:	7120      	strb	r0, [r4, #4]
   28ac8:	70e1      	strb	r1, [r4, #3]
   28aca:	1de0      	adds	r0, r4, #7
   28acc:	2225      	movs	r2, #37	@ 0x25
   28ace:	990b      	ldr	r1, [sp, #44]	@ 0x2c
   28ad0:	f002 fb1c 	bl	2b10c <__aeabi_memcpy>
   28ad4:	4d05      	ldr	r5, [pc, #20]	@ (28aec <_start+0xdf0>)
   28ad6:	446d      	add	r5, sp
   28ad8:	4628      	mov	r0, r5
   28ada:	4621      	mov	r1, r4
   28adc:	f7fb fb58 	bl	24190 <_ZN20complex_dynamic_type3app17h9140df4b4371a156E>
   28ae0:	7828      	ldrb	r0, [r5, #0]
   28ae2:	2801      	cmp	r0, #1
   28ae4:	d106      	bne.n	28af4 <_start+0xdf8>
   28ae6:	f002 f8f9 	bl	2acdc <_start+0x2fe0>
   28aea:	46c0      	nop			@ (mov r8, r8)
   28aec:	00001404 	.word	0x00001404
   28af0:	000013a8 	.word	0x000013a8
   28af4:	4817      	ldr	r0, [pc, #92]	@ (28b54 <_start+0xe58>)
   28af6:	4468      	add	r0, sp
   28af8:	78c1      	ldrb	r1, [r0, #3]
   28afa:	ac9a      	add	r4, sp, #616	@ 0x268
   28afc:	70a1      	strb	r1, [r4, #2]
   28afe:	7841      	ldrb	r1, [r0, #1]
   28b00:	7882      	ldrb	r2, [r0, #2]
   28b02:	0212      	lsls	r2, r2, #8
   28b04:	1851      	adds	r1, r2, r1
   28b06:	8021      	strh	r1, [r4, #0]
   28b08:	3008      	adds	r0, #8
   28b0a:	9908      	ldr	r1, [sp, #32]
   28b0c:	6e09      	ldr	r1, [r1, #96]	@ 0x60
   28b0e:	910a      	str	r1, [sp, #40]	@ 0x28
   28b10:	4b11      	ldr	r3, [pc, #68]	@ (28b58 <_start+0xe5c>)
   28b12:	446b      	add	r3, sp
   28b14:	930b      	str	r3, [sp, #44]	@ 0x2c
   28b16:	c864      	ldmia	r0!, {r2, r5, r6}
   28b18:	c364      	stmia	r3!, {r2, r5, r6}
   28b1a:	c866      	ldmia	r0!, {r1, r2, r5, r6}
   28b1c:	c366      	stmia	r3!, {r1, r2, r5, r6}
   28b1e:	8800      	ldrh	r0, [r0, #0]
   28b20:	8018      	strh	r0, [r3, #0]
   28b22:	990a      	ldr	r1, [sp, #40]	@ 0x28
   28b24:	0e08      	lsrs	r0, r1, #24
   28b26:	71a0      	strb	r0, [r4, #6]
   28b28:	0c08      	lsrs	r0, r1, #16
   28b2a:	7160      	strb	r0, [r4, #5]
   28b2c:	0a08      	lsrs	r0, r1, #8
   28b2e:	7120      	strb	r0, [r4, #4]
   28b30:	70e1      	strb	r1, [r4, #3]
   28b32:	1de0      	adds	r0, r4, #7
   28b34:	221e      	movs	r2, #30
   28b36:	990b      	ldr	r1, [sp, #44]	@ 0x2c
   28b38:	f002 fae8 	bl	2b10c <__aeabi_memcpy>
   28b3c:	4d05      	ldr	r5, [pc, #20]	@ (28b54 <_start+0xe58>)
   28b3e:	446d      	add	r5, sp
   28b40:	4628      	mov	r0, r5
   28b42:	4621      	mov	r1, r4
   28b44:	f7fc fc5a 	bl	253fc <_ZN20complex_dynamic_type3app17hae5fefd81595f1ecE>
   28b48:	7828      	ldrb	r0, [r5, #0]
   28b4a:	2801      	cmp	r0, #1
   28b4c:	d106      	bne.n	28b5c <_start+0xe60>
   28b4e:	f002 f8c5 	bl	2acdc <_start+0x2fe0>
   28b52:	46c0      	nop			@ (mov r8, r8)
   28b54:	00001404 	.word	0x00001404
   28b58:	000013a8 	.word	0x000013a8
   28b5c:	4816      	ldr	r0, [pc, #88]	@ (28bb8 <_start+0xebc>)
   28b5e:	4468      	add	r0, sp
   28b60:	78c1      	ldrb	r1, [r0, #3]
   28b62:	aca4      	add	r4, sp, #656	@ 0x290
   28b64:	70a1      	strb	r1, [r4, #2]
   28b66:	7841      	ldrb	r1, [r0, #1]
   28b68:	7882      	ldrb	r2, [r0, #2]
   28b6a:	0212      	lsls	r2, r2, #8
   28b6c:	1851      	adds	r1, r2, r1
   28b6e:	8021      	strh	r1, [r4, #0]
   28b70:	3008      	adds	r0, #8
   28b72:	9908      	ldr	r1, [sp, #32]
   28b74:	6e09      	ldr	r1, [r1, #96]	@ 0x60
   28b76:	910a      	str	r1, [sp, #40]	@ 0x28
   28b78:	4b10      	ldr	r3, [pc, #64]	@ (28bbc <_start+0xec0>)
   28b7a:	446b      	add	r3, sp
   28b7c:	930b      	str	r3, [sp, #44]	@ 0x2c
   28b7e:	c866      	ldmia	r0!, {r1, r2, r5, r6}
   28b80:	c366      	stmia	r3!, {r1, r2, r5, r6}
   28b82:	7800      	ldrb	r0, [r0, #0]
   28b84:	7018      	strb	r0, [r3, #0]
   28b86:	990a      	ldr	r1, [sp, #40]	@ 0x28
   28b88:	0e08      	lsrs	r0, r1, #24
   28b8a:	71a0      	strb	r0, [r4, #6]
   28b8c:	0c08      	lsrs	r0, r1, #16
   28b8e:	7160      	strb	r0, [r4, #5]
   28b90:	0a08      	lsrs	r0, r1, #8
   28b92:	7120      	strb	r0, [r4, #4]
   28b94:	70e1      	strb	r1, [r4, #3]
   28b96:	1de0      	adds	r0, r4, #7
   28b98:	2211      	movs	r2, #17
   28b9a:	990b      	ldr	r1, [sp, #44]	@ 0x2c
   28b9c:	f002 fab6 	bl	2b10c <__aeabi_memcpy>
   28ba0:	4d05      	ldr	r5, [pc, #20]	@ (28bb8 <_start+0xebc>)
   28ba2:	446d      	add	r5, sp
   28ba4:	4628      	mov	r0, r5
   28ba6:	4621      	mov	r1, r4
   28ba8:	f7fd fc1a 	bl	263e0 <_ZN20complex_dynamic_type3app17hbc8e99b110145eadE>
   28bac:	7828      	ldrb	r0, [r5, #0]
   28bae:	2801      	cmp	r0, #1
   28bb0:	d106      	bne.n	28bc0 <_start+0xec4>
   28bb2:	f002 f893 	bl	2acdc <_start+0x2fe0>
   28bb6:	46c0      	nop			@ (mov r8, r8)
   28bb8:	00001404 	.word	0x00001404
   28bbc:	000013a8 	.word	0x000013a8
   28bc0:	4819      	ldr	r0, [pc, #100]	@ (28c28 <_start+0xf2c>)
   28bc2:	4468      	add	r0, sp
   28bc4:	78c1      	ldrb	r1, [r0, #3]
   28bc6:	acaa      	add	r4, sp, #680	@ 0x2a8
   28bc8:	70a1      	strb	r1, [r4, #2]
   28bca:	7841      	ldrb	r1, [r0, #1]
   28bcc:	7882      	ldrb	r2, [r0, #2]
   28bce:	0212      	lsls	r2, r2, #8
   28bd0:	1851      	adds	r1, r2, r1
   28bd2:	8021      	strh	r1, [r4, #0]
   28bd4:	3008      	adds	r0, #8
   28bd6:	9908      	ldr	r1, [sp, #32]
   28bd8:	6e09      	ldr	r1, [r1, #96]	@ 0x60
   28bda:	910a      	str	r1, [sp, #40]	@ 0x28
   28bdc:	4b13      	ldr	r3, [pc, #76]	@ (28c2c <_start+0xf30>)
   28bde:	446b      	add	r3, sp
   28be0:	930b      	str	r3, [sp, #44]	@ 0x2c
   28be2:	c864      	ldmia	r0!, {r2, r5, r6}
   28be4:	c364      	stmia	r3!, {r2, r5, r6}
   28be6:	c866      	ldmia	r0!, {r1, r2, r5, r6}
   28be8:	c366      	stmia	r3!, {r1, r2, r5, r6}
   28bea:	c866      	ldmia	r0!, {r1, r2, r5, r6}
   28bec:	c366      	stmia	r3!, {r1, r2, r5, r6}
   28bee:	8801      	ldrh	r1, [r0, #0]
   28bf0:	8019      	strh	r1, [r3, #0]
   28bf2:	7880      	ldrb	r0, [r0, #2]
   28bf4:	7098      	strb	r0, [r3, #2]
   28bf6:	990a      	ldr	r1, [sp, #40]	@ 0x28
   28bf8:	0e08      	lsrs	r0, r1, #24
   28bfa:	71a0      	strb	r0, [r4, #6]
   28bfc:	0c08      	lsrs	r0, r1, #16
   28bfe:	7160      	strb	r0, [r4, #5]
   28c00:	0a08      	lsrs	r0, r1, #8
   28c02:	7120      	strb	r0, [r4, #4]
   28c04:	70e1      	strb	r1, [r4, #3]
   28c06:	1de0      	adds	r0, r4, #7
   28c08:	222f      	movs	r2, #47	@ 0x2f
   28c0a:	990b      	ldr	r1, [sp, #44]	@ 0x2c
   28c0c:	f002 fa7e 	bl	2b10c <__aeabi_memcpy>
   28c10:	4d05      	ldr	r5, [pc, #20]	@ (28c28 <_start+0xf2c>)
   28c12:	446d      	add	r5, sp
   28c14:	4628      	mov	r0, r5
   28c16:	4621      	mov	r1, r4
   28c18:	f7fe ff1a 	bl	27a50 <_ZN20complex_dynamic_type3app17hf63c8648ad1832d6E>
   28c1c:	7828      	ldrb	r0, [r5, #0]
   28c1e:	2801      	cmp	r0, #1
   28c20:	d106      	bne.n	28c30 <_start+0xf34>
   28c22:	f002 f85b 	bl	2acdc <_start+0x2fe0>
   28c26:	46c0      	nop			@ (mov r8, r8)
   28c28:	00001404 	.word	0x00001404
   28c2c:	000013a8 	.word	0x000013a8
   28c30:	4818      	ldr	r0, [pc, #96]	@ (28c94 <_start+0xf98>)
   28c32:	4468      	add	r0, sp
   28c34:	78c1      	ldrb	r1, [r0, #3]
   28c36:	acb8      	add	r4, sp, #736	@ 0x2e0
   28c38:	70a1      	strb	r1, [r4, #2]
   28c3a:	7841      	ldrb	r1, [r0, #1]
   28c3c:	7882      	ldrb	r2, [r0, #2]
   28c3e:	0212      	lsls	r2, r2, #8
   28c40:	1851      	adds	r1, r2, r1
   28c42:	8021      	strh	r1, [r4, #0]
   28c44:	3008      	adds	r0, #8
   28c46:	9908      	ldr	r1, [sp, #32]
   28c48:	6e09      	ldr	r1, [r1, #96]	@ 0x60
   28c4a:	910a      	str	r1, [sp, #40]	@ 0x28
   28c4c:	4b12      	ldr	r3, [pc, #72]	@ (28c98 <_start+0xf9c>)
   28c4e:	446b      	add	r3, sp
   28c50:	930b      	str	r3, [sp, #44]	@ 0x2c
   28c52:	c864      	ldmia	r0!, {r2, r5, r6}
   28c54:	c364      	stmia	r3!, {r2, r5, r6}
   28c56:	c866      	ldmia	r0!, {r1, r2, r5, r6}
   28c58:	c366      	stmia	r3!, {r1, r2, r5, r6}
   28c5a:	c866      	ldmia	r0!, {r1, r2, r5, r6}
   28c5c:	c366      	stmia	r3!, {r1, r2, r5, r6}
   28c5e:	7800      	ldrb	r0, [r0, #0]
   28c60:	7018      	strb	r0, [r3, #0]
   28c62:	990a      	ldr	r1, [sp, #40]	@ 0x28
   28c64:	0e08      	lsrs	r0, r1, #24
   28c66:	71a0      	strb	r0, [r4, #6]
   28c68:	0c08      	lsrs	r0, r1, #16
   28c6a:	7160      	strb	r0, [r4, #5]
   28c6c:	0a08      	lsrs	r0, r1, #8
   28c6e:	7120      	strb	r0, [r4, #4]
   28c70:	70e1      	strb	r1, [r4, #3]
   28c72:	1de0      	adds	r0, r4, #7
   28c74:	222d      	movs	r2, #45	@ 0x2d
   28c76:	990b      	ldr	r1, [sp, #44]	@ 0x2c
   28c78:	f002 fa48 	bl	2b10c <__aeabi_memcpy>
   28c7c:	4d05      	ldr	r5, [pc, #20]	@ (28c94 <_start+0xf98>)
   28c7e:	446d      	add	r5, sp
   28c80:	4628      	mov	r0, r5
   28c82:	4621      	mov	r1, r4
   28c84:	f7f9 fea6 	bl	229d4 <_ZN20complex_dynamic_type3app17h67ea43fa1344c534E>
   28c88:	7828      	ldrb	r0, [r5, #0]
   28c8a:	2801      	cmp	r0, #1
   28c8c:	d106      	bne.n	28c9c <_start+0xfa0>
   28c8e:	f002 f825 	bl	2acdc <_start+0x2fe0>
   28c92:	46c0      	nop			@ (mov r8, r8)
   28c94:	00001404 	.word	0x00001404
   28c98:	000013a8 	.word	0x000013a8
   28c9c:	4818      	ldr	r0, [pc, #96]	@ (28d00 <_start+0x1004>)
   28c9e:	4468      	add	r0, sp
   28ca0:	78c1      	ldrb	r1, [r0, #3]
   28ca2:	acc5      	add	r4, sp, #788	@ 0x314
   28ca4:	70a1      	strb	r1, [r4, #2]
   28ca6:	7841      	ldrb	r1, [r0, #1]
   28ca8:	7882      	ldrb	r2, [r0, #2]
   28caa:	0212      	lsls	r2, r2, #8
   28cac:	1851      	adds	r1, r2, r1
   28cae:	8021      	strh	r1, [r4, #0]
   28cb0:	3008      	adds	r0, #8
   28cb2:	9908      	ldr	r1, [sp, #32]
   28cb4:	6e09      	ldr	r1, [r1, #96]	@ 0x60
   28cb6:	4b13      	ldr	r3, [pc, #76]	@ (28d04 <_start+0x1008>)
   28cb8:	446b      	add	r3, sp
   28cba:	930b      	str	r3, [sp, #44]	@ 0x2c
   28cbc:	c864      	ldmia	r0!, {r2, r5, r6}
   28cbe:	c364      	stmia	r3!, {r2, r5, r6}
   28cc0:	c864      	ldmia	r0!, {r2, r5, r6}
   28cc2:	c364      	stmia	r3!, {r2, r5, r6}
   28cc4:	c864      	ldmia	r0!, {r2, r5, r6}
   28cc6:	c364      	stmia	r3!, {r2, r5, r6}
   28cc8:	8802      	ldrh	r2, [r0, #0]
   28cca:	801a      	strh	r2, [r3, #0]
   28ccc:	7880      	ldrb	r0, [r0, #2]
   28cce:	7098      	strb	r0, [r3, #2]
   28cd0:	0e08      	lsrs	r0, r1, #24
   28cd2:	71a0      	strb	r0, [r4, #6]
   28cd4:	0c08      	lsrs	r0, r1, #16
   28cd6:	7160      	strb	r0, [r4, #5]
   28cd8:	0a08      	lsrs	r0, r1, #8
   28cda:	7120      	strb	r0, [r4, #4]
   28cdc:	70e1      	strb	r1, [r4, #3]
   28cde:	1de0      	adds	r0, r4, #7
   28ce0:	2227      	movs	r2, #39	@ 0x27
   28ce2:	990b      	ldr	r1, [sp, #44]	@ 0x2c
   28ce4:	f002 fa12 	bl	2b10c <__aeabi_memcpy>
   28ce8:	4d05      	ldr	r5, [pc, #20]	@ (28d00 <_start+0x1004>)
   28cea:	446d      	add	r5, sp
   28cec:	4628      	mov	r0, r5
   28cee:	4621      	mov	r1, r4
   28cf0:	f7fa fb0e 	bl	23310 <_ZN20complex_dynamic_type3app17h6f3513e68e6c139dE>
   28cf4:	7828      	ldrb	r0, [r5, #0]
   28cf6:	2801      	cmp	r0, #1
   28cf8:	d106      	bne.n	28d08 <_start+0x100c>
   28cfa:	f001 ffef 	bl	2acdc <_start+0x2fe0>
   28cfe:	46c0      	nop			@ (mov r8, r8)
   28d00:	00001404 	.word	0x00001404
   28d04:	000013a8 	.word	0x000013a8
   28d08:	4818      	ldr	r0, [pc, #96]	@ (28d6c <_start+0x1070>)
   28d0a:	4468      	add	r0, sp
   28d0c:	78c1      	ldrb	r1, [r0, #3]
   28d0e:	acd1      	add	r4, sp, #836	@ 0x344
   28d10:	70a1      	strb	r1, [r4, #2]
   28d12:	7841      	ldrb	r1, [r0, #1]
   28d14:	7882      	ldrb	r2, [r0, #2]
   28d16:	0212      	lsls	r2, r2, #8
   28d18:	1851      	adds	r1, r2, r1
   28d1a:	8021      	strh	r1, [r4, #0]
   28d1c:	3008      	adds	r0, #8
   28d1e:	9908      	ldr	r1, [sp, #32]
   28d20:	6e09      	ldr	r1, [r1, #96]	@ 0x60
   28d22:	910a      	str	r1, [sp, #40]	@ 0x28
   28d24:	4b12      	ldr	r3, [pc, #72]	@ (28d70 <_start+0x1074>)
   28d26:	446b      	add	r3, sp
   28d28:	930b      	str	r3, [sp, #44]	@ 0x2c
   28d2a:	c866      	ldmia	r0!, {r1, r2, r5, r6}
   28d2c:	c366      	stmia	r3!, {r1, r2, r5, r6}
   28d2e:	c866      	ldmia	r0!, {r1, r2, r5, r6}
   28d30:	c366      	stmia	r3!, {r1, r2, r5, r6}
   28d32:	c866      	ldmia	r0!, {r1, r2, r5, r6}
   28d34:	c366      	stmia	r3!, {r1, r2, r5, r6}
   28d36:	7800      	ldrb	r0, [r0, #0]
   28d38:	7018      	strb	r0, [r3, #0]
   28d3a:	990a      	ldr	r1, [sp, #40]	@ 0x28
   28d3c:	0e08      	lsrs	r0, r1, #24
   28d3e:	71a0      	strb	r0, [r4, #6]
   28d40:	0c08      	lsrs	r0, r1, #16
   28d42:	7160      	strb	r0, [r4, #5]
   28d44:	0a08      	lsrs	r0, r1, #8
   28d46:	7120      	strb	r0, [r4, #4]
   28d48:	70e1      	strb	r1, [r4, #3]
   28d4a:	1de0      	adds	r0, r4, #7
   28d4c:	2231      	movs	r2, #49	@ 0x31
   28d4e:	990b      	ldr	r1, [sp, #44]	@ 0x2c
   28d50:	f002 f9dc 	bl	2b10c <__aeabi_memcpy>
   28d54:	4d05      	ldr	r5, [pc, #20]	@ (28d6c <_start+0x1070>)
   28d56:	446d      	add	r5, sp
   28d58:	4628      	mov	r0, r5
   28d5a:	4621      	mov	r1, r4
   28d5c:	f7fa fc28 	bl	235b0 <_ZN20complex_dynamic_type3app17h74abbabf0d539379E>
   28d60:	7828      	ldrb	r0, [r5, #0]
   28d62:	2801      	cmp	r0, #1
   28d64:	d106      	bne.n	28d74 <_start+0x1078>
   28d66:	f001 ffb9 	bl	2acdc <_start+0x2fe0>
   28d6a:	46c0      	nop			@ (mov r8, r8)
   28d6c:	00001404 	.word	0x00001404
   28d70:	000013a8 	.word	0x000013a8
   28d74:	4818      	ldr	r0, [pc, #96]	@ (28dd8 <_start+0x10dc>)
   28d76:	4468      	add	r0, sp
   28d78:	78c1      	ldrb	r1, [r0, #3]
   28d7a:	acdf      	add	r4, sp, #892	@ 0x37c
   28d7c:	70a1      	strb	r1, [r4, #2]
   28d7e:	7841      	ldrb	r1, [r0, #1]
   28d80:	7882      	ldrb	r2, [r0, #2]
   28d82:	0212      	lsls	r2, r2, #8
   28d84:	1851      	adds	r1, r2, r1
   28d86:	8021      	strh	r1, [r4, #0]
   28d88:	3008      	adds	r0, #8
   28d8a:	9908      	ldr	r1, [sp, #32]
   28d8c:	6e09      	ldr	r1, [r1, #96]	@ 0x60
   28d8e:	910a      	str	r1, [sp, #40]	@ 0x28
   28d90:	4b12      	ldr	r3, [pc, #72]	@ (28ddc <_start+0x10e0>)
   28d92:	446b      	add	r3, sp
   28d94:	930b      	str	r3, [sp, #44]	@ 0x2c
   28d96:	c864      	ldmia	r0!, {r2, r5, r6}
   28d98:	c364      	stmia	r3!, {r2, r5, r6}
   28d9a:	c866      	ldmia	r0!, {r1, r2, r5, r6}
   28d9c:	c366      	stmia	r3!, {r1, r2, r5, r6}
   28d9e:	c866      	ldmia	r0!, {r1, r2, r5, r6}
   28da0:	c366      	stmia	r3!, {r1, r2, r5, r6}
   28da2:	7800      	ldrb	r0, [r0, #0]
   28da4:	7018      	strb	r0, [r3, #0]
   28da6:	990a      	ldr	r1, [sp, #40]	@ 0x28
   28da8:	0e08      	lsrs	r0, r1, #24
   28daa:	71a0      	strb	r0, [r4, #6]
   28dac:	0c08      	lsrs	r0, r1, #16
   28dae:	7160      	strb	r0, [r4, #5]
   28db0:	0a08      	lsrs	r0, r1, #8
   28db2:	7120      	strb	r0, [r4, #4]
   28db4:	70e1      	strb	r1, [r4, #3]
   28db6:	1de0      	adds	r0, r4, #7
   28db8:	222d      	movs	r2, #45	@ 0x2d
   28dba:	990b      	ldr	r1, [sp, #44]	@ 0x2c
   28dbc:	f002 f9a6 	bl	2b10c <__aeabi_memcpy>
   28dc0:	4d05      	ldr	r5, [pc, #20]	@ (28dd8 <_start+0x10dc>)
   28dc2:	446d      	add	r5, sp
   28dc4:	4628      	mov	r0, r5
   28dc6:	4621      	mov	r1, r4
   28dc8:	f7fa fd48 	bl	2385c <_ZN20complex_dynamic_type3app17h78dedc375bc786d1E>
   28dcc:	7828      	ldrb	r0, [r5, #0]
   28dce:	2801      	cmp	r0, #1
   28dd0:	d106      	bne.n	28de0 <_start+0x10e4>
   28dd2:	f001 ff83 	bl	2acdc <_start+0x2fe0>
   28dd6:	46c0      	nop			@ (mov r8, r8)
   28dd8:	00001404 	.word	0x00001404
   28ddc:	000013a8 	.word	0x000013a8
   28de0:	4817      	ldr	r0, [pc, #92]	@ (28e40 <_start+0x1144>)
   28de2:	4468      	add	r0, sp
   28de4:	78c1      	ldrb	r1, [r0, #3]
   28de6:	acec      	add	r4, sp, #944	@ 0x3b0
   28de8:	70a1      	strb	r1, [r4, #2]
   28dea:	7841      	ldrb	r1, [r0, #1]
   28dec:	7882      	ldrb	r2, [r0, #2]
   28dee:	0212      	lsls	r2, r2, #8
   28df0:	1851      	adds	r1, r2, r1
   28df2:	8021      	strh	r1, [r4, #0]
   28df4:	3008      	adds	r0, #8
   28df6:	9908      	ldr	r1, [sp, #32]
   28df8:	6e09      	ldr	r1, [r1, #96]	@ 0x60
   28dfa:	910a      	str	r1, [sp, #40]	@ 0x28
   28dfc:	4b11      	ldr	r3, [pc, #68]	@ (28e44 <_start+0x1148>)
   28dfe:	446b      	add	r3, sp
   28e00:	930b      	str	r3, [sp, #44]	@ 0x2c
   28e02:	c866      	ldmia	r0!, {r1, r2, r5, r6}
   28e04:	c366      	stmia	r3!, {r1, r2, r5, r6}
   28e06:	8801      	ldrh	r1, [r0, #0]
   28e08:	8019      	strh	r1, [r3, #0]
   28e0a:	7880      	ldrb	r0, [r0, #2]
   28e0c:	7098      	strb	r0, [r3, #2]
   28e0e:	990a      	ldr	r1, [sp, #40]	@ 0x28
   28e10:	0e08      	lsrs	r0, r1, #24
   28e12:	71a0      	strb	r0, [r4, #6]
   28e14:	0c08      	lsrs	r0, r1, #16
   28e16:	7160      	strb	r0, [r4, #5]
   28e18:	0a08      	lsrs	r0, r1, #8
   28e1a:	7120      	strb	r0, [r4, #4]
   28e1c:	70e1      	strb	r1, [r4, #3]
   28e1e:	1de0      	adds	r0, r4, #7
   28e20:	2213      	movs	r2, #19
   28e22:	990b      	ldr	r1, [sp, #44]	@ 0x2c
   28e24:	f002 f972 	bl	2b10c <__aeabi_memcpy>
   28e28:	4d05      	ldr	r5, [pc, #20]	@ (28e40 <_start+0x1144>)
   28e2a:	446d      	add	r5, sp
   28e2c:	4628      	mov	r0, r5
   28e2e:	4621      	mov	r1, r4
   28e30:	f7fa f91e 	bl	23070 <_ZN20complex_dynamic_type3app17h6d5db16a2b9cdf90E>
   28e34:	7828      	ldrb	r0, [r5, #0]
   28e36:	2801      	cmp	r0, #1
   28e38:	d106      	bne.n	28e48 <_start+0x114c>
   28e3a:	f001 ff4f 	bl	2acdc <_start+0x2fe0>
   28e3e:	46c0      	nop			@ (mov r8, r8)
   28e40:	00001404 	.word	0x00001404
   28e44:	000013a8 	.word	0x000013a8
   28e48:	4915      	ldr	r1, [pc, #84]	@ (28ea0 <_start+0x11a4>)
   28e4a:	4469      	add	r1, sp
   28e4c:	78c8      	ldrb	r0, [r1, #3]
   28e4e:	acf3      	add	r4, sp, #972	@ 0x3cc
   28e50:	70a0      	strb	r0, [r4, #2]
   28e52:	7848      	ldrb	r0, [r1, #1]
   28e54:	788a      	ldrb	r2, [r1, #2]
   28e56:	0212      	lsls	r2, r2, #8
   28e58:	1810      	adds	r0, r2, r0
   28e5a:	8020      	strh	r0, [r4, #0]
   28e5c:	9808      	ldr	r0, [sp, #32]
   28e5e:	6e06      	ldr	r6, [r0, #96]	@ 0x60
   28e60:	3108      	adds	r1, #8
   28e62:	4d10      	ldr	r5, [pc, #64]	@ (28ea4 <_start+0x11a8>)
   28e64:	446d      	add	r5, sp
   28e66:	2249      	movs	r2, #73	@ 0x49
   28e68:	920b      	str	r2, [sp, #44]	@ 0x2c
   28e6a:	4628      	mov	r0, r5
   28e6c:	f001 ffee 	bl	2ae4c <__aeabi_memcpy4>
   28e70:	0e30      	lsrs	r0, r6, #24
   28e72:	71a0      	strb	r0, [r4, #6]
   28e74:	0c30      	lsrs	r0, r6, #16
   28e76:	7160      	strb	r0, [r4, #5]
   28e78:	0a30      	lsrs	r0, r6, #8
   28e7a:	7120      	strb	r0, [r4, #4]
   28e7c:	70e6      	strb	r6, [r4, #3]
   28e7e:	1de0      	adds	r0, r4, #7
   28e80:	4629      	mov	r1, r5
   28e82:	9a0b      	ldr	r2, [sp, #44]	@ 0x2c
   28e84:	f002 f942 	bl	2b10c <__aeabi_memcpy>
   28e88:	4d05      	ldr	r5, [pc, #20]	@ (28ea0 <_start+0x11a4>)
   28e8a:	446d      	add	r5, sp
   28e8c:	4628      	mov	r0, r5
   28e8e:	4621      	mov	r1, r4
   28e90:	f7fd f952 	bl	26138 <_ZN20complex_dynamic_type3app17hbbd5114f3e28c791E>
   28e94:	7828      	ldrb	r0, [r5, #0]
   28e96:	2801      	cmp	r0, #1
   28e98:	d106      	bne.n	28ea8 <_start+0x11ac>
   28e9a:	f001 ff1f 	bl	2acdc <_start+0x2fe0>
   28e9e:	46c0      	nop			@ (mov r8, r8)
   28ea0:	00001404 	.word	0x00001404
   28ea4:	000013a8 	.word	0x000013a8
   28ea8:	4819      	ldr	r0, [pc, #100]	@ (28f10 <_start+0x1214>)
   28eaa:	4468      	add	r0, sp
   28eac:	78c1      	ldrb	r1, [r0, #3]
   28eae:	acff      	add	r4, sp, #1020	@ 0x3fc
   28eb0:	3420      	adds	r4, #32
   28eb2:	70a1      	strb	r1, [r4, #2]
   28eb4:	7841      	ldrb	r1, [r0, #1]
   28eb6:	7882      	ldrb	r2, [r0, #2]
   28eb8:	0212      	lsls	r2, r2, #8
   28eba:	1851      	adds	r1, r2, r1
   28ebc:	8021      	strh	r1, [r4, #0]
   28ebe:	3008      	adds	r0, #8
   28ec0:	9908      	ldr	r1, [sp, #32]
   28ec2:	6e09      	ldr	r1, [r1, #96]	@ 0x60
   28ec4:	910a      	str	r1, [sp, #40]	@ 0x28
   28ec6:	4b13      	ldr	r3, [pc, #76]	@ (28f14 <_start+0x1218>)
   28ec8:	446b      	add	r3, sp
   28eca:	930b      	str	r3, [sp, #44]	@ 0x2c
   28ecc:	c864      	ldmia	r0!, {r2, r5, r6}
   28ece:	c364      	stmia	r3!, {r2, r5, r6}
   28ed0:	c864      	ldmia	r0!, {r2, r5, r6}
   28ed2:	c364      	stmia	r3!, {r2, r5, r6}
   28ed4:	c864      	ldmia	r0!, {r2, r5, r6}
   28ed6:	c364      	stmia	r3!, {r2, r5, r6}
   28ed8:	c866      	ldmia	r0!, {r1, r2, r5, r6}
   28eda:	c366      	stmia	r3!, {r1, r2, r5, r6}
   28edc:	7800      	ldrb	r0, [r0, #0]
   28ede:	7018      	strb	r0, [r3, #0]
   28ee0:	990a      	ldr	r1, [sp, #40]	@ 0x28
   28ee2:	0e08      	lsrs	r0, r1, #24
   28ee4:	71a0      	strb	r0, [r4, #6]
   28ee6:	0c08      	lsrs	r0, r1, #16
   28ee8:	7160      	strb	r0, [r4, #5]
   28eea:	0a08      	lsrs	r0, r1, #8
   28eec:	7120      	strb	r0, [r4, #4]
   28eee:	70e1      	strb	r1, [r4, #3]
   28ef0:	1de0      	adds	r0, r4, #7
   28ef2:	2235      	movs	r2, #53	@ 0x35
   28ef4:	990b      	ldr	r1, [sp, #44]	@ 0x2c
   28ef6:	f002 f909 	bl	2b10c <__aeabi_memcpy>
   28efa:	4d05      	ldr	r5, [pc, #20]	@ (28f10 <_start+0x1214>)
   28efc:	446d      	add	r5, sp
   28efe:	4628      	mov	r0, r5
   28f00:	4621      	mov	r1, r4
   28f02:	f7f9 f8c3 	bl	2208c <_ZN20complex_dynamic_type3app17h4cb6c45c46387de9E>
   28f06:	7828      	ldrb	r0, [r5, #0]
   28f08:	2801      	cmp	r0, #1
   28f0a:	d105      	bne.n	28f18 <_start+0x121c>
   28f0c:	f001 fee6 	bl	2acdc <_start+0x2fe0>
   28f10:	00001404 	.word	0x00001404
   28f14:	000013a8 	.word	0x000013a8
   28f18:	4819      	ldr	r0, [pc, #100]	@ (28f80 <_start+0x1284>)
   28f1a:	4468      	add	r0, sp
   28f1c:	78c1      	ldrb	r1, [r0, #3]
   28f1e:	acff      	add	r4, sp, #1020	@ 0x3fc
   28f20:	345c      	adds	r4, #92	@ 0x5c
   28f22:	70a1      	strb	r1, [r4, #2]
   28f24:	7841      	ldrb	r1, [r0, #1]
   28f26:	7882      	ldrb	r2, [r0, #2]
   28f28:	0212      	lsls	r2, r2, #8
   28f2a:	1851      	adds	r1, r2, r1
   28f2c:	8021      	strh	r1, [r4, #0]
   28f2e:	3008      	adds	r0, #8
   28f30:	9908      	ldr	r1, [sp, #32]
   28f32:	6e09      	ldr	r1, [r1, #96]	@ 0x60
   28f34:	910a      	str	r1, [sp, #40]	@ 0x28
   28f36:	4b13      	ldr	r3, [pc, #76]	@ (28f84 <_start+0x1288>)
   28f38:	446b      	add	r3, sp
   28f3a:	930b      	str	r3, [sp, #44]	@ 0x2c
   28f3c:	c864      	ldmia	r0!, {r2, r5, r6}
   28f3e:	c364      	stmia	r3!, {r2, r5, r6}
   28f40:	c864      	ldmia	r0!, {r2, r5, r6}
   28f42:	c364      	stmia	r3!, {r2, r5, r6}
   28f44:	c866      	ldmia	r0!, {r1, r2, r5, r6}
   28f46:	c366      	stmia	r3!, {r1, r2, r5, r6}
   28f48:	8801      	ldrh	r1, [r0, #0]
   28f4a:	8019      	strh	r1, [r3, #0]
   28f4c:	7880      	ldrb	r0, [r0, #2]
   28f4e:	7098      	strb	r0, [r3, #2]
   28f50:	990a      	ldr	r1, [sp, #40]	@ 0x28
   28f52:	0e08      	lsrs	r0, r1, #24
   28f54:	71a0      	strb	r0, [r4, #6]
   28f56:	0c08      	lsrs	r0, r1, #16
   28f58:	7160      	strb	r0, [r4, #5]
   28f5a:	0a08      	lsrs	r0, r1, #8
   28f5c:	7120      	strb	r0, [r4, #4]
   28f5e:	70e1      	strb	r1, [r4, #3]
   28f60:	1de0      	adds	r0, r4, #7
   28f62:	222b      	movs	r2, #43	@ 0x2b
   28f64:	990b      	ldr	r1, [sp, #44]	@ 0x2c
   28f66:	f002 f8d1 	bl	2b10c <__aeabi_memcpy>
   28f6a:	4d05      	ldr	r5, [pc, #20]	@ (28f80 <_start+0x1284>)
   28f6c:	446d      	add	r5, sp
   28f6e:	4628      	mov	r0, r5
   28f70:	4621      	mov	r1, r4
   28f72:	f7fc fb9b 	bl	256ac <_ZN20complex_dynamic_type3app17hb01c4fcedc123d0eE>
   28f76:	7828      	ldrb	r0, [r5, #0]
   28f78:	2801      	cmp	r0, #1
   28f7a:	d105      	bne.n	28f88 <_start+0x128c>
   28f7c:	f001 feae 	bl	2acdc <_start+0x2fe0>
   28f80:	00001404 	.word	0x00001404
   28f84:	000013a8 	.word	0x000013a8
   28f88:	4819      	ldr	r0, [pc, #100]	@ (28ff0 <_start+0x12f4>)
   28f8a:	4468      	add	r0, sp
   28f8c:	78c1      	ldrb	r1, [r0, #3]
   28f8e:	acff      	add	r4, sp, #1020	@ 0x3fc
   28f90:	3490      	adds	r4, #144	@ 0x90
   28f92:	70a1      	strb	r1, [r4, #2]
   28f94:	7841      	ldrb	r1, [r0, #1]
   28f96:	7882      	ldrb	r2, [r0, #2]
   28f98:	0212      	lsls	r2, r2, #8
   28f9a:	1851      	adds	r1, r2, r1
   28f9c:	8021      	strh	r1, [r4, #0]
   28f9e:	3008      	adds	r0, #8
   28fa0:	9908      	ldr	r1, [sp, #32]
   28fa2:	6e09      	ldr	r1, [r1, #96]	@ 0x60
   28fa4:	910a      	str	r1, [sp, #40]	@ 0x28
   28fa6:	4b13      	ldr	r3, [pc, #76]	@ (28ff4 <_start+0x12f8>)
   28fa8:	446b      	add	r3, sp
   28faa:	930b      	str	r3, [sp, #44]	@ 0x2c
   28fac:	c864      	ldmia	r0!, {r2, r5, r6}
   28fae:	c364      	stmia	r3!, {r2, r5, r6}
   28fb0:	c864      	ldmia	r0!, {r2, r5, r6}
   28fb2:	c364      	stmia	r3!, {r2, r5, r6}
   28fb4:	c866      	ldmia	r0!, {r1, r2, r5, r6}
   28fb6:	c366      	stmia	r3!, {r1, r2, r5, r6}
   28fb8:	8801      	ldrh	r1, [r0, #0]
   28fba:	8019      	strh	r1, [r3, #0]
   28fbc:	7880      	ldrb	r0, [r0, #2]
   28fbe:	7098      	strb	r0, [r3, #2]
   28fc0:	990a      	ldr	r1, [sp, #40]	@ 0x28
   28fc2:	0e08      	lsrs	r0, r1, #24
   28fc4:	71a0      	strb	r0, [r4, #6]
   28fc6:	0c08      	lsrs	r0, r1, #16
   28fc8:	7160      	strb	r0, [r4, #5]
   28fca:	0a08      	lsrs	r0, r1, #8
   28fcc:	7120      	strb	r0, [r4, #4]
   28fce:	70e1      	strb	r1, [r4, #3]
   28fd0:	1de0      	adds	r0, r4, #7
   28fd2:	222b      	movs	r2, #43	@ 0x2b
   28fd4:	990b      	ldr	r1, [sp, #44]	@ 0x2c
   28fd6:	f002 f899 	bl	2b10c <__aeabi_memcpy>
   28fda:	4d05      	ldr	r5, [pc, #20]	@ (28ff0 <_start+0x12f4>)
   28fdc:	446d      	add	r5, sp
   28fde:	4628      	mov	r0, r5
   28fe0:	4621      	mov	r1, r4
   28fe2:	f7fc fead 	bl	25d40 <_ZN20complex_dynamic_type3app17hb8bc98814ac5fff6E>
   28fe6:	7828      	ldrb	r0, [r5, #0]
   28fe8:	2801      	cmp	r0, #1
   28fea:	d105      	bne.n	28ff8 <_start+0x12fc>
   28fec:	f001 fe76 	bl	2acdc <_start+0x2fe0>
   28ff0:	00001404 	.word	0x00001404
   28ff4:	000013a8 	.word	0x000013a8
   28ff8:	4914      	ldr	r1, [pc, #80]	@ (2904c <_start+0x1350>)
   28ffa:	4469      	add	r1, sp
   28ffc:	9b08      	ldr	r3, [sp, #32]
   28ffe:	6ed8      	ldr	r0, [r3, #108]	@ 0x6c
   29000:	7208      	strb	r0, [r1, #8]
   29002:	4813      	ldr	r0, [pc, #76]	@ (29050 <_start+0x1354>)
   29004:	4468      	add	r0, sp
   29006:	78c2      	ldrb	r2, [r0, #3]
   29008:	acff      	add	r4, sp, #1020	@ 0x3fc
   2900a:	34c4      	adds	r4, #196	@ 0xc4
   2900c:	70a2      	strb	r2, [r4, #2]
   2900e:	7842      	ldrb	r2, [r0, #1]
   29010:	7880      	ldrb	r0, [r0, #2]
   29012:	0200      	lsls	r0, r0, #8
   29014:	1880      	adds	r0, r0, r2
   29016:	8020      	strh	r0, [r4, #0]
   29018:	6e18      	ldr	r0, [r3, #96]	@ 0x60
   2901a:	70e0      	strb	r0, [r4, #3]
   2901c:	0e02      	lsrs	r2, r0, #24
   2901e:	71a2      	strb	r2, [r4, #6]
   29020:	0c02      	lsrs	r2, r0, #16
   29022:	7162      	strb	r2, [r4, #5]
   29024:	0a00      	lsrs	r0, r0, #8
   29026:	7120      	strb	r0, [r4, #4]
   29028:	6e58      	ldr	r0, [r3, #100]	@ 0x64
   2902a:	6e9a      	ldr	r2, [r3, #104]	@ 0x68
   2902c:	c305      	stmia	r3!, {r0, r2}
   2902e:	1de0      	adds	r0, r4, #7
   29030:	2209      	movs	r2, #9
   29032:	f002 f86b 	bl	2b10c <__aeabi_memcpy>
   29036:	4d06      	ldr	r5, [pc, #24]	@ (29050 <_start+0x1354>)
   29038:	446d      	add	r5, sp
   2903a:	4628      	mov	r0, r5
   2903c:	4621      	mov	r1, r4
   2903e:	f7fe fb13 	bl	27668 <_ZN20complex_dynamic_type3app17heb4d213861d5d344E>
   29042:	7828      	ldrb	r0, [r5, #0]
   29044:	2801      	cmp	r0, #1
   29046:	d105      	bne.n	29054 <_start+0x1358>
   29048:	f001 fe48 	bl	2acdc <_start+0x2fe0>
   2904c:	000013a8 	.word	0x000013a8
   29050:	00001404 	.word	0x00001404
   29054:	4819      	ldr	r0, [pc, #100]	@ (290bc <_start+0x13c0>)
   29056:	4468      	add	r0, sp
   29058:	78c1      	ldrb	r1, [r0, #3]
   2905a:	acff      	add	r4, sp, #1020	@ 0x3fc
   2905c:	34d4      	adds	r4, #212	@ 0xd4
   2905e:	70a1      	strb	r1, [r4, #2]
   29060:	7841      	ldrb	r1, [r0, #1]
   29062:	7882      	ldrb	r2, [r0, #2]
   29064:	0212      	lsls	r2, r2, #8
   29066:	1851      	adds	r1, r2, r1
   29068:	8021      	strh	r1, [r4, #0]
   2906a:	3008      	adds	r0, #8
   2906c:	9908      	ldr	r1, [sp, #32]
   2906e:	6e09      	ldr	r1, [r1, #96]	@ 0x60
   29070:	910a      	str	r1, [sp, #40]	@ 0x28
   29072:	4b13      	ldr	r3, [pc, #76]	@ (290c0 <_start+0x13c4>)
   29074:	446b      	add	r3, sp
   29076:	930b      	str	r3, [sp, #44]	@ 0x2c
   29078:	c864      	ldmia	r0!, {r2, r5, r6}
   2907a:	c364      	stmia	r3!, {r2, r5, r6}
   2907c:	c866      	ldmia	r0!, {r1, r2, r5, r6}
   2907e:	c366      	stmia	r3!, {r1, r2, r5, r6}
   29080:	c866      	ldmia	r0!, {r1, r2, r5, r6}
   29082:	c366      	stmia	r3!, {r1, r2, r5, r6}
   29084:	8801      	ldrh	r1, [r0, #0]
   29086:	8019      	strh	r1, [r3, #0]
   29088:	7880      	ldrb	r0, [r0, #2]
   2908a:	7098      	strb	r0, [r3, #2]
   2908c:	990a      	ldr	r1, [sp, #40]	@ 0x28
   2908e:	0e08      	lsrs	r0, r1, #24
   29090:	71a0      	strb	r0, [r4, #6]
   29092:	0c08      	lsrs	r0, r1, #16
   29094:	7160      	strb	r0, [r4, #5]
   29096:	0a08      	lsrs	r0, r1, #8
   29098:	7120      	strb	r0, [r4, #4]
   2909a:	70e1      	strb	r1, [r4, #3]
   2909c:	1de0      	adds	r0, r4, #7
   2909e:	222f      	movs	r2, #47	@ 0x2f
   290a0:	990b      	ldr	r1, [sp, #44]	@ 0x2c
   290a2:	f002 f833 	bl	2b10c <__aeabi_memcpy>
   290a6:	4d05      	ldr	r5, [pc, #20]	@ (290bc <_start+0x13c0>)
   290a8:	446d      	add	r5, sp
   290aa:	4628      	mov	r0, r5
   290ac:	4621      	mov	r1, r4
   290ae:	f7fa fc7d 	bl	239ac <_ZN20complex_dynamic_type3app17h7a280281f9cfa32bE>
   290b2:	7828      	ldrb	r0, [r5, #0]
   290b4:	2801      	cmp	r0, #1
   290b6:	d105      	bne.n	290c4 <_start+0x13c8>
   290b8:	f001 fe10 	bl	2acdc <_start+0x2fe0>
   290bc:	00001404 	.word	0x00001404
   290c0:	000013a8 	.word	0x000013a8
   290c4:	9803      	ldr	r0, [sp, #12]
   290c6:	1cc0      	adds	r0, r0, #3
   290c8:	4a16      	ldr	r2, [pc, #88]	@ (29124 <_start+0x1428>)
   290ca:	446a      	add	r2, sp
   290cc:	78d3      	ldrb	r3, [r2, #3]
   290ce:	4916      	ldr	r1, [pc, #88]	@ (29128 <_start+0x142c>)
   290d0:	4469      	add	r1, sp
   290d2:	708b      	strb	r3, [r1, #2]
   290d4:	7853      	ldrb	r3, [r2, #1]
   290d6:	7892      	ldrb	r2, [r2, #2]
   290d8:	0212      	lsls	r2, r2, #8
   290da:	18d2      	adds	r2, r2, r3
   290dc:	800a      	strh	r2, [r1, #0]
   290de:	9c08      	ldr	r4, [sp, #32]
   290e0:	3460      	adds	r4, #96	@ 0x60
   290e2:	cc1c      	ldmia	r4, {r2, r3, r4}
   290e4:	0e25      	lsrs	r5, r4, #24
   290e6:	72c5      	strb	r5, [r0, #11]
   290e8:	0c25      	lsrs	r5, r4, #16
   290ea:	7285      	strb	r5, [r0, #10]
   290ec:	0a25      	lsrs	r5, r4, #8
   290ee:	7245      	strb	r5, [r0, #9]
   290f0:	7204      	strb	r4, [r0, #8]
   290f2:	0e1c      	lsrs	r4, r3, #24
   290f4:	71c4      	strb	r4, [r0, #7]
   290f6:	0c1c      	lsrs	r4, r3, #16
   290f8:	7184      	strb	r4, [r0, #6]
   290fa:	0a1c      	lsrs	r4, r3, #8
   290fc:	7144      	strb	r4, [r0, #5]
   290fe:	7103      	strb	r3, [r0, #4]
   29100:	0e13      	lsrs	r3, r2, #24
   29102:	70c3      	strb	r3, [r0, #3]
   29104:	0c13      	lsrs	r3, r2, #16
   29106:	7083      	strb	r3, [r0, #2]
   29108:	0a13      	lsrs	r3, r2, #8
   2910a:	7043      	strb	r3, [r0, #1]
   2910c:	7002      	strb	r2, [r0, #0]
   2910e:	4c05      	ldr	r4, [pc, #20]	@ (29124 <_start+0x1428>)
   29110:	446c      	add	r4, sp
   29112:	4620      	mov	r0, r4
   29114:	f7f8 fc6e 	bl	219f4 <_ZN20complex_dynamic_type3app17h3c11a45a85a2f99aE>
   29118:	7820      	ldrb	r0, [r4, #0]
   2911a:	2801      	cmp	r0, #1
   2911c:	d106      	bne.n	2912c <_start+0x1430>
   2911e:	f001 fddd 	bl	2acdc <_start+0x2fe0>
   29122:	46c0      	nop			@ (mov r8, r8)
   29124:	00001404 	.word	0x00001404
   29128:	00000508 	.word	0x00000508
   2912c:	4813      	ldr	r0, [pc, #76]	@ (2917c <_start+0x1480>)
   2912e:	4468      	add	r0, sp
   29130:	78c1      	ldrb	r1, [r0, #3]
   29132:	4c13      	ldr	r4, [pc, #76]	@ (29180 <_start+0x1484>)
   29134:	446c      	add	r4, sp
   29136:	70a1      	strb	r1, [r4, #2]
   29138:	7841      	ldrb	r1, [r0, #1]
   2913a:	7880      	ldrb	r0, [r0, #2]
   2913c:	0200      	lsls	r0, r0, #8
   2913e:	1840      	adds	r0, r0, r1
   29140:	8020      	strh	r0, [r4, #0]
   29142:	9e08      	ldr	r6, [sp, #32]
   29144:	4633      	mov	r3, r6
   29146:	3360      	adds	r3, #96	@ 0x60
   29148:	cb0f      	ldmia	r3, {r0, r1, r2, r3}
   2914a:	70e0      	strb	r0, [r4, #3]
   2914c:	0e05      	lsrs	r5, r0, #24
   2914e:	71a5      	strb	r5, [r4, #6]
   29150:	0c05      	lsrs	r5, r0, #16
   29152:	7165      	strb	r5, [r4, #5]
   29154:	0a00      	lsrs	r0, r0, #8
   29156:	7120      	strb	r0, [r4, #4]
   29158:	c60e      	stmia	r6!, {r1, r2, r3}
   2915a:	1de0      	adds	r0, r4, #7
   2915c:	4909      	ldr	r1, [pc, #36]	@ (29184 <_start+0x1488>)
   2915e:	4469      	add	r1, sp
   29160:	220c      	movs	r2, #12
   29162:	f001 ffd3 	bl	2b10c <__aeabi_memcpy>
   29166:	4d05      	ldr	r5, [pc, #20]	@ (2917c <_start+0x1480>)
   29168:	446d      	add	r5, sp
   2916a:	4628      	mov	r0, r5
   2916c:	4621      	mov	r1, r4
   2916e:	f7f9 fae1 	bl	22734 <_ZN20complex_dynamic_type3app17h61107acc5270ab0bE>
   29172:	7828      	ldrb	r0, [r5, #0]
   29174:	2801      	cmp	r0, #1
   29176:	d107      	bne.n	29188 <_start+0x148c>
   29178:	f001 fdb0 	bl	2acdc <_start+0x2fe0>
   2917c:	00001404 	.word	0x00001404
   29180:	00000518 	.word	0x00000518
   29184:	000013a8 	.word	0x000013a8
   29188:	4915      	ldr	r1, [pc, #84]	@ (291e0 <_start+0x14e4>)
   2918a:	4469      	add	r1, sp
   2918c:	78c8      	ldrb	r0, [r1, #3]
   2918e:	4c15      	ldr	r4, [pc, #84]	@ (291e4 <_start+0x14e8>)
   29190:	446c      	add	r4, sp
   29192:	70a0      	strb	r0, [r4, #2]
   29194:	7848      	ldrb	r0, [r1, #1]
   29196:	788a      	ldrb	r2, [r1, #2]
   29198:	0212      	lsls	r2, r2, #8
   2919a:	1810      	adds	r0, r2, r0
   2919c:	8020      	strh	r0, [r4, #0]
   2919e:	9808      	ldr	r0, [sp, #32]
   291a0:	6e05      	ldr	r5, [r0, #96]	@ 0x60
   291a2:	3108      	adds	r1, #8
   291a4:	4810      	ldr	r0, [pc, #64]	@ (291e8 <_start+0x14ec>)
   291a6:	4468      	add	r0, sp
   291a8:	900b      	str	r0, [sp, #44]	@ 0x2c
   291aa:	264e      	movs	r6, #78	@ 0x4e
   291ac:	4632      	mov	r2, r6
   291ae:	f001 fe4d 	bl	2ae4c <__aeabi_memcpy4>
   291b2:	0e28      	lsrs	r0, r5, #24
   291b4:	71a0      	strb	r0, [r4, #6]
   291b6:	0c28      	lsrs	r0, r5, #16
   291b8:	7160      	strb	r0, [r4, #5]
   291ba:	0a28      	lsrs	r0, r5, #8
   291bc:	7120      	strb	r0, [r4, #4]
   291be:	70e5      	strb	r5, [r4, #3]
   291c0:	1de0      	adds	r0, r4, #7
   291c2:	990b      	ldr	r1, [sp, #44]	@ 0x2c
   291c4:	4632      	mov	r2, r6
   291c6:	f001 ffa1 	bl	2b10c <__aeabi_memcpy>
   291ca:	4d05      	ldr	r5, [pc, #20]	@ (291e0 <_start+0x14e4>)
   291cc:	446d      	add	r5, sp
   291ce:	4628      	mov	r0, r5
   291d0:	4621      	mov	r1, r4
   291d2:	f7fc f86b 	bl	252ac <_ZN20complex_dynamic_type3app17hac7a53d3f13c6b33E>
   291d6:	7828      	ldrb	r0, [r5, #0]
   291d8:	2801      	cmp	r0, #1
   291da:	d107      	bne.n	291ec <_start+0x14f0>
   291dc:	f001 fd7e 	bl	2acdc <_start+0x2fe0>
   291e0:	00001404 	.word	0x00001404
   291e4:	0000052c 	.word	0x0000052c
   291e8:	000013a8 	.word	0x000013a8
   291ec:	4819      	ldr	r0, [pc, #100]	@ (29254 <_start+0x1558>)
   291ee:	4468      	add	r0, sp
   291f0:	78c1      	ldrb	r1, [r0, #3]
   291f2:	4c19      	ldr	r4, [pc, #100]	@ (29258 <_start+0x155c>)
   291f4:	446c      	add	r4, sp
   291f6:	70a1      	strb	r1, [r4, #2]
   291f8:	7841      	ldrb	r1, [r0, #1]
   291fa:	7882      	ldrb	r2, [r0, #2]
   291fc:	0212      	lsls	r2, r2, #8
   291fe:	1851      	adds	r1, r2, r1
   29200:	8021      	strh	r1, [r4, #0]
   29202:	3008      	adds	r0, #8
   29204:	9908      	ldr	r1, [sp, #32]
   29206:	6e09      	ldr	r1, [r1, #96]	@ 0x60
   29208:	910a      	str	r1, [sp, #40]	@ 0x28
   2920a:	4b14      	ldr	r3, [pc, #80]	@ (2925c <_start+0x1560>)
   2920c:	446b      	add	r3, sp
   2920e:	930b      	str	r3, [sp, #44]	@ 0x2c
   29210:	c864      	ldmia	r0!, {r2, r5, r6}
   29212:	c364      	stmia	r3!, {r2, r5, r6}
   29214:	c864      	ldmia	r0!, {r2, r5, r6}
   29216:	c364      	stmia	r3!, {r2, r5, r6}
   29218:	c866      	ldmia	r0!, {r1, r2, r5, r6}
   2921a:	c366      	stmia	r3!, {r1, r2, r5, r6}
   2921c:	8801      	ldrh	r1, [r0, #0]
   2921e:	8019      	strh	r1, [r3, #0]
   29220:	7880      	ldrb	r0, [r0, #2]
   29222:	7098      	strb	r0, [r3, #2]
   29224:	990a      	ldr	r1, [sp, #40]	@ 0x28
   29226:	0e08      	lsrs	r0, r1, #24
   29228:	71a0      	strb	r0, [r4, #6]
   2922a:	0c08      	lsrs	r0, r1, #16
   2922c:	7160      	strb	r0, [r4, #5]
   2922e:	0a08      	lsrs	r0, r1, #8
   29230:	7120      	strb	r0, [r4, #4]
   29232:	70e1      	strb	r1, [r4, #3]
   29234:	1de0      	adds	r0, r4, #7
   29236:	222b      	movs	r2, #43	@ 0x2b
   29238:	990b      	ldr	r1, [sp, #44]	@ 0x2c
   2923a:	f001 ff67 	bl	2b10c <__aeabi_memcpy>
   2923e:	4d05      	ldr	r5, [pc, #20]	@ (29254 <_start+0x1558>)
   29240:	446d      	add	r5, sp
   29242:	4628      	mov	r0, r5
   29244:	4621      	mov	r1, r4
   29246:	f7fd f823 	bl	26290 <_ZN20complex_dynamic_type3app17hbc692f6ef13ad3ccE>
   2924a:	7828      	ldrb	r0, [r5, #0]
   2924c:	2801      	cmp	r0, #1
   2924e:	d107      	bne.n	29260 <_start+0x1564>
   29250:	f001 fd44 	bl	2acdc <_start+0x2fe0>
   29254:	00001404 	.word	0x00001404
   29258:	00000584 	.word	0x00000584
   2925c:	000013a8 	.word	0x000013a8
   29260:	4819      	ldr	r0, [pc, #100]	@ (292c8 <_start+0x15cc>)
   29262:	4468      	add	r0, sp
   29264:	78c1      	ldrb	r1, [r0, #3]
   29266:	4c19      	ldr	r4, [pc, #100]	@ (292cc <_start+0x15d0>)
   29268:	446c      	add	r4, sp
   2926a:	70a1      	strb	r1, [r4, #2]
   2926c:	7841      	ldrb	r1, [r0, #1]
   2926e:	7882      	ldrb	r2, [r0, #2]
   29270:	0212      	lsls	r2, r2, #8
   29272:	1851      	adds	r1, r2, r1
   29274:	8021      	strh	r1, [r4, #0]
   29276:	3008      	adds	r0, #8
   29278:	9908      	ldr	r1, [sp, #32]
   2927a:	6e09      	ldr	r1, [r1, #96]	@ 0x60
   2927c:	910a      	str	r1, [sp, #40]	@ 0x28
   2927e:	4b14      	ldr	r3, [pc, #80]	@ (292d0 <_start+0x15d4>)
   29280:	446b      	add	r3, sp
   29282:	930b      	str	r3, [sp, #44]	@ 0x2c
   29284:	c864      	ldmia	r0!, {r2, r5, r6}
   29286:	c364      	stmia	r3!, {r2, r5, r6}
   29288:	c866      	ldmia	r0!, {r1, r2, r5, r6}
   2928a:	c366      	stmia	r3!, {r1, r2, r5, r6}
   2928c:	c826      	ldmia	r0!, {r1, r2, r5}
   2928e:	c326      	stmia	r3!, {r1, r2, r5}
   29290:	c866      	ldmia	r0!, {r1, r2, r5, r6}
   29292:	c366      	stmia	r3!, {r1, r2, r5, r6}
   29294:	8800      	ldrh	r0, [r0, #0]
   29296:	8018      	strh	r0, [r3, #0]
   29298:	990a      	ldr	r1, [sp, #40]	@ 0x28
   2929a:	0e08      	lsrs	r0, r1, #24
   2929c:	71a0      	strb	r0, [r4, #6]
   2929e:	0c08      	lsrs	r0, r1, #16
   292a0:	7160      	strb	r0, [r4, #5]
   292a2:	0a08      	lsrs	r0, r1, #8
   292a4:	7120      	strb	r0, [r4, #4]
   292a6:	70e1      	strb	r1, [r4, #3]
   292a8:	1de0      	adds	r0, r4, #7
   292aa:	223a      	movs	r2, #58	@ 0x3a
   292ac:	990b      	ldr	r1, [sp, #44]	@ 0x2c
   292ae:	f001 ff2d 	bl	2b10c <__aeabi_memcpy>
   292b2:	4d05      	ldr	r5, [pc, #20]	@ (292c8 <_start+0x15cc>)
   292b4:	446d      	add	r5, sp
   292b6:	4628      	mov	r0, r5
   292b8:	4621      	mov	r1, r4
   292ba:	f7fb fcb1 	bl	24c20 <_ZN20complex_dynamic_type3app17ha223722a4e3d85b5E>
   292be:	7828      	ldrb	r0, [r5, #0]
   292c0:	2801      	cmp	r0, #1
   292c2:	d107      	bne.n	292d4 <_start+0x15d8>
   292c4:	f001 fd0a 	bl	2acdc <_start+0x2fe0>
   292c8:	00001404 	.word	0x00001404
   292cc:	000005b8 	.word	0x000005b8
   292d0:	000013a8 	.word	0x000013a8
   292d4:	4817      	ldr	r0, [pc, #92]	@ (29334 <_start+0x1638>)
   292d6:	4468      	add	r0, sp
   292d8:	78c1      	ldrb	r1, [r0, #3]
   292da:	4c17      	ldr	r4, [pc, #92]	@ (29338 <_start+0x163c>)
   292dc:	446c      	add	r4, sp
   292de:	70a1      	strb	r1, [r4, #2]
   292e0:	7841      	ldrb	r1, [r0, #1]
   292e2:	7882      	ldrb	r2, [r0, #2]
   292e4:	0212      	lsls	r2, r2, #8
   292e6:	1851      	adds	r1, r2, r1
   292e8:	8021      	strh	r1, [r4, #0]
   292ea:	3008      	adds	r0, #8
   292ec:	9908      	ldr	r1, [sp, #32]
   292ee:	6e09      	ldr	r1, [r1, #96]	@ 0x60
   292f0:	4b12      	ldr	r3, [pc, #72]	@ (2933c <_start+0x1640>)
   292f2:	446b      	add	r3, sp
   292f4:	930b      	str	r3, [sp, #44]	@ 0x2c
   292f6:	c864      	ldmia	r0!, {r2, r5, r6}
   292f8:	c364      	stmia	r3!, {r2, r5, r6}
   292fa:	c864      	ldmia	r0!, {r2, r5, r6}
   292fc:	c364      	stmia	r3!, {r2, r5, r6}
   292fe:	8802      	ldrh	r2, [r0, #0]
   29300:	801a      	strh	r2, [r3, #0]
   29302:	7880      	ldrb	r0, [r0, #2]
   29304:	7098      	strb	r0, [r3, #2]
   29306:	0e08      	lsrs	r0, r1, #24
   29308:	71a0      	strb	r0, [r4, #6]
   2930a:	0c08      	lsrs	r0, r1, #16
   2930c:	7160      	strb	r0, [r4, #5]
   2930e:	0a08      	lsrs	r0, r1, #8
   29310:	7120      	strb	r0, [r4, #4]
   29312:	70e1      	strb	r1, [r4, #3]
   29314:	1de0      	adds	r0, r4, #7
   29316:	221b      	movs	r2, #27
   29318:	990b      	ldr	r1, [sp, #44]	@ 0x2c
   2931a:	f001 fef7 	bl	2b10c <__aeabi_memcpy>
   2931e:	4d05      	ldr	r5, [pc, #20]	@ (29334 <_start+0x1638>)
   29320:	446d      	add	r5, sp
   29322:	4628      	mov	r0, r5
   29324:	4621      	mov	r1, r4
   29326:	f7f8 fd61 	bl	21dec <_ZN20complex_dynamic_type3app17h469109ad4f2cf727E>
   2932a:	7828      	ldrb	r0, [r5, #0]
   2932c:	2801      	cmp	r0, #1
   2932e:	d107      	bne.n	29340 <_start+0x1644>
   29330:	f001 fcd4 	bl	2acdc <_start+0x2fe0>
   29334:	00001404 	.word	0x00001404
   29338:	000005fc 	.word	0x000005fc
   2933c:	000013a8 	.word	0x000013a8
   29340:	4915      	ldr	r1, [pc, #84]	@ (29398 <_start+0x169c>)
   29342:	4469      	add	r1, sp
   29344:	78c8      	ldrb	r0, [r1, #3]
   29346:	4c15      	ldr	r4, [pc, #84]	@ (2939c <_start+0x16a0>)
   29348:	446c      	add	r4, sp
   2934a:	70a0      	strb	r0, [r4, #2]
   2934c:	7848      	ldrb	r0, [r1, #1]
   2934e:	788a      	ldrb	r2, [r1, #2]
   29350:	0212      	lsls	r2, r2, #8
   29352:	1810      	adds	r0, r2, r0
   29354:	8020      	strh	r0, [r4, #0]
   29356:	9808      	ldr	r0, [sp, #32]
   29358:	6e05      	ldr	r5, [r0, #96]	@ 0x60
   2935a:	3108      	adds	r1, #8
   2935c:	4810      	ldr	r0, [pc, #64]	@ (293a0 <_start+0x16a4>)
   2935e:	4468      	add	r0, sp
   29360:	900b      	str	r0, [sp, #44]	@ 0x2c
   29362:	264a      	movs	r6, #74	@ 0x4a
   29364:	4632      	mov	r2, r6
   29366:	f001 fd71 	bl	2ae4c <__aeabi_memcpy4>
   2936a:	0e28      	lsrs	r0, r5, #24
   2936c:	71a0      	strb	r0, [r4, #6]
   2936e:	0c28      	lsrs	r0, r5, #16
   29370:	7160      	strb	r0, [r4, #5]
   29372:	0a28      	lsrs	r0, r5, #8
   29374:	7120      	strb	r0, [r4, #4]
   29376:	70e5      	strb	r5, [r4, #3]
   29378:	1de0      	adds	r0, r4, #7
   2937a:	990b      	ldr	r1, [sp, #44]	@ 0x2c
   2937c:	4632      	mov	r2, r6
   2937e:	f001 fec5 	bl	2b10c <__aeabi_memcpy>
   29382:	4d05      	ldr	r5, [pc, #20]	@ (29398 <_start+0x169c>)
   29384:	446d      	add	r5, sp
   29386:	4628      	mov	r0, r5
   29388:	4621      	mov	r1, r4
   2938a:	f7fa fe57 	bl	2403c <_ZN20complex_dynamic_type3app17h8e6eefdd8f282d7eE>
   2938e:	7828      	ldrb	r0, [r5, #0]
   29390:	2801      	cmp	r0, #1
   29392:	d107      	bne.n	293a4 <_start+0x16a8>
   29394:	f001 fca2 	bl	2acdc <_start+0x2fe0>
   29398:	00001404 	.word	0x00001404
   2939c:	00000620 	.word	0x00000620
   293a0:	000013a8 	.word	0x000013a8
   293a4:	4915      	ldr	r1, [pc, #84]	@ (293fc <_start+0x1700>)
   293a6:	4469      	add	r1, sp
   293a8:	78c8      	ldrb	r0, [r1, #3]
   293aa:	4c15      	ldr	r4, [pc, #84]	@ (29400 <_start+0x1704>)
   293ac:	446c      	add	r4, sp
   293ae:	70a0      	strb	r0, [r4, #2]
   293b0:	7848      	ldrb	r0, [r1, #1]
   293b2:	788a      	ldrb	r2, [r1, #2]
   293b4:	0212      	lsls	r2, r2, #8
   293b6:	1810      	adds	r0, r2, r0
   293b8:	8020      	strh	r0, [r4, #0]
   293ba:	9808      	ldr	r0, [sp, #32]
   293bc:	6e05      	ldr	r5, [r0, #96]	@ 0x60
   293be:	3108      	adds	r1, #8
   293c0:	4810      	ldr	r0, [pc, #64]	@ (29404 <_start+0x1708>)
   293c2:	4468      	add	r0, sp
   293c4:	900b      	str	r0, [sp, #44]	@ 0x2c
   293c6:	2648      	movs	r6, #72	@ 0x48
   293c8:	4632      	mov	r2, r6
   293ca:	f001 fd3f 	bl	2ae4c <__aeabi_memcpy4>
   293ce:	0e28      	lsrs	r0, r5, #24
   293d0:	71a0      	strb	r0, [r4, #6]
   293d2:	0c28      	lsrs	r0, r5, #16
   293d4:	7160      	strb	r0, [r4, #5]
   293d6:	0a28      	lsrs	r0, r5, #8
   293d8:	7120      	strb	r0, [r4, #4]
   293da:	70e5      	strb	r5, [r4, #3]
   293dc:	1de0      	adds	r0, r4, #7
   293de:	990b      	ldr	r1, [sp, #44]	@ 0x2c
   293e0:	4632      	mov	r2, r6
   293e2:	f001 fe93 	bl	2b10c <__aeabi_memcpy>
   293e6:	4d05      	ldr	r5, [pc, #20]	@ (293fc <_start+0x1700>)
   293e8:	446d      	add	r5, sp
   293ea:	4628      	mov	r0, r5
   293ec:	4621      	mov	r1, r4
   293ee:	f7fb fd65 	bl	24ebc <_ZN20complex_dynamic_type3app17haa8603ae0a663eb0E>
   293f2:	7828      	ldrb	r0, [r5, #0]
   293f4:	2801      	cmp	r0, #1
   293f6:	d107      	bne.n	29408 <_start+0x170c>
   293f8:	f001 fc70 	bl	2acdc <_start+0x2fe0>
   293fc:	00001404 	.word	0x00001404
   29400:	00000674 	.word	0x00000674
   29404:	000013a8 	.word	0x000013a8
   29408:	4818      	ldr	r0, [pc, #96]	@ (2946c <_start+0x1770>)
   2940a:	4468      	add	r0, sp
   2940c:	78c1      	ldrb	r1, [r0, #3]
   2940e:	4c18      	ldr	r4, [pc, #96]	@ (29470 <_start+0x1774>)
   29410:	446c      	add	r4, sp
   29412:	70a1      	strb	r1, [r4, #2]
   29414:	7841      	ldrb	r1, [r0, #1]
   29416:	7882      	ldrb	r2, [r0, #2]
   29418:	0212      	lsls	r2, r2, #8
   2941a:	1851      	adds	r1, r2, r1
   2941c:	8021      	strh	r1, [r4, #0]
   2941e:	3008      	adds	r0, #8
   29420:	9908      	ldr	r1, [sp, #32]
   29422:	6e09      	ldr	r1, [r1, #96]	@ 0x60
   29424:	910a      	str	r1, [sp, #40]	@ 0x28
   29426:	4b13      	ldr	r3, [pc, #76]	@ (29474 <_start+0x1778>)
   29428:	446b      	add	r3, sp
   2942a:	930b      	str	r3, [sp, #44]	@ 0x2c
   2942c:	c864      	ldmia	r0!, {r2, r5, r6}
   2942e:	c364      	stmia	r3!, {r2, r5, r6}
   29430:	c864      	ldmia	r0!, {r2, r5, r6}
   29432:	c364      	stmia	r3!, {r2, r5, r6}
   29434:	c864      	ldmia	r0!, {r2, r5, r6}
   29436:	c364      	stmia	r3!, {r2, r5, r6}
   29438:	c866      	ldmia	r0!, {r1, r2, r5, r6}
   2943a:	c366      	stmia	r3!, {r1, r2, r5, r6}
   2943c:	990a      	ldr	r1, [sp, #40]	@ 0x28
   2943e:	0e08      	lsrs	r0, r1, #24
   29440:	71a0      	strb	r0, [r4, #6]
   29442:	0c08      	lsrs	r0, r1, #16
   29444:	7160      	strb	r0, [r4, #5]
   29446:	0a08      	lsrs	r0, r1, #8
   29448:	7120      	strb	r0, [r4, #4]
   2944a:	70e1      	strb	r1, [r4, #3]
   2944c:	1de0      	adds	r0, r4, #7
   2944e:	2234      	movs	r2, #52	@ 0x34
   29450:	990b      	ldr	r1, [sp, #44]	@ 0x2c
   29452:	f001 fe5b 	bl	2b10c <__aeabi_memcpy>
   29456:	4d05      	ldr	r5, [pc, #20]	@ (2946c <_start+0x1770>)
   29458:	446d      	add	r5, sp
   2945a:	4628      	mov	r0, r5
   2945c:	4621      	mov	r1, r4
   2945e:	f7fd ff07 	bl	27270 <_ZN20complex_dynamic_type3app17he92777e1f1263c34E>
   29462:	7828      	ldrb	r0, [r5, #0]
   29464:	2801      	cmp	r0, #1
   29466:	d107      	bne.n	29478 <_start+0x177c>
   29468:	f001 fc38 	bl	2acdc <_start+0x2fe0>
   2946c:	00001404 	.word	0x00001404
   29470:	000006c4 	.word	0x000006c4
   29474:	000013a8 	.word	0x000013a8
   29478:	4816      	ldr	r0, [pc, #88]	@ (294d4 <_start+0x17d8>)
   2947a:	4468      	add	r0, sp
   2947c:	78c1      	ldrb	r1, [r0, #3]
   2947e:	4c16      	ldr	r4, [pc, #88]	@ (294d8 <_start+0x17dc>)
   29480:	446c      	add	r4, sp
   29482:	70a1      	strb	r1, [r4, #2]
   29484:	7841      	ldrb	r1, [r0, #1]
   29486:	7882      	ldrb	r2, [r0, #2]
   29488:	0212      	lsls	r2, r2, #8
   2948a:	1851      	adds	r1, r2, r1
   2948c:	8021      	strh	r1, [r4, #0]
   2948e:	3008      	adds	r0, #8
   29490:	9908      	ldr	r1, [sp, #32]
   29492:	6e09      	ldr	r1, [r1, #96]	@ 0x60
   29494:	910a      	str	r1, [sp, #40]	@ 0x28
   29496:	4b11      	ldr	r3, [pc, #68]	@ (294dc <_start+0x17e0>)
   29498:	446b      	add	r3, sp
   2949a:	930b      	str	r3, [sp, #44]	@ 0x2c
   2949c:	c866      	ldmia	r0!, {r1, r2, r5, r6}
   2949e:	c366      	stmia	r3!, {r1, r2, r5, r6}
   294a0:	c866      	ldmia	r0!, {r1, r2, r5, r6}
   294a2:	c366      	stmia	r3!, {r1, r2, r5, r6}
   294a4:	990a      	ldr	r1, [sp, #40]	@ 0x28
   294a6:	0e08      	lsrs	r0, r1, #24
   294a8:	71a0      	strb	r0, [r4, #6]
   294aa:	0c08      	lsrs	r0, r1, #16
   294ac:	7160      	strb	r0, [r4, #5]
   294ae:	0a08      	lsrs	r0, r1, #8
   294b0:	7120      	strb	r0, [r4, #4]
   294b2:	70e1      	strb	r1, [r4, #3]
   294b4:	1de0      	adds	r0, r4, #7
   294b6:	2220      	movs	r2, #32
   294b8:	990b      	ldr	r1, [sp, #44]	@ 0x2c
   294ba:	f001 fe27 	bl	2b10c <__aeabi_memcpy>
   294be:	4d05      	ldr	r5, [pc, #20]	@ (294d4 <_start+0x17d8>)
   294c0:	446d      	add	r5, sp
   294c2:	4628      	mov	r0, r5
   294c4:	4621      	mov	r1, r4
   294c6:	f7fd f8d9 	bl	2667c <_ZN20complex_dynamic_type3app17hbf77078bbe61f6ccE>
   294ca:	7828      	ldrb	r0, [r5, #0]
   294cc:	2801      	cmp	r0, #1
   294ce:	d107      	bne.n	294e0 <_start+0x17e4>
   294d0:	f001 fc04 	bl	2acdc <_start+0x2fe0>
   294d4:	00001404 	.word	0x00001404
   294d8:	00000700 	.word	0x00000700
   294dc:	000013a8 	.word	0x000013a8
   294e0:	4915      	ldr	r1, [pc, #84]	@ (29538 <_start+0x183c>)
   294e2:	4469      	add	r1, sp
   294e4:	9d08      	ldr	r5, [sp, #32]
   294e6:	6f28      	ldr	r0, [r5, #112]	@ 0x70
   294e8:	7308      	strb	r0, [r1, #12]
   294ea:	4814      	ldr	r0, [pc, #80]	@ (2953c <_start+0x1840>)
   294ec:	4468      	add	r0, sp
   294ee:	78c2      	ldrb	r2, [r0, #3]
   294f0:	4c13      	ldr	r4, [pc, #76]	@ (29540 <_start+0x1844>)
   294f2:	446c      	add	r4, sp
   294f4:	70a2      	strb	r2, [r4, #2]
   294f6:	7842      	ldrb	r2, [r0, #1]
   294f8:	7880      	ldrb	r0, [r0, #2]
   294fa:	0200      	lsls	r0, r0, #8
   294fc:	1880      	adds	r0, r0, r2
   294fe:	8020      	strh	r0, [r4, #0]
   29500:	6e28      	ldr	r0, [r5, #96]	@ 0x60
   29502:	70e0      	strb	r0, [r4, #3]
   29504:	0e02      	lsrs	r2, r0, #24
   29506:	71a2      	strb	r2, [r4, #6]
   29508:	0c02      	lsrs	r2, r0, #16
   2950a:	7162      	strb	r2, [r4, #5]
   2950c:	0a00      	lsrs	r0, r0, #8
   2950e:	7120      	strb	r0, [r4, #4]
   29510:	462b      	mov	r3, r5
   29512:	3364      	adds	r3, #100	@ 0x64
   29514:	cb0d      	ldmia	r3, {r0, r2, r3}
   29516:	c50d      	stmia	r5!, {r0, r2, r3}
   29518:	1de0      	adds	r0, r4, #7
   2951a:	220d      	movs	r2, #13
   2951c:	f001 fdf6 	bl	2b10c <__aeabi_memcpy>
   29520:	4d06      	ldr	r5, [pc, #24]	@ (2953c <_start+0x1840>)
   29522:	446d      	add	r5, sp
   29524:	4628      	mov	r0, r5
   29526:	4621      	mov	r1, r4
   29528:	f7fb fa2a 	bl	24980 <_ZN20complex_dynamic_type3app17ha03629917e3c2321E>
   2952c:	7828      	ldrb	r0, [r5, #0]
   2952e:	2801      	cmp	r0, #1
   29530:	d108      	bne.n	29544 <_start+0x1848>
   29532:	f001 fbd3 	bl	2acdc <_start+0x2fe0>
   29536:	46c0      	nop			@ (mov r8, r8)
   29538:	000013a8 	.word	0x000013a8
   2953c:	00001404 	.word	0x00001404
   29540:	00000728 	.word	0x00000728
   29544:	4816      	ldr	r0, [pc, #88]	@ (295a0 <_start+0x18a4>)
   29546:	4468      	add	r0, sp
   29548:	78c1      	ldrb	r1, [r0, #3]
   2954a:	4c16      	ldr	r4, [pc, #88]	@ (295a4 <_start+0x18a8>)
   2954c:	446c      	add	r4, sp
   2954e:	70a1      	strb	r1, [r4, #2]
   29550:	7841      	ldrb	r1, [r0, #1]
   29552:	7882      	ldrb	r2, [r0, #2]
   29554:	0212      	lsls	r2, r2, #8
   29556:	1851      	adds	r1, r2, r1
   29558:	8021      	strh	r1, [r4, #0]
   2955a:	3008      	adds	r0, #8
   2955c:	9908      	ldr	r1, [sp, #32]
   2955e:	6e09      	ldr	r1, [r1, #96]	@ 0x60
   29560:	4b11      	ldr	r3, [pc, #68]	@ (295a8 <_start+0x18ac>)
   29562:	446b      	add	r3, sp
   29564:	930b      	str	r3, [sp, #44]	@ 0x2c
   29566:	c864      	ldmia	r0!, {r2, r5, r6}
   29568:	c364      	stmia	r3!, {r2, r5, r6}
   2956a:	c864      	ldmia	r0!, {r2, r5, r6}
   2956c:	c364      	stmia	r3!, {r2, r5, r6}
   2956e:	c864      	ldmia	r0!, {r2, r5, r6}
   29570:	c364      	stmia	r3!, {r2, r5, r6}
   29572:	0e08      	lsrs	r0, r1, #24
   29574:	71a0      	strb	r0, [r4, #6]
   29576:	0c08      	lsrs	r0, r1, #16
   29578:	7160      	strb	r0, [r4, #5]
   2957a:	0a08      	lsrs	r0, r1, #8
   2957c:	7120      	strb	r0, [r4, #4]
   2957e:	70e1      	strb	r1, [r4, #3]
   29580:	1de0      	adds	r0, r4, #7
   29582:	2224      	movs	r2, #36	@ 0x24
   29584:	990b      	ldr	r1, [sp, #44]	@ 0x2c
   29586:	f001 fdc1 	bl	2b10c <__aeabi_memcpy>
   2958a:	4d05      	ldr	r5, [pc, #20]	@ (295a0 <_start+0x18a4>)
   2958c:	446d      	add	r5, sp
   2958e:	4628      	mov	r0, r5
   29590:	4621      	mov	r1, r4
   29592:	f7fd fb1b 	bl	26bcc <_ZN20complex_dynamic_type3app17hcabca0b71f0d8029E>
   29596:	7828      	ldrb	r0, [r5, #0]
   29598:	2801      	cmp	r0, #1
   2959a:	d107      	bne.n	295ac <_start+0x18b0>
   2959c:	f001 fb9e 	bl	2acdc <_start+0x2fe0>
   295a0:	00001404 	.word	0x00001404
   295a4:	0000073c 	.word	0x0000073c
   295a8:	000013a8 	.word	0x000013a8
   295ac:	4817      	ldr	r0, [pc, #92]	@ (2960c <_start+0x1910>)
   295ae:	4468      	add	r0, sp
   295b0:	78c1      	ldrb	r1, [r0, #3]
   295b2:	4c17      	ldr	r4, [pc, #92]	@ (29610 <_start+0x1914>)
   295b4:	446c      	add	r4, sp
   295b6:	70a1      	strb	r1, [r4, #2]
   295b8:	7841      	ldrb	r1, [r0, #1]
   295ba:	7882      	ldrb	r2, [r0, #2]
   295bc:	0212      	lsls	r2, r2, #8
   295be:	1851      	adds	r1, r2, r1
   295c0:	8021      	strh	r1, [r4, #0]
   295c2:	3008      	adds	r0, #8
   295c4:	9908      	ldr	r1, [sp, #32]
   295c6:	6e09      	ldr	r1, [r1, #96]	@ 0x60
   295c8:	4b12      	ldr	r3, [pc, #72]	@ (29614 <_start+0x1918>)
   295ca:	446b      	add	r3, sp
   295cc:	930b      	str	r3, [sp, #44]	@ 0x2c
   295ce:	c860      	ldmia	r0!, {r5, r6}
   295d0:	c360      	stmia	r3!, {r5, r6}
   295d2:	c864      	ldmia	r0!, {r2, r5, r6}
   295d4:	c364      	stmia	r3!, {r2, r5, r6}
   295d6:	8802      	ldrh	r2, [r0, #0]
   295d8:	801a      	strh	r2, [r3, #0]
   295da:	7880      	ldrb	r0, [r0, #2]
   295dc:	7098      	strb	r0, [r3, #2]
   295de:	0e08      	lsrs	r0, r1, #24
   295e0:	71a0      	strb	r0, [r4, #6]
   295e2:	0c08      	lsrs	r0, r1, #16
   295e4:	7160      	strb	r0, [r4, #5]
   295e6:	0a08      	lsrs	r0, r1, #8
   295e8:	7120      	strb	r0, [r4, #4]
   295ea:	70e1      	strb	r1, [r4, #3]
   295ec:	1de0      	adds	r0, r4, #7
   295ee:	2217      	movs	r2, #23
   295f0:	990b      	ldr	r1, [sp, #44]	@ 0x2c
   295f2:	f001 fd8b 	bl	2b10c <__aeabi_memcpy>
   295f6:	4d05      	ldr	r5, [pc, #20]	@ (2960c <_start+0x1910>)
   295f8:	446d      	add	r5, sp
   295fa:	4628      	mov	r0, r5
   295fc:	4621      	mov	r1, r4
   295fe:	f7fd fce5 	bl	26fcc <_ZN20complex_dynamic_type3app17hd3e7fbb35d99da4aE>
   29602:	7828      	ldrb	r0, [r5, #0]
   29604:	2801      	cmp	r0, #1
   29606:	d107      	bne.n	29618 <_start+0x191c>
   29608:	f001 fb68 	bl	2acdc <_start+0x2fe0>
   2960c:	00001404 	.word	0x00001404
   29610:	00000768 	.word	0x00000768
   29614:	000013a8 	.word	0x000013a8
   29618:	4915      	ldr	r1, [pc, #84]	@ (29670 <_start+0x1974>)
   2961a:	4469      	add	r1, sp
   2961c:	78c8      	ldrb	r0, [r1, #3]
   2961e:	4c15      	ldr	r4, [pc, #84]	@ (29674 <_start+0x1978>)
   29620:	446c      	add	r4, sp
   29622:	70a0      	strb	r0, [r4, #2]
   29624:	7848      	ldrb	r0, [r1, #1]
   29626:	788a      	ldrb	r2, [r1, #2]
   29628:	0212      	lsls	r2, r2, #8
   2962a:	1810      	adds	r0, r2, r0
   2962c:	8020      	strh	r0, [r4, #0]
   2962e:	9808      	ldr	r0, [sp, #32]
   29630:	6e05      	ldr	r5, [r0, #96]	@ 0x60
   29632:	3108      	adds	r1, #8
   29634:	4810      	ldr	r0, [pc, #64]	@ (29678 <_start+0x197c>)
   29636:	4468      	add	r0, sp
   29638:	900b      	str	r0, [sp, #44]	@ 0x2c
   2963a:	264a      	movs	r6, #74	@ 0x4a
   2963c:	4632      	mov	r2, r6
   2963e:	f001 fc05 	bl	2ae4c <__aeabi_memcpy4>
   29642:	0e28      	lsrs	r0, r5, #24
   29644:	71a0      	strb	r0, [r4, #6]
   29646:	0c28      	lsrs	r0, r5, #16
   29648:	7160      	strb	r0, [r4, #5]
   2964a:	0a28      	lsrs	r0, r5, #8
   2964c:	7120      	strb	r0, [r4, #4]
   2964e:	70e5      	strb	r5, [r4, #3]
   29650:	1de0      	adds	r0, r4, #7
   29652:	990b      	ldr	r1, [sp, #44]	@ 0x2c
   29654:	4632      	mov	r2, r6
   29656:	f001 fd59 	bl	2b10c <__aeabi_memcpy>
   2965a:	4d05      	ldr	r5, [pc, #20]	@ (29670 <_start+0x1974>)
   2965c:	446d      	add	r5, sp
   2965e:	4628      	mov	r0, r5
   29660:	4621      	mov	r1, r4
   29662:	f7fa fe41 	bl	242e8 <_ZN20complex_dynamic_type3app17h95087799bef13b8dE>
   29666:	7828      	ldrb	r0, [r5, #0]
   29668:	2801      	cmp	r0, #1
   2966a:	d107      	bne.n	2967c <_start+0x1980>
   2966c:	f001 fb36 	bl	2acdc <_start+0x2fe0>
   29670:	00001404 	.word	0x00001404
   29674:	00000788 	.word	0x00000788
   29678:	000013a8 	.word	0x000013a8
   2967c:	9804      	ldr	r0, [sp, #16]
   2967e:	1cc0      	adds	r0, r0, #3
   29680:	4a16      	ldr	r2, [pc, #88]	@ (296dc <_start+0x19e0>)
   29682:	446a      	add	r2, sp
   29684:	78d3      	ldrb	r3, [r2, #3]
   29686:	4916      	ldr	r1, [pc, #88]	@ (296e0 <_start+0x19e4>)
   29688:	4469      	add	r1, sp
   2968a:	708b      	strb	r3, [r1, #2]
   2968c:	7853      	ldrb	r3, [r2, #1]
   2968e:	7892      	ldrb	r2, [r2, #2]
   29690:	0212      	lsls	r2, r2, #8
   29692:	18d2      	adds	r2, r2, r3
   29694:	800a      	strh	r2, [r1, #0]
   29696:	9c08      	ldr	r4, [sp, #32]
   29698:	3460      	adds	r4, #96	@ 0x60
   2969a:	cc1c      	ldmia	r4, {r2, r3, r4}
   2969c:	0e25      	lsrs	r5, r4, #24
   2969e:	72c5      	strb	r5, [r0, #11]
   296a0:	0c25      	lsrs	r5, r4, #16
   296a2:	7285      	strb	r5, [r0, #10]
   296a4:	0a25      	lsrs	r5, r4, #8
   296a6:	7245      	strb	r5, [r0, #9]
   296a8:	7204      	strb	r4, [r0, #8]
   296aa:	0e1c      	lsrs	r4, r3, #24
   296ac:	71c4      	strb	r4, [r0, #7]
   296ae:	0c1c      	lsrs	r4, r3, #16
   296b0:	7184      	strb	r4, [r0, #6]
   296b2:	0a1c      	lsrs	r4, r3, #8
   296b4:	7144      	strb	r4, [r0, #5]
   296b6:	7103      	strb	r3, [r0, #4]
   296b8:	0e13      	lsrs	r3, r2, #24
   296ba:	70c3      	strb	r3, [r0, #3]
   296bc:	0c13      	lsrs	r3, r2, #16
   296be:	7083      	strb	r3, [r0, #2]
   296c0:	0a13      	lsrs	r3, r2, #8
   296c2:	7043      	strb	r3, [r0, #1]
   296c4:	7002      	strb	r2, [r0, #0]
   296c6:	4c05      	ldr	r4, [pc, #20]	@ (296dc <_start+0x19e0>)
   296c8:	446c      	add	r4, sp
   296ca:	4620      	mov	r0, r4
   296cc:	f7f8 feda 	bl	22484 <_ZN20complex_dynamic_type3app17h5b7bc60d6e5eb05aE>
   296d0:	7820      	ldrb	r0, [r4, #0]
   296d2:	2801      	cmp	r0, #1
   296d4:	d106      	bne.n	296e4 <_start+0x19e8>
   296d6:	f001 fb01 	bl	2acdc <_start+0x2fe0>
   296da:	46c0      	nop			@ (mov r8, r8)
   296dc:	00001404 	.word	0x00001404
   296e0:	000007dc 	.word	0x000007dc
   296e4:	481a      	ldr	r0, [pc, #104]	@ (29750 <_start+0x1a54>)
   296e6:	4468      	add	r0, sp
   296e8:	78c1      	ldrb	r1, [r0, #3]
   296ea:	4c1a      	ldr	r4, [pc, #104]	@ (29754 <_start+0x1a58>)
   296ec:	446c      	add	r4, sp
   296ee:	70a1      	strb	r1, [r4, #2]
   296f0:	7841      	ldrb	r1, [r0, #1]
   296f2:	7882      	ldrb	r2, [r0, #2]
   296f4:	0212      	lsls	r2, r2, #8
   296f6:	1851      	adds	r1, r2, r1
   296f8:	8021      	strh	r1, [r4, #0]
   296fa:	3008      	adds	r0, #8
   296fc:	9908      	ldr	r1, [sp, #32]
   296fe:	6e09      	ldr	r1, [r1, #96]	@ 0x60
   29700:	910a      	str	r1, [sp, #40]	@ 0x28
   29702:	4b15      	ldr	r3, [pc, #84]	@ (29758 <_start+0x1a5c>)
   29704:	446b      	add	r3, sp
   29706:	930b      	str	r3, [sp, #44]	@ 0x2c
   29708:	c864      	ldmia	r0!, {r2, r5, r6}
   2970a:	c364      	stmia	r3!, {r2, r5, r6}
   2970c:	c866      	ldmia	r0!, {r1, r2, r5, r6}
   2970e:	c366      	stmia	r3!, {r1, r2, r5, r6}
   29710:	c866      	ldmia	r0!, {r1, r2, r5, r6}
   29712:	c366      	stmia	r3!, {r1, r2, r5, r6}
   29714:	c866      	ldmia	r0!, {r1, r2, r5, r6}
   29716:	c366      	stmia	r3!, {r1, r2, r5, r6}
   29718:	8801      	ldrh	r1, [r0, #0]
   2971a:	8019      	strh	r1, [r3, #0]
   2971c:	7880      	ldrb	r0, [r0, #2]
   2971e:	7098      	strb	r0, [r3, #2]
   29720:	990a      	ldr	r1, [sp, #40]	@ 0x28
   29722:	0e08      	lsrs	r0, r1, #24
   29724:	71a0      	strb	r0, [r4, #6]
   29726:	0c08      	lsrs	r0, r1, #16
   29728:	7160      	strb	r0, [r4, #5]
   2972a:	0a08      	lsrs	r0, r1, #8
   2972c:	7120      	strb	r0, [r4, #4]
   2972e:	70e1      	strb	r1, [r4, #3]
   29730:	1de0      	adds	r0, r4, #7
   29732:	223f      	movs	r2, #63	@ 0x3f
   29734:	990b      	ldr	r1, [sp, #44]	@ 0x2c
   29736:	f001 fce9 	bl	2b10c <__aeabi_memcpy>
   2973a:	4d05      	ldr	r5, [pc, #20]	@ (29750 <_start+0x1a54>)
   2973c:	446d      	add	r5, sp
   2973e:	4628      	mov	r0, r5
   29740:	4621      	mov	r1, r4
   29742:	f7f8 fa03 	bl	21b4c <_ZN20complex_dynamic_type3app17h3f30240c46054220E>
   29746:	7828      	ldrb	r0, [r5, #0]
   29748:	2801      	cmp	r0, #1
   2974a:	d107      	bne.n	2975c <_start+0x1a60>
   2974c:	f001 fac6 	bl	2acdc <_start+0x2fe0>
   29750:	00001404 	.word	0x00001404
   29754:	000007ec 	.word	0x000007ec
   29758:	000013a8 	.word	0x000013a8
   2975c:	4915      	ldr	r1, [pc, #84]	@ (297b4 <_start+0x1ab8>)
   2975e:	4469      	add	r1, sp
   29760:	78c8      	ldrb	r0, [r1, #3]
   29762:	4c15      	ldr	r4, [pc, #84]	@ (297b8 <_start+0x1abc>)
   29764:	446c      	add	r4, sp
   29766:	70a0      	strb	r0, [r4, #2]
   29768:	7848      	ldrb	r0, [r1, #1]
   2976a:	788a      	ldrb	r2, [r1, #2]
   2976c:	0212      	lsls	r2, r2, #8
   2976e:	1810      	adds	r0, r2, r0
   29770:	8020      	strh	r0, [r4, #0]
   29772:	9808      	ldr	r0, [sp, #32]
   29774:	6e05      	ldr	r5, [r0, #96]	@ 0x60
   29776:	3108      	adds	r1, #8
   29778:	4810      	ldr	r0, [pc, #64]	@ (297bc <_start+0x1ac0>)
   2977a:	4468      	add	r0, sp
   2977c:	900b      	str	r0, [sp, #44]	@ 0x2c
   2977e:	264f      	movs	r6, #79	@ 0x4f
   29780:	4632      	mov	r2, r6
   29782:	f001 fb63 	bl	2ae4c <__aeabi_memcpy4>
   29786:	0e28      	lsrs	r0, r5, #24
   29788:	71a0      	strb	r0, [r4, #6]
   2978a:	0c28      	lsrs	r0, r5, #16
   2978c:	7160      	strb	r0, [r4, #5]
   2978e:	0a28      	lsrs	r0, r5, #8
   29790:	7120      	strb	r0, [r4, #4]
   29792:	70e5      	strb	r5, [r4, #3]
   29794:	1de0      	adds	r0, r4, #7
   29796:	990b      	ldr	r1, [sp, #44]	@ 0x2c
   29798:	4632      	mov	r2, r6
   2979a:	f001 fcb7 	bl	2b10c <__aeabi_memcpy>
   2979e:	4d05      	ldr	r5, [pc, #20]	@ (297b4 <_start+0x1ab8>)
   297a0:	446d      	add	r5, sp
   297a2:	4628      	mov	r0, r5
   297a4:	4621      	mov	r1, r4
   297a6:	f7fa f9a9 	bl	23afc <_ZN20complex_dynamic_type3app17h7cab82dec30744c7E>
   297aa:	7828      	ldrb	r0, [r5, #0]
   297ac:	2801      	cmp	r0, #1
   297ae:	d107      	bne.n	297c0 <_start+0x1ac4>
   297b0:	f001 fa94 	bl	2acdc <_start+0x2fe0>
   297b4:	00001404 	.word	0x00001404
   297b8:	00000834 	.word	0x00000834
   297bc:	000013a8 	.word	0x000013a8
   297c0:	4915      	ldr	r1, [pc, #84]	@ (29818 <_start+0x1b1c>)
   297c2:	4469      	add	r1, sp
   297c4:	78c8      	ldrb	r0, [r1, #3]
   297c6:	4c15      	ldr	r4, [pc, #84]	@ (2981c <_start+0x1b20>)
   297c8:	446c      	add	r4, sp
   297ca:	70a0      	strb	r0, [r4, #2]
   297cc:	7848      	ldrb	r0, [r1, #1]
   297ce:	788a      	ldrb	r2, [r1, #2]
   297d0:	0212      	lsls	r2, r2, #8
   297d2:	1810      	adds	r0, r2, r0
   297d4:	8020      	strh	r0, [r4, #0]
   297d6:	9808      	ldr	r0, [sp, #32]
   297d8:	6e05      	ldr	r5, [r0, #96]	@ 0x60
   297da:	3108      	adds	r1, #8
   297dc:	4810      	ldr	r0, [pc, #64]	@ (29820 <_start+0x1b24>)
   297de:	4468      	add	r0, sp
   297e0:	900b      	str	r0, [sp, #44]	@ 0x2c
   297e2:	2642      	movs	r6, #66	@ 0x42
   297e4:	4632      	mov	r2, r6
   297e6:	f001 fb31 	bl	2ae4c <__aeabi_memcpy4>
   297ea:	0e28      	lsrs	r0, r5, #24
   297ec:	71a0      	strb	r0, [r4, #6]
   297ee:	0c28      	lsrs	r0, r5, #16
   297f0:	7160      	strb	r0, [r4, #5]
   297f2:	0a28      	lsrs	r0, r5, #8
   297f4:	7120      	strb	r0, [r4, #4]
   297f6:	70e5      	strb	r5, [r4, #3]
   297f8:	1de0      	adds	r0, r4, #7
   297fa:	990b      	ldr	r1, [sp, #44]	@ 0x2c
   297fc:	4632      	mov	r2, r6
   297fe:	f001 fc85 	bl	2b10c <__aeabi_memcpy>
   29802:	4d05      	ldr	r5, [pc, #20]	@ (29818 <_start+0x1b1c>)
   29804:	446d      	add	r5, sp
   29806:	4628      	mov	r0, r5
   29808:	4621      	mov	r1, r4
   2980a:	f7fa fa1f 	bl	23c4c <_ZN20complex_dynamic_type3app17h85202b3693a54a81E>
   2980e:	7828      	ldrb	r0, [r5, #0]
   29810:	2801      	cmp	r0, #1
   29812:	d107      	bne.n	29824 <_start+0x1b28>
   29814:	f001 fa62 	bl	2acdc <_start+0x2fe0>
   29818:	00001404 	.word	0x00001404
   2981c:	0000088c 	.word	0x0000088c
   29820:	000013a8 	.word	0x000013a8
   29824:	4816      	ldr	r0, [pc, #88]	@ (29880 <_start+0x1b84>)
   29826:	4468      	add	r0, sp
   29828:	78c1      	ldrb	r1, [r0, #3]
   2982a:	4c16      	ldr	r4, [pc, #88]	@ (29884 <_start+0x1b88>)
   2982c:	446c      	add	r4, sp
   2982e:	70a1      	strb	r1, [r4, #2]
   29830:	7841      	ldrb	r1, [r0, #1]
   29832:	7882      	ldrb	r2, [r0, #2]
   29834:	0212      	lsls	r2, r2, #8
   29836:	1851      	adds	r1, r2, r1
   29838:	8021      	strh	r1, [r4, #0]
   2983a:	3008      	adds	r0, #8
   2983c:	9908      	ldr	r1, [sp, #32]
   2983e:	6e09      	ldr	r1, [r1, #96]	@ 0x60
   29840:	910a      	str	r1, [sp, #40]	@ 0x28
   29842:	4b11      	ldr	r3, [pc, #68]	@ (29888 <_start+0x1b8c>)
   29844:	446b      	add	r3, sp
   29846:	930b      	str	r3, [sp, #44]	@ 0x2c
   29848:	c864      	ldmia	r0!, {r2, r5, r6}
   2984a:	c364      	stmia	r3!, {r2, r5, r6}
   2984c:	c866      	ldmia	r0!, {r1, r2, r5, r6}
   2984e:	c366      	stmia	r3!, {r1, r2, r5, r6}
   29850:	990a      	ldr	r1, [sp, #40]	@ 0x28
   29852:	0e08      	lsrs	r0, r1, #24
   29854:	71a0      	strb	r0, [r4, #6]
   29856:	0c08      	lsrs	r0, r1, #16
   29858:	7160      	strb	r0, [r4, #5]
   2985a:	0a08      	lsrs	r0, r1, #8
   2985c:	7120      	strb	r0, [r4, #4]
   2985e:	70e1      	strb	r1, [r4, #3]
   29860:	1de0      	adds	r0, r4, #7
   29862:	221c      	movs	r2, #28
   29864:	990b      	ldr	r1, [sp, #44]	@ 0x2c
   29866:	f001 fc51 	bl	2b10c <__aeabi_memcpy>
   2986a:	4d05      	ldr	r5, [pc, #20]	@ (29880 <_start+0x1b84>)
   2986c:	446d      	add	r5, sp
   2986e:	4628      	mov	r0, r5
   29870:	4621      	mov	r1, r4
   29872:	f7fc fbb5 	bl	25fe0 <_ZN20complex_dynamic_type3app17hbb2694a3e132e46eE>
   29876:	7828      	ldrb	r0, [r5, #0]
   29878:	2801      	cmp	r0, #1
   2987a:	d107      	bne.n	2988c <_start+0x1b90>
   2987c:	f001 fa2e 	bl	2acdc <_start+0x2fe0>
   29880:	00001404 	.word	0x00001404
   29884:	000008d8 	.word	0x000008d8
   29888:	000013a8 	.word	0x000013a8
   2988c:	4816      	ldr	r0, [pc, #88]	@ (298e8 <_start+0x1bec>)
   2988e:	4468      	add	r0, sp
   29890:	78c1      	ldrb	r1, [r0, #3]
   29892:	4c16      	ldr	r4, [pc, #88]	@ (298ec <_start+0x1bf0>)
   29894:	446c      	add	r4, sp
   29896:	70a1      	strb	r1, [r4, #2]
   29898:	7841      	ldrb	r1, [r0, #1]
   2989a:	7882      	ldrb	r2, [r0, #2]
   2989c:	0212      	lsls	r2, r2, #8
   2989e:	1851      	adds	r1, r2, r1
   298a0:	8021      	strh	r1, [r4, #0]
   298a2:	3008      	adds	r0, #8
   298a4:	9908      	ldr	r1, [sp, #32]
   298a6:	6e09      	ldr	r1, [r1, #96]	@ 0x60
   298a8:	4b11      	ldr	r3, [pc, #68]	@ (298f0 <_start+0x1bf4>)
   298aa:	446b      	add	r3, sp
   298ac:	930b      	str	r3, [sp, #44]	@ 0x2c
   298ae:	c864      	ldmia	r0!, {r2, r5, r6}
   298b0:	c364      	stmia	r3!, {r2, r5, r6}
   298b2:	c864      	ldmia	r0!, {r2, r5, r6}
   298b4:	c364      	stmia	r3!, {r2, r5, r6}
   298b6:	c864      	ldmia	r0!, {r2, r5, r6}
   298b8:	c364      	stmia	r3!, {r2, r5, r6}
   298ba:	0e08      	lsrs	r0, r1, #24
   298bc:	71a0      	strb	r0, [r4, #6]
   298be:	0c08      	lsrs	r0, r1, #16
   298c0:	7160      	strb	r0, [r4, #5]
   298c2:	0a08      	lsrs	r0, r1, #8
   298c4:	7120      	strb	r0, [r4, #4]
   298c6:	70e1      	strb	r1, [r4, #3]
   298c8:	1de0      	adds	r0, r4, #7
   298ca:	2224      	movs	r2, #36	@ 0x24
   298cc:	990b      	ldr	r1, [sp, #44]	@ 0x2c
   298ce:	f001 fc1d 	bl	2b10c <__aeabi_memcpy>
   298d2:	4d05      	ldr	r5, [pc, #20]	@ (298e8 <_start+0x1bec>)
   298d4:	446d      	add	r5, sp
   298d6:	4628      	mov	r0, r5
   298d8:	4621      	mov	r1, r4
   298da:	f7fa fdad 	bl	24438 <_ZN20complex_dynamic_type3app17h981f192463430db8E>
   298de:	7828      	ldrb	r0, [r5, #0]
   298e0:	2801      	cmp	r0, #1
   298e2:	d107      	bne.n	298f4 <_start+0x1bf8>
   298e4:	f001 f9fa 	bl	2acdc <_start+0x2fe0>
   298e8:	00001404 	.word	0x00001404
   298ec:	000008fc 	.word	0x000008fc
   298f0:	000013a8 	.word	0x000013a8
   298f4:	4914      	ldr	r1, [pc, #80]	@ (29948 <_start+0x1c4c>)
   298f6:	4469      	add	r1, sp
   298f8:	9b08      	ldr	r3, [sp, #32]
   298fa:	6e98      	ldr	r0, [r3, #104]	@ 0x68
   298fc:	8088      	strh	r0, [r1, #4]
   298fe:	4813      	ldr	r0, [pc, #76]	@ (2994c <_start+0x1c50>)
   29900:	4468      	add	r0, sp
   29902:	78c2      	ldrb	r2, [r0, #3]
   29904:	4c12      	ldr	r4, [pc, #72]	@ (29950 <_start+0x1c54>)
   29906:	446c      	add	r4, sp
   29908:	70a2      	strb	r2, [r4, #2]
   2990a:	7842      	ldrb	r2, [r0, #1]
   2990c:	7880      	ldrb	r0, [r0, #2]
   2990e:	0200      	lsls	r0, r0, #8
   29910:	1880      	adds	r0, r0, r2
   29912:	8020      	strh	r0, [r4, #0]
   29914:	6e18      	ldr	r0, [r3, #96]	@ 0x60
   29916:	70e0      	strb	r0, [r4, #3]
   29918:	0e02      	lsrs	r2, r0, #24
   2991a:	71a2      	strb	r2, [r4, #6]
   2991c:	0c02      	lsrs	r2, r0, #16
   2991e:	7162      	strb	r2, [r4, #5]
   29920:	0a00      	lsrs	r0, r0, #8
   29922:	7120      	strb	r0, [r4, #4]
   29924:	6e58      	ldr	r0, [r3, #100]	@ 0x64
   29926:	6018      	str	r0, [r3, #0]
   29928:	1de0      	adds	r0, r4, #7
   2992a:	2206      	movs	r2, #6
   2992c:	f001 fbee 	bl	2b10c <__aeabi_memcpy>
   29930:	4d06      	ldr	r5, [pc, #24]	@ (2994c <_start+0x1c50>)
   29932:	446d      	add	r5, sp
   29934:	4628      	mov	r0, r5
   29936:	4621      	mov	r1, r4
   29938:	f7fd fdee 	bl	27518 <_ZN20complex_dynamic_type3app17hea088d8c588e34bfE>
   2993c:	7828      	ldrb	r0, [r5, #0]
   2993e:	2801      	cmp	r0, #1
   29940:	d108      	bne.n	29954 <_start+0x1c58>
   29942:	f001 f9cb 	bl	2acdc <_start+0x2fe0>
   29946:	46c0      	nop			@ (mov r8, r8)
   29948:	000013a8 	.word	0x000013a8
   2994c:	00001404 	.word	0x00001404
   29950:	00000928 	.word	0x00000928
   29954:	4816      	ldr	r0, [pc, #88]	@ (299b0 <_start+0x1cb4>)
   29956:	4468      	add	r0, sp
   29958:	78c1      	ldrb	r1, [r0, #3]
   2995a:	4c16      	ldr	r4, [pc, #88]	@ (299b4 <_start+0x1cb8>)
   2995c:	446c      	add	r4, sp
   2995e:	70a1      	strb	r1, [r4, #2]
   29960:	7841      	ldrb	r1, [r0, #1]
   29962:	7882      	ldrb	r2, [r0, #2]
   29964:	0212      	lsls	r2, r2, #8
   29966:	1851      	adds	r1, r2, r1
   29968:	8021      	strh	r1, [r4, #0]
   2996a:	3008      	adds	r0, #8
   2996c:	9908      	ldr	r1, [sp, #32]
   2996e:	6e09      	ldr	r1, [r1, #96]	@ 0x60
   29970:	4b11      	ldr	r3, [pc, #68]	@ (299b8 <_start+0x1cbc>)
   29972:	446b      	add	r3, sp
   29974:	930b      	str	r3, [sp, #44]	@ 0x2c
   29976:	c864      	ldmia	r0!, {r2, r5, r6}
   29978:	c364      	stmia	r3!, {r2, r5, r6}
   2997a:	c864      	ldmia	r0!, {r2, r5, r6}
   2997c:	c364      	stmia	r3!, {r2, r5, r6}
   2997e:	8800      	ldrh	r0, [r0, #0]
   29980:	8018      	strh	r0, [r3, #0]
   29982:	0e08      	lsrs	r0, r1, #24
   29984:	71a0      	strb	r0, [r4, #6]
   29986:	0c08      	lsrs	r0, r1, #16
   29988:	7160      	strb	r0, [r4, #5]
   2998a:	0a08      	lsrs	r0, r1, #8
   2998c:	7120      	strb	r0, [r4, #4]
   2998e:	70e1      	strb	r1, [r4, #3]
   29990:	1de0      	adds	r0, r4, #7
   29992:	221a      	movs	r2, #26
   29994:	990b      	ldr	r1, [sp, #44]	@ 0x2c
   29996:	f001 fbb9 	bl	2b10c <__aeabi_memcpy>
   2999a:	4d05      	ldr	r5, [pc, #20]	@ (299b0 <_start+0x1cb4>)
   2999c:	446d      	add	r5, sp
   2999e:	4628      	mov	r0, r5
   299a0:	4621      	mov	r1, r4
   299a2:	f7fa fe99 	bl	246d8 <_ZN20complex_dynamic_type3app17h9b9cf32392fd01ecE>
   299a6:	7828      	ldrb	r0, [r5, #0]
   299a8:	2801      	cmp	r0, #1
   299aa:	d107      	bne.n	299bc <_start+0x1cc0>
   299ac:	f001 f996 	bl	2acdc <_start+0x2fe0>
   299b0:	00001404 	.word	0x00001404
   299b4:	00000938 	.word	0x00000938
   299b8:	000013a8 	.word	0x000013a8
   299bc:	4915      	ldr	r1, [pc, #84]	@ (29a14 <_start+0x1d18>)
   299be:	4469      	add	r1, sp
   299c0:	78c8      	ldrb	r0, [r1, #3]
   299c2:	4c15      	ldr	r4, [pc, #84]	@ (29a18 <_start+0x1d1c>)
   299c4:	446c      	add	r4, sp
   299c6:	70a0      	strb	r0, [r4, #2]
   299c8:	7848      	ldrb	r0, [r1, #1]
   299ca:	788a      	ldrb	r2, [r1, #2]
   299cc:	0212      	lsls	r2, r2, #8
   299ce:	1810      	adds	r0, r2, r0
   299d0:	8020      	strh	r0, [r4, #0]
   299d2:	9808      	ldr	r0, [sp, #32]
   299d4:	6e05      	ldr	r5, [r0, #96]	@ 0x60
   299d6:	3108      	adds	r1, #8
   299d8:	4810      	ldr	r0, [pc, #64]	@ (29a1c <_start+0x1d20>)
   299da:	4468      	add	r0, sp
   299dc:	900b      	str	r0, [sp, #44]	@ 0x2c
   299de:	264c      	movs	r6, #76	@ 0x4c
   299e0:	4632      	mov	r2, r6
   299e2:	f001 fa33 	bl	2ae4c <__aeabi_memcpy4>
   299e6:	0e28      	lsrs	r0, r5, #24
   299e8:	71a0      	strb	r0, [r4, #6]
   299ea:	0c28      	lsrs	r0, r5, #16
   299ec:	7160      	strb	r0, [r4, #5]
   299ee:	0a28      	lsrs	r0, r5, #8
   299f0:	7120      	strb	r0, [r4, #4]
   299f2:	70e5      	strb	r5, [r4, #3]
   299f4:	1de0      	adds	r0, r4, #7
   299f6:	990b      	ldr	r1, [sp, #44]	@ 0x2c
   299f8:	4632      	mov	r2, r6
   299fa:	f001 fb87 	bl	2b10c <__aeabi_memcpy>
   299fe:	4d05      	ldr	r5, [pc, #20]	@ (29a14 <_start+0x1d18>)
   29a00:	446d      	add	r5, sp
   29a02:	4628      	mov	r0, r5
   29a04:	4621      	mov	r1, r4
   29a06:	f7fb fb01 	bl	2500c <_ZN20complex_dynamic_type3app17haaf9c256bc4cc903E>
   29a0a:	7828      	ldrb	r0, [r5, #0]
   29a0c:	2801      	cmp	r0, #1
   29a0e:	d107      	bne.n	29a20 <_start+0x1d24>
   29a10:	f001 f964 	bl	2acdc <_start+0x2fe0>
   29a14:	00001404 	.word	0x00001404
   29a18:	0000095c 	.word	0x0000095c
   29a1c:	000013a8 	.word	0x000013a8
   29a20:	4915      	ldr	r1, [pc, #84]	@ (29a78 <_start+0x1d7c>)
   29a22:	4469      	add	r1, sp
   29a24:	78c8      	ldrb	r0, [r1, #3]
   29a26:	4c15      	ldr	r4, [pc, #84]	@ (29a7c <_start+0x1d80>)
   29a28:	446c      	add	r4, sp
   29a2a:	70a0      	strb	r0, [r4, #2]
   29a2c:	7848      	ldrb	r0, [r1, #1]
   29a2e:	788a      	ldrb	r2, [r1, #2]
   29a30:	0212      	lsls	r2, r2, #8
   29a32:	1810      	adds	r0, r2, r0
   29a34:	8020      	strh	r0, [r4, #0]
   29a36:	9808      	ldr	r0, [sp, #32]
   29a38:	6e05      	ldr	r5, [r0, #96]	@ 0x60
   29a3a:	3108      	adds	r1, #8
   29a3c:	4810      	ldr	r0, [pc, #64]	@ (29a80 <_start+0x1d84>)
   29a3e:	4468      	add	r0, sp
   29a40:	900b      	str	r0, [sp, #44]	@ 0x2c
   29a42:	2646      	movs	r6, #70	@ 0x46
   29a44:	4632      	mov	r2, r6
   29a46:	f001 fa01 	bl	2ae4c <__aeabi_memcpy4>
   29a4a:	0e28      	lsrs	r0, r5, #24
   29a4c:	71a0      	strb	r0, [r4, #6]
   29a4e:	0c28      	lsrs	r0, r5, #16
   29a50:	7160      	strb	r0, [r4, #5]
   29a52:	0a28      	lsrs	r0, r5, #8
   29a54:	7120      	strb	r0, [r4, #4]
   29a56:	70e5      	strb	r5, [r4, #3]
   29a58:	1de0      	adds	r0, r4, #7
   29a5a:	990b      	ldr	r1, [sp, #44]	@ 0x2c
   29a5c:	4632      	mov	r2, r6
   29a5e:	f001 fb55 	bl	2b10c <__aeabi_memcpy>
   29a62:	4d05      	ldr	r5, [pc, #20]	@ (29a78 <_start+0x1d7c>)
   29a64:	446d      	add	r5, sp
   29a66:	4628      	mov	r0, r5
   29a68:	4621      	mov	r1, r4
   29a6a:	f7f7 fa7b 	bl	20f64 <_ZN20complex_dynamic_type3app17h1d5bb97204ecce4eE>
   29a6e:	7828      	ldrb	r0, [r5, #0]
   29a70:	2801      	cmp	r0, #1
   29a72:	d107      	bne.n	29a84 <_start+0x1d88>
   29a74:	f001 f932 	bl	2acdc <_start+0x2fe0>
   29a78:	00001404 	.word	0x00001404
   29a7c:	000009b0 	.word	0x000009b0
   29a80:	000013a8 	.word	0x000013a8
   29a84:	4819      	ldr	r0, [pc, #100]	@ (29aec <_start+0x1df0>)
   29a86:	4468      	add	r0, sp
   29a88:	78c1      	ldrb	r1, [r0, #3]
   29a8a:	4c19      	ldr	r4, [pc, #100]	@ (29af0 <_start+0x1df4>)
   29a8c:	446c      	add	r4, sp
   29a8e:	70a1      	strb	r1, [r4, #2]
   29a90:	7841      	ldrb	r1, [r0, #1]
   29a92:	7882      	ldrb	r2, [r0, #2]
   29a94:	0212      	lsls	r2, r2, #8
   29a96:	1851      	adds	r1, r2, r1
   29a98:	8021      	strh	r1, [r4, #0]
   29a9a:	3008      	adds	r0, #8
   29a9c:	9908      	ldr	r1, [sp, #32]
   29a9e:	6e09      	ldr	r1, [r1, #96]	@ 0x60
   29aa0:	910a      	str	r1, [sp, #40]	@ 0x28
   29aa2:	4b14      	ldr	r3, [pc, #80]	@ (29af4 <_start+0x1df8>)
   29aa4:	446b      	add	r3, sp
   29aa6:	930b      	str	r3, [sp, #44]	@ 0x2c
   29aa8:	c864      	ldmia	r0!, {r2, r5, r6}
   29aaa:	c364      	stmia	r3!, {r2, r5, r6}
   29aac:	c864      	ldmia	r0!, {r2, r5, r6}
   29aae:	c364      	stmia	r3!, {r2, r5, r6}
   29ab0:	c864      	ldmia	r0!, {r2, r5, r6}
   29ab2:	c364      	stmia	r3!, {r2, r5, r6}
   29ab4:	c866      	ldmia	r0!, {r1, r2, r5, r6}
   29ab6:	c366      	stmia	r3!, {r1, r2, r5, r6}
   29ab8:	7800      	ldrb	r0, [r0, #0]
   29aba:	7018      	strb	r0, [r3, #0]
   29abc:	990a      	ldr	r1, [sp, #40]	@ 0x28
   29abe:	0e08      	lsrs	r0, r1, #24
   29ac0:	71a0      	strb	r0, [r4, #6]
   29ac2:	0c08      	lsrs	r0, r1, #16
   29ac4:	7160      	strb	r0, [r4, #5]
   29ac6:	0a08      	lsrs	r0, r1, #8
   29ac8:	7120      	strb	r0, [r4, #4]
   29aca:	70e1      	strb	r1, [r4, #3]
   29acc:	1de0      	adds	r0, r4, #7
   29ace:	2235      	movs	r2, #53	@ 0x35
   29ad0:	990b      	ldr	r1, [sp, #44]	@ 0x2c
   29ad2:	f001 fb1b 	bl	2b10c <__aeabi_memcpy>
   29ad6:	4d05      	ldr	r5, [pc, #20]	@ (29aec <_start+0x1df0>)
   29ad8:	446d      	add	r5, sp
   29ada:	4628      	mov	r0, r5
   29adc:	4621      	mov	r1, r4
   29ade:	f7f7 fe39 	bl	21754 <_ZN20complex_dynamic_type3app17h3549b2af0e74604cE>
   29ae2:	7828      	ldrb	r0, [r5, #0]
   29ae4:	2801      	cmp	r0, #1
   29ae6:	d107      	bne.n	29af8 <_start+0x1dfc>
   29ae8:	f001 f8f8 	bl	2acdc <_start+0x2fe0>
   29aec:	00001404 	.word	0x00001404
   29af0:	00000a00 	.word	0x00000a00
   29af4:	000013a8 	.word	0x000013a8
   29af8:	4818      	ldr	r0, [pc, #96]	@ (29b5c <_start+0x1e60>)
   29afa:	4468      	add	r0, sp
   29afc:	78c1      	ldrb	r1, [r0, #3]
   29afe:	4c18      	ldr	r4, [pc, #96]	@ (29b60 <_start+0x1e64>)
   29b00:	446c      	add	r4, sp
   29b02:	70a1      	strb	r1, [r4, #2]
   29b04:	7841      	ldrb	r1, [r0, #1]
   29b06:	7882      	ldrb	r2, [r0, #2]
   29b08:	0212      	lsls	r2, r2, #8
   29b0a:	1851      	adds	r1, r2, r1
   29b0c:	8021      	strh	r1, [r4, #0]
   29b0e:	3008      	adds	r0, #8
   29b10:	9908      	ldr	r1, [sp, #32]
   29b12:	6e09      	ldr	r1, [r1, #96]	@ 0x60
   29b14:	910a      	str	r1, [sp, #40]	@ 0x28
   29b16:	4b13      	ldr	r3, [pc, #76]	@ (29b64 <_start+0x1e68>)
   29b18:	446b      	add	r3, sp
   29b1a:	930b      	str	r3, [sp, #44]	@ 0x2c
   29b1c:	c866      	ldmia	r0!, {r1, r2, r5, r6}
   29b1e:	c366      	stmia	r3!, {r1, r2, r5, r6}
   29b20:	c866      	ldmia	r0!, {r1, r2, r5, r6}
   29b22:	c366      	stmia	r3!, {r1, r2, r5, r6}
   29b24:	c866      	ldmia	r0!, {r1, r2, r5, r6}
   29b26:	c366      	stmia	r3!, {r1, r2, r5, r6}
   29b28:	7800      	ldrb	r0, [r0, #0]
   29b2a:	7018      	strb	r0, [r3, #0]
   29b2c:	990a      	ldr	r1, [sp, #40]	@ 0x28
   29b2e:	0e08      	lsrs	r0, r1, #24
   29b30:	71a0      	strb	r0, [r4, #6]
   29b32:	0c08      	lsrs	r0, r1, #16
   29b34:	7160      	strb	r0, [r4, #5]
   29b36:	0a08      	lsrs	r0, r1, #8
   29b38:	7120      	strb	r0, [r4, #4]
   29b3a:	70e1      	strb	r1, [r4, #3]
   29b3c:	1de0      	adds	r0, r4, #7
   29b3e:	2231      	movs	r2, #49	@ 0x31
   29b40:	990b      	ldr	r1, [sp, #44]	@ 0x2c
   29b42:	f001 fae3 	bl	2b10c <__aeabi_memcpy>
   29b46:	4d05      	ldr	r5, [pc, #20]	@ (29b5c <_start+0x1e60>)
   29b48:	446d      	add	r5, sp
   29b4a:	4628      	mov	r0, r5
   29b4c:	4621      	mov	r1, r4
   29b4e:	f7f7 f8b5 	bl	20cbc <_ZN20complex_dynamic_type3app17h1a7b325bb3cefd4aE>
   29b52:	7828      	ldrb	r0, [r5, #0]
   29b54:	2801      	cmp	r0, #1
   29b56:	d107      	bne.n	29b68 <_start+0x1e6c>
   29b58:	f001 f8c0 	bl	2acdc <_start+0x2fe0>
   29b5c:	00001404 	.word	0x00001404
   29b60:	00000a3c 	.word	0x00000a3c
   29b64:	000013a8 	.word	0x000013a8
   29b68:	4816      	ldr	r0, [pc, #88]	@ (29bc4 <_start+0x1ec8>)
   29b6a:	4468      	add	r0, sp
   29b6c:	78c1      	ldrb	r1, [r0, #3]
   29b6e:	4c16      	ldr	r4, [pc, #88]	@ (29bc8 <_start+0x1ecc>)
   29b70:	446c      	add	r4, sp
   29b72:	70a1      	strb	r1, [r4, #2]
   29b74:	7841      	ldrb	r1, [r0, #1]
   29b76:	7882      	ldrb	r2, [r0, #2]
   29b78:	0212      	lsls	r2, r2, #8
   29b7a:	1851      	adds	r1, r2, r1
   29b7c:	8021      	strh	r1, [r4, #0]
   29b7e:	3008      	adds	r0, #8
   29b80:	9908      	ldr	r1, [sp, #32]
   29b82:	6e09      	ldr	r1, [r1, #96]	@ 0x60
   29b84:	910a      	str	r1, [sp, #40]	@ 0x28
   29b86:	4b11      	ldr	r3, [pc, #68]	@ (29bcc <_start+0x1ed0>)
   29b88:	446b      	add	r3, sp
   29b8a:	930b      	str	r3, [sp, #44]	@ 0x2c
   29b8c:	c866      	ldmia	r0!, {r1, r2, r5, r6}
   29b8e:	c366      	stmia	r3!, {r1, r2, r5, r6}
   29b90:	c866      	ldmia	r0!, {r1, r2, r5, r6}
   29b92:	c366      	stmia	r3!, {r1, r2, r5, r6}
   29b94:	990a      	ldr	r1, [sp, #40]	@ 0x28
   29b96:	0e08      	lsrs	r0, r1, #24
   29b98:	71a0      	strb	r0, [r4, #6]
   29b9a:	0c08      	lsrs	r0, r1, #16
   29b9c:	7160      	strb	r0, [r4, #5]
   29b9e:	0a08      	lsrs	r0, r1, #8
   29ba0:	7120      	strb	r0, [r4, #4]
   29ba2:	70e1      	strb	r1, [r4, #3]
   29ba4:	1de0      	adds	r0, r4, #7
   29ba6:	2220      	movs	r2, #32
   29ba8:	990b      	ldr	r1, [sp, #44]	@ 0x2c
   29baa:	f001 faaf 	bl	2b10c <__aeabi_memcpy>
   29bae:	4d05      	ldr	r5, [pc, #20]	@ (29bc4 <_start+0x1ec8>)
   29bb0:	446d      	add	r5, sp
   29bb2:	4628      	mov	r0, r5
   29bb4:	4621      	mov	r1, r4
   29bb6:	f7fd fea3 	bl	27900 <_ZN20complex_dynamic_type3app17hf3784686d84308b6E>
   29bba:	7828      	ldrb	r0, [r5, #0]
   29bbc:	2801      	cmp	r0, #1
   29bbe:	d107      	bne.n	29bd0 <_start+0x1ed4>
   29bc0:	f001 f88c 	bl	2acdc <_start+0x2fe0>
   29bc4:	00001404 	.word	0x00001404
   29bc8:	00000a74 	.word	0x00000a74
   29bcc:	000013a8 	.word	0x000013a8
   29bd0:	4915      	ldr	r1, [pc, #84]	@ (29c28 <_start+0x1f2c>)
   29bd2:	4469      	add	r1, sp
   29bd4:	78c8      	ldrb	r0, [r1, #3]
   29bd6:	4c15      	ldr	r4, [pc, #84]	@ (29c2c <_start+0x1f30>)
   29bd8:	446c      	add	r4, sp
   29bda:	70a0      	strb	r0, [r4, #2]
   29bdc:	7848      	ldrb	r0, [r1, #1]
   29bde:	788a      	ldrb	r2, [r1, #2]
   29be0:	0212      	lsls	r2, r2, #8
   29be2:	1810      	adds	r0, r2, r0
   29be4:	8020      	strh	r0, [r4, #0]
   29be6:	9808      	ldr	r0, [sp, #32]
   29be8:	6e05      	ldr	r5, [r0, #96]	@ 0x60
   29bea:	3108      	adds	r1, #8
   29bec:	4810      	ldr	r0, [pc, #64]	@ (29c30 <_start+0x1f34>)
   29bee:	4468      	add	r0, sp
   29bf0:	900b      	str	r0, [sp, #44]	@ 0x2c
   29bf2:	264a      	movs	r6, #74	@ 0x4a
   29bf4:	4632      	mov	r2, r6
   29bf6:	f001 f929 	bl	2ae4c <__aeabi_memcpy4>
   29bfa:	0e28      	lsrs	r0, r5, #24
   29bfc:	71a0      	strb	r0, [r4, #6]
   29bfe:	0c28      	lsrs	r0, r5, #16
   29c00:	7160      	strb	r0, [r4, #5]
   29c02:	0a28      	lsrs	r0, r5, #8
   29c04:	7120      	strb	r0, [r4, #4]
   29c06:	70e5      	strb	r5, [r4, #3]
   29c08:	1de0      	adds	r0, r4, #7
   29c0a:	990b      	ldr	r1, [sp, #44]	@ 0x2c
   29c0c:	4632      	mov	r2, r6
   29c0e:	f001 fa7d 	bl	2b10c <__aeabi_memcpy>
   29c12:	4d05      	ldr	r5, [pc, #20]	@ (29c28 <_start+0x1f2c>)
   29c14:	446d      	add	r5, sp
   29c16:	4628      	mov	r0, r5
   29c18:	4621      	mov	r1, r4
   29c1a:	f7f6 feff 	bl	20a1c <_ZN20complex_dynamic_type3app17h1785cddbd0d7bafaE>
   29c1e:	7828      	ldrb	r0, [r5, #0]
   29c20:	2801      	cmp	r0, #1
   29c22:	d107      	bne.n	29c34 <_start+0x1f38>
   29c24:	f001 f85a 	bl	2acdc <_start+0x2fe0>
   29c28:	00001404 	.word	0x00001404
   29c2c:	00000a9c 	.word	0x00000a9c
   29c30:	000013a8 	.word	0x000013a8
   29c34:	4915      	ldr	r1, [pc, #84]	@ (29c8c <_start+0x1f90>)
   29c36:	4469      	add	r1, sp
   29c38:	78c8      	ldrb	r0, [r1, #3]
   29c3a:	4c15      	ldr	r4, [pc, #84]	@ (29c90 <_start+0x1f94>)
   29c3c:	446c      	add	r4, sp
   29c3e:	70a0      	strb	r0, [r4, #2]
   29c40:	7848      	ldrb	r0, [r1, #1]
   29c42:	788a      	ldrb	r2, [r1, #2]
   29c44:	0212      	lsls	r2, r2, #8
   29c46:	1810      	adds	r0, r2, r0
   29c48:	8020      	strh	r0, [r4, #0]
   29c4a:	9808      	ldr	r0, [sp, #32]
   29c4c:	6e05      	ldr	r5, [r0, #96]	@ 0x60
   29c4e:	3108      	adds	r1, #8
   29c50:	4810      	ldr	r0, [pc, #64]	@ (29c94 <_start+0x1f98>)
   29c52:	4468      	add	r0, sp
   29c54:	900b      	str	r0, [sp, #44]	@ 0x2c
   29c56:	2648      	movs	r6, #72	@ 0x48
   29c58:	4632      	mov	r2, r6
   29c5a:	f001 f8f7 	bl	2ae4c <__aeabi_memcpy4>
   29c5e:	0e28      	lsrs	r0, r5, #24
   29c60:	71a0      	strb	r0, [r4, #6]
   29c62:	0c28      	lsrs	r0, r5, #16
   29c64:	7160      	strb	r0, [r4, #5]
   29c66:	0a28      	lsrs	r0, r5, #8
   29c68:	7120      	strb	r0, [r4, #4]
   29c6a:	70e5      	strb	r5, [r4, #3]
   29c6c:	1de0      	adds	r0, r4, #7
   29c6e:	990b      	ldr	r1, [sp, #44]	@ 0x2c
   29c70:	4632      	mov	r2, r6
   29c72:	f001 fa4b 	bl	2b10c <__aeabi_memcpy>
   29c76:	4d05      	ldr	r5, [pc, #20]	@ (29c8c <_start+0x1f90>)
   29c78:	446d      	add	r5, sp
   29c7a:	4628      	mov	r0, r5
   29c7c:	4621      	mov	r1, r4
   29c7e:	f7f7 fb69 	bl	21354 <_ZN20complex_dynamic_type3app17h30c3c9b6d99d3c35E>
   29c82:	7828      	ldrb	r0, [r5, #0]
   29c84:	2801      	cmp	r0, #1
   29c86:	d107      	bne.n	29c98 <_start+0x1f9c>
   29c88:	f001 f828 	bl	2acdc <_start+0x2fe0>
   29c8c:	00001404 	.word	0x00001404
   29c90:	00000af0 	.word	0x00000af0
   29c94:	000013a8 	.word	0x000013a8
   29c98:	4915      	ldr	r1, [pc, #84]	@ (29cf0 <_start+0x1ff4>)
   29c9a:	4469      	add	r1, sp
   29c9c:	78c8      	ldrb	r0, [r1, #3]
   29c9e:	4c15      	ldr	r4, [pc, #84]	@ (29cf4 <_start+0x1ff8>)
   29ca0:	446c      	add	r4, sp
   29ca2:	70a0      	strb	r0, [r4, #2]
   29ca4:	7848      	ldrb	r0, [r1, #1]
   29ca6:	788a      	ldrb	r2, [r1, #2]
   29ca8:	0212      	lsls	r2, r2, #8
   29caa:	1810      	adds	r0, r2, r0
   29cac:	8020      	strh	r0, [r4, #0]
   29cae:	9808      	ldr	r0, [sp, #32]
   29cb0:	6e05      	ldr	r5, [r0, #96]	@ 0x60
   29cb2:	3108      	adds	r1, #8
   29cb4:	4810      	ldr	r0, [pc, #64]	@ (29cf8 <_start+0x1ffc>)
   29cb6:	4468      	add	r0, sp
   29cb8:	900b      	str	r0, [sp, #44]	@ 0x2c
   29cba:	265a      	movs	r6, #90	@ 0x5a
   29cbc:	4632      	mov	r2, r6
   29cbe:	f001 f8c5 	bl	2ae4c <__aeabi_memcpy4>
   29cc2:	0e28      	lsrs	r0, r5, #24
   29cc4:	71a0      	strb	r0, [r4, #6]
   29cc6:	0c28      	lsrs	r0, r5, #16
   29cc8:	7160      	strb	r0, [r4, #5]
   29cca:	0a28      	lsrs	r0, r5, #8
   29ccc:	7120      	strb	r0, [r4, #4]
   29cce:	70e5      	strb	r5, [r4, #3]
   29cd0:	1de0      	adds	r0, r4, #7
   29cd2:	990b      	ldr	r1, [sp, #44]	@ 0x2c
   29cd4:	4632      	mov	r2, r6
   29cd6:	f001 fa19 	bl	2b10c <__aeabi_memcpy>
   29cda:	4d05      	ldr	r5, [pc, #20]	@ (29cf0 <_start+0x1ff4>)
   29cdc:	446d      	add	r5, sp
   29cde:	4628      	mov	r0, r5
   29ce0:	4621      	mov	r1, r4
   29ce2:	f7fb fedf 	bl	25aa4 <_ZN20complex_dynamic_type3app17hb5a1e7e78f620771E>
   29ce6:	7828      	ldrb	r0, [r5, #0]
   29ce8:	2801      	cmp	r0, #1
   29cea:	d107      	bne.n	29cfc <_start+0x2000>
   29cec:	f000 fff6 	bl	2acdc <_start+0x2fe0>
   29cf0:	00001404 	.word	0x00001404
   29cf4:	00000b40 	.word	0x00000b40
   29cf8:	000013a8 	.word	0x000013a8
   29cfc:	4817      	ldr	r0, [pc, #92]	@ (29d5c <_start+0x2060>)
   29cfe:	4468      	add	r0, sp
   29d00:	78c1      	ldrb	r1, [r0, #3]
   29d02:	4c17      	ldr	r4, [pc, #92]	@ (29d60 <_start+0x2064>)
   29d04:	446c      	add	r4, sp
   29d06:	70a1      	strb	r1, [r4, #2]
   29d08:	7841      	ldrb	r1, [r0, #1]
   29d0a:	7882      	ldrb	r2, [r0, #2]
   29d0c:	0212      	lsls	r2, r2, #8
   29d0e:	1851      	adds	r1, r2, r1
   29d10:	8021      	strh	r1, [r4, #0]
   29d12:	3008      	adds	r0, #8
   29d14:	9908      	ldr	r1, [sp, #32]
   29d16:	6e09      	ldr	r1, [r1, #96]	@ 0x60
   29d18:	4b12      	ldr	r3, [pc, #72]	@ (29d64 <_start+0x2068>)
   29d1a:	446b      	add	r3, sp
   29d1c:	930b      	str	r3, [sp, #44]	@ 0x2c
   29d1e:	c860      	ldmia	r0!, {r5, r6}
   29d20:	c360      	stmia	r3!, {r5, r6}
   29d22:	c864      	ldmia	r0!, {r2, r5, r6}
   29d24:	c364      	stmia	r3!, {r2, r5, r6}
   29d26:	8802      	ldrh	r2, [r0, #0]
   29d28:	801a      	strh	r2, [r3, #0]
   29d2a:	7880      	ldrb	r0, [r0, #2]
   29d2c:	7098      	strb	r0, [r3, #2]
   29d2e:	0e08      	lsrs	r0, r1, #24
   29d30:	71a0      	strb	r0, [r4, #6]
   29d32:	0c08      	lsrs	r0, r1, #16
   29d34:	7160      	strb	r0, [r4, #5]
   29d36:	0a08      	lsrs	r0, r1, #8
   29d38:	7120      	strb	r0, [r4, #4]
   29d3a:	70e1      	strb	r1, [r4, #3]
   29d3c:	1de0      	adds	r0, r4, #7
   29d3e:	2217      	movs	r2, #23
   29d40:	990b      	ldr	r1, [sp, #44]	@ 0x2c
   29d42:	f001 f9e3 	bl	2b10c <__aeabi_memcpy>
   29d46:	4d05      	ldr	r5, [pc, #20]	@ (29d5c <_start+0x2060>)
   29d48:	446d      	add	r5, sp
   29d4a:	4628      	mov	r0, r5
   29d4c:	4621      	mov	r1, r4
   29d4e:	f7fa f825 	bl	23d9c <_ZN20complex_dynamic_type3app17h8c28942c007fdbfaE>
   29d52:	7828      	ldrb	r0, [r5, #0]
   29d54:	2801      	cmp	r0, #1
   29d56:	d107      	bne.n	29d68 <_start+0x206c>
   29d58:	f000 ffc0 	bl	2acdc <_start+0x2fe0>
   29d5c:	00001404 	.word	0x00001404
   29d60:	00000ba4 	.word	0x00000ba4
   29d64:	000013a8 	.word	0x000013a8
   29d68:	4816      	ldr	r0, [pc, #88]	@ (29dc4 <_start+0x20c8>)
   29d6a:	4468      	add	r0, sp
   29d6c:	78c1      	ldrb	r1, [r0, #3]
   29d6e:	4c16      	ldr	r4, [pc, #88]	@ (29dc8 <_start+0x20cc>)
   29d70:	446c      	add	r4, sp
   29d72:	70a1      	strb	r1, [r4, #2]
   29d74:	7841      	ldrb	r1, [r0, #1]
   29d76:	7882      	ldrb	r2, [r0, #2]
   29d78:	0212      	lsls	r2, r2, #8
   29d7a:	1851      	adds	r1, r2, r1
   29d7c:	8021      	strh	r1, [r4, #0]
   29d7e:	3008      	adds	r0, #8
   29d80:	9908      	ldr	r1, [sp, #32]
   29d82:	6e09      	ldr	r1, [r1, #96]	@ 0x60
   29d84:	4b11      	ldr	r3, [pc, #68]	@ (29dcc <_start+0x20d0>)
   29d86:	446b      	add	r3, sp
   29d88:	930b      	str	r3, [sp, #44]	@ 0x2c
   29d8a:	c864      	ldmia	r0!, {r2, r5, r6}
   29d8c:	c364      	stmia	r3!, {r2, r5, r6}
   29d8e:	c864      	ldmia	r0!, {r2, r5, r6}
   29d90:	c364      	stmia	r3!, {r2, r5, r6}
   29d92:	8800      	ldrh	r0, [r0, #0]
   29d94:	8018      	strh	r0, [r3, #0]
   29d96:	0e08      	lsrs	r0, r1, #24
   29d98:	71a0      	strb	r0, [r4, #6]
   29d9a:	0c08      	lsrs	r0, r1, #16
   29d9c:	7160      	strb	r0, [r4, #5]
   29d9e:	0a08      	lsrs	r0, r1, #8
   29da0:	7120      	strb	r0, [r4, #4]
   29da2:	70e1      	strb	r1, [r4, #3]
   29da4:	1de0      	adds	r0, r4, #7
   29da6:	221a      	movs	r2, #26
   29da8:	990b      	ldr	r1, [sp, #44]	@ 0x2c
   29daa:	f001 f9af 	bl	2b10c <__aeabi_memcpy>
   29dae:	4d05      	ldr	r5, [pc, #20]	@ (29dc4 <_start+0x20c8>)
   29db0:	446d      	add	r5, sp
   29db2:	4628      	mov	r0, r5
   29db4:	4621      	mov	r1, r4
   29db6:	f7fb fdcb 	bl	25950 <_ZN20complex_dynamic_type3app17hb2e9c317b96a8bbfE>
   29dba:	7828      	ldrb	r0, [r5, #0]
   29dbc:	2801      	cmp	r0, #1
   29dbe:	d107      	bne.n	29dd0 <_start+0x20d4>
   29dc0:	f000 ff8c 	bl	2acdc <_start+0x2fe0>
   29dc4:	00001404 	.word	0x00001404
   29dc8:	00000bc4 	.word	0x00000bc4
   29dcc:	000013a8 	.word	0x000013a8
   29dd0:	4818      	ldr	r0, [pc, #96]	@ (29e34 <_start+0x2138>)
   29dd2:	4468      	add	r0, sp
   29dd4:	78c1      	ldrb	r1, [r0, #3]
   29dd6:	4c18      	ldr	r4, [pc, #96]	@ (29e38 <_start+0x213c>)
   29dd8:	446c      	add	r4, sp
   29dda:	70a1      	strb	r1, [r4, #2]
   29ddc:	7841      	ldrb	r1, [r0, #1]
   29dde:	7882      	ldrb	r2, [r0, #2]
   29de0:	0212      	lsls	r2, r2, #8
   29de2:	1851      	adds	r1, r2, r1
   29de4:	8021      	strh	r1, [r4, #0]
   29de6:	3008      	adds	r0, #8
   29de8:	9908      	ldr	r1, [sp, #32]
   29dea:	6e09      	ldr	r1, [r1, #96]	@ 0x60
   29dec:	910a      	str	r1, [sp, #40]	@ 0x28
   29dee:	4b13      	ldr	r3, [pc, #76]	@ (29e3c <_start+0x2140>)
   29df0:	446b      	add	r3, sp
   29df2:	930b      	str	r3, [sp, #44]	@ 0x2c
   29df4:	c866      	ldmia	r0!, {r1, r2, r5, r6}
   29df6:	c366      	stmia	r3!, {r1, r2, r5, r6}
   29df8:	c866      	ldmia	r0!, {r1, r2, r5, r6}
   29dfa:	c366      	stmia	r3!, {r1, r2, r5, r6}
   29dfc:	8801      	ldrh	r1, [r0, #0]
   29dfe:	8019      	strh	r1, [r3, #0]
   29e00:	7880      	ldrb	r0, [r0, #2]
   29e02:	7098      	strb	r0, [r3, #2]
   29e04:	990a      	ldr	r1, [sp, #40]	@ 0x28
   29e06:	0e08      	lsrs	r0, r1, #24
   29e08:	71a0      	strb	r0, [r4, #6]
   29e0a:	0c08      	lsrs	r0, r1, #16
   29e0c:	7160      	strb	r0, [r4, #5]
   29e0e:	0a08      	lsrs	r0, r1, #8
   29e10:	7120      	strb	r0, [r4, #4]
   29e12:	70e1      	strb	r1, [r4, #3]
   29e14:	1de0      	adds	r0, r4, #7
   29e16:	2223      	movs	r2, #35	@ 0x23
   29e18:	990b      	ldr	r1, [sp, #44]	@ 0x2c
   29e1a:	f001 f977 	bl	2b10c <__aeabi_memcpy>
   29e1e:	4d05      	ldr	r5, [pc, #20]	@ (29e34 <_start+0x2138>)
   29e20:	446d      	add	r5, sp
   29e22:	4628      	mov	r0, r5
   29e24:	4621      	mov	r1, r4
   29e26:	f7fb fce9 	bl	257fc <_ZN20complex_dynamic_type3app17hb291704bc4b68e58E>
   29e2a:	7828      	ldrb	r0, [r5, #0]
   29e2c:	2801      	cmp	r0, #1
   29e2e:	d107      	bne.n	29e40 <_start+0x2144>
   29e30:	f000 ff54 	bl	2acdc <_start+0x2fe0>
   29e34:	00001404 	.word	0x00001404
   29e38:	00000be8 	.word	0x00000be8
   29e3c:	000013a8 	.word	0x000013a8
   29e40:	4915      	ldr	r1, [pc, #84]	@ (29e98 <_start+0x219c>)
   29e42:	4469      	add	r1, sp
   29e44:	78c8      	ldrb	r0, [r1, #3]
   29e46:	4c15      	ldr	r4, [pc, #84]	@ (29e9c <_start+0x21a0>)
   29e48:	446c      	add	r4, sp
   29e4a:	70a0      	strb	r0, [r4, #2]
   29e4c:	7848      	ldrb	r0, [r1, #1]
   29e4e:	788a      	ldrb	r2, [r1, #2]
   29e50:	0212      	lsls	r2, r2, #8
   29e52:	1810      	adds	r0, r2, r0
   29e54:	8020      	strh	r0, [r4, #0]
   29e56:	9808      	ldr	r0, [sp, #32]
   29e58:	6e05      	ldr	r5, [r0, #96]	@ 0x60
   29e5a:	3108      	adds	r1, #8
   29e5c:	4810      	ldr	r0, [pc, #64]	@ (29ea0 <_start+0x21a4>)
   29e5e:	4468      	add	r0, sp
   29e60:	900b      	str	r0, [sp, #44]	@ 0x2c
   29e62:	2652      	movs	r6, #82	@ 0x52
   29e64:	4632      	mov	r2, r6
   29e66:	f000 fff1 	bl	2ae4c <__aeabi_memcpy4>
   29e6a:	0e28      	lsrs	r0, r5, #24
   29e6c:	71a0      	strb	r0, [r4, #6]
   29e6e:	0c28      	lsrs	r0, r5, #16
   29e70:	7160      	strb	r0, [r4, #5]
   29e72:	0a28      	lsrs	r0, r5, #8
   29e74:	7120      	strb	r0, [r4, #4]
   29e76:	70e5      	strb	r5, [r4, #3]
   29e78:	1de0      	adds	r0, r4, #7
   29e7a:	990b      	ldr	r1, [sp, #44]	@ 0x2c
   29e7c:	4632      	mov	r2, r6
   29e7e:	f001 f945 	bl	2b10c <__aeabi_memcpy>
   29e82:	4d05      	ldr	r5, [pc, #20]	@ (29e98 <_start+0x219c>)
   29e84:	446d      	add	r5, sp
   29e86:	4628      	mov	r0, r5
   29e88:	4621      	mov	r1, r4
   29e8a:	f7f6 f92b 	bl	200e4 <_ZN20complex_dynamic_type3app17h02962e4ccfa6f6c1E>
   29e8e:	7828      	ldrb	r0, [r5, #0]
   29e90:	2801      	cmp	r0, #1
   29e92:	d107      	bne.n	29ea4 <_start+0x21a8>
   29e94:	f000 ff22 	bl	2acdc <_start+0x2fe0>
   29e98:	00001404 	.word	0x00001404
   29e9c:	00000c14 	.word	0x00000c14
   29ea0:	000013a8 	.word	0x000013a8
   29ea4:	4915      	ldr	r1, [pc, #84]	@ (29efc <_start+0x2200>)
   29ea6:	4469      	add	r1, sp
   29ea8:	78c8      	ldrb	r0, [r1, #3]
   29eaa:	4c15      	ldr	r4, [pc, #84]	@ (29f00 <_start+0x2204>)
   29eac:	446c      	add	r4, sp
   29eae:	70a0      	strb	r0, [r4, #2]
   29eb0:	7848      	ldrb	r0, [r1, #1]
   29eb2:	788a      	ldrb	r2, [r1, #2]
   29eb4:	0212      	lsls	r2, r2, #8
   29eb6:	1810      	adds	r0, r2, r0
   29eb8:	8020      	strh	r0, [r4, #0]
   29eba:	9808      	ldr	r0, [sp, #32]
   29ebc:	6e05      	ldr	r5, [r0, #96]	@ 0x60
   29ebe:	3108      	adds	r1, #8
   29ec0:	4810      	ldr	r0, [pc, #64]	@ (29f04 <_start+0x2208>)
   29ec2:	4468      	add	r0, sp
   29ec4:	900b      	str	r0, [sp, #44]	@ 0x2c
   29ec6:	2643      	movs	r6, #67	@ 0x43
   29ec8:	4632      	mov	r2, r6
   29eca:	f000 ffbf 	bl	2ae4c <__aeabi_memcpy4>
   29ece:	0e28      	lsrs	r0, r5, #24
   29ed0:	71a0      	strb	r0, [r4, #6]
   29ed2:	0c28      	lsrs	r0, r5, #16
   29ed4:	7160      	strb	r0, [r4, #5]
   29ed6:	0a28      	lsrs	r0, r5, #8
   29ed8:	7120      	strb	r0, [r4, #4]
   29eda:	70e5      	strb	r5, [r4, #3]
   29edc:	1de0      	adds	r0, r4, #7
   29ede:	990b      	ldr	r1, [sp, #44]	@ 0x2c
   29ee0:	4632      	mov	r2, r6
   29ee2:	f001 f913 	bl	2b10c <__aeabi_memcpy>
   29ee6:	4d05      	ldr	r5, [pc, #20]	@ (29efc <_start+0x2200>)
   29ee8:	446d      	add	r5, sp
   29eea:	4628      	mov	r0, r5
   29eec:	4621      	mov	r1, r4
   29eee:	f7f8 ff6b 	bl	22dc8 <_ZN20complex_dynamic_type3app17h69f710cba2021f4bE>
   29ef2:	7828      	ldrb	r0, [r5, #0]
   29ef4:	2801      	cmp	r0, #1
   29ef6:	d107      	bne.n	29f08 <_start+0x220c>
   29ef8:	f000 fef0 	bl	2acdc <_start+0x2fe0>
   29efc:	00001404 	.word	0x00001404
   29f00:	00000c70 	.word	0x00000c70
   29f04:	000013a8 	.word	0x000013a8
   29f08:	4817      	ldr	r0, [pc, #92]	@ (29f68 <_start+0x226c>)
   29f0a:	4468      	add	r0, sp
   29f0c:	78c1      	ldrb	r1, [r0, #3]
   29f0e:	4c17      	ldr	r4, [pc, #92]	@ (29f6c <_start+0x2270>)
   29f10:	446c      	add	r4, sp
   29f12:	70a1      	strb	r1, [r4, #2]
   29f14:	7841      	ldrb	r1, [r0, #1]
   29f16:	7882      	ldrb	r2, [r0, #2]
   29f18:	0212      	lsls	r2, r2, #8
   29f1a:	1851      	adds	r1, r2, r1
   29f1c:	8021      	strh	r1, [r4, #0]
   29f1e:	3008      	adds	r0, #8
   29f20:	9908      	ldr	r1, [sp, #32]
   29f22:	6e09      	ldr	r1, [r1, #96]	@ 0x60
   29f24:	4b12      	ldr	r3, [pc, #72]	@ (29f70 <_start+0x2274>)
   29f26:	446b      	add	r3, sp
   29f28:	930b      	str	r3, [sp, #44]	@ 0x2c
   29f2a:	c864      	ldmia	r0!, {r2, r5, r6}
   29f2c:	c364      	stmia	r3!, {r2, r5, r6}
   29f2e:	c864      	ldmia	r0!, {r2, r5, r6}
   29f30:	c364      	stmia	r3!, {r2, r5, r6}
   29f32:	c864      	ldmia	r0!, {r2, r5, r6}
   29f34:	c364      	stmia	r3!, {r2, r5, r6}
   29f36:	8800      	ldrh	r0, [r0, #0]
   29f38:	8018      	strh	r0, [r3, #0]
   29f3a:	0e08      	lsrs	r0, r1, #24
   29f3c:	71a0      	strb	r0, [r4, #6]
   29f3e:	0c08      	lsrs	r0, r1, #16
   29f40:	7160      	strb	r0, [r4, #5]
   29f42:	0a08      	lsrs	r0, r1, #8
   29f44:	7120      	strb	r0, [r4, #4]
   29f46:	70e1      	strb	r1, [r4, #3]
   29f48:	1de0      	adds	r0, r4, #7
   29f4a:	2226      	movs	r2, #38	@ 0x26
   29f4c:	990b      	ldr	r1, [sp, #44]	@ 0x2c
   29f4e:	f001 f8dd 	bl	2b10c <__aeabi_memcpy>
   29f52:	4d05      	ldr	r5, [pc, #20]	@ (29f68 <_start+0x226c>)
   29f54:	446d      	add	r5, sp
   29f56:	4628      	mov	r0, r5
   29f58:	4621      	mov	r1, r4
   29f5a:	f7fc fedf 	bl	26d1c <_ZN20complex_dynamic_type3app17hcc3f1ed83c2afc5bE>
   29f5e:	7828      	ldrb	r0, [r5, #0]
   29f60:	2801      	cmp	r0, #1
   29f62:	d107      	bne.n	29f74 <_start+0x2278>
   29f64:	f000 feba 	bl	2acdc <_start+0x2fe0>
   29f68:	00001404 	.word	0x00001404
   29f6c:	00000cbc 	.word	0x00000cbc
   29f70:	000013a8 	.word	0x000013a8
   29f74:	4915      	ldr	r1, [pc, #84]	@ (29fcc <_start+0x22d0>)
   29f76:	4469      	add	r1, sp
   29f78:	78c8      	ldrb	r0, [r1, #3]
   29f7a:	4c15      	ldr	r4, [pc, #84]	@ (29fd0 <_start+0x22d4>)
   29f7c:	446c      	add	r4, sp
   29f7e:	70a0      	strb	r0, [r4, #2]
   29f80:	7848      	ldrb	r0, [r1, #1]
   29f82:	788a      	ldrb	r2, [r1, #2]
   29f84:	0212      	lsls	r2, r2, #8
   29f86:	1810      	adds	r0, r2, r0
   29f88:	8020      	strh	r0, [r4, #0]
   29f8a:	9808      	ldr	r0, [sp, #32]
   29f8c:	6e05      	ldr	r5, [r0, #96]	@ 0x60
   29f8e:	3108      	adds	r1, #8
   29f90:	4810      	ldr	r0, [pc, #64]	@ (29fd4 <_start+0x22d8>)
   29f92:	4468      	add	r0, sp
   29f94:	900b      	str	r0, [sp, #44]	@ 0x2c
   29f96:	264c      	movs	r6, #76	@ 0x4c
   29f98:	4632      	mov	r2, r6
   29f9a:	f000 ff57 	bl	2ae4c <__aeabi_memcpy4>
   29f9e:	0e28      	lsrs	r0, r5, #24
   29fa0:	71a0      	strb	r0, [r4, #6]
   29fa2:	0c28      	lsrs	r0, r5, #16
   29fa4:	7160      	strb	r0, [r4, #5]
   29fa6:	0a28      	lsrs	r0, r5, #8
   29fa8:	7120      	strb	r0, [r4, #4]
   29faa:	70e5      	strb	r5, [r4, #3]
   29fac:	1de0      	adds	r0, r4, #7
   29fae:	990b      	ldr	r1, [sp, #44]	@ 0x2c
   29fb0:	4632      	mov	r2, r6
   29fb2:	f001 f8ab 	bl	2b10c <__aeabi_memcpy>
   29fb6:	4d05      	ldr	r5, [pc, #20]	@ (29fcc <_start+0x22d0>)
   29fb8:	446d      	add	r5, sp
   29fba:	4628      	mov	r0, r5
   29fbc:	4621      	mov	r1, r4
   29fbe:	f7f7 f879 	bl	210b4 <_ZN20complex_dynamic_type3app17h1dc62e1d0211039fE>
   29fc2:	7828      	ldrb	r0, [r5, #0]
   29fc4:	2801      	cmp	r0, #1
   29fc6:	d107      	bne.n	29fd8 <_start+0x22dc>
   29fc8:	f000 fe88 	bl	2acdc <_start+0x2fe0>
   29fcc:	00001404 	.word	0x00001404
   29fd0:	00000cec 	.word	0x00000cec
   29fd4:	000013a8 	.word	0x000013a8
   29fd8:	4819      	ldr	r0, [pc, #100]	@ (2a040 <_start+0x2344>)
   29fda:	4468      	add	r0, sp
   29fdc:	78c1      	ldrb	r1, [r0, #3]
   29fde:	4c19      	ldr	r4, [pc, #100]	@ (2a044 <_start+0x2348>)
   29fe0:	446c      	add	r4, sp
   29fe2:	70a1      	strb	r1, [r4, #2]
   29fe4:	7841      	ldrb	r1, [r0, #1]
   29fe6:	7882      	ldrb	r2, [r0, #2]
   29fe8:	0212      	lsls	r2, r2, #8
   29fea:	1851      	adds	r1, r2, r1
   29fec:	8021      	strh	r1, [r4, #0]
   29fee:	3008      	adds	r0, #8
   29ff0:	9908      	ldr	r1, [sp, #32]
   29ff2:	6e09      	ldr	r1, [r1, #96]	@ 0x60
   29ff4:	910a      	str	r1, [sp, #40]	@ 0x28
   29ff6:	4b14      	ldr	r3, [pc, #80]	@ (2a048 <_start+0x234c>)
   29ff8:	446b      	add	r3, sp
   29ffa:	930b      	str	r3, [sp, #44]	@ 0x2c
   29ffc:	c866      	ldmia	r0!, {r1, r2, r5, r6}
   29ffe:	c366      	stmia	r3!, {r1, r2, r5, r6}
   2a000:	c866      	ldmia	r0!, {r1, r2, r5, r6}
   2a002:	c366      	stmia	r3!, {r1, r2, r5, r6}
   2a004:	c866      	ldmia	r0!, {r1, r2, r5, r6}
   2a006:	c366      	stmia	r3!, {r1, r2, r5, r6}
   2a008:	8801      	ldrh	r1, [r0, #0]
   2a00a:	8019      	strh	r1, [r3, #0]
   2a00c:	7880      	ldrb	r0, [r0, #2]
   2a00e:	7098      	strb	r0, [r3, #2]
   2a010:	990a      	ldr	r1, [sp, #40]	@ 0x28
   2a012:	0e08      	lsrs	r0, r1, #24
   2a014:	71a0      	strb	r0, [r4, #6]
   2a016:	0c08      	lsrs	r0, r1, #16
   2a018:	7160      	strb	r0, [r4, #5]
   2a01a:	0a08      	lsrs	r0, r1, #8
   2a01c:	7120      	strb	r0, [r4, #4]
   2a01e:	70e1      	strb	r1, [r4, #3]
   2a020:	1de0      	adds	r0, r4, #7
   2a022:	2233      	movs	r2, #51	@ 0x33
   2a024:	990b      	ldr	r1, [sp, #44]	@ 0x2c
   2a026:	f001 f871 	bl	2b10c <__aeabi_memcpy>
   2a02a:	4d05      	ldr	r5, [pc, #20]	@ (2a040 <_start+0x2344>)
   2a02c:	446d      	add	r5, sp
   2a02e:	4628      	mov	r0, r5
   2a030:	4621      	mov	r1, r4
   2a032:	f7f7 fc37 	bl	218a4 <_ZN20complex_dynamic_type3app17h3720b553db454f5aE>
   2a036:	7828      	ldrb	r0, [r5, #0]
   2a038:	2801      	cmp	r0, #1
   2a03a:	d107      	bne.n	2a04c <_start+0x2350>
   2a03c:	f000 fe4e 	bl	2acdc <_start+0x2fe0>
   2a040:	00001404 	.word	0x00001404
   2a044:	00000d40 	.word	0x00000d40
   2a048:	000013a8 	.word	0x000013a8
   2a04c:	4915      	ldr	r1, [pc, #84]	@ (2a0a4 <_start+0x23a8>)
   2a04e:	4469      	add	r1, sp
   2a050:	78c8      	ldrb	r0, [r1, #3]
   2a052:	4c15      	ldr	r4, [pc, #84]	@ (2a0a8 <_start+0x23ac>)
   2a054:	446c      	add	r4, sp
   2a056:	70a0      	strb	r0, [r4, #2]
   2a058:	7848      	ldrb	r0, [r1, #1]
   2a05a:	788a      	ldrb	r2, [r1, #2]
   2a05c:	0212      	lsls	r2, r2, #8
   2a05e:	1810      	adds	r0, r2, r0
   2a060:	8020      	strh	r0, [r4, #0]
   2a062:	9808      	ldr	r0, [sp, #32]
   2a064:	6e05      	ldr	r5, [r0, #96]	@ 0x60
   2a066:	3108      	adds	r1, #8
   2a068:	4810      	ldr	r0, [pc, #64]	@ (2a0ac <_start+0x23b0>)
   2a06a:	4468      	add	r0, sp
   2a06c:	900b      	str	r0, [sp, #44]	@ 0x2c
   2a06e:	2656      	movs	r6, #86	@ 0x56
   2a070:	4632      	mov	r2, r6
   2a072:	f000 feeb 	bl	2ae4c <__aeabi_memcpy4>
   2a076:	0e28      	lsrs	r0, r5, #24
   2a078:	71a0      	strb	r0, [r4, #6]
   2a07a:	0c28      	lsrs	r0, r5, #16
   2a07c:	7160      	strb	r0, [r4, #5]
   2a07e:	0a28      	lsrs	r0, r5, #8
   2a080:	7120      	strb	r0, [r4, #4]
   2a082:	70e5      	strb	r5, [r4, #3]
   2a084:	1de0      	adds	r0, r4, #7
   2a086:	990b      	ldr	r1, [sp, #44]	@ 0x2c
   2a088:	4632      	mov	r2, r6
   2a08a:	f001 f83f 	bl	2b10c <__aeabi_memcpy>
   2a08e:	4d05      	ldr	r5, [pc, #20]	@ (2a0a4 <_start+0x23a8>)
   2a090:	446d      	add	r5, sp
   2a092:	4628      	mov	r0, r5
   2a094:	4621      	mov	r1, r4
   2a096:	f7fb fdab 	bl	25bf0 <_ZN20complex_dynamic_type3app17hb762c710570c6283E>
   2a09a:	7828      	ldrb	r0, [r5, #0]
   2a09c:	2801      	cmp	r0, #1
   2a09e:	d107      	bne.n	2a0b0 <_start+0x23b4>
   2a0a0:	f000 fe1c 	bl	2acdc <_start+0x2fe0>
   2a0a4:	00001404 	.word	0x00001404
   2a0a8:	00000d7c 	.word	0x00000d7c
   2a0ac:	000013a8 	.word	0x000013a8
   2a0b0:	4819      	ldr	r0, [pc, #100]	@ (2a118 <_start+0x241c>)
   2a0b2:	4468      	add	r0, sp
   2a0b4:	78c1      	ldrb	r1, [r0, #3]
   2a0b6:	4c19      	ldr	r4, [pc, #100]	@ (2a11c <_start+0x2420>)
   2a0b8:	446c      	add	r4, sp
   2a0ba:	70a1      	strb	r1, [r4, #2]
   2a0bc:	7841      	ldrb	r1, [r0, #1]
   2a0be:	7882      	ldrb	r2, [r0, #2]
   2a0c0:	0212      	lsls	r2, r2, #8
   2a0c2:	1851      	adds	r1, r2, r1
   2a0c4:	8021      	strh	r1, [r4, #0]
   2a0c6:	3008      	adds	r0, #8
   2a0c8:	9908      	ldr	r1, [sp, #32]
   2a0ca:	6e09      	ldr	r1, [r1, #96]	@ 0x60
   2a0cc:	910a      	str	r1, [sp, #40]	@ 0x28
   2a0ce:	4b14      	ldr	r3, [pc, #80]	@ (2a120 <_start+0x2424>)
   2a0d0:	446b      	add	r3, sp
   2a0d2:	930b      	str	r3, [sp, #44]	@ 0x2c
   2a0d4:	c864      	ldmia	r0!, {r2, r5, r6}
   2a0d6:	c364      	stmia	r3!, {r2, r5, r6}
   2a0d8:	c866      	ldmia	r0!, {r1, r2, r5, r6}
   2a0da:	c366      	stmia	r3!, {r1, r2, r5, r6}
   2a0dc:	c826      	ldmia	r0!, {r1, r2, r5}
   2a0de:	c326      	stmia	r3!, {r1, r2, r5}
   2a0e0:	c866      	ldmia	r0!, {r1, r2, r5, r6}
   2a0e2:	c366      	stmia	r3!, {r1, r2, r5, r6}
   2a0e4:	7800      	ldrb	r0, [r0, #0]
   2a0e6:	7018      	strb	r0, [r3, #0]
   2a0e8:	990a      	ldr	r1, [sp, #40]	@ 0x28
   2a0ea:	0e08      	lsrs	r0, r1, #24
   2a0ec:	71a0      	strb	r0, [r4, #6]
   2a0ee:	0c08      	lsrs	r0, r1, #16
   2a0f0:	7160      	strb	r0, [r4, #5]
   2a0f2:	0a08      	lsrs	r0, r1, #8
   2a0f4:	7120      	strb	r0, [r4, #4]
   2a0f6:	70e1      	strb	r1, [r4, #3]
   2a0f8:	1de0      	adds	r0, r4, #7
   2a0fa:	2239      	movs	r2, #57	@ 0x39
   2a0fc:	990b      	ldr	r1, [sp, #44]	@ 0x2c
   2a0fe:	f001 f805 	bl	2b10c <__aeabi_memcpy>
   2a102:	4d05      	ldr	r5, [pc, #20]	@ (2a118 <_start+0x241c>)
   2a104:	446d      	add	r5, sp
   2a106:	4628      	mov	r0, r5
   2a108:	4621      	mov	r1, r4
   2a10a:	f7fc fa0f 	bl	2652c <_ZN20complex_dynamic_type3app17hbf6103dc6885b4a8E>
   2a10e:	7828      	ldrb	r0, [r5, #0]
   2a110:	2801      	cmp	r0, #1
   2a112:	d107      	bne.n	2a124 <_start+0x2428>
   2a114:	f000 fde2 	bl	2acdc <_start+0x2fe0>
   2a118:	00001404 	.word	0x00001404
   2a11c:	00000ddc 	.word	0x00000ddc
   2a120:	000013a8 	.word	0x000013a8
   2a124:	4818      	ldr	r0, [pc, #96]	@ (2a188 <_start+0x248c>)
   2a126:	4468      	add	r0, sp
   2a128:	78c1      	ldrb	r1, [r0, #3]
   2a12a:	4c18      	ldr	r4, [pc, #96]	@ (2a18c <_start+0x2490>)
   2a12c:	446c      	add	r4, sp
   2a12e:	70a1      	strb	r1, [r4, #2]
   2a130:	7841      	ldrb	r1, [r0, #1]
   2a132:	7882      	ldrb	r2, [r0, #2]
   2a134:	0212      	lsls	r2, r2, #8
   2a136:	1851      	adds	r1, r2, r1
   2a138:	8021      	strh	r1, [r4, #0]
   2a13a:	3008      	adds	r0, #8
   2a13c:	9908      	ldr	r1, [sp, #32]
   2a13e:	6e09      	ldr	r1, [r1, #96]	@ 0x60
   2a140:	910a      	str	r1, [sp, #40]	@ 0x28
   2a142:	4b13      	ldr	r3, [pc, #76]	@ (2a190 <_start+0x2494>)
   2a144:	446b      	add	r3, sp
   2a146:	930b      	str	r3, [sp, #44]	@ 0x2c
   2a148:	c864      	ldmia	r0!, {r2, r5, r6}
   2a14a:	c364      	stmia	r3!, {r2, r5, r6}
   2a14c:	c864      	ldmia	r0!, {r2, r5, r6}
   2a14e:	c364      	stmia	r3!, {r2, r5, r6}
   2a150:	c866      	ldmia	r0!, {r1, r2, r5, r6}
   2a152:	c366      	stmia	r3!, {r1, r2, r5, r6}
   2a154:	8800      	ldrh	r0, [r0, #0]
   2a156:	8018      	strh	r0, [r3, #0]
   2a158:	990a      	ldr	r1, [sp, #40]	@ 0x28
   2a15a:	0e08      	lsrs	r0, r1, #24
   2a15c:	71a0      	strb	r0, [r4, #6]
   2a15e:	0c08      	lsrs	r0, r1, #16
   2a160:	7160      	strb	r0, [r4, #5]
   2a162:	0a08      	lsrs	r0, r1, #8
   2a164:	7120      	strb	r0, [r4, #4]
   2a166:	70e1      	strb	r1, [r4, #3]
   2a168:	1de0      	adds	r0, r4, #7
   2a16a:	222a      	movs	r2, #42	@ 0x2a
   2a16c:	990b      	ldr	r1, [sp, #44]	@ 0x2c
   2a16e:	f000 ffcd 	bl	2b10c <__aeabi_memcpy>
   2a172:	4d05      	ldr	r5, [pc, #20]	@ (2a188 <_start+0x248c>)
   2a174:	446d      	add	r5, sp
   2a176:	4628      	mov	r0, r5
   2a178:	4621      	mov	r1, r4
   2a17a:	f7f7 f997 	bl	214ac <_ZN20complex_dynamic_type3app17h310292204680c64aE>
   2a17e:	7828      	ldrb	r0, [r5, #0]
   2a180:	2801      	cmp	r0, #1
   2a182:	d107      	bne.n	2a194 <_start+0x2498>
   2a184:	f000 fdaa 	bl	2acdc <_start+0x2fe0>
   2a188:	00001404 	.word	0x00001404
   2a18c:	00000e1c 	.word	0x00000e1c
   2a190:	000013a8 	.word	0x000013a8
   2a194:	4915      	ldr	r1, [pc, #84]	@ (2a1ec <_start+0x24f0>)
   2a196:	4469      	add	r1, sp
   2a198:	78c8      	ldrb	r0, [r1, #3]
   2a19a:	4c15      	ldr	r4, [pc, #84]	@ (2a1f0 <_start+0x24f4>)
   2a19c:	446c      	add	r4, sp
   2a19e:	70a0      	strb	r0, [r4, #2]
   2a1a0:	7848      	ldrb	r0, [r1, #1]
   2a1a2:	788a      	ldrb	r2, [r1, #2]
   2a1a4:	0212      	lsls	r2, r2, #8
   2a1a6:	1810      	adds	r0, r2, r0
   2a1a8:	8020      	strh	r0, [r4, #0]
   2a1aa:	9808      	ldr	r0, [sp, #32]
   2a1ac:	6e05      	ldr	r5, [r0, #96]	@ 0x60
   2a1ae:	3108      	adds	r1, #8
   2a1b0:	4810      	ldr	r0, [pc, #64]	@ (2a1f4 <_start+0x24f8>)
   2a1b2:	4468      	add	r0, sp
   2a1b4:	900b      	str	r0, [sp, #44]	@ 0x2c
   2a1b6:	2641      	movs	r6, #65	@ 0x41
   2a1b8:	4632      	mov	r2, r6
   2a1ba:	f000 fe47 	bl	2ae4c <__aeabi_memcpy4>
   2a1be:	0e28      	lsrs	r0, r5, #24
   2a1c0:	71a0      	strb	r0, [r4, #6]
   2a1c2:	0c28      	lsrs	r0, r5, #16
   2a1c4:	7160      	strb	r0, [r4, #5]
   2a1c6:	0a28      	lsrs	r0, r5, #8
   2a1c8:	7120      	strb	r0, [r4, #4]
   2a1ca:	70e5      	strb	r5, [r4, #3]
   2a1cc:	1de0      	adds	r0, r4, #7
   2a1ce:	990b      	ldr	r1, [sp, #44]	@ 0x2c
   2a1d0:	4632      	mov	r2, r6
   2a1d2:	f000 ff9b 	bl	2b10c <__aeabi_memcpy>
   2a1d6:	4d05      	ldr	r5, [pc, #20]	@ (2a1ec <_start+0x24f0>)
   2a1d8:	446d      	add	r5, sp
   2a1da:	4628      	mov	r0, r5
   2a1dc:	4621      	mov	r1, r4
   2a1de:	f7f7 fffd 	bl	221dc <_ZN20complex_dynamic_type3app17h5189d70375013476E>
   2a1e2:	7828      	ldrb	r0, [r5, #0]
   2a1e4:	2801      	cmp	r0, #1
   2a1e6:	d107      	bne.n	2a1f8 <_start+0x24fc>
   2a1e8:	f000 fd78 	bl	2acdc <_start+0x2fe0>
   2a1ec:	00001404 	.word	0x00001404
   2a1f0:	00000e50 	.word	0x00000e50
   2a1f4:	000013a8 	.word	0x000013a8
   2a1f8:	4817      	ldr	r0, [pc, #92]	@ (2a258 <_start+0x255c>)
   2a1fa:	4468      	add	r0, sp
   2a1fc:	78c1      	ldrb	r1, [r0, #3]
   2a1fe:	4c17      	ldr	r4, [pc, #92]	@ (2a25c <_start+0x2560>)
   2a200:	446c      	add	r4, sp
   2a202:	70a1      	strb	r1, [r4, #2]
   2a204:	7841      	ldrb	r1, [r0, #1]
   2a206:	7882      	ldrb	r2, [r0, #2]
   2a208:	0212      	lsls	r2, r2, #8
   2a20a:	1851      	adds	r1, r2, r1
   2a20c:	8021      	strh	r1, [r4, #0]
   2a20e:	3008      	adds	r0, #8
   2a210:	9908      	ldr	r1, [sp, #32]
   2a212:	6e09      	ldr	r1, [r1, #96]	@ 0x60
   2a214:	910a      	str	r1, [sp, #40]	@ 0x28
   2a216:	4b12      	ldr	r3, [pc, #72]	@ (2a260 <_start+0x2564>)
   2a218:	446b      	add	r3, sp
   2a21a:	930b      	str	r3, [sp, #44]	@ 0x2c
   2a21c:	c866      	ldmia	r0!, {r1, r2, r5, r6}
   2a21e:	c366      	stmia	r3!, {r1, r2, r5, r6}
   2a220:	c866      	ldmia	r0!, {r1, r2, r5, r6}
   2a222:	c366      	stmia	r3!, {r1, r2, r5, r6}
   2a224:	8800      	ldrh	r0, [r0, #0]
   2a226:	8018      	strh	r0, [r3, #0]
   2a228:	990a      	ldr	r1, [sp, #40]	@ 0x28
   2a22a:	0e08      	lsrs	r0, r1, #24
   2a22c:	71a0      	strb	r0, [r4, #6]
   2a22e:	0c08      	lsrs	r0, r1, #16
   2a230:	7160      	strb	r0, [r4, #5]
   2a232:	0a08      	lsrs	r0, r1, #8
   2a234:	7120      	strb	r0, [r4, #4]
   2a236:	70e1      	strb	r1, [r4, #3]
   2a238:	1de0      	adds	r0, r4, #7
   2a23a:	2222      	movs	r2, #34	@ 0x22
   2a23c:	990b      	ldr	r1, [sp, #44]	@ 0x2c
   2a23e:	f000 ff65 	bl	2b10c <__aeabi_memcpy>
   2a242:	4d05      	ldr	r5, [pc, #20]	@ (2a258 <_start+0x255c>)
   2a244:	446d      	add	r5, sp
   2a246:	4628      	mov	r0, r5
   2a248:	4621      	mov	r1, r4
   2a24a:	f7f6 ffdb 	bl	21204 <_ZN20complex_dynamic_type3app17h27c74325977a6820E>
   2a24e:	7828      	ldrb	r0, [r5, #0]
   2a250:	2801      	cmp	r0, #1
   2a252:	d107      	bne.n	2a264 <_start+0x2568>
   2a254:	f000 fd42 	bl	2acdc <_start+0x2fe0>
   2a258:	00001404 	.word	0x00001404
   2a25c:	00000e98 	.word	0x00000e98
   2a260:	000013a8 	.word	0x000013a8
   2a264:	4817      	ldr	r0, [pc, #92]	@ (2a2c4 <_start+0x25c8>)
   2a266:	4468      	add	r0, sp
   2a268:	78c1      	ldrb	r1, [r0, #3]
   2a26a:	4c17      	ldr	r4, [pc, #92]	@ (2a2c8 <_start+0x25cc>)
   2a26c:	446c      	add	r4, sp
   2a26e:	70a1      	strb	r1, [r4, #2]
   2a270:	7841      	ldrb	r1, [r0, #1]
   2a272:	7882      	ldrb	r2, [r0, #2]
   2a274:	0212      	lsls	r2, r2, #8
   2a276:	1851      	adds	r1, r2, r1
   2a278:	8021      	strh	r1, [r4, #0]
   2a27a:	3008      	adds	r0, #8
   2a27c:	9908      	ldr	r1, [sp, #32]
   2a27e:	6e09      	ldr	r1, [r1, #96]	@ 0x60
   2a280:	910a      	str	r1, [sp, #40]	@ 0x28
   2a282:	4b12      	ldr	r3, [pc, #72]	@ (2a2cc <_start+0x25d0>)
   2a284:	446b      	add	r3, sp
   2a286:	930b      	str	r3, [sp, #44]	@ 0x2c
   2a288:	c866      	ldmia	r0!, {r1, r2, r5, r6}
   2a28a:	c366      	stmia	r3!, {r1, r2, r5, r6}
   2a28c:	8801      	ldrh	r1, [r0, #0]
   2a28e:	8019      	strh	r1, [r3, #0]
   2a290:	7880      	ldrb	r0, [r0, #2]
   2a292:	7098      	strb	r0, [r3, #2]
   2a294:	990a      	ldr	r1, [sp, #40]	@ 0x28
   2a296:	0e08      	lsrs	r0, r1, #24
   2a298:	71a0      	strb	r0, [r4, #6]
   2a29a:	0c08      	lsrs	r0, r1, #16
   2a29c:	7160      	strb	r0, [r4, #5]
   2a29e:	0a08      	lsrs	r0, r1, #8
   2a2a0:	7120      	strb	r0, [r4, #4]
   2a2a2:	70e1      	strb	r1, [r4, #3]
   2a2a4:	1de0      	adds	r0, r4, #7
   2a2a6:	2213      	movs	r2, #19
   2a2a8:	990b      	ldr	r1, [sp, #44]	@ 0x2c
   2a2aa:	f000 ff2f 	bl	2b10c <__aeabi_memcpy>
   2a2ae:	4d05      	ldr	r5, [pc, #20]	@ (2a2c4 <_start+0x25c8>)
   2a2b0:	446d      	add	r5, sp
   2a2b2:	4628      	mov	r0, r5
   2a2b4:	4621      	mov	r1, r4
   2a2b6:	f7f6 f90d 	bl	204d4 <_ZN20complex_dynamic_type3app17h0bce55fc2f9af1d1E>
   2a2ba:	7828      	ldrb	r0, [r5, #0]
   2a2bc:	2801      	cmp	r0, #1
   2a2be:	d107      	bne.n	2a2d0 <_start+0x25d4>
   2a2c0:	f000 fd0c 	bl	2acdc <_start+0x2fe0>
   2a2c4:	00001404 	.word	0x00001404
   2a2c8:	00000ec4 	.word	0x00000ec4
   2a2cc:	000013a8 	.word	0x000013a8
   2a2d0:	4815      	ldr	r0, [pc, #84]	@ (2a328 <_start+0x262c>)
   2a2d2:	4468      	add	r0, sp
   2a2d4:	78c1      	ldrb	r1, [r0, #3]
   2a2d6:	4c15      	ldr	r4, [pc, #84]	@ (2a32c <_start+0x2630>)
   2a2d8:	446c      	add	r4, sp
   2a2da:	70a1      	strb	r1, [r4, #2]
   2a2dc:	7841      	ldrb	r1, [r0, #1]
   2a2de:	7882      	ldrb	r2, [r0, #2]
   2a2e0:	0212      	lsls	r2, r2, #8
   2a2e2:	1851      	adds	r1, r2, r1
   2a2e4:	8021      	strh	r1, [r4, #0]
   2a2e6:	3008      	adds	r0, #8
   2a2e8:	9908      	ldr	r1, [sp, #32]
   2a2ea:	6e09      	ldr	r1, [r1, #96]	@ 0x60
   2a2ec:	4b10      	ldr	r3, [pc, #64]	@ (2a330 <_start+0x2634>)
   2a2ee:	446b      	add	r3, sp
   2a2f0:	930b      	str	r3, [sp, #44]	@ 0x2c
   2a2f2:	c860      	ldmia	r0!, {r5, r6}
   2a2f4:	c360      	stmia	r3!, {r5, r6}
   2a2f6:	c864      	ldmia	r0!, {r2, r5, r6}
   2a2f8:	c364      	stmia	r3!, {r2, r5, r6}
   2a2fa:	0e08      	lsrs	r0, r1, #24
   2a2fc:	71a0      	strb	r0, [r4, #6]
   2a2fe:	0c08      	lsrs	r0, r1, #16
   2a300:	7160      	strb	r0, [r4, #5]
   2a302:	0a08      	lsrs	r0, r1, #8
   2a304:	7120      	strb	r0, [r4, #4]
   2a306:	70e1      	strb	r1, [r4, #3]
   2a308:	1de0      	adds	r0, r4, #7
   2a30a:	2214      	movs	r2, #20
   2a30c:	990b      	ldr	r1, [sp, #44]	@ 0x2c
   2a30e:	f000 fefd 	bl	2b10c <__aeabi_memcpy>
   2a312:	4d05      	ldr	r5, [pc, #20]	@ (2a328 <_start+0x262c>)
   2a314:	446d      	add	r5, sp
   2a316:	4628      	mov	r0, r5
   2a318:	4621      	mov	r1, r4
   2a31a:	f7fc fbab 	bl	26a74 <_ZN20complex_dynamic_type3app17hc3a3207f707cbcbbE>
   2a31e:	7828      	ldrb	r0, [r5, #0]
   2a320:	2801      	cmp	r0, #1
   2a322:	d107      	bne.n	2a334 <_start+0x2638>
   2a324:	f000 fcda 	bl	2acdc <_start+0x2fe0>
   2a328:	00001404 	.word	0x00001404
   2a32c:	00000ee0 	.word	0x00000ee0
   2a330:	000013a8 	.word	0x000013a8
   2a334:	4819      	ldr	r0, [pc, #100]	@ (2a39c <_start+0x26a0>)
   2a336:	4468      	add	r0, sp
   2a338:	78c1      	ldrb	r1, [r0, #3]
   2a33a:	4c19      	ldr	r4, [pc, #100]	@ (2a3a0 <_start+0x26a4>)
   2a33c:	446c      	add	r4, sp
   2a33e:	70a1      	strb	r1, [r4, #2]
   2a340:	7841      	ldrb	r1, [r0, #1]
   2a342:	7882      	ldrb	r2, [r0, #2]
   2a344:	0212      	lsls	r2, r2, #8
   2a346:	1851      	adds	r1, r2, r1
   2a348:	8021      	strh	r1, [r4, #0]
   2a34a:	3008      	adds	r0, #8
   2a34c:	9908      	ldr	r1, [sp, #32]
   2a34e:	6e09      	ldr	r1, [r1, #96]	@ 0x60
   2a350:	910a      	str	r1, [sp, #40]	@ 0x28
   2a352:	4b14      	ldr	r3, [pc, #80]	@ (2a3a4 <_start+0x26a8>)
   2a354:	446b      	add	r3, sp
   2a356:	930b      	str	r3, [sp, #44]	@ 0x2c
   2a358:	c864      	ldmia	r0!, {r2, r5, r6}
   2a35a:	c364      	stmia	r3!, {r2, r5, r6}
   2a35c:	c866      	ldmia	r0!, {r1, r2, r5, r6}
   2a35e:	c366      	stmia	r3!, {r1, r2, r5, r6}
   2a360:	c826      	ldmia	r0!, {r1, r2, r5}
   2a362:	c326      	stmia	r3!, {r1, r2, r5}
   2a364:	c866      	ldmia	r0!, {r1, r2, r5, r6}
   2a366:	c366      	stmia	r3!, {r1, r2, r5, r6}
   2a368:	8800      	ldrh	r0, [r0, #0]
   2a36a:	8018      	strh	r0, [r3, #0]
   2a36c:	990a      	ldr	r1, [sp, #40]	@ 0x28
   2a36e:	0e08      	lsrs	r0, r1, #24
   2a370:	71a0      	strb	r0, [r4, #6]
   2a372:	0c08      	lsrs	r0, r1, #16
   2a374:	7160      	strb	r0, [r4, #5]
   2a376:	0a08      	lsrs	r0, r1, #8
   2a378:	7120      	strb	r0, [r4, #4]
   2a37a:	70e1      	strb	r1, [r4, #3]
   2a37c:	1de0      	adds	r0, r4, #7
   2a37e:	223a      	movs	r2, #58	@ 0x3a
   2a380:	990b      	ldr	r1, [sp, #44]	@ 0x2c
   2a382:	f000 fec3 	bl	2b10c <__aeabi_memcpy>
   2a386:	4d05      	ldr	r5, [pc, #20]	@ (2a39c <_start+0x26a0>)
   2a388:	446d      	add	r5, sp
   2a38a:	4628      	mov	r0, r5
   2a38c:	4621      	mov	r1, r4
   2a38e:	f7fc fec9 	bl	27124 <_ZN20complex_dynamic_type3app17he6f93a721ec87003E>
   2a392:	7828      	ldrb	r0, [r5, #0]
   2a394:	2801      	cmp	r0, #1
   2a396:	d107      	bne.n	2a3a8 <_start+0x26ac>
   2a398:	f000 fca0 	bl	2acdc <_start+0x2fe0>
   2a39c:	00001404 	.word	0x00001404
   2a3a0:	00000efc 	.word	0x00000efc
   2a3a4:	000013a8 	.word	0x000013a8
   2a3a8:	4816      	ldr	r0, [pc, #88]	@ (2a404 <_start+0x2708>)
   2a3aa:	4468      	add	r0, sp
   2a3ac:	78c1      	ldrb	r1, [r0, #3]
   2a3ae:	4c16      	ldr	r4, [pc, #88]	@ (2a408 <_start+0x270c>)
   2a3b0:	446c      	add	r4, sp
   2a3b2:	70a1      	strb	r1, [r4, #2]
   2a3b4:	7841      	ldrb	r1, [r0, #1]
   2a3b6:	7882      	ldrb	r2, [r0, #2]
   2a3b8:	0212      	lsls	r2, r2, #8
   2a3ba:	1851      	adds	r1, r2, r1
   2a3bc:	8021      	strh	r1, [r4, #0]
   2a3be:	3008      	adds	r0, #8
   2a3c0:	9908      	ldr	r1, [sp, #32]
   2a3c2:	6e09      	ldr	r1, [r1, #96]	@ 0x60
   2a3c4:	910a      	str	r1, [sp, #40]	@ 0x28
   2a3c6:	4b11      	ldr	r3, [pc, #68]	@ (2a40c <_start+0x2710>)
   2a3c8:	446b      	add	r3, sp
   2a3ca:	930b      	str	r3, [sp, #44]	@ 0x2c
   2a3cc:	c866      	ldmia	r0!, {r1, r2, r5, r6}
   2a3ce:	c366      	stmia	r3!, {r1, r2, r5, r6}
   2a3d0:	7800      	ldrb	r0, [r0, #0]
   2a3d2:	7018      	strb	r0, [r3, #0]
   2a3d4:	990a      	ldr	r1, [sp, #40]	@ 0x28
   2a3d6:	0e08      	lsrs	r0, r1, #24
   2a3d8:	71a0      	strb	r0, [r4, #6]
   2a3da:	0c08      	lsrs	r0, r1, #16
   2a3dc:	7160      	strb	r0, [r4, #5]
   2a3de:	0a08      	lsrs	r0, r1, #8
   2a3e0:	7120      	strb	r0, [r4, #4]
   2a3e2:	70e1      	strb	r1, [r4, #3]
   2a3e4:	1de0      	adds	r0, r4, #7
   2a3e6:	2211      	movs	r2, #17
   2a3e8:	990b      	ldr	r1, [sp, #44]	@ 0x2c
   2a3ea:	f000 fe8f 	bl	2b10c <__aeabi_memcpy>
   2a3ee:	4d05      	ldr	r5, [pc, #20]	@ (2a404 <_start+0x2708>)
   2a3f0:	446d      	add	r5, sp
   2a3f2:	4628      	mov	r0, r5
   2a3f4:	4621      	mov	r1, r4
   2a3f6:	f7f7 fda1 	bl	21f3c <_ZN20complex_dynamic_type3app17h48e0c2bd4f8121bcE>
   2a3fa:	7828      	ldrb	r0, [r5, #0]
   2a3fc:	2801      	cmp	r0, #1
   2a3fe:	d107      	bne.n	2a410 <_start+0x2714>
   2a400:	f000 fc6c 	bl	2acdc <_start+0x2fe0>
   2a404:	00001404 	.word	0x00001404
   2a408:	00000f40 	.word	0x00000f40
   2a40c:	000013a8 	.word	0x000013a8
   2a410:	4817      	ldr	r0, [pc, #92]	@ (2a470 <_start+0x2774>)
   2a412:	4468      	add	r0, sp
   2a414:	78c1      	ldrb	r1, [r0, #3]
   2a416:	4c17      	ldr	r4, [pc, #92]	@ (2a474 <_start+0x2778>)
   2a418:	446c      	add	r4, sp
   2a41a:	70a1      	strb	r1, [r4, #2]
   2a41c:	7841      	ldrb	r1, [r0, #1]
   2a41e:	7882      	ldrb	r2, [r0, #2]
   2a420:	0212      	lsls	r2, r2, #8
   2a422:	1851      	adds	r1, r2, r1
   2a424:	8021      	strh	r1, [r4, #0]
   2a426:	3008      	adds	r0, #8
   2a428:	9908      	ldr	r1, [sp, #32]
   2a42a:	6e09      	ldr	r1, [r1, #96]	@ 0x60
   2a42c:	4b12      	ldr	r3, [pc, #72]	@ (2a478 <_start+0x277c>)
   2a42e:	446b      	add	r3, sp
   2a430:	930b      	str	r3, [sp, #44]	@ 0x2c
   2a432:	c860      	ldmia	r0!, {r5, r6}
   2a434:	c360      	stmia	r3!, {r5, r6}
   2a436:	c864      	ldmia	r0!, {r2, r5, r6}
   2a438:	c364      	stmia	r3!, {r2, r5, r6}
   2a43a:	8802      	ldrh	r2, [r0, #0]
   2a43c:	801a      	strh	r2, [r3, #0]
   2a43e:	7880      	ldrb	r0, [r0, #2]
   2a440:	7098      	strb	r0, [r3, #2]
   2a442:	0e08      	lsrs	r0, r1, #24
   2a444:	71a0      	strb	r0, [r4, #6]
   2a446:	0c08      	lsrs	r0, r1, #16
   2a448:	7160      	strb	r0, [r4, #5]
   2a44a:	0a08      	lsrs	r0, r1, #8
   2a44c:	7120      	strb	r0, [r4, #4]
   2a44e:	70e1      	strb	r1, [r4, #3]
   2a450:	1de0      	adds	r0, r4, #7
   2a452:	2217      	movs	r2, #23
   2a454:	990b      	ldr	r1, [sp, #44]	@ 0x2c
   2a456:	f000 fe59 	bl	2b10c <__aeabi_memcpy>
   2a45a:	4d05      	ldr	r5, [pc, #20]	@ (2a470 <_start+0x2774>)
   2a45c:	446d      	add	r5, sp
   2a45e:	4628      	mov	r0, r5
   2a460:	4621      	mov	r1, r4
   2a462:	f7fc ffad 	bl	273c0 <_ZN20complex_dynamic_type3app17he9e66adb83d115b5E>
   2a466:	7828      	ldrb	r0, [r5, #0]
   2a468:	2801      	cmp	r0, #1
   2a46a:	d107      	bne.n	2a47c <_start+0x2780>
   2a46c:	f000 fc36 	bl	2acdc <_start+0x2fe0>
   2a470:	00001404 	.word	0x00001404
   2a474:	00000f58 	.word	0x00000f58
   2a478:	000013a8 	.word	0x000013a8
   2a47c:	4819      	ldr	r0, [pc, #100]	@ (2a4e4 <_start+0x27e8>)
   2a47e:	4468      	add	r0, sp
   2a480:	78c1      	ldrb	r1, [r0, #3]
   2a482:	4c19      	ldr	r4, [pc, #100]	@ (2a4e8 <_start+0x27ec>)
   2a484:	446c      	add	r4, sp
   2a486:	70a1      	strb	r1, [r4, #2]
   2a488:	7841      	ldrb	r1, [r0, #1]
   2a48a:	7882      	ldrb	r2, [r0, #2]
   2a48c:	0212      	lsls	r2, r2, #8
   2a48e:	1851      	adds	r1, r2, r1
   2a490:	8021      	strh	r1, [r4, #0]
   2a492:	3008      	adds	r0, #8
   2a494:	9908      	ldr	r1, [sp, #32]
   2a496:	6e09      	ldr	r1, [r1, #96]	@ 0x60
   2a498:	910a      	str	r1, [sp, #40]	@ 0x28
   2a49a:	4b14      	ldr	r3, [pc, #80]	@ (2a4ec <_start+0x27f0>)
   2a49c:	446b      	add	r3, sp
   2a49e:	930b      	str	r3, [sp, #44]	@ 0x2c
   2a4a0:	c864      	ldmia	r0!, {r2, r5, r6}
   2a4a2:	c364      	stmia	r3!, {r2, r5, r6}
   2a4a4:	c864      	ldmia	r0!, {r2, r5, r6}
   2a4a6:	c364      	stmia	r3!, {r2, r5, r6}
   2a4a8:	c864      	ldmia	r0!, {r2, r5, r6}
   2a4aa:	c364      	stmia	r3!, {r2, r5, r6}
   2a4ac:	c866      	ldmia	r0!, {r1, r2, r5, r6}
   2a4ae:	c366      	stmia	r3!, {r1, r2, r5, r6}
   2a4b0:	7800      	ldrb	r0, [r0, #0]
   2a4b2:	7018      	strb	r0, [r3, #0]
   2a4b4:	990a      	ldr	r1, [sp, #40]	@ 0x28
   2a4b6:	0e08      	lsrs	r0, r1, #24
   2a4b8:	71a0      	strb	r0, [r4, #6]
   2a4ba:	0c08      	lsrs	r0, r1, #16
   2a4bc:	7160      	strb	r0, [r4, #5]
   2a4be:	0a08      	lsrs	r0, r1, #8
   2a4c0:	7120      	strb	r0, [r4, #4]
   2a4c2:	70e1      	strb	r1, [r4, #3]
   2a4c4:	1de0      	adds	r0, r4, #7
   2a4c6:	2235      	movs	r2, #53	@ 0x35
   2a4c8:	990b      	ldr	r1, [sp, #44]	@ 0x2c
   2a4ca:	f000 fe1f 	bl	2b10c <__aeabi_memcpy>
   2a4ce:	4d05      	ldr	r5, [pc, #20]	@ (2a4e4 <_start+0x27e8>)
   2a4d0:	446d      	add	r5, sp
   2a4d2:	4628      	mov	r0, r5
   2a4d4:	4621      	mov	r1, r4
   2a4d6:	f7f6 f951 	bl	2077c <_ZN20complex_dynamic_type3app17h0fc713fc9f52fceeE>
   2a4da:	7828      	ldrb	r0, [r5, #0]
   2a4dc:	2801      	cmp	r0, #1
   2a4de:	d107      	bne.n	2a4f0 <_start+0x27f4>
   2a4e0:	e3fc      	b.n	2acdc <_start+0x2fe0>
   2a4e2:	46c0      	nop			@ (mov r8, r8)
   2a4e4:	00001404 	.word	0x00001404
   2a4e8:	00000f78 	.word	0x00000f78
   2a4ec:	000013a8 	.word	0x000013a8
   2a4f0:	4817      	ldr	r0, [pc, #92]	@ (2a550 <_start+0x2854>)
   2a4f2:	4468      	add	r0, sp
   2a4f4:	78c1      	ldrb	r1, [r0, #3]
   2a4f6:	4c17      	ldr	r4, [pc, #92]	@ (2a554 <_start+0x2858>)
   2a4f8:	446c      	add	r4, sp
   2a4fa:	70a1      	strb	r1, [r4, #2]
   2a4fc:	7841      	ldrb	r1, [r0, #1]
   2a4fe:	7882      	ldrb	r2, [r0, #2]
   2a500:	0212      	lsls	r2, r2, #8
   2a502:	1851      	adds	r1, r2, r1
   2a504:	8021      	strh	r1, [r4, #0]
   2a506:	3008      	adds	r0, #8
   2a508:	9908      	ldr	r1, [sp, #32]
   2a50a:	6e09      	ldr	r1, [r1, #96]	@ 0x60
   2a50c:	4b12      	ldr	r3, [pc, #72]	@ (2a558 <_start+0x285c>)
   2a50e:	446b      	add	r3, sp
   2a510:	930b      	str	r3, [sp, #44]	@ 0x2c
   2a512:	c864      	ldmia	r0!, {r2, r5, r6}
   2a514:	c364      	stmia	r3!, {r2, r5, r6}
   2a516:	c864      	ldmia	r0!, {r2, r5, r6}
   2a518:	c364      	stmia	r3!, {r2, r5, r6}
   2a51a:	c864      	ldmia	r0!, {r2, r5, r6}
   2a51c:	c364      	stmia	r3!, {r2, r5, r6}
   2a51e:	7800      	ldrb	r0, [r0, #0]
   2a520:	7018      	strb	r0, [r3, #0]
   2a522:	0e08      	lsrs	r0, r1, #24
   2a524:	71a0      	strb	r0, [r4, #6]
   2a526:	0c08      	lsrs	r0, r1, #16
   2a528:	7160      	strb	r0, [r4, #5]
   2a52a:	0a08      	lsrs	r0, r1, #8
   2a52c:	7120      	strb	r0, [r4, #4]
   2a52e:	70e1      	strb	r1, [r4, #3]
   2a530:	1de0      	adds	r0, r4, #7
   2a532:	2225      	movs	r2, #37	@ 0x25
   2a534:	990b      	ldr	r1, [sp, #44]	@ 0x2c
   2a536:	f000 fde9 	bl	2b10c <__aeabi_memcpy>
   2a53a:	4d05      	ldr	r5, [pc, #20]	@ (2a550 <_start+0x2854>)
   2a53c:	446d      	add	r5, sp
   2a53e:	4628      	mov	r0, r5
   2a540:	4621      	mov	r1, r4
   2a542:	f7fc f9ef 	bl	26924 <_ZN20complex_dynamic_type3app17hc19f4c73ec24f4abE>
   2a546:	7828      	ldrb	r0, [r5, #0]
   2a548:	2801      	cmp	r0, #1
   2a54a:	d107      	bne.n	2a55c <_start+0x2860>
   2a54c:	e3c6      	b.n	2acdc <_start+0x2fe0>
   2a54e:	46c0      	nop			@ (mov r8, r8)
   2a550:	00001404 	.word	0x00001404
   2a554:	00000fb4 	.word	0x00000fb4
   2a558:	000013a8 	.word	0x000013a8
   2a55c:	4816      	ldr	r0, [pc, #88]	@ (2a5b8 <_start+0x28bc>)
   2a55e:	4468      	add	r0, sp
   2a560:	78c1      	ldrb	r1, [r0, #3]
   2a562:	4c16      	ldr	r4, [pc, #88]	@ (2a5bc <_start+0x28c0>)
   2a564:	446c      	add	r4, sp
   2a566:	70a1      	strb	r1, [r4, #2]
   2a568:	7841      	ldrb	r1, [r0, #1]
   2a56a:	7882      	ldrb	r2, [r0, #2]
   2a56c:	0212      	lsls	r2, r2, #8
   2a56e:	1851      	adds	r1, r2, r1
   2a570:	8021      	strh	r1, [r4, #0]
   2a572:	3008      	adds	r0, #8
   2a574:	9908      	ldr	r1, [sp, #32]
   2a576:	6e09      	ldr	r1, [r1, #96]	@ 0x60
   2a578:	910a      	str	r1, [sp, #40]	@ 0x28
   2a57a:	4b11      	ldr	r3, [pc, #68]	@ (2a5c0 <_start+0x28c4>)
   2a57c:	446b      	add	r3, sp
   2a57e:	930b      	str	r3, [sp, #44]	@ 0x2c
   2a580:	c866      	ldmia	r0!, {r1, r2, r5, r6}
   2a582:	c366      	stmia	r3!, {r1, r2, r5, r6}
   2a584:	c866      	ldmia	r0!, {r1, r2, r5, r6}
   2a586:	c366      	stmia	r3!, {r1, r2, r5, r6}
   2a588:	990a      	ldr	r1, [sp, #40]	@ 0x28
   2a58a:	0e08      	lsrs	r0, r1, #24
   2a58c:	71a0      	strb	r0, [r4, #6]
   2a58e:	0c08      	lsrs	r0, r1, #16
   2a590:	7160      	strb	r0, [r4, #5]
   2a592:	0a08      	lsrs	r0, r1, #8
   2a594:	7120      	strb	r0, [r4, #4]
   2a596:	70e1      	strb	r1, [r4, #3]
   2a598:	1de0      	adds	r0, r4, #7
   2a59a:	2220      	movs	r2, #32
   2a59c:	990b      	ldr	r1, [sp, #44]	@ 0x2c
   2a59e:	f000 fdb5 	bl	2b10c <__aeabi_memcpy>
   2a5a2:	4d05      	ldr	r5, [pc, #20]	@ (2a5b8 <_start+0x28bc>)
   2a5a4:	446d      	add	r5, sp
   2a5a6:	4628      	mov	r0, r5
   2a5a8:	4621      	mov	r1, r4
   2a5aa:	f7fa f941 	bl	24830 <_ZN20complex_dynamic_type3app17ha033bf98663a288bE>
   2a5ae:	7828      	ldrb	r0, [r5, #0]
   2a5b0:	2801      	cmp	r0, #1
   2a5b2:	d107      	bne.n	2a5c4 <_start+0x28c8>
   2a5b4:	e392      	b.n	2acdc <_start+0x2fe0>
   2a5b6:	46c0      	nop			@ (mov r8, r8)
   2a5b8:	00001404 	.word	0x00001404
   2a5bc:	00000fe0 	.word	0x00000fe0
   2a5c0:	000013a8 	.word	0x000013a8
   2a5c4:	4915      	ldr	r1, [pc, #84]	@ (2a61c <_start+0x2920>)
   2a5c6:	4469      	add	r1, sp
   2a5c8:	78c8      	ldrb	r0, [r1, #3]
   2a5ca:	4c15      	ldr	r4, [pc, #84]	@ (2a620 <_start+0x2924>)
   2a5cc:	446c      	add	r4, sp
   2a5ce:	70a0      	strb	r0, [r4, #2]
   2a5d0:	7848      	ldrb	r0, [r1, #1]
   2a5d2:	788a      	ldrb	r2, [r1, #2]
   2a5d4:	0212      	lsls	r2, r2, #8
   2a5d6:	1810      	adds	r0, r2, r0
   2a5d8:	8020      	strh	r0, [r4, #0]
   2a5da:	9808      	ldr	r0, [sp, #32]
   2a5dc:	6e05      	ldr	r5, [r0, #96]	@ 0x60
   2a5de:	3108      	adds	r1, #8
   2a5e0:	4810      	ldr	r0, [pc, #64]	@ (2a624 <_start+0x2928>)
   2a5e2:	4468      	add	r0, sp
   2a5e4:	900b      	str	r0, [sp, #44]	@ 0x2c
   2a5e6:	2648      	movs	r6, #72	@ 0x48
   2a5e8:	4632      	mov	r2, r6
   2a5ea:	f000 fc2f 	bl	2ae4c <__aeabi_memcpy4>
   2a5ee:	0e28      	lsrs	r0, r5, #24
   2a5f0:	71a0      	strb	r0, [r4, #6]
   2a5f2:	0c28      	lsrs	r0, r5, #16
   2a5f4:	7160      	strb	r0, [r4, #5]
   2a5f6:	0a28      	lsrs	r0, r5, #8
   2a5f8:	7120      	strb	r0, [r4, #4]
   2a5fa:	70e5      	strb	r5, [r4, #3]
   2a5fc:	1de0      	adds	r0, r4, #7
   2a5fe:	990b      	ldr	r1, [sp, #44]	@ 0x2c
   2a600:	4632      	mov	r2, r6
   2a602:	f000 fd83 	bl	2b10c <__aeabi_memcpy>
   2a606:	4d05      	ldr	r5, [pc, #20]	@ (2a61c <_start+0x2920>)
   2a608:	446d      	add	r5, sp
   2a60a:	4628      	mov	r0, r5
   2a60c:	4621      	mov	r1, r4
   2a60e:	f7f6 fc01 	bl	20e14 <_ZN20complex_dynamic_type3app17h1b738517f8b98f40E>
   2a612:	7828      	ldrb	r0, [r5, #0]
   2a614:	2801      	cmp	r0, #1
   2a616:	d107      	bne.n	2a628 <_start+0x292c>
   2a618:	e360      	b.n	2acdc <_start+0x2fe0>
   2a61a:	46c0      	nop			@ (mov r8, r8)
   2a61c:	00001404 	.word	0x00001404
   2a620:	00001008 	.word	0x00001008
   2a624:	000013a8 	.word	0x000013a8
   2a628:	4818      	ldr	r0, [pc, #96]	@ (2a68c <_start+0x2990>)
   2a62a:	4468      	add	r0, sp
   2a62c:	78c1      	ldrb	r1, [r0, #3]
   2a62e:	4c18      	ldr	r4, [pc, #96]	@ (2a690 <_start+0x2994>)
   2a630:	446c      	add	r4, sp
   2a632:	70a1      	strb	r1, [r4, #2]
   2a634:	7841      	ldrb	r1, [r0, #1]
   2a636:	7882      	ldrb	r2, [r0, #2]
   2a638:	0212      	lsls	r2, r2, #8
   2a63a:	1851      	adds	r1, r2, r1
   2a63c:	8021      	strh	r1, [r4, #0]
   2a63e:	3008      	adds	r0, #8
   2a640:	9908      	ldr	r1, [sp, #32]
   2a642:	6e09      	ldr	r1, [r1, #96]	@ 0x60
   2a644:	910a      	str	r1, [sp, #40]	@ 0x28
   2a646:	4b13      	ldr	r3, [pc, #76]	@ (2a694 <_start+0x2998>)
   2a648:	446b      	add	r3, sp
   2a64a:	930b      	str	r3, [sp, #44]	@ 0x2c
   2a64c:	c864      	ldmia	r0!, {r2, r5, r6}
   2a64e:	c364      	stmia	r3!, {r2, r5, r6}
   2a650:	c866      	ldmia	r0!, {r1, r2, r5, r6}
   2a652:	c366      	stmia	r3!, {r1, r2, r5, r6}
   2a654:	c866      	ldmia	r0!, {r1, r2, r5, r6}
   2a656:	c366      	stmia	r3!, {r1, r2, r5, r6}
   2a658:	8800      	ldrh	r0, [r0, #0]
   2a65a:	8018      	strh	r0, [r3, #0]
   2a65c:	990a      	ldr	r1, [sp, #40]	@ 0x28
   2a65e:	0e08      	lsrs	r0, r1, #24
   2a660:	71a0      	strb	r0, [r4, #6]
   2a662:	0c08      	lsrs	r0, r1, #16
   2a664:	7160      	strb	r0, [r4, #5]
   2a666:	0a08      	lsrs	r0, r1, #8
   2a668:	7120      	strb	r0, [r4, #4]
   2a66a:	70e1      	strb	r1, [r4, #3]
   2a66c:	1de0      	adds	r0, r4, #7
   2a66e:	222e      	movs	r2, #46	@ 0x2e
   2a670:	990b      	ldr	r1, [sp, #44]	@ 0x2c
   2a672:	f000 fd4b 	bl	2b10c <__aeabi_memcpy>
   2a676:	4d05      	ldr	r5, [pc, #20]	@ (2a68c <_start+0x2990>)
   2a678:	446d      	add	r5, sp
   2a67a:	4628      	mov	r0, r5
   2a67c:	4621      	mov	r1, r4
   2a67e:	f7f6 f925 	bl	208cc <_ZN20complex_dynamic_type3app17h150583c70acc0878E>
   2a682:	7828      	ldrb	r0, [r5, #0]
   2a684:	2801      	cmp	r0, #1
   2a686:	d107      	bne.n	2a698 <_start+0x299c>
   2a688:	e328      	b.n	2acdc <_start+0x2fe0>
   2a68a:	46c0      	nop			@ (mov r8, r8)
   2a68c:	00001404 	.word	0x00001404
   2a690:	00001058 	.word	0x00001058
   2a694:	000013a8 	.word	0x000013a8
   2a698:	4818      	ldr	r0, [pc, #96]	@ (2a6fc <_start+0x2a00>)
   2a69a:	4468      	add	r0, sp
   2a69c:	78c1      	ldrb	r1, [r0, #3]
   2a69e:	4c18      	ldr	r4, [pc, #96]	@ (2a700 <_start+0x2a04>)
   2a6a0:	446c      	add	r4, sp
   2a6a2:	70a1      	strb	r1, [r4, #2]
   2a6a4:	7841      	ldrb	r1, [r0, #1]
   2a6a6:	7882      	ldrb	r2, [r0, #2]
   2a6a8:	0212      	lsls	r2, r2, #8
   2a6aa:	1851      	adds	r1, r2, r1
   2a6ac:	8021      	strh	r1, [r4, #0]
   2a6ae:	3008      	adds	r0, #8
   2a6b0:	9908      	ldr	r1, [sp, #32]
   2a6b2:	6e09      	ldr	r1, [r1, #96]	@ 0x60
   2a6b4:	910a      	str	r1, [sp, #40]	@ 0x28
   2a6b6:	4b13      	ldr	r3, [pc, #76]	@ (2a704 <_start+0x2a08>)
   2a6b8:	446b      	add	r3, sp
   2a6ba:	930b      	str	r3, [sp, #44]	@ 0x2c
   2a6bc:	c864      	ldmia	r0!, {r2, r5, r6}
   2a6be:	c364      	stmia	r3!, {r2, r5, r6}
   2a6c0:	c866      	ldmia	r0!, {r1, r2, r5, r6}
   2a6c2:	c366      	stmia	r3!, {r1, r2, r5, r6}
   2a6c4:	c826      	ldmia	r0!, {r1, r2, r5}
   2a6c6:	c326      	stmia	r3!, {r1, r2, r5}
   2a6c8:	c866      	ldmia	r0!, {r1, r2, r5, r6}
   2a6ca:	c366      	stmia	r3!, {r1, r2, r5, r6}
   2a6cc:	990a      	ldr	r1, [sp, #40]	@ 0x28
   2a6ce:	0e08      	lsrs	r0, r1, #24
   2a6d0:	71a0      	strb	r0, [r4, #6]
   2a6d2:	0c08      	lsrs	r0, r1, #16
   2a6d4:	7160      	strb	r0, [r4, #5]
   2a6d6:	0a08      	lsrs	r0, r1, #8
   2a6d8:	7120      	strb	r0, [r4, #4]
   2a6da:	70e1      	strb	r1, [r4, #3]
   2a6dc:	1de0      	adds	r0, r4, #7
   2a6de:	2238      	movs	r2, #56	@ 0x38
   2a6e0:	990b      	ldr	r1, [sp, #44]	@ 0x2c
   2a6e2:	f000 fd13 	bl	2b10c <__aeabi_memcpy>
   2a6e6:	4d05      	ldr	r5, [pc, #20]	@ (2a6fc <_start+0x2a00>)
   2a6e8:	446d      	add	r5, sp
   2a6ea:	4628      	mov	r0, r5
   2a6ec:	4621      	mov	r1, r4
   2a6ee:	f7f7 fad5 	bl	21c9c <_ZN20complex_dynamic_type3app17h42aa0f2161b4cce4E>
   2a6f2:	7828      	ldrb	r0, [r5, #0]
   2a6f4:	2801      	cmp	r0, #1
   2a6f6:	d107      	bne.n	2a708 <_start+0x2a0c>
   2a6f8:	e2f0      	b.n	2acdc <_start+0x2fe0>
   2a6fa:	46c0      	nop			@ (mov r8, r8)
   2a6fc:	00001404 	.word	0x00001404
   2a700:	00001090 	.word	0x00001090
   2a704:	000013a8 	.word	0x000013a8
   2a708:	4914      	ldr	r1, [pc, #80]	@ (2a75c <_start+0x2a60>)
   2a70a:	4469      	add	r1, sp
   2a70c:	9b08      	ldr	r3, [sp, #32]
   2a70e:	6ed8      	ldr	r0, [r3, #108]	@ 0x6c
   2a710:	8108      	strh	r0, [r1, #8]
   2a712:	4813      	ldr	r0, [pc, #76]	@ (2a760 <_start+0x2a64>)
   2a714:	4468      	add	r0, sp
   2a716:	78c2      	ldrb	r2, [r0, #3]
   2a718:	4c12      	ldr	r4, [pc, #72]	@ (2a764 <_start+0x2a68>)
   2a71a:	446c      	add	r4, sp
   2a71c:	70a2      	strb	r2, [r4, #2]
   2a71e:	7842      	ldrb	r2, [r0, #1]
   2a720:	7880      	ldrb	r0, [r0, #2]
   2a722:	0200      	lsls	r0, r0, #8
   2a724:	1880      	adds	r0, r0, r2
   2a726:	8020      	strh	r0, [r4, #0]
   2a728:	6e18      	ldr	r0, [r3, #96]	@ 0x60
   2a72a:	70e0      	strb	r0, [r4, #3]
   2a72c:	0e02      	lsrs	r2, r0, #24
   2a72e:	71a2      	strb	r2, [r4, #6]
   2a730:	0c02      	lsrs	r2, r0, #16
   2a732:	7162      	strb	r2, [r4, #5]
   2a734:	0a00      	lsrs	r0, r0, #8
   2a736:	7120      	strb	r0, [r4, #4]
   2a738:	6e58      	ldr	r0, [r3, #100]	@ 0x64
   2a73a:	6e9a      	ldr	r2, [r3, #104]	@ 0x68
   2a73c:	c305      	stmia	r3!, {r0, r2}
   2a73e:	1de0      	adds	r0, r4, #7
   2a740:	220a      	movs	r2, #10
   2a742:	f000 fce3 	bl	2b10c <__aeabi_memcpy>
   2a746:	4d06      	ldr	r5, [pc, #24]	@ (2a760 <_start+0x2a64>)
   2a748:	446d      	add	r5, sp
   2a74a:	4628      	mov	r0, r5
   2a74c:	4621      	mov	r1, r4
   2a74e:	f7fa ff01 	bl	25554 <_ZN20complex_dynamic_type3app17haf3105825f4fef4eE>
   2a752:	7828      	ldrb	r0, [r5, #0]
   2a754:	2801      	cmp	r0, #1
   2a756:	d107      	bne.n	2a768 <_start+0x2a6c>
   2a758:	e2c0      	b.n	2acdc <_start+0x2fe0>
   2a75a:	46c0      	nop			@ (mov r8, r8)
   2a75c:	000013a8 	.word	0x000013a8
   2a760:	00001404 	.word	0x00001404
   2a764:	000010d0 	.word	0x000010d0
   2a768:	4818      	ldr	r0, [pc, #96]	@ (2a7cc <_start+0x2ad0>)
   2a76a:	4468      	add	r0, sp
   2a76c:	78c1      	ldrb	r1, [r0, #3]
   2a76e:	4c18      	ldr	r4, [pc, #96]	@ (2a7d0 <_start+0x2ad4>)
   2a770:	446c      	add	r4, sp
   2a772:	70a1      	strb	r1, [r4, #2]
   2a774:	7841      	ldrb	r1, [r0, #1]
   2a776:	7882      	ldrb	r2, [r0, #2]
   2a778:	0212      	lsls	r2, r2, #8
   2a77a:	1851      	adds	r1, r2, r1
   2a77c:	8021      	strh	r1, [r4, #0]
   2a77e:	3008      	adds	r0, #8
   2a780:	9908      	ldr	r1, [sp, #32]
   2a782:	6e09      	ldr	r1, [r1, #96]	@ 0x60
   2a784:	910a      	str	r1, [sp, #40]	@ 0x28
   2a786:	4b13      	ldr	r3, [pc, #76]	@ (2a7d4 <_start+0x2ad8>)
   2a788:	446b      	add	r3, sp
   2a78a:	930b      	str	r3, [sp, #44]	@ 0x2c
   2a78c:	c864      	ldmia	r0!, {r2, r5, r6}
   2a78e:	c364      	stmia	r3!, {r2, r5, r6}
   2a790:	c866      	ldmia	r0!, {r1, r2, r5, r6}
   2a792:	c366      	stmia	r3!, {r1, r2, r5, r6}
   2a794:	c826      	ldmia	r0!, {r1, r2, r5}
   2a796:	c326      	stmia	r3!, {r1, r2, r5}
   2a798:	c866      	ldmia	r0!, {r1, r2, r5, r6}
   2a79a:	c366      	stmia	r3!, {r1, r2, r5, r6}
   2a79c:	990a      	ldr	r1, [sp, #40]	@ 0x28
   2a79e:	0e08      	lsrs	r0, r1, #24
   2a7a0:	71a0      	strb	r0, [r4, #6]
   2a7a2:	0c08      	lsrs	r0, r1, #16
   2a7a4:	7160      	strb	r0, [r4, #5]
   2a7a6:	0a08      	lsrs	r0, r1, #8
   2a7a8:	7120      	strb	r0, [r4, #4]
   2a7aa:	70e1      	strb	r1, [r4, #3]
   2a7ac:	1de0      	adds	r0, r4, #7
   2a7ae:	2238      	movs	r2, #56	@ 0x38
   2a7b0:	990b      	ldr	r1, [sp, #44]	@ 0x2c
   2a7b2:	f000 fcab 	bl	2b10c <__aeabi_memcpy>
   2a7b6:	4d05      	ldr	r5, [pc, #20]	@ (2a7cc <_start+0x2ad0>)
   2a7b8:	446d      	add	r5, sp
   2a7ba:	4628      	mov	r0, r5
   2a7bc:	4621      	mov	r1, r4
   2a7be:	f7fa fccd 	bl	2515c <_ZN20complex_dynamic_type3app17hababc3a3b6a2ea48E>
   2a7c2:	7828      	ldrb	r0, [r5, #0]
   2a7c4:	2801      	cmp	r0, #1
   2a7c6:	d107      	bne.n	2a7d8 <_start+0x2adc>
   2a7c8:	e288      	b.n	2acdc <_start+0x2fe0>
   2a7ca:	46c0      	nop			@ (mov r8, r8)
   2a7cc:	00001404 	.word	0x00001404
   2a7d0:	000010e4 	.word	0x000010e4
   2a7d4:	000013a8 	.word	0x000013a8
   2a7d8:	4816      	ldr	r0, [pc, #88]	@ (2a834 <_start+0x2b38>)
   2a7da:	4468      	add	r0, sp
   2a7dc:	78c1      	ldrb	r1, [r0, #3]
   2a7de:	4c16      	ldr	r4, [pc, #88]	@ (2a838 <_start+0x2b3c>)
   2a7e0:	446c      	add	r4, sp
   2a7e2:	70a1      	strb	r1, [r4, #2]
   2a7e4:	7841      	ldrb	r1, [r0, #1]
   2a7e6:	7882      	ldrb	r2, [r0, #2]
   2a7e8:	0212      	lsls	r2, r2, #8
   2a7ea:	1851      	adds	r1, r2, r1
   2a7ec:	8021      	strh	r1, [r4, #0]
   2a7ee:	3008      	adds	r0, #8
   2a7f0:	9908      	ldr	r1, [sp, #32]
   2a7f2:	6e09      	ldr	r1, [r1, #96]	@ 0x60
   2a7f4:	4b11      	ldr	r3, [pc, #68]	@ (2a83c <_start+0x2b40>)
   2a7f6:	446b      	add	r3, sp
   2a7f8:	930b      	str	r3, [sp, #44]	@ 0x2c
   2a7fa:	c860      	ldmia	r0!, {r5, r6}
   2a7fc:	c360      	stmia	r3!, {r5, r6}
   2a7fe:	c864      	ldmia	r0!, {r2, r5, r6}
   2a800:	c364      	stmia	r3!, {r2, r5, r6}
   2a802:	7800      	ldrb	r0, [r0, #0]
   2a804:	7018      	strb	r0, [r3, #0]
   2a806:	0e08      	lsrs	r0, r1, #24
   2a808:	71a0      	strb	r0, [r4, #6]
   2a80a:	0c08      	lsrs	r0, r1, #16
   2a80c:	7160      	strb	r0, [r4, #5]
   2a80e:	0a08      	lsrs	r0, r1, #8
   2a810:	7120      	strb	r0, [r4, #4]
   2a812:	70e1      	strb	r1, [r4, #3]
   2a814:	1de0      	adds	r0, r4, #7
   2a816:	2215      	movs	r2, #21
   2a818:	990b      	ldr	r1, [sp, #44]	@ 0x2c
   2a81a:	f000 fc77 	bl	2b10c <__aeabi_memcpy>
   2a81e:	4d05      	ldr	r5, [pc, #20]	@ (2a834 <_start+0x2b38>)
   2a820:	446d      	add	r5, sp
   2a822:	4628      	mov	r0, r5
   2a824:	4621      	mov	r1, r4
   2a826:	f7f8 fb7b 	bl	22f20 <_ZN20complex_dynamic_type3app17h6a136286ea571344E>
   2a82a:	7828      	ldrb	r0, [r5, #0]
   2a82c:	2801      	cmp	r0, #1
   2a82e:	d107      	bne.n	2a840 <_start+0x2b44>
   2a830:	e254      	b.n	2acdc <_start+0x2fe0>
   2a832:	46c0      	nop			@ (mov r8, r8)
   2a834:	00001404 	.word	0x00001404
   2a838:	00001124 	.word	0x00001124
   2a83c:	000013a8 	.word	0x000013a8
   2a840:	4915      	ldr	r1, [pc, #84]	@ (2a898 <_start+0x2b9c>)
   2a842:	4469      	add	r1, sp
   2a844:	78c8      	ldrb	r0, [r1, #3]
   2a846:	4c15      	ldr	r4, [pc, #84]	@ (2a89c <_start+0x2ba0>)
   2a848:	446c      	add	r4, sp
   2a84a:	70a0      	strb	r0, [r4, #2]
   2a84c:	7848      	ldrb	r0, [r1, #1]
   2a84e:	788a      	ldrb	r2, [r1, #2]
   2a850:	0212      	lsls	r2, r2, #8
   2a852:	1810      	adds	r0, r2, r0
   2a854:	8020      	strh	r0, [r4, #0]
   2a856:	9808      	ldr	r0, [sp, #32]
   2a858:	6e05      	ldr	r5, [r0, #96]	@ 0x60
   2a85a:	3108      	adds	r1, #8
   2a85c:	4810      	ldr	r0, [pc, #64]	@ (2a8a0 <_start+0x2ba4>)
   2a85e:	4468      	add	r0, sp
   2a860:	900b      	str	r0, [sp, #44]	@ 0x2c
   2a862:	2656      	movs	r6, #86	@ 0x56
   2a864:	4632      	mov	r2, r6
   2a866:	f000 faf1 	bl	2ae4c <__aeabi_memcpy4>
   2a86a:	0e28      	lsrs	r0, r5, #24
   2a86c:	71a0      	strb	r0, [r4, #6]
   2a86e:	0c28      	lsrs	r0, r5, #16
   2a870:	7160      	strb	r0, [r4, #5]
   2a872:	0a28      	lsrs	r0, r5, #8
   2a874:	7120      	strb	r0, [r4, #4]
   2a876:	70e5      	strb	r5, [r4, #3]
   2a878:	1de0      	adds	r0, r4, #7
   2a87a:	990b      	ldr	r1, [sp, #44]	@ 0x2c
   2a87c:	4632      	mov	r2, r6
   2a87e:	f000 fc45 	bl	2b10c <__aeabi_memcpy>
   2a882:	4d05      	ldr	r5, [pc, #20]	@ (2a898 <_start+0x2b9c>)
   2a884:	446d      	add	r5, sp
   2a886:	4628      	mov	r0, r5
   2a888:	4621      	mov	r1, r4
   2a88a:	f7f6 feb7 	bl	215fc <_ZN20complex_dynamic_type3app17h348e422e82f8314bE>
   2a88e:	7828      	ldrb	r0, [r5, #0]
   2a890:	2801      	cmp	r0, #1
   2a892:	d107      	bne.n	2a8a4 <_start+0x2ba8>
   2a894:	e222      	b.n	2acdc <_start+0x2fe0>
   2a896:	46c0      	nop			@ (mov r8, r8)
   2a898:	00001404 	.word	0x00001404
   2a89c:	00001140 	.word	0x00001140
   2a8a0:	000013a8 	.word	0x000013a8
   2a8a4:	4915      	ldr	r1, [pc, #84]	@ (2a8fc <_start+0x2c00>)
   2a8a6:	4469      	add	r1, sp
   2a8a8:	9b08      	ldr	r3, [sp, #32]
   2a8aa:	6ed8      	ldr	r0, [r3, #108]	@ 0x6c
   2a8ac:	8108      	strh	r0, [r1, #8]
   2a8ae:	4814      	ldr	r0, [pc, #80]	@ (2a900 <_start+0x2c04>)
   2a8b0:	4468      	add	r0, sp
   2a8b2:	78c2      	ldrb	r2, [r0, #3]
   2a8b4:	4c13      	ldr	r4, [pc, #76]	@ (2a904 <_start+0x2c08>)
   2a8b6:	446c      	add	r4, sp
   2a8b8:	70a2      	strb	r2, [r4, #2]
   2a8ba:	7c82      	ldrb	r2, [r0, #18]
   2a8bc:	728a      	strb	r2, [r1, #10]
   2a8be:	7842      	ldrb	r2, [r0, #1]
   2a8c0:	7880      	ldrb	r0, [r0, #2]
   2a8c2:	0200      	lsls	r0, r0, #8
   2a8c4:	1880      	adds	r0, r0, r2
   2a8c6:	8020      	strh	r0, [r4, #0]
   2a8c8:	6e18      	ldr	r0, [r3, #96]	@ 0x60
   2a8ca:	70e0      	strb	r0, [r4, #3]
   2a8cc:	0e02      	lsrs	r2, r0, #24
   2a8ce:	71a2      	strb	r2, [r4, #6]
   2a8d0:	0c02      	lsrs	r2, r0, #16
   2a8d2:	7162      	strb	r2, [r4, #5]
   2a8d4:	0a00      	lsrs	r0, r0, #8
   2a8d6:	7120      	strb	r0, [r4, #4]
   2a8d8:	6e58      	ldr	r0, [r3, #100]	@ 0x64
   2a8da:	6e9a      	ldr	r2, [r3, #104]	@ 0x68
   2a8dc:	c305      	stmia	r3!, {r0, r2}
   2a8de:	1de0      	adds	r0, r4, #7
   2a8e0:	220b      	movs	r2, #11
   2a8e2:	f000 fc13 	bl	2b10c <__aeabi_memcpy>
   2a8e6:	4d06      	ldr	r5, [pc, #24]	@ (2a900 <_start+0x2c04>)
   2a8e8:	446d      	add	r5, sp
   2a8ea:	4628      	mov	r0, r5
   2a8ec:	4621      	mov	r1, r4
   2a8ee:	f7fb ff6d 	bl	267cc <_ZN20complex_dynamic_type3app17hbfa7906871098db3E>
   2a8f2:	7828      	ldrb	r0, [r5, #0]
   2a8f4:	2801      	cmp	r0, #1
   2a8f6:	d107      	bne.n	2a908 <_start+0x2c0c>
   2a8f8:	e1f0      	b.n	2acdc <_start+0x2fe0>
   2a8fa:	46c0      	nop			@ (mov r8, r8)
   2a8fc:	000013a8 	.word	0x000013a8
   2a900:	00001404 	.word	0x00001404
   2a904:	000011a0 	.word	0x000011a0
   2a908:	48f6      	ldr	r0, [pc, #984]	@ (2ace4 <_start+0x2fe8>)
   2a90a:	4468      	add	r0, sp
   2a90c:	78c1      	ldrb	r1, [r0, #3]
   2a90e:	4cf6      	ldr	r4, [pc, #984]	@ (2ace8 <_start+0x2fec>)
   2a910:	446c      	add	r4, sp
   2a912:	70a1      	strb	r1, [r4, #2]
   2a914:	7841      	ldrb	r1, [r0, #1]
   2a916:	7882      	ldrb	r2, [r0, #2]
   2a918:	0212      	lsls	r2, r2, #8
   2a91a:	1851      	adds	r1, r2, r1
   2a91c:	8021      	strh	r1, [r4, #0]
   2a91e:	3008      	adds	r0, #8
   2a920:	9908      	ldr	r1, [sp, #32]
   2a922:	6e09      	ldr	r1, [r1, #96]	@ 0x60
   2a924:	910a      	str	r1, [sp, #40]	@ 0x28
   2a926:	4bf1      	ldr	r3, [pc, #964]	@ (2acec <_start+0x2ff0>)
   2a928:	446b      	add	r3, sp
   2a92a:	930b      	str	r3, [sp, #44]	@ 0x2c
   2a92c:	c864      	ldmia	r0!, {r2, r5, r6}
   2a92e:	c364      	stmia	r3!, {r2, r5, r6}
   2a930:	c866      	ldmia	r0!, {r1, r2, r5, r6}
   2a932:	c366      	stmia	r3!, {r1, r2, r5, r6}
   2a934:	c866      	ldmia	r0!, {r1, r2, r5, r6}
   2a936:	c366      	stmia	r3!, {r1, r2, r5, r6}
   2a938:	c866      	ldmia	r0!, {r1, r2, r5, r6}
   2a93a:	c366      	stmia	r3!, {r1, r2, r5, r6}
   2a93c:	7800      	ldrb	r0, [r0, #0]
   2a93e:	7018      	strb	r0, [r3, #0]
   2a940:	990a      	ldr	r1, [sp, #40]	@ 0x28
   2a942:	0e08      	lsrs	r0, r1, #24
   2a944:	71a0      	strb	r0, [r4, #6]
   2a946:	0c08      	lsrs	r0, r1, #16
   2a948:	7160      	strb	r0, [r4, #5]
   2a94a:	0a08      	lsrs	r0, r1, #8
   2a94c:	7120      	strb	r0, [r4, #4]
   2a94e:	70e1      	strb	r1, [r4, #3]
   2a950:	1de0      	adds	r0, r4, #7
   2a952:	223d      	movs	r2, #61	@ 0x3d
   2a954:	990b      	ldr	r1, [sp, #44]	@ 0x2c
   2a956:	f000 fbd9 	bl	2b10c <__aeabi_memcpy>
   2a95a:	4de2      	ldr	r5, [pc, #904]	@ (2ace4 <_start+0x2fe8>)
   2a95c:	446d      	add	r5, sp
   2a95e:	4628      	mov	r0, r5
   2a960:	4621      	mov	r1, r4
   2a962:	f7f8 fc2d 	bl	231c0 <_ZN20complex_dynamic_type3app17h6e6774c4ad6e5314E>
   2a966:	7828      	ldrb	r0, [r5, #0]
   2a968:	2801      	cmp	r0, #1
   2a96a:	d100      	bne.n	2a96e <_start+0x2c72>
   2a96c:	e1b6      	b.n	2acdc <_start+0x2fe0>
   2a96e:	48fa      	ldr	r0, [pc, #1000]	@ (2ad58 <_start+0x305c>)
   2a970:	4468      	add	r0, sp
   2a972:	78c1      	ldrb	r1, [r0, #3]
   2a974:	4cfa      	ldr	r4, [pc, #1000]	@ (2ad60 <_start+0x3064>)
   2a976:	446c      	add	r4, sp
   2a978:	70a1      	strb	r1, [r4, #2]
   2a97a:	7841      	ldrb	r1, [r0, #1]
   2a97c:	7882      	ldrb	r2, [r0, #2]
   2a97e:	0212      	lsls	r2, r2, #8
   2a980:	1851      	adds	r1, r2, r1
   2a982:	8021      	strh	r1, [r4, #0]
   2a984:	3008      	adds	r0, #8
   2a986:	9908      	ldr	r1, [sp, #32]
   2a988:	6e09      	ldr	r1, [r1, #96]	@ 0x60
   2a98a:	910a      	str	r1, [sp, #40]	@ 0x28
   2a98c:	4bf3      	ldr	r3, [pc, #972]	@ (2ad5c <_start+0x3060>)
   2a98e:	446b      	add	r3, sp
   2a990:	930b      	str	r3, [sp, #44]	@ 0x2c
   2a992:	c864      	ldmia	r0!, {r2, r5, r6}
   2a994:	c364      	stmia	r3!, {r2, r5, r6}
   2a996:	c866      	ldmia	r0!, {r1, r2, r5, r6}
   2a998:	c366      	stmia	r3!, {r1, r2, r5, r6}
   2a99a:	990a      	ldr	r1, [sp, #40]	@ 0x28
   2a99c:	0e08      	lsrs	r0, r1, #24
   2a99e:	71a0      	strb	r0, [r4, #6]
   2a9a0:	0c08      	lsrs	r0, r1, #16
   2a9a2:	7160      	strb	r0, [r4, #5]
   2a9a4:	0a08      	lsrs	r0, r1, #8
   2a9a6:	7120      	strb	r0, [r4, #4]
   2a9a8:	70e1      	strb	r1, [r4, #3]
   2a9aa:	1de0      	adds	r0, r4, #7
   2a9ac:	221c      	movs	r2, #28
   2a9ae:	990b      	ldr	r1, [sp, #44]	@ 0x2c
   2a9b0:	f000 fbac 	bl	2b10c <__aeabi_memcpy>
   2a9b4:	4de8      	ldr	r5, [pc, #928]	@ (2ad58 <_start+0x305c>)
   2a9b6:	446d      	add	r5, sp
   2a9b8:	4628      	mov	r0, r5
   2a9ba:	4621      	mov	r1, r4
   2a9bc:	f7fa f9d6 	bl	24d6c <_ZN20complex_dynamic_type3app17ha4caea24361f4b4cE>
   2a9c0:	7828      	ldrb	r0, [r5, #0]
   2a9c2:	2801      	cmp	r0, #1
   2a9c4:	d100      	bne.n	2a9c8 <_start+0x2ccc>
   2a9c6:	e189      	b.n	2acdc <_start+0x2fe0>
   2a9c8:	48e3      	ldr	r0, [pc, #908]	@ (2ad58 <_start+0x305c>)
   2a9ca:	4468      	add	r0, sp
   2a9cc:	78c1      	ldrb	r1, [r0, #3]
   2a9ce:	4ce5      	ldr	r4, [pc, #916]	@ (2ad64 <_start+0x3068>)
   2a9d0:	446c      	add	r4, sp
   2a9d2:	70a1      	strb	r1, [r4, #2]
   2a9d4:	7841      	ldrb	r1, [r0, #1]
   2a9d6:	7882      	ldrb	r2, [r0, #2]
   2a9d8:	0212      	lsls	r2, r2, #8
   2a9da:	1851      	adds	r1, r2, r1
   2a9dc:	8021      	strh	r1, [r4, #0]
   2a9de:	3008      	adds	r0, #8
   2a9e0:	9908      	ldr	r1, [sp, #32]
   2a9e2:	6e09      	ldr	r1, [r1, #96]	@ 0x60
   2a9e4:	910a      	str	r1, [sp, #40]	@ 0x28
   2a9e6:	4bdd      	ldr	r3, [pc, #884]	@ (2ad5c <_start+0x3060>)
   2a9e8:	446b      	add	r3, sp
   2a9ea:	930b      	str	r3, [sp, #44]	@ 0x2c
   2a9ec:	c864      	ldmia	r0!, {r2, r5, r6}
   2a9ee:	c364      	stmia	r3!, {r2, r5, r6}
   2a9f0:	c866      	ldmia	r0!, {r1, r2, r5, r6}
   2a9f2:	c366      	stmia	r3!, {r1, r2, r5, r6}
   2a9f4:	7800      	ldrb	r0, [r0, #0]
   2a9f6:	7018      	strb	r0, [r3, #0]
   2a9f8:	990a      	ldr	r1, [sp, #40]	@ 0x28
   2a9fa:	0e08      	lsrs	r0, r1, #24
   2a9fc:	71a0      	strb	r0, [r4, #6]
   2a9fe:	0c08      	lsrs	r0, r1, #16
   2aa00:	7160      	strb	r0, [r4, #5]
   2aa02:	0a08      	lsrs	r0, r1, #8
   2aa04:	7120      	strb	r0, [r4, #4]
   2aa06:	70e1      	strb	r1, [r4, #3]
   2aa08:	1de0      	adds	r0, r4, #7
   2aa0a:	221d      	movs	r2, #29
   2aa0c:	990b      	ldr	r1, [sp, #44]	@ 0x2c
   2aa0e:	f000 fb7d 	bl	2b10c <__aeabi_memcpy>
   2aa12:	4dd1      	ldr	r5, [pc, #836]	@ (2ad58 <_start+0x305c>)
   2aa14:	446d      	add	r5, sp
   2aa16:	4628      	mov	r0, r5
   2aa18:	4621      	mov	r1, r4
   2aa1a:	f7fa f859 	bl	24ad0 <_ZN20complex_dynamic_type3app17ha0db79972d79b01fE>
   2aa1e:	7828      	ldrb	r0, [r5, #0]
   2aa20:	2801      	cmp	r0, #1
   2aa22:	d100      	bne.n	2aa26 <_start+0x2d2a>
   2aa24:	e15a      	b.n	2acdc <_start+0x2fe0>
   2aa26:	48cc      	ldr	r0, [pc, #816]	@ (2ad58 <_start+0x305c>)
   2aa28:	4468      	add	r0, sp
   2aa2a:	78c1      	ldrb	r1, [r0, #3]
   2aa2c:	4cce      	ldr	r4, [pc, #824]	@ (2ad68 <_start+0x306c>)
   2aa2e:	446c      	add	r4, sp
   2aa30:	70a1      	strb	r1, [r4, #2]
   2aa32:	7841      	ldrb	r1, [r0, #1]
   2aa34:	7882      	ldrb	r2, [r0, #2]
   2aa36:	0212      	lsls	r2, r2, #8
   2aa38:	1851      	adds	r1, r2, r1
   2aa3a:	8021      	strh	r1, [r4, #0]
   2aa3c:	3008      	adds	r0, #8
   2aa3e:	9908      	ldr	r1, [sp, #32]
   2aa40:	6e09      	ldr	r1, [r1, #96]	@ 0x60
   2aa42:	910a      	str	r1, [sp, #40]	@ 0x28
   2aa44:	4bc5      	ldr	r3, [pc, #788]	@ (2ad5c <_start+0x3060>)
   2aa46:	446b      	add	r3, sp
   2aa48:	930b      	str	r3, [sp, #44]	@ 0x2c
   2aa4a:	c864      	ldmia	r0!, {r2, r5, r6}
   2aa4c:	c364      	stmia	r3!, {r2, r5, r6}
   2aa4e:	c864      	ldmia	r0!, {r2, r5, r6}
   2aa50:	c364      	stmia	r3!, {r2, r5, r6}
   2aa52:	c866      	ldmia	r0!, {r1, r2, r5, r6}
   2aa54:	c366      	stmia	r3!, {r1, r2, r5, r6}
   2aa56:	990a      	ldr	r1, [sp, #40]	@ 0x28
   2aa58:	0e08      	lsrs	r0, r1, #24
   2aa5a:	71a0      	strb	r0, [r4, #6]
   2aa5c:	0c08      	lsrs	r0, r1, #16
   2aa5e:	7160      	strb	r0, [r4, #5]
   2aa60:	0a08      	lsrs	r0, r1, #8
   2aa62:	7120      	strb	r0, [r4, #4]
   2aa64:	70e1      	strb	r1, [r4, #3]
   2aa66:	1de0      	adds	r0, r4, #7
   2aa68:	2228      	movs	r2, #40	@ 0x28
   2aa6a:	990b      	ldr	r1, [sp, #44]	@ 0x2c
   2aa6c:	f000 fb4e 	bl	2b10c <__aeabi_memcpy>
   2aa70:	4db9      	ldr	r5, [pc, #740]	@ (2ad58 <_start+0x305c>)
   2aa72:	446d      	add	r5, sp
   2aa74:	4628      	mov	r0, r5
   2aa76:	4621      	mov	r1, r4
   2aa78:	f7f8 fe44 	bl	23704 <_ZN20complex_dynamic_type3app17h7881493ea8f10d18E>
   2aa7c:	7828      	ldrb	r0, [r5, #0]
   2aa7e:	2801      	cmp	r0, #1
   2aa80:	d100      	bne.n	2aa84 <_start+0x2d88>
   2aa82:	e12b      	b.n	2acdc <_start+0x2fe0>
   2aa84:	49b4      	ldr	r1, [pc, #720]	@ (2ad58 <_start+0x305c>)
   2aa86:	4469      	add	r1, sp
   2aa88:	78c8      	ldrb	r0, [r1, #3]
   2aa8a:	4cb8      	ldr	r4, [pc, #736]	@ (2ad6c <_start+0x3070>)
   2aa8c:	446c      	add	r4, sp
   2aa8e:	70a0      	strb	r0, [r4, #2]
   2aa90:	7848      	ldrb	r0, [r1, #1]
   2aa92:	788a      	ldrb	r2, [r1, #2]
   2aa94:	0212      	lsls	r2, r2, #8
   2aa96:	1810      	adds	r0, r2, r0
   2aa98:	8020      	strh	r0, [r4, #0]
   2aa9a:	9808      	ldr	r0, [sp, #32]
   2aa9c:	6e05      	ldr	r5, [r0, #96]	@ 0x60
   2aa9e:	3108      	adds	r1, #8
   2aaa0:	48ae      	ldr	r0, [pc, #696]	@ (2ad5c <_start+0x3060>)
   2aaa2:	4468      	add	r0, sp
   2aaa4:	900b      	str	r0, [sp, #44]	@ 0x2c
   2aaa6:	2657      	movs	r6, #87	@ 0x57
   2aaa8:	4632      	mov	r2, r6
   2aaaa:	f000 f9cf 	bl	2ae4c <__aeabi_memcpy4>
   2aaae:	0e28      	lsrs	r0, r5, #24
   2aab0:	71a0      	strb	r0, [r4, #6]
   2aab2:	0c28      	lsrs	r0, r5, #16
   2aab4:	7160      	strb	r0, [r4, #5]
   2aab6:	0a28      	lsrs	r0, r5, #8
   2aab8:	7120      	strb	r0, [r4, #4]
   2aaba:	70e5      	strb	r5, [r4, #3]
   2aabc:	1de0      	adds	r0, r4, #7
   2aabe:	990b      	ldr	r1, [sp, #44]	@ 0x2c
   2aac0:	4632      	mov	r2, r6
   2aac2:	f000 fb23 	bl	2b10c <__aeabi_memcpy>
   2aac6:	4da4      	ldr	r5, [pc, #656]	@ (2ad58 <_start+0x305c>)
   2aac8:	446d      	add	r5, sp
   2aaca:	4628      	mov	r0, r5
   2aacc:	4621      	mov	r1, r4
   2aace:	f7f7 fc31 	bl	22334 <_ZN20complex_dynamic_type3app17h5761aeda522a743fE>
   2aad2:	7828      	ldrb	r0, [r5, #0]
   2aad4:	2801      	cmp	r0, #1
   2aad6:	d100      	bne.n	2aada <_start+0x2dde>
   2aad8:	e100      	b.n	2acdc <_start+0x2fe0>
   2aada:	499f      	ldr	r1, [pc, #636]	@ (2ad58 <_start+0x305c>)
   2aadc:	4469      	add	r1, sp
   2aade:	78c8      	ldrb	r0, [r1, #3]
   2aae0:	4ca3      	ldr	r4, [pc, #652]	@ (2ad70 <_start+0x3074>)
   2aae2:	446c      	add	r4, sp
   2aae4:	70a0      	strb	r0, [r4, #2]
   2aae6:	7848      	ldrb	r0, [r1, #1]
   2aae8:	788a      	ldrb	r2, [r1, #2]
   2aaea:	0212      	lsls	r2, r2, #8
   2aaec:	1810      	adds	r0, r2, r0
   2aaee:	8020      	strh	r0, [r4, #0]
   2aaf0:	9808      	ldr	r0, [sp, #32]
   2aaf2:	6e05      	ldr	r5, [r0, #96]	@ 0x60
   2aaf4:	3108      	adds	r1, #8
   2aaf6:	4899      	ldr	r0, [pc, #612]	@ (2ad5c <_start+0x3060>)
   2aaf8:	4468      	add	r0, sp
   2aafa:	900b      	str	r0, [sp, #44]	@ 0x2c
   2aafc:	264e      	movs	r6, #78	@ 0x4e
   2aafe:	4632      	mov	r2, r6
   2ab00:	f000 f9a4 	bl	2ae4c <__aeabi_memcpy4>
   2ab04:	0e28      	lsrs	r0, r5, #24
   2ab06:	71a0      	strb	r0, [r4, #6]
   2ab08:	0c28      	lsrs	r0, r5, #16
   2ab0a:	7160      	strb	r0, [r4, #5]
   2ab0c:	0a28      	lsrs	r0, r5, #8
   2ab0e:	7120      	strb	r0, [r4, #4]
   2ab10:	70e5      	strb	r5, [r4, #3]
   2ab12:	1de0      	adds	r0, r4, #7
   2ab14:	990b      	ldr	r1, [sp, #44]	@ 0x2c
   2ab16:	4632      	mov	r2, r6
   2ab18:	f000 faf8 	bl	2b10c <__aeabi_memcpy>
   2ab1c:	4d8e      	ldr	r5, [pc, #568]	@ (2ad58 <_start+0x305c>)
   2ab1e:	446d      	add	r5, sp
   2ab20:	4628      	mov	r0, r5
   2ab22:	4621      	mov	r1, r4
   2ab24:	f7f7 fd5a 	bl	225dc <_ZN20complex_dynamic_type3app17h5fe3afa169c11195E>
   2ab28:	7828      	ldrb	r0, [r5, #0]
   2ab2a:	2801      	cmp	r0, #1
   2ab2c:	d100      	bne.n	2ab30 <_start+0x2e34>
   2ab2e:	e0d5      	b.n	2acdc <_start+0x2fe0>
   2ab30:	498a      	ldr	r1, [pc, #552]	@ (2ad5c <_start+0x3060>)
   2ab32:	4469      	add	r1, sp
   2ab34:	9b08      	ldr	r3, [sp, #32]
   2ab36:	6ed8      	ldr	r0, [r3, #108]	@ 0x6c
   2ab38:	8108      	strh	r0, [r1, #8]
   2ab3a:	4887      	ldr	r0, [pc, #540]	@ (2ad58 <_start+0x305c>)
   2ab3c:	4468      	add	r0, sp
   2ab3e:	78c2      	ldrb	r2, [r0, #3]
   2ab40:	4c8c      	ldr	r4, [pc, #560]	@ (2ad74 <_start+0x3078>)
   2ab42:	446c      	add	r4, sp
   2ab44:	70a2      	strb	r2, [r4, #2]
   2ab46:	7842      	ldrb	r2, [r0, #1]
   2ab48:	7880      	ldrb	r0, [r0, #2]
   2ab4a:	0200      	lsls	r0, r0, #8
   2ab4c:	1880      	adds	r0, r0, r2
   2ab4e:	8020      	strh	r0, [r4, #0]
   2ab50:	6e18      	ldr	r0, [r3, #96]	@ 0x60
   2ab52:	70e0      	strb	r0, [r4, #3]
   2ab54:	0e02      	lsrs	r2, r0, #24
   2ab56:	71a2      	strb	r2, [r4, #6]
   2ab58:	0c02      	lsrs	r2, r0, #16
   2ab5a:	7162      	strb	r2, [r4, #5]
   2ab5c:	0a00      	lsrs	r0, r0, #8
   2ab5e:	7120      	strb	r0, [r4, #4]
   2ab60:	6e58      	ldr	r0, [r3, #100]	@ 0x64
   2ab62:	6e9a      	ldr	r2, [r3, #104]	@ 0x68
   2ab64:	c305      	stmia	r3!, {r0, r2}
   2ab66:	1de0      	adds	r0, r4, #7
   2ab68:	220a      	movs	r2, #10
   2ab6a:	f000 facf 	bl	2b10c <__aeabi_memcpy>
   2ab6e:	4d7a      	ldr	r5, [pc, #488]	@ (2ad58 <_start+0x305c>)
   2ab70:	446d      	add	r5, sp
   2ab72:	4628      	mov	r0, r5
   2ab74:	4621      	mov	r1, r4
   2ab76:	f7f9 f9b9 	bl	23eec <_ZN20complex_dynamic_type3app17h8da156112548887dE>
   2ab7a:	7828      	ldrb	r0, [r5, #0]
   2ab7c:	2801      	cmp	r0, #1
   2ab7e:	d100      	bne.n	2ab82 <_start+0x2e86>
   2ab80:	e0ac      	b.n	2acdc <_start+0x2fe0>
   2ab82:	4975      	ldr	r1, [pc, #468]	@ (2ad58 <_start+0x305c>)
   2ab84:	4469      	add	r1, sp
   2ab86:	78c8      	ldrb	r0, [r1, #3]
   2ab88:	4c7b      	ldr	r4, [pc, #492]	@ (2ad78 <_start+0x307c>)
   2ab8a:	446c      	add	r4, sp
   2ab8c:	70a0      	strb	r0, [r4, #2]
   2ab8e:	7848      	ldrb	r0, [r1, #1]
   2ab90:	788a      	ldrb	r2, [r1, #2]
   2ab92:	0212      	lsls	r2, r2, #8
   2ab94:	1810      	adds	r0, r2, r0
   2ab96:	8020      	strh	r0, [r4, #0]
   2ab98:	9808      	ldr	r0, [sp, #32]
   2ab9a:	6e05      	ldr	r5, [r0, #96]	@ 0x60
   2ab9c:	3108      	adds	r1, #8
   2ab9e:	486f      	ldr	r0, [pc, #444]	@ (2ad5c <_start+0x3060>)
   2aba0:	4468      	add	r0, sp
   2aba2:	900b      	str	r0, [sp, #44]	@ 0x2c
   2aba4:	2649      	movs	r6, #73	@ 0x49
   2aba6:	4632      	mov	r2, r6
   2aba8:	f000 f950 	bl	2ae4c <__aeabi_memcpy4>
   2abac:	0e28      	lsrs	r0, r5, #24
   2abae:	71a0      	strb	r0, [r4, #6]
   2abb0:	0c28      	lsrs	r0, r5, #16
   2abb2:	7160      	strb	r0, [r4, #5]
   2abb4:	0a28      	lsrs	r0, r5, #8
   2abb6:	7120      	strb	r0, [r4, #4]
   2abb8:	70e5      	strb	r5, [r4, #3]
   2abba:	1de0      	adds	r0, r4, #7
   2abbc:	990b      	ldr	r1, [sp, #44]	@ 0x2c
   2abbe:	4632      	mov	r2, r6
   2abc0:	f000 faa4 	bl	2b10c <__aeabi_memcpy>
   2abc4:	4d64      	ldr	r5, [pc, #400]	@ (2ad58 <_start+0x305c>)
   2abc6:	446d      	add	r5, sp
   2abc8:	4628      	mov	r0, r5
   2abca:	4621      	mov	r1, r4
   2abcc:	f7fb f960 	bl	25e90 <_ZN20complex_dynamic_type3app17hb96f3150196a7104E>
   2abd0:	7828      	ldrb	r0, [r5, #0]
   2abd2:	2801      	cmp	r0, #1
   2abd4:	d100      	bne.n	2abd8 <_start+0x2edc>
   2abd6:	e081      	b.n	2acdc <_start+0x2fe0>
   2abd8:	485f      	ldr	r0, [pc, #380]	@ (2ad58 <_start+0x305c>)
   2abda:	4468      	add	r0, sp
   2abdc:	78c1      	ldrb	r1, [r0, #3]
   2abde:	4c67      	ldr	r4, [pc, #412]	@ (2ad7c <_start+0x3080>)
   2abe0:	446c      	add	r4, sp
   2abe2:	70a1      	strb	r1, [r4, #2]
   2abe4:	7841      	ldrb	r1, [r0, #1]
   2abe6:	7882      	ldrb	r2, [r0, #2]
   2abe8:	0212      	lsls	r2, r2, #8
   2abea:	1851      	adds	r1, r2, r1
   2abec:	8021      	strh	r1, [r4, #0]
   2abee:	3008      	adds	r0, #8
   2abf0:	9908      	ldr	r1, [sp, #32]
   2abf2:	6e09      	ldr	r1, [r1, #96]	@ 0x60
   2abf4:	4b59      	ldr	r3, [pc, #356]	@ (2ad5c <_start+0x3060>)
   2abf6:	446b      	add	r3, sp
   2abf8:	930b      	str	r3, [sp, #44]	@ 0x2c
   2abfa:	c860      	ldmia	r0!, {r5, r6}
   2abfc:	c360      	stmia	r3!, {r5, r6}
   2abfe:	c864      	ldmia	r0!, {r2, r5, r6}
   2ac00:	c364      	stmia	r3!, {r2, r5, r6}
   2ac02:	0e08      	lsrs	r0, r1, #24
   2ac04:	71a0      	strb	r0, [r4, #6]
   2ac06:	0c08      	lsrs	r0, r1, #16
   2ac08:	7160      	strb	r0, [r4, #5]
   2ac0a:	0a08      	lsrs	r0, r1, #8
   2ac0c:	7120      	strb	r0, [r4, #4]
   2ac0e:	70e1      	strb	r1, [r4, #3]
   2ac10:	1de0      	adds	r0, r4, #7
   2ac12:	2214      	movs	r2, #20
   2ac14:	990b      	ldr	r1, [sp, #44]	@ 0x2c
   2ac16:	f000 fa79 	bl	2b10c <__aeabi_memcpy>
   2ac1a:	4d4f      	ldr	r5, [pc, #316]	@ (2ad58 <_start+0x305c>)
   2ac1c:	446d      	add	r5, sp
   2ac1e:	4628      	mov	r0, r5
   2ac20:	4621      	mov	r1, r4
   2ac22:	f7f5 fb07 	bl	20234 <_ZN20complex_dynamic_type3app17h060e83eb53d0360dE>
   2ac26:	7828      	ldrb	r0, [r5, #0]
   2ac28:	2801      	cmp	r0, #1
   2ac2a:	d057      	beq.n	2acdc <_start+0x2fe0>
   2ac2c:	494a      	ldr	r1, [pc, #296]	@ (2ad58 <_start+0x305c>)
   2ac2e:	4469      	add	r1, sp
   2ac30:	78c8      	ldrb	r0, [r1, #3]
   2ac32:	4c53      	ldr	r4, [pc, #332]	@ (2ad80 <_start+0x3084>)
   2ac34:	446c      	add	r4, sp
   2ac36:	70a0      	strb	r0, [r4, #2]
   2ac38:	7848      	ldrb	r0, [r1, #1]
   2ac3a:	788a      	ldrb	r2, [r1, #2]
   2ac3c:	0212      	lsls	r2, r2, #8
   2ac3e:	1810      	adds	r0, r2, r0
   2ac40:	8020      	strh	r0, [r4, #0]
   2ac42:	9808      	ldr	r0, [sp, #32]
   2ac44:	6e05      	ldr	r5, [r0, #96]	@ 0x60
   2ac46:	3108      	adds	r1, #8
   2ac48:	4844      	ldr	r0, [pc, #272]	@ (2ad5c <_start+0x3060>)
   2ac4a:	4468      	add	r0, sp
   2ac4c:	900b      	str	r0, [sp, #44]	@ 0x2c
   2ac4e:	265c      	movs	r6, #92	@ 0x5c
   2ac50:	4632      	mov	r2, r6
   2ac52:	f000 f8fb 	bl	2ae4c <__aeabi_memcpy4>
   2ac56:	0e28      	lsrs	r0, r5, #24
   2ac58:	71a0      	strb	r0, [r4, #6]
   2ac5a:	0c28      	lsrs	r0, r5, #16
   2ac5c:	7160      	strb	r0, [r4, #5]
   2ac5e:	0a28      	lsrs	r0, r5, #8
   2ac60:	7120      	strb	r0, [r4, #4]
   2ac62:	70e5      	strb	r5, [r4, #3]
   2ac64:	1de0      	adds	r0, r4, #7
   2ac66:	990b      	ldr	r1, [sp, #44]	@ 0x2c
   2ac68:	4632      	mov	r2, r6
   2ac6a:	f000 fa4f 	bl	2b10c <__aeabi_memcpy>
   2ac6e:	4d3a      	ldr	r5, [pc, #232]	@ (2ad58 <_start+0x305c>)
   2ac70:	446d      	add	r5, sp
   2ac72:	4628      	mov	r0, r5
   2ac74:	4621      	mov	r1, r4
   2ac76:	f7f8 f801 	bl	22c7c <_ZN20complex_dynamic_type3app17h696b71b4b226ffe6E>
   2ac7a:	7828      	ldrb	r0, [r5, #0]
   2ac7c:	2801      	cmp	r0, #1
   2ac7e:	d02d      	beq.n	2acdc <_start+0x2fe0>
   2ac80:	4835      	ldr	r0, [pc, #212]	@ (2ad58 <_start+0x305c>)
   2ac82:	4468      	add	r0, sp
   2ac84:	78c1      	ldrb	r1, [r0, #3]
   2ac86:	4c3f      	ldr	r4, [pc, #252]	@ (2ad84 <_start+0x3088>)
   2ac88:	446c      	add	r4, sp
   2ac8a:	70a1      	strb	r1, [r4, #2]
   2ac8c:	7841      	ldrb	r1, [r0, #1]
   2ac8e:	7882      	ldrb	r2, [r0, #2]
   2ac90:	0212      	lsls	r2, r2, #8
   2ac92:	1851      	adds	r1, r2, r1
   2ac94:	8021      	strh	r1, [r4, #0]
   2ac96:	3008      	adds	r0, #8
   2ac98:	9908      	ldr	r1, [sp, #32]
   2ac9a:	6e09      	ldr	r1, [r1, #96]	@ 0x60
   2ac9c:	4b2f      	ldr	r3, [pc, #188]	@ (2ad5c <_start+0x3060>)
   2ac9e:	446b      	add	r3, sp
   2aca0:	930b      	str	r3, [sp, #44]	@ 0x2c
   2aca2:	c864      	ldmia	r0!, {r2, r5, r6}
   2aca4:	c364      	stmia	r3!, {r2, r5, r6}
   2aca6:	c864      	ldmia	r0!, {r2, r5, r6}
   2aca8:	c364      	stmia	r3!, {r2, r5, r6}
   2acaa:	c864      	ldmia	r0!, {r2, r5, r6}
   2acac:	c364      	stmia	r3!, {r2, r5, r6}
   2acae:	7800      	ldrb	r0, [r0, #0]
   2acb0:	7018      	strb	r0, [r3, #0]
   2acb2:	0e08      	lsrs	r0, r1, #24
   2acb4:	71a0      	strb	r0, [r4, #6]
   2acb6:	0c08      	lsrs	r0, r1, #16
   2acb8:	7160      	strb	r0, [r4, #5]
   2acba:	0a08      	lsrs	r0, r1, #8
   2acbc:	7120      	strb	r0, [r4, #4]
   2acbe:	70e1      	strb	r1, [r4, #3]
   2acc0:	1de0      	adds	r0, r4, #7
   2acc2:	2225      	movs	r2, #37	@ 0x25
   2acc4:	990b      	ldr	r1, [sp, #44]	@ 0x2c
   2acc6:	f000 fa21 	bl	2b10c <__aeabi_memcpy>
   2acca:	4d23      	ldr	r5, [pc, #140]	@ (2ad58 <_start+0x305c>)
   2accc:	446d      	add	r5, sp
   2acce:	4628      	mov	r0, r5
   2acd0:	4621      	mov	r1, r4
   2acd2:	f7fc f8cf 	bl	26e74 <_ZN20complex_dynamic_type3app17hcd8b9a12121a6c65E>
   2acd6:	7828      	ldrb	r0, [r5, #0]
   2acd8:	2801      	cmp	r0, #1
   2acda:	d109      	bne.n	2acf0 <_start+0x2ff4>
   2acdc:	9808      	ldr	r0, [sp, #32]
   2acde:	6e01      	ldr	r1, [r0, #96]	@ 0x60
   2ace0:	f7fd f875 	bl	27dce <_start+0xd2>
   2ace4:	00001404 	.word	0x00001404
   2ace8:	000011b4 	.word	0x000011b4
   2acec:	000013a8 	.word	0x000013a8
   2acf0:	4819      	ldr	r0, [pc, #100]	@ (2ad58 <_start+0x305c>)
   2acf2:	4468      	add	r0, sp
   2acf4:	78c1      	ldrb	r1, [r0, #3]
   2acf6:	4c24      	ldr	r4, [pc, #144]	@ (2ad88 <_start+0x308c>)
   2acf8:	446c      	add	r4, sp
   2acfa:	70a1      	strb	r1, [r4, #2]
   2acfc:	7841      	ldrb	r1, [r0, #1]
   2acfe:	7882      	ldrb	r2, [r0, #2]
   2ad00:	0212      	lsls	r2, r2, #8
   2ad02:	1851      	adds	r1, r2, r1
   2ad04:	8021      	strh	r1, [r4, #0]
   2ad06:	3008      	adds	r0, #8
   2ad08:	9908      	ldr	r1, [sp, #32]
   2ad0a:	6e09      	ldr	r1, [r1, #96]	@ 0x60
   2ad0c:	910a      	str	r1, [sp, #40]	@ 0x28
   2ad0e:	4b13      	ldr	r3, [pc, #76]	@ (2ad5c <_start+0x3060>)
   2ad10:	446b      	add	r3, sp
   2ad12:	930b      	str	r3, [sp, #44]	@ 0x2c
   2ad14:	c866      	ldmia	r0!, {r1, r2, r5, r6}
   2ad16:	c366      	stmia	r3!, {r1, r2, r5, r6}
   2ad18:	c866      	ldmia	r0!, {r1, r2, r5, r6}
   2ad1a:	c366      	stmia	r3!, {r1, r2, r5, r6}
   2ad1c:	8801      	ldrh	r1, [r0, #0]
   2ad1e:	8019      	strh	r1, [r3, #0]
   2ad20:	7880      	ldrb	r0, [r0, #2]
   2ad22:	7098      	strb	r0, [r3, #2]
   2ad24:	990a      	ldr	r1, [sp, #40]	@ 0x28
   2ad26:	0e08      	lsrs	r0, r1, #24
   2ad28:	71a0      	strb	r0, [r4, #6]
   2ad2a:	0c08      	lsrs	r0, r1, #16
   2ad2c:	7160      	strb	r0, [r4, #5]
   2ad2e:	0a08      	lsrs	r0, r1, #8
   2ad30:	7120      	strb	r0, [r4, #4]
   2ad32:	70e1      	strb	r1, [r4, #3]
   2ad34:	1de0      	adds	r0, r4, #7
   2ad36:	2223      	movs	r2, #35	@ 0x23
   2ad38:	990b      	ldr	r1, [sp, #44]	@ 0x2c
   2ad3a:	f000 f9e7 	bl	2b10c <__aeabi_memcpy>
   2ad3e:	4d06      	ldr	r5, [pc, #24]	@ (2ad58 <_start+0x305c>)
   2ad40:	446d      	add	r5, sp
   2ad42:	4628      	mov	r0, r5
   2ad44:	4621      	mov	r1, r4
   2ad46:	f7f8 fb8b 	bl	23460 <_ZN20complex_dynamic_type3app17h730d6009fd580f1dE>
   2ad4a:	7828      	ldrb	r0, [r5, #0]
   2ad4c:	9908      	ldr	r1, [sp, #32]
   2ad4e:	6e09      	ldr	r1, [r1, #96]	@ 0x60
   2ad50:	1ffe      	subs	r6, r7, #7
   2ad52:	3e05      	subs	r6, #5
   2ad54:	46b5      	mov	sp, r6
   2ad56:	bdf0      	pop	{r4, r5, r6, r7, pc}
   2ad58:	00001404 	.word	0x00001404
   2ad5c:	000013a8 	.word	0x000013a8
   2ad60:	000011f8 	.word	0x000011f8
   2ad64:	0000121c 	.word	0x0000121c
   2ad68:	00001240 	.word	0x00001240
   2ad6c:	00001270 	.word	0x00001270
   2ad70:	000012d0 	.word	0x000012d0
   2ad74:	00001328 	.word	0x00001328
   2ad78:	0000133c 	.word	0x0000133c
   2ad7c:	0000138c 	.word	0x0000138c
   2ad80:	00001468 	.word	0x00001468
   2ad84:	000014cc 	.word	0x000014cc
   2ad88:	000014f8 	.word	0x000014f8

0002ad8c <__aeabi_memclr>:
   2ad8c:	b5f0      	push	{r4, r5, r6, r7, lr}
   2ad8e:	af03      	add	r7, sp, #12
   2ad90:	2910      	cmp	r1, #16
   2ad92:	d332      	bcc.n	2adfa <__aeabi_memclr+0x6e>
   2ad94:	4244      	negs	r4, r0
   2ad96:	2203      	movs	r2, #3
   2ad98:	4014      	ands	r4, r2
   2ad9a:	1903      	adds	r3, r0, r4
   2ad9c:	4298      	cmp	r0, r3
   2ad9e:	d218      	bcs.n	2add2 <__aeabi_memclr+0x46>
   2ada0:	1e65      	subs	r5, r4, #1
   2ada2:	2c00      	cmp	r4, #0
   2ada4:	d00b      	beq.n	2adbe <__aeabi_memclr+0x32>
   2ada6:	2600      	movs	r6, #0
   2ada8:	7006      	strb	r6, [r0, #0]
   2adaa:	2c01      	cmp	r4, #1
   2adac:	d103      	bne.n	2adb6 <__aeabi_memclr+0x2a>
   2adae:	1c40      	adds	r0, r0, #1
   2adb0:	2d03      	cmp	r5, #3
   2adb2:	d206      	bcs.n	2adc2 <__aeabi_memclr+0x36>
   2adb4:	e00d      	b.n	2add2 <__aeabi_memclr+0x46>
   2adb6:	7046      	strb	r6, [r0, #1]
   2adb8:	2c02      	cmp	r4, #2
   2adba:	d142      	bne.n	2ae42 <__aeabi_memclr+0xb6>
   2adbc:	1c80      	adds	r0, r0, #2
   2adbe:	2d03      	cmp	r5, #3
   2adc0:	d307      	bcc.n	2add2 <__aeabi_memclr+0x46>
   2adc2:	2500      	movs	r5, #0
   2adc4:	70c5      	strb	r5, [r0, #3]
   2adc6:	7085      	strb	r5, [r0, #2]
   2adc8:	7045      	strb	r5, [r0, #1]
   2adca:	7005      	strb	r5, [r0, #0]
   2adcc:	1d00      	adds	r0, r0, #4
   2adce:	4298      	cmp	r0, r3
   2add0:	d1f7      	bne.n	2adc2 <__aeabi_memclr+0x36>
   2add2:	1b09      	subs	r1, r1, r4
   2add4:	4608      	mov	r0, r1
   2add6:	4390      	bics	r0, r2
   2add8:	1818      	adds	r0, r3, r0
   2adda:	4283      	cmp	r3, r0
   2addc:	d20c      	bcs.n	2adf8 <__aeabi_memclr+0x6c>
   2adde:	2400      	movs	r4, #0
   2ade0:	c310      	stmia	r3!, {r4}
   2ade2:	4283      	cmp	r3, r0
   2ade4:	d208      	bcs.n	2adf8 <__aeabi_memclr+0x6c>
   2ade6:	c310      	stmia	r3!, {r4}
   2ade8:	4283      	cmp	r3, r0
   2adea:	d205      	bcs.n	2adf8 <__aeabi_memclr+0x6c>
   2adec:	c310      	stmia	r3!, {r4}
   2adee:	4283      	cmp	r3, r0
   2adf0:	d202      	bcs.n	2adf8 <__aeabi_memclr+0x6c>
   2adf2:	c310      	stmia	r3!, {r4}
   2adf4:	4283      	cmp	r3, r0
   2adf6:	d3f2      	bcc.n	2adde <__aeabi_memclr+0x52>
   2adf8:	4011      	ands	r1, r2
   2adfa:	1842      	adds	r2, r0, r1
   2adfc:	4290      	cmp	r0, r2
   2adfe:	d21a      	bcs.n	2ae36 <__aeabi_memclr+0xaa>
   2ae00:	2303      	movs	r3, #3
   2ae02:	400b      	ands	r3, r1
   2ae04:	1e49      	subs	r1, r1, #1
   2ae06:	2b00      	cmp	r3, #0
   2ae08:	d00b      	beq.n	2ae22 <__aeabi_memclr+0x96>
   2ae0a:	2400      	movs	r4, #0
   2ae0c:	7004      	strb	r4, [r0, #0]
   2ae0e:	2b01      	cmp	r3, #1
   2ae10:	d103      	bne.n	2ae1a <__aeabi_memclr+0x8e>
   2ae12:	1c40      	adds	r0, r0, #1
   2ae14:	2903      	cmp	r1, #3
   2ae16:	d206      	bcs.n	2ae26 <__aeabi_memclr+0x9a>
   2ae18:	e00d      	b.n	2ae36 <__aeabi_memclr+0xaa>
   2ae1a:	7044      	strb	r4, [r0, #1]
   2ae1c:	2b02      	cmp	r3, #2
   2ae1e:	d10b      	bne.n	2ae38 <__aeabi_memclr+0xac>
   2ae20:	1c80      	adds	r0, r0, #2
   2ae22:	2903      	cmp	r1, #3
   2ae24:	d307      	bcc.n	2ae36 <__aeabi_memclr+0xaa>
   2ae26:	2100      	movs	r1, #0
   2ae28:	70c1      	strb	r1, [r0, #3]
   2ae2a:	7081      	strb	r1, [r0, #2]
   2ae2c:	7041      	strb	r1, [r0, #1]
   2ae2e:	7001      	strb	r1, [r0, #0]
   2ae30:	1d00      	adds	r0, r0, #4
   2ae32:	4290      	cmp	r0, r2
   2ae34:	d1f7      	bne.n	2ae26 <__aeabi_memclr+0x9a>
   2ae36:	bdf0      	pop	{r4, r5, r6, r7, pc}
   2ae38:	7084      	strb	r4, [r0, #2]
   2ae3a:	1cc0      	adds	r0, r0, #3
   2ae3c:	2903      	cmp	r1, #3
   2ae3e:	d2f2      	bcs.n	2ae26 <__aeabi_memclr+0x9a>
   2ae40:	e7f9      	b.n	2ae36 <__aeabi_memclr+0xaa>
   2ae42:	7086      	strb	r6, [r0, #2]
   2ae44:	1cc0      	adds	r0, r0, #3
   2ae46:	2d03      	cmp	r5, #3
   2ae48:	d2bb      	bcs.n	2adc2 <__aeabi_memclr+0x36>
   2ae4a:	e7c2      	b.n	2add2 <__aeabi_memclr+0x46>

0002ae4c <__aeabi_memcpy4>:
   2ae4c:	b5f0      	push	{r4, r5, r6, r7, lr}
   2ae4e:	af03      	add	r7, sp, #12
   2ae50:	b081      	sub	sp, #4
   2ae52:	2a04      	cmp	r2, #4
   2ae54:	d32d      	bcc.n	2aeb2 <__aeabi_memcpy4+0x66>
   2ae56:	1f13      	subs	r3, r2, #4
   2ae58:	250c      	movs	r5, #12
   2ae5a:	401d      	ands	r5, r3
   2ae5c:	2d0c      	cmp	r5, #12
   2ae5e:	d019      	beq.n	2ae94 <__aeabi_memcpy4+0x48>
   2ae60:	9200      	str	r2, [sp, #0]
   2ae62:	460e      	mov	r6, r1
   2ae64:	c904      	ldmia	r1!, {r2}
   2ae66:	4604      	mov	r4, r0
   2ae68:	c004      	stmia	r0!, {r2}
   2ae6a:	071a      	lsls	r2, r3, #28
   2ae6c:	0f92      	lsrs	r2, r2, #30
   2ae6e:	461a      	mov	r2, r3
   2ae70:	d010      	beq.n	2ae94 <__aeabi_memcpy4+0x48>
   2ae72:	4631      	mov	r1, r6
   2ae74:	6872      	ldr	r2, [r6, #4]
   2ae76:	6062      	str	r2, [r4, #4]
   2ae78:	2d04      	cmp	r5, #4
   2ae7a:	d104      	bne.n	2ae86 <__aeabi_memcpy4+0x3a>
   2ae7c:	9a00      	ldr	r2, [sp, #0]
   2ae7e:	3a08      	subs	r2, #8
   2ae80:	3108      	adds	r1, #8
   2ae82:	3408      	adds	r4, #8
   2ae84:	e005      	b.n	2ae92 <__aeabi_memcpy4+0x46>
   2ae86:	688a      	ldr	r2, [r1, #8]
   2ae88:	60a2      	str	r2, [r4, #8]
   2ae8a:	9a00      	ldr	r2, [sp, #0]
   2ae8c:	3a0c      	subs	r2, #12
   2ae8e:	310c      	adds	r1, #12
   2ae90:	340c      	adds	r4, #12
   2ae92:	4620      	mov	r0, r4
   2ae94:	2b0c      	cmp	r3, #12
   2ae96:	d30c      	bcc.n	2aeb2 <__aeabi_memcpy4+0x66>
   2ae98:	680b      	ldr	r3, [r1, #0]
   2ae9a:	6003      	str	r3, [r0, #0]
   2ae9c:	684b      	ldr	r3, [r1, #4]
   2ae9e:	6043      	str	r3, [r0, #4]
   2aea0:	688b      	ldr	r3, [r1, #8]
   2aea2:	6083      	str	r3, [r0, #8]
   2aea4:	68cb      	ldr	r3, [r1, #12]
   2aea6:	60c3      	str	r3, [r0, #12]
   2aea8:	3110      	adds	r1, #16
   2aeaa:	3010      	adds	r0, #16
   2aeac:	3a10      	subs	r2, #16
   2aeae:	2a03      	cmp	r2, #3
   2aeb0:	d8f2      	bhi.n	2ae98 <__aeabi_memcpy4+0x4c>
   2aeb2:	f000 f802 	bl	2aeba <_ZN17compiler_builtins3mem6memcpy17h1f9dbb1c3fd18e2fE>
   2aeb6:	b001      	add	sp, #4
   2aeb8:	bdf0      	pop	{r4, r5, r6, r7, pc}

0002aeba <_ZN17compiler_builtins3mem6memcpy17h1f9dbb1c3fd18e2fE>:
   2aeba:	b5f0      	push	{r4, r5, r6, r7, lr}
   2aebc:	af03      	add	r7, sp, #12
   2aebe:	b08f      	sub	sp, #60	@ 0x3c
   2aec0:	2a10      	cmp	r2, #16
   2aec2:	d315      	bcc.n	2aef0 <_ZN17compiler_builtins3mem6memcpy17h1f9dbb1c3fd18e2fE+0x36>
   2aec4:	920b      	str	r2, [sp, #44]	@ 0x2c
   2aec6:	4242      	negs	r2, r0
   2aec8:	2303      	movs	r3, #3
   2aeca:	9308      	str	r3, [sp, #32]
   2aecc:	401a      	ands	r2, r3
   2aece:	1885      	adds	r5, r0, r2
   2aed0:	900a      	str	r0, [sp, #40]	@ 0x28
   2aed2:	42a8      	cmp	r0, r5
   2aed4:	d22a      	bcs.n	2af2c <_ZN17compiler_builtins3mem6memcpy17h1f9dbb1c3fd18e2fE+0x72>
   2aed6:	1e54      	subs	r4, r2, #1
   2aed8:	2a00      	cmp	r2, #0
   2aeda:	980a      	ldr	r0, [sp, #40]	@ 0x28
   2aedc:	4606      	mov	r6, r0
   2aede:	460b      	mov	r3, r1
   2aee0:	d016      	beq.n	2af10 <_ZN17compiler_builtins3mem6memcpy17h1f9dbb1c3fd18e2fE+0x56>
   2aee2:	780b      	ldrb	r3, [r1, #0]
   2aee4:	7003      	strb	r3, [r0, #0]
   2aee6:	2a01      	cmp	r2, #1
   2aee8:	d107      	bne.n	2aefa <_ZN17compiler_builtins3mem6memcpy17h1f9dbb1c3fd18e2fE+0x40>
   2aeea:	1c4b      	adds	r3, r1, #1
   2aeec:	1c46      	adds	r6, r0, #1
   2aeee:	e00f      	b.n	2af10 <_ZN17compiler_builtins3mem6memcpy17h1f9dbb1c3fd18e2fE+0x56>
   2aef0:	4603      	mov	r3, r0
   2aef2:	189c      	adds	r4, r3, r2
   2aef4:	42a3      	cmp	r3, r4
   2aef6:	d341      	bcc.n	2af7c <_ZN17compiler_builtins3mem6memcpy17h1f9dbb1c3fd18e2fE+0xc2>
   2aef8:	e062      	b.n	2afc0 <_ZN17compiler_builtins3mem6memcpy17h1f9dbb1c3fd18e2fE+0x106>
   2aefa:	784b      	ldrb	r3, [r1, #1]
   2aefc:	7043      	strb	r3, [r0, #1]
   2aefe:	2a02      	cmp	r2, #2
   2af00:	d102      	bne.n	2af08 <_ZN17compiler_builtins3mem6memcpy17h1f9dbb1c3fd18e2fE+0x4e>
   2af02:	1c8b      	adds	r3, r1, #2
   2af04:	1c86      	adds	r6, r0, #2
   2af06:	e003      	b.n	2af10 <_ZN17compiler_builtins3mem6memcpy17h1f9dbb1c3fd18e2fE+0x56>
   2af08:	788b      	ldrb	r3, [r1, #2]
   2af0a:	7083      	strb	r3, [r0, #2]
   2af0c:	1ccb      	adds	r3, r1, #3
   2af0e:	1cc6      	adds	r6, r0, #3
   2af10:	2c03      	cmp	r4, #3
   2af12:	d30b      	bcc.n	2af2c <_ZN17compiler_builtins3mem6memcpy17h1f9dbb1c3fd18e2fE+0x72>
   2af14:	781c      	ldrb	r4, [r3, #0]
   2af16:	7034      	strb	r4, [r6, #0]
   2af18:	785c      	ldrb	r4, [r3, #1]
   2af1a:	7074      	strb	r4, [r6, #1]
   2af1c:	789c      	ldrb	r4, [r3, #2]
   2af1e:	70b4      	strb	r4, [r6, #2]
   2af20:	78dc      	ldrb	r4, [r3, #3]
   2af22:	70f4      	strb	r4, [r6, #3]
   2af24:	1d1b      	adds	r3, r3, #4
   2af26:	1d36      	adds	r6, r6, #4
   2af28:	42ae      	cmp	r6, r5
   2af2a:	d1f3      	bne.n	2af14 <_ZN17compiler_builtins3mem6memcpy17h1f9dbb1c3fd18e2fE+0x5a>
   2af2c:	980b      	ldr	r0, [sp, #44]	@ 0x2c
   2af2e:	1a80      	subs	r0, r0, r2
   2af30:	900b      	str	r0, [sp, #44]	@ 0x2c
   2af32:	9c08      	ldr	r4, [sp, #32]
   2af34:	43a0      	bics	r0, r4
   2af36:	182b      	adds	r3, r5, r0
   2af38:	188e      	adds	r6, r1, r2
   2af3a:	9609      	str	r6, [sp, #36]	@ 0x24
   2af3c:	4026      	ands	r6, r4
   2af3e:	9007      	str	r0, [sp, #28]
   2af40:	d147      	bne.n	2afd2 <_ZN17compiler_builtins3mem6memcpy17h1f9dbb1c3fd18e2fE+0x118>
   2af42:	429d      	cmp	r5, r3
   2af44:	9a0b      	ldr	r2, [sp, #44]	@ 0x2c
   2af46:	9e09      	ldr	r6, [sp, #36]	@ 0x24
   2af48:	d211      	bcs.n	2af6e <_ZN17compiler_builtins3mem6memcpy17h1f9dbb1c3fd18e2fE+0xb4>
   2af4a:	4631      	mov	r1, r6
   2af4c:	6808      	ldr	r0, [r1, #0]
   2af4e:	c501      	stmia	r5!, {r0}
   2af50:	429d      	cmp	r5, r3
   2af52:	d20c      	bcs.n	2af6e <_ZN17compiler_builtins3mem6memcpy17h1f9dbb1c3fd18e2fE+0xb4>
   2af54:	6848      	ldr	r0, [r1, #4]
   2af56:	c501      	stmia	r5!, {r0}
   2af58:	429d      	cmp	r5, r3
   2af5a:	d208      	bcs.n	2af6e <_ZN17compiler_builtins3mem6memcpy17h1f9dbb1c3fd18e2fE+0xb4>
   2af5c:	6888      	ldr	r0, [r1, #8]
   2af5e:	c501      	stmia	r5!, {r0}
   2af60:	429d      	cmp	r5, r3
   2af62:	d204      	bcs.n	2af6e <_ZN17compiler_builtins3mem6memcpy17h1f9dbb1c3fd18e2fE+0xb4>
   2af64:	68c8      	ldr	r0, [r1, #12]
   2af66:	c501      	stmia	r5!, {r0}
   2af68:	3110      	adds	r1, #16
   2af6a:	429d      	cmp	r5, r3
   2af6c:	d3ee      	bcc.n	2af4c <_ZN17compiler_builtins3mem6memcpy17h1f9dbb1c3fd18e2fE+0x92>
   2af6e:	4022      	ands	r2, r4
   2af70:	9807      	ldr	r0, [sp, #28]
   2af72:	1831      	adds	r1, r6, r0
   2af74:	980a      	ldr	r0, [sp, #40]	@ 0x28
   2af76:	189c      	adds	r4, r3, r2
   2af78:	42a3      	cmp	r3, r4
   2af7a:	d221      	bcs.n	2afc0 <_ZN17compiler_builtins3mem6memcpy17h1f9dbb1c3fd18e2fE+0x106>
   2af7c:	2503      	movs	r5, #3
   2af7e:	4015      	ands	r5, r2
   2af80:	1e52      	subs	r2, r2, #1
   2af82:	2d00      	cmp	r5, #0
   2af84:	d00e      	beq.n	2afa4 <_ZN17compiler_builtins3mem6memcpy17h1f9dbb1c3fd18e2fE+0xea>
   2af86:	780e      	ldrb	r6, [r1, #0]
   2af88:	701e      	strb	r6, [r3, #0]
   2af8a:	2d01      	cmp	r5, #1
   2af8c:	d104      	bne.n	2af98 <_ZN17compiler_builtins3mem6memcpy17h1f9dbb1c3fd18e2fE+0xde>
   2af8e:	1c49      	adds	r1, r1, #1
   2af90:	1c5b      	adds	r3, r3, #1
   2af92:	2a03      	cmp	r2, #3
   2af94:	d208      	bcs.n	2afa8 <_ZN17compiler_builtins3mem6memcpy17h1f9dbb1c3fd18e2fE+0xee>
   2af96:	e013      	b.n	2afc0 <_ZN17compiler_builtins3mem6memcpy17h1f9dbb1c3fd18e2fE+0x106>
   2af98:	784e      	ldrb	r6, [r1, #1]
   2af9a:	705e      	strb	r6, [r3, #1]
   2af9c:	2d02      	cmp	r5, #2
   2af9e:	d111      	bne.n	2afc4 <_ZN17compiler_builtins3mem6memcpy17h1f9dbb1c3fd18e2fE+0x10a>
   2afa0:	1c89      	adds	r1, r1, #2
   2afa2:	1c9b      	adds	r3, r3, #2
   2afa4:	2a03      	cmp	r2, #3
   2afa6:	d30b      	bcc.n	2afc0 <_ZN17compiler_builtins3mem6memcpy17h1f9dbb1c3fd18e2fE+0x106>
   2afa8:	780a      	ldrb	r2, [r1, #0]
   2afaa:	701a      	strb	r2, [r3, #0]
   2afac:	784a      	ldrb	r2, [r1, #1]
   2afae:	705a      	strb	r2, [r3, #1]
   2afb0:	788a      	ldrb	r2, [r1, #2]
   2afb2:	709a      	strb	r2, [r3, #2]
   2afb4:	78ca      	ldrb	r2, [r1, #3]
   2afb6:	70da      	strb	r2, [r3, #3]
   2afb8:	1d09      	adds	r1, r1, #4
   2afba:	1d1b      	adds	r3, r3, #4
   2afbc:	42a3      	cmp	r3, r4
   2afbe:	d1f3      	bne.n	2afa8 <_ZN17compiler_builtins3mem6memcpy17h1f9dbb1c3fd18e2fE+0xee>
   2afc0:	b00f      	add	sp, #60	@ 0x3c
   2afc2:	bdf0      	pop	{r4, r5, r6, r7, pc}
   2afc4:	788d      	ldrb	r5, [r1, #2]
   2afc6:	709d      	strb	r5, [r3, #2]
   2afc8:	1cc9      	adds	r1, r1, #3
   2afca:	1cdb      	adds	r3, r3, #3
   2afcc:	2a03      	cmp	r2, #3
   2afce:	d2eb      	bcs.n	2afa8 <_ZN17compiler_builtins3mem6memcpy17h1f9dbb1c3fd18e2fE+0xee>
   2afd0:	e7f6      	b.n	2afc0 <_ZN17compiler_builtins3mem6memcpy17h1f9dbb1c3fd18e2fE+0x106>
   2afd2:	2400      	movs	r4, #0
   2afd4:	9406      	str	r4, [sp, #24]
   2afd6:	940e      	str	r4, [sp, #56]	@ 0x38
   2afd8:	ac0e      	add	r4, sp, #56	@ 0x38
   2afda:	19a4      	adds	r4, r4, r6
   2afdc:	9405      	str	r4, [sp, #20]
   2afde:	2404      	movs	r4, #4
   2afe0:	1ba4      	subs	r4, r4, r6
   2afe2:	9404      	str	r4, [sp, #16]
   2afe4:	07e4      	lsls	r4, r4, #31
   2afe6:	9600      	str	r6, [sp, #0]
   2afe8:	d006      	beq.n	2aff8 <_ZN17compiler_builtins3mem6memcpy17h1f9dbb1c3fd18e2fE+0x13e>
   2afea:	9c09      	ldr	r4, [sp, #36]	@ 0x24
   2afec:	7824      	ldrb	r4, [r4, #0]
   2afee:	9e05      	ldr	r6, [sp, #20]
   2aff0:	7034      	strb	r4, [r6, #0]
   2aff2:	9e00      	ldr	r6, [sp, #0]
   2aff4:	2401      	movs	r4, #1
   2aff6:	9406      	str	r4, [sp, #24]
   2aff8:	9c04      	ldr	r4, [sp, #16]
   2affa:	07a4      	lsls	r4, r4, #30
   2affc:	d508      	bpl.n	2b010 <_ZN17compiler_builtins3mem6memcpy17h1f9dbb1c3fd18e2fE+0x156>
   2affe:	9c09      	ldr	r4, [sp, #36]	@ 0x24
   2b000:	9204      	str	r2, [sp, #16]
   2b002:	9a06      	ldr	r2, [sp, #24]
   2b004:	5aa4      	ldrh	r4, [r4, r2]
   2b006:	9e05      	ldr	r6, [sp, #20]
   2b008:	9a06      	ldr	r2, [sp, #24]
   2b00a:	52b4      	strh	r4, [r6, r2]
   2b00c:	9a04      	ldr	r2, [sp, #16]
   2b00e:	9e00      	ldr	r6, [sp, #0]
   2b010:	00f4      	lsls	r4, r6, #3
   2b012:	9403      	str	r4, [sp, #12]
   2b014:	9c0e      	ldr	r4, [sp, #56]	@ 0x38
   2b016:	9406      	str	r4, [sp, #24]
   2b018:	1d2c      	adds	r4, r5, #4
   2b01a:	429c      	cmp	r4, r3
   2b01c:	d236      	bcs.n	2b08c <_ZN17compiler_builtins3mem6memcpy17h1f9dbb1c3fd18e2fE+0x1d2>
   2b01e:	4274      	negs	r4, r6
   2b020:	1909      	adds	r1, r1, r4
   2b022:	9105      	str	r1, [sp, #20]
   2b024:	9d03      	ldr	r5, [sp, #12]
   2b026:	4269      	negs	r1, r5
   2b028:	2418      	movs	r4, #24
   2b02a:	400c      	ands	r4, r1
   2b02c:	9402      	str	r4, [sp, #8]
   2b02e:	990a      	ldr	r1, [sp, #40]	@ 0x28
   2b030:	9104      	str	r1, [sp, #16]
   2b032:	4629      	mov	r1, r5
   2b034:	9c06      	ldr	r4, [sp, #24]
   2b036:	40cc      	lsrs	r4, r1
   2b038:	9406      	str	r4, [sp, #24]
   2b03a:	9905      	ldr	r1, [sp, #20]
   2b03c:	1889      	adds	r1, r1, r2
   2b03e:	9101      	str	r1, [sp, #4]
   2b040:	6849      	ldr	r1, [r1, #4]
   2b042:	460c      	mov	r4, r1
   2b044:	9d02      	ldr	r5, [sp, #8]
   2b046:	40ac      	lsls	r4, r5
   2b048:	9d06      	ldr	r5, [sp, #24]
   2b04a:	432c      	orrs	r4, r5
   2b04c:	9d04      	ldr	r5, [sp, #16]
   2b04e:	50ac      	str	r4, [r5, r2]
   2b050:	18ad      	adds	r5, r5, r2
   2b052:	462c      	mov	r4, r5
   2b054:	3408      	adds	r4, #8
   2b056:	429c      	cmp	r4, r3
   2b058:	d21c      	bcs.n	2b094 <_ZN17compiler_builtins3mem6memcpy17h1f9dbb1c3fd18e2fE+0x1da>
   2b05a:	9c03      	ldr	r4, [sp, #12]
   2b05c:	40e1      	lsrs	r1, r4
   2b05e:	9c01      	ldr	r4, [sp, #4]
   2b060:	68a4      	ldr	r4, [r4, #8]
   2b062:	9406      	str	r4, [sp, #24]
   2b064:	9501      	str	r5, [sp, #4]
   2b066:	9d02      	ldr	r5, [sp, #8]
   2b068:	40ac      	lsls	r4, r5
   2b06a:	430c      	orrs	r4, r1
   2b06c:	9901      	ldr	r1, [sp, #4]
   2b06e:	604c      	str	r4, [r1, #4]
   2b070:	9904      	ldr	r1, [sp, #16]
   2b072:	3108      	adds	r1, #8
   2b074:	9104      	str	r1, [sp, #16]
   2b076:	188d      	adds	r5, r1, r2
   2b078:	1d29      	adds	r1, r5, #4
   2b07a:	9c05      	ldr	r4, [sp, #20]
   2b07c:	3408      	adds	r4, #8
   2b07e:	9405      	str	r4, [sp, #20]
   2b080:	4299      	cmp	r1, r3
   2b082:	9903      	ldr	r1, [sp, #12]
   2b084:	d3d6      	bcc.n	2b034 <_ZN17compiler_builtins3mem6memcpy17h1f9dbb1c3fd18e2fE+0x17a>
   2b086:	9805      	ldr	r0, [sp, #20]
   2b088:	1880      	adds	r0, r0, r2
   2b08a:	e001      	b.n	2b090 <_ZN17compiler_builtins3mem6memcpy17h1f9dbb1c3fd18e2fE+0x1d6>
   2b08c:	9809      	ldr	r0, [sp, #36]	@ 0x24
   2b08e:	1b80      	subs	r0, r0, r6
   2b090:	9005      	str	r0, [sp, #20]
   2b092:	e004      	b.n	2b09e <_ZN17compiler_builtins3mem6memcpy17h1f9dbb1c3fd18e2fE+0x1e4>
   2b094:	9801      	ldr	r0, [sp, #4]
   2b096:	1d00      	adds	r0, r0, #4
   2b098:	9005      	str	r0, [sp, #20]
   2b09a:	1d2d      	adds	r5, r5, #4
   2b09c:	9106      	str	r1, [sp, #24]
   2b09e:	a80d      	add	r0, sp, #52	@ 0x34
   2b0a0:	2100      	movs	r1, #0
   2b0a2:	9004      	str	r0, [sp, #16]
   2b0a4:	7001      	strb	r1, [r0, #0]
   2b0a6:	a80c      	add	r0, sp, #48	@ 0x30
   2b0a8:	7001      	strb	r1, [r0, #0]
   2b0aa:	2e01      	cmp	r6, #1
   2b0ac:	460e      	mov	r6, r1
   2b0ae:	460c      	mov	r4, r1
   2b0b0:	9102      	str	r1, [sp, #8]
   2b0b2:	9a0b      	ldr	r2, [sp, #44]	@ 0x2c
   2b0b4:	d009      	beq.n	2b0ca <_ZN17compiler_builtins3mem6memcpy17h1f9dbb1c3fd18e2fE+0x210>
   2b0b6:	9c05      	ldr	r4, [sp, #20]
   2b0b8:	7960      	ldrb	r0, [r4, #5]
   2b0ba:	7926      	ldrb	r6, [r4, #4]
   2b0bc:	ac0d      	add	r4, sp, #52	@ 0x34
   2b0be:	7026      	strb	r6, [r4, #0]
   2b0c0:	0204      	lsls	r4, r0, #8
   2b0c2:	2002      	movs	r0, #2
   2b0c4:	9002      	str	r0, [sp, #8]
   2b0c6:	a80c      	add	r0, sp, #48	@ 0x30
   2b0c8:	9004      	str	r0, [sp, #16]
   2b0ca:	9809      	ldr	r0, [sp, #36]	@ 0x24
   2b0cc:	07c0      	lsls	r0, r0, #31
   2b0ce:	d00a      	beq.n	2b0e6 <_ZN17compiler_builtins3mem6memcpy17h1f9dbb1c3fd18e2fE+0x22c>
   2b0d0:	9805      	ldr	r0, [sp, #20]
   2b0d2:	1d00      	adds	r0, r0, #4
   2b0d4:	9902      	ldr	r1, [sp, #8]
   2b0d6:	5c40      	ldrb	r0, [r0, r1]
   2b0d8:	9904      	ldr	r1, [sp, #16]
   2b0da:	7008      	strb	r0, [r1, #0]
   2b0dc:	a80d      	add	r0, sp, #52	@ 0x34
   2b0de:	7806      	ldrb	r6, [r0, #0]
   2b0e0:	a80c      	add	r0, sp, #48	@ 0x30
   2b0e2:	7800      	ldrb	r0, [r0, #0]
   2b0e4:	0401      	lsls	r1, r0, #16
   2b0e6:	9605      	str	r6, [sp, #20]
   2b0e8:	9803      	ldr	r0, [sp, #12]
   2b0ea:	4240      	negs	r0, r0
   2b0ec:	9004      	str	r0, [sp, #16]
   2b0ee:	2618      	movs	r6, #24
   2b0f0:	9804      	ldr	r0, [sp, #16]
   2b0f2:	4006      	ands	r6, r0
   2b0f4:	430c      	orrs	r4, r1
   2b0f6:	9905      	ldr	r1, [sp, #20]
   2b0f8:	430c      	orrs	r4, r1
   2b0fa:	40b4      	lsls	r4, r6
   2b0fc:	9906      	ldr	r1, [sp, #24]
   2b0fe:	9803      	ldr	r0, [sp, #12]
   2b100:	40c1      	lsrs	r1, r0
   2b102:	4321      	orrs	r1, r4
   2b104:	6029      	str	r1, [r5, #0]
   2b106:	9c08      	ldr	r4, [sp, #32]
   2b108:	9e09      	ldr	r6, [sp, #36]	@ 0x24
   2b10a:	e730      	b.n	2af6e <_ZN17compiler_builtins3mem6memcpy17h1f9dbb1c3fd18e2fE+0xb4>

0002b10c <__aeabi_memcpy>:
   2b10c:	b580      	push	{r7, lr}
   2b10e:	af00      	add	r7, sp, #0
   2b110:	f7ff fed3 	bl	2aeba <_ZN17compiler_builtins3mem6memcpy17h1f9dbb1c3fd18e2fE>
   2b114:	bd80      	pop	{r7, pc}
