
target/riscv32imc-unknown-none-elf/opt-s/examples/complex_full_dynamic:     file format elf32-littleriscv

Sections:
Idx Name          Size      VMA       LMA       File off  Algn
  0 .eh_frame     00000060  000100d4  000100d4  000000d4  2**2
                  CONTENTS, ALLOC, LOAD, READONLY, DATA
  1 .text         00009b76  00011134  00011134  00000134  2**1
                  CONTENTS, ALLOC, LOAD, READONLY, CODE
  2 .comment      00000099  00000000  00000000  00009caa  2**0
                  CONTENTS, READONLY
  3 .riscv.attributes 0000002f  00000000  00000000  00009d43  2**0
                  CONTENTS, READONLY

Disassembly of section .text:

00011134 <_ZN20complex_full_dynamic3app17h032a7cdf50446adfE>:
   11134:	7155                	addi	sp,sp,-208
   11136:	c786                	sw	ra,204(sp)
   11138:	c5a2                	sw	s0,200(sp)
   1113a:	c3a6                	sw	s1,196(sp)
   1113c:	c1ca                	sw	s2,192(sp)
   1113e:	df4e                	sw	s3,188(sp)
   11140:	89aa                	mv	s3,a0
   11142:	4409                	li	s0,2
   11144:	00810423          	sb	s0,8(sp)
   11148:	0064                	addi	s1,sp,12
   1114a:	05100613          	li	a2,81
   1114e:	8526                	mv	a0,s1
   11150:	0000a097          	auipc	ra,0xa
   11154:	9b4080e7          	jalr	-1612(ra) # 1ab04 <memcpy>
   11158:	06c10913          	addi	s2,sp,108
   1115c:	04f00613          	li	a2,79
   11160:	854a                	mv	a0,s2
   11162:	4581                	li	a1,0
   11164:	0000a097          	auipc	ra,0xa
   11168:	934080e7          	jalr	-1740(ra) # 1aa98 <memset>
   1116c:	8626                	mv	a2,s1
   1116e:	06810423          	sb	s0,104(sp)
   11172:	6505                	lui	a0,0x1
   11174:	4491                	li	s1,4
   11176:	4589                	li	a1,2
   11178:	e1650793          	addi	a5,a0,-490 # e16 <.Lline_table_start1+0xbeb>
   1117c:	05100693          	li	a3,81
   11180:	4711                	li	a4,4
   11182:	853e                	mv	a0,a5
   11184:	00000073          	ecall
   11188:	04850363          	beq	a0,s0,111ce <_ZN20complex_full_dynamic3app17h032a7cdf50446adfE+0x9a>
   1118c:	853e                	mv	a0,a5
   1118e:	864a                	mv	a2,s2
   11190:	c03e                	sw	a5,0(sp)
   11192:	c222                	sw	s0,4(sp)
   11194:	00910423          	sb	s1,8(sp)
   11198:	448d                	li	s1,3
   1119a:	4591                	li	a1,4
   1119c:	04f00693          	li	a3,79
   111a0:	470d                	li	a4,3
   111a2:	00000073          	ecall
   111a6:	02850463          	beq	a0,s0,111ce <_ZN20complex_full_dynamic3app17h032a7cdf50446adfE+0x9a>
   111aa:	4511                	li	a0,4
   111ac:	6685                	lui	a3,0x1
   111ae:	4589                	li	a1,2
   111b0:	4611                	li	a2,4
   111b2:	d0be                	sw	a5,96(sp)
   111b4:	d2aa                	sw	a0,100(sp)
   111b6:	06910423          	sb	s1,104(sp)
   111ba:	e1668513          	addi	a0,a3,-490 # e16 <.Lline_table_start1+0xbeb>
   111be:	4709                	li	a4,2
   111c0:	07f00793          	li	a5,127
   111c4:	4681                	li	a3,0
   111c6:	00000073          	ecall
   111ca:	02a7e863          	bltu	a5,a0,111fa <_ZN20complex_full_dynamic3app17h032a7cdf50446adfE+0xc6>
   111ce:	00b9a223          	sw	a1,4(s3)
   111d2:	4505                	li	a0,1
   111d4:	00a98023          	sb	a0,0(s3)
   111d8:	1088                	addi	a0,sp,96
   111da:	0000a097          	auipc	ra,0xa
   111de:	8a0080e7          	jalr	-1888(ra) # 1aa7a <_ZN9allow_pin12full_dynamic17unshare_if_shared17h6cf91b2080959258E>
   111e2:	850a                	mv	a0,sp
   111e4:	0000a097          	auipc	ra,0xa
   111e8:	896080e7          	jalr	-1898(ra) # 1aa7a <_ZN9allow_pin12full_dynamic17unshare_if_shared17h6cf91b2080959258E>
   111ec:	40be                	lw	ra,204(sp)
   111ee:	442e                	lw	s0,200(sp)
   111f0:	449e                	lw	s1,196(sp)
   111f2:	490e                	lw	s2,192(sp)
   111f4:	59fa                	lw	s3,188(sp)
   111f6:	6169                	addi	sp,sp,208
   111f8:	8082                	ret
   111fa:	850a                	mv	a0,sp
   111fc:	0000a097          	auipc	ra,0xa
   11200:	87e080e7          	jalr	-1922(ra) # 1aa7a <_ZN9allow_pin12full_dynamic17unshare_if_shared17h6cf91b2080959258E>
   11204:	1088                	addi	a0,sp,96
   11206:	0000a097          	auipc	ra,0xa
   1120a:	874080e7          	jalr	-1932(ra) # 1aa7a <_ZN9allow_pin12full_dynamic17unshare_if_shared17h6cf91b2080959258E>
   1120e:	1088                	addi	a0,sp,96
   11210:	0000a097          	auipc	ra,0xa
   11214:	86a080e7          	jalr	-1942(ra) # 1aa7a <_ZN9allow_pin12full_dynamic17unshare_if_shared17h6cf91b2080959258E>
   11218:	00198513          	addi	a0,s3,1
   1121c:	04f00613          	li	a2,79
   11220:	85ca                	mv	a1,s2
   11222:	0000a097          	auipc	ra,0xa
   11226:	8e2080e7          	jalr	-1822(ra) # 1ab04 <memcpy>
   1122a:	4501                	li	a0,0
   1122c:	b765                	j	111d4 <_ZN20complex_full_dynamic3app17h032a7cdf50446adfE+0xa0>

0001122e <_ZN20complex_full_dynamic3app17h0433f12aa2de99d9E>:
   1122e:	7131                	addi	sp,sp,-192
   11230:	df06                	sw	ra,188(sp)
   11232:	dd22                	sw	s0,184(sp)
   11234:	db26                	sw	s1,180(sp)
   11236:	d94a                	sw	s2,176(sp)
   11238:	d74e                	sw	s3,172(sp)
   1123a:	89aa                	mv	s3,a0
   1123c:	4409                	li	s0,2
   1123e:	00810823          	sb	s0,16(sp)
   11242:	0844                	addi	s1,sp,20
   11244:	05000613          	li	a2,80
   11248:	8526                	mv	a0,s1
   1124a:	0000a097          	auipc	ra,0xa
   1124e:	8ba080e7          	jalr	-1862(ra) # 1ab04 <memcpy>
   11252:	07010913          	addi	s2,sp,112
   11256:	03c00613          	li	a2,60
   1125a:	854a                	mv	a0,s2
   1125c:	4581                	li	a1,0
   1125e:	0000a097          	auipc	ra,0xa
   11262:	83a080e7          	jalr	-1990(ra) # 1aa98 <memset>
   11266:	8626                	mv	a2,s1
   11268:	06810623          	sb	s0,108(sp)
   1126c:	6505                	lui	a0,0x1
   1126e:	448d                	li	s1,3
   11270:	4811                	li	a6,4
   11272:	458d                	li	a1,3
   11274:	d7a50793          	addi	a5,a0,-646 # d7a <.Lline_table_start1+0xb4f>
   11278:	05000693          	li	a3,80
   1127c:	4711                	li	a4,4
   1127e:	853e                	mv	a0,a5
   11280:	00000073          	ecall
   11284:	04850363          	beq	a0,s0,112ca <_ZN20complex_full_dynamic3app17h0433f12aa2de99d9E+0x9c>
   11288:	853e                	mv	a0,a5
   1128a:	864a                	mv	a2,s2
   1128c:	c43e                	sw	a5,8(sp)
   1128e:	c626                	sw	s1,12(sp)
   11290:	01010823          	sb	a6,16(sp)
   11294:	44a5                	li	s1,9
   11296:	45a5                	li	a1,9
   11298:	03c00693          	li	a3,60
   1129c:	470d                	li	a4,3
   1129e:	00000073          	ecall
   112a2:	02850463          	beq	a0,s0,112ca <_ZN20complex_full_dynamic3app17h0433f12aa2de99d9E+0x9c>
   112a6:	450d                	li	a0,3
   112a8:	6685                	lui	a3,0x1
   112aa:	458d                	li	a1,3
   112ac:	4625                	li	a2,9
   112ae:	d2be                	sw	a5,100(sp)
   112b0:	d4a6                	sw	s1,104(sp)
   112b2:	06a10623          	sb	a0,108(sp)
   112b6:	d7a68513          	addi	a0,a3,-646 # d7a <.Lline_table_start1+0xb4f>
   112ba:	4709                	li	a4,2
   112bc:	07f00793          	li	a5,127
   112c0:	4681                	li	a3,0
   112c2:	00000073          	ecall
   112c6:	02a7e863          	bltu	a5,a0,112f6 <_ZN20complex_full_dynamic3app17h0433f12aa2de99d9E+0xc8>
   112ca:	00b9a223          	sw	a1,4(s3)
   112ce:	4505                	li	a0,1
   112d0:	00a98023          	sb	a0,0(s3)
   112d4:	10c8                	addi	a0,sp,100
   112d6:	00009097          	auipc	ra,0x9
   112da:	7a4080e7          	jalr	1956(ra) # 1aa7a <_ZN9allow_pin12full_dynamic17unshare_if_shared17h6cf91b2080959258E>
   112de:	0028                	addi	a0,sp,8
   112e0:	00009097          	auipc	ra,0x9
   112e4:	79a080e7          	jalr	1946(ra) # 1aa7a <_ZN9allow_pin12full_dynamic17unshare_if_shared17h6cf91b2080959258E>
   112e8:	50fa                	lw	ra,188(sp)
   112ea:	546a                	lw	s0,184(sp)
   112ec:	54da                	lw	s1,180(sp)
   112ee:	594a                	lw	s2,176(sp)
   112f0:	59ba                	lw	s3,172(sp)
   112f2:	6129                	addi	sp,sp,192
   112f4:	8082                	ret
   112f6:	0028                	addi	a0,sp,8
   112f8:	00009097          	auipc	ra,0x9
   112fc:	782080e7          	jalr	1922(ra) # 1aa7a <_ZN9allow_pin12full_dynamic17unshare_if_shared17h6cf91b2080959258E>
   11300:	10c8                	addi	a0,sp,100
   11302:	00009097          	auipc	ra,0x9
   11306:	778080e7          	jalr	1912(ra) # 1aa7a <_ZN9allow_pin12full_dynamic17unshare_if_shared17h6cf91b2080959258E>
   1130a:	10c8                	addi	a0,sp,100
   1130c:	00009097          	auipc	ra,0x9
   11310:	76e080e7          	jalr	1902(ra) # 1aa7a <_ZN9allow_pin12full_dynamic17unshare_if_shared17h6cf91b2080959258E>
   11314:	00198513          	addi	a0,s3,1
   11318:	03c00613          	li	a2,60
   1131c:	85ca                	mv	a1,s2
   1131e:	00009097          	auipc	ra,0x9
   11322:	7e6080e7          	jalr	2022(ra) # 1ab04 <memcpy>
   11326:	4501                	li	a0,0
   11328:	b765                	j	112d0 <_ZN20complex_full_dynamic3app17h0433f12aa2de99d9E+0xa2>

0001132a <_ZN20complex_full_dynamic3app17h043f23123c4d6715E>:
   1132a:	7119                	addi	sp,sp,-128
   1132c:	de86                	sw	ra,124(sp)
   1132e:	dca2                	sw	s0,120(sp)
   11330:	daa6                	sw	s1,116(sp)
   11332:	d8ca                	sw	s2,112(sp)
   11334:	d6ce                	sw	s3,108(sp)
   11336:	89aa                	mv	s3,a0
   11338:	4409                	li	s0,2
   1133a:	00810a23          	sb	s0,20(sp)
   1133e:	0824                	addi	s1,sp,24
   11340:	02900613          	li	a2,41
   11344:	8526                	mv	a0,s1
   11346:	00009097          	auipc	ra,0x9
   1134a:	7be080e7          	jalr	1982(ra) # 1ab04 <memcpy>
   1134e:	05010913          	addi	s2,sp,80
   11352:	4669                	li	a2,26
   11354:	854a                	mv	a0,s2
   11356:	4581                	li	a1,0
   11358:	00009097          	auipc	ra,0x9
   1135c:	740080e7          	jalr	1856(ra) # 1aa98 <memset>
   11360:	8626                	mv	a2,s1
   11362:	04810623          	sb	s0,76(sp)
   11366:	6509                	lui	a0,0x2
   11368:	4495                	li	s1,5
   1136a:	4811                	li	a6,4
   1136c:	4595                	li	a1,5
   1136e:	04850793          	addi	a5,a0,72 # 2048 <.Lline_table_start1+0x1e1d>
   11372:	02900693          	li	a3,41
   11376:	4711                	li	a4,4
   11378:	853e                	mv	a0,a5
   1137a:	00000073          	ecall
   1137e:	04850163          	beq	a0,s0,113c0 <_ZN20complex_full_dynamic3app17h043f23123c4d6715E+0x96>
   11382:	853e                	mv	a0,a5
   11384:	864a                	mv	a2,s2
   11386:	c63e                	sw	a5,12(sp)
   11388:	c826                	sw	s1,16(sp)
   1138a:	01010a23          	sb	a6,20(sp)
   1138e:	448d                	li	s1,3
   11390:	458d                	li	a1,3
   11392:	46e9                	li	a3,26
   11394:	470d                	li	a4,3
   11396:	00000073          	ecall
   1139a:	02850363          	beq	a0,s0,113c0 <_ZN20complex_full_dynamic3app17h043f23123c4d6715E+0x96>
   1139e:	c2be                	sw	a5,68(sp)
   113a0:	c4a6                	sw	s1,72(sp)
   113a2:	04910623          	sb	s1,76(sp)
   113a6:	6509                	lui	a0,0x2
   113a8:	4595                	li	a1,5
   113aa:	460d                	li	a2,3
   113ac:	04850513          	addi	a0,a0,72 # 2048 <.Lline_table_start1+0x1e1d>
   113b0:	4709                	li	a4,2
   113b2:	07f00793          	li	a5,127
   113b6:	4681                	li	a3,0
   113b8:	00000073          	ecall
   113bc:	02a7e863          	bltu	a5,a0,113ec <_ZN20complex_full_dynamic3app17h043f23123c4d6715E+0xc2>
   113c0:	00b9a223          	sw	a1,4(s3)
   113c4:	4505                	li	a0,1
   113c6:	00a98023          	sb	a0,0(s3)
   113ca:	00c8                	addi	a0,sp,68
   113cc:	00009097          	auipc	ra,0x9
   113d0:	6ae080e7          	jalr	1710(ra) # 1aa7a <_ZN9allow_pin12full_dynamic17unshare_if_shared17h6cf91b2080959258E>
   113d4:	0068                	addi	a0,sp,12
   113d6:	00009097          	auipc	ra,0x9
   113da:	6a4080e7          	jalr	1700(ra) # 1aa7a <_ZN9allow_pin12full_dynamic17unshare_if_shared17h6cf91b2080959258E>
   113de:	50f6                	lw	ra,124(sp)
   113e0:	5466                	lw	s0,120(sp)
   113e2:	54d6                	lw	s1,116(sp)
   113e4:	5946                	lw	s2,112(sp)
   113e6:	59b6                	lw	s3,108(sp)
   113e8:	6109                	addi	sp,sp,128
   113ea:	8082                	ret
   113ec:	0068                	addi	a0,sp,12
   113ee:	00009097          	auipc	ra,0x9
   113f2:	68c080e7          	jalr	1676(ra) # 1aa7a <_ZN9allow_pin12full_dynamic17unshare_if_shared17h6cf91b2080959258E>
   113f6:	00c8                	addi	a0,sp,68
   113f8:	00009097          	auipc	ra,0x9
   113fc:	682080e7          	jalr	1666(ra) # 1aa7a <_ZN9allow_pin12full_dynamic17unshare_if_shared17h6cf91b2080959258E>
   11400:	00c8                	addi	a0,sp,68
   11402:	00009097          	auipc	ra,0x9
   11406:	678080e7          	jalr	1656(ra) # 1aa7a <_ZN9allow_pin12full_dynamic17unshare_if_shared17h6cf91b2080959258E>
   1140a:	00198513          	addi	a0,s3,1
   1140e:	4669                	li	a2,26
   11410:	85ca                	mv	a1,s2
   11412:	00009097          	auipc	ra,0x9
   11416:	6f2080e7          	jalr	1778(ra) # 1ab04 <memcpy>
   1141a:	4501                	li	a0,0
   1141c:	b76d                	j	113c6 <_ZN20complex_full_dynamic3app17h043f23123c4d6715E+0x9c>

0001141e <_ZN20complex_full_dynamic3app17h078ec1da26b6053eE>:
   1141e:	7135                	addi	sp,sp,-160
   11420:	cf06                	sw	ra,156(sp)
   11422:	cd22                	sw	s0,152(sp)
   11424:	cb26                	sw	s1,148(sp)
   11426:	c94a                	sw	s2,144(sp)
   11428:	c74e                	sw	s3,140(sp)
   1142a:	89aa                	mv	s3,a0
   1142c:	4409                	li	s0,2
   1142e:	00810823          	sb	s0,16(sp)
   11432:	0844                	addi	s1,sp,20
   11434:	05000613          	li	a2,80
   11438:	8526                	mv	a0,s1
   1143a:	00009097          	auipc	ra,0x9
   1143e:	6ca080e7          	jalr	1738(ra) # 1ab04 <memcpy>
   11442:	07010913          	addi	s2,sp,112
   11446:	466d                	li	a2,27
   11448:	854a                	mv	a0,s2
   1144a:	4581                	li	a1,0
   1144c:	00009097          	auipc	ra,0x9
   11450:	64c080e7          	jalr	1612(ra) # 1aa98 <memset>
   11454:	8626                	mv	a2,s1
   11456:	06810623          	sb	s0,108(sp)
   1145a:	3d900793          	li	a5,985
   1145e:	4485                	li	s1,1
   11460:	4811                	li	a6,4
   11462:	3d900513          	li	a0,985
   11466:	4585                	li	a1,1
   11468:	05000693          	li	a3,80
   1146c:	4711                	li	a4,4
   1146e:	00000073          	ecall
   11472:	04850463          	beq	a0,s0,114ba <_ZN20complex_full_dynamic3app17h078ec1da26b6053eE+0x9c>
   11476:	864a                	mv	a2,s2
   11478:	c43e                	sw	a5,8(sp)
   1147a:	c626                	sw	s1,12(sp)
   1147c:	01010823          	sb	a6,16(sp)
   11480:	478d                	li	a5,3
   11482:	3d900513          	li	a0,985
   11486:	4589                	li	a1,2
   11488:	46ed                	li	a3,27
   1148a:	470d                	li	a4,3
   1148c:	00000073          	ecall
   11490:	02850563          	beq	a0,s0,114ba <_ZN20complex_full_dynamic3app17h078ec1da26b6053eE+0x9c>
   11494:	3d900693          	li	a3,985
   11498:	4489                	li	s1,2
   1149a:	3d900513          	li	a0,985
   1149e:	4585                	li	a1,1
   114a0:	4609                	li	a2,2
   114a2:	4709                	li	a4,2
   114a4:	07f00413          	li	s0,127
   114a8:	d2b6                	sw	a3,100(sp)
   114aa:	d4a6                	sw	s1,104(sp)
   114ac:	06f10623          	sb	a5,108(sp)
   114b0:	4681                	li	a3,0
   114b2:	00000073          	ecall
   114b6:	02a46863          	bltu	s0,a0,114e6 <_ZN20complex_full_dynamic3app17h078ec1da26b6053eE+0xc8>
   114ba:	00b9a223          	sw	a1,4(s3)
   114be:	4505                	li	a0,1
   114c0:	00a98023          	sb	a0,0(s3)
   114c4:	10c8                	addi	a0,sp,100
   114c6:	00009097          	auipc	ra,0x9
   114ca:	5b4080e7          	jalr	1460(ra) # 1aa7a <_ZN9allow_pin12full_dynamic17unshare_if_shared17h6cf91b2080959258E>
   114ce:	0028                	addi	a0,sp,8
   114d0:	00009097          	auipc	ra,0x9
   114d4:	5aa080e7          	jalr	1450(ra) # 1aa7a <_ZN9allow_pin12full_dynamic17unshare_if_shared17h6cf91b2080959258E>
   114d8:	40fa                	lw	ra,156(sp)
   114da:	446a                	lw	s0,152(sp)
   114dc:	44da                	lw	s1,148(sp)
   114de:	494a                	lw	s2,144(sp)
   114e0:	49ba                	lw	s3,140(sp)
   114e2:	610d                	addi	sp,sp,160
   114e4:	8082                	ret
   114e6:	0028                	addi	a0,sp,8
   114e8:	00009097          	auipc	ra,0x9
   114ec:	592080e7          	jalr	1426(ra) # 1aa7a <_ZN9allow_pin12full_dynamic17unshare_if_shared17h6cf91b2080959258E>
   114f0:	10c8                	addi	a0,sp,100
   114f2:	00009097          	auipc	ra,0x9
   114f6:	588080e7          	jalr	1416(ra) # 1aa7a <_ZN9allow_pin12full_dynamic17unshare_if_shared17h6cf91b2080959258E>
   114fa:	10c8                	addi	a0,sp,100
   114fc:	00009097          	auipc	ra,0x9
   11500:	57e080e7          	jalr	1406(ra) # 1aa7a <_ZN9allow_pin12full_dynamic17unshare_if_shared17h6cf91b2080959258E>
   11504:	00198513          	addi	a0,s3,1
   11508:	466d                	li	a2,27
   1150a:	85ca                	mv	a1,s2
   1150c:	00009097          	auipc	ra,0x9
   11510:	5f8080e7          	jalr	1528(ra) # 1ab04 <memcpy>
   11514:	4501                	li	a0,0
   11516:	b76d                	j	114c0 <_ZN20complex_full_dynamic3app17h078ec1da26b6053eE+0xa2>

00011518 <_ZN20complex_full_dynamic3app17h07dd6f42fa72c55cE>:
   11518:	7119                	addi	sp,sp,-128
   1151a:	de86                	sw	ra,124(sp)
   1151c:	dca2                	sw	s0,120(sp)
   1151e:	daa6                	sw	s1,116(sp)
   11520:	d8ca                	sw	s2,112(sp)
   11522:	d6ce                	sw	s3,108(sp)
   11524:	89aa                	mv	s3,a0
   11526:	4409                	li	s0,2
   11528:	00810623          	sb	s0,12(sp)
   1152c:	0804                	addi	s1,sp,16
   1152e:	03400613          	li	a2,52
   11532:	8526                	mv	a0,s1
   11534:	00009097          	auipc	ra,0x9
   11538:	5d0080e7          	jalr	1488(ra) # 1ab04 <memcpy>
   1153c:	05010913          	addi	s2,sp,80
   11540:	4669                	li	a2,26
   11542:	854a                	mv	a0,s2
   11544:	4581                	li	a1,0
   11546:	00009097          	auipc	ra,0x9
   1154a:	552080e7          	jalr	1362(ra) # 1aa98 <memset>
   1154e:	4581                	li	a1,0
   11550:	8626                	mv	a2,s1
   11552:	04810623          	sb	s0,76(sp)
   11556:	6505                	lui	a0,0x1
   11558:	4491                	li	s1,4
   1155a:	2cc50793          	addi	a5,a0,716 # 12cc <.Lline_table_start1+0x10a1>
   1155e:	03400693          	li	a3,52
   11562:	4711                	li	a4,4
   11564:	853e                	mv	a0,a5
   11566:	00000073          	ecall
   1156a:	04850263          	beq	a0,s0,115ae <_ZN20complex_full_dynamic3app17h07dd6f42fa72c55cE+0x96>
   1156e:	853e                	mv	a0,a5
   11570:	864a                	mv	a2,s2
   11572:	c23e                	sw	a5,4(sp)
   11574:	c402                	sw	zero,8(sp)
   11576:	00910623          	sb	s1,12(sp)
   1157a:	4495                	li	s1,5
   1157c:	480d                	li	a6,3
   1157e:	4595                	li	a1,5
   11580:	46e9                	li	a3,26
   11582:	470d                	li	a4,3
   11584:	00000073          	ecall
   11588:	02850363          	beq	a0,s0,115ae <_ZN20complex_full_dynamic3app17h07dd6f42fa72c55cE+0x96>
   1158c:	c2be                	sw	a5,68(sp)
   1158e:	c4a6                	sw	s1,72(sp)
   11590:	05010623          	sb	a6,76(sp)
   11594:	6505                	lui	a0,0x1
   11596:	4615                	li	a2,5
   11598:	2cc50513          	addi	a0,a0,716 # 12cc <.Lline_table_start1+0x10a1>
   1159c:	4709                	li	a4,2
   1159e:	07f00793          	li	a5,127
   115a2:	4581                	li	a1,0
   115a4:	4681                	li	a3,0
   115a6:	00000073          	ecall
   115aa:	02a7e863          	bltu	a5,a0,115da <_ZN20complex_full_dynamic3app17h07dd6f42fa72c55cE+0xc2>
   115ae:	00b9a223          	sw	a1,4(s3)
   115b2:	4505                	li	a0,1
   115b4:	00a98023          	sb	a0,0(s3)
   115b8:	00c8                	addi	a0,sp,68
   115ba:	00009097          	auipc	ra,0x9
   115be:	4c0080e7          	jalr	1216(ra) # 1aa7a <_ZN9allow_pin12full_dynamic17unshare_if_shared17h6cf91b2080959258E>
   115c2:	0048                	addi	a0,sp,4
   115c4:	00009097          	auipc	ra,0x9
   115c8:	4b6080e7          	jalr	1206(ra) # 1aa7a <_ZN9allow_pin12full_dynamic17unshare_if_shared17h6cf91b2080959258E>
   115cc:	50f6                	lw	ra,124(sp)
   115ce:	5466                	lw	s0,120(sp)
   115d0:	54d6                	lw	s1,116(sp)
   115d2:	5946                	lw	s2,112(sp)
   115d4:	59b6                	lw	s3,108(sp)
   115d6:	6109                	addi	sp,sp,128
   115d8:	8082                	ret
   115da:	0048                	addi	a0,sp,4
   115dc:	00009097          	auipc	ra,0x9
   115e0:	49e080e7          	jalr	1182(ra) # 1aa7a <_ZN9allow_pin12full_dynamic17unshare_if_shared17h6cf91b2080959258E>
   115e4:	00c8                	addi	a0,sp,68
   115e6:	00009097          	auipc	ra,0x9
   115ea:	494080e7          	jalr	1172(ra) # 1aa7a <_ZN9allow_pin12full_dynamic17unshare_if_shared17h6cf91b2080959258E>
   115ee:	00c8                	addi	a0,sp,68
   115f0:	00009097          	auipc	ra,0x9
   115f4:	48a080e7          	jalr	1162(ra) # 1aa7a <_ZN9allow_pin12full_dynamic17unshare_if_shared17h6cf91b2080959258E>
   115f8:	00198513          	addi	a0,s3,1
   115fc:	4669                	li	a2,26
   115fe:	85ca                	mv	a1,s2
   11600:	00009097          	auipc	ra,0x9
   11604:	504080e7          	jalr	1284(ra) # 1ab04 <memcpy>
   11608:	4501                	li	a0,0
   1160a:	b76d                	j	115b4 <_ZN20complex_full_dynamic3app17h07dd6f42fa72c55cE+0x9c>

0001160c <_ZN20complex_full_dynamic3app17h09975a09569f54e4E>:
   1160c:	7131                	addi	sp,sp,-192
   1160e:	df06                	sw	ra,188(sp)
   11610:	dd22                	sw	s0,184(sp)
   11612:	db26                	sw	s1,180(sp)
   11614:	d94a                	sw	s2,176(sp)
   11616:	d74e                	sw	s3,172(sp)
   11618:	89aa                	mv	s3,a0
   1161a:	4409                	li	s0,2
   1161c:	00810823          	sb	s0,16(sp)
   11620:	0844                	addi	s1,sp,20
   11622:	04d00613          	li	a2,77
   11626:	8526                	mv	a0,s1
   11628:	00009097          	auipc	ra,0x9
   1162c:	4dc080e7          	jalr	1244(ra) # 1ab04 <memcpy>
   11630:	07010913          	addi	s2,sp,112
   11634:	03c00613          	li	a2,60
   11638:	854a                	mv	a0,s2
   1163a:	4581                	li	a1,0
   1163c:	00009097          	auipc	ra,0x9
   11640:	45c080e7          	jalr	1116(ra) # 1aa98 <memset>
   11644:	8626                	mv	a2,s1
   11646:	06810623          	sb	s0,108(sp)
   1164a:	6509                	lui	a0,0x2
   1164c:	4491                	li	s1,4
   1164e:	4591                	li	a1,4
   11650:	1ab50793          	addi	a5,a0,427 # 21ab <.Lline_table_start1+0x1f80>
   11654:	04d00693          	li	a3,77
   11658:	4711                	li	a4,4
   1165a:	853e                	mv	a0,a5
   1165c:	00000073          	ecall
   11660:	04850363          	beq	a0,s0,116a6 <_ZN20complex_full_dynamic3app17h09975a09569f54e4E+0x9a>
   11664:	853e                	mv	a0,a5
   11666:	864a                	mv	a2,s2
   11668:	c43e                	sw	a5,8(sp)
   1166a:	c626                	sw	s1,12(sp)
   1166c:	00910823          	sb	s1,16(sp)
   11670:	44a5                	li	s1,9
   11672:	480d                	li	a6,3
   11674:	45a5                	li	a1,9
   11676:	03c00693          	li	a3,60
   1167a:	470d                	li	a4,3
   1167c:	00000073          	ecall
   11680:	02850363          	beq	a0,s0,116a6 <_ZN20complex_full_dynamic3app17h09975a09569f54e4E+0x9a>
   11684:	d2be                	sw	a5,100(sp)
   11686:	d4a6                	sw	s1,104(sp)
   11688:	07010623          	sb	a6,108(sp)
   1168c:	6509                	lui	a0,0x2
   1168e:	4591                	li	a1,4
   11690:	4625                	li	a2,9
   11692:	1ab50513          	addi	a0,a0,427 # 21ab <.Lline_table_start1+0x1f80>
   11696:	4709                	li	a4,2
   11698:	07f00793          	li	a5,127
   1169c:	4681                	li	a3,0
   1169e:	00000073          	ecall
   116a2:	02a7e863          	bltu	a5,a0,116d2 <_ZN20complex_full_dynamic3app17h09975a09569f54e4E+0xc6>
   116a6:	00b9a223          	sw	a1,4(s3)
   116aa:	4505                	li	a0,1
   116ac:	00a98023          	sb	a0,0(s3)
   116b0:	10c8                	addi	a0,sp,100
   116b2:	00009097          	auipc	ra,0x9
   116b6:	3c8080e7          	jalr	968(ra) # 1aa7a <_ZN9allow_pin12full_dynamic17unshare_if_shared17h6cf91b2080959258E>
   116ba:	0028                	addi	a0,sp,8
   116bc:	00009097          	auipc	ra,0x9
   116c0:	3be080e7          	jalr	958(ra) # 1aa7a <_ZN9allow_pin12full_dynamic17unshare_if_shared17h6cf91b2080959258E>
   116c4:	50fa                	lw	ra,188(sp)
   116c6:	546a                	lw	s0,184(sp)
   116c8:	54da                	lw	s1,180(sp)
   116ca:	594a                	lw	s2,176(sp)
   116cc:	59ba                	lw	s3,172(sp)
   116ce:	6129                	addi	sp,sp,192
   116d0:	8082                	ret
   116d2:	0028                	addi	a0,sp,8
   116d4:	00009097          	auipc	ra,0x9
   116d8:	3a6080e7          	jalr	934(ra) # 1aa7a <_ZN9allow_pin12full_dynamic17unshare_if_shared17h6cf91b2080959258E>
   116dc:	10c8                	addi	a0,sp,100
   116de:	00009097          	auipc	ra,0x9
   116e2:	39c080e7          	jalr	924(ra) # 1aa7a <_ZN9allow_pin12full_dynamic17unshare_if_shared17h6cf91b2080959258E>
   116e6:	10c8                	addi	a0,sp,100
   116e8:	00009097          	auipc	ra,0x9
   116ec:	392080e7          	jalr	914(ra) # 1aa7a <_ZN9allow_pin12full_dynamic17unshare_if_shared17h6cf91b2080959258E>
   116f0:	00198513          	addi	a0,s3,1
   116f4:	03c00613          	li	a2,60
   116f8:	85ca                	mv	a1,s2
   116fa:	00009097          	auipc	ra,0x9
   116fe:	40a080e7          	jalr	1034(ra) # 1ab04 <memcpy>
   11702:	4501                	li	a0,0
   11704:	b765                	j	116ac <_ZN20complex_full_dynamic3app17h09975a09569f54e4E+0xa0>

00011706 <_ZN20complex_full_dynamic3app17h0bfda530378584dbE>:
   11706:	7159                	addi	sp,sp,-112
   11708:	d686                	sw	ra,108(sp)
   1170a:	d4a2                	sw	s0,104(sp)
   1170c:	d2a6                	sw	s1,100(sp)
   1170e:	d0ca                	sw	s2,96(sp)
   11710:	cece                	sw	s3,92(sp)
   11712:	89aa                	mv	s3,a0
   11714:	4409                	li	s0,2
   11716:	00810623          	sb	s0,12(sp)
   1171a:	0804                	addi	s1,sp,16
   1171c:	02500613          	li	a2,37
   11720:	8526                	mv	a0,s1
   11722:	00009097          	auipc	ra,0x9
   11726:	3e2080e7          	jalr	994(ra) # 1ab04 <memcpy>
   1172a:	04410913          	addi	s2,sp,68
   1172e:	4661                	li	a2,24
   11730:	854a                	mv	a0,s2
   11732:	4581                	li	a1,0
   11734:	00009097          	auipc	ra,0x9
   11738:	364080e7          	jalr	868(ra) # 1aa98 <memset>
   1173c:	8626                	mv	a2,s1
   1173e:	04810023          	sb	s0,64(sp)
   11742:	6505                	lui	a0,0x1
   11744:	44a5                	li	s1,9
   11746:	4811                	li	a6,4
   11748:	45a5                	li	a1,9
   1174a:	a7050793          	addi	a5,a0,-1424 # a70 <.Lline_table_start1+0x845>
   1174e:	02500693          	li	a3,37
   11752:	4711                	li	a4,4
   11754:	853e                	mv	a0,a5
   11756:	00000073          	ecall
   1175a:	04850263          	beq	a0,s0,1179e <_ZN20complex_full_dynamic3app17h0bfda530378584dbE+0x98>
   1175e:	853e                	mv	a0,a5
   11760:	864a                	mv	a2,s2
   11762:	c23e                	sw	a5,4(sp)
   11764:	c426                	sw	s1,8(sp)
   11766:	01010623          	sb	a6,12(sp)
   1176a:	44a1                	li	s1,8
   1176c:	480d                	li	a6,3
   1176e:	45a1                	li	a1,8
   11770:	46e1                	li	a3,24
   11772:	470d                	li	a4,3
   11774:	00000073          	ecall
   11778:	02850363          	beq	a0,s0,1179e <_ZN20complex_full_dynamic3app17h0bfda530378584dbE+0x98>
   1177c:	dc3e                	sw	a5,56(sp)
   1177e:	de26                	sw	s1,60(sp)
   11780:	05010023          	sb	a6,64(sp)
   11784:	6505                	lui	a0,0x1
   11786:	45a5                	li	a1,9
   11788:	4621                	li	a2,8
   1178a:	a7050513          	addi	a0,a0,-1424 # a70 <.Lline_table_start1+0x845>
   1178e:	4709                	li	a4,2
   11790:	07f00793          	li	a5,127
   11794:	4681                	li	a3,0
   11796:	00000073          	ecall
   1179a:	02a7e863          	bltu	a5,a0,117ca <_ZN20complex_full_dynamic3app17h0bfda530378584dbE+0xc4>
   1179e:	00b9a223          	sw	a1,4(s3)
   117a2:	4505                	li	a0,1
   117a4:	00a98023          	sb	a0,0(s3)
   117a8:	1828                	addi	a0,sp,56
   117aa:	00009097          	auipc	ra,0x9
   117ae:	2d0080e7          	jalr	720(ra) # 1aa7a <_ZN9allow_pin12full_dynamic17unshare_if_shared17h6cf91b2080959258E>
   117b2:	0048                	addi	a0,sp,4
   117b4:	00009097          	auipc	ra,0x9
   117b8:	2c6080e7          	jalr	710(ra) # 1aa7a <_ZN9allow_pin12full_dynamic17unshare_if_shared17h6cf91b2080959258E>
   117bc:	50b6                	lw	ra,108(sp)
   117be:	5426                	lw	s0,104(sp)
   117c0:	5496                	lw	s1,100(sp)
   117c2:	5906                	lw	s2,96(sp)
   117c4:	49f6                	lw	s3,92(sp)
   117c6:	6165                	addi	sp,sp,112
   117c8:	8082                	ret
   117ca:	0048                	addi	a0,sp,4
   117cc:	00009097          	auipc	ra,0x9
   117d0:	2ae080e7          	jalr	686(ra) # 1aa7a <_ZN9allow_pin12full_dynamic17unshare_if_shared17h6cf91b2080959258E>
   117d4:	1828                	addi	a0,sp,56
   117d6:	00009097          	auipc	ra,0x9
   117da:	2a4080e7          	jalr	676(ra) # 1aa7a <_ZN9allow_pin12full_dynamic17unshare_if_shared17h6cf91b2080959258E>
   117de:	1828                	addi	a0,sp,56
   117e0:	00009097          	auipc	ra,0x9
   117e4:	29a080e7          	jalr	666(ra) # 1aa7a <_ZN9allow_pin12full_dynamic17unshare_if_shared17h6cf91b2080959258E>
   117e8:	00198513          	addi	a0,s3,1
   117ec:	4661                	li	a2,24
   117ee:	85ca                	mv	a1,s2
   117f0:	00009097          	auipc	ra,0x9
   117f4:	314080e7          	jalr	788(ra) # 1ab04 <memcpy>
   117f8:	4501                	li	a0,0
   117fa:	b76d                	j	117a4 <_ZN20complex_full_dynamic3app17h0bfda530378584dbE+0x9e>

000117fc <_ZN20complex_full_dynamic3app17h0e2f77705d40451dE>:
   117fc:	7131                	addi	sp,sp,-192
   117fe:	df06                	sw	ra,188(sp)
   11800:	dd22                	sw	s0,184(sp)
   11802:	db26                	sw	s1,180(sp)
   11804:	d94a                	sw	s2,176(sp)
   11806:	d74e                	sw	s3,172(sp)
   11808:	89aa                	mv	s3,a0
   1180a:	4409                	li	s0,2
   1180c:	00810623          	sb	s0,12(sp)
   11810:	0804                	addi	s1,sp,16
   11812:	02a00613          	li	a2,42
   11816:	8526                	mv	a0,s1
   11818:	00009097          	auipc	ra,0x9
   1181c:	2ec080e7          	jalr	748(ra) # 1ab04 <memcpy>
   11820:	04810913          	addi	s2,sp,72
   11824:	06300613          	li	a2,99
   11828:	854a                	mv	a0,s2
   1182a:	4581                	li	a1,0
   1182c:	00009097          	auipc	ra,0x9
   11830:	26c080e7          	jalr	620(ra) # 1aa98 <memset>
   11834:	8626                	mv	a2,s1
   11836:	04810223          	sb	s0,68(sp)
   1183a:	6509                	lui	a0,0x2
   1183c:	4491                	li	s1,4
   1183e:	4591                	li	a1,4
   11840:	c7c50793          	addi	a5,a0,-900 # 1c7c <.Lline_table_start1+0x1a51>
   11844:	02a00693          	li	a3,42
   11848:	4711                	li	a4,4
   1184a:	853e                	mv	a0,a5
   1184c:	00000073          	ecall
   11850:	04850263          	beq	a0,s0,11894 <_ZN20complex_full_dynamic3app17h0e2f77705d40451dE+0x98>
   11854:	853e                	mv	a0,a5
   11856:	4581                	li	a1,0
   11858:	864a                	mv	a2,s2
   1185a:	c23e                	sw	a5,4(sp)
   1185c:	c426                	sw	s1,8(sp)
   1185e:	00910623          	sb	s1,12(sp)
   11862:	448d                	li	s1,3
   11864:	06300693          	li	a3,99
   11868:	470d                	li	a4,3
   1186a:	00000073          	ecall
   1186e:	02850363          	beq	a0,s0,11894 <_ZN20complex_full_dynamic3app17h0e2f77705d40451dE+0x98>
   11872:	de3e                	sw	a5,60(sp)
   11874:	c082                	sw	zero,64(sp)
   11876:	04910223          	sb	s1,68(sp)
   1187a:	6509                	lui	a0,0x2
   1187c:	4591                	li	a1,4
   1187e:	c7c50513          	addi	a0,a0,-900 # 1c7c <.Lline_table_start1+0x1a51>
   11882:	4709                	li	a4,2
   11884:	07f00793          	li	a5,127
   11888:	4601                	li	a2,0
   1188a:	4681                	li	a3,0
   1188c:	00000073          	ecall
   11890:	02a7e863          	bltu	a5,a0,118c0 <_ZN20complex_full_dynamic3app17h0e2f77705d40451dE+0xc4>
   11894:	00b9a223          	sw	a1,4(s3)
   11898:	4505                	li	a0,1
   1189a:	00a98023          	sb	a0,0(s3)
   1189e:	1868                	addi	a0,sp,60
   118a0:	00009097          	auipc	ra,0x9
   118a4:	1da080e7          	jalr	474(ra) # 1aa7a <_ZN9allow_pin12full_dynamic17unshare_if_shared17h6cf91b2080959258E>
   118a8:	0048                	addi	a0,sp,4
   118aa:	00009097          	auipc	ra,0x9
   118ae:	1d0080e7          	jalr	464(ra) # 1aa7a <_ZN9allow_pin12full_dynamic17unshare_if_shared17h6cf91b2080959258E>
   118b2:	50fa                	lw	ra,188(sp)
   118b4:	546a                	lw	s0,184(sp)
   118b6:	54da                	lw	s1,180(sp)
   118b8:	594a                	lw	s2,176(sp)
   118ba:	59ba                	lw	s3,172(sp)
   118bc:	6129                	addi	sp,sp,192
   118be:	8082                	ret
   118c0:	0048                	addi	a0,sp,4
   118c2:	00009097          	auipc	ra,0x9
   118c6:	1b8080e7          	jalr	440(ra) # 1aa7a <_ZN9allow_pin12full_dynamic17unshare_if_shared17h6cf91b2080959258E>
   118ca:	1868                	addi	a0,sp,60
   118cc:	00009097          	auipc	ra,0x9
   118d0:	1ae080e7          	jalr	430(ra) # 1aa7a <_ZN9allow_pin12full_dynamic17unshare_if_shared17h6cf91b2080959258E>
   118d4:	1868                	addi	a0,sp,60
   118d6:	00009097          	auipc	ra,0x9
   118da:	1a4080e7          	jalr	420(ra) # 1aa7a <_ZN9allow_pin12full_dynamic17unshare_if_shared17h6cf91b2080959258E>
   118de:	00198513          	addi	a0,s3,1
   118e2:	06300613          	li	a2,99
   118e6:	85ca                	mv	a1,s2
   118e8:	00009097          	auipc	ra,0x9
   118ec:	21c080e7          	jalr	540(ra) # 1ab04 <memcpy>
   118f0:	4501                	li	a0,0
   118f2:	b765                	j	1189a <_ZN20complex_full_dynamic3app17h0e2f77705d40451dE+0x9e>

000118f4 <_ZN20complex_full_dynamic3app17h0e827a8536d525f7E>:
   118f4:	7135                	addi	sp,sp,-160
   118f6:	cf06                	sw	ra,156(sp)
   118f8:	cd22                	sw	s0,152(sp)
   118fa:	cb26                	sw	s1,148(sp)
   118fc:	c94a                	sw	s2,144(sp)
   118fe:	c74e                	sw	s3,140(sp)
   11900:	89aa                	mv	s3,a0
   11902:	4409                	li	s0,2
   11904:	00810423          	sb	s0,8(sp)
   11908:	0064                	addi	s1,sp,12
   1190a:	05d00613          	li	a2,93
   1190e:	8526                	mv	a0,s1
   11910:	00009097          	auipc	ra,0x9
   11914:	1f4080e7          	jalr	500(ra) # 1ab04 <memcpy>
   11918:	07810913          	addi	s2,sp,120
   1191c:	4649                	li	a2,18
   1191e:	854a                	mv	a0,s2
   11920:	4581                	li	a1,0
   11922:	00009097          	auipc	ra,0x9
   11926:	176080e7          	jalr	374(ra) # 1aa98 <memset>
   1192a:	4581                	li	a1,0
   1192c:	8626                	mv	a2,s1
   1192e:	06810a23          	sb	s0,116(sp)
   11932:	6505                	lui	a0,0x1
   11934:	4491                	li	s1,4
   11936:	5f150793          	addi	a5,a0,1521 # 15f1 <.Lline_table_start1+0x13c6>
   1193a:	05d00693          	li	a3,93
   1193e:	4711                	li	a4,4
   11940:	853e                	mv	a0,a5
   11942:	00000073          	ecall
   11946:	04850263          	beq	a0,s0,1198a <_ZN20complex_full_dynamic3app17h0e827a8536d525f7E+0x96>
   1194a:	853e                	mv	a0,a5
   1194c:	864a                	mv	a2,s2
   1194e:	c03e                	sw	a5,0(sp)
   11950:	c202                	sw	zero,4(sp)
   11952:	00910423          	sb	s1,8(sp)
   11956:	448d                	li	s1,3
   11958:	4589                	li	a1,2
   1195a:	46c9                	li	a3,18
   1195c:	470d                	li	a4,3
   1195e:	00000073          	ecall
   11962:	02850463          	beq	a0,s0,1198a <_ZN20complex_full_dynamic3app17h0e827a8536d525f7E+0x96>
   11966:	4509                	li	a0,2
   11968:	6585                	lui	a1,0x1
   1196a:	4609                	li	a2,2
   1196c:	d6be                	sw	a5,108(sp)
   1196e:	d8aa                	sw	a0,112(sp)
   11970:	06910a23          	sb	s1,116(sp)
   11974:	5f158513          	addi	a0,a1,1521 # 15f1 <.Lline_table_start1+0x13c6>
   11978:	4709                	li	a4,2
   1197a:	07f00793          	li	a5,127
   1197e:	4581                	li	a1,0
   11980:	4681                	li	a3,0
   11982:	00000073          	ecall
   11986:	02a7e863          	bltu	a5,a0,119b6 <_ZN20complex_full_dynamic3app17h0e827a8536d525f7E+0xc2>
   1198a:	00b9a223          	sw	a1,4(s3)
   1198e:	4505                	li	a0,1
   11990:	00a98023          	sb	a0,0(s3)
   11994:	10e8                	addi	a0,sp,108
   11996:	00009097          	auipc	ra,0x9
   1199a:	0e4080e7          	jalr	228(ra) # 1aa7a <_ZN9allow_pin12full_dynamic17unshare_if_shared17h6cf91b2080959258E>
   1199e:	850a                	mv	a0,sp
   119a0:	00009097          	auipc	ra,0x9
   119a4:	0da080e7          	jalr	218(ra) # 1aa7a <_ZN9allow_pin12full_dynamic17unshare_if_shared17h6cf91b2080959258E>
   119a8:	40fa                	lw	ra,156(sp)
   119aa:	446a                	lw	s0,152(sp)
   119ac:	44da                	lw	s1,148(sp)
   119ae:	494a                	lw	s2,144(sp)
   119b0:	49ba                	lw	s3,140(sp)
   119b2:	610d                	addi	sp,sp,160
   119b4:	8082                	ret
   119b6:	850a                	mv	a0,sp
   119b8:	00009097          	auipc	ra,0x9
   119bc:	0c2080e7          	jalr	194(ra) # 1aa7a <_ZN9allow_pin12full_dynamic17unshare_if_shared17h6cf91b2080959258E>
   119c0:	10e8                	addi	a0,sp,108
   119c2:	00009097          	auipc	ra,0x9
   119c6:	0b8080e7          	jalr	184(ra) # 1aa7a <_ZN9allow_pin12full_dynamic17unshare_if_shared17h6cf91b2080959258E>
   119ca:	10e8                	addi	a0,sp,108
   119cc:	00009097          	auipc	ra,0x9
   119d0:	0ae080e7          	jalr	174(ra) # 1aa7a <_ZN9allow_pin12full_dynamic17unshare_if_shared17h6cf91b2080959258E>
   119d4:	00198513          	addi	a0,s3,1
   119d8:	4649                	li	a2,18
   119da:	85ca                	mv	a1,s2
   119dc:	00009097          	auipc	ra,0x9
   119e0:	128080e7          	jalr	296(ra) # 1ab04 <memcpy>
   119e4:	4501                	li	a0,0
   119e6:	b76d                	j	11990 <_ZN20complex_full_dynamic3app17h0e827a8536d525f7E+0x9c>

000119e8 <_ZN20complex_full_dynamic3app17h0fa7e95bda879acfE>:
   119e8:	7119                	addi	sp,sp,-128
   119ea:	de86                	sw	ra,124(sp)
   119ec:	dca2                	sw	s0,120(sp)
   119ee:	daa6                	sw	s1,116(sp)
   119f0:	d8ca                	sw	s2,112(sp)
   119f2:	d6ce                	sw	s3,108(sp)
   119f4:	89aa                	mv	s3,a0
   119f6:	4409                	li	s0,2
   119f8:	00810423          	sb	s0,8(sp)
   119fc:	0064                	addi	s1,sp,12
   119fe:	02500613          	li	a2,37
   11a02:	8526                	mv	a0,s1
   11a04:	00009097          	auipc	ra,0x9
   11a08:	100080e7          	jalr	256(ra) # 1ab04 <memcpy>
   11a0c:	04010913          	addi	s2,sp,64
   11a10:	02a00613          	li	a2,42
   11a14:	854a                	mv	a0,s2
   11a16:	4581                	li	a1,0
   11a18:	00009097          	auipc	ra,0x9
   11a1c:	080080e7          	jalr	128(ra) # 1aa98 <memset>
   11a20:	4581                	li	a1,0
   11a22:	8626                	mv	a2,s1
   11a24:	02810e23          	sb	s0,60(sp)
   11a28:	6505                	lui	a0,0x1
   11a2a:	4491                	li	s1,4
   11a2c:	93c50793          	addi	a5,a0,-1732 # 93c <.Lline_table_start1+0x711>
   11a30:	02500693          	li	a3,37
   11a34:	4711                	li	a4,4
   11a36:	853e                	mv	a0,a5
   11a38:	00000073          	ecall
   11a3c:	04850263          	beq	a0,s0,11a80 <_ZN20complex_full_dynamic3app17h0fa7e95bda879acfE+0x98>
   11a40:	853e                	mv	a0,a5
   11a42:	864a                	mv	a2,s2
   11a44:	c03e                	sw	a5,0(sp)
   11a46:	c202                	sw	zero,4(sp)
   11a48:	00910423          	sb	s1,8(sp)
   11a4c:	448d                	li	s1,3
   11a4e:	458d                	li	a1,3
   11a50:	02a00693          	li	a3,42
   11a54:	470d                	li	a4,3
   11a56:	00000073          	ecall
   11a5a:	02850363          	beq	a0,s0,11a80 <_ZN20complex_full_dynamic3app17h0fa7e95bda879acfE+0x98>
   11a5e:	da3e                	sw	a5,52(sp)
   11a60:	dc26                	sw	s1,56(sp)
   11a62:	02910e23          	sb	s1,60(sp)
   11a66:	6505                	lui	a0,0x1
   11a68:	460d                	li	a2,3
   11a6a:	93c50513          	addi	a0,a0,-1732 # 93c <.Lline_table_start1+0x711>
   11a6e:	4709                	li	a4,2
   11a70:	07f00793          	li	a5,127
   11a74:	4581                	li	a1,0
   11a76:	4681                	li	a3,0
   11a78:	00000073          	ecall
   11a7c:	02a7e863          	bltu	a5,a0,11aac <_ZN20complex_full_dynamic3app17h0fa7e95bda879acfE+0xc4>
   11a80:	00b9a223          	sw	a1,4(s3)
   11a84:	4505                	li	a0,1
   11a86:	00a98023          	sb	a0,0(s3)
   11a8a:	1848                	addi	a0,sp,52
   11a8c:	00009097          	auipc	ra,0x9
   11a90:	fee080e7          	jalr	-18(ra) # 1aa7a <_ZN9allow_pin12full_dynamic17unshare_if_shared17h6cf91b2080959258E>
   11a94:	850a                	mv	a0,sp
   11a96:	00009097          	auipc	ra,0x9
   11a9a:	fe4080e7          	jalr	-28(ra) # 1aa7a <_ZN9allow_pin12full_dynamic17unshare_if_shared17h6cf91b2080959258E>
   11a9e:	50f6                	lw	ra,124(sp)
   11aa0:	5466                	lw	s0,120(sp)
   11aa2:	54d6                	lw	s1,116(sp)
   11aa4:	5946                	lw	s2,112(sp)
   11aa6:	59b6                	lw	s3,108(sp)
   11aa8:	6109                	addi	sp,sp,128
   11aaa:	8082                	ret
   11aac:	850a                	mv	a0,sp
   11aae:	00009097          	auipc	ra,0x9
   11ab2:	fcc080e7          	jalr	-52(ra) # 1aa7a <_ZN9allow_pin12full_dynamic17unshare_if_shared17h6cf91b2080959258E>
   11ab6:	1848                	addi	a0,sp,52
   11ab8:	00009097          	auipc	ra,0x9
   11abc:	fc2080e7          	jalr	-62(ra) # 1aa7a <_ZN9allow_pin12full_dynamic17unshare_if_shared17h6cf91b2080959258E>
   11ac0:	1848                	addi	a0,sp,52
   11ac2:	00009097          	auipc	ra,0x9
   11ac6:	fb8080e7          	jalr	-72(ra) # 1aa7a <_ZN9allow_pin12full_dynamic17unshare_if_shared17h6cf91b2080959258E>
   11aca:	00198513          	addi	a0,s3,1
   11ace:	02a00613          	li	a2,42
   11ad2:	85ca                	mv	a1,s2
   11ad4:	00009097          	auipc	ra,0x9
   11ad8:	030080e7          	jalr	48(ra) # 1ab04 <memcpy>
   11adc:	4501                	li	a0,0
   11ade:	b765                	j	11a86 <_ZN20complex_full_dynamic3app17h0fa7e95bda879acfE+0x9e>

00011ae0 <_ZN20complex_full_dynamic3app17h10ce2fa0d2331d68E>:
   11ae0:	7119                	addi	sp,sp,-128
   11ae2:	de86                	sw	ra,124(sp)
   11ae4:	dca2                	sw	s0,120(sp)
   11ae6:	daa6                	sw	s1,116(sp)
   11ae8:	d8ca                	sw	s2,112(sp)
   11aea:	d6ce                	sw	s3,108(sp)
   11aec:	89aa                	mv	s3,a0
   11aee:	4409                	li	s0,2
   11af0:	00810a23          	sb	s0,20(sp)
   11af4:	0824                	addi	s1,sp,24
   11af6:	02700613          	li	a2,39
   11afa:	8526                	mv	a0,s1
   11afc:	00009097          	auipc	ra,0x9
   11b00:	008080e7          	jalr	8(ra) # 1ab04 <memcpy>
   11b04:	04c10913          	addi	s2,sp,76
   11b08:	4679                	li	a2,30
   11b0a:	854a                	mv	a0,s2
   11b0c:	4581                	li	a1,0
   11b0e:	00009097          	auipc	ra,0x9
   11b12:	f8a080e7          	jalr	-118(ra) # 1aa98 <memset>
   11b16:	8626                	mv	a2,s1
   11b18:	04810423          	sb	s0,72(sp)
   11b1c:	6505                	lui	a0,0x1
   11b1e:	448d                	li	s1,3
   11b20:	4811                	li	a6,4
   11b22:	458d                	li	a1,3
   11b24:	0e250793          	addi	a5,a0,226 # 10e2 <.Lline_table_start1+0xeb7>
   11b28:	02700693          	li	a3,39
   11b2c:	4711                	li	a4,4
   11b2e:	853e                	mv	a0,a5
   11b30:	00000073          	ecall
   11b34:	04850163          	beq	a0,s0,11b76 <_ZN20complex_full_dynamic3app17h10ce2fa0d2331d68E+0x96>
   11b38:	c63e                	sw	a5,12(sp)
   11b3a:	c826                	sw	s1,16(sp)
   11b3c:	01010a23          	sb	a6,20(sp)
   11b40:	458d                	li	a1,3
   11b42:	46f9                	li	a3,30
   11b44:	470d                	li	a4,3
   11b46:	853e                	mv	a0,a5
   11b48:	864a                	mv	a2,s2
   11b4a:	00000073          	ecall
   11b4e:	02850463          	beq	a0,s0,11b76 <_ZN20complex_full_dynamic3app17h10ce2fa0d2331d68E+0x96>
   11b52:	450d                	li	a0,3
   11b54:	6685                	lui	a3,0x1
   11b56:	458d                	li	a1,3
   11b58:	460d                	li	a2,3
   11b5a:	c0be                	sw	a5,64(sp)
   11b5c:	c2aa                	sw	a0,68(sp)
   11b5e:	04a10423          	sb	a0,72(sp)
   11b62:	0e268513          	addi	a0,a3,226 # 10e2 <.Lline_table_start1+0xeb7>
   11b66:	4709                	li	a4,2
   11b68:	07f00793          	li	a5,127
   11b6c:	4681                	li	a3,0
   11b6e:	00000073          	ecall
   11b72:	02a7e863          	bltu	a5,a0,11ba2 <_ZN20complex_full_dynamic3app17h10ce2fa0d2331d68E+0xc2>
   11b76:	00b9a223          	sw	a1,4(s3)
   11b7a:	4505                	li	a0,1
   11b7c:	00a98023          	sb	a0,0(s3)
   11b80:	0088                	addi	a0,sp,64
   11b82:	00009097          	auipc	ra,0x9
   11b86:	ef8080e7          	jalr	-264(ra) # 1aa7a <_ZN9allow_pin12full_dynamic17unshare_if_shared17h6cf91b2080959258E>
   11b8a:	0068                	addi	a0,sp,12
   11b8c:	00009097          	auipc	ra,0x9
   11b90:	eee080e7          	jalr	-274(ra) # 1aa7a <_ZN9allow_pin12full_dynamic17unshare_if_shared17h6cf91b2080959258E>
   11b94:	50f6                	lw	ra,124(sp)
   11b96:	5466                	lw	s0,120(sp)
   11b98:	54d6                	lw	s1,116(sp)
   11b9a:	5946                	lw	s2,112(sp)
   11b9c:	59b6                	lw	s3,108(sp)
   11b9e:	6109                	addi	sp,sp,128
   11ba0:	8082                	ret
   11ba2:	0068                	addi	a0,sp,12
   11ba4:	00009097          	auipc	ra,0x9
   11ba8:	ed6080e7          	jalr	-298(ra) # 1aa7a <_ZN9allow_pin12full_dynamic17unshare_if_shared17h6cf91b2080959258E>
   11bac:	0088                	addi	a0,sp,64
   11bae:	00009097          	auipc	ra,0x9
   11bb2:	ecc080e7          	jalr	-308(ra) # 1aa7a <_ZN9allow_pin12full_dynamic17unshare_if_shared17h6cf91b2080959258E>
   11bb6:	0088                	addi	a0,sp,64
   11bb8:	00009097          	auipc	ra,0x9
   11bbc:	ec2080e7          	jalr	-318(ra) # 1aa7a <_ZN9allow_pin12full_dynamic17unshare_if_shared17h6cf91b2080959258E>
   11bc0:	00198513          	addi	a0,s3,1
   11bc4:	4679                	li	a2,30
   11bc6:	85ca                	mv	a1,s2
   11bc8:	00009097          	auipc	ra,0x9
   11bcc:	f3c080e7          	jalr	-196(ra) # 1ab04 <memcpy>
   11bd0:	4501                	li	a0,0
   11bd2:	b76d                	j	11b7c <_ZN20complex_full_dynamic3app17h10ce2fa0d2331d68E+0x9c>

00011bd4 <_ZN20complex_full_dynamic3app17h11ce49773bf30db0E>:
   11bd4:	7135                	addi	sp,sp,-160
   11bd6:	cf06                	sw	ra,156(sp)
   11bd8:	cd22                	sw	s0,152(sp)
   11bda:	cb26                	sw	s1,148(sp)
   11bdc:	c94a                	sw	s2,144(sp)
   11bde:	c74e                	sw	s3,140(sp)
   11be0:	89aa                	mv	s3,a0
   11be2:	4409                	li	s0,2
   11be4:	00810823          	sb	s0,16(sp)
   11be8:	0844                	addi	s1,sp,20
   11bea:	03600613          	li	a2,54
   11bee:	8526                	mv	a0,s1
   11bf0:	00009097          	auipc	ra,0x9
   11bf4:	f14080e7          	jalr	-236(ra) # 1ab04 <memcpy>
   11bf8:	05810913          	addi	s2,sp,88
   11bfc:	03400613          	li	a2,52
   11c00:	854a                	mv	a0,s2
   11c02:	4581                	li	a1,0
   11c04:	00009097          	auipc	ra,0x9
   11c08:	e94080e7          	jalr	-364(ra) # 1aa98 <memset>
   11c0c:	8626                	mv	a2,s1
   11c0e:	04810a23          	sb	s0,84(sp)
   11c12:	6509                	lui	a0,0x2
   11c14:	4491                	li	s1,4
   11c16:	4591                	li	a1,4
   11c18:	3c650793          	addi	a5,a0,966 # 23c6 <.Lline_table_start1+0x219b>
   11c1c:	03600693          	li	a3,54
   11c20:	4711                	li	a4,4
   11c22:	853e                	mv	a0,a5
   11c24:	00000073          	ecall
   11c28:	04850363          	beq	a0,s0,11c6e <_ZN20complex_full_dynamic3app17h11ce49773bf30db0E+0x9a>
   11c2c:	853e                	mv	a0,a5
   11c2e:	864a                	mv	a2,s2
   11c30:	c43e                	sw	a5,8(sp)
   11c32:	c626                	sw	s1,12(sp)
   11c34:	00910823          	sb	s1,16(sp)
   11c38:	448d                	li	s1,3
   11c3a:	4589                	li	a1,2
   11c3c:	03400693          	li	a3,52
   11c40:	470d                	li	a4,3
   11c42:	00000073          	ecall
   11c46:	02850463          	beq	a0,s0,11c6e <_ZN20complex_full_dynamic3app17h11ce49773bf30db0E+0x9a>
   11c4a:	4509                	li	a0,2
   11c4c:	6689                	lui	a3,0x2
   11c4e:	4591                	li	a1,4
   11c50:	4609                	li	a2,2
   11c52:	c6be                	sw	a5,76(sp)
   11c54:	c8aa                	sw	a0,80(sp)
   11c56:	04910a23          	sb	s1,84(sp)
   11c5a:	3c668513          	addi	a0,a3,966 # 23c6 <.Lline_table_start1+0x219b>
   11c5e:	4709                	li	a4,2
   11c60:	07f00793          	li	a5,127
   11c64:	4681                	li	a3,0
   11c66:	00000073          	ecall
   11c6a:	02a7e863          	bltu	a5,a0,11c9a <_ZN20complex_full_dynamic3app17h11ce49773bf30db0E+0xc6>
   11c6e:	00b9a223          	sw	a1,4(s3)
   11c72:	4505                	li	a0,1
   11c74:	00a98023          	sb	a0,0(s3)
   11c78:	00e8                	addi	a0,sp,76
   11c7a:	00009097          	auipc	ra,0x9
   11c7e:	e00080e7          	jalr	-512(ra) # 1aa7a <_ZN9allow_pin12full_dynamic17unshare_if_shared17h6cf91b2080959258E>
   11c82:	0028                	addi	a0,sp,8
   11c84:	00009097          	auipc	ra,0x9
   11c88:	df6080e7          	jalr	-522(ra) # 1aa7a <_ZN9allow_pin12full_dynamic17unshare_if_shared17h6cf91b2080959258E>
   11c8c:	40fa                	lw	ra,156(sp)
   11c8e:	446a                	lw	s0,152(sp)
   11c90:	44da                	lw	s1,148(sp)
   11c92:	494a                	lw	s2,144(sp)
   11c94:	49ba                	lw	s3,140(sp)
   11c96:	610d                	addi	sp,sp,160
   11c98:	8082                	ret
   11c9a:	0028                	addi	a0,sp,8
   11c9c:	00009097          	auipc	ra,0x9
   11ca0:	dde080e7          	jalr	-546(ra) # 1aa7a <_ZN9allow_pin12full_dynamic17unshare_if_shared17h6cf91b2080959258E>
   11ca4:	00e8                	addi	a0,sp,76
   11ca6:	00009097          	auipc	ra,0x9
   11caa:	dd4080e7          	jalr	-556(ra) # 1aa7a <_ZN9allow_pin12full_dynamic17unshare_if_shared17h6cf91b2080959258E>
   11cae:	00e8                	addi	a0,sp,76
   11cb0:	00009097          	auipc	ra,0x9
   11cb4:	dca080e7          	jalr	-566(ra) # 1aa7a <_ZN9allow_pin12full_dynamic17unshare_if_shared17h6cf91b2080959258E>
   11cb8:	00198513          	addi	a0,s3,1
   11cbc:	03400613          	li	a2,52
   11cc0:	85ca                	mv	a1,s2
   11cc2:	00009097          	auipc	ra,0x9
   11cc6:	e42080e7          	jalr	-446(ra) # 1ab04 <memcpy>
   11cca:	4501                	li	a0,0
   11ccc:	b765                	j	11c74 <_ZN20complex_full_dynamic3app17h11ce49773bf30db0E+0xa0>

00011cce <_ZN20complex_full_dynamic3app17h12fc721522023056E>:
   11cce:	7135                	addi	sp,sp,-160
   11cd0:	cf06                	sw	ra,156(sp)
   11cd2:	cd22                	sw	s0,152(sp)
   11cd4:	cb26                	sw	s1,148(sp)
   11cd6:	c94a                	sw	s2,144(sp)
   11cd8:	c74e                	sw	s3,140(sp)
   11cda:	89aa                	mv	s3,a0
   11cdc:	4409                	li	s0,2
   11cde:	00810823          	sb	s0,16(sp)
   11ce2:	0844                	addi	s1,sp,20
   11ce4:	464d                	li	a2,19
   11ce6:	8526                	mv	a0,s1
   11ce8:	00009097          	auipc	ra,0x9
   11cec:	e1c080e7          	jalr	-484(ra) # 1ab04 <memcpy>
   11cf0:	03410913          	addi	s2,sp,52
   11cf4:	05500613          	li	a2,85
   11cf8:	854a                	mv	a0,s2
   11cfa:	4581                	li	a1,0
   11cfc:	00009097          	auipc	ra,0x9
   11d00:	d9c080e7          	jalr	-612(ra) # 1aa98 <memset>
   11d04:	8626                	mv	a2,s1
   11d06:	02810823          	sb	s0,48(sp)
   11d0a:	32e00793          	li	a5,814
   11d0e:	44a5                	li	s1,9
   11d10:	4811                	li	a6,4
   11d12:	32e00513          	li	a0,814
   11d16:	45a5                	li	a1,9
   11d18:	46cd                	li	a3,19
   11d1a:	4711                	li	a4,4
   11d1c:	00000073          	ecall
   11d20:	04850563          	beq	a0,s0,11d6a <_ZN20complex_full_dynamic3app17h12fc721522023056E+0x9c>
   11d24:	864a                	mv	a2,s2
   11d26:	c43e                	sw	a5,8(sp)
   11d28:	c626                	sw	s1,12(sp)
   11d2a:	01010823          	sb	a6,16(sp)
   11d2e:	479d                	li	a5,7
   11d30:	448d                	li	s1,3
   11d32:	32e00513          	li	a0,814
   11d36:	459d                	li	a1,7
   11d38:	05500693          	li	a3,85
   11d3c:	470d                	li	a4,3
   11d3e:	00000073          	ecall
   11d42:	02850463          	beq	a0,s0,11d6a <_ZN20complex_full_dynamic3app17h12fc721522023056E+0x9c>
   11d46:	32e00693          	li	a3,814
   11d4a:	32e00513          	li	a0,814
   11d4e:	45a5                	li	a1,9
   11d50:	461d                	li	a2,7
   11d52:	4709                	li	a4,2
   11d54:	07f00413          	li	s0,127
   11d58:	d436                	sw	a3,40(sp)
   11d5a:	d63e                	sw	a5,44(sp)
   11d5c:	02910823          	sb	s1,48(sp)
   11d60:	4681                	li	a3,0
   11d62:	00000073          	ecall
   11d66:	02a46863          	bltu	s0,a0,11d96 <_ZN20complex_full_dynamic3app17h12fc721522023056E+0xc8>
   11d6a:	00b9a223          	sw	a1,4(s3)
   11d6e:	4505                	li	a0,1
   11d70:	00a98023          	sb	a0,0(s3)
   11d74:	1028                	addi	a0,sp,40
   11d76:	00009097          	auipc	ra,0x9
   11d7a:	d04080e7          	jalr	-764(ra) # 1aa7a <_ZN9allow_pin12full_dynamic17unshare_if_shared17h6cf91b2080959258E>
   11d7e:	0028                	addi	a0,sp,8
   11d80:	00009097          	auipc	ra,0x9
   11d84:	cfa080e7          	jalr	-774(ra) # 1aa7a <_ZN9allow_pin12full_dynamic17unshare_if_shared17h6cf91b2080959258E>
   11d88:	40fa                	lw	ra,156(sp)
   11d8a:	446a                	lw	s0,152(sp)
   11d8c:	44da                	lw	s1,148(sp)
   11d8e:	494a                	lw	s2,144(sp)
   11d90:	49ba                	lw	s3,140(sp)
   11d92:	610d                	addi	sp,sp,160
   11d94:	8082                	ret
   11d96:	0028                	addi	a0,sp,8
   11d98:	00009097          	auipc	ra,0x9
   11d9c:	ce2080e7          	jalr	-798(ra) # 1aa7a <_ZN9allow_pin12full_dynamic17unshare_if_shared17h6cf91b2080959258E>
   11da0:	1028                	addi	a0,sp,40
   11da2:	00009097          	auipc	ra,0x9
   11da6:	cd8080e7          	jalr	-808(ra) # 1aa7a <_ZN9allow_pin12full_dynamic17unshare_if_shared17h6cf91b2080959258E>
   11daa:	1028                	addi	a0,sp,40
   11dac:	00009097          	auipc	ra,0x9
   11db0:	cce080e7          	jalr	-818(ra) # 1aa7a <_ZN9allow_pin12full_dynamic17unshare_if_shared17h6cf91b2080959258E>
   11db4:	00198513          	addi	a0,s3,1
   11db8:	05500613          	li	a2,85
   11dbc:	85ca                	mv	a1,s2
   11dbe:	00009097          	auipc	ra,0x9
   11dc2:	d46080e7          	jalr	-698(ra) # 1ab04 <memcpy>
   11dc6:	4501                	li	a0,0
   11dc8:	b765                	j	11d70 <_ZN20complex_full_dynamic3app17h12fc721522023056E+0xa2>

00011dca <_ZN20complex_full_dynamic3app17h13415794f754b317E>:
   11dca:	7151                	addi	sp,sp,-240
   11dcc:	d786                	sw	ra,236(sp)
   11dce:	d5a2                	sw	s0,232(sp)
   11dd0:	d3a6                	sw	s1,228(sp)
   11dd2:	d1ca                	sw	s2,224(sp)
   11dd4:	cfce                	sw	s3,220(sp)
   11dd6:	89aa                	mv	s3,a0
   11dd8:	4409                	li	s0,2
   11dda:	00810a23          	sb	s0,20(sp)
   11dde:	0824                	addi	s1,sp,24
   11de0:	05e00613          	li	a2,94
   11de4:	8526                	mv	a0,s1
   11de6:	00009097          	auipc	ra,0x9
   11dea:	d1e080e7          	jalr	-738(ra) # 1ab04 <memcpy>
   11dee:	08410913          	addi	s2,sp,132
   11df2:	05500613          	li	a2,85
   11df6:	854a                	mv	a0,s2
   11df8:	4581                	li	a1,0
   11dfa:	00009097          	auipc	ra,0x9
   11dfe:	c9e080e7          	jalr	-866(ra) # 1aa98 <memset>
   11e02:	8626                	mv	a2,s1
   11e04:	08810023          	sb	s0,128(sp)
   11e08:	6505                	lui	a0,0x1
   11e0a:	449d                	li	s1,7
   11e0c:	4811                	li	a6,4
   11e0e:	459d                	li	a1,7
   11e10:	78a50793          	addi	a5,a0,1930 # 178a <.Lline_table_start1+0x155f>
   11e14:	05e00693          	li	a3,94
   11e18:	4711                	li	a4,4
   11e1a:	853e                	mv	a0,a5
   11e1c:	00000073          	ecall
   11e20:	04850263          	beq	a0,s0,11e64 <_ZN20complex_full_dynamic3app17h13415794f754b317E+0x9a>
   11e24:	853e                	mv	a0,a5
   11e26:	864a                	mv	a2,s2
   11e28:	c63e                	sw	a5,12(sp)
   11e2a:	c826                	sw	s1,16(sp)
   11e2c:	01010a23          	sb	a6,20(sp)
   11e30:	448d                	li	s1,3
   11e32:	458d                	li	a1,3
   11e34:	05500693          	li	a3,85
   11e38:	470d                	li	a4,3
   11e3a:	00000073          	ecall
   11e3e:	02850363          	beq	a0,s0,11e64 <_ZN20complex_full_dynamic3app17h13415794f754b317E+0x9a>
   11e42:	dcbe                	sw	a5,120(sp)
   11e44:	dea6                	sw	s1,124(sp)
   11e46:	08910023          	sb	s1,128(sp)
   11e4a:	6505                	lui	a0,0x1
   11e4c:	459d                	li	a1,7
   11e4e:	460d                	li	a2,3
   11e50:	78a50513          	addi	a0,a0,1930 # 178a <.Lline_table_start1+0x155f>
   11e54:	4709                	li	a4,2
   11e56:	07f00793          	li	a5,127
   11e5a:	4681                	li	a3,0
   11e5c:	00000073          	ecall
   11e60:	02a7e863          	bltu	a5,a0,11e90 <_ZN20complex_full_dynamic3app17h13415794f754b317E+0xc6>
   11e64:	00b9a223          	sw	a1,4(s3)
   11e68:	4505                	li	a0,1
   11e6a:	00a98023          	sb	a0,0(s3)
   11e6e:	18a8                	addi	a0,sp,120
   11e70:	00009097          	auipc	ra,0x9
   11e74:	c0a080e7          	jalr	-1014(ra) # 1aa7a <_ZN9allow_pin12full_dynamic17unshare_if_shared17h6cf91b2080959258E>
   11e78:	0068                	addi	a0,sp,12
   11e7a:	00009097          	auipc	ra,0x9
   11e7e:	c00080e7          	jalr	-1024(ra) # 1aa7a <_ZN9allow_pin12full_dynamic17unshare_if_shared17h6cf91b2080959258E>
   11e82:	50be                	lw	ra,236(sp)
   11e84:	542e                	lw	s0,232(sp)
   11e86:	549e                	lw	s1,228(sp)
   11e88:	590e                	lw	s2,224(sp)
   11e8a:	49fe                	lw	s3,220(sp)
   11e8c:	616d                	addi	sp,sp,240
   11e8e:	8082                	ret
   11e90:	0068                	addi	a0,sp,12
   11e92:	00009097          	auipc	ra,0x9
   11e96:	be8080e7          	jalr	-1048(ra) # 1aa7a <_ZN9allow_pin12full_dynamic17unshare_if_shared17h6cf91b2080959258E>
   11e9a:	18a8                	addi	a0,sp,120
   11e9c:	00009097          	auipc	ra,0x9
   11ea0:	bde080e7          	jalr	-1058(ra) # 1aa7a <_ZN9allow_pin12full_dynamic17unshare_if_shared17h6cf91b2080959258E>
   11ea4:	18a8                	addi	a0,sp,120
   11ea6:	00009097          	auipc	ra,0x9
   11eaa:	bd4080e7          	jalr	-1068(ra) # 1aa7a <_ZN9allow_pin12full_dynamic17unshare_if_shared17h6cf91b2080959258E>
   11eae:	00198513          	addi	a0,s3,1
   11eb2:	05500613          	li	a2,85
   11eb6:	85ca                	mv	a1,s2
   11eb8:	00009097          	auipc	ra,0x9
   11ebc:	c4c080e7          	jalr	-948(ra) # 1ab04 <memcpy>
   11ec0:	4501                	li	a0,0
   11ec2:	b765                	j	11e6a <_ZN20complex_full_dynamic3app17h13415794f754b317E+0xa0>

00011ec4 <_ZN20complex_full_dynamic3app17h15c6c467ec0eaa19E>:
   11ec4:	7171                	addi	sp,sp,-176
   11ec6:	d706                	sw	ra,172(sp)
   11ec8:	d522                	sw	s0,168(sp)
   11eca:	d326                	sw	s1,164(sp)
   11ecc:	d14a                	sw	s2,160(sp)
   11ece:	cf4e                	sw	s3,156(sp)
   11ed0:	89aa                	mv	s3,a0
   11ed2:	4409                	li	s0,2
   11ed4:	00810a23          	sb	s0,20(sp)
   11ed8:	0824                	addi	s1,sp,24
   11eda:	02700613          	li	a2,39
   11ede:	8526                	mv	a0,s1
   11ee0:	00009097          	auipc	ra,0x9
   11ee4:	c24080e7          	jalr	-988(ra) # 1ab04 <memcpy>
   11ee8:	04c10913          	addi	s2,sp,76
   11eec:	04f00613          	li	a2,79
   11ef0:	854a                	mv	a0,s2
   11ef2:	4581                	li	a1,0
   11ef4:	00009097          	auipc	ra,0x9
   11ef8:	ba4080e7          	jalr	-1116(ra) # 1aa98 <memset>
   11efc:	8626                	mv	a2,s1
   11efe:	04810423          	sb	s0,72(sp)
   11f02:	6505                	lui	a0,0x1
   11f04:	44a5                	li	s1,9
   11f06:	4811                	li	a6,4
   11f08:	45a5                	li	a1,9
   11f0a:	b4c50793          	addi	a5,a0,-1204 # b4c <.Lline_table_start1+0x921>
   11f0e:	02700693          	li	a3,39
   11f12:	4711                	li	a4,4
   11f14:	853e                	mv	a0,a5
   11f16:	00000073          	ecall
   11f1a:	04850263          	beq	a0,s0,11f5e <_ZN20complex_full_dynamic3app17h15c6c467ec0eaa19E+0x9a>
   11f1e:	853e                	mv	a0,a5
   11f20:	4581                	li	a1,0
   11f22:	864a                	mv	a2,s2
   11f24:	c63e                	sw	a5,12(sp)
   11f26:	c826                	sw	s1,16(sp)
   11f28:	01010a23          	sb	a6,20(sp)
   11f2c:	448d                	li	s1,3
   11f2e:	04f00693          	li	a3,79
   11f32:	470d                	li	a4,3
   11f34:	00000073          	ecall
   11f38:	02850363          	beq	a0,s0,11f5e <_ZN20complex_full_dynamic3app17h15c6c467ec0eaa19E+0x9a>
   11f3c:	c0be                	sw	a5,64(sp)
   11f3e:	c282                	sw	zero,68(sp)
   11f40:	04910423          	sb	s1,72(sp)
   11f44:	6505                	lui	a0,0x1
   11f46:	45a5                	li	a1,9
   11f48:	b4c50513          	addi	a0,a0,-1204 # b4c <.Lline_table_start1+0x921>
   11f4c:	4709                	li	a4,2
   11f4e:	07f00793          	li	a5,127
   11f52:	4601                	li	a2,0
   11f54:	4681                	li	a3,0
   11f56:	00000073          	ecall
   11f5a:	02a7e863          	bltu	a5,a0,11f8a <_ZN20complex_full_dynamic3app17h15c6c467ec0eaa19E+0xc6>
   11f5e:	00b9a223          	sw	a1,4(s3)
   11f62:	4505                	li	a0,1
   11f64:	00a98023          	sb	a0,0(s3)
   11f68:	0088                	addi	a0,sp,64
   11f6a:	00009097          	auipc	ra,0x9
   11f6e:	b10080e7          	jalr	-1264(ra) # 1aa7a <_ZN9allow_pin12full_dynamic17unshare_if_shared17h6cf91b2080959258E>
   11f72:	0068                	addi	a0,sp,12
   11f74:	00009097          	auipc	ra,0x9
   11f78:	b06080e7          	jalr	-1274(ra) # 1aa7a <_ZN9allow_pin12full_dynamic17unshare_if_shared17h6cf91b2080959258E>
   11f7c:	50ba                	lw	ra,172(sp)
   11f7e:	542a                	lw	s0,168(sp)
   11f80:	549a                	lw	s1,164(sp)
   11f82:	590a                	lw	s2,160(sp)
   11f84:	49fa                	lw	s3,156(sp)
   11f86:	614d                	addi	sp,sp,176
   11f88:	8082                	ret
   11f8a:	0068                	addi	a0,sp,12
   11f8c:	00009097          	auipc	ra,0x9
   11f90:	aee080e7          	jalr	-1298(ra) # 1aa7a <_ZN9allow_pin12full_dynamic17unshare_if_shared17h6cf91b2080959258E>
   11f94:	0088                	addi	a0,sp,64
   11f96:	00009097          	auipc	ra,0x9
   11f9a:	ae4080e7          	jalr	-1308(ra) # 1aa7a <_ZN9allow_pin12full_dynamic17unshare_if_shared17h6cf91b2080959258E>
   11f9e:	0088                	addi	a0,sp,64
   11fa0:	00009097          	auipc	ra,0x9
   11fa4:	ada080e7          	jalr	-1318(ra) # 1aa7a <_ZN9allow_pin12full_dynamic17unshare_if_shared17h6cf91b2080959258E>
   11fa8:	00198513          	addi	a0,s3,1
   11fac:	04f00613          	li	a2,79
   11fb0:	85ca                	mv	a1,s2
   11fb2:	00009097          	auipc	ra,0x9
   11fb6:	b52080e7          	jalr	-1198(ra) # 1ab04 <memcpy>
   11fba:	4501                	li	a0,0
   11fbc:	b765                	j	11f64 <_ZN20complex_full_dynamic3app17h15c6c467ec0eaa19E+0xa0>

00011fbe <_ZN20complex_full_dynamic3app17h1a92b57070d6646dE>:
   11fbe:	7135                	addi	sp,sp,-160
   11fc0:	cf06                	sw	ra,156(sp)
   11fc2:	cd22                	sw	s0,152(sp)
   11fc4:	cb26                	sw	s1,148(sp)
   11fc6:	c94a                	sw	s2,144(sp)
   11fc8:	c74e                	sw	s3,140(sp)
   11fca:	89aa                	mv	s3,a0
   11fcc:	4409                	li	s0,2
   11fce:	00810823          	sb	s0,16(sp)
   11fd2:	0844                	addi	s1,sp,20
   11fd4:	03800613          	li	a2,56
   11fd8:	8526                	mv	a0,s1
   11fda:	00009097          	auipc	ra,0x9
   11fde:	b2a080e7          	jalr	-1238(ra) # 1ab04 <memcpy>
   11fe2:	05810913          	addi	s2,sp,88
   11fe6:	03400613          	li	a2,52
   11fea:	854a                	mv	a0,s2
   11fec:	4581                	li	a1,0
   11fee:	00009097          	auipc	ra,0x9
   11ff2:	aaa080e7          	jalr	-1366(ra) # 1aa98 <memset>
   11ff6:	8626                	mv	a2,s1
   11ff8:	04810a23          	sb	s0,84(sp)
   11ffc:	12e00793          	li	a5,302
   12000:	44a1                	li	s1,8
   12002:	4811                	li	a6,4
   12004:	12e00513          	li	a0,302
   12008:	45a1                	li	a1,8
   1200a:	03800693          	li	a3,56
   1200e:	4711                	li	a4,4
   12010:	00000073          	ecall
   12014:	04850463          	beq	a0,s0,1205c <_ZN20complex_full_dynamic3app17h1a92b57070d6646dE+0x9e>
   12018:	864a                	mv	a2,s2
   1201a:	c43e                	sw	a5,8(sp)
   1201c:	c626                	sw	s1,12(sp)
   1201e:	01010823          	sb	a6,16(sp)
   12022:	478d                	li	a5,3
   12024:	12e00513          	li	a0,302
   12028:	458d                	li	a1,3
   1202a:	03400693          	li	a3,52
   1202e:	470d                	li	a4,3
   12030:	00000073          	ecall
   12034:	02850463          	beq	a0,s0,1205c <_ZN20complex_full_dynamic3app17h1a92b57070d6646dE+0x9e>
   12038:	12e00693          	li	a3,302
   1203c:	12e00513          	li	a0,302
   12040:	45a1                	li	a1,8
   12042:	460d                	li	a2,3
   12044:	4709                	li	a4,2
   12046:	07f00493          	li	s1,127
   1204a:	c6b6                	sw	a3,76(sp)
   1204c:	c8be                	sw	a5,80(sp)
   1204e:	04f10a23          	sb	a5,84(sp)
   12052:	4681                	li	a3,0
   12054:	00000073          	ecall
   12058:	02a4e863          	bltu	s1,a0,12088 <_ZN20complex_full_dynamic3app17h1a92b57070d6646dE+0xca>
   1205c:	00b9a223          	sw	a1,4(s3)
   12060:	4505                	li	a0,1
   12062:	00a98023          	sb	a0,0(s3)
   12066:	00e8                	addi	a0,sp,76
   12068:	00009097          	auipc	ra,0x9
   1206c:	a12080e7          	jalr	-1518(ra) # 1aa7a <_ZN9allow_pin12full_dynamic17unshare_if_shared17h6cf91b2080959258E>
   12070:	0028                	addi	a0,sp,8
   12072:	00009097          	auipc	ra,0x9
   12076:	a08080e7          	jalr	-1528(ra) # 1aa7a <_ZN9allow_pin12full_dynamic17unshare_if_shared17h6cf91b2080959258E>
   1207a:	40fa                	lw	ra,156(sp)
   1207c:	446a                	lw	s0,152(sp)
   1207e:	44da                	lw	s1,148(sp)
   12080:	494a                	lw	s2,144(sp)
   12082:	49ba                	lw	s3,140(sp)
   12084:	610d                	addi	sp,sp,160
   12086:	8082                	ret
   12088:	0028                	addi	a0,sp,8
   1208a:	00009097          	auipc	ra,0x9
   1208e:	9f0080e7          	jalr	-1552(ra) # 1aa7a <_ZN9allow_pin12full_dynamic17unshare_if_shared17h6cf91b2080959258E>
   12092:	00e8                	addi	a0,sp,76
   12094:	00009097          	auipc	ra,0x9
   12098:	9e6080e7          	jalr	-1562(ra) # 1aa7a <_ZN9allow_pin12full_dynamic17unshare_if_shared17h6cf91b2080959258E>
   1209c:	00e8                	addi	a0,sp,76
   1209e:	00009097          	auipc	ra,0x9
   120a2:	9dc080e7          	jalr	-1572(ra) # 1aa7a <_ZN9allow_pin12full_dynamic17unshare_if_shared17h6cf91b2080959258E>
   120a6:	00198513          	addi	a0,s3,1
   120aa:	03400613          	li	a2,52
   120ae:	85ca                	mv	a1,s2
   120b0:	00009097          	auipc	ra,0x9
   120b4:	a54080e7          	jalr	-1452(ra) # 1ab04 <memcpy>
   120b8:	4501                	li	a0,0
   120ba:	b765                	j	12062 <_ZN20complex_full_dynamic3app17h1a92b57070d6646dE+0xa4>

000120bc <_ZN20complex_full_dynamic3app17h1c4f482abdbc0ffaE>:
   120bc:	7175                	addi	sp,sp,-144
   120be:	c706                	sw	ra,140(sp)
   120c0:	c522                	sw	s0,136(sp)
   120c2:	c326                	sw	s1,132(sp)
   120c4:	c14a                	sw	s2,128(sp)
   120c6:	dece                	sw	s3,124(sp)
   120c8:	89aa                	mv	s3,a0
   120ca:	4409                	li	s0,2
   120cc:	00810a23          	sb	s0,20(sp)
   120d0:	0824                	addi	s1,sp,24
   120d2:	4649                	li	a2,18
   120d4:	8526                	mv	a0,s1
   120d6:	00009097          	auipc	ra,0x9
   120da:	a2e080e7          	jalr	-1490(ra) # 1ab04 <memcpy>
   120de:	03810913          	addi	s2,sp,56
   120e2:	04400613          	li	a2,68
   120e6:	854a                	mv	a0,s2
   120e8:	4581                	li	a1,0
   120ea:	00009097          	auipc	ra,0x9
   120ee:	9ae080e7          	jalr	-1618(ra) # 1aa98 <memset>
   120f2:	8626                	mv	a2,s1
   120f4:	02810a23          	sb	s0,52(sp)
   120f8:	6509                	lui	a0,0x2
   120fa:	4491                	li	s1,4
   120fc:	4589                	li	a1,2
   120fe:	43250793          	addi	a5,a0,1074 # 2432 <.Lline_table_start1+0x2207>
   12102:	46c9                	li	a3,18
   12104:	4711                	li	a4,4
   12106:	853e                	mv	a0,a5
   12108:	00000073          	ecall
   1210c:	04850363          	beq	a0,s0,12152 <_ZN20complex_full_dynamic3app17h1c4f482abdbc0ffaE+0x96>
   12110:	853e                	mv	a0,a5
   12112:	864a                	mv	a2,s2
   12114:	c63e                	sw	a5,12(sp)
   12116:	c822                	sw	s0,16(sp)
   12118:	00910a23          	sb	s1,20(sp)
   1211c:	44a5                	li	s1,9
   1211e:	480d                	li	a6,3
   12120:	45a5                	li	a1,9
   12122:	04400693          	li	a3,68
   12126:	470d                	li	a4,3
   12128:	00000073          	ecall
   1212c:	02850363          	beq	a0,s0,12152 <_ZN20complex_full_dynamic3app17h1c4f482abdbc0ffaE+0x96>
   12130:	d63e                	sw	a5,44(sp)
   12132:	d826                	sw	s1,48(sp)
   12134:	03010a23          	sb	a6,52(sp)
   12138:	6509                	lui	a0,0x2
   1213a:	4589                	li	a1,2
   1213c:	4625                	li	a2,9
   1213e:	43250513          	addi	a0,a0,1074 # 2432 <.Lline_table_start1+0x2207>
   12142:	4709                	li	a4,2
   12144:	07f00793          	li	a5,127
   12148:	4681                	li	a3,0
   1214a:	00000073          	ecall
   1214e:	02a7e863          	bltu	a5,a0,1217e <_ZN20complex_full_dynamic3app17h1c4f482abdbc0ffaE+0xc2>
   12152:	00b9a223          	sw	a1,4(s3)
   12156:	4505                	li	a0,1
   12158:	00a98023          	sb	a0,0(s3)
   1215c:	1068                	addi	a0,sp,44
   1215e:	00009097          	auipc	ra,0x9
   12162:	91c080e7          	jalr	-1764(ra) # 1aa7a <_ZN9allow_pin12full_dynamic17unshare_if_shared17h6cf91b2080959258E>
   12166:	0068                	addi	a0,sp,12
   12168:	00009097          	auipc	ra,0x9
   1216c:	912080e7          	jalr	-1774(ra) # 1aa7a <_ZN9allow_pin12full_dynamic17unshare_if_shared17h6cf91b2080959258E>
   12170:	40ba                	lw	ra,140(sp)
   12172:	442a                	lw	s0,136(sp)
   12174:	449a                	lw	s1,132(sp)
   12176:	490a                	lw	s2,128(sp)
   12178:	59f6                	lw	s3,124(sp)
   1217a:	6149                	addi	sp,sp,144
   1217c:	8082                	ret
   1217e:	0068                	addi	a0,sp,12
   12180:	00009097          	auipc	ra,0x9
   12184:	8fa080e7          	jalr	-1798(ra) # 1aa7a <_ZN9allow_pin12full_dynamic17unshare_if_shared17h6cf91b2080959258E>
   12188:	1068                	addi	a0,sp,44
   1218a:	00009097          	auipc	ra,0x9
   1218e:	8f0080e7          	jalr	-1808(ra) # 1aa7a <_ZN9allow_pin12full_dynamic17unshare_if_shared17h6cf91b2080959258E>
   12192:	1068                	addi	a0,sp,44
   12194:	00009097          	auipc	ra,0x9
   12198:	8e6080e7          	jalr	-1818(ra) # 1aa7a <_ZN9allow_pin12full_dynamic17unshare_if_shared17h6cf91b2080959258E>
   1219c:	00198513          	addi	a0,s3,1
   121a0:	04400613          	li	a2,68
   121a4:	85ca                	mv	a1,s2
   121a6:	00009097          	auipc	ra,0x9
   121aa:	95e080e7          	jalr	-1698(ra) # 1ab04 <memcpy>
   121ae:	4501                	li	a0,0
   121b0:	b765                	j	12158 <_ZN20complex_full_dynamic3app17h1c4f482abdbc0ffaE+0x9c>

000121b2 <_ZN20complex_full_dynamic3app17h21263f4d200245f0E>:
   121b2:	7175                	addi	sp,sp,-144
   121b4:	c706                	sw	ra,140(sp)
   121b6:	c522                	sw	s0,136(sp)
   121b8:	c326                	sw	s1,132(sp)
   121ba:	c14a                	sw	s2,128(sp)
   121bc:	dece                	sw	s3,124(sp)
   121be:	89aa                	mv	s3,a0
   121c0:	4409                	li	s0,2
   121c2:	00810a23          	sb	s0,20(sp)
   121c6:	0824                	addi	s1,sp,24
   121c8:	463d                	li	a2,15
   121ca:	8526                	mv	a0,s1
   121cc:	00009097          	auipc	ra,0x9
   121d0:	938080e7          	jalr	-1736(ra) # 1ab04 <memcpy>
   121d4:	03410913          	addi	s2,sp,52
   121d8:	04600613          	li	a2,70
   121dc:	854a                	mv	a0,s2
   121de:	4581                	li	a1,0
   121e0:	00009097          	auipc	ra,0x9
   121e4:	8b8080e7          	jalr	-1864(ra) # 1aa98 <memset>
   121e8:	8626                	mv	a2,s1
   121ea:	02810823          	sb	s0,48(sp)
   121ee:	6509                	lui	a0,0x2
   121f0:	44a5                	li	s1,9
   121f2:	4811                	li	a6,4
   121f4:	45a5                	li	a1,9
   121f6:	d7e50793          	addi	a5,a0,-642 # 1d7e <.Lline_table_start1+0x1b53>
   121fa:	46bd                	li	a3,15
   121fc:	4711                	li	a4,4
   121fe:	853e                	mv	a0,a5
   12200:	00000073          	ecall
   12204:	04850363          	beq	a0,s0,1224a <_ZN20complex_full_dynamic3app17h21263f4d200245f0E+0x98>
   12208:	853e                	mv	a0,a5
   1220a:	864a                	mv	a2,s2
   1220c:	c63e                	sw	a5,12(sp)
   1220e:	c826                	sw	s1,16(sp)
   12210:	01010a23          	sb	a6,20(sp)
   12214:	448d                	li	s1,3
   12216:	4589                	li	a1,2
   12218:	04600693          	li	a3,70
   1221c:	470d                	li	a4,3
   1221e:	00000073          	ecall
   12222:	02850463          	beq	a0,s0,1224a <_ZN20complex_full_dynamic3app17h21263f4d200245f0E+0x98>
   12226:	4509                	li	a0,2
   12228:	6689                	lui	a3,0x2
   1222a:	45a5                	li	a1,9
   1222c:	4609                	li	a2,2
   1222e:	d43e                	sw	a5,40(sp)
   12230:	d62a                	sw	a0,44(sp)
   12232:	02910823          	sb	s1,48(sp)
   12236:	d7e68513          	addi	a0,a3,-642 # 1d7e <.Lline_table_start1+0x1b53>
   1223a:	4709                	li	a4,2
   1223c:	07f00793          	li	a5,127
   12240:	4681                	li	a3,0
   12242:	00000073          	ecall
   12246:	02a7e863          	bltu	a5,a0,12276 <_ZN20complex_full_dynamic3app17h21263f4d200245f0E+0xc4>
   1224a:	00b9a223          	sw	a1,4(s3)
   1224e:	4505                	li	a0,1
   12250:	00a98023          	sb	a0,0(s3)
   12254:	1028                	addi	a0,sp,40
   12256:	00009097          	auipc	ra,0x9
   1225a:	824080e7          	jalr	-2012(ra) # 1aa7a <_ZN9allow_pin12full_dynamic17unshare_if_shared17h6cf91b2080959258E>
   1225e:	0068                	addi	a0,sp,12
   12260:	00009097          	auipc	ra,0x9
   12264:	81a080e7          	jalr	-2022(ra) # 1aa7a <_ZN9allow_pin12full_dynamic17unshare_if_shared17h6cf91b2080959258E>
   12268:	40ba                	lw	ra,140(sp)
   1226a:	442a                	lw	s0,136(sp)
   1226c:	449a                	lw	s1,132(sp)
   1226e:	490a                	lw	s2,128(sp)
   12270:	59f6                	lw	s3,124(sp)
   12272:	6149                	addi	sp,sp,144
   12274:	8082                	ret
   12276:	0068                	addi	a0,sp,12
   12278:	00009097          	auipc	ra,0x9
   1227c:	802080e7          	jalr	-2046(ra) # 1aa7a <_ZN9allow_pin12full_dynamic17unshare_if_shared17h6cf91b2080959258E>
   12280:	1028                	addi	a0,sp,40
   12282:	00008097          	auipc	ra,0x8
   12286:	7f8080e7          	jalr	2040(ra) # 1aa7a <_ZN9allow_pin12full_dynamic17unshare_if_shared17h6cf91b2080959258E>
   1228a:	1028                	addi	a0,sp,40
   1228c:	00008097          	auipc	ra,0x8
   12290:	7ee080e7          	jalr	2030(ra) # 1aa7a <_ZN9allow_pin12full_dynamic17unshare_if_shared17h6cf91b2080959258E>
   12294:	00198513          	addi	a0,s3,1
   12298:	04600613          	li	a2,70
   1229c:	85ca                	mv	a1,s2
   1229e:	00009097          	auipc	ra,0x9
   122a2:	866080e7          	jalr	-1946(ra) # 1ab04 <memcpy>
   122a6:	4501                	li	a0,0
   122a8:	b765                	j	12250 <_ZN20complex_full_dynamic3app17h21263f4d200245f0E+0x9e>

000122aa <_ZN20complex_full_dynamic3app17h23c49050fba312a1E>:
   122aa:	7119                	addi	sp,sp,-128
   122ac:	de86                	sw	ra,124(sp)
   122ae:	dca2                	sw	s0,120(sp)
   122b0:	daa6                	sw	s1,116(sp)
   122b2:	d8ca                	sw	s2,112(sp)
   122b4:	d6ce                	sw	s3,108(sp)
   122b6:	89aa                	mv	s3,a0
   122b8:	4409                	li	s0,2
   122ba:	00810623          	sb	s0,12(sp)
   122be:	0804                	addi	s1,sp,16
   122c0:	4661                	li	a2,24
   122c2:	8526                	mv	a0,s1
   122c4:	00009097          	auipc	ra,0x9
   122c8:	840080e7          	jalr	-1984(ra) # 1ab04 <memcpy>
   122cc:	03410913          	addi	s2,sp,52
   122d0:	03600613          	li	a2,54
   122d4:	854a                	mv	a0,s2
   122d6:	4581                	li	a1,0
   122d8:	00008097          	auipc	ra,0x8
   122dc:	7c0080e7          	jalr	1984(ra) # 1aa98 <memset>
   122e0:	8626                	mv	a2,s1
   122e2:	02810823          	sb	s0,48(sp)
   122e6:	0f300793          	li	a5,243
   122ea:	44a1                	li	s1,8
   122ec:	4811                	li	a6,4
   122ee:	0f300513          	li	a0,243
   122f2:	45a1                	li	a1,8
   122f4:	46e1                	li	a3,24
   122f6:	4711                	li	a4,4
   122f8:	00000073          	ecall
   122fc:	04850563          	beq	a0,s0,12346 <_ZN20complex_full_dynamic3app17h23c49050fba312a1E+0x9c>
   12300:	864a                	mv	a2,s2
   12302:	c23e                	sw	a5,4(sp)
   12304:	c426                	sw	s1,8(sp)
   12306:	01010623          	sb	a6,12(sp)
   1230a:	478d                	li	a5,3
   1230c:	0f300513          	li	a0,243
   12310:	4591                	li	a1,4
   12312:	03600693          	li	a3,54
   12316:	470d                	li	a4,3
   12318:	00000073          	ecall
   1231c:	02850563          	beq	a0,s0,12346 <_ZN20complex_full_dynamic3app17h23c49050fba312a1E+0x9c>
   12320:	0f300693          	li	a3,243
   12324:	4491                	li	s1,4
   12326:	0f300513          	li	a0,243
   1232a:	45a1                	li	a1,8
   1232c:	4611                	li	a2,4
   1232e:	4709                	li	a4,2
   12330:	07f00413          	li	s0,127
   12334:	d436                	sw	a3,40(sp)
   12336:	d626                	sw	s1,44(sp)
   12338:	02f10823          	sb	a5,48(sp)
   1233c:	4681                	li	a3,0
   1233e:	00000073          	ecall
   12342:	02a46863          	bltu	s0,a0,12372 <_ZN20complex_full_dynamic3app17h23c49050fba312a1E+0xc8>
   12346:	00b9a223          	sw	a1,4(s3)
   1234a:	4505                	li	a0,1
   1234c:	00a98023          	sb	a0,0(s3)
   12350:	1028                	addi	a0,sp,40
   12352:	00008097          	auipc	ra,0x8
   12356:	728080e7          	jalr	1832(ra) # 1aa7a <_ZN9allow_pin12full_dynamic17unshare_if_shared17h6cf91b2080959258E>
   1235a:	0048                	addi	a0,sp,4
   1235c:	00008097          	auipc	ra,0x8
   12360:	71e080e7          	jalr	1822(ra) # 1aa7a <_ZN9allow_pin12full_dynamic17unshare_if_shared17h6cf91b2080959258E>
   12364:	50f6                	lw	ra,124(sp)
   12366:	5466                	lw	s0,120(sp)
   12368:	54d6                	lw	s1,116(sp)
   1236a:	5946                	lw	s2,112(sp)
   1236c:	59b6                	lw	s3,108(sp)
   1236e:	6109                	addi	sp,sp,128
   12370:	8082                	ret
   12372:	0048                	addi	a0,sp,4
   12374:	00008097          	auipc	ra,0x8
   12378:	706080e7          	jalr	1798(ra) # 1aa7a <_ZN9allow_pin12full_dynamic17unshare_if_shared17h6cf91b2080959258E>
   1237c:	1028                	addi	a0,sp,40
   1237e:	00008097          	auipc	ra,0x8
   12382:	6fc080e7          	jalr	1788(ra) # 1aa7a <_ZN9allow_pin12full_dynamic17unshare_if_shared17h6cf91b2080959258E>
   12386:	1028                	addi	a0,sp,40
   12388:	00008097          	auipc	ra,0x8
   1238c:	6f2080e7          	jalr	1778(ra) # 1aa7a <_ZN9allow_pin12full_dynamic17unshare_if_shared17h6cf91b2080959258E>
   12390:	00198513          	addi	a0,s3,1
   12394:	03600613          	li	a2,54
   12398:	85ca                	mv	a1,s2
   1239a:	00008097          	auipc	ra,0x8
   1239e:	76a080e7          	jalr	1898(ra) # 1ab04 <memcpy>
   123a2:	4501                	li	a0,0
   123a4:	b765                	j	1234c <_ZN20complex_full_dynamic3app17h23c49050fba312a1E+0xa2>

000123a6 <_ZN20complex_full_dynamic3app17h24b8ade672a4c831E>:
   123a6:	7159                	addi	sp,sp,-112
   123a8:	d686                	sw	ra,108(sp)
   123aa:	d4a2                	sw	s0,104(sp)
   123ac:	d2a6                	sw	s1,100(sp)
   123ae:	d0ca                	sw	s2,96(sp)
   123b0:	cece                	sw	s3,92(sp)
   123b2:	89aa                	mv	s3,a0
   123b4:	4409                	li	s0,2
   123b6:	00810423          	sb	s0,8(sp)
   123ba:	0064                	addi	s1,sp,12
   123bc:	4679                	li	a2,30
   123be:	8526                	mv	a0,s1
   123c0:	00008097          	auipc	ra,0x8
   123c4:	744080e7          	jalr	1860(ra) # 1ab04 <memcpy>
   123c8:	03810913          	addi	s2,sp,56
   123cc:	02100613          	li	a2,33
   123d0:	854a                	mv	a0,s2
   123d2:	4581                	li	a1,0
   123d4:	00008097          	auipc	ra,0x8
   123d8:	6c4080e7          	jalr	1732(ra) # 1aa98 <memset>
   123dc:	8626                	mv	a2,s1
   123de:	02810a23          	sb	s0,52(sp)
   123e2:	6509                	lui	a0,0x2
   123e4:	4499                	li	s1,6
   123e6:	4811                	li	a6,4
   123e8:	4599                	li	a1,6
   123ea:	9b550793          	addi	a5,a0,-1611 # 19b5 <.Lline_table_start1+0x178a>
   123ee:	46f9                	li	a3,30
   123f0:	4711                	li	a4,4
   123f2:	853e                	mv	a0,a5
   123f4:	00000073          	ecall
   123f8:	04850363          	beq	a0,s0,1243e <_ZN20complex_full_dynamic3app17h24b8ade672a4c831E+0x98>
   123fc:	853e                	mv	a0,a5
   123fe:	864a                	mv	a2,s2
   12400:	c03e                	sw	a5,0(sp)
   12402:	c226                	sw	s1,4(sp)
   12404:	01010423          	sb	a6,8(sp)
   12408:	44a5                	li	s1,9
   1240a:	480d                	li	a6,3
   1240c:	45a5                	li	a1,9
   1240e:	02100693          	li	a3,33
   12412:	470d                	li	a4,3
   12414:	00000073          	ecall
   12418:	02850363          	beq	a0,s0,1243e <_ZN20complex_full_dynamic3app17h24b8ade672a4c831E+0x98>
   1241c:	d63e                	sw	a5,44(sp)
   1241e:	d826                	sw	s1,48(sp)
   12420:	03010a23          	sb	a6,52(sp)
   12424:	6509                	lui	a0,0x2
   12426:	4599                	li	a1,6
   12428:	4625                	li	a2,9
   1242a:	9b550513          	addi	a0,a0,-1611 # 19b5 <.Lline_table_start1+0x178a>
   1242e:	4709                	li	a4,2
   12430:	07f00793          	li	a5,127
   12434:	4681                	li	a3,0
   12436:	00000073          	ecall
   1243a:	02a7e863          	bltu	a5,a0,1246a <_ZN20complex_full_dynamic3app17h24b8ade672a4c831E+0xc4>
   1243e:	00b9a223          	sw	a1,4(s3)
   12442:	4505                	li	a0,1
   12444:	00a98023          	sb	a0,0(s3)
   12448:	1068                	addi	a0,sp,44
   1244a:	00008097          	auipc	ra,0x8
   1244e:	630080e7          	jalr	1584(ra) # 1aa7a <_ZN9allow_pin12full_dynamic17unshare_if_shared17h6cf91b2080959258E>
   12452:	850a                	mv	a0,sp
   12454:	00008097          	auipc	ra,0x8
   12458:	626080e7          	jalr	1574(ra) # 1aa7a <_ZN9allow_pin12full_dynamic17unshare_if_shared17h6cf91b2080959258E>
   1245c:	50b6                	lw	ra,108(sp)
   1245e:	5426                	lw	s0,104(sp)
   12460:	5496                	lw	s1,100(sp)
   12462:	5906                	lw	s2,96(sp)
   12464:	49f6                	lw	s3,92(sp)
   12466:	6165                	addi	sp,sp,112
   12468:	8082                	ret
   1246a:	850a                	mv	a0,sp
   1246c:	00008097          	auipc	ra,0x8
   12470:	60e080e7          	jalr	1550(ra) # 1aa7a <_ZN9allow_pin12full_dynamic17unshare_if_shared17h6cf91b2080959258E>
   12474:	1068                	addi	a0,sp,44
   12476:	00008097          	auipc	ra,0x8
   1247a:	604080e7          	jalr	1540(ra) # 1aa7a <_ZN9allow_pin12full_dynamic17unshare_if_shared17h6cf91b2080959258E>
   1247e:	1068                	addi	a0,sp,44
   12480:	00008097          	auipc	ra,0x8
   12484:	5fa080e7          	jalr	1530(ra) # 1aa7a <_ZN9allow_pin12full_dynamic17unshare_if_shared17h6cf91b2080959258E>
   12488:	00198513          	addi	a0,s3,1
   1248c:	02100613          	li	a2,33
   12490:	85ca                	mv	a1,s2
   12492:	00008097          	auipc	ra,0x8
   12496:	672080e7          	jalr	1650(ra) # 1ab04 <memcpy>
   1249a:	4501                	li	a0,0
   1249c:	b765                	j	12444 <_ZN20complex_full_dynamic3app17h24b8ade672a4c831E+0x9e>

0001249e <_ZN20complex_full_dynamic3app17h2724c200026945dbE>:
   1249e:	7175                	addi	sp,sp,-144
   124a0:	c706                	sw	ra,140(sp)
   124a2:	c522                	sw	s0,136(sp)
   124a4:	c326                	sw	s1,132(sp)
   124a6:	c14a                	sw	s2,128(sp)
   124a8:	dece                	sw	s3,124(sp)
   124aa:	89aa                	mv	s3,a0
   124ac:	4409                	li	s0,2
   124ae:	00810623          	sb	s0,12(sp)
   124b2:	0804                	addi	s1,sp,16
   124b4:	03800613          	li	a2,56
   124b8:	8526                	mv	a0,s1
   124ba:	00008097          	auipc	ra,0x8
   124be:	64a080e7          	jalr	1610(ra) # 1ab04 <memcpy>
   124c2:	05410913          	addi	s2,sp,84
   124c6:	02700613          	li	a2,39
   124ca:	854a                	mv	a0,s2
   124cc:	4581                	li	a1,0
   124ce:	00008097          	auipc	ra,0x8
   124d2:	5ca080e7          	jalr	1482(ra) # 1aa98 <memset>
   124d6:	8626                	mv	a2,s1
   124d8:	04810823          	sb	s0,80(sp)
   124dc:	6505                	lui	a0,0x1
   124de:	4491                	li	s1,4
   124e0:	4589                	li	a1,2
   124e2:	e2b50793          	addi	a5,a0,-469 # e2b <.Lline_table_start1+0xc00>
   124e6:	03800693          	li	a3,56
   124ea:	4711                	li	a4,4
   124ec:	853e                	mv	a0,a5
   124ee:	00000073          	ecall
   124f2:	04850363          	beq	a0,s0,12538 <_ZN20complex_full_dynamic3app17h2724c200026945dbE+0x9a>
   124f6:	853e                	mv	a0,a5
   124f8:	864a                	mv	a2,s2
   124fa:	c23e                	sw	a5,4(sp)
   124fc:	c422                	sw	s0,8(sp)
   124fe:	00910623          	sb	s1,12(sp)
   12502:	44a1                	li	s1,8
   12504:	480d                	li	a6,3
   12506:	45a1                	li	a1,8
   12508:	02700693          	li	a3,39
   1250c:	470d                	li	a4,3
   1250e:	00000073          	ecall
   12512:	02850363          	beq	a0,s0,12538 <_ZN20complex_full_dynamic3app17h2724c200026945dbE+0x9a>
   12516:	c4be                	sw	a5,72(sp)
   12518:	c6a6                	sw	s1,76(sp)
   1251a:	05010823          	sb	a6,80(sp)
   1251e:	6505                	lui	a0,0x1
   12520:	4589                	li	a1,2
   12522:	4621                	li	a2,8
   12524:	e2b50513          	addi	a0,a0,-469 # e2b <.Lline_table_start1+0xc00>
   12528:	4709                	li	a4,2
   1252a:	07f00793          	li	a5,127
   1252e:	4681                	li	a3,0
   12530:	00000073          	ecall
   12534:	02a7e863          	bltu	a5,a0,12564 <_ZN20complex_full_dynamic3app17h2724c200026945dbE+0xc6>
   12538:	00b9a223          	sw	a1,4(s3)
   1253c:	4505                	li	a0,1
   1253e:	00a98023          	sb	a0,0(s3)
   12542:	00a8                	addi	a0,sp,72
   12544:	00008097          	auipc	ra,0x8
   12548:	536080e7          	jalr	1334(ra) # 1aa7a <_ZN9allow_pin12full_dynamic17unshare_if_shared17h6cf91b2080959258E>
   1254c:	0048                	addi	a0,sp,4
   1254e:	00008097          	auipc	ra,0x8
   12552:	52c080e7          	jalr	1324(ra) # 1aa7a <_ZN9allow_pin12full_dynamic17unshare_if_shared17h6cf91b2080959258E>
   12556:	40ba                	lw	ra,140(sp)
   12558:	442a                	lw	s0,136(sp)
   1255a:	449a                	lw	s1,132(sp)
   1255c:	490a                	lw	s2,128(sp)
   1255e:	59f6                	lw	s3,124(sp)
   12560:	6149                	addi	sp,sp,144
   12562:	8082                	ret
   12564:	0048                	addi	a0,sp,4
   12566:	00008097          	auipc	ra,0x8
   1256a:	514080e7          	jalr	1300(ra) # 1aa7a <_ZN9allow_pin12full_dynamic17unshare_if_shared17h6cf91b2080959258E>
   1256e:	00a8                	addi	a0,sp,72
   12570:	00008097          	auipc	ra,0x8
   12574:	50a080e7          	jalr	1290(ra) # 1aa7a <_ZN9allow_pin12full_dynamic17unshare_if_shared17h6cf91b2080959258E>
   12578:	00a8                	addi	a0,sp,72
   1257a:	00008097          	auipc	ra,0x8
   1257e:	500080e7          	jalr	1280(ra) # 1aa7a <_ZN9allow_pin12full_dynamic17unshare_if_shared17h6cf91b2080959258E>
   12582:	00198513          	addi	a0,s3,1
   12586:	02700613          	li	a2,39
   1258a:	85ca                	mv	a1,s2
   1258c:	00008097          	auipc	ra,0x8
   12590:	578080e7          	jalr	1400(ra) # 1ab04 <memcpy>
   12594:	4501                	li	a0,0
   12596:	b765                	j	1253e <_ZN20complex_full_dynamic3app17h2724c200026945dbE+0xa0>

00012598 <_ZN20complex_full_dynamic3app17h2af4d9d72a53f0ecE>:
   12598:	7159                	addi	sp,sp,-112
   1259a:	d686                	sw	ra,108(sp)
   1259c:	d4a2                	sw	s0,104(sp)
   1259e:	d2a6                	sw	s1,100(sp)
   125a0:	d0ca                	sw	s2,96(sp)
   125a2:	cece                	sw	s3,92(sp)
   125a4:	89aa                	mv	s3,a0
   125a6:	4409                	li	s0,2
   125a8:	00810823          	sb	s0,16(sp)
   125ac:	0844                	addi	s1,sp,20
   125ae:	02700613          	li	a2,39
   125b2:	8526                	mv	a0,s1
   125b4:	00008097          	auipc	ra,0x8
   125b8:	550080e7          	jalr	1360(ra) # 1ab04 <memcpy>
   125bc:	04810913          	addi	s2,sp,72
   125c0:	4651                	li	a2,20
   125c2:	854a                	mv	a0,s2
   125c4:	4581                	li	a1,0
   125c6:	00008097          	auipc	ra,0x8
   125ca:	4d2080e7          	jalr	1234(ra) # 1aa98 <memset>
   125ce:	8626                	mv	a2,s1
   125d0:	04810223          	sb	s0,68(sp)
   125d4:	6509                	lui	a0,0x2
   125d6:	4499                	li	s1,6
   125d8:	4811                	li	a6,4
   125da:	4599                	li	a1,6
   125dc:	2c950793          	addi	a5,a0,713 # 22c9 <.Lline_table_start1+0x209e>
   125e0:	02700693          	li	a3,39
   125e4:	4711                	li	a4,4
   125e6:	853e                	mv	a0,a5
   125e8:	00000073          	ecall
   125ec:	04850263          	beq	a0,s0,12630 <_ZN20complex_full_dynamic3app17h2af4d9d72a53f0ecE+0x98>
   125f0:	853e                	mv	a0,a5
   125f2:	864a                	mv	a2,s2
   125f4:	c43e                	sw	a5,8(sp)
   125f6:	c626                	sw	s1,12(sp)
   125f8:	01010823          	sb	a6,16(sp)
   125fc:	4495                	li	s1,5
   125fe:	480d                	li	a6,3
   12600:	4595                	li	a1,5
   12602:	46d1                	li	a3,20
   12604:	470d                	li	a4,3
   12606:	00000073          	ecall
   1260a:	02850363          	beq	a0,s0,12630 <_ZN20complex_full_dynamic3app17h2af4d9d72a53f0ecE+0x98>
   1260e:	de3e                	sw	a5,60(sp)
   12610:	c0a6                	sw	s1,64(sp)
   12612:	05010223          	sb	a6,68(sp)
   12616:	6509                	lui	a0,0x2
   12618:	4599                	li	a1,6
   1261a:	4615                	li	a2,5
   1261c:	2c950513          	addi	a0,a0,713 # 22c9 <.Lline_table_start1+0x209e>
   12620:	4709                	li	a4,2
   12622:	07f00793          	li	a5,127
   12626:	4681                	li	a3,0
   12628:	00000073          	ecall
   1262c:	02a7e863          	bltu	a5,a0,1265c <_ZN20complex_full_dynamic3app17h2af4d9d72a53f0ecE+0xc4>
   12630:	00b9a223          	sw	a1,4(s3)
   12634:	4505                	li	a0,1
   12636:	00a98023          	sb	a0,0(s3)
   1263a:	1868                	addi	a0,sp,60
   1263c:	00008097          	auipc	ra,0x8
   12640:	43e080e7          	jalr	1086(ra) # 1aa7a <_ZN9allow_pin12full_dynamic17unshare_if_shared17h6cf91b2080959258E>
   12644:	0028                	addi	a0,sp,8
   12646:	00008097          	auipc	ra,0x8
   1264a:	434080e7          	jalr	1076(ra) # 1aa7a <_ZN9allow_pin12full_dynamic17unshare_if_shared17h6cf91b2080959258E>
   1264e:	50b6                	lw	ra,108(sp)
   12650:	5426                	lw	s0,104(sp)
   12652:	5496                	lw	s1,100(sp)
   12654:	5906                	lw	s2,96(sp)
   12656:	49f6                	lw	s3,92(sp)
   12658:	6165                	addi	sp,sp,112
   1265a:	8082                	ret
   1265c:	0028                	addi	a0,sp,8
   1265e:	00008097          	auipc	ra,0x8
   12662:	41c080e7          	jalr	1052(ra) # 1aa7a <_ZN9allow_pin12full_dynamic17unshare_if_shared17h6cf91b2080959258E>
   12666:	1868                	addi	a0,sp,60
   12668:	00008097          	auipc	ra,0x8
   1266c:	412080e7          	jalr	1042(ra) # 1aa7a <_ZN9allow_pin12full_dynamic17unshare_if_shared17h6cf91b2080959258E>
   12670:	1868                	addi	a0,sp,60
   12672:	00008097          	auipc	ra,0x8
   12676:	408080e7          	jalr	1032(ra) # 1aa7a <_ZN9allow_pin12full_dynamic17unshare_if_shared17h6cf91b2080959258E>
   1267a:	00198513          	addi	a0,s3,1
   1267e:	4651                	li	a2,20
   12680:	85ca                	mv	a1,s2
   12682:	00008097          	auipc	ra,0x8
   12686:	482080e7          	jalr	1154(ra) # 1ab04 <memcpy>
   1268a:	4501                	li	a0,0
   1268c:	b76d                	j	12636 <_ZN20complex_full_dynamic3app17h2af4d9d72a53f0ecE+0x9e>

0001268e <_ZN20complex_full_dynamic3app17h320e99293bd79ca1E>:
   1268e:	7119                	addi	sp,sp,-128
   12690:	de86                	sw	ra,124(sp)
   12692:	dca2                	sw	s0,120(sp)
   12694:	daa6                	sw	s1,116(sp)
   12696:	d8ca                	sw	s2,112(sp)
   12698:	d6ce                	sw	s3,108(sp)
   1269a:	89aa                	mv	s3,a0
   1269c:	4409                	li	s0,2
   1269e:	00810a23          	sb	s0,20(sp)
   126a2:	0824                	addi	s1,sp,24
   126a4:	4641                	li	a2,16
   126a6:	8526                	mv	a0,s1
   126a8:	00008097          	auipc	ra,0x8
   126ac:	45c080e7          	jalr	1116(ra) # 1ab04 <memcpy>
   126b0:	03410913          	addi	s2,sp,52
   126b4:	03600613          	li	a2,54
   126b8:	854a                	mv	a0,s2
   126ba:	4581                	li	a1,0
   126bc:	00008097          	auipc	ra,0x8
   126c0:	3dc080e7          	jalr	988(ra) # 1aa98 <memset>
   126c4:	8626                	mv	a2,s1
   126c6:	02810823          	sb	s0,48(sp)
   126ca:	6509                	lui	a0,0x2
   126cc:	4485                	li	s1,1
   126ce:	4811                	li	a6,4
   126d0:	4585                	li	a1,1
   126d2:	98950793          	addi	a5,a0,-1655 # 1989 <.Lline_table_start1+0x175e>
   126d6:	46c1                	li	a3,16
   126d8:	4711                	li	a4,4
   126da:	853e                	mv	a0,a5
   126dc:	00000073          	ecall
   126e0:	04850363          	beq	a0,s0,12726 <_ZN20complex_full_dynamic3app17h320e99293bd79ca1E+0x98>
   126e4:	853e                	mv	a0,a5
   126e6:	864a                	mv	a2,s2
   126e8:	c63e                	sw	a5,12(sp)
   126ea:	c826                	sw	s1,16(sp)
   126ec:	01010a23          	sb	a6,20(sp)
   126f0:	449d                	li	s1,7
   126f2:	480d                	li	a6,3
   126f4:	459d                	li	a1,7
   126f6:	03600693          	li	a3,54
   126fa:	470d                	li	a4,3
   126fc:	00000073          	ecall
   12700:	02850363          	beq	a0,s0,12726 <_ZN20complex_full_dynamic3app17h320e99293bd79ca1E+0x98>
   12704:	d43e                	sw	a5,40(sp)
   12706:	d626                	sw	s1,44(sp)
   12708:	03010823          	sb	a6,48(sp)
   1270c:	6509                	lui	a0,0x2
   1270e:	4585                	li	a1,1
   12710:	461d                	li	a2,7
   12712:	98950513          	addi	a0,a0,-1655 # 1989 <.Lline_table_start1+0x175e>
   12716:	4709                	li	a4,2
   12718:	07f00793          	li	a5,127
   1271c:	4681                	li	a3,0
   1271e:	00000073          	ecall
   12722:	02a7e863          	bltu	a5,a0,12752 <_ZN20complex_full_dynamic3app17h320e99293bd79ca1E+0xc4>
   12726:	00b9a223          	sw	a1,4(s3)
   1272a:	4505                	li	a0,1
   1272c:	00a98023          	sb	a0,0(s3)
   12730:	1028                	addi	a0,sp,40
   12732:	00008097          	auipc	ra,0x8
   12736:	348080e7          	jalr	840(ra) # 1aa7a <_ZN9allow_pin12full_dynamic17unshare_if_shared17h6cf91b2080959258E>
   1273a:	0068                	addi	a0,sp,12
   1273c:	00008097          	auipc	ra,0x8
   12740:	33e080e7          	jalr	830(ra) # 1aa7a <_ZN9allow_pin12full_dynamic17unshare_if_shared17h6cf91b2080959258E>
   12744:	50f6                	lw	ra,124(sp)
   12746:	5466                	lw	s0,120(sp)
   12748:	54d6                	lw	s1,116(sp)
   1274a:	5946                	lw	s2,112(sp)
   1274c:	59b6                	lw	s3,108(sp)
   1274e:	6109                	addi	sp,sp,128
   12750:	8082                	ret
   12752:	0068                	addi	a0,sp,12
   12754:	00008097          	auipc	ra,0x8
   12758:	326080e7          	jalr	806(ra) # 1aa7a <_ZN9allow_pin12full_dynamic17unshare_if_shared17h6cf91b2080959258E>
   1275c:	1028                	addi	a0,sp,40
   1275e:	00008097          	auipc	ra,0x8
   12762:	31c080e7          	jalr	796(ra) # 1aa7a <_ZN9allow_pin12full_dynamic17unshare_if_shared17h6cf91b2080959258E>
   12766:	1028                	addi	a0,sp,40
   12768:	00008097          	auipc	ra,0x8
   1276c:	312080e7          	jalr	786(ra) # 1aa7a <_ZN9allow_pin12full_dynamic17unshare_if_shared17h6cf91b2080959258E>
   12770:	00198513          	addi	a0,s3,1
   12774:	03600613          	li	a2,54
   12778:	85ca                	mv	a1,s2
   1277a:	00008097          	auipc	ra,0x8
   1277e:	38a080e7          	jalr	906(ra) # 1ab04 <memcpy>
   12782:	4501                	li	a0,0
   12784:	b765                	j	1272c <_ZN20complex_full_dynamic3app17h320e99293bd79ca1E+0x9e>

00012786 <_ZN20complex_full_dynamic3app17h3582fddd8403bc8eE>:
   12786:	7131                	addi	sp,sp,-192
   12788:	df06                	sw	ra,188(sp)
   1278a:	dd22                	sw	s0,184(sp)
   1278c:	db26                	sw	s1,180(sp)
   1278e:	d94a                	sw	s2,176(sp)
   12790:	d74e                	sw	s3,172(sp)
   12792:	89aa                	mv	s3,a0
   12794:	4409                	li	s0,2
   12796:	00810a23          	sb	s0,20(sp)
   1279a:	0824                	addi	s1,sp,24
   1279c:	04f00613          	li	a2,79
   127a0:	8526                	mv	a0,s1
   127a2:	00008097          	auipc	ra,0x8
   127a6:	362080e7          	jalr	866(ra) # 1ab04 <memcpy>
   127aa:	07410913          	addi	s2,sp,116
   127ae:	03500613          	li	a2,53
   127b2:	854a                	mv	a0,s2
   127b4:	4581                	li	a1,0
   127b6:	00008097          	auipc	ra,0x8
   127ba:	2e2080e7          	jalr	738(ra) # 1aa98 <memset>
   127be:	8626                	mv	a2,s1
   127c0:	06810823          	sb	s0,112(sp)
   127c4:	6505                	lui	a0,0x1
   127c6:	449d                	li	s1,7
   127c8:	4811                	li	a6,4
   127ca:	459d                	li	a1,7
   127cc:	6d750793          	addi	a5,a0,1751 # 16d7 <.Lline_table_start1+0x14ac>
   127d0:	04f00693          	li	a3,79
   127d4:	4711                	li	a4,4
   127d6:	853e                	mv	a0,a5
   127d8:	00000073          	ecall
   127dc:	04850363          	beq	a0,s0,12822 <_ZN20complex_full_dynamic3app17h3582fddd8403bc8eE+0x9c>
   127e0:	853e                	mv	a0,a5
   127e2:	864a                	mv	a2,s2
   127e4:	c63e                	sw	a5,12(sp)
   127e6:	c826                	sw	s1,16(sp)
   127e8:	01010a23          	sb	a6,20(sp)
   127ec:	4485                	li	s1,1
   127ee:	480d                	li	a6,3
   127f0:	4585                	li	a1,1
   127f2:	03500693          	li	a3,53
   127f6:	470d                	li	a4,3
   127f8:	00000073          	ecall
   127fc:	02850363          	beq	a0,s0,12822 <_ZN20complex_full_dynamic3app17h3582fddd8403bc8eE+0x9c>
   12800:	d4be                	sw	a5,104(sp)
   12802:	d6a6                	sw	s1,108(sp)
   12804:	07010823          	sb	a6,112(sp)
   12808:	6505                	lui	a0,0x1
   1280a:	459d                	li	a1,7
   1280c:	4605                	li	a2,1
   1280e:	6d750513          	addi	a0,a0,1751 # 16d7 <.Lline_table_start1+0x14ac>
   12812:	4709                	li	a4,2
   12814:	07f00793          	li	a5,127
   12818:	4681                	li	a3,0
   1281a:	00000073          	ecall
   1281e:	02a7e863          	bltu	a5,a0,1284e <_ZN20complex_full_dynamic3app17h3582fddd8403bc8eE+0xc8>
   12822:	00b9a223          	sw	a1,4(s3)
   12826:	4505                	li	a0,1
   12828:	00a98023          	sb	a0,0(s3)
   1282c:	10a8                	addi	a0,sp,104
   1282e:	00008097          	auipc	ra,0x8
   12832:	24c080e7          	jalr	588(ra) # 1aa7a <_ZN9allow_pin12full_dynamic17unshare_if_shared17h6cf91b2080959258E>
   12836:	0068                	addi	a0,sp,12
   12838:	00008097          	auipc	ra,0x8
   1283c:	242080e7          	jalr	578(ra) # 1aa7a <_ZN9allow_pin12full_dynamic17unshare_if_shared17h6cf91b2080959258E>
   12840:	50fa                	lw	ra,188(sp)
   12842:	546a                	lw	s0,184(sp)
   12844:	54da                	lw	s1,180(sp)
   12846:	594a                	lw	s2,176(sp)
   12848:	59ba                	lw	s3,172(sp)
   1284a:	6129                	addi	sp,sp,192
   1284c:	8082                	ret
   1284e:	0068                	addi	a0,sp,12
   12850:	00008097          	auipc	ra,0x8
   12854:	22a080e7          	jalr	554(ra) # 1aa7a <_ZN9allow_pin12full_dynamic17unshare_if_shared17h6cf91b2080959258E>
   12858:	10a8                	addi	a0,sp,104
   1285a:	00008097          	auipc	ra,0x8
   1285e:	220080e7          	jalr	544(ra) # 1aa7a <_ZN9allow_pin12full_dynamic17unshare_if_shared17h6cf91b2080959258E>
   12862:	10a8                	addi	a0,sp,104
   12864:	00008097          	auipc	ra,0x8
   12868:	216080e7          	jalr	534(ra) # 1aa7a <_ZN9allow_pin12full_dynamic17unshare_if_shared17h6cf91b2080959258E>
   1286c:	00198513          	addi	a0,s3,1
   12870:	03500613          	li	a2,53
   12874:	85ca                	mv	a1,s2
   12876:	00008097          	auipc	ra,0x8
   1287a:	28e080e7          	jalr	654(ra) # 1ab04 <memcpy>
   1287e:	4501                	li	a0,0
   12880:	b765                	j	12828 <_ZN20complex_full_dynamic3app17h3582fddd8403bc8eE+0xa2>

00012882 <_ZN20complex_full_dynamic3app17h36e80623b90ff109E>:
   12882:	7119                	addi	sp,sp,-128
   12884:	de86                	sw	ra,124(sp)
   12886:	dca2                	sw	s0,120(sp)
   12888:	daa6                	sw	s1,116(sp)
   1288a:	d8ca                	sw	s2,112(sp)
   1288c:	d6ce                	sw	s3,108(sp)
   1288e:	89aa                	mv	s3,a0
   12890:	4409                	li	s0,2
   12892:	00810823          	sb	s0,16(sp)
   12896:	0844                	addi	s1,sp,20
   12898:	02b00613          	li	a2,43
   1289c:	8526                	mv	a0,s1
   1289e:	00008097          	auipc	ra,0x8
   128a2:	266080e7          	jalr	614(ra) # 1ab04 <memcpy>
   128a6:	04c10913          	addi	s2,sp,76
   128aa:	4679                	li	a2,30
   128ac:	854a                	mv	a0,s2
   128ae:	4581                	li	a1,0
   128b0:	00008097          	auipc	ra,0x8
   128b4:	1e8080e7          	jalr	488(ra) # 1aa98 <memset>
   128b8:	8626                	mv	a2,s1
   128ba:	04810423          	sb	s0,72(sp)
   128be:	7e300793          	li	a5,2019
   128c2:	449d                	li	s1,7
   128c4:	4811                	li	a6,4
   128c6:	7e300513          	li	a0,2019
   128ca:	459d                	li	a1,7
   128cc:	02b00693          	li	a3,43
   128d0:	4711                	li	a4,4
   128d2:	00000073          	ecall
   128d6:	04850463          	beq	a0,s0,1291e <_ZN20complex_full_dynamic3app17h36e80623b90ff109E+0x9c>
   128da:	864a                	mv	a2,s2
   128dc:	c43e                	sw	a5,8(sp)
   128de:	c626                	sw	s1,12(sp)
   128e0:	01010823          	sb	a6,16(sp)
   128e4:	47a1                	li	a5,8
   128e6:	448d                	li	s1,3
   128e8:	7e300513          	li	a0,2019
   128ec:	45a1                	li	a1,8
   128ee:	46f9                	li	a3,30
   128f0:	470d                	li	a4,3
   128f2:	00000073          	ecall
   128f6:	02850463          	beq	a0,s0,1291e <_ZN20complex_full_dynamic3app17h36e80623b90ff109E+0x9c>
   128fa:	7e300693          	li	a3,2019
   128fe:	7e300513          	li	a0,2019
   12902:	459d                	li	a1,7
   12904:	4621                	li	a2,8
   12906:	4709                	li	a4,2
   12908:	07f00413          	li	s0,127
   1290c:	c0b6                	sw	a3,64(sp)
   1290e:	c2be                	sw	a5,68(sp)
   12910:	04910423          	sb	s1,72(sp)
   12914:	4681                	li	a3,0
   12916:	00000073          	ecall
   1291a:	02a46863          	bltu	s0,a0,1294a <_ZN20complex_full_dynamic3app17h36e80623b90ff109E+0xc8>
   1291e:	00b9a223          	sw	a1,4(s3)
   12922:	4505                	li	a0,1
   12924:	00a98023          	sb	a0,0(s3)
   12928:	0088                	addi	a0,sp,64
   1292a:	00008097          	auipc	ra,0x8
   1292e:	150080e7          	jalr	336(ra) # 1aa7a <_ZN9allow_pin12full_dynamic17unshare_if_shared17h6cf91b2080959258E>
   12932:	0028                	addi	a0,sp,8
   12934:	00008097          	auipc	ra,0x8
   12938:	146080e7          	jalr	326(ra) # 1aa7a <_ZN9allow_pin12full_dynamic17unshare_if_shared17h6cf91b2080959258E>
   1293c:	50f6                	lw	ra,124(sp)
   1293e:	5466                	lw	s0,120(sp)
   12940:	54d6                	lw	s1,116(sp)
   12942:	5946                	lw	s2,112(sp)
   12944:	59b6                	lw	s3,108(sp)
   12946:	6109                	addi	sp,sp,128
   12948:	8082                	ret
   1294a:	0028                	addi	a0,sp,8
   1294c:	00008097          	auipc	ra,0x8
   12950:	12e080e7          	jalr	302(ra) # 1aa7a <_ZN9allow_pin12full_dynamic17unshare_if_shared17h6cf91b2080959258E>
   12954:	0088                	addi	a0,sp,64
   12956:	00008097          	auipc	ra,0x8
   1295a:	124080e7          	jalr	292(ra) # 1aa7a <_ZN9allow_pin12full_dynamic17unshare_if_shared17h6cf91b2080959258E>
   1295e:	0088                	addi	a0,sp,64
   12960:	00008097          	auipc	ra,0x8
   12964:	11a080e7          	jalr	282(ra) # 1aa7a <_ZN9allow_pin12full_dynamic17unshare_if_shared17h6cf91b2080959258E>
   12968:	00198513          	addi	a0,s3,1
   1296c:	4679                	li	a2,30
   1296e:	85ca                	mv	a1,s2
   12970:	00008097          	auipc	ra,0x8
   12974:	194080e7          	jalr	404(ra) # 1ab04 <memcpy>
   12978:	4501                	li	a0,0
   1297a:	b76d                	j	12924 <_ZN20complex_full_dynamic3app17h36e80623b90ff109E+0xa2>

0001297c <_ZN20complex_full_dynamic3app17h3d36d1b1a9af0243E>:
   1297c:	7115                	addi	sp,sp,-224
   1297e:	cf86                	sw	ra,220(sp)
   12980:	cda2                	sw	s0,216(sp)
   12982:	cba6                	sw	s1,212(sp)
   12984:	c9ca                	sw	s2,208(sp)
   12986:	c7ce                	sw	s3,204(sp)
   12988:	89aa                	mv	s3,a0
   1298a:	4409                	li	s0,2
   1298c:	00810423          	sb	s0,8(sp)
   12990:	0064                	addi	s1,sp,12
   12992:	04f00613          	li	a2,79
   12996:	8526                	mv	a0,s1
   12998:	00008097          	auipc	ra,0x8
   1299c:	16c080e7          	jalr	364(ra) # 1ab04 <memcpy>
   129a0:	06810913          	addi	s2,sp,104
   129a4:	06100613          	li	a2,97
   129a8:	854a                	mv	a0,s2
   129aa:	4581                	li	a1,0
   129ac:	00008097          	auipc	ra,0x8
   129b0:	0ec080e7          	jalr	236(ra) # 1aa98 <memset>
   129b4:	8626                	mv	a2,s1
   129b6:	06810223          	sb	s0,100(sp)
   129ba:	1b600493          	li	s1,438
   129be:	4791                	li	a5,4
   129c0:	1b600513          	li	a0,438
   129c4:	4589                	li	a1,2
   129c6:	04f00693          	li	a3,79
   129ca:	4711                	li	a4,4
   129cc:	00000073          	ecall
   129d0:	04850563          	beq	a0,s0,12a1a <_ZN20complex_full_dynamic3app17h3d36d1b1a9af0243E+0x9e>
   129d4:	864a                	mv	a2,s2
   129d6:	c026                	sw	s1,0(sp)
   129d8:	c222                	sw	s0,4(sp)
   129da:	00f10423          	sb	a5,8(sp)
   129de:	47a1                	li	a5,8
   129e0:	448d                	li	s1,3
   129e2:	1b600513          	li	a0,438
   129e6:	45a1                	li	a1,8
   129e8:	06100693          	li	a3,97
   129ec:	470d                	li	a4,3
   129ee:	00000073          	ecall
   129f2:	02850463          	beq	a0,s0,12a1a <_ZN20complex_full_dynamic3app17h3d36d1b1a9af0243E+0x9e>
   129f6:	1b600693          	li	a3,438
   129fa:	1b600513          	li	a0,438
   129fe:	4589                	li	a1,2
   12a00:	4621                	li	a2,8
   12a02:	4709                	li	a4,2
   12a04:	07f00413          	li	s0,127
   12a08:	ceb6                	sw	a3,92(sp)
   12a0a:	d0be                	sw	a5,96(sp)
   12a0c:	06910223          	sb	s1,100(sp)
   12a10:	4681                	li	a3,0
   12a12:	00000073          	ecall
   12a16:	02a46863          	bltu	s0,a0,12a46 <_ZN20complex_full_dynamic3app17h3d36d1b1a9af0243E+0xca>
   12a1a:	00b9a223          	sw	a1,4(s3)
   12a1e:	4505                	li	a0,1
   12a20:	00a98023          	sb	a0,0(s3)
   12a24:	08e8                	addi	a0,sp,92
   12a26:	00008097          	auipc	ra,0x8
   12a2a:	054080e7          	jalr	84(ra) # 1aa7a <_ZN9allow_pin12full_dynamic17unshare_if_shared17h6cf91b2080959258E>
   12a2e:	850a                	mv	a0,sp
   12a30:	00008097          	auipc	ra,0x8
   12a34:	04a080e7          	jalr	74(ra) # 1aa7a <_ZN9allow_pin12full_dynamic17unshare_if_shared17h6cf91b2080959258E>
   12a38:	40fe                	lw	ra,220(sp)
   12a3a:	446e                	lw	s0,216(sp)
   12a3c:	44de                	lw	s1,212(sp)
   12a3e:	494e                	lw	s2,208(sp)
   12a40:	49be                	lw	s3,204(sp)
   12a42:	612d                	addi	sp,sp,224
   12a44:	8082                	ret
   12a46:	850a                	mv	a0,sp
   12a48:	00008097          	auipc	ra,0x8
   12a4c:	032080e7          	jalr	50(ra) # 1aa7a <_ZN9allow_pin12full_dynamic17unshare_if_shared17h6cf91b2080959258E>
   12a50:	08e8                	addi	a0,sp,92
   12a52:	00008097          	auipc	ra,0x8
   12a56:	028080e7          	jalr	40(ra) # 1aa7a <_ZN9allow_pin12full_dynamic17unshare_if_shared17h6cf91b2080959258E>
   12a5a:	08e8                	addi	a0,sp,92
   12a5c:	00008097          	auipc	ra,0x8
   12a60:	01e080e7          	jalr	30(ra) # 1aa7a <_ZN9allow_pin12full_dynamic17unshare_if_shared17h6cf91b2080959258E>
   12a64:	00198513          	addi	a0,s3,1
   12a68:	06100613          	li	a2,97
   12a6c:	85ca                	mv	a1,s2
   12a6e:	00008097          	auipc	ra,0x8
   12a72:	096080e7          	jalr	150(ra) # 1ab04 <memcpy>
   12a76:	4501                	li	a0,0
   12a78:	b765                	j	12a20 <_ZN20complex_full_dynamic3app17h3d36d1b1a9af0243E+0xa4>

00012a7a <_ZN20complex_full_dynamic3app17h4170505619856a14E>:
   12a7a:	7135                	addi	sp,sp,-160
   12a7c:	cf06                	sw	ra,156(sp)
   12a7e:	cd22                	sw	s0,152(sp)
   12a80:	cb26                	sw	s1,148(sp)
   12a82:	c94a                	sw	s2,144(sp)
   12a84:	c74e                	sw	s3,140(sp)
   12a86:	89aa                	mv	s3,a0
   12a88:	4409                	li	s0,2
   12a8a:	00810623          	sb	s0,12(sp)
   12a8e:	0804                	addi	s1,sp,16
   12a90:	04900613          	li	a2,73
   12a94:	8526                	mv	a0,s1
   12a96:	00008097          	auipc	ra,0x8
   12a9a:	06e080e7          	jalr	110(ra) # 1ab04 <memcpy>
   12a9e:	06810913          	addi	s2,sp,104
   12aa2:	02300613          	li	a2,35
   12aa6:	854a                	mv	a0,s2
   12aa8:	4581                	li	a1,0
   12aaa:	00008097          	auipc	ra,0x8
   12aae:	fee080e7          	jalr	-18(ra) # 1aa98 <memset>
   12ab2:	8626                	mv	a2,s1
   12ab4:	06810223          	sb	s0,100(sp)
   12ab8:	6505                	lui	a0,0x1
   12aba:	449d                	li	s1,7
   12abc:	4811                	li	a6,4
   12abe:	459d                	li	a1,7
   12ac0:	55150793          	addi	a5,a0,1361 # 1551 <.Lline_table_start1+0x1326>
   12ac4:	04900693          	li	a3,73
   12ac8:	4711                	li	a4,4
   12aca:	853e                	mv	a0,a5
   12acc:	00000073          	ecall
   12ad0:	04850363          	beq	a0,s0,12b16 <_ZN20complex_full_dynamic3app17h4170505619856a14E+0x9c>
   12ad4:	853e                	mv	a0,a5
   12ad6:	864a                	mv	a2,s2
   12ad8:	c23e                	sw	a5,4(sp)
   12ada:	c426                	sw	s1,8(sp)
   12adc:	01010623          	sb	a6,12(sp)
   12ae0:	4485                	li	s1,1
   12ae2:	480d                	li	a6,3
   12ae4:	4585                	li	a1,1
   12ae6:	02300693          	li	a3,35
   12aea:	470d                	li	a4,3
   12aec:	00000073          	ecall
   12af0:	02850363          	beq	a0,s0,12b16 <_ZN20complex_full_dynamic3app17h4170505619856a14E+0x9c>
   12af4:	cebe                	sw	a5,92(sp)
   12af6:	d0a6                	sw	s1,96(sp)
   12af8:	07010223          	sb	a6,100(sp)
   12afc:	6505                	lui	a0,0x1
   12afe:	459d                	li	a1,7
   12b00:	4605                	li	a2,1
   12b02:	55150513          	addi	a0,a0,1361 # 1551 <.Lline_table_start1+0x1326>
   12b06:	4709                	li	a4,2
   12b08:	07f00793          	li	a5,127
   12b0c:	4681                	li	a3,0
   12b0e:	00000073          	ecall
   12b12:	02a7e863          	bltu	a5,a0,12b42 <_ZN20complex_full_dynamic3app17h4170505619856a14E+0xc8>
   12b16:	00b9a223          	sw	a1,4(s3)
   12b1a:	4505                	li	a0,1
   12b1c:	00a98023          	sb	a0,0(s3)
   12b20:	08e8                	addi	a0,sp,92
   12b22:	00008097          	auipc	ra,0x8
   12b26:	f58080e7          	jalr	-168(ra) # 1aa7a <_ZN9allow_pin12full_dynamic17unshare_if_shared17h6cf91b2080959258E>
   12b2a:	0048                	addi	a0,sp,4
   12b2c:	00008097          	auipc	ra,0x8
   12b30:	f4e080e7          	jalr	-178(ra) # 1aa7a <_ZN9allow_pin12full_dynamic17unshare_if_shared17h6cf91b2080959258E>
   12b34:	40fa                	lw	ra,156(sp)
   12b36:	446a                	lw	s0,152(sp)
   12b38:	44da                	lw	s1,148(sp)
   12b3a:	494a                	lw	s2,144(sp)
   12b3c:	49ba                	lw	s3,140(sp)
   12b3e:	610d                	addi	sp,sp,160
   12b40:	8082                	ret
   12b42:	0048                	addi	a0,sp,4
   12b44:	00008097          	auipc	ra,0x8
   12b48:	f36080e7          	jalr	-202(ra) # 1aa7a <_ZN9allow_pin12full_dynamic17unshare_if_shared17h6cf91b2080959258E>
   12b4c:	08e8                	addi	a0,sp,92
   12b4e:	00008097          	auipc	ra,0x8
   12b52:	f2c080e7          	jalr	-212(ra) # 1aa7a <_ZN9allow_pin12full_dynamic17unshare_if_shared17h6cf91b2080959258E>
   12b56:	08e8                	addi	a0,sp,92
   12b58:	00008097          	auipc	ra,0x8
   12b5c:	f22080e7          	jalr	-222(ra) # 1aa7a <_ZN9allow_pin12full_dynamic17unshare_if_shared17h6cf91b2080959258E>
   12b60:	00198513          	addi	a0,s3,1
   12b64:	02300613          	li	a2,35
   12b68:	85ca                	mv	a1,s2
   12b6a:	00008097          	auipc	ra,0x8
   12b6e:	f9a080e7          	jalr	-102(ra) # 1ab04 <memcpy>
   12b72:	4501                	li	a0,0
   12b74:	b765                	j	12b1c <_ZN20complex_full_dynamic3app17h4170505619856a14E+0xa2>

00012b76 <_ZN20complex_full_dynamic3app17h434c2a4f8f4df491E>:
   12b76:	7175                	addi	sp,sp,-144
   12b78:	c706                	sw	ra,140(sp)
   12b7a:	c522                	sw	s0,136(sp)
   12b7c:	c326                	sw	s1,132(sp)
   12b7e:	c14a                	sw	s2,128(sp)
   12b80:	dece                	sw	s3,124(sp)
   12b82:	89aa                	mv	s3,a0
   12b84:	4409                	li	s0,2
   12b86:	00810623          	sb	s0,12(sp)
   12b8a:	0804                	addi	s1,sp,16
   12b8c:	466d                	li	a2,27
   12b8e:	8526                	mv	a0,s1
   12b90:	00008097          	auipc	ra,0x8
   12b94:	f74080e7          	jalr	-140(ra) # 1ab04 <memcpy>
   12b98:	03810913          	addi	s2,sp,56
   12b9c:	04100613          	li	a2,65
   12ba0:	854a                	mv	a0,s2
   12ba2:	4581                	li	a1,0
   12ba4:	00008097          	auipc	ra,0x8
   12ba8:	ef4080e7          	jalr	-268(ra) # 1aa98 <memset>
   12bac:	8626                	mv	a2,s1
   12bae:	02810a23          	sb	s0,52(sp)
   12bb2:	14000793          	li	a5,320
   12bb6:	44a1                	li	s1,8
   12bb8:	4811                	li	a6,4
   12bba:	14000513          	li	a0,320
   12bbe:	45a1                	li	a1,8
   12bc0:	46ed                	li	a3,27
   12bc2:	4711                	li	a4,4
   12bc4:	00000073          	ecall
   12bc8:	04850563          	beq	a0,s0,12c12 <_ZN20complex_full_dynamic3app17h434c2a4f8f4df491E+0x9c>
   12bcc:	864a                	mv	a2,s2
   12bce:	c23e                	sw	a5,4(sp)
   12bd0:	c426                	sw	s1,8(sp)
   12bd2:	01010623          	sb	a6,12(sp)
   12bd6:	47a5                	li	a5,9
   12bd8:	448d                	li	s1,3
   12bda:	14000513          	li	a0,320
   12bde:	45a5                	li	a1,9
   12be0:	04100693          	li	a3,65
   12be4:	470d                	li	a4,3
   12be6:	00000073          	ecall
   12bea:	02850463          	beq	a0,s0,12c12 <_ZN20complex_full_dynamic3app17h434c2a4f8f4df491E+0x9c>
   12bee:	14000693          	li	a3,320
   12bf2:	14000513          	li	a0,320
   12bf6:	45a1                	li	a1,8
   12bf8:	4625                	li	a2,9
   12bfa:	4709                	li	a4,2
   12bfc:	07f00413          	li	s0,127
   12c00:	d636                	sw	a3,44(sp)
   12c02:	d83e                	sw	a5,48(sp)
   12c04:	02910a23          	sb	s1,52(sp)
   12c08:	4681                	li	a3,0
   12c0a:	00000073          	ecall
   12c0e:	02a46863          	bltu	s0,a0,12c3e <_ZN20complex_full_dynamic3app17h434c2a4f8f4df491E+0xc8>
   12c12:	00b9a223          	sw	a1,4(s3)
   12c16:	4505                	li	a0,1
   12c18:	00a98023          	sb	a0,0(s3)
   12c1c:	1068                	addi	a0,sp,44
   12c1e:	00008097          	auipc	ra,0x8
   12c22:	e5c080e7          	jalr	-420(ra) # 1aa7a <_ZN9allow_pin12full_dynamic17unshare_if_shared17h6cf91b2080959258E>
   12c26:	0048                	addi	a0,sp,4
   12c28:	00008097          	auipc	ra,0x8
   12c2c:	e52080e7          	jalr	-430(ra) # 1aa7a <_ZN9allow_pin12full_dynamic17unshare_if_shared17h6cf91b2080959258E>
   12c30:	40ba                	lw	ra,140(sp)
   12c32:	442a                	lw	s0,136(sp)
   12c34:	449a                	lw	s1,132(sp)
   12c36:	490a                	lw	s2,128(sp)
   12c38:	59f6                	lw	s3,124(sp)
   12c3a:	6149                	addi	sp,sp,144
   12c3c:	8082                	ret
   12c3e:	0048                	addi	a0,sp,4
   12c40:	00008097          	auipc	ra,0x8
   12c44:	e3a080e7          	jalr	-454(ra) # 1aa7a <_ZN9allow_pin12full_dynamic17unshare_if_shared17h6cf91b2080959258E>
   12c48:	1068                	addi	a0,sp,44
   12c4a:	00008097          	auipc	ra,0x8
   12c4e:	e30080e7          	jalr	-464(ra) # 1aa7a <_ZN9allow_pin12full_dynamic17unshare_if_shared17h6cf91b2080959258E>
   12c52:	1068                	addi	a0,sp,44
   12c54:	00008097          	auipc	ra,0x8
   12c58:	e26080e7          	jalr	-474(ra) # 1aa7a <_ZN9allow_pin12full_dynamic17unshare_if_shared17h6cf91b2080959258E>
   12c5c:	00198513          	addi	a0,s3,1
   12c60:	04100613          	li	a2,65
   12c64:	85ca                	mv	a1,s2
   12c66:	00008097          	auipc	ra,0x8
   12c6a:	e9e080e7          	jalr	-354(ra) # 1ab04 <memcpy>
   12c6e:	4501                	li	a0,0
   12c70:	b765                	j	12c18 <_ZN20complex_full_dynamic3app17h434c2a4f8f4df491E+0xa2>

00012c72 <_ZN20complex_full_dynamic3app17h462538e20bde3a4cE>:
   12c72:	7175                	addi	sp,sp,-144
   12c74:	c706                	sw	ra,140(sp)
   12c76:	c522                	sw	s0,136(sp)
   12c78:	c326                	sw	s1,132(sp)
   12c7a:	c14a                	sw	s2,128(sp)
   12c7c:	dece                	sw	s3,124(sp)
   12c7e:	89aa                	mv	s3,a0
   12c80:	4409                	li	s0,2
   12c82:	00810a23          	sb	s0,20(sp)
   12c86:	0824                	addi	s1,sp,24
   12c88:	4639                	li	a2,14
   12c8a:	8526                	mv	a0,s1
   12c8c:	00008097          	auipc	ra,0x8
   12c90:	e78080e7          	jalr	-392(ra) # 1ab04 <memcpy>
   12c94:	03410913          	addi	s2,sp,52
   12c98:	04800613          	li	a2,72
   12c9c:	854a                	mv	a0,s2
   12c9e:	4581                	li	a1,0
   12ca0:	00008097          	auipc	ra,0x8
   12ca4:	df8080e7          	jalr	-520(ra) # 1aa98 <memset>
   12ca8:	8626                	mv	a2,s1
   12caa:	02810823          	sb	s0,48(sp)
   12cae:	6505                	lui	a0,0x1
   12cb0:	448d                	li	s1,3
   12cb2:	4811                	li	a6,4
   12cb4:	458d                	li	a1,3
   12cb6:	2d150793          	addi	a5,a0,721 # 12d1 <.Lline_table_start1+0x10a6>
   12cba:	46b9                	li	a3,14
   12cbc:	4711                	li	a4,4
   12cbe:	853e                	mv	a0,a5
   12cc0:	00000073          	ecall
   12cc4:	04850363          	beq	a0,s0,12d0a <_ZN20complex_full_dynamic3app17h462538e20bde3a4cE+0x98>
   12cc8:	853e                	mv	a0,a5
   12cca:	864a                	mv	a2,s2
   12ccc:	c63e                	sw	a5,12(sp)
   12cce:	c826                	sw	s1,16(sp)
   12cd0:	01010a23          	sb	a6,20(sp)
   12cd4:	44a1                	li	s1,8
   12cd6:	45a1                	li	a1,8
   12cd8:	04800693          	li	a3,72
   12cdc:	470d                	li	a4,3
   12cde:	00000073          	ecall
   12ce2:	02850463          	beq	a0,s0,12d0a <_ZN20complex_full_dynamic3app17h462538e20bde3a4cE+0x98>
   12ce6:	450d                	li	a0,3
   12ce8:	6685                	lui	a3,0x1
   12cea:	458d                	li	a1,3
   12cec:	4621                	li	a2,8
   12cee:	d43e                	sw	a5,40(sp)
   12cf0:	d626                	sw	s1,44(sp)
   12cf2:	02a10823          	sb	a0,48(sp)
   12cf6:	2d168513          	addi	a0,a3,721 # 12d1 <.Lline_table_start1+0x10a6>
   12cfa:	4709                	li	a4,2
   12cfc:	07f00793          	li	a5,127
   12d00:	4681                	li	a3,0
   12d02:	00000073          	ecall
   12d06:	02a7e863          	bltu	a5,a0,12d36 <_ZN20complex_full_dynamic3app17h462538e20bde3a4cE+0xc4>
   12d0a:	00b9a223          	sw	a1,4(s3)
   12d0e:	4505                	li	a0,1
   12d10:	00a98023          	sb	a0,0(s3)
   12d14:	1028                	addi	a0,sp,40
   12d16:	00008097          	auipc	ra,0x8
   12d1a:	d64080e7          	jalr	-668(ra) # 1aa7a <_ZN9allow_pin12full_dynamic17unshare_if_shared17h6cf91b2080959258E>
   12d1e:	0068                	addi	a0,sp,12
   12d20:	00008097          	auipc	ra,0x8
   12d24:	d5a080e7          	jalr	-678(ra) # 1aa7a <_ZN9allow_pin12full_dynamic17unshare_if_shared17h6cf91b2080959258E>
   12d28:	40ba                	lw	ra,140(sp)
   12d2a:	442a                	lw	s0,136(sp)
   12d2c:	449a                	lw	s1,132(sp)
   12d2e:	490a                	lw	s2,128(sp)
   12d30:	59f6                	lw	s3,124(sp)
   12d32:	6149                	addi	sp,sp,144
   12d34:	8082                	ret
   12d36:	0068                	addi	a0,sp,12
   12d38:	00008097          	auipc	ra,0x8
   12d3c:	d42080e7          	jalr	-702(ra) # 1aa7a <_ZN9allow_pin12full_dynamic17unshare_if_shared17h6cf91b2080959258E>
   12d40:	1028                	addi	a0,sp,40
   12d42:	00008097          	auipc	ra,0x8
   12d46:	d38080e7          	jalr	-712(ra) # 1aa7a <_ZN9allow_pin12full_dynamic17unshare_if_shared17h6cf91b2080959258E>
   12d4a:	1028                	addi	a0,sp,40
   12d4c:	00008097          	auipc	ra,0x8
   12d50:	d2e080e7          	jalr	-722(ra) # 1aa7a <_ZN9allow_pin12full_dynamic17unshare_if_shared17h6cf91b2080959258E>
   12d54:	00198513          	addi	a0,s3,1
   12d58:	04800613          	li	a2,72
   12d5c:	85ca                	mv	a1,s2
   12d5e:	00008097          	auipc	ra,0x8
   12d62:	da6080e7          	jalr	-602(ra) # 1ab04 <memcpy>
   12d66:	4501                	li	a0,0
   12d68:	b765                	j	12d10 <_ZN20complex_full_dynamic3app17h462538e20bde3a4cE+0x9e>

00012d6a <_ZN20complex_full_dynamic3app17h4665bddbae6796ebE>:
   12d6a:	715d                	addi	sp,sp,-80
   12d6c:	c686                	sw	ra,76(sp)
   12d6e:	c4a2                	sw	s0,72(sp)
   12d70:	c2a6                	sw	s1,68(sp)
   12d72:	c0ca                	sw	s2,64(sp)
   12d74:	de4e                	sw	s3,60(sp)
   12d76:	89aa                	mv	s3,a0
   12d78:	4409                	li	s0,2
   12d7a:	00810423          	sb	s0,8(sp)
   12d7e:	0064                	addi	s1,sp,12
   12d80:	463d                	li	a2,15
   12d82:	8526                	mv	a0,s1
   12d84:	00008097          	auipc	ra,0x8
   12d88:	d80080e7          	jalr	-640(ra) # 1ab04 <memcpy>
   12d8c:	02810913          	addi	s2,sp,40
   12d90:	464d                	li	a2,19
   12d92:	854a                	mv	a0,s2
   12d94:	4581                	li	a1,0
   12d96:	00008097          	auipc	ra,0x8
   12d9a:	d02080e7          	jalr	-766(ra) # 1aa98 <memset>
   12d9e:	8626                	mv	a2,s1
   12da0:	02810223          	sb	s0,36(sp)
   12da4:	6509                	lui	a0,0x2
   12da6:	448d                	li	s1,3
   12da8:	4811                	li	a6,4
   12daa:	458d                	li	a1,3
   12dac:	e4b50793          	addi	a5,a0,-437 # 1e4b <.Lline_table_start1+0x1c20>
   12db0:	46bd                	li	a3,15
   12db2:	4711                	li	a4,4
   12db4:	853e                	mv	a0,a5
   12db6:	00000073          	ecall
   12dba:	04850163          	beq	a0,s0,12dfc <_ZN20complex_full_dynamic3app17h4665bddbae6796ebE+0x92>
   12dbe:	c03e                	sw	a5,0(sp)
   12dc0:	c226                	sw	s1,4(sp)
   12dc2:	01010423          	sb	a6,8(sp)
   12dc6:	46cd                	li	a3,19
   12dc8:	470d                	li	a4,3
   12dca:	853e                	mv	a0,a5
   12dcc:	4581                	li	a1,0
   12dce:	864a                	mv	a2,s2
   12dd0:	00000073          	ecall
   12dd4:	02850463          	beq	a0,s0,12dfc <_ZN20complex_full_dynamic3app17h4665bddbae6796ebE+0x92>
   12dd8:	450d                	li	a0,3
   12dda:	6609                	lui	a2,0x2
   12ddc:	458d                	li	a1,3
   12dde:	ce3e                	sw	a5,28(sp)
   12de0:	d002                	sw	zero,32(sp)
   12de2:	02a10223          	sb	a0,36(sp)
   12de6:	e4b60513          	addi	a0,a2,-437 # 1e4b <.Lline_table_start1+0x1c20>
   12dea:	4709                	li	a4,2
   12dec:	07f00793          	li	a5,127
   12df0:	4601                	li	a2,0
   12df2:	4681                	li	a3,0
   12df4:	00000073          	ecall
   12df8:	02a7e863          	bltu	a5,a0,12e28 <_ZN20complex_full_dynamic3app17h4665bddbae6796ebE+0xbe>
   12dfc:	00b9a223          	sw	a1,4(s3)
   12e00:	4505                	li	a0,1
   12e02:	00a98023          	sb	a0,0(s3)
   12e06:	0868                	addi	a0,sp,28
   12e08:	00008097          	auipc	ra,0x8
   12e0c:	c72080e7          	jalr	-910(ra) # 1aa7a <_ZN9allow_pin12full_dynamic17unshare_if_shared17h6cf91b2080959258E>
   12e10:	850a                	mv	a0,sp
   12e12:	00008097          	auipc	ra,0x8
   12e16:	c68080e7          	jalr	-920(ra) # 1aa7a <_ZN9allow_pin12full_dynamic17unshare_if_shared17h6cf91b2080959258E>
   12e1a:	40b6                	lw	ra,76(sp)
   12e1c:	4426                	lw	s0,72(sp)
   12e1e:	4496                	lw	s1,68(sp)
   12e20:	4906                	lw	s2,64(sp)
   12e22:	59f2                	lw	s3,60(sp)
   12e24:	6161                	addi	sp,sp,80
   12e26:	8082                	ret
   12e28:	850a                	mv	a0,sp
   12e2a:	00008097          	auipc	ra,0x8
   12e2e:	c50080e7          	jalr	-944(ra) # 1aa7a <_ZN9allow_pin12full_dynamic17unshare_if_shared17h6cf91b2080959258E>
   12e32:	0868                	addi	a0,sp,28
   12e34:	00008097          	auipc	ra,0x8
   12e38:	c46080e7          	jalr	-954(ra) # 1aa7a <_ZN9allow_pin12full_dynamic17unshare_if_shared17h6cf91b2080959258E>
   12e3c:	0868                	addi	a0,sp,28
   12e3e:	00008097          	auipc	ra,0x8
   12e42:	c3c080e7          	jalr	-964(ra) # 1aa7a <_ZN9allow_pin12full_dynamic17unshare_if_shared17h6cf91b2080959258E>
   12e46:	00198513          	addi	a0,s3,1
   12e4a:	464d                	li	a2,19
   12e4c:	85ca                	mv	a1,s2
   12e4e:	00008097          	auipc	ra,0x8
   12e52:	cb6080e7          	jalr	-842(ra) # 1ab04 <memcpy>
   12e56:	4501                	li	a0,0
   12e58:	b76d                	j	12e02 <_ZN20complex_full_dynamic3app17h4665bddbae6796ebE+0x98>

00012e5a <_ZN20complex_full_dynamic3app17h48618e032ff61255E>:
   12e5a:	7159                	addi	sp,sp,-112
   12e5c:	d686                	sw	ra,108(sp)
   12e5e:	d4a2                	sw	s0,104(sp)
   12e60:	d2a6                	sw	s1,100(sp)
   12e62:	d0ca                	sw	s2,96(sp)
   12e64:	cece                	sw	s3,92(sp)
   12e66:	89aa                	mv	s3,a0
   12e68:	4409                	li	s0,2
   12e6a:	00810a23          	sb	s0,20(sp)
   12e6e:	0824                	addi	s1,sp,24
   12e70:	463d                	li	a2,15
   12e72:	8526                	mv	a0,s1
   12e74:	00008097          	auipc	ra,0x8
   12e78:	c90080e7          	jalr	-880(ra) # 1ab04 <memcpy>
   12e7c:	03410913          	addi	s2,sp,52
   12e80:	02500613          	li	a2,37
   12e84:	854a                	mv	a0,s2
   12e86:	4581                	li	a1,0
   12e88:	00008097          	auipc	ra,0x8
   12e8c:	c10080e7          	jalr	-1008(ra) # 1aa98 <memset>
   12e90:	8626                	mv	a2,s1
   12e92:	02810823          	sb	s0,48(sp)
   12e96:	0a200793          	li	a5,162
   12e9a:	44a1                	li	s1,8
   12e9c:	4811                	li	a6,4
   12e9e:	0a200513          	li	a0,162
   12ea2:	45a1                	li	a1,8
   12ea4:	46bd                	li	a3,15
   12ea6:	4711                	li	a4,4
   12ea8:	00000073          	ecall
   12eac:	04850463          	beq	a0,s0,12ef4 <_ZN20complex_full_dynamic3app17h48618e032ff61255E+0x9a>
   12eb0:	4581                	li	a1,0
   12eb2:	864a                	mv	a2,s2
   12eb4:	c63e                	sw	a5,12(sp)
   12eb6:	c826                	sw	s1,16(sp)
   12eb8:	01010a23          	sb	a6,20(sp)
   12ebc:	478d                	li	a5,3
   12ebe:	0a200513          	li	a0,162
   12ec2:	02500693          	li	a3,37
   12ec6:	470d                	li	a4,3
   12ec8:	00000073          	ecall
   12ecc:	02850463          	beq	a0,s0,12ef4 <_ZN20complex_full_dynamic3app17h48618e032ff61255E+0x9a>
   12ed0:	0a200613          	li	a2,162
   12ed4:	0a200513          	li	a0,162
   12ed8:	45a1                	li	a1,8
   12eda:	4709                	li	a4,2
   12edc:	07f00493          	li	s1,127
   12ee0:	d432                	sw	a2,40(sp)
   12ee2:	d602                	sw	zero,44(sp)
   12ee4:	02f10823          	sb	a5,48(sp)
   12ee8:	4601                	li	a2,0
   12eea:	4681                	li	a3,0
   12eec:	00000073          	ecall
   12ef0:	02a4e863          	bltu	s1,a0,12f20 <_ZN20complex_full_dynamic3app17h48618e032ff61255E+0xc6>
   12ef4:	00b9a223          	sw	a1,4(s3)
   12ef8:	4505                	li	a0,1
   12efa:	00a98023          	sb	a0,0(s3)
   12efe:	1028                	addi	a0,sp,40
   12f00:	00008097          	auipc	ra,0x8
   12f04:	b7a080e7          	jalr	-1158(ra) # 1aa7a <_ZN9allow_pin12full_dynamic17unshare_if_shared17h6cf91b2080959258E>
   12f08:	0068                	addi	a0,sp,12
   12f0a:	00008097          	auipc	ra,0x8
   12f0e:	b70080e7          	jalr	-1168(ra) # 1aa7a <_ZN9allow_pin12full_dynamic17unshare_if_shared17h6cf91b2080959258E>
   12f12:	50b6                	lw	ra,108(sp)
   12f14:	5426                	lw	s0,104(sp)
   12f16:	5496                	lw	s1,100(sp)
   12f18:	5906                	lw	s2,96(sp)
   12f1a:	49f6                	lw	s3,92(sp)
   12f1c:	6165                	addi	sp,sp,112
   12f1e:	8082                	ret
   12f20:	0068                	addi	a0,sp,12
   12f22:	00008097          	auipc	ra,0x8
   12f26:	b58080e7          	jalr	-1192(ra) # 1aa7a <_ZN9allow_pin12full_dynamic17unshare_if_shared17h6cf91b2080959258E>
   12f2a:	1028                	addi	a0,sp,40
   12f2c:	00008097          	auipc	ra,0x8
   12f30:	b4e080e7          	jalr	-1202(ra) # 1aa7a <_ZN9allow_pin12full_dynamic17unshare_if_shared17h6cf91b2080959258E>
   12f34:	1028                	addi	a0,sp,40
   12f36:	00008097          	auipc	ra,0x8
   12f3a:	b44080e7          	jalr	-1212(ra) # 1aa7a <_ZN9allow_pin12full_dynamic17unshare_if_shared17h6cf91b2080959258E>
   12f3e:	00198513          	addi	a0,s3,1
   12f42:	02500613          	li	a2,37
   12f46:	85ca                	mv	a1,s2
   12f48:	00008097          	auipc	ra,0x8
   12f4c:	bbc080e7          	jalr	-1092(ra) # 1ab04 <memcpy>
   12f50:	4501                	li	a0,0
   12f52:	b765                	j	12efa <_ZN20complex_full_dynamic3app17h48618e032ff61255E+0xa0>

00012f54 <_ZN20complex_full_dynamic3app17h4b1d99a2a6e40973E>:
   12f54:	7159                	addi	sp,sp,-112
   12f56:	d686                	sw	ra,108(sp)
   12f58:	d4a2                	sw	s0,104(sp)
   12f5a:	d2a6                	sw	s1,100(sp)
   12f5c:	d0ca                	sw	s2,96(sp)
   12f5e:	cece                	sw	s3,92(sp)
   12f60:	89aa                	mv	s3,a0
   12f62:	4409                	li	s0,2
   12f64:	00810623          	sb	s0,12(sp)
   12f68:	0804                	addi	s1,sp,16
   12f6a:	4651                	li	a2,20
   12f6c:	8526                	mv	a0,s1
   12f6e:	00008097          	auipc	ra,0x8
   12f72:	b96080e7          	jalr	-1130(ra) # 1ab04 <memcpy>
   12f76:	03010913          	addi	s2,sp,48
   12f7a:	02b00613          	li	a2,43
   12f7e:	854a                	mv	a0,s2
   12f80:	4581                	li	a1,0
   12f82:	00008097          	auipc	ra,0x8
   12f86:	b16080e7          	jalr	-1258(ra) # 1aa98 <memset>
   12f8a:	8626                	mv	a2,s1
   12f8c:	02810623          	sb	s0,44(sp)
   12f90:	6509                	lui	a0,0x2
   12f92:	44a1                	li	s1,8
   12f94:	4811                	li	a6,4
   12f96:	45a1                	li	a1,8
   12f98:	39f50793          	addi	a5,a0,927 # 239f <.Lline_table_start1+0x2174>
   12f9c:	46d1                	li	a3,20
   12f9e:	4711                	li	a4,4
   12fa0:	853e                	mv	a0,a5
   12fa2:	00000073          	ecall
   12fa6:	04850363          	beq	a0,s0,12fec <_ZN20complex_full_dynamic3app17h4b1d99a2a6e40973E+0x98>
   12faa:	853e                	mv	a0,a5
   12fac:	864a                	mv	a2,s2
   12fae:	c23e                	sw	a5,4(sp)
   12fb0:	c426                	sw	s1,8(sp)
   12fb2:	01010623          	sb	a6,12(sp)
   12fb6:	448d                	li	s1,3
   12fb8:	4591                	li	a1,4
   12fba:	02b00693          	li	a3,43
   12fbe:	470d                	li	a4,3
   12fc0:	00000073          	ecall
   12fc4:	02850463          	beq	a0,s0,12fec <_ZN20complex_full_dynamic3app17h4b1d99a2a6e40973E+0x98>
   12fc8:	4511                	li	a0,4
   12fca:	6689                	lui	a3,0x2
   12fcc:	45a1                	li	a1,8
   12fce:	4611                	li	a2,4
   12fd0:	d23e                	sw	a5,36(sp)
   12fd2:	d42a                	sw	a0,40(sp)
   12fd4:	02910623          	sb	s1,44(sp)
   12fd8:	39f68513          	addi	a0,a3,927 # 239f <.Lline_table_start1+0x2174>
   12fdc:	4709                	li	a4,2
   12fde:	07f00793          	li	a5,127
   12fe2:	4681                	li	a3,0
   12fe4:	00000073          	ecall
   12fe8:	02a7e863          	bltu	a5,a0,13018 <_ZN20complex_full_dynamic3app17h4b1d99a2a6e40973E+0xc4>
   12fec:	00b9a223          	sw	a1,4(s3)
   12ff0:	4505                	li	a0,1
   12ff2:	00a98023          	sb	a0,0(s3)
   12ff6:	1048                	addi	a0,sp,36
   12ff8:	00008097          	auipc	ra,0x8
   12ffc:	a82080e7          	jalr	-1406(ra) # 1aa7a <_ZN9allow_pin12full_dynamic17unshare_if_shared17h6cf91b2080959258E>
   13000:	0048                	addi	a0,sp,4
   13002:	00008097          	auipc	ra,0x8
   13006:	a78080e7          	jalr	-1416(ra) # 1aa7a <_ZN9allow_pin12full_dynamic17unshare_if_shared17h6cf91b2080959258E>
   1300a:	50b6                	lw	ra,108(sp)
   1300c:	5426                	lw	s0,104(sp)
   1300e:	5496                	lw	s1,100(sp)
   13010:	5906                	lw	s2,96(sp)
   13012:	49f6                	lw	s3,92(sp)
   13014:	6165                	addi	sp,sp,112
   13016:	8082                	ret
   13018:	0048                	addi	a0,sp,4
   1301a:	00008097          	auipc	ra,0x8
   1301e:	a60080e7          	jalr	-1440(ra) # 1aa7a <_ZN9allow_pin12full_dynamic17unshare_if_shared17h6cf91b2080959258E>
   13022:	1048                	addi	a0,sp,36
   13024:	00008097          	auipc	ra,0x8
   13028:	a56080e7          	jalr	-1450(ra) # 1aa7a <_ZN9allow_pin12full_dynamic17unshare_if_shared17h6cf91b2080959258E>
   1302c:	1048                	addi	a0,sp,36
   1302e:	00008097          	auipc	ra,0x8
   13032:	a4c080e7          	jalr	-1460(ra) # 1aa7a <_ZN9allow_pin12full_dynamic17unshare_if_shared17h6cf91b2080959258E>
   13036:	00198513          	addi	a0,s3,1
   1303a:	02b00613          	li	a2,43
   1303e:	85ca                	mv	a1,s2
   13040:	00008097          	auipc	ra,0x8
   13044:	ac4080e7          	jalr	-1340(ra) # 1ab04 <memcpy>
   13048:	4501                	li	a0,0
   1304a:	b765                	j	12ff2 <_ZN20complex_full_dynamic3app17h4b1d99a2a6e40973E+0x9e>

0001304c <_ZN20complex_full_dynamic3app17h4b3c1eeca988433bE>:
   1304c:	7135                	addi	sp,sp,-160
   1304e:	cf06                	sw	ra,156(sp)
   13050:	cd22                	sw	s0,152(sp)
   13052:	cb26                	sw	s1,148(sp)
   13054:	c94a                	sw	s2,144(sp)
   13056:	c74e                	sw	s3,140(sp)
   13058:	89aa                	mv	s3,a0
   1305a:	4409                	li	s0,2
   1305c:	00810423          	sb	s0,8(sp)
   13060:	0064                	addi	s1,sp,12
   13062:	03c00613          	li	a2,60
   13066:	8526                	mv	a0,s1
   13068:	00008097          	auipc	ra,0x8
   1306c:	a9c080e7          	jalr	-1380(ra) # 1ab04 <memcpy>
   13070:	05410913          	addi	s2,sp,84
   13074:	03800613          	li	a2,56
   13078:	854a                	mv	a0,s2
   1307a:	4581                	li	a1,0
   1307c:	00008097          	auipc	ra,0x8
   13080:	a1c080e7          	jalr	-1508(ra) # 1aa98 <memset>
   13084:	8626                	mv	a2,s1
   13086:	04810823          	sb	s0,80(sp)
   1308a:	6509                	lui	a0,0x2
   1308c:	448d                	li	s1,3
   1308e:	4811                	li	a6,4
   13090:	458d                	li	a1,3
   13092:	d1950793          	addi	a5,a0,-743 # 1d19 <.Lline_table_start1+0x1aee>
   13096:	03c00693          	li	a3,60
   1309a:	4711                	li	a4,4
   1309c:	853e                	mv	a0,a5
   1309e:	00000073          	ecall
   130a2:	04850263          	beq	a0,s0,130e6 <_ZN20complex_full_dynamic3app17h4b3c1eeca988433bE+0x9a>
   130a6:	c03e                	sw	a5,0(sp)
   130a8:	c226                	sw	s1,4(sp)
   130aa:	01010423          	sb	a6,8(sp)
   130ae:	458d                	li	a1,3
   130b0:	03800693          	li	a3,56
   130b4:	470d                	li	a4,3
   130b6:	853e                	mv	a0,a5
   130b8:	864a                	mv	a2,s2
   130ba:	00000073          	ecall
   130be:	02850463          	beq	a0,s0,130e6 <_ZN20complex_full_dynamic3app17h4b3c1eeca988433bE+0x9a>
   130c2:	450d                	li	a0,3
   130c4:	6689                	lui	a3,0x2
   130c6:	458d                	li	a1,3
   130c8:	460d                	li	a2,3
   130ca:	c4be                	sw	a5,72(sp)
   130cc:	c6aa                	sw	a0,76(sp)
   130ce:	04a10823          	sb	a0,80(sp)
   130d2:	d1968513          	addi	a0,a3,-743 # 1d19 <.Lline_table_start1+0x1aee>
   130d6:	4709                	li	a4,2
   130d8:	07f00793          	li	a5,127
   130dc:	4681                	li	a3,0
   130de:	00000073          	ecall
   130e2:	02a7e863          	bltu	a5,a0,13112 <_ZN20complex_full_dynamic3app17h4b3c1eeca988433bE+0xc6>
   130e6:	00b9a223          	sw	a1,4(s3)
   130ea:	4505                	li	a0,1
   130ec:	00a98023          	sb	a0,0(s3)
   130f0:	00a8                	addi	a0,sp,72
   130f2:	00008097          	auipc	ra,0x8
   130f6:	988080e7          	jalr	-1656(ra) # 1aa7a <_ZN9allow_pin12full_dynamic17unshare_if_shared17h6cf91b2080959258E>
   130fa:	850a                	mv	a0,sp
   130fc:	00008097          	auipc	ra,0x8
   13100:	97e080e7          	jalr	-1666(ra) # 1aa7a <_ZN9allow_pin12full_dynamic17unshare_if_shared17h6cf91b2080959258E>
   13104:	40fa                	lw	ra,156(sp)
   13106:	446a                	lw	s0,152(sp)
   13108:	44da                	lw	s1,148(sp)
   1310a:	494a                	lw	s2,144(sp)
   1310c:	49ba                	lw	s3,140(sp)
   1310e:	610d                	addi	sp,sp,160
   13110:	8082                	ret
   13112:	850a                	mv	a0,sp
   13114:	00008097          	auipc	ra,0x8
   13118:	966080e7          	jalr	-1690(ra) # 1aa7a <_ZN9allow_pin12full_dynamic17unshare_if_shared17h6cf91b2080959258E>
   1311c:	00a8                	addi	a0,sp,72
   1311e:	00008097          	auipc	ra,0x8
   13122:	95c080e7          	jalr	-1700(ra) # 1aa7a <_ZN9allow_pin12full_dynamic17unshare_if_shared17h6cf91b2080959258E>
   13126:	00a8                	addi	a0,sp,72
   13128:	00008097          	auipc	ra,0x8
   1312c:	952080e7          	jalr	-1710(ra) # 1aa7a <_ZN9allow_pin12full_dynamic17unshare_if_shared17h6cf91b2080959258E>
   13130:	00198513          	addi	a0,s3,1
   13134:	03800613          	li	a2,56
   13138:	85ca                	mv	a1,s2
   1313a:	00008097          	auipc	ra,0x8
   1313e:	9ca080e7          	jalr	-1590(ra) # 1ab04 <memcpy>
   13142:	4501                	li	a0,0
   13144:	b765                	j	130ec <_ZN20complex_full_dynamic3app17h4b3c1eeca988433bE+0xa0>

00013146 <_ZN20complex_full_dynamic3app17h4cd8293982950b97E>:
   13146:	7131                	addi	sp,sp,-192
   13148:	df06                	sw	ra,188(sp)
   1314a:	dd22                	sw	s0,184(sp)
   1314c:	db26                	sw	s1,180(sp)
   1314e:	d94a                	sw	s2,176(sp)
   13150:	d74e                	sw	s3,172(sp)
   13152:	89aa                	mv	s3,a0
   13154:	4409                	li	s0,2
   13156:	00810a23          	sb	s0,20(sp)
   1315a:	0824                	addi	s1,sp,24
   1315c:	02a00613          	li	a2,42
   13160:	8526                	mv	a0,s1
   13162:	00008097          	auipc	ra,0x8
   13166:	9a2080e7          	jalr	-1630(ra) # 1ab04 <memcpy>
   1316a:	05010913          	addi	s2,sp,80
   1316e:	05900613          	li	a2,89
   13172:	854a                	mv	a0,s2
   13174:	4581                	li	a1,0
   13176:	00008097          	auipc	ra,0x8
   1317a:	922080e7          	jalr	-1758(ra) # 1aa98 <memset>
   1317e:	8626                	mv	a2,s1
   13180:	04810623          	sb	s0,76(sp)
   13184:	6505                	lui	a0,0x1
   13186:	4485                	li	s1,1
   13188:	4811                	li	a6,4
   1318a:	4585                	li	a1,1
   1318c:	ed250793          	addi	a5,a0,-302 # ed2 <.Lline_table_start1+0xca7>
   13190:	02a00693          	li	a3,42
   13194:	4711                	li	a4,4
   13196:	853e                	mv	a0,a5
   13198:	00000073          	ecall
   1319c:	04850263          	beq	a0,s0,131e0 <_ZN20complex_full_dynamic3app17h4cd8293982950b97E+0x9a>
   131a0:	853e                	mv	a0,a5
   131a2:	864a                	mv	a2,s2
   131a4:	c63e                	sw	a5,12(sp)
   131a6:	c826                	sw	s1,16(sp)
   131a8:	01010a23          	sb	a6,20(sp)
   131ac:	448d                	li	s1,3
   131ae:	458d                	li	a1,3
   131b0:	05900693          	li	a3,89
   131b4:	470d                	li	a4,3
   131b6:	00000073          	ecall
   131ba:	02850363          	beq	a0,s0,131e0 <_ZN20complex_full_dynamic3app17h4cd8293982950b97E+0x9a>
   131be:	c2be                	sw	a5,68(sp)
   131c0:	c4a6                	sw	s1,72(sp)
   131c2:	04910623          	sb	s1,76(sp)
   131c6:	6505                	lui	a0,0x1
   131c8:	4585                	li	a1,1
   131ca:	460d                	li	a2,3
   131cc:	ed250513          	addi	a0,a0,-302 # ed2 <.Lline_table_start1+0xca7>
   131d0:	4709                	li	a4,2
   131d2:	07f00793          	li	a5,127
   131d6:	4681                	li	a3,0
   131d8:	00000073          	ecall
   131dc:	02a7e863          	bltu	a5,a0,1320c <_ZN20complex_full_dynamic3app17h4cd8293982950b97E+0xc6>
   131e0:	00b9a223          	sw	a1,4(s3)
   131e4:	4505                	li	a0,1
   131e6:	00a98023          	sb	a0,0(s3)
   131ea:	00c8                	addi	a0,sp,68
   131ec:	00008097          	auipc	ra,0x8
   131f0:	88e080e7          	jalr	-1906(ra) # 1aa7a <_ZN9allow_pin12full_dynamic17unshare_if_shared17h6cf91b2080959258E>
   131f4:	0068                	addi	a0,sp,12
   131f6:	00008097          	auipc	ra,0x8
   131fa:	884080e7          	jalr	-1916(ra) # 1aa7a <_ZN9allow_pin12full_dynamic17unshare_if_shared17h6cf91b2080959258E>
   131fe:	50fa                	lw	ra,188(sp)
   13200:	546a                	lw	s0,184(sp)
   13202:	54da                	lw	s1,180(sp)
   13204:	594a                	lw	s2,176(sp)
   13206:	59ba                	lw	s3,172(sp)
   13208:	6129                	addi	sp,sp,192
   1320a:	8082                	ret
   1320c:	0068                	addi	a0,sp,12
   1320e:	00008097          	auipc	ra,0x8
   13212:	86c080e7          	jalr	-1940(ra) # 1aa7a <_ZN9allow_pin12full_dynamic17unshare_if_shared17h6cf91b2080959258E>
   13216:	00c8                	addi	a0,sp,68
   13218:	00008097          	auipc	ra,0x8
   1321c:	862080e7          	jalr	-1950(ra) # 1aa7a <_ZN9allow_pin12full_dynamic17unshare_if_shared17h6cf91b2080959258E>
   13220:	00c8                	addi	a0,sp,68
   13222:	00008097          	auipc	ra,0x8
   13226:	858080e7          	jalr	-1960(ra) # 1aa7a <_ZN9allow_pin12full_dynamic17unshare_if_shared17h6cf91b2080959258E>
   1322a:	00198513          	addi	a0,s3,1
   1322e:	05900613          	li	a2,89
   13232:	85ca                	mv	a1,s2
   13234:	00008097          	auipc	ra,0x8
   13238:	8d0080e7          	jalr	-1840(ra) # 1ab04 <memcpy>
   1323c:	4501                	li	a0,0
   1323e:	b765                	j	131e6 <_ZN20complex_full_dynamic3app17h4cd8293982950b97E+0xa0>

00013240 <_ZN20complex_full_dynamic3app17h539e4f64e5cf3cc8E>:
   13240:	7131                	addi	sp,sp,-192
   13242:	df06                	sw	ra,188(sp)
   13244:	dd22                	sw	s0,184(sp)
   13246:	db26                	sw	s1,180(sp)
   13248:	d94a                	sw	s2,176(sp)
   1324a:	d74e                	sw	s3,172(sp)
   1324c:	89aa                	mv	s3,a0
   1324e:	4409                	li	s0,2
   13250:	00810823          	sb	s0,16(sp)
   13254:	0844                	addi	s1,sp,20
   13256:	05500613          	li	a2,85
   1325a:	8526                	mv	a0,s1
   1325c:	00008097          	auipc	ra,0x8
   13260:	8a8080e7          	jalr	-1880(ra) # 1ab04 <memcpy>
   13264:	07810913          	addi	s2,sp,120
   13268:	03200613          	li	a2,50
   1326c:	854a                	mv	a0,s2
   1326e:	4581                	li	a1,0
   13270:	00008097          	auipc	ra,0x8
   13274:	828080e7          	jalr	-2008(ra) # 1aa98 <memset>
   13278:	8626                	mv	a2,s1
   1327a:	06810a23          	sb	s0,116(sp)
   1327e:	6509                	lui	a0,0x2
   13280:	44a1                	li	s1,8
   13282:	4811                	li	a6,4
   13284:	45a1                	li	a1,8
   13286:	09550793          	addi	a5,a0,149 # 2095 <.Lline_table_start1+0x1e6a>
   1328a:	05500693          	li	a3,85
   1328e:	4711                	li	a4,4
   13290:	853e                	mv	a0,a5
   13292:	00000073          	ecall
   13296:	04850363          	beq	a0,s0,132dc <_ZN20complex_full_dynamic3app17h539e4f64e5cf3cc8E+0x9c>
   1329a:	853e                	mv	a0,a5
   1329c:	864a                	mv	a2,s2
   1329e:	c43e                	sw	a5,8(sp)
   132a0:	c626                	sw	s1,12(sp)
   132a2:	01010823          	sb	a6,16(sp)
   132a6:	448d                	li	s1,3
   132a8:	45a1                	li	a1,8
   132aa:	03200693          	li	a3,50
   132ae:	470d                	li	a4,3
   132b0:	00000073          	ecall
   132b4:	02850463          	beq	a0,s0,132dc <_ZN20complex_full_dynamic3app17h539e4f64e5cf3cc8E+0x9c>
   132b8:	4521                	li	a0,8
   132ba:	6689                	lui	a3,0x2
   132bc:	45a1                	li	a1,8
   132be:	4621                	li	a2,8
   132c0:	d6be                	sw	a5,108(sp)
   132c2:	d8aa                	sw	a0,112(sp)
   132c4:	06910a23          	sb	s1,116(sp)
   132c8:	09568513          	addi	a0,a3,149 # 2095 <.Lline_table_start1+0x1e6a>
   132cc:	4709                	li	a4,2
   132ce:	07f00793          	li	a5,127
   132d2:	4681                	li	a3,0
   132d4:	00000073          	ecall
   132d8:	02a7e863          	bltu	a5,a0,13308 <_ZN20complex_full_dynamic3app17h539e4f64e5cf3cc8E+0xc8>
   132dc:	00b9a223          	sw	a1,4(s3)
   132e0:	4505                	li	a0,1
   132e2:	00a98023          	sb	a0,0(s3)
   132e6:	10e8                	addi	a0,sp,108
   132e8:	00007097          	auipc	ra,0x7
   132ec:	792080e7          	jalr	1938(ra) # 1aa7a <_ZN9allow_pin12full_dynamic17unshare_if_shared17h6cf91b2080959258E>
   132f0:	0028                	addi	a0,sp,8
   132f2:	00007097          	auipc	ra,0x7
   132f6:	788080e7          	jalr	1928(ra) # 1aa7a <_ZN9allow_pin12full_dynamic17unshare_if_shared17h6cf91b2080959258E>
   132fa:	50fa                	lw	ra,188(sp)
   132fc:	546a                	lw	s0,184(sp)
   132fe:	54da                	lw	s1,180(sp)
   13300:	594a                	lw	s2,176(sp)
   13302:	59ba                	lw	s3,172(sp)
   13304:	6129                	addi	sp,sp,192
   13306:	8082                	ret
   13308:	0028                	addi	a0,sp,8
   1330a:	00007097          	auipc	ra,0x7
   1330e:	770080e7          	jalr	1904(ra) # 1aa7a <_ZN9allow_pin12full_dynamic17unshare_if_shared17h6cf91b2080959258E>
   13312:	10e8                	addi	a0,sp,108
   13314:	00007097          	auipc	ra,0x7
   13318:	766080e7          	jalr	1894(ra) # 1aa7a <_ZN9allow_pin12full_dynamic17unshare_if_shared17h6cf91b2080959258E>
   1331c:	10e8                	addi	a0,sp,108
   1331e:	00007097          	auipc	ra,0x7
   13322:	75c080e7          	jalr	1884(ra) # 1aa7a <_ZN9allow_pin12full_dynamic17unshare_if_shared17h6cf91b2080959258E>
   13326:	00198513          	addi	a0,s3,1
   1332a:	03200613          	li	a2,50
   1332e:	85ca                	mv	a1,s2
   13330:	00007097          	auipc	ra,0x7
   13334:	7d4080e7          	jalr	2004(ra) # 1ab04 <memcpy>
   13338:	4501                	li	a0,0
   1333a:	b765                	j	132e2 <_ZN20complex_full_dynamic3app17h539e4f64e5cf3cc8E+0xa2>

0001333c <_ZN20complex_full_dynamic3app17h5656b3a7c9d6a7c2E>:
   1333c:	7171                	addi	sp,sp,-176
   1333e:	d706                	sw	ra,172(sp)
   13340:	d522                	sw	s0,168(sp)
   13342:	d326                	sw	s1,164(sp)
   13344:	d14a                	sw	s2,160(sp)
   13346:	cf4e                	sw	s3,156(sp)
   13348:	89aa                	mv	s3,a0
   1334a:	4409                	li	s0,2
   1334c:	00810823          	sb	s0,16(sp)
   13350:	0844                	addi	s1,sp,20
   13352:	02700613          	li	a2,39
   13356:	8526                	mv	a0,s1
   13358:	00007097          	auipc	ra,0x7
   1335c:	7ac080e7          	jalr	1964(ra) # 1ab04 <memcpy>
   13360:	04810913          	addi	s2,sp,72
   13364:	05100613          	li	a2,81
   13368:	854a                	mv	a0,s2
   1336a:	4581                	li	a1,0
   1336c:	00007097          	auipc	ra,0x7
   13370:	72c080e7          	jalr	1836(ra) # 1aa98 <memset>
   13374:	4581                	li	a1,0
   13376:	8626                	mv	a2,s1
   13378:	04810223          	sb	s0,68(sp)
   1337c:	6505                	lui	a0,0x1
   1337e:	4491                	li	s1,4
   13380:	a3650793          	addi	a5,a0,-1482 # a36 <.Lline_table_start1+0x80b>
   13384:	02700693          	li	a3,39
   13388:	4711                	li	a4,4
   1338a:	853e                	mv	a0,a5
   1338c:	00000073          	ecall
   13390:	04850363          	beq	a0,s0,133d6 <_ZN20complex_full_dynamic3app17h5656b3a7c9d6a7c2E+0x9a>
   13394:	853e                	mv	a0,a5
   13396:	864a                	mv	a2,s2
   13398:	c43e                	sw	a5,8(sp)
   1339a:	c602                	sw	zero,12(sp)
   1339c:	00910823          	sb	s1,16(sp)
   133a0:	448d                	li	s1,3
   133a2:	4591                	li	a1,4
   133a4:	05100693          	li	a3,81
   133a8:	470d                	li	a4,3
   133aa:	00000073          	ecall
   133ae:	02850463          	beq	a0,s0,133d6 <_ZN20complex_full_dynamic3app17h5656b3a7c9d6a7c2E+0x9a>
   133b2:	4511                	li	a0,4
   133b4:	6585                	lui	a1,0x1
   133b6:	4611                	li	a2,4
   133b8:	de3e                	sw	a5,60(sp)
   133ba:	c0aa                	sw	a0,64(sp)
   133bc:	04910223          	sb	s1,68(sp)
   133c0:	a3658513          	addi	a0,a1,-1482 # a36 <.Lline_table_start1+0x80b>
   133c4:	4709                	li	a4,2
   133c6:	07f00793          	li	a5,127
   133ca:	4581                	li	a1,0
   133cc:	4681                	li	a3,0
   133ce:	00000073          	ecall
   133d2:	02a7e863          	bltu	a5,a0,13402 <_ZN20complex_full_dynamic3app17h5656b3a7c9d6a7c2E+0xc6>
   133d6:	00b9a223          	sw	a1,4(s3)
   133da:	4505                	li	a0,1
   133dc:	00a98023          	sb	a0,0(s3)
   133e0:	1868                	addi	a0,sp,60
   133e2:	00007097          	auipc	ra,0x7
   133e6:	698080e7          	jalr	1688(ra) # 1aa7a <_ZN9allow_pin12full_dynamic17unshare_if_shared17h6cf91b2080959258E>
   133ea:	0028                	addi	a0,sp,8
   133ec:	00007097          	auipc	ra,0x7
   133f0:	68e080e7          	jalr	1678(ra) # 1aa7a <_ZN9allow_pin12full_dynamic17unshare_if_shared17h6cf91b2080959258E>
   133f4:	50ba                	lw	ra,172(sp)
   133f6:	542a                	lw	s0,168(sp)
   133f8:	549a                	lw	s1,164(sp)
   133fa:	590a                	lw	s2,160(sp)
   133fc:	49fa                	lw	s3,156(sp)
   133fe:	614d                	addi	sp,sp,176
   13400:	8082                	ret
   13402:	0028                	addi	a0,sp,8
   13404:	00007097          	auipc	ra,0x7
   13408:	676080e7          	jalr	1654(ra) # 1aa7a <_ZN9allow_pin12full_dynamic17unshare_if_shared17h6cf91b2080959258E>
   1340c:	1868                	addi	a0,sp,60
   1340e:	00007097          	auipc	ra,0x7
   13412:	66c080e7          	jalr	1644(ra) # 1aa7a <_ZN9allow_pin12full_dynamic17unshare_if_shared17h6cf91b2080959258E>
   13416:	1868                	addi	a0,sp,60
   13418:	00007097          	auipc	ra,0x7
   1341c:	662080e7          	jalr	1634(ra) # 1aa7a <_ZN9allow_pin12full_dynamic17unshare_if_shared17h6cf91b2080959258E>
   13420:	00198513          	addi	a0,s3,1
   13424:	05100613          	li	a2,81
   13428:	85ca                	mv	a1,s2
   1342a:	00007097          	auipc	ra,0x7
   1342e:	6da080e7          	jalr	1754(ra) # 1ab04 <memcpy>
   13432:	4501                	li	a0,0
   13434:	b765                	j	133dc <_ZN20complex_full_dynamic3app17h5656b3a7c9d6a7c2E+0xa0>

00013436 <_ZN20complex_full_dynamic3app17h59a95a8d42d87d9eE>:
   13436:	7131                	addi	sp,sp,-192
   13438:	df06                	sw	ra,188(sp)
   1343a:	dd22                	sw	s0,184(sp)
   1343c:	db26                	sw	s1,180(sp)
   1343e:	d94a                	sw	s2,176(sp)
   13440:	d74e                	sw	s3,172(sp)
   13442:	89aa                	mv	s3,a0
   13444:	4409                	li	s0,2
   13446:	00810823          	sb	s0,16(sp)
   1344a:	0844                	addi	s1,sp,20
   1344c:	06300613          	li	a2,99
   13450:	8526                	mv	a0,s1
   13452:	00007097          	auipc	ra,0x7
   13456:	6b2080e7          	jalr	1714(ra) # 1ab04 <memcpy>
   1345a:	08410913          	addi	s2,sp,132
   1345e:	02700613          	li	a2,39
   13462:	854a                	mv	a0,s2
   13464:	4581                	li	a1,0
   13466:	00007097          	auipc	ra,0x7
   1346a:	632080e7          	jalr	1586(ra) # 1aa98 <memset>
   1346e:	8626                	mv	a2,s1
   13470:	08810023          	sb	s0,128(sp)
   13474:	6509                	lui	a0,0x2
   13476:	449d                	li	s1,7
   13478:	4811                	li	a6,4
   1347a:	459d                	li	a1,7
   1347c:	e5450793          	addi	a5,a0,-428 # 1e54 <.Lline_table_start1+0x1c29>
   13480:	06300693          	li	a3,99
   13484:	4711                	li	a4,4
   13486:	853e                	mv	a0,a5
   13488:	00000073          	ecall
   1348c:	04850263          	beq	a0,s0,134d0 <_ZN20complex_full_dynamic3app17h59a95a8d42d87d9eE+0x9a>
   13490:	853e                	mv	a0,a5
   13492:	4581                	li	a1,0
   13494:	864a                	mv	a2,s2
   13496:	c43e                	sw	a5,8(sp)
   13498:	c626                	sw	s1,12(sp)
   1349a:	01010823          	sb	a6,16(sp)
   1349e:	448d                	li	s1,3
   134a0:	02700693          	li	a3,39
   134a4:	470d                	li	a4,3
   134a6:	00000073          	ecall
   134aa:	02850363          	beq	a0,s0,134d0 <_ZN20complex_full_dynamic3app17h59a95a8d42d87d9eE+0x9a>
   134ae:	dcbe                	sw	a5,120(sp)
   134b0:	de82                	sw	zero,124(sp)
   134b2:	08910023          	sb	s1,128(sp)
   134b6:	6509                	lui	a0,0x2
   134b8:	459d                	li	a1,7
   134ba:	e5450513          	addi	a0,a0,-428 # 1e54 <.Lline_table_start1+0x1c29>
   134be:	4709                	li	a4,2
   134c0:	07f00793          	li	a5,127
   134c4:	4601                	li	a2,0
   134c6:	4681                	li	a3,0
   134c8:	00000073          	ecall
   134cc:	02a7e863          	bltu	a5,a0,134fc <_ZN20complex_full_dynamic3app17h59a95a8d42d87d9eE+0xc6>
   134d0:	00b9a223          	sw	a1,4(s3)
   134d4:	4505                	li	a0,1
   134d6:	00a98023          	sb	a0,0(s3)
   134da:	18a8                	addi	a0,sp,120
   134dc:	00007097          	auipc	ra,0x7
   134e0:	59e080e7          	jalr	1438(ra) # 1aa7a <_ZN9allow_pin12full_dynamic17unshare_if_shared17h6cf91b2080959258E>
   134e4:	0028                	addi	a0,sp,8
   134e6:	00007097          	auipc	ra,0x7
   134ea:	594080e7          	jalr	1428(ra) # 1aa7a <_ZN9allow_pin12full_dynamic17unshare_if_shared17h6cf91b2080959258E>
   134ee:	50fa                	lw	ra,188(sp)
   134f0:	546a                	lw	s0,184(sp)
   134f2:	54da                	lw	s1,180(sp)
   134f4:	594a                	lw	s2,176(sp)
   134f6:	59ba                	lw	s3,172(sp)
   134f8:	6129                	addi	sp,sp,192
   134fa:	8082                	ret
   134fc:	0028                	addi	a0,sp,8
   134fe:	00007097          	auipc	ra,0x7
   13502:	57c080e7          	jalr	1404(ra) # 1aa7a <_ZN9allow_pin12full_dynamic17unshare_if_shared17h6cf91b2080959258E>
   13506:	18a8                	addi	a0,sp,120
   13508:	00007097          	auipc	ra,0x7
   1350c:	572080e7          	jalr	1394(ra) # 1aa7a <_ZN9allow_pin12full_dynamic17unshare_if_shared17h6cf91b2080959258E>
   13510:	18a8                	addi	a0,sp,120
   13512:	00007097          	auipc	ra,0x7
   13516:	568080e7          	jalr	1384(ra) # 1aa7a <_ZN9allow_pin12full_dynamic17unshare_if_shared17h6cf91b2080959258E>
   1351a:	00198513          	addi	a0,s3,1
   1351e:	02700613          	li	a2,39
   13522:	85ca                	mv	a1,s2
   13524:	00007097          	auipc	ra,0x7
   13528:	5e0080e7          	jalr	1504(ra) # 1ab04 <memcpy>
   1352c:	4501                	li	a0,0
   1352e:	b765                	j	134d6 <_ZN20complex_full_dynamic3app17h59a95a8d42d87d9eE+0xa0>

00013530 <_ZN20complex_full_dynamic3app17h5a664abc2a91c47eE>:
   13530:	7119                	addi	sp,sp,-128
   13532:	de86                	sw	ra,124(sp)
   13534:	dca2                	sw	s0,120(sp)
   13536:	daa6                	sw	s1,116(sp)
   13538:	d8ca                	sw	s2,112(sp)
   1353a:	d6ce                	sw	s3,108(sp)
   1353c:	89aa                	mv	s3,a0
   1353e:	4409                	li	s0,2
   13540:	00810623          	sb	s0,12(sp)
   13544:	0804                	addi	s1,sp,16
   13546:	02300613          	li	a2,35
   1354a:	8526                	mv	a0,s1
   1354c:	00007097          	auipc	ra,0x7
   13550:	5b8080e7          	jalr	1464(ra) # 1ab04 <memcpy>
   13554:	04010913          	addi	s2,sp,64
   13558:	02b00613          	li	a2,43
   1355c:	854a                	mv	a0,s2
   1355e:	4581                	li	a1,0
   13560:	00007097          	auipc	ra,0x7
   13564:	538080e7          	jalr	1336(ra) # 1aa98 <memset>
   13568:	8626                	mv	a2,s1
   1356a:	02810e23          	sb	s0,60(sp)
   1356e:	6505                	lui	a0,0x1
   13570:	4491                	li	s1,4
   13572:	4589                	li	a1,2
   13574:	d5d50793          	addi	a5,a0,-675 # d5d <.Lline_table_start1+0xb32>
   13578:	02300693          	li	a3,35
   1357c:	4711                	li	a4,4
   1357e:	853e                	mv	a0,a5
   13580:	00000073          	ecall
   13584:	04850263          	beq	a0,s0,135c8 <_ZN20complex_full_dynamic3app17h5a664abc2a91c47eE+0x98>
   13588:	853e                	mv	a0,a5
   1358a:	4581                	li	a1,0
   1358c:	864a                	mv	a2,s2
   1358e:	c23e                	sw	a5,4(sp)
   13590:	c422                	sw	s0,8(sp)
   13592:	00910623          	sb	s1,12(sp)
   13596:	448d                	li	s1,3
   13598:	02b00693          	li	a3,43
   1359c:	470d                	li	a4,3
   1359e:	00000073          	ecall
   135a2:	02850363          	beq	a0,s0,135c8 <_ZN20complex_full_dynamic3app17h5a664abc2a91c47eE+0x98>
   135a6:	da3e                	sw	a5,52(sp)
   135a8:	dc02                	sw	zero,56(sp)
   135aa:	02910e23          	sb	s1,60(sp)
   135ae:	6505                	lui	a0,0x1
   135b0:	4589                	li	a1,2
   135b2:	d5d50513          	addi	a0,a0,-675 # d5d <.Lline_table_start1+0xb32>
   135b6:	4709                	li	a4,2
   135b8:	07f00793          	li	a5,127
   135bc:	4601                	li	a2,0
   135be:	4681                	li	a3,0
   135c0:	00000073          	ecall
   135c4:	02a7e863          	bltu	a5,a0,135f4 <_ZN20complex_full_dynamic3app17h5a664abc2a91c47eE+0xc4>
   135c8:	00b9a223          	sw	a1,4(s3)
   135cc:	4505                	li	a0,1
   135ce:	00a98023          	sb	a0,0(s3)
   135d2:	1848                	addi	a0,sp,52
   135d4:	00007097          	auipc	ra,0x7
   135d8:	4a6080e7          	jalr	1190(ra) # 1aa7a <_ZN9allow_pin12full_dynamic17unshare_if_shared17h6cf91b2080959258E>
   135dc:	0048                	addi	a0,sp,4
   135de:	00007097          	auipc	ra,0x7
   135e2:	49c080e7          	jalr	1180(ra) # 1aa7a <_ZN9allow_pin12full_dynamic17unshare_if_shared17h6cf91b2080959258E>
   135e6:	50f6                	lw	ra,124(sp)
   135e8:	5466                	lw	s0,120(sp)
   135ea:	54d6                	lw	s1,116(sp)
   135ec:	5946                	lw	s2,112(sp)
   135ee:	59b6                	lw	s3,108(sp)
   135f0:	6109                	addi	sp,sp,128
   135f2:	8082                	ret
   135f4:	0048                	addi	a0,sp,4
   135f6:	00007097          	auipc	ra,0x7
   135fa:	484080e7          	jalr	1156(ra) # 1aa7a <_ZN9allow_pin12full_dynamic17unshare_if_shared17h6cf91b2080959258E>
   135fe:	1848                	addi	a0,sp,52
   13600:	00007097          	auipc	ra,0x7
   13604:	47a080e7          	jalr	1146(ra) # 1aa7a <_ZN9allow_pin12full_dynamic17unshare_if_shared17h6cf91b2080959258E>
   13608:	1848                	addi	a0,sp,52
   1360a:	00007097          	auipc	ra,0x7
   1360e:	470080e7          	jalr	1136(ra) # 1aa7a <_ZN9allow_pin12full_dynamic17unshare_if_shared17h6cf91b2080959258E>
   13612:	00198513          	addi	a0,s3,1
   13616:	02b00613          	li	a2,43
   1361a:	85ca                	mv	a1,s2
   1361c:	00007097          	auipc	ra,0x7
   13620:	4e8080e7          	jalr	1256(ra) # 1ab04 <memcpy>
   13624:	4501                	li	a0,0
   13626:	b765                	j	135ce <_ZN20complex_full_dynamic3app17h5a664abc2a91c47eE+0x9e>

00013628 <_ZN20complex_full_dynamic3app17h5d99b3817c650988E>:
   13628:	7119                	addi	sp,sp,-128
   1362a:	de86                	sw	ra,124(sp)
   1362c:	dca2                	sw	s0,120(sp)
   1362e:	daa6                	sw	s1,116(sp)
   13630:	d8ca                	sw	s2,112(sp)
   13632:	d6ce                	sw	s3,108(sp)
   13634:	89aa                	mv	s3,a0
   13636:	4409                	li	s0,2
   13638:	00810a23          	sb	s0,20(sp)
   1363c:	0824                	addi	s1,sp,24
   1363e:	02300613          	li	a2,35
   13642:	8526                	mv	a0,s1
   13644:	00007097          	auipc	ra,0x7
   13648:	4c0080e7          	jalr	1216(ra) # 1ab04 <memcpy>
   1364c:	04810913          	addi	s2,sp,72
   13650:	02400613          	li	a2,36
   13654:	854a                	mv	a0,s2
   13656:	4581                	li	a1,0
   13658:	00007097          	auipc	ra,0x7
   1365c:	440080e7          	jalr	1088(ra) # 1aa98 <memset>
   13660:	8626                	mv	a2,s1
   13662:	04810223          	sb	s0,68(sp)
   13666:	6509                	lui	a0,0x2
   13668:	4491                	li	s1,4
   1366a:	4591                	li	a1,4
   1366c:	bd650793          	addi	a5,a0,-1066 # 1bd6 <.Lline_table_start1+0x19ab>
   13670:	02300693          	li	a3,35
   13674:	4711                	li	a4,4
   13676:	853e                	mv	a0,a5
   13678:	00000073          	ecall
   1367c:	04850363          	beq	a0,s0,136c2 <_ZN20complex_full_dynamic3app17h5d99b3817c650988E+0x9a>
   13680:	853e                	mv	a0,a5
   13682:	864a                	mv	a2,s2
   13684:	c63e                	sw	a5,12(sp)
   13686:	c826                	sw	s1,16(sp)
   13688:	00910a23          	sb	s1,20(sp)
   1368c:	44a1                	li	s1,8
   1368e:	480d                	li	a6,3
   13690:	45a1                	li	a1,8
   13692:	02400693          	li	a3,36
   13696:	470d                	li	a4,3
   13698:	00000073          	ecall
   1369c:	02850363          	beq	a0,s0,136c2 <_ZN20complex_full_dynamic3app17h5d99b3817c650988E+0x9a>
   136a0:	de3e                	sw	a5,60(sp)
   136a2:	c0a6                	sw	s1,64(sp)
   136a4:	05010223          	sb	a6,68(sp)
   136a8:	6509                	lui	a0,0x2
   136aa:	4591                	li	a1,4
   136ac:	4621                	li	a2,8
   136ae:	bd650513          	addi	a0,a0,-1066 # 1bd6 <.Lline_table_start1+0x19ab>
   136b2:	4709                	li	a4,2
   136b4:	07f00793          	li	a5,127
   136b8:	4681                	li	a3,0
   136ba:	00000073          	ecall
   136be:	02a7e863          	bltu	a5,a0,136ee <_ZN20complex_full_dynamic3app17h5d99b3817c650988E+0xc6>
   136c2:	00b9a223          	sw	a1,4(s3)
   136c6:	4505                	li	a0,1
   136c8:	00a98023          	sb	a0,0(s3)
   136cc:	1868                	addi	a0,sp,60
   136ce:	00007097          	auipc	ra,0x7
   136d2:	3ac080e7          	jalr	940(ra) # 1aa7a <_ZN9allow_pin12full_dynamic17unshare_if_shared17h6cf91b2080959258E>
   136d6:	0068                	addi	a0,sp,12
   136d8:	00007097          	auipc	ra,0x7
   136dc:	3a2080e7          	jalr	930(ra) # 1aa7a <_ZN9allow_pin12full_dynamic17unshare_if_shared17h6cf91b2080959258E>
   136e0:	50f6                	lw	ra,124(sp)
   136e2:	5466                	lw	s0,120(sp)
   136e4:	54d6                	lw	s1,116(sp)
   136e6:	5946                	lw	s2,112(sp)
   136e8:	59b6                	lw	s3,108(sp)
   136ea:	6109                	addi	sp,sp,128
   136ec:	8082                	ret
   136ee:	0068                	addi	a0,sp,12
   136f0:	00007097          	auipc	ra,0x7
   136f4:	38a080e7          	jalr	906(ra) # 1aa7a <_ZN9allow_pin12full_dynamic17unshare_if_shared17h6cf91b2080959258E>
   136f8:	1868                	addi	a0,sp,60
   136fa:	00007097          	auipc	ra,0x7
   136fe:	380080e7          	jalr	896(ra) # 1aa7a <_ZN9allow_pin12full_dynamic17unshare_if_shared17h6cf91b2080959258E>
   13702:	1868                	addi	a0,sp,60
   13704:	00007097          	auipc	ra,0x7
   13708:	376080e7          	jalr	886(ra) # 1aa7a <_ZN9allow_pin12full_dynamic17unshare_if_shared17h6cf91b2080959258E>
   1370c:	00198513          	addi	a0,s3,1
   13710:	02400613          	li	a2,36
   13714:	85ca                	mv	a1,s2
   13716:	00007097          	auipc	ra,0x7
   1371a:	3ee080e7          	jalr	1006(ra) # 1ab04 <memcpy>
   1371e:	4501                	li	a0,0
   13720:	b765                	j	136c8 <_ZN20complex_full_dynamic3app17h5d99b3817c650988E+0xa0>

00013722 <_ZN20complex_full_dynamic3app17h620a65efb384a96aE>:
   13722:	7175                	addi	sp,sp,-144
   13724:	c706                	sw	ra,140(sp)
   13726:	c522                	sw	s0,136(sp)
   13728:	c326                	sw	s1,132(sp)
   1372a:	c14a                	sw	s2,128(sp)
   1372c:	dece                	sw	s3,124(sp)
   1372e:	89aa                	mv	s3,a0
   13730:	4409                	li	s0,2
   13732:	00810423          	sb	s0,8(sp)
   13736:	0064                	addi	s1,sp,12
   13738:	03b00613          	li	a2,59
   1373c:	8526                	mv	a0,s1
   1373e:	00007097          	auipc	ra,0x7
   13742:	3c6080e7          	jalr	966(ra) # 1ab04 <memcpy>
   13746:	05410913          	addi	s2,sp,84
   1374a:	02700613          	li	a2,39
   1374e:	854a                	mv	a0,s2
   13750:	4581                	li	a1,0
   13752:	00007097          	auipc	ra,0x7
   13756:	346080e7          	jalr	838(ra) # 1aa98 <memset>
   1375a:	8626                	mv	a2,s1
   1375c:	04810823          	sb	s0,80(sp)
   13760:	6505                	lui	a0,0x1
   13762:	4495                	li	s1,5
   13764:	4811                	li	a6,4
   13766:	4595                	li	a1,5
   13768:	bd350793          	addi	a5,a0,-1069 # bd3 <.Lline_table_start1+0x9a8>
   1376c:	03b00693          	li	a3,59
   13770:	4711                	li	a4,4
   13772:	853e                	mv	a0,a5
   13774:	00000073          	ecall
   13778:	04850263          	beq	a0,s0,137bc <_ZN20complex_full_dynamic3app17h620a65efb384a96aE+0x9a>
   1377c:	853e                	mv	a0,a5
   1377e:	864a                	mv	a2,s2
   13780:	c03e                	sw	a5,0(sp)
   13782:	c226                	sw	s1,4(sp)
   13784:	01010423          	sb	a6,8(sp)
   13788:	448d                	li	s1,3
   1378a:	458d                	li	a1,3
   1378c:	02700693          	li	a3,39
   13790:	470d                	li	a4,3
   13792:	00000073          	ecall
   13796:	02850363          	beq	a0,s0,137bc <_ZN20complex_full_dynamic3app17h620a65efb384a96aE+0x9a>
   1379a:	c4be                	sw	a5,72(sp)
   1379c:	c6a6                	sw	s1,76(sp)
   1379e:	04910823          	sb	s1,80(sp)
   137a2:	6505                	lui	a0,0x1
   137a4:	4595                	li	a1,5
   137a6:	460d                	li	a2,3
   137a8:	bd350513          	addi	a0,a0,-1069 # bd3 <.Lline_table_start1+0x9a8>
   137ac:	4709                	li	a4,2
   137ae:	07f00793          	li	a5,127
   137b2:	4681                	li	a3,0
   137b4:	00000073          	ecall
   137b8:	02a7e863          	bltu	a5,a0,137e8 <_ZN20complex_full_dynamic3app17h620a65efb384a96aE+0xc6>
   137bc:	00b9a223          	sw	a1,4(s3)
   137c0:	4505                	li	a0,1
   137c2:	00a98023          	sb	a0,0(s3)
   137c6:	00a8                	addi	a0,sp,72
   137c8:	00007097          	auipc	ra,0x7
   137cc:	2b2080e7          	jalr	690(ra) # 1aa7a <_ZN9allow_pin12full_dynamic17unshare_if_shared17h6cf91b2080959258E>
   137d0:	850a                	mv	a0,sp
   137d2:	00007097          	auipc	ra,0x7
   137d6:	2a8080e7          	jalr	680(ra) # 1aa7a <_ZN9allow_pin12full_dynamic17unshare_if_shared17h6cf91b2080959258E>
   137da:	40ba                	lw	ra,140(sp)
   137dc:	442a                	lw	s0,136(sp)
   137de:	449a                	lw	s1,132(sp)
   137e0:	490a                	lw	s2,128(sp)
   137e2:	59f6                	lw	s3,124(sp)
   137e4:	6149                	addi	sp,sp,144
   137e6:	8082                	ret
   137e8:	850a                	mv	a0,sp
   137ea:	00007097          	auipc	ra,0x7
   137ee:	290080e7          	jalr	656(ra) # 1aa7a <_ZN9allow_pin12full_dynamic17unshare_if_shared17h6cf91b2080959258E>
   137f2:	00a8                	addi	a0,sp,72
   137f4:	00007097          	auipc	ra,0x7
   137f8:	286080e7          	jalr	646(ra) # 1aa7a <_ZN9allow_pin12full_dynamic17unshare_if_shared17h6cf91b2080959258E>
   137fc:	00a8                	addi	a0,sp,72
   137fe:	00007097          	auipc	ra,0x7
   13802:	27c080e7          	jalr	636(ra) # 1aa7a <_ZN9allow_pin12full_dynamic17unshare_if_shared17h6cf91b2080959258E>
   13806:	00198513          	addi	a0,s3,1
   1380a:	02700613          	li	a2,39
   1380e:	85ca                	mv	a1,s2
   13810:	00007097          	auipc	ra,0x7
   13814:	2f4080e7          	jalr	756(ra) # 1ab04 <memcpy>
   13818:	4501                	li	a0,0
   1381a:	b765                	j	137c2 <_ZN20complex_full_dynamic3app17h620a65efb384a96aE+0xa0>

0001381c <_ZN20complex_full_dynamic3app17h6824f95902213436E>:
   1381c:	7135                	addi	sp,sp,-160
   1381e:	cf06                	sw	ra,156(sp)
   13820:	cd22                	sw	s0,152(sp)
   13822:	cb26                	sw	s1,148(sp)
   13824:	c94a                	sw	s2,144(sp)
   13826:	c74e                	sw	s3,140(sp)
   13828:	89aa                	mv	s3,a0
   1382a:	4409                	li	s0,2
   1382c:	00810a23          	sb	s0,20(sp)
   13830:	0824                	addi	s1,sp,24
   13832:	03c00613          	li	a2,60
   13836:	8526                	mv	a0,s1
   13838:	00007097          	auipc	ra,0x7
   1383c:	2cc080e7          	jalr	716(ra) # 1ab04 <memcpy>
   13840:	06010913          	addi	s2,sp,96
   13844:	02c00613          	li	a2,44
   13848:	854a                	mv	a0,s2
   1384a:	4581                	li	a1,0
   1384c:	00007097          	auipc	ra,0x7
   13850:	24c080e7          	jalr	588(ra) # 1aa98 <memset>
   13854:	8626                	mv	a2,s1
   13856:	04810e23          	sb	s0,92(sp)
   1385a:	6509                	lui	a0,0x2
   1385c:	4495                	li	s1,5
   1385e:	4811                	li	a6,4
   13860:	4595                	li	a1,5
   13862:	eac50793          	addi	a5,a0,-340 # 1eac <.Lline_table_start1+0x1c81>
   13866:	03c00693          	li	a3,60
   1386a:	4711                	li	a4,4
   1386c:	853e                	mv	a0,a5
   1386e:	00000073          	ecall
   13872:	04850363          	beq	a0,s0,138b8 <_ZN20complex_full_dynamic3app17h6824f95902213436E+0x9c>
   13876:	853e                	mv	a0,a5
   13878:	864a                	mv	a2,s2
   1387a:	c63e                	sw	a5,12(sp)
   1387c:	c826                	sw	s1,16(sp)
   1387e:	01010a23          	sb	a6,20(sp)
   13882:	449d                	li	s1,7
   13884:	480d                	li	a6,3
   13886:	459d                	li	a1,7
   13888:	02c00693          	li	a3,44
   1388c:	470d                	li	a4,3
   1388e:	00000073          	ecall
   13892:	02850363          	beq	a0,s0,138b8 <_ZN20complex_full_dynamic3app17h6824f95902213436E+0x9c>
   13896:	cabe                	sw	a5,84(sp)
   13898:	cca6                	sw	s1,88(sp)
   1389a:	05010e23          	sb	a6,92(sp)
   1389e:	6509                	lui	a0,0x2
   138a0:	4595                	li	a1,5
   138a2:	461d                	li	a2,7
   138a4:	eac50513          	addi	a0,a0,-340 # 1eac <.Lline_table_start1+0x1c81>
   138a8:	4709                	li	a4,2
   138aa:	07f00793          	li	a5,127
   138ae:	4681                	li	a3,0
   138b0:	00000073          	ecall
   138b4:	02a7e863          	bltu	a5,a0,138e4 <_ZN20complex_full_dynamic3app17h6824f95902213436E+0xc8>
   138b8:	00b9a223          	sw	a1,4(s3)
   138bc:	4505                	li	a0,1
   138be:	00a98023          	sb	a0,0(s3)
   138c2:	08c8                	addi	a0,sp,84
   138c4:	00007097          	auipc	ra,0x7
   138c8:	1b6080e7          	jalr	438(ra) # 1aa7a <_ZN9allow_pin12full_dynamic17unshare_if_shared17h6cf91b2080959258E>
   138cc:	0068                	addi	a0,sp,12
   138ce:	00007097          	auipc	ra,0x7
   138d2:	1ac080e7          	jalr	428(ra) # 1aa7a <_ZN9allow_pin12full_dynamic17unshare_if_shared17h6cf91b2080959258E>
   138d6:	40fa                	lw	ra,156(sp)
   138d8:	446a                	lw	s0,152(sp)
   138da:	44da                	lw	s1,148(sp)
   138dc:	494a                	lw	s2,144(sp)
   138de:	49ba                	lw	s3,140(sp)
   138e0:	610d                	addi	sp,sp,160
   138e2:	8082                	ret
   138e4:	0068                	addi	a0,sp,12
   138e6:	00007097          	auipc	ra,0x7
   138ea:	194080e7          	jalr	404(ra) # 1aa7a <_ZN9allow_pin12full_dynamic17unshare_if_shared17h6cf91b2080959258E>
   138ee:	08c8                	addi	a0,sp,84
   138f0:	00007097          	auipc	ra,0x7
   138f4:	18a080e7          	jalr	394(ra) # 1aa7a <_ZN9allow_pin12full_dynamic17unshare_if_shared17h6cf91b2080959258E>
   138f8:	08c8                	addi	a0,sp,84
   138fa:	00007097          	auipc	ra,0x7
   138fe:	180080e7          	jalr	384(ra) # 1aa7a <_ZN9allow_pin12full_dynamic17unshare_if_shared17h6cf91b2080959258E>
   13902:	00198513          	addi	a0,s3,1
   13906:	02c00613          	li	a2,44
   1390a:	85ca                	mv	a1,s2
   1390c:	00007097          	auipc	ra,0x7
   13910:	1f8080e7          	jalr	504(ra) # 1ab04 <memcpy>
   13914:	4501                	li	a0,0
   13916:	b765                	j	138be <_ZN20complex_full_dynamic3app17h6824f95902213436E+0xa2>

00013918 <_ZN20complex_full_dynamic3app17h68c04784fd9bbdedE>:
   13918:	7171                	addi	sp,sp,-176
   1391a:	d706                	sw	ra,172(sp)
   1391c:	d522                	sw	s0,168(sp)
   1391e:	d326                	sw	s1,164(sp)
   13920:	d14a                	sw	s2,160(sp)
   13922:	cf4e                	sw	s3,156(sp)
   13924:	89aa                	mv	s3,a0
   13926:	4409                	li	s0,2
   13928:	00810423          	sb	s0,8(sp)
   1392c:	0064                	addi	s1,sp,12
   1392e:	02d00613          	li	a2,45
   13932:	8526                	mv	a0,s1
   13934:	00007097          	auipc	ra,0x7
   13938:	1d0080e7          	jalr	464(ra) # 1ab04 <memcpy>
   1393c:	04810913          	addi	s2,sp,72
   13940:	05300613          	li	a2,83
   13944:	854a                	mv	a0,s2
   13946:	4581                	li	a1,0
   13948:	00007097          	auipc	ra,0x7
   1394c:	150080e7          	jalr	336(ra) # 1aa98 <memset>
   13950:	8626                	mv	a2,s1
   13952:	04810223          	sb	s0,68(sp)
   13956:	6505                	lui	a0,0x1
   13958:	4491                	li	s1,4
   1395a:	4589                	li	a1,2
   1395c:	ec350793          	addi	a5,a0,-317 # ec3 <.Lline_table_start1+0xc98>
   13960:	02d00693          	li	a3,45
   13964:	4711                	li	a4,4
   13966:	853e                	mv	a0,a5
   13968:	00000073          	ecall
   1396c:	04850363          	beq	a0,s0,139b2 <_ZN20complex_full_dynamic3app17h68c04784fd9bbdedE+0x9a>
   13970:	853e                	mv	a0,a5
   13972:	864a                	mv	a2,s2
   13974:	c03e                	sw	a5,0(sp)
   13976:	c222                	sw	s0,4(sp)
   13978:	00910423          	sb	s1,8(sp)
   1397c:	449d                	li	s1,7
   1397e:	480d                	li	a6,3
   13980:	459d                	li	a1,7
   13982:	05300693          	li	a3,83
   13986:	470d                	li	a4,3
   13988:	00000073          	ecall
   1398c:	02850363          	beq	a0,s0,139b2 <_ZN20complex_full_dynamic3app17h68c04784fd9bbdedE+0x9a>
   13990:	de3e                	sw	a5,60(sp)
   13992:	c0a6                	sw	s1,64(sp)
   13994:	05010223          	sb	a6,68(sp)
   13998:	6505                	lui	a0,0x1
   1399a:	4589                	li	a1,2
   1399c:	461d                	li	a2,7
   1399e:	ec350513          	addi	a0,a0,-317 # ec3 <.Lline_table_start1+0xc98>
   139a2:	4709                	li	a4,2
   139a4:	07f00793          	li	a5,127
   139a8:	4681                	li	a3,0
   139aa:	00000073          	ecall
   139ae:	02a7e863          	bltu	a5,a0,139de <_ZN20complex_full_dynamic3app17h68c04784fd9bbdedE+0xc6>
   139b2:	00b9a223          	sw	a1,4(s3)
   139b6:	4505                	li	a0,1
   139b8:	00a98023          	sb	a0,0(s3)
   139bc:	1868                	addi	a0,sp,60
   139be:	00007097          	auipc	ra,0x7
   139c2:	0bc080e7          	jalr	188(ra) # 1aa7a <_ZN9allow_pin12full_dynamic17unshare_if_shared17h6cf91b2080959258E>
   139c6:	850a                	mv	a0,sp
   139c8:	00007097          	auipc	ra,0x7
   139cc:	0b2080e7          	jalr	178(ra) # 1aa7a <_ZN9allow_pin12full_dynamic17unshare_if_shared17h6cf91b2080959258E>
   139d0:	50ba                	lw	ra,172(sp)
   139d2:	542a                	lw	s0,168(sp)
   139d4:	549a                	lw	s1,164(sp)
   139d6:	590a                	lw	s2,160(sp)
   139d8:	49fa                	lw	s3,156(sp)
   139da:	614d                	addi	sp,sp,176
   139dc:	8082                	ret
   139de:	850a                	mv	a0,sp
   139e0:	00007097          	auipc	ra,0x7
   139e4:	09a080e7          	jalr	154(ra) # 1aa7a <_ZN9allow_pin12full_dynamic17unshare_if_shared17h6cf91b2080959258E>
   139e8:	1868                	addi	a0,sp,60
   139ea:	00007097          	auipc	ra,0x7
   139ee:	090080e7          	jalr	144(ra) # 1aa7a <_ZN9allow_pin12full_dynamic17unshare_if_shared17h6cf91b2080959258E>
   139f2:	1868                	addi	a0,sp,60
   139f4:	00007097          	auipc	ra,0x7
   139f8:	086080e7          	jalr	134(ra) # 1aa7a <_ZN9allow_pin12full_dynamic17unshare_if_shared17h6cf91b2080959258E>
   139fc:	00198513          	addi	a0,s3,1
   13a00:	05300613          	li	a2,83
   13a04:	85ca                	mv	a1,s2
   13a06:	00007097          	auipc	ra,0x7
   13a0a:	0fe080e7          	jalr	254(ra) # 1ab04 <memcpy>
   13a0e:	4501                	li	a0,0
   13a10:	b765                	j	139b8 <_ZN20complex_full_dynamic3app17h68c04784fd9bbdedE+0xa0>

00013a12 <_ZN20complex_full_dynamic3app17h6b11fcb8159f48fdE>:
   13a12:	7175                	addi	sp,sp,-144
   13a14:	c706                	sw	ra,140(sp)
   13a16:	c522                	sw	s0,136(sp)
   13a18:	c326                	sw	s1,132(sp)
   13a1a:	c14a                	sw	s2,128(sp)
   13a1c:	dece                	sw	s3,124(sp)
   13a1e:	89aa                	mv	s3,a0
   13a20:	4409                	li	s0,2
   13a22:	00810823          	sb	s0,16(sp)
   13a26:	0844                	addi	s1,sp,20
   13a28:	03f00613          	li	a2,63
   13a2c:	8526                	mv	a0,s1
   13a2e:	00007097          	auipc	ra,0x7
   13a32:	0d6080e7          	jalr	214(ra) # 1ab04 <memcpy>
   13a36:	06010913          	addi	s2,sp,96
   13a3a:	4671                	li	a2,28
   13a3c:	854a                	mv	a0,s2
   13a3e:	4581                	li	a1,0
   13a40:	00007097          	auipc	ra,0x7
   13a44:	058080e7          	jalr	88(ra) # 1aa98 <memset>
   13a48:	8626                	mv	a2,s1
   13a4a:	04810e23          	sb	s0,92(sp)
   13a4e:	6505                	lui	a0,0x1
   13a50:	4495                	li	s1,5
   13a52:	4811                	li	a6,4
   13a54:	4595                	li	a1,5
   13a56:	69450793          	addi	a5,a0,1684 # 1694 <.Lline_table_start1+0x1469>
   13a5a:	03f00693          	li	a3,63
   13a5e:	4711                	li	a4,4
   13a60:	853e                	mv	a0,a5
   13a62:	00000073          	ecall
   13a66:	04850263          	beq	a0,s0,13aaa <_ZN20complex_full_dynamic3app17h6b11fcb8159f48fdE+0x98>
   13a6a:	853e                	mv	a0,a5
   13a6c:	864a                	mv	a2,s2
   13a6e:	c43e                	sw	a5,8(sp)
   13a70:	c626                	sw	s1,12(sp)
   13a72:	01010823          	sb	a6,16(sp)
   13a76:	44a5                	li	s1,9
   13a78:	480d                	li	a6,3
   13a7a:	45a5                	li	a1,9
   13a7c:	46f1                	li	a3,28
   13a7e:	470d                	li	a4,3
   13a80:	00000073          	ecall
   13a84:	02850363          	beq	a0,s0,13aaa <_ZN20complex_full_dynamic3app17h6b11fcb8159f48fdE+0x98>
   13a88:	cabe                	sw	a5,84(sp)
   13a8a:	cca6                	sw	s1,88(sp)
   13a8c:	05010e23          	sb	a6,92(sp)
   13a90:	6505                	lui	a0,0x1
   13a92:	4595                	li	a1,5
   13a94:	4625                	li	a2,9
   13a96:	69450513          	addi	a0,a0,1684 # 1694 <.Lline_table_start1+0x1469>
   13a9a:	4709                	li	a4,2
   13a9c:	07f00793          	li	a5,127
   13aa0:	4681                	li	a3,0
   13aa2:	00000073          	ecall
   13aa6:	02a7e863          	bltu	a5,a0,13ad6 <_ZN20complex_full_dynamic3app17h6b11fcb8159f48fdE+0xc4>
   13aaa:	00b9a223          	sw	a1,4(s3)
   13aae:	4505                	li	a0,1
   13ab0:	00a98023          	sb	a0,0(s3)
   13ab4:	08c8                	addi	a0,sp,84
   13ab6:	00007097          	auipc	ra,0x7
   13aba:	fc4080e7          	jalr	-60(ra) # 1aa7a <_ZN9allow_pin12full_dynamic17unshare_if_shared17h6cf91b2080959258E>
   13abe:	0028                	addi	a0,sp,8
   13ac0:	00007097          	auipc	ra,0x7
   13ac4:	fba080e7          	jalr	-70(ra) # 1aa7a <_ZN9allow_pin12full_dynamic17unshare_if_shared17h6cf91b2080959258E>
   13ac8:	40ba                	lw	ra,140(sp)
   13aca:	442a                	lw	s0,136(sp)
   13acc:	449a                	lw	s1,132(sp)
   13ace:	490a                	lw	s2,128(sp)
   13ad0:	59f6                	lw	s3,124(sp)
   13ad2:	6149                	addi	sp,sp,144
   13ad4:	8082                	ret
   13ad6:	0028                	addi	a0,sp,8
   13ad8:	00007097          	auipc	ra,0x7
   13adc:	fa2080e7          	jalr	-94(ra) # 1aa7a <_ZN9allow_pin12full_dynamic17unshare_if_shared17h6cf91b2080959258E>
   13ae0:	08c8                	addi	a0,sp,84
   13ae2:	00007097          	auipc	ra,0x7
   13ae6:	f98080e7          	jalr	-104(ra) # 1aa7a <_ZN9allow_pin12full_dynamic17unshare_if_shared17h6cf91b2080959258E>
   13aea:	08c8                	addi	a0,sp,84
   13aec:	00007097          	auipc	ra,0x7
   13af0:	f8e080e7          	jalr	-114(ra) # 1aa7a <_ZN9allow_pin12full_dynamic17unshare_if_shared17h6cf91b2080959258E>
   13af4:	00198513          	addi	a0,s3,1
   13af8:	4671                	li	a2,28
   13afa:	85ca                	mv	a1,s2
   13afc:	00007097          	auipc	ra,0x7
   13b00:	008080e7          	jalr	8(ra) # 1ab04 <memcpy>
   13b04:	4501                	li	a0,0
   13b06:	b76d                	j	13ab0 <_ZN20complex_full_dynamic3app17h6b11fcb8159f48fdE+0x9e>

00013b08 <_ZN20complex_full_dynamic3app17h6b953492e9525fddE>:
   13b08:	7131                	addi	sp,sp,-192
   13b0a:	df06                	sw	ra,188(sp)
   13b0c:	dd22                	sw	s0,184(sp)
   13b0e:	db26                	sw	s1,180(sp)
   13b10:	d94a                	sw	s2,176(sp)
   13b12:	d74e                	sw	s3,172(sp)
   13b14:	89aa                	mv	s3,a0
   13b16:	4409                	li	s0,2
   13b18:	00810623          	sb	s0,12(sp)
   13b1c:	0804                	addi	s1,sp,16
   13b1e:	06300613          	li	a2,99
   13b22:	8526                	mv	a0,s1
   13b24:	00007097          	auipc	ra,0x7
   13b28:	fe0080e7          	jalr	-32(ra) # 1ab04 <memcpy>
   13b2c:	08010913          	addi	s2,sp,128
   13b30:	02c00613          	li	a2,44
   13b34:	854a                	mv	a0,s2
   13b36:	4581                	li	a1,0
   13b38:	00007097          	auipc	ra,0x7
   13b3c:	f60080e7          	jalr	-160(ra) # 1aa98 <memset>
   13b40:	8626                	mv	a2,s1
   13b42:	06810e23          	sb	s0,124(sp)
   13b46:	47e1                	li	a5,24
   13b48:	4495                	li	s1,5
   13b4a:	4811                	li	a6,4
   13b4c:	4561                	li	a0,24
   13b4e:	4595                	li	a1,5
   13b50:	06300693          	li	a3,99
   13b54:	4711                	li	a4,4
   13b56:	00000073          	ecall
   13b5a:	04850163          	beq	a0,s0,13b9c <_ZN20complex_full_dynamic3app17h6b953492e9525fddE+0x94>
   13b5e:	864a                	mv	a2,s2
   13b60:	c23e                	sw	a5,4(sp)
   13b62:	c426                	sw	s1,8(sp)
   13b64:	01010623          	sb	a6,12(sp)
   13b68:	478d                	li	a5,3
   13b6a:	4561                	li	a0,24
   13b6c:	458d                	li	a1,3
   13b6e:	02c00693          	li	a3,44
   13b72:	470d                	li	a4,3
   13b74:	00000073          	ecall
   13b78:	02850263          	beq	a0,s0,13b9c <_ZN20complex_full_dynamic3app17h6b953492e9525fddE+0x94>
   13b7c:	46e1                	li	a3,24
   13b7e:	4561                	li	a0,24
   13b80:	4595                	li	a1,5
   13b82:	460d                	li	a2,3
   13b84:	4709                	li	a4,2
   13b86:	07f00493          	li	s1,127
   13b8a:	dab6                	sw	a3,116(sp)
   13b8c:	dcbe                	sw	a5,120(sp)
   13b8e:	06f10e23          	sb	a5,124(sp)
   13b92:	4681                	li	a3,0
   13b94:	00000073          	ecall
   13b98:	02a4e863          	bltu	s1,a0,13bc8 <_ZN20complex_full_dynamic3app17h6b953492e9525fddE+0xc0>
   13b9c:	00b9a223          	sw	a1,4(s3)
   13ba0:	4505                	li	a0,1
   13ba2:	00a98023          	sb	a0,0(s3)
   13ba6:	18c8                	addi	a0,sp,116
   13ba8:	00007097          	auipc	ra,0x7
   13bac:	ed2080e7          	jalr	-302(ra) # 1aa7a <_ZN9allow_pin12full_dynamic17unshare_if_shared17h6cf91b2080959258E>
   13bb0:	0048                	addi	a0,sp,4
   13bb2:	00007097          	auipc	ra,0x7
   13bb6:	ec8080e7          	jalr	-312(ra) # 1aa7a <_ZN9allow_pin12full_dynamic17unshare_if_shared17h6cf91b2080959258E>
   13bba:	50fa                	lw	ra,188(sp)
   13bbc:	546a                	lw	s0,184(sp)
   13bbe:	54da                	lw	s1,180(sp)
   13bc0:	594a                	lw	s2,176(sp)
   13bc2:	59ba                	lw	s3,172(sp)
   13bc4:	6129                	addi	sp,sp,192
   13bc6:	8082                	ret
   13bc8:	0048                	addi	a0,sp,4
   13bca:	00007097          	auipc	ra,0x7
   13bce:	eb0080e7          	jalr	-336(ra) # 1aa7a <_ZN9allow_pin12full_dynamic17unshare_if_shared17h6cf91b2080959258E>
   13bd2:	18c8                	addi	a0,sp,116
   13bd4:	00007097          	auipc	ra,0x7
   13bd8:	ea6080e7          	jalr	-346(ra) # 1aa7a <_ZN9allow_pin12full_dynamic17unshare_if_shared17h6cf91b2080959258E>
   13bdc:	18c8                	addi	a0,sp,116
   13bde:	00007097          	auipc	ra,0x7
   13be2:	e9c080e7          	jalr	-356(ra) # 1aa7a <_ZN9allow_pin12full_dynamic17unshare_if_shared17h6cf91b2080959258E>
   13be6:	00198513          	addi	a0,s3,1
   13bea:	02c00613          	li	a2,44
   13bee:	85ca                	mv	a1,s2
   13bf0:	00007097          	auipc	ra,0x7
   13bf4:	f14080e7          	jalr	-236(ra) # 1ab04 <memcpy>
   13bf8:	4501                	li	a0,0
   13bfa:	b765                	j	13ba2 <_ZN20complex_full_dynamic3app17h6b953492e9525fddE+0x9a>

00013bfc <_ZN20complex_full_dynamic3app17h6e9ca73ceb32c3ffE>:
   13bfc:	7135                	addi	sp,sp,-160
   13bfe:	cf06                	sw	ra,156(sp)
   13c00:	cd22                	sw	s0,152(sp)
   13c02:	cb26                	sw	s1,148(sp)
   13c04:	c94a                	sw	s2,144(sp)
   13c06:	c74e                	sw	s3,140(sp)
   13c08:	89aa                	mv	s3,a0
   13c0a:	4409                	li	s0,2
   13c0c:	00810423          	sb	s0,8(sp)
   13c10:	0064                	addi	s1,sp,12
   13c12:	04000613          	li	a2,64
   13c16:	8526                	mv	a0,s1
   13c18:	00007097          	auipc	ra,0x7
   13c1c:	eec080e7          	jalr	-276(ra) # 1ab04 <memcpy>
   13c20:	05810913          	addi	s2,sp,88
   13c24:	03100613          	li	a2,49
   13c28:	854a                	mv	a0,s2
   13c2a:	4581                	li	a1,0
   13c2c:	00007097          	auipc	ra,0x7
   13c30:	e6c080e7          	jalr	-404(ra) # 1aa98 <memset>
   13c34:	8626                	mv	a2,s1
   13c36:	04810a23          	sb	s0,84(sp)
   13c3a:	6505                	lui	a0,0x1
   13c3c:	44a1                	li	s1,8
   13c3e:	4811                	li	a6,4
   13c40:	45a1                	li	a1,8
   13c42:	fce50793          	addi	a5,a0,-50 # fce <.Lline_table_start1+0xda3>
   13c46:	04000693          	li	a3,64
   13c4a:	4711                	li	a4,4
   13c4c:	853e                	mv	a0,a5
   13c4e:	00000073          	ecall
   13c52:	04850363          	beq	a0,s0,13c98 <_ZN20complex_full_dynamic3app17h6e9ca73ceb32c3ffE+0x9c>
   13c56:	853e                	mv	a0,a5
   13c58:	864a                	mv	a2,s2
   13c5a:	c03e                	sw	a5,0(sp)
   13c5c:	c226                	sw	s1,4(sp)
   13c5e:	01010423          	sb	a6,8(sp)
   13c62:	4495                	li	s1,5
   13c64:	480d                	li	a6,3
   13c66:	4595                	li	a1,5
   13c68:	03100693          	li	a3,49
   13c6c:	470d                	li	a4,3
   13c6e:	00000073          	ecall
   13c72:	02850363          	beq	a0,s0,13c98 <_ZN20complex_full_dynamic3app17h6e9ca73ceb32c3ffE+0x9c>
   13c76:	c6be                	sw	a5,76(sp)
   13c78:	c8a6                	sw	s1,80(sp)
   13c7a:	05010a23          	sb	a6,84(sp)
   13c7e:	6505                	lui	a0,0x1
   13c80:	45a1                	li	a1,8
   13c82:	4615                	li	a2,5
   13c84:	fce50513          	addi	a0,a0,-50 # fce <.Lline_table_start1+0xda3>
   13c88:	4709                	li	a4,2
   13c8a:	07f00793          	li	a5,127
   13c8e:	4681                	li	a3,0
   13c90:	00000073          	ecall
   13c94:	02a7e863          	bltu	a5,a0,13cc4 <_ZN20complex_full_dynamic3app17h6e9ca73ceb32c3ffE+0xc8>
   13c98:	00b9a223          	sw	a1,4(s3)
   13c9c:	4505                	li	a0,1
   13c9e:	00a98023          	sb	a0,0(s3)
   13ca2:	00e8                	addi	a0,sp,76
   13ca4:	00007097          	auipc	ra,0x7
   13ca8:	dd6080e7          	jalr	-554(ra) # 1aa7a <_ZN9allow_pin12full_dynamic17unshare_if_shared17h6cf91b2080959258E>
   13cac:	850a                	mv	a0,sp
   13cae:	00007097          	auipc	ra,0x7
   13cb2:	dcc080e7          	jalr	-564(ra) # 1aa7a <_ZN9allow_pin12full_dynamic17unshare_if_shared17h6cf91b2080959258E>
   13cb6:	40fa                	lw	ra,156(sp)
   13cb8:	446a                	lw	s0,152(sp)
   13cba:	44da                	lw	s1,148(sp)
   13cbc:	494a                	lw	s2,144(sp)
   13cbe:	49ba                	lw	s3,140(sp)
   13cc0:	610d                	addi	sp,sp,160
   13cc2:	8082                	ret
   13cc4:	850a                	mv	a0,sp
   13cc6:	00007097          	auipc	ra,0x7
   13cca:	db4080e7          	jalr	-588(ra) # 1aa7a <_ZN9allow_pin12full_dynamic17unshare_if_shared17h6cf91b2080959258E>
   13cce:	00e8                	addi	a0,sp,76
   13cd0:	00007097          	auipc	ra,0x7
   13cd4:	daa080e7          	jalr	-598(ra) # 1aa7a <_ZN9allow_pin12full_dynamic17unshare_if_shared17h6cf91b2080959258E>
   13cd8:	00e8                	addi	a0,sp,76
   13cda:	00007097          	auipc	ra,0x7
   13cde:	da0080e7          	jalr	-608(ra) # 1aa7a <_ZN9allow_pin12full_dynamic17unshare_if_shared17h6cf91b2080959258E>
   13ce2:	00198513          	addi	a0,s3,1
   13ce6:	03100613          	li	a2,49
   13cea:	85ca                	mv	a1,s2
   13cec:	00007097          	auipc	ra,0x7
   13cf0:	e18080e7          	jalr	-488(ra) # 1ab04 <memcpy>
   13cf4:	4501                	li	a0,0
   13cf6:	b765                	j	13c9e <_ZN20complex_full_dynamic3app17h6e9ca73ceb32c3ffE+0xa2>

00013cf8 <_ZN20complex_full_dynamic3app17h6f6a97c2cb5bda0eE>:
   13cf8:	7175                	addi	sp,sp,-144
   13cfa:	c706                	sw	ra,140(sp)
   13cfc:	c522                	sw	s0,136(sp)
   13cfe:	c326                	sw	s1,132(sp)
   13d00:	c14a                	sw	s2,128(sp)
   13d02:	dece                	sw	s3,124(sp)
   13d04:	89aa                	mv	s3,a0
   13d06:	4409                	li	s0,2
   13d08:	00810a23          	sb	s0,20(sp)
   13d0c:	0824                	addi	s1,sp,24
   13d0e:	04800613          	li	a2,72
   13d12:	8526                	mv	a0,s1
   13d14:	00007097          	auipc	ra,0x7
   13d18:	df0080e7          	jalr	-528(ra) # 1ab04 <memcpy>
   13d1c:	06c10913          	addi	s2,sp,108
   13d20:	463d                	li	a2,15
   13d22:	854a                	mv	a0,s2
   13d24:	4581                	li	a1,0
   13d26:	00007097          	auipc	ra,0x7
   13d2a:	d72080e7          	jalr	-654(ra) # 1aa98 <memset>
   13d2e:	8626                	mv	a2,s1
   13d30:	06810423          	sb	s0,104(sp)
   13d34:	6505                	lui	a0,0x1
   13d36:	44a1                	li	s1,8
   13d38:	4811                	li	a6,4
   13d3a:	45a1                	li	a1,8
   13d3c:	11d50793          	addi	a5,a0,285 # 111d <.Lline_table_start1+0xef2>
   13d40:	04800693          	li	a3,72
   13d44:	4711                	li	a4,4
   13d46:	853e                	mv	a0,a5
   13d48:	00000073          	ecall
   13d4c:	04850263          	beq	a0,s0,13d90 <_ZN20complex_full_dynamic3app17h6f6a97c2cb5bda0eE+0x98>
   13d50:	853e                	mv	a0,a5
   13d52:	864a                	mv	a2,s2
   13d54:	c63e                	sw	a5,12(sp)
   13d56:	c826                	sw	s1,16(sp)
   13d58:	01010a23          	sb	a6,20(sp)
   13d5c:	44a5                	li	s1,9
   13d5e:	480d                	li	a6,3
   13d60:	45a5                	li	a1,9
   13d62:	46bd                	li	a3,15
   13d64:	470d                	li	a4,3
   13d66:	00000073          	ecall
   13d6a:	02850363          	beq	a0,s0,13d90 <_ZN20complex_full_dynamic3app17h6f6a97c2cb5bda0eE+0x98>
   13d6e:	d0be                	sw	a5,96(sp)
   13d70:	d2a6                	sw	s1,100(sp)
   13d72:	07010423          	sb	a6,104(sp)
   13d76:	6505                	lui	a0,0x1
   13d78:	45a1                	li	a1,8
   13d7a:	4625                	li	a2,9
   13d7c:	11d50513          	addi	a0,a0,285 # 111d <.Lline_table_start1+0xef2>
   13d80:	4709                	li	a4,2
   13d82:	07f00793          	li	a5,127
   13d86:	4681                	li	a3,0
   13d88:	00000073          	ecall
   13d8c:	02a7e863          	bltu	a5,a0,13dbc <_ZN20complex_full_dynamic3app17h6f6a97c2cb5bda0eE+0xc4>
   13d90:	00b9a223          	sw	a1,4(s3)
   13d94:	4505                	li	a0,1
   13d96:	00a98023          	sb	a0,0(s3)
   13d9a:	1088                	addi	a0,sp,96
   13d9c:	00007097          	auipc	ra,0x7
   13da0:	cde080e7          	jalr	-802(ra) # 1aa7a <_ZN9allow_pin12full_dynamic17unshare_if_shared17h6cf91b2080959258E>
   13da4:	0068                	addi	a0,sp,12
   13da6:	00007097          	auipc	ra,0x7
   13daa:	cd4080e7          	jalr	-812(ra) # 1aa7a <_ZN9allow_pin12full_dynamic17unshare_if_shared17h6cf91b2080959258E>
   13dae:	40ba                	lw	ra,140(sp)
   13db0:	442a                	lw	s0,136(sp)
   13db2:	449a                	lw	s1,132(sp)
   13db4:	490a                	lw	s2,128(sp)
   13db6:	59f6                	lw	s3,124(sp)
   13db8:	6149                	addi	sp,sp,144
   13dba:	8082                	ret
   13dbc:	0068                	addi	a0,sp,12
   13dbe:	00007097          	auipc	ra,0x7
   13dc2:	cbc080e7          	jalr	-836(ra) # 1aa7a <_ZN9allow_pin12full_dynamic17unshare_if_shared17h6cf91b2080959258E>
   13dc6:	1088                	addi	a0,sp,96
   13dc8:	00007097          	auipc	ra,0x7
   13dcc:	cb2080e7          	jalr	-846(ra) # 1aa7a <_ZN9allow_pin12full_dynamic17unshare_if_shared17h6cf91b2080959258E>
   13dd0:	1088                	addi	a0,sp,96
   13dd2:	00007097          	auipc	ra,0x7
   13dd6:	ca8080e7          	jalr	-856(ra) # 1aa7a <_ZN9allow_pin12full_dynamic17unshare_if_shared17h6cf91b2080959258E>
   13dda:	00198513          	addi	a0,s3,1
   13dde:	463d                	li	a2,15
   13de0:	85ca                	mv	a1,s2
   13de2:	00007097          	auipc	ra,0x7
   13de6:	d22080e7          	jalr	-734(ra) # 1ab04 <memcpy>
   13dea:	4501                	li	a0,0
   13dec:	b76d                	j	13d96 <_ZN20complex_full_dynamic3app17h6f6a97c2cb5bda0eE+0x9e>

00013dee <_ZN20complex_full_dynamic3app17h76f633d0daf3ca7aE>:
   13dee:	7171                	addi	sp,sp,-176
   13df0:	d706                	sw	ra,172(sp)
   13df2:	d522                	sw	s0,168(sp)
   13df4:	d326                	sw	s1,164(sp)
   13df6:	d14a                	sw	s2,160(sp)
   13df8:	cf4e                	sw	s3,156(sp)
   13dfa:	89aa                	mv	s3,a0
   13dfc:	4409                	li	s0,2
   13dfe:	00810623          	sb	s0,12(sp)
   13e02:	0804                	addi	s1,sp,16
   13e04:	466d                	li	a2,27
   13e06:	8526                	mv	a0,s1
   13e08:	00007097          	auipc	ra,0x7
   13e0c:	cfc080e7          	jalr	-772(ra) # 1ab04 <memcpy>
   13e10:	03810913          	addi	s2,sp,56
   13e14:	06300613          	li	a2,99
   13e18:	854a                	mv	a0,s2
   13e1a:	4581                	li	a1,0
   13e1c:	00007097          	auipc	ra,0x7
   13e20:	c7c080e7          	jalr	-900(ra) # 1aa98 <memset>
   13e24:	8626                	mv	a2,s1
   13e26:	02810a23          	sb	s0,52(sp)
   13e2a:	6509                	lui	a0,0x2
   13e2c:	448d                	li	s1,3
   13e2e:	4811                	li	a6,4
   13e30:	458d                	li	a1,3
   13e32:	54850793          	addi	a5,a0,1352 # 2548 <.Lline_table_start1+0x231d>
   13e36:	46ed                	li	a3,27
   13e38:	4711                	li	a4,4
   13e3a:	853e                	mv	a0,a5
   13e3c:	00000073          	ecall
   13e40:	04850263          	beq	a0,s0,13e84 <_ZN20complex_full_dynamic3app17h76f633d0daf3ca7aE+0x96>
   13e44:	c23e                	sw	a5,4(sp)
   13e46:	c426                	sw	s1,8(sp)
   13e48:	01010623          	sb	a6,12(sp)
   13e4c:	458d                	li	a1,3
   13e4e:	06300693          	li	a3,99
   13e52:	470d                	li	a4,3
   13e54:	853e                	mv	a0,a5
   13e56:	864a                	mv	a2,s2
   13e58:	00000073          	ecall
   13e5c:	02850463          	beq	a0,s0,13e84 <_ZN20complex_full_dynamic3app17h76f633d0daf3ca7aE+0x96>
   13e60:	450d                	li	a0,3
   13e62:	6689                	lui	a3,0x2
   13e64:	458d                	li	a1,3
   13e66:	460d                	li	a2,3
   13e68:	d63e                	sw	a5,44(sp)
   13e6a:	d82a                	sw	a0,48(sp)
   13e6c:	02a10a23          	sb	a0,52(sp)
   13e70:	54868513          	addi	a0,a3,1352 # 2548 <.Lline_table_start1+0x231d>
   13e74:	4709                	li	a4,2
   13e76:	07f00793          	li	a5,127
   13e7a:	4681                	li	a3,0
   13e7c:	00000073          	ecall
   13e80:	02a7e863          	bltu	a5,a0,13eb0 <_ZN20complex_full_dynamic3app17h76f633d0daf3ca7aE+0xc2>
   13e84:	00b9a223          	sw	a1,4(s3)
   13e88:	4505                	li	a0,1
   13e8a:	00a98023          	sb	a0,0(s3)
   13e8e:	1068                	addi	a0,sp,44
   13e90:	00007097          	auipc	ra,0x7
   13e94:	bea080e7          	jalr	-1046(ra) # 1aa7a <_ZN9allow_pin12full_dynamic17unshare_if_shared17h6cf91b2080959258E>
   13e98:	0048                	addi	a0,sp,4
   13e9a:	00007097          	auipc	ra,0x7
   13e9e:	be0080e7          	jalr	-1056(ra) # 1aa7a <_ZN9allow_pin12full_dynamic17unshare_if_shared17h6cf91b2080959258E>
   13ea2:	50ba                	lw	ra,172(sp)
   13ea4:	542a                	lw	s0,168(sp)
   13ea6:	549a                	lw	s1,164(sp)
   13ea8:	590a                	lw	s2,160(sp)
   13eaa:	49fa                	lw	s3,156(sp)
   13eac:	614d                	addi	sp,sp,176
   13eae:	8082                	ret
   13eb0:	0048                	addi	a0,sp,4
   13eb2:	00007097          	auipc	ra,0x7
   13eb6:	bc8080e7          	jalr	-1080(ra) # 1aa7a <_ZN9allow_pin12full_dynamic17unshare_if_shared17h6cf91b2080959258E>
   13eba:	1068                	addi	a0,sp,44
   13ebc:	00007097          	auipc	ra,0x7
   13ec0:	bbe080e7          	jalr	-1090(ra) # 1aa7a <_ZN9allow_pin12full_dynamic17unshare_if_shared17h6cf91b2080959258E>
   13ec4:	1068                	addi	a0,sp,44
   13ec6:	00007097          	auipc	ra,0x7
   13eca:	bb4080e7          	jalr	-1100(ra) # 1aa7a <_ZN9allow_pin12full_dynamic17unshare_if_shared17h6cf91b2080959258E>
   13ece:	00198513          	addi	a0,s3,1
   13ed2:	06300613          	li	a2,99
   13ed6:	85ca                	mv	a1,s2
   13ed8:	00007097          	auipc	ra,0x7
   13edc:	c2c080e7          	jalr	-980(ra) # 1ab04 <memcpy>
   13ee0:	4501                	li	a0,0
   13ee2:	b765                	j	13e8a <_ZN20complex_full_dynamic3app17h76f633d0daf3ca7aE+0x9c>

00013ee4 <_ZN20complex_full_dynamic3app17h7cc73a138ade5e12E>:
   13ee4:	7131                	addi	sp,sp,-192
   13ee6:	df06                	sw	ra,188(sp)
   13ee8:	dd22                	sw	s0,184(sp)
   13eea:	db26                	sw	s1,180(sp)
   13eec:	d94a                	sw	s2,176(sp)
   13eee:	d74e                	sw	s3,172(sp)
   13ef0:	89aa                	mv	s3,a0
   13ef2:	4409                	li	s0,2
   13ef4:	00810823          	sb	s0,16(sp)
   13ef8:	0844                	addi	s1,sp,20
   13efa:	04f00613          	li	a2,79
   13efe:	8526                	mv	a0,s1
   13f00:	00007097          	auipc	ra,0x7
   13f04:	c04080e7          	jalr	-1020(ra) # 1ab04 <memcpy>
   13f08:	07010913          	addi	s2,sp,112
   13f0c:	03b00613          	li	a2,59
   13f10:	854a                	mv	a0,s2
   13f12:	4581                	li	a1,0
   13f14:	00007097          	auipc	ra,0x7
   13f18:	b84080e7          	jalr	-1148(ra) # 1aa98 <memset>
   13f1c:	8626                	mv	a2,s1
   13f1e:	06810623          	sb	s0,108(sp)
   13f22:	6505                	lui	a0,0x1
   13f24:	44a1                	li	s1,8
   13f26:	4811                	li	a6,4
   13f28:	45a1                	li	a1,8
   13f2a:	a0650793          	addi	a5,a0,-1530 # a06 <.Lline_table_start1+0x7db>
   13f2e:	04f00693          	li	a3,79
   13f32:	4711                	li	a4,4
   13f34:	853e                	mv	a0,a5
   13f36:	00000073          	ecall
   13f3a:	04850363          	beq	a0,s0,13f80 <_ZN20complex_full_dynamic3app17h7cc73a138ade5e12E+0x9c>
   13f3e:	853e                	mv	a0,a5
   13f40:	864a                	mv	a2,s2
   13f42:	c43e                	sw	a5,8(sp)
   13f44:	c626                	sw	s1,12(sp)
   13f46:	01010823          	sb	a6,16(sp)
   13f4a:	4495                	li	s1,5
   13f4c:	480d                	li	a6,3
   13f4e:	4595                	li	a1,5
   13f50:	03b00693          	li	a3,59
   13f54:	470d                	li	a4,3
   13f56:	00000073          	ecall
   13f5a:	02850363          	beq	a0,s0,13f80 <_ZN20complex_full_dynamic3app17h7cc73a138ade5e12E+0x9c>
   13f5e:	d2be                	sw	a5,100(sp)
   13f60:	d4a6                	sw	s1,104(sp)
   13f62:	07010623          	sb	a6,108(sp)
   13f66:	6505                	lui	a0,0x1
   13f68:	45a1                	li	a1,8
   13f6a:	4615                	li	a2,5
   13f6c:	a0650513          	addi	a0,a0,-1530 # a06 <.Lline_table_start1+0x7db>
   13f70:	4709                	li	a4,2
   13f72:	07f00793          	li	a5,127
   13f76:	4681                	li	a3,0
   13f78:	00000073          	ecall
   13f7c:	02a7e863          	bltu	a5,a0,13fac <_ZN20complex_full_dynamic3app17h7cc73a138ade5e12E+0xc8>
   13f80:	00b9a223          	sw	a1,4(s3)
   13f84:	4505                	li	a0,1
   13f86:	00a98023          	sb	a0,0(s3)
   13f8a:	10c8                	addi	a0,sp,100
   13f8c:	00007097          	auipc	ra,0x7
   13f90:	aee080e7          	jalr	-1298(ra) # 1aa7a <_ZN9allow_pin12full_dynamic17unshare_if_shared17h6cf91b2080959258E>
   13f94:	0028                	addi	a0,sp,8
   13f96:	00007097          	auipc	ra,0x7
   13f9a:	ae4080e7          	jalr	-1308(ra) # 1aa7a <_ZN9allow_pin12full_dynamic17unshare_if_shared17h6cf91b2080959258E>
   13f9e:	50fa                	lw	ra,188(sp)
   13fa0:	546a                	lw	s0,184(sp)
   13fa2:	54da                	lw	s1,180(sp)
   13fa4:	594a                	lw	s2,176(sp)
   13fa6:	59ba                	lw	s3,172(sp)
   13fa8:	6129                	addi	sp,sp,192
   13faa:	8082                	ret
   13fac:	0028                	addi	a0,sp,8
   13fae:	00007097          	auipc	ra,0x7
   13fb2:	acc080e7          	jalr	-1332(ra) # 1aa7a <_ZN9allow_pin12full_dynamic17unshare_if_shared17h6cf91b2080959258E>
   13fb6:	10c8                	addi	a0,sp,100
   13fb8:	00007097          	auipc	ra,0x7
   13fbc:	ac2080e7          	jalr	-1342(ra) # 1aa7a <_ZN9allow_pin12full_dynamic17unshare_if_shared17h6cf91b2080959258E>
   13fc0:	10c8                	addi	a0,sp,100
   13fc2:	00007097          	auipc	ra,0x7
   13fc6:	ab8080e7          	jalr	-1352(ra) # 1aa7a <_ZN9allow_pin12full_dynamic17unshare_if_shared17h6cf91b2080959258E>
   13fca:	00198513          	addi	a0,s3,1
   13fce:	03b00613          	li	a2,59
   13fd2:	85ca                	mv	a1,s2
   13fd4:	00007097          	auipc	ra,0x7
   13fd8:	b30080e7          	jalr	-1232(ra) # 1ab04 <memcpy>
   13fdc:	4501                	li	a0,0
   13fde:	b765                	j	13f86 <_ZN20complex_full_dynamic3app17h7cc73a138ade5e12E+0xa2>

00013fe0 <_ZN20complex_full_dynamic3app17h828741e83922e3c7E>:
   13fe0:	7175                	addi	sp,sp,-144
   13fe2:	c706                	sw	ra,140(sp)
   13fe4:	c522                	sw	s0,136(sp)
   13fe6:	c326                	sw	s1,132(sp)
   13fe8:	c14a                	sw	s2,128(sp)
   13fea:	dece                	sw	s3,124(sp)
   13fec:	89aa                	mv	s3,a0
   13fee:	4409                	li	s0,2
   13ff0:	00810823          	sb	s0,16(sp)
   13ff4:	0844                	addi	s1,sp,20
   13ff6:	04100613          	li	a2,65
   13ffa:	8526                	mv	a0,s1
   13ffc:	00007097          	auipc	ra,0x7
   14000:	b08080e7          	jalr	-1272(ra) # 1ab04 <memcpy>
   14004:	06410913          	addi	s2,sp,100
   14008:	4661                	li	a2,24
   1400a:	854a                	mv	a0,s2
   1400c:	4581                	li	a1,0
   1400e:	00007097          	auipc	ra,0x7
   14012:	a8a080e7          	jalr	-1398(ra) # 1aa98 <memset>
   14016:	8626                	mv	a2,s1
   14018:	06810023          	sb	s0,96(sp)
   1401c:	6509                	lui	a0,0x2
   1401e:	4485                	li	s1,1
   14020:	4811                	li	a6,4
   14022:	4585                	li	a1,1
   14024:	15650793          	addi	a5,a0,342 # 2156 <.Lline_table_start1+0x1f2b>
   14028:	04100693          	li	a3,65
   1402c:	4711                	li	a4,4
   1402e:	853e                	mv	a0,a5
   14030:	00000073          	ecall
   14034:	04850263          	beq	a0,s0,14078 <_ZN20complex_full_dynamic3app17h828741e83922e3c7E+0x98>
   14038:	853e                	mv	a0,a5
   1403a:	864a                	mv	a2,s2
   1403c:	c43e                	sw	a5,8(sp)
   1403e:	c626                	sw	s1,12(sp)
   14040:	01010823          	sb	a6,16(sp)
   14044:	44a5                	li	s1,9
   14046:	480d                	li	a6,3
   14048:	45a5                	li	a1,9
   1404a:	46e1                	li	a3,24
   1404c:	470d                	li	a4,3
   1404e:	00000073          	ecall
   14052:	02850363          	beq	a0,s0,14078 <_ZN20complex_full_dynamic3app17h828741e83922e3c7E+0x98>
   14056:	ccbe                	sw	a5,88(sp)
   14058:	cea6                	sw	s1,92(sp)
   1405a:	07010023          	sb	a6,96(sp)
   1405e:	6509                	lui	a0,0x2
   14060:	4585                	li	a1,1
   14062:	4625                	li	a2,9
   14064:	15650513          	addi	a0,a0,342 # 2156 <.Lline_table_start1+0x1f2b>
   14068:	4709                	li	a4,2
   1406a:	07f00793          	li	a5,127
   1406e:	4681                	li	a3,0
   14070:	00000073          	ecall
   14074:	02a7e863          	bltu	a5,a0,140a4 <_ZN20complex_full_dynamic3app17h828741e83922e3c7E+0xc4>
   14078:	00b9a223          	sw	a1,4(s3)
   1407c:	4505                	li	a0,1
   1407e:	00a98023          	sb	a0,0(s3)
   14082:	08a8                	addi	a0,sp,88
   14084:	00007097          	auipc	ra,0x7
   14088:	9f6080e7          	jalr	-1546(ra) # 1aa7a <_ZN9allow_pin12full_dynamic17unshare_if_shared17h6cf91b2080959258E>
   1408c:	0028                	addi	a0,sp,8
   1408e:	00007097          	auipc	ra,0x7
   14092:	9ec080e7          	jalr	-1556(ra) # 1aa7a <_ZN9allow_pin12full_dynamic17unshare_if_shared17h6cf91b2080959258E>
   14096:	40ba                	lw	ra,140(sp)
   14098:	442a                	lw	s0,136(sp)
   1409a:	449a                	lw	s1,132(sp)
   1409c:	490a                	lw	s2,128(sp)
   1409e:	59f6                	lw	s3,124(sp)
   140a0:	6149                	addi	sp,sp,144
   140a2:	8082                	ret
   140a4:	0028                	addi	a0,sp,8
   140a6:	00007097          	auipc	ra,0x7
   140aa:	9d4080e7          	jalr	-1580(ra) # 1aa7a <_ZN9allow_pin12full_dynamic17unshare_if_shared17h6cf91b2080959258E>
   140ae:	08a8                	addi	a0,sp,88
   140b0:	00007097          	auipc	ra,0x7
   140b4:	9ca080e7          	jalr	-1590(ra) # 1aa7a <_ZN9allow_pin12full_dynamic17unshare_if_shared17h6cf91b2080959258E>
   140b8:	08a8                	addi	a0,sp,88
   140ba:	00007097          	auipc	ra,0x7
   140be:	9c0080e7          	jalr	-1600(ra) # 1aa7a <_ZN9allow_pin12full_dynamic17unshare_if_shared17h6cf91b2080959258E>
   140c2:	00198513          	addi	a0,s3,1
   140c6:	4661                	li	a2,24
   140c8:	85ca                	mv	a1,s2
   140ca:	00007097          	auipc	ra,0x7
   140ce:	a3a080e7          	jalr	-1478(ra) # 1ab04 <memcpy>
   140d2:	4501                	li	a0,0
   140d4:	b76d                	j	1407e <_ZN20complex_full_dynamic3app17h828741e83922e3c7E+0x9e>

000140d6 <_ZN20complex_full_dynamic3app17h88bbdfc50ea2ec32E>:
   140d6:	7171                	addi	sp,sp,-176
   140d8:	d706                	sw	ra,172(sp)
   140da:	d522                	sw	s0,168(sp)
   140dc:	d326                	sw	s1,164(sp)
   140de:	d14a                	sw	s2,160(sp)
   140e0:	cf4e                	sw	s3,156(sp)
   140e2:	89aa                	mv	s3,a0
   140e4:	4409                	li	s0,2
   140e6:	00810823          	sb	s0,16(sp)
   140ea:	0844                	addi	s1,sp,20
   140ec:	04a00613          	li	a2,74
   140f0:	8526                	mv	a0,s1
   140f2:	00007097          	auipc	ra,0x7
   140f6:	a12080e7          	jalr	-1518(ra) # 1ab04 <memcpy>
   140fa:	06c10913          	addi	s2,sp,108
   140fe:	02d00613          	li	a2,45
   14102:	854a                	mv	a0,s2
   14104:	4581                	li	a1,0
   14106:	00007097          	auipc	ra,0x7
   1410a:	992080e7          	jalr	-1646(ra) # 1aa98 <memset>
   1410e:	8626                	mv	a2,s1
   14110:	06810423          	sb	s0,104(sp)
   14114:	6505                	lui	a0,0x1
   14116:	4491                	li	s1,4
   14118:	4589                	li	a1,2
   1411a:	e3d50793          	addi	a5,a0,-451 # e3d <.Lline_table_start1+0xc12>
   1411e:	04a00693          	li	a3,74
   14122:	4711                	li	a4,4
   14124:	853e                	mv	a0,a5
   14126:	00000073          	ecall
   1412a:	04850263          	beq	a0,s0,1416e <_ZN20complex_full_dynamic3app17h88bbdfc50ea2ec32E+0x98>
   1412e:	853e                	mv	a0,a5
   14130:	864a                	mv	a2,s2
   14132:	c43e                	sw	a5,8(sp)
   14134:	c622                	sw	s0,12(sp)
   14136:	00910823          	sb	s1,16(sp)
   1413a:	448d                	li	s1,3
   1413c:	458d                	li	a1,3
   1413e:	02d00693          	li	a3,45
   14142:	470d                	li	a4,3
   14144:	00000073          	ecall
   14148:	02850363          	beq	a0,s0,1416e <_ZN20complex_full_dynamic3app17h88bbdfc50ea2ec32E+0x98>
   1414c:	d0be                	sw	a5,96(sp)
   1414e:	d2a6                	sw	s1,100(sp)
   14150:	06910423          	sb	s1,104(sp)
   14154:	6505                	lui	a0,0x1
   14156:	4589                	li	a1,2
   14158:	460d                	li	a2,3
   1415a:	e3d50513          	addi	a0,a0,-451 # e3d <.Lline_table_start1+0xc12>
   1415e:	4709                	li	a4,2
   14160:	07f00793          	li	a5,127
   14164:	4681                	li	a3,0
   14166:	00000073          	ecall
   1416a:	02a7e863          	bltu	a5,a0,1419a <_ZN20complex_full_dynamic3app17h88bbdfc50ea2ec32E+0xc4>
   1416e:	00b9a223          	sw	a1,4(s3)
   14172:	4505                	li	a0,1
   14174:	00a98023          	sb	a0,0(s3)
   14178:	1088                	addi	a0,sp,96
   1417a:	00007097          	auipc	ra,0x7
   1417e:	900080e7          	jalr	-1792(ra) # 1aa7a <_ZN9allow_pin12full_dynamic17unshare_if_shared17h6cf91b2080959258E>
   14182:	0028                	addi	a0,sp,8
   14184:	00007097          	auipc	ra,0x7
   14188:	8f6080e7          	jalr	-1802(ra) # 1aa7a <_ZN9allow_pin12full_dynamic17unshare_if_shared17h6cf91b2080959258E>
   1418c:	50ba                	lw	ra,172(sp)
   1418e:	542a                	lw	s0,168(sp)
   14190:	549a                	lw	s1,164(sp)
   14192:	590a                	lw	s2,160(sp)
   14194:	49fa                	lw	s3,156(sp)
   14196:	614d                	addi	sp,sp,176
   14198:	8082                	ret
   1419a:	0028                	addi	a0,sp,8
   1419c:	00007097          	auipc	ra,0x7
   141a0:	8de080e7          	jalr	-1826(ra) # 1aa7a <_ZN9allow_pin12full_dynamic17unshare_if_shared17h6cf91b2080959258E>
   141a4:	1088                	addi	a0,sp,96
   141a6:	00007097          	auipc	ra,0x7
   141aa:	8d4080e7          	jalr	-1836(ra) # 1aa7a <_ZN9allow_pin12full_dynamic17unshare_if_shared17h6cf91b2080959258E>
   141ae:	1088                	addi	a0,sp,96
   141b0:	00007097          	auipc	ra,0x7
   141b4:	8ca080e7          	jalr	-1846(ra) # 1aa7a <_ZN9allow_pin12full_dynamic17unshare_if_shared17h6cf91b2080959258E>
   141b8:	00198513          	addi	a0,s3,1
   141bc:	02d00613          	li	a2,45
   141c0:	85ca                	mv	a1,s2
   141c2:	00007097          	auipc	ra,0x7
   141c6:	942080e7          	jalr	-1726(ra) # 1ab04 <memcpy>
   141ca:	4501                	li	a0,0
   141cc:	b765                	j	14174 <_ZN20complex_full_dynamic3app17h88bbdfc50ea2ec32E+0x9e>

000141ce <_ZN20complex_full_dynamic3app17h90b2fee217f44be8E>:
   141ce:	7135                	addi	sp,sp,-160
   141d0:	cf06                	sw	ra,156(sp)
   141d2:	cd22                	sw	s0,152(sp)
   141d4:	cb26                	sw	s1,148(sp)
   141d6:	c94a                	sw	s2,144(sp)
   141d8:	c74e                	sw	s3,140(sp)
   141da:	89aa                	mv	s3,a0
   141dc:	4409                	li	s0,2
   141de:	00810423          	sb	s0,8(sp)
   141e2:	0064                	addi	s1,sp,12
   141e4:	4679                	li	a2,30
   141e6:	8526                	mv	a0,s1
   141e8:	00007097          	auipc	ra,0x7
   141ec:	91c080e7          	jalr	-1764(ra) # 1ab04 <memcpy>
   141f0:	03810913          	addi	s2,sp,56
   141f4:	05100613          	li	a2,81
   141f8:	854a                	mv	a0,s2
   141fa:	4581                	li	a1,0
   141fc:	00007097          	auipc	ra,0x7
   14200:	89c080e7          	jalr	-1892(ra) # 1aa98 <memset>
   14204:	8626                	mv	a2,s1
   14206:	02810a23          	sb	s0,52(sp)
   1420a:	6509                	lui	a0,0x2
   1420c:	4491                	li	s1,4
   1420e:	4589                	li	a1,2
   14210:	96b50793          	addi	a5,a0,-1685 # 196b <.Lline_table_start1+0x1740>
   14214:	46f9                	li	a3,30
   14216:	4711                	li	a4,4
   14218:	853e                	mv	a0,a5
   1421a:	00000073          	ecall
   1421e:	04850263          	beq	a0,s0,14262 <_ZN20complex_full_dynamic3app17h90b2fee217f44be8E+0x94>
   14222:	853e                	mv	a0,a5
   14224:	4581                	li	a1,0
   14226:	864a                	mv	a2,s2
   14228:	c03e                	sw	a5,0(sp)
   1422a:	c222                	sw	s0,4(sp)
   1422c:	00910423          	sb	s1,8(sp)
   14230:	448d                	li	s1,3
   14232:	05100693          	li	a3,81
   14236:	470d                	li	a4,3
   14238:	00000073          	ecall
   1423c:	02850363          	beq	a0,s0,14262 <_ZN20complex_full_dynamic3app17h90b2fee217f44be8E+0x94>
   14240:	d63e                	sw	a5,44(sp)
   14242:	d802                	sw	zero,48(sp)
   14244:	02910a23          	sb	s1,52(sp)
   14248:	6509                	lui	a0,0x2
   1424a:	4589                	li	a1,2
   1424c:	96b50513          	addi	a0,a0,-1685 # 196b <.Lline_table_start1+0x1740>
   14250:	4709                	li	a4,2
   14252:	07f00793          	li	a5,127
   14256:	4601                	li	a2,0
   14258:	4681                	li	a3,0
   1425a:	00000073          	ecall
   1425e:	02a7e863          	bltu	a5,a0,1428e <_ZN20complex_full_dynamic3app17h90b2fee217f44be8E+0xc0>
   14262:	00b9a223          	sw	a1,4(s3)
   14266:	4505                	li	a0,1
   14268:	00a98023          	sb	a0,0(s3)
   1426c:	1068                	addi	a0,sp,44
   1426e:	00007097          	auipc	ra,0x7
   14272:	80c080e7          	jalr	-2036(ra) # 1aa7a <_ZN9allow_pin12full_dynamic17unshare_if_shared17h6cf91b2080959258E>
   14276:	850a                	mv	a0,sp
   14278:	00007097          	auipc	ra,0x7
   1427c:	802080e7          	jalr	-2046(ra) # 1aa7a <_ZN9allow_pin12full_dynamic17unshare_if_shared17h6cf91b2080959258E>
   14280:	40fa                	lw	ra,156(sp)
   14282:	446a                	lw	s0,152(sp)
   14284:	44da                	lw	s1,148(sp)
   14286:	494a                	lw	s2,144(sp)
   14288:	49ba                	lw	s3,140(sp)
   1428a:	610d                	addi	sp,sp,160
   1428c:	8082                	ret
   1428e:	850a                	mv	a0,sp
   14290:	00006097          	auipc	ra,0x6
   14294:	7ea080e7          	jalr	2026(ra) # 1aa7a <_ZN9allow_pin12full_dynamic17unshare_if_shared17h6cf91b2080959258E>
   14298:	1068                	addi	a0,sp,44
   1429a:	00006097          	auipc	ra,0x6
   1429e:	7e0080e7          	jalr	2016(ra) # 1aa7a <_ZN9allow_pin12full_dynamic17unshare_if_shared17h6cf91b2080959258E>
   142a2:	1068                	addi	a0,sp,44
   142a4:	00006097          	auipc	ra,0x6
   142a8:	7d6080e7          	jalr	2006(ra) # 1aa7a <_ZN9allow_pin12full_dynamic17unshare_if_shared17h6cf91b2080959258E>
   142ac:	00198513          	addi	a0,s3,1
   142b0:	05100613          	li	a2,81
   142b4:	85ca                	mv	a1,s2
   142b6:	00007097          	auipc	ra,0x7
   142ba:	84e080e7          	jalr	-1970(ra) # 1ab04 <memcpy>
   142be:	4501                	li	a0,0
   142c0:	b765                	j	14268 <_ZN20complex_full_dynamic3app17h90b2fee217f44be8E+0x9a>

000142c2 <_ZN20complex_full_dynamic3app17h968bca099936ecccE>:
   142c2:	7171                	addi	sp,sp,-176
   142c4:	d706                	sw	ra,172(sp)
   142c6:	d522                	sw	s0,168(sp)
   142c8:	d326                	sw	s1,164(sp)
   142ca:	d14a                	sw	s2,160(sp)
   142cc:	cf4e                	sw	s3,156(sp)
   142ce:	89aa                	mv	s3,a0
   142d0:	4409                	li	s0,2
   142d2:	00810a23          	sb	s0,20(sp)
   142d6:	0824                	addi	s1,sp,24
   142d8:	02200613          	li	a2,34
   142dc:	8526                	mv	a0,s1
   142de:	00007097          	auipc	ra,0x7
   142e2:	826080e7          	jalr	-2010(ra) # 1ab04 <memcpy>
   142e6:	04810913          	addi	s2,sp,72
   142ea:	05100613          	li	a2,81
   142ee:	854a                	mv	a0,s2
   142f0:	4581                	li	a1,0
   142f2:	00006097          	auipc	ra,0x6
   142f6:	7a6080e7          	jalr	1958(ra) # 1aa98 <memset>
   142fa:	8626                	mv	a2,s1
   142fc:	04810223          	sb	s0,68(sp)
   14300:	55e00793          	li	a5,1374
   14304:	44a5                	li	s1,9
   14306:	4811                	li	a6,4
   14308:	55e00513          	li	a0,1374
   1430c:	45a5                	li	a1,9
   1430e:	02200693          	li	a3,34
   14312:	4711                	li	a4,4
   14314:	00000073          	ecall
   14318:	04850563          	beq	a0,s0,14362 <_ZN20complex_full_dynamic3app17h968bca099936ecccE+0xa0>
   1431c:	864a                	mv	a2,s2
   1431e:	c63e                	sw	a5,12(sp)
   14320:	c826                	sw	s1,16(sp)
   14322:	01010a23          	sb	a6,20(sp)
   14326:	478d                	li	a5,3
   14328:	55e00513          	li	a0,1374
   1432c:	45a5                	li	a1,9
   1432e:	05100693          	li	a3,81
   14332:	470d                	li	a4,3
   14334:	00000073          	ecall
   14338:	02850563          	beq	a0,s0,14362 <_ZN20complex_full_dynamic3app17h968bca099936ecccE+0xa0>
   1433c:	55e00693          	li	a3,1374
   14340:	44a5                	li	s1,9
   14342:	55e00513          	li	a0,1374
   14346:	45a5                	li	a1,9
   14348:	4625                	li	a2,9
   1434a:	4709                	li	a4,2
   1434c:	07f00413          	li	s0,127
   14350:	de36                	sw	a3,60(sp)
   14352:	c0a6                	sw	s1,64(sp)
   14354:	04f10223          	sb	a5,68(sp)
   14358:	4681                	li	a3,0
   1435a:	00000073          	ecall
   1435e:	02a46863          	bltu	s0,a0,1438e <_ZN20complex_full_dynamic3app17h968bca099936ecccE+0xcc>
   14362:	00b9a223          	sw	a1,4(s3)
   14366:	4505                	li	a0,1
   14368:	00a98023          	sb	a0,0(s3)
   1436c:	1868                	addi	a0,sp,60
   1436e:	00006097          	auipc	ra,0x6
   14372:	70c080e7          	jalr	1804(ra) # 1aa7a <_ZN9allow_pin12full_dynamic17unshare_if_shared17h6cf91b2080959258E>
   14376:	0068                	addi	a0,sp,12
   14378:	00006097          	auipc	ra,0x6
   1437c:	702080e7          	jalr	1794(ra) # 1aa7a <_ZN9allow_pin12full_dynamic17unshare_if_shared17h6cf91b2080959258E>
   14380:	50ba                	lw	ra,172(sp)
   14382:	542a                	lw	s0,168(sp)
   14384:	549a                	lw	s1,164(sp)
   14386:	590a                	lw	s2,160(sp)
   14388:	49fa                	lw	s3,156(sp)
   1438a:	614d                	addi	sp,sp,176
   1438c:	8082                	ret
   1438e:	0068                	addi	a0,sp,12
   14390:	00006097          	auipc	ra,0x6
   14394:	6ea080e7          	jalr	1770(ra) # 1aa7a <_ZN9allow_pin12full_dynamic17unshare_if_shared17h6cf91b2080959258E>
   14398:	1868                	addi	a0,sp,60
   1439a:	00006097          	auipc	ra,0x6
   1439e:	6e0080e7          	jalr	1760(ra) # 1aa7a <_ZN9allow_pin12full_dynamic17unshare_if_shared17h6cf91b2080959258E>
   143a2:	1868                	addi	a0,sp,60
   143a4:	00006097          	auipc	ra,0x6
   143a8:	6d6080e7          	jalr	1750(ra) # 1aa7a <_ZN9allow_pin12full_dynamic17unshare_if_shared17h6cf91b2080959258E>
   143ac:	00198513          	addi	a0,s3,1
   143b0:	05100613          	li	a2,81
   143b4:	85ca                	mv	a1,s2
   143b6:	00006097          	auipc	ra,0x6
   143ba:	74e080e7          	jalr	1870(ra) # 1ab04 <memcpy>
   143be:	4501                	li	a0,0
   143c0:	b765                	j	14368 <_ZN20complex_full_dynamic3app17h968bca099936ecccE+0xa6>

000143c2 <_ZN20complex_full_dynamic3app17h98c19241ae7648a8E>:
   143c2:	7135                	addi	sp,sp,-160
   143c4:	cf06                	sw	ra,156(sp)
   143c6:	cd22                	sw	s0,152(sp)
   143c8:	cb26                	sw	s1,148(sp)
   143ca:	c94a                	sw	s2,144(sp)
   143cc:	c74e                	sw	s3,140(sp)
   143ce:	89aa                	mv	s3,a0
   143d0:	4409                	li	s0,2
   143d2:	00810823          	sb	s0,16(sp)
   143d6:	0844                	addi	s1,sp,20
   143d8:	4669                	li	a2,26
   143da:	8526                	mv	a0,s1
   143dc:	00006097          	auipc	ra,0x6
   143e0:	728080e7          	jalr	1832(ra) # 1ab04 <memcpy>
   143e4:	03c10913          	addi	s2,sp,60
   143e8:	05000613          	li	a2,80
   143ec:	854a                	mv	a0,s2
   143ee:	4581                	li	a1,0
   143f0:	00006097          	auipc	ra,0x6
   143f4:	6a8080e7          	jalr	1704(ra) # 1aa98 <memset>
   143f8:	8626                	mv	a2,s1
   143fa:	02810c23          	sb	s0,56(sp)
   143fe:	6505                	lui	a0,0x1
   14400:	449d                	li	s1,7
   14402:	4811                	li	a6,4
   14404:	459d                	li	a1,7
   14406:	aee50793          	addi	a5,a0,-1298 # aee <.Lline_table_start1+0x8c3>
   1440a:	46e9                	li	a3,26
   1440c:	4711                	li	a4,4
   1440e:	853e                	mv	a0,a5
   14410:	00000073          	ecall
   14414:	04850363          	beq	a0,s0,1445a <_ZN20complex_full_dynamic3app17h98c19241ae7648a8E+0x98>
   14418:	853e                	mv	a0,a5
   1441a:	864a                	mv	a2,s2
   1441c:	c43e                	sw	a5,8(sp)
   1441e:	c626                	sw	s1,12(sp)
   14420:	01010823          	sb	a6,16(sp)
   14424:	448d                	li	s1,3
   14426:	4591                	li	a1,4
   14428:	05000693          	li	a3,80
   1442c:	470d                	li	a4,3
   1442e:	00000073          	ecall
   14432:	02850463          	beq	a0,s0,1445a <_ZN20complex_full_dynamic3app17h98c19241ae7648a8E+0x98>
   14436:	4511                	li	a0,4
   14438:	6685                	lui	a3,0x1
   1443a:	459d                	li	a1,7
   1443c:	4611                	li	a2,4
   1443e:	d83e                	sw	a5,48(sp)
   14440:	da2a                	sw	a0,52(sp)
   14442:	02910c23          	sb	s1,56(sp)
   14446:	aee68513          	addi	a0,a3,-1298 # aee <.Lline_table_start1+0x8c3>
   1444a:	4709                	li	a4,2
   1444c:	07f00793          	li	a5,127
   14450:	4681                	li	a3,0
   14452:	00000073          	ecall
   14456:	02a7e863          	bltu	a5,a0,14486 <_ZN20complex_full_dynamic3app17h98c19241ae7648a8E+0xc4>
   1445a:	00b9a223          	sw	a1,4(s3)
   1445e:	4505                	li	a0,1
   14460:	00a98023          	sb	a0,0(s3)
   14464:	1808                	addi	a0,sp,48
   14466:	00006097          	auipc	ra,0x6
   1446a:	614080e7          	jalr	1556(ra) # 1aa7a <_ZN9allow_pin12full_dynamic17unshare_if_shared17h6cf91b2080959258E>
   1446e:	0028                	addi	a0,sp,8
   14470:	00006097          	auipc	ra,0x6
   14474:	60a080e7          	jalr	1546(ra) # 1aa7a <_ZN9allow_pin12full_dynamic17unshare_if_shared17h6cf91b2080959258E>
   14478:	40fa                	lw	ra,156(sp)
   1447a:	446a                	lw	s0,152(sp)
   1447c:	44da                	lw	s1,148(sp)
   1447e:	494a                	lw	s2,144(sp)
   14480:	49ba                	lw	s3,140(sp)
   14482:	610d                	addi	sp,sp,160
   14484:	8082                	ret
   14486:	0028                	addi	a0,sp,8
   14488:	00006097          	auipc	ra,0x6
   1448c:	5f2080e7          	jalr	1522(ra) # 1aa7a <_ZN9allow_pin12full_dynamic17unshare_if_shared17h6cf91b2080959258E>
   14490:	1808                	addi	a0,sp,48
   14492:	00006097          	auipc	ra,0x6
   14496:	5e8080e7          	jalr	1512(ra) # 1aa7a <_ZN9allow_pin12full_dynamic17unshare_if_shared17h6cf91b2080959258E>
   1449a:	1808                	addi	a0,sp,48
   1449c:	00006097          	auipc	ra,0x6
   144a0:	5de080e7          	jalr	1502(ra) # 1aa7a <_ZN9allow_pin12full_dynamic17unshare_if_shared17h6cf91b2080959258E>
   144a4:	00198513          	addi	a0,s3,1
   144a8:	05000613          	li	a2,80
   144ac:	85ca                	mv	a1,s2
   144ae:	00006097          	auipc	ra,0x6
   144b2:	656080e7          	jalr	1622(ra) # 1ab04 <memcpy>
   144b6:	4501                	li	a0,0
   144b8:	b765                	j	14460 <_ZN20complex_full_dynamic3app17h98c19241ae7648a8E+0x9e>

000144ba <_ZN20complex_full_dynamic3app17h9c86ec7552d58f38E>:
   144ba:	7155                	addi	sp,sp,-208
   144bc:	c786                	sw	ra,204(sp)
   144be:	c5a2                	sw	s0,200(sp)
   144c0:	c3a6                	sw	s1,196(sp)
   144c2:	c1ca                	sw	s2,192(sp)
   144c4:	df4e                	sw	s3,188(sp)
   144c6:	89aa                	mv	s3,a0
   144c8:	4409                	li	s0,2
   144ca:	00810423          	sb	s0,8(sp)
   144ce:	0064                	addi	s1,sp,12
   144d0:	05100613          	li	a2,81
   144d4:	8526                	mv	a0,s1
   144d6:	00006097          	auipc	ra,0x6
   144da:	62e080e7          	jalr	1582(ra) # 1ab04 <memcpy>
   144de:	06c10913          	addi	s2,sp,108
   144e2:	04f00613          	li	a2,79
   144e6:	854a                	mv	a0,s2
   144e8:	4581                	li	a1,0
   144ea:	00006097          	auipc	ra,0x6
   144ee:	5ae080e7          	jalr	1454(ra) # 1aa98 <memset>
   144f2:	8626                	mv	a2,s1
   144f4:	06810423          	sb	s0,104(sp)
   144f8:	6509                	lui	a0,0x2
   144fa:	4491                	li	s1,4
   144fc:	4591                	li	a1,4
   144fe:	0ee50793          	addi	a5,a0,238 # 20ee <.Lline_table_start1+0x1ec3>
   14502:	05100693          	li	a3,81
   14506:	4711                	li	a4,4
   14508:	853e                	mv	a0,a5
   1450a:	00000073          	ecall
   1450e:	04850363          	beq	a0,s0,14554 <_ZN20complex_full_dynamic3app17h9c86ec7552d58f38E+0x9a>
   14512:	853e                	mv	a0,a5
   14514:	864a                	mv	a2,s2
   14516:	c03e                	sw	a5,0(sp)
   14518:	c226                	sw	s1,4(sp)
   1451a:	00910423          	sb	s1,8(sp)
   1451e:	44a5                	li	s1,9
   14520:	480d                	li	a6,3
   14522:	45a5                	li	a1,9
   14524:	04f00693          	li	a3,79
   14528:	470d                	li	a4,3
   1452a:	00000073          	ecall
   1452e:	02850363          	beq	a0,s0,14554 <_ZN20complex_full_dynamic3app17h9c86ec7552d58f38E+0x9a>
   14532:	d0be                	sw	a5,96(sp)
   14534:	d2a6                	sw	s1,100(sp)
   14536:	07010423          	sb	a6,104(sp)
   1453a:	6509                	lui	a0,0x2
   1453c:	4591                	li	a1,4
   1453e:	4625                	li	a2,9
   14540:	0ee50513          	addi	a0,a0,238 # 20ee <.Lline_table_start1+0x1ec3>
   14544:	4709                	li	a4,2
   14546:	07f00793          	li	a5,127
   1454a:	4681                	li	a3,0
   1454c:	00000073          	ecall
   14550:	02a7e863          	bltu	a5,a0,14580 <_ZN20complex_full_dynamic3app17h9c86ec7552d58f38E+0xc6>
   14554:	00b9a223          	sw	a1,4(s3)
   14558:	4505                	li	a0,1
   1455a:	00a98023          	sb	a0,0(s3)
   1455e:	1088                	addi	a0,sp,96
   14560:	00006097          	auipc	ra,0x6
   14564:	51a080e7          	jalr	1306(ra) # 1aa7a <_ZN9allow_pin12full_dynamic17unshare_if_shared17h6cf91b2080959258E>
   14568:	850a                	mv	a0,sp
   1456a:	00006097          	auipc	ra,0x6
   1456e:	510080e7          	jalr	1296(ra) # 1aa7a <_ZN9allow_pin12full_dynamic17unshare_if_shared17h6cf91b2080959258E>
   14572:	40be                	lw	ra,204(sp)
   14574:	442e                	lw	s0,200(sp)
   14576:	449e                	lw	s1,196(sp)
   14578:	490e                	lw	s2,192(sp)
   1457a:	59fa                	lw	s3,188(sp)
   1457c:	6169                	addi	sp,sp,208
   1457e:	8082                	ret
   14580:	850a                	mv	a0,sp
   14582:	00006097          	auipc	ra,0x6
   14586:	4f8080e7          	jalr	1272(ra) # 1aa7a <_ZN9allow_pin12full_dynamic17unshare_if_shared17h6cf91b2080959258E>
   1458a:	1088                	addi	a0,sp,96
   1458c:	00006097          	auipc	ra,0x6
   14590:	4ee080e7          	jalr	1262(ra) # 1aa7a <_ZN9allow_pin12full_dynamic17unshare_if_shared17h6cf91b2080959258E>
   14594:	1088                	addi	a0,sp,96
   14596:	00006097          	auipc	ra,0x6
   1459a:	4e4080e7          	jalr	1252(ra) # 1aa7a <_ZN9allow_pin12full_dynamic17unshare_if_shared17h6cf91b2080959258E>
   1459e:	00198513          	addi	a0,s3,1
   145a2:	04f00613          	li	a2,79
   145a6:	85ca                	mv	a1,s2
   145a8:	00006097          	auipc	ra,0x6
   145ac:	55c080e7          	jalr	1372(ra) # 1ab04 <memcpy>
   145b0:	4501                	li	a0,0
   145b2:	b765                	j	1455a <_ZN20complex_full_dynamic3app17h9c86ec7552d58f38E+0xa0>

000145b4 <_ZN20complex_full_dynamic3app17h9cbc15b266ce343bE>:
   145b4:	7175                	addi	sp,sp,-144
   145b6:	c706                	sw	ra,140(sp)
   145b8:	c522                	sw	s0,136(sp)
   145ba:	c326                	sw	s1,132(sp)
   145bc:	c14a                	sw	s2,128(sp)
   145be:	dece                	sw	s3,124(sp)
   145c0:	89aa                	mv	s3,a0
   145c2:	4409                	li	s0,2
   145c4:	00810423          	sb	s0,8(sp)
   145c8:	0064                	addi	s1,sp,12
   145ca:	05100613          	li	a2,81
   145ce:	8526                	mv	a0,s1
   145d0:	00006097          	auipc	ra,0x6
   145d4:	534080e7          	jalr	1332(ra) # 1ab04 <memcpy>
   145d8:	06c10913          	addi	s2,sp,108
   145dc:	463d                	li	a2,15
   145de:	854a                	mv	a0,s2
   145e0:	4581                	li	a1,0
   145e2:	00006097          	auipc	ra,0x6
   145e6:	4b6080e7          	jalr	1206(ra) # 1aa98 <memset>
   145ea:	4581                	li	a1,0
   145ec:	8626                	mv	a2,s1
   145ee:	06810423          	sb	s0,104(sp)
   145f2:	6505                	lui	a0,0x1
   145f4:	4491                	li	s1,4
   145f6:	3bf50793          	addi	a5,a0,959 # 13bf <.Lline_table_start1+0x1194>
   145fa:	05100693          	li	a3,81
   145fe:	4711                	li	a4,4
   14600:	853e                	mv	a0,a5
   14602:	00000073          	ecall
   14606:	04850163          	beq	a0,s0,14648 <_ZN20complex_full_dynamic3app17h9cbc15b266ce343bE+0x94>
   1460a:	853e                	mv	a0,a5
   1460c:	864a                	mv	a2,s2
   1460e:	c03e                	sw	a5,0(sp)
   14610:	c202                	sw	zero,4(sp)
   14612:	00910423          	sb	s1,8(sp)
   14616:	448d                	li	s1,3
   14618:	458d                	li	a1,3
   1461a:	46bd                	li	a3,15
   1461c:	470d                	li	a4,3
   1461e:	00000073          	ecall
   14622:	02850363          	beq	a0,s0,14648 <_ZN20complex_full_dynamic3app17h9cbc15b266ce343bE+0x94>
   14626:	d0be                	sw	a5,96(sp)
   14628:	d2a6                	sw	s1,100(sp)
   1462a:	06910423          	sb	s1,104(sp)
   1462e:	6505                	lui	a0,0x1
   14630:	460d                	li	a2,3
   14632:	3bf50513          	addi	a0,a0,959 # 13bf <.Lline_table_start1+0x1194>
   14636:	4709                	li	a4,2
   14638:	07f00793          	li	a5,127
   1463c:	4581                	li	a1,0
   1463e:	4681                	li	a3,0
   14640:	00000073          	ecall
   14644:	02a7e863          	bltu	a5,a0,14674 <_ZN20complex_full_dynamic3app17h9cbc15b266ce343bE+0xc0>
   14648:	00b9a223          	sw	a1,4(s3)
   1464c:	4505                	li	a0,1
   1464e:	00a98023          	sb	a0,0(s3)
   14652:	1088                	addi	a0,sp,96
   14654:	00006097          	auipc	ra,0x6
   14658:	426080e7          	jalr	1062(ra) # 1aa7a <_ZN9allow_pin12full_dynamic17unshare_if_shared17h6cf91b2080959258E>
   1465c:	850a                	mv	a0,sp
   1465e:	00006097          	auipc	ra,0x6
   14662:	41c080e7          	jalr	1052(ra) # 1aa7a <_ZN9allow_pin12full_dynamic17unshare_if_shared17h6cf91b2080959258E>
   14666:	40ba                	lw	ra,140(sp)
   14668:	442a                	lw	s0,136(sp)
   1466a:	449a                	lw	s1,132(sp)
   1466c:	490a                	lw	s2,128(sp)
   1466e:	59f6                	lw	s3,124(sp)
   14670:	6149                	addi	sp,sp,144
   14672:	8082                	ret
   14674:	850a                	mv	a0,sp
   14676:	00006097          	auipc	ra,0x6
   1467a:	404080e7          	jalr	1028(ra) # 1aa7a <_ZN9allow_pin12full_dynamic17unshare_if_shared17h6cf91b2080959258E>
   1467e:	1088                	addi	a0,sp,96
   14680:	00006097          	auipc	ra,0x6
   14684:	3fa080e7          	jalr	1018(ra) # 1aa7a <_ZN9allow_pin12full_dynamic17unshare_if_shared17h6cf91b2080959258E>
   14688:	1088                	addi	a0,sp,96
   1468a:	00006097          	auipc	ra,0x6
   1468e:	3f0080e7          	jalr	1008(ra) # 1aa7a <_ZN9allow_pin12full_dynamic17unshare_if_shared17h6cf91b2080959258E>
   14692:	00198513          	addi	a0,s3,1
   14696:	463d                	li	a2,15
   14698:	85ca                	mv	a1,s2
   1469a:	00006097          	auipc	ra,0x6
   1469e:	46a080e7          	jalr	1130(ra) # 1ab04 <memcpy>
   146a2:	4501                	li	a0,0
   146a4:	b76d                	j	1464e <_ZN20complex_full_dynamic3app17h9cbc15b266ce343bE+0x9a>

000146a6 <_ZN20complex_full_dynamic3app17h9fcd22ebc744bf44E>:
   146a6:	7175                	addi	sp,sp,-144
   146a8:	c706                	sw	ra,140(sp)
   146aa:	c522                	sw	s0,136(sp)
   146ac:	c326                	sw	s1,132(sp)
   146ae:	c14a                	sw	s2,128(sp)
   146b0:	dece                	sw	s3,124(sp)
   146b2:	89aa                	mv	s3,a0
   146b4:	4409                	li	s0,2
   146b6:	00810423          	sb	s0,8(sp)
   146ba:	0064                	addi	s1,sp,12
   146bc:	03400613          	li	a2,52
   146c0:	8526                	mv	a0,s1
   146c2:	00006097          	auipc	ra,0x6
   146c6:	442080e7          	jalr	1090(ra) # 1ab04 <memcpy>
   146ca:	04c10913          	addi	s2,sp,76
   146ce:	02e00613          	li	a2,46
   146d2:	854a                	mv	a0,s2
   146d4:	4581                	li	a1,0
   146d6:	00006097          	auipc	ra,0x6
   146da:	3c2080e7          	jalr	962(ra) # 1aa98 <memset>
   146de:	8626                	mv	a2,s1
   146e0:	04810423          	sb	s0,72(sp)
   146e4:	20900493          	li	s1,521
   146e8:	4791                	li	a5,4
   146ea:	20900513          	li	a0,521
   146ee:	4589                	li	a1,2
   146f0:	03400693          	li	a3,52
   146f4:	4711                	li	a4,4
   146f6:	00000073          	ecall
   146fa:	04850563          	beq	a0,s0,14744 <_ZN20complex_full_dynamic3app17h9fcd22ebc744bf44E+0x9e>
   146fe:	864a                	mv	a2,s2
   14700:	c026                	sw	s1,0(sp)
   14702:	c222                	sw	s0,4(sp)
   14704:	00f10423          	sb	a5,8(sp)
   14708:	47a1                	li	a5,8
   1470a:	448d                	li	s1,3
   1470c:	20900513          	li	a0,521
   14710:	45a1                	li	a1,8
   14712:	02e00693          	li	a3,46
   14716:	470d                	li	a4,3
   14718:	00000073          	ecall
   1471c:	02850463          	beq	a0,s0,14744 <_ZN20complex_full_dynamic3app17h9fcd22ebc744bf44E+0x9e>
   14720:	20900693          	li	a3,521
   14724:	20900513          	li	a0,521
   14728:	4589                	li	a1,2
   1472a:	4621                	li	a2,8
   1472c:	4709                	li	a4,2
   1472e:	07f00413          	li	s0,127
   14732:	c0b6                	sw	a3,64(sp)
   14734:	c2be                	sw	a5,68(sp)
   14736:	04910423          	sb	s1,72(sp)
   1473a:	4681                	li	a3,0
   1473c:	00000073          	ecall
   14740:	02a46863          	bltu	s0,a0,14770 <_ZN20complex_full_dynamic3app17h9fcd22ebc744bf44E+0xca>
   14744:	00b9a223          	sw	a1,4(s3)
   14748:	4505                	li	a0,1
   1474a:	00a98023          	sb	a0,0(s3)
   1474e:	0088                	addi	a0,sp,64
   14750:	00006097          	auipc	ra,0x6
   14754:	32a080e7          	jalr	810(ra) # 1aa7a <_ZN9allow_pin12full_dynamic17unshare_if_shared17h6cf91b2080959258E>
   14758:	850a                	mv	a0,sp
   1475a:	00006097          	auipc	ra,0x6
   1475e:	320080e7          	jalr	800(ra) # 1aa7a <_ZN9allow_pin12full_dynamic17unshare_if_shared17h6cf91b2080959258E>
   14762:	40ba                	lw	ra,140(sp)
   14764:	442a                	lw	s0,136(sp)
   14766:	449a                	lw	s1,132(sp)
   14768:	490a                	lw	s2,128(sp)
   1476a:	59f6                	lw	s3,124(sp)
   1476c:	6149                	addi	sp,sp,144
   1476e:	8082                	ret
   14770:	850a                	mv	a0,sp
   14772:	00006097          	auipc	ra,0x6
   14776:	308080e7          	jalr	776(ra) # 1aa7a <_ZN9allow_pin12full_dynamic17unshare_if_shared17h6cf91b2080959258E>
   1477a:	0088                	addi	a0,sp,64
   1477c:	00006097          	auipc	ra,0x6
   14780:	2fe080e7          	jalr	766(ra) # 1aa7a <_ZN9allow_pin12full_dynamic17unshare_if_shared17h6cf91b2080959258E>
   14784:	0088                	addi	a0,sp,64
   14786:	00006097          	auipc	ra,0x6
   1478a:	2f4080e7          	jalr	756(ra) # 1aa7a <_ZN9allow_pin12full_dynamic17unshare_if_shared17h6cf91b2080959258E>
   1478e:	00198513          	addi	a0,s3,1
   14792:	02e00613          	li	a2,46
   14796:	85ca                	mv	a1,s2
   14798:	00006097          	auipc	ra,0x6
   1479c:	36c080e7          	jalr	876(ra) # 1ab04 <memcpy>
   147a0:	4501                	li	a0,0
   147a2:	b765                	j	1474a <_ZN20complex_full_dynamic3app17h9fcd22ebc744bf44E+0xa4>

000147a4 <_ZN20complex_full_dynamic3app17ha1efef47bcdeae8aE>:
   147a4:	7155                	addi	sp,sp,-208
   147a6:	c786                	sw	ra,204(sp)
   147a8:	c5a2                	sw	s0,200(sp)
   147aa:	c3a6                	sw	s1,196(sp)
   147ac:	c1ca                	sw	s2,192(sp)
   147ae:	df4e                	sw	s3,188(sp)
   147b0:	89aa                	mv	s3,a0
   147b2:	4409                	li	s0,2
   147b4:	00810823          	sb	s0,16(sp)
   147b8:	0844                	addi	s1,sp,20
   147ba:	03a00613          	li	a2,58
   147be:	8526                	mv	a0,s1
   147c0:	00006097          	auipc	ra,0x6
   147c4:	344080e7          	jalr	836(ra) # 1ab04 <memcpy>
   147c8:	05c10913          	addi	s2,sp,92
   147cc:	05d00613          	li	a2,93
   147d0:	854a                	mv	a0,s2
   147d2:	4581                	li	a1,0
   147d4:	00006097          	auipc	ra,0x6
   147d8:	2c4080e7          	jalr	708(ra) # 1aa98 <memset>
   147dc:	4581                	li	a1,0
   147de:	8626                	mv	a2,s1
   147e0:	04810c23          	sb	s0,88(sp)
   147e4:	6505                	lui	a0,0x1
   147e6:	4491                	li	s1,4
   147e8:	4a450793          	addi	a5,a0,1188 # 14a4 <.Lline_table_start1+0x1279>
   147ec:	03a00693          	li	a3,58
   147f0:	4711                	li	a4,4
   147f2:	853e                	mv	a0,a5
   147f4:	00000073          	ecall
   147f8:	04850363          	beq	a0,s0,1483e <_ZN20complex_full_dynamic3app17ha1efef47bcdeae8aE+0x9a>
   147fc:	853e                	mv	a0,a5
   147fe:	864a                	mv	a2,s2
   14800:	c43e                	sw	a5,8(sp)
   14802:	c602                	sw	zero,12(sp)
   14804:	00910823          	sb	s1,16(sp)
   14808:	4495                	li	s1,5
   1480a:	480d                	li	a6,3
   1480c:	4595                	li	a1,5
   1480e:	05d00693          	li	a3,93
   14812:	470d                	li	a4,3
   14814:	00000073          	ecall
   14818:	02850363          	beq	a0,s0,1483e <_ZN20complex_full_dynamic3app17ha1efef47bcdeae8aE+0x9a>
   1481c:	c8be                	sw	a5,80(sp)
   1481e:	caa6                	sw	s1,84(sp)
   14820:	05010c23          	sb	a6,88(sp)
   14824:	6505                	lui	a0,0x1
   14826:	4615                	li	a2,5
   14828:	4a450513          	addi	a0,a0,1188 # 14a4 <.Lline_table_start1+0x1279>
   1482c:	4709                	li	a4,2
   1482e:	07f00793          	li	a5,127
   14832:	4581                	li	a1,0
   14834:	4681                	li	a3,0
   14836:	00000073          	ecall
   1483a:	02a7e863          	bltu	a5,a0,1486a <_ZN20complex_full_dynamic3app17ha1efef47bcdeae8aE+0xc6>
   1483e:	00b9a223          	sw	a1,4(s3)
   14842:	4505                	li	a0,1
   14844:	00a98023          	sb	a0,0(s3)
   14848:	0888                	addi	a0,sp,80
   1484a:	00006097          	auipc	ra,0x6
   1484e:	230080e7          	jalr	560(ra) # 1aa7a <_ZN9allow_pin12full_dynamic17unshare_if_shared17h6cf91b2080959258E>
   14852:	0028                	addi	a0,sp,8
   14854:	00006097          	auipc	ra,0x6
   14858:	226080e7          	jalr	550(ra) # 1aa7a <_ZN9allow_pin12full_dynamic17unshare_if_shared17h6cf91b2080959258E>
   1485c:	40be                	lw	ra,204(sp)
   1485e:	442e                	lw	s0,200(sp)
   14860:	449e                	lw	s1,196(sp)
   14862:	490e                	lw	s2,192(sp)
   14864:	59fa                	lw	s3,188(sp)
   14866:	6169                	addi	sp,sp,208
   14868:	8082                	ret
   1486a:	0028                	addi	a0,sp,8
   1486c:	00006097          	auipc	ra,0x6
   14870:	20e080e7          	jalr	526(ra) # 1aa7a <_ZN9allow_pin12full_dynamic17unshare_if_shared17h6cf91b2080959258E>
   14874:	0888                	addi	a0,sp,80
   14876:	00006097          	auipc	ra,0x6
   1487a:	204080e7          	jalr	516(ra) # 1aa7a <_ZN9allow_pin12full_dynamic17unshare_if_shared17h6cf91b2080959258E>
   1487e:	0888                	addi	a0,sp,80
   14880:	00006097          	auipc	ra,0x6
   14884:	1fa080e7          	jalr	506(ra) # 1aa7a <_ZN9allow_pin12full_dynamic17unshare_if_shared17h6cf91b2080959258E>
   14888:	00198513          	addi	a0,s3,1
   1488c:	05d00613          	li	a2,93
   14890:	85ca                	mv	a1,s2
   14892:	00006097          	auipc	ra,0x6
   14896:	272080e7          	jalr	626(ra) # 1ab04 <memcpy>
   1489a:	4501                	li	a0,0
   1489c:	b765                	j	14844 <_ZN20complex_full_dynamic3app17ha1efef47bcdeae8aE+0xa0>

0001489e <_ZN20complex_full_dynamic3app17ha435e510abf79030E>:
   1489e:	7135                	addi	sp,sp,-160
   148a0:	cf06                	sw	ra,156(sp)
   148a2:	cd22                	sw	s0,152(sp)
   148a4:	cb26                	sw	s1,148(sp)
   148a6:	c94a                	sw	s2,144(sp)
   148a8:	c74e                	sw	s3,140(sp)
   148aa:	89aa                	mv	s3,a0
   148ac:	4409                	li	s0,2
   148ae:	00810623          	sb	s0,12(sp)
   148b2:	0804                	addi	s1,sp,16
   148b4:	03c00613          	li	a2,60
   148b8:	8526                	mv	a0,s1
   148ba:	00006097          	auipc	ra,0x6
   148be:	24a080e7          	jalr	586(ra) # 1ab04 <memcpy>
   148c2:	05810913          	addi	s2,sp,88
   148c6:	03200613          	li	a2,50
   148ca:	854a                	mv	a0,s2
   148cc:	4581                	li	a1,0
   148ce:	00006097          	auipc	ra,0x6
   148d2:	1ca080e7          	jalr	458(ra) # 1aa98 <memset>
   148d6:	8626                	mv	a2,s1
   148d8:	04810a23          	sb	s0,84(sp)
   148dc:	6509                	lui	a0,0x2
   148de:	4499                	li	s1,6
   148e0:	4811                	li	a6,4
   148e2:	4599                	li	a1,6
   148e4:	b1e50793          	addi	a5,a0,-1250 # 1b1e <.Lline_table_start1+0x18f3>
   148e8:	03c00693          	li	a3,60
   148ec:	4711                	li	a4,4
   148ee:	853e                	mv	a0,a5
   148f0:	00000073          	ecall
   148f4:	04850363          	beq	a0,s0,1493a <_ZN20complex_full_dynamic3app17ha435e510abf79030E+0x9c>
   148f8:	853e                	mv	a0,a5
   148fa:	864a                	mv	a2,s2
   148fc:	c23e                	sw	a5,4(sp)
   148fe:	c426                	sw	s1,8(sp)
   14900:	01010623          	sb	a6,12(sp)
   14904:	44a1                	li	s1,8
   14906:	480d                	li	a6,3
   14908:	45a1                	li	a1,8
   1490a:	03200693          	li	a3,50
   1490e:	470d                	li	a4,3
   14910:	00000073          	ecall
   14914:	02850363          	beq	a0,s0,1493a <_ZN20complex_full_dynamic3app17ha435e510abf79030E+0x9c>
   14918:	c6be                	sw	a5,76(sp)
   1491a:	c8a6                	sw	s1,80(sp)
   1491c:	05010a23          	sb	a6,84(sp)
   14920:	6509                	lui	a0,0x2
   14922:	4599                	li	a1,6
   14924:	4621                	li	a2,8
   14926:	b1e50513          	addi	a0,a0,-1250 # 1b1e <.Lline_table_start1+0x18f3>
   1492a:	4709                	li	a4,2
   1492c:	07f00793          	li	a5,127
   14930:	4681                	li	a3,0
   14932:	00000073          	ecall
   14936:	02a7e863          	bltu	a5,a0,14966 <_ZN20complex_full_dynamic3app17ha435e510abf79030E+0xc8>
   1493a:	00b9a223          	sw	a1,4(s3)
   1493e:	4505                	li	a0,1
   14940:	00a98023          	sb	a0,0(s3)
   14944:	00e8                	addi	a0,sp,76
   14946:	00006097          	auipc	ra,0x6
   1494a:	134080e7          	jalr	308(ra) # 1aa7a <_ZN9allow_pin12full_dynamic17unshare_if_shared17h6cf91b2080959258E>
   1494e:	0048                	addi	a0,sp,4
   14950:	00006097          	auipc	ra,0x6
   14954:	12a080e7          	jalr	298(ra) # 1aa7a <_ZN9allow_pin12full_dynamic17unshare_if_shared17h6cf91b2080959258E>
   14958:	40fa                	lw	ra,156(sp)
   1495a:	446a                	lw	s0,152(sp)
   1495c:	44da                	lw	s1,148(sp)
   1495e:	494a                	lw	s2,144(sp)
   14960:	49ba                	lw	s3,140(sp)
   14962:	610d                	addi	sp,sp,160
   14964:	8082                	ret
   14966:	0048                	addi	a0,sp,4
   14968:	00006097          	auipc	ra,0x6
   1496c:	112080e7          	jalr	274(ra) # 1aa7a <_ZN9allow_pin12full_dynamic17unshare_if_shared17h6cf91b2080959258E>
   14970:	00e8                	addi	a0,sp,76
   14972:	00006097          	auipc	ra,0x6
   14976:	108080e7          	jalr	264(ra) # 1aa7a <_ZN9allow_pin12full_dynamic17unshare_if_shared17h6cf91b2080959258E>
   1497a:	00e8                	addi	a0,sp,76
   1497c:	00006097          	auipc	ra,0x6
   14980:	0fe080e7          	jalr	254(ra) # 1aa7a <_ZN9allow_pin12full_dynamic17unshare_if_shared17h6cf91b2080959258E>
   14984:	00198513          	addi	a0,s3,1
   14988:	03200613          	li	a2,50
   1498c:	85ca                	mv	a1,s2
   1498e:	00006097          	auipc	ra,0x6
   14992:	176080e7          	jalr	374(ra) # 1ab04 <memcpy>
   14996:	4501                	li	a0,0
   14998:	b765                	j	14940 <_ZN20complex_full_dynamic3app17ha435e510abf79030E+0xa2>

0001499a <_ZN20complex_full_dynamic3app17ha48ad0e4611deee1E>:
   1499a:	7135                	addi	sp,sp,-160
   1499c:	cf06                	sw	ra,156(sp)
   1499e:	cd22                	sw	s0,152(sp)
   149a0:	cb26                	sw	s1,148(sp)
   149a2:	c94a                	sw	s2,144(sp)
   149a4:	c74e                	sw	s3,140(sp)
   149a6:	89aa                	mv	s3,a0
   149a8:	4409                	li	s0,2
   149aa:	00810a23          	sb	s0,20(sp)
   149ae:	0824                	addi	s1,sp,24
   149b0:	04400613          	li	a2,68
   149b4:	8526                	mv	a0,s1
   149b6:	00006097          	auipc	ra,0x6
   149ba:	14e080e7          	jalr	334(ra) # 1ab04 <memcpy>
   149be:	06810913          	addi	s2,sp,104
   149c2:	02300613          	li	a2,35
   149c6:	854a                	mv	a0,s2
   149c8:	4581                	li	a1,0
   149ca:	00006097          	auipc	ra,0x6
   149ce:	0ce080e7          	jalr	206(ra) # 1aa98 <memset>
   149d2:	8626                	mv	a2,s1
   149d4:	06810223          	sb	s0,100(sp)
   149d8:	6505                	lui	a0,0x1
   149da:	4499                	li	s1,6
   149dc:	4811                	li	a6,4
   149de:	4599                	li	a1,6
   149e0:	9bf50793          	addi	a5,a0,-1601 # 9bf <.Lline_table_start1+0x794>
   149e4:	04400693          	li	a3,68
   149e8:	4711                	li	a4,4
   149ea:	853e                	mv	a0,a5
   149ec:	00000073          	ecall
   149f0:	04850263          	beq	a0,s0,14a34 <_ZN20complex_full_dynamic3app17ha48ad0e4611deee1E+0x9a>
   149f4:	853e                	mv	a0,a5
   149f6:	864a                	mv	a2,s2
   149f8:	c63e                	sw	a5,12(sp)
   149fa:	c826                	sw	s1,16(sp)
   149fc:	01010a23          	sb	a6,20(sp)
   14a00:	448d                	li	s1,3
   14a02:	458d                	li	a1,3
   14a04:	02300693          	li	a3,35
   14a08:	470d                	li	a4,3
   14a0a:	00000073          	ecall
   14a0e:	02850363          	beq	a0,s0,14a34 <_ZN20complex_full_dynamic3app17ha48ad0e4611deee1E+0x9a>
   14a12:	cebe                	sw	a5,92(sp)
   14a14:	d0a6                	sw	s1,96(sp)
   14a16:	06910223          	sb	s1,100(sp)
   14a1a:	6505                	lui	a0,0x1
   14a1c:	4599                	li	a1,6
   14a1e:	460d                	li	a2,3
   14a20:	9bf50513          	addi	a0,a0,-1601 # 9bf <.Lline_table_start1+0x794>
   14a24:	4709                	li	a4,2
   14a26:	07f00793          	li	a5,127
   14a2a:	4681                	li	a3,0
   14a2c:	00000073          	ecall
   14a30:	02a7e863          	bltu	a5,a0,14a60 <_ZN20complex_full_dynamic3app17ha48ad0e4611deee1E+0xc6>
   14a34:	00b9a223          	sw	a1,4(s3)
   14a38:	4505                	li	a0,1
   14a3a:	00a98023          	sb	a0,0(s3)
   14a3e:	08e8                	addi	a0,sp,92
   14a40:	00006097          	auipc	ra,0x6
   14a44:	03a080e7          	jalr	58(ra) # 1aa7a <_ZN9allow_pin12full_dynamic17unshare_if_shared17h6cf91b2080959258E>
   14a48:	0068                	addi	a0,sp,12
   14a4a:	00006097          	auipc	ra,0x6
   14a4e:	030080e7          	jalr	48(ra) # 1aa7a <_ZN9allow_pin12full_dynamic17unshare_if_shared17h6cf91b2080959258E>
   14a52:	40fa                	lw	ra,156(sp)
   14a54:	446a                	lw	s0,152(sp)
   14a56:	44da                	lw	s1,148(sp)
   14a58:	494a                	lw	s2,144(sp)
   14a5a:	49ba                	lw	s3,140(sp)
   14a5c:	610d                	addi	sp,sp,160
   14a5e:	8082                	ret
   14a60:	0068                	addi	a0,sp,12
   14a62:	00006097          	auipc	ra,0x6
   14a66:	018080e7          	jalr	24(ra) # 1aa7a <_ZN9allow_pin12full_dynamic17unshare_if_shared17h6cf91b2080959258E>
   14a6a:	08e8                	addi	a0,sp,92
   14a6c:	00006097          	auipc	ra,0x6
   14a70:	00e080e7          	jalr	14(ra) # 1aa7a <_ZN9allow_pin12full_dynamic17unshare_if_shared17h6cf91b2080959258E>
   14a74:	08e8                	addi	a0,sp,92
   14a76:	00006097          	auipc	ra,0x6
   14a7a:	004080e7          	jalr	4(ra) # 1aa7a <_ZN9allow_pin12full_dynamic17unshare_if_shared17h6cf91b2080959258E>
   14a7e:	00198513          	addi	a0,s3,1
   14a82:	02300613          	li	a2,35
   14a86:	85ca                	mv	a1,s2
   14a88:	00006097          	auipc	ra,0x6
   14a8c:	07c080e7          	jalr	124(ra) # 1ab04 <memcpy>
   14a90:	4501                	li	a0,0
   14a92:	b765                	j	14a3a <_ZN20complex_full_dynamic3app17ha48ad0e4611deee1E+0xa0>

00014a94 <_ZN20complex_full_dynamic3app17ha5034c77d3db448cE>:
   14a94:	7171                	addi	sp,sp,-176
   14a96:	d706                	sw	ra,172(sp)
   14a98:	d522                	sw	s0,168(sp)
   14a9a:	d326                	sw	s1,164(sp)
   14a9c:	d14a                	sw	s2,160(sp)
   14a9e:	cf4e                	sw	s3,156(sp)
   14aa0:	89aa                	mv	s3,a0
   14aa2:	4409                	li	s0,2
   14aa4:	00810823          	sb	s0,16(sp)
   14aa8:	0844                	addi	s1,sp,20
   14aaa:	4671                	li	a2,28
   14aac:	8526                	mv	a0,s1
   14aae:	00006097          	auipc	ra,0x6
   14ab2:	056080e7          	jalr	86(ra) # 1ab04 <memcpy>
   14ab6:	03c10913          	addi	s2,sp,60
   14aba:	05d00613          	li	a2,93
   14abe:	854a                	mv	a0,s2
   14ac0:	4581                	li	a1,0
   14ac2:	00006097          	auipc	ra,0x6
   14ac6:	fd6080e7          	jalr	-42(ra) # 1aa98 <memset>
   14aca:	8626                	mv	a2,s1
   14acc:	02810c23          	sb	s0,56(sp)
   14ad0:	6505                	lui	a0,0x1
   14ad2:	44a1                	li	s1,8
   14ad4:	4811                	li	a6,4
   14ad6:	45a1                	li	a1,8
   14ad8:	c3e50793          	addi	a5,a0,-962 # c3e <.Lline_table_start1+0xa13>
   14adc:	46f1                	li	a3,28
   14ade:	4711                	li	a4,4
   14ae0:	853e                	mv	a0,a5
   14ae2:	00000073          	ecall
   14ae6:	04850363          	beq	a0,s0,14b2c <_ZN20complex_full_dynamic3app17ha5034c77d3db448cE+0x98>
   14aea:	853e                	mv	a0,a5
   14aec:	864a                	mv	a2,s2
   14aee:	c43e                	sw	a5,8(sp)
   14af0:	c626                	sw	s1,12(sp)
   14af2:	01010823          	sb	a6,16(sp)
   14af6:	4495                	li	s1,5
   14af8:	480d                	li	a6,3
   14afa:	4595                	li	a1,5
   14afc:	05d00693          	li	a3,93
   14b00:	470d                	li	a4,3
   14b02:	00000073          	ecall
   14b06:	02850363          	beq	a0,s0,14b2c <_ZN20complex_full_dynamic3app17ha5034c77d3db448cE+0x98>
   14b0a:	d83e                	sw	a5,48(sp)
   14b0c:	da26                	sw	s1,52(sp)
   14b0e:	03010c23          	sb	a6,56(sp)
   14b12:	6505                	lui	a0,0x1
   14b14:	45a1                	li	a1,8
   14b16:	4615                	li	a2,5
   14b18:	c3e50513          	addi	a0,a0,-962 # c3e <.Lline_table_start1+0xa13>
   14b1c:	4709                	li	a4,2
   14b1e:	07f00793          	li	a5,127
   14b22:	4681                	li	a3,0
   14b24:	00000073          	ecall
   14b28:	02a7e863          	bltu	a5,a0,14b58 <_ZN20complex_full_dynamic3app17ha5034c77d3db448cE+0xc4>
   14b2c:	00b9a223          	sw	a1,4(s3)
   14b30:	4505                	li	a0,1
   14b32:	00a98023          	sb	a0,0(s3)
   14b36:	1808                	addi	a0,sp,48
   14b38:	00006097          	auipc	ra,0x6
   14b3c:	f42080e7          	jalr	-190(ra) # 1aa7a <_ZN9allow_pin12full_dynamic17unshare_if_shared17h6cf91b2080959258E>
   14b40:	0028                	addi	a0,sp,8
   14b42:	00006097          	auipc	ra,0x6
   14b46:	f38080e7          	jalr	-200(ra) # 1aa7a <_ZN9allow_pin12full_dynamic17unshare_if_shared17h6cf91b2080959258E>
   14b4a:	50ba                	lw	ra,172(sp)
   14b4c:	542a                	lw	s0,168(sp)
   14b4e:	549a                	lw	s1,164(sp)
   14b50:	590a                	lw	s2,160(sp)
   14b52:	49fa                	lw	s3,156(sp)
   14b54:	614d                	addi	sp,sp,176
   14b56:	8082                	ret
   14b58:	0028                	addi	a0,sp,8
   14b5a:	00006097          	auipc	ra,0x6
   14b5e:	f20080e7          	jalr	-224(ra) # 1aa7a <_ZN9allow_pin12full_dynamic17unshare_if_shared17h6cf91b2080959258E>
   14b62:	1808                	addi	a0,sp,48
   14b64:	00006097          	auipc	ra,0x6
   14b68:	f16080e7          	jalr	-234(ra) # 1aa7a <_ZN9allow_pin12full_dynamic17unshare_if_shared17h6cf91b2080959258E>
   14b6c:	1808                	addi	a0,sp,48
   14b6e:	00006097          	auipc	ra,0x6
   14b72:	f0c080e7          	jalr	-244(ra) # 1aa7a <_ZN9allow_pin12full_dynamic17unshare_if_shared17h6cf91b2080959258E>
   14b76:	00198513          	addi	a0,s3,1
   14b7a:	05d00613          	li	a2,93
   14b7e:	85ca                	mv	a1,s2
   14b80:	00006097          	auipc	ra,0x6
   14b84:	f84080e7          	jalr	-124(ra) # 1ab04 <memcpy>
   14b88:	4501                	li	a0,0
   14b8a:	b765                	j	14b32 <_ZN20complex_full_dynamic3app17ha5034c77d3db448cE+0x9e>

00014b8c <_ZN20complex_full_dynamic3app17ha8a0450c3f4d12edE>:
   14b8c:	7119                	addi	sp,sp,-128
   14b8e:	de86                	sw	ra,124(sp)
   14b90:	dca2                	sw	s0,120(sp)
   14b92:	daa6                	sw	s1,116(sp)
   14b94:	d8ca                	sw	s2,112(sp)
   14b96:	d6ce                	sw	s3,108(sp)
   14b98:	89aa                	mv	s3,a0
   14b9a:	4409                	li	s0,2
   14b9c:	00810a23          	sb	s0,20(sp)
   14ba0:	0824                	addi	s1,sp,24
   14ba2:	03600613          	li	a2,54
   14ba6:	8526                	mv	a0,s1
   14ba8:	00006097          	auipc	ra,0x6
   14bac:	f5c080e7          	jalr	-164(ra) # 1ab04 <memcpy>
   14bb0:	05c10913          	addi	s2,sp,92
   14bb4:	463d                	li	a2,15
   14bb6:	854a                	mv	a0,s2
   14bb8:	4581                	li	a1,0
   14bba:	00006097          	auipc	ra,0x6
   14bbe:	ede080e7          	jalr	-290(ra) # 1aa98 <memset>
   14bc2:	8626                	mv	a2,s1
   14bc4:	04810c23          	sb	s0,88(sp)
   14bc8:	65300793          	li	a5,1619
   14bcc:	4495                	li	s1,5
   14bce:	4811                	li	a6,4
   14bd0:	65300513          	li	a0,1619
   14bd4:	4595                	li	a1,5
   14bd6:	03600693          	li	a3,54
   14bda:	4711                	li	a4,4
   14bdc:	00000073          	ecall
   14be0:	04850363          	beq	a0,s0,14c26 <_ZN20complex_full_dynamic3app17ha8a0450c3f4d12edE+0x9a>
   14be4:	864a                	mv	a2,s2
   14be6:	c63e                	sw	a5,12(sp)
   14be8:	c826                	sw	s1,16(sp)
   14bea:	01010a23          	sb	a6,20(sp)
   14bee:	478d                	li	a5,3
   14bf0:	65300513          	li	a0,1619
   14bf4:	458d                	li	a1,3
   14bf6:	46bd                	li	a3,15
   14bf8:	470d                	li	a4,3
   14bfa:	00000073          	ecall
   14bfe:	02850463          	beq	a0,s0,14c26 <_ZN20complex_full_dynamic3app17ha8a0450c3f4d12edE+0x9a>
   14c02:	65300693          	li	a3,1619
   14c06:	65300513          	li	a0,1619
   14c0a:	4595                	li	a1,5
   14c0c:	460d                	li	a2,3
   14c0e:	4709                	li	a4,2
   14c10:	07f00493          	li	s1,127
   14c14:	c8b6                	sw	a3,80(sp)
   14c16:	cabe                	sw	a5,84(sp)
   14c18:	04f10c23          	sb	a5,88(sp)
   14c1c:	4681                	li	a3,0
   14c1e:	00000073          	ecall
   14c22:	02a4e863          	bltu	s1,a0,14c52 <_ZN20complex_full_dynamic3app17ha8a0450c3f4d12edE+0xc6>
   14c26:	00b9a223          	sw	a1,4(s3)
   14c2a:	4505                	li	a0,1
   14c2c:	00a98023          	sb	a0,0(s3)
   14c30:	0888                	addi	a0,sp,80
   14c32:	00006097          	auipc	ra,0x6
   14c36:	e48080e7          	jalr	-440(ra) # 1aa7a <_ZN9allow_pin12full_dynamic17unshare_if_shared17h6cf91b2080959258E>
   14c3a:	0068                	addi	a0,sp,12
   14c3c:	00006097          	auipc	ra,0x6
   14c40:	e3e080e7          	jalr	-450(ra) # 1aa7a <_ZN9allow_pin12full_dynamic17unshare_if_shared17h6cf91b2080959258E>
   14c44:	50f6                	lw	ra,124(sp)
   14c46:	5466                	lw	s0,120(sp)
   14c48:	54d6                	lw	s1,116(sp)
   14c4a:	5946                	lw	s2,112(sp)
   14c4c:	59b6                	lw	s3,108(sp)
   14c4e:	6109                	addi	sp,sp,128
   14c50:	8082                	ret
   14c52:	0068                	addi	a0,sp,12
   14c54:	00006097          	auipc	ra,0x6
   14c58:	e26080e7          	jalr	-474(ra) # 1aa7a <_ZN9allow_pin12full_dynamic17unshare_if_shared17h6cf91b2080959258E>
   14c5c:	0888                	addi	a0,sp,80
   14c5e:	00006097          	auipc	ra,0x6
   14c62:	e1c080e7          	jalr	-484(ra) # 1aa7a <_ZN9allow_pin12full_dynamic17unshare_if_shared17h6cf91b2080959258E>
   14c66:	0888                	addi	a0,sp,80
   14c68:	00006097          	auipc	ra,0x6
   14c6c:	e12080e7          	jalr	-494(ra) # 1aa7a <_ZN9allow_pin12full_dynamic17unshare_if_shared17h6cf91b2080959258E>
   14c70:	00198513          	addi	a0,s3,1
   14c74:	463d                	li	a2,15
   14c76:	85ca                	mv	a1,s2
   14c78:	00006097          	auipc	ra,0x6
   14c7c:	e8c080e7          	jalr	-372(ra) # 1ab04 <memcpy>
   14c80:	4501                	li	a0,0
   14c82:	b76d                	j	14c2c <_ZN20complex_full_dynamic3app17ha8a0450c3f4d12edE+0xa0>

00014c84 <_ZN20complex_full_dynamic3app17hb0dd5e8e9d24eea3E>:
   14c84:	711d                	addi	sp,sp,-96
   14c86:	ce86                	sw	ra,92(sp)
   14c88:	cca2                	sw	s0,88(sp)
   14c8a:	caa6                	sw	s1,84(sp)
   14c8c:	c8ca                	sw	s2,80(sp)
   14c8e:	c6ce                	sw	s3,76(sp)
   14c90:	89aa                	mv	s3,a0
   14c92:	4409                	li	s0,2
   14c94:	00810423          	sb	s0,8(sp)
   14c98:	0064                	addi	s1,sp,12
   14c9a:	4635                	li	a2,13
   14c9c:	8526                	mv	a0,s1
   14c9e:	00006097          	auipc	ra,0x6
   14ca2:	e66080e7          	jalr	-410(ra) # 1ab04 <memcpy>
   14ca6:	02810913          	addi	s2,sp,40
   14caa:	02100613          	li	a2,33
   14cae:	854a                	mv	a0,s2
   14cb0:	4581                	li	a1,0
   14cb2:	00006097          	auipc	ra,0x6
   14cb6:	de6080e7          	jalr	-538(ra) # 1aa98 <memset>
   14cba:	4581                	li	a1,0
   14cbc:	8626                	mv	a2,s1
   14cbe:	02810223          	sb	s0,36(sp)
   14cc2:	6505                	lui	a0,0x1
   14cc4:	4491                	li	s1,4
   14cc6:	6b050793          	addi	a5,a0,1712 # 16b0 <.Lline_table_start1+0x1485>
   14cca:	46b5                	li	a3,13
   14ccc:	4711                	li	a4,4
   14cce:	853e                	mv	a0,a5
   14cd0:	00000073          	ecall
   14cd4:	04850263          	beq	a0,s0,14d18 <_ZN20complex_full_dynamic3app17hb0dd5e8e9d24eea3E+0x94>
   14cd8:	853e                	mv	a0,a5
   14cda:	4581                	li	a1,0
   14cdc:	864a                	mv	a2,s2
   14cde:	c03e                	sw	a5,0(sp)
   14ce0:	c202                	sw	zero,4(sp)
   14ce2:	00910423          	sb	s1,8(sp)
   14ce6:	448d                	li	s1,3
   14ce8:	02100693          	li	a3,33
   14cec:	470d                	li	a4,3
   14cee:	00000073          	ecall
   14cf2:	02850363          	beq	a0,s0,14d18 <_ZN20complex_full_dynamic3app17hb0dd5e8e9d24eea3E+0x94>
   14cf6:	ce3e                	sw	a5,28(sp)
   14cf8:	d002                	sw	zero,32(sp)
   14cfa:	02910223          	sb	s1,36(sp)
   14cfe:	6505                	lui	a0,0x1
   14d00:	6b050513          	addi	a0,a0,1712 # 16b0 <.Lline_table_start1+0x1485>
   14d04:	4709                	li	a4,2
   14d06:	07f00793          	li	a5,127
   14d0a:	4581                	li	a1,0
   14d0c:	4601                	li	a2,0
   14d0e:	4681                	li	a3,0
   14d10:	00000073          	ecall
   14d14:	02a7e863          	bltu	a5,a0,14d44 <_ZN20complex_full_dynamic3app17hb0dd5e8e9d24eea3E+0xc0>
   14d18:	00b9a223          	sw	a1,4(s3)
   14d1c:	4505                	li	a0,1
   14d1e:	00a98023          	sb	a0,0(s3)
   14d22:	0868                	addi	a0,sp,28
   14d24:	00006097          	auipc	ra,0x6
   14d28:	d56080e7          	jalr	-682(ra) # 1aa7a <_ZN9allow_pin12full_dynamic17unshare_if_shared17h6cf91b2080959258E>
   14d2c:	850a                	mv	a0,sp
   14d2e:	00006097          	auipc	ra,0x6
   14d32:	d4c080e7          	jalr	-692(ra) # 1aa7a <_ZN9allow_pin12full_dynamic17unshare_if_shared17h6cf91b2080959258E>
   14d36:	40f6                	lw	ra,92(sp)
   14d38:	4466                	lw	s0,88(sp)
   14d3a:	44d6                	lw	s1,84(sp)
   14d3c:	4946                	lw	s2,80(sp)
   14d3e:	49b6                	lw	s3,76(sp)
   14d40:	6125                	addi	sp,sp,96
   14d42:	8082                	ret
   14d44:	850a                	mv	a0,sp
   14d46:	00006097          	auipc	ra,0x6
   14d4a:	d34080e7          	jalr	-716(ra) # 1aa7a <_ZN9allow_pin12full_dynamic17unshare_if_shared17h6cf91b2080959258E>
   14d4e:	0868                	addi	a0,sp,28
   14d50:	00006097          	auipc	ra,0x6
   14d54:	d2a080e7          	jalr	-726(ra) # 1aa7a <_ZN9allow_pin12full_dynamic17unshare_if_shared17h6cf91b2080959258E>
   14d58:	0868                	addi	a0,sp,28
   14d5a:	00006097          	auipc	ra,0x6
   14d5e:	d20080e7          	jalr	-736(ra) # 1aa7a <_ZN9allow_pin12full_dynamic17unshare_if_shared17h6cf91b2080959258E>
   14d62:	00198513          	addi	a0,s3,1
   14d66:	02100613          	li	a2,33
   14d6a:	85ca                	mv	a1,s2
   14d6c:	00006097          	auipc	ra,0x6
   14d70:	d98080e7          	jalr	-616(ra) # 1ab04 <memcpy>
   14d74:	4501                	li	a0,0
   14d76:	b765                	j	14d1e <_ZN20complex_full_dynamic3app17hb0dd5e8e9d24eea3E+0x9a>

00014d78 <_ZN20complex_full_dynamic3app17hb2d4b260f74f1142E>:
   14d78:	7171                	addi	sp,sp,-176
   14d7a:	d706                	sw	ra,172(sp)
   14d7c:	d522                	sw	s0,168(sp)
   14d7e:	d326                	sw	s1,164(sp)
   14d80:	d14a                	sw	s2,160(sp)
   14d82:	cf4e                	sw	s3,156(sp)
   14d84:	89aa                	mv	s3,a0
   14d86:	4409                	li	s0,2
   14d88:	00810823          	sb	s0,16(sp)
   14d8c:	0844                	addi	s1,sp,20
   14d8e:	03100613          	li	a2,49
   14d92:	8526                	mv	a0,s1
   14d94:	00006097          	auipc	ra,0x6
   14d98:	d70080e7          	jalr	-656(ra) # 1ab04 <memcpy>
   14d9c:	05410913          	addi	s2,sp,84
   14da0:	04800613          	li	a2,72
   14da4:	854a                	mv	a0,s2
   14da6:	4581                	li	a1,0
   14da8:	00006097          	auipc	ra,0x6
   14dac:	cf0080e7          	jalr	-784(ra) # 1aa98 <memset>
   14db0:	8626                	mv	a2,s1
   14db2:	04810823          	sb	s0,80(sp)
   14db6:	6509                	lui	a0,0x2
   14db8:	4491                	li	s1,4
   14dba:	4591                	li	a1,4
   14dbc:	80e50793          	addi	a5,a0,-2034 # 180e <.Lline_table_start1+0x15e3>
   14dc0:	03100693          	li	a3,49
   14dc4:	4711                	li	a4,4
   14dc6:	853e                	mv	a0,a5
   14dc8:	00000073          	ecall
   14dcc:	04850263          	beq	a0,s0,14e10 <_ZN20complex_full_dynamic3app17hb2d4b260f74f1142E+0x98>
   14dd0:	853e                	mv	a0,a5
   14dd2:	864a                	mv	a2,s2
   14dd4:	c43e                	sw	a5,8(sp)
   14dd6:	c626                	sw	s1,12(sp)
   14dd8:	00910823          	sb	s1,16(sp)
   14ddc:	448d                	li	s1,3
   14dde:	458d                	li	a1,3
   14de0:	04800693          	li	a3,72
   14de4:	470d                	li	a4,3
   14de6:	00000073          	ecall
   14dea:	02850363          	beq	a0,s0,14e10 <_ZN20complex_full_dynamic3app17hb2d4b260f74f1142E+0x98>
   14dee:	c4be                	sw	a5,72(sp)
   14df0:	c6a6                	sw	s1,76(sp)
   14df2:	04910823          	sb	s1,80(sp)
   14df6:	6509                	lui	a0,0x2
   14df8:	4591                	li	a1,4
   14dfa:	460d                	li	a2,3
   14dfc:	80e50513          	addi	a0,a0,-2034 # 180e <.Lline_table_start1+0x15e3>
   14e00:	4709                	li	a4,2
   14e02:	07f00793          	li	a5,127
   14e06:	4681                	li	a3,0
   14e08:	00000073          	ecall
   14e0c:	02a7e863          	bltu	a5,a0,14e3c <_ZN20complex_full_dynamic3app17hb2d4b260f74f1142E+0xc4>
   14e10:	00b9a223          	sw	a1,4(s3)
   14e14:	4505                	li	a0,1
   14e16:	00a98023          	sb	a0,0(s3)
   14e1a:	00a8                	addi	a0,sp,72
   14e1c:	00006097          	auipc	ra,0x6
   14e20:	c5e080e7          	jalr	-930(ra) # 1aa7a <_ZN9allow_pin12full_dynamic17unshare_if_shared17h6cf91b2080959258E>
   14e24:	0028                	addi	a0,sp,8
   14e26:	00006097          	auipc	ra,0x6
   14e2a:	c54080e7          	jalr	-940(ra) # 1aa7a <_ZN9allow_pin12full_dynamic17unshare_if_shared17h6cf91b2080959258E>
   14e2e:	50ba                	lw	ra,172(sp)
   14e30:	542a                	lw	s0,168(sp)
   14e32:	549a                	lw	s1,164(sp)
   14e34:	590a                	lw	s2,160(sp)
   14e36:	49fa                	lw	s3,156(sp)
   14e38:	614d                	addi	sp,sp,176
   14e3a:	8082                	ret
   14e3c:	0028                	addi	a0,sp,8
   14e3e:	00006097          	auipc	ra,0x6
   14e42:	c3c080e7          	jalr	-964(ra) # 1aa7a <_ZN9allow_pin12full_dynamic17unshare_if_shared17h6cf91b2080959258E>
   14e46:	00a8                	addi	a0,sp,72
   14e48:	00006097          	auipc	ra,0x6
   14e4c:	c32080e7          	jalr	-974(ra) # 1aa7a <_ZN9allow_pin12full_dynamic17unshare_if_shared17h6cf91b2080959258E>
   14e50:	00a8                	addi	a0,sp,72
   14e52:	00006097          	auipc	ra,0x6
   14e56:	c28080e7          	jalr	-984(ra) # 1aa7a <_ZN9allow_pin12full_dynamic17unshare_if_shared17h6cf91b2080959258E>
   14e5a:	00198513          	addi	a0,s3,1
   14e5e:	04800613          	li	a2,72
   14e62:	85ca                	mv	a1,s2
   14e64:	00006097          	auipc	ra,0x6
   14e68:	ca0080e7          	jalr	-864(ra) # 1ab04 <memcpy>
   14e6c:	4501                	li	a0,0
   14e6e:	b765                	j	14e16 <_ZN20complex_full_dynamic3app17hb2d4b260f74f1142E+0x9e>

00014e70 <_ZN20complex_full_dynamic3app17hb37952561801462dE>:
   14e70:	7155                	addi	sp,sp,-208
   14e72:	c786                	sw	ra,204(sp)
   14e74:	c5a2                	sw	s0,200(sp)
   14e76:	c3a6                	sw	s1,196(sp)
   14e78:	c1ca                	sw	s2,192(sp)
   14e7a:	df4e                	sw	s3,188(sp)
   14e7c:	89aa                	mv	s3,a0
   14e7e:	4409                	li	s0,2
   14e80:	00810423          	sb	s0,8(sp)
   14e84:	0064                	addi	s1,sp,12
   14e86:	05600613          	li	a2,86
   14e8a:	8526                	mv	a0,s1
   14e8c:	00006097          	auipc	ra,0x6
   14e90:	c78080e7          	jalr	-904(ra) # 1ab04 <memcpy>
   14e94:	07010913          	addi	s2,sp,112
   14e98:	04900613          	li	a2,73
   14e9c:	854a                	mv	a0,s2
   14e9e:	4581                	li	a1,0
   14ea0:	00006097          	auipc	ra,0x6
   14ea4:	bf8080e7          	jalr	-1032(ra) # 1aa98 <memset>
   14ea8:	8626                	mv	a2,s1
   14eaa:	06810623          	sb	s0,108(sp)
   14eae:	6509                	lui	a0,0x2
   14eb0:	4499                	li	s1,6
   14eb2:	4811                	li	a6,4
   14eb4:	4599                	li	a1,6
   14eb6:	c6b50793          	addi	a5,a0,-917 # 1c6b <.Lline_table_start1+0x1a40>
   14eba:	05600693          	li	a3,86
   14ebe:	4711                	li	a4,4
   14ec0:	853e                	mv	a0,a5
   14ec2:	00000073          	ecall
   14ec6:	04850363          	beq	a0,s0,14f0c <_ZN20complex_full_dynamic3app17hb37952561801462dE+0x9c>
   14eca:	853e                	mv	a0,a5
   14ecc:	864a                	mv	a2,s2
   14ece:	c03e                	sw	a5,0(sp)
   14ed0:	c226                	sw	s1,4(sp)
   14ed2:	01010423          	sb	a6,8(sp)
   14ed6:	448d                	li	s1,3
   14ed8:	4599                	li	a1,6
   14eda:	04900693          	li	a3,73
   14ede:	470d                	li	a4,3
   14ee0:	00000073          	ecall
   14ee4:	02850463          	beq	a0,s0,14f0c <_ZN20complex_full_dynamic3app17hb37952561801462dE+0x9c>
   14ee8:	4519                	li	a0,6
   14eea:	6689                	lui	a3,0x2
   14eec:	4599                	li	a1,6
   14eee:	4619                	li	a2,6
   14ef0:	d2be                	sw	a5,100(sp)
   14ef2:	d4aa                	sw	a0,104(sp)
   14ef4:	06910623          	sb	s1,108(sp)
   14ef8:	c6b68513          	addi	a0,a3,-917 # 1c6b <.Lline_table_start1+0x1a40>
   14efc:	4709                	li	a4,2
   14efe:	07f00793          	li	a5,127
   14f02:	4681                	li	a3,0
   14f04:	00000073          	ecall
   14f08:	02a7e863          	bltu	a5,a0,14f38 <_ZN20complex_full_dynamic3app17hb37952561801462dE+0xc8>
   14f0c:	00b9a223          	sw	a1,4(s3)
   14f10:	4505                	li	a0,1
   14f12:	00a98023          	sb	a0,0(s3)
   14f16:	10c8                	addi	a0,sp,100
   14f18:	00006097          	auipc	ra,0x6
   14f1c:	b62080e7          	jalr	-1182(ra) # 1aa7a <_ZN9allow_pin12full_dynamic17unshare_if_shared17h6cf91b2080959258E>
   14f20:	850a                	mv	a0,sp
   14f22:	00006097          	auipc	ra,0x6
   14f26:	b58080e7          	jalr	-1192(ra) # 1aa7a <_ZN9allow_pin12full_dynamic17unshare_if_shared17h6cf91b2080959258E>
   14f2a:	40be                	lw	ra,204(sp)
   14f2c:	442e                	lw	s0,200(sp)
   14f2e:	449e                	lw	s1,196(sp)
   14f30:	490e                	lw	s2,192(sp)
   14f32:	59fa                	lw	s3,188(sp)
   14f34:	6169                	addi	sp,sp,208
   14f36:	8082                	ret
   14f38:	850a                	mv	a0,sp
   14f3a:	00006097          	auipc	ra,0x6
   14f3e:	b40080e7          	jalr	-1216(ra) # 1aa7a <_ZN9allow_pin12full_dynamic17unshare_if_shared17h6cf91b2080959258E>
   14f42:	10c8                	addi	a0,sp,100
   14f44:	00006097          	auipc	ra,0x6
   14f48:	b36080e7          	jalr	-1226(ra) # 1aa7a <_ZN9allow_pin12full_dynamic17unshare_if_shared17h6cf91b2080959258E>
   14f4c:	10c8                	addi	a0,sp,100
   14f4e:	00006097          	auipc	ra,0x6
   14f52:	b2c080e7          	jalr	-1236(ra) # 1aa7a <_ZN9allow_pin12full_dynamic17unshare_if_shared17h6cf91b2080959258E>
   14f56:	00198513          	addi	a0,s3,1
   14f5a:	04900613          	li	a2,73
   14f5e:	85ca                	mv	a1,s2
   14f60:	00006097          	auipc	ra,0x6
   14f64:	ba4080e7          	jalr	-1116(ra) # 1ab04 <memcpy>
   14f68:	4501                	li	a0,0
   14f6a:	b765                	j	14f12 <_ZN20complex_full_dynamic3app17hb37952561801462dE+0xa2>

00014f6c <_ZN20complex_full_dynamic3app17hbae8d9c4dfbe0d41E>:
   14f6c:	7119                	addi	sp,sp,-128
   14f6e:	de86                	sw	ra,124(sp)
   14f70:	dca2                	sw	s0,120(sp)
   14f72:	daa6                	sw	s1,116(sp)
   14f74:	d8ca                	sw	s2,112(sp)
   14f76:	d6ce                	sw	s3,108(sp)
   14f78:	89aa                	mv	s3,a0
   14f7a:	4409                	li	s0,2
   14f7c:	00810423          	sb	s0,8(sp)
   14f80:	0064                	addi	s1,sp,12
   14f82:	4645                	li	a2,17
   14f84:	8526                	mv	a0,s1
   14f86:	00006097          	auipc	ra,0x6
   14f8a:	b7e080e7          	jalr	-1154(ra) # 1ab04 <memcpy>
   14f8e:	02c10913          	addi	s2,sp,44
   14f92:	03f00613          	li	a2,63
   14f96:	854a                	mv	a0,s2
   14f98:	4581                	li	a1,0
   14f9a:	00006097          	auipc	ra,0x6
   14f9e:	afe080e7          	jalr	-1282(ra) # 1aa98 <memset>
   14fa2:	8626                	mv	a2,s1
   14fa4:	02810423          	sb	s0,40(sp)
   14fa8:	6505                	lui	a0,0x1
   14faa:	449d                	li	s1,7
   14fac:	4811                	li	a6,4
   14fae:	459d                	li	a1,7
   14fb0:	cb050793          	addi	a5,a0,-848 # cb0 <.Lline_table_start1+0xa85>
   14fb4:	46c5                	li	a3,17
   14fb6:	4711                	li	a4,4
   14fb8:	853e                	mv	a0,a5
   14fba:	00000073          	ecall
   14fbe:	04850363          	beq	a0,s0,15004 <_ZN20complex_full_dynamic3app17hbae8d9c4dfbe0d41E+0x98>
   14fc2:	853e                	mv	a0,a5
   14fc4:	864a                	mv	a2,s2
   14fc6:	c03e                	sw	a5,0(sp)
   14fc8:	c226                	sw	s1,4(sp)
   14fca:	01010423          	sb	a6,8(sp)
   14fce:	448d                	li	s1,3
   14fd0:	4591                	li	a1,4
   14fd2:	03f00693          	li	a3,63
   14fd6:	470d                	li	a4,3
   14fd8:	00000073          	ecall
   14fdc:	02850463          	beq	a0,s0,15004 <_ZN20complex_full_dynamic3app17hbae8d9c4dfbe0d41E+0x98>
   14fe0:	4511                	li	a0,4
   14fe2:	6685                	lui	a3,0x1
   14fe4:	459d                	li	a1,7
   14fe6:	4611                	li	a2,4
   14fe8:	d03e                	sw	a5,32(sp)
   14fea:	d22a                	sw	a0,36(sp)
   14fec:	02910423          	sb	s1,40(sp)
   14ff0:	cb068513          	addi	a0,a3,-848 # cb0 <.Lline_table_start1+0xa85>
   14ff4:	4709                	li	a4,2
   14ff6:	07f00793          	li	a5,127
   14ffa:	4681                	li	a3,0
   14ffc:	00000073          	ecall
   15000:	02a7e863          	bltu	a5,a0,15030 <_ZN20complex_full_dynamic3app17hbae8d9c4dfbe0d41E+0xc4>
   15004:	00b9a223          	sw	a1,4(s3)
   15008:	4505                	li	a0,1
   1500a:	00a98023          	sb	a0,0(s3)
   1500e:	1008                	addi	a0,sp,32
   15010:	00006097          	auipc	ra,0x6
   15014:	a6a080e7          	jalr	-1430(ra) # 1aa7a <_ZN9allow_pin12full_dynamic17unshare_if_shared17h6cf91b2080959258E>
   15018:	850a                	mv	a0,sp
   1501a:	00006097          	auipc	ra,0x6
   1501e:	a60080e7          	jalr	-1440(ra) # 1aa7a <_ZN9allow_pin12full_dynamic17unshare_if_shared17h6cf91b2080959258E>
   15022:	50f6                	lw	ra,124(sp)
   15024:	5466                	lw	s0,120(sp)
   15026:	54d6                	lw	s1,116(sp)
   15028:	5946                	lw	s2,112(sp)
   1502a:	59b6                	lw	s3,108(sp)
   1502c:	6109                	addi	sp,sp,128
   1502e:	8082                	ret
   15030:	850a                	mv	a0,sp
   15032:	00006097          	auipc	ra,0x6
   15036:	a48080e7          	jalr	-1464(ra) # 1aa7a <_ZN9allow_pin12full_dynamic17unshare_if_shared17h6cf91b2080959258E>
   1503a:	1008                	addi	a0,sp,32
   1503c:	00006097          	auipc	ra,0x6
   15040:	a3e080e7          	jalr	-1474(ra) # 1aa7a <_ZN9allow_pin12full_dynamic17unshare_if_shared17h6cf91b2080959258E>
   15044:	1008                	addi	a0,sp,32
   15046:	00006097          	auipc	ra,0x6
   1504a:	a34080e7          	jalr	-1484(ra) # 1aa7a <_ZN9allow_pin12full_dynamic17unshare_if_shared17h6cf91b2080959258E>
   1504e:	00198513          	addi	a0,s3,1
   15052:	03f00613          	li	a2,63
   15056:	85ca                	mv	a1,s2
   15058:	00006097          	auipc	ra,0x6
   1505c:	aac080e7          	jalr	-1364(ra) # 1ab04 <memcpy>
   15060:	4501                	li	a0,0
   15062:	b765                	j	1500a <_ZN20complex_full_dynamic3app17hbae8d9c4dfbe0d41E+0x9e>

00015064 <_ZN20complex_full_dynamic3app17hbb1b71b5cd03c7abE>:
   15064:	7119                	addi	sp,sp,-128
   15066:	de86                	sw	ra,124(sp)
   15068:	dca2                	sw	s0,120(sp)
   1506a:	daa6                	sw	s1,116(sp)
   1506c:	d8ca                	sw	s2,112(sp)
   1506e:	d6ce                	sw	s3,108(sp)
   15070:	89aa                	mv	s3,a0
   15072:	4409                	li	s0,2
   15074:	00810423          	sb	s0,8(sp)
   15078:	0064                	addi	s1,sp,12
   1507a:	02400613          	li	a2,36
   1507e:	8526                	mv	a0,s1
   15080:	00006097          	auipc	ra,0x6
   15084:	a84080e7          	jalr	-1404(ra) # 1ab04 <memcpy>
   15088:	03c10913          	addi	s2,sp,60
   1508c:	02f00613          	li	a2,47
   15090:	854a                	mv	a0,s2
   15092:	4581                	li	a1,0
   15094:	00006097          	auipc	ra,0x6
   15098:	a04080e7          	jalr	-1532(ra) # 1aa98 <memset>
   1509c:	8626                	mv	a2,s1
   1509e:	02810c23          	sb	s0,56(sp)
   150a2:	6505                	lui	a0,0x1
   150a4:	4499                	li	s1,6
   150a6:	4811                	li	a6,4
   150a8:	4599                	li	a1,6
   150aa:	27350793          	addi	a5,a0,627 # 1273 <.Lline_table_start1+0x1048>
   150ae:	02400693          	li	a3,36
   150b2:	4711                	li	a4,4
   150b4:	853e                	mv	a0,a5
   150b6:	00000073          	ecall
   150ba:	04850363          	beq	a0,s0,15100 <_ZN20complex_full_dynamic3app17hbb1b71b5cd03c7abE+0x9c>
   150be:	853e                	mv	a0,a5
   150c0:	864a                	mv	a2,s2
   150c2:	c03e                	sw	a5,0(sp)
   150c4:	c226                	sw	s1,4(sp)
   150c6:	01010423          	sb	a6,8(sp)
   150ca:	44a5                	li	s1,9
   150cc:	480d                	li	a6,3
   150ce:	45a5                	li	a1,9
   150d0:	02f00693          	li	a3,47
   150d4:	470d                	li	a4,3
   150d6:	00000073          	ecall
   150da:	02850363          	beq	a0,s0,15100 <_ZN20complex_full_dynamic3app17hbb1b71b5cd03c7abE+0x9c>
   150de:	d83e                	sw	a5,48(sp)
   150e0:	da26                	sw	s1,52(sp)
   150e2:	03010c23          	sb	a6,56(sp)
   150e6:	6505                	lui	a0,0x1
   150e8:	4599                	li	a1,6
   150ea:	4625                	li	a2,9
   150ec:	27350513          	addi	a0,a0,627 # 1273 <.Lline_table_start1+0x1048>
   150f0:	4709                	li	a4,2
   150f2:	07f00793          	li	a5,127
   150f6:	4681                	li	a3,0
   150f8:	00000073          	ecall
   150fc:	02a7e863          	bltu	a5,a0,1512c <_ZN20complex_full_dynamic3app17hbb1b71b5cd03c7abE+0xc8>
   15100:	00b9a223          	sw	a1,4(s3)
   15104:	4505                	li	a0,1
   15106:	00a98023          	sb	a0,0(s3)
   1510a:	1808                	addi	a0,sp,48
   1510c:	00006097          	auipc	ra,0x6
   15110:	96e080e7          	jalr	-1682(ra) # 1aa7a <_ZN9allow_pin12full_dynamic17unshare_if_shared17h6cf91b2080959258E>
   15114:	850a                	mv	a0,sp
   15116:	00006097          	auipc	ra,0x6
   1511a:	964080e7          	jalr	-1692(ra) # 1aa7a <_ZN9allow_pin12full_dynamic17unshare_if_shared17h6cf91b2080959258E>
   1511e:	50f6                	lw	ra,124(sp)
   15120:	5466                	lw	s0,120(sp)
   15122:	54d6                	lw	s1,116(sp)
   15124:	5946                	lw	s2,112(sp)
   15126:	59b6                	lw	s3,108(sp)
   15128:	6109                	addi	sp,sp,128
   1512a:	8082                	ret
   1512c:	850a                	mv	a0,sp
   1512e:	00006097          	auipc	ra,0x6
   15132:	94c080e7          	jalr	-1716(ra) # 1aa7a <_ZN9allow_pin12full_dynamic17unshare_if_shared17h6cf91b2080959258E>
   15136:	1808                	addi	a0,sp,48
   15138:	00006097          	auipc	ra,0x6
   1513c:	942080e7          	jalr	-1726(ra) # 1aa7a <_ZN9allow_pin12full_dynamic17unshare_if_shared17h6cf91b2080959258E>
   15140:	1808                	addi	a0,sp,48
   15142:	00006097          	auipc	ra,0x6
   15146:	938080e7          	jalr	-1736(ra) # 1aa7a <_ZN9allow_pin12full_dynamic17unshare_if_shared17h6cf91b2080959258E>
   1514a:	00198513          	addi	a0,s3,1
   1514e:	02f00613          	li	a2,47
   15152:	85ca                	mv	a1,s2
   15154:	00006097          	auipc	ra,0x6
   15158:	9b0080e7          	jalr	-1616(ra) # 1ab04 <memcpy>
   1515c:	4501                	li	a0,0
   1515e:	b765                	j	15106 <_ZN20complex_full_dynamic3app17hbb1b71b5cd03c7abE+0xa2>

00015160 <_ZN20complex_full_dynamic3app17hbbbbb269e342da1bE>:
   15160:	7131                	addi	sp,sp,-192
   15162:	df06                	sw	ra,188(sp)
   15164:	dd22                	sw	s0,184(sp)
   15166:	db26                	sw	s1,180(sp)
   15168:	d94a                	sw	s2,176(sp)
   1516a:	d74e                	sw	s3,172(sp)
   1516c:	89aa                	mv	s3,a0
   1516e:	4409                	li	s0,2
   15170:	00810623          	sb	s0,12(sp)
   15174:	0804                	addi	s1,sp,16
   15176:	02f00613          	li	a2,47
   1517a:	8526                	mv	a0,s1
   1517c:	00006097          	auipc	ra,0x6
   15180:	988080e7          	jalr	-1656(ra) # 1ab04 <memcpy>
   15184:	04c10913          	addi	s2,sp,76
   15188:	05e00613          	li	a2,94
   1518c:	854a                	mv	a0,s2
   1518e:	4581                	li	a1,0
   15190:	00006097          	auipc	ra,0x6
   15194:	908080e7          	jalr	-1784(ra) # 1aa98 <memset>
   15198:	8626                	mv	a2,s1
   1519a:	04810423          	sb	s0,72(sp)
   1519e:	22b00793          	li	a5,555
   151a2:	4495                	li	s1,5
   151a4:	4811                	li	a6,4
   151a6:	22b00513          	li	a0,555
   151aa:	4595                	li	a1,5
   151ac:	02f00693          	li	a3,47
   151b0:	4711                	li	a4,4
   151b2:	00000073          	ecall
   151b6:	04850563          	beq	a0,s0,15200 <_ZN20complex_full_dynamic3app17hbbbbb269e342da1bE+0xa0>
   151ba:	864a                	mv	a2,s2
   151bc:	c23e                	sw	a5,4(sp)
   151be:	c426                	sw	s1,8(sp)
   151c0:	01010623          	sb	a6,12(sp)
   151c4:	478d                	li	a5,3
   151c6:	22b00513          	li	a0,555
   151ca:	4589                	li	a1,2
   151cc:	05e00693          	li	a3,94
   151d0:	470d                	li	a4,3
   151d2:	00000073          	ecall
   151d6:	02850563          	beq	a0,s0,15200 <_ZN20complex_full_dynamic3app17hbbbbb269e342da1bE+0xa0>
   151da:	22b00693          	li	a3,555
   151de:	4489                	li	s1,2
   151e0:	22b00513          	li	a0,555
   151e4:	4595                	li	a1,5
   151e6:	4609                	li	a2,2
   151e8:	4709                	li	a4,2
   151ea:	07f00413          	li	s0,127
   151ee:	c0b6                	sw	a3,64(sp)
   151f0:	c2a6                	sw	s1,68(sp)
   151f2:	04f10423          	sb	a5,72(sp)
   151f6:	4681                	li	a3,0
   151f8:	00000073          	ecall
   151fc:	02a46863          	bltu	s0,a0,1522c <_ZN20complex_full_dynamic3app17hbbbbb269e342da1bE+0xcc>
   15200:	00b9a223          	sw	a1,4(s3)
   15204:	4505                	li	a0,1
   15206:	00a98023          	sb	a0,0(s3)
   1520a:	0088                	addi	a0,sp,64
   1520c:	00006097          	auipc	ra,0x6
   15210:	86e080e7          	jalr	-1938(ra) # 1aa7a <_ZN9allow_pin12full_dynamic17unshare_if_shared17h6cf91b2080959258E>
   15214:	0048                	addi	a0,sp,4
   15216:	00006097          	auipc	ra,0x6
   1521a:	864080e7          	jalr	-1948(ra) # 1aa7a <_ZN9allow_pin12full_dynamic17unshare_if_shared17h6cf91b2080959258E>
   1521e:	50fa                	lw	ra,188(sp)
   15220:	546a                	lw	s0,184(sp)
   15222:	54da                	lw	s1,180(sp)
   15224:	594a                	lw	s2,176(sp)
   15226:	59ba                	lw	s3,172(sp)
   15228:	6129                	addi	sp,sp,192
   1522a:	8082                	ret
   1522c:	0048                	addi	a0,sp,4
   1522e:	00006097          	auipc	ra,0x6
   15232:	84c080e7          	jalr	-1972(ra) # 1aa7a <_ZN9allow_pin12full_dynamic17unshare_if_shared17h6cf91b2080959258E>
   15236:	0088                	addi	a0,sp,64
   15238:	00006097          	auipc	ra,0x6
   1523c:	842080e7          	jalr	-1982(ra) # 1aa7a <_ZN9allow_pin12full_dynamic17unshare_if_shared17h6cf91b2080959258E>
   15240:	0088                	addi	a0,sp,64
   15242:	00006097          	auipc	ra,0x6
   15246:	838080e7          	jalr	-1992(ra) # 1aa7a <_ZN9allow_pin12full_dynamic17unshare_if_shared17h6cf91b2080959258E>
   1524a:	00198513          	addi	a0,s3,1
   1524e:	05e00613          	li	a2,94
   15252:	85ca                	mv	a1,s2
   15254:	00006097          	auipc	ra,0x6
   15258:	8b0080e7          	jalr	-1872(ra) # 1ab04 <memcpy>
   1525c:	4501                	li	a0,0
   1525e:	b765                	j	15206 <_ZN20complex_full_dynamic3app17hbbbbb269e342da1bE+0xa6>

00015260 <_ZN20complex_full_dynamic3app17hbeaf025bf9f1febdE>:
   15260:	7159                	addi	sp,sp,-112
   15262:	d686                	sw	ra,108(sp)
   15264:	d4a2                	sw	s0,104(sp)
   15266:	d2a6                	sw	s1,100(sp)
   15268:	d0ca                	sw	s2,96(sp)
   1526a:	cece                	sw	s3,92(sp)
   1526c:	89aa                	mv	s3,a0
   1526e:	4409                	li	s0,2
   15270:	00810a23          	sb	s0,20(sp)
   15274:	0824                	addi	s1,sp,24
   15276:	4661                	li	a2,24
   15278:	8526                	mv	a0,s1
   1527a:	00006097          	auipc	ra,0x6
   1527e:	88a080e7          	jalr	-1910(ra) # 1ab04 <memcpy>
   15282:	03c10913          	addi	s2,sp,60
   15286:	4679                	li	a2,30
   15288:	854a                	mv	a0,s2
   1528a:	4581                	li	a1,0
   1528c:	00006097          	auipc	ra,0x6
   15290:	80c080e7          	jalr	-2036(ra) # 1aa98 <memset>
   15294:	8626                	mv	a2,s1
   15296:	02810c23          	sb	s0,56(sp)
   1529a:	6505                	lui	a0,0x1
   1529c:	44a5                	li	s1,9
   1529e:	4811                	li	a6,4
   152a0:	45a5                	li	a1,9
   152a2:	cbb50793          	addi	a5,a0,-837 # cbb <.Lline_table_start1+0xa90>
   152a6:	46e1                	li	a3,24
   152a8:	4711                	li	a4,4
   152aa:	853e                	mv	a0,a5
   152ac:	00000073          	ecall
   152b0:	04850263          	beq	a0,s0,152f4 <_ZN20complex_full_dynamic3app17hbeaf025bf9f1febdE+0x94>
   152b4:	853e                	mv	a0,a5
   152b6:	864a                	mv	a2,s2
   152b8:	c63e                	sw	a5,12(sp)
   152ba:	c826                	sw	s1,16(sp)
   152bc:	01010a23          	sb	a6,20(sp)
   152c0:	4495                	li	s1,5
   152c2:	480d                	li	a6,3
   152c4:	4595                	li	a1,5
   152c6:	46f9                	li	a3,30
   152c8:	470d                	li	a4,3
   152ca:	00000073          	ecall
   152ce:	02850363          	beq	a0,s0,152f4 <_ZN20complex_full_dynamic3app17hbeaf025bf9f1febdE+0x94>
   152d2:	d83e                	sw	a5,48(sp)
   152d4:	da26                	sw	s1,52(sp)
   152d6:	03010c23          	sb	a6,56(sp)
   152da:	6505                	lui	a0,0x1
   152dc:	45a5                	li	a1,9
   152de:	4615                	li	a2,5
   152e0:	cbb50513          	addi	a0,a0,-837 # cbb <.Lline_table_start1+0xa90>
   152e4:	4709                	li	a4,2
   152e6:	07f00793          	li	a5,127
   152ea:	4681                	li	a3,0
   152ec:	00000073          	ecall
   152f0:	02a7e863          	bltu	a5,a0,15320 <_ZN20complex_full_dynamic3app17hbeaf025bf9f1febdE+0xc0>
   152f4:	00b9a223          	sw	a1,4(s3)
   152f8:	4505                	li	a0,1
   152fa:	00a98023          	sb	a0,0(s3)
   152fe:	1808                	addi	a0,sp,48
   15300:	00005097          	auipc	ra,0x5
   15304:	77a080e7          	jalr	1914(ra) # 1aa7a <_ZN9allow_pin12full_dynamic17unshare_if_shared17h6cf91b2080959258E>
   15308:	0068                	addi	a0,sp,12
   1530a:	00005097          	auipc	ra,0x5
   1530e:	770080e7          	jalr	1904(ra) # 1aa7a <_ZN9allow_pin12full_dynamic17unshare_if_shared17h6cf91b2080959258E>
   15312:	50b6                	lw	ra,108(sp)
   15314:	5426                	lw	s0,104(sp)
   15316:	5496                	lw	s1,100(sp)
   15318:	5906                	lw	s2,96(sp)
   1531a:	49f6                	lw	s3,92(sp)
   1531c:	6165                	addi	sp,sp,112
   1531e:	8082                	ret
   15320:	0068                	addi	a0,sp,12
   15322:	00005097          	auipc	ra,0x5
   15326:	758080e7          	jalr	1880(ra) # 1aa7a <_ZN9allow_pin12full_dynamic17unshare_if_shared17h6cf91b2080959258E>
   1532a:	1808                	addi	a0,sp,48
   1532c:	00005097          	auipc	ra,0x5
   15330:	74e080e7          	jalr	1870(ra) # 1aa7a <_ZN9allow_pin12full_dynamic17unshare_if_shared17h6cf91b2080959258E>
   15334:	1808                	addi	a0,sp,48
   15336:	00005097          	auipc	ra,0x5
   1533a:	744080e7          	jalr	1860(ra) # 1aa7a <_ZN9allow_pin12full_dynamic17unshare_if_shared17h6cf91b2080959258E>
   1533e:	00198513          	addi	a0,s3,1
   15342:	4679                	li	a2,30
   15344:	85ca                	mv	a1,s2
   15346:	00005097          	auipc	ra,0x5
   1534a:	7be080e7          	jalr	1982(ra) # 1ab04 <memcpy>
   1534e:	4501                	li	a0,0
   15350:	b76d                	j	152fa <_ZN20complex_full_dynamic3app17hbeaf025bf9f1febdE+0x9a>

00015352 <_ZN20complex_full_dynamic3app17hc568627a0801630eE>:
   15352:	7175                	addi	sp,sp,-144
   15354:	c706                	sw	ra,140(sp)
   15356:	c522                	sw	s0,136(sp)
   15358:	c326                	sw	s1,132(sp)
   1535a:	c14a                	sw	s2,128(sp)
   1535c:	dece                	sw	s3,124(sp)
   1535e:	89aa                	mv	s3,a0
   15360:	4409                	li	s0,2
   15362:	00810823          	sb	s0,16(sp)
   15366:	0844                	addi	s1,sp,20
   15368:	4679                	li	a2,30
   1536a:	8526                	mv	a0,s1
   1536c:	00005097          	auipc	ra,0x5
   15370:	798080e7          	jalr	1944(ra) # 1ab04 <memcpy>
   15374:	04010913          	addi	s2,sp,64
   15378:	03c00613          	li	a2,60
   1537c:	854a                	mv	a0,s2
   1537e:	4581                	li	a1,0
   15380:	00005097          	auipc	ra,0x5
   15384:	718080e7          	jalr	1816(ra) # 1aa98 <memset>
   15388:	8626                	mv	a2,s1
   1538a:	02810e23          	sb	s0,60(sp)
   1538e:	6505                	lui	a0,0x1
   15390:	4491                	li	s1,4
   15392:	4589                	li	a1,2
   15394:	b3c50793          	addi	a5,a0,-1220 # b3c <.Lline_table_start1+0x911>
   15398:	46f9                	li	a3,30
   1539a:	4711                	li	a4,4
   1539c:	853e                	mv	a0,a5
   1539e:	00000073          	ecall
   153a2:	04850263          	beq	a0,s0,153e6 <_ZN20complex_full_dynamic3app17hc568627a0801630eE+0x94>
   153a6:	853e                	mv	a0,a5
   153a8:	864a                	mv	a2,s2
   153aa:	c43e                	sw	a5,8(sp)
   153ac:	c622                	sw	s0,12(sp)
   153ae:	00910823          	sb	s1,16(sp)
   153b2:	448d                	li	s1,3
   153b4:	458d                	li	a1,3
   153b6:	03c00693          	li	a3,60
   153ba:	470d                	li	a4,3
   153bc:	00000073          	ecall
   153c0:	02850363          	beq	a0,s0,153e6 <_ZN20complex_full_dynamic3app17hc568627a0801630eE+0x94>
   153c4:	da3e                	sw	a5,52(sp)
   153c6:	dc26                	sw	s1,56(sp)
   153c8:	02910e23          	sb	s1,60(sp)
   153cc:	6505                	lui	a0,0x1
   153ce:	4589                	li	a1,2
   153d0:	460d                	li	a2,3
   153d2:	b3c50513          	addi	a0,a0,-1220 # b3c <.Lline_table_start1+0x911>
   153d6:	4709                	li	a4,2
   153d8:	07f00793          	li	a5,127
   153dc:	4681                	li	a3,0
   153de:	00000073          	ecall
   153e2:	02a7e863          	bltu	a5,a0,15412 <_ZN20complex_full_dynamic3app17hc568627a0801630eE+0xc0>
   153e6:	00b9a223          	sw	a1,4(s3)
   153ea:	4505                	li	a0,1
   153ec:	00a98023          	sb	a0,0(s3)
   153f0:	1848                	addi	a0,sp,52
   153f2:	00005097          	auipc	ra,0x5
   153f6:	688080e7          	jalr	1672(ra) # 1aa7a <_ZN9allow_pin12full_dynamic17unshare_if_shared17h6cf91b2080959258E>
   153fa:	0028                	addi	a0,sp,8
   153fc:	00005097          	auipc	ra,0x5
   15400:	67e080e7          	jalr	1662(ra) # 1aa7a <_ZN9allow_pin12full_dynamic17unshare_if_shared17h6cf91b2080959258E>
   15404:	40ba                	lw	ra,140(sp)
   15406:	442a                	lw	s0,136(sp)
   15408:	449a                	lw	s1,132(sp)
   1540a:	490a                	lw	s2,128(sp)
   1540c:	59f6                	lw	s3,124(sp)
   1540e:	6149                	addi	sp,sp,144
   15410:	8082                	ret
   15412:	0028                	addi	a0,sp,8
   15414:	00005097          	auipc	ra,0x5
   15418:	666080e7          	jalr	1638(ra) # 1aa7a <_ZN9allow_pin12full_dynamic17unshare_if_shared17h6cf91b2080959258E>
   1541c:	1848                	addi	a0,sp,52
   1541e:	00005097          	auipc	ra,0x5
   15422:	65c080e7          	jalr	1628(ra) # 1aa7a <_ZN9allow_pin12full_dynamic17unshare_if_shared17h6cf91b2080959258E>
   15426:	1848                	addi	a0,sp,52
   15428:	00005097          	auipc	ra,0x5
   1542c:	652080e7          	jalr	1618(ra) # 1aa7a <_ZN9allow_pin12full_dynamic17unshare_if_shared17h6cf91b2080959258E>
   15430:	00198513          	addi	a0,s3,1
   15434:	03c00613          	li	a2,60
   15438:	85ca                	mv	a1,s2
   1543a:	00005097          	auipc	ra,0x5
   1543e:	6ca080e7          	jalr	1738(ra) # 1ab04 <memcpy>
   15442:	4501                	li	a0,0
   15444:	b765                	j	153ec <_ZN20complex_full_dynamic3app17hc568627a0801630eE+0x9a>

00015446 <_ZN20complex_full_dynamic3app17hc572b7c13c1b9240E>:
   15446:	7171                	addi	sp,sp,-176
   15448:	d706                	sw	ra,172(sp)
   1544a:	d522                	sw	s0,168(sp)
   1544c:	d326                	sw	s1,164(sp)
   1544e:	d14a                	sw	s2,160(sp)
   15450:	cf4e                	sw	s3,156(sp)
   15452:	89aa                	mv	s3,a0
   15454:	4409                	li	s0,2
   15456:	00810a23          	sb	s0,20(sp)
   1545a:	0824                	addi	s1,sp,24
   1545c:	03200613          	li	a2,50
   15460:	8526                	mv	a0,s1
   15462:	00005097          	auipc	ra,0x5
   15466:	6a2080e7          	jalr	1698(ra) # 1ab04 <memcpy>
   1546a:	05810913          	addi	s2,sp,88
   1546e:	04100613          	li	a2,65
   15472:	854a                	mv	a0,s2
   15474:	4581                	li	a1,0
   15476:	00005097          	auipc	ra,0x5
   1547a:	622080e7          	jalr	1570(ra) # 1aa98 <memset>
   1547e:	8626                	mv	a2,s1
   15480:	04810a23          	sb	s0,84(sp)
   15484:	6505                	lui	a0,0x1
   15486:	449d                	li	s1,7
   15488:	4811                	li	a6,4
   1548a:	459d                	li	a1,7
   1548c:	91d50793          	addi	a5,a0,-1763 # 91d <.Lline_table_start1+0x6f2>
   15490:	03200693          	li	a3,50
   15494:	4711                	li	a4,4
   15496:	853e                	mv	a0,a5
   15498:	00000073          	ecall
   1549c:	04850363          	beq	a0,s0,154e2 <_ZN20complex_full_dynamic3app17hc572b7c13c1b9240E+0x9c>
   154a0:	853e                	mv	a0,a5
   154a2:	864a                	mv	a2,s2
   154a4:	c63e                	sw	a5,12(sp)
   154a6:	c826                	sw	s1,16(sp)
   154a8:	01010a23          	sb	a6,20(sp)
   154ac:	4495                	li	s1,5
   154ae:	480d                	li	a6,3
   154b0:	4595                	li	a1,5
   154b2:	04100693          	li	a3,65
   154b6:	470d                	li	a4,3
   154b8:	00000073          	ecall
   154bc:	02850363          	beq	a0,s0,154e2 <_ZN20complex_full_dynamic3app17hc572b7c13c1b9240E+0x9c>
   154c0:	c6be                	sw	a5,76(sp)
   154c2:	c8a6                	sw	s1,80(sp)
   154c4:	05010a23          	sb	a6,84(sp)
   154c8:	6505                	lui	a0,0x1
   154ca:	459d                	li	a1,7
   154cc:	4615                	li	a2,5
   154ce:	91d50513          	addi	a0,a0,-1763 # 91d <.Lline_table_start1+0x6f2>
   154d2:	4709                	li	a4,2
   154d4:	07f00793          	li	a5,127
   154d8:	4681                	li	a3,0
   154da:	00000073          	ecall
   154de:	02a7e863          	bltu	a5,a0,1550e <_ZN20complex_full_dynamic3app17hc572b7c13c1b9240E+0xc8>
   154e2:	00b9a223          	sw	a1,4(s3)
   154e6:	4505                	li	a0,1
   154e8:	00a98023          	sb	a0,0(s3)
   154ec:	00e8                	addi	a0,sp,76
   154ee:	00005097          	auipc	ra,0x5
   154f2:	58c080e7          	jalr	1420(ra) # 1aa7a <_ZN9allow_pin12full_dynamic17unshare_if_shared17h6cf91b2080959258E>
   154f6:	0068                	addi	a0,sp,12
   154f8:	00005097          	auipc	ra,0x5
   154fc:	582080e7          	jalr	1410(ra) # 1aa7a <_ZN9allow_pin12full_dynamic17unshare_if_shared17h6cf91b2080959258E>
   15500:	50ba                	lw	ra,172(sp)
   15502:	542a                	lw	s0,168(sp)
   15504:	549a                	lw	s1,164(sp)
   15506:	590a                	lw	s2,160(sp)
   15508:	49fa                	lw	s3,156(sp)
   1550a:	614d                	addi	sp,sp,176
   1550c:	8082                	ret
   1550e:	0068                	addi	a0,sp,12
   15510:	00005097          	auipc	ra,0x5
   15514:	56a080e7          	jalr	1386(ra) # 1aa7a <_ZN9allow_pin12full_dynamic17unshare_if_shared17h6cf91b2080959258E>
   15518:	00e8                	addi	a0,sp,76
   1551a:	00005097          	auipc	ra,0x5
   1551e:	560080e7          	jalr	1376(ra) # 1aa7a <_ZN9allow_pin12full_dynamic17unshare_if_shared17h6cf91b2080959258E>
   15522:	00e8                	addi	a0,sp,76
   15524:	00005097          	auipc	ra,0x5
   15528:	556080e7          	jalr	1366(ra) # 1aa7a <_ZN9allow_pin12full_dynamic17unshare_if_shared17h6cf91b2080959258E>
   1552c:	00198513          	addi	a0,s3,1
   15530:	04100613          	li	a2,65
   15534:	85ca                	mv	a1,s2
   15536:	00005097          	auipc	ra,0x5
   1553a:	5ce080e7          	jalr	1486(ra) # 1ab04 <memcpy>
   1553e:	4501                	li	a0,0
   15540:	b765                	j	154e8 <_ZN20complex_full_dynamic3app17hc572b7c13c1b9240E+0xa2>

00015542 <_ZN20complex_full_dynamic3app17hc73838e16579c3c5E>:
   15542:	7155                	addi	sp,sp,-208
   15544:	c786                	sw	ra,204(sp)
   15546:	c5a2                	sw	s0,200(sp)
   15548:	c3a6                	sw	s1,196(sp)
   1554a:	c1ca                	sw	s2,192(sp)
   1554c:	df4e                	sw	s3,188(sp)
   1554e:	89aa                	mv	s3,a0
   15550:	4409                	li	s0,2
   15552:	00810623          	sb	s0,12(sp)
   15556:	0804                	addi	s1,sp,16
   15558:	04600613          	li	a2,70
   1555c:	8526                	mv	a0,s1
   1555e:	00005097          	auipc	ra,0x5
   15562:	5a6080e7          	jalr	1446(ra) # 1ab04 <memcpy>
   15566:	06410913          	addi	s2,sp,100
   1556a:	05600613          	li	a2,86
   1556e:	854a                	mv	a0,s2
   15570:	4581                	li	a1,0
   15572:	00005097          	auipc	ra,0x5
   15576:	526080e7          	jalr	1318(ra) # 1aa98 <memset>
   1557a:	8626                	mv	a2,s1
   1557c:	06810023          	sb	s0,96(sp)
   15580:	6509                	lui	a0,0x2
   15582:	449d                	li	s1,7
   15584:	4811                	li	a6,4
   15586:	459d                	li	a1,7
   15588:	e5050793          	addi	a5,a0,-432 # 1e50 <.Lline_table_start1+0x1c25>
   1558c:	04600693          	li	a3,70
   15590:	4711                	li	a4,4
   15592:	853e                	mv	a0,a5
   15594:	00000073          	ecall
   15598:	04850263          	beq	a0,s0,155dc <_ZN20complex_full_dynamic3app17hc73838e16579c3c5E+0x9a>
   1559c:	853e                	mv	a0,a5
   1559e:	864a                	mv	a2,s2
   155a0:	c23e                	sw	a5,4(sp)
   155a2:	c426                	sw	s1,8(sp)
   155a4:	01010623          	sb	a6,12(sp)
   155a8:	448d                	li	s1,3
   155aa:	458d                	li	a1,3
   155ac:	05600693          	li	a3,86
   155b0:	470d                	li	a4,3
   155b2:	00000073          	ecall
   155b6:	02850363          	beq	a0,s0,155dc <_ZN20complex_full_dynamic3app17hc73838e16579c3c5E+0x9a>
   155ba:	ccbe                	sw	a5,88(sp)
   155bc:	cea6                	sw	s1,92(sp)
   155be:	06910023          	sb	s1,96(sp)
   155c2:	6509                	lui	a0,0x2
   155c4:	459d                	li	a1,7
   155c6:	460d                	li	a2,3
   155c8:	e5050513          	addi	a0,a0,-432 # 1e50 <.Lline_table_start1+0x1c25>
   155cc:	4709                	li	a4,2
   155ce:	07f00793          	li	a5,127
   155d2:	4681                	li	a3,0
   155d4:	00000073          	ecall
   155d8:	02a7e863          	bltu	a5,a0,15608 <_ZN20complex_full_dynamic3app17hc73838e16579c3c5E+0xc6>
   155dc:	00b9a223          	sw	a1,4(s3)
   155e0:	4505                	li	a0,1
   155e2:	00a98023          	sb	a0,0(s3)
   155e6:	08a8                	addi	a0,sp,88
   155e8:	00005097          	auipc	ra,0x5
   155ec:	492080e7          	jalr	1170(ra) # 1aa7a <_ZN9allow_pin12full_dynamic17unshare_if_shared17h6cf91b2080959258E>
   155f0:	0048                	addi	a0,sp,4
   155f2:	00005097          	auipc	ra,0x5
   155f6:	488080e7          	jalr	1160(ra) # 1aa7a <_ZN9allow_pin12full_dynamic17unshare_if_shared17h6cf91b2080959258E>
   155fa:	40be                	lw	ra,204(sp)
   155fc:	442e                	lw	s0,200(sp)
   155fe:	449e                	lw	s1,196(sp)
   15600:	490e                	lw	s2,192(sp)
   15602:	59fa                	lw	s3,188(sp)
   15604:	6169                	addi	sp,sp,208
   15606:	8082                	ret
   15608:	0048                	addi	a0,sp,4
   1560a:	00005097          	auipc	ra,0x5
   1560e:	470080e7          	jalr	1136(ra) # 1aa7a <_ZN9allow_pin12full_dynamic17unshare_if_shared17h6cf91b2080959258E>
   15612:	08a8                	addi	a0,sp,88
   15614:	00005097          	auipc	ra,0x5
   15618:	466080e7          	jalr	1126(ra) # 1aa7a <_ZN9allow_pin12full_dynamic17unshare_if_shared17h6cf91b2080959258E>
   1561c:	08a8                	addi	a0,sp,88
   1561e:	00005097          	auipc	ra,0x5
   15622:	45c080e7          	jalr	1116(ra) # 1aa7a <_ZN9allow_pin12full_dynamic17unshare_if_shared17h6cf91b2080959258E>
   15626:	00198513          	addi	a0,s3,1
   1562a:	05600613          	li	a2,86
   1562e:	85ca                	mv	a1,s2
   15630:	00005097          	auipc	ra,0x5
   15634:	4d4080e7          	jalr	1236(ra) # 1ab04 <memcpy>
   15638:	4501                	li	a0,0
   1563a:	b765                	j	155e2 <_ZN20complex_full_dynamic3app17hc73838e16579c3c5E+0xa0>

0001563c <_ZN20complex_full_dynamic3app17hc9ddce09b678ddc5E>:
   1563c:	7115                	addi	sp,sp,-224
   1563e:	cf86                	sw	ra,220(sp)
   15640:	cda2                	sw	s0,216(sp)
   15642:	cba6                	sw	s1,212(sp)
   15644:	c9ca                	sw	s2,208(sp)
   15646:	c7ce                	sw	s3,204(sp)
   15648:	89aa                	mv	s3,a0
   1564a:	4409                	li	s0,2
   1564c:	00810a23          	sb	s0,20(sp)
   15650:	0824                	addi	s1,sp,24
   15652:	05900613          	li	a2,89
   15656:	8526                	mv	a0,s1
   15658:	00005097          	auipc	ra,0x5
   1565c:	4ac080e7          	jalr	1196(ra) # 1ab04 <memcpy>
   15660:	08010913          	addi	s2,sp,128
   15664:	04a00613          	li	a2,74
   15668:	854a                	mv	a0,s2
   1566a:	4581                	li	a1,0
   1566c:	00005097          	auipc	ra,0x5
   15670:	42c080e7          	jalr	1068(ra) # 1aa98 <memset>
   15674:	4581                	li	a1,0
   15676:	8626                	mv	a2,s1
   15678:	06810e23          	sb	s0,124(sp)
   1567c:	6505                	lui	a0,0x1
   1567e:	4491                	li	s1,4
   15680:	48450793          	addi	a5,a0,1156 # 1484 <.Lline_table_start1+0x1259>
   15684:	05900693          	li	a3,89
   15688:	4711                	li	a4,4
   1568a:	853e                	mv	a0,a5
   1568c:	00000073          	ecall
   15690:	04850363          	beq	a0,s0,156d6 <_ZN20complex_full_dynamic3app17hc9ddce09b678ddc5E+0x9a>
   15694:	853e                	mv	a0,a5
   15696:	864a                	mv	a2,s2
   15698:	c63e                	sw	a5,12(sp)
   1569a:	c802                	sw	zero,16(sp)
   1569c:	00910a23          	sb	s1,20(sp)
   156a0:	448d                	li	s1,3
   156a2:	4591                	li	a1,4
   156a4:	04a00693          	li	a3,74
   156a8:	470d                	li	a4,3
   156aa:	00000073          	ecall
   156ae:	02850463          	beq	a0,s0,156d6 <_ZN20complex_full_dynamic3app17hc9ddce09b678ddc5E+0x9a>
   156b2:	4511                	li	a0,4
   156b4:	6585                	lui	a1,0x1
   156b6:	4611                	li	a2,4
   156b8:	dabe                	sw	a5,116(sp)
   156ba:	dcaa                	sw	a0,120(sp)
   156bc:	06910e23          	sb	s1,124(sp)
   156c0:	48458513          	addi	a0,a1,1156 # 1484 <.Lline_table_start1+0x1259>
   156c4:	4709                	li	a4,2
   156c6:	07f00793          	li	a5,127
   156ca:	4581                	li	a1,0
   156cc:	4681                	li	a3,0
   156ce:	00000073          	ecall
   156d2:	02a7e863          	bltu	a5,a0,15702 <_ZN20complex_full_dynamic3app17hc9ddce09b678ddc5E+0xc6>
   156d6:	00b9a223          	sw	a1,4(s3)
   156da:	4505                	li	a0,1
   156dc:	00a98023          	sb	a0,0(s3)
   156e0:	18c8                	addi	a0,sp,116
   156e2:	00005097          	auipc	ra,0x5
   156e6:	398080e7          	jalr	920(ra) # 1aa7a <_ZN9allow_pin12full_dynamic17unshare_if_shared17h6cf91b2080959258E>
   156ea:	0068                	addi	a0,sp,12
   156ec:	00005097          	auipc	ra,0x5
   156f0:	38e080e7          	jalr	910(ra) # 1aa7a <_ZN9allow_pin12full_dynamic17unshare_if_shared17h6cf91b2080959258E>
   156f4:	40fe                	lw	ra,220(sp)
   156f6:	446e                	lw	s0,216(sp)
   156f8:	44de                	lw	s1,212(sp)
   156fa:	494e                	lw	s2,208(sp)
   156fc:	49be                	lw	s3,204(sp)
   156fe:	612d                	addi	sp,sp,224
   15700:	8082                	ret
   15702:	0068                	addi	a0,sp,12
   15704:	00005097          	auipc	ra,0x5
   15708:	376080e7          	jalr	886(ra) # 1aa7a <_ZN9allow_pin12full_dynamic17unshare_if_shared17h6cf91b2080959258E>
   1570c:	18c8                	addi	a0,sp,116
   1570e:	00005097          	auipc	ra,0x5
   15712:	36c080e7          	jalr	876(ra) # 1aa7a <_ZN9allow_pin12full_dynamic17unshare_if_shared17h6cf91b2080959258E>
   15716:	18c8                	addi	a0,sp,116
   15718:	00005097          	auipc	ra,0x5
   1571c:	362080e7          	jalr	866(ra) # 1aa7a <_ZN9allow_pin12full_dynamic17unshare_if_shared17h6cf91b2080959258E>
   15720:	00198513          	addi	a0,s3,1
   15724:	04a00613          	li	a2,74
   15728:	85ca                	mv	a1,s2
   1572a:	00005097          	auipc	ra,0x5
   1572e:	3da080e7          	jalr	986(ra) # 1ab04 <memcpy>
   15732:	4501                	li	a0,0
   15734:	b765                	j	156dc <_ZN20complex_full_dynamic3app17hc9ddce09b678ddc5E+0xa0>

00015736 <_ZN20complex_full_dynamic3app17hcaa80b215555f12aE>:
   15736:	7175                	addi	sp,sp,-144
   15738:	c706                	sw	ra,140(sp)
   1573a:	c522                	sw	s0,136(sp)
   1573c:	c326                	sw	s1,132(sp)
   1573e:	c14a                	sw	s2,128(sp)
   15740:	dece                	sw	s3,124(sp)
   15742:	89aa                	mv	s3,a0
   15744:	4409                	li	s0,2
   15746:	00810423          	sb	s0,8(sp)
   1574a:	0064                	addi	s1,sp,12
   1574c:	4645                	li	a2,17
   1574e:	8526                	mv	a0,s1
   15750:	00005097          	auipc	ra,0x5
   15754:	3b4080e7          	jalr	948(ra) # 1ab04 <memcpy>
   15758:	02c10913          	addi	s2,sp,44
   1575c:	05000613          	li	a2,80
   15760:	854a                	mv	a0,s2
   15762:	4581                	li	a1,0
   15764:	00005097          	auipc	ra,0x5
   15768:	334080e7          	jalr	820(ra) # 1aa98 <memset>
   1576c:	8626                	mv	a2,s1
   1576e:	02810423          	sb	s0,40(sp)
   15772:	6509                	lui	a0,0x2
   15774:	4499                	li	s1,6
   15776:	4811                	li	a6,4
   15778:	4599                	li	a1,6
   1577a:	aa950793          	addi	a5,a0,-1367 # 1aa9 <.Lline_table_start1+0x187e>
   1577e:	46c5                	li	a3,17
   15780:	4711                	li	a4,4
   15782:	853e                	mv	a0,a5
   15784:	00000073          	ecall
   15788:	04850363          	beq	a0,s0,157ce <_ZN20complex_full_dynamic3app17hcaa80b215555f12aE+0x98>
   1578c:	853e                	mv	a0,a5
   1578e:	864a                	mv	a2,s2
   15790:	c03e                	sw	a5,0(sp)
   15792:	c226                	sw	s1,4(sp)
   15794:	01010423          	sb	a6,8(sp)
   15798:	4495                	li	s1,5
   1579a:	480d                	li	a6,3
   1579c:	4595                	li	a1,5
   1579e:	05000693          	li	a3,80
   157a2:	470d                	li	a4,3
   157a4:	00000073          	ecall
   157a8:	02850363          	beq	a0,s0,157ce <_ZN20complex_full_dynamic3app17hcaa80b215555f12aE+0x98>
   157ac:	d03e                	sw	a5,32(sp)
   157ae:	d226                	sw	s1,36(sp)
   157b0:	03010423          	sb	a6,40(sp)
   157b4:	6509                	lui	a0,0x2
   157b6:	4599                	li	a1,6
   157b8:	4615                	li	a2,5
   157ba:	aa950513          	addi	a0,a0,-1367 # 1aa9 <.Lline_table_start1+0x187e>
   157be:	4709                	li	a4,2
   157c0:	07f00793          	li	a5,127
   157c4:	4681                	li	a3,0
   157c6:	00000073          	ecall
   157ca:	02a7e863          	bltu	a5,a0,157fa <_ZN20complex_full_dynamic3app17hcaa80b215555f12aE+0xc4>
   157ce:	00b9a223          	sw	a1,4(s3)
   157d2:	4505                	li	a0,1
   157d4:	00a98023          	sb	a0,0(s3)
   157d8:	1008                	addi	a0,sp,32
   157da:	00005097          	auipc	ra,0x5
   157de:	2a0080e7          	jalr	672(ra) # 1aa7a <_ZN9allow_pin12full_dynamic17unshare_if_shared17h6cf91b2080959258E>
   157e2:	850a                	mv	a0,sp
   157e4:	00005097          	auipc	ra,0x5
   157e8:	296080e7          	jalr	662(ra) # 1aa7a <_ZN9allow_pin12full_dynamic17unshare_if_shared17h6cf91b2080959258E>
   157ec:	40ba                	lw	ra,140(sp)
   157ee:	442a                	lw	s0,136(sp)
   157f0:	449a                	lw	s1,132(sp)
   157f2:	490a                	lw	s2,128(sp)
   157f4:	59f6                	lw	s3,124(sp)
   157f6:	6149                	addi	sp,sp,144
   157f8:	8082                	ret
   157fa:	850a                	mv	a0,sp
   157fc:	00005097          	auipc	ra,0x5
   15800:	27e080e7          	jalr	638(ra) # 1aa7a <_ZN9allow_pin12full_dynamic17unshare_if_shared17h6cf91b2080959258E>
   15804:	1008                	addi	a0,sp,32
   15806:	00005097          	auipc	ra,0x5
   1580a:	274080e7          	jalr	628(ra) # 1aa7a <_ZN9allow_pin12full_dynamic17unshare_if_shared17h6cf91b2080959258E>
   1580e:	1008                	addi	a0,sp,32
   15810:	00005097          	auipc	ra,0x5
   15814:	26a080e7          	jalr	618(ra) # 1aa7a <_ZN9allow_pin12full_dynamic17unshare_if_shared17h6cf91b2080959258E>
   15818:	00198513          	addi	a0,s3,1
   1581c:	05000613          	li	a2,80
   15820:	85ca                	mv	a1,s2
   15822:	00005097          	auipc	ra,0x5
   15826:	2e2080e7          	jalr	738(ra) # 1ab04 <memcpy>
   1582a:	4501                	li	a0,0
   1582c:	b765                	j	157d4 <_ZN20complex_full_dynamic3app17hcaa80b215555f12aE+0x9e>

0001582e <_ZN20complex_full_dynamic3app17hce776d72f7213e63E>:
   1582e:	7135                	addi	sp,sp,-160
   15830:	cf06                	sw	ra,156(sp)
   15832:	cd22                	sw	s0,152(sp)
   15834:	cb26                	sw	s1,148(sp)
   15836:	c94a                	sw	s2,144(sp)
   15838:	c74e                	sw	s3,140(sp)
   1583a:	89aa                	mv	s3,a0
   1583c:	4409                	li	s0,2
   1583e:	00810a23          	sb	s0,20(sp)
   15842:	0824                	addi	s1,sp,24
   15844:	02e00613          	li	a2,46
   15848:	8526                	mv	a0,s1
   1584a:	00005097          	auipc	ra,0x5
   1584e:	2ba080e7          	jalr	698(ra) # 1ab04 <memcpy>
   15852:	05410913          	addi	s2,sp,84
   15856:	03800613          	li	a2,56
   1585a:	854a                	mv	a0,s2
   1585c:	4581                	li	a1,0
   1585e:	00005097          	auipc	ra,0x5
   15862:	23a080e7          	jalr	570(ra) # 1aa98 <memset>
   15866:	8626                	mv	a2,s1
   15868:	04810823          	sb	s0,80(sp)
   1586c:	6505                	lui	a0,0x1
   1586e:	44a5                	li	s1,9
   15870:	4811                	li	a6,4
   15872:	45a5                	li	a1,9
   15874:	a9d50793          	addi	a5,a0,-1379 # a9d <.Lline_table_start1+0x872>
   15878:	02e00693          	li	a3,46
   1587c:	4711                	li	a4,4
   1587e:	853e                	mv	a0,a5
   15880:	00000073          	ecall
   15884:	04850363          	beq	a0,s0,158ca <_ZN20complex_full_dynamic3app17hce776d72f7213e63E+0x9c>
   15888:	853e                	mv	a0,a5
   1588a:	864a                	mv	a2,s2
   1588c:	c63e                	sw	a5,12(sp)
   1588e:	c826                	sw	s1,16(sp)
   15890:	01010a23          	sb	a6,20(sp)
   15894:	448d                	li	s1,3
   15896:	45a5                	li	a1,9
   15898:	03800693          	li	a3,56
   1589c:	470d                	li	a4,3
   1589e:	00000073          	ecall
   158a2:	02850463          	beq	a0,s0,158ca <_ZN20complex_full_dynamic3app17hce776d72f7213e63E+0x9c>
   158a6:	4525                	li	a0,9
   158a8:	6685                	lui	a3,0x1
   158aa:	45a5                	li	a1,9
   158ac:	4625                	li	a2,9
   158ae:	c4be                	sw	a5,72(sp)
   158b0:	c6aa                	sw	a0,76(sp)
   158b2:	04910823          	sb	s1,80(sp)
   158b6:	a9d68513          	addi	a0,a3,-1379 # a9d <.Lline_table_start1+0x872>
   158ba:	4709                	li	a4,2
   158bc:	07f00793          	li	a5,127
   158c0:	4681                	li	a3,0
   158c2:	00000073          	ecall
   158c6:	02a7e863          	bltu	a5,a0,158f6 <_ZN20complex_full_dynamic3app17hce776d72f7213e63E+0xc8>
   158ca:	00b9a223          	sw	a1,4(s3)
   158ce:	4505                	li	a0,1
   158d0:	00a98023          	sb	a0,0(s3)
   158d4:	00a8                	addi	a0,sp,72
   158d6:	00005097          	auipc	ra,0x5
   158da:	1a4080e7          	jalr	420(ra) # 1aa7a <_ZN9allow_pin12full_dynamic17unshare_if_shared17h6cf91b2080959258E>
   158de:	0068                	addi	a0,sp,12
   158e0:	00005097          	auipc	ra,0x5
   158e4:	19a080e7          	jalr	410(ra) # 1aa7a <_ZN9allow_pin12full_dynamic17unshare_if_shared17h6cf91b2080959258E>
   158e8:	40fa                	lw	ra,156(sp)
   158ea:	446a                	lw	s0,152(sp)
   158ec:	44da                	lw	s1,148(sp)
   158ee:	494a                	lw	s2,144(sp)
   158f0:	49ba                	lw	s3,140(sp)
   158f2:	610d                	addi	sp,sp,160
   158f4:	8082                	ret
   158f6:	0068                	addi	a0,sp,12
   158f8:	00005097          	auipc	ra,0x5
   158fc:	182080e7          	jalr	386(ra) # 1aa7a <_ZN9allow_pin12full_dynamic17unshare_if_shared17h6cf91b2080959258E>
   15900:	00a8                	addi	a0,sp,72
   15902:	00005097          	auipc	ra,0x5
   15906:	178080e7          	jalr	376(ra) # 1aa7a <_ZN9allow_pin12full_dynamic17unshare_if_shared17h6cf91b2080959258E>
   1590a:	00a8                	addi	a0,sp,72
   1590c:	00005097          	auipc	ra,0x5
   15910:	16e080e7          	jalr	366(ra) # 1aa7a <_ZN9allow_pin12full_dynamic17unshare_if_shared17h6cf91b2080959258E>
   15914:	00198513          	addi	a0,s3,1
   15918:	03800613          	li	a2,56
   1591c:	85ca                	mv	a1,s2
   1591e:	00005097          	auipc	ra,0x5
   15922:	1e6080e7          	jalr	486(ra) # 1ab04 <memcpy>
   15926:	4501                	li	a0,0
   15928:	b765                	j	158d0 <_ZN20complex_full_dynamic3app17hce776d72f7213e63E+0xa2>

0001592a <_ZN20complex_full_dynamic3app17hce8805748272737eE>:
   1592a:	7119                	addi	sp,sp,-128
   1592c:	de86                	sw	ra,124(sp)
   1592e:	dca2                	sw	s0,120(sp)
   15930:	daa6                	sw	s1,116(sp)
   15932:	d8ca                	sw	s2,112(sp)
   15934:	d6ce                	sw	s3,108(sp)
   15936:	89aa                	mv	s3,a0
   15938:	4409                	li	s0,2
   1593a:	00810423          	sb	s0,8(sp)
   1593e:	0064                	addi	s1,sp,12
   15940:	02c00613          	li	a2,44
   15944:	8526                	mv	a0,s1
   15946:	00005097          	auipc	ra,0x5
   1594a:	1be080e7          	jalr	446(ra) # 1ab04 <memcpy>
   1594e:	04410913          	addi	s2,sp,68
   15952:	02700613          	li	a2,39
   15956:	854a                	mv	a0,s2
   15958:	4581                	li	a1,0
   1595a:	00005097          	auipc	ra,0x5
   1595e:	13e080e7          	jalr	318(ra) # 1aa98 <memset>
   15962:	8626                	mv	a2,s1
   15964:	04810023          	sb	s0,64(sp)
   15968:	6505                	lui	a0,0x1
   1596a:	4491                	li	s1,4
   1596c:	4591                	li	a1,4
   1596e:	1b550793          	addi	a5,a0,437 # 11b5 <.Lline_table_start1+0xf8a>
   15972:	02c00693          	li	a3,44
   15976:	4711                	li	a4,4
   15978:	853e                	mv	a0,a5
   1597a:	00000073          	ecall
   1597e:	04850263          	beq	a0,s0,159c2 <_ZN20complex_full_dynamic3app17hce8805748272737eE+0x98>
   15982:	853e                	mv	a0,a5
   15984:	864a                	mv	a2,s2
   15986:	c03e                	sw	a5,0(sp)
   15988:	c226                	sw	s1,4(sp)
   1598a:	00910423          	sb	s1,8(sp)
   1598e:	448d                	li	s1,3
   15990:	458d                	li	a1,3
   15992:	02700693          	li	a3,39
   15996:	470d                	li	a4,3
   15998:	00000073          	ecall
   1599c:	02850363          	beq	a0,s0,159c2 <_ZN20complex_full_dynamic3app17hce8805748272737eE+0x98>
   159a0:	dc3e                	sw	a5,56(sp)
   159a2:	de26                	sw	s1,60(sp)
   159a4:	04910023          	sb	s1,64(sp)
   159a8:	6505                	lui	a0,0x1
   159aa:	4591                	li	a1,4
   159ac:	460d                	li	a2,3
   159ae:	1b550513          	addi	a0,a0,437 # 11b5 <.Lline_table_start1+0xf8a>
   159b2:	4709                	li	a4,2
   159b4:	07f00793          	li	a5,127
   159b8:	4681                	li	a3,0
   159ba:	00000073          	ecall
   159be:	02a7e863          	bltu	a5,a0,159ee <_ZN20complex_full_dynamic3app17hce8805748272737eE+0xc4>
   159c2:	00b9a223          	sw	a1,4(s3)
   159c6:	4505                	li	a0,1
   159c8:	00a98023          	sb	a0,0(s3)
   159cc:	1828                	addi	a0,sp,56
   159ce:	00005097          	auipc	ra,0x5
   159d2:	0ac080e7          	jalr	172(ra) # 1aa7a <_ZN9allow_pin12full_dynamic17unshare_if_shared17h6cf91b2080959258E>
   159d6:	850a                	mv	a0,sp
   159d8:	00005097          	auipc	ra,0x5
   159dc:	0a2080e7          	jalr	162(ra) # 1aa7a <_ZN9allow_pin12full_dynamic17unshare_if_shared17h6cf91b2080959258E>
   159e0:	50f6                	lw	ra,124(sp)
   159e2:	5466                	lw	s0,120(sp)
   159e4:	54d6                	lw	s1,116(sp)
   159e6:	5946                	lw	s2,112(sp)
   159e8:	59b6                	lw	s3,108(sp)
   159ea:	6109                	addi	sp,sp,128
   159ec:	8082                	ret
   159ee:	850a                	mv	a0,sp
   159f0:	00005097          	auipc	ra,0x5
   159f4:	08a080e7          	jalr	138(ra) # 1aa7a <_ZN9allow_pin12full_dynamic17unshare_if_shared17h6cf91b2080959258E>
   159f8:	1828                	addi	a0,sp,56
   159fa:	00005097          	auipc	ra,0x5
   159fe:	080080e7          	jalr	128(ra) # 1aa7a <_ZN9allow_pin12full_dynamic17unshare_if_shared17h6cf91b2080959258E>
   15a02:	1828                	addi	a0,sp,56
   15a04:	00005097          	auipc	ra,0x5
   15a08:	076080e7          	jalr	118(ra) # 1aa7a <_ZN9allow_pin12full_dynamic17unshare_if_shared17h6cf91b2080959258E>
   15a0c:	00198513          	addi	a0,s3,1
   15a10:	02700613          	li	a2,39
   15a14:	85ca                	mv	a1,s2
   15a16:	00005097          	auipc	ra,0x5
   15a1a:	0ee080e7          	jalr	238(ra) # 1ab04 <memcpy>
   15a1e:	4501                	li	a0,0
   15a20:	b765                	j	159c8 <_ZN20complex_full_dynamic3app17hce8805748272737eE+0x9e>

00015a22 <_ZN20complex_full_dynamic3app17hd353fefa5ab011c5E>:
   15a22:	7159                	addi	sp,sp,-112
   15a24:	d686                	sw	ra,108(sp)
   15a26:	d4a2                	sw	s0,104(sp)
   15a28:	d2a6                	sw	s1,100(sp)
   15a2a:	d0ca                	sw	s2,96(sp)
   15a2c:	cece                	sw	s3,92(sp)
   15a2e:	892a                	mv	s2,a0
   15a30:	4409                	li	s0,2
   15a32:	00810423          	sb	s0,8(sp)
   15a36:	0064                	addi	s1,sp,12
   15a38:	03200613          	li	a2,50
   15a3c:	8526                	mv	a0,s1
   15a3e:	00005097          	auipc	ra,0x5
   15a42:	0c6080e7          	jalr	198(ra) # 1ab04 <memcpy>
   15a46:	8626                	mv	a2,s1
   15a48:	cc82                	sw	zero,88(sp)
   15a4a:	04810423          	sb	s0,72(sp)
   15a4e:	c682                	sw	zero,76(sp)
   15a50:	c882                	sw	zero,80(sp)
   15a52:	ca82                	sw	zero,84(sp)
   15a54:	6509                	lui	a0,0x2
   15a56:	4491                	li	s1,4
   15a58:	4591                	li	a1,4
   15a5a:	9d650793          	addi	a5,a0,-1578 # 19d6 <.Lline_table_start1+0x17ab>
   15a5e:	03200693          	li	a3,50
   15a62:	4711                	li	a4,4
   15a64:	853e                	mv	a0,a5
   15a66:	00000073          	ecall
   15a6a:	04850463          	beq	a0,s0,15ab2 <_ZN20complex_full_dynamic3app17hd353fefa5ab011c5E+0x90>
   15a6e:	853e                	mv	a0,a5
   15a70:	04c10993          	addi	s3,sp,76
   15a74:	c03e                	sw	a5,0(sp)
   15a76:	c226                	sw	s1,4(sp)
   15a78:	00910423          	sb	s1,8(sp)
   15a7c:	44a5                	li	s1,9
   15a7e:	480d                	li	a6,3
   15a80:	45a5                	li	a1,9
   15a82:	46c1                	li	a3,16
   15a84:	470d                	li	a4,3
   15a86:	864e                	mv	a2,s3
   15a88:	00000073          	ecall
   15a8c:	02850363          	beq	a0,s0,15ab2 <_ZN20complex_full_dynamic3app17hd353fefa5ab011c5E+0x90>
   15a90:	c0be                	sw	a5,64(sp)
   15a92:	c2a6                	sw	s1,68(sp)
   15a94:	05010423          	sb	a6,72(sp)
   15a98:	6509                	lui	a0,0x2
   15a9a:	4591                	li	a1,4
   15a9c:	4625                	li	a2,9
   15a9e:	9d650513          	addi	a0,a0,-1578 # 19d6 <.Lline_table_start1+0x17ab>
   15aa2:	4709                	li	a4,2
   15aa4:	07f00793          	li	a5,127
   15aa8:	4681                	li	a3,0
   15aaa:	00000073          	ecall
   15aae:	02a7e863          	bltu	a5,a0,15ade <_ZN20complex_full_dynamic3app17hd353fefa5ab011c5E+0xbc>
   15ab2:	00b92223          	sw	a1,4(s2)
   15ab6:	4505                	li	a0,1
   15ab8:	00a90023          	sb	a0,0(s2)
   15abc:	0088                	addi	a0,sp,64
   15abe:	00005097          	auipc	ra,0x5
   15ac2:	fbc080e7          	jalr	-68(ra) # 1aa7a <_ZN9allow_pin12full_dynamic17unshare_if_shared17h6cf91b2080959258E>
   15ac6:	850a                	mv	a0,sp
   15ac8:	00005097          	auipc	ra,0x5
   15acc:	fb2080e7          	jalr	-78(ra) # 1aa7a <_ZN9allow_pin12full_dynamic17unshare_if_shared17h6cf91b2080959258E>
   15ad0:	50b6                	lw	ra,108(sp)
   15ad2:	5426                	lw	s0,104(sp)
   15ad4:	5496                	lw	s1,100(sp)
   15ad6:	5906                	lw	s2,96(sp)
   15ad8:	49f6                	lw	s3,92(sp)
   15ada:	6165                	addi	sp,sp,112
   15adc:	8082                	ret
   15ade:	850a                	mv	a0,sp
   15ae0:	00005097          	auipc	ra,0x5
   15ae4:	f9a080e7          	jalr	-102(ra) # 1aa7a <_ZN9allow_pin12full_dynamic17unshare_if_shared17h6cf91b2080959258E>
   15ae8:	0088                	addi	a0,sp,64
   15aea:	00005097          	auipc	ra,0x5
   15aee:	f90080e7          	jalr	-112(ra) # 1aa7a <_ZN9allow_pin12full_dynamic17unshare_if_shared17h6cf91b2080959258E>
   15af2:	0088                	addi	a0,sp,64
   15af4:	00005097          	auipc	ra,0x5
   15af8:	f86080e7          	jalr	-122(ra) # 1aa7a <_ZN9allow_pin12full_dynamic17unshare_if_shared17h6cf91b2080959258E>
   15afc:	00190513          	addi	a0,s2,1
   15b00:	4641                	li	a2,16
   15b02:	85ce                	mv	a1,s3
   15b04:	00005097          	auipc	ra,0x5
   15b08:	000080e7          	jalr	ra # 1ab04 <memcpy>
   15b0c:	4501                	li	a0,0
   15b0e:	b76d                	j	15ab8 <_ZN20complex_full_dynamic3app17hd353fefa5ab011c5E+0x96>

00015b10 <_ZN20complex_full_dynamic3app17hd5b000dfd39d89edE>:
   15b10:	7135                	addi	sp,sp,-160
   15b12:	cf06                	sw	ra,156(sp)
   15b14:	cd22                	sw	s0,152(sp)
   15b16:	cb26                	sw	s1,148(sp)
   15b18:	c94a                	sw	s2,144(sp)
   15b1a:	c74e                	sw	s3,140(sp)
   15b1c:	89aa                	mv	s3,a0
   15b1e:	4409                	li	s0,2
   15b20:	00810a23          	sb	s0,20(sp)
   15b24:	0824                	addi	s1,sp,24
   15b26:	04100613          	li	a2,65
   15b2a:	8526                	mv	a0,s1
   15b2c:	00005097          	auipc	ra,0x5
   15b30:	fd8080e7          	jalr	-40(ra) # 1ab04 <memcpy>
   15b34:	06810913          	addi	s2,sp,104
   15b38:	02200613          	li	a2,34
   15b3c:	854a                	mv	a0,s2
   15b3e:	4581                	li	a1,0
   15b40:	00005097          	auipc	ra,0x5
   15b44:	f58080e7          	jalr	-168(ra) # 1aa98 <memset>
   15b48:	8626                	mv	a2,s1
   15b4a:	06810223          	sb	s0,100(sp)
   15b4e:	6509                	lui	a0,0x2
   15b50:	4485                	li	s1,1
   15b52:	4811                	li	a6,4
   15b54:	4585                	li	a1,1
   15b56:	47c50793          	addi	a5,a0,1148 # 247c <.Lline_table_start1+0x2251>
   15b5a:	04100693          	li	a3,65
   15b5e:	4711                	li	a4,4
   15b60:	853e                	mv	a0,a5
   15b62:	00000073          	ecall
   15b66:	04850263          	beq	a0,s0,15baa <_ZN20complex_full_dynamic3app17hd5b000dfd39d89edE+0x9a>
   15b6a:	853e                	mv	a0,a5
   15b6c:	4581                	li	a1,0
   15b6e:	864a                	mv	a2,s2
   15b70:	c63e                	sw	a5,12(sp)
   15b72:	c826                	sw	s1,16(sp)
   15b74:	01010a23          	sb	a6,20(sp)
   15b78:	448d                	li	s1,3
   15b7a:	02200693          	li	a3,34
   15b7e:	470d                	li	a4,3
   15b80:	00000073          	ecall
   15b84:	02850363          	beq	a0,s0,15baa <_ZN20complex_full_dynamic3app17hd5b000dfd39d89edE+0x9a>
   15b88:	cebe                	sw	a5,92(sp)
   15b8a:	d082                	sw	zero,96(sp)
   15b8c:	06910223          	sb	s1,100(sp)
   15b90:	6509                	lui	a0,0x2
   15b92:	4585                	li	a1,1
   15b94:	47c50513          	addi	a0,a0,1148 # 247c <.Lline_table_start1+0x2251>
   15b98:	4709                	li	a4,2
   15b9a:	07f00793          	li	a5,127
   15b9e:	4601                	li	a2,0
   15ba0:	4681                	li	a3,0
   15ba2:	00000073          	ecall
   15ba6:	02a7e863          	bltu	a5,a0,15bd6 <_ZN20complex_full_dynamic3app17hd5b000dfd39d89edE+0xc6>
   15baa:	00b9a223          	sw	a1,4(s3)
   15bae:	4505                	li	a0,1
   15bb0:	00a98023          	sb	a0,0(s3)
   15bb4:	08e8                	addi	a0,sp,92
   15bb6:	00005097          	auipc	ra,0x5
   15bba:	ec4080e7          	jalr	-316(ra) # 1aa7a <_ZN9allow_pin12full_dynamic17unshare_if_shared17h6cf91b2080959258E>
   15bbe:	0068                	addi	a0,sp,12
   15bc0:	00005097          	auipc	ra,0x5
   15bc4:	eba080e7          	jalr	-326(ra) # 1aa7a <_ZN9allow_pin12full_dynamic17unshare_if_shared17h6cf91b2080959258E>
   15bc8:	40fa                	lw	ra,156(sp)
   15bca:	446a                	lw	s0,152(sp)
   15bcc:	44da                	lw	s1,148(sp)
   15bce:	494a                	lw	s2,144(sp)
   15bd0:	49ba                	lw	s3,140(sp)
   15bd2:	610d                	addi	sp,sp,160
   15bd4:	8082                	ret
   15bd6:	0068                	addi	a0,sp,12
   15bd8:	00005097          	auipc	ra,0x5
   15bdc:	ea2080e7          	jalr	-350(ra) # 1aa7a <_ZN9allow_pin12full_dynamic17unshare_if_shared17h6cf91b2080959258E>
   15be0:	08e8                	addi	a0,sp,92
   15be2:	00005097          	auipc	ra,0x5
   15be6:	e98080e7          	jalr	-360(ra) # 1aa7a <_ZN9allow_pin12full_dynamic17unshare_if_shared17h6cf91b2080959258E>
   15bea:	08e8                	addi	a0,sp,92
   15bec:	00005097          	auipc	ra,0x5
   15bf0:	e8e080e7          	jalr	-370(ra) # 1aa7a <_ZN9allow_pin12full_dynamic17unshare_if_shared17h6cf91b2080959258E>
   15bf4:	00198513          	addi	a0,s3,1
   15bf8:	02200613          	li	a2,34
   15bfc:	85ca                	mv	a1,s2
   15bfe:	00005097          	auipc	ra,0x5
   15c02:	f06080e7          	jalr	-250(ra) # 1ab04 <memcpy>
   15c06:	4501                	li	a0,0
   15c08:	b765                	j	15bb0 <_ZN20complex_full_dynamic3app17hd5b000dfd39d89edE+0xa0>

00015c0a <_ZN20complex_full_dynamic3app17hd60ec33789164415E>:
   15c0a:	7159                	addi	sp,sp,-112
   15c0c:	d686                	sw	ra,108(sp)
   15c0e:	d4a2                	sw	s0,104(sp)
   15c10:	d2a6                	sw	s1,100(sp)
   15c12:	d0ca                	sw	s2,96(sp)
   15c14:	cece                	sw	s3,92(sp)
   15c16:	892a                	mv	s2,a0
   15c18:	4409                	li	s0,2
   15c1a:	00810823          	sb	s0,16(sp)
   15c1e:	0844                	addi	s1,sp,20
   15c20:	02b00613          	li	a2,43
   15c24:	8526                	mv	a0,s1
   15c26:	00005097          	auipc	ra,0x5
   15c2a:	ede080e7          	jalr	-290(ra) # 1ab04 <memcpy>
   15c2e:	8626                	mv	a2,s1
   15c30:	04010c23          	sb	zero,88(sp)
   15c34:	04810423          	sb	s0,72(sp)
   15c38:	c682                	sw	zero,76(sp)
   15c3a:	c882                	sw	zero,80(sp)
   15c3c:	ca82                	sw	zero,84(sp)
   15c3e:	6505                	lui	a0,0x1
   15c40:	4499                	li	s1,6
   15c42:	4811                	li	a6,4
   15c44:	4599                	li	a1,6
   15c46:	46550793          	addi	a5,a0,1125 # 1465 <.Lline_table_start1+0x123a>
   15c4a:	02b00693          	li	a3,43
   15c4e:	4711                	li	a4,4
   15c50:	853e                	mv	a0,a5
   15c52:	00000073          	ecall
   15c56:	04850363          	beq	a0,s0,15c9c <_ZN20complex_full_dynamic3app17hd60ec33789164415E+0x92>
   15c5a:	853e                	mv	a0,a5
   15c5c:	4581                	li	a1,0
   15c5e:	04c10993          	addi	s3,sp,76
   15c62:	c43e                	sw	a5,8(sp)
   15c64:	c626                	sw	s1,12(sp)
   15c66:	01010823          	sb	a6,16(sp)
   15c6a:	448d                	li	s1,3
   15c6c:	46b5                	li	a3,13
   15c6e:	470d                	li	a4,3
   15c70:	864e                	mv	a2,s3
   15c72:	00000073          	ecall
   15c76:	02850363          	beq	a0,s0,15c9c <_ZN20complex_full_dynamic3app17hd60ec33789164415E+0x92>
   15c7a:	c0be                	sw	a5,64(sp)
   15c7c:	c282                	sw	zero,68(sp)
   15c7e:	04910423          	sb	s1,72(sp)
   15c82:	6505                	lui	a0,0x1
   15c84:	4599                	li	a1,6
   15c86:	46550513          	addi	a0,a0,1125 # 1465 <.Lline_table_start1+0x123a>
   15c8a:	4709                	li	a4,2
   15c8c:	07f00793          	li	a5,127
   15c90:	4601                	li	a2,0
   15c92:	4681                	li	a3,0
   15c94:	00000073          	ecall
   15c98:	02a7e863          	bltu	a5,a0,15cc8 <_ZN20complex_full_dynamic3app17hd60ec33789164415E+0xbe>
   15c9c:	00b92223          	sw	a1,4(s2)
   15ca0:	4505                	li	a0,1
   15ca2:	00a90023          	sb	a0,0(s2)
   15ca6:	0088                	addi	a0,sp,64
   15ca8:	00005097          	auipc	ra,0x5
   15cac:	dd2080e7          	jalr	-558(ra) # 1aa7a <_ZN9allow_pin12full_dynamic17unshare_if_shared17h6cf91b2080959258E>
   15cb0:	0028                	addi	a0,sp,8
   15cb2:	00005097          	auipc	ra,0x5
   15cb6:	dc8080e7          	jalr	-568(ra) # 1aa7a <_ZN9allow_pin12full_dynamic17unshare_if_shared17h6cf91b2080959258E>
   15cba:	50b6                	lw	ra,108(sp)
   15cbc:	5426                	lw	s0,104(sp)
   15cbe:	5496                	lw	s1,100(sp)
   15cc0:	5906                	lw	s2,96(sp)
   15cc2:	49f6                	lw	s3,92(sp)
   15cc4:	6165                	addi	sp,sp,112
   15cc6:	8082                	ret
   15cc8:	0028                	addi	a0,sp,8
   15cca:	00005097          	auipc	ra,0x5
   15cce:	db0080e7          	jalr	-592(ra) # 1aa7a <_ZN9allow_pin12full_dynamic17unshare_if_shared17h6cf91b2080959258E>
   15cd2:	0088                	addi	a0,sp,64
   15cd4:	00005097          	auipc	ra,0x5
   15cd8:	da6080e7          	jalr	-602(ra) # 1aa7a <_ZN9allow_pin12full_dynamic17unshare_if_shared17h6cf91b2080959258E>
   15cdc:	0088                	addi	a0,sp,64
   15cde:	00005097          	auipc	ra,0x5
   15ce2:	d9c080e7          	jalr	-612(ra) # 1aa7a <_ZN9allow_pin12full_dynamic17unshare_if_shared17h6cf91b2080959258E>
   15ce6:	00190513          	addi	a0,s2,1
   15cea:	4635                	li	a2,13
   15cec:	85ce                	mv	a1,s3
   15cee:	00005097          	auipc	ra,0x5
   15cf2:	e16080e7          	jalr	-490(ra) # 1ab04 <memcpy>
   15cf6:	4501                	li	a0,0
   15cf8:	b76d                	j	15ca2 <_ZN20complex_full_dynamic3app17hd60ec33789164415E+0x98>

00015cfa <_ZN20complex_full_dynamic3app17hd865df8641120723E>:
   15cfa:	7119                	addi	sp,sp,-128
   15cfc:	de86                	sw	ra,124(sp)
   15cfe:	dca2                	sw	s0,120(sp)
   15d00:	daa6                	sw	s1,116(sp)
   15d02:	d8ca                	sw	s2,112(sp)
   15d04:	d6ce                	sw	s3,108(sp)
   15d06:	89aa                	mv	s3,a0
   15d08:	4409                	li	s0,2
   15d0a:	00810423          	sb	s0,8(sp)
   15d0e:	0064                	addi	s1,sp,12
   15d10:	02c00613          	li	a2,44
   15d14:	8526                	mv	a0,s1
   15d16:	00005097          	auipc	ra,0x5
   15d1a:	dee080e7          	jalr	-530(ra) # 1ab04 <memcpy>
   15d1e:	04410913          	addi	s2,sp,68
   15d22:	02500613          	li	a2,37
   15d26:	854a                	mv	a0,s2
   15d28:	4581                	li	a1,0
   15d2a:	00005097          	auipc	ra,0x5
   15d2e:	d6e080e7          	jalr	-658(ra) # 1aa98 <memset>
   15d32:	8626                	mv	a2,s1
   15d34:	04810023          	sb	s0,64(sp)
   15d38:	77f00793          	li	a5,1919
   15d3c:	448d                	li	s1,3
   15d3e:	4811                	li	a6,4
   15d40:	77f00513          	li	a0,1919
   15d44:	458d                	li	a1,3
   15d46:	02c00693          	li	a3,44
   15d4a:	4711                	li	a4,4
   15d4c:	00000073          	ecall
   15d50:	04850463          	beq	a0,s0,15d98 <_ZN20complex_full_dynamic3app17hd865df8641120723E+0x9e>
   15d54:	c03e                	sw	a5,0(sp)
   15d56:	c226                	sw	s1,4(sp)
   15d58:	01010423          	sb	a6,8(sp)
   15d5c:	77f00513          	li	a0,1919
   15d60:	02500693          	li	a3,37
   15d64:	470d                	li	a4,3
   15d66:	4581                	li	a1,0
   15d68:	864a                	mv	a2,s2
   15d6a:	00000073          	ecall
   15d6e:	02850563          	beq	a0,s0,15d98 <_ZN20complex_full_dynamic3app17hd865df8641120723E+0x9e>
   15d72:	77f00613          	li	a2,1919
   15d76:	468d                	li	a3,3
   15d78:	77f00513          	li	a0,1919
   15d7c:	458d                	li	a1,3
   15d7e:	4709                	li	a4,2
   15d80:	07f00793          	li	a5,127
   15d84:	dc32                	sw	a2,56(sp)
   15d86:	de02                	sw	zero,60(sp)
   15d88:	04d10023          	sb	a3,64(sp)
   15d8c:	4601                	li	a2,0
   15d8e:	4681                	li	a3,0
   15d90:	00000073          	ecall
   15d94:	02a7e863          	bltu	a5,a0,15dc4 <_ZN20complex_full_dynamic3app17hd865df8641120723E+0xca>
   15d98:	00b9a223          	sw	a1,4(s3)
   15d9c:	4505                	li	a0,1
   15d9e:	00a98023          	sb	a0,0(s3)
   15da2:	1828                	addi	a0,sp,56
   15da4:	00005097          	auipc	ra,0x5
   15da8:	cd6080e7          	jalr	-810(ra) # 1aa7a <_ZN9allow_pin12full_dynamic17unshare_if_shared17h6cf91b2080959258E>
   15dac:	850a                	mv	a0,sp
   15dae:	00005097          	auipc	ra,0x5
   15db2:	ccc080e7          	jalr	-820(ra) # 1aa7a <_ZN9allow_pin12full_dynamic17unshare_if_shared17h6cf91b2080959258E>
   15db6:	50f6                	lw	ra,124(sp)
   15db8:	5466                	lw	s0,120(sp)
   15dba:	54d6                	lw	s1,116(sp)
   15dbc:	5946                	lw	s2,112(sp)
   15dbe:	59b6                	lw	s3,108(sp)
   15dc0:	6109                	addi	sp,sp,128
   15dc2:	8082                	ret
   15dc4:	850a                	mv	a0,sp
   15dc6:	00005097          	auipc	ra,0x5
   15dca:	cb4080e7          	jalr	-844(ra) # 1aa7a <_ZN9allow_pin12full_dynamic17unshare_if_shared17h6cf91b2080959258E>
   15dce:	1828                	addi	a0,sp,56
   15dd0:	00005097          	auipc	ra,0x5
   15dd4:	caa080e7          	jalr	-854(ra) # 1aa7a <_ZN9allow_pin12full_dynamic17unshare_if_shared17h6cf91b2080959258E>
   15dd8:	1828                	addi	a0,sp,56
   15dda:	00005097          	auipc	ra,0x5
   15dde:	ca0080e7          	jalr	-864(ra) # 1aa7a <_ZN9allow_pin12full_dynamic17unshare_if_shared17h6cf91b2080959258E>
   15de2:	00198513          	addi	a0,s3,1
   15de6:	02500613          	li	a2,37
   15dea:	85ca                	mv	a1,s2
   15dec:	00005097          	auipc	ra,0x5
   15df0:	d18080e7          	jalr	-744(ra) # 1ab04 <memcpy>
   15df4:	4501                	li	a0,0
   15df6:	b765                	j	15d9e <_ZN20complex_full_dynamic3app17hd865df8641120723E+0xa4>

00015df8 <_ZN20complex_full_dynamic3app17hda54bb0ec3b85d71E>:
   15df8:	7175                	addi	sp,sp,-144
   15dfa:	c706                	sw	ra,140(sp)
   15dfc:	c522                	sw	s0,136(sp)
   15dfe:	c326                	sw	s1,132(sp)
   15e00:	c14a                	sw	s2,128(sp)
   15e02:	dece                	sw	s3,124(sp)
   15e04:	89aa                	mv	s3,a0
   15e06:	4409                	li	s0,2
   15e08:	00810a23          	sb	s0,20(sp)
   15e0c:	0824                	addi	s1,sp,24
   15e0e:	02c00613          	li	a2,44
   15e12:	8526                	mv	a0,s1
   15e14:	00005097          	auipc	ra,0x5
   15e18:	cf0080e7          	jalr	-784(ra) # 1ab04 <memcpy>
   15e1c:	05010913          	addi	s2,sp,80
   15e20:	02a00613          	li	a2,42
   15e24:	854a                	mv	a0,s2
   15e26:	4581                	li	a1,0
   15e28:	00005097          	auipc	ra,0x5
   15e2c:	c70080e7          	jalr	-912(ra) # 1aa98 <memset>
   15e30:	8626                	mv	a2,s1
   15e32:	04810623          	sb	s0,76(sp)
   15e36:	6509                	lui	a0,0x2
   15e38:	448d                	li	s1,3
   15e3a:	4811                	li	a6,4
   15e3c:	458d                	li	a1,3
   15e3e:	4f050793          	addi	a5,a0,1264 # 24f0 <.Lline_table_start1+0x22c5>
   15e42:	02c00693          	li	a3,44
   15e46:	4711                	li	a4,4
   15e48:	853e                	mv	a0,a5
   15e4a:	00000073          	ecall
   15e4e:	04850263          	beq	a0,s0,15e92 <_ZN20complex_full_dynamic3app17hda54bb0ec3b85d71E+0x9a>
   15e52:	c63e                	sw	a5,12(sp)
   15e54:	c826                	sw	s1,16(sp)
   15e56:	01010a23          	sb	a6,20(sp)
   15e5a:	02a00693          	li	a3,42
   15e5e:	470d                	li	a4,3
   15e60:	853e                	mv	a0,a5
   15e62:	4581                	li	a1,0
   15e64:	864a                	mv	a2,s2
   15e66:	00000073          	ecall
   15e6a:	02850463          	beq	a0,s0,15e92 <_ZN20complex_full_dynamic3app17hda54bb0ec3b85d71E+0x9a>
   15e6e:	450d                	li	a0,3
   15e70:	6609                	lui	a2,0x2
   15e72:	458d                	li	a1,3
   15e74:	c2be                	sw	a5,68(sp)
   15e76:	c482                	sw	zero,72(sp)
   15e78:	04a10623          	sb	a0,76(sp)
   15e7c:	4f060513          	addi	a0,a2,1264 # 24f0 <.Lline_table_start1+0x22c5>
   15e80:	4709                	li	a4,2
   15e82:	07f00793          	li	a5,127
   15e86:	4601                	li	a2,0
   15e88:	4681                	li	a3,0
   15e8a:	00000073          	ecall
   15e8e:	02a7e863          	bltu	a5,a0,15ebe <_ZN20complex_full_dynamic3app17hda54bb0ec3b85d71E+0xc6>
   15e92:	00b9a223          	sw	a1,4(s3)
   15e96:	4505                	li	a0,1
   15e98:	00a98023          	sb	a0,0(s3)
   15e9c:	00c8                	addi	a0,sp,68
   15e9e:	00005097          	auipc	ra,0x5
   15ea2:	bdc080e7          	jalr	-1060(ra) # 1aa7a <_ZN9allow_pin12full_dynamic17unshare_if_shared17h6cf91b2080959258E>
   15ea6:	0068                	addi	a0,sp,12
   15ea8:	00005097          	auipc	ra,0x5
   15eac:	bd2080e7          	jalr	-1070(ra) # 1aa7a <_ZN9allow_pin12full_dynamic17unshare_if_shared17h6cf91b2080959258E>
   15eb0:	40ba                	lw	ra,140(sp)
   15eb2:	442a                	lw	s0,136(sp)
   15eb4:	449a                	lw	s1,132(sp)
   15eb6:	490a                	lw	s2,128(sp)
   15eb8:	59f6                	lw	s3,124(sp)
   15eba:	6149                	addi	sp,sp,144
   15ebc:	8082                	ret
   15ebe:	0068                	addi	a0,sp,12
   15ec0:	00005097          	auipc	ra,0x5
   15ec4:	bba080e7          	jalr	-1094(ra) # 1aa7a <_ZN9allow_pin12full_dynamic17unshare_if_shared17h6cf91b2080959258E>
   15ec8:	00c8                	addi	a0,sp,68
   15eca:	00005097          	auipc	ra,0x5
   15ece:	bb0080e7          	jalr	-1104(ra) # 1aa7a <_ZN9allow_pin12full_dynamic17unshare_if_shared17h6cf91b2080959258E>
   15ed2:	00c8                	addi	a0,sp,68
   15ed4:	00005097          	auipc	ra,0x5
   15ed8:	ba6080e7          	jalr	-1114(ra) # 1aa7a <_ZN9allow_pin12full_dynamic17unshare_if_shared17h6cf91b2080959258E>
   15edc:	00198513          	addi	a0,s3,1
   15ee0:	02a00613          	li	a2,42
   15ee4:	85ca                	mv	a1,s2
   15ee6:	00005097          	auipc	ra,0x5
   15eea:	c1e080e7          	jalr	-994(ra) # 1ab04 <memcpy>
   15eee:	4501                	li	a0,0
   15ef0:	b765                	j	15e98 <_ZN20complex_full_dynamic3app17hda54bb0ec3b85d71E+0xa0>

00015ef2 <_ZN20complex_full_dynamic3app17he2d4a824aff980edE>:
   15ef2:	7155                	addi	sp,sp,-208
   15ef4:	c786                	sw	ra,204(sp)
   15ef6:	c5a2                	sw	s0,200(sp)
   15ef8:	c3a6                	sw	s1,196(sp)
   15efa:	c1ca                	sw	s2,192(sp)
   15efc:	df4e                	sw	s3,188(sp)
   15efe:	89aa                	mv	s3,a0
   15f00:	4409                	li	s0,2
   15f02:	00810423          	sb	s0,8(sp)
   15f06:	0064                	addi	s1,sp,12
   15f08:	05300613          	li	a2,83
   15f0c:	8526                	mv	a0,s1
   15f0e:	00005097          	auipc	ra,0x5
   15f12:	bf6080e7          	jalr	-1034(ra) # 1ab04 <memcpy>
   15f16:	06c10913          	addi	s2,sp,108
   15f1a:	04d00613          	li	a2,77
   15f1e:	854a                	mv	a0,s2
   15f20:	4581                	li	a1,0
   15f22:	00005097          	auipc	ra,0x5
   15f26:	b76080e7          	jalr	-1162(ra) # 1aa98 <memset>
   15f2a:	8626                	mv	a2,s1
   15f2c:	06810423          	sb	s0,104(sp)
   15f30:	6505                	lui	a0,0x1
   15f32:	44a5                	li	s1,9
   15f34:	4811                	li	a6,4
   15f36:	45a5                	li	a1,9
   15f38:	6ba50793          	addi	a5,a0,1722 # 16ba <.Lline_table_start1+0x148f>
   15f3c:	05300693          	li	a3,83
   15f40:	4711                	li	a4,4
   15f42:	853e                	mv	a0,a5
   15f44:	00000073          	ecall
   15f48:	04850363          	beq	a0,s0,15f8e <_ZN20complex_full_dynamic3app17he2d4a824aff980edE+0x9c>
   15f4c:	853e                	mv	a0,a5
   15f4e:	864a                	mv	a2,s2
   15f50:	c03e                	sw	a5,0(sp)
   15f52:	c226                	sw	s1,4(sp)
   15f54:	01010423          	sb	a6,8(sp)
   15f58:	448d                	li	s1,3
   15f5a:	4591                	li	a1,4
   15f5c:	04d00693          	li	a3,77
   15f60:	470d                	li	a4,3
   15f62:	00000073          	ecall
   15f66:	02850463          	beq	a0,s0,15f8e <_ZN20complex_full_dynamic3app17he2d4a824aff980edE+0x9c>
   15f6a:	4511                	li	a0,4
   15f6c:	6685                	lui	a3,0x1
   15f6e:	45a5                	li	a1,9
   15f70:	4611                	li	a2,4
   15f72:	d0be                	sw	a5,96(sp)
   15f74:	d2aa                	sw	a0,100(sp)
   15f76:	06910423          	sb	s1,104(sp)
   15f7a:	6ba68513          	addi	a0,a3,1722 # 16ba <.Lline_table_start1+0x148f>
   15f7e:	4709                	li	a4,2
   15f80:	07f00793          	li	a5,127
   15f84:	4681                	li	a3,0
   15f86:	00000073          	ecall
   15f8a:	02a7e863          	bltu	a5,a0,15fba <_ZN20complex_full_dynamic3app17he2d4a824aff980edE+0xc8>
   15f8e:	00b9a223          	sw	a1,4(s3)
   15f92:	4505                	li	a0,1
   15f94:	00a98023          	sb	a0,0(s3)
   15f98:	1088                	addi	a0,sp,96
   15f9a:	00005097          	auipc	ra,0x5
   15f9e:	ae0080e7          	jalr	-1312(ra) # 1aa7a <_ZN9allow_pin12full_dynamic17unshare_if_shared17h6cf91b2080959258E>
   15fa2:	850a                	mv	a0,sp
   15fa4:	00005097          	auipc	ra,0x5
   15fa8:	ad6080e7          	jalr	-1322(ra) # 1aa7a <_ZN9allow_pin12full_dynamic17unshare_if_shared17h6cf91b2080959258E>
   15fac:	40be                	lw	ra,204(sp)
   15fae:	442e                	lw	s0,200(sp)
   15fb0:	449e                	lw	s1,196(sp)
   15fb2:	490e                	lw	s2,192(sp)
   15fb4:	59fa                	lw	s3,188(sp)
   15fb6:	6169                	addi	sp,sp,208
   15fb8:	8082                	ret
   15fba:	850a                	mv	a0,sp
   15fbc:	00005097          	auipc	ra,0x5
   15fc0:	abe080e7          	jalr	-1346(ra) # 1aa7a <_ZN9allow_pin12full_dynamic17unshare_if_shared17h6cf91b2080959258E>
   15fc4:	1088                	addi	a0,sp,96
   15fc6:	00005097          	auipc	ra,0x5
   15fca:	ab4080e7          	jalr	-1356(ra) # 1aa7a <_ZN9allow_pin12full_dynamic17unshare_if_shared17h6cf91b2080959258E>
   15fce:	1088                	addi	a0,sp,96
   15fd0:	00005097          	auipc	ra,0x5
   15fd4:	aaa080e7          	jalr	-1366(ra) # 1aa7a <_ZN9allow_pin12full_dynamic17unshare_if_shared17h6cf91b2080959258E>
   15fd8:	00198513          	addi	a0,s3,1
   15fdc:	04d00613          	li	a2,77
   15fe0:	85ca                	mv	a1,s2
   15fe2:	00005097          	auipc	ra,0x5
   15fe6:	b22080e7          	jalr	-1246(ra) # 1ab04 <memcpy>
   15fea:	4501                	li	a0,0
   15fec:	b765                	j	15f94 <_ZN20complex_full_dynamic3app17he2d4a824aff980edE+0xa2>

00015fee <_ZN20complex_full_dynamic3app17he38d0405b3309f73E>:
   15fee:	7135                	addi	sp,sp,-160
   15ff0:	cf06                	sw	ra,156(sp)
   15ff2:	cd22                	sw	s0,152(sp)
   15ff4:	cb26                	sw	s1,148(sp)
   15ff6:	c94a                	sw	s2,144(sp)
   15ff8:	c74e                	sw	s3,140(sp)
   15ffa:	89aa                	mv	s3,a0
   15ffc:	4409                	li	s0,2
   15ffe:	00810823          	sb	s0,16(sp)
   16002:	0844                	addi	s1,sp,20
   16004:	05500613          	li	a2,85
   16008:	8526                	mv	a0,s1
   1600a:	00005097          	auipc	ra,0x5
   1600e:	afa080e7          	jalr	-1286(ra) # 1ab04 <memcpy>
   16012:	07810913          	addi	s2,sp,120
   16016:	4645                	li	a2,17
   16018:	854a                	mv	a0,s2
   1601a:	4581                	li	a1,0
   1601c:	00005097          	auipc	ra,0x5
   16020:	a7c080e7          	jalr	-1412(ra) # 1aa98 <memset>
   16024:	8626                	mv	a2,s1
   16026:	06810a23          	sb	s0,116(sp)
   1602a:	6505                	lui	a0,0x1
   1602c:	4491                	li	s1,4
   1602e:	4589                	li	a1,2
   16030:	c8950793          	addi	a5,a0,-887 # c89 <.Lline_table_start1+0xa5e>
   16034:	05500693          	li	a3,85
   16038:	4711                	li	a4,4
   1603a:	853e                	mv	a0,a5
   1603c:	00000073          	ecall
   16040:	04850263          	beq	a0,s0,16084 <_ZN20complex_full_dynamic3app17he38d0405b3309f73E+0x96>
   16044:	853e                	mv	a0,a5
   16046:	864a                	mv	a2,s2
   16048:	c43e                	sw	a5,8(sp)
   1604a:	c622                	sw	s0,12(sp)
   1604c:	00910823          	sb	s1,16(sp)
   16050:	448d                	li	s1,3
   16052:	4589                	li	a1,2
   16054:	46c5                	li	a3,17
   16056:	470d                	li	a4,3
   16058:	00000073          	ecall
   1605c:	02850463          	beq	a0,s0,16084 <_ZN20complex_full_dynamic3app17he38d0405b3309f73E+0x96>
   16060:	4509                	li	a0,2
   16062:	6685                	lui	a3,0x1
   16064:	4589                	li	a1,2
   16066:	4609                	li	a2,2
   16068:	d6be                	sw	a5,108(sp)
   1606a:	d8aa                	sw	a0,112(sp)
   1606c:	06910a23          	sb	s1,116(sp)
   16070:	c8968513          	addi	a0,a3,-887 # c89 <.Lline_table_start1+0xa5e>
   16074:	4709                	li	a4,2
   16076:	07f00793          	li	a5,127
   1607a:	4681                	li	a3,0
   1607c:	00000073          	ecall
   16080:	02a7e863          	bltu	a5,a0,160b0 <_ZN20complex_full_dynamic3app17he38d0405b3309f73E+0xc2>
   16084:	00b9a223          	sw	a1,4(s3)
   16088:	4505                	li	a0,1
   1608a:	00a98023          	sb	a0,0(s3)
   1608e:	10e8                	addi	a0,sp,108
   16090:	00005097          	auipc	ra,0x5
   16094:	9ea080e7          	jalr	-1558(ra) # 1aa7a <_ZN9allow_pin12full_dynamic17unshare_if_shared17h6cf91b2080959258E>
   16098:	0028                	addi	a0,sp,8
   1609a:	00005097          	auipc	ra,0x5
   1609e:	9e0080e7          	jalr	-1568(ra) # 1aa7a <_ZN9allow_pin12full_dynamic17unshare_if_shared17h6cf91b2080959258E>
   160a2:	40fa                	lw	ra,156(sp)
   160a4:	446a                	lw	s0,152(sp)
   160a6:	44da                	lw	s1,148(sp)
   160a8:	494a                	lw	s2,144(sp)
   160aa:	49ba                	lw	s3,140(sp)
   160ac:	610d                	addi	sp,sp,160
   160ae:	8082                	ret
   160b0:	0028                	addi	a0,sp,8
   160b2:	00005097          	auipc	ra,0x5
   160b6:	9c8080e7          	jalr	-1592(ra) # 1aa7a <_ZN9allow_pin12full_dynamic17unshare_if_shared17h6cf91b2080959258E>
   160ba:	10e8                	addi	a0,sp,108
   160bc:	00005097          	auipc	ra,0x5
   160c0:	9be080e7          	jalr	-1602(ra) # 1aa7a <_ZN9allow_pin12full_dynamic17unshare_if_shared17h6cf91b2080959258E>
   160c4:	10e8                	addi	a0,sp,108
   160c6:	00005097          	auipc	ra,0x5
   160ca:	9b4080e7          	jalr	-1612(ra) # 1aa7a <_ZN9allow_pin12full_dynamic17unshare_if_shared17h6cf91b2080959258E>
   160ce:	00198513          	addi	a0,s3,1
   160d2:	4645                	li	a2,17
   160d4:	85ca                	mv	a1,s2
   160d6:	00005097          	auipc	ra,0x5
   160da:	a2e080e7          	jalr	-1490(ra) # 1ab04 <memcpy>
   160de:	4501                	li	a0,0
   160e0:	b76d                	j	1608a <_ZN20complex_full_dynamic3app17he38d0405b3309f73E+0x9c>

000160e2 <_ZN20complex_full_dynamic3app17he6c7b51758f2ba40E>:
   160e2:	7131                	addi	sp,sp,-192
   160e4:	df06                	sw	ra,188(sp)
   160e6:	dd22                	sw	s0,184(sp)
   160e8:	db26                	sw	s1,180(sp)
   160ea:	d94a                	sw	s2,176(sp)
   160ec:	d74e                	sw	s3,172(sp)
   160ee:	89aa                	mv	s3,a0
   160f0:	4409                	li	s0,2
   160f2:	00810623          	sb	s0,12(sp)
   160f6:	0804                	addi	s1,sp,16
   160f8:	05300613          	li	a2,83
   160fc:	8526                	mv	a0,s1
   160fe:	00005097          	auipc	ra,0x5
   16102:	a06080e7          	jalr	-1530(ra) # 1ab04 <memcpy>
   16106:	07010913          	addi	s2,sp,112
   1610a:	03a00613          	li	a2,58
   1610e:	854a                	mv	a0,s2
   16110:	4581                	li	a1,0
   16112:	00005097          	auipc	ra,0x5
   16116:	986080e7          	jalr	-1658(ra) # 1aa98 <memset>
   1611a:	8626                	mv	a2,s1
   1611c:	06810623          	sb	s0,108(sp)
   16120:	6509                	lui	a0,0x2
   16122:	4499                	li	s1,6
   16124:	4811                	li	a6,4
   16126:	4599                	li	a1,6
   16128:	64550793          	addi	a5,a0,1605 # 2645 <.Lline_table_start1+0x241a>
   1612c:	05300693          	li	a3,83
   16130:	4711                	li	a4,4
   16132:	853e                	mv	a0,a5
   16134:	00000073          	ecall
   16138:	04850363          	beq	a0,s0,1617e <_ZN20complex_full_dynamic3app17he6c7b51758f2ba40E+0x9c>
   1613c:	853e                	mv	a0,a5
   1613e:	864a                	mv	a2,s2
   16140:	c23e                	sw	a5,4(sp)
   16142:	c426                	sw	s1,8(sp)
   16144:	01010623          	sb	a6,12(sp)
   16148:	449d                	li	s1,7
   1614a:	480d                	li	a6,3
   1614c:	459d                	li	a1,7
   1614e:	03a00693          	li	a3,58
   16152:	470d                	li	a4,3
   16154:	00000073          	ecall
   16158:	02850363          	beq	a0,s0,1617e <_ZN20complex_full_dynamic3app17he6c7b51758f2ba40E+0x9c>
   1615c:	d2be                	sw	a5,100(sp)
   1615e:	d4a6                	sw	s1,104(sp)
   16160:	07010623          	sb	a6,108(sp)
   16164:	6509                	lui	a0,0x2
   16166:	4599                	li	a1,6
   16168:	461d                	li	a2,7
   1616a:	64550513          	addi	a0,a0,1605 # 2645 <.Lline_table_start1+0x241a>
   1616e:	4709                	li	a4,2
   16170:	07f00793          	li	a5,127
   16174:	4681                	li	a3,0
   16176:	00000073          	ecall
   1617a:	02a7e863          	bltu	a5,a0,161aa <_ZN20complex_full_dynamic3app17he6c7b51758f2ba40E+0xc8>
   1617e:	00b9a223          	sw	a1,4(s3)
   16182:	4505                	li	a0,1
   16184:	00a98023          	sb	a0,0(s3)
   16188:	10c8                	addi	a0,sp,100
   1618a:	00005097          	auipc	ra,0x5
   1618e:	8f0080e7          	jalr	-1808(ra) # 1aa7a <_ZN9allow_pin12full_dynamic17unshare_if_shared17h6cf91b2080959258E>
   16192:	0048                	addi	a0,sp,4
   16194:	00005097          	auipc	ra,0x5
   16198:	8e6080e7          	jalr	-1818(ra) # 1aa7a <_ZN9allow_pin12full_dynamic17unshare_if_shared17h6cf91b2080959258E>
   1619c:	50fa                	lw	ra,188(sp)
   1619e:	546a                	lw	s0,184(sp)
   161a0:	54da                	lw	s1,180(sp)
   161a2:	594a                	lw	s2,176(sp)
   161a4:	59ba                	lw	s3,172(sp)
   161a6:	6129                	addi	sp,sp,192
   161a8:	8082                	ret
   161aa:	0048                	addi	a0,sp,4
   161ac:	00005097          	auipc	ra,0x5
   161b0:	8ce080e7          	jalr	-1842(ra) # 1aa7a <_ZN9allow_pin12full_dynamic17unshare_if_shared17h6cf91b2080959258E>
   161b4:	10c8                	addi	a0,sp,100
   161b6:	00005097          	auipc	ra,0x5
   161ba:	8c4080e7          	jalr	-1852(ra) # 1aa7a <_ZN9allow_pin12full_dynamic17unshare_if_shared17h6cf91b2080959258E>
   161be:	10c8                	addi	a0,sp,100
   161c0:	00005097          	auipc	ra,0x5
   161c4:	8ba080e7          	jalr	-1862(ra) # 1aa7a <_ZN9allow_pin12full_dynamic17unshare_if_shared17h6cf91b2080959258E>
   161c8:	00198513          	addi	a0,s3,1
   161cc:	03a00613          	li	a2,58
   161d0:	85ca                	mv	a1,s2
   161d2:	00005097          	auipc	ra,0x5
   161d6:	932080e7          	jalr	-1742(ra) # 1ab04 <memcpy>
   161da:	4501                	li	a0,0
   161dc:	b765                	j	16184 <_ZN20complex_full_dynamic3app17he6c7b51758f2ba40E+0xa2>

000161de <_ZN20complex_full_dynamic3app17hea84791ef4d85ef8E>:
   161de:	7155                	addi	sp,sp,-208
   161e0:	c786                	sw	ra,204(sp)
   161e2:	c5a2                	sw	s0,200(sp)
   161e4:	c3a6                	sw	s1,196(sp)
   161e6:	c1ca                	sw	s2,192(sp)
   161e8:	df4e                	sw	s3,188(sp)
   161ea:	89aa                	mv	s3,a0
   161ec:	4409                	li	s0,2
   161ee:	00810623          	sb	s0,12(sp)
   161f2:	0804                	addi	s1,sp,16
   161f4:	05d00613          	li	a2,93
   161f8:	8526                	mv	a0,s1
   161fa:	00005097          	auipc	ra,0x5
   161fe:	90a080e7          	jalr	-1782(ra) # 1ab04 <memcpy>
   16202:	07c10913          	addi	s2,sp,124
   16206:	04000613          	li	a2,64
   1620a:	854a                	mv	a0,s2
   1620c:	4581                	li	a1,0
   1620e:	00005097          	auipc	ra,0x5
   16212:	88a080e7          	jalr	-1910(ra) # 1aa98 <memset>
   16216:	8626                	mv	a2,s1
   16218:	06810c23          	sb	s0,120(sp)
   1621c:	6505                	lui	a0,0x1
   1621e:	44a1                	li	s1,8
   16220:	4811                	li	a6,4
   16222:	45a1                	li	a1,8
   16224:	02850793          	addi	a5,a0,40 # 1028 <.Lline_table_start1+0xdfd>
   16228:	05d00693          	li	a3,93
   1622c:	4711                	li	a4,4
   1622e:	853e                	mv	a0,a5
   16230:	00000073          	ecall
   16234:	04850363          	beq	a0,s0,1627a <_ZN20complex_full_dynamic3app17hea84791ef4d85ef8E+0x9c>
   16238:	853e                	mv	a0,a5
   1623a:	864a                	mv	a2,s2
   1623c:	c23e                	sw	a5,4(sp)
   1623e:	c426                	sw	s1,8(sp)
   16240:	01010623          	sb	a6,12(sp)
   16244:	448d                	li	s1,3
   16246:	4591                	li	a1,4
   16248:	04000693          	li	a3,64
   1624c:	470d                	li	a4,3
   1624e:	00000073          	ecall
   16252:	02850463          	beq	a0,s0,1627a <_ZN20complex_full_dynamic3app17hea84791ef4d85ef8E+0x9c>
   16256:	4511                	li	a0,4
   16258:	6685                	lui	a3,0x1
   1625a:	45a1                	li	a1,8
   1625c:	4611                	li	a2,4
   1625e:	d8be                	sw	a5,112(sp)
   16260:	daaa                	sw	a0,116(sp)
   16262:	06910c23          	sb	s1,120(sp)
   16266:	02868513          	addi	a0,a3,40 # 1028 <.Lline_table_start1+0xdfd>
   1626a:	4709                	li	a4,2
   1626c:	07f00793          	li	a5,127
   16270:	4681                	li	a3,0
   16272:	00000073          	ecall
   16276:	02a7e863          	bltu	a5,a0,162a6 <_ZN20complex_full_dynamic3app17hea84791ef4d85ef8E+0xc8>
   1627a:	00b9a223          	sw	a1,4(s3)
   1627e:	4505                	li	a0,1
   16280:	00a98023          	sb	a0,0(s3)
   16284:	1888                	addi	a0,sp,112
   16286:	00004097          	auipc	ra,0x4
   1628a:	7f4080e7          	jalr	2036(ra) # 1aa7a <_ZN9allow_pin12full_dynamic17unshare_if_shared17h6cf91b2080959258E>
   1628e:	0048                	addi	a0,sp,4
   16290:	00004097          	auipc	ra,0x4
   16294:	7ea080e7          	jalr	2026(ra) # 1aa7a <_ZN9allow_pin12full_dynamic17unshare_if_shared17h6cf91b2080959258E>
   16298:	40be                	lw	ra,204(sp)
   1629a:	442e                	lw	s0,200(sp)
   1629c:	449e                	lw	s1,196(sp)
   1629e:	490e                	lw	s2,192(sp)
   162a0:	59fa                	lw	s3,188(sp)
   162a2:	6169                	addi	sp,sp,208
   162a4:	8082                	ret
   162a6:	0048                	addi	a0,sp,4
   162a8:	00004097          	auipc	ra,0x4
   162ac:	7d2080e7          	jalr	2002(ra) # 1aa7a <_ZN9allow_pin12full_dynamic17unshare_if_shared17h6cf91b2080959258E>
   162b0:	1888                	addi	a0,sp,112
   162b2:	00004097          	auipc	ra,0x4
   162b6:	7c8080e7          	jalr	1992(ra) # 1aa7a <_ZN9allow_pin12full_dynamic17unshare_if_shared17h6cf91b2080959258E>
   162ba:	1888                	addi	a0,sp,112
   162bc:	00004097          	auipc	ra,0x4
   162c0:	7be080e7          	jalr	1982(ra) # 1aa7a <_ZN9allow_pin12full_dynamic17unshare_if_shared17h6cf91b2080959258E>
   162c4:	00198513          	addi	a0,s3,1
   162c8:	04000613          	li	a2,64
   162cc:	85ca                	mv	a1,s2
   162ce:	00005097          	auipc	ra,0x5
   162d2:	836080e7          	jalr	-1994(ra) # 1ab04 <memcpy>
   162d6:	4501                	li	a0,0
   162d8:	b765                	j	16280 <_ZN20complex_full_dynamic3app17hea84791ef4d85ef8E+0xa2>

000162da <_ZN20complex_full_dynamic3app17hec46065d30edd36dE>:
   162da:	7171                	addi	sp,sp,-176
   162dc:	d706                	sw	ra,172(sp)
   162de:	d522                	sw	s0,168(sp)
   162e0:	d326                	sw	s1,164(sp)
   162e2:	d14a                	sw	s2,160(sp)
   162e4:	cf4e                	sw	s3,156(sp)
   162e6:	89aa                	mv	s3,a0
   162e8:	4409                	li	s0,2
   162ea:	00810a23          	sb	s0,20(sp)
   162ee:	0824                	addi	s1,sp,24
   162f0:	02100613          	li	a2,33
   162f4:	8526                	mv	a0,s1
   162f6:	00005097          	auipc	ra,0x5
   162fa:	80e080e7          	jalr	-2034(ra) # 1ab04 <memcpy>
   162fe:	04810913          	addi	s2,sp,72
   16302:	05300613          	li	a2,83
   16306:	854a                	mv	a0,s2
   16308:	4581                	li	a1,0
   1630a:	00004097          	auipc	ra,0x4
   1630e:	78e080e7          	jalr	1934(ra) # 1aa98 <memset>
   16312:	8626                	mv	a2,s1
   16314:	04810223          	sb	s0,68(sp)
   16318:	6509                	lui	a0,0x2
   1631a:	4491                	li	s1,4
   1631c:	4589                	li	a1,2
   1631e:	53e50793          	addi	a5,a0,1342 # 253e <.Lline_table_start1+0x2313>
   16322:	02100693          	li	a3,33
   16326:	4711                	li	a4,4
   16328:	853e                	mv	a0,a5
   1632a:	00000073          	ecall
   1632e:	04850363          	beq	a0,s0,16374 <_ZN20complex_full_dynamic3app17hec46065d30edd36dE+0x9a>
   16332:	853e                	mv	a0,a5
   16334:	864a                	mv	a2,s2
   16336:	c63e                	sw	a5,12(sp)
   16338:	c822                	sw	s0,16(sp)
   1633a:	00910a23          	sb	s1,20(sp)
   1633e:	44a1                	li	s1,8
   16340:	480d                	li	a6,3
   16342:	45a1                	li	a1,8
   16344:	05300693          	li	a3,83
   16348:	470d                	li	a4,3
   1634a:	00000073          	ecall
   1634e:	02850363          	beq	a0,s0,16374 <_ZN20complex_full_dynamic3app17hec46065d30edd36dE+0x9a>
   16352:	de3e                	sw	a5,60(sp)
   16354:	c0a6                	sw	s1,64(sp)
   16356:	05010223          	sb	a6,68(sp)
   1635a:	6509                	lui	a0,0x2
   1635c:	4589                	li	a1,2
   1635e:	4621                	li	a2,8
   16360:	53e50513          	addi	a0,a0,1342 # 253e <.Lline_table_start1+0x2313>
   16364:	4709                	li	a4,2
   16366:	07f00793          	li	a5,127
   1636a:	4681                	li	a3,0
   1636c:	00000073          	ecall
   16370:	02a7e863          	bltu	a5,a0,163a0 <_ZN20complex_full_dynamic3app17hec46065d30edd36dE+0xc6>
   16374:	00b9a223          	sw	a1,4(s3)
   16378:	4505                	li	a0,1
   1637a:	00a98023          	sb	a0,0(s3)
   1637e:	1868                	addi	a0,sp,60
   16380:	00004097          	auipc	ra,0x4
   16384:	6fa080e7          	jalr	1786(ra) # 1aa7a <_ZN9allow_pin12full_dynamic17unshare_if_shared17h6cf91b2080959258E>
   16388:	0068                	addi	a0,sp,12
   1638a:	00004097          	auipc	ra,0x4
   1638e:	6f0080e7          	jalr	1776(ra) # 1aa7a <_ZN9allow_pin12full_dynamic17unshare_if_shared17h6cf91b2080959258E>
   16392:	50ba                	lw	ra,172(sp)
   16394:	542a                	lw	s0,168(sp)
   16396:	549a                	lw	s1,164(sp)
   16398:	590a                	lw	s2,160(sp)
   1639a:	49fa                	lw	s3,156(sp)
   1639c:	614d                	addi	sp,sp,176
   1639e:	8082                	ret
   163a0:	0068                	addi	a0,sp,12
   163a2:	00004097          	auipc	ra,0x4
   163a6:	6d8080e7          	jalr	1752(ra) # 1aa7a <_ZN9allow_pin12full_dynamic17unshare_if_shared17h6cf91b2080959258E>
   163aa:	1868                	addi	a0,sp,60
   163ac:	00004097          	auipc	ra,0x4
   163b0:	6ce080e7          	jalr	1742(ra) # 1aa7a <_ZN9allow_pin12full_dynamic17unshare_if_shared17h6cf91b2080959258E>
   163b4:	1868                	addi	a0,sp,60
   163b6:	00004097          	auipc	ra,0x4
   163ba:	6c4080e7          	jalr	1732(ra) # 1aa7a <_ZN9allow_pin12full_dynamic17unshare_if_shared17h6cf91b2080959258E>
   163be:	00198513          	addi	a0,s3,1
   163c2:	05300613          	li	a2,83
   163c6:	85ca                	mv	a1,s2
   163c8:	00004097          	auipc	ra,0x4
   163cc:	73c080e7          	jalr	1852(ra) # 1ab04 <memcpy>
   163d0:	4501                	li	a0,0
   163d2:	b765                	j	1637a <_ZN20complex_full_dynamic3app17hec46065d30edd36dE+0xa0>

000163d4 <_ZN20complex_full_dynamic3app17hf1b61440673a7324E>:
   163d4:	7119                	addi	sp,sp,-128
   163d6:	de86                	sw	ra,124(sp)
   163d8:	dca2                	sw	s0,120(sp)
   163da:	daa6                	sw	s1,116(sp)
   163dc:	d8ca                	sw	s2,112(sp)
   163de:	d6ce                	sw	s3,108(sp)
   163e0:	89aa                	mv	s3,a0
   163e2:	4409                	li	s0,2
   163e4:	00810623          	sb	s0,12(sp)
   163e8:	0804                	addi	s1,sp,16
   163ea:	02100613          	li	a2,33
   163ee:	8526                	mv	a0,s1
   163f0:	00004097          	auipc	ra,0x4
   163f4:	714080e7          	jalr	1812(ra) # 1ab04 <memcpy>
   163f8:	04010913          	addi	s2,sp,64
   163fc:	02a00613          	li	a2,42
   16400:	854a                	mv	a0,s2
   16402:	4581                	li	a1,0
   16404:	00004097          	auipc	ra,0x4
   16408:	694080e7          	jalr	1684(ra) # 1aa98 <memset>
   1640c:	8626                	mv	a2,s1
   1640e:	02810e23          	sb	s0,60(sp)
   16412:	6505                	lui	a0,0x1
   16414:	4485                	li	s1,1
   16416:	4811                	li	a6,4
   16418:	4585                	li	a1,1
   1641a:	5f350793          	addi	a5,a0,1523 # 15f3 <.Lline_table_start1+0x13c8>
   1641e:	02100693          	li	a3,33
   16422:	4711                	li	a4,4
   16424:	853e                	mv	a0,a5
   16426:	00000073          	ecall
   1642a:	04850263          	beq	a0,s0,1646e <_ZN20complex_full_dynamic3app17hf1b61440673a7324E+0x9a>
   1642e:	853e                	mv	a0,a5
   16430:	864a                	mv	a2,s2
   16432:	c23e                	sw	a5,4(sp)
   16434:	c426                	sw	s1,8(sp)
   16436:	01010623          	sb	a6,12(sp)
   1643a:	448d                	li	s1,3
   1643c:	458d                	li	a1,3
   1643e:	02a00693          	li	a3,42
   16442:	470d                	li	a4,3
   16444:	00000073          	ecall
   16448:	02850363          	beq	a0,s0,1646e <_ZN20complex_full_dynamic3app17hf1b61440673a7324E+0x9a>
   1644c:	da3e                	sw	a5,52(sp)
   1644e:	dc26                	sw	s1,56(sp)
   16450:	02910e23          	sb	s1,60(sp)
   16454:	6505                	lui	a0,0x1
   16456:	4585                	li	a1,1
   16458:	460d                	li	a2,3
   1645a:	5f350513          	addi	a0,a0,1523 # 15f3 <.Lline_table_start1+0x13c8>
   1645e:	4709                	li	a4,2
   16460:	07f00793          	li	a5,127
   16464:	4681                	li	a3,0
   16466:	00000073          	ecall
   1646a:	02a7e863          	bltu	a5,a0,1649a <_ZN20complex_full_dynamic3app17hf1b61440673a7324E+0xc6>
   1646e:	00b9a223          	sw	a1,4(s3)
   16472:	4505                	li	a0,1
   16474:	00a98023          	sb	a0,0(s3)
   16478:	1848                	addi	a0,sp,52
   1647a:	00004097          	auipc	ra,0x4
   1647e:	600080e7          	jalr	1536(ra) # 1aa7a <_ZN9allow_pin12full_dynamic17unshare_if_shared17h6cf91b2080959258E>
   16482:	0048                	addi	a0,sp,4
   16484:	00004097          	auipc	ra,0x4
   16488:	5f6080e7          	jalr	1526(ra) # 1aa7a <_ZN9allow_pin12full_dynamic17unshare_if_shared17h6cf91b2080959258E>
   1648c:	50f6                	lw	ra,124(sp)
   1648e:	5466                	lw	s0,120(sp)
   16490:	54d6                	lw	s1,116(sp)
   16492:	5946                	lw	s2,112(sp)
   16494:	59b6                	lw	s3,108(sp)
   16496:	6109                	addi	sp,sp,128
   16498:	8082                	ret
   1649a:	0048                	addi	a0,sp,4
   1649c:	00004097          	auipc	ra,0x4
   164a0:	5de080e7          	jalr	1502(ra) # 1aa7a <_ZN9allow_pin12full_dynamic17unshare_if_shared17h6cf91b2080959258E>
   164a4:	1848                	addi	a0,sp,52
   164a6:	00004097          	auipc	ra,0x4
   164aa:	5d4080e7          	jalr	1492(ra) # 1aa7a <_ZN9allow_pin12full_dynamic17unshare_if_shared17h6cf91b2080959258E>
   164ae:	1848                	addi	a0,sp,52
   164b0:	00004097          	auipc	ra,0x4
   164b4:	5ca080e7          	jalr	1482(ra) # 1aa7a <_ZN9allow_pin12full_dynamic17unshare_if_shared17h6cf91b2080959258E>
   164b8:	00198513          	addi	a0,s3,1
   164bc:	02a00613          	li	a2,42
   164c0:	85ca                	mv	a1,s2
   164c2:	00004097          	auipc	ra,0x4
   164c6:	642080e7          	jalr	1602(ra) # 1ab04 <memcpy>
   164ca:	4501                	li	a0,0
   164cc:	b765                	j	16474 <_ZN20complex_full_dynamic3app17hf1b61440673a7324E+0xa0>

000164ce <_ZN20complex_full_dynamic3app17hf20482b98a85d58fE>:
   164ce:	7119                	addi	sp,sp,-128
   164d0:	de86                	sw	ra,124(sp)
   164d2:	dca2                	sw	s0,120(sp)
   164d4:	daa6                	sw	s1,116(sp)
   164d6:	d8ca                	sw	s2,112(sp)
   164d8:	d6ce                	sw	s3,108(sp)
   164da:	89aa                	mv	s3,a0
   164dc:	4409                	li	s0,2
   164de:	00810423          	sb	s0,8(sp)
   164e2:	0064                	addi	s1,sp,12
   164e4:	03f00613          	li	a2,63
   164e8:	8526                	mv	a0,s1
   164ea:	00004097          	auipc	ra,0x4
   164ee:	61a080e7          	jalr	1562(ra) # 1ab04 <memcpy>
   164f2:	05810913          	addi	s2,sp,88
   164f6:	4645                	li	a2,17
   164f8:	854a                	mv	a0,s2
   164fa:	4581                	li	a1,0
   164fc:	00004097          	auipc	ra,0x4
   16500:	59c080e7          	jalr	1436(ra) # 1aa98 <memset>
   16504:	8626                	mv	a2,s1
   16506:	04810a23          	sb	s0,84(sp)
   1650a:	6505                	lui	a0,0x1
   1650c:	4491                	li	s1,4
   1650e:	4591                	li	a1,4
   16510:	4d750793          	addi	a5,a0,1239 # 14d7 <.Lline_table_start1+0x12ac>
   16514:	03f00693          	li	a3,63
   16518:	4711                	li	a4,4
   1651a:	853e                	mv	a0,a5
   1651c:	00000073          	ecall
   16520:	04850163          	beq	a0,s0,16562 <_ZN20complex_full_dynamic3app17hf20482b98a85d58fE+0x94>
   16524:	853e                	mv	a0,a5
   16526:	864a                	mv	a2,s2
   16528:	c03e                	sw	a5,0(sp)
   1652a:	c226                	sw	s1,4(sp)
   1652c:	00910423          	sb	s1,8(sp)
   16530:	448d                	li	s1,3
   16532:	458d                	li	a1,3
   16534:	46c5                	li	a3,17
   16536:	470d                	li	a4,3
   16538:	00000073          	ecall
   1653c:	02850363          	beq	a0,s0,16562 <_ZN20complex_full_dynamic3app17hf20482b98a85d58fE+0x94>
   16540:	c6be                	sw	a5,76(sp)
   16542:	c8a6                	sw	s1,80(sp)
   16544:	04910a23          	sb	s1,84(sp)
   16548:	6505                	lui	a0,0x1
   1654a:	4591                	li	a1,4
   1654c:	460d                	li	a2,3
   1654e:	4d750513          	addi	a0,a0,1239 # 14d7 <.Lline_table_start1+0x12ac>
   16552:	4709                	li	a4,2
   16554:	07f00793          	li	a5,127
   16558:	4681                	li	a3,0
   1655a:	00000073          	ecall
   1655e:	02a7e863          	bltu	a5,a0,1658e <_ZN20complex_full_dynamic3app17hf20482b98a85d58fE+0xc0>
   16562:	00b9a223          	sw	a1,4(s3)
   16566:	4505                	li	a0,1
   16568:	00a98023          	sb	a0,0(s3)
   1656c:	00e8                	addi	a0,sp,76
   1656e:	00004097          	auipc	ra,0x4
   16572:	50c080e7          	jalr	1292(ra) # 1aa7a <_ZN9allow_pin12full_dynamic17unshare_if_shared17h6cf91b2080959258E>
   16576:	850a                	mv	a0,sp
   16578:	00004097          	auipc	ra,0x4
   1657c:	502080e7          	jalr	1282(ra) # 1aa7a <_ZN9allow_pin12full_dynamic17unshare_if_shared17h6cf91b2080959258E>
   16580:	50f6                	lw	ra,124(sp)
   16582:	5466                	lw	s0,120(sp)
   16584:	54d6                	lw	s1,116(sp)
   16586:	5946                	lw	s2,112(sp)
   16588:	59b6                	lw	s3,108(sp)
   1658a:	6109                	addi	sp,sp,128
   1658c:	8082                	ret
   1658e:	850a                	mv	a0,sp
   16590:	00004097          	auipc	ra,0x4
   16594:	4ea080e7          	jalr	1258(ra) # 1aa7a <_ZN9allow_pin12full_dynamic17unshare_if_shared17h6cf91b2080959258E>
   16598:	00e8                	addi	a0,sp,76
   1659a:	00004097          	auipc	ra,0x4
   1659e:	4e0080e7          	jalr	1248(ra) # 1aa7a <_ZN9allow_pin12full_dynamic17unshare_if_shared17h6cf91b2080959258E>
   165a2:	00e8                	addi	a0,sp,76
   165a4:	00004097          	auipc	ra,0x4
   165a8:	4d6080e7          	jalr	1238(ra) # 1aa7a <_ZN9allow_pin12full_dynamic17unshare_if_shared17h6cf91b2080959258E>
   165ac:	00198513          	addi	a0,s3,1
   165b0:	4645                	li	a2,17
   165b2:	85ca                	mv	a1,s2
   165b4:	00004097          	auipc	ra,0x4
   165b8:	550080e7          	jalr	1360(ra) # 1ab04 <memcpy>
   165bc:	4501                	li	a0,0
   165be:	b76d                	j	16568 <_ZN20complex_full_dynamic3app17hf20482b98a85d58fE+0x9a>

000165c0 <_ZN20complex_full_dynamic3app17hf28718ddffbcb69eE>:
   165c0:	7119                	addi	sp,sp,-128
   165c2:	de86                	sw	ra,124(sp)
   165c4:	dca2                	sw	s0,120(sp)
   165c6:	daa6                	sw	s1,116(sp)
   165c8:	d8ca                	sw	s2,112(sp)
   165ca:	d6ce                	sw	s3,108(sp)
   165cc:	89aa                	mv	s3,a0
   165ce:	4409                	li	s0,2
   165d0:	00810823          	sb	s0,16(sp)
   165d4:	0844                	addi	s1,sp,20
   165d6:	4679                	li	a2,30
   165d8:	8526                	mv	a0,s1
   165da:	00004097          	auipc	ra,0x4
   165de:	52a080e7          	jalr	1322(ra) # 1ab04 <memcpy>
   165e2:	04010913          	addi	s2,sp,64
   165e6:	02c00613          	li	a2,44
   165ea:	854a                	mv	a0,s2
   165ec:	4581                	li	a1,0
   165ee:	00004097          	auipc	ra,0x4
   165f2:	4aa080e7          	jalr	1194(ra) # 1aa98 <memset>
   165f6:	8626                	mv	a2,s1
   165f8:	02810e23          	sb	s0,60(sp)
   165fc:	3fb00793          	li	a5,1019
   16600:	449d                	li	s1,7
   16602:	4811                	li	a6,4
   16604:	3fb00513          	li	a0,1019
   16608:	459d                	li	a1,7
   1660a:	46f9                	li	a3,30
   1660c:	4711                	li	a4,4
   1660e:	00000073          	ecall
   16612:	04850463          	beq	a0,s0,1665a <_ZN20complex_full_dynamic3app17hf28718ddffbcb69eE+0x9a>
   16616:	4581                	li	a1,0
   16618:	864a                	mv	a2,s2
   1661a:	c43e                	sw	a5,8(sp)
   1661c:	c626                	sw	s1,12(sp)
   1661e:	01010823          	sb	a6,16(sp)
   16622:	478d                	li	a5,3
   16624:	3fb00513          	li	a0,1019
   16628:	02c00693          	li	a3,44
   1662c:	470d                	li	a4,3
   1662e:	00000073          	ecall
   16632:	02850463          	beq	a0,s0,1665a <_ZN20complex_full_dynamic3app17hf28718ddffbcb69eE+0x9a>
   16636:	3fb00613          	li	a2,1019
   1663a:	3fb00513          	li	a0,1019
   1663e:	459d                	li	a1,7
   16640:	4709                	li	a4,2
   16642:	07f00493          	li	s1,127
   16646:	da32                	sw	a2,52(sp)
   16648:	dc02                	sw	zero,56(sp)
   1664a:	02f10e23          	sb	a5,60(sp)
   1664e:	4601                	li	a2,0
   16650:	4681                	li	a3,0
   16652:	00000073          	ecall
   16656:	02a4e863          	bltu	s1,a0,16686 <_ZN20complex_full_dynamic3app17hf28718ddffbcb69eE+0xc6>
   1665a:	00b9a223          	sw	a1,4(s3)
   1665e:	4505                	li	a0,1
   16660:	00a98023          	sb	a0,0(s3)
   16664:	1848                	addi	a0,sp,52
   16666:	00004097          	auipc	ra,0x4
   1666a:	414080e7          	jalr	1044(ra) # 1aa7a <_ZN9allow_pin12full_dynamic17unshare_if_shared17h6cf91b2080959258E>
   1666e:	0028                	addi	a0,sp,8
   16670:	00004097          	auipc	ra,0x4
   16674:	40a080e7          	jalr	1034(ra) # 1aa7a <_ZN9allow_pin12full_dynamic17unshare_if_shared17h6cf91b2080959258E>
   16678:	50f6                	lw	ra,124(sp)
   1667a:	5466                	lw	s0,120(sp)
   1667c:	54d6                	lw	s1,116(sp)
   1667e:	5946                	lw	s2,112(sp)
   16680:	59b6                	lw	s3,108(sp)
   16682:	6109                	addi	sp,sp,128
   16684:	8082                	ret
   16686:	0028                	addi	a0,sp,8
   16688:	00004097          	auipc	ra,0x4
   1668c:	3f2080e7          	jalr	1010(ra) # 1aa7a <_ZN9allow_pin12full_dynamic17unshare_if_shared17h6cf91b2080959258E>
   16690:	1848                	addi	a0,sp,52
   16692:	00004097          	auipc	ra,0x4
   16696:	3e8080e7          	jalr	1000(ra) # 1aa7a <_ZN9allow_pin12full_dynamic17unshare_if_shared17h6cf91b2080959258E>
   1669a:	1848                	addi	a0,sp,52
   1669c:	00004097          	auipc	ra,0x4
   166a0:	3de080e7          	jalr	990(ra) # 1aa7a <_ZN9allow_pin12full_dynamic17unshare_if_shared17h6cf91b2080959258E>
   166a4:	00198513          	addi	a0,s3,1
   166a8:	02c00613          	li	a2,44
   166ac:	85ca                	mv	a1,s2
   166ae:	00004097          	auipc	ra,0x4
   166b2:	456080e7          	jalr	1110(ra) # 1ab04 <memcpy>
   166b6:	4501                	li	a0,0
   166b8:	b765                	j	16660 <_ZN20complex_full_dynamic3app17hf28718ddffbcb69eE+0xa0>

000166ba <_ZN20complex_full_dynamic3app17hf6f3aa0cf948e851E>:
   166ba:	7171                	addi	sp,sp,-176
   166bc:	d706                	sw	ra,172(sp)
   166be:	d522                	sw	s0,168(sp)
   166c0:	d326                	sw	s1,164(sp)
   166c2:	d14a                	sw	s2,160(sp)
   166c4:	cf4e                	sw	s3,156(sp)
   166c6:	89aa                	mv	s3,a0
   166c8:	4409                	li	s0,2
   166ca:	00810a23          	sb	s0,20(sp)
   166ce:	0824                	addi	s1,sp,24
   166d0:	03500613          	li	a2,53
   166d4:	8526                	mv	a0,s1
   166d6:	00004097          	auipc	ra,0x4
   166da:	42e080e7          	jalr	1070(ra) # 1ab04 <memcpy>
   166de:	05c10913          	addi	s2,sp,92
   166e2:	03f00613          	li	a2,63
   166e6:	854a                	mv	a0,s2
   166e8:	4581                	li	a1,0
   166ea:	00004097          	auipc	ra,0x4
   166ee:	3ae080e7          	jalr	942(ra) # 1aa98 <memset>
   166f2:	4581                	li	a1,0
   166f4:	8626                	mv	a2,s1
   166f6:	04810c23          	sb	s0,88(sp)
   166fa:	6505                	lui	a0,0x1
   166fc:	4491                	li	s1,4
   166fe:	e5750793          	addi	a5,a0,-425 # e57 <.Lline_table_start1+0xc2c>
   16702:	03500693          	li	a3,53
   16706:	4711                	li	a4,4
   16708:	853e                	mv	a0,a5
   1670a:	00000073          	ecall
   1670e:	04850263          	beq	a0,s0,16752 <_ZN20complex_full_dynamic3app17hf6f3aa0cf948e851E+0x98>
   16712:	853e                	mv	a0,a5
   16714:	864a                	mv	a2,s2
   16716:	c63e                	sw	a5,12(sp)
   16718:	c802                	sw	zero,16(sp)
   1671a:	00910a23          	sb	s1,20(sp)
   1671e:	448d                	li	s1,3
   16720:	458d                	li	a1,3
   16722:	03f00693          	li	a3,63
   16726:	470d                	li	a4,3
   16728:	00000073          	ecall
   1672c:	02850363          	beq	a0,s0,16752 <_ZN20complex_full_dynamic3app17hf6f3aa0cf948e851E+0x98>
   16730:	c8be                	sw	a5,80(sp)
   16732:	caa6                	sw	s1,84(sp)
   16734:	04910c23          	sb	s1,88(sp)
   16738:	6505                	lui	a0,0x1
   1673a:	460d                	li	a2,3
   1673c:	e5750513          	addi	a0,a0,-425 # e57 <.Lline_table_start1+0xc2c>
   16740:	4709                	li	a4,2
   16742:	07f00793          	li	a5,127
   16746:	4581                	li	a1,0
   16748:	4681                	li	a3,0
   1674a:	00000073          	ecall
   1674e:	02a7e863          	bltu	a5,a0,1677e <_ZN20complex_full_dynamic3app17hf6f3aa0cf948e851E+0xc4>
   16752:	00b9a223          	sw	a1,4(s3)
   16756:	4505                	li	a0,1
   16758:	00a98023          	sb	a0,0(s3)
   1675c:	0888                	addi	a0,sp,80
   1675e:	00004097          	auipc	ra,0x4
   16762:	31c080e7          	jalr	796(ra) # 1aa7a <_ZN9allow_pin12full_dynamic17unshare_if_shared17h6cf91b2080959258E>
   16766:	0068                	addi	a0,sp,12
   16768:	00004097          	auipc	ra,0x4
   1676c:	312080e7          	jalr	786(ra) # 1aa7a <_ZN9allow_pin12full_dynamic17unshare_if_shared17h6cf91b2080959258E>
   16770:	50ba                	lw	ra,172(sp)
   16772:	542a                	lw	s0,168(sp)
   16774:	549a                	lw	s1,164(sp)
   16776:	590a                	lw	s2,160(sp)
   16778:	49fa                	lw	s3,156(sp)
   1677a:	614d                	addi	sp,sp,176
   1677c:	8082                	ret
   1677e:	0068                	addi	a0,sp,12
   16780:	00004097          	auipc	ra,0x4
   16784:	2fa080e7          	jalr	762(ra) # 1aa7a <_ZN9allow_pin12full_dynamic17unshare_if_shared17h6cf91b2080959258E>
   16788:	0888                	addi	a0,sp,80
   1678a:	00004097          	auipc	ra,0x4
   1678e:	2f0080e7          	jalr	752(ra) # 1aa7a <_ZN9allow_pin12full_dynamic17unshare_if_shared17h6cf91b2080959258E>
   16792:	0888                	addi	a0,sp,80
   16794:	00004097          	auipc	ra,0x4
   16798:	2e6080e7          	jalr	742(ra) # 1aa7a <_ZN9allow_pin12full_dynamic17unshare_if_shared17h6cf91b2080959258E>
   1679c:	00198513          	addi	a0,s3,1
   167a0:	03f00613          	li	a2,63
   167a4:	85ca                	mv	a1,s2
   167a6:	00004097          	auipc	ra,0x4
   167aa:	35e080e7          	jalr	862(ra) # 1ab04 <memcpy>
   167ae:	4501                	li	a0,0
   167b0:	b765                	j	16758 <_ZN20complex_full_dynamic3app17hf6f3aa0cf948e851E+0x9e>

000167b2 <_ZN20complex_full_dynamic3app17hf8279872ec2ba0caE>:
   167b2:	7171                	addi	sp,sp,-176
   167b4:	d706                	sw	ra,172(sp)
   167b6:	d522                	sw	s0,168(sp)
   167b8:	d326                	sw	s1,164(sp)
   167ba:	d14a                	sw	s2,160(sp)
   167bc:	cf4e                	sw	s3,156(sp)
   167be:	89aa                	mv	s3,a0
   167c0:	4409                	li	s0,2
   167c2:	00810423          	sb	s0,8(sp)
   167c6:	0064                	addi	s1,sp,12
   167c8:	06100613          	li	a2,97
   167cc:	8526                	mv	a0,s1
   167ce:	00004097          	auipc	ra,0x4
   167d2:	336080e7          	jalr	822(ra) # 1ab04 <memcpy>
   167d6:	07c10913          	addi	s2,sp,124
   167da:	4679                	li	a2,30
   167dc:	854a                	mv	a0,s2
   167de:	4581                	li	a1,0
   167e0:	00004097          	auipc	ra,0x4
   167e4:	2b8080e7          	jalr	696(ra) # 1aa98 <memset>
   167e8:	8626                	mv	a2,s1
   167ea:	06810c23          	sb	s0,120(sp)
   167ee:	18800493          	li	s1,392
   167f2:	4791                	li	a5,4
   167f4:	18800513          	li	a0,392
   167f8:	4591                	li	a1,4
   167fa:	06100693          	li	a3,97
   167fe:	4711                	li	a4,4
   16800:	00000073          	ecall
   16804:	04850463          	beq	a0,s0,1684c <_ZN20complex_full_dynamic3app17hf8279872ec2ba0caE+0x9a>
   16808:	864a                	mv	a2,s2
   1680a:	c026                	sw	s1,0(sp)
   1680c:	c23e                	sw	a5,4(sp)
   1680e:	00f10423          	sb	a5,8(sp)
   16812:	4799                	li	a5,6
   16814:	448d                	li	s1,3
   16816:	18800513          	li	a0,392
   1681a:	4599                	li	a1,6
   1681c:	46f9                	li	a3,30
   1681e:	470d                	li	a4,3
   16820:	00000073          	ecall
   16824:	02850463          	beq	a0,s0,1684c <_ZN20complex_full_dynamic3app17hf8279872ec2ba0caE+0x9a>
   16828:	18800693          	li	a3,392
   1682c:	18800513          	li	a0,392
   16830:	4591                	li	a1,4
   16832:	4619                	li	a2,6
   16834:	4709                	li	a4,2
   16836:	07f00413          	li	s0,127
   1683a:	d8b6                	sw	a3,112(sp)
   1683c:	dabe                	sw	a5,116(sp)
   1683e:	06910c23          	sb	s1,120(sp)
   16842:	4681                	li	a3,0
   16844:	00000073          	ecall
   16848:	02a46863          	bltu	s0,a0,16878 <_ZN20complex_full_dynamic3app17hf8279872ec2ba0caE+0xc6>
   1684c:	00b9a223          	sw	a1,4(s3)
   16850:	4505                	li	a0,1
   16852:	00a98023          	sb	a0,0(s3)
   16856:	1888                	addi	a0,sp,112
   16858:	00004097          	auipc	ra,0x4
   1685c:	222080e7          	jalr	546(ra) # 1aa7a <_ZN9allow_pin12full_dynamic17unshare_if_shared17h6cf91b2080959258E>
   16860:	850a                	mv	a0,sp
   16862:	00004097          	auipc	ra,0x4
   16866:	218080e7          	jalr	536(ra) # 1aa7a <_ZN9allow_pin12full_dynamic17unshare_if_shared17h6cf91b2080959258E>
   1686a:	50ba                	lw	ra,172(sp)
   1686c:	542a                	lw	s0,168(sp)
   1686e:	549a                	lw	s1,164(sp)
   16870:	590a                	lw	s2,160(sp)
   16872:	49fa                	lw	s3,156(sp)
   16874:	614d                	addi	sp,sp,176
   16876:	8082                	ret
   16878:	850a                	mv	a0,sp
   1687a:	00004097          	auipc	ra,0x4
   1687e:	200080e7          	jalr	512(ra) # 1aa7a <_ZN9allow_pin12full_dynamic17unshare_if_shared17h6cf91b2080959258E>
   16882:	1888                	addi	a0,sp,112
   16884:	00004097          	auipc	ra,0x4
   16888:	1f6080e7          	jalr	502(ra) # 1aa7a <_ZN9allow_pin12full_dynamic17unshare_if_shared17h6cf91b2080959258E>
   1688c:	1888                	addi	a0,sp,112
   1688e:	00004097          	auipc	ra,0x4
   16892:	1ec080e7          	jalr	492(ra) # 1aa7a <_ZN9allow_pin12full_dynamic17unshare_if_shared17h6cf91b2080959258E>
   16896:	00198513          	addi	a0,s3,1
   1689a:	4679                	li	a2,30
   1689c:	85ca                	mv	a1,s2
   1689e:	00004097          	auipc	ra,0x4
   168a2:	266080e7          	jalr	614(ra) # 1ab04 <memcpy>
   168a6:	4501                	li	a0,0
   168a8:	b76d                	j	16852 <_ZN20complex_full_dynamic3app17hf8279872ec2ba0caE+0xa0>

000168aa <_ZN20complex_full_dynamic3app17hfb21389de49ef08eE>:
   168aa:	7135                	addi	sp,sp,-160
   168ac:	cf06                	sw	ra,156(sp)
   168ae:	cd22                	sw	s0,152(sp)
   168b0:	cb26                	sw	s1,148(sp)
   168b2:	c94a                	sw	s2,144(sp)
   168b4:	c74e                	sw	s3,140(sp)
   168b6:	89aa                	mv	s3,a0
   168b8:	4409                	li	s0,2
   168ba:	00810423          	sb	s0,8(sp)
   168be:	0064                	addi	s1,sp,12
   168c0:	04800613          	li	a2,72
   168c4:	8526                	mv	a0,s1
   168c6:	00004097          	auipc	ra,0x4
   168ca:	23e080e7          	jalr	574(ra) # 1ab04 <memcpy>
   168ce:	06010913          	addi	s2,sp,96
   168d2:	02900613          	li	a2,41
   168d6:	854a                	mv	a0,s2
   168d8:	4581                	li	a1,0
   168da:	00004097          	auipc	ra,0x4
   168de:	1be080e7          	jalr	446(ra) # 1aa98 <memset>
   168e2:	8626                	mv	a2,s1
   168e4:	04810e23          	sb	s0,92(sp)
   168e8:	6509                	lui	a0,0x2
   168ea:	448d                	li	s1,3
   168ec:	4811                	li	a6,4
   168ee:	458d                	li	a1,3
   168f0:	6a450793          	addi	a5,a0,1700 # 26a4 <.Lline_table_start1+0x2479>
   168f4:	04800693          	li	a3,72
   168f8:	4711                	li	a4,4
   168fa:	853e                	mv	a0,a5
   168fc:	00000073          	ecall
   16900:	04850363          	beq	a0,s0,16946 <_ZN20complex_full_dynamic3app17hfb21389de49ef08eE+0x9c>
   16904:	c03e                	sw	a5,0(sp)
   16906:	c226                	sw	s1,4(sp)
   16908:	01010423          	sb	a6,8(sp)
   1690c:	4591                	li	a1,4
   1690e:	02900693          	li	a3,41
   16912:	470d                	li	a4,3
   16914:	853e                	mv	a0,a5
   16916:	864a                	mv	a2,s2
   16918:	00000073          	ecall
   1691c:	02850563          	beq	a0,s0,16946 <_ZN20complex_full_dynamic3app17hfb21389de49ef08eE+0x9c>
   16920:	4511                	li	a0,4
   16922:	468d                	li	a3,3
   16924:	6709                	lui	a4,0x2
   16926:	458d                	li	a1,3
   16928:	4611                	li	a2,4
   1692a:	cabe                	sw	a5,84(sp)
   1692c:	ccaa                	sw	a0,88(sp)
   1692e:	04d10e23          	sb	a3,92(sp)
   16932:	6a470513          	addi	a0,a4,1700 # 26a4 <.Lline_table_start1+0x2479>
   16936:	4709                	li	a4,2
   16938:	07f00793          	li	a5,127
   1693c:	4681                	li	a3,0
   1693e:	00000073          	ecall
   16942:	02a7e863          	bltu	a5,a0,16972 <_ZN20complex_full_dynamic3app17hfb21389de49ef08eE+0xc8>
   16946:	00b9a223          	sw	a1,4(s3)
   1694a:	4505                	li	a0,1
   1694c:	00a98023          	sb	a0,0(s3)
   16950:	08c8                	addi	a0,sp,84
   16952:	00004097          	auipc	ra,0x4
   16956:	128080e7          	jalr	296(ra) # 1aa7a <_ZN9allow_pin12full_dynamic17unshare_if_shared17h6cf91b2080959258E>
   1695a:	850a                	mv	a0,sp
   1695c:	00004097          	auipc	ra,0x4
   16960:	11e080e7          	jalr	286(ra) # 1aa7a <_ZN9allow_pin12full_dynamic17unshare_if_shared17h6cf91b2080959258E>
   16964:	40fa                	lw	ra,156(sp)
   16966:	446a                	lw	s0,152(sp)
   16968:	44da                	lw	s1,148(sp)
   1696a:	494a                	lw	s2,144(sp)
   1696c:	49ba                	lw	s3,140(sp)
   1696e:	610d                	addi	sp,sp,160
   16970:	8082                	ret
   16972:	850a                	mv	a0,sp
   16974:	00004097          	auipc	ra,0x4
   16978:	106080e7          	jalr	262(ra) # 1aa7a <_ZN9allow_pin12full_dynamic17unshare_if_shared17h6cf91b2080959258E>
   1697c:	08c8                	addi	a0,sp,84
   1697e:	00004097          	auipc	ra,0x4
   16982:	0fc080e7          	jalr	252(ra) # 1aa7a <_ZN9allow_pin12full_dynamic17unshare_if_shared17h6cf91b2080959258E>
   16986:	08c8                	addi	a0,sp,84
   16988:	00004097          	auipc	ra,0x4
   1698c:	0f2080e7          	jalr	242(ra) # 1aa7a <_ZN9allow_pin12full_dynamic17unshare_if_shared17h6cf91b2080959258E>
   16990:	00198513          	addi	a0,s3,1
   16994:	02900613          	li	a2,41
   16998:	85ca                	mv	a1,s2
   1699a:	00004097          	auipc	ra,0x4
   1699e:	16a080e7          	jalr	362(ra) # 1ab04 <memcpy>
   169a2:	4501                	li	a0,0
   169a4:	b765                	j	1694c <_ZN20complex_full_dynamic3app17hfb21389de49ef08eE+0xa2>

000169a6 <_ZN20complex_full_dynamic3app17hfc9279c58c66eea6E>:
   169a6:	7135                	addi	sp,sp,-160
   169a8:	cf06                	sw	ra,156(sp)
   169aa:	cd22                	sw	s0,152(sp)
   169ac:	cb26                	sw	s1,148(sp)
   169ae:	c94a                	sw	s2,144(sp)
   169b0:	c74e                	sw	s3,140(sp)
   169b2:	89aa                	mv	s3,a0
   169b4:	4409                	li	s0,2
   169b6:	00810a23          	sb	s0,20(sp)
   169ba:	0824                	addi	s1,sp,24
   169bc:	03200613          	li	a2,50
   169c0:	8526                	mv	a0,s1
   169c2:	00004097          	auipc	ra,0x4
   169c6:	142080e7          	jalr	322(ra) # 1ab04 <memcpy>
   169ca:	05810913          	addi	s2,sp,88
   169ce:	03200613          	li	a2,50
   169d2:	854a                	mv	a0,s2
   169d4:	4581                	li	a1,0
   169d6:	00004097          	auipc	ra,0x4
   169da:	0c2080e7          	jalr	194(ra) # 1aa98 <memset>
   169de:	8626                	mv	a2,s1
   169e0:	04810a23          	sb	s0,84(sp)
   169e4:	6509                	lui	a0,0x2
   169e6:	448d                	li	s1,3
   169e8:	4811                	li	a6,4
   169ea:	458d                	li	a1,3
   169ec:	f0750793          	addi	a5,a0,-249 # 1f07 <.Lline_table_start1+0x1cdc>
   169f0:	03200693          	li	a3,50
   169f4:	4711                	li	a4,4
   169f6:	853e                	mv	a0,a5
   169f8:	00000073          	ecall
   169fc:	04850363          	beq	a0,s0,16a42 <_ZN20complex_full_dynamic3app17hfc9279c58c66eea6E+0x9c>
   16a00:	853e                	mv	a0,a5
   16a02:	864a                	mv	a2,s2
   16a04:	c63e                	sw	a5,12(sp)
   16a06:	c826                	sw	s1,16(sp)
   16a08:	01010a23          	sb	a6,20(sp)
   16a0c:	4485                	li	s1,1
   16a0e:	4585                	li	a1,1
   16a10:	03200693          	li	a3,50
   16a14:	470d                	li	a4,3
   16a16:	00000073          	ecall
   16a1a:	02850463          	beq	a0,s0,16a42 <_ZN20complex_full_dynamic3app17hfc9279c58c66eea6E+0x9c>
   16a1e:	450d                	li	a0,3
   16a20:	6689                	lui	a3,0x2
   16a22:	458d                	li	a1,3
   16a24:	4605                	li	a2,1
   16a26:	c6be                	sw	a5,76(sp)
   16a28:	c8a6                	sw	s1,80(sp)
   16a2a:	04a10a23          	sb	a0,84(sp)
   16a2e:	f0768513          	addi	a0,a3,-249 # 1f07 <.Lline_table_start1+0x1cdc>
   16a32:	4709                	li	a4,2
   16a34:	07f00793          	li	a5,127
   16a38:	4681                	li	a3,0
   16a3a:	00000073          	ecall
   16a3e:	02a7e863          	bltu	a5,a0,16a6e <_ZN20complex_full_dynamic3app17hfc9279c58c66eea6E+0xc8>
   16a42:	00b9a223          	sw	a1,4(s3)
   16a46:	4505                	li	a0,1
   16a48:	00a98023          	sb	a0,0(s3)
   16a4c:	00e8                	addi	a0,sp,76
   16a4e:	00004097          	auipc	ra,0x4
   16a52:	02c080e7          	jalr	44(ra) # 1aa7a <_ZN9allow_pin12full_dynamic17unshare_if_shared17h6cf91b2080959258E>
   16a56:	0068                	addi	a0,sp,12
   16a58:	00004097          	auipc	ra,0x4
   16a5c:	022080e7          	jalr	34(ra) # 1aa7a <_ZN9allow_pin12full_dynamic17unshare_if_shared17h6cf91b2080959258E>
   16a60:	40fa                	lw	ra,156(sp)
   16a62:	446a                	lw	s0,152(sp)
   16a64:	44da                	lw	s1,148(sp)
   16a66:	494a                	lw	s2,144(sp)
   16a68:	49ba                	lw	s3,140(sp)
   16a6a:	610d                	addi	sp,sp,160
   16a6c:	8082                	ret
   16a6e:	0068                	addi	a0,sp,12
   16a70:	00004097          	auipc	ra,0x4
   16a74:	00a080e7          	jalr	10(ra) # 1aa7a <_ZN9allow_pin12full_dynamic17unshare_if_shared17h6cf91b2080959258E>
   16a78:	00e8                	addi	a0,sp,76
   16a7a:	00004097          	auipc	ra,0x4
   16a7e:	000080e7          	jalr	ra # 1aa7a <_ZN9allow_pin12full_dynamic17unshare_if_shared17h6cf91b2080959258E>
   16a82:	00e8                	addi	a0,sp,76
   16a84:	00004097          	auipc	ra,0x4
   16a88:	ff6080e7          	jalr	-10(ra) # 1aa7a <_ZN9allow_pin12full_dynamic17unshare_if_shared17h6cf91b2080959258E>
   16a8c:	00198513          	addi	a0,s3,1
   16a90:	03200613          	li	a2,50
   16a94:	85ca                	mv	a1,s2
   16a96:	00004097          	auipc	ra,0x4
   16a9a:	06e080e7          	jalr	110(ra) # 1ab04 <memcpy>
   16a9e:	4501                	li	a0,0
   16aa0:	b765                	j	16a48 <_ZN20complex_full_dynamic3app17hfc9279c58c66eea6E+0xa2>

00016aa2 <_ZN20complex_full_dynamic3app17hfcd747bb91530fa4E>:
   16aa2:	7159                	addi	sp,sp,-112
   16aa4:	d686                	sw	ra,108(sp)
   16aa6:	d4a2                	sw	s0,104(sp)
   16aa8:	d2a6                	sw	s1,100(sp)
   16aaa:	d0ca                	sw	s2,96(sp)
   16aac:	cece                	sw	s3,92(sp)
   16aae:	89aa                	mv	s3,a0
   16ab0:	4409                	li	s0,2
   16ab2:	00810a23          	sb	s0,20(sp)
   16ab6:	0824                	addi	s1,sp,24
   16ab8:	4669                	li	a2,26
   16aba:	8526                	mv	a0,s1
   16abc:	00004097          	auipc	ra,0x4
   16ac0:	048080e7          	jalr	72(ra) # 1ab04 <memcpy>
   16ac4:	04010913          	addi	s2,sp,64
   16ac8:	466d                	li	a2,27
   16aca:	854a                	mv	a0,s2
   16acc:	4581                	li	a1,0
   16ace:	00004097          	auipc	ra,0x4
   16ad2:	fca080e7          	jalr	-54(ra) # 1aa98 <memset>
   16ad6:	8626                	mv	a2,s1
   16ad8:	02810e23          	sb	s0,60(sp)
   16adc:	6509                	lui	a0,0x2
   16ade:	4495                	li	s1,5
   16ae0:	4811                	li	a6,4
   16ae2:	4595                	li	a1,5
   16ae4:	cce50793          	addi	a5,a0,-818 # 1cce <.Lline_table_start1+0x1aa3>
   16ae8:	46e9                	li	a3,26
   16aea:	4711                	li	a4,4
   16aec:	853e                	mv	a0,a5
   16aee:	00000073          	ecall
   16af2:	04850263          	beq	a0,s0,16b36 <_ZN20complex_full_dynamic3app17hfcd747bb91530fa4E+0x94>
   16af6:	853e                	mv	a0,a5
   16af8:	864a                	mv	a2,s2
   16afa:	c63e                	sw	a5,12(sp)
   16afc:	c826                	sw	s1,16(sp)
   16afe:	01010a23          	sb	a6,20(sp)
   16b02:	448d                	li	s1,3
   16b04:	4589                	li	a1,2
   16b06:	46ed                	li	a3,27
   16b08:	470d                	li	a4,3
   16b0a:	00000073          	ecall
   16b0e:	02850463          	beq	a0,s0,16b36 <_ZN20complex_full_dynamic3app17hfcd747bb91530fa4E+0x94>
   16b12:	4509                	li	a0,2
   16b14:	6689                	lui	a3,0x2
   16b16:	4595                	li	a1,5
   16b18:	4609                	li	a2,2
   16b1a:	da3e                	sw	a5,52(sp)
   16b1c:	dc2a                	sw	a0,56(sp)
   16b1e:	02910e23          	sb	s1,60(sp)
   16b22:	cce68513          	addi	a0,a3,-818 # 1cce <.Lline_table_start1+0x1aa3>
   16b26:	4709                	li	a4,2
   16b28:	07f00793          	li	a5,127
   16b2c:	4681                	li	a3,0
   16b2e:	00000073          	ecall
   16b32:	02a7e863          	bltu	a5,a0,16b62 <_ZN20complex_full_dynamic3app17hfcd747bb91530fa4E+0xc0>
   16b36:	00b9a223          	sw	a1,4(s3)
   16b3a:	4505                	li	a0,1
   16b3c:	00a98023          	sb	a0,0(s3)
   16b40:	1848                	addi	a0,sp,52
   16b42:	00004097          	auipc	ra,0x4
   16b46:	f38080e7          	jalr	-200(ra) # 1aa7a <_ZN9allow_pin12full_dynamic17unshare_if_shared17h6cf91b2080959258E>
   16b4a:	0068                	addi	a0,sp,12
   16b4c:	00004097          	auipc	ra,0x4
   16b50:	f2e080e7          	jalr	-210(ra) # 1aa7a <_ZN9allow_pin12full_dynamic17unshare_if_shared17h6cf91b2080959258E>
   16b54:	50b6                	lw	ra,108(sp)
   16b56:	5426                	lw	s0,104(sp)
   16b58:	5496                	lw	s1,100(sp)
   16b5a:	5906                	lw	s2,96(sp)
   16b5c:	49f6                	lw	s3,92(sp)
   16b5e:	6165                	addi	sp,sp,112
   16b60:	8082                	ret
   16b62:	0068                	addi	a0,sp,12
   16b64:	00004097          	auipc	ra,0x4
   16b68:	f16080e7          	jalr	-234(ra) # 1aa7a <_ZN9allow_pin12full_dynamic17unshare_if_shared17h6cf91b2080959258E>
   16b6c:	1848                	addi	a0,sp,52
   16b6e:	00004097          	auipc	ra,0x4
   16b72:	f0c080e7          	jalr	-244(ra) # 1aa7a <_ZN9allow_pin12full_dynamic17unshare_if_shared17h6cf91b2080959258E>
   16b76:	1848                	addi	a0,sp,52
   16b78:	00004097          	auipc	ra,0x4
   16b7c:	f02080e7          	jalr	-254(ra) # 1aa7a <_ZN9allow_pin12full_dynamic17unshare_if_shared17h6cf91b2080959258E>
   16b80:	00198513          	addi	a0,s3,1
   16b84:	466d                	li	a2,27
   16b86:	85ca                	mv	a1,s2
   16b88:	00004097          	auipc	ra,0x4
   16b8c:	f7c080e7          	jalr	-132(ra) # 1ab04 <memcpy>
   16b90:	4501                	li	a0,0
   16b92:	b76d                	j	16b3c <_ZN20complex_full_dynamic3app17hfcd747bb91530fa4E+0x9a>

00016b94 <_ZN20complex_full_dynamic3app17hfe05d2e6526a2eb6E>:
   16b94:	7119                	addi	sp,sp,-128
   16b96:	de86                	sw	ra,124(sp)
   16b98:	dca2                	sw	s0,120(sp)
   16b9a:	daa6                	sw	s1,116(sp)
   16b9c:	d8ca                	sw	s2,112(sp)
   16b9e:	d6ce                	sw	s3,108(sp)
   16ba0:	89aa                	mv	s3,a0
   16ba2:	4409                	li	s0,2
   16ba4:	00810423          	sb	s0,8(sp)
   16ba8:	0064                	addi	s1,sp,12
   16baa:	02a00613          	li	a2,42
   16bae:	8526                	mv	a0,s1
   16bb0:	00004097          	auipc	ra,0x4
   16bb4:	f54080e7          	jalr	-172(ra) # 1ab04 <memcpy>
   16bb8:	04410913          	addi	s2,sp,68
   16bbc:	02800613          	li	a2,40
   16bc0:	854a                	mv	a0,s2
   16bc2:	4581                	li	a1,0
   16bc4:	00004097          	auipc	ra,0x4
   16bc8:	ed4080e7          	jalr	-300(ra) # 1aa98 <memset>
   16bcc:	8626                	mv	a2,s1
   16bce:	04810023          	sb	s0,64(sp)
   16bd2:	6509                	lui	a0,0x2
   16bd4:	4491                	li	s1,4
   16bd6:	4591                	li	a1,4
   16bd8:	efa50793          	addi	a5,a0,-262 # 1efa <.Lline_table_start1+0x1ccf>
   16bdc:	02a00693          	li	a3,42
   16be0:	4711                	li	a4,4
   16be2:	853e                	mv	a0,a5
   16be4:	00000073          	ecall
   16be8:	04850363          	beq	a0,s0,16c2e <_ZN20complex_full_dynamic3app17hfe05d2e6526a2eb6E+0x9a>
   16bec:	853e                	mv	a0,a5
   16bee:	864a                	mv	a2,s2
   16bf0:	c03e                	sw	a5,0(sp)
   16bf2:	c226                	sw	s1,4(sp)
   16bf4:	00910423          	sb	s1,8(sp)
   16bf8:	44a1                	li	s1,8
   16bfa:	480d                	li	a6,3
   16bfc:	45a1                	li	a1,8
   16bfe:	02800693          	li	a3,40
   16c02:	470d                	li	a4,3
   16c04:	00000073          	ecall
   16c08:	02850363          	beq	a0,s0,16c2e <_ZN20complex_full_dynamic3app17hfe05d2e6526a2eb6E+0x9a>
   16c0c:	dc3e                	sw	a5,56(sp)
   16c0e:	de26                	sw	s1,60(sp)
   16c10:	05010023          	sb	a6,64(sp)
   16c14:	6509                	lui	a0,0x2
   16c16:	4591                	li	a1,4
   16c18:	4621                	li	a2,8
   16c1a:	efa50513          	addi	a0,a0,-262 # 1efa <.Lline_table_start1+0x1ccf>
   16c1e:	4709                	li	a4,2
   16c20:	07f00793          	li	a5,127
   16c24:	4681                	li	a3,0
   16c26:	00000073          	ecall
   16c2a:	02a7e863          	bltu	a5,a0,16c5a <_ZN20complex_full_dynamic3app17hfe05d2e6526a2eb6E+0xc6>
   16c2e:	00b9a223          	sw	a1,4(s3)
   16c32:	4505                	li	a0,1
   16c34:	00a98023          	sb	a0,0(s3)
   16c38:	1828                	addi	a0,sp,56
   16c3a:	00004097          	auipc	ra,0x4
   16c3e:	e40080e7          	jalr	-448(ra) # 1aa7a <_ZN9allow_pin12full_dynamic17unshare_if_shared17h6cf91b2080959258E>
   16c42:	850a                	mv	a0,sp
   16c44:	00004097          	auipc	ra,0x4
   16c48:	e36080e7          	jalr	-458(ra) # 1aa7a <_ZN9allow_pin12full_dynamic17unshare_if_shared17h6cf91b2080959258E>
   16c4c:	50f6                	lw	ra,124(sp)
   16c4e:	5466                	lw	s0,120(sp)
   16c50:	54d6                	lw	s1,116(sp)
   16c52:	5946                	lw	s2,112(sp)
   16c54:	59b6                	lw	s3,108(sp)
   16c56:	6109                	addi	sp,sp,128
   16c58:	8082                	ret
   16c5a:	850a                	mv	a0,sp
   16c5c:	00004097          	auipc	ra,0x4
   16c60:	e1e080e7          	jalr	-482(ra) # 1aa7a <_ZN9allow_pin12full_dynamic17unshare_if_shared17h6cf91b2080959258E>
   16c64:	1828                	addi	a0,sp,56
   16c66:	00004097          	auipc	ra,0x4
   16c6a:	e14080e7          	jalr	-492(ra) # 1aa7a <_ZN9allow_pin12full_dynamic17unshare_if_shared17h6cf91b2080959258E>
   16c6e:	1828                	addi	a0,sp,56
   16c70:	00004097          	auipc	ra,0x4
   16c74:	e0a080e7          	jalr	-502(ra) # 1aa7a <_ZN9allow_pin12full_dynamic17unshare_if_shared17h6cf91b2080959258E>
   16c78:	00198513          	addi	a0,s3,1
   16c7c:	02800613          	li	a2,40
   16c80:	85ca                	mv	a1,s2
   16c82:	00004097          	auipc	ra,0x4
   16c86:	e82080e7          	jalr	-382(ra) # 1ab04 <memcpy>
   16c8a:	4501                	li	a0,0
   16c8c:	b765                	j	16c34 <_ZN20complex_full_dynamic3app17hfe05d2e6526a2eb6E+0xa0>

00016c8e <_start>:
   16c8e:	81010113          	addi	sp,sp,-2032
   16c92:	7e112623          	sw	ra,2028(sp)
   16c96:	7e812423          	sw	s0,2024(sp)
   16c9a:	7e912223          	sw	s1,2020(sp)
   16c9e:	7f212023          	sw	s2,2016(sp)
   16ca2:	7d312e23          	sw	s3,2012(sp)
   16ca6:	7d412c23          	sw	s4,2008(sp)
   16caa:	7d512a23          	sw	s5,2004(sp)
   16cae:	7d612823          	sw	s6,2000(sp)
   16cb2:	80010113          	addi	sp,sp,-2048
   16cb6:	b3010113          	addi	sp,sp,-1232
   16cba:	7ff10a13          	addi	s4,sp,2047
   16cbe:	795a0a13          	addi	s4,s4,1941
   16cc2:	1080                	addi	s0,sp,96
   16cc4:	02800613          	li	a2,40
   16cc8:	8522                	mv	a0,s0
   16cca:	4581                	li	a1,0
   16ccc:	00004097          	auipc	ra,0x4
   16cd0:	dcc080e7          	jalr	-564(ra) # 1aa98 <memset>
   16cd4:	4489                	li	s1,2
   16cd6:	04910e23          	sb	s1,92(sp)
   16cda:	6505                	lui	a0,0x1
   16cdc:	38c50513          	addi	a0,a0,908 # 138c <.Lline_table_start1+0x1161>
   16ce0:	00a10933          	add	s2,sp,a0
   16ce4:	05100613          	li	a2,81
   16ce8:	854a                	mv	a0,s2
   16cea:	4581                	li	a1,0
   16cec:	00004097          	auipc	ra,0x4
   16cf0:	dac080e7          	jalr	-596(ra) # 1aa98 <memset>
   16cf4:	8622                	mv	a2,s0
   16cf6:	3e9a0a23          	sb	s1,1012(s4)
   16cfa:	6789                	lui	a5,0x2
   16cfc:	4425                	li	s0,9
   16cfe:	4811                	li	a6,4
   16d00:	45a5                	li	a1,9
   16d02:	0799                	addi	a5,a5,6 # 2006 <.Lline_table_start1+0x1ddb>
   16d04:	02800693          	li	a3,40
   16d08:	4711                	li	a4,4
   16d0a:	853e                	mv	a0,a5
   16d0c:	00000073          	ecall
   16d10:	04950763          	beq	a0,s1,16d5e <_start+0xd0>
   16d14:	853e                	mv	a0,a5
   16d16:	864a                	mv	a2,s2
   16d18:	cabe                	sw	a5,84(sp)
   16d1a:	cca2                	sw	s0,88(sp)
   16d1c:	05010e23          	sb	a6,92(sp)
   16d20:	480d                	li	a6,3
   16d22:	45a5                	li	a1,9
   16d24:	05100693          	li	a3,81
   16d28:	470d                	li	a4,3
   16d2a:	00000073          	ecall
   16d2e:	02950863          	beq	a0,s1,16d5e <_start+0xd0>
   16d32:	4525                	li	a0,9
   16d34:	6689                	lui	a3,0x2
   16d36:	45a5                	li	a1,9
   16d38:	4625                	li	a2,9
   16d3a:	3efa2623          	sw	a5,1004(s4)
   16d3e:	3eaa2823          	sw	a0,1008(s4)
   16d42:	3f0a0a23          	sb	a6,1012(s4)
   16d46:	00668513          	addi	a0,a3,6 # 2006 <.Lline_table_start1+0x1ddb>
   16d4a:	4709                	li	a4,2
   16d4c:	07f00793          	li	a5,127
   16d50:	4681                	li	a3,0
   16d52:	00000073          	ecall
   16d56:	00a7f463          	bgeu	a5,a0,16d5e <_start+0xd0>
   16d5a:	1f50306f          	j	1a74e <_start+0x3ac0>
   16d5e:	8b2e                	mv	s6,a1
   16d60:	4485                	li	s1,1
   16d62:	6505                	lui	a0,0x1
   16d64:	38050513          	addi	a0,a0,896 # 1380 <.Lline_table_start1+0x1155>
   16d68:	950a                	add	a0,a0,sp
   16d6a:	00004097          	auipc	ra,0x4
   16d6e:	d10080e7          	jalr	-752(ra) # 1aa7a <_ZN9allow_pin12full_dynamic17unshare_if_shared17h6cf91b2080959258E>
   16d72:	08c8                	addi	a0,sp,84
   16d74:	00004097          	auipc	ra,0x4
   16d78:	d06080e7          	jalr	-762(ra) # 1aa7a <_ZN9allow_pin12full_dynamic17unshare_if_shared17h6cf91b2080959258E>
   16d7c:	c099                	beqz	s1,16d82 <_start+0xf4>
   16d7e:	19f0306f          	j	1a71c <_start+0x3a8e>
   16d82:	09411503          	lh	a0,148(sp)
   16d86:	09614583          	lbu	a1,150(sp)
   16d8a:	6605                	lui	a2,0x1
   16d8c:	38c60613          	addi	a2,a2,908 # 138c <.Lline_table_start1+0x1161>
   16d90:	00c10933          	add	s2,sp,a2
   16d94:	3eaa1c23          	sh	a0,1016(s4)
   16d98:	3eba0d23          	sb	a1,1018(s4)
   16d9c:	6505                	lui	a0,0x1
   16d9e:	32450513          	addi	a0,a0,804 # 1324 <.Lline_table_start1+0x10f9>
   16da2:	950a                	add	a0,a0,sp
   16da4:	002c                	addi	a1,sp,8
   16da6:	04a00613          	li	a2,74
   16daa:	00004097          	auipc	ra,0x4
   16dae:	d5a080e7          	jalr	-678(ra) # 1ab04 <memcpy>
   16db2:	6505                	lui	a0,0x1
   16db4:	39350513          	addi	a0,a0,915 # 1393 <.Lline_table_start1+0x1168>
   16db8:	950a                	add	a0,a0,sp
   16dba:	6585                	lui	a1,0x1
   16dbc:	32458593          	addi	a1,a1,804 # 1324 <.Lline_table_start1+0x10f9>
   16dc0:	958a                	add	a1,a1,sp
   16dc2:	04a00613          	li	a2,74
   16dc6:	00004097          	auipc	ra,0x4
   16dca:	d3e080e7          	jalr	-706(ra) # 1ab04 <memcpy>
   16dce:	4489                	li	s1,2
   16dd0:	018b5513          	srli	a0,s6,0x18
   16dd4:	010b5593          	srli	a1,s6,0x10
   16dd8:	3eaa0f23          	sb	a0,1022(s4)
   16ddc:	008b5513          	srli	a0,s6,0x8
   16de0:	3e9a0a23          	sb	s1,1012(s4)
   16de4:	3f6a0da3          	sb	s6,1019(s4)
   16de8:	3eaa0e23          	sb	a0,1020(s4)
   16dec:	3eba0ea3          	sb	a1,1021(s4)
   16df0:	6505                	lui	a0,0x1
   16df2:	33050513          	addi	a0,a0,816 # 1330 <.Lline_table_start1+0x1105>
   16df6:	00a109b3          	add	s3,sp,a0
   16dfa:	04600613          	li	a2,70
   16dfe:	854e                	mv	a0,s3
   16e00:	4581                	li	a1,0
   16e02:	00004097          	auipc	ra,0x4
   16e06:	c96080e7          	jalr	-874(ra) # 1aa98 <memset>
   16e0a:	864a                	mv	a2,s2
   16e0c:	389a0c23          	sb	s1,920(s4)
   16e10:	6409                	lui	s0,0x2
   16e12:	481d                	li	a6,7
   16e14:	4891                	li	a7,4
   16e16:	459d                	li	a1,7
   16e18:	0c440793          	addi	a5,s0,196 # 20c4 <.Lline_table_start1+0x1e99>
   16e1c:	05100693          	li	a3,81
   16e20:	4711                	li	a4,4
   16e22:	853e                	mv	a0,a5
   16e24:	00000073          	ecall
   16e28:	04950b63          	beq	a0,s1,16e7e <_start+0x1f0>
   16e2c:	853e                	mv	a0,a5
   16e2e:	4581                	li	a1,0
   16e30:	864e                	mv	a2,s3
   16e32:	0419                	addi	s0,s0,6
   16e34:	478d                	li	a5,3
   16e36:	04600693          	li	a3,70
   16e3a:	0be40413          	addi	s0,s0,190
   16e3e:	3e8a2623          	sw	s0,1004(s4)
   16e42:	3f0a2823          	sw	a6,1008(s4)
   16e46:	3f1a0a23          	sb	a7,1012(s4)
   16e4a:	470d                	li	a4,3
   16e4c:	00000073          	ecall
   16e50:	02950763          	beq	a0,s1,16e7e <_start+0x1f0>
   16e54:	388a2823          	sw	s0,912(s4)
   16e58:	380a2a23          	sw	zero,916(s4)
   16e5c:	38fa0c23          	sb	a5,920(s4)
   16e60:	6509                	lui	a0,0x2
   16e62:	459d                	li	a1,7
   16e64:	0c450513          	addi	a0,a0,196 # 20c4 <.Lline_table_start1+0x1e99>
   16e68:	4709                	li	a4,2
   16e6a:	07f00793          	li	a5,127
   16e6e:	4601                	li	a2,0
   16e70:	4681                	li	a3,0
   16e72:	00000073          	ecall
   16e76:	00a7f463          	bgeu	a5,a0,16e7e <_start+0x1f0>
   16e7a:	1530306f          	j	1a7cc <_start+0x3b3e>
   16e7e:	8b2e                	mv	s6,a1
   16e80:	4485                	li	s1,1
   16e82:	6505                	lui	a0,0x1
   16e84:	32450513          	addi	a0,a0,804 # 1324 <.Lline_table_start1+0x10f9>
   16e88:	950a                	add	a0,a0,sp
   16e8a:	00004097          	auipc	ra,0x4
   16e8e:	bf0080e7          	jalr	-1040(ra) # 1aa7a <_ZN9allow_pin12full_dynamic17unshare_if_shared17h6cf91b2080959258E>
   16e92:	6505                	lui	a0,0x1
   16e94:	38050513          	addi	a0,a0,896 # 1380 <.Lline_table_start1+0x1155>
   16e98:	950a                	add	a0,a0,sp
   16e9a:	00004097          	auipc	ra,0x4
   16e9e:	be0080e7          	jalr	-1056(ra) # 1aa7a <_ZN9allow_pin12full_dynamic17unshare_if_shared17h6cf91b2080959258E>
   16ea2:	c099                	beqz	s1,16ea8 <_start+0x21a>
   16ea4:	0790306f          	j	1a71c <_start+0x3a8e>
   16ea8:	09411503          	lh	a0,148(sp)
   16eac:	09614583          	lbu	a1,150(sp)
   16eb0:	6605                	lui	a2,0x1
   16eb2:	38c60613          	addi	a2,a2,908 # 138c <.Lline_table_start1+0x1161>
   16eb6:	00c10933          	add	s2,sp,a2
   16eba:	3eaa1c23          	sh	a0,1016(s4)
   16ebe:	3eba0d23          	sb	a1,1018(s4)
   16ec2:	0028                	addi	a0,sp,8
   16ec4:	08cc                	addi	a1,sp,84
   16ec6:	03f00613          	li	a2,63
   16eca:	00004097          	auipc	ra,0x4
   16ece:	c3a080e7          	jalr	-966(ra) # 1ab04 <memcpy>
   16ed2:	6505                	lui	a0,0x1
   16ed4:	39350513          	addi	a0,a0,915 # 1393 <.Lline_table_start1+0x1168>
   16ed8:	950a                	add	a0,a0,sp
   16eda:	002c                	addi	a1,sp,8
   16edc:	03f00613          	li	a2,63
   16ee0:	00004097          	auipc	ra,0x4
   16ee4:	c24080e7          	jalr	-988(ra) # 1ab04 <memcpy>
   16ee8:	4489                	li	s1,2
   16eea:	018b5513          	srli	a0,s6,0x18
   16eee:	010b5593          	srli	a1,s6,0x10
   16ef2:	3eaa0f23          	sb	a0,1022(s4)
   16ef6:	008b5513          	srli	a0,s6,0x8
   16efa:	3e9a0a23          	sb	s1,1012(s4)
   16efe:	3f6a0da3          	sb	s6,1019(s4)
   16f02:	3eaa0e23          	sb	a0,1020(s4)
   16f06:	3eba0ea3          	sb	a1,1021(s4)
   16f0a:	4661                	li	a2,24
   16f0c:	854e                	mv	a0,s3
   16f0e:	4581                	li	a1,0
   16f10:	00004097          	auipc	ra,0x4
   16f14:	b88080e7          	jalr	-1144(ra) # 1aa98 <memset>
   16f18:	864a                	mv	a2,s2
   16f1a:	389a0c23          	sb	s1,920(s4)
   16f1e:	6409                	lui	s0,0x2
   16f20:	480d                	li	a6,3
   16f22:	4891                	li	a7,4
   16f24:	458d                	li	a1,3
   16f26:	3cf40793          	addi	a5,s0,975 # 23cf <.Lline_table_start1+0x21a4>
   16f2a:	04600693          	li	a3,70
   16f2e:	4711                	li	a4,4
   16f30:	853e                	mv	a0,a5
   16f32:	00000073          	ecall
   16f36:	04950b63          	beq	a0,s1,16f8c <_start+0x2fe>
   16f3a:	0419                	addi	s0,s0,6
   16f3c:	4589                	li	a1,2
   16f3e:	46e1                	li	a3,24
   16f40:	3c940293          	addi	t0,s0,969
   16f44:	3e5a2623          	sw	t0,1004(s4)
   16f48:	3f0a2823          	sw	a6,1008(s4)
   16f4c:	3f1a0a23          	sb	a7,1012(s4)
   16f50:	470d                	li	a4,3
   16f52:	853e                	mv	a0,a5
   16f54:	864e                	mv	a2,s3
   16f56:	00000073          	ecall
   16f5a:	02950963          	beq	a0,s1,16f8c <_start+0x2fe>
   16f5e:	4509                	li	a0,2
   16f60:	468d                	li	a3,3
   16f62:	6709                	lui	a4,0x2
   16f64:	458d                	li	a1,3
   16f66:	4609                	li	a2,2
   16f68:	385a2823          	sw	t0,912(s4)
   16f6c:	38aa2a23          	sw	a0,916(s4)
   16f70:	38da0c23          	sb	a3,920(s4)
   16f74:	3cf70513          	addi	a0,a4,975 # 23cf <.Lline_table_start1+0x21a4>
   16f78:	4709                	li	a4,2
   16f7a:	07f00793          	li	a5,127
   16f7e:	4681                	li	a3,0
   16f80:	00000073          	ecall
   16f84:	00a7f463          	bgeu	a5,a0,16f8c <_start+0x2fe>
   16f88:	0c90306f          	j	1a850 <_start+0x3bc2>
   16f8c:	8b2e                	mv	s6,a1
   16f8e:	4485                	li	s1,1
   16f90:	6505                	lui	a0,0x1
   16f92:	32450513          	addi	a0,a0,804 # 1324 <.Lline_table_start1+0x10f9>
   16f96:	950a                	add	a0,a0,sp
   16f98:	00004097          	auipc	ra,0x4
   16f9c:	ae2080e7          	jalr	-1310(ra) # 1aa7a <_ZN9allow_pin12full_dynamic17unshare_if_shared17h6cf91b2080959258E>
   16fa0:	6505                	lui	a0,0x1
   16fa2:	38050513          	addi	a0,a0,896 # 1380 <.Lline_table_start1+0x1155>
   16fa6:	950a                	add	a0,a0,sp
   16fa8:	00004097          	auipc	ra,0x4
   16fac:	ad2080e7          	jalr	-1326(ra) # 1aa7a <_ZN9allow_pin12full_dynamic17unshare_if_shared17h6cf91b2080959258E>
   16fb0:	c099                	beqz	s1,16fb6 <_start+0x328>
   16fb2:	76a0306f          	j	1a71c <_start+0x3a8e>
   16fb6:	0a811503          	lh	a0,168(sp)
   16fba:	0aa14583          	lbu	a1,170(sp)
   16fbe:	06010a93          	addi	s5,sp,96
   16fc2:	06a11023          	sh	a0,96(sp)
   16fc6:	06b10123          	sb	a1,98(sp)
   16fca:	0028                	addi	a0,sp,8
   16fcc:	094c                	addi	a1,sp,148
   16fce:	4645                	li	a2,17
   16fd0:	00004097          	auipc	ra,0x4
   16fd4:	b34080e7          	jalr	-1228(ra) # 1ab04 <memcpy>
   16fd8:	06710513          	addi	a0,sp,103
   16fdc:	002c                	addi	a1,sp,8
   16fde:	4645                	li	a2,17
   16fe0:	00004097          	auipc	ra,0x4
   16fe4:	b24080e7          	jalr	-1244(ra) # 1ab04 <memcpy>
   16fe8:	4489                	li	s1,2
   16fea:	018b5513          	srli	a0,s6,0x18
   16fee:	010b5593          	srli	a1,s6,0x10
   16ff2:	06a10323          	sb	a0,102(sp)
   16ff6:	008b5513          	srli	a0,s6,0x8
   16ffa:	04910e23          	sb	s1,92(sp)
   16ffe:	076101a3          	sb	s6,99(sp)
   17002:	06a10223          	sb	a0,100(sp)
   17006:	06b102a3          	sb	a1,101(sp)
   1700a:	03600613          	li	a2,54
   1700e:	854a                	mv	a0,s2
   17010:	4581                	li	a1,0
   17012:	00004097          	auipc	ra,0x4
   17016:	a86080e7          	jalr	-1402(ra) # 1aa98 <memset>
   1701a:	4581                	li	a1,0
   1701c:	8656                	mv	a2,s5
   1701e:	3e9a0a23          	sb	s1,1012(s4)
   17022:	21f00413          	li	s0,543
   17026:	4791                	li	a5,4
   17028:	21f00513          	li	a0,543
   1702c:	46e1                	li	a3,24
   1702e:	4711                	li	a4,4
   17030:	00000073          	ecall
   17034:	04950963          	beq	a0,s1,17086 <_start+0x3f8>
   17038:	864a                	mv	a2,s2
   1703a:	caa2                	sw	s0,84(sp)
   1703c:	cc82                	sw	zero,88(sp)
   1703e:	04f10e23          	sb	a5,92(sp)
   17042:	479d                	li	a5,7
   17044:	480d                	li	a6,3
   17046:	21f00513          	li	a0,543
   1704a:	459d                	li	a1,7
   1704c:	03600693          	li	a3,54
   17050:	470d                	li	a4,3
   17052:	00000073          	ecall
   17056:	02950863          	beq	a0,s1,17086 <_start+0x3f8>
   1705a:	21f00593          	li	a1,543
   1705e:	21f00513          	li	a0,543
   17062:	461d                	li	a2,7
   17064:	4709                	li	a4,2
   17066:	07f00493          	li	s1,127
   1706a:	3eba2623          	sw	a1,1004(s4)
   1706e:	3efa2823          	sw	a5,1008(s4)
   17072:	3f0a0a23          	sb	a6,1012(s4)
   17076:	4581                	li	a1,0
   17078:	4681                	li	a3,0
   1707a:	00000073          	ecall
   1707e:	00a4f463          	bgeu	s1,a0,17086 <_start+0x3f8>
   17082:	0510306f          	j	1a8d2 <_start+0x3c44>
   17086:	8b2e                	mv	s6,a1
   17088:	4485                	li	s1,1
   1708a:	6505                	lui	a0,0x1
   1708c:	38050513          	addi	a0,a0,896 # 1380 <.Lline_table_start1+0x1155>
   17090:	950a                	add	a0,a0,sp
   17092:	00004097          	auipc	ra,0x4
   17096:	9e8080e7          	jalr	-1560(ra) # 1aa7a <_ZN9allow_pin12full_dynamic17unshare_if_shared17h6cf91b2080959258E>
   1709a:	08c8                	addi	a0,sp,84
   1709c:	00004097          	auipc	ra,0x4
   170a0:	9de080e7          	jalr	-1570(ra) # 1aa7a <_ZN9allow_pin12full_dynamic17unshare_if_shared17h6cf91b2080959258E>
   170a4:	c099                	beqz	s1,170aa <_start+0x41c>
   170a6:	6760306f          	j	1a71c <_start+0x3a8e>
   170aa:	09411503          	lh	a0,148(sp)
   170ae:	09614583          	lbu	a1,150(sp)
   170b2:	6605                	lui	a2,0x1
   170b4:	38c60613          	addi	a2,a2,908 # 138c <.Lline_table_start1+0x1161>
   170b8:	00c10933          	add	s2,sp,a2
   170bc:	3eaa1c23          	sh	a0,1016(s4)
   170c0:	3eba0d23          	sb	a1,1018(s4)
   170c4:	6505                	lui	a0,0x1
   170c6:	32450513          	addi	a0,a0,804 # 1324 <.Lline_table_start1+0x10f9>
   170ca:	950a                	add	a0,a0,sp
   170cc:	002c                	addi	a1,sp,8
   170ce:	02f00613          	li	a2,47
   170d2:	00004097          	auipc	ra,0x4
   170d6:	a32080e7          	jalr	-1486(ra) # 1ab04 <memcpy>
   170da:	6505                	lui	a0,0x1
   170dc:	39350513          	addi	a0,a0,915 # 1393 <.Lline_table_start1+0x1168>
   170e0:	950a                	add	a0,a0,sp
   170e2:	6585                	lui	a1,0x1
   170e4:	32458593          	addi	a1,a1,804 # 1324 <.Lline_table_start1+0x10f9>
   170e8:	958a                	add	a1,a1,sp
   170ea:	02f00613          	li	a2,47
   170ee:	00004097          	auipc	ra,0x4
   170f2:	a16080e7          	jalr	-1514(ra) # 1ab04 <memcpy>
   170f6:	4489                	li	s1,2
   170f8:	018b5513          	srli	a0,s6,0x18
   170fc:	010b5593          	srli	a1,s6,0x10
   17100:	3eaa0f23          	sb	a0,1022(s4)
   17104:	008b5513          	srli	a0,s6,0x8
   17108:	3e9a0a23          	sb	s1,1012(s4)
   1710c:	3f6a0da3          	sb	s6,1019(s4)
   17110:	3eaa0e23          	sb	a0,1020(s4)
   17114:	3eba0ea3          	sb	a1,1021(s4)
   17118:	02500613          	li	a2,37
   1711c:	854e                	mv	a0,s3
   1711e:	4581                	li	a1,0
   17120:	00004097          	auipc	ra,0x4
   17124:	978080e7          	jalr	-1672(ra) # 1aa98 <memset>
   17128:	864a                	mv	a2,s2
   1712a:	389a0c23          	sb	s1,920(s4)
   1712e:	6505                	lui	a0,0x1
   17130:	441d                	li	s0,7
   17132:	4811                	li	a6,4
   17134:	459d                	li	a1,7
   17136:	59750793          	addi	a5,a0,1431 # 1597 <.Lline_table_start1+0x136c>
   1713a:	03600693          	li	a3,54
   1713e:	4711                	li	a4,4
   17140:	853e                	mv	a0,a5
   17142:	00000073          	ecall
   17146:	04950863          	beq	a0,s1,17196 <_start+0x508>
   1714a:	853e                	mv	a0,a5
   1714c:	4581                	li	a1,0
   1714e:	864e                	mv	a2,s3
   17150:	3efa2623          	sw	a5,1004(s4)
   17154:	3e8a2823          	sw	s0,1008(s4)
   17158:	3f0a0a23          	sb	a6,1012(s4)
   1715c:	440d                	li	s0,3
   1715e:	02500693          	li	a3,37
   17162:	470d                	li	a4,3
   17164:	00000073          	ecall
   17168:	02950763          	beq	a0,s1,17196 <_start+0x508>
   1716c:	38fa2823          	sw	a5,912(s4)
   17170:	380a2a23          	sw	zero,916(s4)
   17174:	388a0c23          	sb	s0,920(s4)
   17178:	6505                	lui	a0,0x1
   1717a:	459d                	li	a1,7
   1717c:	59750513          	addi	a0,a0,1431 # 1597 <.Lline_table_start1+0x136c>
   17180:	4709                	li	a4,2
   17182:	07f00793          	li	a5,127
   17186:	4601                	li	a2,0
   17188:	4681                	li	a3,0
   1718a:	00000073          	ecall
   1718e:	00a7f463          	bgeu	a5,a0,17196 <_start+0x508>
   17192:	7be0306f          	j	1a950 <_start+0x3cc2>
   17196:	8b2e                	mv	s6,a1
   17198:	4485                	li	s1,1
   1719a:	6505                	lui	a0,0x1
   1719c:	32450513          	addi	a0,a0,804 # 1324 <.Lline_table_start1+0x10f9>
   171a0:	950a                	add	a0,a0,sp
   171a2:	00004097          	auipc	ra,0x4
   171a6:	8d8080e7          	jalr	-1832(ra) # 1aa7a <_ZN9allow_pin12full_dynamic17unshare_if_shared17h6cf91b2080959258E>
   171aa:	6505                	lui	a0,0x1
   171ac:	38050513          	addi	a0,a0,896 # 1380 <.Lline_table_start1+0x1155>
   171b0:	950a                	add	a0,a0,sp
   171b2:	00004097          	auipc	ra,0x4
   171b6:	8c8080e7          	jalr	-1848(ra) # 1aa7a <_ZN9allow_pin12full_dynamic17unshare_if_shared17h6cf91b2080959258E>
   171ba:	c099                	beqz	s1,171c0 <_start+0x532>
   171bc:	5600306f          	j	1a71c <_start+0x3a8e>
   171c0:	09411503          	lh	a0,148(sp)
   171c4:	09614583          	lbu	a1,150(sp)
   171c8:	6605                	lui	a2,0x1
   171ca:	38c60613          	addi	a2,a2,908 # 138c <.Lline_table_start1+0x1161>
   171ce:	00c104b3          	add	s1,sp,a2
   171d2:	3eaa1c23          	sh	a0,1016(s4)
   171d6:	3eba0d23          	sb	a1,1018(s4)
   171da:	0028                	addi	a0,sp,8
   171dc:	08cc                	addi	a1,sp,84
   171de:	4679                	li	a2,30
   171e0:	00004097          	auipc	ra,0x4
   171e4:	924080e7          	jalr	-1756(ra) # 1ab04 <memcpy>
   171e8:	6505                	lui	a0,0x1
   171ea:	39350513          	addi	a0,a0,915 # 1393 <.Lline_table_start1+0x1168>
   171ee:	950a                	add	a0,a0,sp
   171f0:	002c                	addi	a1,sp,8
   171f2:	4679                	li	a2,30
   171f4:	00004097          	auipc	ra,0x4
   171f8:	910080e7          	jalr	-1776(ra) # 1ab04 <memcpy>
   171fc:	8626                	mv	a2,s1
   171fe:	4789                	li	a5,2
   17200:	018b5693          	srli	a3,s6,0x18
   17204:	010b5713          	srli	a4,s6,0x10
   17208:	008b5413          	srli	s0,s6,0x8
   1720c:	3a0a1423          	sh	zero,936(s4)
   17210:	66700493          	li	s1,1639
   17214:	4811                	li	a6,4
   17216:	66700513          	li	a0,1639
   1721a:	4589                	li	a1,2
   1721c:	3eda0f23          	sb	a3,1022(s4)
   17220:	02500693          	li	a3,37
   17224:	3efa0a23          	sb	a5,1012(s4)
   17228:	3f6a0da3          	sb	s6,1019(s4)
   1722c:	3e8a0e23          	sb	s0,1020(s4)
   17230:	3eea0ea3          	sb	a4,1021(s4)
   17234:	38fa0c23          	sb	a5,920(s4)
   17238:	380a2e23          	sw	zero,924(s4)
   1723c:	3a0a2023          	sw	zero,928(s4)
   17240:	3a0a2223          	sw	zero,932(s4)
   17244:	4711                	li	a4,4
   17246:	00000073          	ecall
   1724a:	04f50a63          	beq	a0,a5,1729e <_start+0x610>
   1724e:	864e                	mv	a2,s3
   17250:	3e9a2623          	sw	s1,1004(s4)
   17254:	3efa2823          	sw	a5,1008(s4)
   17258:	3f0a0a23          	sb	a6,1012(s4)
   1725c:	44a1                	li	s1,8
   1725e:	480d                	li	a6,3
   17260:	66700513          	li	a0,1639
   17264:	45a1                	li	a1,8
   17266:	46b9                	li	a3,14
   17268:	470d                	li	a4,3
   1726a:	00000073          	ecall
   1726e:	02f50863          	beq	a0,a5,1729e <_start+0x610>
   17272:	66700693          	li	a3,1639
   17276:	66700513          	li	a0,1639
   1727a:	4589                	li	a1,2
   1727c:	4621                	li	a2,8
   1727e:	4709                	li	a4,2
   17280:	07f00793          	li	a5,127
   17284:	38da2823          	sw	a3,912(s4)
   17288:	389a2a23          	sw	s1,916(s4)
   1728c:	390a0c23          	sb	a6,920(s4)
   17290:	4681                	li	a3,0
   17292:	00000073          	ecall
   17296:	00a7f463          	bgeu	a5,a0,1729e <_start+0x610>
   1729a:	7380306f          	j	1a9d2 <_start+0x3d44>
   1729e:	8b2e                	mv	s6,a1
   172a0:	4485                	li	s1,1
   172a2:	6505                	lui	a0,0x1
   172a4:	32450513          	addi	a0,a0,804 # 1324 <.Lline_table_start1+0x10f9>
   172a8:	950a                	add	a0,a0,sp
   172aa:	00003097          	auipc	ra,0x3
   172ae:	7d0080e7          	jalr	2000(ra) # 1aa7a <_ZN9allow_pin12full_dynamic17unshare_if_shared17h6cf91b2080959258E>
   172b2:	6505                	lui	a0,0x1
   172b4:	38050513          	addi	a0,a0,896 # 1380 <.Lline_table_start1+0x1155>
   172b8:	950a                	add	a0,a0,sp
   172ba:	00003097          	auipc	ra,0x3
   172be:	7c0080e7          	jalr	1984(ra) # 1aa7a <_ZN9allow_pin12full_dynamic17unshare_if_shared17h6cf91b2080959258E>
   172c2:	c099                	beqz	s1,172c8 <_start+0x63a>
   172c4:	4580306f          	j	1a71c <_start+0x3a8e>
   172c8:	4556                	lw	a0,84(sp)
   172ca:	05811583          	lh	a1,88(sp)
   172ce:	05a14603          	lbu	a2,90(sp)
   172d2:	018b5693          	srli	a3,s6,0x18
   172d6:	010b5713          	srli	a4,s6,0x10
   172da:	0ae108a3          	sb	a4,177(sp)
   172de:	0ad10923          	sb	a3,178(sp)
   172e2:	09411683          	lh	a3,148(sp)
   172e6:	09614703          	lbu	a4,150(sp)
   172ea:	c42a                	sw	a0,8(sp)
   172ec:	00b11623          	sh	a1,12(sp)
   172f0:	00c10723          	sb	a2,14(sp)
   172f4:	008b5513          	srli	a0,s6,0x8
   172f8:	0ad11623          	sh	a3,172(sp)
   172fc:	0ae10723          	sb	a4,174(sp)
   17300:	0b6107a3          	sb	s6,175(sp)
   17304:	0aa10823          	sb	a0,176(sp)
   17308:	0b310513          	addi	a0,sp,179
   1730c:	002c                	addi	a1,sp,8
   1730e:	461d                	li	a2,7
   17310:	00003097          	auipc	ra,0x3
   17314:	7f4080e7          	jalr	2036(ra) # 1ab04 <memcpy>
   17318:	6505                	lui	a0,0x1
   1731a:	38050513          	addi	a0,a0,896 # 1380 <.Lline_table_start1+0x1155>
   1731e:	950a                	add	a0,a0,sp
   17320:	116c                	addi	a1,sp,172
   17322:	ffffc097          	auipc	ra,0xffffc
   17326:	950080e7          	jalr	-1712(ra) # 12c72 <_ZN20complex_full_dynamic3app17h462538e20bde3a4cE>
   1732a:	3eca4503          	lbu	a0,1004(s4)
   1732e:	c119                	beqz	a0,17334 <_start+0x6a6>
   17330:	3e80306f          	j	1a718 <_start+0x3a8a>
   17334:	3eea4503          	lbu	a0,1006(s4)
   17338:	3eda4583          	lbu	a1,1005(s4)
   1733c:	3efa4603          	lbu	a2,1007(s4)
   17340:	3f0a2403          	lw	s0,1008(s4)
   17344:	0522                	slli	a0,a0,0x8
   17346:	8d4d                	or	a0,a0,a1
   17348:	0aa11d23          	sh	a0,186(sp)
   1734c:	0ac10e23          	sb	a2,188(sp)
   17350:	6505                	lui	a0,0x1
   17352:	38850513          	addi	a0,a0,904 # 1388 <.Lline_table_start1+0x115d>
   17356:	00a105b3          	add	a1,sp,a0
   1735a:	6505                	lui	a0,0x1
   1735c:	32450513          	addi	a0,a0,804 # 1324 <.Lline_table_start1+0x10f9>
   17360:	950a                	add	a0,a0,sp
   17362:	04100613          	li	a2,65
   17366:	00003097          	auipc	ra,0x3
   1736a:	79e080e7          	jalr	1950(ra) # 1ab04 <memcpy>
   1736e:	01845513          	srli	a0,s0,0x18
   17372:	01045593          	srli	a1,s0,0x10
   17376:	00845613          	srli	a2,s0,0x8
   1737a:	0a810ea3          	sb	s0,189(sp)
   1737e:	0ac10f23          	sb	a2,190(sp)
   17382:	0ab10fa3          	sb	a1,191(sp)
   17386:	0ca10023          	sb	a0,192(sp)
   1738a:	0c110513          	addi	a0,sp,193
   1738e:	6585                	lui	a1,0x1
   17390:	32458593          	addi	a1,a1,804 # 1324 <.Lline_table_start1+0x10f9>
   17394:	958a                	add	a1,a1,sp
   17396:	04100613          	li	a2,65
   1739a:	00003097          	auipc	ra,0x3
   1739e:	76a080e7          	jalr	1898(ra) # 1ab04 <memcpy>
   173a2:	6505                	lui	a0,0x1
   173a4:	38050513          	addi	a0,a0,896 # 1380 <.Lline_table_start1+0x1155>
   173a8:	950a                	add	a0,a0,sp
   173aa:	0ba10593          	addi	a1,sp,186
   173ae:	ffffd097          	auipc	ra,0xffffd
   173b2:	94a080e7          	jalr	-1718(ra) # 13cf8 <_ZN20complex_full_dynamic3app17h6f6a97c2cb5bda0eE>
   173b6:	3eca4503          	lbu	a0,1004(s4)
   173ba:	c119                	beqz	a0,173c0 <_start+0x732>
   173bc:	35c0306f          	j	1a718 <_start+0x3a8a>
   173c0:	3eda4503          	lbu	a0,1005(s4)
   173c4:	3eea4583          	lbu	a1,1006(s4)
   173c8:	3efa4803          	lbu	a6,1007(s4)
   173cc:	3f0a2683          	lw	a3,1008(s4)
   173d0:	3f4a2703          	lw	a4,1012(s4)
   173d4:	3f8a2783          	lw	a5,1016(s4)
   173d8:	05a2                	slli	a1,a1,0x8
   173da:	0186d893          	srli	a7,a3,0x18
   173de:	0106d293          	srli	t0,a3,0x10
   173e2:	0187d613          	srli	a2,a5,0x18
   173e6:	0107d493          	srli	s1,a5,0x10
   173ea:	0087d413          	srli	s0,a5,0x8
   173ee:	8d4d                	or	a0,a0,a1
   173f0:	01875593          	srli	a1,a4,0x18
   173f4:	109107a3          	sb	s1,271(sp)
   173f8:	10c10823          	sb	a2,272(sp)
   173fc:	01075613          	srli	a2,a4,0x10
   17400:	10c105a3          	sb	a2,267(sp)
   17404:	10b10623          	sb	a1,268(sp)
   17408:	10f106a3          	sb	a5,269(sp)
   1740c:	10810723          	sb	s0,270(sp)
   17410:	0086d593          	srli	a1,a3,0x8
   17414:	10a11123          	sh	a0,258(sp)
   17418:	11010223          	sb	a6,260(sp)
   1741c:	10d102a3          	sb	a3,261(sp)
   17420:	10b10323          	sb	a1,262(sp)
   17424:	00875513          	srli	a0,a4,0x8
   17428:	105103a3          	sb	t0,263(sp)
   1742c:	11110423          	sb	a7,264(sp)
   17430:	10e104a3          	sb	a4,265(sp)
   17434:	10a10523          	sb	a0,266(sp)
   17438:	6505                	lui	a0,0x1
   1743a:	38050513          	addi	a0,a0,896 # 1380 <.Lline_table_start1+0x1155>
   1743e:	950a                	add	a0,a0,sp
   17440:	10210593          	addi	a1,sp,258
   17444:	ffffc097          	auipc	ra,0xffffc
   17448:	a16080e7          	jalr	-1514(ra) # 12e5a <_ZN20complex_full_dynamic3app17h48618e032ff61255E>
   1744c:	3eca4503          	lbu	a0,1004(s4)
   17450:	c119                	beqz	a0,17456 <_start+0x7c8>
   17452:	2c60306f          	j	1a718 <_start+0x3a8a>
   17456:	3eea4503          	lbu	a0,1006(s4)
   1745a:	3eda4583          	lbu	a1,1005(s4)
   1745e:	3efa4603          	lbu	a2,1007(s4)
   17462:	3f0a2403          	lw	s0,1008(s4)
   17466:	0522                	slli	a0,a0,0x8
   17468:	8d4d                	or	a0,a0,a1
   1746a:	10a11923          	sh	a0,274(sp)
   1746e:	10c10a23          	sb	a2,276(sp)
   17472:	6505                	lui	a0,0x1
   17474:	38850513          	addi	a0,a0,904 # 1388 <.Lline_table_start1+0x115d>
   17478:	00a105b3          	add	a1,sp,a0
   1747c:	6505                	lui	a0,0x1
   1747e:	32450513          	addi	a0,a0,804 # 1324 <.Lline_table_start1+0x10f9>
   17482:	950a                	add	a0,a0,sp
   17484:	4679                	li	a2,30
   17486:	00003097          	auipc	ra,0x3
   1748a:	67e080e7          	jalr	1662(ra) # 1ab04 <memcpy>
   1748e:	01845513          	srli	a0,s0,0x18
   17492:	01045593          	srli	a1,s0,0x10
   17496:	00845613          	srli	a2,s0,0x8
   1749a:	10810aa3          	sb	s0,277(sp)
   1749e:	10c10b23          	sb	a2,278(sp)
   174a2:	10b10ba3          	sb	a1,279(sp)
   174a6:	10a10c23          	sb	a0,280(sp)
   174aa:	11910513          	addi	a0,sp,281
   174ae:	6585                	lui	a1,0x1
   174b0:	32458593          	addi	a1,a1,804 # 1324 <.Lline_table_start1+0x10f9>
   174b4:	958a                	add	a1,a1,sp
   174b6:	4679                	li	a2,30
   174b8:	00003097          	auipc	ra,0x3
   174bc:	64c080e7          	jalr	1612(ra) # 1ab04 <memcpy>
   174c0:	6505                	lui	a0,0x1
   174c2:	38050513          	addi	a0,a0,896 # 1380 <.Lline_table_start1+0x1155>
   174c6:	950a                	add	a0,a0,sp
   174c8:	11210593          	addi	a1,sp,274
   174cc:	ffffa097          	auipc	ra,0xffffa
   174d0:	51c080e7          	jalr	1308(ra) # 119e8 <_ZN20complex_full_dynamic3app17h0fa7e95bda879acfE>
   174d4:	3eca4503          	lbu	a0,1004(s4)
   174d8:	c119                	beqz	a0,174de <_start+0x850>
   174da:	23e0306f          	j	1a718 <_start+0x3a8a>
   174de:	3eea4503          	lbu	a0,1006(s4)
   174e2:	3eda4583          	lbu	a1,1005(s4)
   174e6:	3efa4603          	lbu	a2,1007(s4)
   174ea:	3f0a2403          	lw	s0,1008(s4)
   174ee:	0522                	slli	a0,a0,0x8
   174f0:	8d4d                	or	a0,a0,a1
   174f2:	12a11c23          	sh	a0,312(sp)
   174f6:	12c10d23          	sb	a2,314(sp)
   174fa:	6505                	lui	a0,0x1
   174fc:	38850513          	addi	a0,a0,904 # 1388 <.Lline_table_start1+0x115d>
   17500:	00a105b3          	add	a1,sp,a0
   17504:	6505                	lui	a0,0x1
   17506:	32450513          	addi	a0,a0,804 # 1324 <.Lline_table_start1+0x10f9>
   1750a:	950a                	add	a0,a0,sp
   1750c:	02300613          	li	a2,35
   17510:	00003097          	auipc	ra,0x3
   17514:	5f4080e7          	jalr	1524(ra) # 1ab04 <memcpy>
   17518:	01845513          	srli	a0,s0,0x18
   1751c:	01045593          	srli	a1,s0,0x10
   17520:	00845613          	srli	a2,s0,0x8
   17524:	12810da3          	sb	s0,315(sp)
   17528:	12c10e23          	sb	a2,316(sp)
   1752c:	12b10ea3          	sb	a1,317(sp)
   17530:	12a10f23          	sb	a0,318(sp)
   17534:	13f10513          	addi	a0,sp,319
   17538:	6585                	lui	a1,0x1
   1753a:	32458593          	addi	a1,a1,804 # 1324 <.Lline_table_start1+0x10f9>
   1753e:	958a                	add	a1,a1,sp
   17540:	02300613          	li	a2,35
   17544:	00003097          	auipc	ra,0x3
   17548:	5c0080e7          	jalr	1472(ra) # 1ab04 <memcpy>
   1754c:	6505                	lui	a0,0x1
   1754e:	38050513          	addi	a0,a0,896 # 1380 <.Lline_table_start1+0x1155>
   17552:	950a                	add	a0,a0,sp
   17554:	1a2c                	addi	a1,sp,312
   17556:	ffffa097          	auipc	ra,0xffffa
   1755a:	2a6080e7          	jalr	678(ra) # 117fc <_ZN20complex_full_dynamic3app17h0e2f77705d40451dE>
   1755e:	3eca4503          	lbu	a0,1004(s4)
   17562:	c119                	beqz	a0,17568 <_start+0x8da>
   17564:	1b40306f          	j	1a718 <_start+0x3a8a>
   17568:	3eea4503          	lbu	a0,1006(s4)
   1756c:	3eda4583          	lbu	a1,1005(s4)
   17570:	3efa4603          	lbu	a2,1007(s4)
   17574:	3f0a2403          	lw	s0,1008(s4)
   17578:	0522                	slli	a0,a0,0x8
   1757a:	8d4d                	or	a0,a0,a1
   1757c:	16a11123          	sh	a0,354(sp)
   17580:	16c10223          	sb	a2,356(sp)
   17584:	6505                	lui	a0,0x1
   17586:	38850513          	addi	a0,a0,904 # 1388 <.Lline_table_start1+0x115d>
   1758a:	00a105b3          	add	a1,sp,a0
   1758e:	6505                	lui	a0,0x1
   17590:	32450513          	addi	a0,a0,804 # 1324 <.Lline_table_start1+0x10f9>
   17594:	950a                	add	a0,a0,sp
   17596:	05c00613          	li	a2,92
   1759a:	00003097          	auipc	ra,0x3
   1759e:	56a080e7          	jalr	1386(ra) # 1ab04 <memcpy>
   175a2:	01845513          	srli	a0,s0,0x18
   175a6:	01045593          	srli	a1,s0,0x10
   175aa:	00845613          	srli	a2,s0,0x8
   175ae:	168102a3          	sb	s0,357(sp)
   175b2:	16c10323          	sb	a2,358(sp)
   175b6:	16b103a3          	sb	a1,359(sp)
   175ba:	16a10423          	sb	a0,360(sp)
   175be:	16910513          	addi	a0,sp,361
   175c2:	6585                	lui	a1,0x1
   175c4:	32458593          	addi	a1,a1,804 # 1324 <.Lline_table_start1+0x10f9>
   175c8:	958a                	add	a1,a1,sp
   175ca:	05c00613          	li	a2,92
   175ce:	00003097          	auipc	ra,0x3
   175d2:	536080e7          	jalr	1334(ra) # 1ab04 <memcpy>
   175d6:	6505                	lui	a0,0x1
   175d8:	38050513          	addi	a0,a0,896 # 1380 <.Lline_table_start1+0x1155>
   175dc:	950a                	add	a0,a0,sp
   175de:	16210593          	addi	a1,sp,354
   175e2:	ffffc097          	auipc	ra,0xffffc
   175e6:	e54080e7          	jalr	-428(ra) # 13436 <_ZN20complex_full_dynamic3app17h59a95a8d42d87d9eE>
   175ea:	3eca4503          	lbu	a0,1004(s4)
   175ee:	c119                	beqz	a0,175f4 <_start+0x966>
   175f0:	1280306f          	j	1a718 <_start+0x3a8a>
   175f4:	3eea4503          	lbu	a0,1006(s4)
   175f8:	3eda4583          	lbu	a1,1005(s4)
   175fc:	3efa4603          	lbu	a2,1007(s4)
   17600:	3f0a2403          	lw	s0,1008(s4)
   17604:	0522                	slli	a0,a0,0x8
   17606:	8d4d                	or	a0,a0,a1
   17608:	1ca11323          	sh	a0,454(sp)
   1760c:	1cc10423          	sb	a2,456(sp)
   17610:	6505                	lui	a0,0x1
   17612:	38850513          	addi	a0,a0,904 # 1388 <.Lline_table_start1+0x115d>
   17616:	00a105b3          	add	a1,sp,a0
   1761a:	6505                	lui	a0,0x1
   1761c:	32450513          	addi	a0,a0,804 # 1324 <.Lline_table_start1+0x10f9>
   17620:	950a                	add	a0,a0,sp
   17622:	02000613          	li	a2,32
   17626:	00003097          	auipc	ra,0x3
   1762a:	4de080e7          	jalr	1246(ra) # 1ab04 <memcpy>
   1762e:	01845513          	srli	a0,s0,0x18
   17632:	01045593          	srli	a1,s0,0x10
   17636:	00845613          	srli	a2,s0,0x8
   1763a:	1c8104a3          	sb	s0,457(sp)
   1763e:	1cc10523          	sb	a2,458(sp)
   17642:	1cb105a3          	sb	a1,459(sp)
   17646:	1ca10623          	sb	a0,460(sp)
   1764a:	1cd10513          	addi	a0,sp,461
   1764e:	6585                	lui	a1,0x1
   17650:	32458593          	addi	a1,a1,804 # 1324 <.Lline_table_start1+0x10f9>
   17654:	958a                	add	a1,a1,sp
   17656:	02000613          	li	a2,32
   1765a:	00003097          	auipc	ra,0x3
   1765e:	4aa080e7          	jalr	1194(ra) # 1ab04 <memcpy>
   17662:	6505                	lui	a0,0x1
   17664:	38050513          	addi	a0,a0,896 # 1380 <.Lline_table_start1+0x1155>
   17668:	950a                	add	a0,a0,sp
   1766a:	1c610593          	addi	a1,sp,454
   1766e:	ffffa097          	auipc	ra,0xffffa
   17672:	472080e7          	jalr	1138(ra) # 11ae0 <_ZN20complex_full_dynamic3app17h10ce2fa0d2331d68E>
   17676:	3eca4503          	lbu	a0,1004(s4)
   1767a:	c119                	beqz	a0,17680 <_start+0x9f2>
   1767c:	09c0306f          	j	1a718 <_start+0x3a8a>
   17680:	3eea4503          	lbu	a0,1006(s4)
   17684:	3eda4583          	lbu	a1,1005(s4)
   17688:	3efa4603          	lbu	a2,1007(s4)
   1768c:	3f0a2403          	lw	s0,1008(s4)
   17690:	0522                	slli	a0,a0,0x8
   17692:	8d4d                	or	a0,a0,a1
   17694:	1ea11723          	sh	a0,494(sp)
   17698:	1ec10823          	sb	a2,496(sp)
   1769c:	6505                	lui	a0,0x1
   1769e:	38850513          	addi	a0,a0,904 # 1388 <.Lline_table_start1+0x115d>
   176a2:	00a105b3          	add	a1,sp,a0
   176a6:	6505                	lui	a0,0x1
   176a8:	32450513          	addi	a0,a0,804 # 1324 <.Lline_table_start1+0x10f9>
   176ac:	950a                	add	a0,a0,sp
   176ae:	465d                	li	a2,23
   176b0:	00003097          	auipc	ra,0x3
   176b4:	454080e7          	jalr	1108(ra) # 1ab04 <memcpy>
   176b8:	01845513          	srli	a0,s0,0x18
   176bc:	01045593          	srli	a1,s0,0x10
   176c0:	00845613          	srli	a2,s0,0x8
   176c4:	1e8108a3          	sb	s0,497(sp)
   176c8:	1ec10923          	sb	a2,498(sp)
   176cc:	1eb109a3          	sb	a1,499(sp)
   176d0:	1ea10a23          	sb	a0,500(sp)
   176d4:	1f510513          	addi	a0,sp,501
   176d8:	6585                	lui	a1,0x1
   176da:	32458593          	addi	a1,a1,804 # 1324 <.Lline_table_start1+0x10f9>
   176de:	958a                	add	a1,a1,sp
   176e0:	465d                	li	a2,23
   176e2:	00003097          	auipc	ra,0x3
   176e6:	422080e7          	jalr	1058(ra) # 1ab04 <memcpy>
   176ea:	6505                	lui	a0,0x1
   176ec:	38050513          	addi	a0,a0,896 # 1380 <.Lline_table_start1+0x1155>
   176f0:	950a                	add	a0,a0,sp
   176f2:	1ee10593          	addi	a1,sp,494
   176f6:	fffff097          	auipc	ra,0xfffff
   176fa:	eca080e7          	jalr	-310(ra) # 165c0 <_ZN20complex_full_dynamic3app17hf28718ddffbcb69eE>
   176fe:	3eca4503          	lbu	a0,1004(s4)
   17702:	c119                	beqz	a0,17708 <_start+0xa7a>
   17704:	0140306f          	j	1a718 <_start+0x3a8a>
   17708:	3eea4503          	lbu	a0,1006(s4)
   1770c:	3eda4583          	lbu	a1,1005(s4)
   17710:	3efa4603          	lbu	a2,1007(s4)
   17714:	3f0a2403          	lw	s0,1008(s4)
   17718:	0522                	slli	a0,a0,0x8
   1771a:	8d4d                	or	a0,a0,a1
   1771c:	20a11623          	sh	a0,524(sp)
   17720:	20c10723          	sb	a2,526(sp)
   17724:	6505                	lui	a0,0x1
   17726:	38850513          	addi	a0,a0,904 # 1388 <.Lline_table_start1+0x115d>
   1772a:	00a105b3          	add	a1,sp,a0
   1772e:	6505                	lui	a0,0x1
   17730:	32450513          	addi	a0,a0,804 # 1324 <.Lline_table_start1+0x10f9>
   17734:	950a                	add	a0,a0,sp
   17736:	02500613          	li	a2,37
   1773a:	00003097          	auipc	ra,0x3
   1773e:	3ca080e7          	jalr	970(ra) # 1ab04 <memcpy>
   17742:	01845513          	srli	a0,s0,0x18
   17746:	01045593          	srli	a1,s0,0x10
   1774a:	00845613          	srli	a2,s0,0x8
   1774e:	208107a3          	sb	s0,527(sp)
   17752:	20c10823          	sb	a2,528(sp)
   17756:	20b108a3          	sb	a1,529(sp)
   1775a:	20a10923          	sb	a0,530(sp)
   1775e:	21310513          	addi	a0,sp,531
   17762:	6585                	lui	a1,0x1
   17764:	32458593          	addi	a1,a1,804 # 1324 <.Lline_table_start1+0x10f9>
   17768:	958a                	add	a1,a1,sp
   1776a:	02500613          	li	a2,37
   1776e:	00003097          	auipc	ra,0x3
   17772:	396080e7          	jalr	918(ra) # 1ab04 <memcpy>
   17776:	6505                	lui	a0,0x1
   17778:	38050513          	addi	a0,a0,896 # 1380 <.Lline_table_start1+0x1155>
   1777c:	950a                	add	a0,a0,sp
   1777e:	046c                	addi	a1,sp,524
   17780:	ffffe097          	auipc	ra,0xffffe
   17784:	57a080e7          	jalr	1402(ra) # 15cfa <_ZN20complex_full_dynamic3app17hd865df8641120723E>
   17788:	3eca4503          	lbu	a0,1004(s4)
   1778c:	c119                	beqz	a0,17792 <_start+0xb04>
   1778e:	78b0206f          	j	1a718 <_start+0x3a8a>
   17792:	3eea4503          	lbu	a0,1006(s4)
   17796:	3eda4583          	lbu	a1,1005(s4)
   1779a:	3efa4603          	lbu	a2,1007(s4)
   1779e:	3f0a2403          	lw	s0,1008(s4)
   177a2:	0522                	slli	a0,a0,0x8
   177a4:	8d4d                	or	a0,a0,a1
   177a6:	22a11c23          	sh	a0,568(sp)
   177aa:	22c10d23          	sb	a2,570(sp)
   177ae:	6505                	lui	a0,0x1
   177b0:	38850513          	addi	a0,a0,904 # 1388 <.Lline_table_start1+0x115d>
   177b4:	00a105b3          	add	a1,sp,a0
   177b8:	6505                	lui	a0,0x1
   177ba:	32450513          	addi	a0,a0,804 # 1324 <.Lline_table_start1+0x10f9>
   177be:	950a                	add	a0,a0,sp
   177c0:	4679                	li	a2,30
   177c2:	00003097          	auipc	ra,0x3
   177c6:	342080e7          	jalr	834(ra) # 1ab04 <memcpy>
   177ca:	01845513          	srli	a0,s0,0x18
   177ce:	01045593          	srli	a1,s0,0x10
   177d2:	00845613          	srli	a2,s0,0x8
   177d6:	22810da3          	sb	s0,571(sp)
   177da:	22c10e23          	sb	a2,572(sp)
   177de:	22b10ea3          	sb	a1,573(sp)
   177e2:	22a10f23          	sb	a0,574(sp)
   177e6:	23f10513          	addi	a0,sp,575
   177ea:	6585                	lui	a1,0x1
   177ec:	32458593          	addi	a1,a1,804 # 1324 <.Lline_table_start1+0x10f9>
   177f0:	958a                	add	a1,a1,sp
   177f2:	4679                	li	a2,30
   177f4:	00003097          	auipc	ra,0x3
   177f8:	310080e7          	jalr	784(ra) # 1ab04 <memcpy>
   177fc:	6505                	lui	a0,0x1
   177fe:	38050513          	addi	a0,a0,896 # 1380 <.Lline_table_start1+0x1155>
   17802:	950a                	add	a0,a0,sp
   17804:	1c2c                	addi	a1,sp,568
   17806:	ffffa097          	auipc	ra,0xffffa
   1780a:	f00080e7          	jalr	-256(ra) # 11706 <_ZN20complex_full_dynamic3app17h0bfda530378584dbE>
   1780e:	3eca4503          	lbu	a0,1004(s4)
   17812:	c119                	beqz	a0,17818 <_start+0xb8a>
   17814:	7050206f          	j	1a718 <_start+0x3a8a>
   17818:	3eea4503          	lbu	a0,1006(s4)
   1781c:	3eda4583          	lbu	a1,1005(s4)
   17820:	3efa4603          	lbu	a2,1007(s4)
   17824:	3f0a2403          	lw	s0,1008(s4)
   17828:	0522                	slli	a0,a0,0x8
   1782a:	8d4d                	or	a0,a0,a1
   1782c:	24a11f23          	sh	a0,606(sp)
   17830:	26c10023          	sb	a2,608(sp)
   17834:	6505                	lui	a0,0x1
   17836:	38850513          	addi	a0,a0,904 # 1388 <.Lline_table_start1+0x115d>
   1783a:	00a105b3          	add	a1,sp,a0
   1783e:	6505                	lui	a0,0x1
   17840:	32450513          	addi	a0,a0,804 # 1324 <.Lline_table_start1+0x10f9>
   17844:	950a                	add	a0,a0,sp
   17846:	4645                	li	a2,17
   17848:	00003097          	auipc	ra,0x3
   1784c:	2bc080e7          	jalr	700(ra) # 1ab04 <memcpy>
   17850:	01845513          	srli	a0,s0,0x18
   17854:	01045593          	srli	a1,s0,0x10
   17858:	00845613          	srli	a2,s0,0x8
   1785c:	268100a3          	sb	s0,609(sp)
   17860:	26c10123          	sb	a2,610(sp)
   17864:	26b101a3          	sb	a1,611(sp)
   17868:	26a10223          	sb	a0,612(sp)
   1786c:	26510513          	addi	a0,sp,613
   17870:	6585                	lui	a1,0x1
   17872:	32458593          	addi	a1,a1,804 # 1324 <.Lline_table_start1+0x10f9>
   17876:	958a                	add	a1,a1,sp
   17878:	4645                	li	a2,17
   1787a:	00003097          	auipc	ra,0x3
   1787e:	28a080e7          	jalr	650(ra) # 1ab04 <memcpy>
   17882:	6505                	lui	a0,0x1
   17884:	38050513          	addi	a0,a0,896 # 1380 <.Lline_table_start1+0x1155>
   17888:	950a                	add	a0,a0,sp
   1788a:	25e10593          	addi	a1,sp,606
   1788e:	ffffb097          	auipc	ra,0xffffb
   17892:	a1c080e7          	jalr	-1508(ra) # 122aa <_ZN20complex_full_dynamic3app17h23c49050fba312a1E>
   17896:	3eca4503          	lbu	a0,1004(s4)
   1789a:	c119                	beqz	a0,178a0 <_start+0xc12>
   1789c:	67d0206f          	j	1a718 <_start+0x3a8a>
   178a0:	3eea4503          	lbu	a0,1006(s4)
   178a4:	3eda4583          	lbu	a1,1005(s4)
   178a8:	3efa4603          	lbu	a2,1007(s4)
   178ac:	3f0a2403          	lw	s0,1008(s4)
   178b0:	0522                	slli	a0,a0,0x8
   178b2:	8d4d                	or	a0,a0,a1
   178b4:	26a11b23          	sh	a0,630(sp)
   178b8:	26c10c23          	sb	a2,632(sp)
   178bc:	6505                	lui	a0,0x1
   178be:	38850513          	addi	a0,a0,904 # 1388 <.Lline_table_start1+0x115d>
   178c2:	00a105b3          	add	a1,sp,a0
   178c6:	6505                	lui	a0,0x1
   178c8:	32450513          	addi	a0,a0,804 # 1324 <.Lline_table_start1+0x10f9>
   178cc:	950a                	add	a0,a0,sp
   178ce:	02f00613          	li	a2,47
   178d2:	00003097          	auipc	ra,0x3
   178d6:	232080e7          	jalr	562(ra) # 1ab04 <memcpy>
   178da:	01845513          	srli	a0,s0,0x18
   178de:	01045593          	srli	a1,s0,0x10
   178e2:	00845613          	srli	a2,s0,0x8
   178e6:	26810ca3          	sb	s0,633(sp)
   178ea:	26c10d23          	sb	a2,634(sp)
   178ee:	26b10da3          	sb	a1,635(sp)
   178f2:	26a10e23          	sb	a0,636(sp)
   178f6:	27d10513          	addi	a0,sp,637
   178fa:	6585                	lui	a1,0x1
   178fc:	32458593          	addi	a1,a1,804 # 1324 <.Lline_table_start1+0x10f9>
   17900:	958a                	add	a1,a1,sp
   17902:	02f00613          	li	a2,47
   17906:	00003097          	auipc	ra,0x3
   1790a:	1fe080e7          	jalr	510(ra) # 1ab04 <memcpy>
   1790e:	6505                	lui	a0,0x1
   17910:	38050513          	addi	a0,a0,896 # 1380 <.Lline_table_start1+0x1155>
   17914:	950a                	add	a0,a0,sp
   17916:	27610593          	addi	a1,sp,630
   1791a:	ffffa097          	auipc	ra,0xffffa
   1791e:	2ba080e7          	jalr	698(ra) # 11bd4 <_ZN20complex_full_dynamic3app17h11ce49773bf30db0E>
   17922:	3eca4503          	lbu	a0,1004(s4)
   17926:	c119                	beqz	a0,1792c <_start+0xc9e>
   17928:	5f10206f          	j	1a718 <_start+0x3a8a>
   1792c:	3eea4503          	lbu	a0,1006(s4)
   17930:	3eda4583          	lbu	a1,1005(s4)
   17934:	3efa4603          	lbu	a2,1007(s4)
   17938:	3f0a2403          	lw	s0,1008(s4)
   1793c:	0522                	slli	a0,a0,0x8
   1793e:	8d4d                	or	a0,a0,a1
   17940:	2aa11623          	sh	a0,684(sp)
   17944:	2ac10723          	sb	a2,686(sp)
   17948:	6505                	lui	a0,0x1
   1794a:	38850513          	addi	a0,a0,904 # 1388 <.Lline_table_start1+0x115d>
   1794e:	00a105b3          	add	a1,sp,a0
   17952:	6505                	lui	a0,0x1
   17954:	32450513          	addi	a0,a0,804 # 1324 <.Lline_table_start1+0x10f9>
   17958:	950a                	add	a0,a0,sp
   1795a:	02d00613          	li	a2,45
   1795e:	00003097          	auipc	ra,0x3
   17962:	1a6080e7          	jalr	422(ra) # 1ab04 <memcpy>
   17966:	01845513          	srli	a0,s0,0x18
   1796a:	01045593          	srli	a1,s0,0x10
   1796e:	00845613          	srli	a2,s0,0x8
   17972:	2a8107a3          	sb	s0,687(sp)
   17976:	2ac10823          	sb	a2,688(sp)
   1797a:	2ab108a3          	sb	a1,689(sp)
   1797e:	2aa10923          	sb	a0,690(sp)
   17982:	2b310513          	addi	a0,sp,691
   17986:	6585                	lui	a1,0x1
   17988:	32458593          	addi	a1,a1,804 # 1324 <.Lline_table_start1+0x10f9>
   1798c:	958a                	add	a1,a1,sp
   1798e:	02d00613          	li	a2,45
   17992:	00003097          	auipc	ra,0x3
   17996:	172080e7          	jalr	370(ra) # 1ab04 <memcpy>
   1799a:	6505                	lui	a0,0x1
   1799c:	38050513          	addi	a0,a0,896 # 1380 <.Lline_table_start1+0x1155>
   179a0:	950a                	add	a0,a0,sp
   179a2:	156c                	addi	a1,sp,684
   179a4:	ffffd097          	auipc	ra,0xffffd
   179a8:	d02080e7          	jalr	-766(ra) # 146a6 <_ZN20complex_full_dynamic3app17h9fcd22ebc744bf44E>
   179ac:	3eca4503          	lbu	a0,1004(s4)
   179b0:	c119                	beqz	a0,179b6 <_start+0xd28>
   179b2:	5670206f          	j	1a718 <_start+0x3a8a>
   179b6:	3eea4503          	lbu	a0,1006(s4)
   179ba:	3eda4583          	lbu	a1,1005(s4)
   179be:	3efa4603          	lbu	a2,1007(s4)
   179c2:	3f0a2403          	lw	s0,1008(s4)
   179c6:	0522                	slli	a0,a0,0x8
   179c8:	8d4d                	or	a0,a0,a1
   179ca:	2ea11023          	sh	a0,736(sp)
   179ce:	2ec10123          	sb	a2,738(sp)
   179d2:	6505                	lui	a0,0x1
   179d4:	38850513          	addi	a0,a0,904 # 1388 <.Lline_table_start1+0x115d>
   179d8:	00a105b3          	add	a1,sp,a0
   179dc:	6505                	lui	a0,0x1
   179de:	32450513          	addi	a0,a0,804 # 1324 <.Lline_table_start1+0x10f9>
   179e2:	950a                	add	a0,a0,sp
   179e4:	02700613          	li	a2,39
   179e8:	00003097          	auipc	ra,0x3
   179ec:	11c080e7          	jalr	284(ra) # 1ab04 <memcpy>
   179f0:	01845513          	srli	a0,s0,0x18
   179f4:	01045593          	srli	a1,s0,0x10
   179f8:	00845613          	srli	a2,s0,0x8
   179fc:	2e8101a3          	sb	s0,739(sp)
   17a00:	2ec10223          	sb	a2,740(sp)
   17a04:	2eb102a3          	sb	a1,741(sp)
   17a08:	2ea10323          	sb	a0,742(sp)
   17a0c:	2e710513          	addi	a0,sp,743
   17a10:	6585                	lui	a1,0x1
   17a12:	32458593          	addi	a1,a1,804 # 1324 <.Lline_table_start1+0x10f9>
   17a16:	958a                	add	a1,a1,sp
   17a18:	02700613          	li	a2,39
   17a1c:	00003097          	auipc	ra,0x3
   17a20:	0e8080e7          	jalr	232(ra) # 1ab04 <memcpy>
   17a24:	6505                	lui	a0,0x1
   17a26:	38050513          	addi	a0,a0,896 # 1380 <.Lline_table_start1+0x1155>
   17a2a:	950a                	add	a0,a0,sp
   17a2c:	158c                	addi	a1,sp,736
   17a2e:	ffffe097          	auipc	ra,0xffffe
   17a32:	e00080e7          	jalr	-512(ra) # 1582e <_ZN20complex_full_dynamic3app17hce776d72f7213e63E>
   17a36:	3eca4503          	lbu	a0,1004(s4)
   17a3a:	c119                	beqz	a0,17a40 <_start+0xdb2>
   17a3c:	4dd0206f          	j	1a718 <_start+0x3a8a>
   17a40:	3eea4503          	lbu	a0,1006(s4)
   17a44:	3eda4583          	lbu	a1,1005(s4)
   17a48:	3efa4603          	lbu	a2,1007(s4)
   17a4c:	3f0a2403          	lw	s0,1008(s4)
   17a50:	0522                	slli	a0,a0,0x8
   17a52:	8d4d                	or	a0,a0,a1
   17a54:	30a11723          	sh	a0,782(sp)
   17a58:	30c10823          	sb	a2,784(sp)
   17a5c:	6505                	lui	a0,0x1
   17a5e:	38850513          	addi	a0,a0,904 # 1388 <.Lline_table_start1+0x115d>
   17a62:	00a105b3          	add	a1,sp,a0
   17a66:	6505                	lui	a0,0x1
   17a68:	32450513          	addi	a0,a0,804 # 1324 <.Lline_table_start1+0x10f9>
   17a6c:	950a                	add	a0,a0,sp
   17a6e:	03100613          	li	a2,49
   17a72:	00003097          	auipc	ra,0x3
   17a76:	092080e7          	jalr	146(ra) # 1ab04 <memcpy>
   17a7a:	01845513          	srli	a0,s0,0x18
   17a7e:	01045593          	srli	a1,s0,0x10
   17a82:	00845613          	srli	a2,s0,0x8
   17a86:	308108a3          	sb	s0,785(sp)
   17a8a:	30c10923          	sb	a2,786(sp)
   17a8e:	30b109a3          	sb	a1,787(sp)
   17a92:	30a10a23          	sb	a0,788(sp)
   17a96:	31510513          	addi	a0,sp,789
   17a9a:	6585                	lui	a1,0x1
   17a9c:	32458593          	addi	a1,a1,804 # 1324 <.Lline_table_start1+0x10f9>
   17aa0:	958a                	add	a1,a1,sp
   17aa2:	03100613          	li	a2,49
   17aa6:	00003097          	auipc	ra,0x3
   17aaa:	05e080e7          	jalr	94(ra) # 1ab04 <memcpy>
   17aae:	6505                	lui	a0,0x1
   17ab0:	38050513          	addi	a0,a0,896 # 1380 <.Lline_table_start1+0x1155>
   17ab4:	950a                	add	a0,a0,sp
   17ab6:	30e10593          	addi	a1,sp,782
   17aba:	ffffa097          	auipc	ra,0xffffa
   17abe:	504080e7          	jalr	1284(ra) # 11fbe <_ZN20complex_full_dynamic3app17h1a92b57070d6646dE>
   17ac2:	3eca4503          	lbu	a0,1004(s4)
   17ac6:	c119                	beqz	a0,17acc <_start+0xe3e>
   17ac8:	4510206f          	j	1a718 <_start+0x3a8a>
   17acc:	3eea4503          	lbu	a0,1006(s4)
   17ad0:	3eda4583          	lbu	a1,1005(s4)
   17ad4:	3efa4603          	lbu	a2,1007(s4)
   17ad8:	3f0a2403          	lw	s0,1008(s4)
   17adc:	0522                	slli	a0,a0,0x8
   17ade:	8d4d                	or	a0,a0,a1
   17ae0:	34a11323          	sh	a0,838(sp)
   17ae4:	34c10423          	sb	a2,840(sp)
   17ae8:	6505                	lui	a0,0x1
   17aea:	38850513          	addi	a0,a0,904 # 1388 <.Lline_table_start1+0x115d>
   17aee:	00a105b3          	add	a1,sp,a0
   17af2:	6505                	lui	a0,0x1
   17af4:	32450513          	addi	a0,a0,804 # 1324 <.Lline_table_start1+0x10f9>
   17af8:	950a                	add	a0,a0,sp
   17afa:	02d00613          	li	a2,45
   17afe:	00003097          	auipc	ra,0x3
   17b02:	006080e7          	jalr	6(ra) # 1ab04 <memcpy>
   17b06:	01845513          	srli	a0,s0,0x18
   17b0a:	01045593          	srli	a1,s0,0x10
   17b0e:	00845613          	srli	a2,s0,0x8
   17b12:	348104a3          	sb	s0,841(sp)
   17b16:	34c10523          	sb	a2,842(sp)
   17b1a:	34b105a3          	sb	a1,843(sp)
   17b1e:	34a10623          	sb	a0,844(sp)
   17b22:	34d10513          	addi	a0,sp,845
   17b26:	6585                	lui	a1,0x1
   17b28:	32458593          	addi	a1,a1,804 # 1324 <.Lline_table_start1+0x10f9>
   17b2c:	958a                	add	a1,a1,sp
   17b2e:	02d00613          	li	a2,45
   17b32:	00003097          	auipc	ra,0x3
   17b36:	fd2080e7          	jalr	-46(ra) # 1ab04 <memcpy>
   17b3a:	6505                	lui	a0,0x1
   17b3c:	38050513          	addi	a0,a0,896 # 1380 <.Lline_table_start1+0x1155>
   17b40:	950a                	add	a0,a0,sp
   17b42:	34610593          	addi	a1,sp,838
   17b46:	ffffa097          	auipc	ra,0xffffa
   17b4a:	9d2080e7          	jalr	-1582(ra) # 11518 <_ZN20complex_full_dynamic3app17h07dd6f42fa72c55cE>
   17b4e:	3eca4503          	lbu	a0,1004(s4)
   17b52:	c119                	beqz	a0,17b58 <_start+0xeca>
   17b54:	3c50206f          	j	1a718 <_start+0x3a8a>
   17b58:	3eea4503          	lbu	a0,1006(s4)
   17b5c:	3eda4583          	lbu	a1,1005(s4)
   17b60:	3efa4603          	lbu	a2,1007(s4)
   17b64:	3f0a2403          	lw	s0,1008(s4)
   17b68:	0522                	slli	a0,a0,0x8
   17b6a:	8d4d                	or	a0,a0,a1
   17b6c:	36a11d23          	sh	a0,890(sp)
   17b70:	36c10e23          	sb	a2,892(sp)
   17b74:	6505                	lui	a0,0x1
   17b76:	38850513          	addi	a0,a0,904 # 1388 <.Lline_table_start1+0x115d>
   17b7a:	00a105b3          	add	a1,sp,a0
   17b7e:	6505                	lui	a0,0x1
   17b80:	32450513          	addi	a0,a0,804 # 1324 <.Lline_table_start1+0x10f9>
   17b84:	950a                	add	a0,a0,sp
   17b86:	464d                	li	a2,19
   17b88:	00003097          	auipc	ra,0x3
   17b8c:	f7c080e7          	jalr	-132(ra) # 1ab04 <memcpy>
   17b90:	01845513          	srli	a0,s0,0x18
   17b94:	01045593          	srli	a1,s0,0x10
   17b98:	00845613          	srli	a2,s0,0x8
   17b9c:	36810ea3          	sb	s0,893(sp)
   17ba0:	36c10f23          	sb	a2,894(sp)
   17ba4:	36b10fa3          	sb	a1,895(sp)
   17ba8:	38a10023          	sb	a0,896(sp)
   17bac:	38110513          	addi	a0,sp,897
   17bb0:	6585                	lui	a1,0x1
   17bb2:	32458593          	addi	a1,a1,804 # 1324 <.Lline_table_start1+0x10f9>
   17bb6:	958a                	add	a1,a1,sp
   17bb8:	464d                	li	a2,19
   17bba:	00003097          	auipc	ra,0x3
   17bbe:	f4a080e7          	jalr	-182(ra) # 1ab04 <memcpy>
   17bc2:	6505                	lui	a0,0x1
   17bc4:	38050513          	addi	a0,a0,896 # 1380 <.Lline_table_start1+0x1155>
   17bc8:	950a                	add	a0,a0,sp
   17bca:	37a10593          	addi	a1,sp,890
   17bce:	ffffc097          	auipc	ra,0xffffc
   17bd2:	7f4080e7          	jalr	2036(ra) # 143c2 <_ZN20complex_full_dynamic3app17h98c19241ae7648a8E>
   17bd6:	3eca4503          	lbu	a0,1004(s4)
   17bda:	c119                	beqz	a0,17be0 <_start+0xf52>
   17bdc:	33d0206f          	j	1a718 <_start+0x3a8a>
   17be0:	3eea4503          	lbu	a0,1006(s4)
   17be4:	3eda4583          	lbu	a1,1005(s4)
   17be8:	3efa4603          	lbu	a2,1007(s4)
   17bec:	3f0a2403          	lw	s0,1008(s4)
   17bf0:	0522                	slli	a0,a0,0x8
   17bf2:	8d4d                	or	a0,a0,a1
   17bf4:	38a11a23          	sh	a0,916(sp)
   17bf8:	38c10b23          	sb	a2,918(sp)
   17bfc:	6505                	lui	a0,0x1
   17bfe:	38850513          	addi	a0,a0,904 # 1388 <.Lline_table_start1+0x115d>
   17c02:	00a105b3          	add	a1,sp,a0
   17c06:	6505                	lui	a0,0x1
   17c08:	32450513          	addi	a0,a0,804 # 1324 <.Lline_table_start1+0x10f9>
   17c0c:	950a                	add	a0,a0,sp
   17c0e:	04900613          	li	a2,73
   17c12:	00003097          	auipc	ra,0x3
   17c16:	ef2080e7          	jalr	-270(ra) # 1ab04 <memcpy>
   17c1a:	01845513          	srli	a0,s0,0x18
   17c1e:	01045593          	srli	a1,s0,0x10
   17c22:	00845613          	srli	a2,s0,0x8
   17c26:	38810ba3          	sb	s0,919(sp)
   17c2a:	38c10c23          	sb	a2,920(sp)
   17c2e:	38b10ca3          	sb	a1,921(sp)
   17c32:	38a10d23          	sb	a0,922(sp)
   17c36:	39b10513          	addi	a0,sp,923
   17c3a:	6585                	lui	a1,0x1
   17c3c:	32458593          	addi	a1,a1,804 # 1324 <.Lline_table_start1+0x10f9>
   17c40:	958a                	add	a1,a1,sp
   17c42:	04900613          	li	a2,73
   17c46:	00003097          	auipc	ra,0x3
   17c4a:	ebe080e7          	jalr	-322(ra) # 1ab04 <memcpy>
   17c4e:	6505                	lui	a0,0x1
   17c50:	38050513          	addi	a0,a0,896 # 1380 <.Lline_table_start1+0x1155>
   17c54:	950a                	add	a0,a0,sp
   17c56:	0f4c                	addi	a1,sp,916
   17c58:	ffff9097          	auipc	ra,0xffff9
   17c5c:	5d6080e7          	jalr	1494(ra) # 1122e <_ZN20complex_full_dynamic3app17h0433f12aa2de99d9E>
   17c60:	3eca4503          	lbu	a0,1004(s4)
   17c64:	c119                	beqz	a0,17c6a <_start+0xfdc>
   17c66:	2b30206f          	j	1a718 <_start+0x3a8a>
   17c6a:	3eea4503          	lbu	a0,1006(s4)
   17c6e:	3eda4583          	lbu	a1,1005(s4)
   17c72:	3efa4603          	lbu	a2,1007(s4)
   17c76:	3f0a2403          	lw	s0,1008(s4)
   17c7a:	0522                	slli	a0,a0,0x8
   17c7c:	8d4d                	or	a0,a0,a1
   17c7e:	3ea11223          	sh	a0,996(sp)
   17c82:	3ec10323          	sb	a2,998(sp)
   17c86:	6505                	lui	a0,0x1
   17c88:	38850513          	addi	a0,a0,904 # 1388 <.Lline_table_start1+0x115d>
   17c8c:	00a105b3          	add	a1,sp,a0
   17c90:	6505                	lui	a0,0x1
   17c92:	32450513          	addi	a0,a0,804 # 1324 <.Lline_table_start1+0x10f9>
   17c96:	950a                	add	a0,a0,sp
   17c98:	03500613          	li	a2,53
   17c9c:	00003097          	auipc	ra,0x3
   17ca0:	e68080e7          	jalr	-408(ra) # 1ab04 <memcpy>
   17ca4:	01845513          	srli	a0,s0,0x18
   17ca8:	01045593          	srli	a1,s0,0x10
   17cac:	00845613          	srli	a2,s0,0x8
   17cb0:	3e8103a3          	sb	s0,999(sp)
   17cb4:	3ec10423          	sb	a2,1000(sp)
   17cb8:	3eb104a3          	sb	a1,1001(sp)
   17cbc:	3ea10523          	sb	a0,1002(sp)
   17cc0:	3eb10513          	addi	a0,sp,1003
   17cc4:	6585                	lui	a1,0x1
   17cc6:	32458593          	addi	a1,a1,804 # 1324 <.Lline_table_start1+0x10f9>
   17cca:	958a                	add	a1,a1,sp
   17ccc:	03500613          	li	a2,53
   17cd0:	00003097          	auipc	ra,0x3
   17cd4:	e34080e7          	jalr	-460(ra) # 1ab04 <memcpy>
   17cd8:	6505                	lui	a0,0x1
   17cda:	38050513          	addi	a0,a0,896 # 1380 <.Lline_table_start1+0x1155>
   17cde:	950a                	add	a0,a0,sp
   17ce0:	17cc                	addi	a1,sp,996
   17ce2:	ffffd097          	auipc	ra,0xffffd
   17ce6:	bbc080e7          	jalr	-1092(ra) # 1489e <_ZN20complex_full_dynamic3app17ha435e510abf79030E>
   17cea:	3eca4503          	lbu	a0,1004(s4)
   17cee:	c119                	beqz	a0,17cf4 <_start+0x1066>
   17cf0:	2290206f          	j	1a718 <_start+0x3a8a>
   17cf4:	3eea4503          	lbu	a0,1006(s4)
   17cf8:	3eda4583          	lbu	a1,1005(s4)
   17cfc:	3efa4603          	lbu	a2,1007(s4)
   17d00:	3f0a2403          	lw	s0,1008(s4)
   17d04:	0522                	slli	a0,a0,0x8
   17d06:	8d4d                	or	a0,a0,a1
   17d08:	42a11023          	sh	a0,1056(sp)
   17d0c:	42c10123          	sb	a2,1058(sp)
   17d10:	6505                	lui	a0,0x1
   17d12:	38850513          	addi	a0,a0,904 # 1388 <.Lline_table_start1+0x115d>
   17d16:	00a105b3          	add	a1,sp,a0
   17d1a:	6505                	lui	a0,0x1
   17d1c:	32450513          	addi	a0,a0,804 # 1324 <.Lline_table_start1+0x10f9>
   17d20:	950a                	add	a0,a0,sp
   17d22:	02b00613          	li	a2,43
   17d26:	00003097          	auipc	ra,0x3
   17d2a:	dde080e7          	jalr	-546(ra) # 1ab04 <memcpy>
   17d2e:	01845513          	srli	a0,s0,0x18
   17d32:	01045593          	srli	a1,s0,0x10
   17d36:	00845613          	srli	a2,s0,0x8
   17d3a:	428101a3          	sb	s0,1059(sp)
   17d3e:	42c10223          	sb	a2,1060(sp)
   17d42:	42b102a3          	sb	a1,1061(sp)
   17d46:	42a10323          	sb	a0,1062(sp)
   17d4a:	42710513          	addi	a0,sp,1063
   17d4e:	6585                	lui	a1,0x1
   17d50:	32458593          	addi	a1,a1,804 # 1324 <.Lline_table_start1+0x10f9>
   17d54:	958a                	add	a1,a1,sp
   17d56:	02b00613          	li	a2,43
   17d5a:	00003097          	auipc	ra,0x3
   17d5e:	daa080e7          	jalr	-598(ra) # 1ab04 <memcpy>
   17d62:	6505                	lui	a0,0x1
   17d64:	38050513          	addi	a0,a0,896 # 1380 <.Lline_table_start1+0x1155>
   17d68:	950a                	add	a0,a0,sp
   17d6a:	42010593          	addi	a1,sp,1056
   17d6e:	fffff097          	auipc	ra,0xfffff
   17d72:	c38080e7          	jalr	-968(ra) # 169a6 <_ZN20complex_full_dynamic3app17hfc9279c58c66eea6E>
   17d76:	3eca4503          	lbu	a0,1004(s4)
   17d7a:	c119                	beqz	a0,17d80 <_start+0x10f2>
   17d7c:	19d0206f          	j	1a718 <_start+0x3a8a>
   17d80:	3eea4503          	lbu	a0,1006(s4)
   17d84:	3eda4583          	lbu	a1,1005(s4)
   17d88:	3efa4603          	lbu	a2,1007(s4)
   17d8c:	3f0a2403          	lw	s0,1008(s4)
   17d90:	0522                	slli	a0,a0,0x8
   17d92:	8d4d                	or	a0,a0,a1
   17d94:	44a11923          	sh	a0,1106(sp)
   17d98:	44c10a23          	sb	a2,1108(sp)
   17d9c:	6505                	lui	a0,0x1
   17d9e:	38850513          	addi	a0,a0,904 # 1388 <.Lline_table_start1+0x115d>
   17da2:	00a105b3          	add	a1,sp,a0
   17da6:	6505                	lui	a0,0x1
   17da8:	32450513          	addi	a0,a0,804 # 1324 <.Lline_table_start1+0x10f9>
   17dac:	950a                	add	a0,a0,sp
   17dae:	02b00613          	li	a2,43
   17db2:	00003097          	auipc	ra,0x3
   17db6:	d52080e7          	jalr	-686(ra) # 1ab04 <memcpy>
   17dba:	01845513          	srli	a0,s0,0x18
   17dbe:	01045593          	srli	a1,s0,0x10
   17dc2:	00845613          	srli	a2,s0,0x8
   17dc6:	44810aa3          	sb	s0,1109(sp)
   17dca:	44c10b23          	sb	a2,1110(sp)
   17dce:	44b10ba3          	sb	a1,1111(sp)
   17dd2:	44a10c23          	sb	a0,1112(sp)
   17dd6:	45910513          	addi	a0,sp,1113
   17dda:	6585                	lui	a1,0x1
   17ddc:	32458593          	addi	a1,a1,804 # 1324 <.Lline_table_start1+0x10f9>
   17de0:	958a                	add	a1,a1,sp
   17de2:	02b00613          	li	a2,43
   17de6:	00003097          	auipc	ra,0x3
   17dea:	d1e080e7          	jalr	-738(ra) # 1ab04 <memcpy>
   17dee:	6505                	lui	a0,0x1
   17df0:	38050513          	addi	a0,a0,896 # 1380 <.Lline_table_start1+0x1155>
   17df4:	950a                	add	a0,a0,sp
   17df6:	45210593          	addi	a1,sp,1106
   17dfa:	ffffe097          	auipc	ra,0xffffe
   17dfe:	c28080e7          	jalr	-984(ra) # 15a22 <_ZN20complex_full_dynamic3app17hd353fefa5ab011c5E>
   17e02:	3eca4503          	lbu	a0,1004(s4)
   17e06:	c119                	beqz	a0,17e0c <_start+0x117e>
   17e08:	1110206f          	j	1a718 <_start+0x3a8a>
   17e0c:	3eda4503          	lbu	a0,1005(s4)
   17e10:	3eea4583          	lbu	a1,1006(s4)
   17e14:	3efa4603          	lbu	a2,1007(s4)
   17e18:	3f0a2683          	lw	a3,1008(s4)
   17e1c:	3f4a2703          	lw	a4,1012(s4)
   17e20:	3f8a2783          	lw	a5,1016(s4)
   17e24:	3fca4483          	lbu	s1,1020(s4)
   17e28:	05a2                	slli	a1,a1,0x8
   17e2a:	38ea2823          	sw	a4,912(s4)
   17e2e:	38fa2a23          	sw	a5,916(s4)
   17e32:	389a0c23          	sb	s1,920(s4)
   17e36:	0186d713          	srli	a4,a3,0x18
   17e3a:	8d4d                	or	a0,a0,a1
   17e3c:	0106d593          	srli	a1,a3,0x10
   17e40:	48b104a3          	sb	a1,1161(sp)
   17e44:	48e10523          	sb	a4,1162(sp)
   17e48:	0086d593          	srli	a1,a3,0x8
   17e4c:	48a11223          	sh	a0,1156(sp)
   17e50:	48c10323          	sb	a2,1158(sp)
   17e54:	48d103a3          	sb	a3,1159(sp)
   17e58:	48b10423          	sb	a1,1160(sp)
   17e5c:	48b10513          	addi	a0,sp,1163
   17e60:	6585                	lui	a1,0x1
   17e62:	32458593          	addi	a1,a1,804 # 1324 <.Lline_table_start1+0x10f9>
   17e66:	958a                	add	a1,a1,sp
   17e68:	4625                	li	a2,9
   17e6a:	00003097          	auipc	ra,0x3
   17e6e:	c9a080e7          	jalr	-870(ra) # 1ab04 <memcpy>
   17e72:	6505                	lui	a0,0x1
   17e74:	38050513          	addi	a0,a0,896 # 1380 <.Lline_table_start1+0x1155>
   17e78:	950a                	add	a0,a0,sp
   17e7a:	48410593          	addi	a1,sp,1156
   17e7e:	ffffb097          	auipc	ra,0xffffb
   17e82:	810080e7          	jalr	-2032(ra) # 1268e <_ZN20complex_full_dynamic3app17h320e99293bd79ca1E>
   17e86:	3eca4503          	lbu	a0,1004(s4)
   17e8a:	c119                	beqz	a0,17e90 <_start+0x1202>
   17e8c:	08d0206f          	j	1a718 <_start+0x3a8a>
   17e90:	3eea4503          	lbu	a0,1006(s4)
   17e94:	3eda4583          	lbu	a1,1005(s4)
   17e98:	3efa4603          	lbu	a2,1007(s4)
   17e9c:	3f0a2403          	lw	s0,1008(s4)
   17ea0:	0522                	slli	a0,a0,0x8
   17ea2:	8d4d                	or	a0,a0,a1
   17ea4:	48a11a23          	sh	a0,1172(sp)
   17ea8:	48c10b23          	sb	a2,1174(sp)
   17eac:	6505                	lui	a0,0x1
   17eae:	38850513          	addi	a0,a0,904 # 1388 <.Lline_table_start1+0x115d>
   17eb2:	00a105b3          	add	a1,sp,a0
   17eb6:	6505                	lui	a0,0x1
   17eb8:	32450513          	addi	a0,a0,804 # 1324 <.Lline_table_start1+0x10f9>
   17ebc:	950a                	add	a0,a0,sp
   17ebe:	02f00613          	li	a2,47
   17ec2:	00003097          	auipc	ra,0x3
   17ec6:	c42080e7          	jalr	-958(ra) # 1ab04 <memcpy>
   17eca:	01845513          	srli	a0,s0,0x18
   17ece:	01045593          	srli	a1,s0,0x10
   17ed2:	00845613          	srli	a2,s0,0x8
   17ed6:	48810ba3          	sb	s0,1175(sp)
   17eda:	48c10c23          	sb	a2,1176(sp)
   17ede:	48b10ca3          	sb	a1,1177(sp)
   17ee2:	48a10d23          	sb	a0,1178(sp)
   17ee6:	49b10513          	addi	a0,sp,1179
   17eea:	6585                	lui	a1,0x1
   17eec:	32458593          	addi	a1,a1,804 # 1324 <.Lline_table_start1+0x10f9>
   17ef0:	958a                	add	a1,a1,sp
   17ef2:	02f00613          	li	a2,47
   17ef6:	00003097          	auipc	ra,0x3
   17efa:	c0e080e7          	jalr	-1010(ra) # 1ab04 <memcpy>
   17efe:	6505                	lui	a0,0x1
   17f00:	38050513          	addi	a0,a0,896 # 1380 <.Lline_table_start1+0x1155>
   17f04:	950a                	add	a0,a0,sp
   17f06:	49410593          	addi	a1,sp,1172
   17f0a:	ffffd097          	auipc	ra,0xffffd
   17f0e:	c82080e7          	jalr	-894(ra) # 14b8c <_ZN20complex_full_dynamic3app17ha8a0450c3f4d12edE>
   17f12:	3eca4503          	lbu	a0,1004(s4)
   17f16:	c119                	beqz	a0,17f1c <_start+0x128e>
   17f18:	0010206f          	j	1a718 <_start+0x3a8a>
   17f1c:	3eda4503          	lbu	a0,1005(s4)
   17f20:	3eea4583          	lbu	a1,1006(s4)
   17f24:	3efa4803          	lbu	a6,1007(s4)
   17f28:	3f0a2683          	lw	a3,1008(s4)
   17f2c:	3f4a2703          	lw	a4,1012(s4)
   17f30:	3f8a2783          	lw	a5,1016(s4)
   17f34:	05a2                	slli	a1,a1,0x8
   17f36:	0186d893          	srli	a7,a3,0x18
   17f3a:	0106d293          	srli	t0,a3,0x10
   17f3e:	0187d613          	srli	a2,a5,0x18
   17f42:	0107d493          	srli	s1,a5,0x10
   17f46:	0087d413          	srli	s0,a5,0x8
   17f4a:	8d4d                	or	a0,a0,a1
   17f4c:	01875593          	srli	a1,a4,0x18
   17f50:	4c910ba3          	sb	s1,1239(sp)
   17f54:	4cc10c23          	sb	a2,1240(sp)
   17f58:	01075613          	srli	a2,a4,0x10
   17f5c:	4cc109a3          	sb	a2,1235(sp)
   17f60:	4cb10a23          	sb	a1,1236(sp)
   17f64:	4cf10aa3          	sb	a5,1237(sp)
   17f68:	4c810b23          	sb	s0,1238(sp)
   17f6c:	0086d593          	srli	a1,a3,0x8
   17f70:	4ca11523          	sh	a0,1226(sp)
   17f74:	4d010623          	sb	a6,1228(sp)
   17f78:	4cd106a3          	sb	a3,1229(sp)
   17f7c:	4cb10723          	sb	a1,1230(sp)
   17f80:	00875513          	srli	a0,a4,0x8
   17f84:	4c5107a3          	sb	t0,1231(sp)
   17f88:	4d110823          	sb	a7,1232(sp)
   17f8c:	4ce108a3          	sb	a4,1233(sp)
   17f90:	4ca10923          	sb	a0,1234(sp)
   17f94:	6505                	lui	a0,0x1
   17f96:	38050513          	addi	a0,a0,896 # 1380 <.Lline_table_start1+0x1155>
   17f9a:	950a                	add	a0,a0,sp
   17f9c:	4ca10593          	addi	a1,sp,1226
   17fa0:	ffffb097          	auipc	ra,0xffffb
   17fa4:	dca080e7          	jalr	-566(ra) # 12d6a <_ZN20complex_full_dynamic3app17h4665bddbae6796ebE>
   17fa8:	3eca4503          	lbu	a0,1004(s4)
   17fac:	c119                	beqz	a0,17fb2 <_start+0x1324>
   17fae:	76a0206f          	j	1a718 <_start+0x3a8a>
   17fb2:	3eda4503          	lbu	a0,1005(s4)
   17fb6:	3eea4583          	lbu	a1,1006(s4)
   17fba:	3efa4603          	lbu	a2,1007(s4)
   17fbe:	3f0a2683          	lw	a3,1008(s4)
   17fc2:	3f4a2703          	lw	a4,1012(s4)
   17fc6:	3f8a2783          	lw	a5,1016(s4)
   17fca:	3fca2483          	lw	s1,1020(s4)
   17fce:	05a2                	slli	a1,a1,0x8
   17fd0:	38ea2823          	sw	a4,912(s4)
   17fd4:	38fa2a23          	sw	a5,916(s4)
   17fd8:	389a2c23          	sw	s1,920(s4)
   17fdc:	0186d713          	srli	a4,a3,0x18
   17fe0:	8d4d                	or	a0,a0,a1
   17fe2:	0106d593          	srli	a1,a3,0x10
   17fe6:	4cb10fa3          	sb	a1,1247(sp)
   17fea:	4ee10023          	sb	a4,1248(sp)
   17fee:	0086d593          	srli	a1,a3,0x8
   17ff2:	4ca11d23          	sh	a0,1242(sp)
   17ff6:	4cc10e23          	sb	a2,1244(sp)
   17ffa:	4cd10ea3          	sb	a3,1245(sp)
   17ffe:	4cb10f23          	sb	a1,1246(sp)
   18002:	4e110513          	addi	a0,sp,1249
   18006:	6585                	lui	a1,0x1
   18008:	32458593          	addi	a1,a1,804 # 1324 <.Lline_table_start1+0x10f9>
   1800c:	958a                	add	a1,a1,sp
   1800e:	4631                	li	a2,12
   18010:	00003097          	auipc	ra,0x3
   18014:	af4080e7          	jalr	-1292(ra) # 1ab04 <memcpy>
   18018:	6505                	lui	a0,0x1
   1801a:	38050513          	addi	a0,a0,896 # 1380 <.Lline_table_start1+0x1155>
   1801e:	950a                	add	a0,a0,sp
   18020:	4da10593          	addi	a1,sp,1242
   18024:	ffffa097          	auipc	ra,0xffffa
   18028:	caa080e7          	jalr	-854(ra) # 11cce <_ZN20complex_full_dynamic3app17h12fc721522023056E>
   1802c:	3eca4503          	lbu	a0,1004(s4)
   18030:	c119                	beqz	a0,18036 <_start+0x13a8>
   18032:	6e60206f          	j	1a718 <_start+0x3a8a>
   18036:	3eea4503          	lbu	a0,1006(s4)
   1803a:	3eda4583          	lbu	a1,1005(s4)
   1803e:	3efa4603          	lbu	a2,1007(s4)
   18042:	3f0a2403          	lw	s0,1008(s4)
   18046:	0522                	slli	a0,a0,0x8
   18048:	8d4d                	or	a0,a0,a1
   1804a:	4ea11723          	sh	a0,1262(sp)
   1804e:	4ec10823          	sb	a2,1264(sp)
   18052:	6505                	lui	a0,0x1
   18054:	38850513          	addi	a0,a0,904 # 1388 <.Lline_table_start1+0x115d>
   18058:	00a105b3          	add	a1,sp,a0
   1805c:	6505                	lui	a0,0x1
   1805e:	32450513          	addi	a0,a0,804 # 1324 <.Lline_table_start1+0x10f9>
   18062:	950a                	add	a0,a0,sp
   18064:	04e00613          	li	a2,78
   18068:	00003097          	auipc	ra,0x3
   1806c:	a9c080e7          	jalr	-1380(ra) # 1ab04 <memcpy>
   18070:	01845513          	srli	a0,s0,0x18
   18074:	01045593          	srli	a1,s0,0x10
   18078:	00845613          	srli	a2,s0,0x8
   1807c:	4e8108a3          	sb	s0,1265(sp)
   18080:	4ec10923          	sb	a2,1266(sp)
   18084:	4eb109a3          	sb	a1,1267(sp)
   18088:	4ea10a23          	sb	a0,1268(sp)
   1808c:	4f510513          	addi	a0,sp,1269
   18090:	6585                	lui	a1,0x1
   18092:	32458593          	addi	a1,a1,804 # 1324 <.Lline_table_start1+0x10f9>
   18096:	958a                	add	a1,a1,sp
   18098:	04e00613          	li	a2,78
   1809c:	00003097          	auipc	ra,0x3
   180a0:	a68080e7          	jalr	-1432(ra) # 1ab04 <memcpy>
   180a4:	6505                	lui	a0,0x1
   180a6:	38050513          	addi	a0,a0,896 # 1380 <.Lline_table_start1+0x1155>
   180aa:	950a                	add	a0,a0,sp
   180ac:	4ee10593          	addi	a1,sp,1262
   180b0:	ffffb097          	auipc	ra,0xffffb
   180b4:	190080e7          	jalr	400(ra) # 13240 <_ZN20complex_full_dynamic3app17h539e4f64e5cf3cc8E>
   180b8:	3eca4503          	lbu	a0,1004(s4)
   180bc:	c119                	beqz	a0,180c2 <_start+0x1434>
   180be:	65a0206f          	j	1a718 <_start+0x3a8a>
   180c2:	3eea4503          	lbu	a0,1006(s4)
   180c6:	3eda4583          	lbu	a1,1005(s4)
   180ca:	3efa4603          	lbu	a2,1007(s4)
   180ce:	3f0a2403          	lw	s0,1008(s4)
   180d2:	0522                	slli	a0,a0,0x8
   180d4:	8d4d                	or	a0,a0,a1
   180d6:	54a11223          	sh	a0,1348(sp)
   180da:	54c10323          	sb	a2,1350(sp)
   180de:	6505                	lui	a0,0x1
   180e0:	38850513          	addi	a0,a0,904 # 1388 <.Lline_table_start1+0x115d>
   180e4:	00a105b3          	add	a1,sp,a0
   180e8:	6505                	lui	a0,0x1
   180ea:	32450513          	addi	a0,a0,804 # 1324 <.Lline_table_start1+0x10f9>
   180ee:	950a                	add	a0,a0,sp
   180f0:	02b00613          	li	a2,43
   180f4:	00003097          	auipc	ra,0x3
   180f8:	a10080e7          	jalr	-1520(ra) # 1ab04 <memcpy>
   180fc:	01845513          	srli	a0,s0,0x18
   18100:	01045593          	srli	a1,s0,0x10
   18104:	00845613          	srli	a2,s0,0x8
   18108:	548103a3          	sb	s0,1351(sp)
   1810c:	54c10423          	sb	a2,1352(sp)
   18110:	54b104a3          	sb	a1,1353(sp)
   18114:	54a10523          	sb	a0,1354(sp)
   18118:	54b10513          	addi	a0,sp,1355
   1811c:	6585                	lui	a1,0x1
   1811e:	32458593          	addi	a1,a1,804 # 1324 <.Lline_table_start1+0x10f9>
   18122:	958a                	add	a1,a1,sp
   18124:	02b00613          	li	a2,43
   18128:	00003097          	auipc	ra,0x3
   1812c:	9dc080e7          	jalr	-1572(ra) # 1ab04 <memcpy>
   18130:	6505                	lui	a0,0x1
   18132:	38050513          	addi	a0,a0,896 # 1380 <.Lline_table_start1+0x1155>
   18136:	950a                	add	a0,a0,sp
   18138:	54410593          	addi	a1,sp,1348
   1813c:	ffffd097          	auipc	ra,0xffffd
   18140:	30a080e7          	jalr	778(ra) # 15446 <_ZN20complex_full_dynamic3app17hc572b7c13c1b9240E>
   18144:	3eca4503          	lbu	a0,1004(s4)
   18148:	c119                	beqz	a0,1814e <_start+0x14c0>
   1814a:	5ce0206f          	j	1a718 <_start+0x3a8a>
   1814e:	3eea4503          	lbu	a0,1006(s4)
   18152:	3eda4583          	lbu	a1,1005(s4)
   18156:	3efa4603          	lbu	a2,1007(s4)
   1815a:	3f0a2403          	lw	s0,1008(s4)
   1815e:	0522                	slli	a0,a0,0x8
   18160:	8d4d                	or	a0,a0,a1
   18162:	56a11b23          	sh	a0,1398(sp)
   18166:	56c10c23          	sb	a2,1400(sp)
   1816a:	6505                	lui	a0,0x1
   1816c:	38850513          	addi	a0,a0,904 # 1388 <.Lline_table_start1+0x115d>
   18170:	00a105b3          	add	a1,sp,a0
   18174:	6505                	lui	a0,0x1
   18176:	32450513          	addi	a0,a0,804 # 1324 <.Lline_table_start1+0x10f9>
   1817a:	950a                	add	a0,a0,sp
   1817c:	03a00613          	li	a2,58
   18180:	00003097          	auipc	ra,0x3
   18184:	984080e7          	jalr	-1660(ra) # 1ab04 <memcpy>
   18188:	01845513          	srli	a0,s0,0x18
   1818c:	01045593          	srli	a1,s0,0x10
   18190:	00845613          	srli	a2,s0,0x8
   18194:	56810ca3          	sb	s0,1401(sp)
   18198:	56c10d23          	sb	a2,1402(sp)
   1819c:	56b10da3          	sb	a1,1403(sp)
   181a0:	56a10e23          	sb	a0,1404(sp)
   181a4:	57d10513          	addi	a0,sp,1405
   181a8:	6585                	lui	a1,0x1
   181aa:	32458593          	addi	a1,a1,804 # 1324 <.Lline_table_start1+0x10f9>
   181ae:	958a                	add	a1,a1,sp
   181b0:	03a00613          	li	a2,58
   181b4:	00003097          	auipc	ra,0x3
   181b8:	950080e7          	jalr	-1712(ra) # 1ab04 <memcpy>
   181bc:	6505                	lui	a0,0x1
   181be:	38050513          	addi	a0,a0,896 # 1380 <.Lline_table_start1+0x1155>
   181c2:	950a                	add	a0,a0,sp
   181c4:	57610593          	addi	a1,sp,1398
   181c8:	ffffe097          	auipc	ra,0xffffe
   181cc:	948080e7          	jalr	-1720(ra) # 15b10 <_ZN20complex_full_dynamic3app17hd5b000dfd39d89edE>
   181d0:	3eca4503          	lbu	a0,1004(s4)
   181d4:	c119                	beqz	a0,181da <_start+0x154c>
   181d6:	5420206f          	j	1a718 <_start+0x3a8a>
   181da:	3eea4503          	lbu	a0,1006(s4)
   181de:	3eda4583          	lbu	a1,1005(s4)
   181e2:	3efa4603          	lbu	a2,1007(s4)
   181e6:	3f0a2403          	lw	s0,1008(s4)
   181ea:	0522                	slli	a0,a0,0x8
   181ec:	8d4d                	or	a0,a0,a1
   181ee:	5aa11c23          	sh	a0,1464(sp)
   181f2:	5ac10d23          	sb	a2,1466(sp)
   181f6:	6505                	lui	a0,0x1
   181f8:	38850513          	addi	a0,a0,904 # 1388 <.Lline_table_start1+0x115d>
   181fc:	00a105b3          	add	a1,sp,a0
   18200:	6505                	lui	a0,0x1
   18202:	32450513          	addi	a0,a0,804 # 1324 <.Lline_table_start1+0x10f9>
   18206:	950a                	add	a0,a0,sp
   18208:	466d                	li	a2,27
   1820a:	00003097          	auipc	ra,0x3
   1820e:	8fa080e7          	jalr	-1798(ra) # 1ab04 <memcpy>
   18212:	01845513          	srli	a0,s0,0x18
   18216:	01045593          	srli	a1,s0,0x10
   1821a:	00845613          	srli	a2,s0,0x8
   1821e:	5a810da3          	sb	s0,1467(sp)
   18222:	5ac10e23          	sb	a2,1468(sp)
   18226:	5ab10ea3          	sb	a1,1469(sp)
   1822a:	5aa10f23          	sb	a0,1470(sp)
   1822e:	5bf10513          	addi	a0,sp,1471
   18232:	6585                	lui	a1,0x1
   18234:	32458593          	addi	a1,a1,804 # 1324 <.Lline_table_start1+0x10f9>
   18238:	958a                	add	a1,a1,sp
   1823a:	466d                	li	a2,27
   1823c:	00003097          	auipc	ra,0x3
   18240:	8c8080e7          	jalr	-1848(ra) # 1ab04 <memcpy>
   18244:	6505                	lui	a0,0x1
   18246:	38050513          	addi	a0,a0,896 # 1380 <.Lline_table_start1+0x1155>
   1824a:	950a                	add	a0,a0,sp
   1824c:	5b810593          	addi	a1,sp,1464
   18250:	ffffc097          	auipc	ra,0xffffc
   18254:	072080e7          	jalr	114(ra) # 142c2 <_ZN20complex_full_dynamic3app17h968bca099936ecccE>
   18258:	3eca4503          	lbu	a0,1004(s4)
   1825c:	c119                	beqz	a0,18262 <_start+0x15d4>
   1825e:	4ba0206f          	j	1a718 <_start+0x3a8a>
   18262:	3eea4503          	lbu	a0,1006(s4)
   18266:	3eda4583          	lbu	a1,1005(s4)
   1826a:	3efa4603          	lbu	a2,1007(s4)
   1826e:	3f0a2403          	lw	s0,1008(s4)
   18272:	0522                	slli	a0,a0,0x8
   18274:	8d4d                	or	a0,a0,a1
   18276:	5ca11d23          	sh	a0,1498(sp)
   1827a:	5cc10e23          	sb	a2,1500(sp)
   1827e:	6505                	lui	a0,0x1
   18280:	38850513          	addi	a0,a0,904 # 1388 <.Lline_table_start1+0x115d>
   18284:	00a105b3          	add	a1,sp,a0
   18288:	6505                	lui	a0,0x1
   1828a:	32450513          	addi	a0,a0,804 # 1324 <.Lline_table_start1+0x10f9>
   1828e:	950a                	add	a0,a0,sp
   18290:	04a00613          	li	a2,74
   18294:	00003097          	auipc	ra,0x3
   18298:	870080e7          	jalr	-1936(ra) # 1ab04 <memcpy>
   1829c:	01845513          	srli	a0,s0,0x18
   182a0:	01045593          	srli	a1,s0,0x10
   182a4:	00845613          	srli	a2,s0,0x8
   182a8:	5c810ea3          	sb	s0,1501(sp)
   182ac:	5cc10f23          	sb	a2,1502(sp)
   182b0:	5cb10fa3          	sb	a1,1503(sp)
   182b4:	5ea10023          	sb	a0,1504(sp)
   182b8:	5e110513          	addi	a0,sp,1505
   182bc:	6585                	lui	a1,0x1
   182be:	32458593          	addi	a1,a1,804 # 1324 <.Lline_table_start1+0x10f9>
   182c2:	958a                	add	a1,a1,sp
   182c4:	04a00613          	li	a2,74
   182c8:	00003097          	auipc	ra,0x3
   182cc:	83c080e7          	jalr	-1988(ra) # 1ab04 <memcpy>
   182d0:	6505                	lui	a0,0x1
   182d2:	38050513          	addi	a0,a0,896 # 1380 <.Lline_table_start1+0x1155>
   182d6:	950a                	add	a0,a0,sp
   182d8:	5da10593          	addi	a1,sp,1498
   182dc:	ffff9097          	auipc	ra,0xffff9
   182e0:	e58080e7          	jalr	-424(ra) # 11134 <_ZN20complex_full_dynamic3app17h032a7cdf50446adfE>
   182e4:	3eca4503          	lbu	a0,1004(s4)
   182e8:	c119                	beqz	a0,182ee <_start+0x1660>
   182ea:	42e0206f          	j	1a718 <_start+0x3a8a>
   182ee:	3eea4503          	lbu	a0,1006(s4)
   182f2:	3eda4583          	lbu	a1,1005(s4)
   182f6:	3efa4603          	lbu	a2,1007(s4)
   182fa:	3f0a2403          	lw	s0,1008(s4)
   182fe:	0522                	slli	a0,a0,0x8
   18300:	8d4d                	or	a0,a0,a1
   18302:	62a11623          	sh	a0,1580(sp)
   18306:	62c10723          	sb	a2,1582(sp)
   1830a:	6505                	lui	a0,0x1
   1830c:	38850513          	addi	a0,a0,904 # 1388 <.Lline_table_start1+0x115d>
   18310:	00a105b3          	add	a1,sp,a0
   18314:	6505                	lui	a0,0x1
   18316:	32450513          	addi	a0,a0,804 # 1324 <.Lline_table_start1+0x10f9>
   1831a:	950a                	add	a0,a0,sp
   1831c:	04800613          	li	a2,72
   18320:	00002097          	auipc	ra,0x2
   18324:	7e4080e7          	jalr	2020(ra) # 1ab04 <memcpy>
   18328:	01845513          	srli	a0,s0,0x18
   1832c:	01045593          	srli	a1,s0,0x10
   18330:	00845613          	srli	a2,s0,0x8
   18334:	628107a3          	sb	s0,1583(sp)
   18338:	62c10823          	sb	a2,1584(sp)
   1833c:	62b108a3          	sb	a1,1585(sp)
   18340:	62a10923          	sb	a0,1586(sp)
   18344:	63310513          	addi	a0,sp,1587
   18348:	6585                	lui	a1,0x1
   1834a:	32458593          	addi	a1,a1,804 # 1324 <.Lline_table_start1+0x10f9>
   1834e:	958a                	add	a1,a1,sp
   18350:	04800613          	li	a2,72
   18354:	00002097          	auipc	ra,0x2
   18358:	7b0080e7          	jalr	1968(ra) # 1ab04 <memcpy>
   1835c:	6505                	lui	a0,0x1
   1835e:	38050513          	addi	a0,a0,896 # 1380 <.Lline_table_start1+0x1155>
   18362:	950a                	add	a0,a0,sp
   18364:	62c10593          	addi	a1,sp,1580
   18368:	ffffc097          	auipc	ra,0xffffc
   1836c:	b7c080e7          	jalr	-1156(ra) # 13ee4 <_ZN20complex_full_dynamic3app17h7cc73a138ade5e12E>
   18370:	3eca4503          	lbu	a0,1004(s4)
   18374:	c119                	beqz	a0,1837a <_start+0x16ec>
   18376:	3a20206f          	j	1a718 <_start+0x3a8a>
   1837a:	3eea4503          	lbu	a0,1006(s4)
   1837e:	3eda4583          	lbu	a1,1005(s4)
   18382:	3efa4603          	lbu	a2,1007(s4)
   18386:	3f0a2403          	lw	s0,1008(s4)
   1838a:	0522                	slli	a0,a0,0x8
   1838c:	8d4d                	or	a0,a0,a1
   1838e:	66a11e23          	sh	a0,1660(sp)
   18392:	66c10f23          	sb	a2,1662(sp)
   18396:	6505                	lui	a0,0x1
   18398:	38850513          	addi	a0,a0,904 # 1388 <.Lline_table_start1+0x115d>
   1839c:	00a105b3          	add	a1,sp,a0
   183a0:	6505                	lui	a0,0x1
   183a2:	32450513          	addi	a0,a0,804 # 1324 <.Lline_table_start1+0x10f9>
   183a6:	950a                	add	a0,a0,sp
   183a8:	03400613          	li	a2,52
   183ac:	00002097          	auipc	ra,0x2
   183b0:	758080e7          	jalr	1880(ra) # 1ab04 <memcpy>
   183b4:	01845513          	srli	a0,s0,0x18
   183b8:	01045593          	srli	a1,s0,0x10
   183bc:	00845613          	srli	a2,s0,0x8
   183c0:	66810fa3          	sb	s0,1663(sp)
   183c4:	68c10023          	sb	a2,1664(sp)
   183c8:	68b100a3          	sb	a1,1665(sp)
   183cc:	68a10123          	sb	a0,1666(sp)
   183d0:	68310513          	addi	a0,sp,1667
   183d4:	6585                	lui	a1,0x1
   183d6:	32458593          	addi	a1,a1,804 # 1324 <.Lline_table_start1+0x10f9>
   183da:	958a                	add	a1,a1,sp
   183dc:	03400613          	li	a2,52
   183e0:	00002097          	auipc	ra,0x2
   183e4:	724080e7          	jalr	1828(ra) # 1ab04 <memcpy>
   183e8:	6505                	lui	a0,0x1
   183ea:	38050513          	addi	a0,a0,896 # 1380 <.Lline_table_start1+0x1155>
   183ee:	950a                	add	a0,a0,sp
   183f0:	67c10593          	addi	a1,sp,1660
   183f4:	ffffb097          	auipc	ra,0xffffb
   183f8:	32e080e7          	jalr	814(ra) # 13722 <_ZN20complex_full_dynamic3app17h620a65efb384a96aE>
   183fc:	3eca4503          	lbu	a0,1004(s4)
   18400:	c119                	beqz	a0,18406 <_start+0x1778>
   18402:	3160206f          	j	1a718 <_start+0x3a8a>
   18406:	3eea4503          	lbu	a0,1006(s4)
   1840a:	3eda4583          	lbu	a1,1005(s4)
   1840e:	3efa4603          	lbu	a2,1007(s4)
   18412:	3f0a2403          	lw	s0,1008(s4)
   18416:	0522                	slli	a0,a0,0x8
   18418:	8d4d                	or	a0,a0,a1
   1841a:	6aa11c23          	sh	a0,1720(sp)
   1841e:	6ac10d23          	sb	a2,1722(sp)
   18422:	6505                	lui	a0,0x1
   18424:	38850513          	addi	a0,a0,904 # 1388 <.Lline_table_start1+0x115d>
   18428:	00a105b3          	add	a1,sp,a0
   1842c:	6505                	lui	a0,0x1
   1842e:	32450513          	addi	a0,a0,804 # 1324 <.Lline_table_start1+0x10f9>
   18432:	950a                	add	a0,a0,sp
   18434:	02000613          	li	a2,32
   18438:	00002097          	auipc	ra,0x2
   1843c:	6cc080e7          	jalr	1740(ra) # 1ab04 <memcpy>
   18440:	01845513          	srli	a0,s0,0x18
   18444:	01045593          	srli	a1,s0,0x10
   18448:	00845613          	srli	a2,s0,0x8
   1844c:	6a810da3          	sb	s0,1723(sp)
   18450:	6ac10e23          	sb	a2,1724(sp)
   18454:	6ab10ea3          	sb	a1,1725(sp)
   18458:	6aa10f23          	sb	a0,1726(sp)
   1845c:	6bf10513          	addi	a0,sp,1727
   18460:	6585                	lui	a1,0x1
   18462:	32458593          	addi	a1,a1,804 # 1324 <.Lline_table_start1+0x10f9>
   18466:	958a                	add	a1,a1,sp
   18468:	02000613          	li	a2,32
   1846c:	00002097          	auipc	ra,0x2
   18470:	698080e7          	jalr	1688(ra) # 1ab04 <memcpy>
   18474:	6505                	lui	a0,0x1
   18476:	38050513          	addi	a0,a0,896 # 1380 <.Lline_table_start1+0x1155>
   1847a:	950a                	add	a0,a0,sp
   1847c:	6b810593          	addi	a1,sp,1720
   18480:	ffffa097          	auipc	ra,0xffffa
   18484:	118080e7          	jalr	280(ra) # 12598 <_ZN20complex_full_dynamic3app17h2af4d9d72a53f0ecE>
   18488:	3eca4503          	lbu	a0,1004(s4)
   1848c:	c119                	beqz	a0,18492 <_start+0x1804>
   1848e:	28a0206f          	j	1a718 <_start+0x3a8a>
   18492:	3eda4503          	lbu	a0,1005(s4)
   18496:	3eea4583          	lbu	a1,1006(s4)
   1849a:	3efa4603          	lbu	a2,1007(s4)
   1849e:	3f0a2683          	lw	a3,1008(s4)
   184a2:	3f4a2703          	lw	a4,1012(s4)
   184a6:	3f8a2783          	lw	a5,1016(s4)
   184aa:	3fca2483          	lw	s1,1020(s4)
   184ae:	400a4403          	lbu	s0,1024(s4)
   184b2:	05a2                	slli	a1,a1,0x8
   184b4:	38ea2823          	sw	a4,912(s4)
   184b8:	38fa2a23          	sw	a5,916(s4)
   184bc:	389a2c23          	sw	s1,920(s4)
   184c0:	388a0e23          	sb	s0,924(s4)
   184c4:	0186d713          	srli	a4,a3,0x18
   184c8:	8d4d                	or	a0,a0,a1
   184ca:	0106d593          	srli	a1,a3,0x10
   184ce:	6eb102a3          	sb	a1,1765(sp)
   184d2:	6ee10323          	sb	a4,1766(sp)
   184d6:	0086d593          	srli	a1,a3,0x8
   184da:	6ea11023          	sh	a0,1760(sp)
   184de:	6ec10123          	sb	a2,1762(sp)
   184e2:	6ed101a3          	sb	a3,1763(sp)
   184e6:	6eb10223          	sb	a1,1764(sp)
   184ea:	6e710513          	addi	a0,sp,1767
   184ee:	6585                	lui	a1,0x1
   184f0:	32458593          	addi	a1,a1,804 # 1324 <.Lline_table_start1+0x10f9>
   184f4:	958a                	add	a1,a1,sp
   184f6:	4635                	li	a2,13
   184f8:	00002097          	auipc	ra,0x2
   184fc:	60c080e7          	jalr	1548(ra) # 1ab04 <memcpy>
   18500:	6505                	lui	a0,0x1
   18502:	38050513          	addi	a0,a0,896 # 1380 <.Lline_table_start1+0x1155>
   18506:	950a                	add	a0,a0,sp
   18508:	6e010593          	addi	a1,sp,1760
   1850c:	ffffb097          	auipc	ra,0xffffb
   18510:	a48080e7          	jalr	-1464(ra) # 12f54 <_ZN20complex_full_dynamic3app17h4b1d99a2a6e40973E>
   18514:	3eca4503          	lbu	a0,1004(s4)
   18518:	c119                	beqz	a0,1851e <_start+0x1890>
   1851a:	1fe0206f          	j	1a718 <_start+0x3a8a>
   1851e:	3eea4503          	lbu	a0,1006(s4)
   18522:	3eda4583          	lbu	a1,1005(s4)
   18526:	3efa4603          	lbu	a2,1007(s4)
   1852a:	3f0a2403          	lw	s0,1008(s4)
   1852e:	0522                	slli	a0,a0,0x8
   18530:	8d4d                	or	a0,a0,a1
   18532:	6ea11a23          	sh	a0,1780(sp)
   18536:	6ec10b23          	sb	a2,1782(sp)
   1853a:	6505                	lui	a0,0x1
   1853c:	38850513          	addi	a0,a0,904 # 1388 <.Lline_table_start1+0x115d>
   18540:	00a105b3          	add	a1,sp,a0
   18544:	6505                	lui	a0,0x1
   18546:	32450513          	addi	a0,a0,804 # 1324 <.Lline_table_start1+0x10f9>
   1854a:	950a                	add	a0,a0,sp
   1854c:	02400613          	li	a2,36
   18550:	00002097          	auipc	ra,0x2
   18554:	5b4080e7          	jalr	1460(ra) # 1ab04 <memcpy>
   18558:	01845513          	srli	a0,s0,0x18
   1855c:	01045593          	srli	a1,s0,0x10
   18560:	00845613          	srli	a2,s0,0x8
   18564:	6e810ba3          	sb	s0,1783(sp)
   18568:	6ec10c23          	sb	a2,1784(sp)
   1856c:	6eb10ca3          	sb	a1,1785(sp)
   18570:	6ea10d23          	sb	a0,1786(sp)
   18574:	6fb10513          	addi	a0,sp,1787
   18578:	6585                	lui	a1,0x1
   1857a:	32458593          	addi	a1,a1,804 # 1324 <.Lline_table_start1+0x10f9>
   1857e:	958a                	add	a1,a1,sp
   18580:	02400613          	li	a2,36
   18584:	00002097          	auipc	ra,0x2
   18588:	580080e7          	jalr	1408(ra) # 1ab04 <memcpy>
   1858c:	6505                	lui	a0,0x1
   1858e:	38050513          	addi	a0,a0,896 # 1380 <.Lline_table_start1+0x1155>
   18592:	950a                	add	a0,a0,sp
   18594:	6f410593          	addi	a1,sp,1780
   18598:	ffffa097          	auipc	ra,0xffffa
   1859c:	2ea080e7          	jalr	746(ra) # 12882 <_ZN20complex_full_dynamic3app17h36e80623b90ff109E>
   185a0:	3eca4503          	lbu	a0,1004(s4)
   185a4:	c119                	beqz	a0,185aa <_start+0x191c>
   185a6:	1720206f          	j	1a718 <_start+0x3a8a>
   185aa:	3eea4503          	lbu	a0,1006(s4)
   185ae:	3eda4583          	lbu	a1,1005(s4)
   185b2:	3efa4603          	lbu	a2,1007(s4)
   185b6:	3f0a2403          	lw	s0,1008(s4)
   185ba:	0522                	slli	a0,a0,0x8
   185bc:	8d4d                	or	a0,a0,a1
   185be:	72a11023          	sh	a0,1824(sp)
   185c2:	72c10123          	sb	a2,1826(sp)
   185c6:	6505                	lui	a0,0x1
   185c8:	38850513          	addi	a0,a0,904 # 1388 <.Lline_table_start1+0x115d>
   185cc:	00a105b3          	add	a1,sp,a0
   185d0:	6505                	lui	a0,0x1
   185d2:	32450513          	addi	a0,a0,804 # 1324 <.Lline_table_start1+0x10f9>
   185d6:	950a                	add	a0,a0,sp
   185d8:	465d                	li	a2,23
   185da:	00002097          	auipc	ra,0x2
   185de:	52a080e7          	jalr	1322(ra) # 1ab04 <memcpy>
   185e2:	01845513          	srli	a0,s0,0x18
   185e6:	01045593          	srli	a1,s0,0x10
   185ea:	00845613          	srli	a2,s0,0x8
   185ee:	728101a3          	sb	s0,1827(sp)
   185f2:	72c10223          	sb	a2,1828(sp)
   185f6:	72b102a3          	sb	a1,1829(sp)
   185fa:	72a10323          	sb	a0,1830(sp)
   185fe:	72710513          	addi	a0,sp,1831
   18602:	6585                	lui	a1,0x1
   18604:	32458593          	addi	a1,a1,804 # 1324 <.Lline_table_start1+0x10f9>
   18608:	958a                	add	a1,a1,sp
   1860a:	465d                	li	a2,23
   1860c:	00002097          	auipc	ra,0x2
   18610:	4f8080e7          	jalr	1272(ra) # 1ab04 <memcpy>
   18614:	6505                	lui	a0,0x1
   18616:	38050513          	addi	a0,a0,896 # 1380 <.Lline_table_start1+0x1155>
   1861a:	950a                	add	a0,a0,sp
   1861c:	72010593          	addi	a1,sp,1824
   18620:	ffffc097          	auipc	ra,0xffffc
   18624:	bae080e7          	jalr	-1106(ra) # 141ce <_ZN20complex_full_dynamic3app17h90b2fee217f44be8E>
   18628:	3eca4503          	lbu	a0,1004(s4)
   1862c:	c119                	beqz	a0,18632 <_start+0x19a4>
   1862e:	0ea0206f          	j	1a718 <_start+0x3a8a>
   18632:	3eea4503          	lbu	a0,1006(s4)
   18636:	3eda4583          	lbu	a1,1005(s4)
   1863a:	3efa4603          	lbu	a2,1007(s4)
   1863e:	3f0a2403          	lw	s0,1008(s4)
   18642:	0522                	slli	a0,a0,0x8
   18644:	8d4d                	or	a0,a0,a1
   18646:	72a11f23          	sh	a0,1854(sp)
   1864a:	74c10023          	sb	a2,1856(sp)
   1864e:	6505                	lui	a0,0x1
   18650:	38850513          	addi	a0,a0,904 # 1388 <.Lline_table_start1+0x115d>
   18654:	00a105b3          	add	a1,sp,a0
   18658:	6505                	lui	a0,0x1
   1865a:	32450513          	addi	a0,a0,804 # 1324 <.Lline_table_start1+0x10f9>
   1865e:	950a                	add	a0,a0,sp
   18660:	04a00613          	li	a2,74
   18664:	00002097          	auipc	ra,0x2
   18668:	4a0080e7          	jalr	1184(ra) # 1ab04 <memcpy>
   1866c:	01845513          	srli	a0,s0,0x18
   18670:	01045593          	srli	a1,s0,0x10
   18674:	00845613          	srli	a2,s0,0x8
   18678:	748100a3          	sb	s0,1857(sp)
   1867c:	74c10123          	sb	a2,1858(sp)
   18680:	74b101a3          	sb	a1,1859(sp)
   18684:	74a10223          	sb	a0,1860(sp)
   18688:	74510513          	addi	a0,sp,1861
   1868c:	6585                	lui	a1,0x1
   1868e:	32458593          	addi	a1,a1,804 # 1324 <.Lline_table_start1+0x10f9>
   18692:	958a                	add	a1,a1,sp
   18694:	04a00613          	li	a2,74
   18698:	00002097          	auipc	ra,0x2
   1869c:	46c080e7          	jalr	1132(ra) # 1ab04 <memcpy>
   186a0:	6505                	lui	a0,0x1
   186a2:	38050513          	addi	a0,a0,896 # 1380 <.Lline_table_start1+0x1155>
   186a6:	950a                	add	a0,a0,sp
   186a8:	73e10593          	addi	a1,sp,1854
   186ac:	ffffc097          	auipc	ra,0xffffc
   186b0:	f08080e7          	jalr	-248(ra) # 145b4 <_ZN20complex_full_dynamic3app17h9cbc15b266ce343bE>
   186b4:	3eca4503          	lbu	a0,1004(s4)
   186b8:	c119                	beqz	a0,186be <_start+0x1a30>
   186ba:	05e0206f          	j	1a718 <_start+0x3a8a>
   186be:	79210913          	addi	s2,sp,1938
   186c2:	3eda4503          	lbu	a0,1005(s4)
   186c6:	3eea4583          	lbu	a1,1006(s4)
   186ca:	3efa4803          	lbu	a6,1007(s4)
   186ce:	3f0a2683          	lw	a3,1008(s4)
   186d2:	3f4a2703          	lw	a4,1012(s4)
   186d6:	3f8a2783          	lw	a5,1016(s4)
   186da:	05a2                	slli	a1,a1,0x8
   186dc:	0186d893          	srli	a7,a3,0x18
   186e0:	0106d293          	srli	t0,a3,0x10
   186e4:	0187d613          	srli	a2,a5,0x18
   186e8:	0107d493          	srli	s1,a5,0x10
   186ec:	0087d413          	srli	s0,a5,0x8
   186f0:	8d4d                	or	a0,a0,a1
   186f2:	01875593          	srli	a1,a4,0x18
   186f6:	009905a3          	sb	s1,11(s2)
   186fa:	00c90623          	sb	a2,12(s2)
   186fe:	01075613          	srli	a2,a4,0x10
   18702:	00c903a3          	sb	a2,7(s2)
   18706:	00b90423          	sb	a1,8(s2)
   1870a:	00f904a3          	sb	a5,9(s2)
   1870e:	00890523          	sb	s0,10(s2)
   18712:	0086d593          	srli	a1,a3,0x8
   18716:	fea91f23          	sh	a0,-2(s2)
   1871a:	01090023          	sb	a6,0(s2)
   1871e:	00d900a3          	sb	a3,1(s2)
   18722:	00b90123          	sb	a1,2(s2)
   18726:	00875513          	srli	a0,a4,0x8
   1872a:	005901a3          	sb	t0,3(s2)
   1872e:	01190223          	sb	a7,4(s2)
   18732:	00e902a3          	sb	a4,5(s2)
   18736:	00a90323          	sb	a0,6(s2)
   1873a:	6505                	lui	a0,0x1
   1873c:	38050513          	addi	a0,a0,896 # 1380 <.Lline_table_start1+0x1155>
   18740:	950a                	add	a0,a0,sp
   18742:	79010593          	addi	a1,sp,1936
   18746:	ffffa097          	auipc	ra,0xffffa
   1874a:	a6c080e7          	jalr	-1428(ra) # 121b2 <_ZN20complex_full_dynamic3app17h21263f4d200245f0E>
   1874e:	3eca4503          	lbu	a0,1004(s4)
   18752:	c119                	beqz	a0,18758 <_start+0x1aca>
   18754:	7c50106f          	j	1a718 <_start+0x3a8a>
   18758:	3eea4503          	lbu	a0,1006(s4)
   1875c:	3eda4583          	lbu	a1,1005(s4)
   18760:	3efa4603          	lbu	a2,1007(s4)
   18764:	3f0a2403          	lw	s0,1008(s4)
   18768:	0522                	slli	a0,a0,0x8
   1876a:	8d4d                	or	a0,a0,a1
   1876c:	00a91723          	sh	a0,14(s2)
   18770:	00c90823          	sb	a2,16(s2)
   18774:	6505                	lui	a0,0x1
   18776:	38850513          	addi	a0,a0,904 # 1388 <.Lline_table_start1+0x115d>
   1877a:	00a105b3          	add	a1,sp,a0
   1877e:	6505                	lui	a0,0x1
   18780:	32450513          	addi	a0,a0,804 # 1324 <.Lline_table_start1+0x10f9>
   18784:	950a                	add	a0,a0,sp
   18786:	03f00613          	li	a2,63
   1878a:	00002097          	auipc	ra,0x2
   1878e:	37a080e7          	jalr	890(ra) # 1ab04 <memcpy>
   18792:	01845513          	srli	a0,s0,0x18
   18796:	01045593          	srli	a1,s0,0x10
   1879a:	00845613          	srli	a2,s0,0x8
   1879e:	008908a3          	sb	s0,17(s2)
   187a2:	00c90923          	sb	a2,18(s2)
   187a6:	00b909a3          	sb	a1,19(s2)
   187aa:	00a90a23          	sb	a0,20(s2)
   187ae:	7a710513          	addi	a0,sp,1959
   187b2:	6585                	lui	a1,0x1
   187b4:	32458593          	addi	a1,a1,804 # 1324 <.Lline_table_start1+0x10f9>
   187b8:	958a                	add	a1,a1,sp
   187ba:	03f00613          	li	a2,63
   187be:	00002097          	auipc	ra,0x2
   187c2:	346080e7          	jalr	838(ra) # 1ab04 <memcpy>
   187c6:	6505                	lui	a0,0x1
   187c8:	38050513          	addi	a0,a0,896 # 1380 <.Lline_table_start1+0x1155>
   187cc:	950a                	add	a0,a0,sp
   187ce:	7a010593          	addi	a1,sp,1952
   187d2:	ffffd097          	auipc	ra,0xffffd
   187d6:	d70080e7          	jalr	-656(ra) # 15542 <_ZN20complex_full_dynamic3app17hc73838e16579c3c5E>
   187da:	3eca4503          	lbu	a0,1004(s4)
   187de:	c119                	beqz	a0,187e4 <_start+0x1b56>
   187e0:	7390106f          	j	1a718 <_start+0x3a8a>
   187e4:	3eea4503          	lbu	a0,1006(s4)
   187e8:	3eda4583          	lbu	a1,1005(s4)
   187ec:	3efa4603          	lbu	a2,1007(s4)
   187f0:	3f0a2403          	lw	s0,1008(s4)
   187f4:	0522                	slli	a0,a0,0x8
   187f6:	8d4d                	or	a0,a0,a1
   187f8:	04a91a23          	sh	a0,84(s2)
   187fc:	04c90b23          	sb	a2,86(s2)
   18800:	6505                	lui	a0,0x1
   18802:	38850513          	addi	a0,a0,904 # 1388 <.Lline_table_start1+0x115d>
   18806:	00a105b3          	add	a1,sp,a0
   1880a:	6505                	lui	a0,0x1
   1880c:	32450513          	addi	a0,a0,804 # 1324 <.Lline_table_start1+0x10f9>
   18810:	950a                	add	a0,a0,sp
   18812:	04f00613          	li	a2,79
   18816:	00002097          	auipc	ra,0x2
   1881a:	2ee080e7          	jalr	750(ra) # 1ab04 <memcpy>
   1881e:	01845513          	srli	a0,s0,0x18
   18822:	01045593          	srli	a1,s0,0x10
   18826:	00845613          	srli	a2,s0,0x8
   1882a:	04890ba3          	sb	s0,87(s2)
   1882e:	04c90c23          	sb	a2,88(s2)
   18832:	04b90ca3          	sb	a1,89(s2)
   18836:	04a90d23          	sb	a0,90(s2)
   1883a:	7ed10513          	addi	a0,sp,2029
   1883e:	6585                	lui	a1,0x1
   18840:	32458593          	addi	a1,a1,804 # 1324 <.Lline_table_start1+0x10f9>
   18844:	958a                	add	a1,a1,sp
   18846:	04f00613          	li	a2,79
   1884a:	00002097          	auipc	ra,0x2
   1884e:	2ba080e7          	jalr	698(ra) # 1ab04 <memcpy>
   18852:	6505                	lui	a0,0x1
   18854:	38050513          	addi	a0,a0,896 # 1380 <.Lline_table_start1+0x1155>
   18858:	950a                	add	a0,a0,sp
   1885a:	7e610593          	addi	a1,sp,2022
   1885e:	ffffc097          	auipc	ra,0xffffc
   18862:	612080e7          	jalr	1554(ra) # 14e70 <_ZN20complex_full_dynamic3app17hb37952561801462dE>
   18866:	3eca4503          	lbu	a0,1004(s4)
   1886a:	c119                	beqz	a0,18870 <_start+0x1be2>
   1886c:	6ad0106f          	j	1a718 <_start+0x3a8a>
   18870:	3eea4503          	lbu	a0,1006(s4)
   18874:	3eda4583          	lbu	a1,1005(s4)
   18878:	3efa4603          	lbu	a2,1007(s4)
   1887c:	3f0a2403          	lw	s0,1008(s4)
   18880:	0522                	slli	a0,a0,0x8
   18882:	8d4d                	or	a0,a0,a1
   18884:	0aa91523          	sh	a0,170(s2)
   18888:	0ac90623          	sb	a2,172(s2)
   1888c:	6505                	lui	a0,0x1
   1888e:	38850513          	addi	a0,a0,904 # 1388 <.Lline_table_start1+0x115d>
   18892:	00a105b3          	add	a1,sp,a0
   18896:	6505                	lui	a0,0x1
   18898:	32450513          	addi	a0,a0,804 # 1324 <.Lline_table_start1+0x10f9>
   1889c:	950a                	add	a0,a0,sp
   1889e:	04200613          	li	a2,66
   188a2:	00002097          	auipc	ra,0x2
   188a6:	262080e7          	jalr	610(ra) # 1ab04 <memcpy>
   188aa:	01845513          	srli	a0,s0,0x18
   188ae:	01045593          	srli	a1,s0,0x10
   188b2:	00845613          	srli	a2,s0,0x8
   188b6:	0a8906a3          	sb	s0,173(s2)
   188ba:	0ac90723          	sb	a2,174(s2)
   188be:	0ab907a3          	sb	a1,175(s2)
   188c2:	0aa90823          	sb	a0,176(s2)
   188c6:	7ff10513          	addi	a0,sp,2047
   188ca:	04450513          	addi	a0,a0,68
   188ce:	6585                	lui	a1,0x1
   188d0:	32458593          	addi	a1,a1,804 # 1324 <.Lline_table_start1+0x10f9>
   188d4:	958a                	add	a1,a1,sp
   188d6:	04200613          	li	a2,66
   188da:	00002097          	auipc	ra,0x2
   188de:	22a080e7          	jalr	554(ra) # 1ab04 <memcpy>
   188e2:	6505                	lui	a0,0x1
   188e4:	38050513          	addi	a0,a0,896 # 1380 <.Lline_table_start1+0x1155>
   188e8:	950a                	add	a0,a0,sp
   188ea:	7ff10593          	addi	a1,sp,2047
   188ee:	03d58593          	addi	a1,a1,61
   188f2:	ffffa097          	auipc	ra,0xffffa
   188f6:	188080e7          	jalr	392(ra) # 12a7a <_ZN20complex_full_dynamic3app17h4170505619856a14E>
   188fa:	3eca4503          	lbu	a0,1004(s4)
   188fe:	c119                	beqz	a0,18904 <_start+0x1c76>
   18900:	6190106f          	j	1a718 <_start+0x3a8a>
   18904:	3eea4503          	lbu	a0,1006(s4)
   18908:	3eda4583          	lbu	a1,1005(s4)
   1890c:	3efa4603          	lbu	a2,1007(s4)
   18910:	3f0a2403          	lw	s0,1008(s4)
   18914:	0522                	slli	a0,a0,0x8
   18916:	8d4d                	or	a0,a0,a1
   18918:	0ea91a23          	sh	a0,244(s2)
   1891c:	0ec90b23          	sb	a2,246(s2)
   18920:	6505                	lui	a0,0x1
   18922:	38850513          	addi	a0,a0,904 # 1388 <.Lline_table_start1+0x115d>
   18926:	00a105b3          	add	a1,sp,a0
   1892a:	6505                	lui	a0,0x1
   1892c:	32450513          	addi	a0,a0,804 # 1324 <.Lline_table_start1+0x10f9>
   18930:	950a                	add	a0,a0,sp
   18932:	4671                	li	a2,28
   18934:	00002097          	auipc	ra,0x2
   18938:	1d0080e7          	jalr	464(ra) # 1ab04 <memcpy>
   1893c:	01845513          	srli	a0,s0,0x18
   18940:	01045593          	srli	a1,s0,0x10
   18944:	00845613          	srli	a2,s0,0x8
   18948:	0e890ba3          	sb	s0,247(s2)
   1894c:	0ec90c23          	sb	a2,248(s2)
   18950:	0eb90ca3          	sb	a1,249(s2)
   18954:	0ea90d23          	sb	a0,250(s2)
   18958:	7ff10513          	addi	a0,sp,2047
   1895c:	08e50513          	addi	a0,a0,142
   18960:	6585                	lui	a1,0x1
   18962:	32458593          	addi	a1,a1,804 # 1324 <.Lline_table_start1+0x10f9>
   18966:	958a                	add	a1,a1,sp
   18968:	4671                	li	a2,28
   1896a:	00002097          	auipc	ra,0x2
   1896e:	19a080e7          	jalr	410(ra) # 1ab04 <memcpy>
   18972:	6505                	lui	a0,0x1
   18974:	38050513          	addi	a0,a0,896 # 1380 <.Lline_table_start1+0x1155>
   18978:	950a                	add	a0,a0,sp
   1897a:	7ff10593          	addi	a1,sp,2047
   1897e:	08758593          	addi	a1,a1,135
   18982:	ffffb097          	auipc	ra,0xffffb
   18986:	bae080e7          	jalr	-1106(ra) # 13530 <_ZN20complex_full_dynamic3app17h5a664abc2a91c47eE>
   1898a:	3eca4503          	lbu	a0,1004(s4)
   1898e:	c119                	beqz	a0,18994 <_start+0x1d06>
   18990:	5890106f          	j	1a718 <_start+0x3a8a>
   18994:	3eea4503          	lbu	a0,1006(s4)
   18998:	3eda4583          	lbu	a1,1005(s4)
   1899c:	3efa4603          	lbu	a2,1007(s4)
   189a0:	3f0a2403          	lw	s0,1008(s4)
   189a4:	0522                	slli	a0,a0,0x8
   189a6:	8d4d                	or	a0,a0,a1
   189a8:	10a91c23          	sh	a0,280(s2)
   189ac:	10c90d23          	sb	a2,282(s2)
   189b0:	6505                	lui	a0,0x1
   189b2:	38850513          	addi	a0,a0,904 # 1388 <.Lline_table_start1+0x115d>
   189b6:	00a105b3          	add	a1,sp,a0
   189ba:	6505                	lui	a0,0x1
   189bc:	32450513          	addi	a0,a0,804 # 1324 <.Lline_table_start1+0x10f9>
   189c0:	950a                	add	a0,a0,sp
   189c2:	02400613          	li	a2,36
   189c6:	00002097          	auipc	ra,0x2
   189ca:	13e080e7          	jalr	318(ra) # 1ab04 <memcpy>
   189ce:	01845513          	srli	a0,s0,0x18
   189d2:	01045593          	srli	a1,s0,0x10
   189d6:	00845613          	srli	a2,s0,0x8
   189da:	10890da3          	sb	s0,283(s2)
   189de:	10c90e23          	sb	a2,284(s2)
   189e2:	10b90ea3          	sb	a1,285(s2)
   189e6:	10a90f23          	sb	a0,286(s2)
   189ea:	7ff10513          	addi	a0,sp,2047
   189ee:	0b250513          	addi	a0,a0,178
   189f2:	6585                	lui	a1,0x1
   189f4:	32458593          	addi	a1,a1,804 # 1324 <.Lline_table_start1+0x10f9>
   189f8:	958a                	add	a1,a1,sp
   189fa:	02400613          	li	a2,36
   189fe:	00002097          	auipc	ra,0x2
   18a02:	106080e7          	jalr	262(ra) # 1ab04 <memcpy>
   18a06:	6505                	lui	a0,0x1
   18a08:	38050513          	addi	a0,a0,896 # 1380 <.Lline_table_start1+0x1155>
   18a0c:	950a                	add	a0,a0,sp
   18a0e:	7ff10593          	addi	a1,sp,2047
   18a12:	0ab58593          	addi	a1,a1,171
   18a16:	ffffd097          	auipc	ra,0xffffd
   18a1a:	1f4080e7          	jalr	500(ra) # 15c0a <_ZN20complex_full_dynamic3app17hd60ec33789164415E>
   18a1e:	3eca4503          	lbu	a0,1004(s4)
   18a22:	c119                	beqz	a0,18a28 <_start+0x1d9a>
   18a24:	4f50106f          	j	1a718 <_start+0x3a8a>
   18a28:	3eda4503          	lbu	a0,1005(s4)
   18a2c:	3eea4583          	lbu	a1,1006(s4)
   18a30:	3f4a2603          	lw	a2,1012(s4)
   18a34:	3f8a1683          	lh	a3,1016(s4)
   18a38:	3efa4703          	lbu	a4,1007(s4)
   18a3c:	3f0a2783          	lw	a5,1008(s4)
   18a40:	05a2                	slli	a1,a1,0x8
   18a42:	38ca2823          	sw	a2,912(s4)
   18a46:	38da1a23          	sh	a3,916(s4)
   18a4a:	0187d613          	srli	a2,a5,0x18
   18a4e:	8d4d                	or	a0,a0,a1
   18a50:	0107d593          	srli	a1,a5,0x10
   18a54:	14b904a3          	sb	a1,329(s2)
   18a58:	14c90523          	sb	a2,330(s2)
   18a5c:	0087d593          	srli	a1,a5,0x8
   18a60:	14a91223          	sh	a0,324(s2)
   18a64:	14e90323          	sb	a4,326(s2)
   18a68:	14f903a3          	sb	a5,327(s2)
   18a6c:	14b90423          	sb	a1,328(s2)
   18a70:	7ff10513          	addi	a0,sp,2047
   18a74:	0de50513          	addi	a0,a0,222
   18a78:	6585                	lui	a1,0x1
   18a7a:	32458593          	addi	a1,a1,804 # 1324 <.Lline_table_start1+0x10f9>
   18a7e:	958a                	add	a1,a1,sp
   18a80:	4619                	li	a2,6
   18a82:	00002097          	auipc	ra,0x2
   18a86:	082080e7          	jalr	130(ra) # 1ab04 <memcpy>
   18a8a:	6505                	lui	a0,0x1
   18a8c:	38050513          	addi	a0,a0,896 # 1380 <.Lline_table_start1+0x1155>
   18a90:	950a                	add	a0,a0,sp
   18a92:	7ff10593          	addi	a1,sp,2047
   18a96:	0d758593          	addi	a1,a1,215
   18a9a:	ffffc097          	auipc	ra,0xffffc
   18a9e:	1ea080e7          	jalr	490(ra) # 14c84 <_ZN20complex_full_dynamic3app17hb0dd5e8e9d24eea3E>
   18aa2:	3eca4503          	lbu	a0,1004(s4)
   18aa6:	c119                	beqz	a0,18aac <_start+0x1e1e>
   18aa8:	4710106f          	j	1a718 <_start+0x3a8a>
   18aac:	3eea4503          	lbu	a0,1006(s4)
   18ab0:	3eda4583          	lbu	a1,1005(s4)
   18ab4:	3efa4603          	lbu	a2,1007(s4)
   18ab8:	3f0a2403          	lw	s0,1008(s4)
   18abc:	0522                	slli	a0,a0,0x8
   18abe:	8d4d                	or	a0,a0,a1
   18ac0:	14a91923          	sh	a0,338(s2)
   18ac4:	14c90a23          	sb	a2,340(s2)
   18ac8:	6505                	lui	a0,0x1
   18aca:	38850513          	addi	a0,a0,904 # 1388 <.Lline_table_start1+0x115d>
   18ace:	00a105b3          	add	a1,sp,a0
   18ad2:	6505                	lui	a0,0x1
   18ad4:	32450513          	addi	a0,a0,804 # 1324 <.Lline_table_start1+0x10f9>
   18ad8:	950a                	add	a0,a0,sp
   18ada:	4669                	li	a2,26
   18adc:	00002097          	auipc	ra,0x2
   18ae0:	028080e7          	jalr	40(ra) # 1ab04 <memcpy>
   18ae4:	01845513          	srli	a0,s0,0x18
   18ae8:	01045593          	srli	a1,s0,0x10
   18aec:	00845613          	srli	a2,s0,0x8
   18af0:	14890aa3          	sb	s0,341(s2)
   18af4:	14c90b23          	sb	a2,342(s2)
   18af8:	14b90ba3          	sb	a1,343(s2)
   18afc:	14a90c23          	sb	a0,344(s2)
   18b00:	7ff10513          	addi	a0,sp,2047
   18b04:	0ec50513          	addi	a0,a0,236
   18b08:	6585                	lui	a1,0x1
   18b0a:	32458593          	addi	a1,a1,804 # 1324 <.Lline_table_start1+0x10f9>
   18b0e:	958a                	add	a1,a1,sp
   18b10:	4669                	li	a2,26
   18b12:	00002097          	auipc	ra,0x2
   18b16:	ff2080e7          	jalr	-14(ra) # 1ab04 <memcpy>
   18b1a:	6505                	lui	a0,0x1
   18b1c:	38050513          	addi	a0,a0,896 # 1380 <.Lline_table_start1+0x1155>
   18b20:	950a                	add	a0,a0,sp
   18b22:	7ff10593          	addi	a1,sp,2047
   18b26:	0e558593          	addi	a1,a1,229
   18b2a:	ffffd097          	auipc	ra,0xffffd
   18b2e:	7b0080e7          	jalr	1968(ra) # 162da <_ZN20complex_full_dynamic3app17hec46065d30edd36dE>
   18b32:	3eca4503          	lbu	a0,1004(s4)
   18b36:	c119                	beqz	a0,18b3c <_start+0x1eae>
   18b38:	3e10106f          	j	1a718 <_start+0x3a8a>
   18b3c:	3eea4503          	lbu	a0,1006(s4)
   18b40:	3eda4583          	lbu	a1,1005(s4)
   18b44:	3efa4603          	lbu	a2,1007(s4)
   18b48:	3f0a2403          	lw	s0,1008(s4)
   18b4c:	0522                	slli	a0,a0,0x8
   18b4e:	8d4d                	or	a0,a0,a1
   18b50:	16a91a23          	sh	a0,372(s2)
   18b54:	16c90b23          	sb	a2,374(s2)
   18b58:	6505                	lui	a0,0x1
   18b5a:	38850513          	addi	a0,a0,904 # 1388 <.Lline_table_start1+0x115d>
   18b5e:	00a105b3          	add	a1,sp,a0
   18b62:	6505                	lui	a0,0x1
   18b64:	32450513          	addi	a0,a0,804 # 1324 <.Lline_table_start1+0x10f9>
   18b68:	950a                	add	a0,a0,sp
   18b6a:	04c00613          	li	a2,76
   18b6e:	00002097          	auipc	ra,0x2
   18b72:	f96080e7          	jalr	-106(ra) # 1ab04 <memcpy>
   18b76:	01845513          	srli	a0,s0,0x18
   18b7a:	01045593          	srli	a1,s0,0x10
   18b7e:	00845613          	srli	a2,s0,0x8
   18b82:	16890ba3          	sb	s0,375(s2)
   18b86:	16c90c23          	sb	a2,376(s2)
   18b8a:	16b90ca3          	sb	a1,377(s2)
   18b8e:	16a90d23          	sb	a0,378(s2)
   18b92:	7ff10513          	addi	a0,sp,2047
   18b96:	10e50513          	addi	a0,a0,270
   18b9a:	6585                	lui	a1,0x1
   18b9c:	32458593          	addi	a1,a1,804 # 1324 <.Lline_table_start1+0x10f9>
   18ba0:	958a                	add	a1,a1,sp
   18ba2:	04c00613          	li	a2,76
   18ba6:	00002097          	auipc	ra,0x2
   18baa:	f5e080e7          	jalr	-162(ra) # 1ab04 <memcpy>
   18bae:	6505                	lui	a0,0x1
   18bb0:	38050513          	addi	a0,a0,896 # 1380 <.Lline_table_start1+0x1155>
   18bb4:	950a                	add	a0,a0,sp
   18bb6:	7ff10593          	addi	a1,sp,2047
   18bba:	10758593          	addi	a1,a1,263
   18bbe:	ffffd097          	auipc	ra,0xffffd
   18bc2:	334080e7          	jalr	820(ra) # 15ef2 <_ZN20complex_full_dynamic3app17he2d4a824aff980edE>
   18bc6:	3eca4503          	lbu	a0,1004(s4)
   18bca:	c119                	beqz	a0,18bd0 <_start+0x1f42>
   18bcc:	34d0106f          	j	1a718 <_start+0x3a8a>
   18bd0:	3eea4503          	lbu	a0,1006(s4)
   18bd4:	3eda4583          	lbu	a1,1005(s4)
   18bd8:	3efa4603          	lbu	a2,1007(s4)
   18bdc:	3f0a2403          	lw	s0,1008(s4)
   18be0:	0522                	slli	a0,a0,0x8
   18be2:	8d4d                	or	a0,a0,a1
   18be4:	1ca91423          	sh	a0,456(s2)
   18be8:	1cc90523          	sb	a2,458(s2)
   18bec:	6505                	lui	a0,0x1
   18bee:	38850513          	addi	a0,a0,904 # 1388 <.Lline_table_start1+0x115d>
   18bf2:	00a105b3          	add	a1,sp,a0
   18bf6:	6505                	lui	a0,0x1
   18bf8:	32450513          	addi	a0,a0,804 # 1324 <.Lline_table_start1+0x10f9>
   18bfc:	950a                	add	a0,a0,sp
   18bfe:	04600613          	li	a2,70
   18c02:	00002097          	auipc	ra,0x2
   18c06:	f02080e7          	jalr	-254(ra) # 1ab04 <memcpy>
   18c0a:	01845513          	srli	a0,s0,0x18
   18c0e:	01045593          	srli	a1,s0,0x10
   18c12:	00845613          	srli	a2,s0,0x8
   18c16:	1c8905a3          	sb	s0,459(s2)
   18c1a:	1cc90623          	sb	a2,460(s2)
   18c1e:	1cb906a3          	sb	a1,461(s2)
   18c22:	1ca90723          	sb	a0,462(s2)
   18c26:	7ff10513          	addi	a0,sp,2047
   18c2a:	16250513          	addi	a0,a0,354
   18c2e:	6585                	lui	a1,0x1
   18c30:	32458593          	addi	a1,a1,804 # 1324 <.Lline_table_start1+0x10f9>
   18c34:	958a                	add	a1,a1,sp
   18c36:	04600613          	li	a2,70
   18c3a:	00002097          	auipc	ra,0x2
   18c3e:	eca080e7          	jalr	-310(ra) # 1ab04 <memcpy>
   18c42:	6505                	lui	a0,0x1
   18c44:	38050513          	addi	a0,a0,896 # 1380 <.Lline_table_start1+0x1155>
   18c48:	950a                	add	a0,a0,sp
   18c4a:	7ff10593          	addi	a1,sp,2047
   18c4e:	15b58593          	addi	a1,a1,347
   18c52:	ffff9097          	auipc	ra,0xffff9
   18c56:	9ba080e7          	jalr	-1606(ra) # 1160c <_ZN20complex_full_dynamic3app17h09975a09569f54e4E>
   18c5a:	3eca4503          	lbu	a0,1004(s4)
   18c5e:	c119                	beqz	a0,18c64 <_start+0x1fd6>
   18c60:	2b90106f          	j	1a718 <_start+0x3a8a>
   18c64:	3eea4503          	lbu	a0,1006(s4)
   18c68:	3eda4583          	lbu	a1,1005(s4)
   18c6c:	3efa4603          	lbu	a2,1007(s4)
   18c70:	3f0a2403          	lw	s0,1008(s4)
   18c74:	0522                	slli	a0,a0,0x8
   18c76:	8d4d                	or	a0,a0,a1
   18c78:	20a91b23          	sh	a0,534(s2)
   18c7c:	20c90c23          	sb	a2,536(s2)
   18c80:	6505                	lui	a0,0x1
   18c82:	38850513          	addi	a0,a0,904 # 1388 <.Lline_table_start1+0x115d>
   18c86:	00a105b3          	add	a1,sp,a0
   18c8a:	6505                	lui	a0,0x1
   18c8c:	32450513          	addi	a0,a0,804 # 1324 <.Lline_table_start1+0x10f9>
   18c90:	950a                	add	a0,a0,sp
   18c92:	03500613          	li	a2,53
   18c96:	00002097          	auipc	ra,0x2
   18c9a:	e6e080e7          	jalr	-402(ra) # 1ab04 <memcpy>
   18c9e:	01845513          	srli	a0,s0,0x18
   18ca2:	01045593          	srli	a1,s0,0x10
   18ca6:	00845613          	srli	a2,s0,0x8
   18caa:	20890ca3          	sb	s0,537(s2)
   18cae:	20c90d23          	sb	a2,538(s2)
   18cb2:	20b90da3          	sb	a1,539(s2)
   18cb6:	20a90e23          	sb	a0,540(s2)
   18cba:	7ff10513          	addi	a0,sp,2047
   18cbe:	1b050513          	addi	a0,a0,432
   18cc2:	6585                	lui	a1,0x1
   18cc4:	32458593          	addi	a1,a1,804 # 1324 <.Lline_table_start1+0x10f9>
   18cc8:	958a                	add	a1,a1,sp
   18cca:	03500613          	li	a2,53
   18cce:	00002097          	auipc	ra,0x2
   18cd2:	e36080e7          	jalr	-458(ra) # 1ab04 <memcpy>
   18cd6:	6505                	lui	a0,0x1
   18cd8:	38050513          	addi	a0,a0,896 # 1380 <.Lline_table_start1+0x1155>
   18cdc:	950a                	add	a0,a0,sp
   18cde:	7ff10593          	addi	a1,sp,2047
   18ce2:	1a958593          	addi	a1,a1,425
   18ce6:	ffffa097          	auipc	ra,0xffffa
   18cea:	366080e7          	jalr	870(ra) # 1304c <_ZN20complex_full_dynamic3app17h4b3c1eeca988433bE>
   18cee:	3eca4503          	lbu	a0,1004(s4)
   18cf2:	c119                	beqz	a0,18cf8 <_start+0x206a>
   18cf4:	2250106f          	j	1a718 <_start+0x3a8a>
   18cf8:	3eea4503          	lbu	a0,1006(s4)
   18cfc:	3eda4583          	lbu	a1,1005(s4)
   18d00:	3efa4603          	lbu	a2,1007(s4)
   18d04:	3f0a2403          	lw	s0,1008(s4)
   18d08:	0522                	slli	a0,a0,0x8
   18d0a:	8d4d                	or	a0,a0,a1
   18d0c:	24a91923          	sh	a0,594(s2)
   18d10:	24c90a23          	sb	a2,596(s2)
   18d14:	6505                	lui	a0,0x1
   18d16:	38850513          	addi	a0,a0,904 # 1388 <.Lline_table_start1+0x115d>
   18d1a:	00a105b3          	add	a1,sp,a0
   18d1e:	6505                	lui	a0,0x1
   18d20:	32450513          	addi	a0,a0,804 # 1324 <.Lline_table_start1+0x10f9>
   18d24:	950a                	add	a0,a0,sp
   18d26:	03100613          	li	a2,49
   18d2a:	00002097          	auipc	ra,0x2
   18d2e:	dda080e7          	jalr	-550(ra) # 1ab04 <memcpy>
   18d32:	01845513          	srli	a0,s0,0x18
   18d36:	01045593          	srli	a1,s0,0x10
   18d3a:	00845613          	srli	a2,s0,0x8
   18d3e:	24890aa3          	sb	s0,597(s2)
   18d42:	24c90b23          	sb	a2,598(s2)
   18d46:	24b90ba3          	sb	a1,599(s2)
   18d4a:	24a90c23          	sb	a0,600(s2)
   18d4e:	7ff10513          	addi	a0,sp,2047
   18d52:	1ec50513          	addi	a0,a0,492
   18d56:	6585                	lui	a1,0x1
   18d58:	32458593          	addi	a1,a1,804 # 1324 <.Lline_table_start1+0x10f9>
   18d5c:	958a                	add	a1,a1,sp
   18d5e:	03100613          	li	a2,49
   18d62:	00002097          	auipc	ra,0x2
   18d66:	da2080e7          	jalr	-606(ra) # 1ab04 <memcpy>
   18d6a:	6505                	lui	a0,0x1
   18d6c:	38050513          	addi	a0,a0,896 # 1380 <.Lline_table_start1+0x1155>
   18d70:	950a                	add	a0,a0,sp
   18d72:	7ff10593          	addi	a1,sp,2047
   18d76:	1e558593          	addi	a1,a1,485
   18d7a:	ffff9097          	auipc	ra,0xffff9
   18d7e:	724080e7          	jalr	1828(ra) # 1249e <_ZN20complex_full_dynamic3app17h2724c200026945dbE>
   18d82:	3eca4503          	lbu	a0,1004(s4)
   18d86:	c119                	beqz	a0,18d8c <_start+0x20fe>
   18d88:	1910106f          	j	1a718 <_start+0x3a8a>
   18d8c:	3eea4503          	lbu	a0,1006(s4)
   18d90:	3eda4583          	lbu	a1,1005(s4)
   18d94:	3efa4603          	lbu	a2,1007(s4)
   18d98:	3f0a2403          	lw	s0,1008(s4)
   18d9c:	0522                	slli	a0,a0,0x8
   18d9e:	8d4d                	or	a0,a0,a1
   18da0:	28a91523          	sh	a0,650(s2)
   18da4:	28c90623          	sb	a2,652(s2)
   18da8:	6505                	lui	a0,0x1
   18daa:	38850513          	addi	a0,a0,904 # 1388 <.Lline_table_start1+0x115d>
   18dae:	00a105b3          	add	a1,sp,a0
   18db2:	6505                	lui	a0,0x1
   18db4:	32450513          	addi	a0,a0,804 # 1324 <.Lline_table_start1+0x10f9>
   18db8:	950a                	add	a0,a0,sp
   18dba:	02000613          	li	a2,32
   18dbe:	00002097          	auipc	ra,0x2
   18dc2:	d46080e7          	jalr	-698(ra) # 1ab04 <memcpy>
   18dc6:	01845513          	srli	a0,s0,0x18
   18dca:	01045593          	srli	a1,s0,0x10
   18dce:	00845613          	srli	a2,s0,0x8
   18dd2:	288906a3          	sb	s0,653(s2)
   18dd6:	28c90723          	sb	a2,654(s2)
   18dda:	28b907a3          	sb	a1,655(s2)
   18dde:	28a90823          	sb	a0,656(s2)
   18de2:	7ff10513          	addi	a0,sp,2047
   18de6:	22450513          	addi	a0,a0,548
   18dea:	6585                	lui	a1,0x1
   18dec:	32458593          	addi	a1,a1,804 # 1324 <.Lline_table_start1+0x10f9>
   18df0:	958a                	add	a1,a1,sp
   18df2:	02000613          	li	a2,32
   18df6:	00002097          	auipc	ra,0x2
   18dfa:	d0e080e7          	jalr	-754(ra) # 1ab04 <memcpy>
   18dfe:	6505                	lui	a0,0x1
   18e00:	38050513          	addi	a0,a0,896 # 1380 <.Lline_table_start1+0x1155>
   18e04:	950a                	add	a0,a0,sp
   18e06:	7ff10593          	addi	a1,sp,2047
   18e0a:	21d58593          	addi	a1,a1,541
   18e0e:	ffffa097          	auipc	ra,0xffffa
   18e12:	52e080e7          	jalr	1326(ra) # 1333c <_ZN20complex_full_dynamic3app17h5656b3a7c9d6a7c2E>
   18e16:	3eca4503          	lbu	a0,1004(s4)
   18e1a:	c119                	beqz	a0,18e20 <_start+0x2192>
   18e1c:	0fd0106f          	j	1a718 <_start+0x3a8a>
   18e20:	3eea4503          	lbu	a0,1006(s4)
   18e24:	3eda4583          	lbu	a1,1005(s4)
   18e28:	3efa4603          	lbu	a2,1007(s4)
   18e2c:	3f0a2403          	lw	s0,1008(s4)
   18e30:	0522                	slli	a0,a0,0x8
   18e32:	8d4d                	or	a0,a0,a1
   18e34:	2aa91923          	sh	a0,690(s2)
   18e38:	2ac90a23          	sb	a2,692(s2)
   18e3c:	6505                	lui	a0,0x1
   18e3e:	38850513          	addi	a0,a0,904 # 1388 <.Lline_table_start1+0x115d>
   18e42:	00a105b3          	add	a1,sp,a0
   18e46:	6505                	lui	a0,0x1
   18e48:	32450513          	addi	a0,a0,804 # 1324 <.Lline_table_start1+0x10f9>
   18e4c:	950a                	add	a0,a0,sp
   18e4e:	04a00613          	li	a2,74
   18e52:	00002097          	auipc	ra,0x2
   18e56:	cb2080e7          	jalr	-846(ra) # 1ab04 <memcpy>
   18e5a:	01845513          	srli	a0,s0,0x18
   18e5e:	01045593          	srli	a1,s0,0x10
   18e62:	00845613          	srli	a2,s0,0x8
   18e66:	2a890aa3          	sb	s0,693(s2)
   18e6a:	2ac90b23          	sb	a2,694(s2)
   18e6e:	2ab90ba3          	sb	a1,695(s2)
   18e72:	2aa90c23          	sb	a0,696(s2)
   18e76:	7ff10513          	addi	a0,sp,2047
   18e7a:	24c50513          	addi	a0,a0,588
   18e7e:	6585                	lui	a1,0x1
   18e80:	32458593          	addi	a1,a1,804 # 1324 <.Lline_table_start1+0x10f9>
   18e84:	958a                	add	a1,a1,sp
   18e86:	04a00613          	li	a2,74
   18e8a:	00002097          	auipc	ra,0x2
   18e8e:	c7a080e7          	jalr	-902(ra) # 1ab04 <memcpy>
   18e92:	6505                	lui	a0,0x1
   18e94:	38050513          	addi	a0,a0,896 # 1380 <.Lline_table_start1+0x1155>
   18e98:	950a                	add	a0,a0,sp
   18e9a:	7ff10593          	addi	a1,sp,2047
   18e9e:	24558593          	addi	a1,a1,581
   18ea2:	ffffb097          	auipc	ra,0xffffb
   18ea6:	618080e7          	jalr	1560(ra) # 144ba <_ZN20complex_full_dynamic3app17h9c86ec7552d58f38E>
   18eaa:	3eca4503          	lbu	a0,1004(s4)
   18eae:	c119                	beqz	a0,18eb4 <_start+0x2226>
   18eb0:	0690106f          	j	1a718 <_start+0x3a8a>
   18eb4:	3eea4503          	lbu	a0,1006(s4)
   18eb8:	3eda4583          	lbu	a1,1005(s4)
   18ebc:	3efa4603          	lbu	a2,1007(s4)
   18ec0:	3f0a2403          	lw	s0,1008(s4)
   18ec4:	0522                	slli	a0,a0,0x8
   18ec6:	8d4d                	or	a0,a0,a1
   18ec8:	30a91223          	sh	a0,772(s2)
   18ecc:	30c90323          	sb	a2,774(s2)
   18ed0:	6505                	lui	a0,0x1
   18ed2:	38850513          	addi	a0,a0,904 # 1388 <.Lline_table_start1+0x115d>
   18ed6:	00a105b3          	add	a1,sp,a0
   18eda:	6505                	lui	a0,0x1
   18edc:	32450513          	addi	a0,a0,804 # 1324 <.Lline_table_start1+0x10f9>
   18ee0:	950a                	add	a0,a0,sp
   18ee2:	04800613          	li	a2,72
   18ee6:	00002097          	auipc	ra,0x2
   18eea:	c1e080e7          	jalr	-994(ra) # 1ab04 <memcpy>
   18eee:	01845513          	srli	a0,s0,0x18
   18ef2:	01045593          	srli	a1,s0,0x10
   18ef6:	00845613          	srli	a2,s0,0x8
   18efa:	308903a3          	sb	s0,775(s2)
   18efe:	30c90423          	sb	a2,776(s2)
   18f02:	30b904a3          	sb	a1,777(s2)
   18f06:	30a90523          	sb	a0,778(s2)
   18f0a:	7ff10513          	addi	a0,sp,2047
   18f0e:	29e50513          	addi	a0,a0,670
   18f12:	6585                	lui	a1,0x1
   18f14:	32458593          	addi	a1,a1,804 # 1324 <.Lline_table_start1+0x10f9>
   18f18:	958a                	add	a1,a1,sp
   18f1a:	04800613          	li	a2,72
   18f1e:	00002097          	auipc	ra,0x2
   18f22:	be6080e7          	jalr	-1050(ra) # 1ab04 <memcpy>
   18f26:	6505                	lui	a0,0x1
   18f28:	38050513          	addi	a0,a0,896 # 1380 <.Lline_table_start1+0x1155>
   18f2c:	950a                	add	a0,a0,sp
   18f2e:	7ff10593          	addi	a1,sp,2047
   18f32:	29758593          	addi	a1,a1,663
   18f36:	ffffa097          	auipc	ra,0xffffa
   18f3a:	a46080e7          	jalr	-1466(ra) # 1297c <_ZN20complex_full_dynamic3app17h3d36d1b1a9af0243E>
   18f3e:	3eca4503          	lbu	a0,1004(s4)
   18f42:	c119                	beqz	a0,18f48 <_start+0x22ba>
   18f44:	7d40106f          	j	1a718 <_start+0x3a8a>
   18f48:	3eea4503          	lbu	a0,1006(s4)
   18f4c:	3eda4583          	lbu	a1,1005(s4)
   18f50:	3efa4603          	lbu	a2,1007(s4)
   18f54:	3f0a2403          	lw	s0,1008(s4)
   18f58:	0522                	slli	a0,a0,0x8
   18f5a:	8d4d                	or	a0,a0,a1
   18f5c:	34a91a23          	sh	a0,852(s2)
   18f60:	34c90b23          	sb	a2,854(s2)
   18f64:	6505                	lui	a0,0x1
   18f66:	38850513          	addi	a0,a0,904 # 1388 <.Lline_table_start1+0x115d>
   18f6a:	00a105b3          	add	a1,sp,a0
   18f6e:	6505                	lui	a0,0x1
   18f70:	32450513          	addi	a0,a0,804 # 1324 <.Lline_table_start1+0x10f9>
   18f74:	950a                	add	a0,a0,sp
   18f76:	05a00613          	li	a2,90
   18f7a:	00002097          	auipc	ra,0x2
   18f7e:	b8a080e7          	jalr	-1142(ra) # 1ab04 <memcpy>
   18f82:	01845513          	srli	a0,s0,0x18
   18f86:	01045593          	srli	a1,s0,0x10
   18f8a:	00845613          	srli	a2,s0,0x8
   18f8e:	34890ba3          	sb	s0,855(s2)
   18f92:	34c90c23          	sb	a2,856(s2)
   18f96:	34b90ca3          	sb	a1,857(s2)
   18f9a:	34a90d23          	sb	a0,858(s2)
   18f9e:	7ff10513          	addi	a0,sp,2047
   18fa2:	2ee50513          	addi	a0,a0,750
   18fa6:	6585                	lui	a1,0x1
   18fa8:	32458593          	addi	a1,a1,804 # 1324 <.Lline_table_start1+0x10f9>
   18fac:	958a                	add	a1,a1,sp
   18fae:	05a00613          	li	a2,90
   18fb2:	00002097          	auipc	ra,0x2
   18fb6:	b52080e7          	jalr	-1198(ra) # 1ab04 <memcpy>
   18fba:	6505                	lui	a0,0x1
   18fbc:	38050513          	addi	a0,a0,896 # 1380 <.Lline_table_start1+0x1155>
   18fc0:	950a                	add	a0,a0,sp
   18fc2:	7ff10593          	addi	a1,sp,2047
   18fc6:	2e758593          	addi	a1,a1,743
   18fca:	ffffd097          	auipc	ra,0xffffd
   18fce:	7e8080e7          	jalr	2024(ra) # 167b2 <_ZN20complex_full_dynamic3app17hf8279872ec2ba0caE>
   18fd2:	3eca4503          	lbu	a0,1004(s4)
   18fd6:	c119                	beqz	a0,18fdc <_start+0x234e>
   18fd8:	7400106f          	j	1a718 <_start+0x3a8a>
   18fdc:	3eea4503          	lbu	a0,1006(s4)
   18fe0:	3eda4583          	lbu	a1,1005(s4)
   18fe4:	3efa4603          	lbu	a2,1007(s4)
   18fe8:	3f0a2403          	lw	s0,1008(s4)
   18fec:	0522                	slli	a0,a0,0x8
   18fee:	8d4d                	or	a0,a0,a1
   18ff0:	3aa91b23          	sh	a0,950(s2)
   18ff4:	3ac90c23          	sb	a2,952(s2)
   18ff8:	6505                	lui	a0,0x1
   18ffa:	38850513          	addi	a0,a0,904 # 1388 <.Lline_table_start1+0x115d>
   18ffe:	00a105b3          	add	a1,sp,a0
   19002:	6505                	lui	a0,0x1
   19004:	32450513          	addi	a0,a0,804 # 1324 <.Lline_table_start1+0x10f9>
   19008:	950a                	add	a0,a0,sp
   1900a:	465d                	li	a2,23
   1900c:	00002097          	auipc	ra,0x2
   19010:	af8080e7          	jalr	-1288(ra) # 1ab04 <memcpy>
   19014:	01845513          	srli	a0,s0,0x18
   19018:	01045593          	srli	a1,s0,0x10
   1901c:	00845613          	srli	a2,s0,0x8
   19020:	3a890ca3          	sb	s0,953(s2)
   19024:	3ac90d23          	sb	a2,954(s2)
   19028:	3ab90da3          	sb	a1,955(s2)
   1902c:	3aa90e23          	sb	a0,956(s2)
   19030:	7ff10513          	addi	a0,sp,2047
   19034:	35050513          	addi	a0,a0,848
   19038:	6585                	lui	a1,0x1
   1903a:	32458593          	addi	a1,a1,804 # 1324 <.Lline_table_start1+0x10f9>
   1903e:	958a                	add	a1,a1,sp
   19040:	465d                	li	a2,23
   19042:	00002097          	auipc	ra,0x2
   19046:	ac2080e7          	jalr	-1342(ra) # 1ab04 <memcpy>
   1904a:	6505                	lui	a0,0x1
   1904c:	38050513          	addi	a0,a0,896 # 1380 <.Lline_table_start1+0x1155>
   19050:	950a                	add	a0,a0,sp
   19052:	7ff10593          	addi	a1,sp,2047
   19056:	34958593          	addi	a1,a1,841
   1905a:	ffff9097          	auipc	ra,0xffff9
   1905e:	34c080e7          	jalr	844(ra) # 123a6 <_ZN20complex_full_dynamic3app17h24b8ade672a4c831E>
   19062:	3eca4503          	lbu	a0,1004(s4)
   19066:	c119                	beqz	a0,1906c <_start+0x23de>
   19068:	6b00106f          	j	1a718 <_start+0x3a8a>
   1906c:	3eea4503          	lbu	a0,1006(s4)
   19070:	3eda4583          	lbu	a1,1005(s4)
   19074:	3efa4603          	lbu	a2,1007(s4)
   19078:	3f0a2403          	lw	s0,1008(s4)
   1907c:	0522                	slli	a0,a0,0x8
   1907e:	8d4d                	or	a0,a0,a1
   19080:	3ca91a23          	sh	a0,980(s2)
   19084:	3cc90b23          	sb	a2,982(s2)
   19088:	6505                	lui	a0,0x1
   1908a:	38850513          	addi	a0,a0,904 # 1388 <.Lline_table_start1+0x115d>
   1908e:	00a105b3          	add	a1,sp,a0
   19092:	6505                	lui	a0,0x1
   19094:	32450513          	addi	a0,a0,804 # 1324 <.Lline_table_start1+0x10f9>
   19098:	950a                	add	a0,a0,sp
   1909a:	4669                	li	a2,26
   1909c:	00002097          	auipc	ra,0x2
   190a0:	a68080e7          	jalr	-1432(ra) # 1ab04 <memcpy>
   190a4:	01845513          	srli	a0,s0,0x18
   190a8:	01045593          	srli	a1,s0,0x10
   190ac:	00845613          	srli	a2,s0,0x8
   190b0:	3c890ba3          	sb	s0,983(s2)
   190b4:	3cc90c23          	sb	a2,984(s2)
   190b8:	3cb90ca3          	sb	a1,985(s2)
   190bc:	3ca90d23          	sb	a0,986(s2)
   190c0:	7ff10513          	addi	a0,sp,2047
   190c4:	36e50513          	addi	a0,a0,878
   190c8:	6585                	lui	a1,0x1
   190ca:	32458593          	addi	a1,a1,804 # 1324 <.Lline_table_start1+0x10f9>
   190ce:	958a                	add	a1,a1,sp
   190d0:	4669                	li	a2,26
   190d2:	00002097          	auipc	ra,0x2
   190d6:	a32080e7          	jalr	-1486(ra) # 1ab04 <memcpy>
   190da:	6505                	lui	a0,0x1
   190dc:	38050513          	addi	a0,a0,896 # 1380 <.Lline_table_start1+0x1155>
   190e0:	950a                	add	a0,a0,sp
   190e2:	7ff10593          	addi	a1,sp,2047
   190e6:	36758593          	addi	a1,a1,871
   190ea:	ffffd097          	auipc	ra,0xffffd
   190ee:	2ea080e7          	jalr	746(ra) # 163d4 <_ZN20complex_full_dynamic3app17hf1b61440673a7324E>
   190f2:	3eca4503          	lbu	a0,1004(s4)
   190f6:	c119                	beqz	a0,190fc <_start+0x246e>
   190f8:	6200106f          	j	1a718 <_start+0x3a8a>
   190fc:	3eea4503          	lbu	a0,1006(s4)
   19100:	3eda4583          	lbu	a1,1005(s4)
   19104:	3efa4603          	lbu	a2,1007(s4)
   19108:	3f0a2403          	lw	s0,1008(s4)
   1910c:	0522                	slli	a0,a0,0x8
   1910e:	8d4d                	or	a0,a0,a1
   19110:	3ea91b23          	sh	a0,1014(s2)
   19114:	3ec90c23          	sb	a2,1016(s2)
   19118:	6505                	lui	a0,0x1
   1911a:	38850513          	addi	a0,a0,904 # 1388 <.Lline_table_start1+0x115d>
   1911e:	00a105b3          	add	a1,sp,a0
   19122:	6505                	lui	a0,0x1
   19124:	32450513          	addi	a0,a0,804 # 1324 <.Lline_table_start1+0x10f9>
   19128:	950a                	add	a0,a0,sp
   1912a:	02300613          	li	a2,35
   1912e:	00002097          	auipc	ra,0x2
   19132:	9d6080e7          	jalr	-1578(ra) # 1ab04 <memcpy>
   19136:	01845513          	srli	a0,s0,0x18
   1913a:	01045593          	srli	a1,s0,0x10
   1913e:	00845613          	srli	a2,s0,0x8
   19142:	3e890ca3          	sb	s0,1017(s2)
   19146:	3ec90d23          	sb	a2,1018(s2)
   1914a:	3eb90da3          	sb	a1,1019(s2)
   1914e:	3ea90e23          	sb	a0,1020(s2)
   19152:	7ff10513          	addi	a0,sp,2047
   19156:	39050513          	addi	a0,a0,912
   1915a:	6585                	lui	a1,0x1
   1915c:	32458593          	addi	a1,a1,804 # 1324 <.Lline_table_start1+0x10f9>
   19160:	958a                	add	a1,a1,sp
   19162:	02300613          	li	a2,35
   19166:	00002097          	auipc	ra,0x2
   1916a:	99e080e7          	jalr	-1634(ra) # 1ab04 <memcpy>
   1916e:	6505                	lui	a0,0x1
   19170:	38050513          	addi	a0,a0,896 # 1380 <.Lline_table_start1+0x1155>
   19174:	950a                	add	a0,a0,sp
   19176:	7ff10593          	addi	a1,sp,2047
   1917a:	38958593          	addi	a1,a1,905
   1917e:	ffffa097          	auipc	ra,0xffffa
   19182:	fc8080e7          	jalr	-56(ra) # 13146 <_ZN20complex_full_dynamic3app17h4cd8293982950b97E>
   19186:	3eca4503          	lbu	a0,1004(s4)
   1918a:	c119                	beqz	a0,19190 <_start+0x2502>
   1918c:	58c0106f          	j	1a718 <_start+0x3a8a>
   19190:	3eea4503          	lbu	a0,1006(s4)
   19194:	3eda4583          	lbu	a1,1005(s4)
   19198:	3efa4603          	lbu	a2,1007(s4)
   1919c:	3f0a2403          	lw	s0,1008(s4)
   191a0:	0522                	slli	a0,a0,0x8
   191a2:	8d4d                	or	a0,a0,a1
   191a4:	42a91023          	sh	a0,1056(s2)
   191a8:	42c90123          	sb	a2,1058(s2)
   191ac:	6505                	lui	a0,0x1
   191ae:	38850513          	addi	a0,a0,904 # 1388 <.Lline_table_start1+0x115d>
   191b2:	00a105b3          	add	a1,sp,a0
   191b6:	6505                	lui	a0,0x1
   191b8:	32450513          	addi	a0,a0,804 # 1324 <.Lline_table_start1+0x10f9>
   191bc:	950a                	add	a0,a0,sp
   191be:	05200613          	li	a2,82
   191c2:	00002097          	auipc	ra,0x2
   191c6:	942080e7          	jalr	-1726(ra) # 1ab04 <memcpy>
   191ca:	01845513          	srli	a0,s0,0x18
   191ce:	01045593          	srli	a1,s0,0x10
   191d2:	00845613          	srli	a2,s0,0x8
   191d6:	428901a3          	sb	s0,1059(s2)
   191da:	42c90223          	sb	a2,1060(s2)
   191de:	42b902a3          	sb	a1,1061(s2)
   191e2:	42a90323          	sb	a0,1062(s2)
   191e6:	7ff10513          	addi	a0,sp,2047
   191ea:	3ba50513          	addi	a0,a0,954
   191ee:	6585                	lui	a1,0x1
   191f0:	32458593          	addi	a1,a1,804 # 1324 <.Lline_table_start1+0x10f9>
   191f4:	958a                	add	a1,a1,sp
   191f6:	05200613          	li	a2,82
   191fa:	00002097          	auipc	ra,0x2
   191fe:	90a080e7          	jalr	-1782(ra) # 1ab04 <memcpy>
   19202:	6505                	lui	a0,0x1
   19204:	38050513          	addi	a0,a0,896 # 1380 <.Lline_table_start1+0x1155>
   19208:	950a                	add	a0,a0,sp
   1920a:	7ff10593          	addi	a1,sp,2047
   1920e:	3b358593          	addi	a1,a1,947
   19212:	ffffc097          	auipc	ra,0xffffc
   19216:	42a080e7          	jalr	1066(ra) # 1563c <_ZN20complex_full_dynamic3app17hc9ddce09b678ddc5E>
   1921a:	3eca4503          	lbu	a0,1004(s4)
   1921e:	c119                	beqz	a0,19224 <_start+0x2596>
   19220:	4f80106f          	j	1a718 <_start+0x3a8a>
   19224:	3eea4503          	lbu	a0,1006(s4)
   19228:	3eda4583          	lbu	a1,1005(s4)
   1922c:	3efa4603          	lbu	a2,1007(s4)
   19230:	3f0a2403          	lw	s0,1008(s4)
   19234:	0522                	slli	a0,a0,0x8
   19236:	8d4d                	or	a0,a0,a1
   19238:	46a91d23          	sh	a0,1146(s2)
   1923c:	46c90e23          	sb	a2,1148(s2)
   19240:	6505                	lui	a0,0x1
   19242:	38850513          	addi	a0,a0,904 # 1388 <.Lline_table_start1+0x115d>
   19246:	00a105b3          	add	a1,sp,a0
   1924a:	6505                	lui	a0,0x1
   1924c:	32450513          	addi	a0,a0,804 # 1324 <.Lline_table_start1+0x10f9>
   19250:	950a                	add	a0,a0,sp
   19252:	04300613          	li	a2,67
   19256:	00002097          	auipc	ra,0x2
   1925a:	8ae080e7          	jalr	-1874(ra) # 1ab04 <memcpy>
   1925e:	01845513          	srli	a0,s0,0x18
   19262:	01045593          	srli	a1,s0,0x10
   19266:	00845613          	srli	a2,s0,0x8
   1926a:	46890ea3          	sb	s0,1149(s2)
   1926e:	46c90f23          	sb	a2,1150(s2)
   19272:	46b90fa3          	sb	a1,1151(s2)
   19276:	48a90023          	sb	a0,1152(s2)
   1927a:	7ff10513          	addi	a0,sp,2047
   1927e:	41450513          	addi	a0,a0,1044
   19282:	6585                	lui	a1,0x1
   19284:	32458593          	addi	a1,a1,804 # 1324 <.Lline_table_start1+0x10f9>
   19288:	958a                	add	a1,a1,sp
   1928a:	04300613          	li	a2,67
   1928e:	00002097          	auipc	ra,0x2
   19292:	876080e7          	jalr	-1930(ra) # 1ab04 <memcpy>
   19296:	6505                	lui	a0,0x1
   19298:	38050513          	addi	a0,a0,896 # 1380 <.Lline_table_start1+0x1155>
   1929c:	950a                	add	a0,a0,sp
   1929e:	7ff10593          	addi	a1,sp,2047
   192a2:	40d58593          	addi	a1,a1,1037
   192a6:	ffffb097          	auipc	ra,0xffffb
   192aa:	e30080e7          	jalr	-464(ra) # 140d6 <_ZN20complex_full_dynamic3app17h88bbdfc50ea2ec32E>
   192ae:	3eca4503          	lbu	a0,1004(s4)
   192b2:	c119                	beqz	a0,192b8 <_start+0x262a>
   192b4:	4640106f          	j	1a718 <_start+0x3a8a>
   192b8:	3eea4503          	lbu	a0,1006(s4)
   192bc:	3eda4583          	lbu	a1,1005(s4)
   192c0:	3efa4603          	lbu	a2,1007(s4)
   192c4:	3f0a2403          	lw	s0,1008(s4)
   192c8:	0522                	slli	a0,a0,0x8
   192ca:	8d4d                	or	a0,a0,a1
   192cc:	4ca91223          	sh	a0,1220(s2)
   192d0:	4cc90323          	sb	a2,1222(s2)
   192d4:	6505                	lui	a0,0x1
   192d6:	38850513          	addi	a0,a0,904 # 1388 <.Lline_table_start1+0x115d>
   192da:	00a105b3          	add	a1,sp,a0
   192de:	6505                	lui	a0,0x1
   192e0:	32450513          	addi	a0,a0,804 # 1324 <.Lline_table_start1+0x10f9>
   192e4:	950a                	add	a0,a0,sp
   192e6:	02600613          	li	a2,38
   192ea:	00002097          	auipc	ra,0x2
   192ee:	81a080e7          	jalr	-2022(ra) # 1ab04 <memcpy>
   192f2:	01845513          	srli	a0,s0,0x18
   192f6:	01045593          	srli	a1,s0,0x10
   192fa:	00845613          	srli	a2,s0,0x8
   192fe:	4c8903a3          	sb	s0,1223(s2)
   19302:	4cc90423          	sb	a2,1224(s2)
   19306:	4cb904a3          	sb	a1,1225(s2)
   1930a:	4ca90523          	sb	a0,1226(s2)
   1930e:	7ff10513          	addi	a0,sp,2047
   19312:	45e50513          	addi	a0,a0,1118
   19316:	6585                	lui	a1,0x1
   19318:	32458593          	addi	a1,a1,804 # 1324 <.Lline_table_start1+0x10f9>
   1931c:	958a                	add	a1,a1,sp
   1931e:	02600613          	li	a2,38
   19322:	00001097          	auipc	ra,0x1
   19326:	7e2080e7          	jalr	2018(ra) # 1ab04 <memcpy>
   1932a:	6505                	lui	a0,0x1
   1932c:	38050513          	addi	a0,a0,896 # 1380 <.Lline_table_start1+0x1155>
   19330:	950a                	add	a0,a0,sp
   19332:	7ff10593          	addi	a1,sp,2047
   19336:	45758593          	addi	a1,a1,1111
   1933a:	ffffa097          	auipc	ra,0xffffa
   1933e:	5de080e7          	jalr	1502(ra) # 13918 <_ZN20complex_full_dynamic3app17h68c04784fd9bbdedE>
   19342:	3eca4503          	lbu	a0,1004(s4)
   19346:	c119                	beqz	a0,1934c <_start+0x26be>
   19348:	3d00106f          	j	1a718 <_start+0x3a8a>
   1934c:	3eea4503          	lbu	a0,1006(s4)
   19350:	3eda4583          	lbu	a1,1005(s4)
   19354:	3efa4603          	lbu	a2,1007(s4)
   19358:	3f0a2403          	lw	s0,1008(s4)
   1935c:	0522                	slli	a0,a0,0x8
   1935e:	8d4d                	or	a0,a0,a1
   19360:	4ea91923          	sh	a0,1266(s2)
   19364:	4ec90a23          	sb	a2,1268(s2)
   19368:	6505                	lui	a0,0x1
   1936a:	38850513          	addi	a0,a0,904 # 1388 <.Lline_table_start1+0x115d>
   1936e:	00a105b3          	add	a1,sp,a0
   19372:	6505                	lui	a0,0x1
   19374:	32450513          	addi	a0,a0,804 # 1324 <.Lline_table_start1+0x10f9>
   19378:	950a                	add	a0,a0,sp
   1937a:	04c00613          	li	a2,76
   1937e:	00001097          	auipc	ra,0x1
   19382:	786080e7          	jalr	1926(ra) # 1ab04 <memcpy>
   19386:	01845513          	srli	a0,s0,0x18
   1938a:	01045593          	srli	a1,s0,0x10
   1938e:	00845613          	srli	a2,s0,0x8
   19392:	4e890aa3          	sb	s0,1269(s2)
   19396:	4ec90b23          	sb	a2,1270(s2)
   1939a:	4eb90ba3          	sb	a1,1271(s2)
   1939e:	4ea90c23          	sb	a0,1272(s2)
   193a2:	7ff10513          	addi	a0,sp,2047
   193a6:	48c50513          	addi	a0,a0,1164
   193aa:	6585                	lui	a1,0x1
   193ac:	32458593          	addi	a1,a1,804 # 1324 <.Lline_table_start1+0x10f9>
   193b0:	958a                	add	a1,a1,sp
   193b2:	04c00613          	li	a2,76
   193b6:	00001097          	auipc	ra,0x1
   193ba:	74e080e7          	jalr	1870(ra) # 1ab04 <memcpy>
   193be:	6505                	lui	a0,0x1
   193c0:	38050513          	addi	a0,a0,896 # 1380 <.Lline_table_start1+0x1155>
   193c4:	950a                	add	a0,a0,sp
   193c6:	7ff10593          	addi	a1,sp,2047
   193ca:	48558593          	addi	a1,a1,1157
   193ce:	ffffd097          	auipc	ra,0xffffd
   193d2:	d14080e7          	jalr	-748(ra) # 160e2 <_ZN20complex_full_dynamic3app17he6c7b51758f2ba40E>
   193d6:	3eca4503          	lbu	a0,1004(s4)
   193da:	c119                	beqz	a0,193e0 <_start+0x2752>
   193dc:	33c0106f          	j	1a718 <_start+0x3a8a>
   193e0:	3eea4503          	lbu	a0,1006(s4)
   193e4:	3eda4583          	lbu	a1,1005(s4)
   193e8:	3efa4603          	lbu	a2,1007(s4)
   193ec:	3f0a2403          	lw	s0,1008(s4)
   193f0:	0522                	slli	a0,a0,0x8
   193f2:	8d4d                	or	a0,a0,a1
   193f4:	54a91323          	sh	a0,1350(s2)
   193f8:	54c90423          	sb	a2,1352(s2)
   193fc:	6505                	lui	a0,0x1
   193fe:	38850513          	addi	a0,a0,904 # 1388 <.Lline_table_start1+0x115d>
   19402:	00a105b3          	add	a1,sp,a0
   19406:	6505                	lui	a0,0x1
   19408:	32450513          	addi	a0,a0,804 # 1324 <.Lline_table_start1+0x10f9>
   1940c:	950a                	add	a0,a0,sp
   1940e:	03300613          	li	a2,51
   19412:	00001097          	auipc	ra,0x1
   19416:	6f2080e7          	jalr	1778(ra) # 1ab04 <memcpy>
   1941a:	01845513          	srli	a0,s0,0x18
   1941e:	01045593          	srli	a1,s0,0x10
   19422:	00845613          	srli	a2,s0,0x8
   19426:	548904a3          	sb	s0,1353(s2)
   1942a:	54c90523          	sb	a2,1354(s2)
   1942e:	54b905a3          	sb	a1,1355(s2)
   19432:	54a90623          	sb	a0,1356(s2)
   19436:	7ff10513          	addi	a0,sp,2047
   1943a:	4e050513          	addi	a0,a0,1248
   1943e:	6585                	lui	a1,0x1
   19440:	32458593          	addi	a1,a1,804 # 1324 <.Lline_table_start1+0x10f9>
   19444:	958a                	add	a1,a1,sp
   19446:	03300613          	li	a2,51
   1944a:	00001097          	auipc	ra,0x1
   1944e:	6ba080e7          	jalr	1722(ra) # 1ab04 <memcpy>
   19452:	6505                	lui	a0,0x1
   19454:	38050513          	addi	a0,a0,896 # 1380 <.Lline_table_start1+0x1155>
   19458:	950a                	add	a0,a0,sp
   1945a:	7ff10593          	addi	a1,sp,2047
   1945e:	4d958593          	addi	a1,a1,1241
   19462:	ffffb097          	auipc	ra,0xffffb
   19466:	342080e7          	jalr	834(ra) # 147a4 <_ZN20complex_full_dynamic3app17ha1efef47bcdeae8aE>
   1946a:	3eca4503          	lbu	a0,1004(s4)
   1946e:	c119                	beqz	a0,19474 <_start+0x27e6>
   19470:	2a80106f          	j	1a718 <_start+0x3a8a>
   19474:	3eea4503          	lbu	a0,1006(s4)
   19478:	3eda4583          	lbu	a1,1005(s4)
   1947c:	3efa4603          	lbu	a2,1007(s4)
   19480:	3f0a2403          	lw	s0,1008(s4)
   19484:	0522                	slli	a0,a0,0x8
   19486:	8d4d                	or	a0,a0,a1
   19488:	58a91023          	sh	a0,1408(s2)
   1948c:	58c90123          	sb	a2,1410(s2)
   19490:	6505                	lui	a0,0x1
   19492:	38850513          	addi	a0,a0,904 # 1388 <.Lline_table_start1+0x115d>
   19496:	00a105b3          	add	a1,sp,a0
   1949a:	6505                	lui	a0,0x1
   1949c:	32450513          	addi	a0,a0,804 # 1324 <.Lline_table_start1+0x10f9>
   194a0:	950a                	add	a0,a0,sp
   194a2:	05600613          	li	a2,86
   194a6:	00001097          	auipc	ra,0x1
   194aa:	65e080e7          	jalr	1630(ra) # 1ab04 <memcpy>
   194ae:	01845513          	srli	a0,s0,0x18
   194b2:	01045593          	srli	a1,s0,0x10
   194b6:	00845613          	srli	a2,s0,0x8
   194ba:	588901a3          	sb	s0,1411(s2)
   194be:	58c90223          	sb	a2,1412(s2)
   194c2:	58b902a3          	sb	a1,1413(s2)
   194c6:	58a90323          	sb	a0,1414(s2)
   194ca:	7ff10513          	addi	a0,sp,2047
   194ce:	51a50513          	addi	a0,a0,1306
   194d2:	6585                	lui	a1,0x1
   194d4:	32458593          	addi	a1,a1,804 # 1324 <.Lline_table_start1+0x10f9>
   194d8:	958a                	add	a1,a1,sp
   194da:	05600613          	li	a2,86
   194de:	00001097          	auipc	ra,0x1
   194e2:	626080e7          	jalr	1574(ra) # 1ab04 <memcpy>
   194e6:	6505                	lui	a0,0x1
   194e8:	38050513          	addi	a0,a0,896 # 1380 <.Lline_table_start1+0x1155>
   194ec:	950a                	add	a0,a0,sp
   194ee:	7ff10593          	addi	a1,sp,2047
   194f2:	51358593          	addi	a1,a1,1299
   194f6:	ffffd097          	auipc	ra,0xffffd
   194fa:	ce8080e7          	jalr	-792(ra) # 161de <_ZN20complex_full_dynamic3app17hea84791ef4d85ef8E>
   194fe:	3eca4503          	lbu	a0,1004(s4)
   19502:	c119                	beqz	a0,19508 <_start+0x287a>
   19504:	2140106f          	j	1a718 <_start+0x3a8a>
   19508:	3eea4503          	lbu	a0,1006(s4)
   1950c:	3eda4583          	lbu	a1,1005(s4)
   19510:	3efa4603          	lbu	a2,1007(s4)
   19514:	3f0a2403          	lw	s0,1008(s4)
   19518:	0522                	slli	a0,a0,0x8
   1951a:	8d4d                	or	a0,a0,a1
   1951c:	5ca91f23          	sh	a0,1502(s2)
   19520:	5ec90023          	sb	a2,1504(s2)
   19524:	6505                	lui	a0,0x1
   19526:	38850513          	addi	a0,a0,904 # 1388 <.Lline_table_start1+0x115d>
   1952a:	00a105b3          	add	a1,sp,a0
   1952e:	6505                	lui	a0,0x1
   19530:	32450513          	addi	a0,a0,804 # 1324 <.Lline_table_start1+0x10f9>
   19534:	950a                	add	a0,a0,sp
   19536:	03900613          	li	a2,57
   1953a:	00001097          	auipc	ra,0x1
   1953e:	5ca080e7          	jalr	1482(ra) # 1ab04 <memcpy>
   19542:	01845513          	srli	a0,s0,0x18
   19546:	01045593          	srli	a1,s0,0x10
   1954a:	00845613          	srli	a2,s0,0x8
   1954e:	5e8900a3          	sb	s0,1505(s2)
   19552:	5ec90123          	sb	a2,1506(s2)
   19556:	5eb901a3          	sb	a1,1507(s2)
   1955a:	5ea90223          	sb	a0,1508(s2)
   1955e:	7ff10513          	addi	a0,sp,2047
   19562:	57850513          	addi	a0,a0,1400
   19566:	6585                	lui	a1,0x1
   19568:	32458593          	addi	a1,a1,804 # 1324 <.Lline_table_start1+0x10f9>
   1956c:	958a                	add	a1,a1,sp
   1956e:	03900613          	li	a2,57
   19572:	00001097          	auipc	ra,0x1
   19576:	592080e7          	jalr	1426(ra) # 1ab04 <memcpy>
   1957a:	6505                	lui	a0,0x1
   1957c:	38050513          	addi	a0,a0,896 # 1380 <.Lline_table_start1+0x1155>
   19580:	950a                	add	a0,a0,sp
   19582:	7ff10593          	addi	a1,sp,2047
   19586:	57158593          	addi	a1,a1,1393
   1958a:	ffffa097          	auipc	ra,0xffffa
   1958e:	672080e7          	jalr	1650(ra) # 13bfc <_ZN20complex_full_dynamic3app17h6e9ca73ceb32c3ffE>
   19592:	3eca4503          	lbu	a0,1004(s4)
   19596:	c119                	beqz	a0,1959c <_start+0x290e>
   19598:	1800106f          	j	1a718 <_start+0x3a8a>
   1959c:	3eea4503          	lbu	a0,1006(s4)
   195a0:	3eda4583          	lbu	a1,1005(s4)
   195a4:	3efa4603          	lbu	a2,1007(s4)
   195a8:	3f0a2403          	lw	s0,1008(s4)
   195ac:	0522                	slli	a0,a0,0x8
   195ae:	8d4d                	or	a0,a0,a1
   195b0:	60a91f23          	sh	a0,1566(s2)
   195b4:	62c90023          	sb	a2,1568(s2)
   195b8:	6505                	lui	a0,0x1
   195ba:	38850513          	addi	a0,a0,904 # 1388 <.Lline_table_start1+0x115d>
   195be:	00a105b3          	add	a1,sp,a0
   195c2:	6505                	lui	a0,0x1
   195c4:	32450513          	addi	a0,a0,804 # 1324 <.Lline_table_start1+0x10f9>
   195c8:	950a                	add	a0,a0,sp
   195ca:	02a00613          	li	a2,42
   195ce:	00001097          	auipc	ra,0x1
   195d2:	536080e7          	jalr	1334(ra) # 1ab04 <memcpy>
   195d6:	01845513          	srli	a0,s0,0x18
   195da:	01045593          	srli	a1,s0,0x10
   195de:	00845613          	srli	a2,s0,0x8
   195e2:	628900a3          	sb	s0,1569(s2)
   195e6:	62c90123          	sb	a2,1570(s2)
   195ea:	62b901a3          	sb	a1,1571(s2)
   195ee:	62a90223          	sb	a0,1572(s2)
   195f2:	7ff10513          	addi	a0,sp,2047
   195f6:	5b850513          	addi	a0,a0,1464
   195fa:	6585                	lui	a1,0x1
   195fc:	32458593          	addi	a1,a1,804 # 1324 <.Lline_table_start1+0x10f9>
   19600:	958a                	add	a1,a1,sp
   19602:	02a00613          	li	a2,42
   19606:	00001097          	auipc	ra,0x1
   1960a:	4fe080e7          	jalr	1278(ra) # 1ab04 <memcpy>
   1960e:	6505                	lui	a0,0x1
   19610:	38050513          	addi	a0,a0,896 # 1380 <.Lline_table_start1+0x1155>
   19614:	950a                	add	a0,a0,sp
   19616:	7ff10593          	addi	a1,sp,2047
   1961a:	5b158593          	addi	a1,a1,1457
   1961e:	ffffb097          	auipc	ra,0xffffb
   19622:	75a080e7          	jalr	1882(ra) # 14d78 <_ZN20complex_full_dynamic3app17hb2d4b260f74f1142E>
   19626:	3eca4503          	lbu	a0,1004(s4)
   1962a:	c119                	beqz	a0,19630 <_start+0x29a2>
   1962c:	0ec0106f          	j	1a718 <_start+0x3a8a>
   19630:	3eea4503          	lbu	a0,1006(s4)
   19634:	3eda4583          	lbu	a1,1005(s4)
   19638:	3efa4603          	lbu	a2,1007(s4)
   1963c:	3f0a2403          	lw	s0,1008(s4)
   19640:	0522                	slli	a0,a0,0x8
   19642:	8d4d                	or	a0,a0,a1
   19644:	64a91823          	sh	a0,1616(s2)
   19648:	64c90923          	sb	a2,1618(s2)
   1964c:	6505                	lui	a0,0x1
   1964e:	38850513          	addi	a0,a0,904 # 1388 <.Lline_table_start1+0x115d>
   19652:	00a105b3          	add	a1,sp,a0
   19656:	6505                	lui	a0,0x1
   19658:	32450513          	addi	a0,a0,804 # 1324 <.Lline_table_start1+0x10f9>
   1965c:	950a                	add	a0,a0,sp
   1965e:	04100613          	li	a2,65
   19662:	00001097          	auipc	ra,0x1
   19666:	4a2080e7          	jalr	1186(ra) # 1ab04 <memcpy>
   1966a:	01845513          	srli	a0,s0,0x18
   1966e:	01045593          	srli	a1,s0,0x10
   19672:	00845613          	srli	a2,s0,0x8
   19676:	648909a3          	sb	s0,1619(s2)
   1967a:	64c90a23          	sb	a2,1620(s2)
   1967e:	64b90aa3          	sb	a1,1621(s2)
   19682:	64a90b23          	sb	a0,1622(s2)
   19686:	7ff10513          	addi	a0,sp,2047
   1968a:	5ea50513          	addi	a0,a0,1514
   1968e:	6585                	lui	a1,0x1
   19690:	32458593          	addi	a1,a1,804 # 1324 <.Lline_table_start1+0x10f9>
   19694:	958a                	add	a1,a1,sp
   19696:	04100613          	li	a2,65
   1969a:	00001097          	auipc	ra,0x1
   1969e:	46a080e7          	jalr	1130(ra) # 1ab04 <memcpy>
   196a2:	6505                	lui	a0,0x1
   196a4:	38050513          	addi	a0,a0,896 # 1380 <.Lline_table_start1+0x1155>
   196a8:	950a                	add	a0,a0,sp
   196aa:	7ff10593          	addi	a1,sp,2047
   196ae:	5e358593          	addi	a1,a1,1507
   196b2:	ffffd097          	auipc	ra,0xffffd
   196b6:	1f8080e7          	jalr	504(ra) # 168aa <_ZN20complex_full_dynamic3app17hfb21389de49ef08eE>
   196ba:	3eca4503          	lbu	a0,1004(s4)
   196be:	c119                	beqz	a0,196c4 <_start+0x2a36>
   196c0:	0580106f          	j	1a718 <_start+0x3a8a>
   196c4:	3eea4503          	lbu	a0,1006(s4)
   196c8:	3eda4583          	lbu	a1,1005(s4)
   196cc:	3efa4603          	lbu	a2,1007(s4)
   196d0:	3f0a2403          	lw	s0,1008(s4)
   196d4:	0522                	slli	a0,a0,0x8
   196d6:	8d4d                	or	a0,a0,a1
   196d8:	68a91c23          	sh	a0,1688(s2)
   196dc:	68c90d23          	sb	a2,1690(s2)
   196e0:	6505                	lui	a0,0x1
   196e2:	38850513          	addi	a0,a0,904 # 1388 <.Lline_table_start1+0x115d>
   196e6:	00a105b3          	add	a1,sp,a0
   196ea:	6505                	lui	a0,0x1
   196ec:	32450513          	addi	a0,a0,804 # 1324 <.Lline_table_start1+0x10f9>
   196f0:	950a                	add	a0,a0,sp
   196f2:	02200613          	li	a2,34
   196f6:	00001097          	auipc	ra,0x1
   196fa:	40e080e7          	jalr	1038(ra) # 1ab04 <memcpy>
   196fe:	01845513          	srli	a0,s0,0x18
   19702:	01045593          	srli	a1,s0,0x10
   19706:	00845613          	srli	a2,s0,0x8
   1970a:	68890da3          	sb	s0,1691(s2)
   1970e:	68c90e23          	sb	a2,1692(s2)
   19712:	68b90ea3          	sb	a1,1693(s2)
   19716:	68a90f23          	sb	a0,1694(s2)
   1971a:	7ff10513          	addi	a0,sp,2047
   1971e:	63250513          	addi	a0,a0,1586
   19722:	6585                	lui	a1,0x1
   19724:	32458593          	addi	a1,a1,804 # 1324 <.Lline_table_start1+0x10f9>
   19728:	958a                	add	a1,a1,sp
   1972a:	02200613          	li	a2,34
   1972e:	00001097          	auipc	ra,0x1
   19732:	3d6080e7          	jalr	982(ra) # 1ab04 <memcpy>
   19736:	6505                	lui	a0,0x1
   19738:	38050513          	addi	a0,a0,896 # 1380 <.Lline_table_start1+0x1155>
   1973c:	950a                	add	a0,a0,sp
   1973e:	7ff10593          	addi	a1,sp,2047
   19742:	62b58593          	addi	a1,a1,1579
   19746:	ffff8097          	auipc	ra,0xffff8
   1974a:	be4080e7          	jalr	-1052(ra) # 1132a <_ZN20complex_full_dynamic3app17h043f23123c4d6715E>
   1974e:	3eca4503          	lbu	a0,1004(s4)
   19752:	7c0513e3          	bnez	a0,1a718 <_start+0x3a8a>
   19756:	3eea4503          	lbu	a0,1006(s4)
   1975a:	3eda4583          	lbu	a1,1005(s4)
   1975e:	3efa4603          	lbu	a2,1007(s4)
   19762:	3f0a2403          	lw	s0,1008(s4)
   19766:	0522                	slli	a0,a0,0x8
   19768:	8d4d                	or	a0,a0,a1
   1976a:	6ca91123          	sh	a0,1730(s2)
   1976e:	6cc90223          	sb	a2,1732(s2)
   19772:	6505                	lui	a0,0x1
   19774:	38850513          	addi	a0,a0,904 # 1388 <.Lline_table_start1+0x115d>
   19778:	00a105b3          	add	a1,sp,a0
   1977c:	6505                	lui	a0,0x1
   1977e:	32450513          	addi	a0,a0,804 # 1324 <.Lline_table_start1+0x10f9>
   19782:	950a                	add	a0,a0,sp
   19784:	464d                	li	a2,19
   19786:	00001097          	auipc	ra,0x1
   1978a:	37e080e7          	jalr	894(ra) # 1ab04 <memcpy>
   1978e:	01845513          	srli	a0,s0,0x18
   19792:	01045593          	srli	a1,s0,0x10
   19796:	00845613          	srli	a2,s0,0x8
   1979a:	6c8902a3          	sb	s0,1733(s2)
   1979e:	6cc90323          	sb	a2,1734(s2)
   197a2:	6cb903a3          	sb	a1,1735(s2)
   197a6:	6ca90423          	sb	a0,1736(s2)
   197aa:	7ff10513          	addi	a0,sp,2047
   197ae:	65c50513          	addi	a0,a0,1628
   197b2:	6585                	lui	a1,0x1
   197b4:	32458593          	addi	a1,a1,804 # 1324 <.Lline_table_start1+0x10f9>
   197b8:	958a                	add	a1,a1,sp
   197ba:	464d                	li	a2,19
   197bc:	00001097          	auipc	ra,0x1
   197c0:	348080e7          	jalr	840(ra) # 1ab04 <memcpy>
   197c4:	6505                	lui	a0,0x1
   197c6:	38050513          	addi	a0,a0,896 # 1380 <.Lline_table_start1+0x1155>
   197ca:	950a                	add	a0,a0,sp
   197cc:	7ff10593          	addi	a1,sp,2047
   197d0:	65558593          	addi	a1,a1,1621
   197d4:	ffffd097          	auipc	ra,0xffffd
   197d8:	2ce080e7          	jalr	718(ra) # 16aa2 <_ZN20complex_full_dynamic3app17hfcd747bb91530fa4E>
   197dc:	3eca4503          	lbu	a0,1004(s4)
   197e0:	72051ce3          	bnez	a0,1a718 <_start+0x3a8a>
   197e4:	3eea4503          	lbu	a0,1006(s4)
   197e8:	3eda4583          	lbu	a1,1005(s4)
   197ec:	3efa4603          	lbu	a2,1007(s4)
   197f0:	3f0a2403          	lw	s0,1008(s4)
   197f4:	0522                	slli	a0,a0,0x8
   197f6:	8d4d                	or	a0,a0,a1
   197f8:	6ca91e23          	sh	a0,1756(s2)
   197fc:	6cc90f23          	sb	a2,1758(s2)
   19800:	6505                	lui	a0,0x1
   19802:	38850513          	addi	a0,a0,904 # 1388 <.Lline_table_start1+0x115d>
   19806:	00a105b3          	add	a1,sp,a0
   1980a:	6505                	lui	a0,0x1
   1980c:	32450513          	addi	a0,a0,804 # 1324 <.Lline_table_start1+0x10f9>
   19810:	950a                	add	a0,a0,sp
   19812:	4651                	li	a2,20
   19814:	00001097          	auipc	ra,0x1
   19818:	2f0080e7          	jalr	752(ra) # 1ab04 <memcpy>
   1981c:	01845513          	srli	a0,s0,0x18
   19820:	01045593          	srli	a1,s0,0x10
   19824:	00845613          	srli	a2,s0,0x8
   19828:	6c890fa3          	sb	s0,1759(s2)
   1982c:	6ec90023          	sb	a2,1760(s2)
   19830:	6eb900a3          	sb	a1,1761(s2)
   19834:	6ea90123          	sb	a0,1762(s2)
   19838:	7ff10513          	addi	a0,sp,2047
   1983c:	67650513          	addi	a0,a0,1654
   19840:	6585                	lui	a1,0x1
   19842:	32458593          	addi	a1,a1,804 # 1324 <.Lline_table_start1+0x10f9>
   19846:	958a                	add	a1,a1,sp
   19848:	4651                	li	a2,20
   1984a:	00001097          	auipc	ra,0x1
   1984e:	2ba080e7          	jalr	698(ra) # 1ab04 <memcpy>
   19852:	6505                	lui	a0,0x1
   19854:	38050513          	addi	a0,a0,896 # 1380 <.Lline_table_start1+0x1155>
   19858:	950a                	add	a0,a0,sp
   1985a:	7ff10593          	addi	a1,sp,2047
   1985e:	66f58593          	addi	a1,a1,1647
   19862:	ffff9097          	auipc	ra,0xffff9
   19866:	314080e7          	jalr	788(ra) # 12b76 <_ZN20complex_full_dynamic3app17h434c2a4f8f4df491E>
   1986a:	3eca4503          	lbu	a0,1004(s4)
   1986e:	6a0515e3          	bnez	a0,1a718 <_start+0x3a8a>
   19872:	3eea4503          	lbu	a0,1006(s4)
   19876:	3eda4583          	lbu	a1,1005(s4)
   1987a:	3efa4603          	lbu	a2,1007(s4)
   1987e:	3f0a2403          	lw	s0,1008(s4)
   19882:	0522                	slli	a0,a0,0x8
   19884:	8d4d                	or	a0,a0,a1
   19886:	6ea91c23          	sh	a0,1784(s2)
   1988a:	6ec90d23          	sb	a2,1786(s2)
   1988e:	6505                	lui	a0,0x1
   19890:	38850513          	addi	a0,a0,904 # 1388 <.Lline_table_start1+0x115d>
   19894:	00a105b3          	add	a1,sp,a0
   19898:	6505                	lui	a0,0x1
   1989a:	32450513          	addi	a0,a0,804 # 1324 <.Lline_table_start1+0x10f9>
   1989e:	950a                	add	a0,a0,sp
   198a0:	03a00613          	li	a2,58
   198a4:	00001097          	auipc	ra,0x1
   198a8:	260080e7          	jalr	608(ra) # 1ab04 <memcpy>
   198ac:	01845513          	srli	a0,s0,0x18
   198b0:	01045593          	srli	a1,s0,0x10
   198b4:	00845613          	srli	a2,s0,0x8
   198b8:	6e890da3          	sb	s0,1787(s2)
   198bc:	6ec90e23          	sb	a2,1788(s2)
   198c0:	6eb90ea3          	sb	a1,1789(s2)
   198c4:	6ea90f23          	sb	a0,1790(s2)
   198c8:	7ff10513          	addi	a0,sp,2047
   198cc:	69250513          	addi	a0,a0,1682
   198d0:	6585                	lui	a1,0x1
   198d2:	32458593          	addi	a1,a1,804 # 1324 <.Lline_table_start1+0x10f9>
   198d6:	958a                	add	a1,a1,sp
   198d8:	03a00613          	li	a2,58
   198dc:	00001097          	auipc	ra,0x1
   198e0:	228080e7          	jalr	552(ra) # 1ab04 <memcpy>
   198e4:	6505                	lui	a0,0x1
   198e6:	38050513          	addi	a0,a0,896 # 1380 <.Lline_table_start1+0x1155>
   198ea:	950a                	add	a0,a0,sp
   198ec:	7ff10593          	addi	a1,sp,2047
   198f0:	68b58593          	addi	a1,a1,1675
   198f4:	ffffa097          	auipc	ra,0xffffa
   198f8:	6ec080e7          	jalr	1772(ra) # 13fe0 <_ZN20complex_full_dynamic3app17h828741e83922e3c7E>
   198fc:	3eca4503          	lbu	a0,1004(s4)
   19900:	60051ce3          	bnez	a0,1a718 <_start+0x3a8a>
   19904:	3eea4503          	lbu	a0,1006(s4)
   19908:	3eda4583          	lbu	a1,1005(s4)
   1990c:	3efa4603          	lbu	a2,1007(s4)
   19910:	3f0a2403          	lw	s0,1008(s4)
   19914:	0522                	slli	a0,a0,0x8
   19916:	8d4d                	or	a0,a0,a1
   19918:	72a91d23          	sh	a0,1850(s2)
   1991c:	72c90e23          	sb	a2,1852(s2)
   19920:	6505                	lui	a0,0x1
   19922:	38850513          	addi	a0,a0,904 # 1388 <.Lline_table_start1+0x115d>
   19926:	00a105b3          	add	a1,sp,a0
   1992a:	6505                	lui	a0,0x1
   1992c:	32450513          	addi	a0,a0,804 # 1324 <.Lline_table_start1+0x10f9>
   19930:	950a                	add	a0,a0,sp
   19932:	4645                	li	a2,17
   19934:	00001097          	auipc	ra,0x1
   19938:	1d0080e7          	jalr	464(ra) # 1ab04 <memcpy>
   1993c:	01845513          	srli	a0,s0,0x18
   19940:	01045593          	srli	a1,s0,0x10
   19944:	00845613          	srli	a2,s0,0x8
   19948:	72890ea3          	sb	s0,1853(s2)
   1994c:	72c90f23          	sb	a2,1854(s2)
   19950:	72b90fa3          	sb	a1,1855(s2)
   19954:	74a90023          	sb	a0,1856(s2)
   19958:	7ff10513          	addi	a0,sp,2047
   1995c:	6d450513          	addi	a0,a0,1748
   19960:	6585                	lui	a1,0x1
   19962:	32458593          	addi	a1,a1,804 # 1324 <.Lline_table_start1+0x10f9>
   19966:	958a                	add	a1,a1,sp
   19968:	4645                	li	a2,17
   1996a:	00001097          	auipc	ra,0x1
   1996e:	19a080e7          	jalr	410(ra) # 1ab04 <memcpy>
   19972:	6505                	lui	a0,0x1
   19974:	38050513          	addi	a0,a0,896 # 1380 <.Lline_table_start1+0x1155>
   19978:	950a                	add	a0,a0,sp
   1997a:	7ff10593          	addi	a1,sp,2047
   1997e:	6cd58593          	addi	a1,a1,1741
   19982:	ffffc097          	auipc	ra,0xffffc
   19986:	8de080e7          	jalr	-1826(ra) # 15260 <_ZN20complex_full_dynamic3app17hbeaf025bf9f1febdE>
   1998a:	3eca4503          	lbu	a0,1004(s4)
   1998e:	580515e3          	bnez	a0,1a718 <_start+0x3a8a>
   19992:	3eea4503          	lbu	a0,1006(s4)
   19996:	3eda4583          	lbu	a1,1005(s4)
   1999a:	3efa4603          	lbu	a2,1007(s4)
   1999e:	3f0a2403          	lw	s0,1008(s4)
   199a2:	0522                	slli	a0,a0,0x8
   199a4:	8d4d                	or	a0,a0,a1
   199a6:	74a91923          	sh	a0,1874(s2)
   199aa:	74c90a23          	sb	a2,1876(s2)
   199ae:	6505                	lui	a0,0x1
   199b0:	38850513          	addi	a0,a0,904 # 1388 <.Lline_table_start1+0x115d>
   199b4:	00a105b3          	add	a1,sp,a0
   199b8:	6505                	lui	a0,0x1
   199ba:	32450513          	addi	a0,a0,804 # 1324 <.Lline_table_start1+0x10f9>
   199be:	950a                	add	a0,a0,sp
   199c0:	465d                	li	a2,23
   199c2:	00001097          	auipc	ra,0x1
   199c6:	142080e7          	jalr	322(ra) # 1ab04 <memcpy>
   199ca:	01845513          	srli	a0,s0,0x18
   199ce:	01045593          	srli	a1,s0,0x10
   199d2:	00845613          	srli	a2,s0,0x8
   199d6:	74890aa3          	sb	s0,1877(s2)
   199da:	74c90b23          	sb	a2,1878(s2)
   199de:	74b90ba3          	sb	a1,1879(s2)
   199e2:	74a90c23          	sb	a0,1880(s2)
   199e6:	7ff10513          	addi	a0,sp,2047
   199ea:	6ec50513          	addi	a0,a0,1772
   199ee:	6585                	lui	a1,0x1
   199f0:	32458593          	addi	a1,a1,804 # 1324 <.Lline_table_start1+0x10f9>
   199f4:	958a                	add	a1,a1,sp
   199f6:	465d                	li	a2,23
   199f8:	00001097          	auipc	ra,0x1
   199fc:	10c080e7          	jalr	268(ra) # 1ab04 <memcpy>
   19a00:	6505                	lui	a0,0x1
   19a02:	38050513          	addi	a0,a0,896 # 1380 <.Lline_table_start1+0x1155>
   19a06:	950a                	add	a0,a0,sp
   19a08:	7ff10593          	addi	a1,sp,2047
   19a0c:	6e558593          	addi	a1,a1,1765
   19a10:	ffffc097          	auipc	ra,0xffffc
   19a14:	942080e7          	jalr	-1726(ra) # 15352 <_ZN20complex_full_dynamic3app17hc568627a0801630eE>
   19a18:	3eca4503          	lbu	a0,1004(s4)
   19a1c:	4e051ee3          	bnez	a0,1a718 <_start+0x3a8a>
   19a20:	3eea4503          	lbu	a0,1006(s4)
   19a24:	3eda4583          	lbu	a1,1005(s4)
   19a28:	3efa4603          	lbu	a2,1007(s4)
   19a2c:	3f0a2403          	lw	s0,1008(s4)
   19a30:	0522                	slli	a0,a0,0x8
   19a32:	8d4d                	or	a0,a0,a1
   19a34:	76a91823          	sh	a0,1904(s2)
   19a38:	76c90923          	sb	a2,1906(s2)
   19a3c:	6505                	lui	a0,0x1
   19a3e:	38850513          	addi	a0,a0,904 # 1388 <.Lline_table_start1+0x115d>
   19a42:	00a105b3          	add	a1,sp,a0
   19a46:	6505                	lui	a0,0x1
   19a48:	32450513          	addi	a0,a0,804 # 1324 <.Lline_table_start1+0x10f9>
   19a4c:	950a                	add	a0,a0,sp
   19a4e:	03500613          	li	a2,53
   19a52:	00001097          	auipc	ra,0x1
   19a56:	0b2080e7          	jalr	178(ra) # 1ab04 <memcpy>
   19a5a:	01845513          	srli	a0,s0,0x18
   19a5e:	01045593          	srli	a1,s0,0x10
   19a62:	00845613          	srli	a2,s0,0x8
   19a66:	768909a3          	sb	s0,1907(s2)
   19a6a:	76c90a23          	sb	a2,1908(s2)
   19a6e:	76b90aa3          	sb	a1,1909(s2)
   19a72:	76a90b23          	sb	a0,1910(s2)
   19a76:	7ff10513          	addi	a0,sp,2047
   19a7a:	70a50513          	addi	a0,a0,1802
   19a7e:	6585                	lui	a1,0x1
   19a80:	32458593          	addi	a1,a1,804 # 1324 <.Lline_table_start1+0x10f9>
   19a84:	958a                	add	a1,a1,sp
   19a86:	03500613          	li	a2,53
   19a8a:	00001097          	auipc	ra,0x1
   19a8e:	07a080e7          	jalr	122(ra) # 1ab04 <memcpy>
   19a92:	6505                	lui	a0,0x1
   19a94:	38050513          	addi	a0,a0,896 # 1380 <.Lline_table_start1+0x1155>
   19a98:	950a                	add	a0,a0,sp
   19a9a:	7ff10593          	addi	a1,sp,2047
   19a9e:	70358593          	addi	a1,a1,1795
   19aa2:	ffffa097          	auipc	ra,0xffffa
   19aa6:	d7a080e7          	jalr	-646(ra) # 1381c <_ZN20complex_full_dynamic3app17h6824f95902213436E>
   19aaa:	3eca4503          	lbu	a0,1004(s4)
   19aae:	460515e3          	bnez	a0,1a718 <_start+0x3a8a>
   19ab2:	3eea4503          	lbu	a0,1006(s4)
   19ab6:	3eda4583          	lbu	a1,1005(s4)
   19aba:	3efa4603          	lbu	a2,1007(s4)
   19abe:	3f0a2403          	lw	s0,1008(s4)
   19ac2:	0522                	slli	a0,a0,0x8
   19ac4:	8d4d                	or	a0,a0,a1
   19ac6:	7aa91623          	sh	a0,1964(s2)
   19aca:	7ac90723          	sb	a2,1966(s2)
   19ace:	6505                	lui	a0,0x1
   19ad0:	38850513          	addi	a0,a0,904 # 1388 <.Lline_table_start1+0x115d>
   19ad4:	00a105b3          	add	a1,sp,a0
   19ad8:	6505                	lui	a0,0x1
   19ada:	32450513          	addi	a0,a0,804 # 1324 <.Lline_table_start1+0x10f9>
   19ade:	950a                	add	a0,a0,sp
   19ae0:	02500613          	li	a2,37
   19ae4:	00001097          	auipc	ra,0x1
   19ae8:	020080e7          	jalr	32(ra) # 1ab04 <memcpy>
   19aec:	01845513          	srli	a0,s0,0x18
   19af0:	01045593          	srli	a1,s0,0x10
   19af4:	00845613          	srli	a2,s0,0x8
   19af8:	7a8907a3          	sb	s0,1967(s2)
   19afc:	7ac90823          	sb	a2,1968(s2)
   19b00:	7ab908a3          	sb	a1,1969(s2)
   19b04:	7aa90923          	sb	a0,1970(s2)
   19b08:	7ff10513          	addi	a0,sp,2047
   19b0c:	74650513          	addi	a0,a0,1862
   19b10:	6585                	lui	a1,0x1
   19b12:	32458593          	addi	a1,a1,804 # 1324 <.Lline_table_start1+0x10f9>
   19b16:	958a                	add	a1,a1,sp
   19b18:	02500613          	li	a2,37
   19b1c:	00001097          	auipc	ra,0x1
   19b20:	fe8080e7          	jalr	-24(ra) # 1ab04 <memcpy>
   19b24:	6505                	lui	a0,0x1
   19b26:	38050513          	addi	a0,a0,896 # 1380 <.Lline_table_start1+0x1155>
   19b2a:	950a                	add	a0,a0,sp
   19b2c:	7ff10593          	addi	a1,sp,2047
   19b30:	73f58593          	addi	a1,a1,1855
   19b34:	ffffc097          	auipc	ra,0xffffc
   19b38:	df6080e7          	jalr	-522(ra) # 1592a <_ZN20complex_full_dynamic3app17hce8805748272737eE>
   19b3c:	3eca4503          	lbu	a0,1004(s4)
   19b40:	3c051ce3          	bnez	a0,1a718 <_start+0x3a8a>
   19b44:	3eea4503          	lbu	a0,1006(s4)
   19b48:	3eda4583          	lbu	a1,1005(s4)
   19b4c:	3efa4603          	lbu	a2,1007(s4)
   19b50:	3f0a2403          	lw	s0,1008(s4)
   19b54:	0522                	slli	a0,a0,0x8
   19b56:	8d4d                	or	a0,a0,a1
   19b58:	7ca91c23          	sh	a0,2008(s2)
   19b5c:	7cc90d23          	sb	a2,2010(s2)
   19b60:	6505                	lui	a0,0x1
   19b62:	38850513          	addi	a0,a0,904 # 1388 <.Lline_table_start1+0x115d>
   19b66:	00a105b3          	add	a1,sp,a0
   19b6a:	6505                	lui	a0,0x1
   19b6c:	32450513          	addi	a0,a0,804 # 1324 <.Lline_table_start1+0x10f9>
   19b70:	950a                	add	a0,a0,sp
   19b72:	02000613          	li	a2,32
   19b76:	00001097          	auipc	ra,0x1
   19b7a:	f8e080e7          	jalr	-114(ra) # 1ab04 <memcpy>
   19b7e:	01845513          	srli	a0,s0,0x18
   19b82:	01045593          	srli	a1,s0,0x10
   19b86:	00845613          	srli	a2,s0,0x8
   19b8a:	7c890da3          	sb	s0,2011(s2)
   19b8e:	7cc90e23          	sb	a2,2012(s2)
   19b92:	7cb90ea3          	sb	a1,2013(s2)
   19b96:	7ca90f23          	sb	a0,2014(s2)
   19b9a:	7ff10513          	addi	a0,sp,2047
   19b9e:	77250513          	addi	a0,a0,1906
   19ba2:	6585                	lui	a1,0x1
   19ba4:	32458593          	addi	a1,a1,804 # 1324 <.Lline_table_start1+0x10f9>
   19ba8:	958a                	add	a1,a1,sp
   19baa:	02000613          	li	a2,32
   19bae:	00001097          	auipc	ra,0x1
   19bb2:	f56080e7          	jalr	-170(ra) # 1ab04 <memcpy>
   19bb6:	6505                	lui	a0,0x1
   19bb8:	38050513          	addi	a0,a0,896 # 1380 <.Lline_table_start1+0x1155>
   19bbc:	950a                	add	a0,a0,sp
   19bbe:	7ff10593          	addi	a1,sp,2047
   19bc2:	76b58593          	addi	a1,a1,1899
   19bc6:	ffff8097          	auipc	ra,0xffff8
   19bca:	2fe080e7          	jalr	766(ra) # 11ec4 <_ZN20complex_full_dynamic3app17h15c6c467ec0eaa19E>
   19bce:	3eca4503          	lbu	a0,1004(s4)
   19bd2:	340513e3          	bnez	a0,1a718 <_start+0x3a8a>
   19bd6:	3eea4503          	lbu	a0,1006(s4)
   19bda:	3eda4583          	lbu	a1,1005(s4)
   19bde:	3efa4603          	lbu	a2,1007(s4)
   19be2:	3f0a2403          	lw	s0,1008(s4)
   19be6:	0522                	slli	a0,a0,0x8
   19be8:	8d4d                	or	a0,a0,a1
   19bea:	feaa1f23          	sh	a0,-2(s4)
   19bee:	00ca0023          	sb	a2,0(s4)
   19bf2:	6505                	lui	a0,0x1
   19bf4:	38850513          	addi	a0,a0,904 # 1388 <.Lline_table_start1+0x115d>
   19bf8:	00a105b3          	add	a1,sp,a0
   19bfc:	6505                	lui	a0,0x1
   19bfe:	32450513          	addi	a0,a0,804 # 1324 <.Lline_table_start1+0x10f9>
   19c02:	950a                	add	a0,a0,sp
   19c04:	04800613          	li	a2,72
   19c08:	00001097          	auipc	ra,0x1
   19c0c:	efc080e7          	jalr	-260(ra) # 1ab04 <memcpy>
   19c10:	01845513          	srli	a0,s0,0x18
   19c14:	01045593          	srli	a1,s0,0x10
   19c18:	00845613          	srli	a2,s0,0x8
   19c1c:	008a00a3          	sb	s0,1(s4)
   19c20:	00ca0123          	sb	a2,2(s4)
   19c24:	00ba01a3          	sb	a1,3(s4)
   19c28:	00aa0223          	sb	a0,4(s4)
   19c2c:	7ff10513          	addi	a0,sp,2047
   19c30:	79a50513          	addi	a0,a0,1946
   19c34:	6585                	lui	a1,0x1
   19c36:	32458593          	addi	a1,a1,804 # 1324 <.Lline_table_start1+0x10f9>
   19c3a:	958a                	add	a1,a1,sp
   19c3c:	04800613          	li	a2,72
   19c40:	00001097          	auipc	ra,0x1
   19c44:	ec4080e7          	jalr	-316(ra) # 1ab04 <memcpy>
   19c48:	6505                	lui	a0,0x1
   19c4a:	38050513          	addi	a0,a0,896 # 1380 <.Lline_table_start1+0x1155>
   19c4e:	950a                	add	a0,a0,sp
   19c50:	7ff10593          	addi	a1,sp,2047
   19c54:	79358593          	addi	a1,a1,1939
   19c58:	ffff9097          	auipc	ra,0xffff9
   19c5c:	b2e080e7          	jalr	-1234(ra) # 12786 <_ZN20complex_full_dynamic3app17h3582fddd8403bc8eE>
   19c60:	3eca4503          	lbu	a0,1004(s4)
   19c64:	2a051ae3          	bnez	a0,1a718 <_start+0x3a8a>
   19c68:	3eea4503          	lbu	a0,1006(s4)
   19c6c:	3eda4583          	lbu	a1,1005(s4)
   19c70:	3efa4603          	lbu	a2,1007(s4)
   19c74:	3f0a2403          	lw	s0,1008(s4)
   19c78:	0522                	slli	a0,a0,0x8
   19c7a:	8d4d                	or	a0,a0,a1
   19c7c:	04aa1723          	sh	a0,78(s4)
   19c80:	04ca0823          	sb	a2,80(s4)
   19c84:	6505                	lui	a0,0x1
   19c86:	38850513          	addi	a0,a0,904 # 1388 <.Lline_table_start1+0x115d>
   19c8a:	00a105b3          	add	a1,sp,a0
   19c8e:	6505                	lui	a0,0x1
   19c90:	32450513          	addi	a0,a0,804 # 1324 <.Lline_table_start1+0x10f9>
   19c94:	950a                	add	a0,a0,sp
   19c96:	02e00613          	li	a2,46
   19c9a:	00001097          	auipc	ra,0x1
   19c9e:	e6a080e7          	jalr	-406(ra) # 1ab04 <memcpy>
   19ca2:	01845513          	srli	a0,s0,0x18
   19ca6:	01045593          	srli	a1,s0,0x10
   19caa:	00845613          	srli	a2,s0,0x8
   19cae:	048a08a3          	sb	s0,81(s4)
   19cb2:	04ca0923          	sb	a2,82(s4)
   19cb6:	04ba09a3          	sb	a1,83(s4)
   19cba:	04aa0a23          	sb	a0,84(s4)
   19cbe:	7ff10513          	addi	a0,sp,2047
   19cc2:	7ea50513          	addi	a0,a0,2026
   19cc6:	6585                	lui	a1,0x1
   19cc8:	32458593          	addi	a1,a1,804 # 1324 <.Lline_table_start1+0x10f9>
   19ccc:	958a                	add	a1,a1,sp
   19cce:	02e00613          	li	a2,46
   19cd2:	00001097          	auipc	ra,0x1
   19cd6:	e32080e7          	jalr	-462(ra) # 1ab04 <memcpy>
   19cda:	6505                	lui	a0,0x1
   19cdc:	38050513          	addi	a0,a0,896 # 1380 <.Lline_table_start1+0x1155>
   19ce0:	950a                	add	a0,a0,sp
   19ce2:	7ff10593          	addi	a1,sp,2047
   19ce6:	7e358593          	addi	a1,a1,2019
   19cea:	ffffd097          	auipc	ra,0xffffd
   19cee:	9d0080e7          	jalr	-1584(ra) # 166ba <_ZN20complex_full_dynamic3app17hf6f3aa0cf948e851E>
   19cf2:	3eca4503          	lbu	a0,1004(s4)
   19cf6:	220511e3          	bnez	a0,1a718 <_start+0x3a8a>
   19cfa:	3eea4503          	lbu	a0,1006(s4)
   19cfe:	3eda4583          	lbu	a1,1005(s4)
   19d02:	3efa4603          	lbu	a2,1007(s4)
   19d06:	3f0a2403          	lw	s0,1008(s4)
   19d0a:	0522                	slli	a0,a0,0x8
   19d0c:	8d4d                	or	a0,a0,a1
   19d0e:	08aa1223          	sh	a0,132(s4)
   19d12:	08ca0323          	sb	a2,134(s4)
   19d16:	6505                	lui	a0,0x1
   19d18:	38850513          	addi	a0,a0,904 # 1388 <.Lline_table_start1+0x115d>
   19d1c:	00a105b3          	add	a1,sp,a0
   19d20:	6505                	lui	a0,0x1
   19d22:	32450513          	addi	a0,a0,804 # 1324 <.Lline_table_start1+0x10f9>
   19d26:	950a                	add	a0,a0,sp
   19d28:	03800613          	li	a2,56
   19d2c:	00001097          	auipc	ra,0x1
   19d30:	dd8080e7          	jalr	-552(ra) # 1ab04 <memcpy>
   19d34:	01845513          	srli	a0,s0,0x18
   19d38:	01045593          	srli	a1,s0,0x10
   19d3c:	00845613          	srli	a2,s0,0x8
   19d40:	088a03a3          	sb	s0,135(s4)
   19d44:	08ca0423          	sb	a2,136(s4)
   19d48:	08ba04a3          	sb	a1,137(s4)
   19d4c:	08aa0523          	sb	a0,138(s4)
   19d50:	6505                	lui	a0,0x1
   19d52:	057d                	addi	a0,a0,31 # 101f <.Lline_table_start1+0xdf4>
   19d54:	950a                	add	a0,a0,sp
   19d56:	6585                	lui	a1,0x1
   19d58:	32458593          	addi	a1,a1,804 # 1324 <.Lline_table_start1+0x10f9>
   19d5c:	958a                	add	a1,a1,sp
   19d5e:	03800613          	li	a2,56
   19d62:	00001097          	auipc	ra,0x1
   19d66:	da2080e7          	jalr	-606(ra) # 1ab04 <memcpy>
   19d6a:	6505                	lui	a0,0x1
   19d6c:	38050513          	addi	a0,a0,896 # 1380 <.Lline_table_start1+0x1155>
   19d70:	950a                	add	a0,a0,sp
   19d72:	6585                	lui	a1,0x1
   19d74:	05e1                	addi	a1,a1,24 # 1018 <.Lline_table_start1+0xded>
   19d76:	958a                	add	a1,a1,sp
   19d78:	ffffc097          	auipc	ra,0xffffc
   19d7c:	756080e7          	jalr	1878(ra) # 164ce <_ZN20complex_full_dynamic3app17hf20482b98a85d58fE>
   19d80:	3eca4503          	lbu	a0,1004(s4)
   19d84:	18051ae3          	bnez	a0,1a718 <_start+0x3a8a>
   19d88:	3eda4503          	lbu	a0,1005(s4)
   19d8c:	3eea4583          	lbu	a1,1006(s4)
   19d90:	3efa4603          	lbu	a2,1007(s4)
   19d94:	3f0a2683          	lw	a3,1008(s4)
   19d98:	3f4a2703          	lw	a4,1012(s4)
   19d9c:	3f8a2783          	lw	a5,1016(s4)
   19da0:	3fca1483          	lh	s1,1020(s4)
   19da4:	05a2                	slli	a1,a1,0x8
   19da6:	38ea2823          	sw	a4,912(s4)
   19daa:	38fa2a23          	sw	a5,916(s4)
   19dae:	389a1c23          	sh	s1,920(s4)
   19db2:	0186d713          	srli	a4,a3,0x18
   19db6:	8d4d                	or	a0,a0,a1
   19db8:	0106d593          	srli	a1,a3,0x10
   19dbc:	0cba04a3          	sb	a1,201(s4)
   19dc0:	0cea0523          	sb	a4,202(s4)
   19dc4:	0086d593          	srli	a1,a3,0x8
   19dc8:	0caa1223          	sh	a0,196(s4)
   19dcc:	0cca0323          	sb	a2,198(s4)
   19dd0:	0cda03a3          	sb	a3,199(s4)
   19dd4:	0cba0423          	sb	a1,200(s4)
   19dd8:	6505                	lui	a0,0x1
   19dda:	05f50513          	addi	a0,a0,95 # 105f <.Lline_table_start1+0xe34>
   19dde:	950a                	add	a0,a0,sp
   19de0:	6585                	lui	a1,0x1
   19de2:	32458593          	addi	a1,a1,804 # 1324 <.Lline_table_start1+0x10f9>
   19de6:	958a                	add	a1,a1,sp
   19de8:	4629                	li	a2,10
   19dea:	00001097          	auipc	ra,0x1
   19dee:	d1a080e7          	jalr	-742(ra) # 1ab04 <memcpy>
   19df2:	6505                	lui	a0,0x1
   19df4:	38050513          	addi	a0,a0,896 # 1380 <.Lline_table_start1+0x1155>
   19df8:	950a                	add	a0,a0,sp
   19dfa:	6585                	lui	a1,0x1
   19dfc:	05858593          	addi	a1,a1,88 # 1058 <.Lline_table_start1+0xe2d>
   19e00:	958a                	add	a1,a1,sp
   19e02:	ffffb097          	auipc	ra,0xffffb
   19e06:	16a080e7          	jalr	362(ra) # 14f6c <_ZN20complex_full_dynamic3app17hbae8d9c4dfbe0d41E>
   19e0a:	3eca4503          	lbu	a0,1004(s4)
   19e0e:	100515e3          	bnez	a0,1a718 <_start+0x3a8a>
   19e12:	3eea4503          	lbu	a0,1006(s4)
   19e16:	3eda4583          	lbu	a1,1005(s4)
   19e1a:	3efa4603          	lbu	a2,1007(s4)
   19e1e:	3f0a2403          	lw	s0,1008(s4)
   19e22:	0522                	slli	a0,a0,0x8
   19e24:	8d4d                	or	a0,a0,a1
   19e26:	0caa1b23          	sh	a0,214(s4)
   19e2a:	0cca0c23          	sb	a2,216(s4)
   19e2e:	6505                	lui	a0,0x1
   19e30:	38850513          	addi	a0,a0,904 # 1388 <.Lline_table_start1+0x115d>
   19e34:	00a105b3          	add	a1,sp,a0
   19e38:	6505                	lui	a0,0x1
   19e3a:	32450513          	addi	a0,a0,804 # 1324 <.Lline_table_start1+0x10f9>
   19e3e:	950a                	add	a0,a0,sp
   19e40:	03800613          	li	a2,56
   19e44:	00001097          	auipc	ra,0x1
   19e48:	cc0080e7          	jalr	-832(ra) # 1ab04 <memcpy>
   19e4c:	01845513          	srli	a0,s0,0x18
   19e50:	01045593          	srli	a1,s0,0x10
   19e54:	00845613          	srli	a2,s0,0x8
   19e58:	0c8a0ca3          	sb	s0,217(s4)
   19e5c:	0cca0d23          	sb	a2,218(s4)
   19e60:	0cba0da3          	sb	a1,219(s4)
   19e64:	0caa0e23          	sb	a0,220(s4)
   19e68:	6505                	lui	a0,0x1
   19e6a:	07150513          	addi	a0,a0,113 # 1071 <.Lline_table_start1+0xe46>
   19e6e:	950a                	add	a0,a0,sp
   19e70:	6585                	lui	a1,0x1
   19e72:	32458593          	addi	a1,a1,804 # 1324 <.Lline_table_start1+0x10f9>
   19e76:	958a                	add	a1,a1,sp
   19e78:	03800613          	li	a2,56
   19e7c:	00001097          	auipc	ra,0x1
   19e80:	c88080e7          	jalr	-888(ra) # 1ab04 <memcpy>
   19e84:	6505                	lui	a0,0x1
   19e86:	38050513          	addi	a0,a0,896 # 1380 <.Lline_table_start1+0x1155>
   19e8a:	950a                	add	a0,a0,sp
   19e8c:	6585                	lui	a1,0x1
   19e8e:	06a58593          	addi	a1,a1,106 # 106a <.Lline_table_start1+0xe3f>
   19e92:	958a                	add	a1,a1,sp
   19e94:	ffffa097          	auipc	ra,0xffffa
   19e98:	b7e080e7          	jalr	-1154(ra) # 13a12 <_ZN20complex_full_dynamic3app17h6b11fcb8159f48fdE>
   19e9c:	3eca4503          	lbu	a0,1004(s4)
   19ea0:	06051ce3          	bnez	a0,1a718 <_start+0x3a8a>
   19ea4:	3eea4503          	lbu	a0,1006(s4)
   19ea8:	3eda4583          	lbu	a1,1005(s4)
   19eac:	3efa4603          	lbu	a2,1007(s4)
   19eb0:	3f0a2403          	lw	s0,1008(s4)
   19eb4:	0522                	slli	a0,a0,0x8
   19eb6:	8d4d                	or	a0,a0,a1
   19eb8:	10aa1b23          	sh	a0,278(s4)
   19ebc:	10ca0c23          	sb	a2,280(s4)
   19ec0:	6505                	lui	a0,0x1
   19ec2:	38850513          	addi	a0,a0,904 # 1388 <.Lline_table_start1+0x115d>
   19ec6:	00a105b3          	add	a1,sp,a0
   19eca:	6505                	lui	a0,0x1
   19ecc:	32450513          	addi	a0,a0,804 # 1324 <.Lline_table_start1+0x10f9>
   19ed0:	950a                	add	a0,a0,sp
   19ed2:	4655                	li	a2,21
   19ed4:	00001097          	auipc	ra,0x1
   19ed8:	c30080e7          	jalr	-976(ra) # 1ab04 <memcpy>
   19edc:	01845513          	srli	a0,s0,0x18
   19ee0:	01045593          	srli	a1,s0,0x10
   19ee4:	00845613          	srli	a2,s0,0x8
   19ee8:	108a0ca3          	sb	s0,281(s4)
   19eec:	10ca0d23          	sb	a2,282(s4)
   19ef0:	10ba0da3          	sb	a1,283(s4)
   19ef4:	10aa0e23          	sb	a0,284(s4)
   19ef8:	6505                	lui	a0,0x1
   19efa:	0b150513          	addi	a0,a0,177 # 10b1 <.Lline_table_start1+0xe86>
   19efe:	950a                	add	a0,a0,sp
   19f00:	6585                	lui	a1,0x1
   19f02:	32458593          	addi	a1,a1,804 # 1324 <.Lline_table_start1+0x10f9>
   19f06:	958a                	add	a1,a1,sp
   19f08:	4655                	li	a2,21
   19f0a:	00001097          	auipc	ra,0x1
   19f0e:	bfa080e7          	jalr	-1030(ra) # 1ab04 <memcpy>
   19f12:	6505                	lui	a0,0x1
   19f14:	38050513          	addi	a0,a0,896 # 1380 <.Lline_table_start1+0x1155>
   19f18:	950a                	add	a0,a0,sp
   19f1a:	6585                	lui	a1,0x1
   19f1c:	0aa58593          	addi	a1,a1,170 # 10aa <.Lline_table_start1+0xe7f>
   19f20:	958a                	add	a1,a1,sp
   19f22:	ffffb097          	auipc	ra,0xffffb
   19f26:	b72080e7          	jalr	-1166(ra) # 14a94 <_ZN20complex_full_dynamic3app17ha5034c77d3db448cE>
   19f2a:	3eca4503          	lbu	a0,1004(s4)
   19f2e:	7e051563          	bnez	a0,1a718 <_start+0x3a8a>
   19f32:	3eea4503          	lbu	a0,1006(s4)
   19f36:	3eda4583          	lbu	a1,1005(s4)
   19f3a:	3efa4603          	lbu	a2,1007(s4)
   19f3e:	3f0a2403          	lw	s0,1008(s4)
   19f42:	0522                	slli	a0,a0,0x8
   19f44:	8d4d                	or	a0,a0,a1
   19f46:	12aa1923          	sh	a0,306(s4)
   19f4a:	12ca0a23          	sb	a2,308(s4)
   19f4e:	6505                	lui	a0,0x1
   19f50:	38850513          	addi	a0,a0,904 # 1388 <.Lline_table_start1+0x115d>
   19f54:	00a105b3          	add	a1,sp,a0
   19f58:	6505                	lui	a0,0x1
   19f5a:	32450513          	addi	a0,a0,804 # 1324 <.Lline_table_start1+0x10f9>
   19f5e:	950a                	add	a0,a0,sp
   19f60:	05600613          	li	a2,86
   19f64:	00001097          	auipc	ra,0x1
   19f68:	ba0080e7          	jalr	-1120(ra) # 1ab04 <memcpy>
   19f6c:	01845513          	srli	a0,s0,0x18
   19f70:	01045593          	srli	a1,s0,0x10
   19f74:	00845613          	srli	a2,s0,0x8
   19f78:	128a0aa3          	sb	s0,309(s4)
   19f7c:	12ca0b23          	sb	a2,310(s4)
   19f80:	12ba0ba3          	sb	a1,311(s4)
   19f84:	12aa0c23          	sb	a0,312(s4)
   19f88:	6505                	lui	a0,0x1
   19f8a:	0cd50513          	addi	a0,a0,205 # 10cd <.Lline_table_start1+0xea2>
   19f8e:	950a                	add	a0,a0,sp
   19f90:	6585                	lui	a1,0x1
   19f92:	32458593          	addi	a1,a1,804 # 1324 <.Lline_table_start1+0x10f9>
   19f96:	958a                	add	a1,a1,sp
   19f98:	05600613          	li	a2,86
   19f9c:	00001097          	auipc	ra,0x1
   19fa0:	b68080e7          	jalr	-1176(ra) # 1ab04 <memcpy>
   19fa4:	6505                	lui	a0,0x1
   19fa6:	38050513          	addi	a0,a0,896 # 1380 <.Lline_table_start1+0x1155>
   19faa:	950a                	add	a0,a0,sp
   19fac:	6585                	lui	a1,0x1
   19fae:	0c658593          	addi	a1,a1,198 # 10c6 <.Lline_table_start1+0xe9b>
   19fb2:	958a                	add	a1,a1,sp
   19fb4:	ffff8097          	auipc	ra,0xffff8
   19fb8:	940080e7          	jalr	-1728(ra) # 118f4 <_ZN20complex_full_dynamic3app17h0e827a8536d525f7E>
   19fbc:	3eca4503          	lbu	a0,1004(s4)
   19fc0:	74051c63          	bnez	a0,1a718 <_start+0x3a8a>
   19fc4:	3eda4503          	lbu	a0,1005(s4)
   19fc8:	3eea4583          	lbu	a1,1006(s4)
   19fcc:	3efa4603          	lbu	a2,1007(s4)
   19fd0:	3f0a2683          	lw	a3,1008(s4)
   19fd4:	3f4a2703          	lw	a4,1012(s4)
   19fd8:	3f8a2783          	lw	a5,1016(s4)
   19fdc:	3fca1483          	lh	s1,1020(s4)
   19fe0:	3fea4403          	lbu	s0,1022(s4)
   19fe4:	05a2                	slli	a1,a1,0x8
   19fe6:	38ea2823          	sw	a4,912(s4)
   19fea:	38fa2a23          	sw	a5,916(s4)
   19fee:	389a1c23          	sh	s1,920(s4)
   19ff2:	388a0d23          	sb	s0,922(s4)
   19ff6:	0186d713          	srli	a4,a3,0x18
   19ffa:	8d4d                	or	a0,a0,a1
   19ffc:	0106d593          	srli	a1,a3,0x10
   1a000:	18ba0aa3          	sb	a1,405(s4)
   1a004:	18ea0b23          	sb	a4,406(s4)
   1a008:	0086d593          	srli	a1,a3,0x8
   1a00c:	18aa1823          	sh	a0,400(s4)
   1a010:	18ca0923          	sb	a2,402(s4)
   1a014:	18da09a3          	sb	a3,403(s4)
   1a018:	18ba0a23          	sb	a1,404(s4)
   1a01c:	6505                	lui	a0,0x1
   1a01e:	12b50513          	addi	a0,a0,299 # 112b <.Lline_table_start1+0xf00>
   1a022:	950a                	add	a0,a0,sp
   1a024:	6585                	lui	a1,0x1
   1a026:	32458593          	addi	a1,a1,804 # 1324 <.Lline_table_start1+0x10f9>
   1a02a:	958a                	add	a1,a1,sp
   1a02c:	462d                	li	a2,11
   1a02e:	00001097          	auipc	ra,0x1
   1a032:	ad6080e7          	jalr	-1322(ra) # 1ab04 <memcpy>
   1a036:	6505                	lui	a0,0x1
   1a038:	38050513          	addi	a0,a0,896 # 1380 <.Lline_table_start1+0x1155>
   1a03c:	950a                	add	a0,a0,sp
   1a03e:	6585                	lui	a1,0x1
   1a040:	12458593          	addi	a1,a1,292 # 1124 <.Lline_table_start1+0xef9>
   1a044:	958a                	add	a1,a1,sp
   1a046:	ffff8097          	auipc	ra,0xffff8
   1a04a:	076080e7          	jalr	118(ra) # 120bc <_ZN20complex_full_dynamic3app17h1c4f482abdbc0ffaE>
   1a04e:	3eca4503          	lbu	a0,1004(s4)
   1a052:	6c051363          	bnez	a0,1a718 <_start+0x3a8a>
   1a056:	3eea4503          	lbu	a0,1006(s4)
   1a05a:	3eda4583          	lbu	a1,1005(s4)
   1a05e:	3efa4603          	lbu	a2,1007(s4)
   1a062:	3f0a2403          	lw	s0,1008(s4)
   1a066:	0522                	slli	a0,a0,0x8
   1a068:	8d4d                	or	a0,a0,a1
   1a06a:	1aaa1123          	sh	a0,418(s4)
   1a06e:	1aca0223          	sb	a2,420(s4)
   1a072:	6505                	lui	a0,0x1
   1a074:	38850513          	addi	a0,a0,904 # 1388 <.Lline_table_start1+0x115d>
   1a078:	00a105b3          	add	a1,sp,a0
   1a07c:	6505                	lui	a0,0x1
   1a07e:	32450513          	addi	a0,a0,804 # 1324 <.Lline_table_start1+0x10f9>
   1a082:	950a                	add	a0,a0,sp
   1a084:	03d00613          	li	a2,61
   1a088:	00001097          	auipc	ra,0x1
   1a08c:	a7c080e7          	jalr	-1412(ra) # 1ab04 <memcpy>
   1a090:	01845513          	srli	a0,s0,0x18
   1a094:	01045593          	srli	a1,s0,0x10
   1a098:	00845613          	srli	a2,s0,0x8
   1a09c:	1a8a02a3          	sb	s0,421(s4)
   1a0a0:	1aca0323          	sb	a2,422(s4)
   1a0a4:	1aba03a3          	sb	a1,423(s4)
   1a0a8:	1aaa0423          	sb	a0,424(s4)
   1a0ac:	6505                	lui	a0,0x1
   1a0ae:	13d50513          	addi	a0,a0,317 # 113d <.Lline_table_start1+0xf12>
   1a0b2:	950a                	add	a0,a0,sp
   1a0b4:	6585                	lui	a1,0x1
   1a0b6:	32458593          	addi	a1,a1,804 # 1324 <.Lline_table_start1+0x10f9>
   1a0ba:	958a                	add	a1,a1,sp
   1a0bc:	03d00613          	li	a2,61
   1a0c0:	00001097          	auipc	ra,0x1
   1a0c4:	a44080e7          	jalr	-1468(ra) # 1ab04 <memcpy>
   1a0c8:	6505                	lui	a0,0x1
   1a0ca:	38050513          	addi	a0,a0,896 # 1380 <.Lline_table_start1+0x1155>
   1a0ce:	950a                	add	a0,a0,sp
   1a0d0:	6585                	lui	a1,0x1
   1a0d2:	13658593          	addi	a1,a1,310 # 1136 <.Lline_table_start1+0xf0b>
   1a0d6:	958a                	add	a1,a1,sp
   1a0d8:	ffffb097          	auipc	ra,0xffffb
   1a0dc:	8c2080e7          	jalr	-1854(ra) # 1499a <_ZN20complex_full_dynamic3app17ha48ad0e4611deee1E>
   1a0e0:	3eca4503          	lbu	a0,1004(s4)
   1a0e4:	62051a63          	bnez	a0,1a718 <_start+0x3a8a>
   1a0e8:	3eea4503          	lbu	a0,1006(s4)
   1a0ec:	3eda4583          	lbu	a1,1005(s4)
   1a0f0:	3efa4603          	lbu	a2,1007(s4)
   1a0f4:	3f0a2403          	lw	s0,1008(s4)
   1a0f8:	0522                	slli	a0,a0,0x8
   1a0fa:	8d4d                	or	a0,a0,a1
   1a0fc:	1eaa1323          	sh	a0,486(s4)
   1a100:	1eca0423          	sb	a2,488(s4)
   1a104:	6505                	lui	a0,0x1
   1a106:	38850513          	addi	a0,a0,904 # 1388 <.Lline_table_start1+0x115d>
   1a10a:	00a105b3          	add	a1,sp,a0
   1a10e:	6505                	lui	a0,0x1
   1a110:	32450513          	addi	a0,a0,804 # 1324 <.Lline_table_start1+0x10f9>
   1a114:	950a                	add	a0,a0,sp
   1a116:	4671                	li	a2,28
   1a118:	00001097          	auipc	ra,0x1
   1a11c:	9ec080e7          	jalr	-1556(ra) # 1ab04 <memcpy>
   1a120:	01845513          	srli	a0,s0,0x18
   1a124:	01045593          	srli	a1,s0,0x10
   1a128:	00845613          	srli	a2,s0,0x8
   1a12c:	1e8a04a3          	sb	s0,489(s4)
   1a130:	1eca0523          	sb	a2,490(s4)
   1a134:	1eba05a3          	sb	a1,491(s4)
   1a138:	1eaa0623          	sb	a0,492(s4)
   1a13c:	6505                	lui	a0,0x1
   1a13e:	18150513          	addi	a0,a0,385 # 1181 <.Lline_table_start1+0xf56>
   1a142:	950a                	add	a0,a0,sp
   1a144:	6585                	lui	a1,0x1
   1a146:	32458593          	addi	a1,a1,804 # 1324 <.Lline_table_start1+0x10f9>
   1a14a:	958a                	add	a1,a1,sp
   1a14c:	4671                	li	a2,28
   1a14e:	00001097          	auipc	ra,0x1
   1a152:	9b6080e7          	jalr	-1610(ra) # 1ab04 <memcpy>
   1a156:	6505                	lui	a0,0x1
   1a158:	38050513          	addi	a0,a0,896 # 1380 <.Lline_table_start1+0x1155>
   1a15c:	950a                	add	a0,a0,sp
   1a15e:	6585                	lui	a1,0x1
   1a160:	17a58593          	addi	a1,a1,378 # 117a <.Lline_table_start1+0xf4f>
   1a164:	958a                	add	a1,a1,sp
   1a166:	ffff9097          	auipc	ra,0xffff9
   1a16a:	4c2080e7          	jalr	1218(ra) # 13628 <_ZN20complex_full_dynamic3app17h5d99b3817c650988E>
   1a16e:	3eca4503          	lbu	a0,1004(s4)
   1a172:	5a051363          	bnez	a0,1a718 <_start+0x3a8a>
   1a176:	3eea4503          	lbu	a0,1006(s4)
   1a17a:	3eda4583          	lbu	a1,1005(s4)
   1a17e:	3efa4603          	lbu	a2,1007(s4)
   1a182:	3f0a2403          	lw	s0,1008(s4)
   1a186:	0522                	slli	a0,a0,0x8
   1a188:	8d4d                	or	a0,a0,a1
   1a18a:	20aa1523          	sh	a0,522(s4)
   1a18e:	20ca0623          	sb	a2,524(s4)
   1a192:	6505                	lui	a0,0x1
   1a194:	38850513          	addi	a0,a0,904 # 1388 <.Lline_table_start1+0x115d>
   1a198:	00a105b3          	add	a1,sp,a0
   1a19c:	6505                	lui	a0,0x1
   1a19e:	32450513          	addi	a0,a0,804 # 1324 <.Lline_table_start1+0x10f9>
   1a1a2:	950a                	add	a0,a0,sp
   1a1a4:	4675                	li	a2,29
   1a1a6:	00001097          	auipc	ra,0x1
   1a1aa:	95e080e7          	jalr	-1698(ra) # 1ab04 <memcpy>
   1a1ae:	01845513          	srli	a0,s0,0x18
   1a1b2:	01045593          	srli	a1,s0,0x10
   1a1b6:	00845613          	srli	a2,s0,0x8
   1a1ba:	208a06a3          	sb	s0,525(s4)
   1a1be:	20ca0723          	sb	a2,526(s4)
   1a1c2:	20ba07a3          	sb	a1,527(s4)
   1a1c6:	20aa0823          	sb	a0,528(s4)
   1a1ca:	6505                	lui	a0,0x1
   1a1cc:	1a550513          	addi	a0,a0,421 # 11a5 <.Lline_table_start1+0xf7a>
   1a1d0:	950a                	add	a0,a0,sp
   1a1d2:	6585                	lui	a1,0x1
   1a1d4:	32458593          	addi	a1,a1,804 # 1324 <.Lline_table_start1+0x10f9>
   1a1d8:	958a                	add	a1,a1,sp
   1a1da:	4675                	li	a2,29
   1a1dc:	00001097          	auipc	ra,0x1
   1a1e0:	928080e7          	jalr	-1752(ra) # 1ab04 <memcpy>
   1a1e4:	6505                	lui	a0,0x1
   1a1e6:	38050513          	addi	a0,a0,896 # 1380 <.Lline_table_start1+0x1155>
   1a1ea:	950a                	add	a0,a0,sp
   1a1ec:	6585                	lui	a1,0x1
   1a1ee:	19e58593          	addi	a1,a1,414 # 119e <.Lline_table_start1+0xf73>
   1a1f2:	958a                	add	a1,a1,sp
   1a1f4:	ffffb097          	auipc	ra,0xffffb
   1a1f8:	e70080e7          	jalr	-400(ra) # 15064 <_ZN20complex_full_dynamic3app17hbb1b71b5cd03c7abE>
   1a1fc:	3eca4503          	lbu	a0,1004(s4)
   1a200:	50051c63          	bnez	a0,1a718 <_start+0x3a8a>
   1a204:	3eea4503          	lbu	a0,1006(s4)
   1a208:	3eda4583          	lbu	a1,1005(s4)
   1a20c:	3efa4603          	lbu	a2,1007(s4)
   1a210:	3f0a2403          	lw	s0,1008(s4)
   1a214:	0522                	slli	a0,a0,0x8
   1a216:	8d4d                	or	a0,a0,a1
   1a218:	22aa1723          	sh	a0,558(s4)
   1a21c:	22ca0823          	sb	a2,560(s4)
   1a220:	6505                	lui	a0,0x1
   1a222:	38850513          	addi	a0,a0,904 # 1388 <.Lline_table_start1+0x115d>
   1a226:	00a105b3          	add	a1,sp,a0
   1a22a:	6505                	lui	a0,0x1
   1a22c:	32450513          	addi	a0,a0,804 # 1324 <.Lline_table_start1+0x10f9>
   1a230:	950a                	add	a0,a0,sp
   1a232:	02800613          	li	a2,40
   1a236:	00001097          	auipc	ra,0x1
   1a23a:	8ce080e7          	jalr	-1842(ra) # 1ab04 <memcpy>
   1a23e:	01845513          	srli	a0,s0,0x18
   1a242:	01045593          	srli	a1,s0,0x10
   1a246:	00845613          	srli	a2,s0,0x8
   1a24a:	228a08a3          	sb	s0,561(s4)
   1a24e:	22ca0923          	sb	a2,562(s4)
   1a252:	22ba09a3          	sb	a1,563(s4)
   1a256:	22aa0a23          	sb	a0,564(s4)
   1a25a:	6505                	lui	a0,0x1
   1a25c:	1c950513          	addi	a0,a0,457 # 11c9 <.Lline_table_start1+0xf9e>
   1a260:	950a                	add	a0,a0,sp
   1a262:	6585                	lui	a1,0x1
   1a264:	32458593          	addi	a1,a1,804 # 1324 <.Lline_table_start1+0x10f9>
   1a268:	958a                	add	a1,a1,sp
   1a26a:	02800613          	li	a2,40
   1a26e:	00001097          	auipc	ra,0x1
   1a272:	896080e7          	jalr	-1898(ra) # 1ab04 <memcpy>
   1a276:	6505                	lui	a0,0x1
   1a278:	38050513          	addi	a0,a0,896 # 1380 <.Lline_table_start1+0x1155>
   1a27c:	950a                	add	a0,a0,sp
   1a27e:	6585                	lui	a1,0x1
   1a280:	1c258593          	addi	a1,a1,450 # 11c2 <.Lline_table_start1+0xf97>
   1a284:	958a                	add	a1,a1,sp
   1a286:	ffffb097          	auipc	ra,0xffffb
   1a28a:	eda080e7          	jalr	-294(ra) # 15160 <_ZN20complex_full_dynamic3app17hbbbbb269e342da1bE>
   1a28e:	3eca4503          	lbu	a0,1004(s4)
   1a292:	48051363          	bnez	a0,1a718 <_start+0x3a8a>
   1a296:	3eea4503          	lbu	a0,1006(s4)
   1a29a:	3eda4583          	lbu	a1,1005(s4)
   1a29e:	3efa4603          	lbu	a2,1007(s4)
   1a2a2:	3f0a2403          	lw	s0,1008(s4)
   1a2a6:	0522                	slli	a0,a0,0x8
   1a2a8:	8d4d                	or	a0,a0,a1
   1a2aa:	24aa1f23          	sh	a0,606(s4)
   1a2ae:	26ca0023          	sb	a2,608(s4)
   1a2b2:	6505                	lui	a0,0x1
   1a2b4:	38850513          	addi	a0,a0,904 # 1388 <.Lline_table_start1+0x115d>
   1a2b8:	00a105b3          	add	a1,sp,a0
   1a2bc:	6505                	lui	a0,0x1
   1a2be:	32450513          	addi	a0,a0,804 # 1324 <.Lline_table_start1+0x10f9>
   1a2c2:	950a                	add	a0,a0,sp
   1a2c4:	05700613          	li	a2,87
   1a2c8:	00001097          	auipc	ra,0x1
   1a2cc:	83c080e7          	jalr	-1988(ra) # 1ab04 <memcpy>
   1a2d0:	01845513          	srli	a0,s0,0x18
   1a2d4:	01045593          	srli	a1,s0,0x10
   1a2d8:	00845613          	srli	a2,s0,0x8
   1a2dc:	268a00a3          	sb	s0,609(s4)
   1a2e0:	26ca0123          	sb	a2,610(s4)
   1a2e4:	26ba01a3          	sb	a1,611(s4)
   1a2e8:	26aa0223          	sb	a0,612(s4)
   1a2ec:	6505                	lui	a0,0x1
   1a2ee:	1f950513          	addi	a0,a0,505 # 11f9 <.Lline_table_start1+0xfce>
   1a2f2:	950a                	add	a0,a0,sp
   1a2f4:	6585                	lui	a1,0x1
   1a2f6:	32458593          	addi	a1,a1,804 # 1324 <.Lline_table_start1+0x10f9>
   1a2fa:	958a                	add	a1,a1,sp
   1a2fc:	05700613          	li	a2,87
   1a300:	00001097          	auipc	ra,0x1
   1a304:	804080e7          	jalr	-2044(ra) # 1ab04 <memcpy>
   1a308:	6505                	lui	a0,0x1
   1a30a:	38050513          	addi	a0,a0,896 # 1380 <.Lline_table_start1+0x1155>
   1a30e:	950a                	add	a0,a0,sp
   1a310:	6585                	lui	a1,0x1
   1a312:	1f258593          	addi	a1,a1,498 # 11f2 <.Lline_table_start1+0xfc7>
   1a316:	958a                	add	a1,a1,sp
   1a318:	ffff8097          	auipc	ra,0xffff8
   1a31c:	ab2080e7          	jalr	-1358(ra) # 11dca <_ZN20complex_full_dynamic3app17h13415794f754b317E>
   1a320:	3eca4503          	lbu	a0,1004(s4)
   1a324:	3e051a63          	bnez	a0,1a718 <_start+0x3a8a>
   1a328:	3eea4503          	lbu	a0,1006(s4)
   1a32c:	3eda4583          	lbu	a1,1005(s4)
   1a330:	3efa4603          	lbu	a2,1007(s4)
   1a334:	3f0a2403          	lw	s0,1008(s4)
   1a338:	0522                	slli	a0,a0,0x8
   1a33a:	8d4d                	or	a0,a0,a1
   1a33c:	2aaa1e23          	sh	a0,700(s4)
   1a340:	2aca0f23          	sb	a2,702(s4)
   1a344:	6505                	lui	a0,0x1
   1a346:	38850513          	addi	a0,a0,904 # 1388 <.Lline_table_start1+0x115d>
   1a34a:	00a105b3          	add	a1,sp,a0
   1a34e:	6505                	lui	a0,0x1
   1a350:	32450513          	addi	a0,a0,804 # 1324 <.Lline_table_start1+0x10f9>
   1a354:	950a                	add	a0,a0,sp
   1a356:	04e00613          	li	a2,78
   1a35a:	00000097          	auipc	ra,0x0
   1a35e:	7aa080e7          	jalr	1962(ra) # 1ab04 <memcpy>
   1a362:	01845513          	srli	a0,s0,0x18
   1a366:	01045593          	srli	a1,s0,0x10
   1a36a:	00845613          	srli	a2,s0,0x8
   1a36e:	2a8a0fa3          	sb	s0,703(s4)
   1a372:	2cca0023          	sb	a2,704(s4)
   1a376:	2cba00a3          	sb	a1,705(s4)
   1a37a:	2caa0123          	sb	a0,706(s4)
   1a37e:	6505                	lui	a0,0x1
   1a380:	25750513          	addi	a0,a0,599 # 1257 <.Lline_table_start1+0x102c>
   1a384:	950a                	add	a0,a0,sp
   1a386:	6585                	lui	a1,0x1
   1a388:	32458593          	addi	a1,a1,804 # 1324 <.Lline_table_start1+0x10f9>
   1a38c:	958a                	add	a1,a1,sp
   1a38e:	04e00613          	li	a2,78
   1a392:	00000097          	auipc	ra,0x0
   1a396:	772080e7          	jalr	1906(ra) # 1ab04 <memcpy>
   1a39a:	6505                	lui	a0,0x1
   1a39c:	38050513          	addi	a0,a0,896 # 1380 <.Lline_table_start1+0x1155>
   1a3a0:	950a                	add	a0,a0,sp
   1a3a2:	6585                	lui	a1,0x1
   1a3a4:	25058593          	addi	a1,a1,592 # 1250 <.Lline_table_start1+0x1025>
   1a3a8:	958a                	add	a1,a1,sp
   1a3aa:	ffffc097          	auipc	ra,0xffffc
   1a3ae:	c44080e7          	jalr	-956(ra) # 15fee <_ZN20complex_full_dynamic3app17he38d0405b3309f73E>
   1a3b2:	3eca4503          	lbu	a0,1004(s4)
   1a3b6:	36051163          	bnez	a0,1a718 <_start+0x3a8a>
   1a3ba:	3eda4503          	lbu	a0,1005(s4)
   1a3be:	3eea4583          	lbu	a1,1006(s4)
   1a3c2:	3efa4603          	lbu	a2,1007(s4)
   1a3c6:	3f0a2683          	lw	a3,1008(s4)
   1a3ca:	3f4a2703          	lw	a4,1012(s4)
   1a3ce:	3f8a2783          	lw	a5,1016(s4)
   1a3d2:	3fca1483          	lh	s1,1020(s4)
   1a3d6:	05a2                	slli	a1,a1,0x8
   1a3d8:	38ea2823          	sw	a4,912(s4)
   1a3dc:	38fa2a23          	sw	a5,916(s4)
   1a3e0:	389a1c23          	sh	s1,920(s4)
   1a3e4:	0186d713          	srli	a4,a3,0x18
   1a3e8:	8d4d                	or	a0,a0,a1
   1a3ea:	0106d593          	srli	a1,a3,0x10
   1a3ee:	30ba0ba3          	sb	a1,791(s4)
   1a3f2:	30ea0c23          	sb	a4,792(s4)
   1a3f6:	0086d593          	srli	a1,a3,0x8
   1a3fa:	30aa1923          	sh	a0,786(s4)
   1a3fe:	30ca0a23          	sb	a2,788(s4)
   1a402:	30da0aa3          	sb	a3,789(s4)
   1a406:	30ba0b23          	sb	a1,790(s4)
   1a40a:	6505                	lui	a0,0x1
   1a40c:	2ad50513          	addi	a0,a0,685 # 12ad <.Lline_table_start1+0x1082>
   1a410:	950a                	add	a0,a0,sp
   1a412:	6585                	lui	a1,0x1
   1a414:	32458593          	addi	a1,a1,804 # 1324 <.Lline_table_start1+0x10f9>
   1a418:	958a                	add	a1,a1,sp
   1a41a:	4629                	li	a2,10
   1a41c:	00000097          	auipc	ra,0x0
   1a420:	6e8080e7          	jalr	1768(ra) # 1ab04 <memcpy>
   1a424:	6505                	lui	a0,0x1
   1a426:	38050513          	addi	a0,a0,896 # 1380 <.Lline_table_start1+0x1155>
   1a42a:	950a                	add	a0,a0,sp
   1a42c:	6585                	lui	a1,0x1
   1a42e:	2a658593          	addi	a1,a1,678 # 12a6 <.Lline_table_start1+0x107b>
   1a432:	958a                	add	a1,a1,sp
   1a434:	ffffb097          	auipc	ra,0xffffb
   1a438:	302080e7          	jalr	770(ra) # 15736 <_ZN20complex_full_dynamic3app17hcaa80b215555f12aE>
   1a43c:	3eca4503          	lbu	a0,1004(s4)
   1a440:	2c051c63          	bnez	a0,1a718 <_start+0x3a8a>
   1a444:	3eea4503          	lbu	a0,1006(s4)
   1a448:	3eda4583          	lbu	a1,1005(s4)
   1a44c:	3efa4603          	lbu	a2,1007(s4)
   1a450:	3f0a2403          	lw	s0,1008(s4)
   1a454:	0522                	slli	a0,a0,0x8
   1a456:	8d4d                	or	a0,a0,a1
   1a458:	32aa1223          	sh	a0,804(s4)
   1a45c:	32ca0323          	sb	a2,806(s4)
   1a460:	6505                	lui	a0,0x1
   1a462:	38850513          	addi	a0,a0,904 # 1388 <.Lline_table_start1+0x115d>
   1a466:	00a105b3          	add	a1,sp,a0
   1a46a:	6505                	lui	a0,0x1
   1a46c:	32450513          	addi	a0,a0,804 # 1324 <.Lline_table_start1+0x10f9>
   1a470:	950a                	add	a0,a0,sp
   1a472:	04900613          	li	a2,73
   1a476:	00000097          	auipc	ra,0x0
   1a47a:	68e080e7          	jalr	1678(ra) # 1ab04 <memcpy>
   1a47e:	01845513          	srli	a0,s0,0x18
   1a482:	01045593          	srli	a1,s0,0x10
   1a486:	00845613          	srli	a2,s0,0x8
   1a48a:	328a03a3          	sb	s0,807(s4)
   1a48e:	32ca0423          	sb	a2,808(s4)
   1a492:	32ba04a3          	sb	a1,809(s4)
   1a496:	32aa0523          	sb	a0,810(s4)
   1a49a:	6505                	lui	a0,0x1
   1a49c:	2bf50513          	addi	a0,a0,703 # 12bf <.Lline_table_start1+0x1094>
   1a4a0:	950a                	add	a0,a0,sp
   1a4a2:	6585                	lui	a1,0x1
   1a4a4:	32458593          	addi	a1,a1,804 # 1324 <.Lline_table_start1+0x10f9>
   1a4a8:	958a                	add	a1,a1,sp
   1a4aa:	04900613          	li	a2,73
   1a4ae:	00000097          	auipc	ra,0x0
   1a4b2:	656080e7          	jalr	1622(ra) # 1ab04 <memcpy>
   1a4b6:	6505                	lui	a0,0x1
   1a4b8:	38050513          	addi	a0,a0,896 # 1380 <.Lline_table_start1+0x1155>
   1a4bc:	950a                	add	a0,a0,sp
   1a4be:	6585                	lui	a1,0x1
   1a4c0:	2b858593          	addi	a1,a1,696 # 12b8 <.Lline_table_start1+0x108d>
   1a4c4:	958a                	add	a1,a1,sp
   1a4c6:	ffff7097          	auipc	ra,0xffff7
   1a4ca:	f58080e7          	jalr	-168(ra) # 1141e <_ZN20complex_full_dynamic3app17h078ec1da26b6053eE>
   1a4ce:	3eca4503          	lbu	a0,1004(s4)
   1a4d2:	24051363          	bnez	a0,1a718 <_start+0x3a8a>
   1a4d6:	3eea4503          	lbu	a0,1006(s4)
   1a4da:	3eda4583          	lbu	a1,1005(s4)
   1a4de:	3efa4603          	lbu	a2,1007(s4)
   1a4e2:	3f0a2403          	lw	s0,1008(s4)
   1a4e6:	0522                	slli	a0,a0,0x8
   1a4e8:	8d4d                	or	a0,a0,a1
   1a4ea:	36aa1a23          	sh	a0,884(s4)
   1a4ee:	36ca0b23          	sb	a2,886(s4)
   1a4f2:	6505                	lui	a0,0x1
   1a4f4:	38850513          	addi	a0,a0,904 # 1388 <.Lline_table_start1+0x115d>
   1a4f8:	00a105b3          	add	a1,sp,a0
   1a4fc:	6505                	lui	a0,0x1
   1a4fe:	32450513          	addi	a0,a0,804 # 1324 <.Lline_table_start1+0x10f9>
   1a502:	950a                	add	a0,a0,sp
   1a504:	4651                	li	a2,20
   1a506:	00000097          	auipc	ra,0x0
   1a50a:	5fe080e7          	jalr	1534(ra) # 1ab04 <memcpy>
   1a50e:	01845513          	srli	a0,s0,0x18
   1a512:	01045593          	srli	a1,s0,0x10
   1a516:	00845613          	srli	a2,s0,0x8
   1a51a:	368a0ba3          	sb	s0,887(s4)
   1a51e:	36ca0c23          	sb	a2,888(s4)
   1a522:	36ba0ca3          	sb	a1,889(s4)
   1a526:	36aa0d23          	sb	a0,890(s4)
   1a52a:	6505                	lui	a0,0x1
   1a52c:	30f50513          	addi	a0,a0,783 # 130f <.Lline_table_start1+0x10e4>
   1a530:	950a                	add	a0,a0,sp
   1a532:	6585                	lui	a1,0x1
   1a534:	32458593          	addi	a1,a1,804 # 1324 <.Lline_table_start1+0x10f9>
   1a538:	958a                	add	a1,a1,sp
   1a53a:	4651                	li	a2,20
   1a53c:	00000097          	auipc	ra,0x0
   1a540:	5c8080e7          	jalr	1480(ra) # 1ab04 <memcpy>
   1a544:	6505                	lui	a0,0x1
   1a546:	38050513          	addi	a0,a0,896 # 1380 <.Lline_table_start1+0x1155>
   1a54a:	950a                	add	a0,a0,sp
   1a54c:	6585                	lui	a1,0x1
   1a54e:	30858593          	addi	a1,a1,776 # 1308 <.Lline_table_start1+0x10dd>
   1a552:	958a                	add	a1,a1,sp
   1a554:	ffffa097          	auipc	ra,0xffffa
   1a558:	89a080e7          	jalr	-1894(ra) # 13dee <_ZN20complex_full_dynamic3app17h76f633d0daf3ca7aE>
   1a55c:	3eca4503          	lbu	a0,1004(s4)
   1a560:	1a051c63          	bnez	a0,1a718 <_start+0x3a8a>
   1a564:	3eea4503          	lbu	a0,1006(s4)
   1a568:	3eda4583          	lbu	a1,1005(s4)
   1a56c:	3efa4603          	lbu	a2,1007(s4)
   1a570:	3f0a2403          	lw	s0,1008(s4)
   1a574:	0522                	slli	a0,a0,0x8
   1a576:	8d4d                	or	a0,a0,a1
   1a578:	44aa1923          	sh	a0,1106(s4)
   1a57c:	44ca0a23          	sb	a2,1108(s4)
   1a580:	6505                	lui	a0,0x1
   1a582:	38850513          	addi	a0,a0,904 # 1388 <.Lline_table_start1+0x115d>
   1a586:	00a105b3          	add	a1,sp,a0
   1a58a:	6505                	lui	a0,0x1
   1a58c:	32450513          	addi	a0,a0,804 # 1324 <.Lline_table_start1+0x10f9>
   1a590:	950a                	add	a0,a0,sp
   1a592:	05c00613          	li	a2,92
   1a596:	00000097          	auipc	ra,0x0
   1a59a:	56e080e7          	jalr	1390(ra) # 1ab04 <memcpy>
   1a59e:	01845513          	srli	a0,s0,0x18
   1a5a2:	01045593          	srli	a1,s0,0x10
   1a5a6:	00845613          	srli	a2,s0,0x8
   1a5aa:	448a0aa3          	sb	s0,1109(s4)
   1a5ae:	44ca0b23          	sb	a2,1110(s4)
   1a5b2:	44ba0ba3          	sb	a1,1111(s4)
   1a5b6:	44aa0c23          	sb	a0,1112(s4)
   1a5ba:	6505                	lui	a0,0x1
   1a5bc:	3ed50513          	addi	a0,a0,1005 # 13ed <.Lline_table_start1+0x11c2>
   1a5c0:	950a                	add	a0,a0,sp
   1a5c2:	6585                	lui	a1,0x1
   1a5c4:	32458593          	addi	a1,a1,804 # 1324 <.Lline_table_start1+0x10f9>
   1a5c8:	958a                	add	a1,a1,sp
   1a5ca:	05c00613          	li	a2,92
   1a5ce:	00000097          	auipc	ra,0x0
   1a5d2:	536080e7          	jalr	1334(ra) # 1ab04 <memcpy>
   1a5d6:	6505                	lui	a0,0x1
   1a5d8:	38050513          	addi	a0,a0,896 # 1380 <.Lline_table_start1+0x1155>
   1a5dc:	950a                	add	a0,a0,sp
   1a5de:	6585                	lui	a1,0x1
   1a5e0:	3e658593          	addi	a1,a1,998 # 13e6 <.Lline_table_start1+0x11bb>
   1a5e4:	958a                	add	a1,a1,sp
   1a5e6:	ffff9097          	auipc	ra,0xffff9
   1a5ea:	522080e7          	jalr	1314(ra) # 13b08 <_ZN20complex_full_dynamic3app17h6b953492e9525fddE>
   1a5ee:	3eca4503          	lbu	a0,1004(s4)
   1a5f2:	12051363          	bnez	a0,1a718 <_start+0x3a8a>
   1a5f6:	3eea4503          	lbu	a0,1006(s4)
   1a5fa:	3eda4583          	lbu	a1,1005(s4)
   1a5fe:	3efa4603          	lbu	a2,1007(s4)
   1a602:	3f0a2403          	lw	s0,1008(s4)
   1a606:	0522                	slli	a0,a0,0x8
   1a608:	8d4d                	or	a0,a0,a1
   1a60a:	4aaa1b23          	sh	a0,1206(s4)
   1a60e:	4aca0c23          	sb	a2,1208(s4)
   1a612:	6505                	lui	a0,0x1
   1a614:	38850513          	addi	a0,a0,904 # 1388 <.Lline_table_start1+0x115d>
   1a618:	00a105b3          	add	a1,sp,a0
   1a61c:	6505                	lui	a0,0x1
   1a61e:	32450513          	addi	a0,a0,804 # 1324 <.Lline_table_start1+0x10f9>
   1a622:	950a                	add	a0,a0,sp
   1a624:	02500613          	li	a2,37
   1a628:	00000097          	auipc	ra,0x0
   1a62c:	4dc080e7          	jalr	1244(ra) # 1ab04 <memcpy>
   1a630:	01845513          	srli	a0,s0,0x18
   1a634:	01045593          	srli	a1,s0,0x10
   1a638:	00845613          	srli	a2,s0,0x8
   1a63c:	4a8a0ca3          	sb	s0,1209(s4)
   1a640:	4aca0d23          	sb	a2,1210(s4)
   1a644:	4aba0da3          	sb	a1,1211(s4)
   1a648:	4aaa0e23          	sb	a0,1212(s4)
   1a64c:	6505                	lui	a0,0x1
   1a64e:	45150513          	addi	a0,a0,1105 # 1451 <.Lline_table_start1+0x1226>
   1a652:	950a                	add	a0,a0,sp
   1a654:	6585                	lui	a1,0x1
   1a656:	32458593          	addi	a1,a1,804 # 1324 <.Lline_table_start1+0x10f9>
   1a65a:	958a                	add	a1,a1,sp
   1a65c:	02500613          	li	a2,37
   1a660:	00000097          	auipc	ra,0x0
   1a664:	4a4080e7          	jalr	1188(ra) # 1ab04 <memcpy>
   1a668:	6505                	lui	a0,0x1
   1a66a:	38050513          	addi	a0,a0,896 # 1380 <.Lline_table_start1+0x1155>
   1a66e:	950a                	add	a0,a0,sp
   1a670:	6585                	lui	a1,0x1
   1a672:	44a58593          	addi	a1,a1,1098 # 144a <.Lline_table_start1+0x121f>
   1a676:	958a                	add	a1,a1,sp
   1a678:	ffffb097          	auipc	ra,0xffffb
   1a67c:	780080e7          	jalr	1920(ra) # 15df8 <_ZN20complex_full_dynamic3app17hda54bb0ec3b85d71E>
   1a680:	3eca4503          	lbu	a0,1004(s4)
   1a684:	e951                	bnez	a0,1a718 <_start+0x3a8a>
   1a686:	3eea4503          	lbu	a0,1006(s4)
   1a68a:	3eda4583          	lbu	a1,1005(s4)
   1a68e:	3efa4603          	lbu	a2,1007(s4)
   1a692:	3f0a2403          	lw	s0,1008(s4)
   1a696:	0522                	slli	a0,a0,0x8
   1a698:	8d4d                	or	a0,a0,a1
   1a69a:	4eaa1123          	sh	a0,1250(s4)
   1a69e:	4eca0223          	sb	a2,1252(s4)
   1a6a2:	6505                	lui	a0,0x1
   1a6a4:	38850513          	addi	a0,a0,904 # 1388 <.Lline_table_start1+0x115d>
   1a6a8:	00a105b3          	add	a1,sp,a0
   1a6ac:	6505                	lui	a0,0x1
   1a6ae:	32450513          	addi	a0,a0,804 # 1324 <.Lline_table_start1+0x10f9>
   1a6b2:	950a                	add	a0,a0,sp
   1a6b4:	02300613          	li	a2,35
   1a6b8:	00000097          	auipc	ra,0x0
   1a6bc:	44c080e7          	jalr	1100(ra) # 1ab04 <memcpy>
   1a6c0:	01845513          	srli	a0,s0,0x18
   1a6c4:	01045593          	srli	a1,s0,0x10
   1a6c8:	00845613          	srli	a2,s0,0x8
   1a6cc:	4e8a02a3          	sb	s0,1253(s4)
   1a6d0:	4eca0323          	sb	a2,1254(s4)
   1a6d4:	4eba03a3          	sb	a1,1255(s4)
   1a6d8:	4eaa0423          	sb	a0,1256(s4)
   1a6dc:	6505                	lui	a0,0x1
   1a6de:	47d50513          	addi	a0,a0,1149 # 147d <.Lline_table_start1+0x1252>
   1a6e2:	950a                	add	a0,a0,sp
   1a6e4:	6585                	lui	a1,0x1
   1a6e6:	32458593          	addi	a1,a1,804 # 1324 <.Lline_table_start1+0x10f9>
   1a6ea:	958a                	add	a1,a1,sp
   1a6ec:	02300613          	li	a2,35
   1a6f0:	00000097          	auipc	ra,0x0
   1a6f4:	414080e7          	jalr	1044(ra) # 1ab04 <memcpy>
   1a6f8:	6505                	lui	a0,0x1
   1a6fa:	38050513          	addi	a0,a0,896 # 1380 <.Lline_table_start1+0x1155>
   1a6fe:	950a                	add	a0,a0,sp
   1a700:	6585                	lui	a1,0x1
   1a702:	47658593          	addi	a1,a1,1142 # 1476 <.Lline_table_start1+0x124b>
   1a706:	958a                	add	a1,a1,sp
   1a708:	ffffc097          	auipc	ra,0xffffc
   1a70c:	48c080e7          	jalr	1164(ra) # 16b94 <_ZN20complex_full_dynamic3app17hfe05d2e6526a2eb6E>
   1a710:	3eca4503          	lbu	a0,1004(s4)
   1a714:	36050263          	beqz	a0,1aa78 <_start+0x3dea>
   1a718:	3f0a2b03          	lw	s6,1008(s4)
   1a71c:	4505                	li	a0,1
   1a71e:	85da                	mv	a1,s6
   1a720:	7f010113          	addi	sp,sp,2032
   1a724:	4e010113          	addi	sp,sp,1248
   1a728:	7ec12083          	lw	ra,2028(sp)
   1a72c:	7e812403          	lw	s0,2024(sp)
   1a730:	7e412483          	lw	s1,2020(sp)
   1a734:	7e012903          	lw	s2,2016(sp)
   1a738:	7dc12983          	lw	s3,2012(sp)
   1a73c:	7d812a03          	lw	s4,2008(sp)
   1a740:	7d412a83          	lw	s5,2004(sp)
   1a744:	7d012b03          	lw	s6,2000(sp)
   1a748:	7f010113          	addi	sp,sp,2032
   1a74c:	8082                	ret
   1a74e:	08c8                	addi	a0,sp,84
   1a750:	00000097          	auipc	ra,0x0
   1a754:	32a080e7          	jalr	810(ra) # 1aa7a <_ZN9allow_pin12full_dynamic17unshare_if_shared17h6cf91b2080959258E>
   1a758:	6505                	lui	a0,0x1
   1a75a:	38050513          	addi	a0,a0,896 # 1380 <.Lline_table_start1+0x1155>
   1a75e:	950a                	add	a0,a0,sp
   1a760:	00000097          	auipc	ra,0x0
   1a764:	31a080e7          	jalr	794(ra) # 1aa7a <_ZN9allow_pin12full_dynamic17unshare_if_shared17h6cf91b2080959258E>
   1a768:	6505                	lui	a0,0x1
   1a76a:	38050513          	addi	a0,a0,896 # 1380 <.Lline_table_start1+0x1155>
   1a76e:	950a                	add	a0,a0,sp
   1a770:	00000097          	auipc	ra,0x0
   1a774:	30a080e7          	jalr	778(ra) # 1aa7a <_ZN9allow_pin12full_dynamic17unshare_if_shared17h6cf91b2080959258E>
   1a778:	00194503          	lbu	a0,1(s2)
   1a77c:	00094583          	lbu	a1,0(s2)
   1a780:	00294603          	lbu	a2,2(s2)
   1a784:	0522                	slli	a0,a0,0x8
   1a786:	3fba4683          	lbu	a3,1019(s4)
   1a78a:	3fca4703          	lbu	a4,1020(s4)
   1a78e:	8d4d                	or	a0,a0,a1
   1a790:	3fda4583          	lbu	a1,1021(s4)
   1a794:	3fea4783          	lbu	a5,1022(s4)
   1a798:	0722                	slli	a4,a4,0x8
   1a79a:	8ed9                	or	a3,a3,a4
   1a79c:	05c2                	slli	a1,a1,0x10
   1a79e:	07e2                	slli	a5,a5,0x18
   1a7a0:	8ddd                	or	a1,a1,a5
   1a7a2:	08a11a23          	sh	a0,148(sp)
   1a7a6:	08c10b23          	sb	a2,150(sp)
   1a7aa:	00d5eb33          	or	s6,a1,a3
   1a7ae:	6505                	lui	a0,0x1
   1a7b0:	39350513          	addi	a0,a0,915 # 1393 <.Lline_table_start1+0x1168>
   1a7b4:	00a105b3          	add	a1,sp,a0
   1a7b8:	0028                	addi	a0,sp,8
   1a7ba:	04a00613          	li	a2,74
   1a7be:	00000097          	auipc	ra,0x0
   1a7c2:	346080e7          	jalr	838(ra) # 1ab04 <memcpy>
   1a7c6:	4481                	li	s1,0
   1a7c8:	d9afc06f          	j	16d62 <_start+0xd4>
   1a7cc:	6505                	lui	a0,0x1
   1a7ce:	38050513          	addi	a0,a0,896 # 1380 <.Lline_table_start1+0x1155>
   1a7d2:	950a                	add	a0,a0,sp
   1a7d4:	00000097          	auipc	ra,0x0
   1a7d8:	2a6080e7          	jalr	678(ra) # 1aa7a <_ZN9allow_pin12full_dynamic17unshare_if_shared17h6cf91b2080959258E>
   1a7dc:	6505                	lui	a0,0x1
   1a7de:	32450513          	addi	a0,a0,804 # 1324 <.Lline_table_start1+0x10f9>
   1a7e2:	950a                	add	a0,a0,sp
   1a7e4:	00000097          	auipc	ra,0x0
   1a7e8:	296080e7          	jalr	662(ra) # 1aa7a <_ZN9allow_pin12full_dynamic17unshare_if_shared17h6cf91b2080959258E>
   1a7ec:	6505                	lui	a0,0x1
   1a7ee:	32450513          	addi	a0,a0,804 # 1324 <.Lline_table_start1+0x10f9>
   1a7f2:	950a                	add	a0,a0,sp
   1a7f4:	00000097          	auipc	ra,0x0
   1a7f8:	286080e7          	jalr	646(ra) # 1aa7a <_ZN9allow_pin12full_dynamic17unshare_if_shared17h6cf91b2080959258E>
   1a7fc:	0019c503          	lbu	a0,1(s3)
   1a800:	0009c583          	lbu	a1,0(s3)
   1a804:	0029c603          	lbu	a2,2(s3)
   1a808:	0522                	slli	a0,a0,0x8
   1a80a:	39fa4683          	lbu	a3,927(s4)
   1a80e:	3a0a4703          	lbu	a4,928(s4)
   1a812:	8d4d                	or	a0,a0,a1
   1a814:	3a1a4583          	lbu	a1,929(s4)
   1a818:	3a2a4783          	lbu	a5,930(s4)
   1a81c:	0722                	slli	a4,a4,0x8
   1a81e:	8ed9                	or	a3,a3,a4
   1a820:	05c2                	slli	a1,a1,0x10
   1a822:	07e2                	slli	a5,a5,0x18
   1a824:	8ddd                	or	a1,a1,a5
   1a826:	08a11a23          	sh	a0,148(sp)
   1a82a:	08c10b23          	sb	a2,150(sp)
   1a82e:	00d5eb33          	or	s6,a1,a3
   1a832:	6505                	lui	a0,0x1
   1a834:	33750513          	addi	a0,a0,823 # 1337 <.Lline_table_start1+0x110c>
   1a838:	00a105b3          	add	a1,sp,a0
   1a83c:	08c8                	addi	a0,sp,84
   1a83e:	03f00613          	li	a2,63
   1a842:	00000097          	auipc	ra,0x0
   1a846:	2c2080e7          	jalr	706(ra) # 1ab04 <memcpy>
   1a84a:	4481                	li	s1,0
   1a84c:	e36fc06f          	j	16e82 <_start+0x1f4>
   1a850:	6505                	lui	a0,0x1
   1a852:	38050513          	addi	a0,a0,896 # 1380 <.Lline_table_start1+0x1155>
   1a856:	950a                	add	a0,a0,sp
   1a858:	00000097          	auipc	ra,0x0
   1a85c:	222080e7          	jalr	546(ra) # 1aa7a <_ZN9allow_pin12full_dynamic17unshare_if_shared17h6cf91b2080959258E>
   1a860:	6505                	lui	a0,0x1
   1a862:	32450513          	addi	a0,a0,804 # 1324 <.Lline_table_start1+0x10f9>
   1a866:	950a                	add	a0,a0,sp
   1a868:	00000097          	auipc	ra,0x0
   1a86c:	212080e7          	jalr	530(ra) # 1aa7a <_ZN9allow_pin12full_dynamic17unshare_if_shared17h6cf91b2080959258E>
   1a870:	6505                	lui	a0,0x1
   1a872:	32450513          	addi	a0,a0,804 # 1324 <.Lline_table_start1+0x10f9>
   1a876:	950a                	add	a0,a0,sp
   1a878:	00000097          	auipc	ra,0x0
   1a87c:	202080e7          	jalr	514(ra) # 1aa7a <_ZN9allow_pin12full_dynamic17unshare_if_shared17h6cf91b2080959258E>
   1a880:	0019c503          	lbu	a0,1(s3)
   1a884:	0009c583          	lbu	a1,0(s3)
   1a888:	0029c603          	lbu	a2,2(s3)
   1a88c:	0522                	slli	a0,a0,0x8
   1a88e:	39fa4683          	lbu	a3,927(s4)
   1a892:	3a0a4703          	lbu	a4,928(s4)
   1a896:	8d4d                	or	a0,a0,a1
   1a898:	3a1a4583          	lbu	a1,929(s4)
   1a89c:	3a2a4783          	lbu	a5,930(s4)
   1a8a0:	0722                	slli	a4,a4,0x8
   1a8a2:	8ed9                	or	a3,a3,a4
   1a8a4:	05c2                	slli	a1,a1,0x10
   1a8a6:	07e2                	slli	a5,a5,0x18
   1a8a8:	8ddd                	or	a1,a1,a5
   1a8aa:	0aa11423          	sh	a0,168(sp)
   1a8ae:	0ac10523          	sb	a2,170(sp)
   1a8b2:	00d5eb33          	or	s6,a1,a3
   1a8b6:	6505                	lui	a0,0x1
   1a8b8:	33750513          	addi	a0,a0,823 # 1337 <.Lline_table_start1+0x110c>
   1a8bc:	00a105b3          	add	a1,sp,a0
   1a8c0:	0948                	addi	a0,sp,148
   1a8c2:	4645                	li	a2,17
   1a8c4:	00000097          	auipc	ra,0x0
   1a8c8:	240080e7          	jalr	576(ra) # 1ab04 <memcpy>
   1a8cc:	4481                	li	s1,0
   1a8ce:	ec2fc06f          	j	16f90 <_start+0x302>
   1a8d2:	08c8                	addi	a0,sp,84
   1a8d4:	00000097          	auipc	ra,0x0
   1a8d8:	1a6080e7          	jalr	422(ra) # 1aa7a <_ZN9allow_pin12full_dynamic17unshare_if_shared17h6cf91b2080959258E>
   1a8dc:	6505                	lui	a0,0x1
   1a8de:	38050513          	addi	a0,a0,896 # 1380 <.Lline_table_start1+0x1155>
   1a8e2:	950a                	add	a0,a0,sp
   1a8e4:	00000097          	auipc	ra,0x0
   1a8e8:	196080e7          	jalr	406(ra) # 1aa7a <_ZN9allow_pin12full_dynamic17unshare_if_shared17h6cf91b2080959258E>
   1a8ec:	6505                	lui	a0,0x1
   1a8ee:	38050513          	addi	a0,a0,896 # 1380 <.Lline_table_start1+0x1155>
   1a8f2:	950a                	add	a0,a0,sp
   1a8f4:	00000097          	auipc	ra,0x0
   1a8f8:	186080e7          	jalr	390(ra) # 1aa7a <_ZN9allow_pin12full_dynamic17unshare_if_shared17h6cf91b2080959258E>
   1a8fc:	00194503          	lbu	a0,1(s2)
   1a900:	00094583          	lbu	a1,0(s2)
   1a904:	00294603          	lbu	a2,2(s2)
   1a908:	0522                	slli	a0,a0,0x8
   1a90a:	3fba4683          	lbu	a3,1019(s4)
   1a90e:	3fca4703          	lbu	a4,1020(s4)
   1a912:	8d4d                	or	a0,a0,a1
   1a914:	3fda4583          	lbu	a1,1021(s4)
   1a918:	3fea4783          	lbu	a5,1022(s4)
   1a91c:	0722                	slli	a4,a4,0x8
   1a91e:	8ed9                	or	a3,a3,a4
   1a920:	05c2                	slli	a1,a1,0x10
   1a922:	07e2                	slli	a5,a5,0x18
   1a924:	8ddd                	or	a1,a1,a5
   1a926:	08a11a23          	sh	a0,148(sp)
   1a92a:	08c10b23          	sb	a2,150(sp)
   1a92e:	00d5eb33          	or	s6,a1,a3
   1a932:	6505                	lui	a0,0x1
   1a934:	39350513          	addi	a0,a0,915 # 1393 <.Lline_table_start1+0x1168>
   1a938:	00a105b3          	add	a1,sp,a0
   1a93c:	0028                	addi	a0,sp,8
   1a93e:	02f00613          	li	a2,47
   1a942:	00000097          	auipc	ra,0x0
   1a946:	1c2080e7          	jalr	450(ra) # 1ab04 <memcpy>
   1a94a:	4481                	li	s1,0
   1a94c:	f3efc06f          	j	1708a <_start+0x3fc>
   1a950:	6505                	lui	a0,0x1
   1a952:	38050513          	addi	a0,a0,896 # 1380 <.Lline_table_start1+0x1155>
   1a956:	950a                	add	a0,a0,sp
   1a958:	00000097          	auipc	ra,0x0
   1a95c:	122080e7          	jalr	290(ra) # 1aa7a <_ZN9allow_pin12full_dynamic17unshare_if_shared17h6cf91b2080959258E>
   1a960:	6505                	lui	a0,0x1
   1a962:	32450513          	addi	a0,a0,804 # 1324 <.Lline_table_start1+0x10f9>
   1a966:	950a                	add	a0,a0,sp
   1a968:	00000097          	auipc	ra,0x0
   1a96c:	112080e7          	jalr	274(ra) # 1aa7a <_ZN9allow_pin12full_dynamic17unshare_if_shared17h6cf91b2080959258E>
   1a970:	6505                	lui	a0,0x1
   1a972:	32450513          	addi	a0,a0,804 # 1324 <.Lline_table_start1+0x10f9>
   1a976:	950a                	add	a0,a0,sp
   1a978:	00000097          	auipc	ra,0x0
   1a97c:	102080e7          	jalr	258(ra) # 1aa7a <_ZN9allow_pin12full_dynamic17unshare_if_shared17h6cf91b2080959258E>
   1a980:	0019c503          	lbu	a0,1(s3)
   1a984:	0009c583          	lbu	a1,0(s3)
   1a988:	0029c603          	lbu	a2,2(s3)
   1a98c:	0522                	slli	a0,a0,0x8
   1a98e:	39fa4683          	lbu	a3,927(s4)
   1a992:	3a0a4703          	lbu	a4,928(s4)
   1a996:	8d4d                	or	a0,a0,a1
   1a998:	3a1a4583          	lbu	a1,929(s4)
   1a99c:	3a2a4783          	lbu	a5,930(s4)
   1a9a0:	0722                	slli	a4,a4,0x8
   1a9a2:	8ed9                	or	a3,a3,a4
   1a9a4:	05c2                	slli	a1,a1,0x10
   1a9a6:	07e2                	slli	a5,a5,0x18
   1a9a8:	8ddd                	or	a1,a1,a5
   1a9aa:	08a11a23          	sh	a0,148(sp)
   1a9ae:	08c10b23          	sb	a2,150(sp)
   1a9b2:	00d5eb33          	or	s6,a1,a3
   1a9b6:	6505                	lui	a0,0x1
   1a9b8:	33750513          	addi	a0,a0,823 # 1337 <.Lline_table_start1+0x110c>
   1a9bc:	00a105b3          	add	a1,sp,a0
   1a9c0:	08c8                	addi	a0,sp,84
   1a9c2:	4679                	li	a2,30
   1a9c4:	00000097          	auipc	ra,0x0
   1a9c8:	140080e7          	jalr	320(ra) # 1ab04 <memcpy>
   1a9cc:	4481                	li	s1,0
   1a9ce:	fccfc06f          	j	1719a <_start+0x50c>
   1a9d2:	6505                	lui	a0,0x1
   1a9d4:	38050513          	addi	a0,a0,896 # 1380 <.Lline_table_start1+0x1155>
   1a9d8:	950a                	add	a0,a0,sp
   1a9da:	00000097          	auipc	ra,0x0
   1a9de:	0a0080e7          	jalr	160(ra) # 1aa7a <_ZN9allow_pin12full_dynamic17unshare_if_shared17h6cf91b2080959258E>
   1a9e2:	6505                	lui	a0,0x1
   1a9e4:	32450513          	addi	a0,a0,804 # 1324 <.Lline_table_start1+0x10f9>
   1a9e8:	950a                	add	a0,a0,sp
   1a9ea:	00000097          	auipc	ra,0x0
   1a9ee:	090080e7          	jalr	144(ra) # 1aa7a <_ZN9allow_pin12full_dynamic17unshare_if_shared17h6cf91b2080959258E>
   1a9f2:	6505                	lui	a0,0x1
   1a9f4:	32450513          	addi	a0,a0,804 # 1324 <.Lline_table_start1+0x10f9>
   1a9f8:	950a                	add	a0,a0,sp
   1a9fa:	00000097          	auipc	ra,0x0
   1a9fe:	080080e7          	jalr	128(ra) # 1aa7a <_ZN9allow_pin12full_dynamic17unshare_if_shared17h6cf91b2080959258E>
   1aa02:	4481                	li	s1,0
   1aa04:	0009c883          	lbu	a7,0(s3)
   1aa08:	0019c583          	lbu	a1,1(s3)
   1aa0c:	0029c803          	lbu	a6,2(s3)
   1aa10:	39fa4683          	lbu	a3,927(s4)
   1aa14:	3a0a4703          	lbu	a4,928(s4)
   1aa18:	3a1a4783          	lbu	a5,929(s4)
   1aa1c:	3a2a4403          	lbu	s0,930(s4)
   1aa20:	3a7a4603          	lbu	a2,935(s4)
   1aa24:	3a8a4503          	lbu	a0,936(s4)
   1aa28:	3a9a4283          	lbu	t0,937(s4)
   1aa2c:	05a2                	slli	a1,a1,0x8
   1aa2e:	0722                	slli	a4,a4,0x8
   1aa30:	07c2                	slli	a5,a5,0x10
   1aa32:	0462                	slli	s0,s0,0x18
   1aa34:	0522                	slli	a0,a0,0x8
   1aa36:	0115e5b3          	or	a1,a1,a7
   1aa3a:	00d768b3          	or	a7,a4,a3
   1aa3e:	8fc1                	or	a5,a5,s0
   1aa40:	3a3a4703          	lbu	a4,931(s4)
   1aa44:	3a4a4403          	lbu	s0,932(s4)
   1aa48:	8d51                	or	a0,a0,a2
   1aa4a:	3a5a4603          	lbu	a2,933(s4)
   1aa4e:	3a6a4683          	lbu	a3,934(s4)
   1aa52:	0422                	slli	s0,s0,0x8
   1aa54:	8f41                	or	a4,a4,s0
   1aa56:	0642                	slli	a2,a2,0x10
   1aa58:	06e2                	slli	a3,a3,0x18
   1aa5a:	8e55                	or	a2,a2,a3
   1aa5c:	08b11a23          	sh	a1,148(sp)
   1aa60:	09010b23          	sb	a6,150(sp)
   1aa64:	0117eb33          	or	s6,a5,a7
   1aa68:	8e59                	or	a2,a2,a4
   1aa6a:	cab2                	sw	a2,84(sp)
   1aa6c:	04a11c23          	sh	a0,88(sp)
   1aa70:	04510d23          	sb	t0,90(sp)
   1aa74:	82ffc06f          	j	172a2 <_start+0x614>
   1aa78:	b15d                	j	1a71e <_start+0x3a90>

0001aa7a <_ZN9allow_pin12full_dynamic17unshare_if_shared17h6cf91b2080959258E>:
   1aa7a:	00854703          	lbu	a4,8(a0)
   1aa7e:	4809                	li	a6,2
   1aa80:	01070b63          	beq	a4,a6,1aa96 <_ZN9allow_pin12full_dynamic17unshare_if_shared17h6cf91b2080959258E+0x1c>
   1aa84:	87aa                	mv	a5,a0
   1aa86:	4108                	lw	a0,0(a0)
   1aa88:	43cc                	lw	a1,4(a5)
   1aa8a:	4601                	li	a2,0
   1aa8c:	4681                	li	a3,0
   1aa8e:	00000073          	ecall
   1aa92:	01078423          	sb	a6,8(a5)
   1aa96:	8082                	ret

0001aa98 <memset>:
   1aa98:	46c1                	li	a3,16
   1aa9a:	04d66f63          	bltu	a2,a3,1aaf8 <memset+0x60>
   1aa9e:	40a006b3          	neg	a3,a0
   1aaa2:	0036f813          	andi	a6,a3,3
   1aaa6:	01050733          	add	a4,a0,a6
   1aaaa:	00e57963          	bgeu	a0,a4,1aabc <memset+0x24>
   1aaae:	87c2                	mv	a5,a6
   1aab0:	86aa                	mv	a3,a0
   1aab2:	00b68023          	sb	a1,0(a3)
   1aab6:	17fd                	addi	a5,a5,-1
   1aab8:	0685                	addi	a3,a3,1
   1aaba:	ffe5                	bnez	a5,1aab2 <memset+0x1a>
   1aabc:	41060633          	sub	a2,a2,a6
   1aac0:	ffc67693          	andi	a3,a2,-4
   1aac4:	96ba                	add	a3,a3,a4
   1aac6:	00d77e63          	bgeu	a4,a3,1aae2 <memset+0x4a>
   1aaca:	0ff5f813          	zext.b	a6,a1
   1aace:	010107b7          	lui	a5,0x1010
   1aad2:	10178793          	addi	a5,a5,257 # 1010101 <_ZN17compiler_builtins3mem6memcpy17h90d0c987d2ef5a79E+0xff55f5>
   1aad6:	02f807b3          	mul	a5,a6,a5
   1aada:	c31c                	sw	a5,0(a4)
   1aadc:	0711                	addi	a4,a4,4
   1aade:	fed76ee3          	bltu	a4,a3,1aada <memset+0x42>
   1aae2:	8a0d                	andi	a2,a2,3
   1aae4:	00c68733          	add	a4,a3,a2
   1aae8:	00e6f763          	bgeu	a3,a4,1aaf6 <memset+0x5e>
   1aaec:	00b68023          	sb	a1,0(a3)
   1aaf0:	167d                	addi	a2,a2,-1
   1aaf2:	0685                	addi	a3,a3,1
   1aaf4:	fe65                	bnez	a2,1aaec <memset+0x54>
   1aaf6:	8082                	ret
   1aaf8:	86aa                	mv	a3,a0
   1aafa:	00c50733          	add	a4,a0,a2
   1aafe:	fee567e3          	bltu	a0,a4,1aaec <memset+0x54>
   1ab02:	bfd5                	j	1aaf6 <memset+0x5e>

0001ab04 <memcpy>:
   1ab04:	00000317          	auipc	t1,0x0
   1ab08:	00830067          	jr	8(t1) # 1ab0c <_ZN17compiler_builtins3mem6memcpy17h90d0c987d2ef5a79E>

0001ab0c <_ZN17compiler_builtins3mem6memcpy17h90d0c987d2ef5a79E>:
   1ab0c:	1141                	addi	sp,sp,-16
   1ab0e:	c622                	sw	s0,12(sp)
   1ab10:	46c1                	li	a3,16
   1ab12:	06d66363          	bltu	a2,a3,1ab78 <_ZN17compiler_builtins3mem6memcpy17h90d0c987d2ef5a79E+0x6c>
   1ab16:	40a006b3          	neg	a3,a0
   1ab1a:	0036f813          	andi	a6,a3,3
   1ab1e:	01050fb3          	add	t6,a0,a6
   1ab22:	01f57d63          	bgeu	a0,t6,1ab3c <_ZN17compiler_builtins3mem6memcpy17h90d0c987d2ef5a79E+0x30>
   1ab26:	8742                	mv	a4,a6
   1ab28:	86aa                	mv	a3,a0
   1ab2a:	87ae                	mv	a5,a1
   1ab2c:	0007c883          	lbu	a7,0(a5)
   1ab30:	177d                	addi	a4,a4,-1
   1ab32:	01168023          	sb	a7,0(a3)
   1ab36:	0685                	addi	a3,a3,1
   1ab38:	0785                	addi	a5,a5,1
   1ab3a:	fb6d                	bnez	a4,1ab2c <_ZN17compiler_builtins3mem6memcpy17h90d0c987d2ef5a79E+0x20>
   1ab3c:	01058433          	add	s0,a1,a6
   1ab40:	410608b3          	sub	a7,a2,a6
   1ab44:	ffc8f713          	andi	a4,a7,-4
   1ab48:	00347613          	andi	a2,s0,3
   1ab4c:	00ef86b3          	add	a3,t6,a4
   1ab50:	e621                	bnez	a2,1ab98 <_ZN17compiler_builtins3mem6memcpy17h90d0c987d2ef5a79E+0x8c>
   1ab52:	00dffa63          	bgeu	t6,a3,1ab66 <_ZN17compiler_builtins3mem6memcpy17h90d0c987d2ef5a79E+0x5a>
   1ab56:	8622                	mv	a2,s0
   1ab58:	421c                	lw	a5,0(a2)
   1ab5a:	00ffa023          	sw	a5,0(t6)
   1ab5e:	0f91                	addi	t6,t6,4
   1ab60:	0611                	addi	a2,a2,4
   1ab62:	fedfebe3          	bltu	t6,a3,1ab58 <_ZN17compiler_builtins3mem6memcpy17h90d0c987d2ef5a79E+0x4c>
   1ab66:	00e405b3          	add	a1,s0,a4
   1ab6a:	0038f613          	andi	a2,a7,3
   1ab6e:	00c68733          	add	a4,a3,a2
   1ab72:	00e6e863          	bltu	a3,a4,1ab82 <_ZN17compiler_builtins3mem6memcpy17h90d0c987d2ef5a79E+0x76>
   1ab76:	a831                	j	1ab92 <_ZN17compiler_builtins3mem6memcpy17h90d0c987d2ef5a79E+0x86>
   1ab78:	86aa                	mv	a3,a0
   1ab7a:	00c50733          	add	a4,a0,a2
   1ab7e:	00e57a63          	bgeu	a0,a4,1ab92 <_ZN17compiler_builtins3mem6memcpy17h90d0c987d2ef5a79E+0x86>
   1ab82:	0005c703          	lbu	a4,0(a1)
   1ab86:	167d                	addi	a2,a2,-1
   1ab88:	00e68023          	sb	a4,0(a3)
   1ab8c:	0685                	addi	a3,a3,1
   1ab8e:	0585                	addi	a1,a1,1
   1ab90:	fa6d                	bnez	a2,1ab82 <_ZN17compiler_builtins3mem6memcpy17h90d0c987d2ef5a79E+0x76>
   1ab92:	4432                	lw	s0,12(sp)
   1ab94:	0141                	addi	sp,sp,16
   1ab96:	8082                	ret
   1ab98:	4801                	li	a6,0
   1ab9a:	4791                	li	a5,4
   1ab9c:	c402                	sw	zero,8(sp)
   1ab9e:	40c783b3          	sub	t2,a5,a2
   1aba2:	00810293          	addi	t0,sp,8
   1aba6:	0013f313          	andi	t1,t2,1
   1abaa:	00c2e2b3          	or	t0,t0,a2
   1abae:	04031763          	bnez	t1,1abfc <_ZN17compiler_builtins3mem6memcpy17h90d0c987d2ef5a79E+0xf0>
   1abb2:	0023f793          	andi	a5,t2,2
   1abb6:	ebb9                	bnez	a5,1ac0c <_ZN17compiler_builtins3mem6memcpy17h90d0c987d2ef5a79E+0x100>
   1abb8:	4ea2                	lw	t4,8(sp)
   1abba:	00361813          	slli	a6,a2,0x3
   1abbe:	004f8793          	addi	a5,t6,4
   1abc2:	40c40f33          	sub	t5,s0,a2
   1abc6:	06d7f363          	bgeu	a5,a3,1ac2c <_ZN17compiler_builtins3mem6memcpy17h90d0c987d2ef5a79E+0x120>
   1abca:	410007b3          	neg	a5,a6
   1abce:	0187fe13          	andi	t3,a5,24
   1abd2:	004f2283          	lw	t0,4(t5)
   1abd6:	004f0393          	addi	t2,t5,4
   1abda:	010ed5b3          	srl	a1,t4,a6
   1abde:	004f8313          	addi	t1,t6,4
   1abe2:	01c297b3          	sll	a5,t0,t3
   1abe6:	8ddd                	or	a1,a1,a5
   1abe8:	008f8793          	addi	a5,t6,8
   1abec:	00bfa023          	sw	a1,0(t6)
   1abf0:	8f9a                	mv	t6,t1
   1abf2:	8f1e                	mv	t5,t2
   1abf4:	8e96                	mv	t4,t0
   1abf6:	fcd7eee3          	bltu	a5,a3,1abd2 <_ZN17compiler_builtins3mem6memcpy17h90d0c987d2ef5a79E+0xc6>
   1abfa:	a825                	j	1ac32 <_ZN17compiler_builtins3mem6memcpy17h90d0c987d2ef5a79E+0x126>
   1abfc:	00044783          	lbu	a5,0(s0)
   1ac00:	00f28023          	sb	a5,0(t0)
   1ac04:	4805                	li	a6,1
   1ac06:	0023f793          	andi	a5,t2,2
   1ac0a:	d7dd                	beqz	a5,1abb8 <_ZN17compiler_builtins3mem6memcpy17h90d0c987d2ef5a79E+0xac>
   1ac0c:	010407b3          	add	a5,s0,a6
   1ac10:	00079783          	lh	a5,0(a5)
   1ac14:	9816                	add	a6,a6,t0
   1ac16:	00f81023          	sh	a5,0(a6)
   1ac1a:	4ea2                	lw	t4,8(sp)
   1ac1c:	00361813          	slli	a6,a2,0x3
   1ac20:	004f8793          	addi	a5,t6,4
   1ac24:	40c40f33          	sub	t5,s0,a2
   1ac28:	fad7e1e3          	bltu	a5,a3,1abca <_ZN17compiler_builtins3mem6memcpy17h90d0c987d2ef5a79E+0xbe>
   1ac2c:	82f6                	mv	t0,t4
   1ac2e:	83fa                	mv	t2,t5
   1ac30:	837e                	mv	t1,t6
   1ac32:	00010223          	sb	zero,4(sp)
   1ac36:	4785                	li	a5,1
   1ac38:	00010123          	sb	zero,2(sp)
   1ac3c:	00f61763          	bne	a2,a5,1ac4a <_ZN17compiler_builtins3mem6memcpy17h90d0c987d2ef5a79E+0x13e>
   1ac40:	4781                	li	a5,0
   1ac42:	4e01                	li	t3,0
   1ac44:	4e81                	li	t4,0
   1ac46:	0050                	addi	a2,sp,4
   1ac48:	a819                	j	1ac5e <_ZN17compiler_builtins3mem6memcpy17h90d0c987d2ef5a79E+0x152>
   1ac4a:	0043c783          	lbu	a5,4(t2)
   1ac4e:	0053ce03          	lbu	t3,5(t2)
   1ac52:	4e89                	li	t4,2
   1ac54:	00f10223          	sb	a5,4(sp)
   1ac58:	0e22                	slli	t3,t3,0x8
   1ac5a:	00210613          	addi	a2,sp,2
   1ac5e:	00147593          	andi	a1,s0,1
   1ac62:	e199                	bnez	a1,1ac68 <_ZN17compiler_builtins3mem6memcpy17h90d0c987d2ef5a79E+0x15c>
   1ac64:	4601                	li	a2,0
   1ac66:	a821                	j	1ac7e <_ZN17compiler_builtins3mem6memcpy17h90d0c987d2ef5a79E+0x172>
   1ac68:	0391                	addi	t2,t2,4
   1ac6a:	93f6                	add	t2,t2,t4
   1ac6c:	0003c583          	lbu	a1,0(t2)
   1ac70:	00b60023          	sb	a1,0(a2)
   1ac74:	00214603          	lbu	a2,2(sp)
   1ac78:	00414783          	lbu	a5,4(sp)
   1ac7c:	0642                	slli	a2,a2,0x10
   1ac7e:	8e5d                	or	a2,a2,a5
   1ac80:	0102d5b3          	srl	a1,t0,a6
   1ac84:	410007b3          	neg	a5,a6
   1ac88:	00ce6633          	or	a2,t3,a2
   1ac8c:	8be1                	andi	a5,a5,24
   1ac8e:	00f61633          	sll	a2,a2,a5
   1ac92:	8dd1                	or	a1,a1,a2
   1ac94:	00b32023          	sw	a1,0(t1)
   1ac98:	00e405b3          	add	a1,s0,a4
   1ac9c:	0038f613          	andi	a2,a7,3
   1aca0:	00c68733          	add	a4,a3,a2
   1aca4:	ece6efe3          	bltu	a3,a4,1ab82 <_ZN17compiler_builtins3mem6memcpy17h90d0c987d2ef5a79E+0x76>
   1aca8:	b5ed                	j	1ab92 <_ZN17compiler_builtins3mem6memcpy17h90d0c987d2ef5a79E+0x86>
