
target/riscv32imc-unknown-none-elf/opt-z/examples/complex_full_dynamic:     file format elf32-littleriscv

Sections:
Idx Name          Size      VMA       LMA       File off  Algn
  0 .eh_frame     00000060  000100d4  000100d4  000000d4  2**2
                  CONTENTS, ALLOC, LOAD, READONLY, DATA
  1 .text         0000693c  00011134  00011134  00000134  2**1
                  CONTENTS, ALLOC, LOAD, READONLY, CODE
  2 .comment      00000099  00000000  00000000  00006a70  2**0
                  CONTENTS, READONLY
  3 .riscv.attributes 0000002f  00000000  00000000  00006b09  2**0
                  CONTENTS, READONLY

Disassembly of section .text:

00011134 <_ZN9allow_pin12full_dynamic15Buffer$LT$B$GT$5allow17hb1627d2b206e9fb0E>:
   11134:	87aa                	mv	a5,a0
   11136:	00854503          	lbu	a0,8(a0)
   1113a:	4309                	li	t1,2
   1113c:	4285                	li	t0,1
   1113e:	02651663          	bne	a0,t1,1116a <_ZN9allow_pin12full_dynamic15Buffer$LT$B$GT$5allow17hb1627d2b206e9fb0E+0x36>
   11142:	883a                	mv	a6,a4
   11144:	88b6                	mv	a7,a3
   11146:	8732                	mv	a4,a2
   11148:	86ae                	mv	a3,a1
   1114a:	00c78613          	addi	a2,a5,12
   1114e:	8546                	mv	a0,a7
   11150:	85c2                	mv	a1,a6
   11152:	00000073          	ecall
   11156:	00650b63          	beq	a0,t1,1116c <_ZN9allow_pin12full_dynamic15Buffer$LT$B$GT$5allow17hb1627d2b206e9fb0E+0x38>
   1115a:	4281                	li	t0,0
   1115c:	0117a023          	sw	a7,0(a5)
   11160:	0107a223          	sw	a6,4(a5)
   11164:	00e78423          	sb	a4,8(a5)
   11168:	a011                	j	1116c <_ZN9allow_pin12full_dynamic15Buffer$LT$B$GT$5allow17hb1627d2b206e9fb0E+0x38>
   1116a:	458d                	li	a1,3
   1116c:	8516                	mv	a0,t0
   1116e:	8082                	ret

00011170 <_ZN9allow_pin7command17hdfcb5c5f4a3821c8E>:
   11170:	4709                	li	a4,2
   11172:	4681                	li	a3,0
   11174:	00000073          	ecall
   11178:	08053513          	sltiu	a0,a0,128
   1117c:	8082                	ret

0001117e <_start>:
   1117e:	9f010113          	addi	sp,sp,-1552
   11182:	60010513          	addi	a0,sp,1536
   11186:	00152623          	sw	ra,12(a0)
   1118a:	c500                	sw	s0,8(a0)
   1118c:	c144                	sw	s1,4(a0)
   1118e:	01252023          	sw	s2,0(a0)
   11192:	58010513          	addi	a0,sp,1408
   11196:	07352e23          	sw	s3,124(a0)
   1119a:	07452c23          	sw	s4,120(a0)
   1119e:	07552a23          	sw	s5,116(a0)
   111a2:	07652823          	sw	s6,112(a0)
   111a6:	1528                	addi	a0,sp,680
   111a8:	02800613          	li	a2,40
   111ac:	4581                	li	a1,0
   111ae:	00006097          	auipc	ra,0x6
   111b2:	6b0080e7          	jalr	1712(ra) # 1785e <memset>
   111b6:	4409                	li	s0,2
   111b8:	2a810223          	sb	s0,676(sp)
   111bc:	58c10993          	addi	s3,sp,1420
   111c0:	05100613          	li	a2,81
   111c4:	854e                	mv	a0,s3
   111c6:	4581                	li	a1,0
   111c8:	00006097          	auipc	ra,0x6
   111cc:	696080e7          	jalr	1686(ra) # 1785e <memset>
   111d0:	58810423          	sb	s0,1416(sp)
   111d4:	6409                	lui	s0,0x2
   111d6:	0d68                	addi	a0,sp,668
   111d8:	02800593          	li	a1,40
   111dc:	4611                	li	a2,4
   111de:	0419                	addi	s0,s0,6 # 2006 <.Lline_table_start1+0x1ddb>
   111e0:	4725                	li	a4,9
   111e2:	86a2                	mv	a3,s0
   111e4:	00000097          	auipc	ra,0x0
   111e8:	f50080e7          	jalr	-176(ra) # 11134 <_ZN9allow_pin12full_dynamic15Buffer$LT$B$GT$5allow17hb1627d2b206e9fb0E>
   111ec:	8905                	andi	a0,a0,1
   111ee:	e915                	bnez	a0,11222 <_start+0xa4>
   111f0:	58010513          	addi	a0,sp,1408
   111f4:	05100593          	li	a1,81
   111f8:	460d                	li	a2,3
   111fa:	4725                	li	a4,9
   111fc:	86a2                	mv	a3,s0
   111fe:	00000097          	auipc	ra,0x0
   11202:	f36080e7          	jalr	-202(ra) # 11134 <_ZN9allow_pin12full_dynamic15Buffer$LT$B$GT$5allow17hb1627d2b206e9fb0E>
   11206:	8905                	andi	a0,a0,1
   11208:	ed09                	bnez	a0,11222 <_start+0xa4>
   1120a:	6509                	lui	a0,0x2
   1120c:	45a5                	li	a1,9
   1120e:	0519                	addi	a0,a0,6 # 2006 <.Lline_table_start1+0x1ddb>
   11210:	4625                	li	a2,9
   11212:	00000097          	auipc	ra,0x0
   11216:	f5e080e7          	jalr	-162(ra) # 11170 <_ZN9allow_pin7command17hdfcb5c5f4a3821c8E>
   1121a:	8905                	andi	a0,a0,1
   1121c:	e119                	bnez	a0,11222 <_start+0xa4>
   1121e:	4b60206f          	j	136d4 <_start+0x2556>
   11222:	84ae                	mv	s1,a1
   11224:	4405                	li	s0,1
   11226:	58010513          	addi	a0,sp,1408
   1122a:	00006097          	auipc	ra,0x6
   1122e:	272080e7          	jalr	626(ra) # 1749c <_ZN9allow_pin12full_dynamic17unshare_if_shared17ha9c848d8c301b74dE>
   11232:	0d68                	addi	a0,sp,668
   11234:	00006097          	auipc	ra,0x6
   11238:	268080e7          	jalr	616(ra) # 1749c <_ZN9allow_pin12full_dynamic17unshare_if_shared17ha9c848d8c301b74dE>
   1123c:	c019                	beqz	s0,11242 <_start+0xc4>
   1123e:	1380606f          	j	17376 <_start+0x61f8>
   11242:	00006297          	auipc	t0,0x6
   11246:	446282e7          	jalr	t0,1094(t0) # 17688 <OUTLINED_FUNCTION_9>
   1124a:	04a00613          	li	a2,74
   1124e:	00006097          	auipc	ra,0x6
   11252:	67c080e7          	jalr	1660(ra) # 178ca <memcpy>
   11256:	00006297          	auipc	t0,0x6
   1125a:	5fa282e7          	jalr	t0,1530(t0) # 17850 <OUTLINED_FUNCTION_27>
   1125e:	00006097          	auipc	ra,0x6
   11262:	66c080e7          	jalr	1644(ra) # 178ca <memcpy>
   11266:	00006297          	auipc	t0,0x6
   1126a:	326282e7          	jalr	t0,806(t0) # 1758c <OUTLINED_FUNCTION_4>
   1126e:	52810913          	addi	s2,sp,1320
   11272:	04600613          	li	a2,70
   11276:	854a                	mv	a0,s2
   11278:	4581                	li	a1,0
   1127a:	00006097          	auipc	ra,0x6
   1127e:	5e4080e7          	jalr	1508(ra) # 1785e <memset>
   11282:	00006297          	auipc	t0,0x6
   11286:	576282e7          	jalr	t0,1398(t0) # 177f8 <OUTLINED_FUNCTION_22>
   1128a:	05100593          	li	a1,81
   1128e:	4611                	li	a2,4
   11290:	0c468413          	addi	s0,a3,196
   11294:	471d                	li	a4,7
   11296:	86a2                	mv	a3,s0
   11298:	00000097          	auipc	ra,0x0
   1129c:	e9c080e7          	jalr	-356(ra) # 11134 <_ZN9allow_pin12full_dynamic15Buffer$LT$B$GT$5allow17hb1627d2b206e9fb0E>
   112a0:	8905                	andi	a0,a0,1
   112a2:	e91d                	bnez	a0,112d8 <_start+0x15a>
   112a4:	51c10513          	addi	a0,sp,1308
   112a8:	04600593          	li	a1,70
   112ac:	460d                	li	a2,3
   112ae:	86a2                	mv	a3,s0
   112b0:	4701                	li	a4,0
   112b2:	00000097          	auipc	ra,0x0
   112b6:	e82080e7          	jalr	-382(ra) # 11134 <_ZN9allow_pin12full_dynamic15Buffer$LT$B$GT$5allow17hb1627d2b206e9fb0E>
   112ba:	8905                	andi	a0,a0,1
   112bc:	ed11                	bnez	a0,112d8 <_start+0x15a>
   112be:	6509                	lui	a0,0x2
   112c0:	0c450513          	addi	a0,a0,196 # 20c4 <.Lline_table_start1+0x1e99>
   112c4:	459d                	li	a1,7
   112c6:	4601                	li	a2,0
   112c8:	00000097          	auipc	ra,0x0
   112cc:	ea8080e7          	jalr	-344(ra) # 11170 <_ZN9allow_pin7command17hdfcb5c5f4a3821c8E>
   112d0:	8905                	andi	a0,a0,1
   112d2:	e119                	bnez	a0,112d8 <_start+0x15a>
   112d4:	43e0206f          	j	13712 <_start+0x2594>
   112d8:	84ae                	mv	s1,a1
   112da:	4405                	li	s0,1
   112dc:	51c10513          	addi	a0,sp,1308
   112e0:	00006097          	auipc	ra,0x6
   112e4:	1bc080e7          	jalr	444(ra) # 1749c <_ZN9allow_pin12full_dynamic17unshare_if_shared17ha9c848d8c301b74dE>
   112e8:	58010513          	addi	a0,sp,1408
   112ec:	00006097          	auipc	ra,0x6
   112f0:	1b0080e7          	jalr	432(ra) # 1749c <_ZN9allow_pin12full_dynamic17unshare_if_shared17ha9c848d8c301b74dE>
   112f4:	c019                	beqz	s0,112fa <_start+0x17c>
   112f6:	0800606f          	j	17376 <_start+0x61f8>
   112fa:	00006297          	auipc	t0,0x6
   112fe:	3a6282e7          	jalr	t0,934(t0) # 176a0 <OUTLINED_FUNCTION_10>
   11302:	03f00613          	li	a2,63
   11306:	00006097          	auipc	ra,0x6
   1130a:	5c4080e7          	jalr	1476(ra) # 178ca <memcpy>
   1130e:	59310513          	addi	a0,sp,1427
   11312:	048c                	addi	a1,sp,576
   11314:	03f00613          	li	a2,63
   11318:	00006097          	auipc	ra,0x6
   1131c:	5b2080e7          	jalr	1458(ra) # 178ca <memcpy>
   11320:	00006297          	auipc	t0,0x6
   11324:	26c282e7          	jalr	t0,620(t0) # 1758c <OUTLINED_FUNCTION_4>
   11328:	4661                	li	a2,24
   1132a:	854a                	mv	a0,s2
   1132c:	4581                	li	a1,0
   1132e:	00006097          	auipc	ra,0x6
   11332:	530080e7          	jalr	1328(ra) # 1785e <memset>
   11336:	00006297          	auipc	t0,0x6
   1133a:	4c2282e7          	jalr	t0,1218(t0) # 177f8 <OUTLINED_FUNCTION_22>
   1133e:	04600593          	li	a1,70
   11342:	4611                	li	a2,4
   11344:	3cf68413          	addi	s0,a3,975
   11348:	470d                	li	a4,3
   1134a:	86a2                	mv	a3,s0
   1134c:	00000097          	auipc	ra,0x0
   11350:	de8080e7          	jalr	-536(ra) # 11134 <_ZN9allow_pin12full_dynamic15Buffer$LT$B$GT$5allow17hb1627d2b206e9fb0E>
   11354:	8905                	andi	a0,a0,1
   11356:	e915                	bnez	a0,1138a <_start+0x20c>
   11358:	51c10513          	addi	a0,sp,1308
   1135c:	45e1                	li	a1,24
   1135e:	460d                	li	a2,3
   11360:	4709                	li	a4,2
   11362:	86a2                	mv	a3,s0
   11364:	00000097          	auipc	ra,0x0
   11368:	dd0080e7          	jalr	-560(ra) # 11134 <_ZN9allow_pin12full_dynamic15Buffer$LT$B$GT$5allow17hb1627d2b206e9fb0E>
   1136c:	8905                	andi	a0,a0,1
   1136e:	ed11                	bnez	a0,1138a <_start+0x20c>
   11370:	6509                	lui	a0,0x2
   11372:	458d                	li	a1,3
   11374:	3cf50513          	addi	a0,a0,975 # 23cf <.Lline_table_start1+0x21a4>
   11378:	4609                	li	a2,2
   1137a:	00000097          	auipc	ra,0x0
   1137e:	df6080e7          	jalr	-522(ra) # 11170 <_ZN9allow_pin7command17hdfcb5c5f4a3821c8E>
   11382:	8905                	andi	a0,a0,1
   11384:	e119                	bnez	a0,1138a <_start+0x20c>
   11386:	3ca0206f          	j	13750 <_start+0x25d2>
   1138a:	84ae                	mv	s1,a1
   1138c:	4405                	li	s0,1
   1138e:	51c10513          	addi	a0,sp,1308
   11392:	00006097          	auipc	ra,0x6
   11396:	10a080e7          	jalr	266(ra) # 1749c <_ZN9allow_pin12full_dynamic17unshare_if_shared17ha9c848d8c301b74dE>
   1139a:	58010513          	addi	a0,sp,1408
   1139e:	00006097          	auipc	ra,0x6
   113a2:	0fe080e7          	jalr	254(ra) # 1749c <_ZN9allow_pin12full_dynamic17unshare_if_shared17ha9c848d8c301b74dE>
   113a6:	c019                	beqz	s0,113ac <_start+0x22e>
   113a8:	7cf0506f          	j	17376 <_start+0x61f8>
   113ac:	00006297          	auipc	t0,0x6
   113b0:	320282e7          	jalr	t0,800(t0) # 176cc <OUTLINED_FUNCTION_12>
   113b4:	4645                	li	a2,17
   113b6:	00006097          	auipc	ra,0x6
   113ba:	514080e7          	jalr	1300(ra) # 178ca <memcpy>
   113be:	2af10513          	addi	a0,sp,687
   113c2:	048c                	addi	a1,sp,576
   113c4:	4645                	li	a2,17
   113c6:	00006097          	auipc	ra,0x6
   113ca:	504080e7          	jalr	1284(ra) # 178ca <memcpy>
   113ce:	00006297          	auipc	t0,0x6
   113d2:	206282e7          	jalr	t0,518(t0) # 175d4 <OUTLINED_FUNCTION_6>
   113d6:	03600613          	li	a2,54
   113da:	854e                	mv	a0,s3
   113dc:	4581                	li	a1,0
   113de:	00006097          	auipc	ra,0x6
   113e2:	480080e7          	jalr	1152(ra) # 1785e <memset>
   113e6:	58810423          	sb	s0,1416(sp)
   113ea:	0d68                	addi	a0,sp,668
   113ec:	45e1                	li	a1,24
   113ee:	4611                	li	a2,4
   113f0:	21f00693          	li	a3,543
   113f4:	4701                	li	a4,0
   113f6:	00000097          	auipc	ra,0x0
   113fa:	d3e080e7          	jalr	-706(ra) # 11134 <_ZN9allow_pin12full_dynamic15Buffer$LT$B$GT$5allow17hb1627d2b206e9fb0E>
   113fe:	8905                	andi	a0,a0,1
   11400:	e91d                	bnez	a0,11436 <_start+0x2b8>
   11402:	58010513          	addi	a0,sp,1408
   11406:	03600593          	li	a1,54
   1140a:	460d                	li	a2,3
   1140c:	21f00693          	li	a3,543
   11410:	471d                	li	a4,7
   11412:	00000097          	auipc	ra,0x0
   11416:	d22080e7          	jalr	-734(ra) # 11134 <_ZN9allow_pin12full_dynamic15Buffer$LT$B$GT$5allow17hb1627d2b206e9fb0E>
   1141a:	8905                	andi	a0,a0,1
   1141c:	ed09                	bnez	a0,11436 <_start+0x2b8>
   1141e:	21f00513          	li	a0,543
   11422:	461d                	li	a2,7
   11424:	4581                	li	a1,0
   11426:	00000097          	auipc	ra,0x0
   1142a:	d4a080e7          	jalr	-694(ra) # 11170 <_ZN9allow_pin7command17hdfcb5c5f4a3821c8E>
   1142e:	8905                	andi	a0,a0,1
   11430:	e119                	bnez	a0,11436 <_start+0x2b8>
   11432:	3620206f          	j	13794 <_start+0x2616>
   11436:	84ae                	mv	s1,a1
   11438:	4405                	li	s0,1
   1143a:	58010513          	addi	a0,sp,1408
   1143e:	00006097          	auipc	ra,0x6
   11442:	05e080e7          	jalr	94(ra) # 1749c <_ZN9allow_pin12full_dynamic17unshare_if_shared17ha9c848d8c301b74dE>
   11446:	0d68                	addi	a0,sp,668
   11448:	00006097          	auipc	ra,0x6
   1144c:	054080e7          	jalr	84(ra) # 1749c <_ZN9allow_pin12full_dynamic17unshare_if_shared17ha9c848d8c301b74dE>
   11450:	c019                	beqz	s0,11456 <_start+0x2d8>
   11452:	7250506f          	j	17376 <_start+0x61f8>
   11456:	00006297          	auipc	t0,0x6
   1145a:	232282e7          	jalr	t0,562(t0) # 17688 <OUTLINED_FUNCTION_9>
   1145e:	02f00613          	li	a2,47
   11462:	00006097          	auipc	ra,0x6
   11466:	468080e7          	jalr	1128(ra) # 178ca <memcpy>
   1146a:	59310513          	addi	a0,sp,1427
   1146e:	51c10593          	addi	a1,sp,1308
   11472:	02f00613          	li	a2,47
   11476:	00006097          	auipc	ra,0x6
   1147a:	454080e7          	jalr	1108(ra) # 178ca <memcpy>
   1147e:	00006297          	auipc	t0,0x6
   11482:	10e282e7          	jalr	t0,270(t0) # 1758c <OUTLINED_FUNCTION_4>
   11486:	02500613          	li	a2,37
   1148a:	854a                	mv	a0,s2
   1148c:	4581                	li	a1,0
   1148e:	00006097          	auipc	ra,0x6
   11492:	3d0080e7          	jalr	976(ra) # 1785e <memset>
   11496:	00006297          	auipc	t0,0x6
   1149a:	356282e7          	jalr	t0,854(t0) # 177ec <OUTLINED_FUNCTION_21>
   1149e:	03600593          	li	a1,54
   114a2:	4611                	li	a2,4
   114a4:	59768413          	addi	s0,a3,1431
   114a8:	471d                	li	a4,7
   114aa:	86a2                	mv	a3,s0
   114ac:	00000097          	auipc	ra,0x0
   114b0:	c88080e7          	jalr	-888(ra) # 11134 <_ZN9allow_pin12full_dynamic15Buffer$LT$B$GT$5allow17hb1627d2b206e9fb0E>
   114b4:	8905                	andi	a0,a0,1
   114b6:	e91d                	bnez	a0,114ec <_start+0x36e>
   114b8:	51c10513          	addi	a0,sp,1308
   114bc:	02500593          	li	a1,37
   114c0:	460d                	li	a2,3
   114c2:	86a2                	mv	a3,s0
   114c4:	4701                	li	a4,0
   114c6:	00000097          	auipc	ra,0x0
   114ca:	c6e080e7          	jalr	-914(ra) # 11134 <_ZN9allow_pin12full_dynamic15Buffer$LT$B$GT$5allow17hb1627d2b206e9fb0E>
   114ce:	8905                	andi	a0,a0,1
   114d0:	ed11                	bnez	a0,114ec <_start+0x36e>
   114d2:	6505                	lui	a0,0x1
   114d4:	59750513          	addi	a0,a0,1431 # 1597 <.Lline_table_start1+0x136c>
   114d8:	459d                	li	a1,7
   114da:	4601                	li	a2,0
   114dc:	00000097          	auipc	ra,0x0
   114e0:	c94080e7          	jalr	-876(ra) # 11170 <_ZN9allow_pin7command17hdfcb5c5f4a3821c8E>
   114e4:	8905                	andi	a0,a0,1
   114e6:	e119                	bnez	a0,114ec <_start+0x36e>
   114e8:	2ea0206f          	j	137d2 <_start+0x2654>
   114ec:	84ae                	mv	s1,a1
   114ee:	4405                	li	s0,1
   114f0:	51c10513          	addi	a0,sp,1308
   114f4:	00006097          	auipc	ra,0x6
   114f8:	fa8080e7          	jalr	-88(ra) # 1749c <_ZN9allow_pin12full_dynamic17unshare_if_shared17ha9c848d8c301b74dE>
   114fc:	58010513          	addi	a0,sp,1408
   11500:	00006097          	auipc	ra,0x6
   11504:	f9c080e7          	jalr	-100(ra) # 1749c <_ZN9allow_pin12full_dynamic17unshare_if_shared17ha9c848d8c301b74dE>
   11508:	c019                	beqz	s0,1150e <_start+0x390>
   1150a:	66d0506f          	j	17376 <_start+0x61f8>
   1150e:	00006297          	auipc	t0,0x6
   11512:	192282e7          	jalr	t0,402(t0) # 176a0 <OUTLINED_FUNCTION_10>
   11516:	4679                	li	a2,30
   11518:	00006097          	auipc	ra,0x6
   1151c:	3b2080e7          	jalr	946(ra) # 178ca <memcpy>
   11520:	59310513          	addi	a0,sp,1427
   11524:	048c                	addi	a1,sp,576
   11526:	4679                	li	a2,30
   11528:	00006097          	auipc	ra,0x6
   1152c:	3a2080e7          	jalr	930(ra) # 178ca <memcpy>
   11530:	4509                	li	a0,2
   11532:	0184d593          	srli	a1,s1,0x18
   11536:	0104d613          	srli	a2,s1,0x10
   1153a:	58b10923          	sb	a1,1426(sp)
   1153e:	0084d593          	srli	a1,s1,0x8
   11542:	52011a23          	sh	zero,1332(sp)
   11546:	00006297          	auipc	t0,0x6
   1154a:	2f4282e7          	jalr	t0,756(t0) # 1783a <OUTLINED_FUNCTION_26>
   1154e:	50010513          	addi	a0,sp,1280
   11552:	02052423          	sw	zero,40(a0)
   11556:	4581                	li	a1,0
   11558:	d54c                	sw	a1,44(a0)
   1155a:	d90c                	sw	a1,48(a0)
   1155c:	58010513          	addi	a0,sp,1408
   11560:	02500593          	li	a1,37
   11564:	4611                	li	a2,4
   11566:	66700693          	li	a3,1639
   1156a:	4709                	li	a4,2
   1156c:	00000097          	auipc	ra,0x0
   11570:	bc8080e7          	jalr	-1080(ra) # 11134 <_ZN9allow_pin12full_dynamic15Buffer$LT$B$GT$5allow17hb1627d2b206e9fb0E>
   11574:	8905                	andi	a0,a0,1
   11576:	e915                	bnez	a0,115aa <_start+0x42c>
   11578:	51c10513          	addi	a0,sp,1308
   1157c:	45b9                	li	a1,14
   1157e:	460d                	li	a2,3
   11580:	66700693          	li	a3,1639
   11584:	4721                	li	a4,8
   11586:	00000097          	auipc	ra,0x0
   1158a:	bae080e7          	jalr	-1106(ra) # 11134 <_ZN9allow_pin12full_dynamic15Buffer$LT$B$GT$5allow17hb1627d2b206e9fb0E>
   1158e:	8905                	andi	a0,a0,1
   11590:	ed09                	bnez	a0,115aa <_start+0x42c>
   11592:	66700513          	li	a0,1639
   11596:	4589                	li	a1,2
   11598:	4621                	li	a2,8
   1159a:	00000097          	auipc	ra,0x0
   1159e:	bd6080e7          	jalr	-1066(ra) # 11170 <_ZN9allow_pin7command17hdfcb5c5f4a3821c8E>
   115a2:	8905                	andi	a0,a0,1
   115a4:	e119                	bnez	a0,115aa <_start+0x42c>
   115a6:	2680206f          	j	1380e <_start+0x2690>
   115aa:	84ae                	mv	s1,a1
   115ac:	4405                	li	s0,1
   115ae:	51c10513          	addi	a0,sp,1308
   115b2:	00006097          	auipc	ra,0x6
   115b6:	eea080e7          	jalr	-278(ra) # 1749c <_ZN9allow_pin12full_dynamic17unshare_if_shared17ha9c848d8c301b74dE>
   115ba:	58010513          	addi	a0,sp,1408
   115be:	00006097          	auipc	ra,0x6
   115c2:	ede080e7          	jalr	-290(ra) # 1749c <_ZN9allow_pin12full_dynamic17unshare_if_shared17ha9c848d8c301b74dE>
   115c6:	c019                	beqz	s0,115cc <_start+0x44e>
   115c8:	5af0506f          	j	17376 <_start+0x61f8>
   115cc:	4a811503          	lh	a0,1192(sp)
   115d0:	4aa14583          	lbu	a1,1194(sp)
   115d4:	34412603          	lw	a2,836(sp)
   115d8:	34811683          	lh	a3,840(sp)
   115dc:	34a14703          	lbu	a4,842(sp)
   115e0:	2aa11423          	sh	a0,680(sp)
   115e4:	2ab10523          	sb	a1,682(sp)
   115e8:	24c12023          	sw	a2,576(sp)
   115ec:	24d11223          	sh	a3,580(sp)
   115f0:	24e10323          	sb	a4,582(sp)
   115f4:	2af10513          	addi	a0,sp,687
   115f8:	048c                	addi	a1,sp,576
   115fa:	461d                	li	a2,7
   115fc:	00006097          	auipc	ra,0x6
   11600:	2ce080e7          	jalr	718(ra) # 178ca <memcpy>
   11604:	00006297          	auipc	t0,0x6
   11608:	fd0282e7          	jalr	t0,-48(t0) # 175d4 <OUTLINED_FUNCTION_6>
   1160c:	04800613          	li	a2,72
   11610:	854e                	mv	a0,s3
   11612:	4581                	li	a1,0
   11614:	00006097          	auipc	ra,0x6
   11618:	24a080e7          	jalr	586(ra) # 1785e <memset>
   1161c:	58810423          	sb	s0,1416(sp)
   11620:	6685                	lui	a3,0x1
   11622:	0d68                	addi	a0,sp,668
   11624:	45b9                	li	a1,14
   11626:	4611                	li	a2,4
   11628:	2d168413          	addi	s0,a3,721 # 12d1 <.Lline_table_start1+0x10a6>
   1162c:	470d                	li	a4,3
   1162e:	86a2                	mv	a3,s0
   11630:	00000097          	auipc	ra,0x0
   11634:	b04080e7          	jalr	-1276(ra) # 11134 <_ZN9allow_pin12full_dynamic15Buffer$LT$B$GT$5allow17hb1627d2b206e9fb0E>
   11638:	8905                	andi	a0,a0,1
   1163a:	e91d                	bnez	a0,11670 <_start+0x4f2>
   1163c:	58010513          	addi	a0,sp,1408
   11640:	04800593          	li	a1,72
   11644:	460d                	li	a2,3
   11646:	4721                	li	a4,8
   11648:	86a2                	mv	a3,s0
   1164a:	00000097          	auipc	ra,0x0
   1164e:	aea080e7          	jalr	-1302(ra) # 11134 <_ZN9allow_pin12full_dynamic15Buffer$LT$B$GT$5allow17hb1627d2b206e9fb0E>
   11652:	8905                	andi	a0,a0,1
   11654:	ed11                	bnez	a0,11670 <_start+0x4f2>
   11656:	6505                	lui	a0,0x1
   11658:	458d                	li	a1,3
   1165a:	2d150513          	addi	a0,a0,721 # 12d1 <.Lline_table_start1+0x10a6>
   1165e:	4621                	li	a2,8
   11660:	00000097          	auipc	ra,0x0
   11664:	b10080e7          	jalr	-1264(ra) # 11170 <_ZN9allow_pin7command17hdfcb5c5f4a3821c8E>
   11668:	8905                	andi	a0,a0,1
   1166a:	e119                	bnez	a0,11670 <_start+0x4f2>
   1166c:	2420206f          	j	138ae <_start+0x2730>
   11670:	84ae                	mv	s1,a1
   11672:	4405                	li	s0,1
   11674:	58010513          	addi	a0,sp,1408
   11678:	00006097          	auipc	ra,0x6
   1167c:	e24080e7          	jalr	-476(ra) # 1749c <_ZN9allow_pin12full_dynamic17unshare_if_shared17ha9c848d8c301b74dE>
   11680:	0d68                	addi	a0,sp,668
   11682:	00006097          	auipc	ra,0x6
   11686:	e1a080e7          	jalr	-486(ra) # 1749c <_ZN9allow_pin12full_dynamic17unshare_if_shared17ha9c848d8c301b74dE>
   1168a:	c019                	beqz	s0,11690 <_start+0x512>
   1168c:	4eb0506f          	j	17376 <_start+0x61f8>
   11690:	00006297          	auipc	t0,0x6
   11694:	ff8282e7          	jalr	t0,-8(t0) # 17688 <OUTLINED_FUNCTION_9>
   11698:	04100613          	li	a2,65
   1169c:	00006097          	auipc	ra,0x6
   116a0:	22e080e7          	jalr	558(ra) # 178ca <memcpy>
   116a4:	59310513          	addi	a0,sp,1427
   116a8:	51c10593          	addi	a1,sp,1308
   116ac:	04100613          	li	a2,65
   116b0:	00006097          	auipc	ra,0x6
   116b4:	21a080e7          	jalr	538(ra) # 178ca <memcpy>
   116b8:	00006297          	auipc	t0,0x6
   116bc:	ed4282e7          	jalr	t0,-300(t0) # 1758c <OUTLINED_FUNCTION_4>
   116c0:	463d                	li	a2,15
   116c2:	854a                	mv	a0,s2
   116c4:	4581                	li	a1,0
   116c6:	00006097          	auipc	ra,0x6
   116ca:	198080e7          	jalr	408(ra) # 1785e <memset>
   116ce:	00006297          	auipc	t0,0x6
   116d2:	11e282e7          	jalr	t0,286(t0) # 177ec <OUTLINED_FUNCTION_21>
   116d6:	04800593          	li	a1,72
   116da:	4611                	li	a2,4
   116dc:	11d68413          	addi	s0,a3,285
   116e0:	4721                	li	a4,8
   116e2:	86a2                	mv	a3,s0
   116e4:	00000097          	auipc	ra,0x0
   116e8:	a50080e7          	jalr	-1456(ra) # 11134 <_ZN9allow_pin12full_dynamic15Buffer$LT$B$GT$5allow17hb1627d2b206e9fb0E>
   116ec:	8905                	andi	a0,a0,1
   116ee:	e915                	bnez	a0,11722 <_start+0x5a4>
   116f0:	51c10513          	addi	a0,sp,1308
   116f4:	45bd                	li	a1,15
   116f6:	460d                	li	a2,3
   116f8:	4725                	li	a4,9
   116fa:	86a2                	mv	a3,s0
   116fc:	00000097          	auipc	ra,0x0
   11700:	a38080e7          	jalr	-1480(ra) # 11134 <_ZN9allow_pin12full_dynamic15Buffer$LT$B$GT$5allow17hb1627d2b206e9fb0E>
   11704:	8905                	andi	a0,a0,1
   11706:	ed11                	bnez	a0,11722 <_start+0x5a4>
   11708:	6505                	lui	a0,0x1
   1170a:	45a1                	li	a1,8
   1170c:	11d50513          	addi	a0,a0,285 # 111d <.Lline_table_start1+0xef2>
   11710:	4625                	li	a2,9
   11712:	00000097          	auipc	ra,0x0
   11716:	a5e080e7          	jalr	-1442(ra) # 11170 <_ZN9allow_pin7command17hdfcb5c5f4a3821c8E>
   1171a:	8905                	andi	a0,a0,1
   1171c:	e119                	bnez	a0,11722 <_start+0x5a4>
   1171e:	1ce0206f          	j	138ec <_start+0x276e>
   11722:	84ae                	mv	s1,a1
   11724:	4a05                	li	s4,1
   11726:	51c10513          	addi	a0,sp,1308
   1172a:	00006097          	auipc	ra,0x6
   1172e:	d72080e7          	jalr	-654(ra) # 1749c <_ZN9allow_pin12full_dynamic17unshare_if_shared17ha9c848d8c301b74dE>
   11732:	58010513          	addi	a0,sp,1408
   11736:	00006097          	auipc	ra,0x6
   1173a:	d66080e7          	jalr	-666(ra) # 1749c <_ZN9allow_pin12full_dynamic17unshare_if_shared17ha9c848d8c301b74dE>
   1173e:	000a0463          	beqz	s4,11746 <_start+0x5c8>
   11742:	4350506f          	j	17376 <_start+0x61f8>
   11746:	00006297          	auipc	t0,0x6
   1174a:	ed6282e7          	jalr	t0,-298(t0) # 1761c <OUTLINED_FUNCTION_8>
   1174e:	02500613          	li	a2,37
   11752:	854e                	mv	a0,s3
   11754:	4581                	li	a1,0
   11756:	00006097          	auipc	ra,0x6
   1175a:	108080e7          	jalr	264(ra) # 1785e <memset>
   1175e:	59410423          	sb	s4,1416(sp)
   11762:	51c10513          	addi	a0,sp,1308
   11766:	45bd                	li	a1,15
   11768:	4611                	li	a2,4
   1176a:	0a200693          	li	a3,162
   1176e:	4721                	li	a4,8
   11770:	00000097          	auipc	ra,0x0
   11774:	9c4080e7          	jalr	-1596(ra) # 11134 <_ZN9allow_pin12full_dynamic15Buffer$LT$B$GT$5allow17hb1627d2b206e9fb0E>
   11778:	8905                	andi	a0,a0,1
   1177a:	e91d                	bnez	a0,117b0 <_start+0x632>
   1177c:	58010513          	addi	a0,sp,1408
   11780:	02500593          	li	a1,37
   11784:	460d                	li	a2,3
   11786:	0a200693          	li	a3,162
   1178a:	4701                	li	a4,0
   1178c:	00000097          	auipc	ra,0x0
   11790:	9a8080e7          	jalr	-1624(ra) # 11134 <_ZN9allow_pin12full_dynamic15Buffer$LT$B$GT$5allow17hb1627d2b206e9fb0E>
   11794:	8905                	andi	a0,a0,1
   11796:	ed09                	bnez	a0,117b0 <_start+0x632>
   11798:	0a200513          	li	a0,162
   1179c:	45a1                	li	a1,8
   1179e:	4601                	li	a2,0
   117a0:	00000097          	auipc	ra,0x0
   117a4:	9d0080e7          	jalr	-1584(ra) # 11170 <_ZN9allow_pin7command17hdfcb5c5f4a3821c8E>
   117a8:	8905                	andi	a0,a0,1
   117aa:	e119                	bnez	a0,117b0 <_start+0x632>
   117ac:	1e40206f          	j	13990 <_start+0x2812>
   117b0:	84ae                	mv	s1,a1
   117b2:	4405                	li	s0,1
   117b4:	58010513          	addi	a0,sp,1408
   117b8:	00006097          	auipc	ra,0x6
   117bc:	ce4080e7          	jalr	-796(ra) # 1749c <_ZN9allow_pin12full_dynamic17unshare_if_shared17ha9c848d8c301b74dE>
   117c0:	51c10513          	addi	a0,sp,1308
   117c4:	00006097          	auipc	ra,0x6
   117c8:	cd8080e7          	jalr	-808(ra) # 1749c <_ZN9allow_pin12full_dynamic17unshare_if_shared17ha9c848d8c301b74dE>
   117cc:	c019                	beqz	s0,117d2 <_start+0x654>
   117ce:	3a90506f          	j	17376 <_start+0x61f8>
   117d2:	00006297          	auipc	t0,0x6
   117d6:	ee4282e7          	jalr	t0,-284(t0) # 176b6 <OUTLINED_FUNCTION_11>
   117da:	4679                	li	a2,30
   117dc:	00006097          	auipc	ra,0x6
   117e0:	0ee080e7          	jalr	238(ra) # 178ca <memcpy>
   117e4:	52f10513          	addi	a0,sp,1327
   117e8:	048c                	addi	a1,sp,576
   117ea:	4679                	li	a2,30
   117ec:	00006097          	auipc	ra,0x6
   117f0:	0de080e7          	jalr	222(ra) # 178ca <memcpy>
   117f4:	00006297          	auipc	t0,0x6
   117f8:	dbc282e7          	jalr	t0,-580(t0) # 175b0 <OUTLINED_FUNCTION_5>
   117fc:	02a00613          	li	a2,42
   11800:	854e                	mv	a0,s3
   11802:	4581                	li	a1,0
   11804:	00006097          	auipc	ra,0x6
   11808:	05a080e7          	jalr	90(ra) # 1785e <memset>
   1180c:	58810423          	sb	s0,1416(sp)
   11810:	6605                	lui	a2,0x1
   11812:	51c10513          	addi	a0,sp,1308
   11816:	02500593          	li	a1,37
   1181a:	93c60413          	addi	s0,a2,-1732 # 93c <.Lline_table_start1+0x711>
   1181e:	4611                	li	a2,4
   11820:	86a2                	mv	a3,s0
   11822:	4701                	li	a4,0
   11824:	00000097          	auipc	ra,0x0
   11828:	910080e7          	jalr	-1776(ra) # 11134 <_ZN9allow_pin12full_dynamic15Buffer$LT$B$GT$5allow17hb1627d2b206e9fb0E>
   1182c:	8905                	andi	a0,a0,1
   1182e:	e91d                	bnez	a0,11864 <_start+0x6e6>
   11830:	58010513          	addi	a0,sp,1408
   11834:	02a00593          	li	a1,42
   11838:	460d                	li	a2,3
   1183a:	470d                	li	a4,3
   1183c:	86a2                	mv	a3,s0
   1183e:	00000097          	auipc	ra,0x0
   11842:	8f6080e7          	jalr	-1802(ra) # 11134 <_ZN9allow_pin12full_dynamic15Buffer$LT$B$GT$5allow17hb1627d2b206e9fb0E>
   11846:	8905                	andi	a0,a0,1
   11848:	ed11                	bnez	a0,11864 <_start+0x6e6>
   1184a:	6505                	lui	a0,0x1
   1184c:	93c50513          	addi	a0,a0,-1732 # 93c <.Lline_table_start1+0x711>
   11850:	460d                	li	a2,3
   11852:	4581                	li	a1,0
   11854:	00000097          	auipc	ra,0x0
   11858:	91c080e7          	jalr	-1764(ra) # 11170 <_ZN9allow_pin7command17hdfcb5c5f4a3821c8E>
   1185c:	8905                	andi	a0,a0,1
   1185e:	e119                	bnez	a0,11864 <_start+0x6e6>
   11860:	16e0206f          	j	139ce <_start+0x2850>
   11864:	84ae                	mv	s1,a1
   11866:	4405                	li	s0,1
   11868:	58010513          	addi	a0,sp,1408
   1186c:	00006097          	auipc	ra,0x6
   11870:	c30080e7          	jalr	-976(ra) # 1749c <_ZN9allow_pin12full_dynamic17unshare_if_shared17ha9c848d8c301b74dE>
   11874:	51c10513          	addi	a0,sp,1308
   11878:	00006097          	auipc	ra,0x6
   1187c:	c24080e7          	jalr	-988(ra) # 1749c <_ZN9allow_pin12full_dynamic17unshare_if_shared17ha9c848d8c301b74dE>
   11880:	c019                	beqz	s0,11886 <_start+0x708>
   11882:	2f50506f          	j	17376 <_start+0x61f8>
   11886:	00006297          	auipc	t0,0x6
   1188a:	f50282e7          	jalr	t0,-176(t0) # 177d6 <OUTLINED_FUNCTION_20>
   1188e:	02300613          	li	a2,35
   11892:	00006097          	auipc	ra,0x6
   11896:	038080e7          	jalr	56(ra) # 178ca <memcpy>
   1189a:	25310513          	addi	a0,sp,595
   1189e:	0d6c                	addi	a1,sp,668
   118a0:	02300613          	li	a2,35
   118a4:	00006097          	auipc	ra,0x6
   118a8:	026080e7          	jalr	38(ra) # 178ca <memcpy>
   118ac:	00006297          	auipc	t0,0x6
   118b0:	d4c282e7          	jalr	t0,-692(t0) # 175f8 <OUTLINED_FUNCTION_7>
   118b4:	06300613          	li	a2,99
   118b8:	854e                	mv	a0,s3
   118ba:	4581                	li	a1,0
   118bc:	00006097          	auipc	ra,0x6
   118c0:	fa2080e7          	jalr	-94(ra) # 1785e <memset>
   118c4:	58810423          	sb	s0,1416(sp)
   118c8:	6689                	lui	a3,0x2
   118ca:	0488                	addi	a0,sp,576
   118cc:	02a00593          	li	a1,42
   118d0:	4611                	li	a2,4
   118d2:	c7c68413          	addi	s0,a3,-900 # 1c7c <.Lline_table_start1+0x1a51>
   118d6:	4711                	li	a4,4
   118d8:	86a2                	mv	a3,s0
   118da:	00000097          	auipc	ra,0x0
   118de:	85a080e7          	jalr	-1958(ra) # 11134 <_ZN9allow_pin12full_dynamic15Buffer$LT$B$GT$5allow17hb1627d2b206e9fb0E>
   118e2:	8905                	andi	a0,a0,1
   118e4:	e91d                	bnez	a0,1191a <_start+0x79c>
   118e6:	58010513          	addi	a0,sp,1408
   118ea:	06300593          	li	a1,99
   118ee:	460d                	li	a2,3
   118f0:	86a2                	mv	a3,s0
   118f2:	4701                	li	a4,0
   118f4:	00000097          	auipc	ra,0x0
   118f8:	840080e7          	jalr	-1984(ra) # 11134 <_ZN9allow_pin12full_dynamic15Buffer$LT$B$GT$5allow17hb1627d2b206e9fb0E>
   118fc:	8905                	andi	a0,a0,1
   118fe:	ed11                	bnez	a0,1191a <_start+0x79c>
   11900:	6509                	lui	a0,0x2
   11902:	c7c50513          	addi	a0,a0,-900 # 1c7c <.Lline_table_start1+0x1a51>
   11906:	4591                	li	a1,4
   11908:	4601                	li	a2,0
   1190a:	00000097          	auipc	ra,0x0
   1190e:	866080e7          	jalr	-1946(ra) # 11170 <_ZN9allow_pin7command17hdfcb5c5f4a3821c8E>
   11912:	8905                	andi	a0,a0,1
   11914:	e119                	bnez	a0,1191a <_start+0x79c>
   11916:	0fe0206f          	j	13a14 <_start+0x2896>
   1191a:	84ae                	mv	s1,a1
   1191c:	4405                	li	s0,1
   1191e:	58010513          	addi	a0,sp,1408
   11922:	00006097          	auipc	ra,0x6
   11926:	b7a080e7          	jalr	-1158(ra) # 1749c <_ZN9allow_pin12full_dynamic17unshare_if_shared17ha9c848d8c301b74dE>
   1192a:	0488                	addi	a0,sp,576
   1192c:	00006097          	auipc	ra,0x6
   11930:	b70080e7          	jalr	-1168(ra) # 1749c <_ZN9allow_pin12full_dynamic17unshare_if_shared17ha9c848d8c301b74dE>
   11934:	c019                	beqz	s0,1193a <_start+0x7bc>
   11936:	2410506f          	j	17376 <_start+0x61f8>
   1193a:	00006297          	auipc	t0,0x6
   1193e:	dd2282e7          	jalr	t0,-558(t0) # 1770c <OUTLINED_FUNCTION_15>
   11942:	0048                	addi	a0,sp,4
   11944:	51c10593          	addi	a1,sp,1308
   11948:	05c00613          	li	a2,92
   1194c:	00006097          	auipc	ra,0x6
   11950:	f7e080e7          	jalr	-130(ra) # 178ca <memcpy>
   11954:	00006297          	auipc	t0,0x6
   11958:	c38282e7          	jalr	t0,-968(t0) # 1758c <OUTLINED_FUNCTION_4>
   1195c:	59310513          	addi	a0,sp,1427
   11960:	004c                	addi	a1,sp,4
   11962:	05c00613          	li	a2,92
   11966:	00006097          	auipc	ra,0x6
   1196a:	f64080e7          	jalr	-156(ra) # 178ca <memcpy>
   1196e:	02700613          	li	a2,39
   11972:	854a                	mv	a0,s2
   11974:	4581                	li	a1,0
   11976:	00006097          	auipc	ra,0x6
   1197a:	ee8080e7          	jalr	-280(ra) # 1785e <memset>
   1197e:	00006297          	auipc	t0,0x6
   11982:	e7a282e7          	jalr	t0,-390(t0) # 177f8 <OUTLINED_FUNCTION_22>
   11986:	06300593          	li	a1,99
   1198a:	4611                	li	a2,4
   1198c:	e5468413          	addi	s0,a3,-428
   11990:	471d                	li	a4,7
   11992:	86a2                	mv	a3,s0
   11994:	fffff097          	auipc	ra,0xfffff
   11998:	7a0080e7          	jalr	1952(ra) # 11134 <_ZN9allow_pin12full_dynamic15Buffer$LT$B$GT$5allow17hb1627d2b206e9fb0E>
   1199c:	8905                	andi	a0,a0,1
   1199e:	e91d                	bnez	a0,119d4 <_start+0x856>
   119a0:	51c10513          	addi	a0,sp,1308
   119a4:	02700593          	li	a1,39
   119a8:	460d                	li	a2,3
   119aa:	86a2                	mv	a3,s0
   119ac:	4701                	li	a4,0
   119ae:	fffff097          	auipc	ra,0xfffff
   119b2:	786080e7          	jalr	1926(ra) # 11134 <_ZN9allow_pin12full_dynamic15Buffer$LT$B$GT$5allow17hb1627d2b206e9fb0E>
   119b6:	8905                	andi	a0,a0,1
   119b8:	ed11                	bnez	a0,119d4 <_start+0x856>
   119ba:	6509                	lui	a0,0x2
   119bc:	e5450513          	addi	a0,a0,-428 # 1e54 <.Lline_table_start1+0x1c29>
   119c0:	459d                	li	a1,7
   119c2:	4601                	li	a2,0
   119c4:	fffff097          	auipc	ra,0xfffff
   119c8:	7ac080e7          	jalr	1964(ra) # 11170 <_ZN9allow_pin7command17hdfcb5c5f4a3821c8E>
   119cc:	8905                	andi	a0,a0,1
   119ce:	e119                	bnez	a0,119d4 <_start+0x856>
   119d0:	0880206f          	j	13a58 <_start+0x28da>
   119d4:	84ae                	mv	s1,a1
   119d6:	4405                	li	s0,1
   119d8:	51c10513          	addi	a0,sp,1308
   119dc:	00006097          	auipc	ra,0x6
   119e0:	ac0080e7          	jalr	-1344(ra) # 1749c <_ZN9allow_pin12full_dynamic17unshare_if_shared17ha9c848d8c301b74dE>
   119e4:	58010513          	addi	a0,sp,1408
   119e8:	00006097          	auipc	ra,0x6
   119ec:	ab4080e7          	jalr	-1356(ra) # 1749c <_ZN9allow_pin12full_dynamic17unshare_if_shared17ha9c848d8c301b74dE>
   119f0:	c019                	beqz	s0,119f6 <_start+0x878>
   119f2:	1850506f          	j	17376 <_start+0x61f8>
   119f6:	00006297          	auipc	t0,0x6
   119fa:	d16282e7          	jalr	t0,-746(t0) # 1770c <OUTLINED_FUNCTION_15>
   119fe:	1088                	addi	a0,sp,96
   11a00:	048c                	addi	a1,sp,576
   11a02:	02000613          	li	a2,32
   11a06:	00006097          	auipc	ra,0x6
   11a0a:	ec4080e7          	jalr	-316(ra) # 178ca <memcpy>
   11a0e:	00006297          	auipc	t0,0x6
   11a12:	b7e282e7          	jalr	t0,-1154(t0) # 1758c <OUTLINED_FUNCTION_4>
   11a16:	59310513          	addi	a0,sp,1427
   11a1a:	108c                	addi	a1,sp,96
   11a1c:	02000613          	li	a2,32
   11a20:	00006097          	auipc	ra,0x6
   11a24:	eaa080e7          	jalr	-342(ra) # 178ca <memcpy>
   11a28:	4679                	li	a2,30
   11a2a:	854a                	mv	a0,s2
   11a2c:	4581                	li	a1,0
   11a2e:	00006097          	auipc	ra,0x6
   11a32:	e30080e7          	jalr	-464(ra) # 1785e <memset>
   11a36:	00006297          	auipc	t0,0x6
   11a3a:	db6282e7          	jalr	t0,-586(t0) # 177ec <OUTLINED_FUNCTION_21>
   11a3e:	02700593          	li	a1,39
   11a42:	4611                	li	a2,4
   11a44:	0e268413          	addi	s0,a3,226
   11a48:	470d                	li	a4,3
   11a4a:	86a2                	mv	a3,s0
   11a4c:	fffff097          	auipc	ra,0xfffff
   11a50:	6e8080e7          	jalr	1768(ra) # 11134 <_ZN9allow_pin12full_dynamic15Buffer$LT$B$GT$5allow17hb1627d2b206e9fb0E>
   11a54:	8905                	andi	a0,a0,1
   11a56:	e915                	bnez	a0,11a8a <_start+0x90c>
   11a58:	51c10513          	addi	a0,sp,1308
   11a5c:	45f9                	li	a1,30
   11a5e:	460d                	li	a2,3
   11a60:	470d                	li	a4,3
   11a62:	86a2                	mv	a3,s0
   11a64:	fffff097          	auipc	ra,0xfffff
   11a68:	6d0080e7          	jalr	1744(ra) # 11134 <_ZN9allow_pin12full_dynamic15Buffer$LT$B$GT$5allow17hb1627d2b206e9fb0E>
   11a6c:	8905                	andi	a0,a0,1
   11a6e:	ed11                	bnez	a0,11a8a <_start+0x90c>
   11a70:	6505                	lui	a0,0x1
   11a72:	458d                	li	a1,3
   11a74:	0e250513          	addi	a0,a0,226 # 10e2 <.Lline_table_start1+0xeb7>
   11a78:	460d                	li	a2,3
   11a7a:	fffff097          	auipc	ra,0xfffff
   11a7e:	6f6080e7          	jalr	1782(ra) # 11170 <_ZN9allow_pin7command17hdfcb5c5f4a3821c8E>
   11a82:	8905                	andi	a0,a0,1
   11a84:	e119                	bnez	a0,11a8a <_start+0x90c>
   11a86:	0180206f          	j	13a9e <_start+0x2920>
   11a8a:	84ae                	mv	s1,a1
   11a8c:	4405                	li	s0,1
   11a8e:	51c10513          	addi	a0,sp,1308
   11a92:	00006097          	auipc	ra,0x6
   11a96:	a0a080e7          	jalr	-1526(ra) # 1749c <_ZN9allow_pin12full_dynamic17unshare_if_shared17ha9c848d8c301b74dE>
   11a9a:	58010513          	addi	a0,sp,1408
   11a9e:	00006097          	auipc	ra,0x6
   11aa2:	9fe080e7          	jalr	-1538(ra) # 1749c <_ZN9allow_pin12full_dynamic17unshare_if_shared17ha9c848d8c301b74dE>
   11aa6:	c019                	beqz	s0,11aac <_start+0x92e>
   11aa8:	0cf0506f          	j	17376 <_start+0x61f8>
   11aac:	00006297          	auipc	t0,0x6
   11ab0:	c0a282e7          	jalr	t0,-1014(t0) # 176b6 <OUTLINED_FUNCTION_11>
   11ab4:	465d                	li	a2,23
   11ab6:	00006097          	auipc	ra,0x6
   11aba:	e14080e7          	jalr	-492(ra) # 178ca <memcpy>
   11abe:	52f10513          	addi	a0,sp,1327
   11ac2:	048c                	addi	a1,sp,576
   11ac4:	465d                	li	a2,23
   11ac6:	00006097          	auipc	ra,0x6
   11aca:	e04080e7          	jalr	-508(ra) # 178ca <memcpy>
   11ace:	00006297          	auipc	t0,0x6
   11ad2:	ae2282e7          	jalr	t0,-1310(t0) # 175b0 <OUTLINED_FUNCTION_5>
   11ad6:	02c00613          	li	a2,44
   11ada:	854e                	mv	a0,s3
   11adc:	4581                	li	a1,0
   11ade:	00006097          	auipc	ra,0x6
   11ae2:	d80080e7          	jalr	-640(ra) # 1785e <memset>
   11ae6:	58810423          	sb	s0,1416(sp)
   11aea:	51c10513          	addi	a0,sp,1308
   11aee:	45f9                	li	a1,30
   11af0:	4611                	li	a2,4
   11af2:	3fb00693          	li	a3,1019
   11af6:	471d                	li	a4,7
   11af8:	fffff097          	auipc	ra,0xfffff
   11afc:	63c080e7          	jalr	1596(ra) # 11134 <_ZN9allow_pin12full_dynamic15Buffer$LT$B$GT$5allow17hb1627d2b206e9fb0E>
   11b00:	8905                	andi	a0,a0,1
   11b02:	e91d                	bnez	a0,11b38 <_start+0x9ba>
   11b04:	58010513          	addi	a0,sp,1408
   11b08:	02c00593          	li	a1,44
   11b0c:	460d                	li	a2,3
   11b0e:	3fb00693          	li	a3,1019
   11b12:	4701                	li	a4,0
   11b14:	fffff097          	auipc	ra,0xfffff
   11b18:	620080e7          	jalr	1568(ra) # 11134 <_ZN9allow_pin12full_dynamic15Buffer$LT$B$GT$5allow17hb1627d2b206e9fb0E>
   11b1c:	8905                	andi	a0,a0,1
   11b1e:	ed09                	bnez	a0,11b38 <_start+0x9ba>
   11b20:	3fb00513          	li	a0,1019
   11b24:	459d                	li	a1,7
   11b26:	4601                	li	a2,0
   11b28:	fffff097          	auipc	ra,0xfffff
   11b2c:	648080e7          	jalr	1608(ra) # 11170 <_ZN9allow_pin7command17hdfcb5c5f4a3821c8E>
   11b30:	8905                	andi	a0,a0,1
   11b32:	e119                	bnez	a0,11b38 <_start+0x9ba>
   11b34:	7a70106f          	j	13ada <_start+0x295c>
   11b38:	84ae                	mv	s1,a1
   11b3a:	4405                	li	s0,1
   11b3c:	58010513          	addi	a0,sp,1408
   11b40:	00006097          	auipc	ra,0x6
   11b44:	95c080e7          	jalr	-1700(ra) # 1749c <_ZN9allow_pin12full_dynamic17unshare_if_shared17ha9c848d8c301b74dE>
   11b48:	51c10513          	addi	a0,sp,1308
   11b4c:	00006097          	auipc	ra,0x6
   11b50:	950080e7          	jalr	-1712(ra) # 1749c <_ZN9allow_pin12full_dynamic17unshare_if_shared17ha9c848d8c301b74dE>
   11b54:	c019                	beqz	s0,11b5a <_start+0x9dc>
   11b56:	0210506f          	j	17376 <_start+0x61f8>
   11b5a:	00006297          	auipc	t0,0x6
   11b5e:	b46282e7          	jalr	t0,-1210(t0) # 176a0 <OUTLINED_FUNCTION_10>
   11b62:	02500613          	li	a2,37
   11b66:	00006097          	auipc	ra,0x6
   11b6a:	d64080e7          	jalr	-668(ra) # 178ca <memcpy>
   11b6e:	59310513          	addi	a0,sp,1427
   11b72:	048c                	addi	a1,sp,576
   11b74:	02500613          	li	a2,37
   11b78:	00006097          	auipc	ra,0x6
   11b7c:	d52080e7          	jalr	-686(ra) # 178ca <memcpy>
   11b80:	00006297          	auipc	t0,0x6
   11b84:	a0c282e7          	jalr	t0,-1524(t0) # 1758c <OUTLINED_FUNCTION_4>
   11b88:	02500613          	li	a2,37
   11b8c:	854a                	mv	a0,s2
   11b8e:	4581                	li	a1,0
   11b90:	00006097          	auipc	ra,0x6
   11b94:	cce080e7          	jalr	-818(ra) # 1785e <memset>
   11b98:	52810223          	sb	s0,1316(sp)
   11b9c:	58010513          	addi	a0,sp,1408
   11ba0:	02c00593          	li	a1,44
   11ba4:	4611                	li	a2,4
   11ba6:	77f00693          	li	a3,1919
   11baa:	470d                	li	a4,3
   11bac:	fffff097          	auipc	ra,0xfffff
   11bb0:	588080e7          	jalr	1416(ra) # 11134 <_ZN9allow_pin12full_dynamic15Buffer$LT$B$GT$5allow17hb1627d2b206e9fb0E>
   11bb4:	8905                	andi	a0,a0,1
   11bb6:	e91d                	bnez	a0,11bec <_start+0xa6e>
   11bb8:	51c10513          	addi	a0,sp,1308
   11bbc:	02500593          	li	a1,37
   11bc0:	460d                	li	a2,3
   11bc2:	77f00693          	li	a3,1919
   11bc6:	4701                	li	a4,0
   11bc8:	fffff097          	auipc	ra,0xfffff
   11bcc:	56c080e7          	jalr	1388(ra) # 11134 <_ZN9allow_pin12full_dynamic15Buffer$LT$B$GT$5allow17hb1627d2b206e9fb0E>
   11bd0:	8905                	andi	a0,a0,1
   11bd2:	ed09                	bnez	a0,11bec <_start+0xa6e>
   11bd4:	77f00513          	li	a0,1919
   11bd8:	458d                	li	a1,3
   11bda:	4601                	li	a2,0
   11bdc:	fffff097          	auipc	ra,0xfffff
   11be0:	594080e7          	jalr	1428(ra) # 11170 <_ZN9allow_pin7command17hdfcb5c5f4a3821c8E>
   11be4:	8905                	andi	a0,a0,1
   11be6:	e119                	bnez	a0,11bec <_start+0xa6e>
   11be8:	7330106f          	j	13b1a <_start+0x299c>
   11bec:	84ae                	mv	s1,a1
   11bee:	4405                	li	s0,1
   11bf0:	51c10513          	addi	a0,sp,1308
   11bf4:	00006097          	auipc	ra,0x6
   11bf8:	8a8080e7          	jalr	-1880(ra) # 1749c <_ZN9allow_pin12full_dynamic17unshare_if_shared17ha9c848d8c301b74dE>
   11bfc:	58010513          	addi	a0,sp,1408
   11c00:	00006097          	auipc	ra,0x6
   11c04:	89c080e7          	jalr	-1892(ra) # 1749c <_ZN9allow_pin12full_dynamic17unshare_if_shared17ha9c848d8c301b74dE>
   11c08:	c019                	beqz	s0,11c0e <_start+0xa90>
   11c0a:	76c0506f          	j	17376 <_start+0x61f8>
   11c0e:	00006297          	auipc	t0,0x6
   11c12:	a92282e7          	jalr	t0,-1390(t0) # 176a0 <OUTLINED_FUNCTION_10>
   11c16:	4679                	li	a2,30
   11c18:	00006097          	auipc	ra,0x6
   11c1c:	cb2080e7          	jalr	-846(ra) # 178ca <memcpy>
   11c20:	59310513          	addi	a0,sp,1427
   11c24:	048c                	addi	a1,sp,576
   11c26:	4679                	li	a2,30
   11c28:	00006097          	auipc	ra,0x6
   11c2c:	ca2080e7          	jalr	-862(ra) # 178ca <memcpy>
   11c30:	00006297          	auipc	t0,0x6
   11c34:	95c282e7          	jalr	t0,-1700(t0) # 1758c <OUTLINED_FUNCTION_4>
   11c38:	4661                	li	a2,24
   11c3a:	854a                	mv	a0,s2
   11c3c:	4581                	li	a1,0
   11c3e:	00006097          	auipc	ra,0x6
   11c42:	c20080e7          	jalr	-992(ra) # 1785e <memset>
   11c46:	00006297          	auipc	t0,0x6
   11c4a:	ba6282e7          	jalr	t0,-1114(t0) # 177ec <OUTLINED_FUNCTION_21>
   11c4e:	02500593          	li	a1,37
   11c52:	4611                	li	a2,4
   11c54:	a7068413          	addi	s0,a3,-1424
   11c58:	4725                	li	a4,9
   11c5a:	86a2                	mv	a3,s0
   11c5c:	fffff097          	auipc	ra,0xfffff
   11c60:	4d8080e7          	jalr	1240(ra) # 11134 <_ZN9allow_pin12full_dynamic15Buffer$LT$B$GT$5allow17hb1627d2b206e9fb0E>
   11c64:	8905                	andi	a0,a0,1
   11c66:	e915                	bnez	a0,11c9a <_start+0xb1c>
   11c68:	51c10513          	addi	a0,sp,1308
   11c6c:	45e1                	li	a1,24
   11c6e:	460d                	li	a2,3
   11c70:	4721                	li	a4,8
   11c72:	86a2                	mv	a3,s0
   11c74:	fffff097          	auipc	ra,0xfffff
   11c78:	4c0080e7          	jalr	1216(ra) # 11134 <_ZN9allow_pin12full_dynamic15Buffer$LT$B$GT$5allow17hb1627d2b206e9fb0E>
   11c7c:	8905                	andi	a0,a0,1
   11c7e:	ed11                	bnez	a0,11c9a <_start+0xb1c>
   11c80:	6505                	lui	a0,0x1
   11c82:	45a5                	li	a1,9
   11c84:	a7050513          	addi	a0,a0,-1424 # a70 <.Lline_table_start1+0x845>
   11c88:	4621                	li	a2,8
   11c8a:	fffff097          	auipc	ra,0xfffff
   11c8e:	4e6080e7          	jalr	1254(ra) # 11170 <_ZN9allow_pin7command17hdfcb5c5f4a3821c8E>
   11c92:	8905                	andi	a0,a0,1
   11c94:	e119                	bnez	a0,11c9a <_start+0xb1c>
   11c96:	6c10106f          	j	13b56 <_start+0x29d8>
   11c9a:	84ae                	mv	s1,a1
   11c9c:	4405                	li	s0,1
   11c9e:	51c10513          	addi	a0,sp,1308
   11ca2:	00005097          	auipc	ra,0x5
   11ca6:	7fa080e7          	jalr	2042(ra) # 1749c <_ZN9allow_pin12full_dynamic17unshare_if_shared17ha9c848d8c301b74dE>
   11caa:	58010513          	addi	a0,sp,1408
   11cae:	00005097          	auipc	ra,0x5
   11cb2:	7ee080e7          	jalr	2030(ra) # 1749c <_ZN9allow_pin12full_dynamic17unshare_if_shared17ha9c848d8c301b74dE>
   11cb6:	c019                	beqz	s0,11cbc <_start+0xb3e>
   11cb8:	6be0506f          	j	17376 <_start+0x61f8>
   11cbc:	00006297          	auipc	t0,0x6
   11cc0:	a10282e7          	jalr	t0,-1520(t0) # 176cc <OUTLINED_FUNCTION_12>
   11cc4:	4645                	li	a2,17
   11cc6:	00006097          	auipc	ra,0x6
   11cca:	c04080e7          	jalr	-1020(ra) # 178ca <memcpy>
   11cce:	2af10513          	addi	a0,sp,687
   11cd2:	048c                	addi	a1,sp,576
   11cd4:	4645                	li	a2,17
   11cd6:	00006097          	auipc	ra,0x6
   11cda:	bf4080e7          	jalr	-1036(ra) # 178ca <memcpy>
   11cde:	00006297          	auipc	t0,0x6
   11ce2:	8f6282e7          	jalr	t0,-1802(t0) # 175d4 <OUTLINED_FUNCTION_6>
   11ce6:	03600613          	li	a2,54
   11cea:	854e                	mv	a0,s3
   11cec:	4581                	li	a1,0
   11cee:	00006097          	auipc	ra,0x6
   11cf2:	b70080e7          	jalr	-1168(ra) # 1785e <memset>
   11cf6:	58810423          	sb	s0,1416(sp)
   11cfa:	0d68                	addi	a0,sp,668
   11cfc:	45e1                	li	a1,24
   11cfe:	4611                	li	a2,4
   11d00:	0f300693          	li	a3,243
   11d04:	4721                	li	a4,8
   11d06:	fffff097          	auipc	ra,0xfffff
   11d0a:	42e080e7          	jalr	1070(ra) # 11134 <_ZN9allow_pin12full_dynamic15Buffer$LT$B$GT$5allow17hb1627d2b206e9fb0E>
   11d0e:	8905                	andi	a0,a0,1
   11d10:	e91d                	bnez	a0,11d46 <_start+0xbc8>
   11d12:	58010513          	addi	a0,sp,1408
   11d16:	03600593          	li	a1,54
   11d1a:	460d                	li	a2,3
   11d1c:	0f300693          	li	a3,243
   11d20:	4711                	li	a4,4
   11d22:	fffff097          	auipc	ra,0xfffff
   11d26:	412080e7          	jalr	1042(ra) # 11134 <_ZN9allow_pin12full_dynamic15Buffer$LT$B$GT$5allow17hb1627d2b206e9fb0E>
   11d2a:	8905                	andi	a0,a0,1
   11d2c:	ed09                	bnez	a0,11d46 <_start+0xbc8>
   11d2e:	0f300513          	li	a0,243
   11d32:	45a1                	li	a1,8
   11d34:	4611                	li	a2,4
   11d36:	fffff097          	auipc	ra,0xfffff
   11d3a:	43a080e7          	jalr	1082(ra) # 11170 <_ZN9allow_pin7command17hdfcb5c5f4a3821c8E>
   11d3e:	8905                	andi	a0,a0,1
   11d40:	e119                	bnez	a0,11d46 <_start+0xbc8>
   11d42:	6590106f          	j	13b9a <_start+0x2a1c>
   11d46:	84ae                	mv	s1,a1
   11d48:	4405                	li	s0,1
   11d4a:	58010513          	addi	a0,sp,1408
   11d4e:	00005097          	auipc	ra,0x5
   11d52:	74e080e7          	jalr	1870(ra) # 1749c <_ZN9allow_pin12full_dynamic17unshare_if_shared17ha9c848d8c301b74dE>
   11d56:	0d68                	addi	a0,sp,668
   11d58:	00005097          	auipc	ra,0x5
   11d5c:	744080e7          	jalr	1860(ra) # 1749c <_ZN9allow_pin12full_dynamic17unshare_if_shared17ha9c848d8c301b74dE>
   11d60:	c019                	beqz	s0,11d66 <_start+0xbe8>
   11d62:	6140506f          	j	17376 <_start+0x61f8>
   11d66:	00006297          	auipc	t0,0x6
   11d6a:	922282e7          	jalr	t0,-1758(t0) # 17688 <OUTLINED_FUNCTION_9>
   11d6e:	02f00613          	li	a2,47
   11d72:	00006097          	auipc	ra,0x6
   11d76:	b58080e7          	jalr	-1192(ra) # 178ca <memcpy>
   11d7a:	59310513          	addi	a0,sp,1427
   11d7e:	51c10593          	addi	a1,sp,1308
   11d82:	02f00613          	li	a2,47
   11d86:	00006097          	auipc	ra,0x6
   11d8a:	b44080e7          	jalr	-1212(ra) # 178ca <memcpy>
   11d8e:	00005297          	auipc	t0,0x5
   11d92:	7fe282e7          	jalr	t0,2046(t0) # 1758c <OUTLINED_FUNCTION_4>
   11d96:	03400613          	li	a2,52
   11d9a:	854a                	mv	a0,s2
   11d9c:	4581                	li	a1,0
   11d9e:	00006097          	auipc	ra,0x6
   11da2:	ac0080e7          	jalr	-1344(ra) # 1785e <memset>
   11da6:	00006297          	auipc	t0,0x6
   11daa:	a52282e7          	jalr	t0,-1454(t0) # 177f8 <OUTLINED_FUNCTION_22>
   11dae:	03600593          	li	a1,54
   11db2:	4611                	li	a2,4
   11db4:	3c668413          	addi	s0,a3,966
   11db8:	4711                	li	a4,4
   11dba:	86a2                	mv	a3,s0
   11dbc:	fffff097          	auipc	ra,0xfffff
   11dc0:	378080e7          	jalr	888(ra) # 11134 <_ZN9allow_pin12full_dynamic15Buffer$LT$B$GT$5allow17hb1627d2b206e9fb0E>
   11dc4:	8905                	andi	a0,a0,1
   11dc6:	e91d                	bnez	a0,11dfc <_start+0xc7e>
   11dc8:	51c10513          	addi	a0,sp,1308
   11dcc:	03400593          	li	a1,52
   11dd0:	460d                	li	a2,3
   11dd2:	4709                	li	a4,2
   11dd4:	86a2                	mv	a3,s0
   11dd6:	fffff097          	auipc	ra,0xfffff
   11dda:	35e080e7          	jalr	862(ra) # 11134 <_ZN9allow_pin12full_dynamic15Buffer$LT$B$GT$5allow17hb1627d2b206e9fb0E>
   11dde:	8905                	andi	a0,a0,1
   11de0:	ed11                	bnez	a0,11dfc <_start+0xc7e>
   11de2:	6509                	lui	a0,0x2
   11de4:	4591                	li	a1,4
   11de6:	3c650513          	addi	a0,a0,966 # 23c6 <.Lline_table_start1+0x219b>
   11dea:	4609                	li	a2,2
   11dec:	fffff097          	auipc	ra,0xfffff
   11df0:	384080e7          	jalr	900(ra) # 11170 <_ZN9allow_pin7command17hdfcb5c5f4a3821c8E>
   11df4:	8905                	andi	a0,a0,1
   11df6:	e119                	bnez	a0,11dfc <_start+0xc7e>
   11df8:	5e10106f          	j	13bd8 <_start+0x2a5a>
   11dfc:	84ae                	mv	s1,a1
   11dfe:	4405                	li	s0,1
   11e00:	51c10513          	addi	a0,sp,1308
   11e04:	00005097          	auipc	ra,0x5
   11e08:	698080e7          	jalr	1688(ra) # 1749c <_ZN9allow_pin12full_dynamic17unshare_if_shared17ha9c848d8c301b74dE>
   11e0c:	58010513          	addi	a0,sp,1408
   11e10:	00005097          	auipc	ra,0x5
   11e14:	68c080e7          	jalr	1676(ra) # 1749c <_ZN9allow_pin12full_dynamic17unshare_if_shared17ha9c848d8c301b74dE>
   11e18:	c019                	beqz	s0,11e1e <_start+0xca0>
   11e1a:	55c0506f          	j	17376 <_start+0x61f8>
   11e1e:	00006297          	auipc	t0,0x6
   11e22:	882282e7          	jalr	t0,-1918(t0) # 176a0 <OUTLINED_FUNCTION_10>
   11e26:	02d00613          	li	a2,45
   11e2a:	00006097          	auipc	ra,0x6
   11e2e:	aa0080e7          	jalr	-1376(ra) # 178ca <memcpy>
   11e32:	59310513          	addi	a0,sp,1427
   11e36:	048c                	addi	a1,sp,576
   11e38:	02d00613          	li	a2,45
   11e3c:	00006097          	auipc	ra,0x6
   11e40:	a8e080e7          	jalr	-1394(ra) # 178ca <memcpy>
   11e44:	00005297          	auipc	t0,0x5
   11e48:	748282e7          	jalr	t0,1864(t0) # 1758c <OUTLINED_FUNCTION_4>
   11e4c:	02e00613          	li	a2,46
   11e50:	854a                	mv	a0,s2
   11e52:	4581                	li	a1,0
   11e54:	00006097          	auipc	ra,0x6
   11e58:	a0a080e7          	jalr	-1526(ra) # 1785e <memset>
   11e5c:	52810223          	sb	s0,1316(sp)
   11e60:	58010513          	addi	a0,sp,1408
   11e64:	03400593          	li	a1,52
   11e68:	4611                	li	a2,4
   11e6a:	20900693          	li	a3,521
   11e6e:	4709                	li	a4,2
   11e70:	fffff097          	auipc	ra,0xfffff
   11e74:	2c4080e7          	jalr	708(ra) # 11134 <_ZN9allow_pin12full_dynamic15Buffer$LT$B$GT$5allow17hb1627d2b206e9fb0E>
   11e78:	8905                	andi	a0,a0,1
   11e7a:	e91d                	bnez	a0,11eb0 <_start+0xd32>
   11e7c:	51c10513          	addi	a0,sp,1308
   11e80:	02e00593          	li	a1,46
   11e84:	460d                	li	a2,3
   11e86:	20900693          	li	a3,521
   11e8a:	4721                	li	a4,8
   11e8c:	fffff097          	auipc	ra,0xfffff
   11e90:	2a8080e7          	jalr	680(ra) # 11134 <_ZN9allow_pin12full_dynamic15Buffer$LT$B$GT$5allow17hb1627d2b206e9fb0E>
   11e94:	8905                	andi	a0,a0,1
   11e96:	ed09                	bnez	a0,11eb0 <_start+0xd32>
   11e98:	20900513          	li	a0,521
   11e9c:	4589                	li	a1,2
   11e9e:	4621                	li	a2,8
   11ea0:	fffff097          	auipc	ra,0xfffff
   11ea4:	2d0080e7          	jalr	720(ra) # 11170 <_ZN9allow_pin7command17hdfcb5c5f4a3821c8E>
   11ea8:	8905                	andi	a0,a0,1
   11eaa:	e119                	bnez	a0,11eb0 <_start+0xd32>
   11eac:	56b0106f          	j	13c16 <_start+0x2a98>
   11eb0:	84ae                	mv	s1,a1
   11eb2:	4405                	li	s0,1
   11eb4:	51c10513          	addi	a0,sp,1308
   11eb8:	00005097          	auipc	ra,0x5
   11ebc:	5e4080e7          	jalr	1508(ra) # 1749c <_ZN9allow_pin12full_dynamic17unshare_if_shared17ha9c848d8c301b74dE>
   11ec0:	58010513          	addi	a0,sp,1408
   11ec4:	00005097          	auipc	ra,0x5
   11ec8:	5d8080e7          	jalr	1496(ra) # 1749c <_ZN9allow_pin12full_dynamic17unshare_if_shared17ha9c848d8c301b74dE>
   11ecc:	c019                	beqz	s0,11ed2 <_start+0xd54>
   11ece:	4a80506f          	j	17376 <_start+0x61f8>
   11ed2:	00005297          	auipc	t0,0x5
   11ed6:	7e4282e7          	jalr	t0,2020(t0) # 176b6 <OUTLINED_FUNCTION_11>
   11eda:	02700613          	li	a2,39
   11ede:	00006097          	auipc	ra,0x6
   11ee2:	9ec080e7          	jalr	-1556(ra) # 178ca <memcpy>
   11ee6:	52f10513          	addi	a0,sp,1327
   11eea:	048c                	addi	a1,sp,576
   11eec:	02700613          	li	a2,39
   11ef0:	00006097          	auipc	ra,0x6
   11ef4:	9da080e7          	jalr	-1574(ra) # 178ca <memcpy>
   11ef8:	00005297          	auipc	t0,0x5
   11efc:	6b8282e7          	jalr	t0,1720(t0) # 175b0 <OUTLINED_FUNCTION_5>
   11f00:	03800613          	li	a2,56
   11f04:	854e                	mv	a0,s3
   11f06:	4581                	li	a1,0
   11f08:	00006097          	auipc	ra,0x6
   11f0c:	956080e7          	jalr	-1706(ra) # 1785e <memset>
   11f10:	58810423          	sb	s0,1416(sp)
   11f14:	6685                	lui	a3,0x1
   11f16:	51c10513          	addi	a0,sp,1308
   11f1a:	02e00593          	li	a1,46
   11f1e:	4611                	li	a2,4
   11f20:	a9d68413          	addi	s0,a3,-1379 # a9d <.Lline_table_start1+0x872>
   11f24:	4725                	li	a4,9
   11f26:	86a2                	mv	a3,s0
   11f28:	fffff097          	auipc	ra,0xfffff
   11f2c:	20c080e7          	jalr	524(ra) # 11134 <_ZN9allow_pin12full_dynamic15Buffer$LT$B$GT$5allow17hb1627d2b206e9fb0E>
   11f30:	8905                	andi	a0,a0,1
   11f32:	e91d                	bnez	a0,11f68 <_start+0xdea>
   11f34:	58010513          	addi	a0,sp,1408
   11f38:	03800593          	li	a1,56
   11f3c:	460d                	li	a2,3
   11f3e:	4725                	li	a4,9
   11f40:	86a2                	mv	a3,s0
   11f42:	fffff097          	auipc	ra,0xfffff
   11f46:	1f2080e7          	jalr	498(ra) # 11134 <_ZN9allow_pin12full_dynamic15Buffer$LT$B$GT$5allow17hb1627d2b206e9fb0E>
   11f4a:	8905                	andi	a0,a0,1
   11f4c:	ed11                	bnez	a0,11f68 <_start+0xdea>
   11f4e:	6505                	lui	a0,0x1
   11f50:	45a5                	li	a1,9
   11f52:	a9d50513          	addi	a0,a0,-1379 # a9d <.Lline_table_start1+0x872>
   11f56:	4625                	li	a2,9
   11f58:	fffff097          	auipc	ra,0xfffff
   11f5c:	218080e7          	jalr	536(ra) # 11170 <_ZN9allow_pin7command17hdfcb5c5f4a3821c8E>
   11f60:	8905                	andi	a0,a0,1
   11f62:	e119                	bnez	a0,11f68 <_start+0xdea>
   11f64:	4f10106f          	j	13c54 <_start+0x2ad6>
   11f68:	84ae                	mv	s1,a1
   11f6a:	4405                	li	s0,1
   11f6c:	58010513          	addi	a0,sp,1408
   11f70:	00005097          	auipc	ra,0x5
   11f74:	52c080e7          	jalr	1324(ra) # 1749c <_ZN9allow_pin12full_dynamic17unshare_if_shared17ha9c848d8c301b74dE>
   11f78:	51c10513          	addi	a0,sp,1308
   11f7c:	00005097          	auipc	ra,0x5
   11f80:	520080e7          	jalr	1312(ra) # 1749c <_ZN9allow_pin12full_dynamic17unshare_if_shared17ha9c848d8c301b74dE>
   11f84:	c019                	beqz	s0,11f8a <_start+0xe0c>
   11f86:	3f00506f          	j	17376 <_start+0x61f8>
   11f8a:	00005297          	auipc	t0,0x5
   11f8e:	716282e7          	jalr	t0,1814(t0) # 176a0 <OUTLINED_FUNCTION_10>
   11f92:	03100613          	li	a2,49
   11f96:	00006097          	auipc	ra,0x6
   11f9a:	934080e7          	jalr	-1740(ra) # 178ca <memcpy>
   11f9e:	59310513          	addi	a0,sp,1427
   11fa2:	048c                	addi	a1,sp,576
   11fa4:	03100613          	li	a2,49
   11fa8:	00006097          	auipc	ra,0x6
   11fac:	922080e7          	jalr	-1758(ra) # 178ca <memcpy>
   11fb0:	00005297          	auipc	t0,0x5
   11fb4:	5dc282e7          	jalr	t0,1500(t0) # 1758c <OUTLINED_FUNCTION_4>
   11fb8:	03400613          	li	a2,52
   11fbc:	854a                	mv	a0,s2
   11fbe:	4581                	li	a1,0
   11fc0:	00006097          	auipc	ra,0x6
   11fc4:	89e080e7          	jalr	-1890(ra) # 1785e <memset>
   11fc8:	52810223          	sb	s0,1316(sp)
   11fcc:	58010513          	addi	a0,sp,1408
   11fd0:	03800593          	li	a1,56
   11fd4:	4611                	li	a2,4
   11fd6:	12e00693          	li	a3,302
   11fda:	4721                	li	a4,8
   11fdc:	fffff097          	auipc	ra,0xfffff
   11fe0:	158080e7          	jalr	344(ra) # 11134 <_ZN9allow_pin12full_dynamic15Buffer$LT$B$GT$5allow17hb1627d2b206e9fb0E>
   11fe4:	8905                	andi	a0,a0,1
   11fe6:	e91d                	bnez	a0,1201c <_start+0xe9e>
   11fe8:	51c10513          	addi	a0,sp,1308
   11fec:	03400593          	li	a1,52
   11ff0:	460d                	li	a2,3
   11ff2:	12e00693          	li	a3,302
   11ff6:	470d                	li	a4,3
   11ff8:	fffff097          	auipc	ra,0xfffff
   11ffc:	13c080e7          	jalr	316(ra) # 11134 <_ZN9allow_pin12full_dynamic15Buffer$LT$B$GT$5allow17hb1627d2b206e9fb0E>
   12000:	8905                	andi	a0,a0,1
   12002:	ed09                	bnez	a0,1201c <_start+0xe9e>
   12004:	12e00513          	li	a0,302
   12008:	45a1                	li	a1,8
   1200a:	460d                	li	a2,3
   1200c:	fffff097          	auipc	ra,0xfffff
   12010:	164080e7          	jalr	356(ra) # 11170 <_ZN9allow_pin7command17hdfcb5c5f4a3821c8E>
   12014:	8905                	andi	a0,a0,1
   12016:	e119                	bnez	a0,1201c <_start+0xe9e>
   12018:	47d0106f          	j	13c94 <_start+0x2b16>
   1201c:	84ae                	mv	s1,a1
   1201e:	4405                	li	s0,1
   12020:	51c10513          	addi	a0,sp,1308
   12024:	00005097          	auipc	ra,0x5
   12028:	478080e7          	jalr	1144(ra) # 1749c <_ZN9allow_pin12full_dynamic17unshare_if_shared17ha9c848d8c301b74dE>
   1202c:	58010513          	addi	a0,sp,1408
   12030:	00005097          	auipc	ra,0x5
   12034:	46c080e7          	jalr	1132(ra) # 1749c <_ZN9allow_pin12full_dynamic17unshare_if_shared17ha9c848d8c301b74dE>
   12038:	c019                	beqz	s0,1203e <_start+0xec0>
   1203a:	33c0506f          	j	17376 <_start+0x61f8>
   1203e:	00005297          	auipc	t0,0x5
   12042:	662282e7          	jalr	t0,1634(t0) # 176a0 <OUTLINED_FUNCTION_10>
   12046:	02d00613          	li	a2,45
   1204a:	00006097          	auipc	ra,0x6
   1204e:	880080e7          	jalr	-1920(ra) # 178ca <memcpy>
   12052:	59310513          	addi	a0,sp,1427
   12056:	048c                	addi	a1,sp,576
   12058:	02d00613          	li	a2,45
   1205c:	00006097          	auipc	ra,0x6
   12060:	86e080e7          	jalr	-1938(ra) # 178ca <memcpy>
   12064:	00005297          	auipc	t0,0x5
   12068:	528282e7          	jalr	t0,1320(t0) # 1758c <OUTLINED_FUNCTION_4>
   1206c:	4669                	li	a2,26
   1206e:	854a                	mv	a0,s2
   12070:	4581                	li	a1,0
   12072:	00005097          	auipc	ra,0x5
   12076:	7ec080e7          	jalr	2028(ra) # 1785e <memset>
   1207a:	52810223          	sb	s0,1316(sp)
   1207e:	6605                	lui	a2,0x1
   12080:	58010513          	addi	a0,sp,1408
   12084:	03400593          	li	a1,52
   12088:	2cc60413          	addi	s0,a2,716 # 12cc <.Lline_table_start1+0x10a1>
   1208c:	4611                	li	a2,4
   1208e:	86a2                	mv	a3,s0
   12090:	4701                	li	a4,0
   12092:	fffff097          	auipc	ra,0xfffff
   12096:	0a2080e7          	jalr	162(ra) # 11134 <_ZN9allow_pin12full_dynamic15Buffer$LT$B$GT$5allow17hb1627d2b206e9fb0E>
   1209a:	8905                	andi	a0,a0,1
   1209c:	e915                	bnez	a0,120d0 <_start+0xf52>
   1209e:	51c10513          	addi	a0,sp,1308
   120a2:	45e9                	li	a1,26
   120a4:	460d                	li	a2,3
   120a6:	4715                	li	a4,5
   120a8:	86a2                	mv	a3,s0
   120aa:	fffff097          	auipc	ra,0xfffff
   120ae:	08a080e7          	jalr	138(ra) # 11134 <_ZN9allow_pin12full_dynamic15Buffer$LT$B$GT$5allow17hb1627d2b206e9fb0E>
   120b2:	8905                	andi	a0,a0,1
   120b4:	ed11                	bnez	a0,120d0 <_start+0xf52>
   120b6:	6505                	lui	a0,0x1
   120b8:	2cc50513          	addi	a0,a0,716 # 12cc <.Lline_table_start1+0x10a1>
   120bc:	4615                	li	a2,5
   120be:	4581                	li	a1,0
   120c0:	fffff097          	auipc	ra,0xfffff
   120c4:	0b0080e7          	jalr	176(ra) # 11170 <_ZN9allow_pin7command17hdfcb5c5f4a3821c8E>
   120c8:	8905                	andi	a0,a0,1
   120ca:	e119                	bnez	a0,120d0 <_start+0xf52>
   120cc:	4070106f          	j	13cd2 <_start+0x2b54>
   120d0:	84ae                	mv	s1,a1
   120d2:	4405                	li	s0,1
   120d4:	51c10513          	addi	a0,sp,1308
   120d8:	00005097          	auipc	ra,0x5
   120dc:	3c4080e7          	jalr	964(ra) # 1749c <_ZN9allow_pin12full_dynamic17unshare_if_shared17ha9c848d8c301b74dE>
   120e0:	58010513          	addi	a0,sp,1408
   120e4:	00005097          	auipc	ra,0x5
   120e8:	3b8080e7          	jalr	952(ra) # 1749c <_ZN9allow_pin12full_dynamic17unshare_if_shared17ha9c848d8c301b74dE>
   120ec:	c019                	beqz	s0,120f2 <_start+0xf74>
   120ee:	2880506f          	j	17376 <_start+0x61f8>
   120f2:	00005297          	auipc	t0,0x5
   120f6:	5da282e7          	jalr	t0,1498(t0) # 176cc <OUTLINED_FUNCTION_12>
   120fa:	464d                	li	a2,19
   120fc:	00005097          	auipc	ra,0x5
   12100:	7ce080e7          	jalr	1998(ra) # 178ca <memcpy>
   12104:	2af10513          	addi	a0,sp,687
   12108:	048c                	addi	a1,sp,576
   1210a:	464d                	li	a2,19
   1210c:	00005097          	auipc	ra,0x5
   12110:	7be080e7          	jalr	1982(ra) # 178ca <memcpy>
   12114:	00005297          	auipc	t0,0x5
   12118:	4c0282e7          	jalr	t0,1216(t0) # 175d4 <OUTLINED_FUNCTION_6>
   1211c:	05000613          	li	a2,80
   12120:	854e                	mv	a0,s3
   12122:	4581                	li	a1,0
   12124:	00005097          	auipc	ra,0x5
   12128:	73a080e7          	jalr	1850(ra) # 1785e <memset>
   1212c:	58810423          	sb	s0,1416(sp)
   12130:	6685                	lui	a3,0x1
   12132:	0d68                	addi	a0,sp,668
   12134:	45e9                	li	a1,26
   12136:	4611                	li	a2,4
   12138:	aee68413          	addi	s0,a3,-1298 # aee <.Lline_table_start1+0x8c3>
   1213c:	471d                	li	a4,7
   1213e:	86a2                	mv	a3,s0
   12140:	fffff097          	auipc	ra,0xfffff
   12144:	ff4080e7          	jalr	-12(ra) # 11134 <_ZN9allow_pin12full_dynamic15Buffer$LT$B$GT$5allow17hb1627d2b206e9fb0E>
   12148:	8905                	andi	a0,a0,1
   1214a:	e91d                	bnez	a0,12180 <_start+0x1002>
   1214c:	58010513          	addi	a0,sp,1408
   12150:	05000593          	li	a1,80
   12154:	460d                	li	a2,3
   12156:	4711                	li	a4,4
   12158:	86a2                	mv	a3,s0
   1215a:	fffff097          	auipc	ra,0xfffff
   1215e:	fda080e7          	jalr	-38(ra) # 11134 <_ZN9allow_pin12full_dynamic15Buffer$LT$B$GT$5allow17hb1627d2b206e9fb0E>
   12162:	8905                	andi	a0,a0,1
   12164:	ed11                	bnez	a0,12180 <_start+0x1002>
   12166:	6505                	lui	a0,0x1
   12168:	459d                	li	a1,7
   1216a:	aee50513          	addi	a0,a0,-1298 # aee <.Lline_table_start1+0x8c3>
   1216e:	4611                	li	a2,4
   12170:	fffff097          	auipc	ra,0xfffff
   12174:	000080e7          	jalr	ra # 11170 <_ZN9allow_pin7command17hdfcb5c5f4a3821c8E>
   12178:	8905                	andi	a0,a0,1
   1217a:	e119                	bnez	a0,12180 <_start+0x1002>
   1217c:	39b0106f          	j	13d16 <_start+0x2b98>
   12180:	84ae                	mv	s1,a1
   12182:	4405                	li	s0,1
   12184:	58010513          	addi	a0,sp,1408
   12188:	00005097          	auipc	ra,0x5
   1218c:	314080e7          	jalr	788(ra) # 1749c <_ZN9allow_pin12full_dynamic17unshare_if_shared17ha9c848d8c301b74dE>
   12190:	0d68                	addi	a0,sp,668
   12192:	00005097          	auipc	ra,0x5
   12196:	30a080e7          	jalr	778(ra) # 1749c <_ZN9allow_pin12full_dynamic17unshare_if_shared17ha9c848d8c301b74dE>
   1219a:	c019                	beqz	s0,121a0 <_start+0x1022>
   1219c:	1da0506f          	j	17376 <_start+0x61f8>
   121a0:	00005297          	auipc	t0,0x5
   121a4:	4e8282e7          	jalr	t0,1256(t0) # 17688 <OUTLINED_FUNCTION_9>
   121a8:	04900613          	li	a2,73
   121ac:	00005097          	auipc	ra,0x5
   121b0:	71e080e7          	jalr	1822(ra) # 178ca <memcpy>
   121b4:	59310513          	addi	a0,sp,1427
   121b8:	51c10593          	addi	a1,sp,1308
   121bc:	04900613          	li	a2,73
   121c0:	00005097          	auipc	ra,0x5
   121c4:	70a080e7          	jalr	1802(ra) # 178ca <memcpy>
   121c8:	00005297          	auipc	t0,0x5
   121cc:	3c4282e7          	jalr	t0,964(t0) # 1758c <OUTLINED_FUNCTION_4>
   121d0:	03c00613          	li	a2,60
   121d4:	854a                	mv	a0,s2
   121d6:	4581                	li	a1,0
   121d8:	00005097          	auipc	ra,0x5
   121dc:	686080e7          	jalr	1670(ra) # 1785e <memset>
   121e0:	00005297          	auipc	t0,0x5
   121e4:	60c282e7          	jalr	t0,1548(t0) # 177ec <OUTLINED_FUNCTION_21>
   121e8:	05000593          	li	a1,80
   121ec:	4611                	li	a2,4
   121ee:	d7a68413          	addi	s0,a3,-646
   121f2:	470d                	li	a4,3
   121f4:	86a2                	mv	a3,s0
   121f6:	fffff097          	auipc	ra,0xfffff
   121fa:	f3e080e7          	jalr	-194(ra) # 11134 <_ZN9allow_pin12full_dynamic15Buffer$LT$B$GT$5allow17hb1627d2b206e9fb0E>
   121fe:	8905                	andi	a0,a0,1
   12200:	e91d                	bnez	a0,12236 <_start+0x10b8>
   12202:	51c10513          	addi	a0,sp,1308
   12206:	03c00593          	li	a1,60
   1220a:	460d                	li	a2,3
   1220c:	4725                	li	a4,9
   1220e:	86a2                	mv	a3,s0
   12210:	fffff097          	auipc	ra,0xfffff
   12214:	f24080e7          	jalr	-220(ra) # 11134 <_ZN9allow_pin12full_dynamic15Buffer$LT$B$GT$5allow17hb1627d2b206e9fb0E>
   12218:	8905                	andi	a0,a0,1
   1221a:	ed11                	bnez	a0,12236 <_start+0x10b8>
   1221c:	6505                	lui	a0,0x1
   1221e:	458d                	li	a1,3
   12220:	d7a50513          	addi	a0,a0,-646 # d7a <.Lline_table_start1+0xb4f>
   12224:	4625                	li	a2,9
   12226:	fffff097          	auipc	ra,0xfffff
   1222a:	f4a080e7          	jalr	-182(ra) # 11170 <_ZN9allow_pin7command17hdfcb5c5f4a3821c8E>
   1222e:	8905                	andi	a0,a0,1
   12230:	e119                	bnez	a0,12236 <_start+0x10b8>
   12232:	3230106f          	j	13d54 <_start+0x2bd6>
   12236:	84ae                	mv	s1,a1
   12238:	4405                	li	s0,1
   1223a:	51c10513          	addi	a0,sp,1308
   1223e:	00005097          	auipc	ra,0x5
   12242:	25e080e7          	jalr	606(ra) # 1749c <_ZN9allow_pin12full_dynamic17unshare_if_shared17ha9c848d8c301b74dE>
   12246:	58010513          	addi	a0,sp,1408
   1224a:	00005097          	auipc	ra,0x5
   1224e:	252080e7          	jalr	594(ra) # 1749c <_ZN9allow_pin12full_dynamic17unshare_if_shared17ha9c848d8c301b74dE>
   12252:	c019                	beqz	s0,12258 <_start+0x10da>
   12254:	1220506f          	j	17376 <_start+0x61f8>
   12258:	00005297          	auipc	t0,0x5
   1225c:	448282e7          	jalr	t0,1096(t0) # 176a0 <OUTLINED_FUNCTION_10>
   12260:	03500613          	li	a2,53
   12264:	00005097          	auipc	ra,0x5
   12268:	666080e7          	jalr	1638(ra) # 178ca <memcpy>
   1226c:	59310513          	addi	a0,sp,1427
   12270:	048c                	addi	a1,sp,576
   12272:	03500613          	li	a2,53
   12276:	00005097          	auipc	ra,0x5
   1227a:	654080e7          	jalr	1620(ra) # 178ca <memcpy>
   1227e:	00005297          	auipc	t0,0x5
   12282:	30e282e7          	jalr	t0,782(t0) # 1758c <OUTLINED_FUNCTION_4>
   12286:	03200613          	li	a2,50
   1228a:	854a                	mv	a0,s2
   1228c:	4581                	li	a1,0
   1228e:	00005097          	auipc	ra,0x5
   12292:	5d0080e7          	jalr	1488(ra) # 1785e <memset>
   12296:	00005297          	auipc	t0,0x5
   1229a:	562282e7          	jalr	t0,1378(t0) # 177f8 <OUTLINED_FUNCTION_22>
   1229e:	03c00593          	li	a1,60
   122a2:	4611                	li	a2,4
   122a4:	b1e68413          	addi	s0,a3,-1250
   122a8:	4719                	li	a4,6
   122aa:	86a2                	mv	a3,s0
   122ac:	fffff097          	auipc	ra,0xfffff
   122b0:	e88080e7          	jalr	-376(ra) # 11134 <_ZN9allow_pin12full_dynamic15Buffer$LT$B$GT$5allow17hb1627d2b206e9fb0E>
   122b4:	8905                	andi	a0,a0,1
   122b6:	e91d                	bnez	a0,122ec <_start+0x116e>
   122b8:	51c10513          	addi	a0,sp,1308
   122bc:	03200593          	li	a1,50
   122c0:	460d                	li	a2,3
   122c2:	4721                	li	a4,8
   122c4:	86a2                	mv	a3,s0
   122c6:	fffff097          	auipc	ra,0xfffff
   122ca:	e6e080e7          	jalr	-402(ra) # 11134 <_ZN9allow_pin12full_dynamic15Buffer$LT$B$GT$5allow17hb1627d2b206e9fb0E>
   122ce:	8905                	andi	a0,a0,1
   122d0:	ed11                	bnez	a0,122ec <_start+0x116e>
   122d2:	6509                	lui	a0,0x2
   122d4:	4599                	li	a1,6
   122d6:	b1e50513          	addi	a0,a0,-1250 # 1b1e <.Lline_table_start1+0x18f3>
   122da:	4621                	li	a2,8
   122dc:	fffff097          	auipc	ra,0xfffff
   122e0:	e94080e7          	jalr	-364(ra) # 11170 <_ZN9allow_pin7command17hdfcb5c5f4a3821c8E>
   122e4:	8905                	andi	a0,a0,1
   122e6:	e119                	bnez	a0,122ec <_start+0x116e>
   122e8:	2ab0106f          	j	13d92 <_start+0x2c14>
   122ec:	84ae                	mv	s1,a1
   122ee:	4405                	li	s0,1
   122f0:	51c10513          	addi	a0,sp,1308
   122f4:	00005097          	auipc	ra,0x5
   122f8:	1a8080e7          	jalr	424(ra) # 1749c <_ZN9allow_pin12full_dynamic17unshare_if_shared17ha9c848d8c301b74dE>
   122fc:	58010513          	addi	a0,sp,1408
   12300:	00005097          	auipc	ra,0x5
   12304:	19c080e7          	jalr	412(ra) # 1749c <_ZN9allow_pin12full_dynamic17unshare_if_shared17ha9c848d8c301b74dE>
   12308:	c019                	beqz	s0,1230e <_start+0x1190>
   1230a:	06c0506f          	j	17376 <_start+0x61f8>
   1230e:	00005297          	auipc	t0,0x5
   12312:	3a8282e7          	jalr	t0,936(t0) # 176b6 <OUTLINED_FUNCTION_11>
   12316:	02b00613          	li	a2,43
   1231a:	00005097          	auipc	ra,0x5
   1231e:	5b0080e7          	jalr	1456(ra) # 178ca <memcpy>
   12322:	52f10513          	addi	a0,sp,1327
   12326:	048c                	addi	a1,sp,576
   12328:	02b00613          	li	a2,43
   1232c:	00005097          	auipc	ra,0x5
   12330:	59e080e7          	jalr	1438(ra) # 178ca <memcpy>
   12334:	00005297          	auipc	t0,0x5
   12338:	27c282e7          	jalr	t0,636(t0) # 175b0 <OUTLINED_FUNCTION_5>
   1233c:	03200613          	li	a2,50
   12340:	854e                	mv	a0,s3
   12342:	4581                	li	a1,0
   12344:	00005097          	auipc	ra,0x5
   12348:	51a080e7          	jalr	1306(ra) # 1785e <memset>
   1234c:	58810423          	sb	s0,1416(sp)
   12350:	6689                	lui	a3,0x2
   12352:	51c10513          	addi	a0,sp,1308
   12356:	03200593          	li	a1,50
   1235a:	4611                	li	a2,4
   1235c:	f0768413          	addi	s0,a3,-249 # 1f07 <.Lline_table_start1+0x1cdc>
   12360:	470d                	li	a4,3
   12362:	86a2                	mv	a3,s0
   12364:	fffff097          	auipc	ra,0xfffff
   12368:	dd0080e7          	jalr	-560(ra) # 11134 <_ZN9allow_pin12full_dynamic15Buffer$LT$B$GT$5allow17hb1627d2b206e9fb0E>
   1236c:	8905                	andi	a0,a0,1
   1236e:	e91d                	bnez	a0,123a4 <_start+0x1226>
   12370:	58010513          	addi	a0,sp,1408
   12374:	03200593          	li	a1,50
   12378:	460d                	li	a2,3
   1237a:	4705                	li	a4,1
   1237c:	86a2                	mv	a3,s0
   1237e:	fffff097          	auipc	ra,0xfffff
   12382:	db6080e7          	jalr	-586(ra) # 11134 <_ZN9allow_pin12full_dynamic15Buffer$LT$B$GT$5allow17hb1627d2b206e9fb0E>
   12386:	8905                	andi	a0,a0,1
   12388:	ed11                	bnez	a0,123a4 <_start+0x1226>
   1238a:	6509                	lui	a0,0x2
   1238c:	458d                	li	a1,3
   1238e:	f0750513          	addi	a0,a0,-249 # 1f07 <.Lline_table_start1+0x1cdc>
   12392:	4605                	li	a2,1
   12394:	fffff097          	auipc	ra,0xfffff
   12398:	ddc080e7          	jalr	-548(ra) # 11170 <_ZN9allow_pin7command17hdfcb5c5f4a3821c8E>
   1239c:	8905                	andi	a0,a0,1
   1239e:	e119                	bnez	a0,123a4 <_start+0x1226>
   123a0:	2310106f          	j	13dd0 <_start+0x2c52>
   123a4:	84ae                	mv	s1,a1
   123a6:	4405                	li	s0,1
   123a8:	58010513          	addi	a0,sp,1408
   123ac:	00005097          	auipc	ra,0x5
   123b0:	0f0080e7          	jalr	240(ra) # 1749c <_ZN9allow_pin12full_dynamic17unshare_if_shared17ha9c848d8c301b74dE>
   123b4:	51c10513          	addi	a0,sp,1308
   123b8:	00005097          	auipc	ra,0x5
   123bc:	0e4080e7          	jalr	228(ra) # 1749c <_ZN9allow_pin12full_dynamic17unshare_if_shared17ha9c848d8c301b74dE>
   123c0:	c019                	beqz	s0,123c6 <_start+0x1248>
   123c2:	7b50406f          	j	17376 <_start+0x61f8>
   123c6:	00005297          	auipc	t0,0x5
   123ca:	2da282e7          	jalr	t0,730(t0) # 176a0 <OUTLINED_FUNCTION_10>
   123ce:	02b00613          	li	a2,43
   123d2:	00005097          	auipc	ra,0x5
   123d6:	4f8080e7          	jalr	1272(ra) # 178ca <memcpy>
   123da:	59310513          	addi	a0,sp,1427
   123de:	048c                	addi	a1,sp,576
   123e0:	02b00613          	li	a2,43
   123e4:	00005097          	auipc	ra,0x5
   123e8:	4e6080e7          	jalr	1254(ra) # 178ca <memcpy>
   123ec:	4509                	li	a0,2
   123ee:	0184d593          	srli	a1,s1,0x18
   123f2:	0104d613          	srli	a2,s1,0x10
   123f6:	58b10923          	sb	a1,1426(sp)
   123fa:	0084d593          	srli	a1,s1,0x8
   123fe:	50010693          	addi	a3,sp,1280
   12402:	0206aa23          	sw	zero,52(a3)
   12406:	00005297          	auipc	t0,0x5
   1240a:	434282e7          	jalr	t0,1076(t0) # 1783a <OUTLINED_FUNCTION_26>
   1240e:	4501                	li	a0,0
   12410:	d688                	sw	a0,40(a3)
   12412:	d6c8                	sw	a0,44(a3)
   12414:	da88                	sw	a0,48(a3)
   12416:	6689                	lui	a3,0x2
   12418:	58010513          	addi	a0,sp,1408
   1241c:	03200593          	li	a1,50
   12420:	4611                	li	a2,4
   12422:	9d668413          	addi	s0,a3,-1578 # 19d6 <.Lline_table_start1+0x17ab>
   12426:	4711                	li	a4,4
   12428:	86a2                	mv	a3,s0
   1242a:	fffff097          	auipc	ra,0xfffff
   1242e:	d0a080e7          	jalr	-758(ra) # 11134 <_ZN9allow_pin12full_dynamic15Buffer$LT$B$GT$5allow17hb1627d2b206e9fb0E>
   12432:	8905                	andi	a0,a0,1
   12434:	e915                	bnez	a0,12468 <_start+0x12ea>
   12436:	51c10513          	addi	a0,sp,1308
   1243a:	45c1                	li	a1,16
   1243c:	460d                	li	a2,3
   1243e:	4725                	li	a4,9
   12440:	86a2                	mv	a3,s0
   12442:	fffff097          	auipc	ra,0xfffff
   12446:	cf2080e7          	jalr	-782(ra) # 11134 <_ZN9allow_pin12full_dynamic15Buffer$LT$B$GT$5allow17hb1627d2b206e9fb0E>
   1244a:	8905                	andi	a0,a0,1
   1244c:	ed11                	bnez	a0,12468 <_start+0x12ea>
   1244e:	6509                	lui	a0,0x2
   12450:	4591                	li	a1,4
   12452:	9d650513          	addi	a0,a0,-1578 # 19d6 <.Lline_table_start1+0x17ab>
   12456:	4625                	li	a2,9
   12458:	fffff097          	auipc	ra,0xfffff
   1245c:	d18080e7          	jalr	-744(ra) # 11170 <_ZN9allow_pin7command17hdfcb5c5f4a3821c8E>
   12460:	8905                	andi	a0,a0,1
   12462:	e119                	bnez	a0,12468 <_start+0x12ea>
   12464:	1ad0106f          	j	13e10 <_start+0x2c92>
   12468:	84ae                	mv	s1,a1
   1246a:	4405                	li	s0,1
   1246c:	51c10513          	addi	a0,sp,1308
   12470:	00005097          	auipc	ra,0x5
   12474:	02c080e7          	jalr	44(ra) # 1749c <_ZN9allow_pin12full_dynamic17unshare_if_shared17ha9c848d8c301b74dE>
   12478:	58010513          	addi	a0,sp,1408
   1247c:	00005097          	auipc	ra,0x5
   12480:	020080e7          	jalr	32(ra) # 1749c <_ZN9allow_pin12full_dynamic17unshare_if_shared17ha9c848d8c301b74dE>
   12484:	c019                	beqz	s0,1248a <_start+0x130c>
   12486:	6f10406f          	j	17376 <_start+0x61f8>
   1248a:	00005297          	auipc	t0,0x5
   1248e:	38c282e7          	jalr	t0,908(t0) # 17816 <OUTLINED_FUNCTION_24>
   12492:	34c14703          	lbu	a4,844(sp)
   12496:	2aa11423          	sh	a0,680(sp)
   1249a:	2ab10523          	sb	a1,682(sp)
   1249e:	24c12023          	sw	a2,576(sp)
   124a2:	24d12223          	sw	a3,580(sp)
   124a6:	24e10423          	sb	a4,584(sp)
   124aa:	2af10513          	addi	a0,sp,687
   124ae:	048c                	addi	a1,sp,576
   124b0:	4625                	li	a2,9
   124b2:	00005097          	auipc	ra,0x5
   124b6:	418080e7          	jalr	1048(ra) # 178ca <memcpy>
   124ba:	00005297          	auipc	t0,0x5
   124be:	11a282e7          	jalr	t0,282(t0) # 175d4 <OUTLINED_FUNCTION_6>
   124c2:	03600613          	li	a2,54
   124c6:	854e                	mv	a0,s3
   124c8:	4581                	li	a1,0
   124ca:	00005097          	auipc	ra,0x5
   124ce:	394080e7          	jalr	916(ra) # 1785e <memset>
   124d2:	58810423          	sb	s0,1416(sp)
   124d6:	6689                	lui	a3,0x2
   124d8:	0d68                	addi	a0,sp,668
   124da:	45c1                	li	a1,16
   124dc:	4611                	li	a2,4
   124de:	98968493          	addi	s1,a3,-1655 # 1989 <.Lline_table_start1+0x175e>
   124e2:	4705                	li	a4,1
   124e4:	4405                	li	s0,1
   124e6:	86a6                	mv	a3,s1
   124e8:	fffff097          	auipc	ra,0xfffff
   124ec:	c4c080e7          	jalr	-948(ra) # 11134 <_ZN9allow_pin12full_dynamic15Buffer$LT$B$GT$5allow17hb1627d2b206e9fb0E>
   124f0:	8905                	andi	a0,a0,1
   124f2:	e91d                	bnez	a0,12528 <_start+0x13aa>
   124f4:	58010513          	addi	a0,sp,1408
   124f8:	03600593          	li	a1,54
   124fc:	460d                	li	a2,3
   124fe:	471d                	li	a4,7
   12500:	86a6                	mv	a3,s1
   12502:	fffff097          	auipc	ra,0xfffff
   12506:	c32080e7          	jalr	-974(ra) # 11134 <_ZN9allow_pin12full_dynamic15Buffer$LT$B$GT$5allow17hb1627d2b206e9fb0E>
   1250a:	8905                	andi	a0,a0,1
   1250c:	ed11                	bnez	a0,12528 <_start+0x13aa>
   1250e:	6509                	lui	a0,0x2
   12510:	4585                	li	a1,1
   12512:	98950513          	addi	a0,a0,-1655 # 1989 <.Lline_table_start1+0x175e>
   12516:	461d                	li	a2,7
   12518:	fffff097          	auipc	ra,0xfffff
   1251c:	c58080e7          	jalr	-936(ra) # 11170 <_ZN9allow_pin7command17hdfcb5c5f4a3821c8E>
   12520:	8905                	andi	a0,a0,1
   12522:	e119                	bnez	a0,12528 <_start+0x13aa>
   12524:	19d0106f          	j	13ec0 <_start+0x2d42>
   12528:	84ae                	mv	s1,a1
   1252a:	58010513          	addi	a0,sp,1408
   1252e:	00005097          	auipc	ra,0x5
   12532:	f6e080e7          	jalr	-146(ra) # 1749c <_ZN9allow_pin12full_dynamic17unshare_if_shared17ha9c848d8c301b74dE>
   12536:	0d68                	addi	a0,sp,668
   12538:	00005097          	auipc	ra,0x5
   1253c:	f64080e7          	jalr	-156(ra) # 1749c <_ZN9allow_pin12full_dynamic17unshare_if_shared17ha9c848d8c301b74dE>
   12540:	c019                	beqz	s0,12546 <_start+0x13c8>
   12542:	6350406f          	j	17376 <_start+0x61f8>
   12546:	00005297          	auipc	t0,0x5
   1254a:	142282e7          	jalr	t0,322(t0) # 17688 <OUTLINED_FUNCTION_9>
   1254e:	02f00613          	li	a2,47
   12552:	00005097          	auipc	ra,0x5
   12556:	378080e7          	jalr	888(ra) # 178ca <memcpy>
   1255a:	59310513          	addi	a0,sp,1427
   1255e:	51c10593          	addi	a1,sp,1308
   12562:	02f00613          	li	a2,47
   12566:	00005097          	auipc	ra,0x5
   1256a:	364080e7          	jalr	868(ra) # 178ca <memcpy>
   1256e:	00005297          	auipc	t0,0x5
   12572:	01e282e7          	jalr	t0,30(t0) # 1758c <OUTLINED_FUNCTION_4>
   12576:	463d                	li	a2,15
   12578:	854a                	mv	a0,s2
   1257a:	4581                	li	a1,0
   1257c:	00005097          	auipc	ra,0x5
   12580:	2e2080e7          	jalr	738(ra) # 1785e <memset>
   12584:	52810223          	sb	s0,1316(sp)
   12588:	58010513          	addi	a0,sp,1408
   1258c:	03600593          	li	a1,54
   12590:	4611                	li	a2,4
   12592:	65300693          	li	a3,1619
   12596:	4715                	li	a4,5
   12598:	fffff097          	auipc	ra,0xfffff
   1259c:	b9c080e7          	jalr	-1124(ra) # 11134 <_ZN9allow_pin12full_dynamic15Buffer$LT$B$GT$5allow17hb1627d2b206e9fb0E>
   125a0:	8905                	andi	a0,a0,1
   125a2:	e915                	bnez	a0,125d6 <_start+0x1458>
   125a4:	51c10513          	addi	a0,sp,1308
   125a8:	45bd                	li	a1,15
   125aa:	460d                	li	a2,3
   125ac:	65300693          	li	a3,1619
   125b0:	470d                	li	a4,3
   125b2:	fffff097          	auipc	ra,0xfffff
   125b6:	b82080e7          	jalr	-1150(ra) # 11134 <_ZN9allow_pin12full_dynamic15Buffer$LT$B$GT$5allow17hb1627d2b206e9fb0E>
   125ba:	8905                	andi	a0,a0,1
   125bc:	ed09                	bnez	a0,125d6 <_start+0x1458>
   125be:	65300513          	li	a0,1619
   125c2:	4595                	li	a1,5
   125c4:	460d                	li	a2,3
   125c6:	fffff097          	auipc	ra,0xfffff
   125ca:	baa080e7          	jalr	-1110(ra) # 11170 <_ZN9allow_pin7command17hdfcb5c5f4a3821c8E>
   125ce:	8905                	andi	a0,a0,1
   125d0:	e119                	bnez	a0,125d6 <_start+0x1458>
   125d2:	12d0106f          	j	13efe <_start+0x2d80>
   125d6:	84ae                	mv	s1,a1
   125d8:	4a05                	li	s4,1
   125da:	51c10513          	addi	a0,sp,1308
   125de:	00005097          	auipc	ra,0x5
   125e2:	ebe080e7          	jalr	-322(ra) # 1749c <_ZN9allow_pin12full_dynamic17unshare_if_shared17ha9c848d8c301b74dE>
   125e6:	58010513          	addi	a0,sp,1408
   125ea:	00005097          	auipc	ra,0x5
   125ee:	eb2080e7          	jalr	-334(ra) # 1749c <_ZN9allow_pin12full_dynamic17unshare_if_shared17ha9c848d8c301b74dE>
   125f2:	000a0463          	beqz	s4,125fa <_start+0x147c>
   125f6:	5810406f          	j	17376 <_start+0x61f8>
   125fa:	00005297          	auipc	t0,0x5
   125fe:	022282e7          	jalr	t0,34(t0) # 1761c <OUTLINED_FUNCTION_8>
   12602:	464d                	li	a2,19
   12604:	854e                	mv	a0,s3
   12606:	4581                	li	a1,0
   12608:	00005097          	auipc	ra,0x5
   1260c:	256080e7          	jalr	598(ra) # 1785e <memset>
   12610:	59410423          	sb	s4,1416(sp)
   12614:	6689                	lui	a3,0x2
   12616:	51c10513          	addi	a0,sp,1308
   1261a:	45bd                	li	a1,15
   1261c:	4611                	li	a2,4
   1261e:	e4b68413          	addi	s0,a3,-437 # 1e4b <.Lline_table_start1+0x1c20>
   12622:	470d                	li	a4,3
   12624:	86a2                	mv	a3,s0
   12626:	fffff097          	auipc	ra,0xfffff
   1262a:	b0e080e7          	jalr	-1266(ra) # 11134 <_ZN9allow_pin12full_dynamic15Buffer$LT$B$GT$5allow17hb1627d2b206e9fb0E>
   1262e:	8905                	andi	a0,a0,1
   12630:	e915                	bnez	a0,12664 <_start+0x14e6>
   12632:	58010513          	addi	a0,sp,1408
   12636:	45cd                	li	a1,19
   12638:	460d                	li	a2,3
   1263a:	86a2                	mv	a3,s0
   1263c:	4701                	li	a4,0
   1263e:	fffff097          	auipc	ra,0xfffff
   12642:	af6080e7          	jalr	-1290(ra) # 11134 <_ZN9allow_pin12full_dynamic15Buffer$LT$B$GT$5allow17hb1627d2b206e9fb0E>
   12646:	8905                	andi	a0,a0,1
   12648:	ed11                	bnez	a0,12664 <_start+0x14e6>
   1264a:	6509                	lui	a0,0x2
   1264c:	e4b50513          	addi	a0,a0,-437 # 1e4b <.Lline_table_start1+0x1c20>
   12650:	458d                	li	a1,3
   12652:	4601                	li	a2,0
   12654:	fffff097          	auipc	ra,0xfffff
   12658:	b1c080e7          	jalr	-1252(ra) # 11170 <_ZN9allow_pin7command17hdfcb5c5f4a3821c8E>
   1265c:	8905                	andi	a0,a0,1
   1265e:	e119                	bnez	a0,12664 <_start+0x14e6>
   12660:	10d0106f          	j	13f6c <_start+0x2dee>
   12664:	84ae                	mv	s1,a1
   12666:	4405                	li	s0,1
   12668:	58010513          	addi	a0,sp,1408
   1266c:	00005097          	auipc	ra,0x5
   12670:	e30080e7          	jalr	-464(ra) # 1749c <_ZN9allow_pin12full_dynamic17unshare_if_shared17ha9c848d8c301b74dE>
   12674:	51c10513          	addi	a0,sp,1308
   12678:	00005097          	auipc	ra,0x5
   1267c:	e24080e7          	jalr	-476(ra) # 1749c <_ZN9allow_pin12full_dynamic17unshare_if_shared17ha9c848d8c301b74dE>
   12680:	c019                	beqz	s0,12686 <_start+0x1508>
   12682:	4f50406f          	j	17376 <_start+0x61f8>
   12686:	0414                	addi	a3,sp,512
   12688:	42a8                	lw	a0,64(a3)
   1268a:	42ec                	lw	a1,68(a3)
   1268c:	46b0                	lw	a2,72(a3)
   1268e:	0184d693          	srli	a3,s1,0x18
   12692:	0104d713          	srli	a4,s1,0x10
   12696:	0084d793          	srli	a5,s1,0x8
   1269a:	2af10623          	sb	a5,684(sp)
   1269e:	2ae106a3          	sb	a4,685(sp)
   126a2:	2ad10723          	sb	a3,686(sp)
   126a6:	34411683          	lh	a3,836(sp)
   126aa:	34614703          	lbu	a4,838(sp)
   126ae:	c12a                	sw	a0,128(sp)
   126b0:	c32e                	sw	a1,132(sp)
   126b2:	c532                	sw	a2,136(sp)
   126b4:	4409                	li	s0,2
   126b6:	2a810223          	sb	s0,676(sp)
   126ba:	2ad11423          	sh	a3,680(sp)
   126be:	2ae10523          	sb	a4,682(sp)
   126c2:	2a9105a3          	sb	s1,683(sp)
   126c6:	2af10513          	addi	a0,sp,687
   126ca:	010c                	addi	a1,sp,128
   126cc:	4631                	li	a2,12
   126ce:	00005097          	auipc	ra,0x5
   126d2:	1fc080e7          	jalr	508(ra) # 178ca <memcpy>
   126d6:	05500613          	li	a2,85
   126da:	854e                	mv	a0,s3
   126dc:	4581                	li	a1,0
   126de:	00005097          	auipc	ra,0x5
   126e2:	180080e7          	jalr	384(ra) # 1785e <memset>
   126e6:	58810423          	sb	s0,1416(sp)
   126ea:	0d68                	addi	a0,sp,668
   126ec:	45cd                	li	a1,19
   126ee:	4611                	li	a2,4
   126f0:	32e00693          	li	a3,814
   126f4:	4725                	li	a4,9
   126f6:	fffff097          	auipc	ra,0xfffff
   126fa:	a3e080e7          	jalr	-1474(ra) # 11134 <_ZN9allow_pin12full_dynamic15Buffer$LT$B$GT$5allow17hb1627d2b206e9fb0E>
   126fe:	8905                	andi	a0,a0,1
   12700:	e91d                	bnez	a0,12736 <_start+0x15b8>
   12702:	58010513          	addi	a0,sp,1408
   12706:	05500593          	li	a1,85
   1270a:	460d                	li	a2,3
   1270c:	32e00693          	li	a3,814
   12710:	471d                	li	a4,7
   12712:	fffff097          	auipc	ra,0xfffff
   12716:	a22080e7          	jalr	-1502(ra) # 11134 <_ZN9allow_pin12full_dynamic15Buffer$LT$B$GT$5allow17hb1627d2b206e9fb0E>
   1271a:	8905                	andi	a0,a0,1
   1271c:	ed09                	bnez	a0,12736 <_start+0x15b8>
   1271e:	32e00513          	li	a0,814
   12722:	45a5                	li	a1,9
   12724:	461d                	li	a2,7
   12726:	fffff097          	auipc	ra,0xfffff
   1272a:	a4a080e7          	jalr	-1462(ra) # 11170 <_ZN9allow_pin7command17hdfcb5c5f4a3821c8E>
   1272e:	8905                	andi	a0,a0,1
   12730:	e119                	bnez	a0,12736 <_start+0x15b8>
   12732:	1030106f          	j	14034 <_start+0x2eb6>
   12736:	84ae                	mv	s1,a1
   12738:	4405                	li	s0,1
   1273a:	58010513          	addi	a0,sp,1408
   1273e:	00005097          	auipc	ra,0x5
   12742:	d5e080e7          	jalr	-674(ra) # 1749c <_ZN9allow_pin12full_dynamic17unshare_if_shared17ha9c848d8c301b74dE>
   12746:	0d68                	addi	a0,sp,668
   12748:	00005097          	auipc	ra,0x5
   1274c:	d54080e7          	jalr	-684(ra) # 1749c <_ZN9allow_pin12full_dynamic17unshare_if_shared17ha9c848d8c301b74dE>
   12750:	c019                	beqz	s0,12756 <_start+0x15d8>
   12752:	4250406f          	j	17376 <_start+0x61f8>
   12756:	00005297          	auipc	t0,0x5
   1275a:	f32282e7          	jalr	t0,-206(t0) # 17688 <OUTLINED_FUNCTION_9>
   1275e:	04e00613          	li	a2,78
   12762:	00005097          	auipc	ra,0x5
   12766:	168080e7          	jalr	360(ra) # 178ca <memcpy>
   1276a:	59310513          	addi	a0,sp,1427
   1276e:	51c10593          	addi	a1,sp,1308
   12772:	04e00613          	li	a2,78
   12776:	00005097          	auipc	ra,0x5
   1277a:	154080e7          	jalr	340(ra) # 178ca <memcpy>
   1277e:	00005297          	auipc	t0,0x5
   12782:	e0e282e7          	jalr	t0,-498(t0) # 1758c <OUTLINED_FUNCTION_4>
   12786:	03200613          	li	a2,50
   1278a:	854a                	mv	a0,s2
   1278c:	4581                	li	a1,0
   1278e:	00005097          	auipc	ra,0x5
   12792:	0d0080e7          	jalr	208(ra) # 1785e <memset>
   12796:	00005297          	auipc	t0,0x5
   1279a:	062282e7          	jalr	t0,98(t0) # 177f8 <OUTLINED_FUNCTION_22>
   1279e:	05500593          	li	a1,85
   127a2:	4611                	li	a2,4
   127a4:	09568413          	addi	s0,a3,149
   127a8:	4721                	li	a4,8
   127aa:	86a2                	mv	a3,s0
   127ac:	fffff097          	auipc	ra,0xfffff
   127b0:	988080e7          	jalr	-1656(ra) # 11134 <_ZN9allow_pin12full_dynamic15Buffer$LT$B$GT$5allow17hb1627d2b206e9fb0E>
   127b4:	8905                	andi	a0,a0,1
   127b6:	e91d                	bnez	a0,127ec <_start+0x166e>
   127b8:	51c10513          	addi	a0,sp,1308
   127bc:	03200593          	li	a1,50
   127c0:	460d                	li	a2,3
   127c2:	4721                	li	a4,8
   127c4:	86a2                	mv	a3,s0
   127c6:	fffff097          	auipc	ra,0xfffff
   127ca:	96e080e7          	jalr	-1682(ra) # 11134 <_ZN9allow_pin12full_dynamic15Buffer$LT$B$GT$5allow17hb1627d2b206e9fb0E>
   127ce:	8905                	andi	a0,a0,1
   127d0:	ed11                	bnez	a0,127ec <_start+0x166e>
   127d2:	6509                	lui	a0,0x2
   127d4:	45a1                	li	a1,8
   127d6:	09550513          	addi	a0,a0,149 # 2095 <.Lline_table_start1+0x1e6a>
   127da:	4621                	li	a2,8
   127dc:	fffff097          	auipc	ra,0xfffff
   127e0:	994080e7          	jalr	-1644(ra) # 11170 <_ZN9allow_pin7command17hdfcb5c5f4a3821c8E>
   127e4:	8905                	andi	a0,a0,1
   127e6:	e119                	bnez	a0,127ec <_start+0x166e>
   127e8:	08b0106f          	j	14072 <_start+0x2ef4>
   127ec:	84ae                	mv	s1,a1
   127ee:	4405                	li	s0,1
   127f0:	51c10513          	addi	a0,sp,1308
   127f4:	00005097          	auipc	ra,0x5
   127f8:	ca8080e7          	jalr	-856(ra) # 1749c <_ZN9allow_pin12full_dynamic17unshare_if_shared17ha9c848d8c301b74dE>
   127fc:	58010513          	addi	a0,sp,1408
   12800:	00005097          	auipc	ra,0x5
   12804:	c9c080e7          	jalr	-868(ra) # 1749c <_ZN9allow_pin12full_dynamic17unshare_if_shared17ha9c848d8c301b74dE>
   12808:	c019                	beqz	s0,1280e <_start+0x1690>
   1280a:	36d0406f          	j	17376 <_start+0x61f8>
   1280e:	00005297          	auipc	t0,0x5
   12812:	ea8282e7          	jalr	t0,-344(t0) # 176b6 <OUTLINED_FUNCTION_11>
   12816:	02b00613          	li	a2,43
   1281a:	00005097          	auipc	ra,0x5
   1281e:	0b0080e7          	jalr	176(ra) # 178ca <memcpy>
   12822:	52f10513          	addi	a0,sp,1327
   12826:	048c                	addi	a1,sp,576
   12828:	02b00613          	li	a2,43
   1282c:	00005097          	auipc	ra,0x5
   12830:	09e080e7          	jalr	158(ra) # 178ca <memcpy>
   12834:	00005297          	auipc	t0,0x5
   12838:	d7c282e7          	jalr	t0,-644(t0) # 175b0 <OUTLINED_FUNCTION_5>
   1283c:	04100613          	li	a2,65
   12840:	854e                	mv	a0,s3
   12842:	4581                	li	a1,0
   12844:	00005097          	auipc	ra,0x5
   12848:	01a080e7          	jalr	26(ra) # 1785e <memset>
   1284c:	58810423          	sb	s0,1416(sp)
   12850:	6685                	lui	a3,0x1
   12852:	51c10513          	addi	a0,sp,1308
   12856:	03200593          	li	a1,50
   1285a:	4611                	li	a2,4
   1285c:	91d68413          	addi	s0,a3,-1763 # 91d <.Lline_table_start1+0x6f2>
   12860:	471d                	li	a4,7
   12862:	86a2                	mv	a3,s0
   12864:	fffff097          	auipc	ra,0xfffff
   12868:	8d0080e7          	jalr	-1840(ra) # 11134 <_ZN9allow_pin12full_dynamic15Buffer$LT$B$GT$5allow17hb1627d2b206e9fb0E>
   1286c:	8905                	andi	a0,a0,1
   1286e:	e91d                	bnez	a0,128a4 <_start+0x1726>
   12870:	58010513          	addi	a0,sp,1408
   12874:	04100593          	li	a1,65
   12878:	460d                	li	a2,3
   1287a:	4715                	li	a4,5
   1287c:	86a2                	mv	a3,s0
   1287e:	fffff097          	auipc	ra,0xfffff
   12882:	8b6080e7          	jalr	-1866(ra) # 11134 <_ZN9allow_pin12full_dynamic15Buffer$LT$B$GT$5allow17hb1627d2b206e9fb0E>
   12886:	8905                	andi	a0,a0,1
   12888:	ed11                	bnez	a0,128a4 <_start+0x1726>
   1288a:	6505                	lui	a0,0x1
   1288c:	459d                	li	a1,7
   1288e:	91d50513          	addi	a0,a0,-1763 # 91d <.Lline_table_start1+0x6f2>
   12892:	4615                	li	a2,5
   12894:	fffff097          	auipc	ra,0xfffff
   12898:	8dc080e7          	jalr	-1828(ra) # 11170 <_ZN9allow_pin7command17hdfcb5c5f4a3821c8E>
   1289c:	8905                	andi	a0,a0,1
   1289e:	e119                	bnez	a0,128a4 <_start+0x1726>
   128a0:	0110106f          	j	140b0 <_start+0x2f32>
   128a4:	84ae                	mv	s1,a1
   128a6:	4405                	li	s0,1
   128a8:	58010513          	addi	a0,sp,1408
   128ac:	00005097          	auipc	ra,0x5
   128b0:	bf0080e7          	jalr	-1040(ra) # 1749c <_ZN9allow_pin12full_dynamic17unshare_if_shared17ha9c848d8c301b74dE>
   128b4:	51c10513          	addi	a0,sp,1308
   128b8:	00005097          	auipc	ra,0x5
   128bc:	be4080e7          	jalr	-1052(ra) # 1749c <_ZN9allow_pin12full_dynamic17unshare_if_shared17ha9c848d8c301b74dE>
   128c0:	c019                	beqz	s0,128c6 <_start+0x1748>
   128c2:	2b50406f          	j	17376 <_start+0x61f8>
   128c6:	00005297          	auipc	t0,0x5
   128ca:	dda282e7          	jalr	t0,-550(t0) # 176a0 <OUTLINED_FUNCTION_10>
   128ce:	03a00613          	li	a2,58
   128d2:	00005097          	auipc	ra,0x5
   128d6:	ff8080e7          	jalr	-8(ra) # 178ca <memcpy>
   128da:	59310513          	addi	a0,sp,1427
   128de:	048c                	addi	a1,sp,576
   128e0:	03a00613          	li	a2,58
   128e4:	00005097          	auipc	ra,0x5
   128e8:	fe6080e7          	jalr	-26(ra) # 178ca <memcpy>
   128ec:	00005297          	auipc	t0,0x5
   128f0:	ca0282e7          	jalr	t0,-864(t0) # 1758c <OUTLINED_FUNCTION_4>
   128f4:	02200613          	li	a2,34
   128f8:	854a                	mv	a0,s2
   128fa:	4581                	li	a1,0
   128fc:	00005097          	auipc	ra,0x5
   12900:	f62080e7          	jalr	-158(ra) # 1785e <memset>
   12904:	00005297          	auipc	t0,0x5
   12908:	ef4282e7          	jalr	t0,-268(t0) # 177f8 <OUTLINED_FUNCTION_22>
   1290c:	04100593          	li	a1,65
   12910:	4611                	li	a2,4
   12912:	47c68413          	addi	s0,a3,1148
   12916:	4705                	li	a4,1
   12918:	4a05                	li	s4,1
   1291a:	86a2                	mv	a3,s0
   1291c:	fffff097          	auipc	ra,0xfffff
   12920:	818080e7          	jalr	-2024(ra) # 11134 <_ZN9allow_pin12full_dynamic15Buffer$LT$B$GT$5allow17hb1627d2b206e9fb0E>
   12924:	8905                	andi	a0,a0,1
   12926:	e91d                	bnez	a0,1295c <_start+0x17de>
   12928:	51c10513          	addi	a0,sp,1308
   1292c:	02200593          	li	a1,34
   12930:	460d                	li	a2,3
   12932:	86a2                	mv	a3,s0
   12934:	4701                	li	a4,0
   12936:	ffffe097          	auipc	ra,0xffffe
   1293a:	7fe080e7          	jalr	2046(ra) # 11134 <_ZN9allow_pin12full_dynamic15Buffer$LT$B$GT$5allow17hb1627d2b206e9fb0E>
   1293e:	8905                	andi	a0,a0,1
   12940:	ed11                	bnez	a0,1295c <_start+0x17de>
   12942:	6509                	lui	a0,0x2
   12944:	47c50513          	addi	a0,a0,1148 # 247c <.Lline_table_start1+0x2251>
   12948:	4585                	li	a1,1
   1294a:	4601                	li	a2,0
   1294c:	fffff097          	auipc	ra,0xfffff
   12950:	824080e7          	jalr	-2012(ra) # 11170 <_ZN9allow_pin7command17hdfcb5c5f4a3821c8E>
   12954:	8905                	andi	a0,a0,1
   12956:	e119                	bnez	a0,1295c <_start+0x17de>
   12958:	7980106f          	j	140f0 <_start+0x2f72>
   1295c:	84ae                	mv	s1,a1
   1295e:	51c10513          	addi	a0,sp,1308
   12962:	00005097          	auipc	ra,0x5
   12966:	b3a080e7          	jalr	-1222(ra) # 1749c <_ZN9allow_pin12full_dynamic17unshare_if_shared17ha9c848d8c301b74dE>
   1296a:	58010513          	addi	a0,sp,1408
   1296e:	00005097          	auipc	ra,0x5
   12972:	b2e080e7          	jalr	-1234(ra) # 1749c <_ZN9allow_pin12full_dynamic17unshare_if_shared17ha9c848d8c301b74dE>
   12976:	000a0463          	beqz	s4,1297e <_start+0x1800>
   1297a:	1fd0406f          	j	17376 <_start+0x61f8>
   1297e:	00005297          	auipc	t0,0x5
   12982:	d4e282e7          	jalr	t0,-690(t0) # 176cc <OUTLINED_FUNCTION_12>
   12986:	466d                	li	a2,27
   12988:	00005097          	auipc	ra,0x5
   1298c:	f42080e7          	jalr	-190(ra) # 178ca <memcpy>
   12990:	2af10513          	addi	a0,sp,687
   12994:	048c                	addi	a1,sp,576
   12996:	466d                	li	a2,27
   12998:	00005097          	auipc	ra,0x5
   1299c:	f32080e7          	jalr	-206(ra) # 178ca <memcpy>
   129a0:	00005297          	auipc	t0,0x5
   129a4:	c34282e7          	jalr	t0,-972(t0) # 175d4 <OUTLINED_FUNCTION_6>
   129a8:	05100613          	li	a2,81
   129ac:	854e                	mv	a0,s3
   129ae:	4581                	li	a1,0
   129b0:	00005097          	auipc	ra,0x5
   129b4:	eae080e7          	jalr	-338(ra) # 1785e <memset>
   129b8:	58810423          	sb	s0,1416(sp)
   129bc:	0d68                	addi	a0,sp,668
   129be:	02200593          	li	a1,34
   129c2:	4611                	li	a2,4
   129c4:	55e00693          	li	a3,1374
   129c8:	4725                	li	a4,9
   129ca:	ffffe097          	auipc	ra,0xffffe
   129ce:	76a080e7          	jalr	1898(ra) # 11134 <_ZN9allow_pin12full_dynamic15Buffer$LT$B$GT$5allow17hb1627d2b206e9fb0E>
   129d2:	8905                	andi	a0,a0,1
   129d4:	e91d                	bnez	a0,12a0a <_start+0x188c>
   129d6:	58010513          	addi	a0,sp,1408
   129da:	05100593          	li	a1,81
   129de:	460d                	li	a2,3
   129e0:	55e00693          	li	a3,1374
   129e4:	4725                	li	a4,9
   129e6:	ffffe097          	auipc	ra,0xffffe
   129ea:	74e080e7          	jalr	1870(ra) # 11134 <_ZN9allow_pin12full_dynamic15Buffer$LT$B$GT$5allow17hb1627d2b206e9fb0E>
   129ee:	8905                	andi	a0,a0,1
   129f0:	ed09                	bnez	a0,12a0a <_start+0x188c>
   129f2:	55e00513          	li	a0,1374
   129f6:	45a5                	li	a1,9
   129f8:	4625                	li	a2,9
   129fa:	ffffe097          	auipc	ra,0xffffe
   129fe:	776080e7          	jalr	1910(ra) # 11170 <_ZN9allow_pin7command17hdfcb5c5f4a3821c8E>
   12a02:	8905                	andi	a0,a0,1
   12a04:	e119                	bnez	a0,12a0a <_start+0x188c>
   12a06:	72e0106f          	j	14134 <_start+0x2fb6>
   12a0a:	84ae                	mv	s1,a1
   12a0c:	4405                	li	s0,1
   12a0e:	58010513          	addi	a0,sp,1408
   12a12:	00005097          	auipc	ra,0x5
   12a16:	a8a080e7          	jalr	-1398(ra) # 1749c <_ZN9allow_pin12full_dynamic17unshare_if_shared17ha9c848d8c301b74dE>
   12a1a:	0d68                	addi	a0,sp,668
   12a1c:	00005097          	auipc	ra,0x5
   12a20:	a80080e7          	jalr	-1408(ra) # 1749c <_ZN9allow_pin12full_dynamic17unshare_if_shared17ha9c848d8c301b74dE>
   12a24:	c019                	beqz	s0,12a2a <_start+0x18ac>
   12a26:	1510406f          	j	17376 <_start+0x61f8>
   12a2a:	00005297          	auipc	t0,0x5
   12a2e:	c5e282e7          	jalr	t0,-930(t0) # 17688 <OUTLINED_FUNCTION_9>
   12a32:	04a00613          	li	a2,74
   12a36:	00005097          	auipc	ra,0x5
   12a3a:	e94080e7          	jalr	-364(ra) # 178ca <memcpy>
   12a3e:	00005297          	auipc	t0,0x5
   12a42:	e12282e7          	jalr	t0,-494(t0) # 17850 <OUTLINED_FUNCTION_27>
   12a46:	00005097          	auipc	ra,0x5
   12a4a:	e84080e7          	jalr	-380(ra) # 178ca <memcpy>
   12a4e:	00005297          	auipc	t0,0x5
   12a52:	b3e282e7          	jalr	t0,-1218(t0) # 1758c <OUTLINED_FUNCTION_4>
   12a56:	04f00613          	li	a2,79
   12a5a:	854a                	mv	a0,s2
   12a5c:	4581                	li	a1,0
   12a5e:	00005097          	auipc	ra,0x5
   12a62:	e00080e7          	jalr	-512(ra) # 1785e <memset>
   12a66:	00005297          	auipc	t0,0x5
   12a6a:	d86282e7          	jalr	t0,-634(t0) # 177ec <OUTLINED_FUNCTION_21>
   12a6e:	05100593          	li	a1,81
   12a72:	4611                	li	a2,4
   12a74:	e1668413          	addi	s0,a3,-490
   12a78:	4709                	li	a4,2
   12a7a:	86a2                	mv	a3,s0
   12a7c:	ffffe097          	auipc	ra,0xffffe
   12a80:	6b8080e7          	jalr	1720(ra) # 11134 <_ZN9allow_pin12full_dynamic15Buffer$LT$B$GT$5allow17hb1627d2b206e9fb0E>
   12a84:	8905                	andi	a0,a0,1
   12a86:	e91d                	bnez	a0,12abc <_start+0x193e>
   12a88:	51c10513          	addi	a0,sp,1308
   12a8c:	04f00593          	li	a1,79
   12a90:	460d                	li	a2,3
   12a92:	4711                	li	a4,4
   12a94:	86a2                	mv	a3,s0
   12a96:	ffffe097          	auipc	ra,0xffffe
   12a9a:	69e080e7          	jalr	1694(ra) # 11134 <_ZN9allow_pin12full_dynamic15Buffer$LT$B$GT$5allow17hb1627d2b206e9fb0E>
   12a9e:	8905                	andi	a0,a0,1
   12aa0:	ed11                	bnez	a0,12abc <_start+0x193e>
   12aa2:	6505                	lui	a0,0x1
   12aa4:	4589                	li	a1,2
   12aa6:	e1650513          	addi	a0,a0,-490 # e16 <.Lline_table_start1+0xbeb>
   12aaa:	4611                	li	a2,4
   12aac:	ffffe097          	auipc	ra,0xffffe
   12ab0:	6c4080e7          	jalr	1732(ra) # 11170 <_ZN9allow_pin7command17hdfcb5c5f4a3821c8E>
   12ab4:	8905                	andi	a0,a0,1
   12ab6:	e119                	bnez	a0,12abc <_start+0x193e>
   12ab8:	6ba0106f          	j	14172 <_start+0x2ff4>
   12abc:	84ae                	mv	s1,a1
   12abe:	4405                	li	s0,1
   12ac0:	51c10513          	addi	a0,sp,1308
   12ac4:	00005097          	auipc	ra,0x5
   12ac8:	9d8080e7          	jalr	-1576(ra) # 1749c <_ZN9allow_pin12full_dynamic17unshare_if_shared17ha9c848d8c301b74dE>
   12acc:	58010513          	addi	a0,sp,1408
   12ad0:	00005097          	auipc	ra,0x5
   12ad4:	9cc080e7          	jalr	-1588(ra) # 1749c <_ZN9allow_pin12full_dynamic17unshare_if_shared17ha9c848d8c301b74dE>
   12ad8:	c019                	beqz	s0,12ade <_start+0x1960>
   12ada:	09d0406f          	j	17376 <_start+0x61f8>
   12ade:	00005297          	auipc	t0,0x5
   12ae2:	c2e282e7          	jalr	t0,-978(t0) # 1770c <OUTLINED_FUNCTION_15>
   12ae6:	0168                	addi	a0,sp,140
   12ae8:	048c                	addi	a1,sp,576
   12aea:	04800613          	li	a2,72
   12aee:	00005097          	auipc	ra,0x5
   12af2:	ddc080e7          	jalr	-548(ra) # 178ca <memcpy>
   12af6:	00005297          	auipc	t0,0x5
   12afa:	a96282e7          	jalr	t0,-1386(t0) # 1758c <OUTLINED_FUNCTION_4>
   12afe:	59310513          	addi	a0,sp,1427
   12b02:	016c                	addi	a1,sp,140
   12b04:	04800613          	li	a2,72
   12b08:	00005097          	auipc	ra,0x5
   12b0c:	dc2080e7          	jalr	-574(ra) # 178ca <memcpy>
   12b10:	03b00613          	li	a2,59
   12b14:	854a                	mv	a0,s2
   12b16:	4581                	li	a1,0
   12b18:	00005097          	auipc	ra,0x5
   12b1c:	d46080e7          	jalr	-698(ra) # 1785e <memset>
   12b20:	00005297          	auipc	t0,0x5
   12b24:	ccc282e7          	jalr	t0,-820(t0) # 177ec <OUTLINED_FUNCTION_21>
   12b28:	04f00593          	li	a1,79
   12b2c:	4611                	li	a2,4
   12b2e:	a0668413          	addi	s0,a3,-1530
   12b32:	4721                	li	a4,8
   12b34:	86a2                	mv	a3,s0
   12b36:	ffffe097          	auipc	ra,0xffffe
   12b3a:	5fe080e7          	jalr	1534(ra) # 11134 <_ZN9allow_pin12full_dynamic15Buffer$LT$B$GT$5allow17hb1627d2b206e9fb0E>
   12b3e:	8905                	andi	a0,a0,1
   12b40:	e91d                	bnez	a0,12b76 <_start+0x19f8>
   12b42:	51c10513          	addi	a0,sp,1308
   12b46:	03b00593          	li	a1,59
   12b4a:	460d                	li	a2,3
   12b4c:	4715                	li	a4,5
   12b4e:	86a2                	mv	a3,s0
   12b50:	ffffe097          	auipc	ra,0xffffe
   12b54:	5e4080e7          	jalr	1508(ra) # 11134 <_ZN9allow_pin12full_dynamic15Buffer$LT$B$GT$5allow17hb1627d2b206e9fb0E>
   12b58:	8905                	andi	a0,a0,1
   12b5a:	ed11                	bnez	a0,12b76 <_start+0x19f8>
   12b5c:	6505                	lui	a0,0x1
   12b5e:	45a1                	li	a1,8
   12b60:	a0650513          	addi	a0,a0,-1530 # a06 <.Lline_table_start1+0x7db>
   12b64:	4615                	li	a2,5
   12b66:	ffffe097          	auipc	ra,0xffffe
   12b6a:	60a080e7          	jalr	1546(ra) # 11170 <_ZN9allow_pin7command17hdfcb5c5f4a3821c8E>
   12b6e:	8905                	andi	a0,a0,1
   12b70:	e119                	bnez	a0,12b76 <_start+0x19f8>
   12b72:	6460106f          	j	141b8 <_start+0x303a>
   12b76:	84ae                	mv	s1,a1
   12b78:	4405                	li	s0,1
   12b7a:	51c10513          	addi	a0,sp,1308
   12b7e:	00005097          	auipc	ra,0x5
   12b82:	91e080e7          	jalr	-1762(ra) # 1749c <_ZN9allow_pin12full_dynamic17unshare_if_shared17ha9c848d8c301b74dE>
   12b86:	58010513          	addi	a0,sp,1408
   12b8a:	00005097          	auipc	ra,0x5
   12b8e:	912080e7          	jalr	-1774(ra) # 1749c <_ZN9allow_pin12full_dynamic17unshare_if_shared17ha9c848d8c301b74dE>
   12b92:	c019                	beqz	s0,12b98 <_start+0x1a1a>
   12b94:	7e20406f          	j	17376 <_start+0x61f8>
   12b98:	00005297          	auipc	t0,0x5
   12b9c:	b74282e7          	jalr	t0,-1164(t0) # 1770c <OUTLINED_FUNCTION_15>
   12ba0:	09c8                	addi	a0,sp,212
   12ba2:	048c                	addi	a1,sp,576
   12ba4:	03400613          	li	a2,52
   12ba8:	00005097          	auipc	ra,0x5
   12bac:	d22080e7          	jalr	-734(ra) # 178ca <memcpy>
   12bb0:	00005297          	auipc	t0,0x5
   12bb4:	9dc282e7          	jalr	t0,-1572(t0) # 1758c <OUTLINED_FUNCTION_4>
   12bb8:	59310513          	addi	a0,sp,1427
   12bbc:	09cc                	addi	a1,sp,212
   12bbe:	03400613          	li	a2,52
   12bc2:	00005097          	auipc	ra,0x5
   12bc6:	d08080e7          	jalr	-760(ra) # 178ca <memcpy>
   12bca:	02700613          	li	a2,39
   12bce:	854a                	mv	a0,s2
   12bd0:	4581                	li	a1,0
   12bd2:	00005097          	auipc	ra,0x5
   12bd6:	c8c080e7          	jalr	-884(ra) # 1785e <memset>
   12bda:	00005297          	auipc	t0,0x5
   12bde:	c12282e7          	jalr	t0,-1006(t0) # 177ec <OUTLINED_FUNCTION_21>
   12be2:	03b00593          	li	a1,59
   12be6:	4611                	li	a2,4
   12be8:	bd368413          	addi	s0,a3,-1069
   12bec:	4715                	li	a4,5
   12bee:	86a2                	mv	a3,s0
   12bf0:	ffffe097          	auipc	ra,0xffffe
   12bf4:	544080e7          	jalr	1348(ra) # 11134 <_ZN9allow_pin12full_dynamic15Buffer$LT$B$GT$5allow17hb1627d2b206e9fb0E>
   12bf8:	8905                	andi	a0,a0,1
   12bfa:	e91d                	bnez	a0,12c30 <_start+0x1ab2>
   12bfc:	51c10513          	addi	a0,sp,1308
   12c00:	02700593          	li	a1,39
   12c04:	460d                	li	a2,3
   12c06:	470d                	li	a4,3
   12c08:	86a2                	mv	a3,s0
   12c0a:	ffffe097          	auipc	ra,0xffffe
   12c0e:	52a080e7          	jalr	1322(ra) # 11134 <_ZN9allow_pin12full_dynamic15Buffer$LT$B$GT$5allow17hb1627d2b206e9fb0E>
   12c12:	8905                	andi	a0,a0,1
   12c14:	ed11                	bnez	a0,12c30 <_start+0x1ab2>
   12c16:	6505                	lui	a0,0x1
   12c18:	4595                	li	a1,5
   12c1a:	bd350513          	addi	a0,a0,-1069 # bd3 <.Lline_table_start1+0x9a8>
   12c1e:	460d                	li	a2,3
   12c20:	ffffe097          	auipc	ra,0xffffe
   12c24:	550080e7          	jalr	1360(ra) # 11170 <_ZN9allow_pin7command17hdfcb5c5f4a3821c8E>
   12c28:	8905                	andi	a0,a0,1
   12c2a:	e119                	bnez	a0,12c30 <_start+0x1ab2>
   12c2c:	5d20106f          	j	141fe <_start+0x3080>
   12c30:	84ae                	mv	s1,a1
   12c32:	4405                	li	s0,1
   12c34:	51c10513          	addi	a0,sp,1308
   12c38:	00005097          	auipc	ra,0x5
   12c3c:	864080e7          	jalr	-1948(ra) # 1749c <_ZN9allow_pin12full_dynamic17unshare_if_shared17ha9c848d8c301b74dE>
   12c40:	58010513          	addi	a0,sp,1408
   12c44:	00005097          	auipc	ra,0x5
   12c48:	858080e7          	jalr	-1960(ra) # 1749c <_ZN9allow_pin12full_dynamic17unshare_if_shared17ha9c848d8c301b74dE>
   12c4c:	c019                	beqz	s0,12c52 <_start+0x1ad4>
   12c4e:	7280406f          	j	17376 <_start+0x61f8>
   12c52:	00005297          	auipc	t0,0x5
   12c56:	aba282e7          	jalr	t0,-1350(t0) # 1770c <OUTLINED_FUNCTION_15>
   12c5a:	0228                	addi	a0,sp,264
   12c5c:	048c                	addi	a1,sp,576
   12c5e:	02000613          	li	a2,32
   12c62:	00005097          	auipc	ra,0x5
   12c66:	c68080e7          	jalr	-920(ra) # 178ca <memcpy>
   12c6a:	00005297          	auipc	t0,0x5
   12c6e:	922282e7          	jalr	t0,-1758(t0) # 1758c <OUTLINED_FUNCTION_4>
   12c72:	59310513          	addi	a0,sp,1427
   12c76:	022c                	addi	a1,sp,264
   12c78:	02000613          	li	a2,32
   12c7c:	00005097          	auipc	ra,0x5
   12c80:	c4e080e7          	jalr	-946(ra) # 178ca <memcpy>
   12c84:	4651                	li	a2,20
   12c86:	854a                	mv	a0,s2
   12c88:	4581                	li	a1,0
   12c8a:	00005097          	auipc	ra,0x5
   12c8e:	bd4080e7          	jalr	-1068(ra) # 1785e <memset>
   12c92:	00005297          	auipc	t0,0x5
   12c96:	b66282e7          	jalr	t0,-1178(t0) # 177f8 <OUTLINED_FUNCTION_22>
   12c9a:	02700593          	li	a1,39
   12c9e:	4611                	li	a2,4
   12ca0:	2c968413          	addi	s0,a3,713
   12ca4:	4719                	li	a4,6
   12ca6:	86a2                	mv	a3,s0
   12ca8:	ffffe097          	auipc	ra,0xffffe
   12cac:	48c080e7          	jalr	1164(ra) # 11134 <_ZN9allow_pin12full_dynamic15Buffer$LT$B$GT$5allow17hb1627d2b206e9fb0E>
   12cb0:	8905                	andi	a0,a0,1
   12cb2:	e915                	bnez	a0,12ce6 <_start+0x1b68>
   12cb4:	51c10513          	addi	a0,sp,1308
   12cb8:	45d1                	li	a1,20
   12cba:	460d                	li	a2,3
   12cbc:	4715                	li	a4,5
   12cbe:	86a2                	mv	a3,s0
   12cc0:	ffffe097          	auipc	ra,0xffffe
   12cc4:	474080e7          	jalr	1140(ra) # 11134 <_ZN9allow_pin12full_dynamic15Buffer$LT$B$GT$5allow17hb1627d2b206e9fb0E>
   12cc8:	8905                	andi	a0,a0,1
   12cca:	ed11                	bnez	a0,12ce6 <_start+0x1b68>
   12ccc:	6509                	lui	a0,0x2
   12cce:	4599                	li	a1,6
   12cd0:	2c950513          	addi	a0,a0,713 # 22c9 <.Lline_table_start1+0x209e>
   12cd4:	4615                	li	a2,5
   12cd6:	ffffe097          	auipc	ra,0xffffe
   12cda:	49a080e7          	jalr	1178(ra) # 11170 <_ZN9allow_pin7command17hdfcb5c5f4a3821c8E>
   12cde:	8905                	andi	a0,a0,1
   12ce0:	e119                	bnez	a0,12ce6 <_start+0x1b68>
   12ce2:	5620106f          	j	14244 <_start+0x30c6>
   12ce6:	84ae                	mv	s1,a1
   12ce8:	4405                	li	s0,1
   12cea:	51c10513          	addi	a0,sp,1308
   12cee:	00004097          	auipc	ra,0x4
   12cf2:	7ae080e7          	jalr	1966(ra) # 1749c <_ZN9allow_pin12full_dynamic17unshare_if_shared17ha9c848d8c301b74dE>
   12cf6:	58010513          	addi	a0,sp,1408
   12cfa:	00004097          	auipc	ra,0x4
   12cfe:	7a2080e7          	jalr	1954(ra) # 1749c <_ZN9allow_pin12full_dynamic17unshare_if_shared17ha9c848d8c301b74dE>
   12d02:	c019                	beqz	s0,12d08 <_start+0x1b8a>
   12d04:	6720406f          	j	17376 <_start+0x61f8>
   12d08:	4a811503          	lh	a0,1192(sp)
   12d0c:	4aa14583          	lbu	a1,1194(sp)
   12d10:	24a11623          	sh	a0,588(sp)
   12d14:	24b10723          	sb	a1,590(sp)
   12d18:	0614                	addi	a3,sp,768
   12d1a:	42e8                	lw	a0,68(a3)
   12d1c:	46ac                	lw	a1,72(a3)
   12d1e:	46f0                	lw	a2,76(a3)
   12d20:	35014683          	lbu	a3,848(sp)
   12d24:	0518                	addi	a4,sp,640
   12d26:	cf48                	sw	a0,28(a4)
   12d28:	d30c                	sw	a1,32(a4)
   12d2a:	d350                	sw	a2,36(a4)
   12d2c:	2ad10423          	sb	a3,680(sp)
   12d30:	25310513          	addi	a0,sp,595
   12d34:	0d6c                	addi	a1,sp,668
   12d36:	4635                	li	a2,13
   12d38:	00005097          	auipc	ra,0x5
   12d3c:	b92080e7          	jalr	-1134(ra) # 178ca <memcpy>
   12d40:	00005297          	auipc	t0,0x5
   12d44:	8b8282e7          	jalr	t0,-1864(t0) # 175f8 <OUTLINED_FUNCTION_7>
   12d48:	02b00613          	li	a2,43
   12d4c:	854e                	mv	a0,s3
   12d4e:	4581                	li	a1,0
   12d50:	00005097          	auipc	ra,0x5
   12d54:	b0e080e7          	jalr	-1266(ra) # 1785e <memset>
   12d58:	58810423          	sb	s0,1416(sp)
   12d5c:	6689                	lui	a3,0x2
   12d5e:	0488                	addi	a0,sp,576
   12d60:	45d1                	li	a1,20
   12d62:	4611                	li	a2,4
   12d64:	39f68413          	addi	s0,a3,927 # 239f <.Lline_table_start1+0x2174>
   12d68:	4721                	li	a4,8
   12d6a:	86a2                	mv	a3,s0
   12d6c:	ffffe097          	auipc	ra,0xffffe
   12d70:	3c8080e7          	jalr	968(ra) # 11134 <_ZN9allow_pin12full_dynamic15Buffer$LT$B$GT$5allow17hb1627d2b206e9fb0E>
   12d74:	8905                	andi	a0,a0,1
   12d76:	e91d                	bnez	a0,12dac <_start+0x1c2e>
   12d78:	58010513          	addi	a0,sp,1408
   12d7c:	02b00593          	li	a1,43
   12d80:	460d                	li	a2,3
   12d82:	4711                	li	a4,4
   12d84:	86a2                	mv	a3,s0
   12d86:	ffffe097          	auipc	ra,0xffffe
   12d8a:	3ae080e7          	jalr	942(ra) # 11134 <_ZN9allow_pin12full_dynamic15Buffer$LT$B$GT$5allow17hb1627d2b206e9fb0E>
   12d8e:	8905                	andi	a0,a0,1
   12d90:	ed11                	bnez	a0,12dac <_start+0x1c2e>
   12d92:	6509                	lui	a0,0x2
   12d94:	45a1                	li	a1,8
   12d96:	39f50513          	addi	a0,a0,927 # 239f <.Lline_table_start1+0x2174>
   12d9a:	4611                	li	a2,4
   12d9c:	ffffe097          	auipc	ra,0xffffe
   12da0:	3d4080e7          	jalr	980(ra) # 11170 <_ZN9allow_pin7command17hdfcb5c5f4a3821c8E>
   12da4:	8905                	andi	a0,a0,1
   12da6:	e119                	bnez	a0,12dac <_start+0x1c2e>
   12da8:	56e0106f          	j	14316 <_start+0x3198>
   12dac:	84ae                	mv	s1,a1
   12dae:	4405                	li	s0,1
   12db0:	58010513          	addi	a0,sp,1408
   12db4:	00004097          	auipc	ra,0x4
   12db8:	6e8080e7          	jalr	1768(ra) # 1749c <_ZN9allow_pin12full_dynamic17unshare_if_shared17ha9c848d8c301b74dE>
   12dbc:	0488                	addi	a0,sp,576
   12dbe:	00004097          	auipc	ra,0x4
   12dc2:	6de080e7          	jalr	1758(ra) # 1749c <_ZN9allow_pin12full_dynamic17unshare_if_shared17ha9c848d8c301b74dE>
   12dc6:	c019                	beqz	s0,12dcc <_start+0x1c4e>
   12dc8:	5ae0406f          	j	17376 <_start+0x61f8>
   12dcc:	00005297          	auipc	t0,0x5
   12dd0:	940282e7          	jalr	t0,-1728(t0) # 1770c <OUTLINED_FUNCTION_15>
   12dd4:	1228                	addi	a0,sp,296
   12dd6:	51c10593          	addi	a1,sp,1308
   12dda:	02400613          	li	a2,36
   12dde:	00005097          	auipc	ra,0x5
   12de2:	aec080e7          	jalr	-1300(ra) # 178ca <memcpy>
   12de6:	00004297          	auipc	t0,0x4
   12dea:	7a6282e7          	jalr	t0,1958(t0) # 1758c <OUTLINED_FUNCTION_4>
   12dee:	59310513          	addi	a0,sp,1427
   12df2:	122c                	addi	a1,sp,296
   12df4:	02400613          	li	a2,36
   12df8:	00005097          	auipc	ra,0x5
   12dfc:	ad2080e7          	jalr	-1326(ra) # 178ca <memcpy>
   12e00:	4679                	li	a2,30
   12e02:	854a                	mv	a0,s2
   12e04:	4581                	li	a1,0
   12e06:	00005097          	auipc	ra,0x5
   12e0a:	a58080e7          	jalr	-1448(ra) # 1785e <memset>
   12e0e:	52810223          	sb	s0,1316(sp)
   12e12:	58010513          	addi	a0,sp,1408
   12e16:	02b00593          	li	a1,43
   12e1a:	4611                	li	a2,4
   12e1c:	7e300693          	li	a3,2019
   12e20:	471d                	li	a4,7
   12e22:	ffffe097          	auipc	ra,0xffffe
   12e26:	312080e7          	jalr	786(ra) # 11134 <_ZN9allow_pin12full_dynamic15Buffer$LT$B$GT$5allow17hb1627d2b206e9fb0E>
   12e2a:	8905                	andi	a0,a0,1
   12e2c:	e915                	bnez	a0,12e60 <_start+0x1ce2>
   12e2e:	51c10513          	addi	a0,sp,1308
   12e32:	45f9                	li	a1,30
   12e34:	460d                	li	a2,3
   12e36:	7e300693          	li	a3,2019
   12e3a:	4721                	li	a4,8
   12e3c:	ffffe097          	auipc	ra,0xffffe
   12e40:	2f8080e7          	jalr	760(ra) # 11134 <_ZN9allow_pin12full_dynamic15Buffer$LT$B$GT$5allow17hb1627d2b206e9fb0E>
   12e44:	8905                	andi	a0,a0,1
   12e46:	ed09                	bnez	a0,12e60 <_start+0x1ce2>
   12e48:	7e300513          	li	a0,2019
   12e4c:	459d                	li	a1,7
   12e4e:	4621                	li	a2,8
   12e50:	ffffe097          	auipc	ra,0xffffe
   12e54:	320080e7          	jalr	800(ra) # 11170 <_ZN9allow_pin7command17hdfcb5c5f4a3821c8E>
   12e58:	8905                	andi	a0,a0,1
   12e5a:	e119                	bnez	a0,12e60 <_start+0x1ce2>
   12e5c:	4fe0106f          	j	1435a <_start+0x31dc>
   12e60:	84ae                	mv	s1,a1
   12e62:	4405                	li	s0,1
   12e64:	51c10513          	addi	a0,sp,1308
   12e68:	00004097          	auipc	ra,0x4
   12e6c:	634080e7          	jalr	1588(ra) # 1749c <_ZN9allow_pin12full_dynamic17unshare_if_shared17ha9c848d8c301b74dE>
   12e70:	58010513          	addi	a0,sp,1408
   12e74:	00004097          	auipc	ra,0x4
   12e78:	628080e7          	jalr	1576(ra) # 1749c <_ZN9allow_pin12full_dynamic17unshare_if_shared17ha9c848d8c301b74dE>
   12e7c:	c019                	beqz	s0,12e82 <_start+0x1d04>
   12e7e:	4f80406f          	j	17376 <_start+0x61f8>
   12e82:	00005297          	auipc	t0,0x5
   12e86:	84a282e7          	jalr	t0,-1974(t0) # 176cc <OUTLINED_FUNCTION_12>
   12e8a:	465d                	li	a2,23
   12e8c:	00005097          	auipc	ra,0x5
   12e90:	a3e080e7          	jalr	-1474(ra) # 178ca <memcpy>
   12e94:	2af10513          	addi	a0,sp,687
   12e98:	048c                	addi	a1,sp,576
   12e9a:	465d                	li	a2,23
   12e9c:	00005097          	auipc	ra,0x5
   12ea0:	a2e080e7          	jalr	-1490(ra) # 178ca <memcpy>
   12ea4:	00004297          	auipc	t0,0x4
   12ea8:	730282e7          	jalr	t0,1840(t0) # 175d4 <OUTLINED_FUNCTION_6>
   12eac:	05100613          	li	a2,81
   12eb0:	854e                	mv	a0,s3
   12eb2:	4581                	li	a1,0
   12eb4:	00005097          	auipc	ra,0x5
   12eb8:	9aa080e7          	jalr	-1622(ra) # 1785e <memset>
   12ebc:	58810423          	sb	s0,1416(sp)
   12ec0:	6689                	lui	a3,0x2
   12ec2:	0d68                	addi	a0,sp,668
   12ec4:	45f9                	li	a1,30
   12ec6:	4611                	li	a2,4
   12ec8:	96b68413          	addi	s0,a3,-1685 # 196b <.Lline_table_start1+0x1740>
   12ecc:	4709                	li	a4,2
   12ece:	86a2                	mv	a3,s0
   12ed0:	ffffe097          	auipc	ra,0xffffe
   12ed4:	264080e7          	jalr	612(ra) # 11134 <_ZN9allow_pin12full_dynamic15Buffer$LT$B$GT$5allow17hb1627d2b206e9fb0E>
   12ed8:	8905                	andi	a0,a0,1
   12eda:	e91d                	bnez	a0,12f10 <_start+0x1d92>
   12edc:	58010513          	addi	a0,sp,1408
   12ee0:	05100593          	li	a1,81
   12ee4:	460d                	li	a2,3
   12ee6:	86a2                	mv	a3,s0
   12ee8:	4701                	li	a4,0
   12eea:	ffffe097          	auipc	ra,0xffffe
   12eee:	24a080e7          	jalr	586(ra) # 11134 <_ZN9allow_pin12full_dynamic15Buffer$LT$B$GT$5allow17hb1627d2b206e9fb0E>
   12ef2:	8905                	andi	a0,a0,1
   12ef4:	ed11                	bnez	a0,12f10 <_start+0x1d92>
   12ef6:	6509                	lui	a0,0x2
   12ef8:	96b50513          	addi	a0,a0,-1685 # 196b <.Lline_table_start1+0x1740>
   12efc:	4589                	li	a1,2
   12efe:	4601                	li	a2,0
   12f00:	ffffe097          	auipc	ra,0xffffe
   12f04:	270080e7          	jalr	624(ra) # 11170 <_ZN9allow_pin7command17hdfcb5c5f4a3821c8E>
   12f08:	8905                	andi	a0,a0,1
   12f0a:	e119                	bnez	a0,12f10 <_start+0x1d92>
   12f0c:	4920106f          	j	1439e <_start+0x3220>
   12f10:	84ae                	mv	s1,a1
   12f12:	4405                	li	s0,1
   12f14:	58010513          	addi	a0,sp,1408
   12f18:	00004097          	auipc	ra,0x4
   12f1c:	584080e7          	jalr	1412(ra) # 1749c <_ZN9allow_pin12full_dynamic17unshare_if_shared17ha9c848d8c301b74dE>
   12f20:	0d68                	addi	a0,sp,668
   12f22:	00004097          	auipc	ra,0x4
   12f26:	57a080e7          	jalr	1402(ra) # 1749c <_ZN9allow_pin12full_dynamic17unshare_if_shared17ha9c848d8c301b74dE>
   12f2a:	c019                	beqz	s0,12f30 <_start+0x1db2>
   12f2c:	44a0406f          	j	17376 <_start+0x61f8>
   12f30:	00004297          	auipc	t0,0x4
   12f34:	758282e7          	jalr	t0,1880(t0) # 17688 <OUTLINED_FUNCTION_9>
   12f38:	04a00613          	li	a2,74
   12f3c:	00005097          	auipc	ra,0x5
   12f40:	98e080e7          	jalr	-1650(ra) # 178ca <memcpy>
   12f44:	00005297          	auipc	t0,0x5
   12f48:	90c282e7          	jalr	t0,-1780(t0) # 17850 <OUTLINED_FUNCTION_27>
   12f4c:	00005097          	auipc	ra,0x5
   12f50:	97e080e7          	jalr	-1666(ra) # 178ca <memcpy>
   12f54:	00004297          	auipc	t0,0x4
   12f58:	638282e7          	jalr	t0,1592(t0) # 1758c <OUTLINED_FUNCTION_4>
   12f5c:	463d                	li	a2,15
   12f5e:	854a                	mv	a0,s2
   12f60:	4581                	li	a1,0
   12f62:	00005097          	auipc	ra,0x5
   12f66:	8fc080e7          	jalr	-1796(ra) # 1785e <memset>
   12f6a:	52810223          	sb	s0,1316(sp)
   12f6e:	6605                	lui	a2,0x1
   12f70:	58010513          	addi	a0,sp,1408
   12f74:	05100593          	li	a1,81
   12f78:	3bf60413          	addi	s0,a2,959 # 13bf <.Lline_table_start1+0x1194>
   12f7c:	4611                	li	a2,4
   12f7e:	86a2                	mv	a3,s0
   12f80:	4701                	li	a4,0
   12f82:	ffffe097          	auipc	ra,0xffffe
   12f86:	1b2080e7          	jalr	434(ra) # 11134 <_ZN9allow_pin12full_dynamic15Buffer$LT$B$GT$5allow17hb1627d2b206e9fb0E>
   12f8a:	8905                	andi	a0,a0,1
   12f8c:	e915                	bnez	a0,12fc0 <_start+0x1e42>
   12f8e:	51c10513          	addi	a0,sp,1308
   12f92:	45bd                	li	a1,15
   12f94:	460d                	li	a2,3
   12f96:	470d                	li	a4,3
   12f98:	86a2                	mv	a3,s0
   12f9a:	ffffe097          	auipc	ra,0xffffe
   12f9e:	19a080e7          	jalr	410(ra) # 11134 <_ZN9allow_pin12full_dynamic15Buffer$LT$B$GT$5allow17hb1627d2b206e9fb0E>
   12fa2:	8905                	andi	a0,a0,1
   12fa4:	ed11                	bnez	a0,12fc0 <_start+0x1e42>
   12fa6:	6505                	lui	a0,0x1
   12fa8:	3bf50513          	addi	a0,a0,959 # 13bf <.Lline_table_start1+0x1194>
   12fac:	460d                	li	a2,3
   12fae:	4581                	li	a1,0
   12fb0:	ffffe097          	auipc	ra,0xffffe
   12fb4:	1c0080e7          	jalr	448(ra) # 11170 <_ZN9allow_pin7command17hdfcb5c5f4a3821c8E>
   12fb8:	8905                	andi	a0,a0,1
   12fba:	e119                	bnez	a0,12fc0 <_start+0x1e42>
   12fbc:	4200106f          	j	143dc <_start+0x325e>
   12fc0:	84ae                	mv	s1,a1
   12fc2:	4a05                	li	s4,1
   12fc4:	51c10513          	addi	a0,sp,1308
   12fc8:	00004097          	auipc	ra,0x4
   12fcc:	4d4080e7          	jalr	1236(ra) # 1749c <_ZN9allow_pin12full_dynamic17unshare_if_shared17ha9c848d8c301b74dE>
   12fd0:	58010513          	addi	a0,sp,1408
   12fd4:	00004097          	auipc	ra,0x4
   12fd8:	4c8080e7          	jalr	1224(ra) # 1749c <_ZN9allow_pin12full_dynamic17unshare_if_shared17ha9c848d8c301b74dE>
   12fdc:	000a0463          	beqz	s4,12fe4 <_start+0x1e66>
   12fe0:	3960406f          	j	17376 <_start+0x61f8>
   12fe4:	00004297          	auipc	t0,0x4
   12fe8:	638282e7          	jalr	t0,1592(t0) # 1761c <OUTLINED_FUNCTION_8>
   12fec:	04600613          	li	a2,70
   12ff0:	854e                	mv	a0,s3
   12ff2:	4581                	li	a1,0
   12ff4:	00005097          	auipc	ra,0x5
   12ff8:	86a080e7          	jalr	-1942(ra) # 1785e <memset>
   12ffc:	59410423          	sb	s4,1416(sp)
   13000:	6689                	lui	a3,0x2
   13002:	51c10513          	addi	a0,sp,1308
   13006:	45bd                	li	a1,15
   13008:	4611                	li	a2,4
   1300a:	d7e68413          	addi	s0,a3,-642 # 1d7e <.Lline_table_start1+0x1b53>
   1300e:	4725                	li	a4,9
   13010:	86a2                	mv	a3,s0
   13012:	ffffe097          	auipc	ra,0xffffe
   13016:	122080e7          	jalr	290(ra) # 11134 <_ZN9allow_pin12full_dynamic15Buffer$LT$B$GT$5allow17hb1627d2b206e9fb0E>
   1301a:	8905                	andi	a0,a0,1
   1301c:	e91d                	bnez	a0,13052 <_start+0x1ed4>
   1301e:	58010513          	addi	a0,sp,1408
   13022:	04600593          	li	a1,70
   13026:	460d                	li	a2,3
   13028:	4709                	li	a4,2
   1302a:	86a2                	mv	a3,s0
   1302c:	ffffe097          	auipc	ra,0xffffe
   13030:	108080e7          	jalr	264(ra) # 11134 <_ZN9allow_pin12full_dynamic15Buffer$LT$B$GT$5allow17hb1627d2b206e9fb0E>
   13034:	8905                	andi	a0,a0,1
   13036:	ed11                	bnez	a0,13052 <_start+0x1ed4>
   13038:	6509                	lui	a0,0x2
   1303a:	45a5                	li	a1,9
   1303c:	d7e50513          	addi	a0,a0,-642 # 1d7e <.Lline_table_start1+0x1b53>
   13040:	4609                	li	a2,2
   13042:	ffffe097          	auipc	ra,0xffffe
   13046:	12e080e7          	jalr	302(ra) # 11170 <_ZN9allow_pin7command17hdfcb5c5f4a3821c8E>
   1304a:	8905                	andi	a0,a0,1
   1304c:	e119                	bnez	a0,13052 <_start+0x1ed4>
   1304e:	3fc0106f          	j	1444a <_start+0x32cc>
   13052:	84ae                	mv	s1,a1
   13054:	4405                	li	s0,1
   13056:	58010513          	addi	a0,sp,1408
   1305a:	00004097          	auipc	ra,0x4
   1305e:	442080e7          	jalr	1090(ra) # 1749c <_ZN9allow_pin12full_dynamic17unshare_if_shared17ha9c848d8c301b74dE>
   13062:	51c10513          	addi	a0,sp,1308
   13066:	00004097          	auipc	ra,0x4
   1306a:	436080e7          	jalr	1078(ra) # 1749c <_ZN9allow_pin12full_dynamic17unshare_if_shared17ha9c848d8c301b74dE>
   1306e:	c019                	beqz	s0,13074 <_start+0x1ef6>
   13070:	3060406f          	j	17376 <_start+0x61f8>
   13074:	00004297          	auipc	t0,0x4
   13078:	642282e7          	jalr	t0,1602(t0) # 176b6 <OUTLINED_FUNCTION_11>
   1307c:	03f00613          	li	a2,63
   13080:	00005097          	auipc	ra,0x5
   13084:	84a080e7          	jalr	-1974(ra) # 178ca <memcpy>
   13088:	52f10513          	addi	a0,sp,1327
   1308c:	048c                	addi	a1,sp,576
   1308e:	03f00613          	li	a2,63
   13092:	00005097          	auipc	ra,0x5
   13096:	838080e7          	jalr	-1992(ra) # 178ca <memcpy>
   1309a:	00004297          	auipc	t0,0x4
   1309e:	516282e7          	jalr	t0,1302(t0) # 175b0 <OUTLINED_FUNCTION_5>
   130a2:	05600613          	li	a2,86
   130a6:	854e                	mv	a0,s3
   130a8:	4581                	li	a1,0
   130aa:	00004097          	auipc	ra,0x4
   130ae:	7b4080e7          	jalr	1972(ra) # 1785e <memset>
   130b2:	58810423          	sb	s0,1416(sp)
   130b6:	6689                	lui	a3,0x2
   130b8:	51c10513          	addi	a0,sp,1308
   130bc:	04600593          	li	a1,70
   130c0:	4611                	li	a2,4
   130c2:	e5068413          	addi	s0,a3,-432 # 1e50 <.Lline_table_start1+0x1c25>
   130c6:	471d                	li	a4,7
   130c8:	86a2                	mv	a3,s0
   130ca:	ffffe097          	auipc	ra,0xffffe
   130ce:	06a080e7          	jalr	106(ra) # 11134 <_ZN9allow_pin12full_dynamic15Buffer$LT$B$GT$5allow17hb1627d2b206e9fb0E>
   130d2:	8905                	andi	a0,a0,1
   130d4:	e91d                	bnez	a0,1310a <_start+0x1f8c>
   130d6:	58010513          	addi	a0,sp,1408
   130da:	05600593          	li	a1,86
   130de:	460d                	li	a2,3
   130e0:	470d                	li	a4,3
   130e2:	86a2                	mv	a3,s0
   130e4:	ffffe097          	auipc	ra,0xffffe
   130e8:	050080e7          	jalr	80(ra) # 11134 <_ZN9allow_pin12full_dynamic15Buffer$LT$B$GT$5allow17hb1627d2b206e9fb0E>
   130ec:	8905                	andi	a0,a0,1
   130ee:	ed11                	bnez	a0,1310a <_start+0x1f8c>
   130f0:	6509                	lui	a0,0x2
   130f2:	459d                	li	a1,7
   130f4:	e5050513          	addi	a0,a0,-432 # 1e50 <.Lline_table_start1+0x1c25>
   130f8:	460d                	li	a2,3
   130fa:	ffffe097          	auipc	ra,0xffffe
   130fe:	076080e7          	jalr	118(ra) # 11170 <_ZN9allow_pin7command17hdfcb5c5f4a3821c8E>
   13102:	8905                	andi	a0,a0,1
   13104:	e119                	bnez	a0,1310a <_start+0x1f8c>
   13106:	3840106f          	j	1448a <_start+0x330c>
   1310a:	84ae                	mv	s1,a1
   1310c:	4405                	li	s0,1
   1310e:	58010513          	addi	a0,sp,1408
   13112:	00004097          	auipc	ra,0x4
   13116:	38a080e7          	jalr	906(ra) # 1749c <_ZN9allow_pin12full_dynamic17unshare_if_shared17ha9c848d8c301b74dE>
   1311a:	51c10513          	addi	a0,sp,1308
   1311e:	00004097          	auipc	ra,0x4
   13122:	37e080e7          	jalr	894(ra) # 1749c <_ZN9allow_pin12full_dynamic17unshare_if_shared17ha9c848d8c301b74dE>
   13126:	c019                	beqz	s0,1312c <_start+0x1fae>
   13128:	24e0406f          	j	17376 <_start+0x61f8>
   1312c:	00004297          	auipc	t0,0x4
   13130:	574282e7          	jalr	t0,1396(t0) # 176a0 <OUTLINED_FUNCTION_10>
   13134:	04f00613          	li	a2,79
   13138:	00004097          	auipc	ra,0x4
   1313c:	792080e7          	jalr	1938(ra) # 178ca <memcpy>
   13140:	59310513          	addi	a0,sp,1427
   13144:	048c                	addi	a1,sp,576
   13146:	04f00613          	li	a2,79
   1314a:	00004097          	auipc	ra,0x4
   1314e:	780080e7          	jalr	1920(ra) # 178ca <memcpy>
   13152:	00004297          	auipc	t0,0x4
   13156:	43a282e7          	jalr	t0,1082(t0) # 1758c <OUTLINED_FUNCTION_4>
   1315a:	04900613          	li	a2,73
   1315e:	854a                	mv	a0,s2
   13160:	4581                	li	a1,0
   13162:	00004097          	auipc	ra,0x4
   13166:	6fc080e7          	jalr	1788(ra) # 1785e <memset>
   1316a:	00004297          	auipc	t0,0x4
   1316e:	68e282e7          	jalr	t0,1678(t0) # 177f8 <OUTLINED_FUNCTION_22>
   13172:	05600593          	li	a1,86
   13176:	4611                	li	a2,4
   13178:	c6b68413          	addi	s0,a3,-917
   1317c:	4719                	li	a4,6
   1317e:	86a2                	mv	a3,s0
   13180:	ffffe097          	auipc	ra,0xffffe
   13184:	fb4080e7          	jalr	-76(ra) # 11134 <_ZN9allow_pin12full_dynamic15Buffer$LT$B$GT$5allow17hb1627d2b206e9fb0E>
   13188:	8905                	andi	a0,a0,1
   1318a:	e91d                	bnez	a0,131c0 <_start+0x2042>
   1318c:	51c10513          	addi	a0,sp,1308
   13190:	04900593          	li	a1,73
   13194:	460d                	li	a2,3
   13196:	4719                	li	a4,6
   13198:	86a2                	mv	a3,s0
   1319a:	ffffe097          	auipc	ra,0xffffe
   1319e:	f9a080e7          	jalr	-102(ra) # 11134 <_ZN9allow_pin12full_dynamic15Buffer$LT$B$GT$5allow17hb1627d2b206e9fb0E>
   131a2:	8905                	andi	a0,a0,1
   131a4:	ed11                	bnez	a0,131c0 <_start+0x2042>
   131a6:	6509                	lui	a0,0x2
   131a8:	4599                	li	a1,6
   131aa:	c6b50513          	addi	a0,a0,-917 # 1c6b <.Lline_table_start1+0x1a40>
   131ae:	4619                	li	a2,6
   131b0:	ffffe097          	auipc	ra,0xffffe
   131b4:	fc0080e7          	jalr	-64(ra) # 11170 <_ZN9allow_pin7command17hdfcb5c5f4a3821c8E>
   131b8:	8905                	andi	a0,a0,1
   131ba:	e119                	bnez	a0,131c0 <_start+0x2042>
   131bc:	30e0106f          	j	144ca <_start+0x334c>
   131c0:	84ae                	mv	s1,a1
   131c2:	4405                	li	s0,1
   131c4:	51c10513          	addi	a0,sp,1308
   131c8:	00004097          	auipc	ra,0x4
   131cc:	2d4080e7          	jalr	724(ra) # 1749c <_ZN9allow_pin12full_dynamic17unshare_if_shared17ha9c848d8c301b74dE>
   131d0:	58010513          	addi	a0,sp,1408
   131d4:	00004097          	auipc	ra,0x4
   131d8:	2c8080e7          	jalr	712(ra) # 1749c <_ZN9allow_pin12full_dynamic17unshare_if_shared17ha9c848d8c301b74dE>
   131dc:	c019                	beqz	s0,131e2 <_start+0x2064>
   131de:	1980406f          	j	17376 <_start+0x61f8>
   131e2:	00004297          	auipc	t0,0x4
   131e6:	4be282e7          	jalr	t0,1214(t0) # 176a0 <OUTLINED_FUNCTION_10>
   131ea:	04200613          	li	a2,66
   131ee:	00004097          	auipc	ra,0x4
   131f2:	6dc080e7          	jalr	1756(ra) # 178ca <memcpy>
   131f6:	59310513          	addi	a0,sp,1427
   131fa:	048c                	addi	a1,sp,576
   131fc:	04200613          	li	a2,66
   13200:	00004097          	auipc	ra,0x4
   13204:	6ca080e7          	jalr	1738(ra) # 178ca <memcpy>
   13208:	00004297          	auipc	t0,0x4
   1320c:	384282e7          	jalr	t0,900(t0) # 1758c <OUTLINED_FUNCTION_4>
   13210:	02300613          	li	a2,35
   13214:	854a                	mv	a0,s2
   13216:	4581                	li	a1,0
   13218:	00004097          	auipc	ra,0x4
   1321c:	646080e7          	jalr	1606(ra) # 1785e <memset>
   13220:	00004297          	auipc	t0,0x4
   13224:	5cc282e7          	jalr	t0,1484(t0) # 177ec <OUTLINED_FUNCTION_21>
   13228:	04900593          	li	a1,73
   1322c:	4611                	li	a2,4
   1322e:	55168413          	addi	s0,a3,1361
   13232:	471d                	li	a4,7
   13234:	86a2                	mv	a3,s0
   13236:	ffffe097          	auipc	ra,0xffffe
   1323a:	efe080e7          	jalr	-258(ra) # 11134 <_ZN9allow_pin12full_dynamic15Buffer$LT$B$GT$5allow17hb1627d2b206e9fb0E>
   1323e:	8905                	andi	a0,a0,1
   13240:	e91d                	bnez	a0,13276 <_start+0x20f8>
   13242:	51c10513          	addi	a0,sp,1308
   13246:	02300593          	li	a1,35
   1324a:	460d                	li	a2,3
   1324c:	4705                	li	a4,1
   1324e:	86a2                	mv	a3,s0
   13250:	ffffe097          	auipc	ra,0xffffe
   13254:	ee4080e7          	jalr	-284(ra) # 11134 <_ZN9allow_pin12full_dynamic15Buffer$LT$B$GT$5allow17hb1627d2b206e9fb0E>
   13258:	8905                	andi	a0,a0,1
   1325a:	ed11                	bnez	a0,13276 <_start+0x20f8>
   1325c:	6505                	lui	a0,0x1
   1325e:	459d                	li	a1,7
   13260:	55150513          	addi	a0,a0,1361 # 1551 <.Lline_table_start1+0x1326>
   13264:	4605                	li	a2,1
   13266:	ffffe097          	auipc	ra,0xffffe
   1326a:	f0a080e7          	jalr	-246(ra) # 11170 <_ZN9allow_pin7command17hdfcb5c5f4a3821c8E>
   1326e:	8905                	andi	a0,a0,1
   13270:	e119                	bnez	a0,13276 <_start+0x20f8>
   13272:	2960106f          	j	14508 <_start+0x338a>
   13276:	84ae                	mv	s1,a1
   13278:	4405                	li	s0,1
   1327a:	51c10513          	addi	a0,sp,1308
   1327e:	00004097          	auipc	ra,0x4
   13282:	21e080e7          	jalr	542(ra) # 1749c <_ZN9allow_pin12full_dynamic17unshare_if_shared17ha9c848d8c301b74dE>
   13286:	58010513          	addi	a0,sp,1408
   1328a:	00004097          	auipc	ra,0x4
   1328e:	212080e7          	jalr	530(ra) # 1749c <_ZN9allow_pin12full_dynamic17unshare_if_shared17ha9c848d8c301b74dE>
   13292:	c019                	beqz	s0,13298 <_start+0x211a>
   13294:	0e20406f          	j	17376 <_start+0x61f8>
   13298:	00004297          	auipc	t0,0x4
   1329c:	56c282e7          	jalr	t0,1388(t0) # 17804 <OUTLINED_FUNCTION_23>
   132a0:	02e8                	addi	a0,sp,332
   132a2:	048c                	addi	a1,sp,576
   132a4:	4671                	li	a2,28
   132a6:	00004097          	auipc	ra,0x4
   132aa:	624080e7          	jalr	1572(ra) # 178ca <memcpy>
   132ae:	00004297          	auipc	t0,0x4
   132b2:	302282e7          	jalr	t0,770(t0) # 175b0 <OUTLINED_FUNCTION_5>
   132b6:	52f10513          	addi	a0,sp,1327
   132ba:	02ec                	addi	a1,sp,332
   132bc:	4671                	li	a2,28
   132be:	00004097          	auipc	ra,0x4
   132c2:	60c080e7          	jalr	1548(ra) # 178ca <memcpy>
   132c6:	02b00613          	li	a2,43
   132ca:	854e                	mv	a0,s3
   132cc:	4581                	li	a1,0
   132ce:	00004097          	auipc	ra,0x4
   132d2:	590080e7          	jalr	1424(ra) # 1785e <memset>
   132d6:	58810423          	sb	s0,1416(sp)
   132da:	6685                	lui	a3,0x1
   132dc:	51c10513          	addi	a0,sp,1308
   132e0:	02300593          	li	a1,35
   132e4:	4611                	li	a2,4
   132e6:	d5d68413          	addi	s0,a3,-675 # d5d <.Lline_table_start1+0xb32>
   132ea:	4709                	li	a4,2
   132ec:	86a2                	mv	a3,s0
   132ee:	ffffe097          	auipc	ra,0xffffe
   132f2:	e46080e7          	jalr	-442(ra) # 11134 <_ZN9allow_pin12full_dynamic15Buffer$LT$B$GT$5allow17hb1627d2b206e9fb0E>
   132f6:	8905                	andi	a0,a0,1
   132f8:	e91d                	bnez	a0,1332e <_start+0x21b0>
   132fa:	58010513          	addi	a0,sp,1408
   132fe:	02b00593          	li	a1,43
   13302:	460d                	li	a2,3
   13304:	86a2                	mv	a3,s0
   13306:	4701                	li	a4,0
   13308:	ffffe097          	auipc	ra,0xffffe
   1330c:	e2c080e7          	jalr	-468(ra) # 11134 <_ZN9allow_pin12full_dynamic15Buffer$LT$B$GT$5allow17hb1627d2b206e9fb0E>
   13310:	8905                	andi	a0,a0,1
   13312:	ed11                	bnez	a0,1332e <_start+0x21b0>
   13314:	6505                	lui	a0,0x1
   13316:	d5d50513          	addi	a0,a0,-675 # d5d <.Lline_table_start1+0xb32>
   1331a:	4589                	li	a1,2
   1331c:	4601                	li	a2,0
   1331e:	ffffe097          	auipc	ra,0xffffe
   13322:	e52080e7          	jalr	-430(ra) # 11170 <_ZN9allow_pin7command17hdfcb5c5f4a3821c8E>
   13326:	8905                	andi	a0,a0,1
   13328:	e119                	bnez	a0,1332e <_start+0x21b0>
   1332a:	2220106f          	j	1454c <_start+0x33ce>
   1332e:	84ae                	mv	s1,a1
   13330:	4405                	li	s0,1
   13332:	58010513          	addi	a0,sp,1408
   13336:	00004097          	auipc	ra,0x4
   1333a:	166080e7          	jalr	358(ra) # 1749c <_ZN9allow_pin12full_dynamic17unshare_if_shared17ha9c848d8c301b74dE>
   1333e:	51c10513          	addi	a0,sp,1308
   13342:	00004097          	auipc	ra,0x4
   13346:	15a080e7          	jalr	346(ra) # 1749c <_ZN9allow_pin12full_dynamic17unshare_if_shared17ha9c848d8c301b74dE>
   1334a:	c019                	beqz	s0,13350 <_start+0x21d2>
   1334c:	02a0406f          	j	17376 <_start+0x61f8>
   13350:	00004297          	auipc	t0,0x4
   13354:	3bc282e7          	jalr	t0,956(t0) # 1770c <OUTLINED_FUNCTION_15>
   13358:	12a8                	addi	a0,sp,360
   1335a:	048c                	addi	a1,sp,576
   1335c:	02400613          	li	a2,36
   13360:	00004097          	auipc	ra,0x4
   13364:	56a080e7          	jalr	1386(ra) # 178ca <memcpy>
   13368:	00004297          	auipc	t0,0x4
   1336c:	224282e7          	jalr	t0,548(t0) # 1758c <OUTLINED_FUNCTION_4>
   13370:	59310513          	addi	a0,sp,1427
   13374:	12ac                	addi	a1,sp,360
   13376:	02400613          	li	a2,36
   1337a:	00004097          	auipc	ra,0x4
   1337e:	550080e7          	jalr	1360(ra) # 178ca <memcpy>
   13382:	52010a23          	sb	zero,1332(sp)
   13386:	52810223          	sb	s0,1316(sp)
   1338a:	50010513          	addi	a0,sp,1280
   1338e:	02052423          	sw	zero,40(a0)
   13392:	4581                	li	a1,0
   13394:	d54c                	sw	a1,44(a0)
   13396:	d90c                	sw	a1,48(a0)
   13398:	6685                	lui	a3,0x1
   1339a:	58010513          	addi	a0,sp,1408
   1339e:	02b00593          	li	a1,43
   133a2:	4611                	li	a2,4
   133a4:	46568413          	addi	s0,a3,1125 # 1465 <.Lline_table_start1+0x123a>
   133a8:	4719                	li	a4,6
   133aa:	86a2                	mv	a3,s0
   133ac:	ffffe097          	auipc	ra,0xffffe
   133b0:	d88080e7          	jalr	-632(ra) # 11134 <_ZN9allow_pin12full_dynamic15Buffer$LT$B$GT$5allow17hb1627d2b206e9fb0E>
   133b4:	8905                	andi	a0,a0,1
   133b6:	e915                	bnez	a0,133ea <_start+0x226c>
   133b8:	51c10513          	addi	a0,sp,1308
   133bc:	45b5                	li	a1,13
   133be:	460d                	li	a2,3
   133c0:	86a2                	mv	a3,s0
   133c2:	4701                	li	a4,0
   133c4:	ffffe097          	auipc	ra,0xffffe
   133c8:	d70080e7          	jalr	-656(ra) # 11134 <_ZN9allow_pin12full_dynamic15Buffer$LT$B$GT$5allow17hb1627d2b206e9fb0E>
   133cc:	8905                	andi	a0,a0,1
   133ce:	ed11                	bnez	a0,133ea <_start+0x226c>
   133d0:	6505                	lui	a0,0x1
   133d2:	46550513          	addi	a0,a0,1125 # 1465 <.Lline_table_start1+0x123a>
   133d6:	4599                	li	a1,6
   133d8:	4601                	li	a2,0
   133da:	ffffe097          	auipc	ra,0xffffe
   133de:	d96080e7          	jalr	-618(ra) # 11170 <_ZN9allow_pin7command17hdfcb5c5f4a3821c8E>
   133e2:	8905                	andi	a0,a0,1
   133e4:	e119                	bnez	a0,133ea <_start+0x226c>
   133e6:	1b60106f          	j	1459c <_start+0x341e>
   133ea:	84ae                	mv	s1,a1
   133ec:	4405                	li	s0,1
   133ee:	51c10513          	addi	a0,sp,1308
   133f2:	00004097          	auipc	ra,0x4
   133f6:	0aa080e7          	jalr	170(ra) # 1749c <_ZN9allow_pin12full_dynamic17unshare_if_shared17ha9c848d8c301b74dE>
   133fa:	58010513          	addi	a0,sp,1408
   133fe:	00004097          	auipc	ra,0x4
   13402:	09e080e7          	jalr	158(ra) # 1749c <_ZN9allow_pin12full_dynamic17unshare_if_shared17ha9c848d8c301b74dE>
   13406:	c019                	beqz	s0,1340c <_start+0x228e>
   13408:	76f0306f          	j	17376 <_start+0x61f8>
   1340c:	34411503          	lh	a0,836(sp)
   13410:	34614583          	lbu	a1,838(sp)
   13414:	29c12603          	lw	a2,668(sp)
   13418:	2a011683          	lh	a3,672(sp)
   1341c:	52a11423          	sh	a0,1320(sp)
   13420:	52b10523          	sb	a1,1322(sp)
   13424:	24c12023          	sw	a2,576(sp)
   13428:	24d11223          	sh	a3,580(sp)
   1342c:	52f10513          	addi	a0,sp,1327
   13430:	048c                	addi	a1,sp,576
   13432:	4619                	li	a2,6
   13434:	00004097          	auipc	ra,0x4
   13438:	496080e7          	jalr	1174(ra) # 178ca <memcpy>
   1343c:	00004297          	auipc	t0,0x4
   13440:	174282e7          	jalr	t0,372(t0) # 175b0 <OUTLINED_FUNCTION_5>
   13444:	02100613          	li	a2,33
   13448:	854e                	mv	a0,s3
   1344a:	4581                	li	a1,0
   1344c:	00004097          	auipc	ra,0x4
   13450:	412080e7          	jalr	1042(ra) # 1785e <memset>
   13454:	58810423          	sb	s0,1416(sp)
   13458:	6605                	lui	a2,0x1
   1345a:	51c10513          	addi	a0,sp,1308
   1345e:	45b5                	li	a1,13
   13460:	6b060413          	addi	s0,a2,1712 # 16b0 <.Lline_table_start1+0x1485>
   13464:	4611                	li	a2,4
   13466:	86a2                	mv	a3,s0
   13468:	4701                	li	a4,0
   1346a:	ffffe097          	auipc	ra,0xffffe
   1346e:	cca080e7          	jalr	-822(ra) # 11134 <_ZN9allow_pin12full_dynamic15Buffer$LT$B$GT$5allow17hb1627d2b206e9fb0E>
   13472:	8905                	andi	a0,a0,1
   13474:	e91d                	bnez	a0,134aa <_start+0x232c>
   13476:	58010513          	addi	a0,sp,1408
   1347a:	02100593          	li	a1,33
   1347e:	460d                	li	a2,3
   13480:	86a2                	mv	a3,s0
   13482:	4701                	li	a4,0
   13484:	ffffe097          	auipc	ra,0xffffe
   13488:	cb0080e7          	jalr	-848(ra) # 11134 <_ZN9allow_pin12full_dynamic15Buffer$LT$B$GT$5allow17hb1627d2b206e9fb0E>
   1348c:	8905                	andi	a0,a0,1
   1348e:	ed11                	bnez	a0,134aa <_start+0x232c>
   13490:	6505                	lui	a0,0x1
   13492:	6b050513          	addi	a0,a0,1712 # 16b0 <.Lline_table_start1+0x1485>
   13496:	4581                	li	a1,0
   13498:	4601                	li	a2,0
   1349a:	ffffe097          	auipc	ra,0xffffe
   1349e:	cd6080e7          	jalr	-810(ra) # 11170 <_ZN9allow_pin7command17hdfcb5c5f4a3821c8E>
   134a2:	8905                	andi	a0,a0,1
   134a4:	e119                	bnez	a0,134aa <_start+0x232c>
   134a6:	18e0106f          	j	14634 <_start+0x34b6>
   134aa:	84ae                	mv	s1,a1
   134ac:	4405                	li	s0,1
   134ae:	58010513          	addi	a0,sp,1408
   134b2:	00004097          	auipc	ra,0x4
   134b6:	fea080e7          	jalr	-22(ra) # 1749c <_ZN9allow_pin12full_dynamic17unshare_if_shared17ha9c848d8c301b74dE>
   134ba:	51c10513          	addi	a0,sp,1308
   134be:	00004097          	auipc	ra,0x4
   134c2:	fde080e7          	jalr	-34(ra) # 1749c <_ZN9allow_pin12full_dynamic17unshare_if_shared17ha9c848d8c301b74dE>
   134c6:	c019                	beqz	s0,134cc <_start+0x234e>
   134c8:	6af0306f          	j	17376 <_start+0x61f8>
   134cc:	00004297          	auipc	t0,0x4
   134d0:	30a282e7          	jalr	t0,778(t0) # 177d6 <OUTLINED_FUNCTION_20>
   134d4:	4669                	li	a2,26
   134d6:	00004097          	auipc	ra,0x4
   134da:	3f4080e7          	jalr	1012(ra) # 178ca <memcpy>
   134de:	25310513          	addi	a0,sp,595
   134e2:	0d6c                	addi	a1,sp,668
   134e4:	4669                	li	a2,26
   134e6:	00004097          	auipc	ra,0x4
   134ea:	3e4080e7          	jalr	996(ra) # 178ca <memcpy>
   134ee:	00004297          	auipc	t0,0x4
   134f2:	10a282e7          	jalr	t0,266(t0) # 175f8 <OUTLINED_FUNCTION_7>
   134f6:	05300613          	li	a2,83
   134fa:	854e                	mv	a0,s3
   134fc:	4581                	li	a1,0
   134fe:	00004097          	auipc	ra,0x4
   13502:	360080e7          	jalr	864(ra) # 1785e <memset>
   13506:	58810423          	sb	s0,1416(sp)
   1350a:	6689                	lui	a3,0x2
   1350c:	0488                	addi	a0,sp,576
   1350e:	02100593          	li	a1,33
   13512:	4611                	li	a2,4
   13514:	53e68413          	addi	s0,a3,1342 # 253e <.Lline_table_start1+0x2313>
   13518:	4709                	li	a4,2
   1351a:	86a2                	mv	a3,s0
   1351c:	ffffe097          	auipc	ra,0xffffe
   13520:	c18080e7          	jalr	-1000(ra) # 11134 <_ZN9allow_pin12full_dynamic15Buffer$LT$B$GT$5allow17hb1627d2b206e9fb0E>
   13524:	8905                	andi	a0,a0,1
   13526:	e91d                	bnez	a0,1355c <_start+0x23de>
   13528:	58010513          	addi	a0,sp,1408
   1352c:	05300593          	li	a1,83
   13530:	460d                	li	a2,3
   13532:	4721                	li	a4,8
   13534:	86a2                	mv	a3,s0
   13536:	ffffe097          	auipc	ra,0xffffe
   1353a:	bfe080e7          	jalr	-1026(ra) # 11134 <_ZN9allow_pin12full_dynamic15Buffer$LT$B$GT$5allow17hb1627d2b206e9fb0E>
   1353e:	8905                	andi	a0,a0,1
   13540:	ed11                	bnez	a0,1355c <_start+0x23de>
   13542:	6509                	lui	a0,0x2
   13544:	4589                	li	a1,2
   13546:	53e50513          	addi	a0,a0,1342 # 253e <.Lline_table_start1+0x2313>
   1354a:	4621                	li	a2,8
   1354c:	ffffe097          	auipc	ra,0xffffe
   13550:	c24080e7          	jalr	-988(ra) # 11170 <_ZN9allow_pin7command17hdfcb5c5f4a3821c8E>
   13554:	8905                	andi	a0,a0,1
   13556:	e119                	bnez	a0,1355c <_start+0x23de>
   13558:	1200106f          	j	14678 <_start+0x34fa>
   1355c:	84ae                	mv	s1,a1
   1355e:	4405                	li	s0,1
   13560:	58010513          	addi	a0,sp,1408
   13564:	00004097          	auipc	ra,0x4
   13568:	f38080e7          	jalr	-200(ra) # 1749c <_ZN9allow_pin12full_dynamic17unshare_if_shared17ha9c848d8c301b74dE>
   1356c:	0488                	addi	a0,sp,576
   1356e:	00004097          	auipc	ra,0x4
   13572:	f2e080e7          	jalr	-210(ra) # 1749c <_ZN9allow_pin12full_dynamic17unshare_if_shared17ha9c848d8c301b74dE>
   13576:	c019                	beqz	s0,1357c <_start+0x23fe>
   13578:	5ff0306f          	j	17376 <_start+0x61f8>
   1357c:	00004297          	auipc	t0,0x4
   13580:	190282e7          	jalr	t0,400(t0) # 1770c <OUTLINED_FUNCTION_15>
   13584:	0368                	addi	a0,sp,396
   13586:	51c10593          	addi	a1,sp,1308
   1358a:	04c00613          	li	a2,76
   1358e:	00004097          	auipc	ra,0x4
   13592:	33c080e7          	jalr	828(ra) # 178ca <memcpy>
   13596:	00004297          	auipc	t0,0x4
   1359a:	ff6282e7          	jalr	t0,-10(t0) # 1758c <OUTLINED_FUNCTION_4>
   1359e:	59310513          	addi	a0,sp,1427
   135a2:	036c                	addi	a1,sp,396
   135a4:	04c00613          	li	a2,76
   135a8:	00004097          	auipc	ra,0x4
   135ac:	322080e7          	jalr	802(ra) # 178ca <memcpy>
   135b0:	04d00613          	li	a2,77
   135b4:	854a                	mv	a0,s2
   135b6:	4581                	li	a1,0
   135b8:	00004097          	auipc	ra,0x4
   135bc:	2a6080e7          	jalr	678(ra) # 1785e <memset>
   135c0:	00004297          	auipc	t0,0x4
   135c4:	22c282e7          	jalr	t0,556(t0) # 177ec <OUTLINED_FUNCTION_21>
   135c8:	05300593          	li	a1,83
   135cc:	4611                	li	a2,4
   135ce:	6ba68413          	addi	s0,a3,1722
   135d2:	4725                	li	a4,9
   135d4:	86a2                	mv	a3,s0
   135d6:	ffffe097          	auipc	ra,0xffffe
   135da:	b5e080e7          	jalr	-1186(ra) # 11134 <_ZN9allow_pin12full_dynamic15Buffer$LT$B$GT$5allow17hb1627d2b206e9fb0E>
   135de:	8905                	andi	a0,a0,1
   135e0:	e91d                	bnez	a0,13616 <_start+0x2498>
   135e2:	51c10513          	addi	a0,sp,1308
   135e6:	04d00593          	li	a1,77
   135ea:	460d                	li	a2,3
   135ec:	4711                	li	a4,4
   135ee:	86a2                	mv	a3,s0
   135f0:	ffffe097          	auipc	ra,0xffffe
   135f4:	b44080e7          	jalr	-1212(ra) # 11134 <_ZN9allow_pin12full_dynamic15Buffer$LT$B$GT$5allow17hb1627d2b206e9fb0E>
   135f8:	8905                	andi	a0,a0,1
   135fa:	ed11                	bnez	a0,13616 <_start+0x2498>
   135fc:	6505                	lui	a0,0x1
   135fe:	45a5                	li	a1,9
   13600:	6ba50513          	addi	a0,a0,1722 # 16ba <.Lline_table_start1+0x148f>
   13604:	4611                	li	a2,4
   13606:	ffffe097          	auipc	ra,0xffffe
   1360a:	b6a080e7          	jalr	-1174(ra) # 11170 <_ZN9allow_pin7command17hdfcb5c5f4a3821c8E>
   1360e:	8905                	andi	a0,a0,1
   13610:	e119                	bnez	a0,13616 <_start+0x2498>
   13612:	0aa0106f          	j	146bc <_start+0x353e>
   13616:	84ae                	mv	s1,a1
   13618:	4405                	li	s0,1
   1361a:	51c10513          	addi	a0,sp,1308
   1361e:	00004097          	auipc	ra,0x4
   13622:	e7e080e7          	jalr	-386(ra) # 1749c <_ZN9allow_pin12full_dynamic17unshare_if_shared17ha9c848d8c301b74dE>
   13626:	58010513          	addi	a0,sp,1408
   1362a:	00004097          	auipc	ra,0x4
   1362e:	e72080e7          	jalr	-398(ra) # 1749c <_ZN9allow_pin12full_dynamic17unshare_if_shared17ha9c848d8c301b74dE>
   13632:	c019                	beqz	s0,13638 <_start+0x24ba>
   13634:	5430306f          	j	17376 <_start+0x61f8>
   13638:	00004297          	auipc	t0,0x4
   1363c:	068282e7          	jalr	t0,104(t0) # 176a0 <OUTLINED_FUNCTION_10>
   13640:	04600613          	li	a2,70
   13644:	00004097          	auipc	ra,0x4
   13648:	286080e7          	jalr	646(ra) # 178ca <memcpy>
   1364c:	59310513          	addi	a0,sp,1427
   13650:	048c                	addi	a1,sp,576
   13652:	04600613          	li	a2,70
   13656:	00004097          	auipc	ra,0x4
   1365a:	274080e7          	jalr	628(ra) # 178ca <memcpy>
   1365e:	00004297          	auipc	t0,0x4
   13662:	f2e282e7          	jalr	t0,-210(t0) # 1758c <OUTLINED_FUNCTION_4>
   13666:	03c00613          	li	a2,60
   1366a:	854a                	mv	a0,s2
   1366c:	4581                	li	a1,0
   1366e:	00004097          	auipc	ra,0x4
   13672:	1f0080e7          	jalr	496(ra) # 1785e <memset>
   13676:	00004297          	auipc	t0,0x4
   1367a:	182282e7          	jalr	t0,386(t0) # 177f8 <OUTLINED_FUNCTION_22>
   1367e:	04d00593          	li	a1,77
   13682:	4611                	li	a2,4
   13684:	1ab68413          	addi	s0,a3,427
   13688:	4711                	li	a4,4
   1368a:	86a2                	mv	a3,s0
   1368c:	ffffe097          	auipc	ra,0xffffe
   13690:	aa8080e7          	jalr	-1368(ra) # 11134 <_ZN9allow_pin12full_dynamic15Buffer$LT$B$GT$5allow17hb1627d2b206e9fb0E>
   13694:	8905                	andi	a0,a0,1
   13696:	e91d                	bnez	a0,136cc <_start+0x254e>
   13698:	51c10513          	addi	a0,sp,1308
   1369c:	03c00593          	li	a1,60
   136a0:	460d                	li	a2,3
   136a2:	4725                	li	a4,9
   136a4:	86a2                	mv	a3,s0
   136a6:	ffffe097          	auipc	ra,0xffffe
   136aa:	a8e080e7          	jalr	-1394(ra) # 11134 <_ZN9allow_pin12full_dynamic15Buffer$LT$B$GT$5allow17hb1627d2b206e9fb0E>
   136ae:	8905                	andi	a0,a0,1
   136b0:	ed11                	bnez	a0,136cc <_start+0x254e>
   136b2:	6509                	lui	a0,0x2
   136b4:	4591                	li	a1,4
   136b6:	1ab50513          	addi	a0,a0,427 # 21ab <.Lline_table_start1+0x1f80>
   136ba:	4625                	li	a2,9
   136bc:	ffffe097          	auipc	ra,0xffffe
   136c0:	ab4080e7          	jalr	-1356(ra) # 11170 <_ZN9allow_pin7command17hdfcb5c5f4a3821c8E>
   136c4:	8905                	andi	a0,a0,1
   136c6:	e119                	bnez	a0,136cc <_start+0x254e>
   136c8:	0320106f          	j	146fa <_start+0x357c>
   136cc:	84ae                	mv	s1,a1
   136ce:	4405                	li	s0,1
   136d0:	0640106f          	j	14734 <_start+0x35b6>
   136d4:	0d68                	addi	a0,sp,668
   136d6:	00004097          	auipc	ra,0x4
   136da:	dc6080e7          	jalr	-570(ra) # 1749c <_ZN9allow_pin12full_dynamic17unshare_if_shared17ha9c848d8c301b74dE>
   136de:	58010513          	addi	a0,sp,1408
   136e2:	00004097          	auipc	ra,0x4
   136e6:	dba080e7          	jalr	-582(ra) # 1749c <_ZN9allow_pin12full_dynamic17unshare_if_shared17ha9c848d8c301b74dE>
   136ea:	58010513          	addi	a0,sp,1408
   136ee:	00004097          	auipc	ra,0x4
   136f2:	dae080e7          	jalr	-594(ra) # 1749c <_ZN9allow_pin12full_dynamic17unshare_if_shared17ha9c848d8c301b74dE>
   136f6:	00004297          	auipc	t0,0x4
   136fa:	dc4282e7          	jalr	t0,-572(t0) # 174ba <OUTLINED_FUNCTION_0>
   136fe:	0488                	addi	a0,sp,576
   13700:	04a00613          	li	a2,74
   13704:	00004097          	auipc	ra,0x4
   13708:	1c6080e7          	jalr	454(ra) # 178ca <memcpy>
   1370c:	4401                	li	s0,0
   1370e:	b19fd06f          	j	11226 <_start+0xa8>
   13712:	58010513          	addi	a0,sp,1408
   13716:	00004097          	auipc	ra,0x4
   1371a:	d86080e7          	jalr	-634(ra) # 1749c <_ZN9allow_pin12full_dynamic17unshare_if_shared17ha9c848d8c301b74dE>
   1371e:	51c10513          	addi	a0,sp,1308
   13722:	00004097          	auipc	ra,0x4
   13726:	d7a080e7          	jalr	-646(ra) # 1749c <_ZN9allow_pin12full_dynamic17unshare_if_shared17ha9c848d8c301b74dE>
   1372a:	51c10513          	addi	a0,sp,1308
   1372e:	00004097          	auipc	ra,0x4
   13732:	d6e080e7          	jalr	-658(ra) # 1749c <_ZN9allow_pin12full_dynamic17unshare_if_shared17ha9c848d8c301b74dE>
   13736:	00004297          	auipc	t0,0x4
   1373a:	dc0282e7          	jalr	t0,-576(t0) # 174f6 <OUTLINED_FUNCTION_1>
   1373e:	03f00613          	li	a2,63
   13742:	00004097          	auipc	ra,0x4
   13746:	188080e7          	jalr	392(ra) # 178ca <memcpy>
   1374a:	4401                	li	s0,0
   1374c:	b91fd06f          	j	112dc <_start+0x15e>
   13750:	58010513          	addi	a0,sp,1408
   13754:	00004097          	auipc	ra,0x4
   13758:	d48080e7          	jalr	-696(ra) # 1749c <_ZN9allow_pin12full_dynamic17unshare_if_shared17ha9c848d8c301b74dE>
   1375c:	51c10513          	addi	a0,sp,1308
   13760:	00004097          	auipc	ra,0x4
   13764:	d3c080e7          	jalr	-708(ra) # 1749c <_ZN9allow_pin12full_dynamic17unshare_if_shared17ha9c848d8c301b74dE>
   13768:	51c10513          	addi	a0,sp,1308
   1376c:	00004097          	auipc	ra,0x4
   13770:	d30080e7          	jalr	-720(ra) # 1749c <_ZN9allow_pin12full_dynamic17unshare_if_shared17ha9c848d8c301b74dE>
   13774:	00004297          	auipc	t0,0x4
   13778:	dec282e7          	jalr	t0,-532(t0) # 17560 <OUTLINED_FUNCTION_3>
   1377c:	00004297          	auipc	t0,0x4
   13780:	f7c282e7          	jalr	t0,-132(t0) # 176f8 <OUTLINED_FUNCTION_14>
   13784:	4645                	li	a2,17
   13786:	00004097          	auipc	ra,0x4
   1378a:	144080e7          	jalr	324(ra) # 178ca <memcpy>
   1378e:	4401                	li	s0,0
   13790:	bfffd06f          	j	1138e <_start+0x210>
   13794:	0d68                	addi	a0,sp,668
   13796:	00004097          	auipc	ra,0x4
   1379a:	d06080e7          	jalr	-762(ra) # 1749c <_ZN9allow_pin12full_dynamic17unshare_if_shared17ha9c848d8c301b74dE>
   1379e:	58010513          	addi	a0,sp,1408
   137a2:	00004097          	auipc	ra,0x4
   137a6:	cfa080e7          	jalr	-774(ra) # 1749c <_ZN9allow_pin12full_dynamic17unshare_if_shared17ha9c848d8c301b74dE>
   137aa:	58010513          	addi	a0,sp,1408
   137ae:	00004097          	auipc	ra,0x4
   137b2:	cee080e7          	jalr	-786(ra) # 1749c <_ZN9allow_pin12full_dynamic17unshare_if_shared17ha9c848d8c301b74dE>
   137b6:	00004297          	auipc	t0,0x4
   137ba:	d04282e7          	jalr	t0,-764(t0) # 174ba <OUTLINED_FUNCTION_0>
   137be:	0488                	addi	a0,sp,576
   137c0:	02f00613          	li	a2,47
   137c4:	00004097          	auipc	ra,0x4
   137c8:	106080e7          	jalr	262(ra) # 178ca <memcpy>
   137cc:	4401                	li	s0,0
   137ce:	c6dfd06f          	j	1143a <_start+0x2bc>
   137d2:	58010513          	addi	a0,sp,1408
   137d6:	00004097          	auipc	ra,0x4
   137da:	cc6080e7          	jalr	-826(ra) # 1749c <_ZN9allow_pin12full_dynamic17unshare_if_shared17ha9c848d8c301b74dE>
   137de:	51c10513          	addi	a0,sp,1308
   137e2:	00004097          	auipc	ra,0x4
   137e6:	cba080e7          	jalr	-838(ra) # 1749c <_ZN9allow_pin12full_dynamic17unshare_if_shared17ha9c848d8c301b74dE>
   137ea:	51c10513          	addi	a0,sp,1308
   137ee:	00004097          	auipc	ra,0x4
   137f2:	cae080e7          	jalr	-850(ra) # 1749c <_ZN9allow_pin12full_dynamic17unshare_if_shared17ha9c848d8c301b74dE>
   137f6:	00004297          	auipc	t0,0x4
   137fa:	d00282e7          	jalr	t0,-768(t0) # 174f6 <OUTLINED_FUNCTION_1>
   137fe:	4679                	li	a2,30
   13800:	00004097          	auipc	ra,0x4
   13804:	0ca080e7          	jalr	202(ra) # 178ca <memcpy>
   13808:	4401                	li	s0,0
   1380a:	ce7fd06f          	j	114f0 <_start+0x372>
   1380e:	58010513          	addi	a0,sp,1408
   13812:	00004097          	auipc	ra,0x4
   13816:	c8a080e7          	jalr	-886(ra) # 1749c <_ZN9allow_pin12full_dynamic17unshare_if_shared17ha9c848d8c301b74dE>
   1381a:	51c10513          	addi	a0,sp,1308
   1381e:	00004097          	auipc	ra,0x4
   13822:	c7e080e7          	jalr	-898(ra) # 1749c <_ZN9allow_pin12full_dynamic17unshare_if_shared17ha9c848d8c301b74dE>
   13826:	51c10513          	addi	a0,sp,1308
   1382a:	00004097          	auipc	ra,0x4
   1382e:	c72080e7          	jalr	-910(ra) # 1749c <_ZN9allow_pin12full_dynamic17unshare_if_shared17ha9c848d8c301b74dE>
   13832:	4401                	li	s0,0
   13834:	00094503          	lbu	a0,0(s2)
   13838:	00194583          	lbu	a1,1(s2)
   1383c:	00294803          	lbu	a6,2(s2)
   13840:	52b14883          	lbu	a7,1323(sp)
   13844:	53014283          	lbu	t0,1328(sp)
   13848:	53114303          	lbu	t1,1329(sp)
   1384c:	53214383          	lbu	t2,1330(sp)
   13850:	53314603          	lbu	a2,1331(sp)
   13854:	05a2                	slli	a1,a1,0x8
   13856:	00a5ee33          	or	t3,a1,a0
   1385a:	52c14583          	lbu	a1,1324(sp)
   1385e:	52d14683          	lbu	a3,1325(sp)
   13862:	52e14703          	lbu	a4,1326(sp)
   13866:	52f14783          	lbu	a5,1327(sp)
   1386a:	05a2                	slli	a1,a1,0x8
   1386c:	06c2                	slli	a3,a3,0x10
   1386e:	0115e5b3          	or	a1,a1,a7
   13872:	53414483          	lbu	s1,1332(sp)
   13876:	0762                	slli	a4,a4,0x18
   13878:	8ed9                	or	a3,a3,a4
   1387a:	53514703          	lbu	a4,1333(sp)
   1387e:	04a2                	slli	s1,s1,0x8
   13880:	8e45                	or	a2,a2,s1
   13882:	02a2                	slli	t0,t0,0x8
   13884:	00f2e7b3          	or	a5,t0,a5
   13888:	0342                	slli	t1,t1,0x10
   1388a:	03e2                	slli	t2,t2,0x18
   1388c:	0063e533          	or	a0,t2,t1
   13890:	4bc11423          	sh	t3,1192(sp)
   13894:	4b010523          	sb	a6,1194(sp)
   13898:	00b6e4b3          	or	s1,a3,a1
   1389c:	8d5d                	or	a0,a0,a5
   1389e:	34a12223          	sw	a0,836(sp)
   138a2:	34c11423          	sh	a2,840(sp)
   138a6:	34e10523          	sb	a4,842(sp)
   138aa:	d05fd06f          	j	115ae <_start+0x430>
   138ae:	0d68                	addi	a0,sp,668
   138b0:	00004097          	auipc	ra,0x4
   138b4:	bec080e7          	jalr	-1044(ra) # 1749c <_ZN9allow_pin12full_dynamic17unshare_if_shared17ha9c848d8c301b74dE>
   138b8:	58010513          	addi	a0,sp,1408
   138bc:	00004097          	auipc	ra,0x4
   138c0:	be0080e7          	jalr	-1056(ra) # 1749c <_ZN9allow_pin12full_dynamic17unshare_if_shared17ha9c848d8c301b74dE>
   138c4:	58010513          	addi	a0,sp,1408
   138c8:	00004097          	auipc	ra,0x4
   138cc:	bd4080e7          	jalr	-1068(ra) # 1749c <_ZN9allow_pin12full_dynamic17unshare_if_shared17ha9c848d8c301b74dE>
   138d0:	00004297          	auipc	t0,0x4
   138d4:	bea282e7          	jalr	t0,-1046(t0) # 174ba <OUTLINED_FUNCTION_0>
   138d8:	0488                	addi	a0,sp,576
   138da:	04100613          	li	a2,65
   138de:	00004097          	auipc	ra,0x4
   138e2:	fec080e7          	jalr	-20(ra) # 178ca <memcpy>
   138e6:	4401                	li	s0,0
   138e8:	d8dfd06f          	j	11674 <_start+0x4f6>
   138ec:	58010513          	addi	a0,sp,1408
   138f0:	00004097          	auipc	ra,0x4
   138f4:	bac080e7          	jalr	-1108(ra) # 1749c <_ZN9allow_pin12full_dynamic17unshare_if_shared17ha9c848d8c301b74dE>
   138f8:	51c10513          	addi	a0,sp,1308
   138fc:	00004097          	auipc	ra,0x4
   13900:	ba0080e7          	jalr	-1120(ra) # 1749c <_ZN9allow_pin12full_dynamic17unshare_if_shared17ha9c848d8c301b74dE>
   13904:	51c10513          	addi	a0,sp,1308
   13908:	00004097          	auipc	ra,0x4
   1390c:	b94080e7          	jalr	-1132(ra) # 1749c <_ZN9allow_pin12full_dynamic17unshare_if_shared17ha9c848d8c301b74dE>
   13910:	4a01                	li	s4,0
   13912:	00094883          	lbu	a7,0(s2)
   13916:	00194283          	lbu	t0,1(s2)
   1391a:	00294803          	lbu	a6,2(s2)
   1391e:	52b14303          	lbu	t1,1323(sp)
   13922:	53014383          	lbu	t2,1328(sp)
   13926:	53114e03          	lbu	t3,1329(sp)
   1392a:	53214e83          	lbu	t4,1330(sp)
   1392e:	53314403          	lbu	s0,1331(sp)
   13932:	52c14503          	lbu	a0,1324(sp)
   13936:	52d14583          	lbu	a1,1325(sp)
   1393a:	52e14603          	lbu	a2,1326(sp)
   1393e:	52f14683          	lbu	a3,1327(sp)
   13942:	02a2                	slli	t0,t0,0x8
   13944:	0522                	slli	a0,a0,0x8
   13946:	05c2                	slli	a1,a1,0x10
   13948:	0662                	slli	a2,a2,0x18
   1394a:	0112e733          	or	a4,t0,a7
   1394e:	00656533          	or	a0,a0,t1
   13952:	53414783          	lbu	a5,1332(sp)
   13956:	8dd1                	or	a1,a1,a2
   13958:	53514603          	lbu	a2,1333(sp)
   1395c:	53614483          	lbu	s1,1334(sp)
   13960:	07a2                	slli	a5,a5,0x8
   13962:	8fc1                	or	a5,a5,s0
   13964:	0642                	slli	a2,a2,0x10
   13966:	04e2                	slli	s1,s1,0x18
   13968:	8e45                	or	a2,a2,s1
   1396a:	03a2                	slli	t2,t2,0x8
   1396c:	00d3e6b3          	or	a3,t2,a3
   13970:	0e42                	slli	t3,t3,0x10
   13972:	0ee2                	slli	t4,t4,0x18
   13974:	01cee433          	or	s0,t4,t3
   13978:	24e11023          	sh	a4,576(sp)
   1397c:	25010123          	sb	a6,578(sp)
   13980:	00a5e4b3          	or	s1,a1,a0
   13984:	00f66ab3          	or	s5,a2,a5
   13988:	00d46b33          	or	s6,s0,a3
   1398c:	d9bfd06f          	j	11726 <_start+0x5a8>
   13990:	51c10513          	addi	a0,sp,1308
   13994:	00004097          	auipc	ra,0x4
   13998:	b08080e7          	jalr	-1272(ra) # 1749c <_ZN9allow_pin12full_dynamic17unshare_if_shared17ha9c848d8c301b74dE>
   1399c:	58010513          	addi	a0,sp,1408
   139a0:	00004097          	auipc	ra,0x4
   139a4:	afc080e7          	jalr	-1284(ra) # 1749c <_ZN9allow_pin12full_dynamic17unshare_if_shared17ha9c848d8c301b74dE>
   139a8:	58010513          	addi	a0,sp,1408
   139ac:	00004097          	auipc	ra,0x4
   139b0:	af0080e7          	jalr	-1296(ra) # 1749c <_ZN9allow_pin12full_dynamic17unshare_if_shared17ha9c848d8c301b74dE>
   139b4:	00004297          	auipc	t0,0x4
   139b8:	b06282e7          	jalr	t0,-1274(t0) # 174ba <OUTLINED_FUNCTION_0>
   139bc:	0d68                	addi	a0,sp,668
   139be:	4679                	li	a2,30
   139c0:	00004097          	auipc	ra,0x4
   139c4:	f0a080e7          	jalr	-246(ra) # 178ca <memcpy>
   139c8:	4401                	li	s0,0
   139ca:	debfd06f          	j	117b4 <_start+0x636>
   139ce:	51c10513          	addi	a0,sp,1308
   139d2:	00004097          	auipc	ra,0x4
   139d6:	aca080e7          	jalr	-1334(ra) # 1749c <_ZN9allow_pin12full_dynamic17unshare_if_shared17ha9c848d8c301b74dE>
   139da:	58010513          	addi	a0,sp,1408
   139de:	00004097          	auipc	ra,0x4
   139e2:	abe080e7          	jalr	-1346(ra) # 1749c <_ZN9allow_pin12full_dynamic17unshare_if_shared17ha9c848d8c301b74dE>
   139e6:	58010513          	addi	a0,sp,1408
   139ea:	00004097          	auipc	ra,0x4
   139ee:	ab2080e7          	jalr	-1358(ra) # 1749c <_ZN9allow_pin12full_dynamic17unshare_if_shared17ha9c848d8c301b74dE>
   139f2:	00004297          	auipc	t0,0x4
   139f6:	b42282e7          	jalr	t0,-1214(t0) # 17534 <OUTLINED_FUNCTION_2>
   139fa:	00004297          	auipc	t0,0x4
   139fe:	dc8282e7          	jalr	t0,-568(t0) # 177c2 <OUTLINED_FUNCTION_19>
   13a02:	02300613          	li	a2,35
   13a06:	00004097          	auipc	ra,0x4
   13a0a:	ec4080e7          	jalr	-316(ra) # 178ca <memcpy>
   13a0e:	4401                	li	s0,0
   13a10:	e59fd06f          	j	11868 <_start+0x6ea>
   13a14:	0488                	addi	a0,sp,576
   13a16:	00004097          	auipc	ra,0x4
   13a1a:	a86080e7          	jalr	-1402(ra) # 1749c <_ZN9allow_pin12full_dynamic17unshare_if_shared17ha9c848d8c301b74dE>
   13a1e:	58010513          	addi	a0,sp,1408
   13a22:	00004097          	auipc	ra,0x4
   13a26:	a7a080e7          	jalr	-1414(ra) # 1749c <_ZN9allow_pin12full_dynamic17unshare_if_shared17ha9c848d8c301b74dE>
   13a2a:	58010513          	addi	a0,sp,1408
   13a2e:	00004097          	auipc	ra,0x4
   13a32:	a6e080e7          	jalr	-1426(ra) # 1749c <_ZN9allow_pin12full_dynamic17unshare_if_shared17ha9c848d8c301b74dE>
   13a36:	00004297          	auipc	t0,0x4
   13a3a:	afe282e7          	jalr	t0,-1282(t0) # 17534 <OUTLINED_FUNCTION_2>
   13a3e:	00004297          	auipc	t0,0x4
   13a42:	ca4282e7          	jalr	t0,-860(t0) # 176e2 <OUTLINED_FUNCTION_13>
   13a46:	05c00613          	li	a2,92
   13a4a:	00004097          	auipc	ra,0x4
   13a4e:	e80080e7          	jalr	-384(ra) # 178ca <memcpy>
   13a52:	4401                	li	s0,0
   13a54:	ecbfd06f          	j	1191e <_start+0x7a0>
   13a58:	58010513          	addi	a0,sp,1408
   13a5c:	00004097          	auipc	ra,0x4
   13a60:	a40080e7          	jalr	-1472(ra) # 1749c <_ZN9allow_pin12full_dynamic17unshare_if_shared17ha9c848d8c301b74dE>
   13a64:	51c10513          	addi	a0,sp,1308
   13a68:	00004097          	auipc	ra,0x4
   13a6c:	a34080e7          	jalr	-1484(ra) # 1749c <_ZN9allow_pin12full_dynamic17unshare_if_shared17ha9c848d8c301b74dE>
   13a70:	51c10513          	addi	a0,sp,1308
   13a74:	00004097          	auipc	ra,0x4
   13a78:	a28080e7          	jalr	-1496(ra) # 1749c <_ZN9allow_pin12full_dynamic17unshare_if_shared17ha9c848d8c301b74dE>
   13a7c:	00004297          	auipc	t0,0x4
   13a80:	ae4282e7          	jalr	t0,-1308(t0) # 17560 <OUTLINED_FUNCTION_3>
   13a84:	00004297          	auipc	t0,0x4
   13a88:	c9a282e7          	jalr	t0,-870(t0) # 1771e <OUTLINED_FUNCTION_16>
   13a8c:	02000613          	li	a2,32
   13a90:	00004097          	auipc	ra,0x4
   13a94:	e3a080e7          	jalr	-454(ra) # 178ca <memcpy>
   13a98:	4401                	li	s0,0
   13a9a:	f3ffd06f          	j	119d8 <_start+0x85a>
   13a9e:	58010513          	addi	a0,sp,1408
   13aa2:	00004097          	auipc	ra,0x4
   13aa6:	9fa080e7          	jalr	-1542(ra) # 1749c <_ZN9allow_pin12full_dynamic17unshare_if_shared17ha9c848d8c301b74dE>
   13aaa:	51c10513          	addi	a0,sp,1308
   13aae:	00004097          	auipc	ra,0x4
   13ab2:	9ee080e7          	jalr	-1554(ra) # 1749c <_ZN9allow_pin12full_dynamic17unshare_if_shared17ha9c848d8c301b74dE>
   13ab6:	51c10513          	addi	a0,sp,1308
   13aba:	00004097          	auipc	ra,0x4
   13abe:	9e2080e7          	jalr	-1566(ra) # 1749c <_ZN9allow_pin12full_dynamic17unshare_if_shared17ha9c848d8c301b74dE>
   13ac2:	00004297          	auipc	t0,0x4
   13ac6:	a34282e7          	jalr	t0,-1484(t0) # 174f6 <OUTLINED_FUNCTION_1>
   13aca:	465d                	li	a2,23
   13acc:	00004097          	auipc	ra,0x4
   13ad0:	dfe080e7          	jalr	-514(ra) # 178ca <memcpy>
   13ad4:	4401                	li	s0,0
   13ad6:	fb9fd06f          	j	11a8e <_start+0x910>
   13ada:	51c10513          	addi	a0,sp,1308
   13ade:	00004097          	auipc	ra,0x4
   13ae2:	9be080e7          	jalr	-1602(ra) # 1749c <_ZN9allow_pin12full_dynamic17unshare_if_shared17ha9c848d8c301b74dE>
   13ae6:	58010513          	addi	a0,sp,1408
   13aea:	00004097          	auipc	ra,0x4
   13aee:	9b2080e7          	jalr	-1614(ra) # 1749c <_ZN9allow_pin12full_dynamic17unshare_if_shared17ha9c848d8c301b74dE>
   13af2:	58010513          	addi	a0,sp,1408
   13af6:	00004097          	auipc	ra,0x4
   13afa:	9a6080e7          	jalr	-1626(ra) # 1749c <_ZN9allow_pin12full_dynamic17unshare_if_shared17ha9c848d8c301b74dE>
   13afe:	00004297          	auipc	t0,0x4
   13b02:	9bc282e7          	jalr	t0,-1604(t0) # 174ba <OUTLINED_FUNCTION_0>
   13b06:	0d68                	addi	a0,sp,668
   13b08:	02500613          	li	a2,37
   13b0c:	00004097          	auipc	ra,0x4
   13b10:	dbe080e7          	jalr	-578(ra) # 178ca <memcpy>
   13b14:	4401                	li	s0,0
   13b16:	826fe06f          	j	11b3c <_start+0x9be>
   13b1a:	58010513          	addi	a0,sp,1408
   13b1e:	00004097          	auipc	ra,0x4
   13b22:	97e080e7          	jalr	-1666(ra) # 1749c <_ZN9allow_pin12full_dynamic17unshare_if_shared17ha9c848d8c301b74dE>
   13b26:	51c10513          	addi	a0,sp,1308
   13b2a:	00004097          	auipc	ra,0x4
   13b2e:	972080e7          	jalr	-1678(ra) # 1749c <_ZN9allow_pin12full_dynamic17unshare_if_shared17ha9c848d8c301b74dE>
   13b32:	51c10513          	addi	a0,sp,1308
   13b36:	00004097          	auipc	ra,0x4
   13b3a:	966080e7          	jalr	-1690(ra) # 1749c <_ZN9allow_pin12full_dynamic17unshare_if_shared17ha9c848d8c301b74dE>
   13b3e:	00004297          	auipc	t0,0x4
   13b42:	9b8282e7          	jalr	t0,-1608(t0) # 174f6 <OUTLINED_FUNCTION_1>
   13b46:	4679                	li	a2,30
   13b48:	00004097          	auipc	ra,0x4
   13b4c:	d82080e7          	jalr	-638(ra) # 178ca <memcpy>
   13b50:	4401                	li	s0,0
   13b52:	89efe06f          	j	11bf0 <_start+0xa72>
   13b56:	58010513          	addi	a0,sp,1408
   13b5a:	00004097          	auipc	ra,0x4
   13b5e:	942080e7          	jalr	-1726(ra) # 1749c <_ZN9allow_pin12full_dynamic17unshare_if_shared17ha9c848d8c301b74dE>
   13b62:	51c10513          	addi	a0,sp,1308
   13b66:	00004097          	auipc	ra,0x4
   13b6a:	936080e7          	jalr	-1738(ra) # 1749c <_ZN9allow_pin12full_dynamic17unshare_if_shared17ha9c848d8c301b74dE>
   13b6e:	51c10513          	addi	a0,sp,1308
   13b72:	00004097          	auipc	ra,0x4
   13b76:	92a080e7          	jalr	-1750(ra) # 1749c <_ZN9allow_pin12full_dynamic17unshare_if_shared17ha9c848d8c301b74dE>
   13b7a:	00004297          	auipc	t0,0x4
   13b7e:	9e6282e7          	jalr	t0,-1562(t0) # 17560 <OUTLINED_FUNCTION_3>
   13b82:	00004297          	auipc	t0,0x4
   13b86:	b76282e7          	jalr	t0,-1162(t0) # 176f8 <OUTLINED_FUNCTION_14>
   13b8a:	4645                	li	a2,17
   13b8c:	00004097          	auipc	ra,0x4
   13b90:	d3e080e7          	jalr	-706(ra) # 178ca <memcpy>
   13b94:	4401                	li	s0,0
   13b96:	908fe06f          	j	11c9e <_start+0xb20>
   13b9a:	0d68                	addi	a0,sp,668
   13b9c:	00004097          	auipc	ra,0x4
   13ba0:	900080e7          	jalr	-1792(ra) # 1749c <_ZN9allow_pin12full_dynamic17unshare_if_shared17ha9c848d8c301b74dE>
   13ba4:	58010513          	addi	a0,sp,1408
   13ba8:	00004097          	auipc	ra,0x4
   13bac:	8f4080e7          	jalr	-1804(ra) # 1749c <_ZN9allow_pin12full_dynamic17unshare_if_shared17ha9c848d8c301b74dE>
   13bb0:	58010513          	addi	a0,sp,1408
   13bb4:	00004097          	auipc	ra,0x4
   13bb8:	8e8080e7          	jalr	-1816(ra) # 1749c <_ZN9allow_pin12full_dynamic17unshare_if_shared17ha9c848d8c301b74dE>
   13bbc:	00004297          	auipc	t0,0x4
   13bc0:	8fe282e7          	jalr	t0,-1794(t0) # 174ba <OUTLINED_FUNCTION_0>
   13bc4:	0488                	addi	a0,sp,576
   13bc6:	02f00613          	li	a2,47
   13bca:	00004097          	auipc	ra,0x4
   13bce:	d00080e7          	jalr	-768(ra) # 178ca <memcpy>
   13bd2:	4401                	li	s0,0
   13bd4:	976fe06f          	j	11d4a <_start+0xbcc>
   13bd8:	58010513          	addi	a0,sp,1408
   13bdc:	00004097          	auipc	ra,0x4
   13be0:	8c0080e7          	jalr	-1856(ra) # 1749c <_ZN9allow_pin12full_dynamic17unshare_if_shared17ha9c848d8c301b74dE>
   13be4:	51c10513          	addi	a0,sp,1308
   13be8:	00004097          	auipc	ra,0x4
   13bec:	8b4080e7          	jalr	-1868(ra) # 1749c <_ZN9allow_pin12full_dynamic17unshare_if_shared17ha9c848d8c301b74dE>
   13bf0:	51c10513          	addi	a0,sp,1308
   13bf4:	00004097          	auipc	ra,0x4
   13bf8:	8a8080e7          	jalr	-1880(ra) # 1749c <_ZN9allow_pin12full_dynamic17unshare_if_shared17ha9c848d8c301b74dE>
   13bfc:	00004297          	auipc	t0,0x4
   13c00:	8fa282e7          	jalr	t0,-1798(t0) # 174f6 <OUTLINED_FUNCTION_1>
   13c04:	02d00613          	li	a2,45
   13c08:	00004097          	auipc	ra,0x4
   13c0c:	cc2080e7          	jalr	-830(ra) # 178ca <memcpy>
   13c10:	4401                	li	s0,0
   13c12:	9eefe06f          	j	11e00 <_start+0xc82>
   13c16:	58010513          	addi	a0,sp,1408
   13c1a:	00004097          	auipc	ra,0x4
   13c1e:	882080e7          	jalr	-1918(ra) # 1749c <_ZN9allow_pin12full_dynamic17unshare_if_shared17ha9c848d8c301b74dE>
   13c22:	51c10513          	addi	a0,sp,1308
   13c26:	00004097          	auipc	ra,0x4
   13c2a:	876080e7          	jalr	-1930(ra) # 1749c <_ZN9allow_pin12full_dynamic17unshare_if_shared17ha9c848d8c301b74dE>
   13c2e:	51c10513          	addi	a0,sp,1308
   13c32:	00004097          	auipc	ra,0x4
   13c36:	86a080e7          	jalr	-1942(ra) # 1749c <_ZN9allow_pin12full_dynamic17unshare_if_shared17ha9c848d8c301b74dE>
   13c3a:	00004297          	auipc	t0,0x4
   13c3e:	8bc282e7          	jalr	t0,-1860(t0) # 174f6 <OUTLINED_FUNCTION_1>
   13c42:	02700613          	li	a2,39
   13c46:	00004097          	auipc	ra,0x4
   13c4a:	c84080e7          	jalr	-892(ra) # 178ca <memcpy>
   13c4e:	4401                	li	s0,0
   13c50:	a64fe06f          	j	11eb4 <_start+0xd36>
   13c54:	51c10513          	addi	a0,sp,1308
   13c58:	00004097          	auipc	ra,0x4
   13c5c:	844080e7          	jalr	-1980(ra) # 1749c <_ZN9allow_pin12full_dynamic17unshare_if_shared17ha9c848d8c301b74dE>
   13c60:	58010513          	addi	a0,sp,1408
   13c64:	00004097          	auipc	ra,0x4
   13c68:	838080e7          	jalr	-1992(ra) # 1749c <_ZN9allow_pin12full_dynamic17unshare_if_shared17ha9c848d8c301b74dE>
   13c6c:	58010513          	addi	a0,sp,1408
   13c70:	00004097          	auipc	ra,0x4
   13c74:	82c080e7          	jalr	-2004(ra) # 1749c <_ZN9allow_pin12full_dynamic17unshare_if_shared17ha9c848d8c301b74dE>
   13c78:	00004297          	auipc	t0,0x4
   13c7c:	842282e7          	jalr	t0,-1982(t0) # 174ba <OUTLINED_FUNCTION_0>
   13c80:	0d68                	addi	a0,sp,668
   13c82:	03100613          	li	a2,49
   13c86:	00004097          	auipc	ra,0x4
   13c8a:	c44080e7          	jalr	-956(ra) # 178ca <memcpy>
   13c8e:	4401                	li	s0,0
   13c90:	adcfe06f          	j	11f6c <_start+0xdee>
   13c94:	58010513          	addi	a0,sp,1408
   13c98:	00004097          	auipc	ra,0x4
   13c9c:	804080e7          	jalr	-2044(ra) # 1749c <_ZN9allow_pin12full_dynamic17unshare_if_shared17ha9c848d8c301b74dE>
   13ca0:	51c10513          	addi	a0,sp,1308
   13ca4:	00003097          	auipc	ra,0x3
   13ca8:	7f8080e7          	jalr	2040(ra) # 1749c <_ZN9allow_pin12full_dynamic17unshare_if_shared17ha9c848d8c301b74dE>
   13cac:	51c10513          	addi	a0,sp,1308
   13cb0:	00003097          	auipc	ra,0x3
   13cb4:	7ec080e7          	jalr	2028(ra) # 1749c <_ZN9allow_pin12full_dynamic17unshare_if_shared17ha9c848d8c301b74dE>
   13cb8:	00004297          	auipc	t0,0x4
   13cbc:	83e282e7          	jalr	t0,-1986(t0) # 174f6 <OUTLINED_FUNCTION_1>
   13cc0:	02d00613          	li	a2,45
   13cc4:	00004097          	auipc	ra,0x4
   13cc8:	c06080e7          	jalr	-1018(ra) # 178ca <memcpy>
   13ccc:	4401                	li	s0,0
   13cce:	b52fe06f          	j	12020 <_start+0xea2>
   13cd2:	58010513          	addi	a0,sp,1408
   13cd6:	00003097          	auipc	ra,0x3
   13cda:	7c6080e7          	jalr	1990(ra) # 1749c <_ZN9allow_pin12full_dynamic17unshare_if_shared17ha9c848d8c301b74dE>
   13cde:	51c10513          	addi	a0,sp,1308
   13ce2:	00003097          	auipc	ra,0x3
   13ce6:	7ba080e7          	jalr	1978(ra) # 1749c <_ZN9allow_pin12full_dynamic17unshare_if_shared17ha9c848d8c301b74dE>
   13cea:	51c10513          	addi	a0,sp,1308
   13cee:	00003097          	auipc	ra,0x3
   13cf2:	7ae080e7          	jalr	1966(ra) # 1749c <_ZN9allow_pin12full_dynamic17unshare_if_shared17ha9c848d8c301b74dE>
   13cf6:	00004297          	auipc	t0,0x4
   13cfa:	86a282e7          	jalr	t0,-1942(t0) # 17560 <OUTLINED_FUNCTION_3>
   13cfe:	00004297          	auipc	t0,0x4
   13d02:	9fa282e7          	jalr	t0,-1542(t0) # 176f8 <OUTLINED_FUNCTION_14>
   13d06:	464d                	li	a2,19
   13d08:	00004097          	auipc	ra,0x4
   13d0c:	bc2080e7          	jalr	-1086(ra) # 178ca <memcpy>
   13d10:	4401                	li	s0,0
   13d12:	bc2fe06f          	j	120d4 <_start+0xf56>
   13d16:	0d68                	addi	a0,sp,668
   13d18:	00003097          	auipc	ra,0x3
   13d1c:	784080e7          	jalr	1924(ra) # 1749c <_ZN9allow_pin12full_dynamic17unshare_if_shared17ha9c848d8c301b74dE>
   13d20:	58010513          	addi	a0,sp,1408
   13d24:	00003097          	auipc	ra,0x3
   13d28:	778080e7          	jalr	1912(ra) # 1749c <_ZN9allow_pin12full_dynamic17unshare_if_shared17ha9c848d8c301b74dE>
   13d2c:	58010513          	addi	a0,sp,1408
   13d30:	00003097          	auipc	ra,0x3
   13d34:	76c080e7          	jalr	1900(ra) # 1749c <_ZN9allow_pin12full_dynamic17unshare_if_shared17ha9c848d8c301b74dE>
   13d38:	00003297          	auipc	t0,0x3
   13d3c:	782282e7          	jalr	t0,1922(t0) # 174ba <OUTLINED_FUNCTION_0>
   13d40:	0488                	addi	a0,sp,576
   13d42:	04900613          	li	a2,73
   13d46:	00004097          	auipc	ra,0x4
   13d4a:	b84080e7          	jalr	-1148(ra) # 178ca <memcpy>
   13d4e:	4401                	li	s0,0
   13d50:	c34fe06f          	j	12184 <_start+0x1006>
   13d54:	58010513          	addi	a0,sp,1408
   13d58:	00003097          	auipc	ra,0x3
   13d5c:	744080e7          	jalr	1860(ra) # 1749c <_ZN9allow_pin12full_dynamic17unshare_if_shared17ha9c848d8c301b74dE>
   13d60:	51c10513          	addi	a0,sp,1308
   13d64:	00003097          	auipc	ra,0x3
   13d68:	738080e7          	jalr	1848(ra) # 1749c <_ZN9allow_pin12full_dynamic17unshare_if_shared17ha9c848d8c301b74dE>
   13d6c:	51c10513          	addi	a0,sp,1308
   13d70:	00003097          	auipc	ra,0x3
   13d74:	72c080e7          	jalr	1836(ra) # 1749c <_ZN9allow_pin12full_dynamic17unshare_if_shared17ha9c848d8c301b74dE>
   13d78:	00003297          	auipc	t0,0x3
   13d7c:	77e282e7          	jalr	t0,1918(t0) # 174f6 <OUTLINED_FUNCTION_1>
   13d80:	03500613          	li	a2,53
   13d84:	00004097          	auipc	ra,0x4
   13d88:	b46080e7          	jalr	-1210(ra) # 178ca <memcpy>
   13d8c:	4401                	li	s0,0
   13d8e:	cacfe06f          	j	1223a <_start+0x10bc>
   13d92:	58010513          	addi	a0,sp,1408
   13d96:	00003097          	auipc	ra,0x3
   13d9a:	706080e7          	jalr	1798(ra) # 1749c <_ZN9allow_pin12full_dynamic17unshare_if_shared17ha9c848d8c301b74dE>
   13d9e:	51c10513          	addi	a0,sp,1308
   13da2:	00003097          	auipc	ra,0x3
   13da6:	6fa080e7          	jalr	1786(ra) # 1749c <_ZN9allow_pin12full_dynamic17unshare_if_shared17ha9c848d8c301b74dE>
   13daa:	51c10513          	addi	a0,sp,1308
   13dae:	00003097          	auipc	ra,0x3
   13db2:	6ee080e7          	jalr	1774(ra) # 1749c <_ZN9allow_pin12full_dynamic17unshare_if_shared17ha9c848d8c301b74dE>
   13db6:	00003297          	auipc	t0,0x3
   13dba:	740282e7          	jalr	t0,1856(t0) # 174f6 <OUTLINED_FUNCTION_1>
   13dbe:	02b00613          	li	a2,43
   13dc2:	00004097          	auipc	ra,0x4
   13dc6:	b08080e7          	jalr	-1272(ra) # 178ca <memcpy>
   13dca:	4401                	li	s0,0
   13dcc:	d24fe06f          	j	122f0 <_start+0x1172>
   13dd0:	51c10513          	addi	a0,sp,1308
   13dd4:	00003097          	auipc	ra,0x3
   13dd8:	6c8080e7          	jalr	1736(ra) # 1749c <_ZN9allow_pin12full_dynamic17unshare_if_shared17ha9c848d8c301b74dE>
   13ddc:	58010513          	addi	a0,sp,1408
   13de0:	00003097          	auipc	ra,0x3
   13de4:	6bc080e7          	jalr	1724(ra) # 1749c <_ZN9allow_pin12full_dynamic17unshare_if_shared17ha9c848d8c301b74dE>
   13de8:	58010513          	addi	a0,sp,1408
   13dec:	00003097          	auipc	ra,0x3
   13df0:	6b0080e7          	jalr	1712(ra) # 1749c <_ZN9allow_pin12full_dynamic17unshare_if_shared17ha9c848d8c301b74dE>
   13df4:	00003297          	auipc	t0,0x3
   13df8:	6c6282e7          	jalr	t0,1734(t0) # 174ba <OUTLINED_FUNCTION_0>
   13dfc:	0d68                	addi	a0,sp,668
   13dfe:	02b00613          	li	a2,43
   13e02:	00004097          	auipc	ra,0x4
   13e06:	ac8080e7          	jalr	-1336(ra) # 178ca <memcpy>
   13e0a:	4401                	li	s0,0
   13e0c:	d9cfe06f          	j	123a8 <_start+0x122a>
   13e10:	58010513          	addi	a0,sp,1408
   13e14:	00003097          	auipc	ra,0x3
   13e18:	688080e7          	jalr	1672(ra) # 1749c <_ZN9allow_pin12full_dynamic17unshare_if_shared17ha9c848d8c301b74dE>
   13e1c:	51c10513          	addi	a0,sp,1308
   13e20:	00003097          	auipc	ra,0x3
   13e24:	67c080e7          	jalr	1660(ra) # 1749c <_ZN9allow_pin12full_dynamic17unshare_if_shared17ha9c848d8c301b74dE>
   13e28:	51c10513          	addi	a0,sp,1308
   13e2c:	00003097          	auipc	ra,0x3
   13e30:	670080e7          	jalr	1648(ra) # 1749c <_ZN9allow_pin12full_dynamic17unshare_if_shared17ha9c848d8c301b74dE>
   13e34:	4401                	li	s0,0
   13e36:	00094503          	lbu	a0,0(s2)
   13e3a:	00194583          	lbu	a1,1(s2)
   13e3e:	00294803          	lbu	a6,2(s2)
   13e42:	52b14283          	lbu	t0,1323(sp)
   13e46:	52c14303          	lbu	t1,1324(sp)
   13e4a:	52d14783          	lbu	a5,1325(sp)
   13e4e:	52e14483          	lbu	s1,1326(sp)
   13e52:	52f14383          	lbu	t2,1327(sp)
   13e56:	05a2                	slli	a1,a1,0x8
   13e58:	00a5e8b3          	or	a7,a1,a0
   13e5c:	53014583          	lbu	a1,1328(sp)
   13e60:	53114503          	lbu	a0,1329(sp)
   13e64:	53214683          	lbu	a3,1330(sp)
   13e68:	53314e03          	lbu	t3,1331(sp)
   13e6c:	0322                	slli	t1,t1,0x8
   13e6e:	07c2                	slli	a5,a5,0x10
   13e70:	04e2                	slli	s1,s1,0x18
   13e72:	05a2                	slli	a1,a1,0x8
   13e74:	0542                	slli	a0,a0,0x10
   13e76:	06e2                	slli	a3,a3,0x18
   13e78:	005362b3          	or	t0,t1,t0
   13e7c:	8fc5                	or	a5,a5,s1
   13e7e:	0075e5b3          	or	a1,a1,t2
   13e82:	8d55                	or	a0,a0,a3
   13e84:	53414683          	lbu	a3,1332(sp)
   13e88:	53514483          	lbu	s1,1333(sp)
   13e8c:	53614703          	lbu	a4,1334(sp)
   13e90:	53714603          	lbu	a2,1335(sp)
   13e94:	06a2                	slli	a3,a3,0x8
   13e96:	01c6e6b3          	or	a3,a3,t3
   13e9a:	04c2                	slli	s1,s1,0x10
   13e9c:	0762                	slli	a4,a4,0x18
   13e9e:	8f45                	or	a4,a4,s1
   13ea0:	4b111423          	sh	a7,1192(sp)
   13ea4:	4b010523          	sb	a6,1194(sp)
   13ea8:	0057e4b3          	or	s1,a5,t0
   13eac:	8d4d                	or	a0,a0,a1
   13eae:	8ed9                	or	a3,a3,a4
   13eb0:	34a12223          	sw	a0,836(sp)
   13eb4:	34d12423          	sw	a3,840(sp)
   13eb8:	34c10623          	sb	a2,844(sp)
   13ebc:	db0fe06f          	j	1246c <_start+0x12ee>
   13ec0:	0d68                	addi	a0,sp,668
   13ec2:	00003097          	auipc	ra,0x3
   13ec6:	5da080e7          	jalr	1498(ra) # 1749c <_ZN9allow_pin12full_dynamic17unshare_if_shared17ha9c848d8c301b74dE>
   13eca:	58010513          	addi	a0,sp,1408
   13ece:	00003097          	auipc	ra,0x3
   13ed2:	5ce080e7          	jalr	1486(ra) # 1749c <_ZN9allow_pin12full_dynamic17unshare_if_shared17ha9c848d8c301b74dE>
   13ed6:	58010513          	addi	a0,sp,1408
   13eda:	00003097          	auipc	ra,0x3
   13ede:	5c2080e7          	jalr	1474(ra) # 1749c <_ZN9allow_pin12full_dynamic17unshare_if_shared17ha9c848d8c301b74dE>
   13ee2:	00003297          	auipc	t0,0x3
   13ee6:	5d8282e7          	jalr	t0,1496(t0) # 174ba <OUTLINED_FUNCTION_0>
   13eea:	0488                	addi	a0,sp,576
   13eec:	02f00613          	li	a2,47
   13ef0:	00004097          	auipc	ra,0x4
   13ef4:	9da080e7          	jalr	-1574(ra) # 178ca <memcpy>
   13ef8:	4401                	li	s0,0
   13efa:	e30fe06f          	j	1252a <_start+0x13ac>
   13efe:	58010513          	addi	a0,sp,1408
   13f02:	00003097          	auipc	ra,0x3
   13f06:	59a080e7          	jalr	1434(ra) # 1749c <_ZN9allow_pin12full_dynamic17unshare_if_shared17ha9c848d8c301b74dE>
   13f0a:	51c10513          	addi	a0,sp,1308
   13f0e:	00003097          	auipc	ra,0x3
   13f12:	58e080e7          	jalr	1422(ra) # 1749c <_ZN9allow_pin12full_dynamic17unshare_if_shared17ha9c848d8c301b74dE>
   13f16:	51c10513          	addi	a0,sp,1308
   13f1a:	00003097          	auipc	ra,0x3
   13f1e:	582080e7          	jalr	1410(ra) # 1749c <_ZN9allow_pin12full_dynamic17unshare_if_shared17ha9c848d8c301b74dE>
   13f22:	4a01                	li	s4,0
   13f24:	00094883          	lbu	a7,0(s2)
   13f28:	00194283          	lbu	t0,1(s2)
   13f2c:	00294803          	lbu	a6,2(s2)
   13f30:	52b14303          	lbu	t1,1323(sp)
   13f34:	53014e83          	lbu	t4,1328(sp)
   13f38:	53114383          	lbu	t2,1329(sp)
   13f3c:	53214e03          	lbu	t3,1330(sp)
   13f40:	53314403          	lbu	s0,1331(sp)
   13f44:	52c14603          	lbu	a2,1324(sp)
   13f48:	52d14503          	lbu	a0,1325(sp)
   13f4c:	52e14583          	lbu	a1,1326(sp)
   13f50:	52f14683          	lbu	a3,1327(sp)
   13f54:	02a2                	slli	t0,t0,0x8
   13f56:	0622                	slli	a2,a2,0x8
   13f58:	0542                	slli	a0,a0,0x10
   13f5a:	05e2                	slli	a1,a1,0x18
   13f5c:	0112e7b3          	or	a5,t0,a7
   13f60:	00004297          	auipc	t0,0x4
   13f64:	822282e7          	jalr	t0,-2014(t0) # 17782 <OUTLINED_FUNCTION_18>
   13f68:	e72fe06f          	j	125da <_start+0x145c>
   13f6c:	51c10513          	addi	a0,sp,1308
   13f70:	00003097          	auipc	ra,0x3
   13f74:	52c080e7          	jalr	1324(ra) # 1749c <_ZN9allow_pin12full_dynamic17unshare_if_shared17ha9c848d8c301b74dE>
   13f78:	58010513          	addi	a0,sp,1408
   13f7c:	00003097          	auipc	ra,0x3
   13f80:	520080e7          	jalr	1312(ra) # 1749c <_ZN9allow_pin12full_dynamic17unshare_if_shared17ha9c848d8c301b74dE>
   13f84:	58010513          	addi	a0,sp,1408
   13f88:	00003097          	auipc	ra,0x3
   13f8c:	514080e7          	jalr	1300(ra) # 1749c <_ZN9allow_pin12full_dynamic17unshare_if_shared17ha9c848d8c301b74dE>
   13f90:	4401                	li	s0,0
   13f92:	0009c883          	lbu	a7,0(s3)
   13f96:	0019c303          	lbu	t1,1(s3)
   13f9a:	0029c803          	lbu	a6,2(s3)
   13f9e:	58f14683          	lbu	a3,1423(sp)
   13fa2:	59014703          	lbu	a4,1424(sp)
   13fa6:	59114783          	lbu	a5,1425(sp)
   13faa:	59214483          	lbu	s1,1426(sp)
   13fae:	59314503          	lbu	a0,1427(sp)
   13fb2:	59414583          	lbu	a1,1428(sp)
   13fb6:	59514283          	lbu	t0,1429(sp)
   13fba:	59614383          	lbu	t2,1430(sp)
   13fbe:	59714603          	lbu	a2,1431(sp)
   13fc2:	0322                	slli	t1,t1,0x8
   13fc4:	0722                	slli	a4,a4,0x8
   13fc6:	07c2                	slli	a5,a5,0x10
   13fc8:	04e2                	slli	s1,s1,0x18
   13fca:	05a2                	slli	a1,a1,0x8
   13fcc:	011368b3          	or	a7,t1,a7
   13fd0:	00d76333          	or	t1,a4,a3
   13fd4:	00f4eeb3          	or	t4,s1,a5
   13fd8:	00a5ee33          	or	t3,a1,a0
   13fdc:	59814583          	lbu	a1,1432(sp)
   13fe0:	59914703          	lbu	a4,1433(sp)
   13fe4:	59a14483          	lbu	s1,1434(sp)
   13fe8:	59b14683          	lbu	a3,1435(sp)
   13fec:	02c2                	slli	t0,t0,0x10
   13fee:	03e2                	slli	t2,t2,0x18
   13ff0:	05a2                	slli	a1,a1,0x8
   13ff2:	0742                	slli	a4,a4,0x10
   13ff4:	04e2                	slli	s1,s1,0x18
   13ff6:	0053e533          	or	a0,t2,t0
   13ffa:	8dd1                	or	a1,a1,a2
   13ffc:	59c14603          	lbu	a2,1436(sp)
   14000:	8f45                	or	a4,a4,s1
   14002:	59d14483          	lbu	s1,1437(sp)
   14006:	59e14783          	lbu	a5,1438(sp)
   1400a:	0622                	slli	a2,a2,0x8
   1400c:	8e55                	or	a2,a2,a3
   1400e:	04c2                	slli	s1,s1,0x10
   14010:	07e2                	slli	a5,a5,0x18
   14012:	8fc5                	or	a5,a5,s1
   14014:	35111223          	sh	a7,836(sp)
   14018:	35010323          	sb	a6,838(sp)
   1401c:	006ee4b3          	or	s1,t4,t1
   14020:	01c56533          	or	a0,a0,t3
   14024:	8dd9                	or	a1,a1,a4
   14026:	8e5d                	or	a2,a2,a5
   14028:	0414                	addi	a3,sp,512
   1402a:	c2a8                	sw	a0,64(a3)
   1402c:	c2ec                	sw	a1,68(a3)
   1402e:	c6b0                	sw	a2,72(a3)
   14030:	e38fe06f          	j	12668 <_start+0x14ea>
   14034:	0d68                	addi	a0,sp,668
   14036:	00003097          	auipc	ra,0x3
   1403a:	466080e7          	jalr	1126(ra) # 1749c <_ZN9allow_pin12full_dynamic17unshare_if_shared17ha9c848d8c301b74dE>
   1403e:	58010513          	addi	a0,sp,1408
   14042:	00003097          	auipc	ra,0x3
   14046:	45a080e7          	jalr	1114(ra) # 1749c <_ZN9allow_pin12full_dynamic17unshare_if_shared17ha9c848d8c301b74dE>
   1404a:	58010513          	addi	a0,sp,1408
   1404e:	00003097          	auipc	ra,0x3
   14052:	44e080e7          	jalr	1102(ra) # 1749c <_ZN9allow_pin12full_dynamic17unshare_if_shared17ha9c848d8c301b74dE>
   14056:	00003297          	auipc	t0,0x3
   1405a:	464282e7          	jalr	t0,1124(t0) # 174ba <OUTLINED_FUNCTION_0>
   1405e:	0488                	addi	a0,sp,576
   14060:	04e00613          	li	a2,78
   14064:	00004097          	auipc	ra,0x4
   14068:	866080e7          	jalr	-1946(ra) # 178ca <memcpy>
   1406c:	4401                	li	s0,0
   1406e:	eccfe06f          	j	1273a <_start+0x15bc>
   14072:	58010513          	addi	a0,sp,1408
   14076:	00003097          	auipc	ra,0x3
   1407a:	426080e7          	jalr	1062(ra) # 1749c <_ZN9allow_pin12full_dynamic17unshare_if_shared17ha9c848d8c301b74dE>
   1407e:	51c10513          	addi	a0,sp,1308
   14082:	00003097          	auipc	ra,0x3
   14086:	41a080e7          	jalr	1050(ra) # 1749c <_ZN9allow_pin12full_dynamic17unshare_if_shared17ha9c848d8c301b74dE>
   1408a:	51c10513          	addi	a0,sp,1308
   1408e:	00003097          	auipc	ra,0x3
   14092:	40e080e7          	jalr	1038(ra) # 1749c <_ZN9allow_pin12full_dynamic17unshare_if_shared17ha9c848d8c301b74dE>
   14096:	00003297          	auipc	t0,0x3
   1409a:	460282e7          	jalr	t0,1120(t0) # 174f6 <OUTLINED_FUNCTION_1>
   1409e:	02b00613          	li	a2,43
   140a2:	00004097          	auipc	ra,0x4
   140a6:	828080e7          	jalr	-2008(ra) # 178ca <memcpy>
   140aa:	4401                	li	s0,0
   140ac:	f44fe06f          	j	127f0 <_start+0x1672>
   140b0:	51c10513          	addi	a0,sp,1308
   140b4:	00003097          	auipc	ra,0x3
   140b8:	3e8080e7          	jalr	1000(ra) # 1749c <_ZN9allow_pin12full_dynamic17unshare_if_shared17ha9c848d8c301b74dE>
   140bc:	58010513          	addi	a0,sp,1408
   140c0:	00003097          	auipc	ra,0x3
   140c4:	3dc080e7          	jalr	988(ra) # 1749c <_ZN9allow_pin12full_dynamic17unshare_if_shared17ha9c848d8c301b74dE>
   140c8:	58010513          	addi	a0,sp,1408
   140cc:	00003097          	auipc	ra,0x3
   140d0:	3d0080e7          	jalr	976(ra) # 1749c <_ZN9allow_pin12full_dynamic17unshare_if_shared17ha9c848d8c301b74dE>
   140d4:	00003297          	auipc	t0,0x3
   140d8:	3e6282e7          	jalr	t0,998(t0) # 174ba <OUTLINED_FUNCTION_0>
   140dc:	0d68                	addi	a0,sp,668
   140de:	03a00613          	li	a2,58
   140e2:	00003097          	auipc	ra,0x3
   140e6:	7e8080e7          	jalr	2024(ra) # 178ca <memcpy>
   140ea:	4401                	li	s0,0
   140ec:	fbcfe06f          	j	128a8 <_start+0x172a>
   140f0:	58010513          	addi	a0,sp,1408
   140f4:	00003097          	auipc	ra,0x3
   140f8:	3a8080e7          	jalr	936(ra) # 1749c <_ZN9allow_pin12full_dynamic17unshare_if_shared17ha9c848d8c301b74dE>
   140fc:	51c10513          	addi	a0,sp,1308
   14100:	00003097          	auipc	ra,0x3
   14104:	39c080e7          	jalr	924(ra) # 1749c <_ZN9allow_pin12full_dynamic17unshare_if_shared17ha9c848d8c301b74dE>
   14108:	51c10513          	addi	a0,sp,1308
   1410c:	00003097          	auipc	ra,0x3
   14110:	390080e7          	jalr	912(ra) # 1749c <_ZN9allow_pin12full_dynamic17unshare_if_shared17ha9c848d8c301b74dE>
   14114:	00003297          	auipc	t0,0x3
   14118:	44c282e7          	jalr	t0,1100(t0) # 17560 <OUTLINED_FUNCTION_3>
   1411c:	00003297          	auipc	t0,0x3
   14120:	5dc282e7          	jalr	t0,1500(t0) # 176f8 <OUTLINED_FUNCTION_14>
   14124:	466d                	li	a2,27
   14126:	00003097          	auipc	ra,0x3
   1412a:	7a4080e7          	jalr	1956(ra) # 178ca <memcpy>
   1412e:	4a01                	li	s4,0
   14130:	82ffe06f          	j	1295e <_start+0x17e0>
   14134:	0d68                	addi	a0,sp,668
   14136:	00003097          	auipc	ra,0x3
   1413a:	366080e7          	jalr	870(ra) # 1749c <_ZN9allow_pin12full_dynamic17unshare_if_shared17ha9c848d8c301b74dE>
   1413e:	58010513          	addi	a0,sp,1408
   14142:	00003097          	auipc	ra,0x3
   14146:	35a080e7          	jalr	858(ra) # 1749c <_ZN9allow_pin12full_dynamic17unshare_if_shared17ha9c848d8c301b74dE>
   1414a:	58010513          	addi	a0,sp,1408
   1414e:	00003097          	auipc	ra,0x3
   14152:	34e080e7          	jalr	846(ra) # 1749c <_ZN9allow_pin12full_dynamic17unshare_if_shared17ha9c848d8c301b74dE>
   14156:	00003297          	auipc	t0,0x3
   1415a:	364282e7          	jalr	t0,868(t0) # 174ba <OUTLINED_FUNCTION_0>
   1415e:	0488                	addi	a0,sp,576
   14160:	04a00613          	li	a2,74
   14164:	00003097          	auipc	ra,0x3
   14168:	766080e7          	jalr	1894(ra) # 178ca <memcpy>
   1416c:	4401                	li	s0,0
   1416e:	8a1fe06f          	j	12a0e <_start+0x1890>
   14172:	58010513          	addi	a0,sp,1408
   14176:	00003097          	auipc	ra,0x3
   1417a:	326080e7          	jalr	806(ra) # 1749c <_ZN9allow_pin12full_dynamic17unshare_if_shared17ha9c848d8c301b74dE>
   1417e:	51c10513          	addi	a0,sp,1308
   14182:	00003097          	auipc	ra,0x3
   14186:	31a080e7          	jalr	794(ra) # 1749c <_ZN9allow_pin12full_dynamic17unshare_if_shared17ha9c848d8c301b74dE>
   1418a:	51c10513          	addi	a0,sp,1308
   1418e:	00003097          	auipc	ra,0x3
   14192:	30e080e7          	jalr	782(ra) # 1749c <_ZN9allow_pin12full_dynamic17unshare_if_shared17ha9c848d8c301b74dE>
   14196:	00003297          	auipc	t0,0x3
   1419a:	3ca282e7          	jalr	t0,970(t0) # 17560 <OUTLINED_FUNCTION_3>
   1419e:	00003297          	auipc	t0,0x3
   141a2:	580282e7          	jalr	t0,1408(t0) # 1771e <OUTLINED_FUNCTION_16>
   141a6:	04800613          	li	a2,72
   141aa:	00003097          	auipc	ra,0x3
   141ae:	720080e7          	jalr	1824(ra) # 178ca <memcpy>
   141b2:	4401                	li	s0,0
   141b4:	90dfe06f          	j	12ac0 <_start+0x1942>
   141b8:	58010513          	addi	a0,sp,1408
   141bc:	00003097          	auipc	ra,0x3
   141c0:	2e0080e7          	jalr	736(ra) # 1749c <_ZN9allow_pin12full_dynamic17unshare_if_shared17ha9c848d8c301b74dE>
   141c4:	51c10513          	addi	a0,sp,1308
   141c8:	00003097          	auipc	ra,0x3
   141cc:	2d4080e7          	jalr	724(ra) # 1749c <_ZN9allow_pin12full_dynamic17unshare_if_shared17ha9c848d8c301b74dE>
   141d0:	51c10513          	addi	a0,sp,1308
   141d4:	00003097          	auipc	ra,0x3
   141d8:	2c8080e7          	jalr	712(ra) # 1749c <_ZN9allow_pin12full_dynamic17unshare_if_shared17ha9c848d8c301b74dE>
   141dc:	00003297          	auipc	t0,0x3
   141e0:	384282e7          	jalr	t0,900(t0) # 17560 <OUTLINED_FUNCTION_3>
   141e4:	00003297          	auipc	t0,0x3
   141e8:	53a282e7          	jalr	t0,1338(t0) # 1771e <OUTLINED_FUNCTION_16>
   141ec:	03400613          	li	a2,52
   141f0:	00003097          	auipc	ra,0x3
   141f4:	6da080e7          	jalr	1754(ra) # 178ca <memcpy>
   141f8:	4401                	li	s0,0
   141fa:	981fe06f          	j	12b7a <_start+0x19fc>
   141fe:	58010513          	addi	a0,sp,1408
   14202:	00003097          	auipc	ra,0x3
   14206:	29a080e7          	jalr	666(ra) # 1749c <_ZN9allow_pin12full_dynamic17unshare_if_shared17ha9c848d8c301b74dE>
   1420a:	51c10513          	addi	a0,sp,1308
   1420e:	00003097          	auipc	ra,0x3
   14212:	28e080e7          	jalr	654(ra) # 1749c <_ZN9allow_pin12full_dynamic17unshare_if_shared17ha9c848d8c301b74dE>
   14216:	51c10513          	addi	a0,sp,1308
   1421a:	00003097          	auipc	ra,0x3
   1421e:	282080e7          	jalr	642(ra) # 1749c <_ZN9allow_pin12full_dynamic17unshare_if_shared17ha9c848d8c301b74dE>
   14222:	00003297          	auipc	t0,0x3
   14226:	33e282e7          	jalr	t0,830(t0) # 17560 <OUTLINED_FUNCTION_3>
   1422a:	00003297          	auipc	t0,0x3
   1422e:	4f4282e7          	jalr	t0,1268(t0) # 1771e <OUTLINED_FUNCTION_16>
   14232:	02000613          	li	a2,32
   14236:	00003097          	auipc	ra,0x3
   1423a:	694080e7          	jalr	1684(ra) # 178ca <memcpy>
   1423e:	4401                	li	s0,0
   14240:	9f5fe06f          	j	12c34 <_start+0x1ab6>
   14244:	58010513          	addi	a0,sp,1408
   14248:	00003097          	auipc	ra,0x3
   1424c:	254080e7          	jalr	596(ra) # 1749c <_ZN9allow_pin12full_dynamic17unshare_if_shared17ha9c848d8c301b74dE>
   14250:	51c10513          	addi	a0,sp,1308
   14254:	00003097          	auipc	ra,0x3
   14258:	248080e7          	jalr	584(ra) # 1749c <_ZN9allow_pin12full_dynamic17unshare_if_shared17ha9c848d8c301b74dE>
   1425c:	51c10513          	addi	a0,sp,1308
   14260:	00003097          	auipc	ra,0x3
   14264:	23c080e7          	jalr	572(ra) # 1749c <_ZN9allow_pin12full_dynamic17unshare_if_shared17ha9c848d8c301b74dE>
   14268:	4401                	li	s0,0
   1426a:	00094283          	lbu	t0,0(s2)
   1426e:	00194303          	lbu	t1,1(s2)
   14272:	00294803          	lbu	a6,2(s2)
   14276:	52b14683          	lbu	a3,1323(sp)
   1427a:	52c14703          	lbu	a4,1324(sp)
   1427e:	52d14783          	lbu	a5,1325(sp)
   14282:	52e14483          	lbu	s1,1326(sp)
   14286:	52f14883          	lbu	a7,1327(sp)
   1428a:	53014383          	lbu	t2,1328(sp)
   1428e:	53114583          	lbu	a1,1329(sp)
   14292:	53214603          	lbu	a2,1330(sp)
   14296:	53314e83          	lbu	t4,1331(sp)
   1429a:	0322                	slli	t1,t1,0x8
   1429c:	0722                	slli	a4,a4,0x8
   1429e:	07c2                	slli	a5,a5,0x10
   142a0:	04e2                	slli	s1,s1,0x18
   142a2:	005362b3          	or	t0,t1,t0
   142a6:	00d76333          	or	t1,a4,a3
   142aa:	00f4ee33          	or	t3,s1,a5
   142ae:	53414703          	lbu	a4,1332(sp)
   142b2:	53514483          	lbu	s1,1333(sp)
   142b6:	53614683          	lbu	a3,1334(sp)
   142ba:	53714f03          	lbu	t5,1335(sp)
   142be:	03a2                	slli	t2,t2,0x8
   142c0:	05c2                	slli	a1,a1,0x10
   142c2:	0662                	slli	a2,a2,0x18
   142c4:	0722                	slli	a4,a4,0x8
   142c6:	04c2                	slli	s1,s1,0x10
   142c8:	06e2                	slli	a3,a3,0x18
   142ca:	0113e8b3          	or	a7,t2,a7
   142ce:	8dd1                	or	a1,a1,a2
   142d0:	01d76633          	or	a2,a4,t4
   142d4:	8ec5                	or	a3,a3,s1
   142d6:	53814703          	lbu	a4,1336(sp)
   142da:	53914483          	lbu	s1,1337(sp)
   142de:	53a14503          	lbu	a0,1338(sp)
   142e2:	53b14783          	lbu	a5,1339(sp)
   142e6:	0722                	slli	a4,a4,0x8
   142e8:	01e76733          	or	a4,a4,t5
   142ec:	04c2                	slli	s1,s1,0x10
   142ee:	0562                	slli	a0,a0,0x18
   142f0:	8d45                	or	a0,a0,s1
   142f2:	4a511423          	sh	t0,1192(sp)
   142f6:	4b010523          	sb	a6,1194(sp)
   142fa:	006e64b3          	or	s1,t3,t1
   142fe:	0115e5b3          	or	a1,a1,a7
   14302:	8e55                	or	a2,a2,a3
   14304:	8d59                	or	a0,a0,a4
   14306:	0614                	addi	a3,sp,768
   14308:	c2ec                	sw	a1,68(a3)
   1430a:	c6b0                	sw	a2,72(a3)
   1430c:	c6e8                	sw	a0,76(a3)
   1430e:	34f10823          	sb	a5,848(sp)
   14312:	9d9fe06f          	j	12cea <_start+0x1b6c>
   14316:	0488                	addi	a0,sp,576
   14318:	00003097          	auipc	ra,0x3
   1431c:	184080e7          	jalr	388(ra) # 1749c <_ZN9allow_pin12full_dynamic17unshare_if_shared17ha9c848d8c301b74dE>
   14320:	58010513          	addi	a0,sp,1408
   14324:	00003097          	auipc	ra,0x3
   14328:	178080e7          	jalr	376(ra) # 1749c <_ZN9allow_pin12full_dynamic17unshare_if_shared17ha9c848d8c301b74dE>
   1432c:	58010513          	addi	a0,sp,1408
   14330:	00003097          	auipc	ra,0x3
   14334:	16c080e7          	jalr	364(ra) # 1749c <_ZN9allow_pin12full_dynamic17unshare_if_shared17ha9c848d8c301b74dE>
   14338:	00003297          	auipc	t0,0x3
   1433c:	1fc282e7          	jalr	t0,508(t0) # 17534 <OUTLINED_FUNCTION_2>
   14340:	00003297          	auipc	t0,0x3
   14344:	3a2282e7          	jalr	t0,930(t0) # 176e2 <OUTLINED_FUNCTION_13>
   14348:	02400613          	li	a2,36
   1434c:	00003097          	auipc	ra,0x3
   14350:	57e080e7          	jalr	1406(ra) # 178ca <memcpy>
   14354:	4401                	li	s0,0
   14356:	a5bfe06f          	j	12db0 <_start+0x1c32>
   1435a:	58010513          	addi	a0,sp,1408
   1435e:	00003097          	auipc	ra,0x3
   14362:	13e080e7          	jalr	318(ra) # 1749c <_ZN9allow_pin12full_dynamic17unshare_if_shared17ha9c848d8c301b74dE>
   14366:	51c10513          	addi	a0,sp,1308
   1436a:	00003097          	auipc	ra,0x3
   1436e:	132080e7          	jalr	306(ra) # 1749c <_ZN9allow_pin12full_dynamic17unshare_if_shared17ha9c848d8c301b74dE>
   14372:	51c10513          	addi	a0,sp,1308
   14376:	00003097          	auipc	ra,0x3
   1437a:	126080e7          	jalr	294(ra) # 1749c <_ZN9allow_pin12full_dynamic17unshare_if_shared17ha9c848d8c301b74dE>
   1437e:	00003297          	auipc	t0,0x3
   14382:	1e2282e7          	jalr	t0,482(t0) # 17560 <OUTLINED_FUNCTION_3>
   14386:	00003297          	auipc	t0,0x3
   1438a:	372282e7          	jalr	t0,882(t0) # 176f8 <OUTLINED_FUNCTION_14>
   1438e:	465d                	li	a2,23
   14390:	00003097          	auipc	ra,0x3
   14394:	53a080e7          	jalr	1338(ra) # 178ca <memcpy>
   14398:	4401                	li	s0,0
   1439a:	acbfe06f          	j	12e64 <_start+0x1ce6>
   1439e:	0d68                	addi	a0,sp,668
   143a0:	00003097          	auipc	ra,0x3
   143a4:	0fc080e7          	jalr	252(ra) # 1749c <_ZN9allow_pin12full_dynamic17unshare_if_shared17ha9c848d8c301b74dE>
   143a8:	58010513          	addi	a0,sp,1408
   143ac:	00003097          	auipc	ra,0x3
   143b0:	0f0080e7          	jalr	240(ra) # 1749c <_ZN9allow_pin12full_dynamic17unshare_if_shared17ha9c848d8c301b74dE>
   143b4:	58010513          	addi	a0,sp,1408
   143b8:	00003097          	auipc	ra,0x3
   143bc:	0e4080e7          	jalr	228(ra) # 1749c <_ZN9allow_pin12full_dynamic17unshare_if_shared17ha9c848d8c301b74dE>
   143c0:	00003297          	auipc	t0,0x3
   143c4:	0fa282e7          	jalr	t0,250(t0) # 174ba <OUTLINED_FUNCTION_0>
   143c8:	0488                	addi	a0,sp,576
   143ca:	04a00613          	li	a2,74
   143ce:	00003097          	auipc	ra,0x3
   143d2:	4fc080e7          	jalr	1276(ra) # 178ca <memcpy>
   143d6:	4401                	li	s0,0
   143d8:	b3dfe06f          	j	12f14 <_start+0x1d96>
   143dc:	58010513          	addi	a0,sp,1408
   143e0:	00003097          	auipc	ra,0x3
   143e4:	0bc080e7          	jalr	188(ra) # 1749c <_ZN9allow_pin12full_dynamic17unshare_if_shared17ha9c848d8c301b74dE>
   143e8:	51c10513          	addi	a0,sp,1308
   143ec:	00003097          	auipc	ra,0x3
   143f0:	0b0080e7          	jalr	176(ra) # 1749c <_ZN9allow_pin12full_dynamic17unshare_if_shared17ha9c848d8c301b74dE>
   143f4:	51c10513          	addi	a0,sp,1308
   143f8:	00003097          	auipc	ra,0x3
   143fc:	0a4080e7          	jalr	164(ra) # 1749c <_ZN9allow_pin12full_dynamic17unshare_if_shared17ha9c848d8c301b74dE>
   14400:	4a01                	li	s4,0
   14402:	00094883          	lbu	a7,0(s2)
   14406:	00194283          	lbu	t0,1(s2)
   1440a:	00294803          	lbu	a6,2(s2)
   1440e:	52b14303          	lbu	t1,1323(sp)
   14412:	53014e83          	lbu	t4,1328(sp)
   14416:	53114383          	lbu	t2,1329(sp)
   1441a:	53214e03          	lbu	t3,1330(sp)
   1441e:	53314403          	lbu	s0,1331(sp)
   14422:	52c14603          	lbu	a2,1324(sp)
   14426:	52d14503          	lbu	a0,1325(sp)
   1442a:	52e14583          	lbu	a1,1326(sp)
   1442e:	52f14683          	lbu	a3,1327(sp)
   14432:	02a2                	slli	t0,t0,0x8
   14434:	0622                	slli	a2,a2,0x8
   14436:	0542                	slli	a0,a0,0x10
   14438:	05e2                	slli	a1,a1,0x18
   1443a:	0112e7b3          	or	a5,t0,a7
   1443e:	00003297          	auipc	t0,0x3
   14442:	344282e7          	jalr	t0,836(t0) # 17782 <OUTLINED_FUNCTION_18>
   14446:	b7ffe06f          	j	12fc4 <_start+0x1e46>
   1444a:	51c10513          	addi	a0,sp,1308
   1444e:	00003097          	auipc	ra,0x3
   14452:	04e080e7          	jalr	78(ra) # 1749c <_ZN9allow_pin12full_dynamic17unshare_if_shared17ha9c848d8c301b74dE>
   14456:	58010513          	addi	a0,sp,1408
   1445a:	00003097          	auipc	ra,0x3
   1445e:	042080e7          	jalr	66(ra) # 1749c <_ZN9allow_pin12full_dynamic17unshare_if_shared17ha9c848d8c301b74dE>
   14462:	58010513          	addi	a0,sp,1408
   14466:	00003097          	auipc	ra,0x3
   1446a:	036080e7          	jalr	54(ra) # 1749c <_ZN9allow_pin12full_dynamic17unshare_if_shared17ha9c848d8c301b74dE>
   1446e:	00003297          	auipc	t0,0x3
   14472:	04c282e7          	jalr	t0,76(t0) # 174ba <OUTLINED_FUNCTION_0>
   14476:	0d68                	addi	a0,sp,668
   14478:	03f00613          	li	a2,63
   1447c:	00003097          	auipc	ra,0x3
   14480:	44e080e7          	jalr	1102(ra) # 178ca <memcpy>
   14484:	4401                	li	s0,0
   14486:	bd1fe06f          	j	13056 <_start+0x1ed8>
   1448a:	51c10513          	addi	a0,sp,1308
   1448e:	00003097          	auipc	ra,0x3
   14492:	00e080e7          	jalr	14(ra) # 1749c <_ZN9allow_pin12full_dynamic17unshare_if_shared17ha9c848d8c301b74dE>
   14496:	58010513          	addi	a0,sp,1408
   1449a:	00003097          	auipc	ra,0x3
   1449e:	002080e7          	jalr	2(ra) # 1749c <_ZN9allow_pin12full_dynamic17unshare_if_shared17ha9c848d8c301b74dE>
   144a2:	58010513          	addi	a0,sp,1408
   144a6:	00003097          	auipc	ra,0x3
   144aa:	ff6080e7          	jalr	-10(ra) # 1749c <_ZN9allow_pin12full_dynamic17unshare_if_shared17ha9c848d8c301b74dE>
   144ae:	00003297          	auipc	t0,0x3
   144b2:	00c282e7          	jalr	t0,12(t0) # 174ba <OUTLINED_FUNCTION_0>
   144b6:	0d68                	addi	a0,sp,668
   144b8:	04f00613          	li	a2,79
   144bc:	00003097          	auipc	ra,0x3
   144c0:	40e080e7          	jalr	1038(ra) # 178ca <memcpy>
   144c4:	4401                	li	s0,0
   144c6:	c49fe06f          	j	1310e <_start+0x1f90>
   144ca:	58010513          	addi	a0,sp,1408
   144ce:	00003097          	auipc	ra,0x3
   144d2:	fce080e7          	jalr	-50(ra) # 1749c <_ZN9allow_pin12full_dynamic17unshare_if_shared17ha9c848d8c301b74dE>
   144d6:	51c10513          	addi	a0,sp,1308
   144da:	00003097          	auipc	ra,0x3
   144de:	fc2080e7          	jalr	-62(ra) # 1749c <_ZN9allow_pin12full_dynamic17unshare_if_shared17ha9c848d8c301b74dE>
   144e2:	51c10513          	addi	a0,sp,1308
   144e6:	00003097          	auipc	ra,0x3
   144ea:	fb6080e7          	jalr	-74(ra) # 1749c <_ZN9allow_pin12full_dynamic17unshare_if_shared17ha9c848d8c301b74dE>
   144ee:	00003297          	auipc	t0,0x3
   144f2:	008282e7          	jalr	t0,8(t0) # 174f6 <OUTLINED_FUNCTION_1>
   144f6:	04200613          	li	a2,66
   144fa:	00003097          	auipc	ra,0x3
   144fe:	3d0080e7          	jalr	976(ra) # 178ca <memcpy>
   14502:	4401                	li	s0,0
   14504:	cc1fe06f          	j	131c4 <_start+0x2046>
   14508:	58010513          	addi	a0,sp,1408
   1450c:	00003097          	auipc	ra,0x3
   14510:	f90080e7          	jalr	-112(ra) # 1749c <_ZN9allow_pin12full_dynamic17unshare_if_shared17ha9c848d8c301b74dE>
   14514:	51c10513          	addi	a0,sp,1308
   14518:	00003097          	auipc	ra,0x3
   1451c:	f84080e7          	jalr	-124(ra) # 1749c <_ZN9allow_pin12full_dynamic17unshare_if_shared17ha9c848d8c301b74dE>
   14520:	51c10513          	addi	a0,sp,1308
   14524:	00003097          	auipc	ra,0x3
   14528:	f78080e7          	jalr	-136(ra) # 1749c <_ZN9allow_pin12full_dynamic17unshare_if_shared17ha9c848d8c301b74dE>
   1452c:	00003297          	auipc	t0,0x3
   14530:	034282e7          	jalr	t0,52(t0) # 17560 <OUTLINED_FUNCTION_3>
   14534:	00003297          	auipc	t0,0x3
   14538:	1ea282e7          	jalr	t0,490(t0) # 1771e <OUTLINED_FUNCTION_16>
   1453c:	4671                	li	a2,28
   1453e:	00003097          	auipc	ra,0x3
   14542:	38c080e7          	jalr	908(ra) # 178ca <memcpy>
   14546:	4401                	li	s0,0
   14548:	d33fe06f          	j	1327a <_start+0x20fc>
   1454c:	51c10513          	addi	a0,sp,1308
   14550:	00003097          	auipc	ra,0x3
   14554:	f4c080e7          	jalr	-180(ra) # 1749c <_ZN9allow_pin12full_dynamic17unshare_if_shared17ha9c848d8c301b74dE>
   14558:	58010513          	addi	a0,sp,1408
   1455c:	00003097          	auipc	ra,0x3
   14560:	f40080e7          	jalr	-192(ra) # 1749c <_ZN9allow_pin12full_dynamic17unshare_if_shared17ha9c848d8c301b74dE>
   14564:	58010513          	addi	a0,sp,1408
   14568:	00003097          	auipc	ra,0x3
   1456c:	f34080e7          	jalr	-204(ra) # 1749c <_ZN9allow_pin12full_dynamic17unshare_if_shared17ha9c848d8c301b74dE>
   14570:	00003297          	auipc	t0,0x3
   14574:	fc4282e7          	jalr	t0,-60(t0) # 17534 <OUTLINED_FUNCTION_2>
   14578:	28a11e23          	sh	a0,668(sp)
   1457c:	28c10f23          	sb	a2,670(sp)
   14580:	00d5e4b3          	or	s1,a1,a3
   14584:	59310593          	addi	a1,sp,1427
   14588:	0488                	addi	a0,sp,576
   1458a:	02400613          	li	a2,36
   1458e:	00003097          	auipc	ra,0x3
   14592:	33c080e7          	jalr	828(ra) # 178ca <memcpy>
   14596:	4401                	li	s0,0
   14598:	d9bfe06f          	j	13332 <_start+0x21b4>
   1459c:	58010513          	addi	a0,sp,1408
   145a0:	00003097          	auipc	ra,0x3
   145a4:	efc080e7          	jalr	-260(ra) # 1749c <_ZN9allow_pin12full_dynamic17unshare_if_shared17ha9c848d8c301b74dE>
   145a8:	51c10513          	addi	a0,sp,1308
   145ac:	00003097          	auipc	ra,0x3
   145b0:	ef0080e7          	jalr	-272(ra) # 1749c <_ZN9allow_pin12full_dynamic17unshare_if_shared17ha9c848d8c301b74dE>
   145b4:	51c10513          	addi	a0,sp,1308
   145b8:	00003097          	auipc	ra,0x3
   145bc:	ee4080e7          	jalr	-284(ra) # 1749c <_ZN9allow_pin12full_dynamic17unshare_if_shared17ha9c848d8c301b74dE>
   145c0:	4401                	li	s0,0
   145c2:	00094883          	lbu	a7,0(s2)
   145c6:	00194583          	lbu	a1,1(s2)
   145ca:	00294803          	lbu	a6,2(s2)
   145ce:	52b14683          	lbu	a3,1323(sp)
   145d2:	53414283          	lbu	t0,1332(sp)
   145d6:	52c14783          	lbu	a5,1324(sp)
   145da:	52d14483          	lbu	s1,1325(sp)
   145de:	52e14303          	lbu	t1,1326(sp)
   145e2:	52f14503          	lbu	a0,1327(sp)
   145e6:	05a2                	slli	a1,a1,0x8
   145e8:	07a2                	slli	a5,a5,0x8
   145ea:	0115e5b3          	or	a1,a1,a7
   145ee:	00d7e8b3          	or	a7,a5,a3
   145f2:	53014783          	lbu	a5,1328(sp)
   145f6:	53114703          	lbu	a4,1329(sp)
   145fa:	53214603          	lbu	a2,1330(sp)
   145fe:	53314683          	lbu	a3,1331(sp)
   14602:	04c2                	slli	s1,s1,0x10
   14604:	0362                	slli	t1,t1,0x18
   14606:	009364b3          	or	s1,t1,s1
   1460a:	02a2                	slli	t0,t0,0x8
   1460c:	00d2e6b3          	or	a3,t0,a3
   14610:	07a2                	slli	a5,a5,0x8
   14612:	8d5d                	or	a0,a0,a5
   14614:	0742                	slli	a4,a4,0x10
   14616:	0662                	slli	a2,a2,0x18
   14618:	8e59                	or	a2,a2,a4
   1461a:	34b11223          	sh	a1,836(sp)
   1461e:	35010323          	sb	a6,838(sp)
   14622:	0114e4b3          	or	s1,s1,a7
   14626:	8d51                	or	a0,a0,a2
   14628:	28a12e23          	sw	a0,668(sp)
   1462c:	2ad11023          	sh	a3,672(sp)
   14630:	dbffe06f          	j	133ee <_start+0x2270>
   14634:	51c10513          	addi	a0,sp,1308
   14638:	00003097          	auipc	ra,0x3
   1463c:	e64080e7          	jalr	-412(ra) # 1749c <_ZN9allow_pin12full_dynamic17unshare_if_shared17ha9c848d8c301b74dE>
   14640:	58010513          	addi	a0,sp,1408
   14644:	00003097          	auipc	ra,0x3
   14648:	e58080e7          	jalr	-424(ra) # 1749c <_ZN9allow_pin12full_dynamic17unshare_if_shared17ha9c848d8c301b74dE>
   1464c:	58010513          	addi	a0,sp,1408
   14650:	00003097          	auipc	ra,0x3
   14654:	e4c080e7          	jalr	-436(ra) # 1749c <_ZN9allow_pin12full_dynamic17unshare_if_shared17ha9c848d8c301b74dE>
   14658:	00003297          	auipc	t0,0x3
   1465c:	edc282e7          	jalr	t0,-292(t0) # 17534 <OUTLINED_FUNCTION_2>
   14660:	00003297          	auipc	t0,0x3
   14664:	162282e7          	jalr	t0,354(t0) # 177c2 <OUTLINED_FUNCTION_19>
   14668:	4669                	li	a2,26
   1466a:	00003097          	auipc	ra,0x3
   1466e:	260080e7          	jalr	608(ra) # 178ca <memcpy>
   14672:	4401                	li	s0,0
   14674:	e3bfe06f          	j	134ae <_start+0x2330>
   14678:	0488                	addi	a0,sp,576
   1467a:	00003097          	auipc	ra,0x3
   1467e:	e22080e7          	jalr	-478(ra) # 1749c <_ZN9allow_pin12full_dynamic17unshare_if_shared17ha9c848d8c301b74dE>
   14682:	58010513          	addi	a0,sp,1408
   14686:	00003097          	auipc	ra,0x3
   1468a:	e16080e7          	jalr	-490(ra) # 1749c <_ZN9allow_pin12full_dynamic17unshare_if_shared17ha9c848d8c301b74dE>
   1468e:	58010513          	addi	a0,sp,1408
   14692:	00003097          	auipc	ra,0x3
   14696:	e0a080e7          	jalr	-502(ra) # 1749c <_ZN9allow_pin12full_dynamic17unshare_if_shared17ha9c848d8c301b74dE>
   1469a:	00003297          	auipc	t0,0x3
   1469e:	e9a282e7          	jalr	t0,-358(t0) # 17534 <OUTLINED_FUNCTION_2>
   146a2:	00003297          	auipc	t0,0x3
   146a6:	040282e7          	jalr	t0,64(t0) # 176e2 <OUTLINED_FUNCTION_13>
   146aa:	04c00613          	li	a2,76
   146ae:	00003097          	auipc	ra,0x3
   146b2:	21c080e7          	jalr	540(ra) # 178ca <memcpy>
   146b6:	4401                	li	s0,0
   146b8:	ea9fe06f          	j	13560 <_start+0x23e2>
   146bc:	58010513          	addi	a0,sp,1408
   146c0:	00003097          	auipc	ra,0x3
   146c4:	ddc080e7          	jalr	-548(ra) # 1749c <_ZN9allow_pin12full_dynamic17unshare_if_shared17ha9c848d8c301b74dE>
   146c8:	51c10513          	addi	a0,sp,1308
   146cc:	00003097          	auipc	ra,0x3
   146d0:	dd0080e7          	jalr	-560(ra) # 1749c <_ZN9allow_pin12full_dynamic17unshare_if_shared17ha9c848d8c301b74dE>
   146d4:	51c10513          	addi	a0,sp,1308
   146d8:	00003097          	auipc	ra,0x3
   146dc:	dc4080e7          	jalr	-572(ra) # 1749c <_ZN9allow_pin12full_dynamic17unshare_if_shared17ha9c848d8c301b74dE>
   146e0:	00003297          	auipc	t0,0x3
   146e4:	e16282e7          	jalr	t0,-490(t0) # 174f6 <OUTLINED_FUNCTION_1>
   146e8:	04600613          	li	a2,70
   146ec:	00003097          	auipc	ra,0x3
   146f0:	1de080e7          	jalr	478(ra) # 178ca <memcpy>
   146f4:	4401                	li	s0,0
   146f6:	f25fe06f          	j	1361a <_start+0x249c>
   146fa:	58010513          	addi	a0,sp,1408
   146fe:	00003097          	auipc	ra,0x3
   14702:	d9e080e7          	jalr	-610(ra) # 1749c <_ZN9allow_pin12full_dynamic17unshare_if_shared17ha9c848d8c301b74dE>
   14706:	51c10513          	addi	a0,sp,1308
   1470a:	00003097          	auipc	ra,0x3
   1470e:	d92080e7          	jalr	-622(ra) # 1749c <_ZN9allow_pin12full_dynamic17unshare_if_shared17ha9c848d8c301b74dE>
   14712:	51c10513          	addi	a0,sp,1308
   14716:	00003097          	auipc	ra,0x3
   1471a:	d86080e7          	jalr	-634(ra) # 1749c <_ZN9allow_pin12full_dynamic17unshare_if_shared17ha9c848d8c301b74dE>
   1471e:	00003297          	auipc	t0,0x3
   14722:	dd8282e7          	jalr	t0,-552(t0) # 174f6 <OUTLINED_FUNCTION_1>
   14726:	03500613          	li	a2,53
   1472a:	00003097          	auipc	ra,0x3
   1472e:	1a0080e7          	jalr	416(ra) # 178ca <memcpy>
   14732:	4401                	li	s0,0
   14734:	51c10513          	addi	a0,sp,1308
   14738:	00003097          	auipc	ra,0x3
   1473c:	d64080e7          	jalr	-668(ra) # 1749c <_ZN9allow_pin12full_dynamic17unshare_if_shared17ha9c848d8c301b74dE>
   14740:	58010513          	addi	a0,sp,1408
   14744:	00003097          	auipc	ra,0x3
   14748:	d58080e7          	jalr	-680(ra) # 1749c <_ZN9allow_pin12full_dynamic17unshare_if_shared17ha9c848d8c301b74dE>
   1474c:	c019                	beqz	s0,14752 <_start+0x35d4>
   1474e:	4290206f          	j	17376 <_start+0x61f8>
   14752:	00003297          	auipc	t0,0x3
   14756:	f4e282e7          	jalr	t0,-178(t0) # 176a0 <OUTLINED_FUNCTION_10>
   1475a:	03500613          	li	a2,53
   1475e:	00003097          	auipc	ra,0x3
   14762:	16c080e7          	jalr	364(ra) # 178ca <memcpy>
   14766:	59310513          	addi	a0,sp,1427
   1476a:	048c                	addi	a1,sp,576
   1476c:	03500613          	li	a2,53
   14770:	00003097          	auipc	ra,0x3
   14774:	15a080e7          	jalr	346(ra) # 178ca <memcpy>
   14778:	00003297          	auipc	t0,0x3
   1477c:	e14282e7          	jalr	t0,-492(t0) # 1758c <OUTLINED_FUNCTION_4>
   14780:	03800613          	li	a2,56
   14784:	854a                	mv	a0,s2
   14786:	4581                	li	a1,0
   14788:	00003097          	auipc	ra,0x3
   1478c:	0d6080e7          	jalr	214(ra) # 1785e <memset>
   14790:	00003297          	auipc	t0,0x3
   14794:	068282e7          	jalr	t0,104(t0) # 177f8 <OUTLINED_FUNCTION_22>
   14798:	03c00593          	li	a1,60
   1479c:	4611                	li	a2,4
   1479e:	d1968413          	addi	s0,a3,-743
   147a2:	470d                	li	a4,3
   147a4:	86a2                	mv	a3,s0
   147a6:	ffffd097          	auipc	ra,0xffffd
   147aa:	98e080e7          	jalr	-1650(ra) # 11134 <_ZN9allow_pin12full_dynamic15Buffer$LT$B$GT$5allow17hb1627d2b206e9fb0E>
   147ae:	8905                	andi	a0,a0,1
   147b0:	e90d                	bnez	a0,147e2 <_start+0x3664>
   147b2:	51c10513          	addi	a0,sp,1308
   147b6:	03800593          	li	a1,56
   147ba:	460d                	li	a2,3
   147bc:	470d                	li	a4,3
   147be:	86a2                	mv	a3,s0
   147c0:	ffffd097          	auipc	ra,0xffffd
   147c4:	974080e7          	jalr	-1676(ra) # 11134 <_ZN9allow_pin12full_dynamic15Buffer$LT$B$GT$5allow17hb1627d2b206e9fb0E>
   147c8:	8905                	andi	a0,a0,1
   147ca:	ed01                	bnez	a0,147e2 <_start+0x3664>
   147cc:	6509                	lui	a0,0x2
   147ce:	458d                	li	a1,3
   147d0:	d1950513          	addi	a0,a0,-743 # 1d19 <.Lline_table_start1+0x1aee>
   147d4:	460d                	li	a2,3
   147d6:	ffffd097          	auipc	ra,0xffffd
   147da:	99a080e7          	jalr	-1638(ra) # 11170 <_ZN9allow_pin7command17hdfcb5c5f4a3821c8E>
   147de:	8905                	andi	a0,a0,1
   147e0:	c501                	beqz	a0,147e8 <_start+0x366a>
   147e2:	84ae                	mv	s1,a1
   147e4:	4405                	li	s0,1
   147e6:	a835                	j	14822 <_start+0x36a4>
   147e8:	58010513          	addi	a0,sp,1408
   147ec:	00003097          	auipc	ra,0x3
   147f0:	cb0080e7          	jalr	-848(ra) # 1749c <_ZN9allow_pin12full_dynamic17unshare_if_shared17ha9c848d8c301b74dE>
   147f4:	51c10513          	addi	a0,sp,1308
   147f8:	00003097          	auipc	ra,0x3
   147fc:	ca4080e7          	jalr	-860(ra) # 1749c <_ZN9allow_pin12full_dynamic17unshare_if_shared17ha9c848d8c301b74dE>
   14800:	51c10513          	addi	a0,sp,1308
   14804:	00003097          	auipc	ra,0x3
   14808:	c98080e7          	jalr	-872(ra) # 1749c <_ZN9allow_pin12full_dynamic17unshare_if_shared17ha9c848d8c301b74dE>
   1480c:	00003297          	auipc	t0,0x3
   14810:	cea282e7          	jalr	t0,-790(t0) # 174f6 <OUTLINED_FUNCTION_1>
   14814:	03100613          	li	a2,49
   14818:	00003097          	auipc	ra,0x3
   1481c:	0b2080e7          	jalr	178(ra) # 178ca <memcpy>
   14820:	4401                	li	s0,0
   14822:	51c10513          	addi	a0,sp,1308
   14826:	00003097          	auipc	ra,0x3
   1482a:	c76080e7          	jalr	-906(ra) # 1749c <_ZN9allow_pin12full_dynamic17unshare_if_shared17ha9c848d8c301b74dE>
   1482e:	58010513          	addi	a0,sp,1408
   14832:	00003097          	auipc	ra,0x3
   14836:	c6a080e7          	jalr	-918(ra) # 1749c <_ZN9allow_pin12full_dynamic17unshare_if_shared17ha9c848d8c301b74dE>
   1483a:	c019                	beqz	s0,14840 <_start+0x36c2>
   1483c:	33b0206f          	j	17376 <_start+0x61f8>
   14840:	00003297          	auipc	t0,0x3
   14844:	e60282e7          	jalr	t0,-416(t0) # 176a0 <OUTLINED_FUNCTION_10>
   14848:	03100613          	li	a2,49
   1484c:	00003097          	auipc	ra,0x3
   14850:	07e080e7          	jalr	126(ra) # 178ca <memcpy>
   14854:	59310513          	addi	a0,sp,1427
   14858:	048c                	addi	a1,sp,576
   1485a:	03100613          	li	a2,49
   1485e:	00003097          	auipc	ra,0x3
   14862:	06c080e7          	jalr	108(ra) # 178ca <memcpy>
   14866:	00003297          	auipc	t0,0x3
   1486a:	d26282e7          	jalr	t0,-730(t0) # 1758c <OUTLINED_FUNCTION_4>
   1486e:	02700613          	li	a2,39
   14872:	854a                	mv	a0,s2
   14874:	4581                	li	a1,0
   14876:	00003097          	auipc	ra,0x3
   1487a:	fe8080e7          	jalr	-24(ra) # 1785e <memset>
   1487e:	00003297          	auipc	t0,0x3
   14882:	f6e282e7          	jalr	t0,-146(t0) # 177ec <OUTLINED_FUNCTION_21>
   14886:	03800593          	li	a1,56
   1488a:	4611                	li	a2,4
   1488c:	e2b68413          	addi	s0,a3,-469
   14890:	4709                	li	a4,2
   14892:	86a2                	mv	a3,s0
   14894:	ffffd097          	auipc	ra,0xffffd
   14898:	8a0080e7          	jalr	-1888(ra) # 11134 <_ZN9allow_pin12full_dynamic15Buffer$LT$B$GT$5allow17hb1627d2b206e9fb0E>
   1489c:	8905                	andi	a0,a0,1
   1489e:	e90d                	bnez	a0,148d0 <_start+0x3752>
   148a0:	51c10513          	addi	a0,sp,1308
   148a4:	02700593          	li	a1,39
   148a8:	460d                	li	a2,3
   148aa:	4721                	li	a4,8
   148ac:	86a2                	mv	a3,s0
   148ae:	ffffd097          	auipc	ra,0xffffd
   148b2:	886080e7          	jalr	-1914(ra) # 11134 <_ZN9allow_pin12full_dynamic15Buffer$LT$B$GT$5allow17hb1627d2b206e9fb0E>
   148b6:	8905                	andi	a0,a0,1
   148b8:	ed01                	bnez	a0,148d0 <_start+0x3752>
   148ba:	6505                	lui	a0,0x1
   148bc:	4589                	li	a1,2
   148be:	e2b50513          	addi	a0,a0,-469 # e2b <.Lline_table_start1+0xc00>
   148c2:	4621                	li	a2,8
   148c4:	ffffd097          	auipc	ra,0xffffd
   148c8:	8ac080e7          	jalr	-1876(ra) # 11170 <_ZN9allow_pin7command17hdfcb5c5f4a3821c8E>
   148cc:	8905                	andi	a0,a0,1
   148ce:	c501                	beqz	a0,148d6 <_start+0x3758>
   148d0:	84ae                	mv	s1,a1
   148d2:	4405                	li	s0,1
   148d4:	a0b9                	j	14922 <_start+0x37a4>
   148d6:	58010513          	addi	a0,sp,1408
   148da:	00003097          	auipc	ra,0x3
   148de:	bc2080e7          	jalr	-1086(ra) # 1749c <_ZN9allow_pin12full_dynamic17unshare_if_shared17ha9c848d8c301b74dE>
   148e2:	51c10513          	addi	a0,sp,1308
   148e6:	00003097          	auipc	ra,0x3
   148ea:	bb6080e7          	jalr	-1098(ra) # 1749c <_ZN9allow_pin12full_dynamic17unshare_if_shared17ha9c848d8c301b74dE>
   148ee:	51c10513          	addi	a0,sp,1308
   148f2:	00003097          	auipc	ra,0x3
   148f6:	baa080e7          	jalr	-1110(ra) # 1749c <_ZN9allow_pin12full_dynamic17unshare_if_shared17ha9c848d8c301b74dE>
   148fa:	00003297          	auipc	t0,0x3
   148fe:	c66282e7          	jalr	t0,-922(t0) # 17560 <OUTLINED_FUNCTION_3>
   14902:	34a11223          	sh	a0,836(sp)
   14906:	34c10323          	sb	a2,838(sp)
   1490a:	00d5e4b3          	or	s1,a1,a3
   1490e:	52f10593          	addi	a1,sp,1327
   14912:	0488                	addi	a0,sp,576
   14914:	02000613          	li	a2,32
   14918:	00003097          	auipc	ra,0x3
   1491c:	fb2080e7          	jalr	-78(ra) # 178ca <memcpy>
   14920:	4401                	li	s0,0
   14922:	51c10513          	addi	a0,sp,1308
   14926:	00003097          	auipc	ra,0x3
   1492a:	b76080e7          	jalr	-1162(ra) # 1749c <_ZN9allow_pin12full_dynamic17unshare_if_shared17ha9c848d8c301b74dE>
   1492e:	58010513          	addi	a0,sp,1408
   14932:	00003097          	auipc	ra,0x3
   14936:	b6a080e7          	jalr	-1174(ra) # 1749c <_ZN9allow_pin12full_dynamic17unshare_if_shared17ha9c848d8c301b74dE>
   1493a:	c019                	beqz	s0,14940 <_start+0x37c2>
   1493c:	23b0206f          	j	17376 <_start+0x61f8>
   14940:	00003297          	auipc	t0,0x3
   14944:	ee8282e7          	jalr	t0,-280(t0) # 17828 <OUTLINED_FUNCTION_25>
   14948:	0ba8                	addi	a0,sp,472
   1494a:	048c                	addi	a1,sp,576
   1494c:	02000613          	li	a2,32
   14950:	00003097          	auipc	ra,0x3
   14954:	f7a080e7          	jalr	-134(ra) # 178ca <memcpy>
   14958:	00003297          	auipc	t0,0x3
   1495c:	c7c282e7          	jalr	t0,-900(t0) # 175d4 <OUTLINED_FUNCTION_6>
   14960:	2af10513          	addi	a0,sp,687
   14964:	0bac                	addi	a1,sp,472
   14966:	02000613          	li	a2,32
   1496a:	00003097          	auipc	ra,0x3
   1496e:	f60080e7          	jalr	-160(ra) # 178ca <memcpy>
   14972:	05100613          	li	a2,81
   14976:	854e                	mv	a0,s3
   14978:	4581                	li	a1,0
   1497a:	00003097          	auipc	ra,0x3
   1497e:	ee4080e7          	jalr	-284(ra) # 1785e <memset>
   14982:	58810423          	sb	s0,1416(sp)
   14986:	6605                	lui	a2,0x1
   14988:	0d68                	addi	a0,sp,668
   1498a:	02700593          	li	a1,39
   1498e:	a3660413          	addi	s0,a2,-1482 # a36 <.Lline_table_start1+0x80b>
   14992:	4611                	li	a2,4
   14994:	86a2                	mv	a3,s0
   14996:	4701                	li	a4,0
   14998:	ffffc097          	auipc	ra,0xffffc
   1499c:	79c080e7          	jalr	1948(ra) # 11134 <_ZN9allow_pin12full_dynamic15Buffer$LT$B$GT$5allow17hb1627d2b206e9fb0E>
   149a0:	8905                	andi	a0,a0,1
   149a2:	e90d                	bnez	a0,149d4 <_start+0x3856>
   149a4:	58010513          	addi	a0,sp,1408
   149a8:	05100593          	li	a1,81
   149ac:	460d                	li	a2,3
   149ae:	4711                	li	a4,4
   149b0:	86a2                	mv	a3,s0
   149b2:	ffffc097          	auipc	ra,0xffffc
   149b6:	782080e7          	jalr	1922(ra) # 11134 <_ZN9allow_pin12full_dynamic15Buffer$LT$B$GT$5allow17hb1627d2b206e9fb0E>
   149ba:	8905                	andi	a0,a0,1
   149bc:	ed01                	bnez	a0,149d4 <_start+0x3856>
   149be:	6505                	lui	a0,0x1
   149c0:	a3650513          	addi	a0,a0,-1482 # a36 <.Lline_table_start1+0x80b>
   149c4:	4611                	li	a2,4
   149c6:	4581                	li	a1,0
   149c8:	ffffc097          	auipc	ra,0xffffc
   149cc:	7a8080e7          	jalr	1960(ra) # 11170 <_ZN9allow_pin7command17hdfcb5c5f4a3821c8E>
   149d0:	8905                	andi	a0,a0,1
   149d2:	c501                	beqz	a0,149da <_start+0x385c>
   149d4:	84ae                	mv	s1,a1
   149d6:	4405                	li	s0,1
   149d8:	a835                	j	14a14 <_start+0x3896>
   149da:	0d68                	addi	a0,sp,668
   149dc:	00003097          	auipc	ra,0x3
   149e0:	ac0080e7          	jalr	-1344(ra) # 1749c <_ZN9allow_pin12full_dynamic17unshare_if_shared17ha9c848d8c301b74dE>
   149e4:	58010513          	addi	a0,sp,1408
   149e8:	00003097          	auipc	ra,0x3
   149ec:	ab4080e7          	jalr	-1356(ra) # 1749c <_ZN9allow_pin12full_dynamic17unshare_if_shared17ha9c848d8c301b74dE>
   149f0:	58010513          	addi	a0,sp,1408
   149f4:	00003097          	auipc	ra,0x3
   149f8:	aa8080e7          	jalr	-1368(ra) # 1749c <_ZN9allow_pin12full_dynamic17unshare_if_shared17ha9c848d8c301b74dE>
   149fc:	00003297          	auipc	t0,0x3
   14a00:	abe282e7          	jalr	t0,-1346(t0) # 174ba <OUTLINED_FUNCTION_0>
   14a04:	0488                	addi	a0,sp,576
   14a06:	04a00613          	li	a2,74
   14a0a:	00003097          	auipc	ra,0x3
   14a0e:	ec0080e7          	jalr	-320(ra) # 178ca <memcpy>
   14a12:	4401                	li	s0,0
   14a14:	58010513          	addi	a0,sp,1408
   14a18:	00003097          	auipc	ra,0x3
   14a1c:	a84080e7          	jalr	-1404(ra) # 1749c <_ZN9allow_pin12full_dynamic17unshare_if_shared17ha9c848d8c301b74dE>
   14a20:	0d68                	addi	a0,sp,668
   14a22:	00003097          	auipc	ra,0x3
   14a26:	a7a080e7          	jalr	-1414(ra) # 1749c <_ZN9allow_pin12full_dynamic17unshare_if_shared17ha9c848d8c301b74dE>
   14a2a:	c019                	beqz	s0,14a30 <_start+0x38b2>
   14a2c:	14b0206f          	j	17376 <_start+0x61f8>
   14a30:	00003297          	auipc	t0,0x3
   14a34:	c58282e7          	jalr	t0,-936(t0) # 17688 <OUTLINED_FUNCTION_9>
   14a38:	04a00613          	li	a2,74
   14a3c:	00003097          	auipc	ra,0x3
   14a40:	e8e080e7          	jalr	-370(ra) # 178ca <memcpy>
   14a44:	00003297          	auipc	t0,0x3
   14a48:	e0c282e7          	jalr	t0,-500(t0) # 17850 <OUTLINED_FUNCTION_27>
   14a4c:	00003097          	auipc	ra,0x3
   14a50:	e7e080e7          	jalr	-386(ra) # 178ca <memcpy>
   14a54:	00003297          	auipc	t0,0x3
   14a58:	b38282e7          	jalr	t0,-1224(t0) # 1758c <OUTLINED_FUNCTION_4>
   14a5c:	04f00613          	li	a2,79
   14a60:	854a                	mv	a0,s2
   14a62:	4581                	li	a1,0
   14a64:	00003097          	auipc	ra,0x3
   14a68:	dfa080e7          	jalr	-518(ra) # 1785e <memset>
   14a6c:	00003297          	auipc	t0,0x3
   14a70:	d8c282e7          	jalr	t0,-628(t0) # 177f8 <OUTLINED_FUNCTION_22>
   14a74:	05100593          	li	a1,81
   14a78:	4611                	li	a2,4
   14a7a:	0ee68413          	addi	s0,a3,238
   14a7e:	4711                	li	a4,4
   14a80:	86a2                	mv	a3,s0
   14a82:	ffffc097          	auipc	ra,0xffffc
   14a86:	6b2080e7          	jalr	1714(ra) # 11134 <_ZN9allow_pin12full_dynamic15Buffer$LT$B$GT$5allow17hb1627d2b206e9fb0E>
   14a8a:	8905                	andi	a0,a0,1
   14a8c:	e90d                	bnez	a0,14abe <_start+0x3940>
   14a8e:	51c10513          	addi	a0,sp,1308
   14a92:	04f00593          	li	a1,79
   14a96:	460d                	li	a2,3
   14a98:	4725                	li	a4,9
   14a9a:	86a2                	mv	a3,s0
   14a9c:	ffffc097          	auipc	ra,0xffffc
   14aa0:	698080e7          	jalr	1688(ra) # 11134 <_ZN9allow_pin12full_dynamic15Buffer$LT$B$GT$5allow17hb1627d2b206e9fb0E>
   14aa4:	8905                	andi	a0,a0,1
   14aa6:	ed01                	bnez	a0,14abe <_start+0x3940>
   14aa8:	6509                	lui	a0,0x2
   14aaa:	4591                	li	a1,4
   14aac:	0ee50513          	addi	a0,a0,238 # 20ee <.Lline_table_start1+0x1ec3>
   14ab0:	4625                	li	a2,9
   14ab2:	ffffc097          	auipc	ra,0xffffc
   14ab6:	6be080e7          	jalr	1726(ra) # 11170 <_ZN9allow_pin7command17hdfcb5c5f4a3821c8E>
   14aba:	8905                	andi	a0,a0,1
   14abc:	c501                	beqz	a0,14ac4 <_start+0x3946>
   14abe:	84ae                	mv	s1,a1
   14ac0:	4405                	li	s0,1
   14ac2:	a091                	j	14b06 <_start+0x3988>
   14ac4:	58010513          	addi	a0,sp,1408
   14ac8:	00003097          	auipc	ra,0x3
   14acc:	9d4080e7          	jalr	-1580(ra) # 1749c <_ZN9allow_pin12full_dynamic17unshare_if_shared17ha9c848d8c301b74dE>
   14ad0:	51c10513          	addi	a0,sp,1308
   14ad4:	00003097          	auipc	ra,0x3
   14ad8:	9c8080e7          	jalr	-1592(ra) # 1749c <_ZN9allow_pin12full_dynamic17unshare_if_shared17ha9c848d8c301b74dE>
   14adc:	51c10513          	addi	a0,sp,1308
   14ae0:	00003097          	auipc	ra,0x3
   14ae4:	9bc080e7          	jalr	-1604(ra) # 1749c <_ZN9allow_pin12full_dynamic17unshare_if_shared17ha9c848d8c301b74dE>
   14ae8:	00003297          	auipc	t0,0x3
   14aec:	a78282e7          	jalr	t0,-1416(t0) # 17560 <OUTLINED_FUNCTION_3>
   14af0:	00003297          	auipc	t0,0x3
   14af4:	c2e282e7          	jalr	t0,-978(t0) # 1771e <OUTLINED_FUNCTION_16>
   14af8:	04800613          	li	a2,72
   14afc:	00003097          	auipc	ra,0x3
   14b00:	dce080e7          	jalr	-562(ra) # 178ca <memcpy>
   14b04:	4401                	li	s0,0
   14b06:	51c10513          	addi	a0,sp,1308
   14b0a:	00003097          	auipc	ra,0x3
   14b0e:	992080e7          	jalr	-1646(ra) # 1749c <_ZN9allow_pin12full_dynamic17unshare_if_shared17ha9c848d8c301b74dE>
   14b12:	58010513          	addi	a0,sp,1408
   14b16:	00003097          	auipc	ra,0x3
   14b1a:	986080e7          	jalr	-1658(ra) # 1749c <_ZN9allow_pin12full_dynamic17unshare_if_shared17ha9c848d8c301b74dE>
   14b1e:	c019                	beqz	s0,14b24 <_start+0x39a6>
   14b20:	0570206f          	j	17376 <_start+0x61f8>
   14b24:	00003297          	auipc	t0,0x3
   14b28:	ce0282e7          	jalr	t0,-800(t0) # 17804 <OUTLINED_FUNCTION_23>
   14b2c:	1ba8                	addi	a0,sp,504
   14b2e:	048c                	addi	a1,sp,576
   14b30:	04800613          	li	a2,72
   14b34:	00003097          	auipc	ra,0x3
   14b38:	d96080e7          	jalr	-618(ra) # 178ca <memcpy>
   14b3c:	00003297          	auipc	t0,0x3
   14b40:	a74282e7          	jalr	t0,-1420(t0) # 175b0 <OUTLINED_FUNCTION_5>
   14b44:	52f10513          	addi	a0,sp,1327
   14b48:	1bac                	addi	a1,sp,504
   14b4a:	04800613          	li	a2,72
   14b4e:	00003097          	auipc	ra,0x3
   14b52:	d7c080e7          	jalr	-644(ra) # 178ca <memcpy>
   14b56:	06100613          	li	a2,97
   14b5a:	854e                	mv	a0,s3
   14b5c:	4581                	li	a1,0
   14b5e:	00003097          	auipc	ra,0x3
   14b62:	d00080e7          	jalr	-768(ra) # 1785e <memset>
   14b66:	58810423          	sb	s0,1416(sp)
   14b6a:	51c10513          	addi	a0,sp,1308
   14b6e:	04f00593          	li	a1,79
   14b72:	4611                	li	a2,4
   14b74:	1b600693          	li	a3,438
   14b78:	4709                	li	a4,2
   14b7a:	ffffc097          	auipc	ra,0xffffc
   14b7e:	5ba080e7          	jalr	1466(ra) # 11134 <_ZN9allow_pin12full_dynamic15Buffer$LT$B$GT$5allow17hb1627d2b206e9fb0E>
   14b82:	8905                	andi	a0,a0,1
   14b84:	e90d                	bnez	a0,14bb6 <_start+0x3a38>
   14b86:	58010513          	addi	a0,sp,1408
   14b8a:	06100593          	li	a1,97
   14b8e:	460d                	li	a2,3
   14b90:	1b600693          	li	a3,438
   14b94:	4721                	li	a4,8
   14b96:	ffffc097          	auipc	ra,0xffffc
   14b9a:	59e080e7          	jalr	1438(ra) # 11134 <_ZN9allow_pin12full_dynamic15Buffer$LT$B$GT$5allow17hb1627d2b206e9fb0E>
   14b9e:	8905                	andi	a0,a0,1
   14ba0:	e919                	bnez	a0,14bb6 <_start+0x3a38>
   14ba2:	1b600513          	li	a0,438
   14ba6:	4589                	li	a1,2
   14ba8:	4621                	li	a2,8
   14baa:	ffffc097          	auipc	ra,0xffffc
   14bae:	5c6080e7          	jalr	1478(ra) # 11170 <_ZN9allow_pin7command17hdfcb5c5f4a3821c8E>
   14bb2:	8905                	andi	a0,a0,1
   14bb4:	c501                	beqz	a0,14bbc <_start+0x3a3e>
   14bb6:	84ae                	mv	s1,a1
   14bb8:	4405                	li	s0,1
   14bba:	a83d                	j	14bf8 <_start+0x3a7a>
   14bbc:	51c10513          	addi	a0,sp,1308
   14bc0:	00003097          	auipc	ra,0x3
   14bc4:	8dc080e7          	jalr	-1828(ra) # 1749c <_ZN9allow_pin12full_dynamic17unshare_if_shared17ha9c848d8c301b74dE>
   14bc8:	58010513          	addi	a0,sp,1408
   14bcc:	00003097          	auipc	ra,0x3
   14bd0:	8d0080e7          	jalr	-1840(ra) # 1749c <_ZN9allow_pin12full_dynamic17unshare_if_shared17ha9c848d8c301b74dE>
   14bd4:	58010513          	addi	a0,sp,1408
   14bd8:	00003097          	auipc	ra,0x3
   14bdc:	8c4080e7          	jalr	-1852(ra) # 1749c <_ZN9allow_pin12full_dynamic17unshare_if_shared17ha9c848d8c301b74dE>
   14be0:	00003297          	auipc	t0,0x3
   14be4:	8da282e7          	jalr	t0,-1830(t0) # 174ba <OUTLINED_FUNCTION_0>
   14be8:	0d68                	addi	a0,sp,668
   14bea:	05a00613          	li	a2,90
   14bee:	00003097          	auipc	ra,0x3
   14bf2:	cdc080e7          	jalr	-804(ra) # 178ca <memcpy>
   14bf6:	4401                	li	s0,0
   14bf8:	58010513          	addi	a0,sp,1408
   14bfc:	00003097          	auipc	ra,0x3
   14c00:	8a0080e7          	jalr	-1888(ra) # 1749c <_ZN9allow_pin12full_dynamic17unshare_if_shared17ha9c848d8c301b74dE>
   14c04:	51c10513          	addi	a0,sp,1308
   14c08:	00003097          	auipc	ra,0x3
   14c0c:	894080e7          	jalr	-1900(ra) # 1749c <_ZN9allow_pin12full_dynamic17unshare_if_shared17ha9c848d8c301b74dE>
   14c10:	c019                	beqz	s0,14c16 <_start+0x3a98>
   14c12:	7640206f          	j	17376 <_start+0x61f8>
   14c16:	00003297          	auipc	t0,0x3
   14c1a:	a8a282e7          	jalr	t0,-1398(t0) # 176a0 <OUTLINED_FUNCTION_10>
   14c1e:	05a00613          	li	a2,90
   14c22:	00003097          	auipc	ra,0x3
   14c26:	ca8080e7          	jalr	-856(ra) # 178ca <memcpy>
   14c2a:	59310513          	addi	a0,sp,1427
   14c2e:	048c                	addi	a1,sp,576
   14c30:	05a00613          	li	a2,90
   14c34:	00003097          	auipc	ra,0x3
   14c38:	c96080e7          	jalr	-874(ra) # 178ca <memcpy>
   14c3c:	00003297          	auipc	t0,0x3
   14c40:	950282e7          	jalr	t0,-1712(t0) # 1758c <OUTLINED_FUNCTION_4>
   14c44:	4679                	li	a2,30
   14c46:	854a                	mv	a0,s2
   14c48:	4581                	li	a1,0
   14c4a:	00003097          	auipc	ra,0x3
   14c4e:	c14080e7          	jalr	-1004(ra) # 1785e <memset>
   14c52:	52810223          	sb	s0,1316(sp)
   14c56:	58010513          	addi	a0,sp,1408
   14c5a:	06100593          	li	a1,97
   14c5e:	4611                	li	a2,4
   14c60:	18800693          	li	a3,392
   14c64:	4711                	li	a4,4
   14c66:	ffffc097          	auipc	ra,0xffffc
   14c6a:	4ce080e7          	jalr	1230(ra) # 11134 <_ZN9allow_pin12full_dynamic15Buffer$LT$B$GT$5allow17hb1627d2b206e9fb0E>
   14c6e:	8905                	andi	a0,a0,1
   14c70:	e905                	bnez	a0,14ca0 <_start+0x3b22>
   14c72:	51c10513          	addi	a0,sp,1308
   14c76:	45f9                	li	a1,30
   14c78:	460d                	li	a2,3
   14c7a:	18800693          	li	a3,392
   14c7e:	4719                	li	a4,6
   14c80:	ffffc097          	auipc	ra,0xffffc
   14c84:	4b4080e7          	jalr	1204(ra) # 11134 <_ZN9allow_pin12full_dynamic15Buffer$LT$B$GT$5allow17hb1627d2b206e9fb0E>
   14c88:	8905                	andi	a0,a0,1
   14c8a:	e919                	bnez	a0,14ca0 <_start+0x3b22>
   14c8c:	18800513          	li	a0,392
   14c90:	4591                	li	a1,4
   14c92:	4619                	li	a2,6
   14c94:	ffffc097          	auipc	ra,0xffffc
   14c98:	4dc080e7          	jalr	1244(ra) # 11170 <_ZN9allow_pin7command17hdfcb5c5f4a3821c8E>
   14c9c:	8905                	andi	a0,a0,1
   14c9e:	c501                	beqz	a0,14ca6 <_start+0x3b28>
   14ca0:	84ae                	mv	s1,a1
   14ca2:	4405                	li	s0,1
   14ca4:	a82d                	j	14cde <_start+0x3b60>
   14ca6:	58010513          	addi	a0,sp,1408
   14caa:	00002097          	auipc	ra,0x2
   14cae:	7f2080e7          	jalr	2034(ra) # 1749c <_ZN9allow_pin12full_dynamic17unshare_if_shared17ha9c848d8c301b74dE>
   14cb2:	51c10513          	addi	a0,sp,1308
   14cb6:	00002097          	auipc	ra,0x2
   14cba:	7e6080e7          	jalr	2022(ra) # 1749c <_ZN9allow_pin12full_dynamic17unshare_if_shared17ha9c848d8c301b74dE>
   14cbe:	51c10513          	addi	a0,sp,1308
   14cc2:	00002097          	auipc	ra,0x2
   14cc6:	7da080e7          	jalr	2010(ra) # 1749c <_ZN9allow_pin12full_dynamic17unshare_if_shared17ha9c848d8c301b74dE>
   14cca:	00003297          	auipc	t0,0x3
   14cce:	82c282e7          	jalr	t0,-2004(t0) # 174f6 <OUTLINED_FUNCTION_1>
   14cd2:	465d                	li	a2,23
   14cd4:	00003097          	auipc	ra,0x3
   14cd8:	bf6080e7          	jalr	-1034(ra) # 178ca <memcpy>
   14cdc:	4401                	li	s0,0
   14cde:	51c10513          	addi	a0,sp,1308
   14ce2:	00002097          	auipc	ra,0x2
   14ce6:	7ba080e7          	jalr	1978(ra) # 1749c <_ZN9allow_pin12full_dynamic17unshare_if_shared17ha9c848d8c301b74dE>
   14cea:	58010513          	addi	a0,sp,1408
   14cee:	00002097          	auipc	ra,0x2
   14cf2:	7ae080e7          	jalr	1966(ra) # 1749c <_ZN9allow_pin12full_dynamic17unshare_if_shared17ha9c848d8c301b74dE>
   14cf6:	c019                	beqz	s0,14cfc <_start+0x3b7e>
   14cf8:	67e0206f          	j	17376 <_start+0x61f8>
   14cfc:	00003297          	auipc	t0,0x3
   14d00:	9ba282e7          	jalr	t0,-1606(t0) # 176b6 <OUTLINED_FUNCTION_11>
   14d04:	465d                	li	a2,23
   14d06:	00003097          	auipc	ra,0x3
   14d0a:	bc4080e7          	jalr	-1084(ra) # 178ca <memcpy>
   14d0e:	52f10513          	addi	a0,sp,1327
   14d12:	048c                	addi	a1,sp,576
   14d14:	465d                	li	a2,23
   14d16:	00003097          	auipc	ra,0x3
   14d1a:	bb4080e7          	jalr	-1100(ra) # 178ca <memcpy>
   14d1e:	00003297          	auipc	t0,0x3
   14d22:	892282e7          	jalr	t0,-1902(t0) # 175b0 <OUTLINED_FUNCTION_5>
   14d26:	02100613          	li	a2,33
   14d2a:	854e                	mv	a0,s3
   14d2c:	4581                	li	a1,0
   14d2e:	00003097          	auipc	ra,0x3
   14d32:	b30080e7          	jalr	-1232(ra) # 1785e <memset>
   14d36:	58810423          	sb	s0,1416(sp)
   14d3a:	6689                	lui	a3,0x2
   14d3c:	51c10513          	addi	a0,sp,1308
   14d40:	45f9                	li	a1,30
   14d42:	4611                	li	a2,4
   14d44:	9b568413          	addi	s0,a3,-1611 # 19b5 <.Lline_table_start1+0x178a>
   14d48:	4719                	li	a4,6
   14d4a:	86a2                	mv	a3,s0
   14d4c:	ffffc097          	auipc	ra,0xffffc
   14d50:	3e8080e7          	jalr	1000(ra) # 11134 <_ZN9allow_pin12full_dynamic15Buffer$LT$B$GT$5allow17hb1627d2b206e9fb0E>
   14d54:	8905                	andi	a0,a0,1
   14d56:	e90d                	bnez	a0,14d88 <_start+0x3c0a>
   14d58:	58010513          	addi	a0,sp,1408
   14d5c:	02100593          	li	a1,33
   14d60:	460d                	li	a2,3
   14d62:	4725                	li	a4,9
   14d64:	86a2                	mv	a3,s0
   14d66:	ffffc097          	auipc	ra,0xffffc
   14d6a:	3ce080e7          	jalr	974(ra) # 11134 <_ZN9allow_pin12full_dynamic15Buffer$LT$B$GT$5allow17hb1627d2b206e9fb0E>
   14d6e:	8905                	andi	a0,a0,1
   14d70:	ed01                	bnez	a0,14d88 <_start+0x3c0a>
   14d72:	6509                	lui	a0,0x2
   14d74:	4599                	li	a1,6
   14d76:	9b550513          	addi	a0,a0,-1611 # 19b5 <.Lline_table_start1+0x178a>
   14d7a:	4625                	li	a2,9
   14d7c:	ffffc097          	auipc	ra,0xffffc
   14d80:	3f4080e7          	jalr	1012(ra) # 11170 <_ZN9allow_pin7command17hdfcb5c5f4a3821c8E>
   14d84:	8905                	andi	a0,a0,1
   14d86:	c501                	beqz	a0,14d8e <_start+0x3c10>
   14d88:	84ae                	mv	s1,a1
   14d8a:	4405                	li	s0,1
   14d8c:	a835                	j	14dc8 <_start+0x3c4a>
   14d8e:	51c10513          	addi	a0,sp,1308
   14d92:	00002097          	auipc	ra,0x2
   14d96:	70a080e7          	jalr	1802(ra) # 1749c <_ZN9allow_pin12full_dynamic17unshare_if_shared17ha9c848d8c301b74dE>
   14d9a:	58010513          	addi	a0,sp,1408
   14d9e:	00002097          	auipc	ra,0x2
   14da2:	6fe080e7          	jalr	1790(ra) # 1749c <_ZN9allow_pin12full_dynamic17unshare_if_shared17ha9c848d8c301b74dE>
   14da6:	58010513          	addi	a0,sp,1408
   14daa:	00002097          	auipc	ra,0x2
   14dae:	6f2080e7          	jalr	1778(ra) # 1749c <_ZN9allow_pin12full_dynamic17unshare_if_shared17ha9c848d8c301b74dE>
   14db2:	00002297          	auipc	t0,0x2
   14db6:	708282e7          	jalr	t0,1800(t0) # 174ba <OUTLINED_FUNCTION_0>
   14dba:	0d68                	addi	a0,sp,668
   14dbc:	4669                	li	a2,26
   14dbe:	00003097          	auipc	ra,0x3
   14dc2:	b0c080e7          	jalr	-1268(ra) # 178ca <memcpy>
   14dc6:	4401                	li	s0,0
   14dc8:	58010513          	addi	a0,sp,1408
   14dcc:	00002097          	auipc	ra,0x2
   14dd0:	6d0080e7          	jalr	1744(ra) # 1749c <_ZN9allow_pin12full_dynamic17unshare_if_shared17ha9c848d8c301b74dE>
   14dd4:	51c10513          	addi	a0,sp,1308
   14dd8:	00002097          	auipc	ra,0x2
   14ddc:	6c4080e7          	jalr	1732(ra) # 1749c <_ZN9allow_pin12full_dynamic17unshare_if_shared17ha9c848d8c301b74dE>
   14de0:	c019                	beqz	s0,14de6 <_start+0x3c68>
   14de2:	5940206f          	j	17376 <_start+0x61f8>
   14de6:	00003297          	auipc	t0,0x3
   14dea:	8d0282e7          	jalr	t0,-1840(t0) # 176b6 <OUTLINED_FUNCTION_11>
   14dee:	4669                	li	a2,26
   14df0:	00003097          	auipc	ra,0x3
   14df4:	ada080e7          	jalr	-1318(ra) # 178ca <memcpy>
   14df8:	52f10513          	addi	a0,sp,1327
   14dfc:	048c                	addi	a1,sp,576
   14dfe:	4669                	li	a2,26
   14e00:	00003097          	auipc	ra,0x3
   14e04:	aca080e7          	jalr	-1334(ra) # 178ca <memcpy>
   14e08:	00002297          	auipc	t0,0x2
   14e0c:	7a8282e7          	jalr	t0,1960(t0) # 175b0 <OUTLINED_FUNCTION_5>
   14e10:	02a00613          	li	a2,42
   14e14:	854e                	mv	a0,s3
   14e16:	4581                	li	a1,0
   14e18:	00003097          	auipc	ra,0x3
   14e1c:	a46080e7          	jalr	-1466(ra) # 1785e <memset>
   14e20:	58810423          	sb	s0,1416(sp)
   14e24:	6685                	lui	a3,0x1
   14e26:	51c10513          	addi	a0,sp,1308
   14e2a:	02100593          	li	a1,33
   14e2e:	4611                	li	a2,4
   14e30:	5f368493          	addi	s1,a3,1523 # 15f3 <.Lline_table_start1+0x13c8>
   14e34:	4705                	li	a4,1
   14e36:	4405                	li	s0,1
   14e38:	86a6                	mv	a3,s1
   14e3a:	ffffc097          	auipc	ra,0xffffc
   14e3e:	2fa080e7          	jalr	762(ra) # 11134 <_ZN9allow_pin12full_dynamic15Buffer$LT$B$GT$5allow17hb1627d2b206e9fb0E>
   14e42:	8905                	andi	a0,a0,1
   14e44:	e90d                	bnez	a0,14e76 <_start+0x3cf8>
   14e46:	58010513          	addi	a0,sp,1408
   14e4a:	02a00593          	li	a1,42
   14e4e:	460d                	li	a2,3
   14e50:	470d                	li	a4,3
   14e52:	86a6                	mv	a3,s1
   14e54:	ffffc097          	auipc	ra,0xffffc
   14e58:	2e0080e7          	jalr	736(ra) # 11134 <_ZN9allow_pin12full_dynamic15Buffer$LT$B$GT$5allow17hb1627d2b206e9fb0E>
   14e5c:	8905                	andi	a0,a0,1
   14e5e:	ed01                	bnez	a0,14e76 <_start+0x3cf8>
   14e60:	6505                	lui	a0,0x1
   14e62:	4585                	li	a1,1
   14e64:	5f350513          	addi	a0,a0,1523 # 15f3 <.Lline_table_start1+0x13c8>
   14e68:	460d                	li	a2,3
   14e6a:	ffffc097          	auipc	ra,0xffffc
   14e6e:	306080e7          	jalr	774(ra) # 11170 <_ZN9allow_pin7command17hdfcb5c5f4a3821c8E>
   14e72:	8905                	andi	a0,a0,1
   14e74:	c119                	beqz	a0,14e7a <_start+0x3cfc>
   14e76:	84ae                	mv	s1,a1
   14e78:	a091                	j	14ebc <_start+0x3d3e>
   14e7a:	51c10513          	addi	a0,sp,1308
   14e7e:	00002097          	auipc	ra,0x2
   14e82:	61e080e7          	jalr	1566(ra) # 1749c <_ZN9allow_pin12full_dynamic17unshare_if_shared17ha9c848d8c301b74dE>
   14e86:	58010513          	addi	a0,sp,1408
   14e8a:	00002097          	auipc	ra,0x2
   14e8e:	612080e7          	jalr	1554(ra) # 1749c <_ZN9allow_pin12full_dynamic17unshare_if_shared17ha9c848d8c301b74dE>
   14e92:	58010513          	addi	a0,sp,1408
   14e96:	00002097          	auipc	ra,0x2
   14e9a:	606080e7          	jalr	1542(ra) # 1749c <_ZN9allow_pin12full_dynamic17unshare_if_shared17ha9c848d8c301b74dE>
   14e9e:	00002297          	auipc	t0,0x2
   14ea2:	696282e7          	jalr	t0,1686(t0) # 17534 <OUTLINED_FUNCTION_2>
   14ea6:	00003297          	auipc	t0,0x3
   14eaa:	91c282e7          	jalr	t0,-1764(t0) # 177c2 <OUTLINED_FUNCTION_19>
   14eae:	02300613          	li	a2,35
   14eb2:	00003097          	auipc	ra,0x3
   14eb6:	a18080e7          	jalr	-1512(ra) # 178ca <memcpy>
   14eba:	4401                	li	s0,0
   14ebc:	58010513          	addi	a0,sp,1408
   14ec0:	00002097          	auipc	ra,0x2
   14ec4:	5dc080e7          	jalr	1500(ra) # 1749c <_ZN9allow_pin12full_dynamic17unshare_if_shared17ha9c848d8c301b74dE>
   14ec8:	51c10513          	addi	a0,sp,1308
   14ecc:	00002097          	auipc	ra,0x2
   14ed0:	5d0080e7          	jalr	1488(ra) # 1749c <_ZN9allow_pin12full_dynamic17unshare_if_shared17ha9c848d8c301b74dE>
   14ed4:	c019                	beqz	s0,14eda <_start+0x3d5c>
   14ed6:	4a00206f          	j	17376 <_start+0x61f8>
   14eda:	00002297          	auipc	t0,0x2
   14ede:	7f2282e7          	jalr	t0,2034(t0) # 176cc <OUTLINED_FUNCTION_12>
   14ee2:	02300613          	li	a2,35
   14ee6:	00003097          	auipc	ra,0x3
   14eea:	9e4080e7          	jalr	-1564(ra) # 178ca <memcpy>
   14eee:	2af10513          	addi	a0,sp,687
   14ef2:	048c                	addi	a1,sp,576
   14ef4:	02300613          	li	a2,35
   14ef8:	00003097          	auipc	ra,0x3
   14efc:	9d2080e7          	jalr	-1582(ra) # 178ca <memcpy>
   14f00:	00002297          	auipc	t0,0x2
   14f04:	6d4282e7          	jalr	t0,1748(t0) # 175d4 <OUTLINED_FUNCTION_6>
   14f08:	05900613          	li	a2,89
   14f0c:	854e                	mv	a0,s3
   14f0e:	4581                	li	a1,0
   14f10:	00003097          	auipc	ra,0x3
   14f14:	94e080e7          	jalr	-1714(ra) # 1785e <memset>
   14f18:	58810423          	sb	s0,1416(sp)
   14f1c:	6685                	lui	a3,0x1
   14f1e:	0d68                	addi	a0,sp,668
   14f20:	02a00593          	li	a1,42
   14f24:	4611                	li	a2,4
   14f26:	ed268493          	addi	s1,a3,-302 # ed2 <.Lline_table_start1+0xca7>
   14f2a:	4705                	li	a4,1
   14f2c:	4405                	li	s0,1
   14f2e:	86a6                	mv	a3,s1
   14f30:	ffffc097          	auipc	ra,0xffffc
   14f34:	204080e7          	jalr	516(ra) # 11134 <_ZN9allow_pin12full_dynamic15Buffer$LT$B$GT$5allow17hb1627d2b206e9fb0E>
   14f38:	8905                	andi	a0,a0,1
   14f3a:	e90d                	bnez	a0,14f6c <_start+0x3dee>
   14f3c:	58010513          	addi	a0,sp,1408
   14f40:	05900593          	li	a1,89
   14f44:	460d                	li	a2,3
   14f46:	470d                	li	a4,3
   14f48:	86a6                	mv	a3,s1
   14f4a:	ffffc097          	auipc	ra,0xffffc
   14f4e:	1ea080e7          	jalr	490(ra) # 11134 <_ZN9allow_pin12full_dynamic15Buffer$LT$B$GT$5allow17hb1627d2b206e9fb0E>
   14f52:	8905                	andi	a0,a0,1
   14f54:	ed01                	bnez	a0,14f6c <_start+0x3dee>
   14f56:	6505                	lui	a0,0x1
   14f58:	4585                	li	a1,1
   14f5a:	ed250513          	addi	a0,a0,-302 # ed2 <.Lline_table_start1+0xca7>
   14f5e:	460d                	li	a2,3
   14f60:	ffffc097          	auipc	ra,0xffffc
   14f64:	210080e7          	jalr	528(ra) # 11170 <_ZN9allow_pin7command17hdfcb5c5f4a3821c8E>
   14f68:	8905                	andi	a0,a0,1
   14f6a:	c119                	beqz	a0,14f70 <_start+0x3df2>
   14f6c:	84ae                	mv	s1,a1
   14f6e:	a835                	j	14faa <_start+0x3e2c>
   14f70:	0d68                	addi	a0,sp,668
   14f72:	00002097          	auipc	ra,0x2
   14f76:	52a080e7          	jalr	1322(ra) # 1749c <_ZN9allow_pin12full_dynamic17unshare_if_shared17ha9c848d8c301b74dE>
   14f7a:	58010513          	addi	a0,sp,1408
   14f7e:	00002097          	auipc	ra,0x2
   14f82:	51e080e7          	jalr	1310(ra) # 1749c <_ZN9allow_pin12full_dynamic17unshare_if_shared17ha9c848d8c301b74dE>
   14f86:	58010513          	addi	a0,sp,1408
   14f8a:	00002097          	auipc	ra,0x2
   14f8e:	512080e7          	jalr	1298(ra) # 1749c <_ZN9allow_pin12full_dynamic17unshare_if_shared17ha9c848d8c301b74dE>
   14f92:	00002297          	auipc	t0,0x2
   14f96:	528282e7          	jalr	t0,1320(t0) # 174ba <OUTLINED_FUNCTION_0>
   14f9a:	0488                	addi	a0,sp,576
   14f9c:	05200613          	li	a2,82
   14fa0:	00003097          	auipc	ra,0x3
   14fa4:	92a080e7          	jalr	-1750(ra) # 178ca <memcpy>
   14fa8:	4401                	li	s0,0
   14faa:	58010513          	addi	a0,sp,1408
   14fae:	00002097          	auipc	ra,0x2
   14fb2:	4ee080e7          	jalr	1262(ra) # 1749c <_ZN9allow_pin12full_dynamic17unshare_if_shared17ha9c848d8c301b74dE>
   14fb6:	0d68                	addi	a0,sp,668
   14fb8:	00002097          	auipc	ra,0x2
   14fbc:	4e4080e7          	jalr	1252(ra) # 1749c <_ZN9allow_pin12full_dynamic17unshare_if_shared17ha9c848d8c301b74dE>
   14fc0:	c019                	beqz	s0,14fc6 <_start+0x3e48>
   14fc2:	3b40206f          	j	17376 <_start+0x61f8>
   14fc6:	00002297          	auipc	t0,0x2
   14fca:	6c2282e7          	jalr	t0,1730(t0) # 17688 <OUTLINED_FUNCTION_9>
   14fce:	05200613          	li	a2,82
   14fd2:	00003097          	auipc	ra,0x3
   14fd6:	8f8080e7          	jalr	-1800(ra) # 178ca <memcpy>
   14fda:	59310513          	addi	a0,sp,1427
   14fde:	51c10593          	addi	a1,sp,1308
   14fe2:	05200613          	li	a2,82
   14fe6:	00003097          	auipc	ra,0x3
   14fea:	8e4080e7          	jalr	-1820(ra) # 178ca <memcpy>
   14fee:	00002297          	auipc	t0,0x2
   14ff2:	59e282e7          	jalr	t0,1438(t0) # 1758c <OUTLINED_FUNCTION_4>
   14ff6:	04a00613          	li	a2,74
   14ffa:	854a                	mv	a0,s2
   14ffc:	4581                	li	a1,0
   14ffe:	00003097          	auipc	ra,0x3
   15002:	860080e7          	jalr	-1952(ra) # 1785e <memset>
   15006:	52810223          	sb	s0,1316(sp)
   1500a:	6605                	lui	a2,0x1
   1500c:	58010513          	addi	a0,sp,1408
   15010:	05900593          	li	a1,89
   15014:	48460413          	addi	s0,a2,1156 # 1484 <.Lline_table_start1+0x1259>
   15018:	4611                	li	a2,4
   1501a:	86a2                	mv	a3,s0
   1501c:	4701                	li	a4,0
   1501e:	ffffc097          	auipc	ra,0xffffc
   15022:	116080e7          	jalr	278(ra) # 11134 <_ZN9allow_pin12full_dynamic15Buffer$LT$B$GT$5allow17hb1627d2b206e9fb0E>
   15026:	8905                	andi	a0,a0,1
   15028:	e90d                	bnez	a0,1505a <_start+0x3edc>
   1502a:	51c10513          	addi	a0,sp,1308
   1502e:	04a00593          	li	a1,74
   15032:	460d                	li	a2,3
   15034:	4711                	li	a4,4
   15036:	86a2                	mv	a3,s0
   15038:	ffffc097          	auipc	ra,0xffffc
   1503c:	0fc080e7          	jalr	252(ra) # 11134 <_ZN9allow_pin12full_dynamic15Buffer$LT$B$GT$5allow17hb1627d2b206e9fb0E>
   15040:	8905                	andi	a0,a0,1
   15042:	ed01                	bnez	a0,1505a <_start+0x3edc>
   15044:	6505                	lui	a0,0x1
   15046:	48450513          	addi	a0,a0,1156 # 1484 <.Lline_table_start1+0x1259>
   1504a:	4611                	li	a2,4
   1504c:	4581                	li	a1,0
   1504e:	ffffc097          	auipc	ra,0xffffc
   15052:	122080e7          	jalr	290(ra) # 11170 <_ZN9allow_pin7command17hdfcb5c5f4a3821c8E>
   15056:	8905                	andi	a0,a0,1
   15058:	c501                	beqz	a0,15060 <_start+0x3ee2>
   1505a:	84ae                	mv	s1,a1
   1505c:	4405                	li	s0,1
   1505e:	a835                	j	1509a <_start+0x3f1c>
   15060:	58010513          	addi	a0,sp,1408
   15064:	00002097          	auipc	ra,0x2
   15068:	438080e7          	jalr	1080(ra) # 1749c <_ZN9allow_pin12full_dynamic17unshare_if_shared17ha9c848d8c301b74dE>
   1506c:	51c10513          	addi	a0,sp,1308
   15070:	00002097          	auipc	ra,0x2
   15074:	42c080e7          	jalr	1068(ra) # 1749c <_ZN9allow_pin12full_dynamic17unshare_if_shared17ha9c848d8c301b74dE>
   15078:	51c10513          	addi	a0,sp,1308
   1507c:	00002097          	auipc	ra,0x2
   15080:	420080e7          	jalr	1056(ra) # 1749c <_ZN9allow_pin12full_dynamic17unshare_if_shared17ha9c848d8c301b74dE>
   15084:	00002297          	auipc	t0,0x2
   15088:	472282e7          	jalr	t0,1138(t0) # 174f6 <OUTLINED_FUNCTION_1>
   1508c:	04300613          	li	a2,67
   15090:	00003097          	auipc	ra,0x3
   15094:	83a080e7          	jalr	-1990(ra) # 178ca <memcpy>
   15098:	4401                	li	s0,0
   1509a:	51c10513          	addi	a0,sp,1308
   1509e:	00002097          	auipc	ra,0x2
   150a2:	3fe080e7          	jalr	1022(ra) # 1749c <_ZN9allow_pin12full_dynamic17unshare_if_shared17ha9c848d8c301b74dE>
   150a6:	58010513          	addi	a0,sp,1408
   150aa:	00002097          	auipc	ra,0x2
   150ae:	3f2080e7          	jalr	1010(ra) # 1749c <_ZN9allow_pin12full_dynamic17unshare_if_shared17ha9c848d8c301b74dE>
   150b2:	c019                	beqz	s0,150b8 <_start+0x3f3a>
   150b4:	2c20206f          	j	17376 <_start+0x61f8>
   150b8:	00002297          	auipc	t0,0x2
   150bc:	5e8282e7          	jalr	t0,1512(t0) # 176a0 <OUTLINED_FUNCTION_10>
   150c0:	04300613          	li	a2,67
   150c4:	00003097          	auipc	ra,0x3
   150c8:	806080e7          	jalr	-2042(ra) # 178ca <memcpy>
   150cc:	59310513          	addi	a0,sp,1427
   150d0:	048c                	addi	a1,sp,576
   150d2:	04300613          	li	a2,67
   150d6:	00002097          	auipc	ra,0x2
   150da:	7f4080e7          	jalr	2036(ra) # 178ca <memcpy>
   150de:	00002297          	auipc	t0,0x2
   150e2:	4ae282e7          	jalr	t0,1198(t0) # 1758c <OUTLINED_FUNCTION_4>
   150e6:	02d00613          	li	a2,45
   150ea:	854a                	mv	a0,s2
   150ec:	4581                	li	a1,0
   150ee:	00002097          	auipc	ra,0x2
   150f2:	770080e7          	jalr	1904(ra) # 1785e <memset>
   150f6:	00002297          	auipc	t0,0x2
   150fa:	6f6282e7          	jalr	t0,1782(t0) # 177ec <OUTLINED_FUNCTION_21>
   150fe:	04a00593          	li	a1,74
   15102:	4611                	li	a2,4
   15104:	e3d68413          	addi	s0,a3,-451
   15108:	4709                	li	a4,2
   1510a:	86a2                	mv	a3,s0
   1510c:	ffffc097          	auipc	ra,0xffffc
   15110:	028080e7          	jalr	40(ra) # 11134 <_ZN9allow_pin12full_dynamic15Buffer$LT$B$GT$5allow17hb1627d2b206e9fb0E>
   15114:	8905                	andi	a0,a0,1
   15116:	e90d                	bnez	a0,15148 <_start+0x3fca>
   15118:	51c10513          	addi	a0,sp,1308
   1511c:	02d00593          	li	a1,45
   15120:	460d                	li	a2,3
   15122:	470d                	li	a4,3
   15124:	86a2                	mv	a3,s0
   15126:	ffffc097          	auipc	ra,0xffffc
   1512a:	00e080e7          	jalr	14(ra) # 11134 <_ZN9allow_pin12full_dynamic15Buffer$LT$B$GT$5allow17hb1627d2b206e9fb0E>
   1512e:	8905                	andi	a0,a0,1
   15130:	ed01                	bnez	a0,15148 <_start+0x3fca>
   15132:	6505                	lui	a0,0x1
   15134:	4589                	li	a1,2
   15136:	e3d50513          	addi	a0,a0,-451 # e3d <.Lline_table_start1+0xc12>
   1513a:	460d                	li	a2,3
   1513c:	ffffc097          	auipc	ra,0xffffc
   15140:	034080e7          	jalr	52(ra) # 11170 <_ZN9allow_pin7command17hdfcb5c5f4a3821c8E>
   15144:	8905                	andi	a0,a0,1
   15146:	c501                	beqz	a0,1514e <_start+0x3fd0>
   15148:	84ae                	mv	s1,a1
   1514a:	4405                	li	s0,1
   1514c:	a091                	j	15190 <_start+0x4012>
   1514e:	58010513          	addi	a0,sp,1408
   15152:	00002097          	auipc	ra,0x2
   15156:	34a080e7          	jalr	842(ra) # 1749c <_ZN9allow_pin12full_dynamic17unshare_if_shared17ha9c848d8c301b74dE>
   1515a:	51c10513          	addi	a0,sp,1308
   1515e:	00002097          	auipc	ra,0x2
   15162:	33e080e7          	jalr	830(ra) # 1749c <_ZN9allow_pin12full_dynamic17unshare_if_shared17ha9c848d8c301b74dE>
   15166:	51c10513          	addi	a0,sp,1308
   1516a:	00002097          	auipc	ra,0x2
   1516e:	332080e7          	jalr	818(ra) # 1749c <_ZN9allow_pin12full_dynamic17unshare_if_shared17ha9c848d8c301b74dE>
   15172:	00002297          	auipc	t0,0x2
   15176:	3ee282e7          	jalr	t0,1006(t0) # 17560 <OUTLINED_FUNCTION_3>
   1517a:	00002297          	auipc	t0,0x2
   1517e:	57e282e7          	jalr	t0,1406(t0) # 176f8 <OUTLINED_FUNCTION_14>
   15182:	02600613          	li	a2,38
   15186:	00002097          	auipc	ra,0x2
   1518a:	744080e7          	jalr	1860(ra) # 178ca <memcpy>
   1518e:	4401                	li	s0,0
   15190:	51c10513          	addi	a0,sp,1308
   15194:	00002097          	auipc	ra,0x2
   15198:	308080e7          	jalr	776(ra) # 1749c <_ZN9allow_pin12full_dynamic17unshare_if_shared17ha9c848d8c301b74dE>
   1519c:	58010513          	addi	a0,sp,1408
   151a0:	00002097          	auipc	ra,0x2
   151a4:	2fc080e7          	jalr	764(ra) # 1749c <_ZN9allow_pin12full_dynamic17unshare_if_shared17ha9c848d8c301b74dE>
   151a8:	c019                	beqz	s0,151ae <_start+0x4030>
   151aa:	1cc0206f          	j	17376 <_start+0x61f8>
   151ae:	00002297          	auipc	t0,0x2
   151b2:	628282e7          	jalr	t0,1576(t0) # 177d6 <OUTLINED_FUNCTION_20>
   151b6:	02600613          	li	a2,38
   151ba:	00002097          	auipc	ra,0x2
   151be:	710080e7          	jalr	1808(ra) # 178ca <memcpy>
   151c2:	25310513          	addi	a0,sp,595
   151c6:	0d6c                	addi	a1,sp,668
   151c8:	02600613          	li	a2,38
   151cc:	00002097          	auipc	ra,0x2
   151d0:	6fe080e7          	jalr	1790(ra) # 178ca <memcpy>
   151d4:	00002297          	auipc	t0,0x2
   151d8:	424282e7          	jalr	t0,1060(t0) # 175f8 <OUTLINED_FUNCTION_7>
   151dc:	05300613          	li	a2,83
   151e0:	854e                	mv	a0,s3
   151e2:	4581                	li	a1,0
   151e4:	00002097          	auipc	ra,0x2
   151e8:	67a080e7          	jalr	1658(ra) # 1785e <memset>
   151ec:	58810423          	sb	s0,1416(sp)
   151f0:	6685                	lui	a3,0x1
   151f2:	0488                	addi	a0,sp,576
   151f4:	02d00593          	li	a1,45
   151f8:	4611                	li	a2,4
   151fa:	ec368413          	addi	s0,a3,-317 # ec3 <.Lline_table_start1+0xc98>
   151fe:	4709                	li	a4,2
   15200:	86a2                	mv	a3,s0
   15202:	ffffc097          	auipc	ra,0xffffc
   15206:	f32080e7          	jalr	-206(ra) # 11134 <_ZN9allow_pin12full_dynamic15Buffer$LT$B$GT$5allow17hb1627d2b206e9fb0E>
   1520a:	8905                	andi	a0,a0,1
   1520c:	e90d                	bnez	a0,1523e <_start+0x40c0>
   1520e:	58010513          	addi	a0,sp,1408
   15212:	05300593          	li	a1,83
   15216:	460d                	li	a2,3
   15218:	471d                	li	a4,7
   1521a:	86a2                	mv	a3,s0
   1521c:	ffffc097          	auipc	ra,0xffffc
   15220:	f18080e7          	jalr	-232(ra) # 11134 <_ZN9allow_pin12full_dynamic15Buffer$LT$B$GT$5allow17hb1627d2b206e9fb0E>
   15224:	8905                	andi	a0,a0,1
   15226:	ed01                	bnez	a0,1523e <_start+0x40c0>
   15228:	6505                	lui	a0,0x1
   1522a:	4589                	li	a1,2
   1522c:	ec350513          	addi	a0,a0,-317 # ec3 <.Lline_table_start1+0xc98>
   15230:	461d                	li	a2,7
   15232:	ffffc097          	auipc	ra,0xffffc
   15236:	f3e080e7          	jalr	-194(ra) # 11170 <_ZN9allow_pin7command17hdfcb5c5f4a3821c8E>
   1523a:	8905                	andi	a0,a0,1
   1523c:	c501                	beqz	a0,15244 <_start+0x40c6>
   1523e:	84ae                	mv	s1,a1
   15240:	4405                	li	s0,1
   15242:	a089                	j	15284 <_start+0x4106>
   15244:	0488                	addi	a0,sp,576
   15246:	00002097          	auipc	ra,0x2
   1524a:	256080e7          	jalr	598(ra) # 1749c <_ZN9allow_pin12full_dynamic17unshare_if_shared17ha9c848d8c301b74dE>
   1524e:	58010513          	addi	a0,sp,1408
   15252:	00002097          	auipc	ra,0x2
   15256:	24a080e7          	jalr	586(ra) # 1749c <_ZN9allow_pin12full_dynamic17unshare_if_shared17ha9c848d8c301b74dE>
   1525a:	58010513          	addi	a0,sp,1408
   1525e:	00002097          	auipc	ra,0x2
   15262:	23e080e7          	jalr	574(ra) # 1749c <_ZN9allow_pin12full_dynamic17unshare_if_shared17ha9c848d8c301b74dE>
   15266:	00002297          	auipc	t0,0x2
   1526a:	2ce282e7          	jalr	t0,718(t0) # 17534 <OUTLINED_FUNCTION_2>
   1526e:	00002297          	auipc	t0,0x2
   15272:	474282e7          	jalr	t0,1140(t0) # 176e2 <OUTLINED_FUNCTION_13>
   15276:	04c00613          	li	a2,76
   1527a:	00002097          	auipc	ra,0x2
   1527e:	650080e7          	jalr	1616(ra) # 178ca <memcpy>
   15282:	4401                	li	s0,0
   15284:	58010513          	addi	a0,sp,1408
   15288:	00002097          	auipc	ra,0x2
   1528c:	214080e7          	jalr	532(ra) # 1749c <_ZN9allow_pin12full_dynamic17unshare_if_shared17ha9c848d8c301b74dE>
   15290:	0488                	addi	a0,sp,576
   15292:	00002097          	auipc	ra,0x2
   15296:	20a080e7          	jalr	522(ra) # 1749c <_ZN9allow_pin12full_dynamic17unshare_if_shared17ha9c848d8c301b74dE>
   1529a:	c019                	beqz	s0,152a0 <_start+0x4122>
   1529c:	0da0206f          	j	17376 <_start+0x61f8>
   152a0:	00002297          	auipc	t0,0x2
   152a4:	46c282e7          	jalr	t0,1132(t0) # 1770c <OUTLINED_FUNCTION_15>
   152a8:	1da8                	addi	a0,sp,760
   152aa:	51c10593          	addi	a1,sp,1308
   152ae:	04c00613          	li	a2,76
   152b2:	00002097          	auipc	ra,0x2
   152b6:	618080e7          	jalr	1560(ra) # 178ca <memcpy>
   152ba:	00002297          	auipc	t0,0x2
   152be:	2d2282e7          	jalr	t0,722(t0) # 1758c <OUTLINED_FUNCTION_4>
   152c2:	59310513          	addi	a0,sp,1427
   152c6:	1dac                	addi	a1,sp,760
   152c8:	04c00613          	li	a2,76
   152cc:	00002097          	auipc	ra,0x2
   152d0:	5fe080e7          	jalr	1534(ra) # 178ca <memcpy>
   152d4:	03a00613          	li	a2,58
   152d8:	854a                	mv	a0,s2
   152da:	4581                	li	a1,0
   152dc:	00002097          	auipc	ra,0x2
   152e0:	582080e7          	jalr	1410(ra) # 1785e <memset>
   152e4:	00002297          	auipc	t0,0x2
   152e8:	514282e7          	jalr	t0,1300(t0) # 177f8 <OUTLINED_FUNCTION_22>
   152ec:	05300593          	li	a1,83
   152f0:	4611                	li	a2,4
   152f2:	64568413          	addi	s0,a3,1605
   152f6:	4719                	li	a4,6
   152f8:	86a2                	mv	a3,s0
   152fa:	ffffc097          	auipc	ra,0xffffc
   152fe:	e3a080e7          	jalr	-454(ra) # 11134 <_ZN9allow_pin12full_dynamic15Buffer$LT$B$GT$5allow17hb1627d2b206e9fb0E>
   15302:	8905                	andi	a0,a0,1
   15304:	e90d                	bnez	a0,15336 <_start+0x41b8>
   15306:	51c10513          	addi	a0,sp,1308
   1530a:	03a00593          	li	a1,58
   1530e:	460d                	li	a2,3
   15310:	471d                	li	a4,7
   15312:	86a2                	mv	a3,s0
   15314:	ffffc097          	auipc	ra,0xffffc
   15318:	e20080e7          	jalr	-480(ra) # 11134 <_ZN9allow_pin12full_dynamic15Buffer$LT$B$GT$5allow17hb1627d2b206e9fb0E>
   1531c:	8905                	andi	a0,a0,1
   1531e:	ed01                	bnez	a0,15336 <_start+0x41b8>
   15320:	6509                	lui	a0,0x2
   15322:	4599                	li	a1,6
   15324:	64550513          	addi	a0,a0,1605 # 2645 <.Lline_table_start1+0x241a>
   15328:	461d                	li	a2,7
   1532a:	ffffc097          	auipc	ra,0xffffc
   1532e:	e46080e7          	jalr	-442(ra) # 11170 <_ZN9allow_pin7command17hdfcb5c5f4a3821c8E>
   15332:	8905                	andi	a0,a0,1
   15334:	c501                	beqz	a0,1533c <_start+0x41be>
   15336:	84ae                	mv	s1,a1
   15338:	4405                	li	s0,1
   1533a:	a091                	j	1537e <_start+0x4200>
   1533c:	58010513          	addi	a0,sp,1408
   15340:	00002097          	auipc	ra,0x2
   15344:	15c080e7          	jalr	348(ra) # 1749c <_ZN9allow_pin12full_dynamic17unshare_if_shared17ha9c848d8c301b74dE>
   15348:	51c10513          	addi	a0,sp,1308
   1534c:	00002097          	auipc	ra,0x2
   15350:	150080e7          	jalr	336(ra) # 1749c <_ZN9allow_pin12full_dynamic17unshare_if_shared17ha9c848d8c301b74dE>
   15354:	51c10513          	addi	a0,sp,1308
   15358:	00002097          	auipc	ra,0x2
   1535c:	144080e7          	jalr	324(ra) # 1749c <_ZN9allow_pin12full_dynamic17unshare_if_shared17ha9c848d8c301b74dE>
   15360:	00002297          	auipc	t0,0x2
   15364:	200282e7          	jalr	t0,512(t0) # 17560 <OUTLINED_FUNCTION_3>
   15368:	00002297          	auipc	t0,0x2
   1536c:	390282e7          	jalr	t0,912(t0) # 176f8 <OUTLINED_FUNCTION_14>
   15370:	03300613          	li	a2,51
   15374:	00002097          	auipc	ra,0x2
   15378:	556080e7          	jalr	1366(ra) # 178ca <memcpy>
   1537c:	4401                	li	s0,0
   1537e:	51c10513          	addi	a0,sp,1308
   15382:	00002097          	auipc	ra,0x2
   15386:	11a080e7          	jalr	282(ra) # 1749c <_ZN9allow_pin12full_dynamic17unshare_if_shared17ha9c848d8c301b74dE>
   1538a:	58010513          	addi	a0,sp,1408
   1538e:	00002097          	auipc	ra,0x2
   15392:	10e080e7          	jalr	270(ra) # 1749c <_ZN9allow_pin12full_dynamic17unshare_if_shared17ha9c848d8c301b74dE>
   15396:	c019                	beqz	s0,1539c <_start+0x421e>
   15398:	7df0106f          	j	17376 <_start+0x61f8>
   1539c:	00002297          	auipc	t0,0x2
   153a0:	330282e7          	jalr	t0,816(t0) # 176cc <OUTLINED_FUNCTION_12>
   153a4:	03300613          	li	a2,51
   153a8:	00002097          	auipc	ra,0x2
   153ac:	522080e7          	jalr	1314(ra) # 178ca <memcpy>
   153b0:	2af10513          	addi	a0,sp,687
   153b4:	048c                	addi	a1,sp,576
   153b6:	03300613          	li	a2,51
   153ba:	00002097          	auipc	ra,0x2
   153be:	510080e7          	jalr	1296(ra) # 178ca <memcpy>
   153c2:	00002297          	auipc	t0,0x2
   153c6:	212282e7          	jalr	t0,530(t0) # 175d4 <OUTLINED_FUNCTION_6>
   153ca:	05d00613          	li	a2,93
   153ce:	854e                	mv	a0,s3
   153d0:	4581                	li	a1,0
   153d2:	00002097          	auipc	ra,0x2
   153d6:	48c080e7          	jalr	1164(ra) # 1785e <memset>
   153da:	58810423          	sb	s0,1416(sp)
   153de:	6605                	lui	a2,0x1
   153e0:	0d68                	addi	a0,sp,668
   153e2:	03a00593          	li	a1,58
   153e6:	4a460413          	addi	s0,a2,1188 # 14a4 <.Lline_table_start1+0x1279>
   153ea:	4611                	li	a2,4
   153ec:	86a2                	mv	a3,s0
   153ee:	4701                	li	a4,0
   153f0:	ffffc097          	auipc	ra,0xffffc
   153f4:	d44080e7          	jalr	-700(ra) # 11134 <_ZN9allow_pin12full_dynamic15Buffer$LT$B$GT$5allow17hb1627d2b206e9fb0E>
   153f8:	8905                	andi	a0,a0,1
   153fa:	e90d                	bnez	a0,1542c <_start+0x42ae>
   153fc:	58010513          	addi	a0,sp,1408
   15400:	05d00593          	li	a1,93
   15404:	460d                	li	a2,3
   15406:	4715                	li	a4,5
   15408:	86a2                	mv	a3,s0
   1540a:	ffffc097          	auipc	ra,0xffffc
   1540e:	d2a080e7          	jalr	-726(ra) # 11134 <_ZN9allow_pin12full_dynamic15Buffer$LT$B$GT$5allow17hb1627d2b206e9fb0E>
   15412:	8905                	andi	a0,a0,1
   15414:	ed01                	bnez	a0,1542c <_start+0x42ae>
   15416:	6505                	lui	a0,0x1
   15418:	4a450513          	addi	a0,a0,1188 # 14a4 <.Lline_table_start1+0x1279>
   1541c:	4615                	li	a2,5
   1541e:	4581                	li	a1,0
   15420:	ffffc097          	auipc	ra,0xffffc
   15424:	d50080e7          	jalr	-688(ra) # 11170 <_ZN9allow_pin7command17hdfcb5c5f4a3821c8E>
   15428:	8905                	andi	a0,a0,1
   1542a:	c501                	beqz	a0,15432 <_start+0x42b4>
   1542c:	84ae                	mv	s1,a1
   1542e:	4405                	li	s0,1
   15430:	a835                	j	1546c <_start+0x42ee>
   15432:	0d68                	addi	a0,sp,668
   15434:	00002097          	auipc	ra,0x2
   15438:	068080e7          	jalr	104(ra) # 1749c <_ZN9allow_pin12full_dynamic17unshare_if_shared17ha9c848d8c301b74dE>
   1543c:	58010513          	addi	a0,sp,1408
   15440:	00002097          	auipc	ra,0x2
   15444:	05c080e7          	jalr	92(ra) # 1749c <_ZN9allow_pin12full_dynamic17unshare_if_shared17ha9c848d8c301b74dE>
   15448:	58010513          	addi	a0,sp,1408
   1544c:	00002097          	auipc	ra,0x2
   15450:	050080e7          	jalr	80(ra) # 1749c <_ZN9allow_pin12full_dynamic17unshare_if_shared17ha9c848d8c301b74dE>
   15454:	00002297          	auipc	t0,0x2
   15458:	066282e7          	jalr	t0,102(t0) # 174ba <OUTLINED_FUNCTION_0>
   1545c:	0488                	addi	a0,sp,576
   1545e:	05600613          	li	a2,86
   15462:	00002097          	auipc	ra,0x2
   15466:	468080e7          	jalr	1128(ra) # 178ca <memcpy>
   1546a:	4401                	li	s0,0
   1546c:	58010513          	addi	a0,sp,1408
   15470:	00002097          	auipc	ra,0x2
   15474:	02c080e7          	jalr	44(ra) # 1749c <_ZN9allow_pin12full_dynamic17unshare_if_shared17ha9c848d8c301b74dE>
   15478:	0d68                	addi	a0,sp,668
   1547a:	00002097          	auipc	ra,0x2
   1547e:	022080e7          	jalr	34(ra) # 1749c <_ZN9allow_pin12full_dynamic17unshare_if_shared17ha9c848d8c301b74dE>
   15482:	c019                	beqz	s0,15488 <_start+0x430a>
   15484:	6f30106f          	j	17376 <_start+0x61f8>
   15488:	00002297          	auipc	t0,0x2
   1548c:	200282e7          	jalr	t0,512(t0) # 17688 <OUTLINED_FUNCTION_9>
   15490:	05600613          	li	a2,86
   15494:	00002097          	auipc	ra,0x2
   15498:	436080e7          	jalr	1078(ra) # 178ca <memcpy>
   1549c:	59310513          	addi	a0,sp,1427
   154a0:	51c10593          	addi	a1,sp,1308
   154a4:	05600613          	li	a2,86
   154a8:	00002097          	auipc	ra,0x2
   154ac:	422080e7          	jalr	1058(ra) # 178ca <memcpy>
   154b0:	00002297          	auipc	t0,0x2
   154b4:	0dc282e7          	jalr	t0,220(t0) # 1758c <OUTLINED_FUNCTION_4>
   154b8:	04000613          	li	a2,64
   154bc:	854a                	mv	a0,s2
   154be:	4581                	li	a1,0
   154c0:	00002097          	auipc	ra,0x2
   154c4:	39e080e7          	jalr	926(ra) # 1785e <memset>
   154c8:	00002297          	auipc	t0,0x2
   154cc:	324282e7          	jalr	t0,804(t0) # 177ec <OUTLINED_FUNCTION_21>
   154d0:	05d00593          	li	a1,93
   154d4:	4611                	li	a2,4
   154d6:	02868413          	addi	s0,a3,40
   154da:	4721                	li	a4,8
   154dc:	86a2                	mv	a3,s0
   154de:	ffffc097          	auipc	ra,0xffffc
   154e2:	c56080e7          	jalr	-938(ra) # 11134 <_ZN9allow_pin12full_dynamic15Buffer$LT$B$GT$5allow17hb1627d2b206e9fb0E>
   154e6:	8905                	andi	a0,a0,1
   154e8:	e90d                	bnez	a0,1551a <_start+0x439c>
   154ea:	51c10513          	addi	a0,sp,1308
   154ee:	04000593          	li	a1,64
   154f2:	460d                	li	a2,3
   154f4:	4711                	li	a4,4
   154f6:	86a2                	mv	a3,s0
   154f8:	ffffc097          	auipc	ra,0xffffc
   154fc:	c3c080e7          	jalr	-964(ra) # 11134 <_ZN9allow_pin12full_dynamic15Buffer$LT$B$GT$5allow17hb1627d2b206e9fb0E>
   15500:	8905                	andi	a0,a0,1
   15502:	ed01                	bnez	a0,1551a <_start+0x439c>
   15504:	6505                	lui	a0,0x1
   15506:	45a1                	li	a1,8
   15508:	02850513          	addi	a0,a0,40 # 1028 <.Lline_table_start1+0xdfd>
   1550c:	4611                	li	a2,4
   1550e:	ffffc097          	auipc	ra,0xffffc
   15512:	c62080e7          	jalr	-926(ra) # 11170 <_ZN9allow_pin7command17hdfcb5c5f4a3821c8E>
   15516:	8905                	andi	a0,a0,1
   15518:	c501                	beqz	a0,15520 <_start+0x43a2>
   1551a:	84ae                	mv	s1,a1
   1551c:	4405                	li	s0,1
   1551e:	a835                	j	1555a <_start+0x43dc>
   15520:	58010513          	addi	a0,sp,1408
   15524:	00002097          	auipc	ra,0x2
   15528:	f78080e7          	jalr	-136(ra) # 1749c <_ZN9allow_pin12full_dynamic17unshare_if_shared17ha9c848d8c301b74dE>
   1552c:	51c10513          	addi	a0,sp,1308
   15530:	00002097          	auipc	ra,0x2
   15534:	f6c080e7          	jalr	-148(ra) # 1749c <_ZN9allow_pin12full_dynamic17unshare_if_shared17ha9c848d8c301b74dE>
   15538:	51c10513          	addi	a0,sp,1308
   1553c:	00002097          	auipc	ra,0x2
   15540:	f60080e7          	jalr	-160(ra) # 1749c <_ZN9allow_pin12full_dynamic17unshare_if_shared17ha9c848d8c301b74dE>
   15544:	00002297          	auipc	t0,0x2
   15548:	fb2282e7          	jalr	t0,-78(t0) # 174f6 <OUTLINED_FUNCTION_1>
   1554c:	03900613          	li	a2,57
   15550:	00002097          	auipc	ra,0x2
   15554:	37a080e7          	jalr	890(ra) # 178ca <memcpy>
   15558:	4401                	li	s0,0
   1555a:	51c10513          	addi	a0,sp,1308
   1555e:	00002097          	auipc	ra,0x2
   15562:	f3e080e7          	jalr	-194(ra) # 1749c <_ZN9allow_pin12full_dynamic17unshare_if_shared17ha9c848d8c301b74dE>
   15566:	58010513          	addi	a0,sp,1408
   1556a:	00002097          	auipc	ra,0x2
   1556e:	f32080e7          	jalr	-206(ra) # 1749c <_ZN9allow_pin12full_dynamic17unshare_if_shared17ha9c848d8c301b74dE>
   15572:	c019                	beqz	s0,15578 <_start+0x43fa>
   15574:	6030106f          	j	17376 <_start+0x61f8>
   15578:	00002297          	auipc	t0,0x2
   1557c:	128282e7          	jalr	t0,296(t0) # 176a0 <OUTLINED_FUNCTION_10>
   15580:	03900613          	li	a2,57
   15584:	00002097          	auipc	ra,0x2
   15588:	346080e7          	jalr	838(ra) # 178ca <memcpy>
   1558c:	59310513          	addi	a0,sp,1427
   15590:	048c                	addi	a1,sp,576
   15592:	03900613          	li	a2,57
   15596:	00002097          	auipc	ra,0x2
   1559a:	334080e7          	jalr	820(ra) # 178ca <memcpy>
   1559e:	00002297          	auipc	t0,0x2
   155a2:	fee282e7          	jalr	t0,-18(t0) # 1758c <OUTLINED_FUNCTION_4>
   155a6:	03100613          	li	a2,49
   155aa:	854a                	mv	a0,s2
   155ac:	4581                	li	a1,0
   155ae:	00002097          	auipc	ra,0x2
   155b2:	2b0080e7          	jalr	688(ra) # 1785e <memset>
   155b6:	00002297          	auipc	t0,0x2
   155ba:	236282e7          	jalr	t0,566(t0) # 177ec <OUTLINED_FUNCTION_21>
   155be:	04000593          	li	a1,64
   155c2:	4611                	li	a2,4
   155c4:	fce68413          	addi	s0,a3,-50
   155c8:	4721                	li	a4,8
   155ca:	86a2                	mv	a3,s0
   155cc:	ffffc097          	auipc	ra,0xffffc
   155d0:	b68080e7          	jalr	-1176(ra) # 11134 <_ZN9allow_pin12full_dynamic15Buffer$LT$B$GT$5allow17hb1627d2b206e9fb0E>
   155d4:	8905                	andi	a0,a0,1
   155d6:	e90d                	bnez	a0,15608 <_start+0x448a>
   155d8:	51c10513          	addi	a0,sp,1308
   155dc:	03100593          	li	a1,49
   155e0:	460d                	li	a2,3
   155e2:	4715                	li	a4,5
   155e4:	86a2                	mv	a3,s0
   155e6:	ffffc097          	auipc	ra,0xffffc
   155ea:	b4e080e7          	jalr	-1202(ra) # 11134 <_ZN9allow_pin12full_dynamic15Buffer$LT$B$GT$5allow17hb1627d2b206e9fb0E>
   155ee:	8905                	andi	a0,a0,1
   155f0:	ed01                	bnez	a0,15608 <_start+0x448a>
   155f2:	6505                	lui	a0,0x1
   155f4:	45a1                	li	a1,8
   155f6:	fce50513          	addi	a0,a0,-50 # fce <.Lline_table_start1+0xda3>
   155fa:	4615                	li	a2,5
   155fc:	ffffc097          	auipc	ra,0xffffc
   15600:	b74080e7          	jalr	-1164(ra) # 11170 <_ZN9allow_pin7command17hdfcb5c5f4a3821c8E>
   15604:	8905                	andi	a0,a0,1
   15606:	c501                	beqz	a0,1560e <_start+0x4490>
   15608:	84ae                	mv	s1,a1
   1560a:	4405                	li	s0,1
   1560c:	a091                	j	15650 <_start+0x44d2>
   1560e:	58010513          	addi	a0,sp,1408
   15612:	00002097          	auipc	ra,0x2
   15616:	e8a080e7          	jalr	-374(ra) # 1749c <_ZN9allow_pin12full_dynamic17unshare_if_shared17ha9c848d8c301b74dE>
   1561a:	51c10513          	addi	a0,sp,1308
   1561e:	00002097          	auipc	ra,0x2
   15622:	e7e080e7          	jalr	-386(ra) # 1749c <_ZN9allow_pin12full_dynamic17unshare_if_shared17ha9c848d8c301b74dE>
   15626:	51c10513          	addi	a0,sp,1308
   1562a:	00002097          	auipc	ra,0x2
   1562e:	e72080e7          	jalr	-398(ra) # 1749c <_ZN9allow_pin12full_dynamic17unshare_if_shared17ha9c848d8c301b74dE>
   15632:	00002297          	auipc	t0,0x2
   15636:	f2e282e7          	jalr	t0,-210(t0) # 17560 <OUTLINED_FUNCTION_3>
   1563a:	00002297          	auipc	t0,0x2
   1563e:	0be282e7          	jalr	t0,190(t0) # 176f8 <OUTLINED_FUNCTION_14>
   15642:	02a00613          	li	a2,42
   15646:	00002097          	auipc	ra,0x2
   1564a:	284080e7          	jalr	644(ra) # 178ca <memcpy>
   1564e:	4401                	li	s0,0
   15650:	51c10513          	addi	a0,sp,1308
   15654:	00002097          	auipc	ra,0x2
   15658:	e48080e7          	jalr	-440(ra) # 1749c <_ZN9allow_pin12full_dynamic17unshare_if_shared17ha9c848d8c301b74dE>
   1565c:	58010513          	addi	a0,sp,1408
   15660:	00002097          	auipc	ra,0x2
   15664:	e3c080e7          	jalr	-452(ra) # 1749c <_ZN9allow_pin12full_dynamic17unshare_if_shared17ha9c848d8c301b74dE>
   15668:	c019                	beqz	s0,1566e <_start+0x44f0>
   1566a:	50d0106f          	j	17376 <_start+0x61f8>
   1566e:	00002297          	auipc	t0,0x2
   15672:	05e282e7          	jalr	t0,94(t0) # 176cc <OUTLINED_FUNCTION_12>
   15676:	02a00613          	li	a2,42
   1567a:	00002097          	auipc	ra,0x2
   1567e:	250080e7          	jalr	592(ra) # 178ca <memcpy>
   15682:	2af10513          	addi	a0,sp,687
   15686:	048c                	addi	a1,sp,576
   15688:	02a00613          	li	a2,42
   1568c:	00002097          	auipc	ra,0x2
   15690:	23e080e7          	jalr	574(ra) # 178ca <memcpy>
   15694:	00002297          	auipc	t0,0x2
   15698:	f40282e7          	jalr	t0,-192(t0) # 175d4 <OUTLINED_FUNCTION_6>
   1569c:	04800613          	li	a2,72
   156a0:	854e                	mv	a0,s3
   156a2:	4581                	li	a1,0
   156a4:	00002097          	auipc	ra,0x2
   156a8:	1ba080e7          	jalr	442(ra) # 1785e <memset>
   156ac:	58810423          	sb	s0,1416(sp)
   156b0:	6689                	lui	a3,0x2
   156b2:	0d68                	addi	a0,sp,668
   156b4:	03100593          	li	a1,49
   156b8:	4611                	li	a2,4
   156ba:	80e68413          	addi	s0,a3,-2034 # 180e <.Lline_table_start1+0x15e3>
   156be:	4711                	li	a4,4
   156c0:	86a2                	mv	a3,s0
   156c2:	ffffc097          	auipc	ra,0xffffc
   156c6:	a72080e7          	jalr	-1422(ra) # 11134 <_ZN9allow_pin12full_dynamic15Buffer$LT$B$GT$5allow17hb1627d2b206e9fb0E>
   156ca:	8905                	andi	a0,a0,1
   156cc:	e90d                	bnez	a0,156fe <_start+0x4580>
   156ce:	58010513          	addi	a0,sp,1408
   156d2:	04800593          	li	a1,72
   156d6:	460d                	li	a2,3
   156d8:	470d                	li	a4,3
   156da:	86a2                	mv	a3,s0
   156dc:	ffffc097          	auipc	ra,0xffffc
   156e0:	a58080e7          	jalr	-1448(ra) # 11134 <_ZN9allow_pin12full_dynamic15Buffer$LT$B$GT$5allow17hb1627d2b206e9fb0E>
   156e4:	8905                	andi	a0,a0,1
   156e6:	ed01                	bnez	a0,156fe <_start+0x4580>
   156e8:	6509                	lui	a0,0x2
   156ea:	4591                	li	a1,4
   156ec:	80e50513          	addi	a0,a0,-2034 # 180e <.Lline_table_start1+0x15e3>
   156f0:	460d                	li	a2,3
   156f2:	ffffc097          	auipc	ra,0xffffc
   156f6:	a7e080e7          	jalr	-1410(ra) # 11170 <_ZN9allow_pin7command17hdfcb5c5f4a3821c8E>
   156fa:	8905                	andi	a0,a0,1
   156fc:	c501                	beqz	a0,15704 <_start+0x4586>
   156fe:	84ae                	mv	s1,a1
   15700:	4405                	li	s0,1
   15702:	a835                	j	1573e <_start+0x45c0>
   15704:	0d68                	addi	a0,sp,668
   15706:	00002097          	auipc	ra,0x2
   1570a:	d96080e7          	jalr	-618(ra) # 1749c <_ZN9allow_pin12full_dynamic17unshare_if_shared17ha9c848d8c301b74dE>
   1570e:	58010513          	addi	a0,sp,1408
   15712:	00002097          	auipc	ra,0x2
   15716:	d8a080e7          	jalr	-630(ra) # 1749c <_ZN9allow_pin12full_dynamic17unshare_if_shared17ha9c848d8c301b74dE>
   1571a:	58010513          	addi	a0,sp,1408
   1571e:	00002097          	auipc	ra,0x2
   15722:	d7e080e7          	jalr	-642(ra) # 1749c <_ZN9allow_pin12full_dynamic17unshare_if_shared17ha9c848d8c301b74dE>
   15726:	00002297          	auipc	t0,0x2
   1572a:	d94282e7          	jalr	t0,-620(t0) # 174ba <OUTLINED_FUNCTION_0>
   1572e:	0488                	addi	a0,sp,576
   15730:	04100613          	li	a2,65
   15734:	00002097          	auipc	ra,0x2
   15738:	196080e7          	jalr	406(ra) # 178ca <memcpy>
   1573c:	4401                	li	s0,0
   1573e:	58010513          	addi	a0,sp,1408
   15742:	00002097          	auipc	ra,0x2
   15746:	d5a080e7          	jalr	-678(ra) # 1749c <_ZN9allow_pin12full_dynamic17unshare_if_shared17ha9c848d8c301b74dE>
   1574a:	0d68                	addi	a0,sp,668
   1574c:	00002097          	auipc	ra,0x2
   15750:	d50080e7          	jalr	-688(ra) # 1749c <_ZN9allow_pin12full_dynamic17unshare_if_shared17ha9c848d8c301b74dE>
   15754:	c019                	beqz	s0,1575a <_start+0x45dc>
   15756:	4210106f          	j	17376 <_start+0x61f8>
   1575a:	00002297          	auipc	t0,0x2
   1575e:	f2e282e7          	jalr	t0,-210(t0) # 17688 <OUTLINED_FUNCTION_9>
   15762:	04100613          	li	a2,65
   15766:	00002097          	auipc	ra,0x2
   1576a:	164080e7          	jalr	356(ra) # 178ca <memcpy>
   1576e:	59310513          	addi	a0,sp,1427
   15772:	51c10593          	addi	a1,sp,1308
   15776:	04100613          	li	a2,65
   1577a:	00002097          	auipc	ra,0x2
   1577e:	150080e7          	jalr	336(ra) # 178ca <memcpy>
   15782:	00002297          	auipc	t0,0x2
   15786:	e0a282e7          	jalr	t0,-502(t0) # 1758c <OUTLINED_FUNCTION_4>
   1578a:	02900613          	li	a2,41
   1578e:	854a                	mv	a0,s2
   15790:	4581                	li	a1,0
   15792:	00002097          	auipc	ra,0x2
   15796:	0cc080e7          	jalr	204(ra) # 1785e <memset>
   1579a:	00002297          	auipc	t0,0x2
   1579e:	05e282e7          	jalr	t0,94(t0) # 177f8 <OUTLINED_FUNCTION_22>
   157a2:	04800593          	li	a1,72
   157a6:	4611                	li	a2,4
   157a8:	6a468413          	addi	s0,a3,1700
   157ac:	470d                	li	a4,3
   157ae:	86a2                	mv	a3,s0
   157b0:	ffffc097          	auipc	ra,0xffffc
   157b4:	984080e7          	jalr	-1660(ra) # 11134 <_ZN9allow_pin12full_dynamic15Buffer$LT$B$GT$5allow17hb1627d2b206e9fb0E>
   157b8:	8905                	andi	a0,a0,1
   157ba:	e90d                	bnez	a0,157ec <_start+0x466e>
   157bc:	51c10513          	addi	a0,sp,1308
   157c0:	02900593          	li	a1,41
   157c4:	460d                	li	a2,3
   157c6:	4711                	li	a4,4
   157c8:	86a2                	mv	a3,s0
   157ca:	ffffc097          	auipc	ra,0xffffc
   157ce:	96a080e7          	jalr	-1686(ra) # 11134 <_ZN9allow_pin12full_dynamic15Buffer$LT$B$GT$5allow17hb1627d2b206e9fb0E>
   157d2:	8905                	andi	a0,a0,1
   157d4:	ed01                	bnez	a0,157ec <_start+0x466e>
   157d6:	6509                	lui	a0,0x2
   157d8:	458d                	li	a1,3
   157da:	6a450513          	addi	a0,a0,1700 # 26a4 <.Lline_table_start1+0x2479>
   157de:	4611                	li	a2,4
   157e0:	ffffc097          	auipc	ra,0xffffc
   157e4:	990080e7          	jalr	-1648(ra) # 11170 <_ZN9allow_pin7command17hdfcb5c5f4a3821c8E>
   157e8:	8905                	andi	a0,a0,1
   157ea:	c501                	beqz	a0,157f2 <_start+0x4674>
   157ec:	84ae                	mv	s1,a1
   157ee:	4405                	li	s0,1
   157f0:	a835                	j	1582c <_start+0x46ae>
   157f2:	58010513          	addi	a0,sp,1408
   157f6:	00002097          	auipc	ra,0x2
   157fa:	ca6080e7          	jalr	-858(ra) # 1749c <_ZN9allow_pin12full_dynamic17unshare_if_shared17ha9c848d8c301b74dE>
   157fe:	51c10513          	addi	a0,sp,1308
   15802:	00002097          	auipc	ra,0x2
   15806:	c9a080e7          	jalr	-870(ra) # 1749c <_ZN9allow_pin12full_dynamic17unshare_if_shared17ha9c848d8c301b74dE>
   1580a:	51c10513          	addi	a0,sp,1308
   1580e:	00002097          	auipc	ra,0x2
   15812:	c8e080e7          	jalr	-882(ra) # 1749c <_ZN9allow_pin12full_dynamic17unshare_if_shared17ha9c848d8c301b74dE>
   15816:	00002297          	auipc	t0,0x2
   1581a:	ce0282e7          	jalr	t0,-800(t0) # 174f6 <OUTLINED_FUNCTION_1>
   1581e:	02200613          	li	a2,34
   15822:	00002097          	auipc	ra,0x2
   15826:	0a8080e7          	jalr	168(ra) # 178ca <memcpy>
   1582a:	4401                	li	s0,0
   1582c:	51c10513          	addi	a0,sp,1308
   15830:	00002097          	auipc	ra,0x2
   15834:	c6c080e7          	jalr	-916(ra) # 1749c <_ZN9allow_pin12full_dynamic17unshare_if_shared17ha9c848d8c301b74dE>
   15838:	58010513          	addi	a0,sp,1408
   1583c:	00002097          	auipc	ra,0x2
   15840:	c60080e7          	jalr	-928(ra) # 1749c <_ZN9allow_pin12full_dynamic17unshare_if_shared17ha9c848d8c301b74dE>
   15844:	c019                	beqz	s0,1584a <_start+0x46cc>
   15846:	3310106f          	j	17376 <_start+0x61f8>
   1584a:	00002297          	auipc	t0,0x2
   1584e:	e56282e7          	jalr	t0,-426(t0) # 176a0 <OUTLINED_FUNCTION_10>
   15852:	02200613          	li	a2,34
   15856:	00002097          	auipc	ra,0x2
   1585a:	074080e7          	jalr	116(ra) # 178ca <memcpy>
   1585e:	59310513          	addi	a0,sp,1427
   15862:	048c                	addi	a1,sp,576
   15864:	02200613          	li	a2,34
   15868:	00002097          	auipc	ra,0x2
   1586c:	062080e7          	jalr	98(ra) # 178ca <memcpy>
   15870:	00002297          	auipc	t0,0x2
   15874:	d1c282e7          	jalr	t0,-740(t0) # 1758c <OUTLINED_FUNCTION_4>
   15878:	4669                	li	a2,26
   1587a:	854a                	mv	a0,s2
   1587c:	4581                	li	a1,0
   1587e:	00002097          	auipc	ra,0x2
   15882:	fe0080e7          	jalr	-32(ra) # 1785e <memset>
   15886:	00002297          	auipc	t0,0x2
   1588a:	f72282e7          	jalr	t0,-142(t0) # 177f8 <OUTLINED_FUNCTION_22>
   1588e:	02900593          	li	a1,41
   15892:	4611                	li	a2,4
   15894:	04868413          	addi	s0,a3,72
   15898:	4715                	li	a4,5
   1589a:	86a2                	mv	a3,s0
   1589c:	ffffc097          	auipc	ra,0xffffc
   158a0:	898080e7          	jalr	-1896(ra) # 11134 <_ZN9allow_pin12full_dynamic15Buffer$LT$B$GT$5allow17hb1627d2b206e9fb0E>
   158a4:	8905                	andi	a0,a0,1
   158a6:	e905                	bnez	a0,158d6 <_start+0x4758>
   158a8:	51c10513          	addi	a0,sp,1308
   158ac:	45e9                	li	a1,26
   158ae:	460d                	li	a2,3
   158b0:	470d                	li	a4,3
   158b2:	86a2                	mv	a3,s0
   158b4:	ffffc097          	auipc	ra,0xffffc
   158b8:	880080e7          	jalr	-1920(ra) # 11134 <_ZN9allow_pin12full_dynamic15Buffer$LT$B$GT$5allow17hb1627d2b206e9fb0E>
   158bc:	8905                	andi	a0,a0,1
   158be:	ed01                	bnez	a0,158d6 <_start+0x4758>
   158c0:	6509                	lui	a0,0x2
   158c2:	4595                	li	a1,5
   158c4:	04850513          	addi	a0,a0,72 # 2048 <.Lline_table_start1+0x1e1d>
   158c8:	460d                	li	a2,3
   158ca:	ffffc097          	auipc	ra,0xffffc
   158ce:	8a6080e7          	jalr	-1882(ra) # 11170 <_ZN9allow_pin7command17hdfcb5c5f4a3821c8E>
   158d2:	8905                	andi	a0,a0,1
   158d4:	c501                	beqz	a0,158dc <_start+0x475e>
   158d6:	84ae                	mv	s1,a1
   158d8:	4405                	li	s0,1
   158da:	a82d                	j	15914 <_start+0x4796>
   158dc:	58010513          	addi	a0,sp,1408
   158e0:	00002097          	auipc	ra,0x2
   158e4:	bbc080e7          	jalr	-1092(ra) # 1749c <_ZN9allow_pin12full_dynamic17unshare_if_shared17ha9c848d8c301b74dE>
   158e8:	51c10513          	addi	a0,sp,1308
   158ec:	00002097          	auipc	ra,0x2
   158f0:	bb0080e7          	jalr	-1104(ra) # 1749c <_ZN9allow_pin12full_dynamic17unshare_if_shared17ha9c848d8c301b74dE>
   158f4:	51c10513          	addi	a0,sp,1308
   158f8:	00002097          	auipc	ra,0x2
   158fc:	ba4080e7          	jalr	-1116(ra) # 1749c <_ZN9allow_pin12full_dynamic17unshare_if_shared17ha9c848d8c301b74dE>
   15900:	00002297          	auipc	t0,0x2
   15904:	bf6282e7          	jalr	t0,-1034(t0) # 174f6 <OUTLINED_FUNCTION_1>
   15908:	464d                	li	a2,19
   1590a:	00002097          	auipc	ra,0x2
   1590e:	fc0080e7          	jalr	-64(ra) # 178ca <memcpy>
   15912:	4401                	li	s0,0
   15914:	51c10513          	addi	a0,sp,1308
   15918:	00002097          	auipc	ra,0x2
   1591c:	b84080e7          	jalr	-1148(ra) # 1749c <_ZN9allow_pin12full_dynamic17unshare_if_shared17ha9c848d8c301b74dE>
   15920:	58010513          	addi	a0,sp,1408
   15924:	00002097          	auipc	ra,0x2
   15928:	b78080e7          	jalr	-1160(ra) # 1749c <_ZN9allow_pin12full_dynamic17unshare_if_shared17ha9c848d8c301b74dE>
   1592c:	c019                	beqz	s0,15932 <_start+0x47b4>
   1592e:	2490106f          	j	17376 <_start+0x61f8>
   15932:	00002297          	auipc	t0,0x2
   15936:	d84282e7          	jalr	t0,-636(t0) # 176b6 <OUTLINED_FUNCTION_11>
   1593a:	464d                	li	a2,19
   1593c:	00002097          	auipc	ra,0x2
   15940:	f8e080e7          	jalr	-114(ra) # 178ca <memcpy>
   15944:	52f10513          	addi	a0,sp,1327
   15948:	048c                	addi	a1,sp,576
   1594a:	464d                	li	a2,19
   1594c:	00002097          	auipc	ra,0x2
   15950:	f7e080e7          	jalr	-130(ra) # 178ca <memcpy>
   15954:	00002297          	auipc	t0,0x2
   15958:	c5c282e7          	jalr	t0,-932(t0) # 175b0 <OUTLINED_FUNCTION_5>
   1595c:	466d                	li	a2,27
   1595e:	854e                	mv	a0,s3
   15960:	4581                	li	a1,0
   15962:	00002097          	auipc	ra,0x2
   15966:	efc080e7          	jalr	-260(ra) # 1785e <memset>
   1596a:	58810423          	sb	s0,1416(sp)
   1596e:	6689                	lui	a3,0x2
   15970:	51c10513          	addi	a0,sp,1308
   15974:	45e9                	li	a1,26
   15976:	4611                	li	a2,4
   15978:	cce68413          	addi	s0,a3,-818 # 1cce <.Lline_table_start1+0x1aa3>
   1597c:	4715                	li	a4,5
   1597e:	86a2                	mv	a3,s0
   15980:	ffffb097          	auipc	ra,0xffffb
   15984:	7b4080e7          	jalr	1972(ra) # 11134 <_ZN9allow_pin12full_dynamic15Buffer$LT$B$GT$5allow17hb1627d2b206e9fb0E>
   15988:	8905                	andi	a0,a0,1
   1598a:	e905                	bnez	a0,159ba <_start+0x483c>
   1598c:	58010513          	addi	a0,sp,1408
   15990:	45ed                	li	a1,27
   15992:	460d                	li	a2,3
   15994:	4709                	li	a4,2
   15996:	86a2                	mv	a3,s0
   15998:	ffffb097          	auipc	ra,0xffffb
   1599c:	79c080e7          	jalr	1948(ra) # 11134 <_ZN9allow_pin12full_dynamic15Buffer$LT$B$GT$5allow17hb1627d2b206e9fb0E>
   159a0:	8905                	andi	a0,a0,1
   159a2:	ed01                	bnez	a0,159ba <_start+0x483c>
   159a4:	6509                	lui	a0,0x2
   159a6:	4595                	li	a1,5
   159a8:	cce50513          	addi	a0,a0,-818 # 1cce <.Lline_table_start1+0x1aa3>
   159ac:	4609                	li	a2,2
   159ae:	ffffb097          	auipc	ra,0xffffb
   159b2:	7c2080e7          	jalr	1986(ra) # 11170 <_ZN9allow_pin7command17hdfcb5c5f4a3821c8E>
   159b6:	8905                	andi	a0,a0,1
   159b8:	c501                	beqz	a0,159c0 <_start+0x4842>
   159ba:	84ae                	mv	s1,a1
   159bc:	4405                	li	s0,1
   159be:	a835                	j	159fa <_start+0x487c>
   159c0:	51c10513          	addi	a0,sp,1308
   159c4:	00002097          	auipc	ra,0x2
   159c8:	ad8080e7          	jalr	-1320(ra) # 1749c <_ZN9allow_pin12full_dynamic17unshare_if_shared17ha9c848d8c301b74dE>
   159cc:	58010513          	addi	a0,sp,1408
   159d0:	00002097          	auipc	ra,0x2
   159d4:	acc080e7          	jalr	-1332(ra) # 1749c <_ZN9allow_pin12full_dynamic17unshare_if_shared17ha9c848d8c301b74dE>
   159d8:	58010513          	addi	a0,sp,1408
   159dc:	00002097          	auipc	ra,0x2
   159e0:	ac0080e7          	jalr	-1344(ra) # 1749c <_ZN9allow_pin12full_dynamic17unshare_if_shared17ha9c848d8c301b74dE>
   159e4:	00002297          	auipc	t0,0x2
   159e8:	ad6282e7          	jalr	t0,-1322(t0) # 174ba <OUTLINED_FUNCTION_0>
   159ec:	0488                	addi	a0,sp,576
   159ee:	4651                	li	a2,20
   159f0:	00002097          	auipc	ra,0x2
   159f4:	eda080e7          	jalr	-294(ra) # 178ca <memcpy>
   159f8:	4401                	li	s0,0
   159fa:	58010513          	addi	a0,sp,1408
   159fe:	00002097          	auipc	ra,0x2
   15a02:	a9e080e7          	jalr	-1378(ra) # 1749c <_ZN9allow_pin12full_dynamic17unshare_if_shared17ha9c848d8c301b74dE>
   15a06:	51c10513          	addi	a0,sp,1308
   15a0a:	00002097          	auipc	ra,0x2
   15a0e:	a92080e7          	jalr	-1390(ra) # 1749c <_ZN9allow_pin12full_dynamic17unshare_if_shared17ha9c848d8c301b74dE>
   15a12:	c019                	beqz	s0,15a18 <_start+0x489a>
   15a14:	1630106f          	j	17376 <_start+0x61f8>
   15a18:	00002297          	auipc	t0,0x2
   15a1c:	e10282e7          	jalr	t0,-496(t0) # 17828 <OUTLINED_FUNCTION_25>
   15a20:	1ea8                	addi	a0,sp,888
   15a22:	048c                	addi	a1,sp,576
   15a24:	4651                	li	a2,20
   15a26:	00002097          	auipc	ra,0x2
   15a2a:	ea4080e7          	jalr	-348(ra) # 178ca <memcpy>
   15a2e:	00002297          	auipc	t0,0x2
   15a32:	ba6282e7          	jalr	t0,-1114(t0) # 175d4 <OUTLINED_FUNCTION_6>
   15a36:	2af10513          	addi	a0,sp,687
   15a3a:	1eac                	addi	a1,sp,888
   15a3c:	4651                	li	a2,20
   15a3e:	00002097          	auipc	ra,0x2
   15a42:	e8c080e7          	jalr	-372(ra) # 178ca <memcpy>
   15a46:	04100613          	li	a2,65
   15a4a:	854e                	mv	a0,s3
   15a4c:	4581                	li	a1,0
   15a4e:	00002097          	auipc	ra,0x2
   15a52:	e10080e7          	jalr	-496(ra) # 1785e <memset>
   15a56:	58810423          	sb	s0,1416(sp)
   15a5a:	0d68                	addi	a0,sp,668
   15a5c:	45ed                	li	a1,27
   15a5e:	4611                	li	a2,4
   15a60:	14000693          	li	a3,320
   15a64:	4721                	li	a4,8
   15a66:	ffffb097          	auipc	ra,0xffffb
   15a6a:	6ce080e7          	jalr	1742(ra) # 11134 <_ZN9allow_pin12full_dynamic15Buffer$LT$B$GT$5allow17hb1627d2b206e9fb0E>
   15a6e:	8905                	andi	a0,a0,1
   15a70:	e90d                	bnez	a0,15aa2 <_start+0x4924>
   15a72:	58010513          	addi	a0,sp,1408
   15a76:	04100593          	li	a1,65
   15a7a:	460d                	li	a2,3
   15a7c:	14000693          	li	a3,320
   15a80:	4725                	li	a4,9
   15a82:	ffffb097          	auipc	ra,0xffffb
   15a86:	6b2080e7          	jalr	1714(ra) # 11134 <_ZN9allow_pin12full_dynamic15Buffer$LT$B$GT$5allow17hb1627d2b206e9fb0E>
   15a8a:	8905                	andi	a0,a0,1
   15a8c:	e919                	bnez	a0,15aa2 <_start+0x4924>
   15a8e:	14000513          	li	a0,320
   15a92:	45a1                	li	a1,8
   15a94:	4625                	li	a2,9
   15a96:	ffffb097          	auipc	ra,0xffffb
   15a9a:	6da080e7          	jalr	1754(ra) # 11170 <_ZN9allow_pin7command17hdfcb5c5f4a3821c8E>
   15a9e:	8905                	andi	a0,a0,1
   15aa0:	c501                	beqz	a0,15aa8 <_start+0x492a>
   15aa2:	84ae                	mv	s1,a1
   15aa4:	4405                	li	s0,1
   15aa6:	a835                	j	15ae2 <_start+0x4964>
   15aa8:	0d68                	addi	a0,sp,668
   15aaa:	00002097          	auipc	ra,0x2
   15aae:	9f2080e7          	jalr	-1550(ra) # 1749c <_ZN9allow_pin12full_dynamic17unshare_if_shared17ha9c848d8c301b74dE>
   15ab2:	58010513          	addi	a0,sp,1408
   15ab6:	00002097          	auipc	ra,0x2
   15aba:	9e6080e7          	jalr	-1562(ra) # 1749c <_ZN9allow_pin12full_dynamic17unshare_if_shared17ha9c848d8c301b74dE>
   15abe:	58010513          	addi	a0,sp,1408
   15ac2:	00002097          	auipc	ra,0x2
   15ac6:	9da080e7          	jalr	-1574(ra) # 1749c <_ZN9allow_pin12full_dynamic17unshare_if_shared17ha9c848d8c301b74dE>
   15aca:	00002297          	auipc	t0,0x2
   15ace:	9f0282e7          	jalr	t0,-1552(t0) # 174ba <OUTLINED_FUNCTION_0>
   15ad2:	0488                	addi	a0,sp,576
   15ad4:	03a00613          	li	a2,58
   15ad8:	00002097          	auipc	ra,0x2
   15adc:	df2080e7          	jalr	-526(ra) # 178ca <memcpy>
   15ae0:	4401                	li	s0,0
   15ae2:	58010513          	addi	a0,sp,1408
   15ae6:	00002097          	auipc	ra,0x2
   15aea:	9b6080e7          	jalr	-1610(ra) # 1749c <_ZN9allow_pin12full_dynamic17unshare_if_shared17ha9c848d8c301b74dE>
   15aee:	0d68                	addi	a0,sp,668
   15af0:	00002097          	auipc	ra,0x2
   15af4:	9ac080e7          	jalr	-1620(ra) # 1749c <_ZN9allow_pin12full_dynamic17unshare_if_shared17ha9c848d8c301b74dE>
   15af8:	c019                	beqz	s0,15afe <_start+0x4980>
   15afa:	07d0106f          	j	17376 <_start+0x61f8>
   15afe:	00002297          	auipc	t0,0x2
   15b02:	b8a282e7          	jalr	t0,-1142(t0) # 17688 <OUTLINED_FUNCTION_9>
   15b06:	03a00613          	li	a2,58
   15b0a:	00002097          	auipc	ra,0x2
   15b0e:	dc0080e7          	jalr	-576(ra) # 178ca <memcpy>
   15b12:	59310513          	addi	a0,sp,1427
   15b16:	51c10593          	addi	a1,sp,1308
   15b1a:	03a00613          	li	a2,58
   15b1e:	00002097          	auipc	ra,0x2
   15b22:	dac080e7          	jalr	-596(ra) # 178ca <memcpy>
   15b26:	00002297          	auipc	t0,0x2
   15b2a:	a66282e7          	jalr	t0,-1434(t0) # 1758c <OUTLINED_FUNCTION_4>
   15b2e:	4661                	li	a2,24
   15b30:	854a                	mv	a0,s2
   15b32:	4581                	li	a1,0
   15b34:	00002097          	auipc	ra,0x2
   15b38:	d2a080e7          	jalr	-726(ra) # 1785e <memset>
   15b3c:	00002297          	auipc	t0,0x2
   15b40:	cbc282e7          	jalr	t0,-836(t0) # 177f8 <OUTLINED_FUNCTION_22>
   15b44:	04100593          	li	a1,65
   15b48:	4611                	li	a2,4
   15b4a:	15668493          	addi	s1,a3,342
   15b4e:	4705                	li	a4,1
   15b50:	4405                	li	s0,1
   15b52:	86a6                	mv	a3,s1
   15b54:	ffffb097          	auipc	ra,0xffffb
   15b58:	5e0080e7          	jalr	1504(ra) # 11134 <_ZN9allow_pin12full_dynamic15Buffer$LT$B$GT$5allow17hb1627d2b206e9fb0E>
   15b5c:	8905                	andi	a0,a0,1
   15b5e:	e905                	bnez	a0,15b8e <_start+0x4a10>
   15b60:	51c10513          	addi	a0,sp,1308
   15b64:	45e1                	li	a1,24
   15b66:	460d                	li	a2,3
   15b68:	4725                	li	a4,9
   15b6a:	86a6                	mv	a3,s1
   15b6c:	ffffb097          	auipc	ra,0xffffb
   15b70:	5c8080e7          	jalr	1480(ra) # 11134 <_ZN9allow_pin12full_dynamic15Buffer$LT$B$GT$5allow17hb1627d2b206e9fb0E>
   15b74:	8905                	andi	a0,a0,1
   15b76:	ed01                	bnez	a0,15b8e <_start+0x4a10>
   15b78:	6509                	lui	a0,0x2
   15b7a:	4585                	li	a1,1
   15b7c:	15650513          	addi	a0,a0,342 # 2156 <.Lline_table_start1+0x1f2b>
   15b80:	4625                	li	a2,9
   15b82:	ffffb097          	auipc	ra,0xffffb
   15b86:	5ee080e7          	jalr	1518(ra) # 11170 <_ZN9allow_pin7command17hdfcb5c5f4a3821c8E>
   15b8a:	8905                	andi	a0,a0,1
   15b8c:	c119                	beqz	a0,15b92 <_start+0x4a14>
   15b8e:	84ae                	mv	s1,a1
   15b90:	a82d                	j	15bca <_start+0x4a4c>
   15b92:	58010513          	addi	a0,sp,1408
   15b96:	00002097          	auipc	ra,0x2
   15b9a:	906080e7          	jalr	-1786(ra) # 1749c <_ZN9allow_pin12full_dynamic17unshare_if_shared17ha9c848d8c301b74dE>
   15b9e:	51c10513          	addi	a0,sp,1308
   15ba2:	00002097          	auipc	ra,0x2
   15ba6:	8fa080e7          	jalr	-1798(ra) # 1749c <_ZN9allow_pin12full_dynamic17unshare_if_shared17ha9c848d8c301b74dE>
   15baa:	51c10513          	addi	a0,sp,1308
   15bae:	00002097          	auipc	ra,0x2
   15bb2:	8ee080e7          	jalr	-1810(ra) # 1749c <_ZN9allow_pin12full_dynamic17unshare_if_shared17ha9c848d8c301b74dE>
   15bb6:	00002297          	auipc	t0,0x2
   15bba:	940282e7          	jalr	t0,-1728(t0) # 174f6 <OUTLINED_FUNCTION_1>
   15bbe:	4645                	li	a2,17
   15bc0:	00002097          	auipc	ra,0x2
   15bc4:	d0a080e7          	jalr	-758(ra) # 178ca <memcpy>
   15bc8:	4401                	li	s0,0
   15bca:	51c10513          	addi	a0,sp,1308
   15bce:	00002097          	auipc	ra,0x2
   15bd2:	8ce080e7          	jalr	-1842(ra) # 1749c <_ZN9allow_pin12full_dynamic17unshare_if_shared17ha9c848d8c301b74dE>
   15bd6:	58010513          	addi	a0,sp,1408
   15bda:	00002097          	auipc	ra,0x2
   15bde:	8c2080e7          	jalr	-1854(ra) # 1749c <_ZN9allow_pin12full_dynamic17unshare_if_shared17ha9c848d8c301b74dE>
   15be2:	c019                	beqz	s0,15be8 <_start+0x4a6a>
   15be4:	7920106f          	j	17376 <_start+0x61f8>
   15be8:	00002297          	auipc	t0,0x2
   15bec:	ace282e7          	jalr	t0,-1330(t0) # 176b6 <OUTLINED_FUNCTION_11>
   15bf0:	4645                	li	a2,17
   15bf2:	00002097          	auipc	ra,0x2
   15bf6:	cd8080e7          	jalr	-808(ra) # 178ca <memcpy>
   15bfa:	52f10513          	addi	a0,sp,1327
   15bfe:	048c                	addi	a1,sp,576
   15c00:	4645                	li	a2,17
   15c02:	00002097          	auipc	ra,0x2
   15c06:	cc8080e7          	jalr	-824(ra) # 178ca <memcpy>
   15c0a:	00002297          	auipc	t0,0x2
   15c0e:	9a6282e7          	jalr	t0,-1626(t0) # 175b0 <OUTLINED_FUNCTION_5>
   15c12:	4679                	li	a2,30
   15c14:	854e                	mv	a0,s3
   15c16:	4581                	li	a1,0
   15c18:	00002097          	auipc	ra,0x2
   15c1c:	c46080e7          	jalr	-954(ra) # 1785e <memset>
   15c20:	58810423          	sb	s0,1416(sp)
   15c24:	6685                	lui	a3,0x1
   15c26:	51c10513          	addi	a0,sp,1308
   15c2a:	45e1                	li	a1,24
   15c2c:	4611                	li	a2,4
   15c2e:	cbb68413          	addi	s0,a3,-837 # cbb <.Lline_table_start1+0xa90>
   15c32:	4725                	li	a4,9
   15c34:	86a2                	mv	a3,s0
   15c36:	ffffb097          	auipc	ra,0xffffb
   15c3a:	4fe080e7          	jalr	1278(ra) # 11134 <_ZN9allow_pin12full_dynamic15Buffer$LT$B$GT$5allow17hb1627d2b206e9fb0E>
   15c3e:	8905                	andi	a0,a0,1
   15c40:	e905                	bnez	a0,15c70 <_start+0x4af2>
   15c42:	58010513          	addi	a0,sp,1408
   15c46:	45f9                	li	a1,30
   15c48:	460d                	li	a2,3
   15c4a:	4715                	li	a4,5
   15c4c:	86a2                	mv	a3,s0
   15c4e:	ffffb097          	auipc	ra,0xffffb
   15c52:	4e6080e7          	jalr	1254(ra) # 11134 <_ZN9allow_pin12full_dynamic15Buffer$LT$B$GT$5allow17hb1627d2b206e9fb0E>
   15c56:	8905                	andi	a0,a0,1
   15c58:	ed01                	bnez	a0,15c70 <_start+0x4af2>
   15c5a:	6505                	lui	a0,0x1
   15c5c:	45a5                	li	a1,9
   15c5e:	cbb50513          	addi	a0,a0,-837 # cbb <.Lline_table_start1+0xa90>
   15c62:	4615                	li	a2,5
   15c64:	ffffb097          	auipc	ra,0xffffb
   15c68:	50c080e7          	jalr	1292(ra) # 11170 <_ZN9allow_pin7command17hdfcb5c5f4a3821c8E>
   15c6c:	8905                	andi	a0,a0,1
   15c6e:	c501                	beqz	a0,15c76 <_start+0x4af8>
   15c70:	84ae                	mv	s1,a1
   15c72:	4405                	li	s0,1
   15c74:	a089                	j	15cb6 <_start+0x4b38>
   15c76:	51c10513          	addi	a0,sp,1308
   15c7a:	00002097          	auipc	ra,0x2
   15c7e:	822080e7          	jalr	-2014(ra) # 1749c <_ZN9allow_pin12full_dynamic17unshare_if_shared17ha9c848d8c301b74dE>
   15c82:	58010513          	addi	a0,sp,1408
   15c86:	00002097          	auipc	ra,0x2
   15c8a:	816080e7          	jalr	-2026(ra) # 1749c <_ZN9allow_pin12full_dynamic17unshare_if_shared17ha9c848d8c301b74dE>
   15c8e:	58010513          	addi	a0,sp,1408
   15c92:	00002097          	auipc	ra,0x2
   15c96:	80a080e7          	jalr	-2038(ra) # 1749c <_ZN9allow_pin12full_dynamic17unshare_if_shared17ha9c848d8c301b74dE>
   15c9a:	00002297          	auipc	t0,0x2
   15c9e:	89a282e7          	jalr	t0,-1894(t0) # 17534 <OUTLINED_FUNCTION_2>
   15ca2:	00002297          	auipc	t0,0x2
   15ca6:	b20282e7          	jalr	t0,-1248(t0) # 177c2 <OUTLINED_FUNCTION_19>
   15caa:	465d                	li	a2,23
   15cac:	00002097          	auipc	ra,0x2
   15cb0:	c1e080e7          	jalr	-994(ra) # 178ca <memcpy>
   15cb4:	4401                	li	s0,0
   15cb6:	58010513          	addi	a0,sp,1408
   15cba:	00001097          	auipc	ra,0x1
   15cbe:	7e2080e7          	jalr	2018(ra) # 1749c <_ZN9allow_pin12full_dynamic17unshare_if_shared17ha9c848d8c301b74dE>
   15cc2:	51c10513          	addi	a0,sp,1308
   15cc6:	00001097          	auipc	ra,0x1
   15cca:	7d6080e7          	jalr	2006(ra) # 1749c <_ZN9allow_pin12full_dynamic17unshare_if_shared17ha9c848d8c301b74dE>
   15cce:	c019                	beqz	s0,15cd4 <_start+0x4b56>
   15cd0:	6a60106f          	j	17376 <_start+0x61f8>
   15cd4:	00002297          	auipc	t0,0x2
   15cd8:	9f8282e7          	jalr	t0,-1544(t0) # 176cc <OUTLINED_FUNCTION_12>
   15cdc:	465d                	li	a2,23
   15cde:	00002097          	auipc	ra,0x2
   15ce2:	bec080e7          	jalr	-1044(ra) # 178ca <memcpy>
   15ce6:	2af10513          	addi	a0,sp,687
   15cea:	048c                	addi	a1,sp,576
   15cec:	465d                	li	a2,23
   15cee:	00002097          	auipc	ra,0x2
   15cf2:	bdc080e7          	jalr	-1060(ra) # 178ca <memcpy>
   15cf6:	00002297          	auipc	t0,0x2
   15cfa:	8de282e7          	jalr	t0,-1826(t0) # 175d4 <OUTLINED_FUNCTION_6>
   15cfe:	03c00613          	li	a2,60
   15d02:	854e                	mv	a0,s3
   15d04:	4581                	li	a1,0
   15d06:	00002097          	auipc	ra,0x2
   15d0a:	b58080e7          	jalr	-1192(ra) # 1785e <memset>
   15d0e:	58810423          	sb	s0,1416(sp)
   15d12:	6685                	lui	a3,0x1
   15d14:	0d68                	addi	a0,sp,668
   15d16:	45f9                	li	a1,30
   15d18:	4611                	li	a2,4
   15d1a:	b3c68413          	addi	s0,a3,-1220 # b3c <.Lline_table_start1+0x911>
   15d1e:	4709                	li	a4,2
   15d20:	86a2                	mv	a3,s0
   15d22:	ffffb097          	auipc	ra,0xffffb
   15d26:	412080e7          	jalr	1042(ra) # 11134 <_ZN9allow_pin12full_dynamic15Buffer$LT$B$GT$5allow17hb1627d2b206e9fb0E>
   15d2a:	8905                	andi	a0,a0,1
   15d2c:	e90d                	bnez	a0,15d5e <_start+0x4be0>
   15d2e:	58010513          	addi	a0,sp,1408
   15d32:	03c00593          	li	a1,60
   15d36:	460d                	li	a2,3
   15d38:	470d                	li	a4,3
   15d3a:	86a2                	mv	a3,s0
   15d3c:	ffffb097          	auipc	ra,0xffffb
   15d40:	3f8080e7          	jalr	1016(ra) # 11134 <_ZN9allow_pin12full_dynamic15Buffer$LT$B$GT$5allow17hb1627d2b206e9fb0E>
   15d44:	8905                	andi	a0,a0,1
   15d46:	ed01                	bnez	a0,15d5e <_start+0x4be0>
   15d48:	6505                	lui	a0,0x1
   15d4a:	4589                	li	a1,2
   15d4c:	b3c50513          	addi	a0,a0,-1220 # b3c <.Lline_table_start1+0x911>
   15d50:	460d                	li	a2,3
   15d52:	ffffb097          	auipc	ra,0xffffb
   15d56:	41e080e7          	jalr	1054(ra) # 11170 <_ZN9allow_pin7command17hdfcb5c5f4a3821c8E>
   15d5a:	8905                	andi	a0,a0,1
   15d5c:	c501                	beqz	a0,15d64 <_start+0x4be6>
   15d5e:	84ae                	mv	s1,a1
   15d60:	4405                	li	s0,1
   15d62:	a835                	j	15d9e <_start+0x4c20>
   15d64:	0d68                	addi	a0,sp,668
   15d66:	00001097          	auipc	ra,0x1
   15d6a:	736080e7          	jalr	1846(ra) # 1749c <_ZN9allow_pin12full_dynamic17unshare_if_shared17ha9c848d8c301b74dE>
   15d6e:	58010513          	addi	a0,sp,1408
   15d72:	00001097          	auipc	ra,0x1
   15d76:	72a080e7          	jalr	1834(ra) # 1749c <_ZN9allow_pin12full_dynamic17unshare_if_shared17ha9c848d8c301b74dE>
   15d7a:	58010513          	addi	a0,sp,1408
   15d7e:	00001097          	auipc	ra,0x1
   15d82:	71e080e7          	jalr	1822(ra) # 1749c <_ZN9allow_pin12full_dynamic17unshare_if_shared17ha9c848d8c301b74dE>
   15d86:	00001297          	auipc	t0,0x1
   15d8a:	734282e7          	jalr	t0,1844(t0) # 174ba <OUTLINED_FUNCTION_0>
   15d8e:	0488                	addi	a0,sp,576
   15d90:	03500613          	li	a2,53
   15d94:	00002097          	auipc	ra,0x2
   15d98:	b36080e7          	jalr	-1226(ra) # 178ca <memcpy>
   15d9c:	4401                	li	s0,0
   15d9e:	58010513          	addi	a0,sp,1408
   15da2:	00001097          	auipc	ra,0x1
   15da6:	6fa080e7          	jalr	1786(ra) # 1749c <_ZN9allow_pin12full_dynamic17unshare_if_shared17ha9c848d8c301b74dE>
   15daa:	0d68                	addi	a0,sp,668
   15dac:	00001097          	auipc	ra,0x1
   15db0:	6f0080e7          	jalr	1776(ra) # 1749c <_ZN9allow_pin12full_dynamic17unshare_if_shared17ha9c848d8c301b74dE>
   15db4:	c019                	beqz	s0,15dba <_start+0x4c3c>
   15db6:	5c00106f          	j	17376 <_start+0x61f8>
   15dba:	00002297          	auipc	t0,0x2
   15dbe:	8ce282e7          	jalr	t0,-1842(t0) # 17688 <OUTLINED_FUNCTION_9>
   15dc2:	03500613          	li	a2,53
   15dc6:	00002097          	auipc	ra,0x2
   15dca:	b04080e7          	jalr	-1276(ra) # 178ca <memcpy>
   15dce:	59310513          	addi	a0,sp,1427
   15dd2:	51c10593          	addi	a1,sp,1308
   15dd6:	03500613          	li	a2,53
   15dda:	00002097          	auipc	ra,0x2
   15dde:	af0080e7          	jalr	-1296(ra) # 178ca <memcpy>
   15de2:	00001297          	auipc	t0,0x1
   15de6:	7aa282e7          	jalr	t0,1962(t0) # 1758c <OUTLINED_FUNCTION_4>
   15dea:	02c00613          	li	a2,44
   15dee:	854a                	mv	a0,s2
   15df0:	4581                	li	a1,0
   15df2:	00002097          	auipc	ra,0x2
   15df6:	a6c080e7          	jalr	-1428(ra) # 1785e <memset>
   15dfa:	00002297          	auipc	t0,0x2
   15dfe:	9fe282e7          	jalr	t0,-1538(t0) # 177f8 <OUTLINED_FUNCTION_22>
   15e02:	03c00593          	li	a1,60
   15e06:	4611                	li	a2,4
   15e08:	eac68413          	addi	s0,a3,-340
   15e0c:	4715                	li	a4,5
   15e0e:	86a2                	mv	a3,s0
   15e10:	ffffb097          	auipc	ra,0xffffb
   15e14:	324080e7          	jalr	804(ra) # 11134 <_ZN9allow_pin12full_dynamic15Buffer$LT$B$GT$5allow17hb1627d2b206e9fb0E>
   15e18:	8905                	andi	a0,a0,1
   15e1a:	e90d                	bnez	a0,15e4c <_start+0x4cce>
   15e1c:	51c10513          	addi	a0,sp,1308
   15e20:	02c00593          	li	a1,44
   15e24:	460d                	li	a2,3
   15e26:	471d                	li	a4,7
   15e28:	86a2                	mv	a3,s0
   15e2a:	ffffb097          	auipc	ra,0xffffb
   15e2e:	30a080e7          	jalr	778(ra) # 11134 <_ZN9allow_pin12full_dynamic15Buffer$LT$B$GT$5allow17hb1627d2b206e9fb0E>
   15e32:	8905                	andi	a0,a0,1
   15e34:	ed01                	bnez	a0,15e4c <_start+0x4cce>
   15e36:	6509                	lui	a0,0x2
   15e38:	4595                	li	a1,5
   15e3a:	eac50513          	addi	a0,a0,-340 # 1eac <.Lline_table_start1+0x1c81>
   15e3e:	461d                	li	a2,7
   15e40:	ffffb097          	auipc	ra,0xffffb
   15e44:	330080e7          	jalr	816(ra) # 11170 <_ZN9allow_pin7command17hdfcb5c5f4a3821c8E>
   15e48:	8905                	andi	a0,a0,1
   15e4a:	c501                	beqz	a0,15e52 <_start+0x4cd4>
   15e4c:	84ae                	mv	s1,a1
   15e4e:	4405                	li	s0,1
   15e50:	a835                	j	15e8c <_start+0x4d0e>
   15e52:	58010513          	addi	a0,sp,1408
   15e56:	00001097          	auipc	ra,0x1
   15e5a:	646080e7          	jalr	1606(ra) # 1749c <_ZN9allow_pin12full_dynamic17unshare_if_shared17ha9c848d8c301b74dE>
   15e5e:	51c10513          	addi	a0,sp,1308
   15e62:	00001097          	auipc	ra,0x1
   15e66:	63a080e7          	jalr	1594(ra) # 1749c <_ZN9allow_pin12full_dynamic17unshare_if_shared17ha9c848d8c301b74dE>
   15e6a:	51c10513          	addi	a0,sp,1308
   15e6e:	00001097          	auipc	ra,0x1
   15e72:	62e080e7          	jalr	1582(ra) # 1749c <_ZN9allow_pin12full_dynamic17unshare_if_shared17ha9c848d8c301b74dE>
   15e76:	00001297          	auipc	t0,0x1
   15e7a:	680282e7          	jalr	t0,1664(t0) # 174f6 <OUTLINED_FUNCTION_1>
   15e7e:	02500613          	li	a2,37
   15e82:	00002097          	auipc	ra,0x2
   15e86:	a48080e7          	jalr	-1464(ra) # 178ca <memcpy>
   15e8a:	4401                	li	s0,0
   15e8c:	51c10513          	addi	a0,sp,1308
   15e90:	00001097          	auipc	ra,0x1
   15e94:	60c080e7          	jalr	1548(ra) # 1749c <_ZN9allow_pin12full_dynamic17unshare_if_shared17ha9c848d8c301b74dE>
   15e98:	58010513          	addi	a0,sp,1408
   15e9c:	00001097          	auipc	ra,0x1
   15ea0:	600080e7          	jalr	1536(ra) # 1749c <_ZN9allow_pin12full_dynamic17unshare_if_shared17ha9c848d8c301b74dE>
   15ea4:	c019                	beqz	s0,15eaa <_start+0x4d2c>
   15ea6:	4d00106f          	j	17376 <_start+0x61f8>
   15eaa:	00001297          	auipc	t0,0x1
   15eae:	7f6282e7          	jalr	t0,2038(t0) # 176a0 <OUTLINED_FUNCTION_10>
   15eb2:	02500613          	li	a2,37
   15eb6:	00002097          	auipc	ra,0x2
   15eba:	a14080e7          	jalr	-1516(ra) # 178ca <memcpy>
   15ebe:	59310513          	addi	a0,sp,1427
   15ec2:	048c                	addi	a1,sp,576
   15ec4:	02500613          	li	a2,37
   15ec8:	00002097          	auipc	ra,0x2
   15ecc:	a02080e7          	jalr	-1534(ra) # 178ca <memcpy>
   15ed0:	00001297          	auipc	t0,0x1
   15ed4:	6bc282e7          	jalr	t0,1724(t0) # 1758c <OUTLINED_FUNCTION_4>
   15ed8:	02700613          	li	a2,39
   15edc:	854a                	mv	a0,s2
   15ede:	4581                	li	a1,0
   15ee0:	00002097          	auipc	ra,0x2
   15ee4:	97e080e7          	jalr	-1666(ra) # 1785e <memset>
   15ee8:	00002297          	auipc	t0,0x2
   15eec:	904282e7          	jalr	t0,-1788(t0) # 177ec <OUTLINED_FUNCTION_21>
   15ef0:	02c00593          	li	a1,44
   15ef4:	4611                	li	a2,4
   15ef6:	1b568413          	addi	s0,a3,437
   15efa:	4711                	li	a4,4
   15efc:	86a2                	mv	a3,s0
   15efe:	ffffb097          	auipc	ra,0xffffb
   15f02:	236080e7          	jalr	566(ra) # 11134 <_ZN9allow_pin12full_dynamic15Buffer$LT$B$GT$5allow17hb1627d2b206e9fb0E>
   15f06:	8905                	andi	a0,a0,1
   15f08:	e90d                	bnez	a0,15f3a <_start+0x4dbc>
   15f0a:	51c10513          	addi	a0,sp,1308
   15f0e:	02700593          	li	a1,39
   15f12:	460d                	li	a2,3
   15f14:	470d                	li	a4,3
   15f16:	86a2                	mv	a3,s0
   15f18:	ffffb097          	auipc	ra,0xffffb
   15f1c:	21c080e7          	jalr	540(ra) # 11134 <_ZN9allow_pin12full_dynamic15Buffer$LT$B$GT$5allow17hb1627d2b206e9fb0E>
   15f20:	8905                	andi	a0,a0,1
   15f22:	ed01                	bnez	a0,15f3a <_start+0x4dbc>
   15f24:	6505                	lui	a0,0x1
   15f26:	4591                	li	a1,4
   15f28:	1b550513          	addi	a0,a0,437 # 11b5 <.Lline_table_start1+0xf8a>
   15f2c:	460d                	li	a2,3
   15f2e:	ffffb097          	auipc	ra,0xffffb
   15f32:	242080e7          	jalr	578(ra) # 11170 <_ZN9allow_pin7command17hdfcb5c5f4a3821c8E>
   15f36:	8905                	andi	a0,a0,1
   15f38:	c501                	beqz	a0,15f40 <_start+0x4dc2>
   15f3a:	84ae                	mv	s1,a1
   15f3c:	4405                	li	s0,1
   15f3e:	a835                	j	15f7a <_start+0x4dfc>
   15f40:	58010513          	addi	a0,sp,1408
   15f44:	00001097          	auipc	ra,0x1
   15f48:	558080e7          	jalr	1368(ra) # 1749c <_ZN9allow_pin12full_dynamic17unshare_if_shared17ha9c848d8c301b74dE>
   15f4c:	51c10513          	addi	a0,sp,1308
   15f50:	00001097          	auipc	ra,0x1
   15f54:	54c080e7          	jalr	1356(ra) # 1749c <_ZN9allow_pin12full_dynamic17unshare_if_shared17ha9c848d8c301b74dE>
   15f58:	51c10513          	addi	a0,sp,1308
   15f5c:	00001097          	auipc	ra,0x1
   15f60:	540080e7          	jalr	1344(ra) # 1749c <_ZN9allow_pin12full_dynamic17unshare_if_shared17ha9c848d8c301b74dE>
   15f64:	00001297          	auipc	t0,0x1
   15f68:	592282e7          	jalr	t0,1426(t0) # 174f6 <OUTLINED_FUNCTION_1>
   15f6c:	02000613          	li	a2,32
   15f70:	00002097          	auipc	ra,0x2
   15f74:	95a080e7          	jalr	-1702(ra) # 178ca <memcpy>
   15f78:	4401                	li	s0,0
   15f7a:	51c10513          	addi	a0,sp,1308
   15f7e:	00001097          	auipc	ra,0x1
   15f82:	51e080e7          	jalr	1310(ra) # 1749c <_ZN9allow_pin12full_dynamic17unshare_if_shared17ha9c848d8c301b74dE>
   15f86:	58010513          	addi	a0,sp,1408
   15f8a:	00001097          	auipc	ra,0x1
   15f8e:	512080e7          	jalr	1298(ra) # 1749c <_ZN9allow_pin12full_dynamic17unshare_if_shared17ha9c848d8c301b74dE>
   15f92:	c019                	beqz	s0,15f98 <_start+0x4e1a>
   15f94:	3e20106f          	j	17376 <_start+0x61f8>
   15f98:	34411503          	lh	a0,836(sp)
   15f9c:	34614583          	lbu	a1,838(sp)
   15fa0:	24a11623          	sh	a0,588(sp)
   15fa4:	24b10723          	sb	a1,590(sp)
   15fa8:	0768                	addi	a0,sp,908
   15faa:	0d6c                	addi	a1,sp,668
   15fac:	02000613          	li	a2,32
   15fb0:	00002097          	auipc	ra,0x2
   15fb4:	91a080e7          	jalr	-1766(ra) # 178ca <memcpy>
   15fb8:	00001297          	auipc	t0,0x1
   15fbc:	640282e7          	jalr	t0,1600(t0) # 175f8 <OUTLINED_FUNCTION_7>
   15fc0:	25310513          	addi	a0,sp,595
   15fc4:	076c                	addi	a1,sp,908
   15fc6:	02000613          	li	a2,32
   15fca:	00002097          	auipc	ra,0x2
   15fce:	900080e7          	jalr	-1792(ra) # 178ca <memcpy>
   15fd2:	04f00613          	li	a2,79
   15fd6:	854e                	mv	a0,s3
   15fd8:	4581                	li	a1,0
   15fda:	00002097          	auipc	ra,0x2
   15fde:	884080e7          	jalr	-1916(ra) # 1785e <memset>
   15fe2:	58810423          	sb	s0,1416(sp)
   15fe6:	6685                	lui	a3,0x1
   15fe8:	0488                	addi	a0,sp,576
   15fea:	02700593          	li	a1,39
   15fee:	4611                	li	a2,4
   15ff0:	b4c68413          	addi	s0,a3,-1204 # b4c <.Lline_table_start1+0x921>
   15ff4:	4725                	li	a4,9
   15ff6:	86a2                	mv	a3,s0
   15ff8:	ffffb097          	auipc	ra,0xffffb
   15ffc:	13c080e7          	jalr	316(ra) # 11134 <_ZN9allow_pin12full_dynamic15Buffer$LT$B$GT$5allow17hb1627d2b206e9fb0E>
   16000:	8905                	andi	a0,a0,1
   16002:	e90d                	bnez	a0,16034 <_start+0x4eb6>
   16004:	58010513          	addi	a0,sp,1408
   16008:	04f00593          	li	a1,79
   1600c:	460d                	li	a2,3
   1600e:	86a2                	mv	a3,s0
   16010:	4701                	li	a4,0
   16012:	ffffb097          	auipc	ra,0xffffb
   16016:	122080e7          	jalr	290(ra) # 11134 <_ZN9allow_pin12full_dynamic15Buffer$LT$B$GT$5allow17hb1627d2b206e9fb0E>
   1601a:	8905                	andi	a0,a0,1
   1601c:	ed01                	bnez	a0,16034 <_start+0x4eb6>
   1601e:	6505                	lui	a0,0x1
   16020:	b4c50513          	addi	a0,a0,-1204 # b4c <.Lline_table_start1+0x921>
   16024:	45a5                	li	a1,9
   16026:	4601                	li	a2,0
   16028:	ffffb097          	auipc	ra,0xffffb
   1602c:	148080e7          	jalr	328(ra) # 11170 <_ZN9allow_pin7command17hdfcb5c5f4a3821c8E>
   16030:	8905                	andi	a0,a0,1
   16032:	c501                	beqz	a0,1603a <_start+0x4ebc>
   16034:	84ae                	mv	s1,a1
   16036:	4405                	li	s0,1
   16038:	a089                	j	1607a <_start+0x4efc>
   1603a:	0488                	addi	a0,sp,576
   1603c:	00001097          	auipc	ra,0x1
   16040:	460080e7          	jalr	1120(ra) # 1749c <_ZN9allow_pin12full_dynamic17unshare_if_shared17ha9c848d8c301b74dE>
   16044:	58010513          	addi	a0,sp,1408
   16048:	00001097          	auipc	ra,0x1
   1604c:	454080e7          	jalr	1108(ra) # 1749c <_ZN9allow_pin12full_dynamic17unshare_if_shared17ha9c848d8c301b74dE>
   16050:	58010513          	addi	a0,sp,1408
   16054:	00001097          	auipc	ra,0x1
   16058:	448080e7          	jalr	1096(ra) # 1749c <_ZN9allow_pin12full_dynamic17unshare_if_shared17ha9c848d8c301b74dE>
   1605c:	00001297          	auipc	t0,0x1
   16060:	4d8282e7          	jalr	t0,1240(t0) # 17534 <OUTLINED_FUNCTION_2>
   16064:	00001297          	auipc	t0,0x1
   16068:	67e282e7          	jalr	t0,1662(t0) # 176e2 <OUTLINED_FUNCTION_13>
   1606c:	04800613          	li	a2,72
   16070:	00002097          	auipc	ra,0x2
   16074:	85a080e7          	jalr	-1958(ra) # 178ca <memcpy>
   16078:	4401                	li	s0,0
   1607a:	58010513          	addi	a0,sp,1408
   1607e:	00001097          	auipc	ra,0x1
   16082:	41e080e7          	jalr	1054(ra) # 1749c <_ZN9allow_pin12full_dynamic17unshare_if_shared17ha9c848d8c301b74dE>
   16086:	0488                	addi	a0,sp,576
   16088:	00001097          	auipc	ra,0x1
   1608c:	414080e7          	jalr	1044(ra) # 1749c <_ZN9allow_pin12full_dynamic17unshare_if_shared17ha9c848d8c301b74dE>
   16090:	c019                	beqz	s0,16096 <_start+0x4f18>
   16092:	2e40106f          	j	17376 <_start+0x61f8>
   16096:	00001297          	auipc	t0,0x1
   1609a:	676282e7          	jalr	t0,1654(t0) # 1770c <OUTLINED_FUNCTION_15>
   1609e:	1768                	addi	a0,sp,940
   160a0:	51c10593          	addi	a1,sp,1308
   160a4:	04800613          	li	a2,72
   160a8:	00002097          	auipc	ra,0x2
   160ac:	822080e7          	jalr	-2014(ra) # 178ca <memcpy>
   160b0:	00001297          	auipc	t0,0x1
   160b4:	4dc282e7          	jalr	t0,1244(t0) # 1758c <OUTLINED_FUNCTION_4>
   160b8:	59310513          	addi	a0,sp,1427
   160bc:	176c                	addi	a1,sp,940
   160be:	04800613          	li	a2,72
   160c2:	00002097          	auipc	ra,0x2
   160c6:	808080e7          	jalr	-2040(ra) # 178ca <memcpy>
   160ca:	03500613          	li	a2,53
   160ce:	854a                	mv	a0,s2
   160d0:	4581                	li	a1,0
   160d2:	00001097          	auipc	ra,0x1
   160d6:	78c080e7          	jalr	1932(ra) # 1785e <memset>
   160da:	00001297          	auipc	t0,0x1
   160de:	712282e7          	jalr	t0,1810(t0) # 177ec <OUTLINED_FUNCTION_21>
   160e2:	04f00593          	li	a1,79
   160e6:	4611                	li	a2,4
   160e8:	6d768413          	addi	s0,a3,1751
   160ec:	471d                	li	a4,7
   160ee:	86a2                	mv	a3,s0
   160f0:	ffffb097          	auipc	ra,0xffffb
   160f4:	044080e7          	jalr	68(ra) # 11134 <_ZN9allow_pin12full_dynamic15Buffer$LT$B$GT$5allow17hb1627d2b206e9fb0E>
   160f8:	8905                	andi	a0,a0,1
   160fa:	e90d                	bnez	a0,1612c <_start+0x4fae>
   160fc:	51c10513          	addi	a0,sp,1308
   16100:	03500593          	li	a1,53
   16104:	460d                	li	a2,3
   16106:	4705                	li	a4,1
   16108:	86a2                	mv	a3,s0
   1610a:	ffffb097          	auipc	ra,0xffffb
   1610e:	02a080e7          	jalr	42(ra) # 11134 <_ZN9allow_pin12full_dynamic15Buffer$LT$B$GT$5allow17hb1627d2b206e9fb0E>
   16112:	8905                	andi	a0,a0,1
   16114:	ed01                	bnez	a0,1612c <_start+0x4fae>
   16116:	6505                	lui	a0,0x1
   16118:	459d                	li	a1,7
   1611a:	6d750513          	addi	a0,a0,1751 # 16d7 <.Lline_table_start1+0x14ac>
   1611e:	4605                	li	a2,1
   16120:	ffffb097          	auipc	ra,0xffffb
   16124:	050080e7          	jalr	80(ra) # 11170 <_ZN9allow_pin7command17hdfcb5c5f4a3821c8E>
   16128:	8905                	andi	a0,a0,1
   1612a:	c501                	beqz	a0,16132 <_start+0x4fb4>
   1612c:	84ae                	mv	s1,a1
   1612e:	4405                	li	s0,1
   16130:	a835                	j	1616c <_start+0x4fee>
   16132:	58010513          	addi	a0,sp,1408
   16136:	00001097          	auipc	ra,0x1
   1613a:	366080e7          	jalr	870(ra) # 1749c <_ZN9allow_pin12full_dynamic17unshare_if_shared17ha9c848d8c301b74dE>
   1613e:	51c10513          	addi	a0,sp,1308
   16142:	00001097          	auipc	ra,0x1
   16146:	35a080e7          	jalr	858(ra) # 1749c <_ZN9allow_pin12full_dynamic17unshare_if_shared17ha9c848d8c301b74dE>
   1614a:	51c10513          	addi	a0,sp,1308
   1614e:	00001097          	auipc	ra,0x1
   16152:	34e080e7          	jalr	846(ra) # 1749c <_ZN9allow_pin12full_dynamic17unshare_if_shared17ha9c848d8c301b74dE>
   16156:	00001297          	auipc	t0,0x1
   1615a:	3a0282e7          	jalr	t0,928(t0) # 174f6 <OUTLINED_FUNCTION_1>
   1615e:	02e00613          	li	a2,46
   16162:	00001097          	auipc	ra,0x1
   16166:	768080e7          	jalr	1896(ra) # 178ca <memcpy>
   1616a:	4401                	li	s0,0
   1616c:	51c10513          	addi	a0,sp,1308
   16170:	00001097          	auipc	ra,0x1
   16174:	32c080e7          	jalr	812(ra) # 1749c <_ZN9allow_pin12full_dynamic17unshare_if_shared17ha9c848d8c301b74dE>
   16178:	58010513          	addi	a0,sp,1408
   1617c:	00001097          	auipc	ra,0x1
   16180:	320080e7          	jalr	800(ra) # 1749c <_ZN9allow_pin12full_dynamic17unshare_if_shared17ha9c848d8c301b74dE>
   16184:	c019                	beqz	s0,1618a <_start+0x500c>
   16186:	1f00106f          	j	17376 <_start+0x61f8>
   1618a:	00001297          	auipc	t0,0x1
   1618e:	52c282e7          	jalr	t0,1324(t0) # 176b6 <OUTLINED_FUNCTION_11>
   16192:	02e00613          	li	a2,46
   16196:	00001097          	auipc	ra,0x1
   1619a:	734080e7          	jalr	1844(ra) # 178ca <memcpy>
   1619e:	52f10513          	addi	a0,sp,1327
   161a2:	048c                	addi	a1,sp,576
   161a4:	02e00613          	li	a2,46
   161a8:	00001097          	auipc	ra,0x1
   161ac:	722080e7          	jalr	1826(ra) # 178ca <memcpy>
   161b0:	00001297          	auipc	t0,0x1
   161b4:	400282e7          	jalr	t0,1024(t0) # 175b0 <OUTLINED_FUNCTION_5>
   161b8:	03f00613          	li	a2,63
   161bc:	854e                	mv	a0,s3
   161be:	4581                	li	a1,0
   161c0:	00001097          	auipc	ra,0x1
   161c4:	69e080e7          	jalr	1694(ra) # 1785e <memset>
   161c8:	58810423          	sb	s0,1416(sp)
   161cc:	6605                	lui	a2,0x1
   161ce:	51c10513          	addi	a0,sp,1308
   161d2:	03500593          	li	a1,53
   161d6:	e5760413          	addi	s0,a2,-425 # e57 <.Lline_table_start1+0xc2c>
   161da:	4611                	li	a2,4
   161dc:	86a2                	mv	a3,s0
   161de:	4701                	li	a4,0
   161e0:	ffffb097          	auipc	ra,0xffffb
   161e4:	f54080e7          	jalr	-172(ra) # 11134 <_ZN9allow_pin12full_dynamic15Buffer$LT$B$GT$5allow17hb1627d2b206e9fb0E>
   161e8:	8905                	andi	a0,a0,1
   161ea:	e90d                	bnez	a0,1621c <_start+0x509e>
   161ec:	58010513          	addi	a0,sp,1408
   161f0:	03f00593          	li	a1,63
   161f4:	460d                	li	a2,3
   161f6:	470d                	li	a4,3
   161f8:	86a2                	mv	a3,s0
   161fa:	ffffb097          	auipc	ra,0xffffb
   161fe:	f3a080e7          	jalr	-198(ra) # 11134 <_ZN9allow_pin12full_dynamic15Buffer$LT$B$GT$5allow17hb1627d2b206e9fb0E>
   16202:	8905                	andi	a0,a0,1
   16204:	ed01                	bnez	a0,1621c <_start+0x509e>
   16206:	6505                	lui	a0,0x1
   16208:	e5750513          	addi	a0,a0,-425 # e57 <.Lline_table_start1+0xc2c>
   1620c:	460d                	li	a2,3
   1620e:	4581                	li	a1,0
   16210:	ffffb097          	auipc	ra,0xffffb
   16214:	f60080e7          	jalr	-160(ra) # 11170 <_ZN9allow_pin7command17hdfcb5c5f4a3821c8E>
   16218:	8905                	andi	a0,a0,1
   1621a:	c501                	beqz	a0,16222 <_start+0x50a4>
   1621c:	84ae                	mv	s1,a1
   1621e:	4405                	li	s0,1
   16220:	a0b9                	j	1626e <_start+0x50f0>
   16222:	51c10513          	addi	a0,sp,1308
   16226:	00001097          	auipc	ra,0x1
   1622a:	276080e7          	jalr	630(ra) # 1749c <_ZN9allow_pin12full_dynamic17unshare_if_shared17ha9c848d8c301b74dE>
   1622e:	58010513          	addi	a0,sp,1408
   16232:	00001097          	auipc	ra,0x1
   16236:	26a080e7          	jalr	618(ra) # 1749c <_ZN9allow_pin12full_dynamic17unshare_if_shared17ha9c848d8c301b74dE>
   1623a:	58010513          	addi	a0,sp,1408
   1623e:	00001097          	auipc	ra,0x1
   16242:	25e080e7          	jalr	606(ra) # 1749c <_ZN9allow_pin12full_dynamic17unshare_if_shared17ha9c848d8c301b74dE>
   16246:	00001297          	auipc	t0,0x1
   1624a:	2ee282e7          	jalr	t0,750(t0) # 17534 <OUTLINED_FUNCTION_2>
   1624e:	28a11e23          	sh	a0,668(sp)
   16252:	28c10f23          	sb	a2,670(sp)
   16256:	00d5e4b3          	or	s1,a1,a3
   1625a:	59310593          	addi	a1,sp,1427
   1625e:	0488                	addi	a0,sp,576
   16260:	03800613          	li	a2,56
   16264:	00001097          	auipc	ra,0x1
   16268:	666080e7          	jalr	1638(ra) # 178ca <memcpy>
   1626c:	4401                	li	s0,0
   1626e:	58010513          	addi	a0,sp,1408
   16272:	00001097          	auipc	ra,0x1
   16276:	22a080e7          	jalr	554(ra) # 1749c <_ZN9allow_pin12full_dynamic17unshare_if_shared17ha9c848d8c301b74dE>
   1627a:	51c10513          	addi	a0,sp,1308
   1627e:	00001097          	auipc	ra,0x1
   16282:	21e080e7          	jalr	542(ra) # 1749c <_ZN9allow_pin12full_dynamic17unshare_if_shared17ha9c848d8c301b74dE>
   16286:	c019                	beqz	s0,1628c <_start+0x510e>
   16288:	0ee0106f          	j	17376 <_start+0x61f8>
   1628c:	00001297          	auipc	t0,0x1
   16290:	480282e7          	jalr	t0,1152(t0) # 1770c <OUTLINED_FUNCTION_15>
   16294:	1fc8                	addi	a0,sp,1012
   16296:	048c                	addi	a1,sp,576
   16298:	03800613          	li	a2,56
   1629c:	00001097          	auipc	ra,0x1
   162a0:	62e080e7          	jalr	1582(ra) # 178ca <memcpy>
   162a4:	00001297          	auipc	t0,0x1
   162a8:	2e8282e7          	jalr	t0,744(t0) # 1758c <OUTLINED_FUNCTION_4>
   162ac:	59310513          	addi	a0,sp,1427
   162b0:	1fcc                	addi	a1,sp,1012
   162b2:	03800613          	li	a2,56
   162b6:	00001097          	auipc	ra,0x1
   162ba:	614080e7          	jalr	1556(ra) # 178ca <memcpy>
   162be:	4645                	li	a2,17
   162c0:	854a                	mv	a0,s2
   162c2:	4581                	li	a1,0
   162c4:	00001097          	auipc	ra,0x1
   162c8:	59a080e7          	jalr	1434(ra) # 1785e <memset>
   162cc:	00001297          	auipc	t0,0x1
   162d0:	520282e7          	jalr	t0,1312(t0) # 177ec <OUTLINED_FUNCTION_21>
   162d4:	03f00593          	li	a1,63
   162d8:	4611                	li	a2,4
   162da:	4d768413          	addi	s0,a3,1239
   162de:	4711                	li	a4,4
   162e0:	86a2                	mv	a3,s0
   162e2:	ffffb097          	auipc	ra,0xffffb
   162e6:	e52080e7          	jalr	-430(ra) # 11134 <_ZN9allow_pin12full_dynamic15Buffer$LT$B$GT$5allow17hb1627d2b206e9fb0E>
   162ea:	8905                	andi	a0,a0,1
   162ec:	e905                	bnez	a0,1631c <_start+0x519e>
   162ee:	51c10513          	addi	a0,sp,1308
   162f2:	45c5                	li	a1,17
   162f4:	460d                	li	a2,3
   162f6:	470d                	li	a4,3
   162f8:	86a2                	mv	a3,s0
   162fa:	ffffb097          	auipc	ra,0xffffb
   162fe:	e3a080e7          	jalr	-454(ra) # 11134 <_ZN9allow_pin12full_dynamic15Buffer$LT$B$GT$5allow17hb1627d2b206e9fb0E>
   16302:	8905                	andi	a0,a0,1
   16304:	ed01                	bnez	a0,1631c <_start+0x519e>
   16306:	6505                	lui	a0,0x1
   16308:	4591                	li	a1,4
   1630a:	4d750513          	addi	a0,a0,1239 # 14d7 <.Lline_table_start1+0x12ac>
   1630e:	460d                	li	a2,3
   16310:	ffffb097          	auipc	ra,0xffffb
   16314:	e60080e7          	jalr	-416(ra) # 11170 <_ZN9allow_pin7command17hdfcb5c5f4a3821c8E>
   16318:	8905                	andi	a0,a0,1
   1631a:	c501                	beqz	a0,16322 <_start+0x51a4>
   1631c:	84ae                	mv	s1,a1
   1631e:	4a05                	li	s4,1
   16320:	a88d                	j	16392 <_start+0x5214>
   16322:	58010513          	addi	a0,sp,1408
   16326:	00001097          	auipc	ra,0x1
   1632a:	176080e7          	jalr	374(ra) # 1749c <_ZN9allow_pin12full_dynamic17unshare_if_shared17ha9c848d8c301b74dE>
   1632e:	51c10513          	addi	a0,sp,1308
   16332:	00001097          	auipc	ra,0x1
   16336:	16a080e7          	jalr	362(ra) # 1749c <_ZN9allow_pin12full_dynamic17unshare_if_shared17ha9c848d8c301b74dE>
   1633a:	51c10513          	addi	a0,sp,1308
   1633e:	00001097          	auipc	ra,0x1
   16342:	15e080e7          	jalr	350(ra) # 1749c <_ZN9allow_pin12full_dynamic17unshare_if_shared17ha9c848d8c301b74dE>
   16346:	4a01                	li	s4,0
   16348:	00094883          	lbu	a7,0(s2)
   1634c:	00194283          	lbu	t0,1(s2)
   16350:	00294803          	lbu	a6,2(s2)
   16354:	52b14303          	lbu	t1,1323(sp)
   16358:	53814383          	lbu	t2,1336(sp)
   1635c:	53414e03          	lbu	t3,1332(sp)
   16360:	53514e83          	lbu	t4,1333(sp)
   16364:	53614f03          	lbu	t5,1334(sp)
   16368:	53714403          	lbu	s0,1335(sp)
   1636c:	52c14583          	lbu	a1,1324(sp)
   16370:	52d14603          	lbu	a2,1325(sp)
   16374:	52e14683          	lbu	a3,1326(sp)
   16378:	52f14703          	lbu	a4,1327(sp)
   1637c:	02a2                	slli	t0,t0,0x8
   1637e:	05a2                	slli	a1,a1,0x8
   16380:	0642                	slli	a2,a2,0x10
   16382:	06e2                	slli	a3,a3,0x18
   16384:	03a2                	slli	t2,t2,0x8
   16386:	0112e7b3          	or	a5,t0,a7
   1638a:	00001297          	auipc	t0,0x1
   1638e:	3a8282e7          	jalr	t0,936(t0) # 17732 <OUTLINED_FUNCTION_17>
   16392:	51c10513          	addi	a0,sp,1308
   16396:	00001097          	auipc	ra,0x1
   1639a:	106080e7          	jalr	262(ra) # 1749c <_ZN9allow_pin12full_dynamic17unshare_if_shared17ha9c848d8c301b74dE>
   1639e:	58010513          	addi	a0,sp,1408
   163a2:	00001097          	auipc	ra,0x1
   163a6:	0fa080e7          	jalr	250(ra) # 1749c <_ZN9allow_pin12full_dynamic17unshare_if_shared17ha9c848d8c301b74dE>
   163aa:	000a0463          	beqz	s4,163b2 <_start+0x5234>
   163ae:	7c90006f          	j	17376 <_start+0x61f8>
   163b2:	00001297          	auipc	t0,0x1
   163b6:	464282e7          	jalr	t0,1124(t0) # 17816 <OUTLINED_FUNCTION_24>
   163ba:	34c11703          	lh	a4,844(sp)
   163be:	24a11623          	sh	a0,588(sp)
   163c2:	24b10723          	sb	a1,590(sp)
   163c6:	28c12e23          	sw	a2,668(sp)
   163ca:	2ad12023          	sw	a3,672(sp)
   163ce:	2ae11223          	sh	a4,676(sp)
   163d2:	25310513          	addi	a0,sp,595
   163d6:	0d6c                	addi	a1,sp,668
   163d8:	4629                	li	a2,10
   163da:	00001097          	auipc	ra,0x1
   163de:	4f0080e7          	jalr	1264(ra) # 178ca <memcpy>
   163e2:	00001297          	auipc	t0,0x1
   163e6:	216282e7          	jalr	t0,534(t0) # 175f8 <OUTLINED_FUNCTION_7>
   163ea:	03f00613          	li	a2,63
   163ee:	854e                	mv	a0,s3
   163f0:	4581                	li	a1,0
   163f2:	00001097          	auipc	ra,0x1
   163f6:	46c080e7          	jalr	1132(ra) # 1785e <memset>
   163fa:	58810423          	sb	s0,1416(sp)
   163fe:	6685                	lui	a3,0x1
   16400:	0488                	addi	a0,sp,576
   16402:	45c5                	li	a1,17
   16404:	4611                	li	a2,4
   16406:	cb068413          	addi	s0,a3,-848 # cb0 <.Lline_table_start1+0xa85>
   1640a:	471d                	li	a4,7
   1640c:	86a2                	mv	a3,s0
   1640e:	ffffb097          	auipc	ra,0xffffb
   16412:	d26080e7          	jalr	-730(ra) # 11134 <_ZN9allow_pin12full_dynamic15Buffer$LT$B$GT$5allow17hb1627d2b206e9fb0E>
   16416:	8905                	andi	a0,a0,1
   16418:	e90d                	bnez	a0,1644a <_start+0x52cc>
   1641a:	58010513          	addi	a0,sp,1408
   1641e:	03f00593          	li	a1,63
   16422:	460d                	li	a2,3
   16424:	4711                	li	a4,4
   16426:	86a2                	mv	a3,s0
   16428:	ffffb097          	auipc	ra,0xffffb
   1642c:	d0c080e7          	jalr	-756(ra) # 11134 <_ZN9allow_pin12full_dynamic15Buffer$LT$B$GT$5allow17hb1627d2b206e9fb0E>
   16430:	8905                	andi	a0,a0,1
   16432:	ed01                	bnez	a0,1644a <_start+0x52cc>
   16434:	6505                	lui	a0,0x1
   16436:	459d                	li	a1,7
   16438:	cb050513          	addi	a0,a0,-848 # cb0 <.Lline_table_start1+0xa85>
   1643c:	4611                	li	a2,4
   1643e:	ffffb097          	auipc	ra,0xffffb
   16442:	d32080e7          	jalr	-718(ra) # 11170 <_ZN9allow_pin7command17hdfcb5c5f4a3821c8E>
   16446:	8905                	andi	a0,a0,1
   16448:	c501                	beqz	a0,16450 <_start+0x52d2>
   1644a:	84ae                	mv	s1,a1
   1644c:	4405                	li	s0,1
   1644e:	a089                	j	16490 <_start+0x5312>
   16450:	0488                	addi	a0,sp,576
   16452:	00001097          	auipc	ra,0x1
   16456:	04a080e7          	jalr	74(ra) # 1749c <_ZN9allow_pin12full_dynamic17unshare_if_shared17ha9c848d8c301b74dE>
   1645a:	58010513          	addi	a0,sp,1408
   1645e:	00001097          	auipc	ra,0x1
   16462:	03e080e7          	jalr	62(ra) # 1749c <_ZN9allow_pin12full_dynamic17unshare_if_shared17ha9c848d8c301b74dE>
   16466:	58010513          	addi	a0,sp,1408
   1646a:	00001097          	auipc	ra,0x1
   1646e:	032080e7          	jalr	50(ra) # 1749c <_ZN9allow_pin12full_dynamic17unshare_if_shared17ha9c848d8c301b74dE>
   16472:	00001297          	auipc	t0,0x1
   16476:	0c2282e7          	jalr	t0,194(t0) # 17534 <OUTLINED_FUNCTION_2>
   1647a:	00001297          	auipc	t0,0x1
   1647e:	268282e7          	jalr	t0,616(t0) # 176e2 <OUTLINED_FUNCTION_13>
   16482:	03800613          	li	a2,56
   16486:	00001097          	auipc	ra,0x1
   1648a:	444080e7          	jalr	1092(ra) # 178ca <memcpy>
   1648e:	4401                	li	s0,0
   16490:	58010513          	addi	a0,sp,1408
   16494:	00001097          	auipc	ra,0x1
   16498:	008080e7          	jalr	8(ra) # 1749c <_ZN9allow_pin12full_dynamic17unshare_if_shared17ha9c848d8c301b74dE>
   1649c:	0488                	addi	a0,sp,576
   1649e:	00001097          	auipc	ra,0x1
   164a2:	ffe080e7          	jalr	-2(ra) # 1749c <_ZN9allow_pin12full_dynamic17unshare_if_shared17ha9c848d8c301b74dE>
   164a6:	c019                	beqz	s0,164ac <_start+0x532e>
   164a8:	6cf0006f          	j	17376 <_start+0x61f8>
   164ac:	00001297          	auipc	t0,0x1
   164b0:	260282e7          	jalr	t0,608(t0) # 1770c <OUTLINED_FUNCTION_15>
   164b4:	42c10513          	addi	a0,sp,1068
   164b8:	51c10593          	addi	a1,sp,1308
   164bc:	03800613          	li	a2,56
   164c0:	00001097          	auipc	ra,0x1
   164c4:	40a080e7          	jalr	1034(ra) # 178ca <memcpy>
   164c8:	00001297          	auipc	t0,0x1
   164cc:	0c4282e7          	jalr	t0,196(t0) # 1758c <OUTLINED_FUNCTION_4>
   164d0:	59310513          	addi	a0,sp,1427
   164d4:	42c10593          	addi	a1,sp,1068
   164d8:	03800613          	li	a2,56
   164dc:	00001097          	auipc	ra,0x1
   164e0:	3ee080e7          	jalr	1006(ra) # 178ca <memcpy>
   164e4:	4671                	li	a2,28
   164e6:	854a                	mv	a0,s2
   164e8:	4581                	li	a1,0
   164ea:	00001097          	auipc	ra,0x1
   164ee:	374080e7          	jalr	884(ra) # 1785e <memset>
   164f2:	00001297          	auipc	t0,0x1
   164f6:	2fa282e7          	jalr	t0,762(t0) # 177ec <OUTLINED_FUNCTION_21>
   164fa:	03f00593          	li	a1,63
   164fe:	4611                	li	a2,4
   16500:	69468413          	addi	s0,a3,1684
   16504:	4715                	li	a4,5
   16506:	86a2                	mv	a3,s0
   16508:	ffffb097          	auipc	ra,0xffffb
   1650c:	c2c080e7          	jalr	-980(ra) # 11134 <_ZN9allow_pin12full_dynamic15Buffer$LT$B$GT$5allow17hb1627d2b206e9fb0E>
   16510:	8905                	andi	a0,a0,1
   16512:	e905                	bnez	a0,16542 <_start+0x53c4>
   16514:	51c10513          	addi	a0,sp,1308
   16518:	45f1                	li	a1,28
   1651a:	460d                	li	a2,3
   1651c:	4725                	li	a4,9
   1651e:	86a2                	mv	a3,s0
   16520:	ffffb097          	auipc	ra,0xffffb
   16524:	c14080e7          	jalr	-1004(ra) # 11134 <_ZN9allow_pin12full_dynamic15Buffer$LT$B$GT$5allow17hb1627d2b206e9fb0E>
   16528:	8905                	andi	a0,a0,1
   1652a:	ed01                	bnez	a0,16542 <_start+0x53c4>
   1652c:	6505                	lui	a0,0x1
   1652e:	4595                	li	a1,5
   16530:	69450513          	addi	a0,a0,1684 # 1694 <.Lline_table_start1+0x1469>
   16534:	4625                	li	a2,9
   16536:	ffffb097          	auipc	ra,0xffffb
   1653a:	c3a080e7          	jalr	-966(ra) # 11170 <_ZN9allow_pin7command17hdfcb5c5f4a3821c8E>
   1653e:	8905                	andi	a0,a0,1
   16540:	c501                	beqz	a0,16548 <_start+0x53ca>
   16542:	84ae                	mv	s1,a1
   16544:	4405                	li	s0,1
   16546:	a089                	j	16588 <_start+0x540a>
   16548:	58010513          	addi	a0,sp,1408
   1654c:	00001097          	auipc	ra,0x1
   16550:	f50080e7          	jalr	-176(ra) # 1749c <_ZN9allow_pin12full_dynamic17unshare_if_shared17ha9c848d8c301b74dE>
   16554:	51c10513          	addi	a0,sp,1308
   16558:	00001097          	auipc	ra,0x1
   1655c:	f44080e7          	jalr	-188(ra) # 1749c <_ZN9allow_pin12full_dynamic17unshare_if_shared17ha9c848d8c301b74dE>
   16560:	51c10513          	addi	a0,sp,1308
   16564:	00001097          	auipc	ra,0x1
   16568:	f38080e7          	jalr	-200(ra) # 1749c <_ZN9allow_pin12full_dynamic17unshare_if_shared17ha9c848d8c301b74dE>
   1656c:	00001297          	auipc	t0,0x1
   16570:	ff4282e7          	jalr	t0,-12(t0) # 17560 <OUTLINED_FUNCTION_3>
   16574:	00001297          	auipc	t0,0x1
   16578:	184282e7          	jalr	t0,388(t0) # 176f8 <OUTLINED_FUNCTION_14>
   1657c:	4655                	li	a2,21
   1657e:	00001097          	auipc	ra,0x1
   16582:	34c080e7          	jalr	844(ra) # 178ca <memcpy>
   16586:	4401                	li	s0,0
   16588:	51c10513          	addi	a0,sp,1308
   1658c:	00001097          	auipc	ra,0x1
   16590:	f10080e7          	jalr	-240(ra) # 1749c <_ZN9allow_pin12full_dynamic17unshare_if_shared17ha9c848d8c301b74dE>
   16594:	58010513          	addi	a0,sp,1408
   16598:	00001097          	auipc	ra,0x1
   1659c:	f04080e7          	jalr	-252(ra) # 1749c <_ZN9allow_pin12full_dynamic17unshare_if_shared17ha9c848d8c301b74dE>
   165a0:	c019                	beqz	s0,165a6 <_start+0x5428>
   165a2:	5d50006f          	j	17376 <_start+0x61f8>
   165a6:	00001297          	auipc	t0,0x1
   165aa:	126282e7          	jalr	t0,294(t0) # 176cc <OUTLINED_FUNCTION_12>
   165ae:	4655                	li	a2,21
   165b0:	00001097          	auipc	ra,0x1
   165b4:	31a080e7          	jalr	794(ra) # 178ca <memcpy>
   165b8:	2af10513          	addi	a0,sp,687
   165bc:	048c                	addi	a1,sp,576
   165be:	4655                	li	a2,21
   165c0:	00001097          	auipc	ra,0x1
   165c4:	30a080e7          	jalr	778(ra) # 178ca <memcpy>
   165c8:	00001297          	auipc	t0,0x1
   165cc:	00c282e7          	jalr	t0,12(t0) # 175d4 <OUTLINED_FUNCTION_6>
   165d0:	05d00613          	li	a2,93
   165d4:	854e                	mv	a0,s3
   165d6:	4581                	li	a1,0
   165d8:	00001097          	auipc	ra,0x1
   165dc:	286080e7          	jalr	646(ra) # 1785e <memset>
   165e0:	58810423          	sb	s0,1416(sp)
   165e4:	6685                	lui	a3,0x1
   165e6:	0d68                	addi	a0,sp,668
   165e8:	45f1                	li	a1,28
   165ea:	4611                	li	a2,4
   165ec:	c3e68413          	addi	s0,a3,-962 # c3e <.Lline_table_start1+0xa13>
   165f0:	4721                	li	a4,8
   165f2:	86a2                	mv	a3,s0
   165f4:	ffffb097          	auipc	ra,0xffffb
   165f8:	b40080e7          	jalr	-1216(ra) # 11134 <_ZN9allow_pin12full_dynamic15Buffer$LT$B$GT$5allow17hb1627d2b206e9fb0E>
   165fc:	8905                	andi	a0,a0,1
   165fe:	e90d                	bnez	a0,16630 <_start+0x54b2>
   16600:	58010513          	addi	a0,sp,1408
   16604:	05d00593          	li	a1,93
   16608:	460d                	li	a2,3
   1660a:	4715                	li	a4,5
   1660c:	86a2                	mv	a3,s0
   1660e:	ffffb097          	auipc	ra,0xffffb
   16612:	b26080e7          	jalr	-1242(ra) # 11134 <_ZN9allow_pin12full_dynamic15Buffer$LT$B$GT$5allow17hb1627d2b206e9fb0E>
   16616:	8905                	andi	a0,a0,1
   16618:	ed01                	bnez	a0,16630 <_start+0x54b2>
   1661a:	6505                	lui	a0,0x1
   1661c:	45a1                	li	a1,8
   1661e:	c3e50513          	addi	a0,a0,-962 # c3e <.Lline_table_start1+0xa13>
   16622:	4615                	li	a2,5
   16624:	ffffb097          	auipc	ra,0xffffb
   16628:	b4c080e7          	jalr	-1204(ra) # 11170 <_ZN9allow_pin7command17hdfcb5c5f4a3821c8E>
   1662c:	8905                	andi	a0,a0,1
   1662e:	c501                	beqz	a0,16636 <_start+0x54b8>
   16630:	84ae                	mv	s1,a1
   16632:	4405                	li	s0,1
   16634:	a835                	j	16670 <_start+0x54f2>
   16636:	0d68                	addi	a0,sp,668
   16638:	00001097          	auipc	ra,0x1
   1663c:	e64080e7          	jalr	-412(ra) # 1749c <_ZN9allow_pin12full_dynamic17unshare_if_shared17ha9c848d8c301b74dE>
   16640:	58010513          	addi	a0,sp,1408
   16644:	00001097          	auipc	ra,0x1
   16648:	e58080e7          	jalr	-424(ra) # 1749c <_ZN9allow_pin12full_dynamic17unshare_if_shared17ha9c848d8c301b74dE>
   1664c:	58010513          	addi	a0,sp,1408
   16650:	00001097          	auipc	ra,0x1
   16654:	e4c080e7          	jalr	-436(ra) # 1749c <_ZN9allow_pin12full_dynamic17unshare_if_shared17ha9c848d8c301b74dE>
   16658:	00001297          	auipc	t0,0x1
   1665c:	e62282e7          	jalr	t0,-414(t0) # 174ba <OUTLINED_FUNCTION_0>
   16660:	0488                	addi	a0,sp,576
   16662:	05600613          	li	a2,86
   16666:	00001097          	auipc	ra,0x1
   1666a:	264080e7          	jalr	612(ra) # 178ca <memcpy>
   1666e:	4401                	li	s0,0
   16670:	58010513          	addi	a0,sp,1408
   16674:	00001097          	auipc	ra,0x1
   16678:	e28080e7          	jalr	-472(ra) # 1749c <_ZN9allow_pin12full_dynamic17unshare_if_shared17ha9c848d8c301b74dE>
   1667c:	0d68                	addi	a0,sp,668
   1667e:	00001097          	auipc	ra,0x1
   16682:	e1e080e7          	jalr	-482(ra) # 1749c <_ZN9allow_pin12full_dynamic17unshare_if_shared17ha9c848d8c301b74dE>
   16686:	c019                	beqz	s0,1668c <_start+0x550e>
   16688:	4ef0006f          	j	17376 <_start+0x61f8>
   1668c:	00001297          	auipc	t0,0x1
   16690:	ffc282e7          	jalr	t0,-4(t0) # 17688 <OUTLINED_FUNCTION_9>
   16694:	05600613          	li	a2,86
   16698:	00001097          	auipc	ra,0x1
   1669c:	232080e7          	jalr	562(ra) # 178ca <memcpy>
   166a0:	59310513          	addi	a0,sp,1427
   166a4:	51c10593          	addi	a1,sp,1308
   166a8:	05600613          	li	a2,86
   166ac:	00001097          	auipc	ra,0x1
   166b0:	21e080e7          	jalr	542(ra) # 178ca <memcpy>
   166b4:	00001297          	auipc	t0,0x1
   166b8:	ed8282e7          	jalr	t0,-296(t0) # 1758c <OUTLINED_FUNCTION_4>
   166bc:	4649                	li	a2,18
   166be:	854a                	mv	a0,s2
   166c0:	4581                	li	a1,0
   166c2:	00001097          	auipc	ra,0x1
   166c6:	19c080e7          	jalr	412(ra) # 1785e <memset>
   166ca:	52810223          	sb	s0,1316(sp)
   166ce:	6605                	lui	a2,0x1
   166d0:	58010513          	addi	a0,sp,1408
   166d4:	05d00593          	li	a1,93
   166d8:	5f160413          	addi	s0,a2,1521 # 15f1 <.Lline_table_start1+0x13c6>
   166dc:	4611                	li	a2,4
   166de:	86a2                	mv	a3,s0
   166e0:	4701                	li	a4,0
   166e2:	ffffb097          	auipc	ra,0xffffb
   166e6:	a52080e7          	jalr	-1454(ra) # 11134 <_ZN9allow_pin12full_dynamic15Buffer$LT$B$GT$5allow17hb1627d2b206e9fb0E>
   166ea:	8905                	andi	a0,a0,1
   166ec:	e905                	bnez	a0,1671c <_start+0x559e>
   166ee:	51c10513          	addi	a0,sp,1308
   166f2:	45c9                	li	a1,18
   166f4:	460d                	li	a2,3
   166f6:	4709                	li	a4,2
   166f8:	86a2                	mv	a3,s0
   166fa:	ffffb097          	auipc	ra,0xffffb
   166fe:	a3a080e7          	jalr	-1478(ra) # 11134 <_ZN9allow_pin12full_dynamic15Buffer$LT$B$GT$5allow17hb1627d2b206e9fb0E>
   16702:	8905                	andi	a0,a0,1
   16704:	ed01                	bnez	a0,1671c <_start+0x559e>
   16706:	6505                	lui	a0,0x1
   16708:	5f150513          	addi	a0,a0,1521 # 15f1 <.Lline_table_start1+0x13c6>
   1670c:	4609                	li	a2,2
   1670e:	4581                	li	a1,0
   16710:	ffffb097          	auipc	ra,0xffffb
   16714:	a60080e7          	jalr	-1440(ra) # 11170 <_ZN9allow_pin7command17hdfcb5c5f4a3821c8E>
   16718:	8905                	andi	a0,a0,1
   1671a:	c501                	beqz	a0,16722 <_start+0x55a4>
   1671c:	84ae                	mv	s1,a1
   1671e:	4a05                	li	s4,1
   16720:	a0c1                	j	167e0 <_start+0x5662>
   16722:	58010513          	addi	a0,sp,1408
   16726:	00001097          	auipc	ra,0x1
   1672a:	d76080e7          	jalr	-650(ra) # 1749c <_ZN9allow_pin12full_dynamic17unshare_if_shared17ha9c848d8c301b74dE>
   1672e:	51c10513          	addi	a0,sp,1308
   16732:	00001097          	auipc	ra,0x1
   16736:	d6a080e7          	jalr	-662(ra) # 1749c <_ZN9allow_pin12full_dynamic17unshare_if_shared17ha9c848d8c301b74dE>
   1673a:	51c10513          	addi	a0,sp,1308
   1673e:	00001097          	auipc	ra,0x1
   16742:	d5e080e7          	jalr	-674(ra) # 1749c <_ZN9allow_pin12full_dynamic17unshare_if_shared17ha9c848d8c301b74dE>
   16746:	4a01                	li	s4,0
   16748:	00094283          	lbu	t0,0(s2)
   1674c:	00194303          	lbu	t1,1(s2)
   16750:	00294803          	lbu	a6,2(s2)
   16754:	52b14383          	lbu	t2,1323(sp)
   16758:	53814e03          	lbu	t3,1336(sp)
   1675c:	53914883          	lbu	a7,1337(sp)
   16760:	53414e83          	lbu	t4,1332(sp)
   16764:	53514f03          	lbu	t5,1333(sp)
   16768:	53614f83          	lbu	t6,1334(sp)
   1676c:	53714583          	lbu	a1,1335(sp)
   16770:	52c14603          	lbu	a2,1324(sp)
   16774:	52d14683          	lbu	a3,1325(sp)
   16778:	52e14703          	lbu	a4,1326(sp)
   1677c:	52f14783          	lbu	a5,1327(sp)
   16780:	0322                	slli	t1,t1,0x8
   16782:	0622                	slli	a2,a2,0x8
   16784:	06c2                	slli	a3,a3,0x10
   16786:	0762                	slli	a4,a4,0x18
   16788:	0e22                	slli	t3,t3,0x8
   1678a:	005364b3          	or	s1,t1,t0
   1678e:	00766633          	or	a2,a2,t2
   16792:	8ed9                	or	a3,a3,a4
   16794:	00be62b3          	or	t0,t3,a1
   16798:	53014703          	lbu	a4,1328(sp)
   1679c:	53114503          	lbu	a0,1329(sp)
   167a0:	53214403          	lbu	s0,1330(sp)
   167a4:	53314583          	lbu	a1,1331(sp)
   167a8:	0722                	slli	a4,a4,0x8
   167aa:	8f5d                	or	a4,a4,a5
   167ac:	0542                	slli	a0,a0,0x10
   167ae:	0462                	slli	s0,s0,0x18
   167b0:	8d41                	or	a0,a0,s0
   167b2:	0ea2                	slli	t4,t4,0x8
   167b4:	00bee5b3          	or	a1,t4,a1
   167b8:	0f42                	slli	t5,t5,0x10
   167ba:	0fe2                	slli	t6,t6,0x18
   167bc:	01efe7b3          	or	a5,t6,t5
   167c0:	4a911423          	sh	s1,1192(sp)
   167c4:	4b010523          	sb	a6,1194(sp)
   167c8:	00c6e4b3          	or	s1,a3,a2
   167cc:	8d59                	or	a0,a0,a4
   167ce:	8ddd                	or	a1,a1,a5
   167d0:	34a12223          	sw	a0,836(sp)
   167d4:	34b12423          	sw	a1,840(sp)
   167d8:	34511623          	sh	t0,844(sp)
   167dc:	35110723          	sb	a7,846(sp)
   167e0:	51c10513          	addi	a0,sp,1308
   167e4:	00001097          	auipc	ra,0x1
   167e8:	cb8080e7          	jalr	-840(ra) # 1749c <_ZN9allow_pin12full_dynamic17unshare_if_shared17ha9c848d8c301b74dE>
   167ec:	58010513          	addi	a0,sp,1408
   167f0:	00001097          	auipc	ra,0x1
   167f4:	cac080e7          	jalr	-852(ra) # 1749c <_ZN9allow_pin12full_dynamic17unshare_if_shared17ha9c848d8c301b74dE>
   167f8:	360a1fe3          	bnez	s4,17376 <_start+0x61f8>
   167fc:	4a811503          	lh	a0,1192(sp)
   16800:	4aa14583          	lbu	a1,1194(sp)
   16804:	2aa11423          	sh	a0,680(sp)
   16808:	2ab10523          	sb	a1,682(sp)
   1680c:	34412503          	lw	a0,836(sp)
   16810:	34812583          	lw	a1,840(sp)
   16814:	34c11603          	lh	a2,844(sp)
   16818:	34e14683          	lbu	a3,846(sp)
   1681c:	24a12023          	sw	a0,576(sp)
   16820:	24b12223          	sw	a1,580(sp)
   16824:	24c11423          	sh	a2,584(sp)
   16828:	24d10523          	sb	a3,586(sp)
   1682c:	2af10513          	addi	a0,sp,687
   16830:	048c                	addi	a1,sp,576
   16832:	462d                	li	a2,11
   16834:	00001097          	auipc	ra,0x1
   16838:	096080e7          	jalr	150(ra) # 178ca <memcpy>
   1683c:	00001297          	auipc	t0,0x1
   16840:	d98282e7          	jalr	t0,-616(t0) # 175d4 <OUTLINED_FUNCTION_6>
   16844:	04400613          	li	a2,68
   16848:	854e                	mv	a0,s3
   1684a:	4581                	li	a1,0
   1684c:	00001097          	auipc	ra,0x1
   16850:	012080e7          	jalr	18(ra) # 1785e <memset>
   16854:	58810423          	sb	s0,1416(sp)
   16858:	6689                	lui	a3,0x2
   1685a:	0d68                	addi	a0,sp,668
   1685c:	45c9                	li	a1,18
   1685e:	4611                	li	a2,4
   16860:	43268413          	addi	s0,a3,1074 # 2432 <.Lline_table_start1+0x2207>
   16864:	4709                	li	a4,2
   16866:	86a2                	mv	a3,s0
   16868:	ffffb097          	auipc	ra,0xffffb
   1686c:	8cc080e7          	jalr	-1844(ra) # 11134 <_ZN9allow_pin12full_dynamic15Buffer$LT$B$GT$5allow17hb1627d2b206e9fb0E>
   16870:	8905                	andi	a0,a0,1
   16872:	e90d                	bnez	a0,168a4 <_start+0x5726>
   16874:	58010513          	addi	a0,sp,1408
   16878:	04400593          	li	a1,68
   1687c:	460d                	li	a2,3
   1687e:	4725                	li	a4,9
   16880:	86a2                	mv	a3,s0
   16882:	ffffb097          	auipc	ra,0xffffb
   16886:	8b2080e7          	jalr	-1870(ra) # 11134 <_ZN9allow_pin12full_dynamic15Buffer$LT$B$GT$5allow17hb1627d2b206e9fb0E>
   1688a:	8905                	andi	a0,a0,1
   1688c:	ed01                	bnez	a0,168a4 <_start+0x5726>
   1688e:	6509                	lui	a0,0x2
   16890:	4589                	li	a1,2
   16892:	43250513          	addi	a0,a0,1074 # 2432 <.Lline_table_start1+0x2207>
   16896:	4625                	li	a2,9
   16898:	ffffb097          	auipc	ra,0xffffb
   1689c:	8d8080e7          	jalr	-1832(ra) # 11170 <_ZN9allow_pin7command17hdfcb5c5f4a3821c8E>
   168a0:	8905                	andi	a0,a0,1
   168a2:	c501                	beqz	a0,168aa <_start+0x572c>
   168a4:	84ae                	mv	s1,a1
   168a6:	4405                	li	s0,1
   168a8:	a835                	j	168e4 <_start+0x5766>
   168aa:	0d68                	addi	a0,sp,668
   168ac:	00001097          	auipc	ra,0x1
   168b0:	bf0080e7          	jalr	-1040(ra) # 1749c <_ZN9allow_pin12full_dynamic17unshare_if_shared17ha9c848d8c301b74dE>
   168b4:	58010513          	addi	a0,sp,1408
   168b8:	00001097          	auipc	ra,0x1
   168bc:	be4080e7          	jalr	-1052(ra) # 1749c <_ZN9allow_pin12full_dynamic17unshare_if_shared17ha9c848d8c301b74dE>
   168c0:	58010513          	addi	a0,sp,1408
   168c4:	00001097          	auipc	ra,0x1
   168c8:	bd8080e7          	jalr	-1064(ra) # 1749c <_ZN9allow_pin12full_dynamic17unshare_if_shared17ha9c848d8c301b74dE>
   168cc:	00001297          	auipc	t0,0x1
   168d0:	bee282e7          	jalr	t0,-1042(t0) # 174ba <OUTLINED_FUNCTION_0>
   168d4:	0488                	addi	a0,sp,576
   168d6:	03d00613          	li	a2,61
   168da:	00001097          	auipc	ra,0x1
   168de:	ff0080e7          	jalr	-16(ra) # 178ca <memcpy>
   168e2:	4401                	li	s0,0
   168e4:	58010513          	addi	a0,sp,1408
   168e8:	00001097          	auipc	ra,0x1
   168ec:	bb4080e7          	jalr	-1100(ra) # 1749c <_ZN9allow_pin12full_dynamic17unshare_if_shared17ha9c848d8c301b74dE>
   168f0:	0d68                	addi	a0,sp,668
   168f2:	00001097          	auipc	ra,0x1
   168f6:	baa080e7          	jalr	-1110(ra) # 1749c <_ZN9allow_pin12full_dynamic17unshare_if_shared17ha9c848d8c301b74dE>
   168fa:	26041ee3          	bnez	s0,17376 <_start+0x61f8>
   168fe:	00001297          	auipc	t0,0x1
   16902:	d8a282e7          	jalr	t0,-630(t0) # 17688 <OUTLINED_FUNCTION_9>
   16906:	03d00613          	li	a2,61
   1690a:	00001097          	auipc	ra,0x1
   1690e:	fc0080e7          	jalr	-64(ra) # 178ca <memcpy>
   16912:	59310513          	addi	a0,sp,1427
   16916:	51c10593          	addi	a1,sp,1308
   1691a:	03d00613          	li	a2,61
   1691e:	00001097          	auipc	ra,0x1
   16922:	fac080e7          	jalr	-84(ra) # 178ca <memcpy>
   16926:	00001297          	auipc	t0,0x1
   1692a:	c66282e7          	jalr	t0,-922(t0) # 1758c <OUTLINED_FUNCTION_4>
   1692e:	02300613          	li	a2,35
   16932:	854a                	mv	a0,s2
   16934:	4581                	li	a1,0
   16936:	00001097          	auipc	ra,0x1
   1693a:	f28080e7          	jalr	-216(ra) # 1785e <memset>
   1693e:	00001297          	auipc	t0,0x1
   16942:	eae282e7          	jalr	t0,-338(t0) # 177ec <OUTLINED_FUNCTION_21>
   16946:	04400593          	li	a1,68
   1694a:	4611                	li	a2,4
   1694c:	9bf68413          	addi	s0,a3,-1601
   16950:	4719                	li	a4,6
   16952:	86a2                	mv	a3,s0
   16954:	ffffa097          	auipc	ra,0xffffa
   16958:	7e0080e7          	jalr	2016(ra) # 11134 <_ZN9allow_pin12full_dynamic15Buffer$LT$B$GT$5allow17hb1627d2b206e9fb0E>
   1695c:	8905                	andi	a0,a0,1
   1695e:	e90d                	bnez	a0,16990 <_start+0x5812>
   16960:	51c10513          	addi	a0,sp,1308
   16964:	02300593          	li	a1,35
   16968:	460d                	li	a2,3
   1696a:	470d                	li	a4,3
   1696c:	86a2                	mv	a3,s0
   1696e:	ffffa097          	auipc	ra,0xffffa
   16972:	7c6080e7          	jalr	1990(ra) # 11134 <_ZN9allow_pin12full_dynamic15Buffer$LT$B$GT$5allow17hb1627d2b206e9fb0E>
   16976:	8905                	andi	a0,a0,1
   16978:	ed01                	bnez	a0,16990 <_start+0x5812>
   1697a:	6505                	lui	a0,0x1
   1697c:	4599                	li	a1,6
   1697e:	9bf50513          	addi	a0,a0,-1601 # 9bf <.Lline_table_start1+0x794>
   16982:	460d                	li	a2,3
   16984:	ffffa097          	auipc	ra,0xffffa
   16988:	7ec080e7          	jalr	2028(ra) # 11170 <_ZN9allow_pin7command17hdfcb5c5f4a3821c8E>
   1698c:	8905                	andi	a0,a0,1
   1698e:	c501                	beqz	a0,16996 <_start+0x5818>
   16990:	84ae                	mv	s1,a1
   16992:	4405                	li	s0,1
   16994:	a089                	j	169d6 <_start+0x5858>
   16996:	58010513          	addi	a0,sp,1408
   1699a:	00001097          	auipc	ra,0x1
   1699e:	b02080e7          	jalr	-1278(ra) # 1749c <_ZN9allow_pin12full_dynamic17unshare_if_shared17ha9c848d8c301b74dE>
   169a2:	51c10513          	addi	a0,sp,1308
   169a6:	00001097          	auipc	ra,0x1
   169aa:	af6080e7          	jalr	-1290(ra) # 1749c <_ZN9allow_pin12full_dynamic17unshare_if_shared17ha9c848d8c301b74dE>
   169ae:	51c10513          	addi	a0,sp,1308
   169b2:	00001097          	auipc	ra,0x1
   169b6:	aea080e7          	jalr	-1302(ra) # 1749c <_ZN9allow_pin12full_dynamic17unshare_if_shared17ha9c848d8c301b74dE>
   169ba:	00001297          	auipc	t0,0x1
   169be:	ba6282e7          	jalr	t0,-1114(t0) # 17560 <OUTLINED_FUNCTION_3>
   169c2:	00001297          	auipc	t0,0x1
   169c6:	d5c282e7          	jalr	t0,-676(t0) # 1771e <OUTLINED_FUNCTION_16>
   169ca:	4671                	li	a2,28
   169cc:	00001097          	auipc	ra,0x1
   169d0:	efe080e7          	jalr	-258(ra) # 178ca <memcpy>
   169d4:	4401                	li	s0,0
   169d6:	51c10513          	addi	a0,sp,1308
   169da:	00001097          	auipc	ra,0x1
   169de:	ac2080e7          	jalr	-1342(ra) # 1749c <_ZN9allow_pin12full_dynamic17unshare_if_shared17ha9c848d8c301b74dE>
   169e2:	58010513          	addi	a0,sp,1408
   169e6:	00001097          	auipc	ra,0x1
   169ea:	ab6080e7          	jalr	-1354(ra) # 1749c <_ZN9allow_pin12full_dynamic17unshare_if_shared17ha9c848d8c301b74dE>
   169ee:	180414e3          	bnez	s0,17376 <_start+0x61f8>
   169f2:	00001297          	auipc	t0,0x1
   169f6:	e12282e7          	jalr	t0,-494(t0) # 17804 <OUTLINED_FUNCTION_23>
   169fa:	46410513          	addi	a0,sp,1124
   169fe:	048c                	addi	a1,sp,576
   16a00:	4671                	li	a2,28
   16a02:	00001097          	auipc	ra,0x1
   16a06:	ec8080e7          	jalr	-312(ra) # 178ca <memcpy>
   16a0a:	00001297          	auipc	t0,0x1
   16a0e:	ba6282e7          	jalr	t0,-1114(t0) # 175b0 <OUTLINED_FUNCTION_5>
   16a12:	52f10513          	addi	a0,sp,1327
   16a16:	46410593          	addi	a1,sp,1124
   16a1a:	4671                	li	a2,28
   16a1c:	00001097          	auipc	ra,0x1
   16a20:	eae080e7          	jalr	-338(ra) # 178ca <memcpy>
   16a24:	02400613          	li	a2,36
   16a28:	854e                	mv	a0,s3
   16a2a:	4581                	li	a1,0
   16a2c:	00001097          	auipc	ra,0x1
   16a30:	e32080e7          	jalr	-462(ra) # 1785e <memset>
   16a34:	58810423          	sb	s0,1416(sp)
   16a38:	6689                	lui	a3,0x2
   16a3a:	51c10513          	addi	a0,sp,1308
   16a3e:	02300593          	li	a1,35
   16a42:	4611                	li	a2,4
   16a44:	bd668413          	addi	s0,a3,-1066 # 1bd6 <.Lline_table_start1+0x19ab>
   16a48:	4711                	li	a4,4
   16a4a:	86a2                	mv	a3,s0
   16a4c:	ffffa097          	auipc	ra,0xffffa
   16a50:	6e8080e7          	jalr	1768(ra) # 11134 <_ZN9allow_pin12full_dynamic15Buffer$LT$B$GT$5allow17hb1627d2b206e9fb0E>
   16a54:	8905                	andi	a0,a0,1
   16a56:	e90d                	bnez	a0,16a88 <_start+0x590a>
   16a58:	58010513          	addi	a0,sp,1408
   16a5c:	02400593          	li	a1,36
   16a60:	460d                	li	a2,3
   16a62:	4721                	li	a4,8
   16a64:	86a2                	mv	a3,s0
   16a66:	ffffa097          	auipc	ra,0xffffa
   16a6a:	6ce080e7          	jalr	1742(ra) # 11134 <_ZN9allow_pin12full_dynamic15Buffer$LT$B$GT$5allow17hb1627d2b206e9fb0E>
   16a6e:	8905                	andi	a0,a0,1
   16a70:	ed01                	bnez	a0,16a88 <_start+0x590a>
   16a72:	6509                	lui	a0,0x2
   16a74:	4591                	li	a1,4
   16a76:	bd650513          	addi	a0,a0,-1066 # 1bd6 <.Lline_table_start1+0x19ab>
   16a7a:	4621                	li	a2,8
   16a7c:	ffffa097          	auipc	ra,0xffffa
   16a80:	6f4080e7          	jalr	1780(ra) # 11170 <_ZN9allow_pin7command17hdfcb5c5f4a3821c8E>
   16a84:	8905                	andi	a0,a0,1
   16a86:	c501                	beqz	a0,16a8e <_start+0x5910>
   16a88:	84ae                	mv	s1,a1
   16a8a:	4405                	li	s0,1
   16a8c:	a835                	j	16ac8 <_start+0x594a>
   16a8e:	51c10513          	addi	a0,sp,1308
   16a92:	00001097          	auipc	ra,0x1
   16a96:	a0a080e7          	jalr	-1526(ra) # 1749c <_ZN9allow_pin12full_dynamic17unshare_if_shared17ha9c848d8c301b74dE>
   16a9a:	58010513          	addi	a0,sp,1408
   16a9e:	00001097          	auipc	ra,0x1
   16aa2:	9fe080e7          	jalr	-1538(ra) # 1749c <_ZN9allow_pin12full_dynamic17unshare_if_shared17ha9c848d8c301b74dE>
   16aa6:	58010513          	addi	a0,sp,1408
   16aaa:	00001097          	auipc	ra,0x1
   16aae:	9f2080e7          	jalr	-1550(ra) # 1749c <_ZN9allow_pin12full_dynamic17unshare_if_shared17ha9c848d8c301b74dE>
   16ab2:	00001297          	auipc	t0,0x1
   16ab6:	a08282e7          	jalr	t0,-1528(t0) # 174ba <OUTLINED_FUNCTION_0>
   16aba:	0d68                	addi	a0,sp,668
   16abc:	4675                	li	a2,29
   16abe:	00001097          	auipc	ra,0x1
   16ac2:	e0c080e7          	jalr	-500(ra) # 178ca <memcpy>
   16ac6:	4401                	li	s0,0
   16ac8:	58010513          	addi	a0,sp,1408
   16acc:	00001097          	auipc	ra,0x1
   16ad0:	9d0080e7          	jalr	-1584(ra) # 1749c <_ZN9allow_pin12full_dynamic17unshare_if_shared17ha9c848d8c301b74dE>
   16ad4:	51c10513          	addi	a0,sp,1308
   16ad8:	00001097          	auipc	ra,0x1
   16adc:	9c4080e7          	jalr	-1596(ra) # 1749c <_ZN9allow_pin12full_dynamic17unshare_if_shared17ha9c848d8c301b74dE>
   16ae0:	08041be3          	bnez	s0,17376 <_start+0x61f8>
   16ae4:	00001297          	auipc	t0,0x1
   16ae8:	bd2282e7          	jalr	t0,-1070(t0) # 176b6 <OUTLINED_FUNCTION_11>
   16aec:	4675                	li	a2,29
   16aee:	00001097          	auipc	ra,0x1
   16af2:	ddc080e7          	jalr	-548(ra) # 178ca <memcpy>
   16af6:	52f10513          	addi	a0,sp,1327
   16afa:	048c                	addi	a1,sp,576
   16afc:	4675                	li	a2,29
   16afe:	00001097          	auipc	ra,0x1
   16b02:	dcc080e7          	jalr	-564(ra) # 178ca <memcpy>
   16b06:	00001297          	auipc	t0,0x1
   16b0a:	aaa282e7          	jalr	t0,-1366(t0) # 175b0 <OUTLINED_FUNCTION_5>
   16b0e:	02f00613          	li	a2,47
   16b12:	854e                	mv	a0,s3
   16b14:	4581                	li	a1,0
   16b16:	00001097          	auipc	ra,0x1
   16b1a:	d48080e7          	jalr	-696(ra) # 1785e <memset>
   16b1e:	58810423          	sb	s0,1416(sp)
   16b22:	6685                	lui	a3,0x1
   16b24:	51c10513          	addi	a0,sp,1308
   16b28:	02400593          	li	a1,36
   16b2c:	4611                	li	a2,4
   16b2e:	27368413          	addi	s0,a3,627 # 1273 <.Lline_table_start1+0x1048>
   16b32:	4719                	li	a4,6
   16b34:	86a2                	mv	a3,s0
   16b36:	ffffa097          	auipc	ra,0xffffa
   16b3a:	5fe080e7          	jalr	1534(ra) # 11134 <_ZN9allow_pin12full_dynamic15Buffer$LT$B$GT$5allow17hb1627d2b206e9fb0E>
   16b3e:	8905                	andi	a0,a0,1
   16b40:	e90d                	bnez	a0,16b72 <_start+0x59f4>
   16b42:	58010513          	addi	a0,sp,1408
   16b46:	02f00593          	li	a1,47
   16b4a:	460d                	li	a2,3
   16b4c:	4725                	li	a4,9
   16b4e:	86a2                	mv	a3,s0
   16b50:	ffffa097          	auipc	ra,0xffffa
   16b54:	5e4080e7          	jalr	1508(ra) # 11134 <_ZN9allow_pin12full_dynamic15Buffer$LT$B$GT$5allow17hb1627d2b206e9fb0E>
   16b58:	8905                	andi	a0,a0,1
   16b5a:	ed01                	bnez	a0,16b72 <_start+0x59f4>
   16b5c:	6505                	lui	a0,0x1
   16b5e:	4599                	li	a1,6
   16b60:	27350513          	addi	a0,a0,627 # 1273 <.Lline_table_start1+0x1048>
   16b64:	4625                	li	a2,9
   16b66:	ffffa097          	auipc	ra,0xffffa
   16b6a:	60a080e7          	jalr	1546(ra) # 11170 <_ZN9allow_pin7command17hdfcb5c5f4a3821c8E>
   16b6e:	8905                	andi	a0,a0,1
   16b70:	c501                	beqz	a0,16b78 <_start+0x59fa>
   16b72:	84ae                	mv	s1,a1
   16b74:	4405                	li	s0,1
   16b76:	a83d                	j	16bb4 <_start+0x5a36>
   16b78:	51c10513          	addi	a0,sp,1308
   16b7c:	00001097          	auipc	ra,0x1
   16b80:	920080e7          	jalr	-1760(ra) # 1749c <_ZN9allow_pin12full_dynamic17unshare_if_shared17ha9c848d8c301b74dE>
   16b84:	58010513          	addi	a0,sp,1408
   16b88:	00001097          	auipc	ra,0x1
   16b8c:	914080e7          	jalr	-1772(ra) # 1749c <_ZN9allow_pin12full_dynamic17unshare_if_shared17ha9c848d8c301b74dE>
   16b90:	58010513          	addi	a0,sp,1408
   16b94:	00001097          	auipc	ra,0x1
   16b98:	908080e7          	jalr	-1784(ra) # 1749c <_ZN9allow_pin12full_dynamic17unshare_if_shared17ha9c848d8c301b74dE>
   16b9c:	00001297          	auipc	t0,0x1
   16ba0:	91e282e7          	jalr	t0,-1762(t0) # 174ba <OUTLINED_FUNCTION_0>
   16ba4:	0488                	addi	a0,sp,576
   16ba6:	02800613          	li	a2,40
   16baa:	00001097          	auipc	ra,0x1
   16bae:	d20080e7          	jalr	-736(ra) # 178ca <memcpy>
   16bb2:	4401                	li	s0,0
   16bb4:	58010513          	addi	a0,sp,1408
   16bb8:	00001097          	auipc	ra,0x1
   16bbc:	8e4080e7          	jalr	-1820(ra) # 1749c <_ZN9allow_pin12full_dynamic17unshare_if_shared17ha9c848d8c301b74dE>
   16bc0:	51c10513          	addi	a0,sp,1308
   16bc4:	00001097          	auipc	ra,0x1
   16bc8:	8d8080e7          	jalr	-1832(ra) # 1749c <_ZN9allow_pin12full_dynamic17unshare_if_shared17ha9c848d8c301b74dE>
   16bcc:	7a041563          	bnez	s0,17376 <_start+0x61f8>
   16bd0:	00001297          	auipc	t0,0x1
   16bd4:	c58282e7          	jalr	t0,-936(t0) # 17828 <OUTLINED_FUNCTION_25>
   16bd8:	48010513          	addi	a0,sp,1152
   16bdc:	048c                	addi	a1,sp,576
   16bde:	02800613          	li	a2,40
   16be2:	00001097          	auipc	ra,0x1
   16be6:	ce8080e7          	jalr	-792(ra) # 178ca <memcpy>
   16bea:	00001297          	auipc	t0,0x1
   16bee:	9ea282e7          	jalr	t0,-1558(t0) # 175d4 <OUTLINED_FUNCTION_6>
   16bf2:	2af10513          	addi	a0,sp,687
   16bf6:	48010593          	addi	a1,sp,1152
   16bfa:	02800613          	li	a2,40
   16bfe:	00001097          	auipc	ra,0x1
   16c02:	ccc080e7          	jalr	-820(ra) # 178ca <memcpy>
   16c06:	05e00613          	li	a2,94
   16c0a:	854e                	mv	a0,s3
   16c0c:	4581                	li	a1,0
   16c0e:	00001097          	auipc	ra,0x1
   16c12:	c50080e7          	jalr	-944(ra) # 1785e <memset>
   16c16:	58810423          	sb	s0,1416(sp)
   16c1a:	0d68                	addi	a0,sp,668
   16c1c:	02f00593          	li	a1,47
   16c20:	4611                	li	a2,4
   16c22:	22b00693          	li	a3,555
   16c26:	4715                	li	a4,5
   16c28:	ffffa097          	auipc	ra,0xffffa
   16c2c:	50c080e7          	jalr	1292(ra) # 11134 <_ZN9allow_pin12full_dynamic15Buffer$LT$B$GT$5allow17hb1627d2b206e9fb0E>
   16c30:	8905                	andi	a0,a0,1
   16c32:	e90d                	bnez	a0,16c64 <_start+0x5ae6>
   16c34:	58010513          	addi	a0,sp,1408
   16c38:	05e00593          	li	a1,94
   16c3c:	460d                	li	a2,3
   16c3e:	22b00693          	li	a3,555
   16c42:	4709                	li	a4,2
   16c44:	ffffa097          	auipc	ra,0xffffa
   16c48:	4f0080e7          	jalr	1264(ra) # 11134 <_ZN9allow_pin12full_dynamic15Buffer$LT$B$GT$5allow17hb1627d2b206e9fb0E>
   16c4c:	8905                	andi	a0,a0,1
   16c4e:	e919                	bnez	a0,16c64 <_start+0x5ae6>
   16c50:	22b00513          	li	a0,555
   16c54:	4595                	li	a1,5
   16c56:	4609                	li	a2,2
   16c58:	ffffa097          	auipc	ra,0xffffa
   16c5c:	518080e7          	jalr	1304(ra) # 11170 <_ZN9allow_pin7command17hdfcb5c5f4a3821c8E>
   16c60:	8905                	andi	a0,a0,1
   16c62:	c501                	beqz	a0,16c6a <_start+0x5aec>
   16c64:	84ae                	mv	s1,a1
   16c66:	4405                	li	s0,1
   16c68:	a835                	j	16ca4 <_start+0x5b26>
   16c6a:	0d68                	addi	a0,sp,668
   16c6c:	00001097          	auipc	ra,0x1
   16c70:	830080e7          	jalr	-2000(ra) # 1749c <_ZN9allow_pin12full_dynamic17unshare_if_shared17ha9c848d8c301b74dE>
   16c74:	58010513          	addi	a0,sp,1408
   16c78:	00001097          	auipc	ra,0x1
   16c7c:	824080e7          	jalr	-2012(ra) # 1749c <_ZN9allow_pin12full_dynamic17unshare_if_shared17ha9c848d8c301b74dE>
   16c80:	58010513          	addi	a0,sp,1408
   16c84:	00001097          	auipc	ra,0x1
   16c88:	818080e7          	jalr	-2024(ra) # 1749c <_ZN9allow_pin12full_dynamic17unshare_if_shared17ha9c848d8c301b74dE>
   16c8c:	00001297          	auipc	t0,0x1
   16c90:	82e282e7          	jalr	t0,-2002(t0) # 174ba <OUTLINED_FUNCTION_0>
   16c94:	0488                	addi	a0,sp,576
   16c96:	05700613          	li	a2,87
   16c9a:	00001097          	auipc	ra,0x1
   16c9e:	c30080e7          	jalr	-976(ra) # 178ca <memcpy>
   16ca2:	4401                	li	s0,0
   16ca4:	58010513          	addi	a0,sp,1408
   16ca8:	00000097          	auipc	ra,0x0
   16cac:	7f4080e7          	jalr	2036(ra) # 1749c <_ZN9allow_pin12full_dynamic17unshare_if_shared17ha9c848d8c301b74dE>
   16cb0:	0d68                	addi	a0,sp,668
   16cb2:	00000097          	auipc	ra,0x0
   16cb6:	7ea080e7          	jalr	2026(ra) # 1749c <_ZN9allow_pin12full_dynamic17unshare_if_shared17ha9c848d8c301b74dE>
   16cba:	6a041e63          	bnez	s0,17376 <_start+0x61f8>
   16cbe:	00001297          	auipc	t0,0x1
   16cc2:	9ca282e7          	jalr	t0,-1590(t0) # 17688 <OUTLINED_FUNCTION_9>
   16cc6:	05700613          	li	a2,87
   16cca:	00001097          	auipc	ra,0x1
   16cce:	c00080e7          	jalr	-1024(ra) # 178ca <memcpy>
   16cd2:	59310513          	addi	a0,sp,1427
   16cd6:	51c10593          	addi	a1,sp,1308
   16cda:	05700613          	li	a2,87
   16cde:	00001097          	auipc	ra,0x1
   16ce2:	bec080e7          	jalr	-1044(ra) # 178ca <memcpy>
   16ce6:	00001297          	auipc	t0,0x1
   16cea:	8a6282e7          	jalr	t0,-1882(t0) # 1758c <OUTLINED_FUNCTION_4>
   16cee:	05500613          	li	a2,85
   16cf2:	854a                	mv	a0,s2
   16cf4:	4581                	li	a1,0
   16cf6:	00001097          	auipc	ra,0x1
   16cfa:	b68080e7          	jalr	-1176(ra) # 1785e <memset>
   16cfe:	00001297          	auipc	t0,0x1
   16d02:	aee282e7          	jalr	t0,-1298(t0) # 177ec <OUTLINED_FUNCTION_21>
   16d06:	05e00593          	li	a1,94
   16d0a:	4611                	li	a2,4
   16d0c:	78a68413          	addi	s0,a3,1930
   16d10:	471d                	li	a4,7
   16d12:	86a2                	mv	a3,s0
   16d14:	ffffa097          	auipc	ra,0xffffa
   16d18:	420080e7          	jalr	1056(ra) # 11134 <_ZN9allow_pin12full_dynamic15Buffer$LT$B$GT$5allow17hb1627d2b206e9fb0E>
   16d1c:	8905                	andi	a0,a0,1
   16d1e:	e90d                	bnez	a0,16d50 <_start+0x5bd2>
   16d20:	51c10513          	addi	a0,sp,1308
   16d24:	05500593          	li	a1,85
   16d28:	460d                	li	a2,3
   16d2a:	470d                	li	a4,3
   16d2c:	86a2                	mv	a3,s0
   16d2e:	ffffa097          	auipc	ra,0xffffa
   16d32:	406080e7          	jalr	1030(ra) # 11134 <_ZN9allow_pin12full_dynamic15Buffer$LT$B$GT$5allow17hb1627d2b206e9fb0E>
   16d36:	8905                	andi	a0,a0,1
   16d38:	ed01                	bnez	a0,16d50 <_start+0x5bd2>
   16d3a:	6505                	lui	a0,0x1
   16d3c:	459d                	li	a1,7
   16d3e:	78a50513          	addi	a0,a0,1930 # 178a <.Lline_table_start1+0x155f>
   16d42:	460d                	li	a2,3
   16d44:	ffffa097          	auipc	ra,0xffffa
   16d48:	42c080e7          	jalr	1068(ra) # 11170 <_ZN9allow_pin7command17hdfcb5c5f4a3821c8E>
   16d4c:	8905                	andi	a0,a0,1
   16d4e:	c501                	beqz	a0,16d56 <_start+0x5bd8>
   16d50:	84ae                	mv	s1,a1
   16d52:	4405                	li	s0,1
   16d54:	a835                	j	16d90 <_start+0x5c12>
   16d56:	58010513          	addi	a0,sp,1408
   16d5a:	00000097          	auipc	ra,0x0
   16d5e:	742080e7          	jalr	1858(ra) # 1749c <_ZN9allow_pin12full_dynamic17unshare_if_shared17ha9c848d8c301b74dE>
   16d62:	51c10513          	addi	a0,sp,1308
   16d66:	00000097          	auipc	ra,0x0
   16d6a:	736080e7          	jalr	1846(ra) # 1749c <_ZN9allow_pin12full_dynamic17unshare_if_shared17ha9c848d8c301b74dE>
   16d6e:	51c10513          	addi	a0,sp,1308
   16d72:	00000097          	auipc	ra,0x0
   16d76:	72a080e7          	jalr	1834(ra) # 1749c <_ZN9allow_pin12full_dynamic17unshare_if_shared17ha9c848d8c301b74dE>
   16d7a:	00000297          	auipc	t0,0x0
   16d7e:	77c282e7          	jalr	t0,1916(t0) # 174f6 <OUTLINED_FUNCTION_1>
   16d82:	04e00613          	li	a2,78
   16d86:	00001097          	auipc	ra,0x1
   16d8a:	b44080e7          	jalr	-1212(ra) # 178ca <memcpy>
   16d8e:	4401                	li	s0,0
   16d90:	51c10513          	addi	a0,sp,1308
   16d94:	00000097          	auipc	ra,0x0
   16d98:	708080e7          	jalr	1800(ra) # 1749c <_ZN9allow_pin12full_dynamic17unshare_if_shared17ha9c848d8c301b74dE>
   16d9c:	58010513          	addi	a0,sp,1408
   16da0:	00000097          	auipc	ra,0x0
   16da4:	6fc080e7          	jalr	1788(ra) # 1749c <_ZN9allow_pin12full_dynamic17unshare_if_shared17ha9c848d8c301b74dE>
   16da8:	5c041763          	bnez	s0,17376 <_start+0x61f8>
   16dac:	00001297          	auipc	t0,0x1
   16db0:	8f4282e7          	jalr	t0,-1804(t0) # 176a0 <OUTLINED_FUNCTION_10>
   16db4:	04e00613          	li	a2,78
   16db8:	00001097          	auipc	ra,0x1
   16dbc:	b12080e7          	jalr	-1262(ra) # 178ca <memcpy>
   16dc0:	59310513          	addi	a0,sp,1427
   16dc4:	048c                	addi	a1,sp,576
   16dc6:	04e00613          	li	a2,78
   16dca:	00001097          	auipc	ra,0x1
   16dce:	b00080e7          	jalr	-1280(ra) # 178ca <memcpy>
   16dd2:	00000297          	auipc	t0,0x0
   16dd6:	7ba282e7          	jalr	t0,1978(t0) # 1758c <OUTLINED_FUNCTION_4>
   16dda:	4645                	li	a2,17
   16ddc:	854a                	mv	a0,s2
   16dde:	4581                	li	a1,0
   16de0:	00001097          	auipc	ra,0x1
   16de4:	a7e080e7          	jalr	-1410(ra) # 1785e <memset>
   16de8:	00001297          	auipc	t0,0x1
   16dec:	a04282e7          	jalr	t0,-1532(t0) # 177ec <OUTLINED_FUNCTION_21>
   16df0:	05500593          	li	a1,85
   16df4:	4611                	li	a2,4
   16df6:	c8968413          	addi	s0,a3,-887
   16dfa:	4709                	li	a4,2
   16dfc:	86a2                	mv	a3,s0
   16dfe:	ffffa097          	auipc	ra,0xffffa
   16e02:	336080e7          	jalr	822(ra) # 11134 <_ZN9allow_pin12full_dynamic15Buffer$LT$B$GT$5allow17hb1627d2b206e9fb0E>
   16e06:	8905                	andi	a0,a0,1
   16e08:	e905                	bnez	a0,16e38 <_start+0x5cba>
   16e0a:	51c10513          	addi	a0,sp,1308
   16e0e:	45c5                	li	a1,17
   16e10:	460d                	li	a2,3
   16e12:	4709                	li	a4,2
   16e14:	86a2                	mv	a3,s0
   16e16:	ffffa097          	auipc	ra,0xffffa
   16e1a:	31e080e7          	jalr	798(ra) # 11134 <_ZN9allow_pin12full_dynamic15Buffer$LT$B$GT$5allow17hb1627d2b206e9fb0E>
   16e1e:	8905                	andi	a0,a0,1
   16e20:	ed01                	bnez	a0,16e38 <_start+0x5cba>
   16e22:	6505                	lui	a0,0x1
   16e24:	4589                	li	a1,2
   16e26:	c8950513          	addi	a0,a0,-887 # c89 <.Lline_table_start1+0xa5e>
   16e2a:	4609                	li	a2,2
   16e2c:	ffffa097          	auipc	ra,0xffffa
   16e30:	344080e7          	jalr	836(ra) # 11170 <_ZN9allow_pin7command17hdfcb5c5f4a3821c8E>
   16e34:	8905                	andi	a0,a0,1
   16e36:	c501                	beqz	a0,16e3e <_start+0x5cc0>
   16e38:	84ae                	mv	s1,a1
   16e3a:	4a05                	li	s4,1
   16e3c:	a88d                	j	16eae <_start+0x5d30>
   16e3e:	58010513          	addi	a0,sp,1408
   16e42:	00000097          	auipc	ra,0x0
   16e46:	65a080e7          	jalr	1626(ra) # 1749c <_ZN9allow_pin12full_dynamic17unshare_if_shared17ha9c848d8c301b74dE>
   16e4a:	51c10513          	addi	a0,sp,1308
   16e4e:	00000097          	auipc	ra,0x0
   16e52:	64e080e7          	jalr	1614(ra) # 1749c <_ZN9allow_pin12full_dynamic17unshare_if_shared17ha9c848d8c301b74dE>
   16e56:	51c10513          	addi	a0,sp,1308
   16e5a:	00000097          	auipc	ra,0x0
   16e5e:	642080e7          	jalr	1602(ra) # 1749c <_ZN9allow_pin12full_dynamic17unshare_if_shared17ha9c848d8c301b74dE>
   16e62:	4a01                	li	s4,0
   16e64:	00094883          	lbu	a7,0(s2)
   16e68:	00194283          	lbu	t0,1(s2)
   16e6c:	00294803          	lbu	a6,2(s2)
   16e70:	52b14303          	lbu	t1,1323(sp)
   16e74:	53814383          	lbu	t2,1336(sp)
   16e78:	53414e03          	lbu	t3,1332(sp)
   16e7c:	53514e83          	lbu	t4,1333(sp)
   16e80:	53614f03          	lbu	t5,1334(sp)
   16e84:	53714403          	lbu	s0,1335(sp)
   16e88:	52c14583          	lbu	a1,1324(sp)
   16e8c:	52d14603          	lbu	a2,1325(sp)
   16e90:	52e14683          	lbu	a3,1326(sp)
   16e94:	52f14703          	lbu	a4,1327(sp)
   16e98:	02a2                	slli	t0,t0,0x8
   16e9a:	05a2                	slli	a1,a1,0x8
   16e9c:	0642                	slli	a2,a2,0x10
   16e9e:	06e2                	slli	a3,a3,0x18
   16ea0:	03a2                	slli	t2,t2,0x8
   16ea2:	0112e7b3          	or	a5,t0,a7
   16ea6:	00001297          	auipc	t0,0x1
   16eaa:	88c282e7          	jalr	t0,-1908(t0) # 17732 <OUTLINED_FUNCTION_17>
   16eae:	51c10513          	addi	a0,sp,1308
   16eb2:	00000097          	auipc	ra,0x0
   16eb6:	5ea080e7          	jalr	1514(ra) # 1749c <_ZN9allow_pin12full_dynamic17unshare_if_shared17ha9c848d8c301b74dE>
   16eba:	58010513          	addi	a0,sp,1408
   16ebe:	00000097          	auipc	ra,0x0
   16ec2:	5de080e7          	jalr	1502(ra) # 1749c <_ZN9allow_pin12full_dynamic17unshare_if_shared17ha9c848d8c301b74dE>
   16ec6:	4a0a1863          	bnez	s4,17376 <_start+0x61f8>
   16eca:	00001297          	auipc	t0,0x1
   16ece:	94c282e7          	jalr	t0,-1716(t0) # 17816 <OUTLINED_FUNCTION_24>
   16ed2:	34c11703          	lh	a4,844(sp)
   16ed6:	2aa11423          	sh	a0,680(sp)
   16eda:	2ab10523          	sb	a1,682(sp)
   16ede:	24c12023          	sw	a2,576(sp)
   16ee2:	24d12223          	sw	a3,580(sp)
   16ee6:	24e11423          	sh	a4,584(sp)
   16eea:	2af10513          	addi	a0,sp,687
   16eee:	048c                	addi	a1,sp,576
   16ef0:	4629                	li	a2,10
   16ef2:	00001097          	auipc	ra,0x1
   16ef6:	9d8080e7          	jalr	-1576(ra) # 178ca <memcpy>
   16efa:	00000297          	auipc	t0,0x0
   16efe:	6da282e7          	jalr	t0,1754(t0) # 175d4 <OUTLINED_FUNCTION_6>
   16f02:	05000613          	li	a2,80
   16f06:	854e                	mv	a0,s3
   16f08:	4581                	li	a1,0
   16f0a:	00001097          	auipc	ra,0x1
   16f0e:	954080e7          	jalr	-1708(ra) # 1785e <memset>
   16f12:	58810423          	sb	s0,1416(sp)
   16f16:	6689                	lui	a3,0x2
   16f18:	0d68                	addi	a0,sp,668
   16f1a:	45c5                	li	a1,17
   16f1c:	4611                	li	a2,4
   16f1e:	aa968413          	addi	s0,a3,-1367 # 1aa9 <.Lline_table_start1+0x187e>
   16f22:	4719                	li	a4,6
   16f24:	86a2                	mv	a3,s0
   16f26:	ffffa097          	auipc	ra,0xffffa
   16f2a:	20e080e7          	jalr	526(ra) # 11134 <_ZN9allow_pin12full_dynamic15Buffer$LT$B$GT$5allow17hb1627d2b206e9fb0E>
   16f2e:	8905                	andi	a0,a0,1
   16f30:	e90d                	bnez	a0,16f62 <_start+0x5de4>
   16f32:	58010513          	addi	a0,sp,1408
   16f36:	05000593          	li	a1,80
   16f3a:	460d                	li	a2,3
   16f3c:	4715                	li	a4,5
   16f3e:	86a2                	mv	a3,s0
   16f40:	ffffa097          	auipc	ra,0xffffa
   16f44:	1f4080e7          	jalr	500(ra) # 11134 <_ZN9allow_pin12full_dynamic15Buffer$LT$B$GT$5allow17hb1627d2b206e9fb0E>
   16f48:	8905                	andi	a0,a0,1
   16f4a:	ed01                	bnez	a0,16f62 <_start+0x5de4>
   16f4c:	6509                	lui	a0,0x2
   16f4e:	4599                	li	a1,6
   16f50:	aa950513          	addi	a0,a0,-1367 # 1aa9 <.Lline_table_start1+0x187e>
   16f54:	4615                	li	a2,5
   16f56:	ffffa097          	auipc	ra,0xffffa
   16f5a:	21a080e7          	jalr	538(ra) # 11170 <_ZN9allow_pin7command17hdfcb5c5f4a3821c8E>
   16f5e:	8905                	andi	a0,a0,1
   16f60:	c501                	beqz	a0,16f68 <_start+0x5dea>
   16f62:	84ae                	mv	s1,a1
   16f64:	4405                	li	s0,1
   16f66:	a835                	j	16fa2 <_start+0x5e24>
   16f68:	0d68                	addi	a0,sp,668
   16f6a:	00000097          	auipc	ra,0x0
   16f6e:	532080e7          	jalr	1330(ra) # 1749c <_ZN9allow_pin12full_dynamic17unshare_if_shared17ha9c848d8c301b74dE>
   16f72:	58010513          	addi	a0,sp,1408
   16f76:	00000097          	auipc	ra,0x0
   16f7a:	526080e7          	jalr	1318(ra) # 1749c <_ZN9allow_pin12full_dynamic17unshare_if_shared17ha9c848d8c301b74dE>
   16f7e:	58010513          	addi	a0,sp,1408
   16f82:	00000097          	auipc	ra,0x0
   16f86:	51a080e7          	jalr	1306(ra) # 1749c <_ZN9allow_pin12full_dynamic17unshare_if_shared17ha9c848d8c301b74dE>
   16f8a:	00000297          	auipc	t0,0x0
   16f8e:	530282e7          	jalr	t0,1328(t0) # 174ba <OUTLINED_FUNCTION_0>
   16f92:	0488                	addi	a0,sp,576
   16f94:	04900613          	li	a2,73
   16f98:	00001097          	auipc	ra,0x1
   16f9c:	932080e7          	jalr	-1742(ra) # 178ca <memcpy>
   16fa0:	4401                	li	s0,0
   16fa2:	58010513          	addi	a0,sp,1408
   16fa6:	00000097          	auipc	ra,0x0
   16faa:	4f6080e7          	jalr	1270(ra) # 1749c <_ZN9allow_pin12full_dynamic17unshare_if_shared17ha9c848d8c301b74dE>
   16fae:	0d68                	addi	a0,sp,668
   16fb0:	00000097          	auipc	ra,0x0
   16fb4:	4ec080e7          	jalr	1260(ra) # 1749c <_ZN9allow_pin12full_dynamic17unshare_if_shared17ha9c848d8c301b74dE>
   16fb8:	3a041f63          	bnez	s0,17376 <_start+0x61f8>
   16fbc:	00000297          	auipc	t0,0x0
   16fc0:	6cc282e7          	jalr	t0,1740(t0) # 17688 <OUTLINED_FUNCTION_9>
   16fc4:	04900613          	li	a2,73
   16fc8:	00001097          	auipc	ra,0x1
   16fcc:	902080e7          	jalr	-1790(ra) # 178ca <memcpy>
   16fd0:	59310513          	addi	a0,sp,1427
   16fd4:	51c10593          	addi	a1,sp,1308
   16fd8:	04900613          	li	a2,73
   16fdc:	00001097          	auipc	ra,0x1
   16fe0:	8ee080e7          	jalr	-1810(ra) # 178ca <memcpy>
   16fe4:	00000297          	auipc	t0,0x0
   16fe8:	5a8282e7          	jalr	t0,1448(t0) # 1758c <OUTLINED_FUNCTION_4>
   16fec:	466d                	li	a2,27
   16fee:	854a                	mv	a0,s2
   16ff0:	4581                	li	a1,0
   16ff2:	00001097          	auipc	ra,0x1
   16ff6:	86c080e7          	jalr	-1940(ra) # 1785e <memset>
   16ffa:	52810223          	sb	s0,1316(sp)
   16ffe:	58010513          	addi	a0,sp,1408
   17002:	05000593          	li	a1,80
   17006:	4611                	li	a2,4
   17008:	3d900693          	li	a3,985
   1700c:	4705                	li	a4,1
   1700e:	4405                	li	s0,1
   17010:	ffffa097          	auipc	ra,0xffffa
   17014:	124080e7          	jalr	292(ra) # 11134 <_ZN9allow_pin12full_dynamic15Buffer$LT$B$GT$5allow17hb1627d2b206e9fb0E>
   17018:	8905                	andi	a0,a0,1
   1701a:	e905                	bnez	a0,1704a <_start+0x5ecc>
   1701c:	51c10513          	addi	a0,sp,1308
   17020:	45ed                	li	a1,27
   17022:	460d                	li	a2,3
   17024:	3d900693          	li	a3,985
   17028:	4709                	li	a4,2
   1702a:	ffffa097          	auipc	ra,0xffffa
   1702e:	10a080e7          	jalr	266(ra) # 11134 <_ZN9allow_pin12full_dynamic15Buffer$LT$B$GT$5allow17hb1627d2b206e9fb0E>
   17032:	8905                	andi	a0,a0,1
   17034:	e919                	bnez	a0,1704a <_start+0x5ecc>
   17036:	3d900513          	li	a0,985
   1703a:	4585                	li	a1,1
   1703c:	4609                	li	a2,2
   1703e:	ffffa097          	auipc	ra,0xffffa
   17042:	132080e7          	jalr	306(ra) # 11170 <_ZN9allow_pin7command17hdfcb5c5f4a3821c8E>
   17046:	8905                	andi	a0,a0,1
   17048:	c119                	beqz	a0,1704e <_start+0x5ed0>
   1704a:	84ae                	mv	s1,a1
   1704c:	a82d                	j	17086 <_start+0x5f08>
   1704e:	58010513          	addi	a0,sp,1408
   17052:	00000097          	auipc	ra,0x0
   17056:	44a080e7          	jalr	1098(ra) # 1749c <_ZN9allow_pin12full_dynamic17unshare_if_shared17ha9c848d8c301b74dE>
   1705a:	51c10513          	addi	a0,sp,1308
   1705e:	00000097          	auipc	ra,0x0
   17062:	43e080e7          	jalr	1086(ra) # 1749c <_ZN9allow_pin12full_dynamic17unshare_if_shared17ha9c848d8c301b74dE>
   17066:	51c10513          	addi	a0,sp,1308
   1706a:	00000097          	auipc	ra,0x0
   1706e:	432080e7          	jalr	1074(ra) # 1749c <_ZN9allow_pin12full_dynamic17unshare_if_shared17ha9c848d8c301b74dE>
   17072:	00000297          	auipc	t0,0x0
   17076:	484282e7          	jalr	t0,1156(t0) # 174f6 <OUTLINED_FUNCTION_1>
   1707a:	4651                	li	a2,20
   1707c:	00001097          	auipc	ra,0x1
   17080:	84e080e7          	jalr	-1970(ra) # 178ca <memcpy>
   17084:	4401                	li	s0,0
   17086:	51c10513          	addi	a0,sp,1308
   1708a:	00000097          	auipc	ra,0x0
   1708e:	412080e7          	jalr	1042(ra) # 1749c <_ZN9allow_pin12full_dynamic17unshare_if_shared17ha9c848d8c301b74dE>
   17092:	58010513          	addi	a0,sp,1408
   17096:	00000097          	auipc	ra,0x0
   1709a:	406080e7          	jalr	1030(ra) # 1749c <_ZN9allow_pin12full_dynamic17unshare_if_shared17ha9c848d8c301b74dE>
   1709e:	2c041c63          	bnez	s0,17376 <_start+0x61f8>
   170a2:	34411503          	lh	a0,836(sp)
   170a6:	34614583          	lbu	a1,838(sp)
   170aa:	24a11623          	sh	a0,588(sp)
   170ae:	24b10723          	sb	a1,590(sp)
   170b2:	4ac10513          	addi	a0,sp,1196
   170b6:	0d6c                	addi	a1,sp,668
   170b8:	4651                	li	a2,20
   170ba:	00001097          	auipc	ra,0x1
   170be:	810080e7          	jalr	-2032(ra) # 178ca <memcpy>
   170c2:	00000297          	auipc	t0,0x0
   170c6:	536282e7          	jalr	t0,1334(t0) # 175f8 <OUTLINED_FUNCTION_7>
   170ca:	25310513          	addi	a0,sp,595
   170ce:	4ac10593          	addi	a1,sp,1196
   170d2:	4651                	li	a2,20
   170d4:	00000097          	auipc	ra,0x0
   170d8:	7f6080e7          	jalr	2038(ra) # 178ca <memcpy>
   170dc:	06300613          	li	a2,99
   170e0:	854e                	mv	a0,s3
   170e2:	4581                	li	a1,0
   170e4:	00000097          	auipc	ra,0x0
   170e8:	77a080e7          	jalr	1914(ra) # 1785e <memset>
   170ec:	58810423          	sb	s0,1416(sp)
   170f0:	6689                	lui	a3,0x2
   170f2:	0488                	addi	a0,sp,576
   170f4:	45ed                	li	a1,27
   170f6:	4611                	li	a2,4
   170f8:	54868413          	addi	s0,a3,1352 # 2548 <.Lline_table_start1+0x231d>
   170fc:	470d                	li	a4,3
   170fe:	86a2                	mv	a3,s0
   17100:	ffffa097          	auipc	ra,0xffffa
   17104:	034080e7          	jalr	52(ra) # 11134 <_ZN9allow_pin12full_dynamic15Buffer$LT$B$GT$5allow17hb1627d2b206e9fb0E>
   17108:	8905                	andi	a0,a0,1
   1710a:	e90d                	bnez	a0,1713c <_start+0x5fbe>
   1710c:	58010513          	addi	a0,sp,1408
   17110:	06300593          	li	a1,99
   17114:	460d                	li	a2,3
   17116:	470d                	li	a4,3
   17118:	86a2                	mv	a3,s0
   1711a:	ffffa097          	auipc	ra,0xffffa
   1711e:	01a080e7          	jalr	26(ra) # 11134 <_ZN9allow_pin12full_dynamic15Buffer$LT$B$GT$5allow17hb1627d2b206e9fb0E>
   17122:	8905                	andi	a0,a0,1
   17124:	ed01                	bnez	a0,1713c <_start+0x5fbe>
   17126:	6509                	lui	a0,0x2
   17128:	458d                	li	a1,3
   1712a:	54850513          	addi	a0,a0,1352 # 2548 <.Lline_table_start1+0x231d>
   1712e:	460d                	li	a2,3
   17130:	ffffa097          	auipc	ra,0xffffa
   17134:	040080e7          	jalr	64(ra) # 11170 <_ZN9allow_pin7command17hdfcb5c5f4a3821c8E>
   17138:	8905                	andi	a0,a0,1
   1713a:	c501                	beqz	a0,17142 <_start+0x5fc4>
   1713c:	84ae                	mv	s1,a1
   1713e:	4405                	li	s0,1
   17140:	a089                	j	17182 <_start+0x6004>
   17142:	0488                	addi	a0,sp,576
   17144:	00000097          	auipc	ra,0x0
   17148:	358080e7          	jalr	856(ra) # 1749c <_ZN9allow_pin12full_dynamic17unshare_if_shared17ha9c848d8c301b74dE>
   1714c:	58010513          	addi	a0,sp,1408
   17150:	00000097          	auipc	ra,0x0
   17154:	34c080e7          	jalr	844(ra) # 1749c <_ZN9allow_pin12full_dynamic17unshare_if_shared17ha9c848d8c301b74dE>
   17158:	58010513          	addi	a0,sp,1408
   1715c:	00000097          	auipc	ra,0x0
   17160:	340080e7          	jalr	832(ra) # 1749c <_ZN9allow_pin12full_dynamic17unshare_if_shared17ha9c848d8c301b74dE>
   17164:	00000297          	auipc	t0,0x0
   17168:	3d0282e7          	jalr	t0,976(t0) # 17534 <OUTLINED_FUNCTION_2>
   1716c:	00000297          	auipc	t0,0x0
   17170:	576282e7          	jalr	t0,1398(t0) # 176e2 <OUTLINED_FUNCTION_13>
   17174:	05c00613          	li	a2,92
   17178:	00000097          	auipc	ra,0x0
   1717c:	752080e7          	jalr	1874(ra) # 178ca <memcpy>
   17180:	4401                	li	s0,0
   17182:	58010513          	addi	a0,sp,1408
   17186:	00000097          	auipc	ra,0x0
   1718a:	316080e7          	jalr	790(ra) # 1749c <_ZN9allow_pin12full_dynamic17unshare_if_shared17ha9c848d8c301b74dE>
   1718e:	0488                	addi	a0,sp,576
   17190:	00000097          	auipc	ra,0x0
   17194:	30c080e7          	jalr	780(ra) # 1749c <_ZN9allow_pin12full_dynamic17unshare_if_shared17ha9c848d8c301b74dE>
   17198:	1c041f63          	bnez	s0,17376 <_start+0x61f8>
   1719c:	00000297          	auipc	t0,0x0
   171a0:	570282e7          	jalr	t0,1392(t0) # 1770c <OUTLINED_FUNCTION_15>
   171a4:	4c010513          	addi	a0,sp,1216
   171a8:	51c10593          	addi	a1,sp,1308
   171ac:	05c00613          	li	a2,92
   171b0:	00000097          	auipc	ra,0x0
   171b4:	71a080e7          	jalr	1818(ra) # 178ca <memcpy>
   171b8:	00000297          	auipc	t0,0x0
   171bc:	3d4282e7          	jalr	t0,980(t0) # 1758c <OUTLINED_FUNCTION_4>
   171c0:	59310513          	addi	a0,sp,1427
   171c4:	4c010593          	addi	a1,sp,1216
   171c8:	05c00613          	li	a2,92
   171cc:	00000097          	auipc	ra,0x0
   171d0:	6fe080e7          	jalr	1790(ra) # 178ca <memcpy>
   171d4:	02c00613          	li	a2,44
   171d8:	854a                	mv	a0,s2
   171da:	4581                	li	a1,0
   171dc:	00000097          	auipc	ra,0x0
   171e0:	682080e7          	jalr	1666(ra) # 1785e <memset>
   171e4:	52810223          	sb	s0,1316(sp)
   171e8:	58010513          	addi	a0,sp,1408
   171ec:	06300593          	li	a1,99
   171f0:	4611                	li	a2,4
   171f2:	46e1                	li	a3,24
   171f4:	4715                	li	a4,5
   171f6:	ffffa097          	auipc	ra,0xffffa
   171fa:	f3e080e7          	jalr	-194(ra) # 11134 <_ZN9allow_pin12full_dynamic15Buffer$LT$B$GT$5allow17hb1627d2b206e9fb0E>
   171fe:	8905                	andi	a0,a0,1
   17200:	e51d                	bnez	a0,1722e <_start+0x60b0>
   17202:	51c10513          	addi	a0,sp,1308
   17206:	02c00593          	li	a1,44
   1720a:	460d                	li	a2,3
   1720c:	46e1                	li	a3,24
   1720e:	470d                	li	a4,3
   17210:	ffffa097          	auipc	ra,0xffffa
   17214:	f24080e7          	jalr	-220(ra) # 11134 <_ZN9allow_pin12full_dynamic15Buffer$LT$B$GT$5allow17hb1627d2b206e9fb0E>
   17218:	8905                	andi	a0,a0,1
   1721a:	e911                	bnez	a0,1722e <_start+0x60b0>
   1721c:	4561                	li	a0,24
   1721e:	4595                	li	a1,5
   17220:	460d                	li	a2,3
   17222:	ffffa097          	auipc	ra,0xffffa
   17226:	f4e080e7          	jalr	-178(ra) # 11170 <_ZN9allow_pin7command17hdfcb5c5f4a3821c8E>
   1722a:	8905                	andi	a0,a0,1
   1722c:	c501                	beqz	a0,17234 <_start+0x60b6>
   1722e:	84ae                	mv	s1,a1
   17230:	4405                	li	s0,1
   17232:	a835                	j	1726e <_start+0x60f0>
   17234:	58010513          	addi	a0,sp,1408
   17238:	00000097          	auipc	ra,0x0
   1723c:	264080e7          	jalr	612(ra) # 1749c <_ZN9allow_pin12full_dynamic17unshare_if_shared17ha9c848d8c301b74dE>
   17240:	51c10513          	addi	a0,sp,1308
   17244:	00000097          	auipc	ra,0x0
   17248:	258080e7          	jalr	600(ra) # 1749c <_ZN9allow_pin12full_dynamic17unshare_if_shared17ha9c848d8c301b74dE>
   1724c:	51c10513          	addi	a0,sp,1308
   17250:	00000097          	auipc	ra,0x0
   17254:	24c080e7          	jalr	588(ra) # 1749c <_ZN9allow_pin12full_dynamic17unshare_if_shared17ha9c848d8c301b74dE>
   17258:	00000297          	auipc	t0,0x0
   1725c:	29e282e7          	jalr	t0,670(t0) # 174f6 <OUTLINED_FUNCTION_1>
   17260:	02500613          	li	a2,37
   17264:	00000097          	auipc	ra,0x0
   17268:	666080e7          	jalr	1638(ra) # 178ca <memcpy>
   1726c:	4401                	li	s0,0
   1726e:	51c10513          	addi	a0,sp,1308
   17272:	00000097          	auipc	ra,0x0
   17276:	22a080e7          	jalr	554(ra) # 1749c <_ZN9allow_pin12full_dynamic17unshare_if_shared17ha9c848d8c301b74dE>
   1727a:	58010513          	addi	a0,sp,1408
   1727e:	00000097          	auipc	ra,0x0
   17282:	21e080e7          	jalr	542(ra) # 1749c <_ZN9allow_pin12full_dynamic17unshare_if_shared17ha9c848d8c301b74dE>
   17286:	e865                	bnez	s0,17376 <_start+0x61f8>
   17288:	00000297          	auipc	t0,0x0
   1728c:	42e282e7          	jalr	t0,1070(t0) # 176b6 <OUTLINED_FUNCTION_11>
   17290:	02500613          	li	a2,37
   17294:	00000097          	auipc	ra,0x0
   17298:	636080e7          	jalr	1590(ra) # 178ca <memcpy>
   1729c:	52f10513          	addi	a0,sp,1327
   172a0:	048c                	addi	a1,sp,576
   172a2:	02500613          	li	a2,37
   172a6:	00000097          	auipc	ra,0x0
   172aa:	624080e7          	jalr	1572(ra) # 178ca <memcpy>
   172ae:	00000297          	auipc	t0,0x0
   172b2:	302282e7          	jalr	t0,770(t0) # 175b0 <OUTLINED_FUNCTION_5>
   172b6:	02a00613          	li	a2,42
   172ba:	854e                	mv	a0,s3
   172bc:	4581                	li	a1,0
   172be:	00000097          	auipc	ra,0x0
   172c2:	5a0080e7          	jalr	1440(ra) # 1785e <memset>
   172c6:	58810423          	sb	s0,1416(sp)
   172ca:	6689                	lui	a3,0x2
   172cc:	51c10513          	addi	a0,sp,1308
   172d0:	02c00593          	li	a1,44
   172d4:	4611                	li	a2,4
   172d6:	4f068413          	addi	s0,a3,1264 # 24f0 <.Lline_table_start1+0x22c5>
   172da:	470d                	li	a4,3
   172dc:	86a2                	mv	a3,s0
   172de:	ffffa097          	auipc	ra,0xffffa
   172e2:	e56080e7          	jalr	-426(ra) # 11134 <_ZN9allow_pin12full_dynamic15Buffer$LT$B$GT$5allow17hb1627d2b206e9fb0E>
   172e6:	8905                	andi	a0,a0,1
   172e8:	e90d                	bnez	a0,1731a <_start+0x619c>
   172ea:	58010513          	addi	a0,sp,1408
   172ee:	02a00593          	li	a1,42
   172f2:	460d                	li	a2,3
   172f4:	86a2                	mv	a3,s0
   172f6:	4701                	li	a4,0
   172f8:	ffffa097          	auipc	ra,0xffffa
   172fc:	e3c080e7          	jalr	-452(ra) # 11134 <_ZN9allow_pin12full_dynamic15Buffer$LT$B$GT$5allow17hb1627d2b206e9fb0E>
   17300:	8905                	andi	a0,a0,1
   17302:	ed01                	bnez	a0,1731a <_start+0x619c>
   17304:	6509                	lui	a0,0x2
   17306:	4f050513          	addi	a0,a0,1264 # 24f0 <.Lline_table_start1+0x22c5>
   1730a:	458d                	li	a1,3
   1730c:	4601                	li	a2,0
   1730e:	ffffa097          	auipc	ra,0xffffa
   17312:	e62080e7          	jalr	-414(ra) # 11170 <_ZN9allow_pin7command17hdfcb5c5f4a3821c8E>
   17316:	8905                	andi	a0,a0,1
   17318:	c501                	beqz	a0,17320 <_start+0x61a2>
   1731a:	84ae                	mv	s1,a1
   1731c:	4405                	li	s0,1
   1731e:	a83d                	j	1735c <_start+0x61de>
   17320:	51c10513          	addi	a0,sp,1308
   17324:	00000097          	auipc	ra,0x0
   17328:	178080e7          	jalr	376(ra) # 1749c <_ZN9allow_pin12full_dynamic17unshare_if_shared17ha9c848d8c301b74dE>
   1732c:	58010513          	addi	a0,sp,1408
   17330:	00000097          	auipc	ra,0x0
   17334:	16c080e7          	jalr	364(ra) # 1749c <_ZN9allow_pin12full_dynamic17unshare_if_shared17ha9c848d8c301b74dE>
   17338:	58010513          	addi	a0,sp,1408
   1733c:	00000097          	auipc	ra,0x0
   17340:	160080e7          	jalr	352(ra) # 1749c <_ZN9allow_pin12full_dynamic17unshare_if_shared17ha9c848d8c301b74dE>
   17344:	00000297          	auipc	t0,0x0
   17348:	176282e7          	jalr	t0,374(t0) # 174ba <OUTLINED_FUNCTION_0>
   1734c:	0d68                	addi	a0,sp,668
   1734e:	02300613          	li	a2,35
   17352:	00000097          	auipc	ra,0x0
   17356:	578080e7          	jalr	1400(ra) # 178ca <memcpy>
   1735a:	4401                	li	s0,0
   1735c:	58010513          	addi	a0,sp,1408
   17360:	00000097          	auipc	ra,0x0
   17364:	13c080e7          	jalr	316(ra) # 1749c <_ZN9allow_pin12full_dynamic17unshare_if_shared17ha9c848d8c301b74dE>
   17368:	51c10513          	addi	a0,sp,1308
   1736c:	00000097          	auipc	ra,0x0
   17370:	130080e7          	jalr	304(ra) # 1749c <_ZN9allow_pin12full_dynamic17unshare_if_shared17ha9c848d8c301b74dE>
   17374:	c80d                	beqz	s0,173a6 <_start+0x6228>
   17376:	4405                	li	s0,1
   17378:	8522                	mv	a0,s0
   1737a:	85a6                	mv	a1,s1
   1737c:	60010613          	addi	a2,sp,1536
   17380:	00c62083          	lw	ra,12(a2)
   17384:	4600                	lw	s0,8(a2)
   17386:	4244                	lw	s1,4(a2)
   17388:	00062903          	lw	s2,0(a2)
   1738c:	58010613          	addi	a2,sp,1408
   17390:	07c62983          	lw	s3,124(a2)
   17394:	07862a03          	lw	s4,120(a2)
   17398:	07462a83          	lw	s5,116(a2)
   1739c:	07062b03          	lw	s6,112(a2)
   173a0:	61010113          	addi	sp,sp,1552
   173a4:	8082                	ret
   173a6:	00000297          	auipc	t0,0x0
   173aa:	2fa282e7          	jalr	t0,762(t0) # 176a0 <OUTLINED_FUNCTION_10>
   173ae:	02300613          	li	a2,35
   173b2:	00000097          	auipc	ra,0x0
   173b6:	518080e7          	jalr	1304(ra) # 178ca <memcpy>
   173ba:	59310513          	addi	a0,sp,1427
   173be:	048c                	addi	a1,sp,576
   173c0:	02300613          	li	a2,35
   173c4:	00000097          	auipc	ra,0x0
   173c8:	506080e7          	jalr	1286(ra) # 178ca <memcpy>
   173cc:	00000297          	auipc	t0,0x0
   173d0:	1c0282e7          	jalr	t0,448(t0) # 1758c <OUTLINED_FUNCTION_4>
   173d4:	52810513          	addi	a0,sp,1320
   173d8:	02800613          	li	a2,40
   173dc:	4581                	li	a1,0
   173de:	00000097          	auipc	ra,0x0
   173e2:	480080e7          	jalr	1152(ra) # 1785e <memset>
   173e6:	00000297          	auipc	t0,0x0
   173ea:	412282e7          	jalr	t0,1042(t0) # 177f8 <OUTLINED_FUNCTION_22>
   173ee:	02a00593          	li	a1,42
   173f2:	4611                	li	a2,4
   173f4:	efa68413          	addi	s0,a3,-262
   173f8:	4711                	li	a4,4
   173fa:	86a2                	mv	a3,s0
   173fc:	ffffa097          	auipc	ra,0xffffa
   17400:	d38080e7          	jalr	-712(ra) # 11134 <_ZN9allow_pin12full_dynamic15Buffer$LT$B$GT$5allow17hb1627d2b206e9fb0E>
   17404:	8905                	andi	a0,a0,1
   17406:	e90d                	bnez	a0,17438 <_start+0x62ba>
   17408:	51c10513          	addi	a0,sp,1308
   1740c:	02800593          	li	a1,40
   17410:	460d                	li	a2,3
   17412:	4721                	li	a4,8
   17414:	86a2                	mv	a3,s0
   17416:	ffffa097          	auipc	ra,0xffffa
   1741a:	d1e080e7          	jalr	-738(ra) # 11134 <_ZN9allow_pin12full_dynamic15Buffer$LT$B$GT$5allow17hb1627d2b206e9fb0E>
   1741e:	8905                	andi	a0,a0,1
   17420:	ed01                	bnez	a0,17438 <_start+0x62ba>
   17422:	6509                	lui	a0,0x2
   17424:	4591                	li	a1,4
   17426:	efa50513          	addi	a0,a0,-262 # 1efa <.Lline_table_start1+0x1ccf>
   1742a:	4621                	li	a2,8
   1742c:	ffffa097          	auipc	ra,0xffffa
   17430:	d44080e7          	jalr	-700(ra) # 11170 <_ZN9allow_pin7command17hdfcb5c5f4a3821c8E>
   17434:	8905                	andi	a0,a0,1
   17436:	c501                	beqz	a0,1743e <_start+0x62c0>
   17438:	84ae                	mv	s1,a1
   1743a:	4405                	li	s0,1
   1743c:	a099                	j	17482 <_start+0x6304>
   1743e:	58010513          	addi	a0,sp,1408
   17442:	00000097          	auipc	ra,0x0
   17446:	05a080e7          	jalr	90(ra) # 1749c <_ZN9allow_pin12full_dynamic17unshare_if_shared17ha9c848d8c301b74dE>
   1744a:	51c10513          	addi	a0,sp,1308
   1744e:	00000097          	auipc	ra,0x0
   17452:	04e080e7          	jalr	78(ra) # 1749c <_ZN9allow_pin12full_dynamic17unshare_if_shared17ha9c848d8c301b74dE>
   17456:	51c10513          	addi	a0,sp,1308
   1745a:	00000097          	auipc	ra,0x0
   1745e:	042080e7          	jalr	66(ra) # 1749c <_ZN9allow_pin12full_dynamic17unshare_if_shared17ha9c848d8c301b74dE>
   17462:	4401                	li	s0,0
   17464:	52c14503          	lbu	a0,1324(sp)
   17468:	52b14583          	lbu	a1,1323(sp)
   1746c:	52d14603          	lbu	a2,1325(sp)
   17470:	52e14683          	lbu	a3,1326(sp)
   17474:	0522                	slli	a0,a0,0x8
   17476:	8d4d                	or	a0,a0,a1
   17478:	0642                	slli	a2,a2,0x10
   1747a:	06e2                	slli	a3,a3,0x18
   1747c:	8e55                	or	a2,a2,a3
   1747e:	00a664b3          	or	s1,a2,a0
   17482:	51c10513          	addi	a0,sp,1308
   17486:	00000097          	auipc	ra,0x0
   1748a:	016080e7          	jalr	22(ra) # 1749c <_ZN9allow_pin12full_dynamic17unshare_if_shared17ha9c848d8c301b74dE>
   1748e:	58010513          	addi	a0,sp,1408
   17492:	00000097          	auipc	ra,0x0
   17496:	00a080e7          	jalr	10(ra) # 1749c <_ZN9allow_pin12full_dynamic17unshare_if_shared17ha9c848d8c301b74dE>
   1749a:	bdf9                	j	17378 <_start+0x61fa>

0001749c <_ZN9allow_pin12full_dynamic17unshare_if_shared17ha9c848d8c301b74dE>:
   1749c:	00854703          	lbu	a4,8(a0)
   174a0:	4809                	li	a6,2
   174a2:	01070b63          	beq	a4,a6,174b8 <_ZN9allow_pin12full_dynamic17unshare_if_shared17ha9c848d8c301b74dE+0x1c>
   174a6:	87aa                	mv	a5,a0
   174a8:	4108                	lw	a0,0(a0)
   174aa:	43cc                	lw	a1,4(a5)
   174ac:	4601                	li	a2,0
   174ae:	4681                	li	a3,0
   174b0:	00000073          	ecall
   174b4:	01078423          	sb	a6,8(a5)
   174b8:	8082                	ret

000174ba <OUTLINED_FUNCTION_0>:
   174ba:	0019c503          	lbu	a0,1(s3)
   174be:	0009c583          	lbu	a1,0(s3)
   174c2:	0029c603          	lbu	a2,2(s3)
   174c6:	58f14683          	lbu	a3,1423(sp)
   174ca:	0522                	slli	a0,a0,0x8
   174cc:	59014703          	lbu	a4,1424(sp)
   174d0:	8d4d                	or	a0,a0,a1
   174d2:	59114583          	lbu	a1,1425(sp)
   174d6:	59214783          	lbu	a5,1426(sp)
   174da:	0722                	slli	a4,a4,0x8
   174dc:	8ed9                	or	a3,a3,a4
   174de:	05c2                	slli	a1,a1,0x10
   174e0:	07e2                	slli	a5,a5,0x18
   174e2:	8ddd                	or	a1,a1,a5
   174e4:	34a11223          	sh	a0,836(sp)
   174e8:	34c10323          	sb	a2,838(sp)
   174ec:	00d5e4b3          	or	s1,a1,a3
   174f0:	59310593          	addi	a1,sp,1427
   174f4:	8282                	jr	t0

000174f6 <OUTLINED_FUNCTION_1>:
   174f6:	00194503          	lbu	a0,1(s2)
   174fa:	00094583          	lbu	a1,0(s2)
   174fe:	00294603          	lbu	a2,2(s2)
   17502:	52b14683          	lbu	a3,1323(sp)
   17506:	0522                	slli	a0,a0,0x8
   17508:	52c14703          	lbu	a4,1324(sp)
   1750c:	8d4d                	or	a0,a0,a1
   1750e:	52d14583          	lbu	a1,1325(sp)
   17512:	52e14783          	lbu	a5,1326(sp)
   17516:	0722                	slli	a4,a4,0x8
   17518:	8ed9                	or	a3,a3,a4
   1751a:	05c2                	slli	a1,a1,0x10
   1751c:	07e2                	slli	a5,a5,0x18
   1751e:	8ddd                	or	a1,a1,a5
   17520:	34a11223          	sh	a0,836(sp)
   17524:	34c10323          	sb	a2,838(sp)
   17528:	00d5e4b3          	or	s1,a1,a3
   1752c:	52f10593          	addi	a1,sp,1327
   17530:	0d68                	addi	a0,sp,668
   17532:	8282                	jr	t0

00017534 <OUTLINED_FUNCTION_2>:
   17534:	0019c503          	lbu	a0,1(s3)
   17538:	0009c583          	lbu	a1,0(s3)
   1753c:	0029c603          	lbu	a2,2(s3)
   17540:	58f14683          	lbu	a3,1423(sp)
   17544:	0522                	slli	a0,a0,0x8
   17546:	59014703          	lbu	a4,1424(sp)
   1754a:	8d4d                	or	a0,a0,a1
   1754c:	59114583          	lbu	a1,1425(sp)
   17550:	59214783          	lbu	a5,1426(sp)
   17554:	0722                	slli	a4,a4,0x8
   17556:	8ed9                	or	a3,a3,a4
   17558:	05c2                	slli	a1,a1,0x10
   1755a:	07e2                	slli	a5,a5,0x18
   1755c:	8ddd                	or	a1,a1,a5
   1755e:	8282                	jr	t0

00017560 <OUTLINED_FUNCTION_3>:
   17560:	00194503          	lbu	a0,1(s2)
   17564:	00094583          	lbu	a1,0(s2)
   17568:	00294603          	lbu	a2,2(s2)
   1756c:	52b14683          	lbu	a3,1323(sp)
   17570:	0522                	slli	a0,a0,0x8
   17572:	52c14703          	lbu	a4,1324(sp)
   17576:	8d4d                	or	a0,a0,a1
   17578:	52d14583          	lbu	a1,1325(sp)
   1757c:	52e14783          	lbu	a5,1326(sp)
   17580:	0722                	slli	a4,a4,0x8
   17582:	8ed9                	or	a3,a3,a4
   17584:	05c2                	slli	a1,a1,0x10
   17586:	07e2                	slli	a5,a5,0x18
   17588:	8ddd                	or	a1,a1,a5
   1758a:	8282                	jr	t0

0001758c <OUTLINED_FUNCTION_4>:
   1758c:	4409                	li	s0,2
   1758e:	0184d513          	srli	a0,s1,0x18
   17592:	0104d593          	srli	a1,s1,0x10
   17596:	58a10923          	sb	a0,1426(sp)
   1759a:	0084d513          	srli	a0,s1,0x8
   1759e:	58810423          	sb	s0,1416(sp)
   175a2:	589107a3          	sb	s1,1423(sp)
   175a6:	58a10823          	sb	a0,1424(sp)
   175aa:	58b108a3          	sb	a1,1425(sp)
   175ae:	8282                	jr	t0

000175b0 <OUTLINED_FUNCTION_5>:
   175b0:	4409                	li	s0,2
   175b2:	0184d513          	srli	a0,s1,0x18
   175b6:	0104d593          	srli	a1,s1,0x10
   175ba:	52a10723          	sb	a0,1326(sp)
   175be:	0084d513          	srli	a0,s1,0x8
   175c2:	52810223          	sb	s0,1316(sp)
   175c6:	529105a3          	sb	s1,1323(sp)
   175ca:	52a10623          	sb	a0,1324(sp)
   175ce:	52b106a3          	sb	a1,1325(sp)
   175d2:	8282                	jr	t0

000175d4 <OUTLINED_FUNCTION_6>:
   175d4:	4409                	li	s0,2
   175d6:	0184d513          	srli	a0,s1,0x18
   175da:	0104d593          	srli	a1,s1,0x10
   175de:	2aa10723          	sb	a0,686(sp)
   175e2:	0084d513          	srli	a0,s1,0x8
   175e6:	2a810223          	sb	s0,676(sp)
   175ea:	2a9105a3          	sb	s1,683(sp)
   175ee:	2aa10623          	sb	a0,684(sp)
   175f2:	2ab106a3          	sb	a1,685(sp)
   175f6:	8282                	jr	t0

000175f8 <OUTLINED_FUNCTION_7>:
   175f8:	4409                	li	s0,2
   175fa:	0184d513          	srli	a0,s1,0x18
   175fe:	0104d593          	srli	a1,s1,0x10
   17602:	24a10923          	sb	a0,594(sp)
   17606:	0084d513          	srli	a0,s1,0x8
   1760a:	24810423          	sb	s0,584(sp)
   1760e:	249107a3          	sb	s1,591(sp)
   17612:	24a10823          	sb	a0,592(sp)
   17616:	24b108a3          	sb	a1,593(sp)
   1761a:	8282                	jr	t0

0001761c <OUTLINED_FUNCTION_8>:
   1761c:	24011803          	lh	a6,576(sp)
   17620:	24214883          	lbu	a7,578(sp)
   17624:	4a09                	li	s4,2
   17626:	0184d613          	srli	a2,s1,0x18
   1762a:	0104d693          	srli	a3,s1,0x10
   1762e:	0084d713          	srli	a4,s1,0x8
   17632:	018b5793          	srli	a5,s6,0x18
   17636:	010b5413          	srli	s0,s6,0x10
   1763a:	008b5513          	srli	a0,s6,0x8
   1763e:	018ad593          	srli	a1,s5,0x18
   17642:	52e10623          	sb	a4,1324(sp)
   17646:	52d106a3          	sb	a3,1325(sp)
   1764a:	52c10723          	sb	a2,1326(sp)
   1764e:	536107a3          	sb	s6,1327(sp)
   17652:	010ad613          	srli	a2,s5,0x10
   17656:	52a10823          	sb	a0,1328(sp)
   1765a:	528108a3          	sb	s0,1329(sp)
   1765e:	52f10923          	sb	a5,1330(sp)
   17662:	535109a3          	sb	s5,1331(sp)
   17666:	008ad513          	srli	a0,s5,0x8
   1766a:	53410223          	sb	s4,1316(sp)
   1766e:	53011423          	sh	a6,1320(sp)
   17672:	53110523          	sb	a7,1322(sp)
   17676:	529105a3          	sb	s1,1323(sp)
   1767a:	52a10a23          	sb	a0,1332(sp)
   1767e:	52c10aa3          	sb	a2,1333(sp)
   17682:	52b10b23          	sb	a1,1334(sp)
   17686:	8282                	jr	t0

00017688 <OUTLINED_FUNCTION_9>:
   17688:	34411503          	lh	a0,836(sp)
   1768c:	34614583          	lbu	a1,838(sp)
   17690:	58a11623          	sh	a0,1420(sp)
   17694:	58b10723          	sb	a1,1422(sp)
   17698:	51c10513          	addi	a0,sp,1308
   1769c:	048c                	addi	a1,sp,576
   1769e:	8282                	jr	t0

000176a0 <OUTLINED_FUNCTION_10>:
   176a0:	34411503          	lh	a0,836(sp)
   176a4:	34614583          	lbu	a1,838(sp)
   176a8:	58a11623          	sh	a0,1420(sp)
   176ac:	58b10723          	sb	a1,1422(sp)
   176b0:	0488                	addi	a0,sp,576
   176b2:	0d6c                	addi	a1,sp,668
   176b4:	8282                	jr	t0

000176b6 <OUTLINED_FUNCTION_11>:
   176b6:	34411503          	lh	a0,836(sp)
   176ba:	34614583          	lbu	a1,838(sp)
   176be:	52a11423          	sh	a0,1320(sp)
   176c2:	52b10523          	sb	a1,1322(sp)
   176c6:	0488                	addi	a0,sp,576
   176c8:	0d6c                	addi	a1,sp,668
   176ca:	8282                	jr	t0

000176cc <OUTLINED_FUNCTION_12>:
   176cc:	4a811503          	lh	a0,1192(sp)
   176d0:	4aa14583          	lbu	a1,1194(sp)
   176d4:	2aa11423          	sh	a0,680(sp)
   176d8:	2ab10523          	sb	a1,682(sp)
   176dc:	0488                	addi	a0,sp,576
   176de:	06cc                	addi	a1,sp,836
   176e0:	8282                	jr	t0

000176e2 <OUTLINED_FUNCTION_13>:
   176e2:	28a11e23          	sh	a0,668(sp)
   176e6:	28c10f23          	sb	a2,670(sp)
   176ea:	00d5e4b3          	or	s1,a1,a3
   176ee:	59310593          	addi	a1,sp,1427
   176f2:	51c10513          	addi	a0,sp,1308
   176f6:	8282                	jr	t0

000176f8 <OUTLINED_FUNCTION_14>:
   176f8:	4aa11423          	sh	a0,1192(sp)
   176fc:	4ac10523          	sb	a2,1194(sp)
   17700:	00d5e4b3          	or	s1,a1,a3
   17704:	52f10593          	addi	a1,sp,1327
   17708:	06c8                	addi	a0,sp,836
   1770a:	8282                	jr	t0

0001770c <OUTLINED_FUNCTION_15>:
   1770c:	29c11503          	lh	a0,668(sp)
   17710:	29e14583          	lbu	a1,670(sp)
   17714:	58a11623          	sh	a0,1420(sp)
   17718:	58b10723          	sb	a1,1422(sp)
   1771c:	8282                	jr	t0

0001771e <OUTLINED_FUNCTION_16>:
   1771e:	28a11e23          	sh	a0,668(sp)
   17722:	28c10f23          	sb	a2,670(sp)
   17726:	00d5e4b3          	or	s1,a1,a3
   1772a:	52f10593          	addi	a1,sp,1327
   1772e:	0488                	addi	a0,sp,576
   17730:	8282                	jr	t0

00017732 <OUTLINED_FUNCTION_17>:
   17732:	0065e5b3          	or	a1,a1,t1
   17736:	8e55                	or	a2,a2,a3
   17738:	0083e8b3          	or	a7,t2,s0
   1773c:	53014403          	lbu	s0,1328(sp)
   17740:	53114483          	lbu	s1,1329(sp)
   17744:	53214503          	lbu	a0,1330(sp)
   17748:	53314683          	lbu	a3,1331(sp)
   1774c:	0422                	slli	s0,s0,0x8
   1774e:	8f41                	or	a4,a4,s0
   17750:	04c2                	slli	s1,s1,0x10
   17752:	0562                	slli	a0,a0,0x18
   17754:	8d45                	or	a0,a0,s1
   17756:	0e22                	slli	t3,t3,0x8
   17758:	00de66b3          	or	a3,t3,a3
   1775c:	0ec2                	slli	t4,t4,0x10
   1775e:	0f62                	slli	t5,t5,0x18
   17760:	01df64b3          	or	s1,t5,t4
   17764:	4af11423          	sh	a5,1192(sp)
   17768:	4b010523          	sb	a6,1194(sp)
   1776c:	8dd1                	or	a1,a1,a2
   1776e:	8d59                	or	a0,a0,a4
   17770:	8ec5                	or	a3,a3,s1
   17772:	34a12223          	sw	a0,836(sp)
   17776:	34d12423          	sw	a3,840(sp)
   1777a:	35111623          	sh	a7,844(sp)
   1777e:	84ae                	mv	s1,a1
   17780:	8282                	jr	t0

00017782 <OUTLINED_FUNCTION_18>:
   17782:	00666633          	or	a2,a2,t1
   17786:	53414483          	lbu	s1,1332(sp)
   1778a:	8d4d                	or	a0,a0,a1
   1778c:	53514583          	lbu	a1,1333(sp)
   17790:	53614703          	lbu	a4,1334(sp)
   17794:	04a2                	slli	s1,s1,0x8
   17796:	8c45                	or	s0,s0,s1
   17798:	05c2                	slli	a1,a1,0x10
   1779a:	0762                	slli	a4,a4,0x18
   1779c:	8dd9                	or	a1,a1,a4
   1779e:	0ea2                	slli	t4,t4,0x8
   177a0:	00dee6b3          	or	a3,t4,a3
   177a4:	24f11023          	sh	a5,576(sp)
   177a8:	25010123          	sb	a6,578(sp)
   177ac:	00c564b3          	or	s1,a0,a2
   177b0:	0085eab3          	or	s5,a1,s0
   177b4:	03c2                	slli	t2,t2,0x10
   177b6:	0e62                	slli	t3,t3,0x18
   177b8:	007e6433          	or	s0,t3,t2
   177bc:	00d46b33          	or	s6,s0,a3
   177c0:	8282                	jr	t0

000177c2 <OUTLINED_FUNCTION_19>:
   177c2:	4aa11423          	sh	a0,1192(sp)
   177c6:	4ac10523          	sb	a2,1194(sp)
   177ca:	00d5e4b3          	or	s1,a1,a3
   177ce:	59310593          	addi	a1,sp,1427
   177d2:	06c8                	addi	a0,sp,836
   177d4:	8282                	jr	t0

000177d6 <OUTLINED_FUNCTION_20>:
   177d6:	4a811503          	lh	a0,1192(sp)
   177da:	4aa14583          	lbu	a1,1194(sp)
   177de:	24a11623          	sh	a0,588(sp)
   177e2:	24b10723          	sb	a1,590(sp)
   177e6:	0d68                	addi	a0,sp,668
   177e8:	06cc                	addi	a1,sp,836
   177ea:	8282                	jr	t0

000177ec <OUTLINED_FUNCTION_21>:
   177ec:	52810223          	sb	s0,1316(sp)
   177f0:	6685                	lui	a3,0x1
   177f2:	58010513          	addi	a0,sp,1408
   177f6:	8282                	jr	t0

000177f8 <OUTLINED_FUNCTION_22>:
   177f8:	52810223          	sb	s0,1316(sp)
   177fc:	6689                	lui	a3,0x2
   177fe:	58010513          	addi	a0,sp,1408
   17802:	8282                	jr	t0

00017804 <OUTLINED_FUNCTION_23>:
   17804:	29c11503          	lh	a0,668(sp)
   17808:	29e14583          	lbu	a1,670(sp)
   1780c:	52a11423          	sh	a0,1320(sp)
   17810:	52b10523          	sb	a1,1322(sp)
   17814:	8282                	jr	t0

00017816 <OUTLINED_FUNCTION_24>:
   17816:	4a811503          	lh	a0,1192(sp)
   1781a:	4aa14583          	lbu	a1,1194(sp)
   1781e:	34412603          	lw	a2,836(sp)
   17822:	34812683          	lw	a3,840(sp)
   17826:	8282                	jr	t0

00017828 <OUTLINED_FUNCTION_25>:
   17828:	34411503          	lh	a0,836(sp)
   1782c:	34614583          	lbu	a1,838(sp)
   17830:	2aa11423          	sh	a0,680(sp)
   17834:	2ab10523          	sb	a1,682(sp)
   17838:	8282                	jr	t0

0001783a <OUTLINED_FUNCTION_26>:
   1783a:	58a10423          	sb	a0,1416(sp)
   1783e:	589107a3          	sb	s1,1423(sp)
   17842:	58b10823          	sb	a1,1424(sp)
   17846:	58c108a3          	sb	a2,1425(sp)
   1784a:	52a10223          	sb	a0,1316(sp)
   1784e:	8282                	jr	t0

00017850 <OUTLINED_FUNCTION_27>:
   17850:	59310513          	addi	a0,sp,1427
   17854:	51c10593          	addi	a1,sp,1308
   17858:	04a00613          	li	a2,74
   1785c:	8282                	jr	t0

0001785e <memset>:
   1785e:	46c1                	li	a3,16
   17860:	04d66f63          	bltu	a2,a3,178be <memset+0x60>
   17864:	40a006b3          	neg	a3,a0
   17868:	0036f813          	andi	a6,a3,3
   1786c:	01050733          	add	a4,a0,a6
   17870:	00e57963          	bgeu	a0,a4,17882 <memset+0x24>
   17874:	87c2                	mv	a5,a6
   17876:	86aa                	mv	a3,a0
   17878:	00b68023          	sb	a1,0(a3) # 2000 <.Lline_table_start1+0x1dd5>
   1787c:	17fd                	addi	a5,a5,-1
   1787e:	0685                	addi	a3,a3,1
   17880:	ffe5                	bnez	a5,17878 <memset+0x1a>
   17882:	41060633          	sub	a2,a2,a6
   17886:	ffc67693          	andi	a3,a2,-4
   1788a:	96ba                	add	a3,a3,a4
   1788c:	00d77e63          	bgeu	a4,a3,178a8 <memset+0x4a>
   17890:	0ff5f813          	zext.b	a6,a1
   17894:	010107b7          	lui	a5,0x1010
   17898:	10178793          	addi	a5,a5,257 # 1010101 <_ZN17compiler_builtins3mem6memcpy17h90d0c987d2ef5a79E+0xff882f>
   1789c:	02f807b3          	mul	a5,a6,a5
   178a0:	c31c                	sw	a5,0(a4)
   178a2:	0711                	addi	a4,a4,4
   178a4:	fed76ee3          	bltu	a4,a3,178a0 <memset+0x42>
   178a8:	8a0d                	andi	a2,a2,3
   178aa:	00c68733          	add	a4,a3,a2
   178ae:	00e6f763          	bgeu	a3,a4,178bc <memset+0x5e>
   178b2:	00b68023          	sb	a1,0(a3)
   178b6:	167d                	addi	a2,a2,-1
   178b8:	0685                	addi	a3,a3,1
   178ba:	fe65                	bnez	a2,178b2 <memset+0x54>
   178bc:	8082                	ret
   178be:	86aa                	mv	a3,a0
   178c0:	00c50733          	add	a4,a0,a2
   178c4:	fee567e3          	bltu	a0,a4,178b2 <memset+0x54>
   178c8:	bfd5                	j	178bc <memset+0x5e>

000178ca <memcpy>:
   178ca:	00000317          	auipc	t1,0x0
   178ce:	00830067          	jr	8(t1) # 178d2 <_ZN17compiler_builtins3mem6memcpy17h90d0c987d2ef5a79E>

000178d2 <_ZN17compiler_builtins3mem6memcpy17h90d0c987d2ef5a79E>:
   178d2:	1141                	addi	sp,sp,-16
   178d4:	c622                	sw	s0,12(sp)
   178d6:	46c1                	li	a3,16
   178d8:	06d66363          	bltu	a2,a3,1793e <_ZN17compiler_builtins3mem6memcpy17h90d0c987d2ef5a79E+0x6c>
   178dc:	40a006b3          	neg	a3,a0
   178e0:	0036f813          	andi	a6,a3,3
   178e4:	01050fb3          	add	t6,a0,a6
   178e8:	01f57d63          	bgeu	a0,t6,17902 <_ZN17compiler_builtins3mem6memcpy17h90d0c987d2ef5a79E+0x30>
   178ec:	8742                	mv	a4,a6
   178ee:	86aa                	mv	a3,a0
   178f0:	87ae                	mv	a5,a1
   178f2:	0007c883          	lbu	a7,0(a5)
   178f6:	177d                	addi	a4,a4,-1
   178f8:	01168023          	sb	a7,0(a3)
   178fc:	0685                	addi	a3,a3,1
   178fe:	0785                	addi	a5,a5,1
   17900:	fb6d                	bnez	a4,178f2 <_ZN17compiler_builtins3mem6memcpy17h90d0c987d2ef5a79E+0x20>
   17902:	01058433          	add	s0,a1,a6
   17906:	410608b3          	sub	a7,a2,a6
   1790a:	ffc8f713          	andi	a4,a7,-4
   1790e:	00347613          	andi	a2,s0,3
   17912:	00ef86b3          	add	a3,t6,a4
   17916:	e621                	bnez	a2,1795e <_ZN17compiler_builtins3mem6memcpy17h90d0c987d2ef5a79E+0x8c>
   17918:	00dffa63          	bgeu	t6,a3,1792c <_ZN17compiler_builtins3mem6memcpy17h90d0c987d2ef5a79E+0x5a>
   1791c:	8622                	mv	a2,s0
   1791e:	421c                	lw	a5,0(a2)
   17920:	00ffa023          	sw	a5,0(t6)
   17924:	0f91                	addi	t6,t6,4
   17926:	0611                	addi	a2,a2,4
   17928:	fedfebe3          	bltu	t6,a3,1791e <_ZN17compiler_builtins3mem6memcpy17h90d0c987d2ef5a79E+0x4c>
   1792c:	00e405b3          	add	a1,s0,a4
   17930:	0038f613          	andi	a2,a7,3
   17934:	00c68733          	add	a4,a3,a2
   17938:	00e6e863          	bltu	a3,a4,17948 <_ZN17compiler_builtins3mem6memcpy17h90d0c987d2ef5a79E+0x76>
   1793c:	a831                	j	17958 <_ZN17compiler_builtins3mem6memcpy17h90d0c987d2ef5a79E+0x86>
   1793e:	86aa                	mv	a3,a0
   17940:	00c50733          	add	a4,a0,a2
   17944:	00e57a63          	bgeu	a0,a4,17958 <_ZN17compiler_builtins3mem6memcpy17h90d0c987d2ef5a79E+0x86>
   17948:	0005c703          	lbu	a4,0(a1)
   1794c:	167d                	addi	a2,a2,-1
   1794e:	00e68023          	sb	a4,0(a3)
   17952:	0685                	addi	a3,a3,1
   17954:	0585                	addi	a1,a1,1
   17956:	fa6d                	bnez	a2,17948 <_ZN17compiler_builtins3mem6memcpy17h90d0c987d2ef5a79E+0x76>
   17958:	4432                	lw	s0,12(sp)
   1795a:	0141                	addi	sp,sp,16
   1795c:	8082                	ret
   1795e:	4801                	li	a6,0
   17960:	4791                	li	a5,4
   17962:	c402                	sw	zero,8(sp)
   17964:	40c783b3          	sub	t2,a5,a2
   17968:	00810293          	addi	t0,sp,8
   1796c:	0013f313          	andi	t1,t2,1
   17970:	00c2e2b3          	or	t0,t0,a2
   17974:	04031763          	bnez	t1,179c2 <_ZN17compiler_builtins3mem6memcpy17h90d0c987d2ef5a79E+0xf0>
   17978:	0023f793          	andi	a5,t2,2
   1797c:	ebb9                	bnez	a5,179d2 <_ZN17compiler_builtins3mem6memcpy17h90d0c987d2ef5a79E+0x100>
   1797e:	4ea2                	lw	t4,8(sp)
   17980:	00361813          	slli	a6,a2,0x3
   17984:	004f8793          	addi	a5,t6,4
   17988:	40c40f33          	sub	t5,s0,a2
   1798c:	06d7f363          	bgeu	a5,a3,179f2 <_ZN17compiler_builtins3mem6memcpy17h90d0c987d2ef5a79E+0x120>
   17990:	410007b3          	neg	a5,a6
   17994:	0187fe13          	andi	t3,a5,24
   17998:	004f2283          	lw	t0,4(t5)
   1799c:	004f0393          	addi	t2,t5,4
   179a0:	010ed5b3          	srl	a1,t4,a6
   179a4:	004f8313          	addi	t1,t6,4
   179a8:	01c297b3          	sll	a5,t0,t3
   179ac:	8ddd                	or	a1,a1,a5
   179ae:	008f8793          	addi	a5,t6,8
   179b2:	00bfa023          	sw	a1,0(t6)
   179b6:	8f9a                	mv	t6,t1
   179b8:	8f1e                	mv	t5,t2
   179ba:	8e96                	mv	t4,t0
   179bc:	fcd7eee3          	bltu	a5,a3,17998 <_ZN17compiler_builtins3mem6memcpy17h90d0c987d2ef5a79E+0xc6>
   179c0:	a825                	j	179f8 <_ZN17compiler_builtins3mem6memcpy17h90d0c987d2ef5a79E+0x126>
   179c2:	00044783          	lbu	a5,0(s0)
   179c6:	00f28023          	sb	a5,0(t0)
   179ca:	4805                	li	a6,1
   179cc:	0023f793          	andi	a5,t2,2
   179d0:	d7dd                	beqz	a5,1797e <_ZN17compiler_builtins3mem6memcpy17h90d0c987d2ef5a79E+0xac>
   179d2:	010407b3          	add	a5,s0,a6
   179d6:	00079783          	lh	a5,0(a5)
   179da:	9816                	add	a6,a6,t0
   179dc:	00f81023          	sh	a5,0(a6)
   179e0:	4ea2                	lw	t4,8(sp)
   179e2:	00361813          	slli	a6,a2,0x3
   179e6:	004f8793          	addi	a5,t6,4
   179ea:	40c40f33          	sub	t5,s0,a2
   179ee:	fad7e1e3          	bltu	a5,a3,17990 <_ZN17compiler_builtins3mem6memcpy17h90d0c987d2ef5a79E+0xbe>
   179f2:	82f6                	mv	t0,t4
   179f4:	83fa                	mv	t2,t5
   179f6:	837e                	mv	t1,t6
   179f8:	00010223          	sb	zero,4(sp)
   179fc:	4785                	li	a5,1
   179fe:	00010123          	sb	zero,2(sp)
   17a02:	00f61763          	bne	a2,a5,17a10 <_ZN17compiler_builtins3mem6memcpy17h90d0c987d2ef5a79E+0x13e>
   17a06:	4781                	li	a5,0
   17a08:	4e01                	li	t3,0
   17a0a:	4e81                	li	t4,0
   17a0c:	0050                	addi	a2,sp,4
   17a0e:	a819                	j	17a24 <_ZN17compiler_builtins3mem6memcpy17h90d0c987d2ef5a79E+0x152>
   17a10:	0043c783          	lbu	a5,4(t2)
   17a14:	0053ce03          	lbu	t3,5(t2)
   17a18:	4e89                	li	t4,2
   17a1a:	00f10223          	sb	a5,4(sp)
   17a1e:	0e22                	slli	t3,t3,0x8
   17a20:	00210613          	addi	a2,sp,2
   17a24:	00147593          	andi	a1,s0,1
   17a28:	e199                	bnez	a1,17a2e <_ZN17compiler_builtins3mem6memcpy17h90d0c987d2ef5a79E+0x15c>
   17a2a:	4601                	li	a2,0
   17a2c:	a821                	j	17a44 <_ZN17compiler_builtins3mem6memcpy17h90d0c987d2ef5a79E+0x172>
   17a2e:	0391                	addi	t2,t2,4
   17a30:	93f6                	add	t2,t2,t4
   17a32:	0003c583          	lbu	a1,0(t2)
   17a36:	00b60023          	sb	a1,0(a2)
   17a3a:	00214603          	lbu	a2,2(sp)
   17a3e:	00414783          	lbu	a5,4(sp)
   17a42:	0642                	slli	a2,a2,0x10
   17a44:	8e5d                	or	a2,a2,a5
   17a46:	0102d5b3          	srl	a1,t0,a6
   17a4a:	410007b3          	neg	a5,a6
   17a4e:	00ce6633          	or	a2,t3,a2
   17a52:	8be1                	andi	a5,a5,24
   17a54:	00f61633          	sll	a2,a2,a5
   17a58:	8dd1                	or	a1,a1,a2
   17a5a:	00b32023          	sw	a1,0(t1)
   17a5e:	00e405b3          	add	a1,s0,a4
   17a62:	0038f613          	andi	a2,a7,3
   17a66:	00c68733          	add	a4,a3,a2
   17a6a:	ece6efe3          	bltu	a3,a4,17948 <_ZN17compiler_builtins3mem6memcpy17h90d0c987d2ef5a79E+0x76>
   17a6e:	b5ed                	j	17958 <_ZN17compiler_builtins3mem6memcpy17h90d0c987d2ef5a79E+0x86>
