
target/riscv32imc-unknown-none-elf/opt-s/examples/complex_no_dynamic:     file format elf32-littleriscv

Sections:
Idx Name          Size      VMA       LMA       File off  Algn
  0 .eh_frame     00000060  000100d4  000100d4  000000d4  2**2
                  CONTENTS, ALLOC, LOAD, READONLY, DATA
  1 .text         00009c88  00011134  00011134  00000134  2**1
                  CONTENTS, ALLOC, LOAD, READONLY, CODE
  2 .comment      00000099  00000000  00000000  00009dbc  2**0
                  CONTENTS, READONLY
  3 .riscv.attributes 0000002f  00000000  00000000  00009e55  2**0
                  CONTENTS, READONLY

Disassembly of section .text:

00011134 <_ZN18complex_no_dynamic3app17h00949a7b4f76fb68E>:
   11134:	7119                	addi	sp,sp,-128
   11136:	de86                	sw	ra,124(sp)
   11138:	dca2                	sw	s0,120(sp)
   1113a:	daa6                	sw	s1,116(sp)
   1113c:	842a                	mv	s0,a0
   1113e:	850a                	mv	a0,sp
   11140:	03c00613          	li	a2,60
   11144:	0000a097          	auipc	ra,0xa
   11148:	ad2080e7          	jalr	-1326(ra) # 1ac16 <memcpy>
   1114c:	1868                	addi	a0,sp,60
   1114e:	03800613          	li	a2,56
   11152:	4581                	li	a1,0
   11154:	0000a097          	auipc	ra,0xa
   11158:	a56080e7          	jalr	-1450(ra) # 1abaa <memset>
   1115c:	6509                	lui	a0,0x2
   1115e:	458d                	li	a1,3
   11160:	860a                	mv	a2,sp
   11162:	03c00693          	li	a3,60
   11166:	d1950793          	addi	a5,a0,-743 # 1d19 <.Lline_table_start1+0x1aee>
   1116a:	4711                	li	a4,4
   1116c:	4489                	li	s1,2
   1116e:	853e                	mv	a0,a5
   11170:	00000073          	ecall
   11174:	02950a63          	beq	a0,s1,111a8 <_ZN18complex_no_dynamic3app17h00949a7b4f76fb68E+0x74>
   11178:	458d                	li	a1,3
   1117a:	1870                	addi	a2,sp,60
   1117c:	03800693          	li	a3,56
   11180:	470d                	li	a4,3
   11182:	853e                	mv	a0,a5
   11184:	00000073          	ecall
   11188:	02950063          	beq	a0,s1,111a8 <_ZN18complex_no_dynamic3app17h00949a7b4f76fb68E+0x74>
   1118c:	6509                	lui	a0,0x2
   1118e:	458d                	li	a1,3
   11190:	460d                	li	a2,3
   11192:	d1950493          	addi	s1,a0,-743 # 1d19 <.Lline_table_start1+0x1aee>
   11196:	4709                	li	a4,2
   11198:	07f00793          	li	a5,127
   1119c:	8526                	mv	a0,s1
   1119e:	4681                	li	a3,0
   111a0:	00000073          	ecall
   111a4:	02a7ed63          	bltu	a5,a0,111de <_ZN18complex_no_dynamic3app17h00949a7b4f76fb68E+0xaa>
   111a8:	872e                	mv	a4,a1
   111aa:	4601                	li	a2,0
   111ac:	4681                	li	a3,0
   111ae:	4505                	li	a0,1
   111b0:	6789                	lui	a5,0x2
   111b2:	458d                	li	a1,3
   111b4:	00a40023          	sb	a0,0(s0)
   111b8:	c058                	sw	a4,4(s0)
   111ba:	d1978793          	addi	a5,a5,-743 # 1d19 <.Lline_table_start1+0x1aee>
   111be:	470d                	li	a4,3
   111c0:	853e                	mv	a0,a5
   111c2:	00000073          	ecall
   111c6:	458d                	li	a1,3
   111c8:	4711                	li	a4,4
   111ca:	853e                	mv	a0,a5
   111cc:	4601                	li	a2,0
   111ce:	4681                	li	a3,0
   111d0:	00000073          	ecall
   111d4:	50f6                	lw	ra,124(sp)
   111d6:	5466                	lw	s0,120(sp)
   111d8:	54d6                	lw	s1,116(sp)
   111da:	6109                	addi	sp,sp,128
   111dc:	8082                	ret
   111de:	8526                	mv	a0,s1
   111e0:	4601                	li	a2,0
   111e2:	4681                	li	a3,0
   111e4:	458d                	li	a1,3
   111e6:	470d                	li	a4,3
   111e8:	00000073          	ecall
   111ec:	458d                	li	a1,3
   111ee:	470d                	li	a4,3
   111f0:	8526                	mv	a0,s1
   111f2:	4601                	li	a2,0
   111f4:	4681                	li	a3,0
   111f6:	00000073          	ecall
   111fa:	00140513          	addi	a0,s0,1
   111fe:	186c                	addi	a1,sp,60
   11200:	03800613          	li	a2,56
   11204:	0000a097          	auipc	ra,0xa
   11208:	a12080e7          	jalr	-1518(ra) # 1ac16 <memcpy>
   1120c:	8526                	mv	a0,s1
   1120e:	4601                	li	a2,0
   11210:	4681                	li	a3,0
   11212:	00040023          	sb	zero,0(s0)
   11216:	458d                	li	a1,3
   11218:	470d                	li	a4,3
   1121a:	00000073          	ecall
   1121e:	458d                	li	a1,3
   11220:	4711                	li	a4,4
   11222:	8526                	mv	a0,s1
   11224:	4601                	li	a2,0
   11226:	4681                	li	a3,0
   11228:	00000073          	ecall
   1122c:	b765                	j	111d4 <_ZN18complex_no_dynamic3app17h00949a7b4f76fb68E+0xa0>

0001122e <_ZN18complex_no_dynamic3app17h00fa707c601f136bE>:
   1122e:	7175                	addi	sp,sp,-144
   11230:	c706                	sw	ra,140(sp)
   11232:	c522                	sw	s0,136(sp)
   11234:	c326                	sw	s1,132(sp)
   11236:	842a                	mv	s0,a0
   11238:	00b10513          	addi	a0,sp,11
   1123c:	03100613          	li	a2,49
   11240:	0000a097          	auipc	ra,0xa
   11244:	9d6080e7          	jalr	-1578(ra) # 1ac16 <memcpy>
   11248:	1868                	addi	a0,sp,60
   1124a:	04800613          	li	a2,72
   1124e:	4581                	li	a1,0
   11250:	0000a097          	auipc	ra,0xa
   11254:	95a080e7          	jalr	-1702(ra) # 1abaa <memset>
   11258:	6509                	lui	a0,0x2
   1125a:	4591                	li	a1,4
   1125c:	00b10613          	addi	a2,sp,11
   11260:	03100693          	li	a3,49
   11264:	80e50793          	addi	a5,a0,-2034 # 180e <.Lline_table_start1+0x15e3>
   11268:	4711                	li	a4,4
   1126a:	4489                	li	s1,2
   1126c:	853e                	mv	a0,a5
   1126e:	00000073          	ecall
   11272:	02950a63          	beq	a0,s1,112a6 <_ZN18complex_no_dynamic3app17h00fa707c601f136bE+0x78>
   11276:	458d                	li	a1,3
   11278:	1870                	addi	a2,sp,60
   1127a:	04800693          	li	a3,72
   1127e:	470d                	li	a4,3
   11280:	853e                	mv	a0,a5
   11282:	00000073          	ecall
   11286:	02950063          	beq	a0,s1,112a6 <_ZN18complex_no_dynamic3app17h00fa707c601f136bE+0x78>
   1128a:	6509                	lui	a0,0x2
   1128c:	4591                	li	a1,4
   1128e:	460d                	li	a2,3
   11290:	80e50493          	addi	s1,a0,-2034 # 180e <.Lline_table_start1+0x15e3>
   11294:	4709                	li	a4,2
   11296:	07f00793          	li	a5,127
   1129a:	8526                	mv	a0,s1
   1129c:	4681                	li	a3,0
   1129e:	00000073          	ecall
   112a2:	02a7ed63          	bltu	a5,a0,112dc <_ZN18complex_no_dynamic3app17h00fa707c601f136bE+0xae>
   112a6:	872e                	mv	a4,a1
   112a8:	4601                	li	a2,0
   112aa:	4681                	li	a3,0
   112ac:	4505                	li	a0,1
   112ae:	6789                	lui	a5,0x2
   112b0:	458d                	li	a1,3
   112b2:	00a40023          	sb	a0,0(s0)
   112b6:	c058                	sw	a4,4(s0)
   112b8:	80e78793          	addi	a5,a5,-2034 # 180e <.Lline_table_start1+0x15e3>
   112bc:	470d                	li	a4,3
   112be:	853e                	mv	a0,a5
   112c0:	00000073          	ecall
   112c4:	4591                	li	a1,4
   112c6:	4711                	li	a4,4
   112c8:	853e                	mv	a0,a5
   112ca:	4601                	li	a2,0
   112cc:	4681                	li	a3,0
   112ce:	00000073          	ecall
   112d2:	40ba                	lw	ra,140(sp)
   112d4:	442a                	lw	s0,136(sp)
   112d6:	449a                	lw	s1,132(sp)
   112d8:	6149                	addi	sp,sp,144
   112da:	8082                	ret
   112dc:	8526                	mv	a0,s1
   112de:	4601                	li	a2,0
   112e0:	4681                	li	a3,0
   112e2:	458d                	li	a1,3
   112e4:	470d                	li	a4,3
   112e6:	00000073          	ecall
   112ea:	458d                	li	a1,3
   112ec:	470d                	li	a4,3
   112ee:	8526                	mv	a0,s1
   112f0:	4601                	li	a2,0
   112f2:	4681                	li	a3,0
   112f4:	00000073          	ecall
   112f8:	00140513          	addi	a0,s0,1
   112fc:	186c                	addi	a1,sp,60
   112fe:	04800613          	li	a2,72
   11302:	0000a097          	auipc	ra,0xa
   11306:	914080e7          	jalr	-1772(ra) # 1ac16 <memcpy>
   1130a:	8526                	mv	a0,s1
   1130c:	4601                	li	a2,0
   1130e:	4681                	li	a3,0
   11310:	00040023          	sb	zero,0(s0)
   11314:	458d                	li	a1,3
   11316:	470d                	li	a4,3
   11318:	00000073          	ecall
   1131c:	4591                	li	a1,4
   1131e:	4711                	li	a4,4
   11320:	8526                	mv	a0,s1
   11322:	4601                	li	a2,0
   11324:	4681                	li	a3,0
   11326:	00000073          	ecall
   1132a:	b765                	j	112d2 <_ZN18complex_no_dynamic3app17h00fa707c601f136bE+0xa4>

0001132c <_ZN18complex_no_dynamic3app17h02eb63f641427a8dE>:
   1132c:	7119                	addi	sp,sp,-128
   1132e:	de86                	sw	ra,124(sp)
   11330:	dca2                	sw	s0,120(sp)
   11332:	842a                	mv	s0,a0
   11334:	00510513          	addi	a0,sp,5
   11338:	02200613          	li	a2,34
   1133c:	0000a097          	auipc	ra,0xa
   11340:	8da080e7          	jalr	-1830(ra) # 1ac16 <memcpy>
   11344:	02710513          	addi	a0,sp,39
   11348:	05100613          	li	a2,81
   1134c:	4581                	li	a1,0
   1134e:	0000a097          	auipc	ra,0xa
   11352:	85c080e7          	jalr	-1956(ra) # 1abaa <memset>
   11356:	55e00513          	li	a0,1374
   1135a:	45a5                	li	a1,9
   1135c:	00510613          	addi	a2,sp,5
   11360:	02200693          	li	a3,34
   11364:	4711                	li	a4,4
   11366:	4789                	li	a5,2
   11368:	00000073          	ecall
   1136c:	02f50a63          	beq	a0,a5,113a0 <_ZN18complex_no_dynamic3app17h02eb63f641427a8dE+0x74>
   11370:	55e00513          	li	a0,1374
   11374:	45a5                	li	a1,9
   11376:	02710613          	addi	a2,sp,39
   1137a:	05100693          	li	a3,81
   1137e:	470d                	li	a4,3
   11380:	00000073          	ecall
   11384:	00f50e63          	beq	a0,a5,113a0 <_ZN18complex_no_dynamic3app17h02eb63f641427a8dE+0x74>
   11388:	55e00513          	li	a0,1374
   1138c:	45a5                	li	a1,9
   1138e:	4625                	li	a2,9
   11390:	4709                	li	a4,2
   11392:	07f00793          	li	a5,127
   11396:	4681                	li	a3,0
   11398:	00000073          	ecall
   1139c:	02a7ea63          	bltu	a5,a0,113d0 <_ZN18complex_no_dynamic3app17h02eb63f641427a8dE+0xa4>
   113a0:	4601                	li	a2,0
   113a2:	4681                	li	a3,0
   113a4:	4705                	li	a4,1
   113a6:	55e00513          	li	a0,1374
   113aa:	00e40023          	sb	a4,0(s0)
   113ae:	c04c                	sw	a1,4(s0)
   113b0:	45a5                	li	a1,9
   113b2:	470d                	li	a4,3
   113b4:	00000073          	ecall
   113b8:	55e00513          	li	a0,1374
   113bc:	45a5                	li	a1,9
   113be:	4711                	li	a4,4
   113c0:	4601                	li	a2,0
   113c2:	4681                	li	a3,0
   113c4:	00000073          	ecall
   113c8:	50f6                	lw	ra,124(sp)
   113ca:	5466                	lw	s0,120(sp)
   113cc:	6109                	addi	sp,sp,128
   113ce:	8082                	ret
   113d0:	4601                	li	a2,0
   113d2:	4681                	li	a3,0
   113d4:	55e00513          	li	a0,1374
   113d8:	45a5                	li	a1,9
   113da:	470d                	li	a4,3
   113dc:	00000073          	ecall
   113e0:	55e00513          	li	a0,1374
   113e4:	45a5                	li	a1,9
   113e6:	470d                	li	a4,3
   113e8:	4601                	li	a2,0
   113ea:	4681                	li	a3,0
   113ec:	00000073          	ecall
   113f0:	00140513          	addi	a0,s0,1
   113f4:	02710593          	addi	a1,sp,39
   113f8:	05100613          	li	a2,81
   113fc:	0000a097          	auipc	ra,0xa
   11400:	81a080e7          	jalr	-2022(ra) # 1ac16 <memcpy>
   11404:	4601                	li	a2,0
   11406:	4681                	li	a3,0
   11408:	00040023          	sb	zero,0(s0)
   1140c:	55e00513          	li	a0,1374
   11410:	45a5                	li	a1,9
   11412:	470d                	li	a4,3
   11414:	00000073          	ecall
   11418:	55e00513          	li	a0,1374
   1141c:	45a5                	li	a1,9
   1141e:	4711                	li	a4,4
   11420:	4601                	li	a2,0
   11422:	4681                	li	a3,0
   11424:	00000073          	ecall
   11428:	b745                	j	113c8 <_ZN18complex_no_dynamic3app17h02eb63f641427a8dE+0x9c>

0001142a <_ZN18complex_no_dynamic3app17h0393dca313eb15a2E>:
   1142a:	7175                	addi	sp,sp,-144
   1142c:	c706                	sw	ra,140(sp)
   1142e:	c522                	sw	s0,136(sp)
   11430:	c326                	sw	s1,132(sp)
   11432:	842a                	mv	s0,a0
   11434:	00b10513          	addi	a0,sp,11
   11438:	4671                	li	a2,28
   1143a:	00009097          	auipc	ra,0x9
   1143e:	7dc080e7          	jalr	2012(ra) # 1ac16 <memcpy>
   11442:	02710513          	addi	a0,sp,39
   11446:	05d00613          	li	a2,93
   1144a:	4581                	li	a1,0
   1144c:	00009097          	auipc	ra,0x9
   11450:	75e080e7          	jalr	1886(ra) # 1abaa <memset>
   11454:	6505                	lui	a0,0x1
   11456:	45a1                	li	a1,8
   11458:	00b10613          	addi	a2,sp,11
   1145c:	46f1                	li	a3,28
   1145e:	c3e50793          	addi	a5,a0,-962 # c3e <.Lline_table_start1+0xa13>
   11462:	4711                	li	a4,4
   11464:	4489                	li	s1,2
   11466:	853e                	mv	a0,a5
   11468:	00000073          	ecall
   1146c:	02950b63          	beq	a0,s1,114a2 <_ZN18complex_no_dynamic3app17h0393dca313eb15a2E+0x78>
   11470:	4595                	li	a1,5
   11472:	02710613          	addi	a2,sp,39
   11476:	05d00693          	li	a3,93
   1147a:	470d                	li	a4,3
   1147c:	853e                	mv	a0,a5
   1147e:	00000073          	ecall
   11482:	02950063          	beq	a0,s1,114a2 <_ZN18complex_no_dynamic3app17h0393dca313eb15a2E+0x78>
   11486:	6505                	lui	a0,0x1
   11488:	45a1                	li	a1,8
   1148a:	4615                	li	a2,5
   1148c:	c3e50493          	addi	s1,a0,-962 # c3e <.Lline_table_start1+0xa13>
   11490:	4709                	li	a4,2
   11492:	07f00793          	li	a5,127
   11496:	8526                	mv	a0,s1
   11498:	4681                	li	a3,0
   1149a:	00000073          	ecall
   1149e:	02a7ed63          	bltu	a5,a0,114d8 <_ZN18complex_no_dynamic3app17h0393dca313eb15a2E+0xae>
   114a2:	872e                	mv	a4,a1
   114a4:	4601                	li	a2,0
   114a6:	4681                	li	a3,0
   114a8:	4505                	li	a0,1
   114aa:	6785                	lui	a5,0x1
   114ac:	4595                	li	a1,5
   114ae:	00a40023          	sb	a0,0(s0)
   114b2:	c058                	sw	a4,4(s0)
   114b4:	c3e78793          	addi	a5,a5,-962 # c3e <.Lline_table_start1+0xa13>
   114b8:	470d                	li	a4,3
   114ba:	853e                	mv	a0,a5
   114bc:	00000073          	ecall
   114c0:	45a1                	li	a1,8
   114c2:	4711                	li	a4,4
   114c4:	853e                	mv	a0,a5
   114c6:	4601                	li	a2,0
   114c8:	4681                	li	a3,0
   114ca:	00000073          	ecall
   114ce:	40ba                	lw	ra,140(sp)
   114d0:	442a                	lw	s0,136(sp)
   114d2:	449a                	lw	s1,132(sp)
   114d4:	6149                	addi	sp,sp,144
   114d6:	8082                	ret
   114d8:	8526                	mv	a0,s1
   114da:	4601                	li	a2,0
   114dc:	4681                	li	a3,0
   114de:	4595                	li	a1,5
   114e0:	470d                	li	a4,3
   114e2:	00000073          	ecall
   114e6:	4595                	li	a1,5
   114e8:	470d                	li	a4,3
   114ea:	8526                	mv	a0,s1
   114ec:	4601                	li	a2,0
   114ee:	4681                	li	a3,0
   114f0:	00000073          	ecall
   114f4:	00140513          	addi	a0,s0,1
   114f8:	02710593          	addi	a1,sp,39
   114fc:	05d00613          	li	a2,93
   11500:	00009097          	auipc	ra,0x9
   11504:	716080e7          	jalr	1814(ra) # 1ac16 <memcpy>
   11508:	8526                	mv	a0,s1
   1150a:	4601                	li	a2,0
   1150c:	4681                	li	a3,0
   1150e:	00040023          	sb	zero,0(s0)
   11512:	4595                	li	a1,5
   11514:	470d                	li	a4,3
   11516:	00000073          	ecall
   1151a:	45a1                	li	a1,8
   1151c:	4711                	li	a4,4
   1151e:	8526                	mv	a0,s1
   11520:	4601                	li	a2,0
   11522:	4681                	li	a3,0
   11524:	00000073          	ecall
   11528:	b75d                	j	114ce <_ZN18complex_no_dynamic3app17h0393dca313eb15a2E+0xa4>

0001152a <_ZN18complex_no_dynamic3app17h03a08d014d64fabdE>:
   1152a:	7119                	addi	sp,sp,-128
   1152c:	de86                	sw	ra,124(sp)
   1152e:	dca2                	sw	s0,120(sp)
   11530:	842a                	mv	s0,a0
   11532:	00d10513          	addi	a0,sp,13
   11536:	05000613          	li	a2,80
   1153a:	00009097          	auipc	ra,0x9
   1153e:	6dc080e7          	jalr	1756(ra) # 1ac16 <memcpy>
   11542:	05d10513          	addi	a0,sp,93
   11546:	466d                	li	a2,27
   11548:	4581                	li	a1,0
   1154a:	00009097          	auipc	ra,0x9
   1154e:	660080e7          	jalr	1632(ra) # 1abaa <memset>
   11552:	3d900513          	li	a0,985
   11556:	4585                	li	a1,1
   11558:	00d10613          	addi	a2,sp,13
   1155c:	05000693          	li	a3,80
   11560:	4711                	li	a4,4
   11562:	4789                	li	a5,2
   11564:	00000073          	ecall
   11568:	02f50963          	beq	a0,a5,1159a <_ZN18complex_no_dynamic3app17h03a08d014d64fabdE+0x70>
   1156c:	3d900513          	li	a0,985
   11570:	4589                	li	a1,2
   11572:	05d10613          	addi	a2,sp,93
   11576:	46ed                	li	a3,27
   11578:	470d                	li	a4,3
   1157a:	00000073          	ecall
   1157e:	00f50e63          	beq	a0,a5,1159a <_ZN18complex_no_dynamic3app17h03a08d014d64fabdE+0x70>
   11582:	3d900513          	li	a0,985
   11586:	4585                	li	a1,1
   11588:	4609                	li	a2,2
   1158a:	4709                	li	a4,2
   1158c:	07f00793          	li	a5,127
   11590:	4681                	li	a3,0
   11592:	00000073          	ecall
   11596:	02a7ea63          	bltu	a5,a0,115ca <_ZN18complex_no_dynamic3app17h03a08d014d64fabdE+0xa0>
   1159a:	4601                	li	a2,0
   1159c:	4681                	li	a3,0
   1159e:	4705                	li	a4,1
   115a0:	3d900513          	li	a0,985
   115a4:	00e40023          	sb	a4,0(s0)
   115a8:	c04c                	sw	a1,4(s0)
   115aa:	4589                	li	a1,2
   115ac:	470d                	li	a4,3
   115ae:	00000073          	ecall
   115b2:	3d900513          	li	a0,985
   115b6:	4585                	li	a1,1
   115b8:	4711                	li	a4,4
   115ba:	4601                	li	a2,0
   115bc:	4681                	li	a3,0
   115be:	00000073          	ecall
   115c2:	50f6                	lw	ra,124(sp)
   115c4:	5466                	lw	s0,120(sp)
   115c6:	6109                	addi	sp,sp,128
   115c8:	8082                	ret
   115ca:	4601                	li	a2,0
   115cc:	4681                	li	a3,0
   115ce:	3d900513          	li	a0,985
   115d2:	4589                	li	a1,2
   115d4:	470d                	li	a4,3
   115d6:	00000073          	ecall
   115da:	3d900513          	li	a0,985
   115de:	4589                	li	a1,2
   115e0:	470d                	li	a4,3
   115e2:	4601                	li	a2,0
   115e4:	4681                	li	a3,0
   115e6:	00000073          	ecall
   115ea:	00140513          	addi	a0,s0,1
   115ee:	05d10593          	addi	a1,sp,93
   115f2:	466d                	li	a2,27
   115f4:	00009097          	auipc	ra,0x9
   115f8:	622080e7          	jalr	1570(ra) # 1ac16 <memcpy>
   115fc:	4601                	li	a2,0
   115fe:	4681                	li	a3,0
   11600:	00040023          	sb	zero,0(s0)
   11604:	3d900513          	li	a0,985
   11608:	4589                	li	a1,2
   1160a:	470d                	li	a4,3
   1160c:	00000073          	ecall
   11610:	3d900513          	li	a0,985
   11614:	4585                	li	a1,1
   11616:	4711                	li	a4,4
   11618:	4601                	li	a2,0
   1161a:	4681                	li	a3,0
   1161c:	00000073          	ecall
   11620:	b74d                	j	115c2 <_ZN18complex_no_dynamic3app17h03a08d014d64fabdE+0x98>

00011622 <_ZN18complex_no_dynamic3app17h05f7f701aec031caE>:
   11622:	711d                	addi	sp,sp,-96
   11624:	ce86                	sw	ra,92(sp)
   11626:	cca2                	sw	s0,88(sp)
   11628:	caa6                	sw	s1,84(sp)
   1162a:	842a                	mv	s0,a0
   1162c:	00610513          	addi	a0,sp,6
   11630:	02300613          	li	a2,35
   11634:	00009097          	auipc	ra,0x9
   11638:	5e2080e7          	jalr	1506(ra) # 1ac16 <memcpy>
   1163c:	02910513          	addi	a0,sp,41
   11640:	02b00613          	li	a2,43
   11644:	4581                	li	a1,0
   11646:	00009097          	auipc	ra,0x9
   1164a:	564080e7          	jalr	1380(ra) # 1abaa <memset>
   1164e:	6505                	lui	a0,0x1
   11650:	4489                	li	s1,2
   11652:	4589                	li	a1,2
   11654:	00610613          	addi	a2,sp,6
   11658:	d5d50793          	addi	a5,a0,-675 # d5d <.Lline_table_start1+0xb32>
   1165c:	02300693          	li	a3,35
   11660:	4711                	li	a4,4
   11662:	853e                	mv	a0,a5
   11664:	00000073          	ecall
   11668:	02950b63          	beq	a0,s1,1169e <_ZN18complex_no_dynamic3app17h05f7f701aec031caE+0x7c>
   1166c:	02910613          	addi	a2,sp,41
   11670:	02b00693          	li	a3,43
   11674:	470d                	li	a4,3
   11676:	853e                	mv	a0,a5
   11678:	4581                	li	a1,0
   1167a:	00000073          	ecall
   1167e:	02950063          	beq	a0,s1,1169e <_ZN18complex_no_dynamic3app17h05f7f701aec031caE+0x7c>
   11682:	6505                	lui	a0,0x1
   11684:	4589                	li	a1,2
   11686:	d5d50493          	addi	s1,a0,-675 # d5d <.Lline_table_start1+0xb32>
   1168a:	4709                	li	a4,2
   1168c:	07f00793          	li	a5,127
   11690:	8526                	mv	a0,s1
   11692:	4601                	li	a2,0
   11694:	4681                	li	a3,0
   11696:	00000073          	ecall
   1169a:	02a7ed63          	bltu	a5,a0,116d4 <_ZN18complex_no_dynamic3app17h05f7f701aec031caE+0xb2>
   1169e:	872e                	mv	a4,a1
   116a0:	4581                	li	a1,0
   116a2:	4601                	li	a2,0
   116a4:	4681                	li	a3,0
   116a6:	4505                	li	a0,1
   116a8:	6785                	lui	a5,0x1
   116aa:	00a40023          	sb	a0,0(s0)
   116ae:	c058                	sw	a4,4(s0)
   116b0:	d5d78793          	addi	a5,a5,-675 # d5d <.Lline_table_start1+0xb32>
   116b4:	470d                	li	a4,3
   116b6:	853e                	mv	a0,a5
   116b8:	00000073          	ecall
   116bc:	4589                	li	a1,2
   116be:	4711                	li	a4,4
   116c0:	853e                	mv	a0,a5
   116c2:	4601                	li	a2,0
   116c4:	4681                	li	a3,0
   116c6:	00000073          	ecall
   116ca:	40f6                	lw	ra,92(sp)
   116cc:	4466                	lw	s0,88(sp)
   116ce:	44d6                	lw	s1,84(sp)
   116d0:	6125                	addi	sp,sp,96
   116d2:	8082                	ret
   116d4:	470d                	li	a4,3
   116d6:	8526                	mv	a0,s1
   116d8:	4581                	li	a1,0
   116da:	4601                	li	a2,0
   116dc:	4681                	li	a3,0
   116de:	00000073          	ecall
   116e2:	470d                	li	a4,3
   116e4:	8526                	mv	a0,s1
   116e6:	4581                	li	a1,0
   116e8:	4601                	li	a2,0
   116ea:	4681                	li	a3,0
   116ec:	00000073          	ecall
   116f0:	00140513          	addi	a0,s0,1
   116f4:	02910593          	addi	a1,sp,41
   116f8:	02b00613          	li	a2,43
   116fc:	00009097          	auipc	ra,0x9
   11700:	51a080e7          	jalr	1306(ra) # 1ac16 <memcpy>
   11704:	8526                	mv	a0,s1
   11706:	4581                	li	a1,0
   11708:	4601                	li	a2,0
   1170a:	4681                	li	a3,0
   1170c:	00040023          	sb	zero,0(s0)
   11710:	470d                	li	a4,3
   11712:	00000073          	ecall
   11716:	4589                	li	a1,2
   11718:	4711                	li	a4,4
   1171a:	8526                	mv	a0,s1
   1171c:	4601                	li	a2,0
   1171e:	4681                	li	a3,0
   11720:	00000073          	ecall
   11724:	b75d                	j	116ca <_ZN18complex_no_dynamic3app17h05f7f701aec031caE+0xa8>

00011726 <_ZN18complex_no_dynamic3app17h0c09a874c458a673E>:
   11726:	711d                	addi	sp,sp,-96
   11728:	ce86                	sw	ra,92(sp)
   1172a:	cca2                	sw	s0,88(sp)
   1172c:	842a                	mv	s0,a0
   1172e:	00f10513          	addi	a0,sp,15
   11732:	02b00613          	li	a2,43
   11736:	00009097          	auipc	ra,0x9
   1173a:	4e0080e7          	jalr	1248(ra) # 1ac16 <memcpy>
   1173e:	03a10513          	addi	a0,sp,58
   11742:	4679                	li	a2,30
   11744:	4581                	li	a1,0
   11746:	00009097          	auipc	ra,0x9
   1174a:	464080e7          	jalr	1124(ra) # 1abaa <memset>
   1174e:	7e300513          	li	a0,2019
   11752:	459d                	li	a1,7
   11754:	00f10613          	addi	a2,sp,15
   11758:	02b00693          	li	a3,43
   1175c:	4711                	li	a4,4
   1175e:	4789                	li	a5,2
   11760:	00000073          	ecall
   11764:	02f50963          	beq	a0,a5,11796 <_ZN18complex_no_dynamic3app17h0c09a874c458a673E+0x70>
   11768:	7e300513          	li	a0,2019
   1176c:	45a1                	li	a1,8
   1176e:	03a10613          	addi	a2,sp,58
   11772:	46f9                	li	a3,30
   11774:	470d                	li	a4,3
   11776:	00000073          	ecall
   1177a:	00f50e63          	beq	a0,a5,11796 <_ZN18complex_no_dynamic3app17h0c09a874c458a673E+0x70>
   1177e:	7e300513          	li	a0,2019
   11782:	459d                	li	a1,7
   11784:	4621                	li	a2,8
   11786:	4709                	li	a4,2
   11788:	07f00793          	li	a5,127
   1178c:	4681                	li	a3,0
   1178e:	00000073          	ecall
   11792:	02a7ea63          	bltu	a5,a0,117c6 <_ZN18complex_no_dynamic3app17h0c09a874c458a673E+0xa0>
   11796:	4601                	li	a2,0
   11798:	4681                	li	a3,0
   1179a:	4705                	li	a4,1
   1179c:	7e300513          	li	a0,2019
   117a0:	00e40023          	sb	a4,0(s0)
   117a4:	c04c                	sw	a1,4(s0)
   117a6:	45a1                	li	a1,8
   117a8:	470d                	li	a4,3
   117aa:	00000073          	ecall
   117ae:	7e300513          	li	a0,2019
   117b2:	459d                	li	a1,7
   117b4:	4711                	li	a4,4
   117b6:	4601                	li	a2,0
   117b8:	4681                	li	a3,0
   117ba:	00000073          	ecall
   117be:	40f6                	lw	ra,92(sp)
   117c0:	4466                	lw	s0,88(sp)
   117c2:	6125                	addi	sp,sp,96
   117c4:	8082                	ret
   117c6:	4601                	li	a2,0
   117c8:	4681                	li	a3,0
   117ca:	7e300513          	li	a0,2019
   117ce:	45a1                	li	a1,8
   117d0:	470d                	li	a4,3
   117d2:	00000073          	ecall
   117d6:	7e300513          	li	a0,2019
   117da:	45a1                	li	a1,8
   117dc:	470d                	li	a4,3
   117de:	4601                	li	a2,0
   117e0:	4681                	li	a3,0
   117e2:	00000073          	ecall
   117e6:	00140513          	addi	a0,s0,1
   117ea:	03a10593          	addi	a1,sp,58
   117ee:	4679                	li	a2,30
   117f0:	00009097          	auipc	ra,0x9
   117f4:	426080e7          	jalr	1062(ra) # 1ac16 <memcpy>
   117f8:	4601                	li	a2,0
   117fa:	4681                	li	a3,0
   117fc:	00040023          	sb	zero,0(s0)
   11800:	7e300513          	li	a0,2019
   11804:	45a1                	li	a1,8
   11806:	470d                	li	a4,3
   11808:	00000073          	ecall
   1180c:	7e300513          	li	a0,2019
   11810:	459d                	li	a1,7
   11812:	4711                	li	a4,4
   11814:	4601                	li	a2,0
   11816:	4681                	li	a3,0
   11818:	00000073          	ecall
   1181c:	b74d                	j	117be <_ZN18complex_no_dynamic3app17h0c09a874c458a673E+0x98>

0001181e <_ZN18complex_no_dynamic3app17h0db037d35b96210bE>:
   1181e:	711d                	addi	sp,sp,-96
   11820:	ce86                	sw	ra,92(sp)
   11822:	cca2                	sw	s0,88(sp)
   11824:	caa6                	sw	s1,84(sp)
   11826:	842a                	mv	s0,a0
   11828:	00110513          	addi	a0,sp,1
   1182c:	02400613          	li	a2,36
   11830:	00009097          	auipc	ra,0x9
   11834:	3e6080e7          	jalr	998(ra) # 1ac16 <memcpy>
   11838:	02510513          	addi	a0,sp,37
   1183c:	02f00613          	li	a2,47
   11840:	4581                	li	a1,0
   11842:	00009097          	auipc	ra,0x9
   11846:	368080e7          	jalr	872(ra) # 1abaa <memset>
   1184a:	6505                	lui	a0,0x1
   1184c:	4599                	li	a1,6
   1184e:	00110613          	addi	a2,sp,1
   11852:	02400693          	li	a3,36
   11856:	27350793          	addi	a5,a0,627 # 1273 <.Lline_table_start1+0x1048>
   1185a:	4711                	li	a4,4
   1185c:	4489                	li	s1,2
   1185e:	853e                	mv	a0,a5
   11860:	00000073          	ecall
   11864:	02950b63          	beq	a0,s1,1189a <_ZN18complex_no_dynamic3app17h0db037d35b96210bE+0x7c>
   11868:	45a5                	li	a1,9
   1186a:	02510613          	addi	a2,sp,37
   1186e:	02f00693          	li	a3,47
   11872:	470d                	li	a4,3
   11874:	853e                	mv	a0,a5
   11876:	00000073          	ecall
   1187a:	02950063          	beq	a0,s1,1189a <_ZN18complex_no_dynamic3app17h0db037d35b96210bE+0x7c>
   1187e:	6505                	lui	a0,0x1
   11880:	4599                	li	a1,6
   11882:	4625                	li	a2,9
   11884:	27350493          	addi	s1,a0,627 # 1273 <.Lline_table_start1+0x1048>
   11888:	4709                	li	a4,2
   1188a:	07f00793          	li	a5,127
   1188e:	8526                	mv	a0,s1
   11890:	4681                	li	a3,0
   11892:	00000073          	ecall
   11896:	02a7ed63          	bltu	a5,a0,118d0 <_ZN18complex_no_dynamic3app17h0db037d35b96210bE+0xb2>
   1189a:	872e                	mv	a4,a1
   1189c:	4601                	li	a2,0
   1189e:	4681                	li	a3,0
   118a0:	4505                	li	a0,1
   118a2:	6785                	lui	a5,0x1
   118a4:	45a5                	li	a1,9
   118a6:	00a40023          	sb	a0,0(s0)
   118aa:	c058                	sw	a4,4(s0)
   118ac:	27378793          	addi	a5,a5,627 # 1273 <.Lline_table_start1+0x1048>
   118b0:	470d                	li	a4,3
   118b2:	853e                	mv	a0,a5
   118b4:	00000073          	ecall
   118b8:	4599                	li	a1,6
   118ba:	4711                	li	a4,4
   118bc:	853e                	mv	a0,a5
   118be:	4601                	li	a2,0
   118c0:	4681                	li	a3,0
   118c2:	00000073          	ecall
   118c6:	40f6                	lw	ra,92(sp)
   118c8:	4466                	lw	s0,88(sp)
   118ca:	44d6                	lw	s1,84(sp)
   118cc:	6125                	addi	sp,sp,96
   118ce:	8082                	ret
   118d0:	8526                	mv	a0,s1
   118d2:	4601                	li	a2,0
   118d4:	4681                	li	a3,0
   118d6:	45a5                	li	a1,9
   118d8:	470d                	li	a4,3
   118da:	00000073          	ecall
   118de:	45a5                	li	a1,9
   118e0:	470d                	li	a4,3
   118e2:	8526                	mv	a0,s1
   118e4:	4601                	li	a2,0
   118e6:	4681                	li	a3,0
   118e8:	00000073          	ecall
   118ec:	00140513          	addi	a0,s0,1
   118f0:	02510593          	addi	a1,sp,37
   118f4:	02f00613          	li	a2,47
   118f8:	00009097          	auipc	ra,0x9
   118fc:	31e080e7          	jalr	798(ra) # 1ac16 <memcpy>
   11900:	8526                	mv	a0,s1
   11902:	4601                	li	a2,0
   11904:	4681                	li	a3,0
   11906:	00040023          	sb	zero,0(s0)
   1190a:	45a5                	li	a1,9
   1190c:	470d                	li	a4,3
   1190e:	00000073          	ecall
   11912:	4599                	li	a1,6
   11914:	4711                	li	a4,4
   11916:	8526                	mv	a0,s1
   11918:	4601                	li	a2,0
   1191a:	4681                	li	a3,0
   1191c:	00000073          	ecall
   11920:	b75d                	j	118c6 <_ZN18complex_no_dynamic3app17h0db037d35b96210bE+0xa8>

00011922 <_ZN18complex_no_dynamic3app17h124459315d2a5064E>:
   11922:	7175                	addi	sp,sp,-144
   11924:	c706                	sw	ra,140(sp)
   11926:	c522                	sw	s0,136(sp)
   11928:	c326                	sw	s1,132(sp)
   1192a:	842a                	mv	s0,a0
   1192c:	0068                	addi	a0,sp,12
   1192e:	02700613          	li	a2,39
   11932:	00009097          	auipc	ra,0x9
   11936:	2e4080e7          	jalr	740(ra) # 1ac16 <memcpy>
   1193a:	03310513          	addi	a0,sp,51
   1193e:	05100613          	li	a2,81
   11942:	4581                	li	a1,0
   11944:	00009097          	auipc	ra,0x9
   11948:	266080e7          	jalr	614(ra) # 1abaa <memset>
   1194c:	6505                	lui	a0,0x1
   1194e:	0070                	addi	a2,sp,12
   11950:	02700693          	li	a3,39
   11954:	a3650793          	addi	a5,a0,-1482 # a36 <.Lline_table_start1+0x80b>
   11958:	4711                	li	a4,4
   1195a:	4489                	li	s1,2
   1195c:	853e                	mv	a0,a5
   1195e:	4581                	li	a1,0
   11960:	00000073          	ecall
   11964:	02950b63          	beq	a0,s1,1199a <_ZN18complex_no_dynamic3app17h124459315d2a5064E+0x78>
   11968:	4591                	li	a1,4
   1196a:	03310613          	addi	a2,sp,51
   1196e:	05100693          	li	a3,81
   11972:	470d                	li	a4,3
   11974:	853e                	mv	a0,a5
   11976:	00000073          	ecall
   1197a:	02950063          	beq	a0,s1,1199a <_ZN18complex_no_dynamic3app17h124459315d2a5064E+0x78>
   1197e:	6505                	lui	a0,0x1
   11980:	4611                	li	a2,4
   11982:	a3650493          	addi	s1,a0,-1482 # a36 <.Lline_table_start1+0x80b>
   11986:	4709                	li	a4,2
   11988:	07f00793          	li	a5,127
   1198c:	8526                	mv	a0,s1
   1198e:	4581                	li	a1,0
   11990:	4681                	li	a3,0
   11992:	00000073          	ecall
   11996:	02a7ec63          	bltu	a5,a0,119ce <_ZN18complex_no_dynamic3app17h124459315d2a5064E+0xac>
   1199a:	4505                	li	a0,1
   1199c:	6605                	lui	a2,0x1
   1199e:	00a40023          	sb	a0,0(s0)
   119a2:	c04c                	sw	a1,4(s0)
   119a4:	a3660793          	addi	a5,a2,-1482 # a36 <.Lline_table_start1+0x80b>
   119a8:	4591                	li	a1,4
   119aa:	470d                	li	a4,3
   119ac:	853e                	mv	a0,a5
   119ae:	4601                	li	a2,0
   119b0:	4681                	li	a3,0
   119b2:	00000073          	ecall
   119b6:	4711                	li	a4,4
   119b8:	853e                	mv	a0,a5
   119ba:	4581                	li	a1,0
   119bc:	4601                	li	a2,0
   119be:	4681                	li	a3,0
   119c0:	00000073          	ecall
   119c4:	40ba                	lw	ra,140(sp)
   119c6:	442a                	lw	s0,136(sp)
   119c8:	449a                	lw	s1,132(sp)
   119ca:	6149                	addi	sp,sp,144
   119cc:	8082                	ret
   119ce:	8526                	mv	a0,s1
   119d0:	4601                	li	a2,0
   119d2:	4681                	li	a3,0
   119d4:	4591                	li	a1,4
   119d6:	470d                	li	a4,3
   119d8:	00000073          	ecall
   119dc:	4591                	li	a1,4
   119de:	470d                	li	a4,3
   119e0:	8526                	mv	a0,s1
   119e2:	4601                	li	a2,0
   119e4:	4681                	li	a3,0
   119e6:	00000073          	ecall
   119ea:	00140513          	addi	a0,s0,1
   119ee:	03310593          	addi	a1,sp,51
   119f2:	05100613          	li	a2,81
   119f6:	00009097          	auipc	ra,0x9
   119fa:	220080e7          	jalr	544(ra) # 1ac16 <memcpy>
   119fe:	00040023          	sb	zero,0(s0)
   11a02:	4591                	li	a1,4
   11a04:	470d                	li	a4,3
   11a06:	8526                	mv	a0,s1
   11a08:	4601                	li	a2,0
   11a0a:	4681                	li	a3,0
   11a0c:	00000073          	ecall
   11a10:	4711                	li	a4,4
   11a12:	8526                	mv	a0,s1
   11a14:	4581                	li	a1,0
   11a16:	4601                	li	a2,0
   11a18:	4681                	li	a3,0
   11a1a:	00000073          	ecall
   11a1e:	b75d                	j	119c4 <_ZN18complex_no_dynamic3app17h124459315d2a5064E+0xa2>

00011a20 <_ZN18complex_no_dynamic3app17h12746d1551633fe9E>:
   11a20:	7159                	addi	sp,sp,-112
   11a22:	d686                	sw	ra,108(sp)
   11a24:	d4a2                	sw	s0,104(sp)
   11a26:	d2a6                	sw	s1,100(sp)
   11a28:	842a                	mv	s0,a0
   11a2a:	00b10513          	addi	a0,sp,11
   11a2e:	04100613          	li	a2,65
   11a32:	00009097          	auipc	ra,0x9
   11a36:	1e4080e7          	jalr	484(ra) # 1ac16 <memcpy>
   11a3a:	00e8                	addi	a0,sp,76
   11a3c:	4661                	li	a2,24
   11a3e:	4581                	li	a1,0
   11a40:	00009097          	auipc	ra,0x9
   11a44:	16a080e7          	jalr	362(ra) # 1abaa <memset>
   11a48:	6509                	lui	a0,0x2
   11a4a:	4585                	li	a1,1
   11a4c:	00b10613          	addi	a2,sp,11
   11a50:	04100693          	li	a3,65
   11a54:	15650793          	addi	a5,a0,342 # 2156 <.Lline_table_start1+0x1f2b>
   11a58:	4711                	li	a4,4
   11a5a:	4489                	li	s1,2
   11a5c:	853e                	mv	a0,a5
   11a5e:	00000073          	ecall
   11a62:	02950963          	beq	a0,s1,11a94 <_ZN18complex_no_dynamic3app17h12746d1551633fe9E+0x74>
   11a66:	45a5                	li	a1,9
   11a68:	00f0                	addi	a2,sp,76
   11a6a:	46e1                	li	a3,24
   11a6c:	470d                	li	a4,3
   11a6e:	853e                	mv	a0,a5
   11a70:	00000073          	ecall
   11a74:	02950063          	beq	a0,s1,11a94 <_ZN18complex_no_dynamic3app17h12746d1551633fe9E+0x74>
   11a78:	6509                	lui	a0,0x2
   11a7a:	4585                	li	a1,1
   11a7c:	4625                	li	a2,9
   11a7e:	15650493          	addi	s1,a0,342 # 2156 <.Lline_table_start1+0x1f2b>
   11a82:	4709                	li	a4,2
   11a84:	07f00793          	li	a5,127
   11a88:	8526                	mv	a0,s1
   11a8a:	4681                	li	a3,0
   11a8c:	00000073          	ecall
   11a90:	02a7ed63          	bltu	a5,a0,11aca <_ZN18complex_no_dynamic3app17h12746d1551633fe9E+0xaa>
   11a94:	872e                	mv	a4,a1
   11a96:	4601                	li	a2,0
   11a98:	4681                	li	a3,0
   11a9a:	4505                	li	a0,1
   11a9c:	6789                	lui	a5,0x2
   11a9e:	45a5                	li	a1,9
   11aa0:	00a40023          	sb	a0,0(s0)
   11aa4:	c058                	sw	a4,4(s0)
   11aa6:	15678793          	addi	a5,a5,342 # 2156 <.Lline_table_start1+0x1f2b>
   11aaa:	470d                	li	a4,3
   11aac:	853e                	mv	a0,a5
   11aae:	00000073          	ecall
   11ab2:	4585                	li	a1,1
   11ab4:	4711                	li	a4,4
   11ab6:	853e                	mv	a0,a5
   11ab8:	4601                	li	a2,0
   11aba:	4681                	li	a3,0
   11abc:	00000073          	ecall
   11ac0:	50b6                	lw	ra,108(sp)
   11ac2:	5426                	lw	s0,104(sp)
   11ac4:	5496                	lw	s1,100(sp)
   11ac6:	6165                	addi	sp,sp,112
   11ac8:	8082                	ret
   11aca:	8526                	mv	a0,s1
   11acc:	4601                	li	a2,0
   11ace:	4681                	li	a3,0
   11ad0:	45a5                	li	a1,9
   11ad2:	470d                	li	a4,3
   11ad4:	00000073          	ecall
   11ad8:	45a5                	li	a1,9
   11ada:	470d                	li	a4,3
   11adc:	8526                	mv	a0,s1
   11ade:	4601                	li	a2,0
   11ae0:	4681                	li	a3,0
   11ae2:	00000073          	ecall
   11ae6:	00140513          	addi	a0,s0,1
   11aea:	00ec                	addi	a1,sp,76
   11aec:	4661                	li	a2,24
   11aee:	00009097          	auipc	ra,0x9
   11af2:	128080e7          	jalr	296(ra) # 1ac16 <memcpy>
   11af6:	8526                	mv	a0,s1
   11af8:	4601                	li	a2,0
   11afa:	4681                	li	a3,0
   11afc:	00040023          	sb	zero,0(s0)
   11b00:	45a5                	li	a1,9
   11b02:	470d                	li	a4,3
   11b04:	00000073          	ecall
   11b08:	4585                	li	a1,1
   11b0a:	4711                	li	a4,4
   11b0c:	8526                	mv	a0,s1
   11b0e:	4601                	li	a2,0
   11b10:	4681                	li	a3,0
   11b12:	00000073          	ecall
   11b16:	b76d                	j	11ac0 <_ZN18complex_no_dynamic3app17h12746d1551633fe9E+0xa0>

00011b18 <_ZN18complex_no_dynamic3app17h14f2c020a4fed1c8E>:
   11b18:	7159                	addi	sp,sp,-112
   11b1a:	d686                	sw	ra,108(sp)
   11b1c:	d4a2                	sw	s0,104(sp)
   11b1e:	d2a6                	sw	s1,100(sp)
   11b20:	842a                	mv	s0,a0
   11b22:	00f10513          	addi	a0,sp,15
   11b26:	463d                	li	a2,15
   11b28:	00009097          	auipc	ra,0x9
   11b2c:	0ee080e7          	jalr	238(ra) # 1ac16 <memcpy>
   11b30:	01e10513          	addi	a0,sp,30
   11b34:	04600613          	li	a2,70
   11b38:	4581                	li	a1,0
   11b3a:	00009097          	auipc	ra,0x9
   11b3e:	070080e7          	jalr	112(ra) # 1abaa <memset>
   11b42:	6509                	lui	a0,0x2
   11b44:	45a5                	li	a1,9
   11b46:	00f10613          	addi	a2,sp,15
   11b4a:	46bd                	li	a3,15
   11b4c:	d7e50793          	addi	a5,a0,-642 # 1d7e <.Lline_table_start1+0x1b53>
   11b50:	4711                	li	a4,4
   11b52:	4489                	li	s1,2
   11b54:	853e                	mv	a0,a5
   11b56:	00000073          	ecall
   11b5a:	02950b63          	beq	a0,s1,11b90 <_ZN18complex_no_dynamic3app17h14f2c020a4fed1c8E+0x78>
   11b5e:	4589                	li	a1,2
   11b60:	01e10613          	addi	a2,sp,30
   11b64:	04600693          	li	a3,70
   11b68:	470d                	li	a4,3
   11b6a:	853e                	mv	a0,a5
   11b6c:	00000073          	ecall
   11b70:	02950063          	beq	a0,s1,11b90 <_ZN18complex_no_dynamic3app17h14f2c020a4fed1c8E+0x78>
   11b74:	6509                	lui	a0,0x2
   11b76:	45a5                	li	a1,9
   11b78:	4609                	li	a2,2
   11b7a:	d7e50493          	addi	s1,a0,-642 # 1d7e <.Lline_table_start1+0x1b53>
   11b7e:	4709                	li	a4,2
   11b80:	07f00793          	li	a5,127
   11b84:	8526                	mv	a0,s1
   11b86:	4681                	li	a3,0
   11b88:	00000073          	ecall
   11b8c:	02a7ed63          	bltu	a5,a0,11bc6 <_ZN18complex_no_dynamic3app17h14f2c020a4fed1c8E+0xae>
   11b90:	872e                	mv	a4,a1
   11b92:	4601                	li	a2,0
   11b94:	4681                	li	a3,0
   11b96:	4505                	li	a0,1
   11b98:	6789                	lui	a5,0x2
   11b9a:	4589                	li	a1,2
   11b9c:	00a40023          	sb	a0,0(s0)
   11ba0:	c058                	sw	a4,4(s0)
   11ba2:	d7e78793          	addi	a5,a5,-642 # 1d7e <.Lline_table_start1+0x1b53>
   11ba6:	470d                	li	a4,3
   11ba8:	853e                	mv	a0,a5
   11baa:	00000073          	ecall
   11bae:	45a5                	li	a1,9
   11bb0:	4711                	li	a4,4
   11bb2:	853e                	mv	a0,a5
   11bb4:	4601                	li	a2,0
   11bb6:	4681                	li	a3,0
   11bb8:	00000073          	ecall
   11bbc:	50b6                	lw	ra,108(sp)
   11bbe:	5426                	lw	s0,104(sp)
   11bc0:	5496                	lw	s1,100(sp)
   11bc2:	6165                	addi	sp,sp,112
   11bc4:	8082                	ret
   11bc6:	8526                	mv	a0,s1
   11bc8:	4601                	li	a2,0
   11bca:	4681                	li	a3,0
   11bcc:	4589                	li	a1,2
   11bce:	470d                	li	a4,3
   11bd0:	00000073          	ecall
   11bd4:	4589                	li	a1,2
   11bd6:	470d                	li	a4,3
   11bd8:	8526                	mv	a0,s1
   11bda:	4601                	li	a2,0
   11bdc:	4681                	li	a3,0
   11bde:	00000073          	ecall
   11be2:	00140513          	addi	a0,s0,1
   11be6:	01e10593          	addi	a1,sp,30
   11bea:	04600613          	li	a2,70
   11bee:	00009097          	auipc	ra,0x9
   11bf2:	028080e7          	jalr	40(ra) # 1ac16 <memcpy>
   11bf6:	8526                	mv	a0,s1
   11bf8:	4601                	li	a2,0
   11bfa:	4681                	li	a3,0
   11bfc:	00040023          	sb	zero,0(s0)
   11c00:	4589                	li	a1,2
   11c02:	470d                	li	a4,3
   11c04:	00000073          	ecall
   11c08:	45a5                	li	a1,9
   11c0a:	4711                	li	a4,4
   11c0c:	8526                	mv	a0,s1
   11c0e:	4601                	li	a2,0
   11c10:	4681                	li	a3,0
   11c12:	00000073          	ecall
   11c16:	b75d                	j	11bbc <_ZN18complex_no_dynamic3app17h14f2c020a4fed1c8E+0xa4>

00011c18 <_ZN18complex_no_dynamic3app17h16fb513908777d1eE>:
   11c18:	711d                	addi	sp,sp,-96
   11c1a:	ce86                	sw	ra,92(sp)
   11c1c:	cca2                	sw	s0,88(sp)
   11c1e:	caa6                	sw	s1,84(sp)
   11c20:	842a                	mv	s0,a0
   11c22:	00610513          	addi	a0,sp,6
   11c26:	03400613          	li	a2,52
   11c2a:	00009097          	auipc	ra,0x9
   11c2e:	fec080e7          	jalr	-20(ra) # 1ac16 <memcpy>
   11c32:	03a10513          	addi	a0,sp,58
   11c36:	4669                	li	a2,26
   11c38:	4581                	li	a1,0
   11c3a:	00009097          	auipc	ra,0x9
   11c3e:	f70080e7          	jalr	-144(ra) # 1abaa <memset>
   11c42:	6505                	lui	a0,0x1
   11c44:	00610613          	addi	a2,sp,6
   11c48:	03400693          	li	a3,52
   11c4c:	2cc50793          	addi	a5,a0,716 # 12cc <.Lline_table_start1+0x10a1>
   11c50:	4711                	li	a4,4
   11c52:	4489                	li	s1,2
   11c54:	853e                	mv	a0,a5
   11c56:	4581                	li	a1,0
   11c58:	00000073          	ecall
   11c5c:	02950a63          	beq	a0,s1,11c90 <_ZN18complex_no_dynamic3app17h16fb513908777d1eE+0x78>
   11c60:	4595                	li	a1,5
   11c62:	03a10613          	addi	a2,sp,58
   11c66:	46e9                	li	a3,26
   11c68:	470d                	li	a4,3
   11c6a:	853e                	mv	a0,a5
   11c6c:	00000073          	ecall
   11c70:	02950063          	beq	a0,s1,11c90 <_ZN18complex_no_dynamic3app17h16fb513908777d1eE+0x78>
   11c74:	6505                	lui	a0,0x1
   11c76:	4615                	li	a2,5
   11c78:	2cc50493          	addi	s1,a0,716 # 12cc <.Lline_table_start1+0x10a1>
   11c7c:	4709                	li	a4,2
   11c7e:	07f00793          	li	a5,127
   11c82:	8526                	mv	a0,s1
   11c84:	4581                	li	a1,0
   11c86:	4681                	li	a3,0
   11c88:	00000073          	ecall
   11c8c:	02a7ec63          	bltu	a5,a0,11cc4 <_ZN18complex_no_dynamic3app17h16fb513908777d1eE+0xac>
   11c90:	4505                	li	a0,1
   11c92:	6605                	lui	a2,0x1
   11c94:	00a40023          	sb	a0,0(s0)
   11c98:	c04c                	sw	a1,4(s0)
   11c9a:	2cc60793          	addi	a5,a2,716 # 12cc <.Lline_table_start1+0x10a1>
   11c9e:	4595                	li	a1,5
   11ca0:	470d                	li	a4,3
   11ca2:	853e                	mv	a0,a5
   11ca4:	4601                	li	a2,0
   11ca6:	4681                	li	a3,0
   11ca8:	00000073          	ecall
   11cac:	4711                	li	a4,4
   11cae:	853e                	mv	a0,a5
   11cb0:	4581                	li	a1,0
   11cb2:	4601                	li	a2,0
   11cb4:	4681                	li	a3,0
   11cb6:	00000073          	ecall
   11cba:	40f6                	lw	ra,92(sp)
   11cbc:	4466                	lw	s0,88(sp)
   11cbe:	44d6                	lw	s1,84(sp)
   11cc0:	6125                	addi	sp,sp,96
   11cc2:	8082                	ret
   11cc4:	8526                	mv	a0,s1
   11cc6:	4601                	li	a2,0
   11cc8:	4681                	li	a3,0
   11cca:	4595                	li	a1,5
   11ccc:	470d                	li	a4,3
   11cce:	00000073          	ecall
   11cd2:	4595                	li	a1,5
   11cd4:	470d                	li	a4,3
   11cd6:	8526                	mv	a0,s1
   11cd8:	4601                	li	a2,0
   11cda:	4681                	li	a3,0
   11cdc:	00000073          	ecall
   11ce0:	00140513          	addi	a0,s0,1
   11ce4:	03a10593          	addi	a1,sp,58
   11ce8:	4669                	li	a2,26
   11cea:	00009097          	auipc	ra,0x9
   11cee:	f2c080e7          	jalr	-212(ra) # 1ac16 <memcpy>
   11cf2:	00040023          	sb	zero,0(s0)
   11cf6:	4595                	li	a1,5
   11cf8:	470d                	li	a4,3
   11cfa:	8526                	mv	a0,s1
   11cfc:	4601                	li	a2,0
   11cfe:	4681                	li	a3,0
   11d00:	00000073          	ecall
   11d04:	4711                	li	a4,4
   11d06:	8526                	mv	a0,s1
   11d08:	4581                	li	a1,0
   11d0a:	4601                	li	a2,0
   11d0c:	4681                	li	a3,0
   11d0e:	00000073          	ecall
   11d12:	b765                	j	11cba <_ZN18complex_no_dynamic3app17h16fb513908777d1eE+0xa2>

00011d14 <_ZN18complex_no_dynamic3app17h1aa2b27641644fa9E>:
   11d14:	7119                	addi	sp,sp,-128
   11d16:	de86                	sw	ra,124(sp)
   11d18:	dca2                	sw	s0,120(sp)
   11d1a:	daa6                	sw	s1,116(sp)
   11d1c:	842a                	mv	s0,a0
   11d1e:	0028                	addi	a0,sp,8
   11d20:	04900613          	li	a2,73
   11d24:	00009097          	auipc	ra,0x9
   11d28:	ef2080e7          	jalr	-270(ra) # 1ac16 <memcpy>
   11d2c:	05110513          	addi	a0,sp,81
   11d30:	02300613          	li	a2,35
   11d34:	4581                	li	a1,0
   11d36:	00009097          	auipc	ra,0x9
   11d3a:	e74080e7          	jalr	-396(ra) # 1abaa <memset>
   11d3e:	6505                	lui	a0,0x1
   11d40:	459d                	li	a1,7
   11d42:	0030                	addi	a2,sp,8
   11d44:	04900693          	li	a3,73
   11d48:	55150793          	addi	a5,a0,1361 # 1551 <.Lline_table_start1+0x1326>
   11d4c:	4711                	li	a4,4
   11d4e:	4489                	li	s1,2
   11d50:	853e                	mv	a0,a5
   11d52:	00000073          	ecall
   11d56:	02950b63          	beq	a0,s1,11d8c <_ZN18complex_no_dynamic3app17h1aa2b27641644fa9E+0x78>
   11d5a:	4585                	li	a1,1
   11d5c:	05110613          	addi	a2,sp,81
   11d60:	02300693          	li	a3,35
   11d64:	470d                	li	a4,3
   11d66:	853e                	mv	a0,a5
   11d68:	00000073          	ecall
   11d6c:	02950063          	beq	a0,s1,11d8c <_ZN18complex_no_dynamic3app17h1aa2b27641644fa9E+0x78>
   11d70:	6505                	lui	a0,0x1
   11d72:	459d                	li	a1,7
   11d74:	4605                	li	a2,1
   11d76:	55150493          	addi	s1,a0,1361 # 1551 <.Lline_table_start1+0x1326>
   11d7a:	4709                	li	a4,2
   11d7c:	07f00793          	li	a5,127
   11d80:	8526                	mv	a0,s1
   11d82:	4681                	li	a3,0
   11d84:	00000073          	ecall
   11d88:	02a7ed63          	bltu	a5,a0,11dc2 <_ZN18complex_no_dynamic3app17h1aa2b27641644fa9E+0xae>
   11d8c:	872e                	mv	a4,a1
   11d8e:	4601                	li	a2,0
   11d90:	4681                	li	a3,0
   11d92:	4505                	li	a0,1
   11d94:	6785                	lui	a5,0x1
   11d96:	4585                	li	a1,1
   11d98:	00a40023          	sb	a0,0(s0)
   11d9c:	c058                	sw	a4,4(s0)
   11d9e:	55178793          	addi	a5,a5,1361 # 1551 <.Lline_table_start1+0x1326>
   11da2:	470d                	li	a4,3
   11da4:	853e                	mv	a0,a5
   11da6:	00000073          	ecall
   11daa:	459d                	li	a1,7
   11dac:	4711                	li	a4,4
   11dae:	853e                	mv	a0,a5
   11db0:	4601                	li	a2,0
   11db2:	4681                	li	a3,0
   11db4:	00000073          	ecall
   11db8:	50f6                	lw	ra,124(sp)
   11dba:	5466                	lw	s0,120(sp)
   11dbc:	54d6                	lw	s1,116(sp)
   11dbe:	6109                	addi	sp,sp,128
   11dc0:	8082                	ret
   11dc2:	8526                	mv	a0,s1
   11dc4:	4601                	li	a2,0
   11dc6:	4681                	li	a3,0
   11dc8:	4585                	li	a1,1
   11dca:	470d                	li	a4,3
   11dcc:	00000073          	ecall
   11dd0:	4585                	li	a1,1
   11dd2:	470d                	li	a4,3
   11dd4:	8526                	mv	a0,s1
   11dd6:	4601                	li	a2,0
   11dd8:	4681                	li	a3,0
   11dda:	00000073          	ecall
   11dde:	00140513          	addi	a0,s0,1
   11de2:	05110593          	addi	a1,sp,81
   11de6:	02300613          	li	a2,35
   11dea:	00009097          	auipc	ra,0x9
   11dee:	e2c080e7          	jalr	-468(ra) # 1ac16 <memcpy>
   11df2:	8526                	mv	a0,s1
   11df4:	4601                	li	a2,0
   11df6:	4681                	li	a3,0
   11df8:	00040023          	sb	zero,0(s0)
   11dfc:	4585                	li	a1,1
   11dfe:	470d                	li	a4,3
   11e00:	00000073          	ecall
   11e04:	459d                	li	a1,7
   11e06:	4711                	li	a4,4
   11e08:	8526                	mv	a0,s1
   11e0a:	4601                	li	a2,0
   11e0c:	4681                	li	a3,0
   11e0e:	00000073          	ecall
   11e12:	b75d                	j	11db8 <_ZN18complex_no_dynamic3app17h1aa2b27641644fa9E+0xa4>

00011e14 <_ZN18complex_no_dynamic3app17h1ad3abee1a903415E>:
   11e14:	711d                	addi	sp,sp,-96
   11e16:	ce86                	sw	ra,92(sp)
   11e18:	cca2                	sw	s0,88(sp)
   11e1a:	842a                	mv	s0,a0
   11e1c:	00710513          	addi	a0,sp,7
   11e20:	02c00613          	li	a2,44
   11e24:	00009097          	auipc	ra,0x9
   11e28:	df2080e7          	jalr	-526(ra) # 1ac16 <memcpy>
   11e2c:	03310513          	addi	a0,sp,51
   11e30:	02500613          	li	a2,37
   11e34:	4581                	li	a1,0
   11e36:	00009097          	auipc	ra,0x9
   11e3a:	d74080e7          	jalr	-652(ra) # 1abaa <memset>
   11e3e:	77f00513          	li	a0,1919
   11e42:	458d                	li	a1,3
   11e44:	00710613          	addi	a2,sp,7
   11e48:	02c00693          	li	a3,44
   11e4c:	4711                	li	a4,4
   11e4e:	4789                	li	a5,2
   11e50:	00000073          	ecall
   11e54:	02f50a63          	beq	a0,a5,11e88 <_ZN18complex_no_dynamic3app17h1ad3abee1a903415E+0x74>
   11e58:	77f00513          	li	a0,1919
   11e5c:	03310613          	addi	a2,sp,51
   11e60:	02500693          	li	a3,37
   11e64:	470d                	li	a4,3
   11e66:	4581                	li	a1,0
   11e68:	00000073          	ecall
   11e6c:	00f50e63          	beq	a0,a5,11e88 <_ZN18complex_no_dynamic3app17h1ad3abee1a903415E+0x74>
   11e70:	77f00513          	li	a0,1919
   11e74:	458d                	li	a1,3
   11e76:	4709                	li	a4,2
   11e78:	07f00793          	li	a5,127
   11e7c:	4601                	li	a2,0
   11e7e:	4681                	li	a3,0
   11e80:	00000073          	ecall
   11e84:	02a7eb63          	bltu	a5,a0,11eba <_ZN18complex_no_dynamic3app17h1ad3abee1a903415E+0xa6>
   11e88:	872e                	mv	a4,a1
   11e8a:	4581                	li	a1,0
   11e8c:	4601                	li	a2,0
   11e8e:	4681                	li	a3,0
   11e90:	4505                	li	a0,1
   11e92:	00a40023          	sb	a0,0(s0)
   11e96:	c058                	sw	a4,4(s0)
   11e98:	77f00513          	li	a0,1919
   11e9c:	470d                	li	a4,3
   11e9e:	00000073          	ecall
   11ea2:	77f00513          	li	a0,1919
   11ea6:	458d                	li	a1,3
   11ea8:	4711                	li	a4,4
   11eaa:	4601                	li	a2,0
   11eac:	4681                	li	a3,0
   11eae:	00000073          	ecall
   11eb2:	40f6                	lw	ra,92(sp)
   11eb4:	4466                	lw	s0,88(sp)
   11eb6:	6125                	addi	sp,sp,96
   11eb8:	8082                	ret
   11eba:	4581                	li	a1,0
   11ebc:	4601                	li	a2,0
   11ebe:	4681                	li	a3,0
   11ec0:	77f00513          	li	a0,1919
   11ec4:	470d                	li	a4,3
   11ec6:	00000073          	ecall
   11eca:	77f00513          	li	a0,1919
   11ece:	470d                	li	a4,3
   11ed0:	4581                	li	a1,0
   11ed2:	4601                	li	a2,0
   11ed4:	4681                	li	a3,0
   11ed6:	00000073          	ecall
   11eda:	00140513          	addi	a0,s0,1
   11ede:	03310593          	addi	a1,sp,51
   11ee2:	02500613          	li	a2,37
   11ee6:	00009097          	auipc	ra,0x9
   11eea:	d30080e7          	jalr	-720(ra) # 1ac16 <memcpy>
   11eee:	4581                	li	a1,0
   11ef0:	4601                	li	a2,0
   11ef2:	4681                	li	a3,0
   11ef4:	00040023          	sb	zero,0(s0)
   11ef8:	77f00513          	li	a0,1919
   11efc:	470d                	li	a4,3
   11efe:	00000073          	ecall
   11f02:	77f00513          	li	a0,1919
   11f06:	458d                	li	a1,3
   11f08:	4711                	li	a4,4
   11f0a:	4601                	li	a2,0
   11f0c:	4681                	li	a3,0
   11f0e:	00000073          	ecall
   11f12:	b745                	j	11eb2 <_ZN18complex_no_dynamic3app17h1ad3abee1a903415E+0x9e>

00011f14 <_ZN18complex_no_dynamic3app17h1b253de7c2d224c1E>:
   11f14:	715d                	addi	sp,sp,-80
   11f16:	c686                	sw	ra,76(sp)
   11f18:	c4a2                	sw	s0,72(sp)
   11f1a:	c2a6                	sw	s1,68(sp)
   11f1c:	842a                	mv	s0,a0
   11f1e:	00210513          	addi	a0,sp,2
   11f22:	03200613          	li	a2,50
   11f26:	00009097          	auipc	ra,0x9
   11f2a:	cf0080e7          	jalr	-784(ra) # 1ac16 <memcpy>
   11f2e:	da02                	sw	zero,52(sp)
   11f30:	dc02                	sw	zero,56(sp)
   11f32:	de02                	sw	zero,60(sp)
   11f34:	c082                	sw	zero,64(sp)
   11f36:	6509                	lui	a0,0x2
   11f38:	4591                	li	a1,4
   11f3a:	00210613          	addi	a2,sp,2
   11f3e:	03200693          	li	a3,50
   11f42:	9d650793          	addi	a5,a0,-1578 # 19d6 <.Lline_table_start1+0x17ab>
   11f46:	4711                	li	a4,4
   11f48:	4489                	li	s1,2
   11f4a:	853e                	mv	a0,a5
   11f4c:	00000073          	ecall
   11f50:	02950963          	beq	a0,s1,11f82 <_ZN18complex_no_dynamic3app17h1b253de7c2d224c1E+0x6e>
   11f54:	45a5                	li	a1,9
   11f56:	1850                	addi	a2,sp,52
   11f58:	46c1                	li	a3,16
   11f5a:	470d                	li	a4,3
   11f5c:	853e                	mv	a0,a5
   11f5e:	00000073          	ecall
   11f62:	02950063          	beq	a0,s1,11f82 <_ZN18complex_no_dynamic3app17h1b253de7c2d224c1E+0x6e>
   11f66:	6509                	lui	a0,0x2
   11f68:	4591                	li	a1,4
   11f6a:	4625                	li	a2,9
   11f6c:	9d650493          	addi	s1,a0,-1578 # 19d6 <.Lline_table_start1+0x17ab>
   11f70:	4709                	li	a4,2
   11f72:	07f00793          	li	a5,127
   11f76:	8526                	mv	a0,s1
   11f78:	4681                	li	a3,0
   11f7a:	00000073          	ecall
   11f7e:	02a7ed63          	bltu	a5,a0,11fb8 <_ZN18complex_no_dynamic3app17h1b253de7c2d224c1E+0xa4>
   11f82:	872e                	mv	a4,a1
   11f84:	4601                	li	a2,0
   11f86:	4681                	li	a3,0
   11f88:	4505                	li	a0,1
   11f8a:	6789                	lui	a5,0x2
   11f8c:	45a5                	li	a1,9
   11f8e:	00a40023          	sb	a0,0(s0)
   11f92:	c058                	sw	a4,4(s0)
   11f94:	9d678793          	addi	a5,a5,-1578 # 19d6 <.Lline_table_start1+0x17ab>
   11f98:	470d                	li	a4,3
   11f9a:	853e                	mv	a0,a5
   11f9c:	00000073          	ecall
   11fa0:	4591                	li	a1,4
   11fa2:	4711                	li	a4,4
   11fa4:	853e                	mv	a0,a5
   11fa6:	4601                	li	a2,0
   11fa8:	4681                	li	a3,0
   11faa:	00000073          	ecall
   11fae:	40b6                	lw	ra,76(sp)
   11fb0:	4426                	lw	s0,72(sp)
   11fb2:	4496                	lw	s1,68(sp)
   11fb4:	6161                	addi	sp,sp,80
   11fb6:	8082                	ret
   11fb8:	8526                	mv	a0,s1
   11fba:	4601                	li	a2,0
   11fbc:	4681                	li	a3,0
   11fbe:	45a5                	li	a1,9
   11fc0:	470d                	li	a4,3
   11fc2:	00000073          	ecall
   11fc6:	45a5                	li	a1,9
   11fc8:	470d                	li	a4,3
   11fca:	8526                	mv	a0,s1
   11fcc:	4601                	li	a2,0
   11fce:	4681                	li	a3,0
   11fd0:	00000073          	ecall
   11fd4:	00140513          	addi	a0,s0,1
   11fd8:	184c                	addi	a1,sp,52
   11fda:	4641                	li	a2,16
   11fdc:	00009097          	auipc	ra,0x9
   11fe0:	c3a080e7          	jalr	-966(ra) # 1ac16 <memcpy>
   11fe4:	8526                	mv	a0,s1
   11fe6:	4601                	li	a2,0
   11fe8:	4681                	li	a3,0
   11fea:	00040023          	sb	zero,0(s0)
   11fee:	45a5                	li	a1,9
   11ff0:	470d                	li	a4,3
   11ff2:	00000073          	ecall
   11ff6:	4591                	li	a1,4
   11ff8:	4711                	li	a4,4
   11ffa:	8526                	mv	a0,s1
   11ffc:	4601                	li	a2,0
   11ffe:	4681                	li	a3,0
   12000:	00000073          	ecall
   12004:	b76d                	j	11fae <_ZN18complex_no_dynamic3app17h1b253de7c2d224c1E+0x9a>

00012006 <_ZN18complex_no_dynamic3app17h1d047b7af8b4ff17E>:
   12006:	7119                	addi	sp,sp,-128
   12008:	de86                	sw	ra,124(sp)
   1200a:	dca2                	sw	s0,120(sp)
   1200c:	daa6                	sw	s1,116(sp)
   1200e:	842a                	mv	s0,a0
   12010:	00110513          	addi	a0,sp,1
   12014:	03200613          	li	a2,50
   12018:	00009097          	auipc	ra,0x9
   1201c:	bfe080e7          	jalr	-1026(ra) # 1ac16 <memcpy>
   12020:	03310513          	addi	a0,sp,51
   12024:	04100613          	li	a2,65
   12028:	4581                	li	a1,0
   1202a:	00009097          	auipc	ra,0x9
   1202e:	b80080e7          	jalr	-1152(ra) # 1abaa <memset>
   12032:	6505                	lui	a0,0x1
   12034:	459d                	li	a1,7
   12036:	00110613          	addi	a2,sp,1
   1203a:	03200693          	li	a3,50
   1203e:	91d50793          	addi	a5,a0,-1763 # 91d <.Lline_table_start1+0x6f2>
   12042:	4711                	li	a4,4
   12044:	4489                	li	s1,2
   12046:	853e                	mv	a0,a5
   12048:	00000073          	ecall
   1204c:	02950b63          	beq	a0,s1,12082 <_ZN18complex_no_dynamic3app17h1d047b7af8b4ff17E+0x7c>
   12050:	4595                	li	a1,5
   12052:	03310613          	addi	a2,sp,51
   12056:	04100693          	li	a3,65
   1205a:	470d                	li	a4,3
   1205c:	853e                	mv	a0,a5
   1205e:	00000073          	ecall
   12062:	02950063          	beq	a0,s1,12082 <_ZN18complex_no_dynamic3app17h1d047b7af8b4ff17E+0x7c>
   12066:	6505                	lui	a0,0x1
   12068:	459d                	li	a1,7
   1206a:	4615                	li	a2,5
   1206c:	91d50493          	addi	s1,a0,-1763 # 91d <.Lline_table_start1+0x6f2>
   12070:	4709                	li	a4,2
   12072:	07f00793          	li	a5,127
   12076:	8526                	mv	a0,s1
   12078:	4681                	li	a3,0
   1207a:	00000073          	ecall
   1207e:	02a7ed63          	bltu	a5,a0,120b8 <_ZN18complex_no_dynamic3app17h1d047b7af8b4ff17E+0xb2>
   12082:	872e                	mv	a4,a1
   12084:	4601                	li	a2,0
   12086:	4681                	li	a3,0
   12088:	4505                	li	a0,1
   1208a:	6785                	lui	a5,0x1
   1208c:	4595                	li	a1,5
   1208e:	00a40023          	sb	a0,0(s0)
   12092:	c058                	sw	a4,4(s0)
   12094:	91d78793          	addi	a5,a5,-1763 # 91d <.Lline_table_start1+0x6f2>
   12098:	470d                	li	a4,3
   1209a:	853e                	mv	a0,a5
   1209c:	00000073          	ecall
   120a0:	459d                	li	a1,7
   120a2:	4711                	li	a4,4
   120a4:	853e                	mv	a0,a5
   120a6:	4601                	li	a2,0
   120a8:	4681                	li	a3,0
   120aa:	00000073          	ecall
   120ae:	50f6                	lw	ra,124(sp)
   120b0:	5466                	lw	s0,120(sp)
   120b2:	54d6                	lw	s1,116(sp)
   120b4:	6109                	addi	sp,sp,128
   120b6:	8082                	ret
   120b8:	8526                	mv	a0,s1
   120ba:	4601                	li	a2,0
   120bc:	4681                	li	a3,0
   120be:	4595                	li	a1,5
   120c0:	470d                	li	a4,3
   120c2:	00000073          	ecall
   120c6:	4595                	li	a1,5
   120c8:	470d                	li	a4,3
   120ca:	8526                	mv	a0,s1
   120cc:	4601                	li	a2,0
   120ce:	4681                	li	a3,0
   120d0:	00000073          	ecall
   120d4:	00140513          	addi	a0,s0,1
   120d8:	03310593          	addi	a1,sp,51
   120dc:	04100613          	li	a2,65
   120e0:	00009097          	auipc	ra,0x9
   120e4:	b36080e7          	jalr	-1226(ra) # 1ac16 <memcpy>
   120e8:	8526                	mv	a0,s1
   120ea:	4601                	li	a2,0
   120ec:	4681                	li	a3,0
   120ee:	00040023          	sb	zero,0(s0)
   120f2:	4595                	li	a1,5
   120f4:	470d                	li	a4,3
   120f6:	00000073          	ecall
   120fa:	459d                	li	a1,7
   120fc:	4711                	li	a4,4
   120fe:	8526                	mv	a0,s1
   12100:	4601                	li	a2,0
   12102:	4681                	li	a3,0
   12104:	00000073          	ecall
   12108:	b75d                	j	120ae <_ZN18complex_no_dynamic3app17h1d047b7af8b4ff17E+0xa8>

0001210a <_ZN18complex_no_dynamic3app17h1d2a3d4bcef1aa3aE>:
   1210a:	715d                	addi	sp,sp,-80
   1210c:	c686                	sw	ra,76(sp)
   1210e:	c4a2                	sw	s0,72(sp)
   12110:	842a                	mv	s0,a0
   12112:	00310513          	addi	a0,sp,3
   12116:	03600613          	li	a2,54
   1211a:	00009097          	auipc	ra,0x9
   1211e:	afc080e7          	jalr	-1284(ra) # 1ac16 <memcpy>
   12122:	03910513          	addi	a0,sp,57
   12126:	463d                	li	a2,15
   12128:	4581                	li	a1,0
   1212a:	00009097          	auipc	ra,0x9
   1212e:	a80080e7          	jalr	-1408(ra) # 1abaa <memset>
   12132:	65300513          	li	a0,1619
   12136:	4595                	li	a1,5
   12138:	00310613          	addi	a2,sp,3
   1213c:	03600693          	li	a3,54
   12140:	4711                	li	a4,4
   12142:	4789                	li	a5,2
   12144:	00000073          	ecall
   12148:	02f50963          	beq	a0,a5,1217a <_ZN18complex_no_dynamic3app17h1d2a3d4bcef1aa3aE+0x70>
   1214c:	65300513          	li	a0,1619
   12150:	458d                	li	a1,3
   12152:	03910613          	addi	a2,sp,57
   12156:	46bd                	li	a3,15
   12158:	470d                	li	a4,3
   1215a:	00000073          	ecall
   1215e:	00f50e63          	beq	a0,a5,1217a <_ZN18complex_no_dynamic3app17h1d2a3d4bcef1aa3aE+0x70>
   12162:	65300513          	li	a0,1619
   12166:	4595                	li	a1,5
   12168:	460d                	li	a2,3
   1216a:	4709                	li	a4,2
   1216c:	07f00793          	li	a5,127
   12170:	4681                	li	a3,0
   12172:	00000073          	ecall
   12176:	02a7ea63          	bltu	a5,a0,121aa <_ZN18complex_no_dynamic3app17h1d2a3d4bcef1aa3aE+0xa0>
   1217a:	4601                	li	a2,0
   1217c:	4681                	li	a3,0
   1217e:	4705                	li	a4,1
   12180:	65300513          	li	a0,1619
   12184:	00e40023          	sb	a4,0(s0)
   12188:	c04c                	sw	a1,4(s0)
   1218a:	458d                	li	a1,3
   1218c:	470d                	li	a4,3
   1218e:	00000073          	ecall
   12192:	65300513          	li	a0,1619
   12196:	4595                	li	a1,5
   12198:	4711                	li	a4,4
   1219a:	4601                	li	a2,0
   1219c:	4681                	li	a3,0
   1219e:	00000073          	ecall
   121a2:	40b6                	lw	ra,76(sp)
   121a4:	4426                	lw	s0,72(sp)
   121a6:	6161                	addi	sp,sp,80
   121a8:	8082                	ret
   121aa:	4601                	li	a2,0
   121ac:	4681                	li	a3,0
   121ae:	65300513          	li	a0,1619
   121b2:	458d                	li	a1,3
   121b4:	470d                	li	a4,3
   121b6:	00000073          	ecall
   121ba:	65300513          	li	a0,1619
   121be:	458d                	li	a1,3
   121c0:	470d                	li	a4,3
   121c2:	4601                	li	a2,0
   121c4:	4681                	li	a3,0
   121c6:	00000073          	ecall
   121ca:	00140513          	addi	a0,s0,1
   121ce:	03910593          	addi	a1,sp,57
   121d2:	463d                	li	a2,15
   121d4:	00009097          	auipc	ra,0x9
   121d8:	a42080e7          	jalr	-1470(ra) # 1ac16 <memcpy>
   121dc:	4601                	li	a2,0
   121de:	4681                	li	a3,0
   121e0:	00040023          	sb	zero,0(s0)
   121e4:	65300513          	li	a0,1619
   121e8:	458d                	li	a1,3
   121ea:	470d                	li	a4,3
   121ec:	00000073          	ecall
   121f0:	65300513          	li	a0,1619
   121f4:	4595                	li	a1,5
   121f6:	4711                	li	a4,4
   121f8:	4601                	li	a2,0
   121fa:	4681                	li	a3,0
   121fc:	00000073          	ecall
   12200:	b74d                	j	121a2 <_ZN18complex_no_dynamic3app17h1d2a3d4bcef1aa3aE+0x98>

00012202 <_ZN18complex_no_dynamic3app17h21a58828ddcbd44cE>:
   12202:	715d                	addi	sp,sp,-80
   12204:	c686                	sw	ra,76(sp)
   12206:	c4a2                	sw	s0,72(sp)
   12208:	c2a6                	sw	s1,68(sp)
   1220a:	842a                	mv	s0,a0
   1220c:	00510513          	addi	a0,sp,5
   12210:	4651                	li	a2,20
   12212:	00009097          	auipc	ra,0x9
   12216:	a04080e7          	jalr	-1532(ra) # 1ac16 <memcpy>
   1221a:	01910513          	addi	a0,sp,25
   1221e:	02b00613          	li	a2,43
   12222:	4581                	li	a1,0
   12224:	00009097          	auipc	ra,0x9
   12228:	986080e7          	jalr	-1658(ra) # 1abaa <memset>
   1222c:	6509                	lui	a0,0x2
   1222e:	45a1                	li	a1,8
   12230:	00510613          	addi	a2,sp,5
   12234:	46d1                	li	a3,20
   12236:	39f50793          	addi	a5,a0,927 # 239f <.Lline_table_start1+0x2174>
   1223a:	4711                	li	a4,4
   1223c:	4489                	li	s1,2
   1223e:	853e                	mv	a0,a5
   12240:	00000073          	ecall
   12244:	02950b63          	beq	a0,s1,1227a <_ZN18complex_no_dynamic3app17h21a58828ddcbd44cE+0x78>
   12248:	4591                	li	a1,4
   1224a:	01910613          	addi	a2,sp,25
   1224e:	02b00693          	li	a3,43
   12252:	470d                	li	a4,3
   12254:	853e                	mv	a0,a5
   12256:	00000073          	ecall
   1225a:	02950063          	beq	a0,s1,1227a <_ZN18complex_no_dynamic3app17h21a58828ddcbd44cE+0x78>
   1225e:	6509                	lui	a0,0x2
   12260:	45a1                	li	a1,8
   12262:	4611                	li	a2,4
   12264:	39f50493          	addi	s1,a0,927 # 239f <.Lline_table_start1+0x2174>
   12268:	4709                	li	a4,2
   1226a:	07f00793          	li	a5,127
   1226e:	8526                	mv	a0,s1
   12270:	4681                	li	a3,0
   12272:	00000073          	ecall
   12276:	02a7ed63          	bltu	a5,a0,122b0 <_ZN18complex_no_dynamic3app17h21a58828ddcbd44cE+0xae>
   1227a:	872e                	mv	a4,a1
   1227c:	4601                	li	a2,0
   1227e:	4681                	li	a3,0
   12280:	4505                	li	a0,1
   12282:	6789                	lui	a5,0x2
   12284:	4591                	li	a1,4
   12286:	00a40023          	sb	a0,0(s0)
   1228a:	c058                	sw	a4,4(s0)
   1228c:	39f78793          	addi	a5,a5,927 # 239f <.Lline_table_start1+0x2174>
   12290:	470d                	li	a4,3
   12292:	853e                	mv	a0,a5
   12294:	00000073          	ecall
   12298:	45a1                	li	a1,8
   1229a:	4711                	li	a4,4
   1229c:	853e                	mv	a0,a5
   1229e:	4601                	li	a2,0
   122a0:	4681                	li	a3,0
   122a2:	00000073          	ecall
   122a6:	40b6                	lw	ra,76(sp)
   122a8:	4426                	lw	s0,72(sp)
   122aa:	4496                	lw	s1,68(sp)
   122ac:	6161                	addi	sp,sp,80
   122ae:	8082                	ret
   122b0:	8526                	mv	a0,s1
   122b2:	4601                	li	a2,0
   122b4:	4681                	li	a3,0
   122b6:	4591                	li	a1,4
   122b8:	470d                	li	a4,3
   122ba:	00000073          	ecall
   122be:	4591                	li	a1,4
   122c0:	470d                	li	a4,3
   122c2:	8526                	mv	a0,s1
   122c4:	4601                	li	a2,0
   122c6:	4681                	li	a3,0
   122c8:	00000073          	ecall
   122cc:	00140513          	addi	a0,s0,1
   122d0:	01910593          	addi	a1,sp,25
   122d4:	02b00613          	li	a2,43
   122d8:	00009097          	auipc	ra,0x9
   122dc:	93e080e7          	jalr	-1730(ra) # 1ac16 <memcpy>
   122e0:	8526                	mv	a0,s1
   122e2:	4601                	li	a2,0
   122e4:	4681                	li	a3,0
   122e6:	00040023          	sb	zero,0(s0)
   122ea:	4591                	li	a1,4
   122ec:	470d                	li	a4,3
   122ee:	00000073          	ecall
   122f2:	45a1                	li	a1,8
   122f4:	4711                	li	a4,4
   122f6:	8526                	mv	a0,s1
   122f8:	4601                	li	a2,0
   122fa:	4681                	li	a3,0
   122fc:	00000073          	ecall
   12300:	b75d                	j	122a6 <_ZN18complex_no_dynamic3app17h21a58828ddcbd44cE+0xa4>

00012302 <_ZN18complex_no_dynamic3app17h252b9b522302b900E>:
   12302:	7175                	addi	sp,sp,-144
   12304:	c706                	sw	ra,140(sp)
   12306:	c522                	sw	s0,136(sp)
   12308:	c326                	sw	s1,132(sp)
   1230a:	842a                	mv	s0,a0
   1230c:	00d10513          	addi	a0,sp,13
   12310:	04a00613          	li	a2,74
   12314:	00009097          	auipc	ra,0x9
   12318:	902080e7          	jalr	-1790(ra) # 1ac16 <memcpy>
   1231c:	05710513          	addi	a0,sp,87
   12320:	02d00613          	li	a2,45
   12324:	4581                	li	a1,0
   12326:	00009097          	auipc	ra,0x9
   1232a:	884080e7          	jalr	-1916(ra) # 1abaa <memset>
   1232e:	6505                	lui	a0,0x1
   12330:	4489                	li	s1,2
   12332:	4589                	li	a1,2
   12334:	00d10613          	addi	a2,sp,13
   12338:	e3d50793          	addi	a5,a0,-451 # e3d <.Lline_table_start1+0xc12>
   1233c:	04a00693          	li	a3,74
   12340:	4711                	li	a4,4
   12342:	853e                	mv	a0,a5
   12344:	00000073          	ecall
   12348:	02950b63          	beq	a0,s1,1237e <_ZN18complex_no_dynamic3app17h252b9b522302b900E+0x7c>
   1234c:	458d                	li	a1,3
   1234e:	05710613          	addi	a2,sp,87
   12352:	02d00693          	li	a3,45
   12356:	470d                	li	a4,3
   12358:	853e                	mv	a0,a5
   1235a:	00000073          	ecall
   1235e:	02950063          	beq	a0,s1,1237e <_ZN18complex_no_dynamic3app17h252b9b522302b900E+0x7c>
   12362:	6505                	lui	a0,0x1
   12364:	4589                	li	a1,2
   12366:	460d                	li	a2,3
   12368:	e3d50493          	addi	s1,a0,-451 # e3d <.Lline_table_start1+0xc12>
   1236c:	4709                	li	a4,2
   1236e:	07f00793          	li	a5,127
   12372:	8526                	mv	a0,s1
   12374:	4681                	li	a3,0
   12376:	00000073          	ecall
   1237a:	02a7ed63          	bltu	a5,a0,123b4 <_ZN18complex_no_dynamic3app17h252b9b522302b900E+0xb2>
   1237e:	872e                	mv	a4,a1
   12380:	4601                	li	a2,0
   12382:	4681                	li	a3,0
   12384:	4505                	li	a0,1
   12386:	6785                	lui	a5,0x1
   12388:	458d                	li	a1,3
   1238a:	00a40023          	sb	a0,0(s0)
   1238e:	c058                	sw	a4,4(s0)
   12390:	e3d78793          	addi	a5,a5,-451 # e3d <.Lline_table_start1+0xc12>
   12394:	470d                	li	a4,3
   12396:	853e                	mv	a0,a5
   12398:	00000073          	ecall
   1239c:	4589                	li	a1,2
   1239e:	4711                	li	a4,4
   123a0:	853e                	mv	a0,a5
   123a2:	4601                	li	a2,0
   123a4:	4681                	li	a3,0
   123a6:	00000073          	ecall
   123aa:	40ba                	lw	ra,140(sp)
   123ac:	442a                	lw	s0,136(sp)
   123ae:	449a                	lw	s1,132(sp)
   123b0:	6149                	addi	sp,sp,144
   123b2:	8082                	ret
   123b4:	8526                	mv	a0,s1
   123b6:	4601                	li	a2,0
   123b8:	4681                	li	a3,0
   123ba:	458d                	li	a1,3
   123bc:	470d                	li	a4,3
   123be:	00000073          	ecall
   123c2:	458d                	li	a1,3
   123c4:	470d                	li	a4,3
   123c6:	8526                	mv	a0,s1
   123c8:	4601                	li	a2,0
   123ca:	4681                	li	a3,0
   123cc:	00000073          	ecall
   123d0:	00140513          	addi	a0,s0,1
   123d4:	05710593          	addi	a1,sp,87
   123d8:	02d00613          	li	a2,45
   123dc:	00009097          	auipc	ra,0x9
   123e0:	83a080e7          	jalr	-1990(ra) # 1ac16 <memcpy>
   123e4:	8526                	mv	a0,s1
   123e6:	4601                	li	a2,0
   123e8:	4681                	li	a3,0
   123ea:	00040023          	sb	zero,0(s0)
   123ee:	458d                	li	a1,3
   123f0:	470d                	li	a4,3
   123f2:	00000073          	ecall
   123f6:	4589                	li	a1,2
   123f8:	4711                	li	a4,4
   123fa:	8526                	mv	a0,s1
   123fc:	4601                	li	a2,0
   123fe:	4681                	li	a3,0
   12400:	00000073          	ecall
   12404:	b75d                	j	123aa <_ZN18complex_no_dynamic3app17h252b9b522302b900E+0xa8>

00012406 <_ZN18complex_no_dynamic3app17h26185ce0bbdd18c1E>:
   12406:	7139                	addi	sp,sp,-64
   12408:	de06                	sw	ra,60(sp)
   1240a:	dc22                	sw	s0,56(sp)
   1240c:	da26                	sw	s1,52(sp)
   1240e:	d84a                	sw	s2,48(sp)
   12410:	892a                	mv	s2,a0
   12412:	0085c803          	lbu	a6,8(a1)
   12416:	0095c603          	lbu	a2,9(a1)
   1241a:	00a5c683          	lbu	a3,10(a1)
   1241e:	00b5c703          	lbu	a4,11(a1)
   12422:	0045c783          	lbu	a5,4(a1)
   12426:	0055c483          	lbu	s1,5(a1)
   1242a:	0065c403          	lbu	s0,6(a1)
   1242e:	0075c503          	lbu	a0,7(a1)
   12432:	0622                	slli	a2,a2,0x8
   12434:	06c2                	slli	a3,a3,0x10
   12436:	0762                	slli	a4,a4,0x18
   12438:	04a2                	slli	s1,s1,0x8
   1243a:	0442                	slli	s0,s0,0x10
   1243c:	0562                	slli	a0,a0,0x18
   1243e:	01066833          	or	a6,a2,a6
   12442:	8ed9                	or	a3,a3,a4
   12444:	8fc5                	or	a5,a5,s1
   12446:	0005c703          	lbu	a4,0(a1)
   1244a:	0015c483          	lbu	s1,1(a1)
   1244e:	8d41                	or	a0,a0,s0
   12450:	0025c403          	lbu	s0,2(a1)
   12454:	0035c603          	lbu	a2,3(a1)
   12458:	04a2                	slli	s1,s1,0x8
   1245a:	8f45                	or	a4,a4,s1
   1245c:	0442                	slli	s0,s0,0x10
   1245e:	0662                	slli	a2,a2,0x18
   12460:	8e41                	or	a2,a2,s0
   12462:	0106e6b3          	or	a3,a3,a6
   12466:	8d5d                	or	a0,a0,a5
   12468:	8e59                	or	a2,a2,a4
   1246a:	00c5c583          	lbu	a1,12(a1)
   1246e:	c032                	sw	a2,0(sp)
   12470:	c22a                	sw	a0,4(sp)
   12472:	c436                	sw	a3,8(sp)
   12474:	00b10623          	sb	a1,12(sp)
   12478:	00f10513          	addi	a0,sp,15
   1247c:	02100613          	li	a2,33
   12480:	4581                	li	a1,0
   12482:	00008097          	auipc	ra,0x8
   12486:	728080e7          	jalr	1832(ra) # 1abaa <memset>
   1248a:	6505                	lui	a0,0x1
   1248c:	860a                	mv	a2,sp
   1248e:	46b5                	li	a3,13
   12490:	6b050793          	addi	a5,a0,1712 # 16b0 <.Lline_table_start1+0x1485>
   12494:	4711                	li	a4,4
   12496:	4489                	li	s1,2
   12498:	853e                	mv	a0,a5
   1249a:	4581                	li	a1,0
   1249c:	00000073          	ecall
   124a0:	02950b63          	beq	a0,s1,124d6 <_ZN18complex_no_dynamic3app17h26185ce0bbdd18c1E+0xd0>
   124a4:	00f10613          	addi	a2,sp,15
   124a8:	02100693          	li	a3,33
   124ac:	470d                	li	a4,3
   124ae:	853e                	mv	a0,a5
   124b0:	4581                	li	a1,0
   124b2:	00000073          	ecall
   124b6:	02950063          	beq	a0,s1,124d6 <_ZN18complex_no_dynamic3app17h26185ce0bbdd18c1E+0xd0>
   124ba:	6505                	lui	a0,0x1
   124bc:	6b050493          	addi	s1,a0,1712 # 16b0 <.Lline_table_start1+0x1485>
   124c0:	4709                	li	a4,2
   124c2:	07f00793          	li	a5,127
   124c6:	8526                	mv	a0,s1
   124c8:	4581                	li	a1,0
   124ca:	4601                	li	a2,0
   124cc:	4681                	li	a3,0
   124ce:	00000073          	ecall
   124d2:	02a7ee63          	bltu	a5,a0,1250e <_ZN18complex_no_dynamic3app17h26185ce0bbdd18c1E+0x108>
   124d6:	4505                	li	a0,1
   124d8:	6605                	lui	a2,0x1
   124da:	00a90023          	sb	a0,0(s2)
   124de:	00b92223          	sw	a1,4(s2)
   124e2:	6b060793          	addi	a5,a2,1712 # 16b0 <.Lline_table_start1+0x1485>
   124e6:	470d                	li	a4,3
   124e8:	853e                	mv	a0,a5
   124ea:	4581                	li	a1,0
   124ec:	4601                	li	a2,0
   124ee:	4681                	li	a3,0
   124f0:	00000073          	ecall
   124f4:	4711                	li	a4,4
   124f6:	853e                	mv	a0,a5
   124f8:	4581                	li	a1,0
   124fa:	4601                	li	a2,0
   124fc:	4681                	li	a3,0
   124fe:	00000073          	ecall
   12502:	50f2                	lw	ra,60(sp)
   12504:	5462                	lw	s0,56(sp)
   12506:	54d2                	lw	s1,52(sp)
   12508:	5942                	lw	s2,48(sp)
   1250a:	6121                	addi	sp,sp,64
   1250c:	8082                	ret
   1250e:	470d                	li	a4,3
   12510:	8526                	mv	a0,s1
   12512:	4581                	li	a1,0
   12514:	4601                	li	a2,0
   12516:	4681                	li	a3,0
   12518:	00000073          	ecall
   1251c:	470d                	li	a4,3
   1251e:	8526                	mv	a0,s1
   12520:	4581                	li	a1,0
   12522:	4601                	li	a2,0
   12524:	4681                	li	a3,0
   12526:	00000073          	ecall
   1252a:	00190513          	addi	a0,s2,1
   1252e:	00f10593          	addi	a1,sp,15
   12532:	02100613          	li	a2,33
   12536:	00008097          	auipc	ra,0x8
   1253a:	6e0080e7          	jalr	1760(ra) # 1ac16 <memcpy>
   1253e:	00090023          	sb	zero,0(s2)
   12542:	470d                	li	a4,3
   12544:	8526                	mv	a0,s1
   12546:	4581                	li	a1,0
   12548:	4601                	li	a2,0
   1254a:	4681                	li	a3,0
   1254c:	00000073          	ecall
   12550:	4711                	li	a4,4
   12552:	8526                	mv	a0,s1
   12554:	4581                	li	a1,0
   12556:	4601                	li	a2,0
   12558:	4681                	li	a3,0
   1255a:	00000073          	ecall
   1255e:	b755                	j	12502 <_ZN18complex_no_dynamic3app17h26185ce0bbdd18c1E+0xfc>

00012560 <_ZN18complex_no_dynamic3app17h27351d6eb694a4b1E>:
   12560:	7119                	addi	sp,sp,-128
   12562:	de86                	sw	ra,124(sp)
   12564:	dca2                	sw	s0,120(sp)
   12566:	daa6                	sw	s1,116(sp)
   12568:	842a                	mv	s0,a0
   1256a:	00310513          	addi	a0,sp,3
   1256e:	04000613          	li	a2,64
   12572:	00008097          	auipc	ra,0x8
   12576:	6a4080e7          	jalr	1700(ra) # 1ac16 <memcpy>
   1257a:	04310513          	addi	a0,sp,67
   1257e:	03100613          	li	a2,49
   12582:	4581                	li	a1,0
   12584:	00008097          	auipc	ra,0x8
   12588:	626080e7          	jalr	1574(ra) # 1abaa <memset>
   1258c:	6505                	lui	a0,0x1
   1258e:	45a1                	li	a1,8
   12590:	00310613          	addi	a2,sp,3
   12594:	04000693          	li	a3,64
   12598:	fce50793          	addi	a5,a0,-50 # fce <.Lline_table_start1+0xda3>
   1259c:	4711                	li	a4,4
   1259e:	4489                	li	s1,2
   125a0:	853e                	mv	a0,a5
   125a2:	00000073          	ecall
   125a6:	02950b63          	beq	a0,s1,125dc <_ZN18complex_no_dynamic3app17h27351d6eb694a4b1E+0x7c>
   125aa:	4595                	li	a1,5
   125ac:	04310613          	addi	a2,sp,67
   125b0:	03100693          	li	a3,49
   125b4:	470d                	li	a4,3
   125b6:	853e                	mv	a0,a5
   125b8:	00000073          	ecall
   125bc:	02950063          	beq	a0,s1,125dc <_ZN18complex_no_dynamic3app17h27351d6eb694a4b1E+0x7c>
   125c0:	6505                	lui	a0,0x1
   125c2:	45a1                	li	a1,8
   125c4:	4615                	li	a2,5
   125c6:	fce50493          	addi	s1,a0,-50 # fce <.Lline_table_start1+0xda3>
   125ca:	4709                	li	a4,2
   125cc:	07f00793          	li	a5,127
   125d0:	8526                	mv	a0,s1
   125d2:	4681                	li	a3,0
   125d4:	00000073          	ecall
   125d8:	02a7ed63          	bltu	a5,a0,12612 <_ZN18complex_no_dynamic3app17h27351d6eb694a4b1E+0xb2>
   125dc:	872e                	mv	a4,a1
   125de:	4601                	li	a2,0
   125e0:	4681                	li	a3,0
   125e2:	4505                	li	a0,1
   125e4:	6785                	lui	a5,0x1
   125e6:	4595                	li	a1,5
   125e8:	00a40023          	sb	a0,0(s0)
   125ec:	c058                	sw	a4,4(s0)
   125ee:	fce78793          	addi	a5,a5,-50 # fce <.Lline_table_start1+0xda3>
   125f2:	470d                	li	a4,3
   125f4:	853e                	mv	a0,a5
   125f6:	00000073          	ecall
   125fa:	45a1                	li	a1,8
   125fc:	4711                	li	a4,4
   125fe:	853e                	mv	a0,a5
   12600:	4601                	li	a2,0
   12602:	4681                	li	a3,0
   12604:	00000073          	ecall
   12608:	50f6                	lw	ra,124(sp)
   1260a:	5466                	lw	s0,120(sp)
   1260c:	54d6                	lw	s1,116(sp)
   1260e:	6109                	addi	sp,sp,128
   12610:	8082                	ret
   12612:	8526                	mv	a0,s1
   12614:	4601                	li	a2,0
   12616:	4681                	li	a3,0
   12618:	4595                	li	a1,5
   1261a:	470d                	li	a4,3
   1261c:	00000073          	ecall
   12620:	4595                	li	a1,5
   12622:	470d                	li	a4,3
   12624:	8526                	mv	a0,s1
   12626:	4601                	li	a2,0
   12628:	4681                	li	a3,0
   1262a:	00000073          	ecall
   1262e:	00140513          	addi	a0,s0,1
   12632:	04310593          	addi	a1,sp,67
   12636:	03100613          	li	a2,49
   1263a:	00008097          	auipc	ra,0x8
   1263e:	5dc080e7          	jalr	1500(ra) # 1ac16 <memcpy>
   12642:	8526                	mv	a0,s1
   12644:	4601                	li	a2,0
   12646:	4681                	li	a3,0
   12648:	00040023          	sb	zero,0(s0)
   1264c:	4595                	li	a1,5
   1264e:	470d                	li	a4,3
   12650:	00000073          	ecall
   12654:	45a1                	li	a1,8
   12656:	4711                	li	a4,4
   12658:	8526                	mv	a0,s1
   1265a:	4601                	li	a2,0
   1265c:	4681                	li	a3,0
   1265e:	00000073          	ecall
   12662:	b75d                	j	12608 <_ZN18complex_no_dynamic3app17h27351d6eb694a4b1E+0xa8>

00012664 <_ZN18complex_no_dynamic3app17h2e62b1b983d58d9eE>:
   12664:	7175                	addi	sp,sp,-144
   12666:	c706                	sw	ra,140(sp)
   12668:	c522                	sw	s0,136(sp)
   1266a:	c326                	sw	s1,132(sp)
   1266c:	842a                	mv	s0,a0
   1266e:	00610513          	addi	a0,sp,6
   12672:	466d                	li	a2,27
   12674:	00008097          	auipc	ra,0x8
   12678:	5a2080e7          	jalr	1442(ra) # 1ac16 <memcpy>
   1267c:	02110513          	addi	a0,sp,33
   12680:	06300613          	li	a2,99
   12684:	4581                	li	a1,0
   12686:	00008097          	auipc	ra,0x8
   1268a:	524080e7          	jalr	1316(ra) # 1abaa <memset>
   1268e:	6509                	lui	a0,0x2
   12690:	458d                	li	a1,3
   12692:	00610613          	addi	a2,sp,6
   12696:	46ed                	li	a3,27
   12698:	54850793          	addi	a5,a0,1352 # 2548 <.Lline_table_start1+0x231d>
   1269c:	4711                	li	a4,4
   1269e:	4489                	li	s1,2
   126a0:	853e                	mv	a0,a5
   126a2:	00000073          	ecall
   126a6:	02950b63          	beq	a0,s1,126dc <_ZN18complex_no_dynamic3app17h2e62b1b983d58d9eE+0x78>
   126aa:	458d                	li	a1,3
   126ac:	02110613          	addi	a2,sp,33
   126b0:	06300693          	li	a3,99
   126b4:	470d                	li	a4,3
   126b6:	853e                	mv	a0,a5
   126b8:	00000073          	ecall
   126bc:	02950063          	beq	a0,s1,126dc <_ZN18complex_no_dynamic3app17h2e62b1b983d58d9eE+0x78>
   126c0:	6509                	lui	a0,0x2
   126c2:	458d                	li	a1,3
   126c4:	460d                	li	a2,3
   126c6:	54850493          	addi	s1,a0,1352 # 2548 <.Lline_table_start1+0x231d>
   126ca:	4709                	li	a4,2
   126cc:	07f00793          	li	a5,127
   126d0:	8526                	mv	a0,s1
   126d2:	4681                	li	a3,0
   126d4:	00000073          	ecall
   126d8:	02a7ed63          	bltu	a5,a0,12712 <_ZN18complex_no_dynamic3app17h2e62b1b983d58d9eE+0xae>
   126dc:	872e                	mv	a4,a1
   126de:	4601                	li	a2,0
   126e0:	4681                	li	a3,0
   126e2:	4505                	li	a0,1
   126e4:	6789                	lui	a5,0x2
   126e6:	458d                	li	a1,3
   126e8:	00a40023          	sb	a0,0(s0)
   126ec:	c058                	sw	a4,4(s0)
   126ee:	54878793          	addi	a5,a5,1352 # 2548 <.Lline_table_start1+0x231d>
   126f2:	470d                	li	a4,3
   126f4:	853e                	mv	a0,a5
   126f6:	00000073          	ecall
   126fa:	458d                	li	a1,3
   126fc:	4711                	li	a4,4
   126fe:	853e                	mv	a0,a5
   12700:	4601                	li	a2,0
   12702:	4681                	li	a3,0
   12704:	00000073          	ecall
   12708:	40ba                	lw	ra,140(sp)
   1270a:	442a                	lw	s0,136(sp)
   1270c:	449a                	lw	s1,132(sp)
   1270e:	6149                	addi	sp,sp,144
   12710:	8082                	ret
   12712:	8526                	mv	a0,s1
   12714:	4601                	li	a2,0
   12716:	4681                	li	a3,0
   12718:	458d                	li	a1,3
   1271a:	470d                	li	a4,3
   1271c:	00000073          	ecall
   12720:	458d                	li	a1,3
   12722:	470d                	li	a4,3
   12724:	8526                	mv	a0,s1
   12726:	4601                	li	a2,0
   12728:	4681                	li	a3,0
   1272a:	00000073          	ecall
   1272e:	00140513          	addi	a0,s0,1
   12732:	02110593          	addi	a1,sp,33
   12736:	06300613          	li	a2,99
   1273a:	00008097          	auipc	ra,0x8
   1273e:	4dc080e7          	jalr	1244(ra) # 1ac16 <memcpy>
   12742:	8526                	mv	a0,s1
   12744:	4601                	li	a2,0
   12746:	4681                	li	a3,0
   12748:	00040023          	sb	zero,0(s0)
   1274c:	458d                	li	a1,3
   1274e:	470d                	li	a4,3
   12750:	00000073          	ecall
   12754:	458d                	li	a1,3
   12756:	4711                	li	a4,4
   12758:	8526                	mv	a0,s1
   1275a:	4601                	li	a2,0
   1275c:	4681                	li	a3,0
   1275e:	00000073          	ecall
   12762:	b75d                	j	12708 <_ZN18complex_no_dynamic3app17h2e62b1b983d58d9eE+0xa4>

00012764 <_ZN18complex_no_dynamic3app17h2fe32d82654cec80E>:
   12764:	7119                	addi	sp,sp,-128
   12766:	de86                	sw	ra,124(sp)
   12768:	dca2                	sw	s0,120(sp)
   1276a:	daa6                	sw	s1,116(sp)
   1276c:	842a                	mv	s0,a0
   1276e:	00510513          	addi	a0,sp,5
   12772:	05d00613          	li	a2,93
   12776:	00008097          	auipc	ra,0x8
   1277a:	4a0080e7          	jalr	1184(ra) # 1ac16 <memcpy>
   1277e:	06210513          	addi	a0,sp,98
   12782:	4649                	li	a2,18
   12784:	4581                	li	a1,0
   12786:	00008097          	auipc	ra,0x8
   1278a:	424080e7          	jalr	1060(ra) # 1abaa <memset>
   1278e:	6505                	lui	a0,0x1
   12790:	00510613          	addi	a2,sp,5
   12794:	05d00693          	li	a3,93
   12798:	5f150793          	addi	a5,a0,1521 # 15f1 <.Lline_table_start1+0x13c6>
   1279c:	4711                	li	a4,4
   1279e:	4489                	li	s1,2
   127a0:	853e                	mv	a0,a5
   127a2:	4581                	li	a1,0
   127a4:	00000073          	ecall
   127a8:	02950a63          	beq	a0,s1,127dc <_ZN18complex_no_dynamic3app17h2fe32d82654cec80E+0x78>
   127ac:	4589                	li	a1,2
   127ae:	06210613          	addi	a2,sp,98
   127b2:	46c9                	li	a3,18
   127b4:	470d                	li	a4,3
   127b6:	853e                	mv	a0,a5
   127b8:	00000073          	ecall
   127bc:	02950063          	beq	a0,s1,127dc <_ZN18complex_no_dynamic3app17h2fe32d82654cec80E+0x78>
   127c0:	6505                	lui	a0,0x1
   127c2:	4609                	li	a2,2
   127c4:	5f150493          	addi	s1,a0,1521 # 15f1 <.Lline_table_start1+0x13c6>
   127c8:	4709                	li	a4,2
   127ca:	07f00793          	li	a5,127
   127ce:	8526                	mv	a0,s1
   127d0:	4581                	li	a1,0
   127d2:	4681                	li	a3,0
   127d4:	00000073          	ecall
   127d8:	02a7ec63          	bltu	a5,a0,12810 <_ZN18complex_no_dynamic3app17h2fe32d82654cec80E+0xac>
   127dc:	4505                	li	a0,1
   127de:	6605                	lui	a2,0x1
   127e0:	00a40023          	sb	a0,0(s0)
   127e4:	c04c                	sw	a1,4(s0)
   127e6:	5f160793          	addi	a5,a2,1521 # 15f1 <.Lline_table_start1+0x13c6>
   127ea:	4589                	li	a1,2
   127ec:	470d                	li	a4,3
   127ee:	853e                	mv	a0,a5
   127f0:	4601                	li	a2,0
   127f2:	4681                	li	a3,0
   127f4:	00000073          	ecall
   127f8:	4711                	li	a4,4
   127fa:	853e                	mv	a0,a5
   127fc:	4581                	li	a1,0
   127fe:	4601                	li	a2,0
   12800:	4681                	li	a3,0
   12802:	00000073          	ecall
   12806:	50f6                	lw	ra,124(sp)
   12808:	5466                	lw	s0,120(sp)
   1280a:	54d6                	lw	s1,116(sp)
   1280c:	6109                	addi	sp,sp,128
   1280e:	8082                	ret
   12810:	8526                	mv	a0,s1
   12812:	4601                	li	a2,0
   12814:	4681                	li	a3,0
   12816:	4589                	li	a1,2
   12818:	470d                	li	a4,3
   1281a:	00000073          	ecall
   1281e:	4589                	li	a1,2
   12820:	470d                	li	a4,3
   12822:	8526                	mv	a0,s1
   12824:	4601                	li	a2,0
   12826:	4681                	li	a3,0
   12828:	00000073          	ecall
   1282c:	00140513          	addi	a0,s0,1
   12830:	06210593          	addi	a1,sp,98
   12834:	4649                	li	a2,18
   12836:	00008097          	auipc	ra,0x8
   1283a:	3e0080e7          	jalr	992(ra) # 1ac16 <memcpy>
   1283e:	00040023          	sb	zero,0(s0)
   12842:	4589                	li	a1,2
   12844:	470d                	li	a4,3
   12846:	8526                	mv	a0,s1
   12848:	4601                	li	a2,0
   1284a:	4681                	li	a3,0
   1284c:	00000073          	ecall
   12850:	4711                	li	a4,4
   12852:	8526                	mv	a0,s1
   12854:	4581                	li	a1,0
   12856:	4601                	li	a2,0
   12858:	4681                	li	a3,0
   1285a:	00000073          	ecall
   1285e:	b765                	j	12806 <_ZN18complex_no_dynamic3app17h2fe32d82654cec80E+0xa2>

00012860 <_ZN18complex_no_dynamic3app17h3246f04ed2c5b0a3E>:
   12860:	7139                	addi	sp,sp,-64
   12862:	de06                	sw	ra,60(sp)
   12864:	dc22                	sw	s0,56(sp)
   12866:	842a                	mv	s0,a0
   12868:	0048                	addi	a0,sp,4
   1286a:	463d                	li	a2,15
   1286c:	00008097          	auipc	ra,0x8
   12870:	3aa080e7          	jalr	938(ra) # 1ac16 <memcpy>
   12874:	01310513          	addi	a0,sp,19
   12878:	02500613          	li	a2,37
   1287c:	4581                	li	a1,0
   1287e:	00008097          	auipc	ra,0x8
   12882:	32c080e7          	jalr	812(ra) # 1abaa <memset>
   12886:	0a200513          	li	a0,162
   1288a:	45a1                	li	a1,8
   1288c:	0050                	addi	a2,sp,4
   1288e:	46bd                	li	a3,15
   12890:	4711                	li	a4,4
   12892:	4789                	li	a5,2
   12894:	00000073          	ecall
   12898:	02f50a63          	beq	a0,a5,128cc <_ZN18complex_no_dynamic3app17h3246f04ed2c5b0a3E+0x6c>
   1289c:	0a200513          	li	a0,162
   128a0:	01310613          	addi	a2,sp,19
   128a4:	02500693          	li	a3,37
   128a8:	470d                	li	a4,3
   128aa:	4581                	li	a1,0
   128ac:	00000073          	ecall
   128b0:	00f50e63          	beq	a0,a5,128cc <_ZN18complex_no_dynamic3app17h3246f04ed2c5b0a3E+0x6c>
   128b4:	0a200513          	li	a0,162
   128b8:	45a1                	li	a1,8
   128ba:	4709                	li	a4,2
   128bc:	07f00793          	li	a5,127
   128c0:	4601                	li	a2,0
   128c2:	4681                	li	a3,0
   128c4:	00000073          	ecall
   128c8:	02a7eb63          	bltu	a5,a0,128fe <_ZN18complex_no_dynamic3app17h3246f04ed2c5b0a3E+0x9e>
   128cc:	872e                	mv	a4,a1
   128ce:	4581                	li	a1,0
   128d0:	4601                	li	a2,0
   128d2:	4681                	li	a3,0
   128d4:	4505                	li	a0,1
   128d6:	00a40023          	sb	a0,0(s0)
   128da:	c058                	sw	a4,4(s0)
   128dc:	0a200513          	li	a0,162
   128e0:	470d                	li	a4,3
   128e2:	00000073          	ecall
   128e6:	0a200513          	li	a0,162
   128ea:	45a1                	li	a1,8
   128ec:	4711                	li	a4,4
   128ee:	4601                	li	a2,0
   128f0:	4681                	li	a3,0
   128f2:	00000073          	ecall
   128f6:	50f2                	lw	ra,60(sp)
   128f8:	5462                	lw	s0,56(sp)
   128fa:	6121                	addi	sp,sp,64
   128fc:	8082                	ret
   128fe:	4581                	li	a1,0
   12900:	4601                	li	a2,0
   12902:	4681                	li	a3,0
   12904:	0a200513          	li	a0,162
   12908:	470d                	li	a4,3
   1290a:	00000073          	ecall
   1290e:	0a200513          	li	a0,162
   12912:	470d                	li	a4,3
   12914:	4581                	li	a1,0
   12916:	4601                	li	a2,0
   12918:	4681                	li	a3,0
   1291a:	00000073          	ecall
   1291e:	00140513          	addi	a0,s0,1
   12922:	01310593          	addi	a1,sp,19
   12926:	02500613          	li	a2,37
   1292a:	00008097          	auipc	ra,0x8
   1292e:	2ec080e7          	jalr	748(ra) # 1ac16 <memcpy>
   12932:	4581                	li	a1,0
   12934:	4601                	li	a2,0
   12936:	4681                	li	a3,0
   12938:	00040023          	sb	zero,0(s0)
   1293c:	0a200513          	li	a0,162
   12940:	470d                	li	a4,3
   12942:	00000073          	ecall
   12946:	0a200513          	li	a0,162
   1294a:	45a1                	li	a1,8
   1294c:	4711                	li	a4,4
   1294e:	4601                	li	a2,0
   12950:	4681                	li	a3,0
   12952:	00000073          	ecall
   12956:	b745                	j	128f6 <_ZN18complex_no_dynamic3app17h3246f04ed2c5b0a3E+0x96>

00012958 <_ZN18complex_no_dynamic3app17h32bb91afe5d9e131E>:
   12958:	7135                	addi	sp,sp,-160
   1295a:	cf06                	sw	ra,156(sp)
   1295c:	cd22                	sw	s0,152(sp)
   1295e:	cb26                	sw	s1,148(sp)
   12960:	842a                	mv	s0,a0
   12962:	00710513          	addi	a0,sp,7
   12966:	05300613          	li	a2,83
   1296a:	00008097          	auipc	ra,0x8
   1296e:	2ac080e7          	jalr	684(ra) # 1ac16 <memcpy>
   12972:	05a10513          	addi	a0,sp,90
   12976:	03a00613          	li	a2,58
   1297a:	4581                	li	a1,0
   1297c:	00008097          	auipc	ra,0x8
   12980:	22e080e7          	jalr	558(ra) # 1abaa <memset>
   12984:	6509                	lui	a0,0x2
   12986:	4599                	li	a1,6
   12988:	00710613          	addi	a2,sp,7
   1298c:	05300693          	li	a3,83
   12990:	64550793          	addi	a5,a0,1605 # 2645 <.Lline_table_start1+0x241a>
   12994:	4711                	li	a4,4
   12996:	4489                	li	s1,2
   12998:	853e                	mv	a0,a5
   1299a:	00000073          	ecall
   1299e:	02950b63          	beq	a0,s1,129d4 <_ZN18complex_no_dynamic3app17h32bb91afe5d9e131E+0x7c>
   129a2:	459d                	li	a1,7
   129a4:	05a10613          	addi	a2,sp,90
   129a8:	03a00693          	li	a3,58
   129ac:	470d                	li	a4,3
   129ae:	853e                	mv	a0,a5
   129b0:	00000073          	ecall
   129b4:	02950063          	beq	a0,s1,129d4 <_ZN18complex_no_dynamic3app17h32bb91afe5d9e131E+0x7c>
   129b8:	6509                	lui	a0,0x2
   129ba:	4599                	li	a1,6
   129bc:	461d                	li	a2,7
   129be:	64550493          	addi	s1,a0,1605 # 2645 <.Lline_table_start1+0x241a>
   129c2:	4709                	li	a4,2
   129c4:	07f00793          	li	a5,127
   129c8:	8526                	mv	a0,s1
   129ca:	4681                	li	a3,0
   129cc:	00000073          	ecall
   129d0:	02a7ed63          	bltu	a5,a0,12a0a <_ZN18complex_no_dynamic3app17h32bb91afe5d9e131E+0xb2>
   129d4:	872e                	mv	a4,a1
   129d6:	4601                	li	a2,0
   129d8:	4681                	li	a3,0
   129da:	4505                	li	a0,1
   129dc:	6789                	lui	a5,0x2
   129de:	459d                	li	a1,7
   129e0:	00a40023          	sb	a0,0(s0)
   129e4:	c058                	sw	a4,4(s0)
   129e6:	64578793          	addi	a5,a5,1605 # 2645 <.Lline_table_start1+0x241a>
   129ea:	470d                	li	a4,3
   129ec:	853e                	mv	a0,a5
   129ee:	00000073          	ecall
   129f2:	4599                	li	a1,6
   129f4:	4711                	li	a4,4
   129f6:	853e                	mv	a0,a5
   129f8:	4601                	li	a2,0
   129fa:	4681                	li	a3,0
   129fc:	00000073          	ecall
   12a00:	40fa                	lw	ra,156(sp)
   12a02:	446a                	lw	s0,152(sp)
   12a04:	44da                	lw	s1,148(sp)
   12a06:	610d                	addi	sp,sp,160
   12a08:	8082                	ret
   12a0a:	8526                	mv	a0,s1
   12a0c:	4601                	li	a2,0
   12a0e:	4681                	li	a3,0
   12a10:	459d                	li	a1,7
   12a12:	470d                	li	a4,3
   12a14:	00000073          	ecall
   12a18:	459d                	li	a1,7
   12a1a:	470d                	li	a4,3
   12a1c:	8526                	mv	a0,s1
   12a1e:	4601                	li	a2,0
   12a20:	4681                	li	a3,0
   12a22:	00000073          	ecall
   12a26:	00140513          	addi	a0,s0,1
   12a2a:	05a10593          	addi	a1,sp,90
   12a2e:	03a00613          	li	a2,58
   12a32:	00008097          	auipc	ra,0x8
   12a36:	1e4080e7          	jalr	484(ra) # 1ac16 <memcpy>
   12a3a:	8526                	mv	a0,s1
   12a3c:	4601                	li	a2,0
   12a3e:	4681                	li	a3,0
   12a40:	00040023          	sb	zero,0(s0)
   12a44:	459d                	li	a1,7
   12a46:	470d                	li	a4,3
   12a48:	00000073          	ecall
   12a4c:	4599                	li	a1,6
   12a4e:	4711                	li	a4,4
   12a50:	8526                	mv	a0,s1
   12a52:	4601                	li	a2,0
   12a54:	4681                	li	a3,0
   12a56:	00000073          	ecall
   12a5a:	b75d                	j	12a00 <_ZN18complex_no_dynamic3app17h32bb91afe5d9e131E+0xa8>

00012a5c <_ZN18complex_no_dynamic3app17h39dddbde9172ac9bE>:
   12a5c:	711d                	addi	sp,sp,-96
   12a5e:	ce86                	sw	ra,92(sp)
   12a60:	cca2                	sw	s0,88(sp)
   12a62:	caa6                	sw	s1,84(sp)
   12a64:	842a                	mv	s0,a0
   12a66:	00d10513          	addi	a0,sp,13
   12a6a:	02300613          	li	a2,35
   12a6e:	00008097          	auipc	ra,0x8
   12a72:	1a8080e7          	jalr	424(ra) # 1ac16 <memcpy>
   12a76:	1808                	addi	a0,sp,48
   12a78:	02400613          	li	a2,36
   12a7c:	4581                	li	a1,0
   12a7e:	00008097          	auipc	ra,0x8
   12a82:	12c080e7          	jalr	300(ra) # 1abaa <memset>
   12a86:	6509                	lui	a0,0x2
   12a88:	4591                	li	a1,4
   12a8a:	00d10613          	addi	a2,sp,13
   12a8e:	02300693          	li	a3,35
   12a92:	bd650793          	addi	a5,a0,-1066 # 1bd6 <.Lline_table_start1+0x19ab>
   12a96:	4711                	li	a4,4
   12a98:	4489                	li	s1,2
   12a9a:	853e                	mv	a0,a5
   12a9c:	00000073          	ecall
   12aa0:	02950a63          	beq	a0,s1,12ad4 <_ZN18complex_no_dynamic3app17h39dddbde9172ac9bE+0x78>
   12aa4:	45a1                	li	a1,8
   12aa6:	1810                	addi	a2,sp,48
   12aa8:	02400693          	li	a3,36
   12aac:	470d                	li	a4,3
   12aae:	853e                	mv	a0,a5
   12ab0:	00000073          	ecall
   12ab4:	02950063          	beq	a0,s1,12ad4 <_ZN18complex_no_dynamic3app17h39dddbde9172ac9bE+0x78>
   12ab8:	6509                	lui	a0,0x2
   12aba:	4591                	li	a1,4
   12abc:	4621                	li	a2,8
   12abe:	bd650493          	addi	s1,a0,-1066 # 1bd6 <.Lline_table_start1+0x19ab>
   12ac2:	4709                	li	a4,2
   12ac4:	07f00793          	li	a5,127
   12ac8:	8526                	mv	a0,s1
   12aca:	4681                	li	a3,0
   12acc:	00000073          	ecall
   12ad0:	02a7ed63          	bltu	a5,a0,12b0a <_ZN18complex_no_dynamic3app17h39dddbde9172ac9bE+0xae>
   12ad4:	872e                	mv	a4,a1
   12ad6:	4601                	li	a2,0
   12ad8:	4681                	li	a3,0
   12ada:	4505                	li	a0,1
   12adc:	6789                	lui	a5,0x2
   12ade:	45a1                	li	a1,8
   12ae0:	00a40023          	sb	a0,0(s0)
   12ae4:	c058                	sw	a4,4(s0)
   12ae6:	bd678793          	addi	a5,a5,-1066 # 1bd6 <.Lline_table_start1+0x19ab>
   12aea:	470d                	li	a4,3
   12aec:	853e                	mv	a0,a5
   12aee:	00000073          	ecall
   12af2:	4591                	li	a1,4
   12af4:	4711                	li	a4,4
   12af6:	853e                	mv	a0,a5
   12af8:	4601                	li	a2,0
   12afa:	4681                	li	a3,0
   12afc:	00000073          	ecall
   12b00:	40f6                	lw	ra,92(sp)
   12b02:	4466                	lw	s0,88(sp)
   12b04:	44d6                	lw	s1,84(sp)
   12b06:	6125                	addi	sp,sp,96
   12b08:	8082                	ret
   12b0a:	8526                	mv	a0,s1
   12b0c:	4601                	li	a2,0
   12b0e:	4681                	li	a3,0
   12b10:	45a1                	li	a1,8
   12b12:	470d                	li	a4,3
   12b14:	00000073          	ecall
   12b18:	45a1                	li	a1,8
   12b1a:	470d                	li	a4,3
   12b1c:	8526                	mv	a0,s1
   12b1e:	4601                	li	a2,0
   12b20:	4681                	li	a3,0
   12b22:	00000073          	ecall
   12b26:	00140513          	addi	a0,s0,1
   12b2a:	180c                	addi	a1,sp,48
   12b2c:	02400613          	li	a2,36
   12b30:	00008097          	auipc	ra,0x8
   12b34:	0e6080e7          	jalr	230(ra) # 1ac16 <memcpy>
   12b38:	8526                	mv	a0,s1
   12b3a:	4601                	li	a2,0
   12b3c:	4681                	li	a3,0
   12b3e:	00040023          	sb	zero,0(s0)
   12b42:	45a1                	li	a1,8
   12b44:	470d                	li	a4,3
   12b46:	00000073          	ecall
   12b4a:	4591                	li	a1,4
   12b4c:	4711                	li	a4,4
   12b4e:	8526                	mv	a0,s1
   12b50:	4601                	li	a2,0
   12b52:	4681                	li	a3,0
   12b54:	00000073          	ecall
   12b58:	b765                	j	12b00 <_ZN18complex_no_dynamic3app17h39dddbde9172ac9bE+0xa4>

00012b5a <_ZN18complex_no_dynamic3app17h3c34ea83ae272567E>:
   12b5a:	7119                	addi	sp,sp,-128
   12b5c:	de86                	sw	ra,124(sp)
   12b5e:	dca2                	sw	s0,120(sp)
   12b60:	daa6                	sw	s1,116(sp)
   12b62:	842a                	mv	s0,a0
   12b64:	850a                	mv	a0,sp
   12b66:	02100613          	li	a2,33
   12b6a:	00008097          	auipc	ra,0x8
   12b6e:	0ac080e7          	jalr	172(ra) # 1ac16 <memcpy>
   12b72:	02110513          	addi	a0,sp,33
   12b76:	05300613          	li	a2,83
   12b7a:	4581                	li	a1,0
   12b7c:	00008097          	auipc	ra,0x8
   12b80:	02e080e7          	jalr	46(ra) # 1abaa <memset>
   12b84:	6509                	lui	a0,0x2
   12b86:	4489                	li	s1,2
   12b88:	4589                	li	a1,2
   12b8a:	860a                	mv	a2,sp
   12b8c:	53e50793          	addi	a5,a0,1342 # 253e <.Lline_table_start1+0x2313>
   12b90:	02100693          	li	a3,33
   12b94:	4711                	li	a4,4
   12b96:	853e                	mv	a0,a5
   12b98:	00000073          	ecall
   12b9c:	02950b63          	beq	a0,s1,12bd2 <_ZN18complex_no_dynamic3app17h3c34ea83ae272567E+0x78>
   12ba0:	45a1                	li	a1,8
   12ba2:	02110613          	addi	a2,sp,33
   12ba6:	05300693          	li	a3,83
   12baa:	470d                	li	a4,3
   12bac:	853e                	mv	a0,a5
   12bae:	00000073          	ecall
   12bb2:	02950063          	beq	a0,s1,12bd2 <_ZN18complex_no_dynamic3app17h3c34ea83ae272567E+0x78>
   12bb6:	6509                	lui	a0,0x2
   12bb8:	4589                	li	a1,2
   12bba:	4621                	li	a2,8
   12bbc:	53e50493          	addi	s1,a0,1342 # 253e <.Lline_table_start1+0x2313>
   12bc0:	4709                	li	a4,2
   12bc2:	07f00793          	li	a5,127
   12bc6:	8526                	mv	a0,s1
   12bc8:	4681                	li	a3,0
   12bca:	00000073          	ecall
   12bce:	02a7ed63          	bltu	a5,a0,12c08 <_ZN18complex_no_dynamic3app17h3c34ea83ae272567E+0xae>
   12bd2:	872e                	mv	a4,a1
   12bd4:	4601                	li	a2,0
   12bd6:	4681                	li	a3,0
   12bd8:	4505                	li	a0,1
   12bda:	6789                	lui	a5,0x2
   12bdc:	45a1                	li	a1,8
   12bde:	00a40023          	sb	a0,0(s0)
   12be2:	c058                	sw	a4,4(s0)
   12be4:	53e78793          	addi	a5,a5,1342 # 253e <.Lline_table_start1+0x2313>
   12be8:	470d                	li	a4,3
   12bea:	853e                	mv	a0,a5
   12bec:	00000073          	ecall
   12bf0:	4589                	li	a1,2
   12bf2:	4711                	li	a4,4
   12bf4:	853e                	mv	a0,a5
   12bf6:	4601                	li	a2,0
   12bf8:	4681                	li	a3,0
   12bfa:	00000073          	ecall
   12bfe:	50f6                	lw	ra,124(sp)
   12c00:	5466                	lw	s0,120(sp)
   12c02:	54d6                	lw	s1,116(sp)
   12c04:	6109                	addi	sp,sp,128
   12c06:	8082                	ret
   12c08:	8526                	mv	a0,s1
   12c0a:	4601                	li	a2,0
   12c0c:	4681                	li	a3,0
   12c0e:	45a1                	li	a1,8
   12c10:	470d                	li	a4,3
   12c12:	00000073          	ecall
   12c16:	45a1                	li	a1,8
   12c18:	470d                	li	a4,3
   12c1a:	8526                	mv	a0,s1
   12c1c:	4601                	li	a2,0
   12c1e:	4681                	li	a3,0
   12c20:	00000073          	ecall
   12c24:	00140513          	addi	a0,s0,1
   12c28:	02110593          	addi	a1,sp,33
   12c2c:	05300613          	li	a2,83
   12c30:	00008097          	auipc	ra,0x8
   12c34:	fe6080e7          	jalr	-26(ra) # 1ac16 <memcpy>
   12c38:	8526                	mv	a0,s1
   12c3a:	4601                	li	a2,0
   12c3c:	4681                	li	a3,0
   12c3e:	00040023          	sb	zero,0(s0)
   12c42:	45a1                	li	a1,8
   12c44:	470d                	li	a4,3
   12c46:	00000073          	ecall
   12c4a:	4589                	li	a1,2
   12c4c:	4711                	li	a4,4
   12c4e:	8526                	mv	a0,s1
   12c50:	4601                	li	a2,0
   12c52:	4681                	li	a3,0
   12c54:	00000073          	ecall
   12c58:	b75d                	j	12bfe <_ZN18complex_no_dynamic3app17h3c34ea83ae272567E+0xa4>

00012c5a <_ZN18complex_no_dynamic3app17h3d20d32cf2e92329E>:
   12c5a:	7135                	addi	sp,sp,-160
   12c5c:	cf06                	sw	ra,156(sp)
   12c5e:	cd22                	sw	s0,152(sp)
   12c60:	cb26                	sw	s1,148(sp)
   12c62:	842a                	mv	s0,a0
   12c64:	00a10513          	addi	a0,sp,10
   12c68:	06300613          	li	a2,99
   12c6c:	00008097          	auipc	ra,0x8
   12c70:	faa080e7          	jalr	-86(ra) # 1ac16 <memcpy>
   12c74:	06d10513          	addi	a0,sp,109
   12c78:	02700613          	li	a2,39
   12c7c:	4581                	li	a1,0
   12c7e:	00008097          	auipc	ra,0x8
   12c82:	f2c080e7          	jalr	-212(ra) # 1abaa <memset>
   12c86:	6509                	lui	a0,0x2
   12c88:	459d                	li	a1,7
   12c8a:	00a10613          	addi	a2,sp,10
   12c8e:	06300693          	li	a3,99
   12c92:	e5450793          	addi	a5,a0,-428 # 1e54 <.Lline_table_start1+0x1c29>
   12c96:	4711                	li	a4,4
   12c98:	4489                	li	s1,2
   12c9a:	853e                	mv	a0,a5
   12c9c:	00000073          	ecall
   12ca0:	02950b63          	beq	a0,s1,12cd6 <_ZN18complex_no_dynamic3app17h3d20d32cf2e92329E+0x7c>
   12ca4:	06d10613          	addi	a2,sp,109
   12ca8:	02700693          	li	a3,39
   12cac:	470d                	li	a4,3
   12cae:	853e                	mv	a0,a5
   12cb0:	4581                	li	a1,0
   12cb2:	00000073          	ecall
   12cb6:	02950063          	beq	a0,s1,12cd6 <_ZN18complex_no_dynamic3app17h3d20d32cf2e92329E+0x7c>
   12cba:	6509                	lui	a0,0x2
   12cbc:	459d                	li	a1,7
   12cbe:	e5450493          	addi	s1,a0,-428 # 1e54 <.Lline_table_start1+0x1c29>
   12cc2:	4709                	li	a4,2
   12cc4:	07f00793          	li	a5,127
   12cc8:	8526                	mv	a0,s1
   12cca:	4601                	li	a2,0
   12ccc:	4681                	li	a3,0
   12cce:	00000073          	ecall
   12cd2:	02a7ed63          	bltu	a5,a0,12d0c <_ZN18complex_no_dynamic3app17h3d20d32cf2e92329E+0xb2>
   12cd6:	872e                	mv	a4,a1
   12cd8:	4581                	li	a1,0
   12cda:	4601                	li	a2,0
   12cdc:	4681                	li	a3,0
   12cde:	4505                	li	a0,1
   12ce0:	6789                	lui	a5,0x2
   12ce2:	00a40023          	sb	a0,0(s0)
   12ce6:	c058                	sw	a4,4(s0)
   12ce8:	e5478793          	addi	a5,a5,-428 # 1e54 <.Lline_table_start1+0x1c29>
   12cec:	470d                	li	a4,3
   12cee:	853e                	mv	a0,a5
   12cf0:	00000073          	ecall
   12cf4:	459d                	li	a1,7
   12cf6:	4711                	li	a4,4
   12cf8:	853e                	mv	a0,a5
   12cfa:	4601                	li	a2,0
   12cfc:	4681                	li	a3,0
   12cfe:	00000073          	ecall
   12d02:	40fa                	lw	ra,156(sp)
   12d04:	446a                	lw	s0,152(sp)
   12d06:	44da                	lw	s1,148(sp)
   12d08:	610d                	addi	sp,sp,160
   12d0a:	8082                	ret
   12d0c:	470d                	li	a4,3
   12d0e:	8526                	mv	a0,s1
   12d10:	4581                	li	a1,0
   12d12:	4601                	li	a2,0
   12d14:	4681                	li	a3,0
   12d16:	00000073          	ecall
   12d1a:	470d                	li	a4,3
   12d1c:	8526                	mv	a0,s1
   12d1e:	4581                	li	a1,0
   12d20:	4601                	li	a2,0
   12d22:	4681                	li	a3,0
   12d24:	00000073          	ecall
   12d28:	00140513          	addi	a0,s0,1
   12d2c:	06d10593          	addi	a1,sp,109
   12d30:	02700613          	li	a2,39
   12d34:	00008097          	auipc	ra,0x8
   12d38:	ee2080e7          	jalr	-286(ra) # 1ac16 <memcpy>
   12d3c:	8526                	mv	a0,s1
   12d3e:	4581                	li	a1,0
   12d40:	4601                	li	a2,0
   12d42:	4681                	li	a3,0
   12d44:	00040023          	sb	zero,0(s0)
   12d48:	470d                	li	a4,3
   12d4a:	00000073          	ecall
   12d4e:	459d                	li	a1,7
   12d50:	4711                	li	a4,4
   12d52:	8526                	mv	a0,s1
   12d54:	4601                	li	a2,0
   12d56:	4681                	li	a3,0
   12d58:	00000073          	ecall
   12d5c:	b75d                	j	12d02 <_ZN18complex_no_dynamic3app17h3d20d32cf2e92329E+0xa8>

00012d5e <_ZN18complex_no_dynamic3app17h3e7f76d0bb5ad748E>:
   12d5e:	711d                	addi	sp,sp,-96
   12d60:	ce86                	sw	ra,92(sp)
   12d62:	cca2                	sw	s0,88(sp)
   12d64:	caa6                	sw	s1,84(sp)
   12d66:	842a                	mv	s0,a0
   12d68:	00f10513          	addi	a0,sp,15
   12d6c:	02700613          	li	a2,39
   12d70:	00008097          	auipc	ra,0x8
   12d74:	ea6080e7          	jalr	-346(ra) # 1ac16 <memcpy>
   12d78:	03610513          	addi	a0,sp,54
   12d7c:	4679                	li	a2,30
   12d7e:	4581                	li	a1,0
   12d80:	00008097          	auipc	ra,0x8
   12d84:	e2a080e7          	jalr	-470(ra) # 1abaa <memset>
   12d88:	6505                	lui	a0,0x1
   12d8a:	458d                	li	a1,3
   12d8c:	00f10613          	addi	a2,sp,15
   12d90:	02700693          	li	a3,39
   12d94:	0e250793          	addi	a5,a0,226 # 10e2 <.Lline_table_start1+0xeb7>
   12d98:	4711                	li	a4,4
   12d9a:	4489                	li	s1,2
   12d9c:	853e                	mv	a0,a5
   12d9e:	00000073          	ecall
   12da2:	02950a63          	beq	a0,s1,12dd6 <_ZN18complex_no_dynamic3app17h3e7f76d0bb5ad748E+0x78>
   12da6:	458d                	li	a1,3
   12da8:	03610613          	addi	a2,sp,54
   12dac:	46f9                	li	a3,30
   12dae:	470d                	li	a4,3
   12db0:	853e                	mv	a0,a5
   12db2:	00000073          	ecall
   12db6:	02950063          	beq	a0,s1,12dd6 <_ZN18complex_no_dynamic3app17h3e7f76d0bb5ad748E+0x78>
   12dba:	6505                	lui	a0,0x1
   12dbc:	458d                	li	a1,3
   12dbe:	460d                	li	a2,3
   12dc0:	0e250493          	addi	s1,a0,226 # 10e2 <.Lline_table_start1+0xeb7>
   12dc4:	4709                	li	a4,2
   12dc6:	07f00793          	li	a5,127
   12dca:	8526                	mv	a0,s1
   12dcc:	4681                	li	a3,0
   12dce:	00000073          	ecall
   12dd2:	02a7ed63          	bltu	a5,a0,12e0c <_ZN18complex_no_dynamic3app17h3e7f76d0bb5ad748E+0xae>
   12dd6:	872e                	mv	a4,a1
   12dd8:	4601                	li	a2,0
   12dda:	4681                	li	a3,0
   12ddc:	4505                	li	a0,1
   12dde:	6785                	lui	a5,0x1
   12de0:	458d                	li	a1,3
   12de2:	00a40023          	sb	a0,0(s0)
   12de6:	c058                	sw	a4,4(s0)
   12de8:	0e278793          	addi	a5,a5,226 # 10e2 <.Lline_table_start1+0xeb7>
   12dec:	470d                	li	a4,3
   12dee:	853e                	mv	a0,a5
   12df0:	00000073          	ecall
   12df4:	458d                	li	a1,3
   12df6:	4711                	li	a4,4
   12df8:	853e                	mv	a0,a5
   12dfa:	4601                	li	a2,0
   12dfc:	4681                	li	a3,0
   12dfe:	00000073          	ecall
   12e02:	40f6                	lw	ra,92(sp)
   12e04:	4466                	lw	s0,88(sp)
   12e06:	44d6                	lw	s1,84(sp)
   12e08:	6125                	addi	sp,sp,96
   12e0a:	8082                	ret
   12e0c:	8526                	mv	a0,s1
   12e0e:	4601                	li	a2,0
   12e10:	4681                	li	a3,0
   12e12:	458d                	li	a1,3
   12e14:	470d                	li	a4,3
   12e16:	00000073          	ecall
   12e1a:	458d                	li	a1,3
   12e1c:	470d                	li	a4,3
   12e1e:	8526                	mv	a0,s1
   12e20:	4601                	li	a2,0
   12e22:	4681                	li	a3,0
   12e24:	00000073          	ecall
   12e28:	00140513          	addi	a0,s0,1
   12e2c:	03610593          	addi	a1,sp,54
   12e30:	4679                	li	a2,30
   12e32:	00008097          	auipc	ra,0x8
   12e36:	de4080e7          	jalr	-540(ra) # 1ac16 <memcpy>
   12e3a:	8526                	mv	a0,s1
   12e3c:	4601                	li	a2,0
   12e3e:	4681                	li	a3,0
   12e40:	00040023          	sb	zero,0(s0)
   12e44:	458d                	li	a1,3
   12e46:	470d                	li	a4,3
   12e48:	00000073          	ecall
   12e4c:	458d                	li	a1,3
   12e4e:	4711                	li	a4,4
   12e50:	8526                	mv	a0,s1
   12e52:	4601                	li	a2,0
   12e54:	4681                	li	a3,0
   12e56:	00000073          	ecall
   12e5a:	b765                	j	12e02 <_ZN18complex_no_dynamic3app17h3e7f76d0bb5ad748E+0xa4>

00012e5c <_ZN18complex_no_dynamic3app17h4332653be63a3dacE>:
   12e5c:	7171                	addi	sp,sp,-176
   12e5e:	d706                	sw	ra,172(sp)
   12e60:	d522                	sw	s0,168(sp)
   12e62:	d326                	sw	s1,164(sp)
   12e64:	842a                	mv	s0,a0
   12e66:	00710513          	addi	a0,sp,7
   12e6a:	05d00613          	li	a2,93
   12e6e:	00008097          	auipc	ra,0x8
   12e72:	da8080e7          	jalr	-600(ra) # 1ac16 <memcpy>
   12e76:	10c8                	addi	a0,sp,100
   12e78:	04000613          	li	a2,64
   12e7c:	4581                	li	a1,0
   12e7e:	00008097          	auipc	ra,0x8
   12e82:	d2c080e7          	jalr	-724(ra) # 1abaa <memset>
   12e86:	6505                	lui	a0,0x1
   12e88:	45a1                	li	a1,8
   12e8a:	00710613          	addi	a2,sp,7
   12e8e:	05d00693          	li	a3,93
   12e92:	02850793          	addi	a5,a0,40 # 1028 <.Lline_table_start1+0xdfd>
   12e96:	4711                	li	a4,4
   12e98:	4489                	li	s1,2
   12e9a:	853e                	mv	a0,a5
   12e9c:	00000073          	ecall
   12ea0:	02950a63          	beq	a0,s1,12ed4 <_ZN18complex_no_dynamic3app17h4332653be63a3dacE+0x78>
   12ea4:	4591                	li	a1,4
   12ea6:	10d0                	addi	a2,sp,100
   12ea8:	04000693          	li	a3,64
   12eac:	470d                	li	a4,3
   12eae:	853e                	mv	a0,a5
   12eb0:	00000073          	ecall
   12eb4:	02950063          	beq	a0,s1,12ed4 <_ZN18complex_no_dynamic3app17h4332653be63a3dacE+0x78>
   12eb8:	6505                	lui	a0,0x1
   12eba:	45a1                	li	a1,8
   12ebc:	4611                	li	a2,4
   12ebe:	02850493          	addi	s1,a0,40 # 1028 <.Lline_table_start1+0xdfd>
   12ec2:	4709                	li	a4,2
   12ec4:	07f00793          	li	a5,127
   12ec8:	8526                	mv	a0,s1
   12eca:	4681                	li	a3,0
   12ecc:	00000073          	ecall
   12ed0:	02a7ed63          	bltu	a5,a0,12f0a <_ZN18complex_no_dynamic3app17h4332653be63a3dacE+0xae>
   12ed4:	872e                	mv	a4,a1
   12ed6:	4601                	li	a2,0
   12ed8:	4681                	li	a3,0
   12eda:	4505                	li	a0,1
   12edc:	6785                	lui	a5,0x1
   12ede:	4591                	li	a1,4
   12ee0:	00a40023          	sb	a0,0(s0)
   12ee4:	c058                	sw	a4,4(s0)
   12ee6:	02878793          	addi	a5,a5,40 # 1028 <.Lline_table_start1+0xdfd>
   12eea:	470d                	li	a4,3
   12eec:	853e                	mv	a0,a5
   12eee:	00000073          	ecall
   12ef2:	45a1                	li	a1,8
   12ef4:	4711                	li	a4,4
   12ef6:	853e                	mv	a0,a5
   12ef8:	4601                	li	a2,0
   12efa:	4681                	li	a3,0
   12efc:	00000073          	ecall
   12f00:	50ba                	lw	ra,172(sp)
   12f02:	542a                	lw	s0,168(sp)
   12f04:	549a                	lw	s1,164(sp)
   12f06:	614d                	addi	sp,sp,176
   12f08:	8082                	ret
   12f0a:	8526                	mv	a0,s1
   12f0c:	4601                	li	a2,0
   12f0e:	4681                	li	a3,0
   12f10:	4591                	li	a1,4
   12f12:	470d                	li	a4,3
   12f14:	00000073          	ecall
   12f18:	4591                	li	a1,4
   12f1a:	470d                	li	a4,3
   12f1c:	8526                	mv	a0,s1
   12f1e:	4601                	li	a2,0
   12f20:	4681                	li	a3,0
   12f22:	00000073          	ecall
   12f26:	00140513          	addi	a0,s0,1
   12f2a:	10cc                	addi	a1,sp,100
   12f2c:	04000613          	li	a2,64
   12f30:	00008097          	auipc	ra,0x8
   12f34:	ce6080e7          	jalr	-794(ra) # 1ac16 <memcpy>
   12f38:	8526                	mv	a0,s1
   12f3a:	4601                	li	a2,0
   12f3c:	4681                	li	a3,0
   12f3e:	00040023          	sb	zero,0(s0)
   12f42:	4591                	li	a1,4
   12f44:	470d                	li	a4,3
   12f46:	00000073          	ecall
   12f4a:	45a1                	li	a1,8
   12f4c:	4711                	li	a4,4
   12f4e:	8526                	mv	a0,s1
   12f50:	4601                	li	a2,0
   12f52:	4681                	li	a3,0
   12f54:	00000073          	ecall
   12f58:	b765                	j	12f00 <_ZN18complex_no_dynamic3app17h4332653be63a3dacE+0xa4>

00012f5a <_ZN18complex_no_dynamic3app17h433a004fab26c4dfE>:
   12f5a:	7159                	addi	sp,sp,-112
   12f5c:	d686                	sw	ra,108(sp)
   12f5e:	d4a2                	sw	s0,104(sp)
   12f60:	d2a6                	sw	s1,100(sp)
   12f62:	842a                	mv	s0,a0
   12f64:	00d10513          	addi	a0,sp,13
   12f68:	04800613          	li	a2,72
   12f6c:	00008097          	auipc	ra,0x8
   12f70:	caa080e7          	jalr	-854(ra) # 1ac16 <memcpy>
   12f74:	05510513          	addi	a0,sp,85
   12f78:	463d                	li	a2,15
   12f7a:	4581                	li	a1,0
   12f7c:	00008097          	auipc	ra,0x8
   12f80:	c2e080e7          	jalr	-978(ra) # 1abaa <memset>
   12f84:	6505                	lui	a0,0x1
   12f86:	45a1                	li	a1,8
   12f88:	00d10613          	addi	a2,sp,13
   12f8c:	04800693          	li	a3,72
   12f90:	11d50793          	addi	a5,a0,285 # 111d <.Lline_table_start1+0xef2>
   12f94:	4711                	li	a4,4
   12f96:	4489                	li	s1,2
   12f98:	853e                	mv	a0,a5
   12f9a:	00000073          	ecall
   12f9e:	02950a63          	beq	a0,s1,12fd2 <_ZN18complex_no_dynamic3app17h433a004fab26c4dfE+0x78>
   12fa2:	45a5                	li	a1,9
   12fa4:	05510613          	addi	a2,sp,85
   12fa8:	46bd                	li	a3,15
   12faa:	470d                	li	a4,3
   12fac:	853e                	mv	a0,a5
   12fae:	00000073          	ecall
   12fb2:	02950063          	beq	a0,s1,12fd2 <_ZN18complex_no_dynamic3app17h433a004fab26c4dfE+0x78>
   12fb6:	6505                	lui	a0,0x1
   12fb8:	45a1                	li	a1,8
   12fba:	4625                	li	a2,9
   12fbc:	11d50493          	addi	s1,a0,285 # 111d <.Lline_table_start1+0xef2>
   12fc0:	4709                	li	a4,2
   12fc2:	07f00793          	li	a5,127
   12fc6:	8526                	mv	a0,s1
   12fc8:	4681                	li	a3,0
   12fca:	00000073          	ecall
   12fce:	02a7ed63          	bltu	a5,a0,13008 <_ZN18complex_no_dynamic3app17h433a004fab26c4dfE+0xae>
   12fd2:	872e                	mv	a4,a1
   12fd4:	4601                	li	a2,0
   12fd6:	4681                	li	a3,0
   12fd8:	4505                	li	a0,1
   12fda:	6785                	lui	a5,0x1
   12fdc:	45a5                	li	a1,9
   12fde:	00a40023          	sb	a0,0(s0)
   12fe2:	c058                	sw	a4,4(s0)
   12fe4:	11d78793          	addi	a5,a5,285 # 111d <.Lline_table_start1+0xef2>
   12fe8:	470d                	li	a4,3
   12fea:	853e                	mv	a0,a5
   12fec:	00000073          	ecall
   12ff0:	45a1                	li	a1,8
   12ff2:	4711                	li	a4,4
   12ff4:	853e                	mv	a0,a5
   12ff6:	4601                	li	a2,0
   12ff8:	4681                	li	a3,0
   12ffa:	00000073          	ecall
   12ffe:	50b6                	lw	ra,108(sp)
   13000:	5426                	lw	s0,104(sp)
   13002:	5496                	lw	s1,100(sp)
   13004:	6165                	addi	sp,sp,112
   13006:	8082                	ret
   13008:	8526                	mv	a0,s1
   1300a:	4601                	li	a2,0
   1300c:	4681                	li	a3,0
   1300e:	45a5                	li	a1,9
   13010:	470d                	li	a4,3
   13012:	00000073          	ecall
   13016:	45a5                	li	a1,9
   13018:	470d                	li	a4,3
   1301a:	8526                	mv	a0,s1
   1301c:	4601                	li	a2,0
   1301e:	4681                	li	a3,0
   13020:	00000073          	ecall
   13024:	00140513          	addi	a0,s0,1
   13028:	05510593          	addi	a1,sp,85
   1302c:	463d                	li	a2,15
   1302e:	00008097          	auipc	ra,0x8
   13032:	be8080e7          	jalr	-1048(ra) # 1ac16 <memcpy>
   13036:	8526                	mv	a0,s1
   13038:	4601                	li	a2,0
   1303a:	4681                	li	a3,0
   1303c:	00040023          	sb	zero,0(s0)
   13040:	45a5                	li	a1,9
   13042:	470d                	li	a4,3
   13044:	00000073          	ecall
   13048:	45a1                	li	a1,8
   1304a:	4711                	li	a4,4
   1304c:	8526                	mv	a0,s1
   1304e:	4601                	li	a2,0
   13050:	4681                	li	a3,0
   13052:	00000073          	ecall
   13056:	b765                	j	12ffe <_ZN18complex_no_dynamic3app17h433a004fab26c4dfE+0xa4>

00013058 <_ZN18complex_no_dynamic3app17h444bfe7d8c3f64f7E>:
   13058:	715d                	addi	sp,sp,-80
   1305a:	c686                	sw	ra,76(sp)
   1305c:	c4a2                	sw	s0,72(sp)
   1305e:	c2a6                	sw	s1,68(sp)
   13060:	842a                	mv	s0,a0
   13062:	00e10513          	addi	a0,sp,14
   13066:	4661                	li	a2,24
   13068:	00008097          	auipc	ra,0x8
   1306c:	bae080e7          	jalr	-1106(ra) # 1ac16 <memcpy>
   13070:	02610513          	addi	a0,sp,38
   13074:	4679                	li	a2,30
   13076:	4581                	li	a1,0
   13078:	00008097          	auipc	ra,0x8
   1307c:	b32080e7          	jalr	-1230(ra) # 1abaa <memset>
   13080:	6505                	lui	a0,0x1
   13082:	45a5                	li	a1,9
   13084:	00e10613          	addi	a2,sp,14
   13088:	46e1                	li	a3,24
   1308a:	cbb50793          	addi	a5,a0,-837 # cbb <.Lline_table_start1+0xa90>
   1308e:	4711                	li	a4,4
   13090:	4489                	li	s1,2
   13092:	853e                	mv	a0,a5
   13094:	00000073          	ecall
   13098:	02950a63          	beq	a0,s1,130cc <_ZN18complex_no_dynamic3app17h444bfe7d8c3f64f7E+0x74>
   1309c:	4595                	li	a1,5
   1309e:	02610613          	addi	a2,sp,38
   130a2:	46f9                	li	a3,30
   130a4:	470d                	li	a4,3
   130a6:	853e                	mv	a0,a5
   130a8:	00000073          	ecall
   130ac:	02950063          	beq	a0,s1,130cc <_ZN18complex_no_dynamic3app17h444bfe7d8c3f64f7E+0x74>
   130b0:	6505                	lui	a0,0x1
   130b2:	45a5                	li	a1,9
   130b4:	4615                	li	a2,5
   130b6:	cbb50493          	addi	s1,a0,-837 # cbb <.Lline_table_start1+0xa90>
   130ba:	4709                	li	a4,2
   130bc:	07f00793          	li	a5,127
   130c0:	8526                	mv	a0,s1
   130c2:	4681                	li	a3,0
   130c4:	00000073          	ecall
   130c8:	02a7ed63          	bltu	a5,a0,13102 <_ZN18complex_no_dynamic3app17h444bfe7d8c3f64f7E+0xaa>
   130cc:	872e                	mv	a4,a1
   130ce:	4601                	li	a2,0
   130d0:	4681                	li	a3,0
   130d2:	4505                	li	a0,1
   130d4:	6785                	lui	a5,0x1
   130d6:	4595                	li	a1,5
   130d8:	00a40023          	sb	a0,0(s0)
   130dc:	c058                	sw	a4,4(s0)
   130de:	cbb78793          	addi	a5,a5,-837 # cbb <.Lline_table_start1+0xa90>
   130e2:	470d                	li	a4,3
   130e4:	853e                	mv	a0,a5
   130e6:	00000073          	ecall
   130ea:	45a5                	li	a1,9
   130ec:	4711                	li	a4,4
   130ee:	853e                	mv	a0,a5
   130f0:	4601                	li	a2,0
   130f2:	4681                	li	a3,0
   130f4:	00000073          	ecall
   130f8:	40b6                	lw	ra,76(sp)
   130fa:	4426                	lw	s0,72(sp)
   130fc:	4496                	lw	s1,68(sp)
   130fe:	6161                	addi	sp,sp,80
   13100:	8082                	ret
   13102:	8526                	mv	a0,s1
   13104:	4601                	li	a2,0
   13106:	4681                	li	a3,0
   13108:	4595                	li	a1,5
   1310a:	470d                	li	a4,3
   1310c:	00000073          	ecall
   13110:	4595                	li	a1,5
   13112:	470d                	li	a4,3
   13114:	8526                	mv	a0,s1
   13116:	4601                	li	a2,0
   13118:	4681                	li	a3,0
   1311a:	00000073          	ecall
   1311e:	00140513          	addi	a0,s0,1
   13122:	02610593          	addi	a1,sp,38
   13126:	4679                	li	a2,30
   13128:	00008097          	auipc	ra,0x8
   1312c:	aee080e7          	jalr	-1298(ra) # 1ac16 <memcpy>
   13130:	8526                	mv	a0,s1
   13132:	4601                	li	a2,0
   13134:	4681                	li	a3,0
   13136:	00040023          	sb	zero,0(s0)
   1313a:	4595                	li	a1,5
   1313c:	470d                	li	a4,3
   1313e:	00000073          	ecall
   13142:	45a5                	li	a1,9
   13144:	4711                	li	a4,4
   13146:	8526                	mv	a0,s1
   13148:	4601                	li	a2,0
   1314a:	4681                	li	a3,0
   1314c:	00000073          	ecall
   13150:	b765                	j	130f8 <_ZN18complex_no_dynamic3app17h444bfe7d8c3f64f7E+0xa0>

00013152 <_ZN18complex_no_dynamic3app17h44c8d1e134bced00E>:
   13152:	7131                	addi	sp,sp,-192
   13154:	df06                	sw	ra,188(sp)
   13156:	dd22                	sw	s0,184(sp)
   13158:	db26                	sw	s1,180(sp)
   1315a:	842a                	mv	s0,a0
   1315c:	00110513          	addi	a0,sp,1
   13160:	05e00613          	li	a2,94
   13164:	00008097          	auipc	ra,0x8
   13168:	ab2080e7          	jalr	-1358(ra) # 1ac16 <memcpy>
   1316c:	05f10513          	addi	a0,sp,95
   13170:	05500613          	li	a2,85
   13174:	4581                	li	a1,0
   13176:	00008097          	auipc	ra,0x8
   1317a:	a34080e7          	jalr	-1484(ra) # 1abaa <memset>
   1317e:	6505                	lui	a0,0x1
   13180:	459d                	li	a1,7
   13182:	00110613          	addi	a2,sp,1
   13186:	05e00693          	li	a3,94
   1318a:	78a50793          	addi	a5,a0,1930 # 178a <.Lline_table_start1+0x155f>
   1318e:	4711                	li	a4,4
   13190:	4489                	li	s1,2
   13192:	853e                	mv	a0,a5
   13194:	00000073          	ecall
   13198:	02950b63          	beq	a0,s1,131ce <_ZN18complex_no_dynamic3app17h44c8d1e134bced00E+0x7c>
   1319c:	458d                	li	a1,3
   1319e:	05f10613          	addi	a2,sp,95
   131a2:	05500693          	li	a3,85
   131a6:	470d                	li	a4,3
   131a8:	853e                	mv	a0,a5
   131aa:	00000073          	ecall
   131ae:	02950063          	beq	a0,s1,131ce <_ZN18complex_no_dynamic3app17h44c8d1e134bced00E+0x7c>
   131b2:	6505                	lui	a0,0x1
   131b4:	459d                	li	a1,7
   131b6:	460d                	li	a2,3
   131b8:	78a50493          	addi	s1,a0,1930 # 178a <.Lline_table_start1+0x155f>
   131bc:	4709                	li	a4,2
   131be:	07f00793          	li	a5,127
   131c2:	8526                	mv	a0,s1
   131c4:	4681                	li	a3,0
   131c6:	00000073          	ecall
   131ca:	02a7ed63          	bltu	a5,a0,13204 <_ZN18complex_no_dynamic3app17h44c8d1e134bced00E+0xb2>
   131ce:	872e                	mv	a4,a1
   131d0:	4601                	li	a2,0
   131d2:	4681                	li	a3,0
   131d4:	4505                	li	a0,1
   131d6:	6785                	lui	a5,0x1
   131d8:	458d                	li	a1,3
   131da:	00a40023          	sb	a0,0(s0)
   131de:	c058                	sw	a4,4(s0)
   131e0:	78a78793          	addi	a5,a5,1930 # 178a <.Lline_table_start1+0x155f>
   131e4:	470d                	li	a4,3
   131e6:	853e                	mv	a0,a5
   131e8:	00000073          	ecall
   131ec:	459d                	li	a1,7
   131ee:	4711                	li	a4,4
   131f0:	853e                	mv	a0,a5
   131f2:	4601                	li	a2,0
   131f4:	4681                	li	a3,0
   131f6:	00000073          	ecall
   131fa:	50fa                	lw	ra,188(sp)
   131fc:	546a                	lw	s0,184(sp)
   131fe:	54da                	lw	s1,180(sp)
   13200:	6129                	addi	sp,sp,192
   13202:	8082                	ret
   13204:	8526                	mv	a0,s1
   13206:	4601                	li	a2,0
   13208:	4681                	li	a3,0
   1320a:	458d                	li	a1,3
   1320c:	470d                	li	a4,3
   1320e:	00000073          	ecall
   13212:	458d                	li	a1,3
   13214:	470d                	li	a4,3
   13216:	8526                	mv	a0,s1
   13218:	4601                	li	a2,0
   1321a:	4681                	li	a3,0
   1321c:	00000073          	ecall
   13220:	00140513          	addi	a0,s0,1
   13224:	05f10593          	addi	a1,sp,95
   13228:	05500613          	li	a2,85
   1322c:	00008097          	auipc	ra,0x8
   13230:	9ea080e7          	jalr	-1558(ra) # 1ac16 <memcpy>
   13234:	8526                	mv	a0,s1
   13236:	4601                	li	a2,0
   13238:	4681                	li	a3,0
   1323a:	00040023          	sb	zero,0(s0)
   1323e:	458d                	li	a1,3
   13240:	470d                	li	a4,3
   13242:	00000073          	ecall
   13246:	459d                	li	a1,7
   13248:	4711                	li	a4,4
   1324a:	8526                	mv	a0,s1
   1324c:	4601                	li	a2,0
   1324e:	4681                	li	a3,0
   13250:	00000073          	ecall
   13254:	b75d                	j	131fa <_ZN18complex_no_dynamic3app17h44c8d1e134bced00E+0xa8>

00013256 <_ZN18complex_no_dynamic3app17h4689e1f21df2556fE>:
   13256:	7119                	addi	sp,sp,-128
   13258:	de86                	sw	ra,124(sp)
   1325a:	dca2                	sw	s0,120(sp)
   1325c:	daa6                	sw	s1,116(sp)
   1325e:	842a                	mv	s0,a0
   13260:	00e10513          	addi	a0,sp,14
   13264:	05500613          	li	a2,85
   13268:	00008097          	auipc	ra,0x8
   1326c:	9ae080e7          	jalr	-1618(ra) # 1ac16 <memcpy>
   13270:	06310513          	addi	a0,sp,99
   13274:	4645                	li	a2,17
   13276:	4581                	li	a1,0
   13278:	00008097          	auipc	ra,0x8
   1327c:	932080e7          	jalr	-1742(ra) # 1abaa <memset>
   13280:	6505                	lui	a0,0x1
   13282:	4489                	li	s1,2
   13284:	4589                	li	a1,2
   13286:	00e10613          	addi	a2,sp,14
   1328a:	c8950793          	addi	a5,a0,-887 # c89 <.Lline_table_start1+0xa5e>
   1328e:	05500693          	li	a3,85
   13292:	4711                	li	a4,4
   13294:	853e                	mv	a0,a5
   13296:	00000073          	ecall
   1329a:	02950a63          	beq	a0,s1,132ce <_ZN18complex_no_dynamic3app17h4689e1f21df2556fE+0x78>
   1329e:	4589                	li	a1,2
   132a0:	06310613          	addi	a2,sp,99
   132a4:	46c5                	li	a3,17
   132a6:	470d                	li	a4,3
   132a8:	853e                	mv	a0,a5
   132aa:	00000073          	ecall
   132ae:	02950063          	beq	a0,s1,132ce <_ZN18complex_no_dynamic3app17h4689e1f21df2556fE+0x78>
   132b2:	6505                	lui	a0,0x1
   132b4:	4589                	li	a1,2
   132b6:	4609                	li	a2,2
   132b8:	c8950493          	addi	s1,a0,-887 # c89 <.Lline_table_start1+0xa5e>
   132bc:	4709                	li	a4,2
   132be:	07f00793          	li	a5,127
   132c2:	8526                	mv	a0,s1
   132c4:	4681                	li	a3,0
   132c6:	00000073          	ecall
   132ca:	02a7ed63          	bltu	a5,a0,13304 <_ZN18complex_no_dynamic3app17h4689e1f21df2556fE+0xae>
   132ce:	872e                	mv	a4,a1
   132d0:	4601                	li	a2,0
   132d2:	4681                	li	a3,0
   132d4:	4505                	li	a0,1
   132d6:	6785                	lui	a5,0x1
   132d8:	4589                	li	a1,2
   132da:	00a40023          	sb	a0,0(s0)
   132de:	c058                	sw	a4,4(s0)
   132e0:	c8978793          	addi	a5,a5,-887 # c89 <.Lline_table_start1+0xa5e>
   132e4:	470d                	li	a4,3
   132e6:	853e                	mv	a0,a5
   132e8:	00000073          	ecall
   132ec:	4589                	li	a1,2
   132ee:	4711                	li	a4,4
   132f0:	853e                	mv	a0,a5
   132f2:	4601                	li	a2,0
   132f4:	4681                	li	a3,0
   132f6:	00000073          	ecall
   132fa:	50f6                	lw	ra,124(sp)
   132fc:	5466                	lw	s0,120(sp)
   132fe:	54d6                	lw	s1,116(sp)
   13300:	6109                	addi	sp,sp,128
   13302:	8082                	ret
   13304:	8526                	mv	a0,s1
   13306:	4601                	li	a2,0
   13308:	4681                	li	a3,0
   1330a:	4589                	li	a1,2
   1330c:	470d                	li	a4,3
   1330e:	00000073          	ecall
   13312:	4589                	li	a1,2
   13314:	470d                	li	a4,3
   13316:	8526                	mv	a0,s1
   13318:	4601                	li	a2,0
   1331a:	4681                	li	a3,0
   1331c:	00000073          	ecall
   13320:	00140513          	addi	a0,s0,1
   13324:	06310593          	addi	a1,sp,99
   13328:	4645                	li	a2,17
   1332a:	00008097          	auipc	ra,0x8
   1332e:	8ec080e7          	jalr	-1812(ra) # 1ac16 <memcpy>
   13332:	8526                	mv	a0,s1
   13334:	4601                	li	a2,0
   13336:	4681                	li	a3,0
   13338:	00040023          	sb	zero,0(s0)
   1333c:	4589                	li	a1,2
   1333e:	470d                	li	a4,3
   13340:	00000073          	ecall
   13344:	4589                	li	a1,2
   13346:	4711                	li	a4,4
   13348:	8526                	mv	a0,s1
   1334a:	4601                	li	a2,0
   1334c:	4681                	li	a3,0
   1334e:	00000073          	ecall
   13352:	b765                	j	132fa <_ZN18complex_no_dynamic3app17h4689e1f21df2556fE+0xa4>

00013354 <_ZN18complex_no_dynamic3app17h4dc64539dd0076a5E>:
   13354:	7171                	addi	sp,sp,-176
   13356:	d706                	sw	ra,172(sp)
   13358:	d522                	sw	s0,168(sp)
   1335a:	d326                	sw	s1,164(sp)
   1335c:	842a                	mv	s0,a0
   1335e:	0028                	addi	a0,sp,8
   13360:	04600613          	li	a2,70
   13364:	00008097          	auipc	ra,0x8
   13368:	8b2080e7          	jalr	-1870(ra) # 1ac16 <memcpy>
   1336c:	04e10513          	addi	a0,sp,78
   13370:	05600613          	li	a2,86
   13374:	4581                	li	a1,0
   13376:	00008097          	auipc	ra,0x8
   1337a:	834080e7          	jalr	-1996(ra) # 1abaa <memset>
   1337e:	6509                	lui	a0,0x2
   13380:	459d                	li	a1,7
   13382:	0030                	addi	a2,sp,8
   13384:	04600693          	li	a3,70
   13388:	e5050793          	addi	a5,a0,-432 # 1e50 <.Lline_table_start1+0x1c25>
   1338c:	4711                	li	a4,4
   1338e:	4489                	li	s1,2
   13390:	853e                	mv	a0,a5
   13392:	00000073          	ecall
   13396:	02950b63          	beq	a0,s1,133cc <_ZN18complex_no_dynamic3app17h4dc64539dd0076a5E+0x78>
   1339a:	458d                	li	a1,3
   1339c:	04e10613          	addi	a2,sp,78
   133a0:	05600693          	li	a3,86
   133a4:	470d                	li	a4,3
   133a6:	853e                	mv	a0,a5
   133a8:	00000073          	ecall
   133ac:	02950063          	beq	a0,s1,133cc <_ZN18complex_no_dynamic3app17h4dc64539dd0076a5E+0x78>
   133b0:	6509                	lui	a0,0x2
   133b2:	459d                	li	a1,7
   133b4:	460d                	li	a2,3
   133b6:	e5050493          	addi	s1,a0,-432 # 1e50 <.Lline_table_start1+0x1c25>
   133ba:	4709                	li	a4,2
   133bc:	07f00793          	li	a5,127
   133c0:	8526                	mv	a0,s1
   133c2:	4681                	li	a3,0
   133c4:	00000073          	ecall
   133c8:	02a7ed63          	bltu	a5,a0,13402 <_ZN18complex_no_dynamic3app17h4dc64539dd0076a5E+0xae>
   133cc:	872e                	mv	a4,a1
   133ce:	4601                	li	a2,0
   133d0:	4681                	li	a3,0
   133d2:	4505                	li	a0,1
   133d4:	6789                	lui	a5,0x2
   133d6:	458d                	li	a1,3
   133d8:	00a40023          	sb	a0,0(s0)
   133dc:	c058                	sw	a4,4(s0)
   133de:	e5078793          	addi	a5,a5,-432 # 1e50 <.Lline_table_start1+0x1c25>
   133e2:	470d                	li	a4,3
   133e4:	853e                	mv	a0,a5
   133e6:	00000073          	ecall
   133ea:	459d                	li	a1,7
   133ec:	4711                	li	a4,4
   133ee:	853e                	mv	a0,a5
   133f0:	4601                	li	a2,0
   133f2:	4681                	li	a3,0
   133f4:	00000073          	ecall
   133f8:	50ba                	lw	ra,172(sp)
   133fa:	542a                	lw	s0,168(sp)
   133fc:	549a                	lw	s1,164(sp)
   133fe:	614d                	addi	sp,sp,176
   13400:	8082                	ret
   13402:	8526                	mv	a0,s1
   13404:	4601                	li	a2,0
   13406:	4681                	li	a3,0
   13408:	458d                	li	a1,3
   1340a:	470d                	li	a4,3
   1340c:	00000073          	ecall
   13410:	458d                	li	a1,3
   13412:	470d                	li	a4,3
   13414:	8526                	mv	a0,s1
   13416:	4601                	li	a2,0
   13418:	4681                	li	a3,0
   1341a:	00000073          	ecall
   1341e:	00140513          	addi	a0,s0,1
   13422:	04e10593          	addi	a1,sp,78
   13426:	05600613          	li	a2,86
   1342a:	00007097          	auipc	ra,0x7
   1342e:	7ec080e7          	jalr	2028(ra) # 1ac16 <memcpy>
   13432:	8526                	mv	a0,s1
   13434:	4601                	li	a2,0
   13436:	4681                	li	a3,0
   13438:	00040023          	sb	zero,0(s0)
   1343c:	458d                	li	a1,3
   1343e:	470d                	li	a4,3
   13440:	00000073          	ecall
   13444:	459d                	li	a1,7
   13446:	4711                	li	a4,4
   13448:	8526                	mv	a0,s1
   1344a:	4601                	li	a2,0
   1344c:	4681                	li	a3,0
   1344e:	00000073          	ecall
   13452:	b75d                	j	133f8 <_ZN18complex_no_dynamic3app17h4dc64539dd0076a5E+0xa4>

00013454 <_ZN18complex_no_dynamic3app17h4e69d42b788abe88E>:
   13454:	7175                	addi	sp,sp,-144
   13456:	c706                	sw	ra,140(sp)
   13458:	c522                	sw	s0,136(sp)
   1345a:	c326                	sw	s1,132(sp)
   1345c:	842a                	mv	s0,a0
   1345e:	0048                	addi	a0,sp,4
   13460:	02d00613          	li	a2,45
   13464:	00007097          	auipc	ra,0x7
   13468:	7b2080e7          	jalr	1970(ra) # 1ac16 <memcpy>
   1346c:	03110513          	addi	a0,sp,49
   13470:	05300613          	li	a2,83
   13474:	4581                	li	a1,0
   13476:	00007097          	auipc	ra,0x7
   1347a:	734080e7          	jalr	1844(ra) # 1abaa <memset>
   1347e:	6505                	lui	a0,0x1
   13480:	4489                	li	s1,2
   13482:	4589                	li	a1,2
   13484:	0050                	addi	a2,sp,4
   13486:	ec350793          	addi	a5,a0,-317 # ec3 <.Lline_table_start1+0xc98>
   1348a:	02d00693          	li	a3,45
   1348e:	4711                	li	a4,4
   13490:	853e                	mv	a0,a5
   13492:	00000073          	ecall
   13496:	02950b63          	beq	a0,s1,134cc <_ZN18complex_no_dynamic3app17h4e69d42b788abe88E+0x78>
   1349a:	459d                	li	a1,7
   1349c:	03110613          	addi	a2,sp,49
   134a0:	05300693          	li	a3,83
   134a4:	470d                	li	a4,3
   134a6:	853e                	mv	a0,a5
   134a8:	00000073          	ecall
   134ac:	02950063          	beq	a0,s1,134cc <_ZN18complex_no_dynamic3app17h4e69d42b788abe88E+0x78>
   134b0:	6505                	lui	a0,0x1
   134b2:	4589                	li	a1,2
   134b4:	461d                	li	a2,7
   134b6:	ec350493          	addi	s1,a0,-317 # ec3 <.Lline_table_start1+0xc98>
   134ba:	4709                	li	a4,2
   134bc:	07f00793          	li	a5,127
   134c0:	8526                	mv	a0,s1
   134c2:	4681                	li	a3,0
   134c4:	00000073          	ecall
   134c8:	02a7ed63          	bltu	a5,a0,13502 <_ZN18complex_no_dynamic3app17h4e69d42b788abe88E+0xae>
   134cc:	872e                	mv	a4,a1
   134ce:	4601                	li	a2,0
   134d0:	4681                	li	a3,0
   134d2:	4505                	li	a0,1
   134d4:	6785                	lui	a5,0x1
   134d6:	459d                	li	a1,7
   134d8:	00a40023          	sb	a0,0(s0)
   134dc:	c058                	sw	a4,4(s0)
   134de:	ec378793          	addi	a5,a5,-317 # ec3 <.Lline_table_start1+0xc98>
   134e2:	470d                	li	a4,3
   134e4:	853e                	mv	a0,a5
   134e6:	00000073          	ecall
   134ea:	4589                	li	a1,2
   134ec:	4711                	li	a4,4
   134ee:	853e                	mv	a0,a5
   134f0:	4601                	li	a2,0
   134f2:	4681                	li	a3,0
   134f4:	00000073          	ecall
   134f8:	40ba                	lw	ra,140(sp)
   134fa:	442a                	lw	s0,136(sp)
   134fc:	449a                	lw	s1,132(sp)
   134fe:	6149                	addi	sp,sp,144
   13500:	8082                	ret
   13502:	8526                	mv	a0,s1
   13504:	4601                	li	a2,0
   13506:	4681                	li	a3,0
   13508:	459d                	li	a1,7
   1350a:	470d                	li	a4,3
   1350c:	00000073          	ecall
   13510:	459d                	li	a1,7
   13512:	470d                	li	a4,3
   13514:	8526                	mv	a0,s1
   13516:	4601                	li	a2,0
   13518:	4681                	li	a3,0
   1351a:	00000073          	ecall
   1351e:	00140513          	addi	a0,s0,1
   13522:	03110593          	addi	a1,sp,49
   13526:	05300613          	li	a2,83
   1352a:	00007097          	auipc	ra,0x7
   1352e:	6ec080e7          	jalr	1772(ra) # 1ac16 <memcpy>
   13532:	8526                	mv	a0,s1
   13534:	4601                	li	a2,0
   13536:	4681                	li	a3,0
   13538:	00040023          	sb	zero,0(s0)
   1353c:	459d                	li	a1,7
   1353e:	470d                	li	a4,3
   13540:	00000073          	ecall
   13544:	4589                	li	a1,2
   13546:	4711                	li	a4,4
   13548:	8526                	mv	a0,s1
   1354a:	4601                	li	a2,0
   1354c:	4681                	li	a3,0
   1354e:	00000073          	ecall
   13552:	b75d                	j	134f8 <_ZN18complex_no_dynamic3app17h4e69d42b788abe88E+0xa4>

00013554 <_ZN18complex_no_dynamic3app17h506dd918cac2eeacE>:
   13554:	7171                	addi	sp,sp,-176
   13556:	d706                	sw	ra,172(sp)
   13558:	d522                	sw	s0,168(sp)
   1355a:	d326                	sw	s1,164(sp)
   1355c:	842a                	mv	s0,a0
   1355e:	0048                	addi	a0,sp,4
   13560:	05300613          	li	a2,83
   13564:	00007097          	auipc	ra,0x7
   13568:	6b2080e7          	jalr	1714(ra) # 1ac16 <memcpy>
   1356c:	05710513          	addi	a0,sp,87
   13570:	04d00613          	li	a2,77
   13574:	4581                	li	a1,0
   13576:	00007097          	auipc	ra,0x7
   1357a:	634080e7          	jalr	1588(ra) # 1abaa <memset>
   1357e:	6505                	lui	a0,0x1
   13580:	45a5                	li	a1,9
   13582:	0050                	addi	a2,sp,4
   13584:	05300693          	li	a3,83
   13588:	6ba50793          	addi	a5,a0,1722 # 16ba <.Lline_table_start1+0x148f>
   1358c:	4711                	li	a4,4
   1358e:	4489                	li	s1,2
   13590:	853e                	mv	a0,a5
   13592:	00000073          	ecall
   13596:	02950b63          	beq	a0,s1,135cc <_ZN18complex_no_dynamic3app17h506dd918cac2eeacE+0x78>
   1359a:	4591                	li	a1,4
   1359c:	05710613          	addi	a2,sp,87
   135a0:	04d00693          	li	a3,77
   135a4:	470d                	li	a4,3
   135a6:	853e                	mv	a0,a5
   135a8:	00000073          	ecall
   135ac:	02950063          	beq	a0,s1,135cc <_ZN18complex_no_dynamic3app17h506dd918cac2eeacE+0x78>
   135b0:	6505                	lui	a0,0x1
   135b2:	45a5                	li	a1,9
   135b4:	4611                	li	a2,4
   135b6:	6ba50493          	addi	s1,a0,1722 # 16ba <.Lline_table_start1+0x148f>
   135ba:	4709                	li	a4,2
   135bc:	07f00793          	li	a5,127
   135c0:	8526                	mv	a0,s1
   135c2:	4681                	li	a3,0
   135c4:	00000073          	ecall
   135c8:	02a7ed63          	bltu	a5,a0,13602 <_ZN18complex_no_dynamic3app17h506dd918cac2eeacE+0xae>
   135cc:	872e                	mv	a4,a1
   135ce:	4601                	li	a2,0
   135d0:	4681                	li	a3,0
   135d2:	4505                	li	a0,1
   135d4:	6785                	lui	a5,0x1
   135d6:	4591                	li	a1,4
   135d8:	00a40023          	sb	a0,0(s0)
   135dc:	c058                	sw	a4,4(s0)
   135de:	6ba78793          	addi	a5,a5,1722 # 16ba <.Lline_table_start1+0x148f>
   135e2:	470d                	li	a4,3
   135e4:	853e                	mv	a0,a5
   135e6:	00000073          	ecall
   135ea:	45a5                	li	a1,9
   135ec:	4711                	li	a4,4
   135ee:	853e                	mv	a0,a5
   135f0:	4601                	li	a2,0
   135f2:	4681                	li	a3,0
   135f4:	00000073          	ecall
   135f8:	50ba                	lw	ra,172(sp)
   135fa:	542a                	lw	s0,168(sp)
   135fc:	549a                	lw	s1,164(sp)
   135fe:	614d                	addi	sp,sp,176
   13600:	8082                	ret
   13602:	8526                	mv	a0,s1
   13604:	4601                	li	a2,0
   13606:	4681                	li	a3,0
   13608:	4591                	li	a1,4
   1360a:	470d                	li	a4,3
   1360c:	00000073          	ecall
   13610:	4591                	li	a1,4
   13612:	470d                	li	a4,3
   13614:	8526                	mv	a0,s1
   13616:	4601                	li	a2,0
   13618:	4681                	li	a3,0
   1361a:	00000073          	ecall
   1361e:	00140513          	addi	a0,s0,1
   13622:	05710593          	addi	a1,sp,87
   13626:	04d00613          	li	a2,77
   1362a:	00007097          	auipc	ra,0x7
   1362e:	5ec080e7          	jalr	1516(ra) # 1ac16 <memcpy>
   13632:	8526                	mv	a0,s1
   13634:	4601                	li	a2,0
   13636:	4681                	li	a3,0
   13638:	00040023          	sb	zero,0(s0)
   1363c:	4591                	li	a1,4
   1363e:	470d                	li	a4,3
   13640:	00000073          	ecall
   13644:	45a5                	li	a1,9
   13646:	4711                	li	a4,4
   13648:	8526                	mv	a0,s1
   1364a:	4601                	li	a2,0
   1364c:	4681                	li	a3,0
   1364e:	00000073          	ecall
   13652:	b75d                	j	135f8 <_ZN18complex_no_dynamic3app17h506dd918cac2eeacE+0xa4>

00013654 <_ZN18complex_no_dynamic3app17h518994ad3477260dE>:
   13654:	7159                	addi	sp,sp,-112
   13656:	d686                	sw	ra,108(sp)
   13658:	d4a2                	sw	s0,104(sp)
   1365a:	d2a6                	sw	s1,100(sp)
   1365c:	842a                	mv	s0,a0
   1365e:	00910513          	addi	a0,sp,9
   13662:	03f00613          	li	a2,63
   13666:	00007097          	auipc	ra,0x7
   1366a:	5b0080e7          	jalr	1456(ra) # 1ac16 <memcpy>
   1366e:	00a8                	addi	a0,sp,72
   13670:	4671                	li	a2,28
   13672:	4581                	li	a1,0
   13674:	00007097          	auipc	ra,0x7
   13678:	536080e7          	jalr	1334(ra) # 1abaa <memset>
   1367c:	6505                	lui	a0,0x1
   1367e:	4595                	li	a1,5
   13680:	00910613          	addi	a2,sp,9
   13684:	03f00693          	li	a3,63
   13688:	69450793          	addi	a5,a0,1684 # 1694 <.Lline_table_start1+0x1469>
   1368c:	4711                	li	a4,4
   1368e:	4489                	li	s1,2
   13690:	853e                	mv	a0,a5
   13692:	00000073          	ecall
   13696:	02950963          	beq	a0,s1,136c8 <_ZN18complex_no_dynamic3app17h518994ad3477260dE+0x74>
   1369a:	45a5                	li	a1,9
   1369c:	00b0                	addi	a2,sp,72
   1369e:	46f1                	li	a3,28
   136a0:	470d                	li	a4,3
   136a2:	853e                	mv	a0,a5
   136a4:	00000073          	ecall
   136a8:	02950063          	beq	a0,s1,136c8 <_ZN18complex_no_dynamic3app17h518994ad3477260dE+0x74>
   136ac:	6505                	lui	a0,0x1
   136ae:	4595                	li	a1,5
   136b0:	4625                	li	a2,9
   136b2:	69450493          	addi	s1,a0,1684 # 1694 <.Lline_table_start1+0x1469>
   136b6:	4709                	li	a4,2
   136b8:	07f00793          	li	a5,127
   136bc:	8526                	mv	a0,s1
   136be:	4681                	li	a3,0
   136c0:	00000073          	ecall
   136c4:	02a7ed63          	bltu	a5,a0,136fe <_ZN18complex_no_dynamic3app17h518994ad3477260dE+0xaa>
   136c8:	872e                	mv	a4,a1
   136ca:	4601                	li	a2,0
   136cc:	4681                	li	a3,0
   136ce:	4505                	li	a0,1
   136d0:	6785                	lui	a5,0x1
   136d2:	45a5                	li	a1,9
   136d4:	00a40023          	sb	a0,0(s0)
   136d8:	c058                	sw	a4,4(s0)
   136da:	69478793          	addi	a5,a5,1684 # 1694 <.Lline_table_start1+0x1469>
   136de:	470d                	li	a4,3
   136e0:	853e                	mv	a0,a5
   136e2:	00000073          	ecall
   136e6:	4595                	li	a1,5
   136e8:	4711                	li	a4,4
   136ea:	853e                	mv	a0,a5
   136ec:	4601                	li	a2,0
   136ee:	4681                	li	a3,0
   136f0:	00000073          	ecall
   136f4:	50b6                	lw	ra,108(sp)
   136f6:	5426                	lw	s0,104(sp)
   136f8:	5496                	lw	s1,100(sp)
   136fa:	6165                	addi	sp,sp,112
   136fc:	8082                	ret
   136fe:	8526                	mv	a0,s1
   13700:	4601                	li	a2,0
   13702:	4681                	li	a3,0
   13704:	45a5                	li	a1,9
   13706:	470d                	li	a4,3
   13708:	00000073          	ecall
   1370c:	45a5                	li	a1,9
   1370e:	470d                	li	a4,3
   13710:	8526                	mv	a0,s1
   13712:	4601                	li	a2,0
   13714:	4681                	li	a3,0
   13716:	00000073          	ecall
   1371a:	00140513          	addi	a0,s0,1
   1371e:	00ac                	addi	a1,sp,72
   13720:	4671                	li	a2,28
   13722:	00007097          	auipc	ra,0x7
   13726:	4f4080e7          	jalr	1268(ra) # 1ac16 <memcpy>
   1372a:	8526                	mv	a0,s1
   1372c:	4601                	li	a2,0
   1372e:	4681                	li	a3,0
   13730:	00040023          	sb	zero,0(s0)
   13734:	45a5                	li	a1,9
   13736:	470d                	li	a4,3
   13738:	00000073          	ecall
   1373c:	4595                	li	a1,5
   1373e:	4711                	li	a4,4
   13740:	8526                	mv	a0,s1
   13742:	4601                	li	a2,0
   13744:	4681                	li	a3,0
   13746:	00000073          	ecall
   1374a:	b76d                	j	136f4 <_ZN18complex_no_dynamic3app17h518994ad3477260dE+0xa0>

0001374c <_ZN18complex_no_dynamic3app17h594c8f06144ff079E>:
   1374c:	7159                	addi	sp,sp,-112
   1374e:	d686                	sw	ra,108(sp)
   13750:	d4a2                	sw	s0,104(sp)
   13752:	d2a6                	sw	s1,100(sp)
   13754:	842a                	mv	s0,a0
   13756:	00210513          	addi	a0,sp,2
   1375a:	03b00613          	li	a2,59
   1375e:	00007097          	auipc	ra,0x7
   13762:	4b8080e7          	jalr	1208(ra) # 1ac16 <memcpy>
   13766:	03d10513          	addi	a0,sp,61
   1376a:	02700613          	li	a2,39
   1376e:	4581                	li	a1,0
   13770:	00007097          	auipc	ra,0x7
   13774:	43a080e7          	jalr	1082(ra) # 1abaa <memset>
   13778:	6505                	lui	a0,0x1
   1377a:	4595                	li	a1,5
   1377c:	00210613          	addi	a2,sp,2
   13780:	03b00693          	li	a3,59
   13784:	bd350793          	addi	a5,a0,-1069 # bd3 <.Lline_table_start1+0x9a8>
   13788:	4711                	li	a4,4
   1378a:	4489                	li	s1,2
   1378c:	853e                	mv	a0,a5
   1378e:	00000073          	ecall
   13792:	02950b63          	beq	a0,s1,137c8 <_ZN18complex_no_dynamic3app17h594c8f06144ff079E+0x7c>
   13796:	458d                	li	a1,3
   13798:	03d10613          	addi	a2,sp,61
   1379c:	02700693          	li	a3,39
   137a0:	470d                	li	a4,3
   137a2:	853e                	mv	a0,a5
   137a4:	00000073          	ecall
   137a8:	02950063          	beq	a0,s1,137c8 <_ZN18complex_no_dynamic3app17h594c8f06144ff079E+0x7c>
   137ac:	6505                	lui	a0,0x1
   137ae:	4595                	li	a1,5
   137b0:	460d                	li	a2,3
   137b2:	bd350493          	addi	s1,a0,-1069 # bd3 <.Lline_table_start1+0x9a8>
   137b6:	4709                	li	a4,2
   137b8:	07f00793          	li	a5,127
   137bc:	8526                	mv	a0,s1
   137be:	4681                	li	a3,0
   137c0:	00000073          	ecall
   137c4:	02a7ed63          	bltu	a5,a0,137fe <_ZN18complex_no_dynamic3app17h594c8f06144ff079E+0xb2>
   137c8:	872e                	mv	a4,a1
   137ca:	4601                	li	a2,0
   137cc:	4681                	li	a3,0
   137ce:	4505                	li	a0,1
   137d0:	6785                	lui	a5,0x1
   137d2:	458d                	li	a1,3
   137d4:	00a40023          	sb	a0,0(s0)
   137d8:	c058                	sw	a4,4(s0)
   137da:	bd378793          	addi	a5,a5,-1069 # bd3 <.Lline_table_start1+0x9a8>
   137de:	470d                	li	a4,3
   137e0:	853e                	mv	a0,a5
   137e2:	00000073          	ecall
   137e6:	4595                	li	a1,5
   137e8:	4711                	li	a4,4
   137ea:	853e                	mv	a0,a5
   137ec:	4601                	li	a2,0
   137ee:	4681                	li	a3,0
   137f0:	00000073          	ecall
   137f4:	50b6                	lw	ra,108(sp)
   137f6:	5426                	lw	s0,104(sp)
   137f8:	5496                	lw	s1,100(sp)
   137fa:	6165                	addi	sp,sp,112
   137fc:	8082                	ret
   137fe:	8526                	mv	a0,s1
   13800:	4601                	li	a2,0
   13802:	4681                	li	a3,0
   13804:	458d                	li	a1,3
   13806:	470d                	li	a4,3
   13808:	00000073          	ecall
   1380c:	458d                	li	a1,3
   1380e:	470d                	li	a4,3
   13810:	8526                	mv	a0,s1
   13812:	4601                	li	a2,0
   13814:	4681                	li	a3,0
   13816:	00000073          	ecall
   1381a:	00140513          	addi	a0,s0,1
   1381e:	03d10593          	addi	a1,sp,61
   13822:	02700613          	li	a2,39
   13826:	00007097          	auipc	ra,0x7
   1382a:	3f0080e7          	jalr	1008(ra) # 1ac16 <memcpy>
   1382e:	8526                	mv	a0,s1
   13830:	4601                	li	a2,0
   13832:	4681                	li	a3,0
   13834:	00040023          	sb	zero,0(s0)
   13838:	458d                	li	a1,3
   1383a:	470d                	li	a4,3
   1383c:	00000073          	ecall
   13840:	4595                	li	a1,5
   13842:	4711                	li	a4,4
   13844:	8526                	mv	a0,s1
   13846:	4601                	li	a2,0
   13848:	4681                	li	a3,0
   1384a:	00000073          	ecall
   1384e:	b75d                	j	137f4 <_ZN18complex_no_dynamic3app17h594c8f06144ff079E+0xa8>

00013850 <_ZN18complex_no_dynamic3app17h5ab6f7283ff475ddE>:
   13850:	7135                	addi	sp,sp,-160
   13852:	cf06                	sw	ra,156(sp)
   13854:	cd22                	sw	s0,152(sp)
   13856:	cb26                	sw	s1,148(sp)
   13858:	842a                	mv	s0,a0
   1385a:	00b10513          	addi	a0,sp,11
   1385e:	04d00613          	li	a2,77
   13862:	00007097          	auipc	ra,0x7
   13866:	3b4080e7          	jalr	948(ra) # 1ac16 <memcpy>
   1386a:	08a8                	addi	a0,sp,88
   1386c:	03c00613          	li	a2,60
   13870:	4581                	li	a1,0
   13872:	00007097          	auipc	ra,0x7
   13876:	338080e7          	jalr	824(ra) # 1abaa <memset>
   1387a:	6509                	lui	a0,0x2
   1387c:	4591                	li	a1,4
   1387e:	00b10613          	addi	a2,sp,11
   13882:	04d00693          	li	a3,77
   13886:	1ab50793          	addi	a5,a0,427 # 21ab <.Lline_table_start1+0x1f80>
   1388a:	4711                	li	a4,4
   1388c:	4489                	li	s1,2
   1388e:	853e                	mv	a0,a5
   13890:	00000073          	ecall
   13894:	02950a63          	beq	a0,s1,138c8 <_ZN18complex_no_dynamic3app17h5ab6f7283ff475ddE+0x78>
   13898:	45a5                	li	a1,9
   1389a:	08b0                	addi	a2,sp,88
   1389c:	03c00693          	li	a3,60
   138a0:	470d                	li	a4,3
   138a2:	853e                	mv	a0,a5
   138a4:	00000073          	ecall
   138a8:	02950063          	beq	a0,s1,138c8 <_ZN18complex_no_dynamic3app17h5ab6f7283ff475ddE+0x78>
   138ac:	6509                	lui	a0,0x2
   138ae:	4591                	li	a1,4
   138b0:	4625                	li	a2,9
   138b2:	1ab50493          	addi	s1,a0,427 # 21ab <.Lline_table_start1+0x1f80>
   138b6:	4709                	li	a4,2
   138b8:	07f00793          	li	a5,127
   138bc:	8526                	mv	a0,s1
   138be:	4681                	li	a3,0
   138c0:	00000073          	ecall
   138c4:	02a7ed63          	bltu	a5,a0,138fe <_ZN18complex_no_dynamic3app17h5ab6f7283ff475ddE+0xae>
   138c8:	872e                	mv	a4,a1
   138ca:	4601                	li	a2,0
   138cc:	4681                	li	a3,0
   138ce:	4505                	li	a0,1
   138d0:	6789                	lui	a5,0x2
   138d2:	45a5                	li	a1,9
   138d4:	00a40023          	sb	a0,0(s0)
   138d8:	c058                	sw	a4,4(s0)
   138da:	1ab78793          	addi	a5,a5,427 # 21ab <.Lline_table_start1+0x1f80>
   138de:	470d                	li	a4,3
   138e0:	853e                	mv	a0,a5
   138e2:	00000073          	ecall
   138e6:	4591                	li	a1,4
   138e8:	4711                	li	a4,4
   138ea:	853e                	mv	a0,a5
   138ec:	4601                	li	a2,0
   138ee:	4681                	li	a3,0
   138f0:	00000073          	ecall
   138f4:	40fa                	lw	ra,156(sp)
   138f6:	446a                	lw	s0,152(sp)
   138f8:	44da                	lw	s1,148(sp)
   138fa:	610d                	addi	sp,sp,160
   138fc:	8082                	ret
   138fe:	8526                	mv	a0,s1
   13900:	4601                	li	a2,0
   13902:	4681                	li	a3,0
   13904:	45a5                	li	a1,9
   13906:	470d                	li	a4,3
   13908:	00000073          	ecall
   1390c:	45a5                	li	a1,9
   1390e:	470d                	li	a4,3
   13910:	8526                	mv	a0,s1
   13912:	4601                	li	a2,0
   13914:	4681                	li	a3,0
   13916:	00000073          	ecall
   1391a:	00140513          	addi	a0,s0,1
   1391e:	08ac                	addi	a1,sp,88
   13920:	03c00613          	li	a2,60
   13924:	00007097          	auipc	ra,0x7
   13928:	2f2080e7          	jalr	754(ra) # 1ac16 <memcpy>
   1392c:	8526                	mv	a0,s1
   1392e:	4601                	li	a2,0
   13930:	4681                	li	a3,0
   13932:	00040023          	sb	zero,0(s0)
   13936:	45a5                	li	a1,9
   13938:	470d                	li	a4,3
   1393a:	00000073          	ecall
   1393e:	4591                	li	a1,4
   13940:	4711                	li	a4,4
   13942:	8526                	mv	a0,s1
   13944:	4601                	li	a2,0
   13946:	4681                	li	a3,0
   13948:	00000073          	ecall
   1394c:	b765                	j	138f4 <_ZN18complex_no_dynamic3app17h5ab6f7283ff475ddE+0xa4>

0001394e <_ZN18complex_no_dynamic3app17h5c43b85e4780e119E>:
   1394e:	715d                	addi	sp,sp,-80
   13950:	c686                	sw	ra,76(sp)
   13952:	c4a2                	sw	s0,72(sp)
   13954:	c2a6                	sw	s1,68(sp)
   13956:	842a                	mv	s0,a0
   13958:	00510513          	addi	a0,sp,5
   1395c:	4679                	li	a2,30
   1395e:	00007097          	auipc	ra,0x7
   13962:	2b8080e7          	jalr	696(ra) # 1ac16 <memcpy>
   13966:	02310513          	addi	a0,sp,35
   1396a:	02100613          	li	a2,33
   1396e:	4581                	li	a1,0
   13970:	00007097          	auipc	ra,0x7
   13974:	23a080e7          	jalr	570(ra) # 1abaa <memset>
   13978:	6509                	lui	a0,0x2
   1397a:	4599                	li	a1,6
   1397c:	00510613          	addi	a2,sp,5
   13980:	46f9                	li	a3,30
   13982:	9b550793          	addi	a5,a0,-1611 # 19b5 <.Lline_table_start1+0x178a>
   13986:	4711                	li	a4,4
   13988:	4489                	li	s1,2
   1398a:	853e                	mv	a0,a5
   1398c:	00000073          	ecall
   13990:	02950b63          	beq	a0,s1,139c6 <_ZN18complex_no_dynamic3app17h5c43b85e4780e119E+0x78>
   13994:	45a5                	li	a1,9
   13996:	02310613          	addi	a2,sp,35
   1399a:	02100693          	li	a3,33
   1399e:	470d                	li	a4,3
   139a0:	853e                	mv	a0,a5
   139a2:	00000073          	ecall
   139a6:	02950063          	beq	a0,s1,139c6 <_ZN18complex_no_dynamic3app17h5c43b85e4780e119E+0x78>
   139aa:	6509                	lui	a0,0x2
   139ac:	4599                	li	a1,6
   139ae:	4625                	li	a2,9
   139b0:	9b550493          	addi	s1,a0,-1611 # 19b5 <.Lline_table_start1+0x178a>
   139b4:	4709                	li	a4,2
   139b6:	07f00793          	li	a5,127
   139ba:	8526                	mv	a0,s1
   139bc:	4681                	li	a3,0
   139be:	00000073          	ecall
   139c2:	02a7ed63          	bltu	a5,a0,139fc <_ZN18complex_no_dynamic3app17h5c43b85e4780e119E+0xae>
   139c6:	872e                	mv	a4,a1
   139c8:	4601                	li	a2,0
   139ca:	4681                	li	a3,0
   139cc:	4505                	li	a0,1
   139ce:	6789                	lui	a5,0x2
   139d0:	45a5                	li	a1,9
   139d2:	00a40023          	sb	a0,0(s0)
   139d6:	c058                	sw	a4,4(s0)
   139d8:	9b578793          	addi	a5,a5,-1611 # 19b5 <.Lline_table_start1+0x178a>
   139dc:	470d                	li	a4,3
   139de:	853e                	mv	a0,a5
   139e0:	00000073          	ecall
   139e4:	4599                	li	a1,6
   139e6:	4711                	li	a4,4
   139e8:	853e                	mv	a0,a5
   139ea:	4601                	li	a2,0
   139ec:	4681                	li	a3,0
   139ee:	00000073          	ecall
   139f2:	40b6                	lw	ra,76(sp)
   139f4:	4426                	lw	s0,72(sp)
   139f6:	4496                	lw	s1,68(sp)
   139f8:	6161                	addi	sp,sp,80
   139fa:	8082                	ret
   139fc:	8526                	mv	a0,s1
   139fe:	4601                	li	a2,0
   13a00:	4681                	li	a3,0
   13a02:	45a5                	li	a1,9
   13a04:	470d                	li	a4,3
   13a06:	00000073          	ecall
   13a0a:	45a5                	li	a1,9
   13a0c:	470d                	li	a4,3
   13a0e:	8526                	mv	a0,s1
   13a10:	4601                	li	a2,0
   13a12:	4681                	li	a3,0
   13a14:	00000073          	ecall
   13a18:	00140513          	addi	a0,s0,1
   13a1c:	02310593          	addi	a1,sp,35
   13a20:	02100613          	li	a2,33
   13a24:	00007097          	auipc	ra,0x7
   13a28:	1f2080e7          	jalr	498(ra) # 1ac16 <memcpy>
   13a2c:	8526                	mv	a0,s1
   13a2e:	4601                	li	a2,0
   13a30:	4681                	li	a3,0
   13a32:	00040023          	sb	zero,0(s0)
   13a36:	45a5                	li	a1,9
   13a38:	470d                	li	a4,3
   13a3a:	00000073          	ecall
   13a3e:	4599                	li	a1,6
   13a40:	4711                	li	a4,4
   13a42:	8526                	mv	a0,s1
   13a44:	4601                	li	a2,0
   13a46:	4681                	li	a3,0
   13a48:	00000073          	ecall
   13a4c:	b75d                	j	139f2 <_ZN18complex_no_dynamic3app17h5c43b85e4780e119E+0xa4>

00013a4e <_ZN18complex_no_dynamic3app17h5c656c7ef7d923deE>:
   13a4e:	7135                	addi	sp,sp,-160
   13a50:	cf06                	sw	ra,156(sp)
   13a52:	cd22                	sw	s0,152(sp)
   13a54:	cb26                	sw	s1,148(sp)
   13a56:	842a                	mv	s0,a0
   13a58:	00710513          	addi	a0,sp,7
   13a5c:	02a00613          	li	a2,42
   13a60:	00007097          	auipc	ra,0x7
   13a64:	1b6080e7          	jalr	438(ra) # 1ac16 <memcpy>
   13a68:	03110513          	addi	a0,sp,49
   13a6c:	06300613          	li	a2,99
   13a70:	4581                	li	a1,0
   13a72:	00007097          	auipc	ra,0x7
   13a76:	138080e7          	jalr	312(ra) # 1abaa <memset>
   13a7a:	6509                	lui	a0,0x2
   13a7c:	4591                	li	a1,4
   13a7e:	00710613          	addi	a2,sp,7
   13a82:	02a00693          	li	a3,42
   13a86:	c7c50793          	addi	a5,a0,-900 # 1c7c <.Lline_table_start1+0x1a51>
   13a8a:	4711                	li	a4,4
   13a8c:	4489                	li	s1,2
   13a8e:	853e                	mv	a0,a5
   13a90:	00000073          	ecall
   13a94:	02950b63          	beq	a0,s1,13aca <_ZN18complex_no_dynamic3app17h5c656c7ef7d923deE+0x7c>
   13a98:	03110613          	addi	a2,sp,49
   13a9c:	06300693          	li	a3,99
   13aa0:	470d                	li	a4,3
   13aa2:	853e                	mv	a0,a5
   13aa4:	4581                	li	a1,0
   13aa6:	00000073          	ecall
   13aaa:	02950063          	beq	a0,s1,13aca <_ZN18complex_no_dynamic3app17h5c656c7ef7d923deE+0x7c>
   13aae:	6509                	lui	a0,0x2
   13ab0:	4591                	li	a1,4
   13ab2:	c7c50493          	addi	s1,a0,-900 # 1c7c <.Lline_table_start1+0x1a51>
   13ab6:	4709                	li	a4,2
   13ab8:	07f00793          	li	a5,127
   13abc:	8526                	mv	a0,s1
   13abe:	4601                	li	a2,0
   13ac0:	4681                	li	a3,0
   13ac2:	00000073          	ecall
   13ac6:	02a7ed63          	bltu	a5,a0,13b00 <_ZN18complex_no_dynamic3app17h5c656c7ef7d923deE+0xb2>
   13aca:	872e                	mv	a4,a1
   13acc:	4581                	li	a1,0
   13ace:	4601                	li	a2,0
   13ad0:	4681                	li	a3,0
   13ad2:	4505                	li	a0,1
   13ad4:	6789                	lui	a5,0x2
   13ad6:	00a40023          	sb	a0,0(s0)
   13ada:	c058                	sw	a4,4(s0)
   13adc:	c7c78793          	addi	a5,a5,-900 # 1c7c <.Lline_table_start1+0x1a51>
   13ae0:	470d                	li	a4,3
   13ae2:	853e                	mv	a0,a5
   13ae4:	00000073          	ecall
   13ae8:	4591                	li	a1,4
   13aea:	4711                	li	a4,4
   13aec:	853e                	mv	a0,a5
   13aee:	4601                	li	a2,0
   13af0:	4681                	li	a3,0
   13af2:	00000073          	ecall
   13af6:	40fa                	lw	ra,156(sp)
   13af8:	446a                	lw	s0,152(sp)
   13afa:	44da                	lw	s1,148(sp)
   13afc:	610d                	addi	sp,sp,160
   13afe:	8082                	ret
   13b00:	470d                	li	a4,3
   13b02:	8526                	mv	a0,s1
   13b04:	4581                	li	a1,0
   13b06:	4601                	li	a2,0
   13b08:	4681                	li	a3,0
   13b0a:	00000073          	ecall
   13b0e:	470d                	li	a4,3
   13b10:	8526                	mv	a0,s1
   13b12:	4581                	li	a1,0
   13b14:	4601                	li	a2,0
   13b16:	4681                	li	a3,0
   13b18:	00000073          	ecall
   13b1c:	00140513          	addi	a0,s0,1
   13b20:	03110593          	addi	a1,sp,49
   13b24:	06300613          	li	a2,99
   13b28:	00007097          	auipc	ra,0x7
   13b2c:	0ee080e7          	jalr	238(ra) # 1ac16 <memcpy>
   13b30:	8526                	mv	a0,s1
   13b32:	4581                	li	a1,0
   13b34:	4601                	li	a2,0
   13b36:	4681                	li	a3,0
   13b38:	00040023          	sb	zero,0(s0)
   13b3c:	470d                	li	a4,3
   13b3e:	00000073          	ecall
   13b42:	4591                	li	a1,4
   13b44:	4711                	li	a4,4
   13b46:	8526                	mv	a0,s1
   13b48:	4601                	li	a2,0
   13b4a:	4681                	li	a3,0
   13b4c:	00000073          	ecall
   13b50:	b75d                	j	13af6 <_ZN18complex_no_dynamic3app17h5c656c7ef7d923deE+0xa8>

00013b52 <_ZN18complex_no_dynamic3app17h5c9f761c136b3258E>:
   13b52:	7135                	addi	sp,sp,-160
   13b54:	cf06                	sw	ra,156(sp)
   13b56:	cd22                	sw	s0,152(sp)
   13b58:	cb26                	sw	s1,148(sp)
   13b5a:	842a                	mv	s0,a0
   13b5c:	00a10513          	addi	a0,sp,10
   13b60:	04f00613          	li	a2,79
   13b64:	00007097          	auipc	ra,0x7
   13b68:	0b2080e7          	jalr	178(ra) # 1ac16 <memcpy>
   13b6c:	05910513          	addi	a0,sp,89
   13b70:	03b00613          	li	a2,59
   13b74:	4581                	li	a1,0
   13b76:	00007097          	auipc	ra,0x7
   13b7a:	034080e7          	jalr	52(ra) # 1abaa <memset>
   13b7e:	6505                	lui	a0,0x1
   13b80:	45a1                	li	a1,8
   13b82:	00a10613          	addi	a2,sp,10
   13b86:	04f00693          	li	a3,79
   13b8a:	a0650793          	addi	a5,a0,-1530 # a06 <.Lline_table_start1+0x7db>
   13b8e:	4711                	li	a4,4
   13b90:	4489                	li	s1,2
   13b92:	853e                	mv	a0,a5
   13b94:	00000073          	ecall
   13b98:	02950b63          	beq	a0,s1,13bce <_ZN18complex_no_dynamic3app17h5c9f761c136b3258E+0x7c>
   13b9c:	4595                	li	a1,5
   13b9e:	05910613          	addi	a2,sp,89
   13ba2:	03b00693          	li	a3,59
   13ba6:	470d                	li	a4,3
   13ba8:	853e                	mv	a0,a5
   13baa:	00000073          	ecall
   13bae:	02950063          	beq	a0,s1,13bce <_ZN18complex_no_dynamic3app17h5c9f761c136b3258E+0x7c>
   13bb2:	6505                	lui	a0,0x1
   13bb4:	45a1                	li	a1,8
   13bb6:	4615                	li	a2,5
   13bb8:	a0650493          	addi	s1,a0,-1530 # a06 <.Lline_table_start1+0x7db>
   13bbc:	4709                	li	a4,2
   13bbe:	07f00793          	li	a5,127
   13bc2:	8526                	mv	a0,s1
   13bc4:	4681                	li	a3,0
   13bc6:	00000073          	ecall
   13bca:	02a7ed63          	bltu	a5,a0,13c04 <_ZN18complex_no_dynamic3app17h5c9f761c136b3258E+0xb2>
   13bce:	872e                	mv	a4,a1
   13bd0:	4601                	li	a2,0
   13bd2:	4681                	li	a3,0
   13bd4:	4505                	li	a0,1
   13bd6:	6785                	lui	a5,0x1
   13bd8:	4595                	li	a1,5
   13bda:	00a40023          	sb	a0,0(s0)
   13bde:	c058                	sw	a4,4(s0)
   13be0:	a0678793          	addi	a5,a5,-1530 # a06 <.Lline_table_start1+0x7db>
   13be4:	470d                	li	a4,3
   13be6:	853e                	mv	a0,a5
   13be8:	00000073          	ecall
   13bec:	45a1                	li	a1,8
   13bee:	4711                	li	a4,4
   13bf0:	853e                	mv	a0,a5
   13bf2:	4601                	li	a2,0
   13bf4:	4681                	li	a3,0
   13bf6:	00000073          	ecall
   13bfa:	40fa                	lw	ra,156(sp)
   13bfc:	446a                	lw	s0,152(sp)
   13bfe:	44da                	lw	s1,148(sp)
   13c00:	610d                	addi	sp,sp,160
   13c02:	8082                	ret
   13c04:	8526                	mv	a0,s1
   13c06:	4601                	li	a2,0
   13c08:	4681                	li	a3,0
   13c0a:	4595                	li	a1,5
   13c0c:	470d                	li	a4,3
   13c0e:	00000073          	ecall
   13c12:	4595                	li	a1,5
   13c14:	470d                	li	a4,3
   13c16:	8526                	mv	a0,s1
   13c18:	4601                	li	a2,0
   13c1a:	4681                	li	a3,0
   13c1c:	00000073          	ecall
   13c20:	00140513          	addi	a0,s0,1
   13c24:	05910593          	addi	a1,sp,89
   13c28:	03b00613          	li	a2,59
   13c2c:	00007097          	auipc	ra,0x7
   13c30:	fea080e7          	jalr	-22(ra) # 1ac16 <memcpy>
   13c34:	8526                	mv	a0,s1
   13c36:	4601                	li	a2,0
   13c38:	4681                	li	a3,0
   13c3a:	00040023          	sb	zero,0(s0)
   13c3e:	4595                	li	a1,5
   13c40:	470d                	li	a4,3
   13c42:	00000073          	ecall
   13c46:	45a1                	li	a1,8
   13c48:	4711                	li	a4,4
   13c4a:	8526                	mv	a0,s1
   13c4c:	4601                	li	a2,0
   13c4e:	4681                	li	a3,0
   13c50:	00000073          	ecall
   13c54:	b75d                	j	13bfa <_ZN18complex_no_dynamic3app17h5c9f761c136b3258E+0xa8>

00013c56 <_ZN18complex_no_dynamic3app17h5d90096cbea91824E>:
   13c56:	7119                	addi	sp,sp,-128
   13c58:	de86                	sw	ra,124(sp)
   13c5a:	dca2                	sw	s0,120(sp)
   13c5c:	daa6                	sw	s1,116(sp)
   13c5e:	842a                	mv	s0,a0
   13c60:	00a10513          	addi	a0,sp,10
   13c64:	4669                	li	a2,26
   13c66:	00007097          	auipc	ra,0x7
   13c6a:	fb0080e7          	jalr	-80(ra) # 1ac16 <memcpy>
   13c6e:	1048                	addi	a0,sp,36
   13c70:	05000613          	li	a2,80
   13c74:	4581                	li	a1,0
   13c76:	00007097          	auipc	ra,0x7
   13c7a:	f34080e7          	jalr	-204(ra) # 1abaa <memset>
   13c7e:	6505                	lui	a0,0x1
   13c80:	459d                	li	a1,7
   13c82:	00a10613          	addi	a2,sp,10
   13c86:	46e9                	li	a3,26
   13c88:	aee50793          	addi	a5,a0,-1298 # aee <.Lline_table_start1+0x8c3>
   13c8c:	4711                	li	a4,4
   13c8e:	4489                	li	s1,2
   13c90:	853e                	mv	a0,a5
   13c92:	00000073          	ecall
   13c96:	02950a63          	beq	a0,s1,13cca <_ZN18complex_no_dynamic3app17h5d90096cbea91824E+0x74>
   13c9a:	4591                	li	a1,4
   13c9c:	1050                	addi	a2,sp,36
   13c9e:	05000693          	li	a3,80
   13ca2:	470d                	li	a4,3
   13ca4:	853e                	mv	a0,a5
   13ca6:	00000073          	ecall
   13caa:	02950063          	beq	a0,s1,13cca <_ZN18complex_no_dynamic3app17h5d90096cbea91824E+0x74>
   13cae:	6505                	lui	a0,0x1
   13cb0:	459d                	li	a1,7
   13cb2:	4611                	li	a2,4
   13cb4:	aee50493          	addi	s1,a0,-1298 # aee <.Lline_table_start1+0x8c3>
   13cb8:	4709                	li	a4,2
   13cba:	07f00793          	li	a5,127
   13cbe:	8526                	mv	a0,s1
   13cc0:	4681                	li	a3,0
   13cc2:	00000073          	ecall
   13cc6:	02a7ed63          	bltu	a5,a0,13d00 <_ZN18complex_no_dynamic3app17h5d90096cbea91824E+0xaa>
   13cca:	872e                	mv	a4,a1
   13ccc:	4601                	li	a2,0
   13cce:	4681                	li	a3,0
   13cd0:	4505                	li	a0,1
   13cd2:	6785                	lui	a5,0x1
   13cd4:	4591                	li	a1,4
   13cd6:	00a40023          	sb	a0,0(s0)
   13cda:	c058                	sw	a4,4(s0)
   13cdc:	aee78793          	addi	a5,a5,-1298 # aee <.Lline_table_start1+0x8c3>
   13ce0:	470d                	li	a4,3
   13ce2:	853e                	mv	a0,a5
   13ce4:	00000073          	ecall
   13ce8:	459d                	li	a1,7
   13cea:	4711                	li	a4,4
   13cec:	853e                	mv	a0,a5
   13cee:	4601                	li	a2,0
   13cf0:	4681                	li	a3,0
   13cf2:	00000073          	ecall
   13cf6:	50f6                	lw	ra,124(sp)
   13cf8:	5466                	lw	s0,120(sp)
   13cfa:	54d6                	lw	s1,116(sp)
   13cfc:	6109                	addi	sp,sp,128
   13cfe:	8082                	ret
   13d00:	8526                	mv	a0,s1
   13d02:	4601                	li	a2,0
   13d04:	4681                	li	a3,0
   13d06:	4591                	li	a1,4
   13d08:	470d                	li	a4,3
   13d0a:	00000073          	ecall
   13d0e:	4591                	li	a1,4
   13d10:	470d                	li	a4,3
   13d12:	8526                	mv	a0,s1
   13d14:	4601                	li	a2,0
   13d16:	4681                	li	a3,0
   13d18:	00000073          	ecall
   13d1c:	00140513          	addi	a0,s0,1
   13d20:	104c                	addi	a1,sp,36
   13d22:	05000613          	li	a2,80
   13d26:	00007097          	auipc	ra,0x7
   13d2a:	ef0080e7          	jalr	-272(ra) # 1ac16 <memcpy>
   13d2e:	8526                	mv	a0,s1
   13d30:	4601                	li	a2,0
   13d32:	4681                	li	a3,0
   13d34:	00040023          	sb	zero,0(s0)
   13d38:	4591                	li	a1,4
   13d3a:	470d                	li	a4,3
   13d3c:	00000073          	ecall
   13d40:	459d                	li	a1,7
   13d42:	4711                	li	a4,4
   13d44:	8526                	mv	a0,s1
   13d46:	4601                	li	a2,0
   13d48:	4681                	li	a3,0
   13d4a:	00000073          	ecall
   13d4e:	b765                	j	13cf6 <_ZN18complex_no_dynamic3app17h5d90096cbea91824E+0xa0>

00013d50 <_ZN18complex_no_dynamic3app17h5dde549509b29af0E>:
   13d50:	715d                	addi	sp,sp,-80
   13d52:	c686                	sw	ra,76(sp)
   13d54:	c4a2                	sw	s0,72(sp)
   13d56:	c2a6                	sw	s1,68(sp)
   13d58:	842a                	mv	s0,a0
   13d5a:	00f10513          	addi	a0,sp,15
   13d5e:	4669                	li	a2,26
   13d60:	00007097          	auipc	ra,0x7
   13d64:	eb6080e7          	jalr	-330(ra) # 1ac16 <memcpy>
   13d68:	02910513          	addi	a0,sp,41
   13d6c:	466d                	li	a2,27
   13d6e:	4581                	li	a1,0
   13d70:	00007097          	auipc	ra,0x7
   13d74:	e3a080e7          	jalr	-454(ra) # 1abaa <memset>
   13d78:	6509                	lui	a0,0x2
   13d7a:	4595                	li	a1,5
   13d7c:	00f10613          	addi	a2,sp,15
   13d80:	46e9                	li	a3,26
   13d82:	cce50793          	addi	a5,a0,-818 # 1cce <.Lline_table_start1+0x1aa3>
   13d86:	4711                	li	a4,4
   13d88:	4489                	li	s1,2
   13d8a:	853e                	mv	a0,a5
   13d8c:	00000073          	ecall
   13d90:	02950a63          	beq	a0,s1,13dc4 <_ZN18complex_no_dynamic3app17h5dde549509b29af0E+0x74>
   13d94:	4589                	li	a1,2
   13d96:	02910613          	addi	a2,sp,41
   13d9a:	46ed                	li	a3,27
   13d9c:	470d                	li	a4,3
   13d9e:	853e                	mv	a0,a5
   13da0:	00000073          	ecall
   13da4:	02950063          	beq	a0,s1,13dc4 <_ZN18complex_no_dynamic3app17h5dde549509b29af0E+0x74>
   13da8:	6509                	lui	a0,0x2
   13daa:	4595                	li	a1,5
   13dac:	4609                	li	a2,2
   13dae:	cce50493          	addi	s1,a0,-818 # 1cce <.Lline_table_start1+0x1aa3>
   13db2:	4709                	li	a4,2
   13db4:	07f00793          	li	a5,127
   13db8:	8526                	mv	a0,s1
   13dba:	4681                	li	a3,0
   13dbc:	00000073          	ecall
   13dc0:	02a7ed63          	bltu	a5,a0,13dfa <_ZN18complex_no_dynamic3app17h5dde549509b29af0E+0xaa>
   13dc4:	872e                	mv	a4,a1
   13dc6:	4601                	li	a2,0
   13dc8:	4681                	li	a3,0
   13dca:	4505                	li	a0,1
   13dcc:	6789                	lui	a5,0x2
   13dce:	4589                	li	a1,2
   13dd0:	00a40023          	sb	a0,0(s0)
   13dd4:	c058                	sw	a4,4(s0)
   13dd6:	cce78793          	addi	a5,a5,-818 # 1cce <.Lline_table_start1+0x1aa3>
   13dda:	470d                	li	a4,3
   13ddc:	853e                	mv	a0,a5
   13dde:	00000073          	ecall
   13de2:	4595                	li	a1,5
   13de4:	4711                	li	a4,4
   13de6:	853e                	mv	a0,a5
   13de8:	4601                	li	a2,0
   13dea:	4681                	li	a3,0
   13dec:	00000073          	ecall
   13df0:	40b6                	lw	ra,76(sp)
   13df2:	4426                	lw	s0,72(sp)
   13df4:	4496                	lw	s1,68(sp)
   13df6:	6161                	addi	sp,sp,80
   13df8:	8082                	ret
   13dfa:	8526                	mv	a0,s1
   13dfc:	4601                	li	a2,0
   13dfe:	4681                	li	a3,0
   13e00:	4589                	li	a1,2
   13e02:	470d                	li	a4,3
   13e04:	00000073          	ecall
   13e08:	4589                	li	a1,2
   13e0a:	470d                	li	a4,3
   13e0c:	8526                	mv	a0,s1
   13e0e:	4601                	li	a2,0
   13e10:	4681                	li	a3,0
   13e12:	00000073          	ecall
   13e16:	00140513          	addi	a0,s0,1
   13e1a:	02910593          	addi	a1,sp,41
   13e1e:	466d                	li	a2,27
   13e20:	00007097          	auipc	ra,0x7
   13e24:	df6080e7          	jalr	-522(ra) # 1ac16 <memcpy>
   13e28:	8526                	mv	a0,s1
   13e2a:	4601                	li	a2,0
   13e2c:	4681                	li	a3,0
   13e2e:	00040023          	sb	zero,0(s0)
   13e32:	4589                	li	a1,2
   13e34:	470d                	li	a4,3
   13e36:	00000073          	ecall
   13e3a:	4595                	li	a1,5
   13e3c:	4711                	li	a4,4
   13e3e:	8526                	mv	a0,s1
   13e40:	4601                	li	a2,0
   13e42:	4681                	li	a3,0
   13e44:	00000073          	ecall
   13e48:	b765                	j	13df0 <_ZN18complex_no_dynamic3app17h5dde549509b29af0E+0xa0>

00013e4a <_ZN18complex_no_dynamic3app17h5fa8028b25a9b54dE>:
   13e4a:	7159                	addi	sp,sp,-112
   13e4c:	d686                	sw	ra,108(sp)
   13e4e:	d4a2                	sw	s0,104(sp)
   13e50:	d2a6                	sw	s1,100(sp)
   13e52:	d0ca                	sw	s2,96(sp)
   13e54:	892a                	mv	s2,a0
   13e56:	00c5c503          	lbu	a0,12(a1)
   13e5a:	00d5c603          	lbu	a2,13(a1)
   13e5e:	0085c683          	lbu	a3,8(a1)
   13e62:	0095c703          	lbu	a4,9(a1)
   13e66:	00a5c783          	lbu	a5,10(a1)
   13e6a:	00b5c483          	lbu	s1,11(a1)
   13e6e:	0622                	slli	a2,a2,0x8
   13e70:	0722                	slli	a4,a4,0x8
   13e72:	00a66833          	or	a6,a2,a0
   13e76:	8ed9                	or	a3,a3,a4
   13e78:	0045c603          	lbu	a2,4(a1)
   13e7c:	0055c703          	lbu	a4,5(a1)
   13e80:	0065c403          	lbu	s0,6(a1)
   13e84:	0075c503          	lbu	a0,7(a1)
   13e88:	07c2                	slli	a5,a5,0x10
   13e8a:	04e2                	slli	s1,s1,0x18
   13e8c:	0722                	slli	a4,a4,0x8
   13e8e:	0442                	slli	s0,s0,0x10
   13e90:	0562                	slli	a0,a0,0x18
   13e92:	8fc5                	or	a5,a5,s1
   13e94:	8e59                	or	a2,a2,a4
   13e96:	0005c703          	lbu	a4,0(a1)
   13e9a:	0015c483          	lbu	s1,1(a1)
   13e9e:	8d41                	or	a0,a0,s0
   13ea0:	0025c403          	lbu	s0,2(a1)
   13ea4:	0035c583          	lbu	a1,3(a1)
   13ea8:	04a2                	slli	s1,s1,0x8
   13eaa:	8f45                	or	a4,a4,s1
   13eac:	0442                	slli	s0,s0,0x10
   13eae:	05e2                	slli	a1,a1,0x18
   13eb0:	8dc1                	or	a1,a1,s0
   13eb2:	8edd                	or	a3,a3,a5
   13eb4:	8d51                	or	a0,a0,a2
   13eb6:	8dd9                	or	a1,a1,a4
   13eb8:	c42e                	sw	a1,8(sp)
   13eba:	c62a                	sw	a0,12(sp)
   13ebc:	c836                	sw	a3,16(sp)
   13ebe:	01011a23          	sh	a6,20(sp)
   13ec2:	0828                	addi	a0,sp,24
   13ec4:	04800613          	li	a2,72
   13ec8:	4581                	li	a1,0
   13eca:	00007097          	auipc	ra,0x7
   13ece:	ce0080e7          	jalr	-800(ra) # 1abaa <memset>
   13ed2:	6505                	lui	a0,0x1
   13ed4:	458d                	li	a1,3
   13ed6:	0030                	addi	a2,sp,8
   13ed8:	46b9                	li	a3,14
   13eda:	2d150793          	addi	a5,a0,721 # 12d1 <.Lline_table_start1+0x10a6>
   13ede:	4711                	li	a4,4
   13ee0:	4489                	li	s1,2
   13ee2:	853e                	mv	a0,a5
   13ee4:	00000073          	ecall
   13ee8:	02950a63          	beq	a0,s1,13f1c <_ZN18complex_no_dynamic3app17h5fa8028b25a9b54dE+0xd2>
   13eec:	45a1                	li	a1,8
   13eee:	0830                	addi	a2,sp,24
   13ef0:	04800693          	li	a3,72
   13ef4:	470d                	li	a4,3
   13ef6:	853e                	mv	a0,a5
   13ef8:	00000073          	ecall
   13efc:	02950063          	beq	a0,s1,13f1c <_ZN18complex_no_dynamic3app17h5fa8028b25a9b54dE+0xd2>
   13f00:	6505                	lui	a0,0x1
   13f02:	458d                	li	a1,3
   13f04:	4621                	li	a2,8
   13f06:	2d150493          	addi	s1,a0,721 # 12d1 <.Lline_table_start1+0x10a6>
   13f0a:	4709                	li	a4,2
   13f0c:	07f00793          	li	a5,127
   13f10:	8526                	mv	a0,s1
   13f12:	4681                	li	a3,0
   13f14:	00000073          	ecall
   13f18:	02a7ef63          	bltu	a5,a0,13f56 <_ZN18complex_no_dynamic3app17h5fa8028b25a9b54dE+0x10c>
   13f1c:	872e                	mv	a4,a1
   13f1e:	4601                	li	a2,0
   13f20:	4681                	li	a3,0
   13f22:	4505                	li	a0,1
   13f24:	6785                	lui	a5,0x1
   13f26:	45a1                	li	a1,8
   13f28:	00a90023          	sb	a0,0(s2)
   13f2c:	00e92223          	sw	a4,4(s2)
   13f30:	2d178793          	addi	a5,a5,721 # 12d1 <.Lline_table_start1+0x10a6>
   13f34:	470d                	li	a4,3
   13f36:	853e                	mv	a0,a5
   13f38:	00000073          	ecall
   13f3c:	458d                	li	a1,3
   13f3e:	4711                	li	a4,4
   13f40:	853e                	mv	a0,a5
   13f42:	4601                	li	a2,0
   13f44:	4681                	li	a3,0
   13f46:	00000073          	ecall
   13f4a:	50b6                	lw	ra,108(sp)
   13f4c:	5426                	lw	s0,104(sp)
   13f4e:	5496                	lw	s1,100(sp)
   13f50:	5906                	lw	s2,96(sp)
   13f52:	6165                	addi	sp,sp,112
   13f54:	8082                	ret
   13f56:	8526                	mv	a0,s1
   13f58:	4601                	li	a2,0
   13f5a:	4681                	li	a3,0
   13f5c:	45a1                	li	a1,8
   13f5e:	470d                	li	a4,3
   13f60:	00000073          	ecall
   13f64:	45a1                	li	a1,8
   13f66:	470d                	li	a4,3
   13f68:	8526                	mv	a0,s1
   13f6a:	4601                	li	a2,0
   13f6c:	4681                	li	a3,0
   13f6e:	00000073          	ecall
   13f72:	00190513          	addi	a0,s2,1
   13f76:	082c                	addi	a1,sp,24
   13f78:	04800613          	li	a2,72
   13f7c:	00007097          	auipc	ra,0x7
   13f80:	c9a080e7          	jalr	-870(ra) # 1ac16 <memcpy>
   13f84:	8526                	mv	a0,s1
   13f86:	4601                	li	a2,0
   13f88:	4681                	li	a3,0
   13f8a:	00090023          	sb	zero,0(s2)
   13f8e:	45a1                	li	a1,8
   13f90:	470d                	li	a4,3
   13f92:	00000073          	ecall
   13f96:	458d                	li	a1,3
   13f98:	4711                	li	a4,4
   13f9a:	8526                	mv	a0,s1
   13f9c:	4601                	li	a2,0
   13f9e:	4681                	li	a3,0
   13fa0:	00000073          	ecall
   13fa4:	b75d                	j	13f4a <_ZN18complex_no_dynamic3app17h5fa8028b25a9b54dE+0x100>

00013fa6 <_ZN18complex_no_dynamic3app17h62fc2020ff0ff908E>:
   13fa6:	715d                	addi	sp,sp,-80
   13fa8:	c686                	sw	ra,76(sp)
   13faa:	c4a2                	sw	s0,72(sp)
   13fac:	c2a6                	sw	s1,68(sp)
   13fae:	842a                	mv	s0,a0
   13fb0:	00910513          	addi	a0,sp,9
   13fb4:	02b00613          	li	a2,43
   13fb8:	00007097          	auipc	ra,0x7
   13fbc:	c5e080e7          	jalr	-930(ra) # 1ac16 <memcpy>
   13fc0:	da02                	sw	zero,52(sp)
   13fc2:	dc02                	sw	zero,56(sp)
   13fc4:	de02                	sw	zero,60(sp)
   13fc6:	04010023          	sb	zero,64(sp)
   13fca:	6505                	lui	a0,0x1
   13fcc:	4599                	li	a1,6
   13fce:	00910613          	addi	a2,sp,9
   13fd2:	02b00693          	li	a3,43
   13fd6:	46550793          	addi	a5,a0,1125 # 1465 <.Lline_table_start1+0x123a>
   13fda:	4711                	li	a4,4
   13fdc:	4489                	li	s1,2
   13fde:	853e                	mv	a0,a5
   13fe0:	00000073          	ecall
   13fe4:	02950963          	beq	a0,s1,14016 <_ZN18complex_no_dynamic3app17h62fc2020ff0ff908E+0x70>
   13fe8:	1850                	addi	a2,sp,52
   13fea:	46b5                	li	a3,13
   13fec:	470d                	li	a4,3
   13fee:	853e                	mv	a0,a5
   13ff0:	4581                	li	a1,0
   13ff2:	00000073          	ecall
   13ff6:	02950063          	beq	a0,s1,14016 <_ZN18complex_no_dynamic3app17h62fc2020ff0ff908E+0x70>
   13ffa:	6505                	lui	a0,0x1
   13ffc:	4599                	li	a1,6
   13ffe:	46550493          	addi	s1,a0,1125 # 1465 <.Lline_table_start1+0x123a>
   14002:	4709                	li	a4,2
   14004:	07f00793          	li	a5,127
   14008:	8526                	mv	a0,s1
   1400a:	4601                	li	a2,0
   1400c:	4681                	li	a3,0
   1400e:	00000073          	ecall
   14012:	02a7ed63          	bltu	a5,a0,1404c <_ZN18complex_no_dynamic3app17h62fc2020ff0ff908E+0xa6>
   14016:	872e                	mv	a4,a1
   14018:	4581                	li	a1,0
   1401a:	4601                	li	a2,0
   1401c:	4681                	li	a3,0
   1401e:	4505                	li	a0,1
   14020:	6785                	lui	a5,0x1
   14022:	00a40023          	sb	a0,0(s0)
   14026:	c058                	sw	a4,4(s0)
   14028:	46578793          	addi	a5,a5,1125 # 1465 <.Lline_table_start1+0x123a>
   1402c:	470d                	li	a4,3
   1402e:	853e                	mv	a0,a5
   14030:	00000073          	ecall
   14034:	4599                	li	a1,6
   14036:	4711                	li	a4,4
   14038:	853e                	mv	a0,a5
   1403a:	4601                	li	a2,0
   1403c:	4681                	li	a3,0
   1403e:	00000073          	ecall
   14042:	40b6                	lw	ra,76(sp)
   14044:	4426                	lw	s0,72(sp)
   14046:	4496                	lw	s1,68(sp)
   14048:	6161                	addi	sp,sp,80
   1404a:	8082                	ret
   1404c:	470d                	li	a4,3
   1404e:	8526                	mv	a0,s1
   14050:	4581                	li	a1,0
   14052:	4601                	li	a2,0
   14054:	4681                	li	a3,0
   14056:	00000073          	ecall
   1405a:	470d                	li	a4,3
   1405c:	8526                	mv	a0,s1
   1405e:	4581                	li	a1,0
   14060:	4601                	li	a2,0
   14062:	4681                	li	a3,0
   14064:	00000073          	ecall
   14068:	00140513          	addi	a0,s0,1
   1406c:	184c                	addi	a1,sp,52
   1406e:	4635                	li	a2,13
   14070:	00007097          	auipc	ra,0x7
   14074:	ba6080e7          	jalr	-1114(ra) # 1ac16 <memcpy>
   14078:	8526                	mv	a0,s1
   1407a:	4581                	li	a1,0
   1407c:	4601                	li	a2,0
   1407e:	4681                	li	a3,0
   14080:	00040023          	sb	zero,0(s0)
   14084:	470d                	li	a4,3
   14086:	00000073          	ecall
   1408a:	4599                	li	a1,6
   1408c:	4711                	li	a4,4
   1408e:	8526                	mv	a0,s1
   14090:	4601                	li	a2,0
   14092:	4681                	li	a3,0
   14094:	00000073          	ecall
   14098:	b76d                	j	14042 <_ZN18complex_no_dynamic3app17h62fc2020ff0ff908E+0x9c>

0001409a <_ZN18complex_no_dynamic3app17h6a8621888b72d2efE>:
   1409a:	711d                	addi	sp,sp,-96
   1409c:	ce86                	sw	ra,92(sp)
   1409e:	cca2                	sw	s0,88(sp)
   140a0:	caa6                	sw	s1,84(sp)
   140a2:	842a                	mv	s0,a0
   140a4:	0048                	addi	a0,sp,4
   140a6:	4645                	li	a2,17
   140a8:	00007097          	auipc	ra,0x7
   140ac:	b6e080e7          	jalr	-1170(ra) # 1ac16 <memcpy>
   140b0:	01510513          	addi	a0,sp,21
   140b4:	03f00613          	li	a2,63
   140b8:	4581                	li	a1,0
   140ba:	00007097          	auipc	ra,0x7
   140be:	af0080e7          	jalr	-1296(ra) # 1abaa <memset>
   140c2:	6505                	lui	a0,0x1
   140c4:	459d                	li	a1,7
   140c6:	0050                	addi	a2,sp,4
   140c8:	46c5                	li	a3,17
   140ca:	cb050793          	addi	a5,a0,-848 # cb0 <.Lline_table_start1+0xa85>
   140ce:	4711                	li	a4,4
   140d0:	4489                	li	s1,2
   140d2:	853e                	mv	a0,a5
   140d4:	00000073          	ecall
   140d8:	02950b63          	beq	a0,s1,1410e <_ZN18complex_no_dynamic3app17h6a8621888b72d2efE+0x74>
   140dc:	4591                	li	a1,4
   140de:	01510613          	addi	a2,sp,21
   140e2:	03f00693          	li	a3,63
   140e6:	470d                	li	a4,3
   140e8:	853e                	mv	a0,a5
   140ea:	00000073          	ecall
   140ee:	02950063          	beq	a0,s1,1410e <_ZN18complex_no_dynamic3app17h6a8621888b72d2efE+0x74>
   140f2:	6505                	lui	a0,0x1
   140f4:	459d                	li	a1,7
   140f6:	4611                	li	a2,4
   140f8:	cb050493          	addi	s1,a0,-848 # cb0 <.Lline_table_start1+0xa85>
   140fc:	4709                	li	a4,2
   140fe:	07f00793          	li	a5,127
   14102:	8526                	mv	a0,s1
   14104:	4681                	li	a3,0
   14106:	00000073          	ecall
   1410a:	02a7ed63          	bltu	a5,a0,14144 <_ZN18complex_no_dynamic3app17h6a8621888b72d2efE+0xaa>
   1410e:	872e                	mv	a4,a1
   14110:	4601                	li	a2,0
   14112:	4681                	li	a3,0
   14114:	4505                	li	a0,1
   14116:	6785                	lui	a5,0x1
   14118:	4591                	li	a1,4
   1411a:	00a40023          	sb	a0,0(s0)
   1411e:	c058                	sw	a4,4(s0)
   14120:	cb078793          	addi	a5,a5,-848 # cb0 <.Lline_table_start1+0xa85>
   14124:	470d                	li	a4,3
   14126:	853e                	mv	a0,a5
   14128:	00000073          	ecall
   1412c:	459d                	li	a1,7
   1412e:	4711                	li	a4,4
   14130:	853e                	mv	a0,a5
   14132:	4601                	li	a2,0
   14134:	4681                	li	a3,0
   14136:	00000073          	ecall
   1413a:	40f6                	lw	ra,92(sp)
   1413c:	4466                	lw	s0,88(sp)
   1413e:	44d6                	lw	s1,84(sp)
   14140:	6125                	addi	sp,sp,96
   14142:	8082                	ret
   14144:	8526                	mv	a0,s1
   14146:	4601                	li	a2,0
   14148:	4681                	li	a3,0
   1414a:	4591                	li	a1,4
   1414c:	470d                	li	a4,3
   1414e:	00000073          	ecall
   14152:	4591                	li	a1,4
   14154:	470d                	li	a4,3
   14156:	8526                	mv	a0,s1
   14158:	4601                	li	a2,0
   1415a:	4681                	li	a3,0
   1415c:	00000073          	ecall
   14160:	00140513          	addi	a0,s0,1
   14164:	01510593          	addi	a1,sp,21
   14168:	03f00613          	li	a2,63
   1416c:	00007097          	auipc	ra,0x7
   14170:	aaa080e7          	jalr	-1366(ra) # 1ac16 <memcpy>
   14174:	8526                	mv	a0,s1
   14176:	4601                	li	a2,0
   14178:	4681                	li	a3,0
   1417a:	00040023          	sb	zero,0(s0)
   1417e:	4591                	li	a1,4
   14180:	470d                	li	a4,3
   14182:	00000073          	ecall
   14186:	459d                	li	a1,7
   14188:	4711                	li	a4,4
   1418a:	8526                	mv	a0,s1
   1418c:	4601                	li	a2,0
   1418e:	4681                	li	a3,0
   14190:	00000073          	ecall
   14194:	b75d                	j	1413a <_ZN18complex_no_dynamic3app17h6a8621888b72d2efE+0xa0>

00014196 <_ZN18complex_no_dynamic3app17h6efb98fb0b0ce428E>:
   14196:	7131                	addi	sp,sp,-192
   14198:	df06                	sw	ra,188(sp)
   1419a:	dd22                	sw	s0,184(sp)
   1419c:	842a                	mv	s0,a0
   1419e:	0028                	addi	a0,sp,8
   141a0:	04f00613          	li	a2,79
   141a4:	00007097          	auipc	ra,0x7
   141a8:	a72080e7          	jalr	-1422(ra) # 1ac16 <memcpy>
   141ac:	05710513          	addi	a0,sp,87
   141b0:	06100613          	li	a2,97
   141b4:	4581                	li	a1,0
   141b6:	00007097          	auipc	ra,0x7
   141ba:	9f4080e7          	jalr	-1548(ra) # 1abaa <memset>
   141be:	4789                	li	a5,2
   141c0:	1b600513          	li	a0,438
   141c4:	4589                	li	a1,2
   141c6:	0030                	addi	a2,sp,8
   141c8:	04f00693          	li	a3,79
   141cc:	4711                	li	a4,4
   141ce:	00000073          	ecall
   141d2:	02f50a63          	beq	a0,a5,14206 <_ZN18complex_no_dynamic3app17h6efb98fb0b0ce428E+0x70>
   141d6:	1b600513          	li	a0,438
   141da:	45a1                	li	a1,8
   141dc:	05710613          	addi	a2,sp,87
   141e0:	06100693          	li	a3,97
   141e4:	470d                	li	a4,3
   141e6:	00000073          	ecall
   141ea:	00f50e63          	beq	a0,a5,14206 <_ZN18complex_no_dynamic3app17h6efb98fb0b0ce428E+0x70>
   141ee:	1b600513          	li	a0,438
   141f2:	4589                	li	a1,2
   141f4:	4621                	li	a2,8
   141f6:	4709                	li	a4,2
   141f8:	07f00793          	li	a5,127
   141fc:	4681                	li	a3,0
   141fe:	00000073          	ecall
   14202:	02a7ea63          	bltu	a5,a0,14236 <_ZN18complex_no_dynamic3app17h6efb98fb0b0ce428E+0xa0>
   14206:	4601                	li	a2,0
   14208:	4681                	li	a3,0
   1420a:	4705                	li	a4,1
   1420c:	1b600513          	li	a0,438
   14210:	00e40023          	sb	a4,0(s0)
   14214:	c04c                	sw	a1,4(s0)
   14216:	45a1                	li	a1,8
   14218:	470d                	li	a4,3
   1421a:	00000073          	ecall
   1421e:	1b600513          	li	a0,438
   14222:	4589                	li	a1,2
   14224:	4711                	li	a4,4
   14226:	4601                	li	a2,0
   14228:	4681                	li	a3,0
   1422a:	00000073          	ecall
   1422e:	50fa                	lw	ra,188(sp)
   14230:	546a                	lw	s0,184(sp)
   14232:	6129                	addi	sp,sp,192
   14234:	8082                	ret
   14236:	4601                	li	a2,0
   14238:	4681                	li	a3,0
   1423a:	1b600513          	li	a0,438
   1423e:	45a1                	li	a1,8
   14240:	470d                	li	a4,3
   14242:	00000073          	ecall
   14246:	1b600513          	li	a0,438
   1424a:	45a1                	li	a1,8
   1424c:	470d                	li	a4,3
   1424e:	4601                	li	a2,0
   14250:	4681                	li	a3,0
   14252:	00000073          	ecall
   14256:	00140513          	addi	a0,s0,1
   1425a:	05710593          	addi	a1,sp,87
   1425e:	06100613          	li	a2,97
   14262:	00007097          	auipc	ra,0x7
   14266:	9b4080e7          	jalr	-1612(ra) # 1ac16 <memcpy>
   1426a:	4601                	li	a2,0
   1426c:	4681                	li	a3,0
   1426e:	00040023          	sb	zero,0(s0)
   14272:	1b600513          	li	a0,438
   14276:	45a1                	li	a1,8
   14278:	470d                	li	a4,3
   1427a:	00000073          	ecall
   1427e:	1b600513          	li	a0,438
   14282:	4589                	li	a1,2
   14284:	4711                	li	a4,4
   14286:	4601                	li	a2,0
   14288:	4681                	li	a3,0
   1428a:	00000073          	ecall
   1428e:	b745                	j	1422e <_ZN18complex_no_dynamic3app17h6efb98fb0b0ce428E+0x98>

00014290 <_ZN18complex_no_dynamic3app17h72bb57634394a133E>:
   14290:	7171                	addi	sp,sp,-176
   14292:	d706                	sw	ra,172(sp)
   14294:	d522                	sw	s0,168(sp)
   14296:	d326                	sw	s1,164(sp)
   14298:	842a                	mv	s0,a0
   1429a:	00110513          	addi	a0,sp,1
   1429e:	05900613          	li	a2,89
   142a2:	00007097          	auipc	ra,0x7
   142a6:	974080e7          	jalr	-1676(ra) # 1ac16 <memcpy>
   142aa:	05a10513          	addi	a0,sp,90
   142ae:	04a00613          	li	a2,74
   142b2:	4581                	li	a1,0
   142b4:	00007097          	auipc	ra,0x7
   142b8:	8f6080e7          	jalr	-1802(ra) # 1abaa <memset>
   142bc:	6505                	lui	a0,0x1
   142be:	00110613          	addi	a2,sp,1
   142c2:	05900693          	li	a3,89
   142c6:	48450793          	addi	a5,a0,1156 # 1484 <.Lline_table_start1+0x1259>
   142ca:	4711                	li	a4,4
   142cc:	4489                	li	s1,2
   142ce:	853e                	mv	a0,a5
   142d0:	4581                	li	a1,0
   142d2:	00000073          	ecall
   142d6:	02950b63          	beq	a0,s1,1430c <_ZN18complex_no_dynamic3app17h72bb57634394a133E+0x7c>
   142da:	4591                	li	a1,4
   142dc:	05a10613          	addi	a2,sp,90
   142e0:	04a00693          	li	a3,74
   142e4:	470d                	li	a4,3
   142e6:	853e                	mv	a0,a5
   142e8:	00000073          	ecall
   142ec:	02950063          	beq	a0,s1,1430c <_ZN18complex_no_dynamic3app17h72bb57634394a133E+0x7c>
   142f0:	6505                	lui	a0,0x1
   142f2:	4611                	li	a2,4
   142f4:	48450493          	addi	s1,a0,1156 # 1484 <.Lline_table_start1+0x1259>
   142f8:	4709                	li	a4,2
   142fa:	07f00793          	li	a5,127
   142fe:	8526                	mv	a0,s1
   14300:	4581                	li	a1,0
   14302:	4681                	li	a3,0
   14304:	00000073          	ecall
   14308:	02a7ec63          	bltu	a5,a0,14340 <_ZN18complex_no_dynamic3app17h72bb57634394a133E+0xb0>
   1430c:	4505                	li	a0,1
   1430e:	6605                	lui	a2,0x1
   14310:	00a40023          	sb	a0,0(s0)
   14314:	c04c                	sw	a1,4(s0)
   14316:	48460793          	addi	a5,a2,1156 # 1484 <.Lline_table_start1+0x1259>
   1431a:	4591                	li	a1,4
   1431c:	470d                	li	a4,3
   1431e:	853e                	mv	a0,a5
   14320:	4601                	li	a2,0
   14322:	4681                	li	a3,0
   14324:	00000073          	ecall
   14328:	4711                	li	a4,4
   1432a:	853e                	mv	a0,a5
   1432c:	4581                	li	a1,0
   1432e:	4601                	li	a2,0
   14330:	4681                	li	a3,0
   14332:	00000073          	ecall
   14336:	50ba                	lw	ra,172(sp)
   14338:	542a                	lw	s0,168(sp)
   1433a:	549a                	lw	s1,164(sp)
   1433c:	614d                	addi	sp,sp,176
   1433e:	8082                	ret
   14340:	8526                	mv	a0,s1
   14342:	4601                	li	a2,0
   14344:	4681                	li	a3,0
   14346:	4591                	li	a1,4
   14348:	470d                	li	a4,3
   1434a:	00000073          	ecall
   1434e:	4591                	li	a1,4
   14350:	470d                	li	a4,3
   14352:	8526                	mv	a0,s1
   14354:	4601                	li	a2,0
   14356:	4681                	li	a3,0
   14358:	00000073          	ecall
   1435c:	00140513          	addi	a0,s0,1
   14360:	05a10593          	addi	a1,sp,90
   14364:	04a00613          	li	a2,74
   14368:	00007097          	auipc	ra,0x7
   1436c:	8ae080e7          	jalr	-1874(ra) # 1ac16 <memcpy>
   14370:	00040023          	sb	zero,0(s0)
   14374:	4591                	li	a1,4
   14376:	470d                	li	a4,3
   14378:	8526                	mv	a0,s1
   1437a:	4601                	li	a2,0
   1437c:	4681                	li	a3,0
   1437e:	00000073          	ecall
   14382:	4711                	li	a4,4
   14384:	8526                	mv	a0,s1
   14386:	4581                	li	a1,0
   14388:	4601                	li	a2,0
   1438a:	4681                	li	a3,0
   1438c:	00000073          	ecall
   14390:	b75d                	j	14336 <_ZN18complex_no_dynamic3app17h72bb57634394a133E+0xa6>

00014392 <_ZN18complex_no_dynamic3app17h7a4e798c4e0b3040E>:
   14392:	7119                	addi	sp,sp,-128
   14394:	de86                	sw	ra,124(sp)
   14396:	dca2                	sw	s0,120(sp)
   14398:	daa6                	sw	s1,116(sp)
   1439a:	842a                	mv	s0,a0
   1439c:	00510513          	addi	a0,sp,5
   143a0:	4679                	li	a2,30
   143a2:	00007097          	auipc	ra,0x7
   143a6:	874080e7          	jalr	-1932(ra) # 1ac16 <memcpy>
   143aa:	02310513          	addi	a0,sp,35
   143ae:	05100613          	li	a2,81
   143b2:	4581                	li	a1,0
   143b4:	00006097          	auipc	ra,0x6
   143b8:	7f6080e7          	jalr	2038(ra) # 1abaa <memset>
   143bc:	6509                	lui	a0,0x2
   143be:	4489                	li	s1,2
   143c0:	4589                	li	a1,2
   143c2:	00510613          	addi	a2,sp,5
   143c6:	96b50793          	addi	a5,a0,-1685 # 196b <.Lline_table_start1+0x1740>
   143ca:	46f9                	li	a3,30
   143cc:	4711                	li	a4,4
   143ce:	853e                	mv	a0,a5
   143d0:	00000073          	ecall
   143d4:	02950b63          	beq	a0,s1,1440a <_ZN18complex_no_dynamic3app17h7a4e798c4e0b3040E+0x78>
   143d8:	02310613          	addi	a2,sp,35
   143dc:	05100693          	li	a3,81
   143e0:	470d                	li	a4,3
   143e2:	853e                	mv	a0,a5
   143e4:	4581                	li	a1,0
   143e6:	00000073          	ecall
   143ea:	02950063          	beq	a0,s1,1440a <_ZN18complex_no_dynamic3app17h7a4e798c4e0b3040E+0x78>
   143ee:	6509                	lui	a0,0x2
   143f0:	4589                	li	a1,2
   143f2:	96b50493          	addi	s1,a0,-1685 # 196b <.Lline_table_start1+0x1740>
   143f6:	4709                	li	a4,2
   143f8:	07f00793          	li	a5,127
   143fc:	8526                	mv	a0,s1
   143fe:	4601                	li	a2,0
   14400:	4681                	li	a3,0
   14402:	00000073          	ecall
   14406:	02a7ed63          	bltu	a5,a0,14440 <_ZN18complex_no_dynamic3app17h7a4e798c4e0b3040E+0xae>
   1440a:	872e                	mv	a4,a1
   1440c:	4581                	li	a1,0
   1440e:	4601                	li	a2,0
   14410:	4681                	li	a3,0
   14412:	4505                	li	a0,1
   14414:	6789                	lui	a5,0x2
   14416:	00a40023          	sb	a0,0(s0)
   1441a:	c058                	sw	a4,4(s0)
   1441c:	96b78793          	addi	a5,a5,-1685 # 196b <.Lline_table_start1+0x1740>
   14420:	470d                	li	a4,3
   14422:	853e                	mv	a0,a5
   14424:	00000073          	ecall
   14428:	4589                	li	a1,2
   1442a:	4711                	li	a4,4
   1442c:	853e                	mv	a0,a5
   1442e:	4601                	li	a2,0
   14430:	4681                	li	a3,0
   14432:	00000073          	ecall
   14436:	50f6                	lw	ra,124(sp)
   14438:	5466                	lw	s0,120(sp)
   1443a:	54d6                	lw	s1,116(sp)
   1443c:	6109                	addi	sp,sp,128
   1443e:	8082                	ret
   14440:	470d                	li	a4,3
   14442:	8526                	mv	a0,s1
   14444:	4581                	li	a1,0
   14446:	4601                	li	a2,0
   14448:	4681                	li	a3,0
   1444a:	00000073          	ecall
   1444e:	470d                	li	a4,3
   14450:	8526                	mv	a0,s1
   14452:	4581                	li	a1,0
   14454:	4601                	li	a2,0
   14456:	4681                	li	a3,0
   14458:	00000073          	ecall
   1445c:	00140513          	addi	a0,s0,1
   14460:	02310593          	addi	a1,sp,35
   14464:	05100613          	li	a2,81
   14468:	00006097          	auipc	ra,0x6
   1446c:	7ae080e7          	jalr	1966(ra) # 1ac16 <memcpy>
   14470:	8526                	mv	a0,s1
   14472:	4581                	li	a1,0
   14474:	4601                	li	a2,0
   14476:	4681                	li	a3,0
   14478:	00040023          	sb	zero,0(s0)
   1447c:	470d                	li	a4,3
   1447e:	00000073          	ecall
   14482:	4589                	li	a1,2
   14484:	4711                	li	a4,4
   14486:	8526                	mv	a0,s1
   14488:	4601                	li	a2,0
   1448a:	4681                	li	a3,0
   1448c:	00000073          	ecall
   14490:	b75d                	j	14436 <_ZN18complex_no_dynamic3app17h7a4e798c4e0b3040E+0xa4>

00014492 <_ZN18complex_no_dynamic3app17h7a6381a27820cce2E>:
   14492:	7171                	addi	sp,sp,-176
   14494:	d706                	sw	ra,172(sp)
   14496:	d522                	sw	s0,168(sp)
   14498:	d326                	sw	s1,164(sp)
   1449a:	842a                	mv	s0,a0
   1449c:	0048                	addi	a0,sp,4
   1449e:	05100613          	li	a2,81
   144a2:	00006097          	auipc	ra,0x6
   144a6:	774080e7          	jalr	1908(ra) # 1ac16 <memcpy>
   144aa:	05510513          	addi	a0,sp,85
   144ae:	04f00613          	li	a2,79
   144b2:	4581                	li	a1,0
   144b4:	00006097          	auipc	ra,0x6
   144b8:	6f6080e7          	jalr	1782(ra) # 1abaa <memset>
   144bc:	6509                	lui	a0,0x2
   144be:	4591                	li	a1,4
   144c0:	0050                	addi	a2,sp,4
   144c2:	05100693          	li	a3,81
   144c6:	0ee50793          	addi	a5,a0,238 # 20ee <.Lline_table_start1+0x1ec3>
   144ca:	4711                	li	a4,4
   144cc:	4489                	li	s1,2
   144ce:	853e                	mv	a0,a5
   144d0:	00000073          	ecall
   144d4:	02950b63          	beq	a0,s1,1450a <_ZN18complex_no_dynamic3app17h7a6381a27820cce2E+0x78>
   144d8:	45a5                	li	a1,9
   144da:	05510613          	addi	a2,sp,85
   144de:	04f00693          	li	a3,79
   144e2:	470d                	li	a4,3
   144e4:	853e                	mv	a0,a5
   144e6:	00000073          	ecall
   144ea:	02950063          	beq	a0,s1,1450a <_ZN18complex_no_dynamic3app17h7a6381a27820cce2E+0x78>
   144ee:	6509                	lui	a0,0x2
   144f0:	4591                	li	a1,4
   144f2:	4625                	li	a2,9
   144f4:	0ee50493          	addi	s1,a0,238 # 20ee <.Lline_table_start1+0x1ec3>
   144f8:	4709                	li	a4,2
   144fa:	07f00793          	li	a5,127
   144fe:	8526                	mv	a0,s1
   14500:	4681                	li	a3,0
   14502:	00000073          	ecall
   14506:	02a7ed63          	bltu	a5,a0,14540 <_ZN18complex_no_dynamic3app17h7a6381a27820cce2E+0xae>
   1450a:	872e                	mv	a4,a1
   1450c:	4601                	li	a2,0
   1450e:	4681                	li	a3,0
   14510:	4505                	li	a0,1
   14512:	6789                	lui	a5,0x2
   14514:	45a5                	li	a1,9
   14516:	00a40023          	sb	a0,0(s0)
   1451a:	c058                	sw	a4,4(s0)
   1451c:	0ee78793          	addi	a5,a5,238 # 20ee <.Lline_table_start1+0x1ec3>
   14520:	470d                	li	a4,3
   14522:	853e                	mv	a0,a5
   14524:	00000073          	ecall
   14528:	4591                	li	a1,4
   1452a:	4711                	li	a4,4
   1452c:	853e                	mv	a0,a5
   1452e:	4601                	li	a2,0
   14530:	4681                	li	a3,0
   14532:	00000073          	ecall
   14536:	50ba                	lw	ra,172(sp)
   14538:	542a                	lw	s0,168(sp)
   1453a:	549a                	lw	s1,164(sp)
   1453c:	614d                	addi	sp,sp,176
   1453e:	8082                	ret
   14540:	8526                	mv	a0,s1
   14542:	4601                	li	a2,0
   14544:	4681                	li	a3,0
   14546:	45a5                	li	a1,9
   14548:	470d                	li	a4,3
   1454a:	00000073          	ecall
   1454e:	45a5                	li	a1,9
   14550:	470d                	li	a4,3
   14552:	8526                	mv	a0,s1
   14554:	4601                	li	a2,0
   14556:	4681                	li	a3,0
   14558:	00000073          	ecall
   1455c:	00140513          	addi	a0,s0,1
   14560:	05510593          	addi	a1,sp,85
   14564:	04f00613          	li	a2,79
   14568:	00006097          	auipc	ra,0x6
   1456c:	6ae080e7          	jalr	1710(ra) # 1ac16 <memcpy>
   14570:	8526                	mv	a0,s1
   14572:	4601                	li	a2,0
   14574:	4681                	li	a3,0
   14576:	00040023          	sb	zero,0(s0)
   1457a:	45a5                	li	a1,9
   1457c:	470d                	li	a4,3
   1457e:	00000073          	ecall
   14582:	4591                	li	a1,4
   14584:	4711                	li	a4,4
   14586:	8526                	mv	a0,s1
   14588:	4601                	li	a2,0
   1458a:	4681                	li	a3,0
   1458c:	00000073          	ecall
   14590:	b75d                	j	14536 <_ZN18complex_no_dynamic3app17h7a6381a27820cce2E+0xa4>

00014592 <_ZN18complex_no_dynamic3app17h82829cda7168cd5dE>:
   14592:	711d                	addi	sp,sp,-96
   14594:	ce86                	sw	ra,92(sp)
   14596:	cca2                	sw	s0,88(sp)
   14598:	caa6                	sw	s1,84(sp)
   1459a:	842a                	mv	s0,a0
   1459c:	0048                	addi	a0,sp,4
   1459e:	03f00613          	li	a2,63
   145a2:	00006097          	auipc	ra,0x6
   145a6:	674080e7          	jalr	1652(ra) # 1ac16 <memcpy>
   145aa:	04310513          	addi	a0,sp,67
   145ae:	4645                	li	a2,17
   145b0:	4581                	li	a1,0
   145b2:	00006097          	auipc	ra,0x6
   145b6:	5f8080e7          	jalr	1528(ra) # 1abaa <memset>
   145ba:	6505                	lui	a0,0x1
   145bc:	4591                	li	a1,4
   145be:	0050                	addi	a2,sp,4
   145c0:	03f00693          	li	a3,63
   145c4:	4d750793          	addi	a5,a0,1239 # 14d7 <.Lline_table_start1+0x12ac>
   145c8:	4711                	li	a4,4
   145ca:	4489                	li	s1,2
   145cc:	853e                	mv	a0,a5
   145ce:	00000073          	ecall
   145d2:	02950a63          	beq	a0,s1,14606 <_ZN18complex_no_dynamic3app17h82829cda7168cd5dE+0x74>
   145d6:	458d                	li	a1,3
   145d8:	04310613          	addi	a2,sp,67
   145dc:	46c5                	li	a3,17
   145de:	470d                	li	a4,3
   145e0:	853e                	mv	a0,a5
   145e2:	00000073          	ecall
   145e6:	02950063          	beq	a0,s1,14606 <_ZN18complex_no_dynamic3app17h82829cda7168cd5dE+0x74>
   145ea:	6505                	lui	a0,0x1
   145ec:	4591                	li	a1,4
   145ee:	460d                	li	a2,3
   145f0:	4d750493          	addi	s1,a0,1239 # 14d7 <.Lline_table_start1+0x12ac>
   145f4:	4709                	li	a4,2
   145f6:	07f00793          	li	a5,127
   145fa:	8526                	mv	a0,s1
   145fc:	4681                	li	a3,0
   145fe:	00000073          	ecall
   14602:	02a7ed63          	bltu	a5,a0,1463c <_ZN18complex_no_dynamic3app17h82829cda7168cd5dE+0xaa>
   14606:	872e                	mv	a4,a1
   14608:	4601                	li	a2,0
   1460a:	4681                	li	a3,0
   1460c:	4505                	li	a0,1
   1460e:	6785                	lui	a5,0x1
   14610:	458d                	li	a1,3
   14612:	00a40023          	sb	a0,0(s0)
   14616:	c058                	sw	a4,4(s0)
   14618:	4d778793          	addi	a5,a5,1239 # 14d7 <.Lline_table_start1+0x12ac>
   1461c:	470d                	li	a4,3
   1461e:	853e                	mv	a0,a5
   14620:	00000073          	ecall
   14624:	4591                	li	a1,4
   14626:	4711                	li	a4,4
   14628:	853e                	mv	a0,a5
   1462a:	4601                	li	a2,0
   1462c:	4681                	li	a3,0
   1462e:	00000073          	ecall
   14632:	40f6                	lw	ra,92(sp)
   14634:	4466                	lw	s0,88(sp)
   14636:	44d6                	lw	s1,84(sp)
   14638:	6125                	addi	sp,sp,96
   1463a:	8082                	ret
   1463c:	8526                	mv	a0,s1
   1463e:	4601                	li	a2,0
   14640:	4681                	li	a3,0
   14642:	458d                	li	a1,3
   14644:	470d                	li	a4,3
   14646:	00000073          	ecall
   1464a:	458d                	li	a1,3
   1464c:	470d                	li	a4,3
   1464e:	8526                	mv	a0,s1
   14650:	4601                	li	a2,0
   14652:	4681                	li	a3,0
   14654:	00000073          	ecall
   14658:	00140513          	addi	a0,s0,1
   1465c:	04310593          	addi	a1,sp,67
   14660:	4645                	li	a2,17
   14662:	00006097          	auipc	ra,0x6
   14666:	5b4080e7          	jalr	1460(ra) # 1ac16 <memcpy>
   1466a:	8526                	mv	a0,s1
   1466c:	4601                	li	a2,0
   1466e:	4681                	li	a3,0
   14670:	00040023          	sb	zero,0(s0)
   14674:	458d                	li	a1,3
   14676:	470d                	li	a4,3
   14678:	00000073          	ecall
   1467c:	4591                	li	a1,4
   1467e:	4711                	li	a4,4
   14680:	8526                	mv	a0,s1
   14682:	4601                	li	a2,0
   14684:	4681                	li	a3,0
   14686:	00000073          	ecall
   1468a:	b765                	j	14632 <_ZN18complex_no_dynamic3app17h82829cda7168cd5dE+0xa0>

0001468c <_ZN18complex_no_dynamic3app17h898d0e587db6caa3E>:
   1468c:	711d                	addi	sp,sp,-96
   1468e:	ce86                	sw	ra,92(sp)
   14690:	cca2                	sw	s0,88(sp)
   14692:	842a                	mv	s0,a0
   14694:	00e10513          	addi	a0,sp,14
   14698:	4679                	li	a2,30
   1469a:	00006097          	auipc	ra,0x6
   1469e:	57c080e7          	jalr	1404(ra) # 1ac16 <memcpy>
   146a2:	1068                	addi	a0,sp,44
   146a4:	02c00613          	li	a2,44
   146a8:	4581                	li	a1,0
   146aa:	00006097          	auipc	ra,0x6
   146ae:	500080e7          	jalr	1280(ra) # 1abaa <memset>
   146b2:	3fb00513          	li	a0,1019
   146b6:	459d                	li	a1,7
   146b8:	00e10613          	addi	a2,sp,14
   146bc:	46f9                	li	a3,30
   146be:	4711                	li	a4,4
   146c0:	4789                	li	a5,2
   146c2:	00000073          	ecall
   146c6:	02f50963          	beq	a0,a5,146f8 <_ZN18complex_no_dynamic3app17h898d0e587db6caa3E+0x6c>
   146ca:	3fb00513          	li	a0,1019
   146ce:	1070                	addi	a2,sp,44
   146d0:	02c00693          	li	a3,44
   146d4:	470d                	li	a4,3
   146d6:	4581                	li	a1,0
   146d8:	00000073          	ecall
   146dc:	00f50e63          	beq	a0,a5,146f8 <_ZN18complex_no_dynamic3app17h898d0e587db6caa3E+0x6c>
   146e0:	3fb00513          	li	a0,1019
   146e4:	459d                	li	a1,7
   146e6:	4709                	li	a4,2
   146e8:	07f00793          	li	a5,127
   146ec:	4601                	li	a2,0
   146ee:	4681                	li	a3,0
   146f0:	00000073          	ecall
   146f4:	02a7eb63          	bltu	a5,a0,1472a <_ZN18complex_no_dynamic3app17h898d0e587db6caa3E+0x9e>
   146f8:	872e                	mv	a4,a1
   146fa:	4581                	li	a1,0
   146fc:	4601                	li	a2,0
   146fe:	4681                	li	a3,0
   14700:	4505                	li	a0,1
   14702:	00a40023          	sb	a0,0(s0)
   14706:	c058                	sw	a4,4(s0)
   14708:	3fb00513          	li	a0,1019
   1470c:	470d                	li	a4,3
   1470e:	00000073          	ecall
   14712:	3fb00513          	li	a0,1019
   14716:	459d                	li	a1,7
   14718:	4711                	li	a4,4
   1471a:	4601                	li	a2,0
   1471c:	4681                	li	a3,0
   1471e:	00000073          	ecall
   14722:	40f6                	lw	ra,92(sp)
   14724:	4466                	lw	s0,88(sp)
   14726:	6125                	addi	sp,sp,96
   14728:	8082                	ret
   1472a:	4581                	li	a1,0
   1472c:	4601                	li	a2,0
   1472e:	4681                	li	a3,0
   14730:	3fb00513          	li	a0,1019
   14734:	470d                	li	a4,3
   14736:	00000073          	ecall
   1473a:	3fb00513          	li	a0,1019
   1473e:	470d                	li	a4,3
   14740:	4581                	li	a1,0
   14742:	4601                	li	a2,0
   14744:	4681                	li	a3,0
   14746:	00000073          	ecall
   1474a:	00140513          	addi	a0,s0,1
   1474e:	106c                	addi	a1,sp,44
   14750:	02c00613          	li	a2,44
   14754:	00006097          	auipc	ra,0x6
   14758:	4c2080e7          	jalr	1218(ra) # 1ac16 <memcpy>
   1475c:	4581                	li	a1,0
   1475e:	4601                	li	a2,0
   14760:	4681                	li	a3,0
   14762:	00040023          	sb	zero,0(s0)
   14766:	3fb00513          	li	a0,1019
   1476a:	470d                	li	a4,3
   1476c:	00000073          	ecall
   14770:	3fb00513          	li	a0,1019
   14774:	459d                	li	a1,7
   14776:	4711                	li	a4,4
   14778:	4601                	li	a2,0
   1477a:	4681                	li	a3,0
   1477c:	00000073          	ecall
   14780:	b74d                	j	14722 <_ZN18complex_no_dynamic3app17h898d0e587db6caa3E+0x96>

00014782 <_ZN18complex_no_dynamic3app17h89efe621b0fa2568E>:
   14782:	7135                	addi	sp,sp,-160
   14784:	cf06                	sw	ra,156(sp)
   14786:	cd22                	sw	s0,152(sp)
   14788:	842a                	mv	s0,a0
   1478a:	00910513          	addi	a0,sp,9
   1478e:	06300613          	li	a2,99
   14792:	00006097          	auipc	ra,0x6
   14796:	484080e7          	jalr	1156(ra) # 1ac16 <memcpy>
   1479a:	10e8                	addi	a0,sp,108
   1479c:	02c00613          	li	a2,44
   147a0:	4581                	li	a1,0
   147a2:	00006097          	auipc	ra,0x6
   147a6:	408080e7          	jalr	1032(ra) # 1abaa <memset>
   147aa:	4561                	li	a0,24
   147ac:	4595                	li	a1,5
   147ae:	00910613          	addi	a2,sp,9
   147b2:	06300693          	li	a3,99
   147b6:	4711                	li	a4,4
   147b8:	4789                	li	a5,2
   147ba:	00000073          	ecall
   147be:	02f50763          	beq	a0,a5,147ec <_ZN18complex_no_dynamic3app17h89efe621b0fa2568E+0x6a>
   147c2:	4561                	li	a0,24
   147c4:	458d                	li	a1,3
   147c6:	10f0                	addi	a2,sp,108
   147c8:	02c00693          	li	a3,44
   147cc:	470d                	li	a4,3
   147ce:	00000073          	ecall
   147d2:	00f50d63          	beq	a0,a5,147ec <_ZN18complex_no_dynamic3app17h89efe621b0fa2568E+0x6a>
   147d6:	4561                	li	a0,24
   147d8:	4595                	li	a1,5
   147da:	460d                	li	a2,3
   147dc:	4709                	li	a4,2
   147de:	07f00793          	li	a5,127
   147e2:	4681                	li	a3,0
   147e4:	00000073          	ecall
   147e8:	02a7e863          	bltu	a5,a0,14818 <_ZN18complex_no_dynamic3app17h89efe621b0fa2568E+0x96>
   147ec:	4601                	li	a2,0
   147ee:	4681                	li	a3,0
   147f0:	4705                	li	a4,1
   147f2:	4561                	li	a0,24
   147f4:	00e40023          	sb	a4,0(s0)
   147f8:	c04c                	sw	a1,4(s0)
   147fa:	458d                	li	a1,3
   147fc:	470d                	li	a4,3
   147fe:	00000073          	ecall
   14802:	4561                	li	a0,24
   14804:	4595                	li	a1,5
   14806:	4711                	li	a4,4
   14808:	4601                	li	a2,0
   1480a:	4681                	li	a3,0
   1480c:	00000073          	ecall
   14810:	40fa                	lw	ra,156(sp)
   14812:	446a                	lw	s0,152(sp)
   14814:	610d                	addi	sp,sp,160
   14816:	8082                	ret
   14818:	4601                	li	a2,0
   1481a:	4681                	li	a3,0
   1481c:	4561                	li	a0,24
   1481e:	458d                	li	a1,3
   14820:	470d                	li	a4,3
   14822:	00000073          	ecall
   14826:	4561                	li	a0,24
   14828:	458d                	li	a1,3
   1482a:	470d                	li	a4,3
   1482c:	4601                	li	a2,0
   1482e:	4681                	li	a3,0
   14830:	00000073          	ecall
   14834:	00140513          	addi	a0,s0,1
   14838:	10ec                	addi	a1,sp,108
   1483a:	02c00613          	li	a2,44
   1483e:	00006097          	auipc	ra,0x6
   14842:	3d8080e7          	jalr	984(ra) # 1ac16 <memcpy>
   14846:	4601                	li	a2,0
   14848:	4681                	li	a3,0
   1484a:	00040023          	sb	zero,0(s0)
   1484e:	4561                	li	a0,24
   14850:	458d                	li	a1,3
   14852:	470d                	li	a4,3
   14854:	00000073          	ecall
   14858:	4561                	li	a0,24
   1485a:	4595                	li	a1,5
   1485c:	4711                	li	a4,4
   1485e:	4601                	li	a2,0
   14860:	4681                	li	a3,0
   14862:	00000073          	ecall
   14866:	b76d                	j	14810 <_ZN18complex_no_dynamic3app17h89efe621b0fa2568E+0x8e>

00014868 <_ZN18complex_no_dynamic3app17h8bc23e9dc28440f0E>:
   14868:	7159                	addi	sp,sp,-112
   1486a:	d686                	sw	ra,108(sp)
   1486c:	d4a2                	sw	s0,104(sp)
   1486e:	d2a6                	sw	s1,100(sp)
   14870:	842a                	mv	s0,a0
   14872:	00510513          	addi	a0,sp,5
   14876:	03800613          	li	a2,56
   1487a:	00006097          	auipc	ra,0x6
   1487e:	39c080e7          	jalr	924(ra) # 1ac16 <memcpy>
   14882:	03d10513          	addi	a0,sp,61
   14886:	02700613          	li	a2,39
   1488a:	4581                	li	a1,0
   1488c:	00006097          	auipc	ra,0x6
   14890:	31e080e7          	jalr	798(ra) # 1abaa <memset>
   14894:	6505                	lui	a0,0x1
   14896:	4489                	li	s1,2
   14898:	4589                	li	a1,2
   1489a:	00510613          	addi	a2,sp,5
   1489e:	e2b50793          	addi	a5,a0,-469 # e2b <.Lline_table_start1+0xc00>
   148a2:	03800693          	li	a3,56
   148a6:	4711                	li	a4,4
   148a8:	853e                	mv	a0,a5
   148aa:	00000073          	ecall
   148ae:	02950b63          	beq	a0,s1,148e4 <_ZN18complex_no_dynamic3app17h8bc23e9dc28440f0E+0x7c>
   148b2:	45a1                	li	a1,8
   148b4:	03d10613          	addi	a2,sp,61
   148b8:	02700693          	li	a3,39
   148bc:	470d                	li	a4,3
   148be:	853e                	mv	a0,a5
   148c0:	00000073          	ecall
   148c4:	02950063          	beq	a0,s1,148e4 <_ZN18complex_no_dynamic3app17h8bc23e9dc28440f0E+0x7c>
   148c8:	6505                	lui	a0,0x1
   148ca:	4589                	li	a1,2
   148cc:	4621                	li	a2,8
   148ce:	e2b50493          	addi	s1,a0,-469 # e2b <.Lline_table_start1+0xc00>
   148d2:	4709                	li	a4,2
   148d4:	07f00793          	li	a5,127
   148d8:	8526                	mv	a0,s1
   148da:	4681                	li	a3,0
   148dc:	00000073          	ecall
   148e0:	02a7ed63          	bltu	a5,a0,1491a <_ZN18complex_no_dynamic3app17h8bc23e9dc28440f0E+0xb2>
   148e4:	872e                	mv	a4,a1
   148e6:	4601                	li	a2,0
   148e8:	4681                	li	a3,0
   148ea:	4505                	li	a0,1
   148ec:	6785                	lui	a5,0x1
   148ee:	45a1                	li	a1,8
   148f0:	00a40023          	sb	a0,0(s0)
   148f4:	c058                	sw	a4,4(s0)
   148f6:	e2b78793          	addi	a5,a5,-469 # e2b <.Lline_table_start1+0xc00>
   148fa:	470d                	li	a4,3
   148fc:	853e                	mv	a0,a5
   148fe:	00000073          	ecall
   14902:	4589                	li	a1,2
   14904:	4711                	li	a4,4
   14906:	853e                	mv	a0,a5
   14908:	4601                	li	a2,0
   1490a:	4681                	li	a3,0
   1490c:	00000073          	ecall
   14910:	50b6                	lw	ra,108(sp)
   14912:	5426                	lw	s0,104(sp)
   14914:	5496                	lw	s1,100(sp)
   14916:	6165                	addi	sp,sp,112
   14918:	8082                	ret
   1491a:	8526                	mv	a0,s1
   1491c:	4601                	li	a2,0
   1491e:	4681                	li	a3,0
   14920:	45a1                	li	a1,8
   14922:	470d                	li	a4,3
   14924:	00000073          	ecall
   14928:	45a1                	li	a1,8
   1492a:	470d                	li	a4,3
   1492c:	8526                	mv	a0,s1
   1492e:	4601                	li	a2,0
   14930:	4681                	li	a3,0
   14932:	00000073          	ecall
   14936:	00140513          	addi	a0,s0,1
   1493a:	03d10593          	addi	a1,sp,61
   1493e:	02700613          	li	a2,39
   14942:	00006097          	auipc	ra,0x6
   14946:	2d4080e7          	jalr	724(ra) # 1ac16 <memcpy>
   1494a:	8526                	mv	a0,s1
   1494c:	4601                	li	a2,0
   1494e:	4681                	li	a3,0
   14950:	00040023          	sb	zero,0(s0)
   14954:	45a1                	li	a1,8
   14956:	470d                	li	a4,3
   14958:	00000073          	ecall
   1495c:	4589                	li	a1,2
   1495e:	4711                	li	a4,4
   14960:	8526                	mv	a0,s1
   14962:	4601                	li	a2,0
   14964:	4681                	li	a3,0
   14966:	00000073          	ecall
   1496a:	b75d                	j	14910 <_ZN18complex_no_dynamic3app17h8bc23e9dc28440f0E+0xa8>

0001496c <_ZN18complex_no_dynamic3app17h8dbdeecde8eb7d06E>:
   1496c:	7159                	addi	sp,sp,-112
   1496e:	d686                	sw	ra,108(sp)
   14970:	d4a2                	sw	s0,104(sp)
   14972:	842a                	mv	s0,a0
   14974:	00610513          	addi	a0,sp,6
   14978:	03400613          	li	a2,52
   1497c:	00006097          	auipc	ra,0x6
   14980:	29a080e7          	jalr	666(ra) # 1ac16 <memcpy>
   14984:	03a10513          	addi	a0,sp,58
   14988:	02e00613          	li	a2,46
   1498c:	4581                	li	a1,0
   1498e:	00006097          	auipc	ra,0x6
   14992:	21c080e7          	jalr	540(ra) # 1abaa <memset>
   14996:	4789                	li	a5,2
   14998:	20900513          	li	a0,521
   1499c:	4589                	li	a1,2
   1499e:	00610613          	addi	a2,sp,6
   149a2:	03400693          	li	a3,52
   149a6:	4711                	li	a4,4
   149a8:	00000073          	ecall
   149ac:	02f50a63          	beq	a0,a5,149e0 <_ZN18complex_no_dynamic3app17h8dbdeecde8eb7d06E+0x74>
   149b0:	20900513          	li	a0,521
   149b4:	45a1                	li	a1,8
   149b6:	03a10613          	addi	a2,sp,58
   149ba:	02e00693          	li	a3,46
   149be:	470d                	li	a4,3
   149c0:	00000073          	ecall
   149c4:	00f50e63          	beq	a0,a5,149e0 <_ZN18complex_no_dynamic3app17h8dbdeecde8eb7d06E+0x74>
   149c8:	20900513          	li	a0,521
   149cc:	4589                	li	a1,2
   149ce:	4621                	li	a2,8
   149d0:	4709                	li	a4,2
   149d2:	07f00793          	li	a5,127
   149d6:	4681                	li	a3,0
   149d8:	00000073          	ecall
   149dc:	02a7ea63          	bltu	a5,a0,14a10 <_ZN18complex_no_dynamic3app17h8dbdeecde8eb7d06E+0xa4>
   149e0:	4601                	li	a2,0
   149e2:	4681                	li	a3,0
   149e4:	4705                	li	a4,1
   149e6:	20900513          	li	a0,521
   149ea:	00e40023          	sb	a4,0(s0)
   149ee:	c04c                	sw	a1,4(s0)
   149f0:	45a1                	li	a1,8
   149f2:	470d                	li	a4,3
   149f4:	00000073          	ecall
   149f8:	20900513          	li	a0,521
   149fc:	4589                	li	a1,2
   149fe:	4711                	li	a4,4
   14a00:	4601                	li	a2,0
   14a02:	4681                	li	a3,0
   14a04:	00000073          	ecall
   14a08:	50b6                	lw	ra,108(sp)
   14a0a:	5426                	lw	s0,104(sp)
   14a0c:	6165                	addi	sp,sp,112
   14a0e:	8082                	ret
   14a10:	4601                	li	a2,0
   14a12:	4681                	li	a3,0
   14a14:	20900513          	li	a0,521
   14a18:	45a1                	li	a1,8
   14a1a:	470d                	li	a4,3
   14a1c:	00000073          	ecall
   14a20:	20900513          	li	a0,521
   14a24:	45a1                	li	a1,8
   14a26:	470d                	li	a4,3
   14a28:	4601                	li	a2,0
   14a2a:	4681                	li	a3,0
   14a2c:	00000073          	ecall
   14a30:	00140513          	addi	a0,s0,1
   14a34:	03a10593          	addi	a1,sp,58
   14a38:	02e00613          	li	a2,46
   14a3c:	00006097          	auipc	ra,0x6
   14a40:	1da080e7          	jalr	474(ra) # 1ac16 <memcpy>
   14a44:	4601                	li	a2,0
   14a46:	4681                	li	a3,0
   14a48:	00040023          	sb	zero,0(s0)
   14a4c:	20900513          	li	a0,521
   14a50:	45a1                	li	a1,8
   14a52:	470d                	li	a4,3
   14a54:	00000073          	ecall
   14a58:	20900513          	li	a0,521
   14a5c:	4589                	li	a1,2
   14a5e:	4711                	li	a4,4
   14a60:	4601                	li	a2,0
   14a62:	4681                	li	a3,0
   14a64:	00000073          	ecall
   14a68:	b745                	j	14a08 <_ZN18complex_no_dynamic3app17h8dbdeecde8eb7d06E+0x9c>

00014a6a <_ZN18complex_no_dynamic3app17h8e687e15a59e7c3bE>:
   14a6a:	7119                	addi	sp,sp,-128
   14a6c:	de86                	sw	ra,124(sp)
   14a6e:	dca2                	sw	s0,120(sp)
   14a70:	daa6                	sw	s1,116(sp)
   14a72:	842a                	mv	s0,a0
   14a74:	00a10513          	addi	a0,sp,10
   14a78:	03600613          	li	a2,54
   14a7c:	00006097          	auipc	ra,0x6
   14a80:	19a080e7          	jalr	410(ra) # 1ac16 <memcpy>
   14a84:	0088                	addi	a0,sp,64
   14a86:	03400613          	li	a2,52
   14a8a:	4581                	li	a1,0
   14a8c:	00006097          	auipc	ra,0x6
   14a90:	11e080e7          	jalr	286(ra) # 1abaa <memset>
   14a94:	6509                	lui	a0,0x2
   14a96:	4591                	li	a1,4
   14a98:	00a10613          	addi	a2,sp,10
   14a9c:	03600693          	li	a3,54
   14aa0:	3c650793          	addi	a5,a0,966 # 23c6 <.Lline_table_start1+0x219b>
   14aa4:	4711                	li	a4,4
   14aa6:	4489                	li	s1,2
   14aa8:	853e                	mv	a0,a5
   14aaa:	00000073          	ecall
   14aae:	02950a63          	beq	a0,s1,14ae2 <_ZN18complex_no_dynamic3app17h8e687e15a59e7c3bE+0x78>
   14ab2:	4589                	li	a1,2
   14ab4:	0090                	addi	a2,sp,64
   14ab6:	03400693          	li	a3,52
   14aba:	470d                	li	a4,3
   14abc:	853e                	mv	a0,a5
   14abe:	00000073          	ecall
   14ac2:	02950063          	beq	a0,s1,14ae2 <_ZN18complex_no_dynamic3app17h8e687e15a59e7c3bE+0x78>
   14ac6:	6509                	lui	a0,0x2
   14ac8:	4591                	li	a1,4
   14aca:	4609                	li	a2,2
   14acc:	3c650493          	addi	s1,a0,966 # 23c6 <.Lline_table_start1+0x219b>
   14ad0:	4709                	li	a4,2
   14ad2:	07f00793          	li	a5,127
   14ad6:	8526                	mv	a0,s1
   14ad8:	4681                	li	a3,0
   14ada:	00000073          	ecall
   14ade:	02a7ed63          	bltu	a5,a0,14b18 <_ZN18complex_no_dynamic3app17h8e687e15a59e7c3bE+0xae>
   14ae2:	872e                	mv	a4,a1
   14ae4:	4601                	li	a2,0
   14ae6:	4681                	li	a3,0
   14ae8:	4505                	li	a0,1
   14aea:	6789                	lui	a5,0x2
   14aec:	4589                	li	a1,2
   14aee:	00a40023          	sb	a0,0(s0)
   14af2:	c058                	sw	a4,4(s0)
   14af4:	3c678793          	addi	a5,a5,966 # 23c6 <.Lline_table_start1+0x219b>
   14af8:	470d                	li	a4,3
   14afa:	853e                	mv	a0,a5
   14afc:	00000073          	ecall
   14b00:	4591                	li	a1,4
   14b02:	4711                	li	a4,4
   14b04:	853e                	mv	a0,a5
   14b06:	4601                	li	a2,0
   14b08:	4681                	li	a3,0
   14b0a:	00000073          	ecall
   14b0e:	50f6                	lw	ra,124(sp)
   14b10:	5466                	lw	s0,120(sp)
   14b12:	54d6                	lw	s1,116(sp)
   14b14:	6109                	addi	sp,sp,128
   14b16:	8082                	ret
   14b18:	8526                	mv	a0,s1
   14b1a:	4601                	li	a2,0
   14b1c:	4681                	li	a3,0
   14b1e:	4589                	li	a1,2
   14b20:	470d                	li	a4,3
   14b22:	00000073          	ecall
   14b26:	4589                	li	a1,2
   14b28:	470d                	li	a4,3
   14b2a:	8526                	mv	a0,s1
   14b2c:	4601                	li	a2,0
   14b2e:	4681                	li	a3,0
   14b30:	00000073          	ecall
   14b34:	00140513          	addi	a0,s0,1
   14b38:	008c                	addi	a1,sp,64
   14b3a:	03400613          	li	a2,52
   14b3e:	00006097          	auipc	ra,0x6
   14b42:	0d8080e7          	jalr	216(ra) # 1ac16 <memcpy>
   14b46:	8526                	mv	a0,s1
   14b48:	4601                	li	a2,0
   14b4a:	4681                	li	a3,0
   14b4c:	00040023          	sb	zero,0(s0)
   14b50:	4589                	li	a1,2
   14b52:	470d                	li	a4,3
   14b54:	00000073          	ecall
   14b58:	4591                	li	a1,4
   14b5a:	4711                	li	a4,4
   14b5c:	8526                	mv	a0,s1
   14b5e:	4601                	li	a2,0
   14b60:	4681                	li	a3,0
   14b62:	00000073          	ecall
   14b66:	b765                	j	14b0e <_ZN18complex_no_dynamic3app17h8e687e15a59e7c3bE+0xa4>

00014b68 <_ZN18complex_no_dynamic3app17h90e58e6ab91efd53E>:
   14b68:	7119                	addi	sp,sp,-128
   14b6a:	de86                	sw	ra,124(sp)
   14b6c:	dca2                	sw	s0,120(sp)
   14b6e:	daa6                	sw	s1,116(sp)
   14b70:	842a                	mv	s0,a0
   14b72:	00d10513          	addi	a0,sp,13
   14b76:	04400613          	li	a2,68
   14b7a:	00006097          	auipc	ra,0x6
   14b7e:	09c080e7          	jalr	156(ra) # 1ac16 <memcpy>
   14b82:	05110513          	addi	a0,sp,81
   14b86:	02300613          	li	a2,35
   14b8a:	4581                	li	a1,0
   14b8c:	00006097          	auipc	ra,0x6
   14b90:	01e080e7          	jalr	30(ra) # 1abaa <memset>
   14b94:	6505                	lui	a0,0x1
   14b96:	4599                	li	a1,6
   14b98:	00d10613          	addi	a2,sp,13
   14b9c:	04400693          	li	a3,68
   14ba0:	9bf50793          	addi	a5,a0,-1601 # 9bf <.Lline_table_start1+0x794>
   14ba4:	4711                	li	a4,4
   14ba6:	4489                	li	s1,2
   14ba8:	853e                	mv	a0,a5
   14baa:	00000073          	ecall
   14bae:	02950b63          	beq	a0,s1,14be4 <_ZN18complex_no_dynamic3app17h90e58e6ab91efd53E+0x7c>
   14bb2:	458d                	li	a1,3
   14bb4:	05110613          	addi	a2,sp,81
   14bb8:	02300693          	li	a3,35
   14bbc:	470d                	li	a4,3
   14bbe:	853e                	mv	a0,a5
   14bc0:	00000073          	ecall
   14bc4:	02950063          	beq	a0,s1,14be4 <_ZN18complex_no_dynamic3app17h90e58e6ab91efd53E+0x7c>
   14bc8:	6505                	lui	a0,0x1
   14bca:	4599                	li	a1,6
   14bcc:	460d                	li	a2,3
   14bce:	9bf50493          	addi	s1,a0,-1601 # 9bf <.Lline_table_start1+0x794>
   14bd2:	4709                	li	a4,2
   14bd4:	07f00793          	li	a5,127
   14bd8:	8526                	mv	a0,s1
   14bda:	4681                	li	a3,0
   14bdc:	00000073          	ecall
   14be0:	02a7ed63          	bltu	a5,a0,14c1a <_ZN18complex_no_dynamic3app17h90e58e6ab91efd53E+0xb2>
   14be4:	872e                	mv	a4,a1
   14be6:	4601                	li	a2,0
   14be8:	4681                	li	a3,0
   14bea:	4505                	li	a0,1
   14bec:	6785                	lui	a5,0x1
   14bee:	458d                	li	a1,3
   14bf0:	00a40023          	sb	a0,0(s0)
   14bf4:	c058                	sw	a4,4(s0)
   14bf6:	9bf78793          	addi	a5,a5,-1601 # 9bf <.Lline_table_start1+0x794>
   14bfa:	470d                	li	a4,3
   14bfc:	853e                	mv	a0,a5
   14bfe:	00000073          	ecall
   14c02:	4599                	li	a1,6
   14c04:	4711                	li	a4,4
   14c06:	853e                	mv	a0,a5
   14c08:	4601                	li	a2,0
   14c0a:	4681                	li	a3,0
   14c0c:	00000073          	ecall
   14c10:	50f6                	lw	ra,124(sp)
   14c12:	5466                	lw	s0,120(sp)
   14c14:	54d6                	lw	s1,116(sp)
   14c16:	6109                	addi	sp,sp,128
   14c18:	8082                	ret
   14c1a:	8526                	mv	a0,s1
   14c1c:	4601                	li	a2,0
   14c1e:	4681                	li	a3,0
   14c20:	458d                	li	a1,3
   14c22:	470d                	li	a4,3
   14c24:	00000073          	ecall
   14c28:	458d                	li	a1,3
   14c2a:	470d                	li	a4,3
   14c2c:	8526                	mv	a0,s1
   14c2e:	4601                	li	a2,0
   14c30:	4681                	li	a3,0
   14c32:	00000073          	ecall
   14c36:	00140513          	addi	a0,s0,1
   14c3a:	05110593          	addi	a1,sp,81
   14c3e:	02300613          	li	a2,35
   14c42:	00006097          	auipc	ra,0x6
   14c46:	fd4080e7          	jalr	-44(ra) # 1ac16 <memcpy>
   14c4a:	8526                	mv	a0,s1
   14c4c:	4601                	li	a2,0
   14c4e:	4681                	li	a3,0
   14c50:	00040023          	sb	zero,0(s0)
   14c54:	458d                	li	a1,3
   14c56:	470d                	li	a4,3
   14c58:	00000073          	ecall
   14c5c:	4599                	li	a1,6
   14c5e:	4711                	li	a4,4
   14c60:	8526                	mv	a0,s1
   14c62:	4601                	li	a2,0
   14c64:	4681                	li	a3,0
   14c66:	00000073          	ecall
   14c6a:	b75d                	j	14c10 <_ZN18complex_no_dynamic3app17h90e58e6ab91efd53E+0xa8>

00014c6c <_ZN18complex_no_dynamic3app17h93e9a706e91d2b04E>:
   14c6c:	711d                	addi	sp,sp,-96
   14c6e:	ce86                	sw	ra,92(sp)
   14c70:	cca2                	sw	s0,88(sp)
   14c72:	caa6                	sw	s1,84(sp)
   14c74:	842a                	mv	s0,a0
   14c76:	00910513          	addi	a0,sp,9
   14c7a:	02100613          	li	a2,33
   14c7e:	00006097          	auipc	ra,0x6
   14c82:	f98080e7          	jalr	-104(ra) # 1ac16 <memcpy>
   14c86:	02a10513          	addi	a0,sp,42
   14c8a:	02a00613          	li	a2,42
   14c8e:	4581                	li	a1,0
   14c90:	00006097          	auipc	ra,0x6
   14c94:	f1a080e7          	jalr	-230(ra) # 1abaa <memset>
   14c98:	6505                	lui	a0,0x1
   14c9a:	4585                	li	a1,1
   14c9c:	00910613          	addi	a2,sp,9
   14ca0:	02100693          	li	a3,33
   14ca4:	5f350793          	addi	a5,a0,1523 # 15f3 <.Lline_table_start1+0x13c8>
   14ca8:	4711                	li	a4,4
   14caa:	4489                	li	s1,2
   14cac:	853e                	mv	a0,a5
   14cae:	00000073          	ecall
   14cb2:	02950b63          	beq	a0,s1,14ce8 <_ZN18complex_no_dynamic3app17h93e9a706e91d2b04E+0x7c>
   14cb6:	458d                	li	a1,3
   14cb8:	02a10613          	addi	a2,sp,42
   14cbc:	02a00693          	li	a3,42
   14cc0:	470d                	li	a4,3
   14cc2:	853e                	mv	a0,a5
   14cc4:	00000073          	ecall
   14cc8:	02950063          	beq	a0,s1,14ce8 <_ZN18complex_no_dynamic3app17h93e9a706e91d2b04E+0x7c>
   14ccc:	6505                	lui	a0,0x1
   14cce:	4585                	li	a1,1
   14cd0:	460d                	li	a2,3
   14cd2:	5f350493          	addi	s1,a0,1523 # 15f3 <.Lline_table_start1+0x13c8>
   14cd6:	4709                	li	a4,2
   14cd8:	07f00793          	li	a5,127
   14cdc:	8526                	mv	a0,s1
   14cde:	4681                	li	a3,0
   14ce0:	00000073          	ecall
   14ce4:	02a7ed63          	bltu	a5,a0,14d1e <_ZN18complex_no_dynamic3app17h93e9a706e91d2b04E+0xb2>
   14ce8:	872e                	mv	a4,a1
   14cea:	4601                	li	a2,0
   14cec:	4681                	li	a3,0
   14cee:	4505                	li	a0,1
   14cf0:	6785                	lui	a5,0x1
   14cf2:	458d                	li	a1,3
   14cf4:	00a40023          	sb	a0,0(s0)
   14cf8:	c058                	sw	a4,4(s0)
   14cfa:	5f378793          	addi	a5,a5,1523 # 15f3 <.Lline_table_start1+0x13c8>
   14cfe:	470d                	li	a4,3
   14d00:	853e                	mv	a0,a5
   14d02:	00000073          	ecall
   14d06:	4585                	li	a1,1
   14d08:	4711                	li	a4,4
   14d0a:	853e                	mv	a0,a5
   14d0c:	4601                	li	a2,0
   14d0e:	4681                	li	a3,0
   14d10:	00000073          	ecall
   14d14:	40f6                	lw	ra,92(sp)
   14d16:	4466                	lw	s0,88(sp)
   14d18:	44d6                	lw	s1,84(sp)
   14d1a:	6125                	addi	sp,sp,96
   14d1c:	8082                	ret
   14d1e:	8526                	mv	a0,s1
   14d20:	4601                	li	a2,0
   14d22:	4681                	li	a3,0
   14d24:	458d                	li	a1,3
   14d26:	470d                	li	a4,3
   14d28:	00000073          	ecall
   14d2c:	458d                	li	a1,3
   14d2e:	470d                	li	a4,3
   14d30:	8526                	mv	a0,s1
   14d32:	4601                	li	a2,0
   14d34:	4681                	li	a3,0
   14d36:	00000073          	ecall
   14d3a:	00140513          	addi	a0,s0,1
   14d3e:	02a10593          	addi	a1,sp,42
   14d42:	02a00613          	li	a2,42
   14d46:	00006097          	auipc	ra,0x6
   14d4a:	ed0080e7          	jalr	-304(ra) # 1ac16 <memcpy>
   14d4e:	8526                	mv	a0,s1
   14d50:	4601                	li	a2,0
   14d52:	4681                	li	a3,0
   14d54:	00040023          	sb	zero,0(s0)
   14d58:	458d                	li	a1,3
   14d5a:	470d                	li	a4,3
   14d5c:	00000073          	ecall
   14d60:	4585                	li	a1,1
   14d62:	4711                	li	a4,4
   14d64:	8526                	mv	a0,s1
   14d66:	4601                	li	a2,0
   14d68:	4681                	li	a3,0
   14d6a:	00000073          	ecall
   14d6e:	b75d                	j	14d14 <_ZN18complex_no_dynamic3app17h93e9a706e91d2b04E+0xa8>

00014d70 <_ZN18complex_no_dynamic3app17h961f08cae24e3187E>:
   14d70:	715d                	addi	sp,sp,-80
   14d72:	c686                	sw	ra,76(sp)
   14d74:	c4a2                	sw	s0,72(sp)
   14d76:	c2a6                	sw	s1,68(sp)
   14d78:	842a                	mv	s0,a0
   14d7a:	00710513          	addi	a0,sp,7
   14d7e:	02500613          	li	a2,37
   14d82:	00006097          	auipc	ra,0x6
   14d86:	e94080e7          	jalr	-364(ra) # 1ac16 <memcpy>
   14d8a:	1068                	addi	a0,sp,44
   14d8c:	4661                	li	a2,24
   14d8e:	4581                	li	a1,0
   14d90:	00006097          	auipc	ra,0x6
   14d94:	e1a080e7          	jalr	-486(ra) # 1abaa <memset>
   14d98:	6505                	lui	a0,0x1
   14d9a:	45a5                	li	a1,9
   14d9c:	00710613          	addi	a2,sp,7
   14da0:	02500693          	li	a3,37
   14da4:	a7050793          	addi	a5,a0,-1424 # a70 <.Lline_table_start1+0x845>
   14da8:	4711                	li	a4,4
   14daa:	4489                	li	s1,2
   14dac:	853e                	mv	a0,a5
   14dae:	00000073          	ecall
   14db2:	02950963          	beq	a0,s1,14de4 <_ZN18complex_no_dynamic3app17h961f08cae24e3187E+0x74>
   14db6:	45a1                	li	a1,8
   14db8:	1070                	addi	a2,sp,44
   14dba:	46e1                	li	a3,24
   14dbc:	470d                	li	a4,3
   14dbe:	853e                	mv	a0,a5
   14dc0:	00000073          	ecall
   14dc4:	02950063          	beq	a0,s1,14de4 <_ZN18complex_no_dynamic3app17h961f08cae24e3187E+0x74>
   14dc8:	6505                	lui	a0,0x1
   14dca:	45a5                	li	a1,9
   14dcc:	4621                	li	a2,8
   14dce:	a7050493          	addi	s1,a0,-1424 # a70 <.Lline_table_start1+0x845>
   14dd2:	4709                	li	a4,2
   14dd4:	07f00793          	li	a5,127
   14dd8:	8526                	mv	a0,s1
   14dda:	4681                	li	a3,0
   14ddc:	00000073          	ecall
   14de0:	02a7ed63          	bltu	a5,a0,14e1a <_ZN18complex_no_dynamic3app17h961f08cae24e3187E+0xaa>
   14de4:	872e                	mv	a4,a1
   14de6:	4601                	li	a2,0
   14de8:	4681                	li	a3,0
   14dea:	4505                	li	a0,1
   14dec:	6785                	lui	a5,0x1
   14dee:	45a1                	li	a1,8
   14df0:	00a40023          	sb	a0,0(s0)
   14df4:	c058                	sw	a4,4(s0)
   14df6:	a7078793          	addi	a5,a5,-1424 # a70 <.Lline_table_start1+0x845>
   14dfa:	470d                	li	a4,3
   14dfc:	853e                	mv	a0,a5
   14dfe:	00000073          	ecall
   14e02:	45a5                	li	a1,9
   14e04:	4711                	li	a4,4
   14e06:	853e                	mv	a0,a5
   14e08:	4601                	li	a2,0
   14e0a:	4681                	li	a3,0
   14e0c:	00000073          	ecall
   14e10:	40b6                	lw	ra,76(sp)
   14e12:	4426                	lw	s0,72(sp)
   14e14:	4496                	lw	s1,68(sp)
   14e16:	6161                	addi	sp,sp,80
   14e18:	8082                	ret
   14e1a:	8526                	mv	a0,s1
   14e1c:	4601                	li	a2,0
   14e1e:	4681                	li	a3,0
   14e20:	45a1                	li	a1,8
   14e22:	470d                	li	a4,3
   14e24:	00000073          	ecall
   14e28:	45a1                	li	a1,8
   14e2a:	470d                	li	a4,3
   14e2c:	8526                	mv	a0,s1
   14e2e:	4601                	li	a2,0
   14e30:	4681                	li	a3,0
   14e32:	00000073          	ecall
   14e36:	00140513          	addi	a0,s0,1
   14e3a:	106c                	addi	a1,sp,44
   14e3c:	4661                	li	a2,24
   14e3e:	00006097          	auipc	ra,0x6
   14e42:	dd8080e7          	jalr	-552(ra) # 1ac16 <memcpy>
   14e46:	8526                	mv	a0,s1
   14e48:	4601                	li	a2,0
   14e4a:	4681                	li	a3,0
   14e4c:	00040023          	sb	zero,0(s0)
   14e50:	45a1                	li	a1,8
   14e52:	470d                	li	a4,3
   14e54:	00000073          	ecall
   14e58:	45a5                	li	a1,9
   14e5a:	4711                	li	a4,4
   14e5c:	8526                	mv	a0,s1
   14e5e:	4601                	li	a2,0
   14e60:	4681                	li	a3,0
   14e62:	00000073          	ecall
   14e66:	b76d                	j	14e10 <_ZN18complex_no_dynamic3app17h961f08cae24e3187E+0xa0>

00014e68 <_ZN18complex_no_dynamic3app17h96568b94bb73b3f9E>:
   14e68:	7171                	addi	sp,sp,-176
   14e6a:	d706                	sw	ra,172(sp)
   14e6c:	d522                	sw	s0,168(sp)
   14e6e:	d326                	sw	s1,164(sp)
   14e70:	842a                	mv	s0,a0
   14e72:	0048                	addi	a0,sp,4
   14e74:	05100613          	li	a2,81
   14e78:	00006097          	auipc	ra,0x6
   14e7c:	d9e080e7          	jalr	-610(ra) # 1ac16 <memcpy>
   14e80:	05510513          	addi	a0,sp,85
   14e84:	04f00613          	li	a2,79
   14e88:	4581                	li	a1,0
   14e8a:	00006097          	auipc	ra,0x6
   14e8e:	d20080e7          	jalr	-736(ra) # 1abaa <memset>
   14e92:	6505                	lui	a0,0x1
   14e94:	4489                	li	s1,2
   14e96:	4589                	li	a1,2
   14e98:	0050                	addi	a2,sp,4
   14e9a:	e1650793          	addi	a5,a0,-490 # e16 <.Lline_table_start1+0xbeb>
   14e9e:	05100693          	li	a3,81
   14ea2:	4711                	li	a4,4
   14ea4:	853e                	mv	a0,a5
   14ea6:	00000073          	ecall
   14eaa:	02950b63          	beq	a0,s1,14ee0 <_ZN18complex_no_dynamic3app17h96568b94bb73b3f9E+0x78>
   14eae:	4591                	li	a1,4
   14eb0:	05510613          	addi	a2,sp,85
   14eb4:	04f00693          	li	a3,79
   14eb8:	470d                	li	a4,3
   14eba:	853e                	mv	a0,a5
   14ebc:	00000073          	ecall
   14ec0:	02950063          	beq	a0,s1,14ee0 <_ZN18complex_no_dynamic3app17h96568b94bb73b3f9E+0x78>
   14ec4:	6505                	lui	a0,0x1
   14ec6:	4589                	li	a1,2
   14ec8:	4611                	li	a2,4
   14eca:	e1650493          	addi	s1,a0,-490 # e16 <.Lline_table_start1+0xbeb>
   14ece:	4709                	li	a4,2
   14ed0:	07f00793          	li	a5,127
   14ed4:	8526                	mv	a0,s1
   14ed6:	4681                	li	a3,0
   14ed8:	00000073          	ecall
   14edc:	02a7ed63          	bltu	a5,a0,14f16 <_ZN18complex_no_dynamic3app17h96568b94bb73b3f9E+0xae>
   14ee0:	872e                	mv	a4,a1
   14ee2:	4601                	li	a2,0
   14ee4:	4681                	li	a3,0
   14ee6:	4505                	li	a0,1
   14ee8:	6785                	lui	a5,0x1
   14eea:	4591                	li	a1,4
   14eec:	00a40023          	sb	a0,0(s0)
   14ef0:	c058                	sw	a4,4(s0)
   14ef2:	e1678793          	addi	a5,a5,-490 # e16 <.Lline_table_start1+0xbeb>
   14ef6:	470d                	li	a4,3
   14ef8:	853e                	mv	a0,a5
   14efa:	00000073          	ecall
   14efe:	4589                	li	a1,2
   14f00:	4711                	li	a4,4
   14f02:	853e                	mv	a0,a5
   14f04:	4601                	li	a2,0
   14f06:	4681                	li	a3,0
   14f08:	00000073          	ecall
   14f0c:	50ba                	lw	ra,172(sp)
   14f0e:	542a                	lw	s0,168(sp)
   14f10:	549a                	lw	s1,164(sp)
   14f12:	614d                	addi	sp,sp,176
   14f14:	8082                	ret
   14f16:	8526                	mv	a0,s1
   14f18:	4601                	li	a2,0
   14f1a:	4681                	li	a3,0
   14f1c:	4591                	li	a1,4
   14f1e:	470d                	li	a4,3
   14f20:	00000073          	ecall
   14f24:	4591                	li	a1,4
   14f26:	470d                	li	a4,3
   14f28:	8526                	mv	a0,s1
   14f2a:	4601                	li	a2,0
   14f2c:	4681                	li	a3,0
   14f2e:	00000073          	ecall
   14f32:	00140513          	addi	a0,s0,1
   14f36:	05510593          	addi	a1,sp,85
   14f3a:	04f00613          	li	a2,79
   14f3e:	00006097          	auipc	ra,0x6
   14f42:	cd8080e7          	jalr	-808(ra) # 1ac16 <memcpy>
   14f46:	8526                	mv	a0,s1
   14f48:	4601                	li	a2,0
   14f4a:	4681                	li	a3,0
   14f4c:	00040023          	sb	zero,0(s0)
   14f50:	4591                	li	a1,4
   14f52:	470d                	li	a4,3
   14f54:	00000073          	ecall
   14f58:	4589                	li	a1,2
   14f5a:	4711                	li	a4,4
   14f5c:	8526                	mv	a0,s1
   14f5e:	4601                	li	a2,0
   14f60:	4681                	li	a3,0
   14f62:	00000073          	ecall
   14f66:	b75d                	j	14f0c <_ZN18complex_no_dynamic3app17h96568b94bb73b3f9E+0xa4>

00014f68 <_ZN18complex_no_dynamic3app17h9d356e8b2f7e4490E>:
   14f68:	711d                	addi	sp,sp,-96
   14f6a:	ce86                	sw	ra,92(sp)
   14f6c:	cca2                	sw	s0,88(sp)
   14f6e:	caa6                	sw	s1,84(sp)
   14f70:	842a                	mv	s0,a0
   14f72:	00510513          	addi	a0,sp,5
   14f76:	02500613          	li	a2,37
   14f7a:	00006097          	auipc	ra,0x6
   14f7e:	c9c080e7          	jalr	-868(ra) # 1ac16 <memcpy>
   14f82:	02a10513          	addi	a0,sp,42
   14f86:	02a00613          	li	a2,42
   14f8a:	4581                	li	a1,0
   14f8c:	00006097          	auipc	ra,0x6
   14f90:	c1e080e7          	jalr	-994(ra) # 1abaa <memset>
   14f94:	6505                	lui	a0,0x1
   14f96:	00510613          	addi	a2,sp,5
   14f9a:	02500693          	li	a3,37
   14f9e:	93c50793          	addi	a5,a0,-1732 # 93c <.Lline_table_start1+0x711>
   14fa2:	4711                	li	a4,4
   14fa4:	4489                	li	s1,2
   14fa6:	853e                	mv	a0,a5
   14fa8:	4581                	li	a1,0
   14faa:	00000073          	ecall
   14fae:	02950b63          	beq	a0,s1,14fe4 <_ZN18complex_no_dynamic3app17h9d356e8b2f7e4490E+0x7c>
   14fb2:	458d                	li	a1,3
   14fb4:	02a10613          	addi	a2,sp,42
   14fb8:	02a00693          	li	a3,42
   14fbc:	470d                	li	a4,3
   14fbe:	853e                	mv	a0,a5
   14fc0:	00000073          	ecall
   14fc4:	02950063          	beq	a0,s1,14fe4 <_ZN18complex_no_dynamic3app17h9d356e8b2f7e4490E+0x7c>
   14fc8:	6505                	lui	a0,0x1
   14fca:	460d                	li	a2,3
   14fcc:	93c50493          	addi	s1,a0,-1732 # 93c <.Lline_table_start1+0x711>
   14fd0:	4709                	li	a4,2
   14fd2:	07f00793          	li	a5,127
   14fd6:	8526                	mv	a0,s1
   14fd8:	4581                	li	a1,0
   14fda:	4681                	li	a3,0
   14fdc:	00000073          	ecall
   14fe0:	02a7ec63          	bltu	a5,a0,15018 <_ZN18complex_no_dynamic3app17h9d356e8b2f7e4490E+0xb0>
   14fe4:	4505                	li	a0,1
   14fe6:	6605                	lui	a2,0x1
   14fe8:	00a40023          	sb	a0,0(s0)
   14fec:	c04c                	sw	a1,4(s0)
   14fee:	93c60793          	addi	a5,a2,-1732 # 93c <.Lline_table_start1+0x711>
   14ff2:	458d                	li	a1,3
   14ff4:	470d                	li	a4,3
   14ff6:	853e                	mv	a0,a5
   14ff8:	4601                	li	a2,0
   14ffa:	4681                	li	a3,0
   14ffc:	00000073          	ecall
   15000:	4711                	li	a4,4
   15002:	853e                	mv	a0,a5
   15004:	4581                	li	a1,0
   15006:	4601                	li	a2,0
   15008:	4681                	li	a3,0
   1500a:	00000073          	ecall
   1500e:	40f6                	lw	ra,92(sp)
   15010:	4466                	lw	s0,88(sp)
   15012:	44d6                	lw	s1,84(sp)
   15014:	6125                	addi	sp,sp,96
   15016:	8082                	ret
   15018:	8526                	mv	a0,s1
   1501a:	4601                	li	a2,0
   1501c:	4681                	li	a3,0
   1501e:	458d                	li	a1,3
   15020:	470d                	li	a4,3
   15022:	00000073          	ecall
   15026:	458d                	li	a1,3
   15028:	470d                	li	a4,3
   1502a:	8526                	mv	a0,s1
   1502c:	4601                	li	a2,0
   1502e:	4681                	li	a3,0
   15030:	00000073          	ecall
   15034:	00140513          	addi	a0,s0,1
   15038:	02a10593          	addi	a1,sp,42
   1503c:	02a00613          	li	a2,42
   15040:	00006097          	auipc	ra,0x6
   15044:	bd6080e7          	jalr	-1066(ra) # 1ac16 <memcpy>
   15048:	00040023          	sb	zero,0(s0)
   1504c:	458d                	li	a1,3
   1504e:	470d                	li	a4,3
   15050:	8526                	mv	a0,s1
   15052:	4601                	li	a2,0
   15054:	4681                	li	a3,0
   15056:	00000073          	ecall
   1505a:	4711                	li	a4,4
   1505c:	8526                	mv	a0,s1
   1505e:	4581                	li	a1,0
   15060:	4601                	li	a2,0
   15062:	4681                	li	a3,0
   15064:	00000073          	ecall
   15068:	b75d                	j	1500e <_ZN18complex_no_dynamic3app17h9d356e8b2f7e4490E+0xa6>

0001506a <_ZN18complex_no_dynamic3app17h9dade551e84a6b6eE>:
   1506a:	7171                	addi	sp,sp,-176
   1506c:	d706                	sw	ra,172(sp)
   1506e:	d522                	sw	s0,168(sp)
   15070:	d326                	sw	s1,164(sp)
   15072:	842a                	mv	s0,a0
   15074:	00510513          	addi	a0,sp,5
   15078:	05600613          	li	a2,86
   1507c:	00006097          	auipc	ra,0x6
   15080:	b9a080e7          	jalr	-1126(ra) # 1ac16 <memcpy>
   15084:	05b10513          	addi	a0,sp,91
   15088:	04900613          	li	a2,73
   1508c:	4581                	li	a1,0
   1508e:	00006097          	auipc	ra,0x6
   15092:	b1c080e7          	jalr	-1252(ra) # 1abaa <memset>
   15096:	6509                	lui	a0,0x2
   15098:	4599                	li	a1,6
   1509a:	00510613          	addi	a2,sp,5
   1509e:	05600693          	li	a3,86
   150a2:	c6b50793          	addi	a5,a0,-917 # 1c6b <.Lline_table_start1+0x1a40>
   150a6:	4711                	li	a4,4
   150a8:	4489                	li	s1,2
   150aa:	853e                	mv	a0,a5
   150ac:	00000073          	ecall
   150b0:	02950b63          	beq	a0,s1,150e6 <_ZN18complex_no_dynamic3app17h9dade551e84a6b6eE+0x7c>
   150b4:	4599                	li	a1,6
   150b6:	05b10613          	addi	a2,sp,91
   150ba:	04900693          	li	a3,73
   150be:	470d                	li	a4,3
   150c0:	853e                	mv	a0,a5
   150c2:	00000073          	ecall
   150c6:	02950063          	beq	a0,s1,150e6 <_ZN18complex_no_dynamic3app17h9dade551e84a6b6eE+0x7c>
   150ca:	6509                	lui	a0,0x2
   150cc:	4599                	li	a1,6
   150ce:	4619                	li	a2,6
   150d0:	c6b50493          	addi	s1,a0,-917 # 1c6b <.Lline_table_start1+0x1a40>
   150d4:	4709                	li	a4,2
   150d6:	07f00793          	li	a5,127
   150da:	8526                	mv	a0,s1
   150dc:	4681                	li	a3,0
   150de:	00000073          	ecall
   150e2:	02a7ed63          	bltu	a5,a0,1511c <_ZN18complex_no_dynamic3app17h9dade551e84a6b6eE+0xb2>
   150e6:	872e                	mv	a4,a1
   150e8:	4601                	li	a2,0
   150ea:	4681                	li	a3,0
   150ec:	4505                	li	a0,1
   150ee:	6789                	lui	a5,0x2
   150f0:	4599                	li	a1,6
   150f2:	00a40023          	sb	a0,0(s0)
   150f6:	c058                	sw	a4,4(s0)
   150f8:	c6b78793          	addi	a5,a5,-917 # 1c6b <.Lline_table_start1+0x1a40>
   150fc:	470d                	li	a4,3
   150fe:	853e                	mv	a0,a5
   15100:	00000073          	ecall
   15104:	4599                	li	a1,6
   15106:	4711                	li	a4,4
   15108:	853e                	mv	a0,a5
   1510a:	4601                	li	a2,0
   1510c:	4681                	li	a3,0
   1510e:	00000073          	ecall
   15112:	50ba                	lw	ra,172(sp)
   15114:	542a                	lw	s0,168(sp)
   15116:	549a                	lw	s1,164(sp)
   15118:	614d                	addi	sp,sp,176
   1511a:	8082                	ret
   1511c:	8526                	mv	a0,s1
   1511e:	4601                	li	a2,0
   15120:	4681                	li	a3,0
   15122:	4599                	li	a1,6
   15124:	470d                	li	a4,3
   15126:	00000073          	ecall
   1512a:	4599                	li	a1,6
   1512c:	470d                	li	a4,3
   1512e:	8526                	mv	a0,s1
   15130:	4601                	li	a2,0
   15132:	4681                	li	a3,0
   15134:	00000073          	ecall
   15138:	00140513          	addi	a0,s0,1
   1513c:	05b10593          	addi	a1,sp,91
   15140:	04900613          	li	a2,73
   15144:	00006097          	auipc	ra,0x6
   15148:	ad2080e7          	jalr	-1326(ra) # 1ac16 <memcpy>
   1514c:	8526                	mv	a0,s1
   1514e:	4601                	li	a2,0
   15150:	4681                	li	a3,0
   15152:	00040023          	sb	zero,0(s0)
   15156:	4599                	li	a1,6
   15158:	470d                	li	a4,3
   1515a:	00000073          	ecall
   1515e:	4599                	li	a1,6
   15160:	4711                	li	a4,4
   15162:	8526                	mv	a0,s1
   15164:	4601                	li	a2,0
   15166:	4681                	li	a3,0
   15168:	00000073          	ecall
   1516c:	b75d                	j	15112 <_ZN18complex_no_dynamic3app17h9dade551e84a6b6eE+0xa8>

0001516e <_ZN18complex_no_dynamic3app17ha2d6e718333e3d85E>:
   1516e:	7159                	addi	sp,sp,-112
   15170:	d686                	sw	ra,108(sp)
   15172:	d4a2                	sw	s0,104(sp)
   15174:	d2a6                	sw	s1,100(sp)
   15176:	842a                	mv	s0,a0
   15178:	850a                	mv	a0,sp
   1517a:	03200613          	li	a2,50
   1517e:	00006097          	auipc	ra,0x6
   15182:	a98080e7          	jalr	-1384(ra) # 1ac16 <memcpy>
   15186:	03210513          	addi	a0,sp,50
   1518a:	03200613          	li	a2,50
   1518e:	4581                	li	a1,0
   15190:	00006097          	auipc	ra,0x6
   15194:	a1a080e7          	jalr	-1510(ra) # 1abaa <memset>
   15198:	6509                	lui	a0,0x2
   1519a:	458d                	li	a1,3
   1519c:	860a                	mv	a2,sp
   1519e:	03200693          	li	a3,50
   151a2:	f0750793          	addi	a5,a0,-249 # 1f07 <.Lline_table_start1+0x1cdc>
   151a6:	4711                	li	a4,4
   151a8:	4489                	li	s1,2
   151aa:	853e                	mv	a0,a5
   151ac:	00000073          	ecall
   151b0:	02950b63          	beq	a0,s1,151e6 <_ZN18complex_no_dynamic3app17ha2d6e718333e3d85E+0x78>
   151b4:	4585                	li	a1,1
   151b6:	03210613          	addi	a2,sp,50
   151ba:	03200693          	li	a3,50
   151be:	470d                	li	a4,3
   151c0:	853e                	mv	a0,a5
   151c2:	00000073          	ecall
   151c6:	02950063          	beq	a0,s1,151e6 <_ZN18complex_no_dynamic3app17ha2d6e718333e3d85E+0x78>
   151ca:	6509                	lui	a0,0x2
   151cc:	458d                	li	a1,3
   151ce:	4605                	li	a2,1
   151d0:	f0750493          	addi	s1,a0,-249 # 1f07 <.Lline_table_start1+0x1cdc>
   151d4:	4709                	li	a4,2
   151d6:	07f00793          	li	a5,127
   151da:	8526                	mv	a0,s1
   151dc:	4681                	li	a3,0
   151de:	00000073          	ecall
   151e2:	02a7ed63          	bltu	a5,a0,1521c <_ZN18complex_no_dynamic3app17ha2d6e718333e3d85E+0xae>
   151e6:	872e                	mv	a4,a1
   151e8:	4601                	li	a2,0
   151ea:	4681                	li	a3,0
   151ec:	4505                	li	a0,1
   151ee:	6789                	lui	a5,0x2
   151f0:	4585                	li	a1,1
   151f2:	00a40023          	sb	a0,0(s0)
   151f6:	c058                	sw	a4,4(s0)
   151f8:	f0778793          	addi	a5,a5,-249 # 1f07 <.Lline_table_start1+0x1cdc>
   151fc:	470d                	li	a4,3
   151fe:	853e                	mv	a0,a5
   15200:	00000073          	ecall
   15204:	458d                	li	a1,3
   15206:	4711                	li	a4,4
   15208:	853e                	mv	a0,a5
   1520a:	4601                	li	a2,0
   1520c:	4681                	li	a3,0
   1520e:	00000073          	ecall
   15212:	50b6                	lw	ra,108(sp)
   15214:	5426                	lw	s0,104(sp)
   15216:	5496                	lw	s1,100(sp)
   15218:	6165                	addi	sp,sp,112
   1521a:	8082                	ret
   1521c:	8526                	mv	a0,s1
   1521e:	4601                	li	a2,0
   15220:	4681                	li	a3,0
   15222:	4585                	li	a1,1
   15224:	470d                	li	a4,3
   15226:	00000073          	ecall
   1522a:	4585                	li	a1,1
   1522c:	470d                	li	a4,3
   1522e:	8526                	mv	a0,s1
   15230:	4601                	li	a2,0
   15232:	4681                	li	a3,0
   15234:	00000073          	ecall
   15238:	00140513          	addi	a0,s0,1
   1523c:	03210593          	addi	a1,sp,50
   15240:	03200613          	li	a2,50
   15244:	00006097          	auipc	ra,0x6
   15248:	9d2080e7          	jalr	-1582(ra) # 1ac16 <memcpy>
   1524c:	8526                	mv	a0,s1
   1524e:	4601                	li	a2,0
   15250:	4681                	li	a3,0
   15252:	00040023          	sb	zero,0(s0)
   15256:	4585                	li	a1,1
   15258:	470d                	li	a4,3
   1525a:	00000073          	ecall
   1525e:	458d                	li	a1,3
   15260:	4711                	li	a4,4
   15262:	8526                	mv	a0,s1
   15264:	4601                	li	a2,0
   15266:	4681                	li	a3,0
   15268:	00000073          	ecall
   1526c:	b75d                	j	15212 <_ZN18complex_no_dynamic3app17ha2d6e718333e3d85E+0xa4>

0001526e <_ZN18complex_no_dynamic3app17haab50eca2553a0fcE>:
   1526e:	7119                	addi	sp,sp,-128
   15270:	de86                	sw	ra,124(sp)
   15272:	dca2                	sw	s0,120(sp)
   15274:	daa6                	sw	s1,116(sp)
   15276:	842a                	mv	s0,a0
   15278:	0068                	addi	a0,sp,12
   1527a:	03c00613          	li	a2,60
   1527e:	00006097          	auipc	ra,0x6
   15282:	998080e7          	jalr	-1640(ra) # 1ac16 <memcpy>
   15286:	00a8                	addi	a0,sp,72
   15288:	02c00613          	li	a2,44
   1528c:	4581                	li	a1,0
   1528e:	00006097          	auipc	ra,0x6
   15292:	91c080e7          	jalr	-1764(ra) # 1abaa <memset>
   15296:	6509                	lui	a0,0x2
   15298:	4595                	li	a1,5
   1529a:	0070                	addi	a2,sp,12
   1529c:	03c00693          	li	a3,60
   152a0:	eac50793          	addi	a5,a0,-340 # 1eac <.Lline_table_start1+0x1c81>
   152a4:	4711                	li	a4,4
   152a6:	4489                	li	s1,2
   152a8:	853e                	mv	a0,a5
   152aa:	00000073          	ecall
   152ae:	02950a63          	beq	a0,s1,152e2 <_ZN18complex_no_dynamic3app17haab50eca2553a0fcE+0x74>
   152b2:	459d                	li	a1,7
   152b4:	00b0                	addi	a2,sp,72
   152b6:	02c00693          	li	a3,44
   152ba:	470d                	li	a4,3
   152bc:	853e                	mv	a0,a5
   152be:	00000073          	ecall
   152c2:	02950063          	beq	a0,s1,152e2 <_ZN18complex_no_dynamic3app17haab50eca2553a0fcE+0x74>
   152c6:	6509                	lui	a0,0x2
   152c8:	4595                	li	a1,5
   152ca:	461d                	li	a2,7
   152cc:	eac50493          	addi	s1,a0,-340 # 1eac <.Lline_table_start1+0x1c81>
   152d0:	4709                	li	a4,2
   152d2:	07f00793          	li	a5,127
   152d6:	8526                	mv	a0,s1
   152d8:	4681                	li	a3,0
   152da:	00000073          	ecall
   152de:	02a7ed63          	bltu	a5,a0,15318 <_ZN18complex_no_dynamic3app17haab50eca2553a0fcE+0xaa>
   152e2:	872e                	mv	a4,a1
   152e4:	4601                	li	a2,0
   152e6:	4681                	li	a3,0
   152e8:	4505                	li	a0,1
   152ea:	6789                	lui	a5,0x2
   152ec:	459d                	li	a1,7
   152ee:	00a40023          	sb	a0,0(s0)
   152f2:	c058                	sw	a4,4(s0)
   152f4:	eac78793          	addi	a5,a5,-340 # 1eac <.Lline_table_start1+0x1c81>
   152f8:	470d                	li	a4,3
   152fa:	853e                	mv	a0,a5
   152fc:	00000073          	ecall
   15300:	4595                	li	a1,5
   15302:	4711                	li	a4,4
   15304:	853e                	mv	a0,a5
   15306:	4601                	li	a2,0
   15308:	4681                	li	a3,0
   1530a:	00000073          	ecall
   1530e:	50f6                	lw	ra,124(sp)
   15310:	5466                	lw	s0,120(sp)
   15312:	54d6                	lw	s1,116(sp)
   15314:	6109                	addi	sp,sp,128
   15316:	8082                	ret
   15318:	8526                	mv	a0,s1
   1531a:	4601                	li	a2,0
   1531c:	4681                	li	a3,0
   1531e:	459d                	li	a1,7
   15320:	470d                	li	a4,3
   15322:	00000073          	ecall
   15326:	459d                	li	a1,7
   15328:	470d                	li	a4,3
   1532a:	8526                	mv	a0,s1
   1532c:	4601                	li	a2,0
   1532e:	4681                	li	a3,0
   15330:	00000073          	ecall
   15334:	00140513          	addi	a0,s0,1
   15338:	00ac                	addi	a1,sp,72
   1533a:	02c00613          	li	a2,44
   1533e:	00006097          	auipc	ra,0x6
   15342:	8d8080e7          	jalr	-1832(ra) # 1ac16 <memcpy>
   15346:	8526                	mv	a0,s1
   15348:	4601                	li	a2,0
   1534a:	4681                	li	a3,0
   1534c:	00040023          	sb	zero,0(s0)
   15350:	459d                	li	a1,7
   15352:	470d                	li	a4,3
   15354:	00000073          	ecall
   15358:	4595                	li	a1,5
   1535a:	4711                	li	a4,4
   1535c:	8526                	mv	a0,s1
   1535e:	4601                	li	a2,0
   15360:	4681                	li	a3,0
   15362:	00000073          	ecall
   15366:	b765                	j	1530e <_ZN18complex_no_dynamic3app17haab50eca2553a0fcE+0xa0>

00015368 <_ZN18complex_no_dynamic3app17hae2efdc7f0522236E>:
   15368:	7175                	addi	sp,sp,-144
   1536a:	c706                	sw	ra,140(sp)
   1536c:	c522                	sw	s0,136(sp)
   1536e:	c326                	sw	s1,132(sp)
   15370:	842a                	mv	s0,a0
   15372:	00e10513          	addi	a0,sp,14
   15376:	02700613          	li	a2,39
   1537a:	00006097          	auipc	ra,0x6
   1537e:	89c080e7          	jalr	-1892(ra) # 1ac16 <memcpy>
   15382:	03510513          	addi	a0,sp,53
   15386:	04f00613          	li	a2,79
   1538a:	4581                	li	a1,0
   1538c:	00006097          	auipc	ra,0x6
   15390:	81e080e7          	jalr	-2018(ra) # 1abaa <memset>
   15394:	6505                	lui	a0,0x1
   15396:	45a5                	li	a1,9
   15398:	00e10613          	addi	a2,sp,14
   1539c:	02700693          	li	a3,39
   153a0:	b4c50793          	addi	a5,a0,-1204 # b4c <.Lline_table_start1+0x921>
   153a4:	4711                	li	a4,4
   153a6:	4489                	li	s1,2
   153a8:	853e                	mv	a0,a5
   153aa:	00000073          	ecall
   153ae:	02950b63          	beq	a0,s1,153e4 <_ZN18complex_no_dynamic3app17hae2efdc7f0522236E+0x7c>
   153b2:	03510613          	addi	a2,sp,53
   153b6:	04f00693          	li	a3,79
   153ba:	470d                	li	a4,3
   153bc:	853e                	mv	a0,a5
   153be:	4581                	li	a1,0
   153c0:	00000073          	ecall
   153c4:	02950063          	beq	a0,s1,153e4 <_ZN18complex_no_dynamic3app17hae2efdc7f0522236E+0x7c>
   153c8:	6505                	lui	a0,0x1
   153ca:	45a5                	li	a1,9
   153cc:	b4c50493          	addi	s1,a0,-1204 # b4c <.Lline_table_start1+0x921>
   153d0:	4709                	li	a4,2
   153d2:	07f00793          	li	a5,127
   153d6:	8526                	mv	a0,s1
   153d8:	4601                	li	a2,0
   153da:	4681                	li	a3,0
   153dc:	00000073          	ecall
   153e0:	02a7ed63          	bltu	a5,a0,1541a <_ZN18complex_no_dynamic3app17hae2efdc7f0522236E+0xb2>
   153e4:	872e                	mv	a4,a1
   153e6:	4581                	li	a1,0
   153e8:	4601                	li	a2,0
   153ea:	4681                	li	a3,0
   153ec:	4505                	li	a0,1
   153ee:	6785                	lui	a5,0x1
   153f0:	00a40023          	sb	a0,0(s0)
   153f4:	c058                	sw	a4,4(s0)
   153f6:	b4c78793          	addi	a5,a5,-1204 # b4c <.Lline_table_start1+0x921>
   153fa:	470d                	li	a4,3
   153fc:	853e                	mv	a0,a5
   153fe:	00000073          	ecall
   15402:	45a5                	li	a1,9
   15404:	4711                	li	a4,4
   15406:	853e                	mv	a0,a5
   15408:	4601                	li	a2,0
   1540a:	4681                	li	a3,0
   1540c:	00000073          	ecall
   15410:	40ba                	lw	ra,140(sp)
   15412:	442a                	lw	s0,136(sp)
   15414:	449a                	lw	s1,132(sp)
   15416:	6149                	addi	sp,sp,144
   15418:	8082                	ret
   1541a:	470d                	li	a4,3
   1541c:	8526                	mv	a0,s1
   1541e:	4581                	li	a1,0
   15420:	4601                	li	a2,0
   15422:	4681                	li	a3,0
   15424:	00000073          	ecall
   15428:	470d                	li	a4,3
   1542a:	8526                	mv	a0,s1
   1542c:	4581                	li	a1,0
   1542e:	4601                	li	a2,0
   15430:	4681                	li	a3,0
   15432:	00000073          	ecall
   15436:	00140513          	addi	a0,s0,1
   1543a:	03510593          	addi	a1,sp,53
   1543e:	04f00613          	li	a2,79
   15442:	00005097          	auipc	ra,0x5
   15446:	7d4080e7          	jalr	2004(ra) # 1ac16 <memcpy>
   1544a:	8526                	mv	a0,s1
   1544c:	4581                	li	a1,0
   1544e:	4601                	li	a2,0
   15450:	4681                	li	a3,0
   15452:	00040023          	sb	zero,0(s0)
   15456:	470d                	li	a4,3
   15458:	00000073          	ecall
   1545c:	45a5                	li	a1,9
   1545e:	4711                	li	a4,4
   15460:	8526                	mv	a0,s1
   15462:	4601                	li	a2,0
   15464:	4681                	li	a3,0
   15466:	00000073          	ecall
   1546a:	b75d                	j	15410 <_ZN18complex_no_dynamic3app17hae2efdc7f0522236E+0xa8>

0001546c <_ZN18complex_no_dynamic3app17haee193fb0f9d7f8bE>:
   1546c:	7179                	addi	sp,sp,-48
   1546e:	d606                	sw	ra,44(sp)
   15470:	d422                	sw	s0,40(sp)
   15472:	d226                	sw	s1,36(sp)
   15474:	842a                	mv	s0,a0
   15476:	00210513          	addi	a0,sp,2
   1547a:	463d                	li	a2,15
   1547c:	00005097          	auipc	ra,0x5
   15480:	79a080e7          	jalr	1946(ra) # 1ac16 <memcpy>
   15484:	01110513          	addi	a0,sp,17
   15488:	464d                	li	a2,19
   1548a:	4581                	li	a1,0
   1548c:	00005097          	auipc	ra,0x5
   15490:	71e080e7          	jalr	1822(ra) # 1abaa <memset>
   15494:	6509                	lui	a0,0x2
   15496:	458d                	li	a1,3
   15498:	00210613          	addi	a2,sp,2
   1549c:	46bd                	li	a3,15
   1549e:	e4b50793          	addi	a5,a0,-437 # 1e4b <.Lline_table_start1+0x1c20>
   154a2:	4711                	li	a4,4
   154a4:	4489                	li	s1,2
   154a6:	853e                	mv	a0,a5
   154a8:	00000073          	ecall
   154ac:	02950a63          	beq	a0,s1,154e0 <_ZN18complex_no_dynamic3app17haee193fb0f9d7f8bE+0x74>
   154b0:	01110613          	addi	a2,sp,17
   154b4:	46cd                	li	a3,19
   154b6:	470d                	li	a4,3
   154b8:	853e                	mv	a0,a5
   154ba:	4581                	li	a1,0
   154bc:	00000073          	ecall
   154c0:	02950063          	beq	a0,s1,154e0 <_ZN18complex_no_dynamic3app17haee193fb0f9d7f8bE+0x74>
   154c4:	6509                	lui	a0,0x2
   154c6:	458d                	li	a1,3
   154c8:	e4b50493          	addi	s1,a0,-437 # 1e4b <.Lline_table_start1+0x1c20>
   154cc:	4709                	li	a4,2
   154ce:	07f00793          	li	a5,127
   154d2:	8526                	mv	a0,s1
   154d4:	4601                	li	a2,0
   154d6:	4681                	li	a3,0
   154d8:	00000073          	ecall
   154dc:	02a7ed63          	bltu	a5,a0,15516 <_ZN18complex_no_dynamic3app17haee193fb0f9d7f8bE+0xaa>
   154e0:	872e                	mv	a4,a1
   154e2:	4581                	li	a1,0
   154e4:	4601                	li	a2,0
   154e6:	4681                	li	a3,0
   154e8:	4505                	li	a0,1
   154ea:	6789                	lui	a5,0x2
   154ec:	00a40023          	sb	a0,0(s0)
   154f0:	c058                	sw	a4,4(s0)
   154f2:	e4b78793          	addi	a5,a5,-437 # 1e4b <.Lline_table_start1+0x1c20>
   154f6:	470d                	li	a4,3
   154f8:	853e                	mv	a0,a5
   154fa:	00000073          	ecall
   154fe:	458d                	li	a1,3
   15500:	4711                	li	a4,4
   15502:	853e                	mv	a0,a5
   15504:	4601                	li	a2,0
   15506:	4681                	li	a3,0
   15508:	00000073          	ecall
   1550c:	50b2                	lw	ra,44(sp)
   1550e:	5422                	lw	s0,40(sp)
   15510:	5492                	lw	s1,36(sp)
   15512:	6145                	addi	sp,sp,48
   15514:	8082                	ret
   15516:	470d                	li	a4,3
   15518:	8526                	mv	a0,s1
   1551a:	4581                	li	a1,0
   1551c:	4601                	li	a2,0
   1551e:	4681                	li	a3,0
   15520:	00000073          	ecall
   15524:	470d                	li	a4,3
   15526:	8526                	mv	a0,s1
   15528:	4581                	li	a1,0
   1552a:	4601                	li	a2,0
   1552c:	4681                	li	a3,0
   1552e:	00000073          	ecall
   15532:	00140513          	addi	a0,s0,1
   15536:	01110593          	addi	a1,sp,17
   1553a:	464d                	li	a2,19
   1553c:	00005097          	auipc	ra,0x5
   15540:	6da080e7          	jalr	1754(ra) # 1ac16 <memcpy>
   15544:	8526                	mv	a0,s1
   15546:	4581                	li	a1,0
   15548:	4601                	li	a2,0
   1554a:	4681                	li	a3,0
   1554c:	00040023          	sb	zero,0(s0)
   15550:	470d                	li	a4,3
   15552:	00000073          	ecall
   15556:	458d                	li	a1,3
   15558:	4711                	li	a4,4
   1555a:	8526                	mv	a0,s1
   1555c:	4601                	li	a2,0
   1555e:	4681                	li	a3,0
   15560:	00000073          	ecall
   15564:	b765                	j	1550c <_ZN18complex_no_dynamic3app17haee193fb0f9d7f8bE+0xa0>

00015566 <_ZN18complex_no_dynamic3app17hb08578f55accbb9dE>:
   15566:	7159                	addi	sp,sp,-112
   15568:	d686                	sw	ra,108(sp)
   1556a:	d4a2                	sw	s0,104(sp)
   1556c:	842a                	mv	s0,a0
   1556e:	0068                	addi	a0,sp,12
   15570:	466d                	li	a2,27
   15572:	00005097          	auipc	ra,0x5
   15576:	6a4080e7          	jalr	1700(ra) # 1ac16 <memcpy>
   1557a:	02710513          	addi	a0,sp,39
   1557e:	04100613          	li	a2,65
   15582:	4581                	li	a1,0
   15584:	00005097          	auipc	ra,0x5
   15588:	626080e7          	jalr	1574(ra) # 1abaa <memset>
   1558c:	14000513          	li	a0,320
   15590:	45a1                	li	a1,8
   15592:	0070                	addi	a2,sp,12
   15594:	46ed                	li	a3,27
   15596:	4711                	li	a4,4
   15598:	4789                	li	a5,2
   1559a:	00000073          	ecall
   1559e:	02f50a63          	beq	a0,a5,155d2 <_ZN18complex_no_dynamic3app17hb08578f55accbb9dE+0x6c>
   155a2:	14000513          	li	a0,320
   155a6:	45a5                	li	a1,9
   155a8:	02710613          	addi	a2,sp,39
   155ac:	04100693          	li	a3,65
   155b0:	470d                	li	a4,3
   155b2:	00000073          	ecall
   155b6:	00f50e63          	beq	a0,a5,155d2 <_ZN18complex_no_dynamic3app17hb08578f55accbb9dE+0x6c>
   155ba:	14000513          	li	a0,320
   155be:	45a1                	li	a1,8
   155c0:	4625                	li	a2,9
   155c2:	4709                	li	a4,2
   155c4:	07f00793          	li	a5,127
   155c8:	4681                	li	a3,0
   155ca:	00000073          	ecall
   155ce:	02a7ea63          	bltu	a5,a0,15602 <_ZN18complex_no_dynamic3app17hb08578f55accbb9dE+0x9c>
   155d2:	4601                	li	a2,0
   155d4:	4681                	li	a3,0
   155d6:	4705                	li	a4,1
   155d8:	14000513          	li	a0,320
   155dc:	00e40023          	sb	a4,0(s0)
   155e0:	c04c                	sw	a1,4(s0)
   155e2:	45a5                	li	a1,9
   155e4:	470d                	li	a4,3
   155e6:	00000073          	ecall
   155ea:	14000513          	li	a0,320
   155ee:	45a1                	li	a1,8
   155f0:	4711                	li	a4,4
   155f2:	4601                	li	a2,0
   155f4:	4681                	li	a3,0
   155f6:	00000073          	ecall
   155fa:	50b6                	lw	ra,108(sp)
   155fc:	5426                	lw	s0,104(sp)
   155fe:	6165                	addi	sp,sp,112
   15600:	8082                	ret
   15602:	4601                	li	a2,0
   15604:	4681                	li	a3,0
   15606:	14000513          	li	a0,320
   1560a:	45a5                	li	a1,9
   1560c:	470d                	li	a4,3
   1560e:	00000073          	ecall
   15612:	14000513          	li	a0,320
   15616:	45a5                	li	a1,9
   15618:	470d                	li	a4,3
   1561a:	4601                	li	a2,0
   1561c:	4681                	li	a3,0
   1561e:	00000073          	ecall
   15622:	00140513          	addi	a0,s0,1
   15626:	02710593          	addi	a1,sp,39
   1562a:	04100613          	li	a2,65
   1562e:	00005097          	auipc	ra,0x5
   15632:	5e8080e7          	jalr	1512(ra) # 1ac16 <memcpy>
   15636:	4601                	li	a2,0
   15638:	4681                	li	a3,0
   1563a:	00040023          	sb	zero,0(s0)
   1563e:	14000513          	li	a0,320
   15642:	45a5                	li	a1,9
   15644:	470d                	li	a4,3
   15646:	00000073          	ecall
   1564a:	14000513          	li	a0,320
   1564e:	45a1                	li	a1,8
   15650:	4711                	li	a4,4
   15652:	4601                	li	a2,0
   15654:	4681                	li	a3,0
   15656:	00000073          	ecall
   1565a:	b745                	j	155fa <_ZN18complex_no_dynamic3app17hb08578f55accbb9dE+0x94>

0001565c <_ZN18complex_no_dynamic3app17hb485e515b8235f7cE>:
   1565c:	7119                	addi	sp,sp,-128
   1565e:	de86                	sw	ra,124(sp)
   15660:	dca2                	sw	s0,120(sp)
   15662:	842a                	mv	s0,a0
   15664:	0068                	addi	a0,sp,12
   15666:	03800613          	li	a2,56
   1566a:	00005097          	auipc	ra,0x5
   1566e:	5ac080e7          	jalr	1452(ra) # 1ac16 <memcpy>
   15672:	00c8                	addi	a0,sp,68
   15674:	03400613          	li	a2,52
   15678:	4581                	li	a1,0
   1567a:	00005097          	auipc	ra,0x5
   1567e:	530080e7          	jalr	1328(ra) # 1abaa <memset>
   15682:	12e00513          	li	a0,302
   15686:	45a1                	li	a1,8
   15688:	0070                	addi	a2,sp,12
   1568a:	03800693          	li	a3,56
   1568e:	4711                	li	a4,4
   15690:	4789                	li	a5,2
   15692:	00000073          	ecall
   15696:	02f50963          	beq	a0,a5,156c8 <_ZN18complex_no_dynamic3app17hb485e515b8235f7cE+0x6c>
   1569a:	12e00513          	li	a0,302
   1569e:	458d                	li	a1,3
   156a0:	00d0                	addi	a2,sp,68
   156a2:	03400693          	li	a3,52
   156a6:	470d                	li	a4,3
   156a8:	00000073          	ecall
   156ac:	00f50e63          	beq	a0,a5,156c8 <_ZN18complex_no_dynamic3app17hb485e515b8235f7cE+0x6c>
   156b0:	12e00513          	li	a0,302
   156b4:	45a1                	li	a1,8
   156b6:	460d                	li	a2,3
   156b8:	4709                	li	a4,2
   156ba:	07f00793          	li	a5,127
   156be:	4681                	li	a3,0
   156c0:	00000073          	ecall
   156c4:	02a7ea63          	bltu	a5,a0,156f8 <_ZN18complex_no_dynamic3app17hb485e515b8235f7cE+0x9c>
   156c8:	4601                	li	a2,0
   156ca:	4681                	li	a3,0
   156cc:	4705                	li	a4,1
   156ce:	12e00513          	li	a0,302
   156d2:	00e40023          	sb	a4,0(s0)
   156d6:	c04c                	sw	a1,4(s0)
   156d8:	458d                	li	a1,3
   156da:	470d                	li	a4,3
   156dc:	00000073          	ecall
   156e0:	12e00513          	li	a0,302
   156e4:	45a1                	li	a1,8
   156e6:	4711                	li	a4,4
   156e8:	4601                	li	a2,0
   156ea:	4681                	li	a3,0
   156ec:	00000073          	ecall
   156f0:	50f6                	lw	ra,124(sp)
   156f2:	5466                	lw	s0,120(sp)
   156f4:	6109                	addi	sp,sp,128
   156f6:	8082                	ret
   156f8:	4601                	li	a2,0
   156fa:	4681                	li	a3,0
   156fc:	12e00513          	li	a0,302
   15700:	458d                	li	a1,3
   15702:	470d                	li	a4,3
   15704:	00000073          	ecall
   15708:	12e00513          	li	a0,302
   1570c:	458d                	li	a1,3
   1570e:	470d                	li	a4,3
   15710:	4601                	li	a2,0
   15712:	4681                	li	a3,0
   15714:	00000073          	ecall
   15718:	00140513          	addi	a0,s0,1
   1571c:	00cc                	addi	a1,sp,68
   1571e:	03400613          	li	a2,52
   15722:	00005097          	auipc	ra,0x5
   15726:	4f4080e7          	jalr	1268(ra) # 1ac16 <memcpy>
   1572a:	4601                	li	a2,0
   1572c:	4681                	li	a3,0
   1572e:	00040023          	sb	zero,0(s0)
   15732:	12e00513          	li	a0,302
   15736:	458d                	li	a1,3
   15738:	470d                	li	a4,3
   1573a:	00000073          	ecall
   1573e:	12e00513          	li	a0,302
   15742:	45a1                	li	a1,8
   15744:	4711                	li	a4,4
   15746:	4601                	li	a2,0
   15748:	4681                	li	a3,0
   1574a:	00000073          	ecall
   1574e:	b74d                	j	156f0 <_ZN18complex_no_dynamic3app17hb485e515b8235f7cE+0x94>

00015750 <_ZN18complex_no_dynamic3app17hb529d497ff5de1c9E>:
   15750:	711d                	addi	sp,sp,-96
   15752:	ce86                	sw	ra,92(sp)
   15754:	cca2                	sw	s0,88(sp)
   15756:	842a                	mv	s0,a0
   15758:	00a10513          	addi	a0,sp,10
   1575c:	4661                	li	a2,24
   1575e:	00005097          	auipc	ra,0x5
   15762:	4b8080e7          	jalr	1208(ra) # 1ac16 <memcpy>
   15766:	02210513          	addi	a0,sp,34
   1576a:	03600613          	li	a2,54
   1576e:	4581                	li	a1,0
   15770:	00005097          	auipc	ra,0x5
   15774:	43a080e7          	jalr	1082(ra) # 1abaa <memset>
   15778:	0f300513          	li	a0,243
   1577c:	45a1                	li	a1,8
   1577e:	00a10613          	addi	a2,sp,10
   15782:	46e1                	li	a3,24
   15784:	4711                	li	a4,4
   15786:	4789                	li	a5,2
   15788:	00000073          	ecall
   1578c:	02f50a63          	beq	a0,a5,157c0 <_ZN18complex_no_dynamic3app17hb529d497ff5de1c9E+0x70>
   15790:	0f300513          	li	a0,243
   15794:	4591                	li	a1,4
   15796:	02210613          	addi	a2,sp,34
   1579a:	03600693          	li	a3,54
   1579e:	470d                	li	a4,3
   157a0:	00000073          	ecall
   157a4:	00f50e63          	beq	a0,a5,157c0 <_ZN18complex_no_dynamic3app17hb529d497ff5de1c9E+0x70>
   157a8:	0f300513          	li	a0,243
   157ac:	45a1                	li	a1,8
   157ae:	4611                	li	a2,4
   157b0:	4709                	li	a4,2
   157b2:	07f00793          	li	a5,127
   157b6:	4681                	li	a3,0
   157b8:	00000073          	ecall
   157bc:	02a7ea63          	bltu	a5,a0,157f0 <_ZN18complex_no_dynamic3app17hb529d497ff5de1c9E+0xa0>
   157c0:	4601                	li	a2,0
   157c2:	4681                	li	a3,0
   157c4:	4705                	li	a4,1
   157c6:	0f300513          	li	a0,243
   157ca:	00e40023          	sb	a4,0(s0)
   157ce:	c04c                	sw	a1,4(s0)
   157d0:	4591                	li	a1,4
   157d2:	470d                	li	a4,3
   157d4:	00000073          	ecall
   157d8:	0f300513          	li	a0,243
   157dc:	45a1                	li	a1,8
   157de:	4711                	li	a4,4
   157e0:	4601                	li	a2,0
   157e2:	4681                	li	a3,0
   157e4:	00000073          	ecall
   157e8:	40f6                	lw	ra,92(sp)
   157ea:	4466                	lw	s0,88(sp)
   157ec:	6125                	addi	sp,sp,96
   157ee:	8082                	ret
   157f0:	4601                	li	a2,0
   157f2:	4681                	li	a3,0
   157f4:	0f300513          	li	a0,243
   157f8:	4591                	li	a1,4
   157fa:	470d                	li	a4,3
   157fc:	00000073          	ecall
   15800:	0f300513          	li	a0,243
   15804:	4591                	li	a1,4
   15806:	470d                	li	a4,3
   15808:	4601                	li	a2,0
   1580a:	4681                	li	a3,0
   1580c:	00000073          	ecall
   15810:	00140513          	addi	a0,s0,1
   15814:	02210593          	addi	a1,sp,34
   15818:	03600613          	li	a2,54
   1581c:	00005097          	auipc	ra,0x5
   15820:	3fa080e7          	jalr	1018(ra) # 1ac16 <memcpy>
   15824:	4601                	li	a2,0
   15826:	4681                	li	a3,0
   15828:	00040023          	sb	zero,0(s0)
   1582c:	0f300513          	li	a0,243
   15830:	4591                	li	a1,4
   15832:	470d                	li	a4,3
   15834:	00000073          	ecall
   15838:	0f300513          	li	a0,243
   1583c:	45a1                	li	a1,8
   1583e:	4711                	li	a4,4
   15840:	4601                	li	a2,0
   15842:	4681                	li	a3,0
   15844:	00000073          	ecall
   15848:	b745                	j	157e8 <_ZN18complex_no_dynamic3app17hb529d497ff5de1c9E+0x98>

0001584a <_ZN18complex_no_dynamic3app17hb544262728b9d36dE>:
   1584a:	7119                	addi	sp,sp,-128
   1584c:	de86                	sw	ra,124(sp)
   1584e:	dca2                	sw	s0,120(sp)
   15850:	daa6                	sw	s1,116(sp)
   15852:	842a                	mv	s0,a0
   15854:	00610513          	addi	a0,sp,6
   15858:	03c00613          	li	a2,60
   1585c:	00005097          	auipc	ra,0x5
   15860:	3ba080e7          	jalr	954(ra) # 1ac16 <memcpy>
   15864:	04210513          	addi	a0,sp,66
   15868:	03200613          	li	a2,50
   1586c:	4581                	li	a1,0
   1586e:	00005097          	auipc	ra,0x5
   15872:	33c080e7          	jalr	828(ra) # 1abaa <memset>
   15876:	6509                	lui	a0,0x2
   15878:	4599                	li	a1,6
   1587a:	00610613          	addi	a2,sp,6
   1587e:	03c00693          	li	a3,60
   15882:	b1e50793          	addi	a5,a0,-1250 # 1b1e <.Lline_table_start1+0x18f3>
   15886:	4711                	li	a4,4
   15888:	4489                	li	s1,2
   1588a:	853e                	mv	a0,a5
   1588c:	00000073          	ecall
   15890:	02950b63          	beq	a0,s1,158c6 <_ZN18complex_no_dynamic3app17hb544262728b9d36dE+0x7c>
   15894:	45a1                	li	a1,8
   15896:	04210613          	addi	a2,sp,66
   1589a:	03200693          	li	a3,50
   1589e:	470d                	li	a4,3
   158a0:	853e                	mv	a0,a5
   158a2:	00000073          	ecall
   158a6:	02950063          	beq	a0,s1,158c6 <_ZN18complex_no_dynamic3app17hb544262728b9d36dE+0x7c>
   158aa:	6509                	lui	a0,0x2
   158ac:	4599                	li	a1,6
   158ae:	4621                	li	a2,8
   158b0:	b1e50493          	addi	s1,a0,-1250 # 1b1e <.Lline_table_start1+0x18f3>
   158b4:	4709                	li	a4,2
   158b6:	07f00793          	li	a5,127
   158ba:	8526                	mv	a0,s1
   158bc:	4681                	li	a3,0
   158be:	00000073          	ecall
   158c2:	02a7ed63          	bltu	a5,a0,158fc <_ZN18complex_no_dynamic3app17hb544262728b9d36dE+0xb2>
   158c6:	872e                	mv	a4,a1
   158c8:	4601                	li	a2,0
   158ca:	4681                	li	a3,0
   158cc:	4505                	li	a0,1
   158ce:	6789                	lui	a5,0x2
   158d0:	45a1                	li	a1,8
   158d2:	00a40023          	sb	a0,0(s0)
   158d6:	c058                	sw	a4,4(s0)
   158d8:	b1e78793          	addi	a5,a5,-1250 # 1b1e <.Lline_table_start1+0x18f3>
   158dc:	470d                	li	a4,3
   158de:	853e                	mv	a0,a5
   158e0:	00000073          	ecall
   158e4:	4599                	li	a1,6
   158e6:	4711                	li	a4,4
   158e8:	853e                	mv	a0,a5
   158ea:	4601                	li	a2,0
   158ec:	4681                	li	a3,0
   158ee:	00000073          	ecall
   158f2:	50f6                	lw	ra,124(sp)
   158f4:	5466                	lw	s0,120(sp)
   158f6:	54d6                	lw	s1,116(sp)
   158f8:	6109                	addi	sp,sp,128
   158fa:	8082                	ret
   158fc:	8526                	mv	a0,s1
   158fe:	4601                	li	a2,0
   15900:	4681                	li	a3,0
   15902:	45a1                	li	a1,8
   15904:	470d                	li	a4,3
   15906:	00000073          	ecall
   1590a:	45a1                	li	a1,8
   1590c:	470d                	li	a4,3
   1590e:	8526                	mv	a0,s1
   15910:	4601                	li	a2,0
   15912:	4681                	li	a3,0
   15914:	00000073          	ecall
   15918:	00140513          	addi	a0,s0,1
   1591c:	04210593          	addi	a1,sp,66
   15920:	03200613          	li	a2,50
   15924:	00005097          	auipc	ra,0x5
   15928:	2f2080e7          	jalr	754(ra) # 1ac16 <memcpy>
   1592c:	8526                	mv	a0,s1
   1592e:	4601                	li	a2,0
   15930:	4681                	li	a3,0
   15932:	00040023          	sb	zero,0(s0)
   15936:	45a1                	li	a1,8
   15938:	470d                	li	a4,3
   1593a:	00000073          	ecall
   1593e:	4599                	li	a1,6
   15940:	4711                	li	a4,4
   15942:	8526                	mv	a0,s1
   15944:	4601                	li	a2,0
   15946:	4681                	li	a3,0
   15948:	00000073          	ecall
   1594c:	b75d                	j	158f2 <_ZN18complex_no_dynamic3app17hb544262728b9d36dE+0xa8>

0001594e <_ZN18complex_no_dynamic3app17hb60cddf4bad0b9f4E>:
   1594e:	7135                	addi	sp,sp,-160
   15950:	cf06                	sw	ra,156(sp)
   15952:	cd22                	sw	s0,152(sp)
   15954:	cb26                	sw	s1,148(sp)
   15956:	842a                	mv	s0,a0
   15958:	00d10513          	addi	a0,sp,13
   1595c:	05500613          	li	a2,85
   15960:	00005097          	auipc	ra,0x5
   15964:	2b6080e7          	jalr	694(ra) # 1ac16 <memcpy>
   15968:	06210513          	addi	a0,sp,98
   1596c:	03200613          	li	a2,50
   15970:	4581                	li	a1,0
   15972:	00005097          	auipc	ra,0x5
   15976:	238080e7          	jalr	568(ra) # 1abaa <memset>
   1597a:	6509                	lui	a0,0x2
   1597c:	45a1                	li	a1,8
   1597e:	00d10613          	addi	a2,sp,13
   15982:	05500693          	li	a3,85
   15986:	09550793          	addi	a5,a0,149 # 2095 <.Lline_table_start1+0x1e6a>
   1598a:	4711                	li	a4,4
   1598c:	4489                	li	s1,2
   1598e:	853e                	mv	a0,a5
   15990:	00000073          	ecall
   15994:	02950b63          	beq	a0,s1,159ca <_ZN18complex_no_dynamic3app17hb60cddf4bad0b9f4E+0x7c>
   15998:	45a1                	li	a1,8
   1599a:	06210613          	addi	a2,sp,98
   1599e:	03200693          	li	a3,50
   159a2:	470d                	li	a4,3
   159a4:	853e                	mv	a0,a5
   159a6:	00000073          	ecall
   159aa:	02950063          	beq	a0,s1,159ca <_ZN18complex_no_dynamic3app17hb60cddf4bad0b9f4E+0x7c>
   159ae:	6509                	lui	a0,0x2
   159b0:	45a1                	li	a1,8
   159b2:	4621                	li	a2,8
   159b4:	09550493          	addi	s1,a0,149 # 2095 <.Lline_table_start1+0x1e6a>
   159b8:	4709                	li	a4,2
   159ba:	07f00793          	li	a5,127
   159be:	8526                	mv	a0,s1
   159c0:	4681                	li	a3,0
   159c2:	00000073          	ecall
   159c6:	02a7ed63          	bltu	a5,a0,15a00 <_ZN18complex_no_dynamic3app17hb60cddf4bad0b9f4E+0xb2>
   159ca:	872e                	mv	a4,a1
   159cc:	4601                	li	a2,0
   159ce:	4681                	li	a3,0
   159d0:	4505                	li	a0,1
   159d2:	6789                	lui	a5,0x2
   159d4:	45a1                	li	a1,8
   159d6:	00a40023          	sb	a0,0(s0)
   159da:	c058                	sw	a4,4(s0)
   159dc:	09578793          	addi	a5,a5,149 # 2095 <.Lline_table_start1+0x1e6a>
   159e0:	470d                	li	a4,3
   159e2:	853e                	mv	a0,a5
   159e4:	00000073          	ecall
   159e8:	45a1                	li	a1,8
   159ea:	4711                	li	a4,4
   159ec:	853e                	mv	a0,a5
   159ee:	4601                	li	a2,0
   159f0:	4681                	li	a3,0
   159f2:	00000073          	ecall
   159f6:	40fa                	lw	ra,156(sp)
   159f8:	446a                	lw	s0,152(sp)
   159fa:	44da                	lw	s1,148(sp)
   159fc:	610d                	addi	sp,sp,160
   159fe:	8082                	ret
   15a00:	8526                	mv	a0,s1
   15a02:	4601                	li	a2,0
   15a04:	4681                	li	a3,0
   15a06:	45a1                	li	a1,8
   15a08:	470d                	li	a4,3
   15a0a:	00000073          	ecall
   15a0e:	45a1                	li	a1,8
   15a10:	470d                	li	a4,3
   15a12:	8526                	mv	a0,s1
   15a14:	4601                	li	a2,0
   15a16:	4681                	li	a3,0
   15a18:	00000073          	ecall
   15a1c:	00140513          	addi	a0,s0,1
   15a20:	06210593          	addi	a1,sp,98
   15a24:	03200613          	li	a2,50
   15a28:	00005097          	auipc	ra,0x5
   15a2c:	1ee080e7          	jalr	494(ra) # 1ac16 <memcpy>
   15a30:	8526                	mv	a0,s1
   15a32:	4601                	li	a2,0
   15a34:	4681                	li	a3,0
   15a36:	00040023          	sb	zero,0(s0)
   15a3a:	45a1                	li	a1,8
   15a3c:	470d                	li	a4,3
   15a3e:	00000073          	ecall
   15a42:	45a1                	li	a1,8
   15a44:	4711                	li	a4,4
   15a46:	8526                	mv	a0,s1
   15a48:	4601                	li	a2,0
   15a4a:	4681                	li	a3,0
   15a4c:	00000073          	ecall
   15a50:	b75d                	j	159f6 <_ZN18complex_no_dynamic3app17hb60cddf4bad0b9f4E+0xa8>

00015a52 <_ZN18complex_no_dynamic3app17hbb449ff7dc003dabE>:
   15a52:	7135                	addi	sp,sp,-160
   15a54:	cf06                	sw	ra,156(sp)
   15a56:	cd22                	sw	s0,152(sp)
   15a58:	842a                	mv	s0,a0
   15a5a:	00b10513          	addi	a0,sp,11
   15a5e:	02f00613          	li	a2,47
   15a62:	00005097          	auipc	ra,0x5
   15a66:	1b4080e7          	jalr	436(ra) # 1ac16 <memcpy>
   15a6a:	03a10513          	addi	a0,sp,58
   15a6e:	05e00613          	li	a2,94
   15a72:	4581                	li	a1,0
   15a74:	00005097          	auipc	ra,0x5
   15a78:	136080e7          	jalr	310(ra) # 1abaa <memset>
   15a7c:	22b00513          	li	a0,555
   15a80:	4595                	li	a1,5
   15a82:	00b10613          	addi	a2,sp,11
   15a86:	02f00693          	li	a3,47
   15a8a:	4711                	li	a4,4
   15a8c:	4789                	li	a5,2
   15a8e:	00000073          	ecall
   15a92:	02f50a63          	beq	a0,a5,15ac6 <_ZN18complex_no_dynamic3app17hbb449ff7dc003dabE+0x74>
   15a96:	22b00513          	li	a0,555
   15a9a:	4589                	li	a1,2
   15a9c:	03a10613          	addi	a2,sp,58
   15aa0:	05e00693          	li	a3,94
   15aa4:	470d                	li	a4,3
   15aa6:	00000073          	ecall
   15aaa:	00f50e63          	beq	a0,a5,15ac6 <_ZN18complex_no_dynamic3app17hbb449ff7dc003dabE+0x74>
   15aae:	22b00513          	li	a0,555
   15ab2:	4595                	li	a1,5
   15ab4:	4609                	li	a2,2
   15ab6:	4709                	li	a4,2
   15ab8:	07f00793          	li	a5,127
   15abc:	4681                	li	a3,0
   15abe:	00000073          	ecall
   15ac2:	02a7ea63          	bltu	a5,a0,15af6 <_ZN18complex_no_dynamic3app17hbb449ff7dc003dabE+0xa4>
   15ac6:	4601                	li	a2,0
   15ac8:	4681                	li	a3,0
   15aca:	4705                	li	a4,1
   15acc:	22b00513          	li	a0,555
   15ad0:	00e40023          	sb	a4,0(s0)
   15ad4:	c04c                	sw	a1,4(s0)
   15ad6:	4589                	li	a1,2
   15ad8:	470d                	li	a4,3
   15ada:	00000073          	ecall
   15ade:	22b00513          	li	a0,555
   15ae2:	4595                	li	a1,5
   15ae4:	4711                	li	a4,4
   15ae6:	4601                	li	a2,0
   15ae8:	4681                	li	a3,0
   15aea:	00000073          	ecall
   15aee:	40fa                	lw	ra,156(sp)
   15af0:	446a                	lw	s0,152(sp)
   15af2:	610d                	addi	sp,sp,160
   15af4:	8082                	ret
   15af6:	4601                	li	a2,0
   15af8:	4681                	li	a3,0
   15afa:	22b00513          	li	a0,555
   15afe:	4589                	li	a1,2
   15b00:	470d                	li	a4,3
   15b02:	00000073          	ecall
   15b06:	22b00513          	li	a0,555
   15b0a:	4589                	li	a1,2
   15b0c:	470d                	li	a4,3
   15b0e:	4601                	li	a2,0
   15b10:	4681                	li	a3,0
   15b12:	00000073          	ecall
   15b16:	00140513          	addi	a0,s0,1
   15b1a:	03a10593          	addi	a1,sp,58
   15b1e:	05e00613          	li	a2,94
   15b22:	00005097          	auipc	ra,0x5
   15b26:	0f4080e7          	jalr	244(ra) # 1ac16 <memcpy>
   15b2a:	4601                	li	a2,0
   15b2c:	4681                	li	a3,0
   15b2e:	00040023          	sb	zero,0(s0)
   15b32:	22b00513          	li	a0,555
   15b36:	4589                	li	a1,2
   15b38:	470d                	li	a4,3
   15b3a:	00000073          	ecall
   15b3e:	22b00513          	li	a0,555
   15b42:	4595                	li	a1,5
   15b44:	4711                	li	a4,4
   15b46:	4601                	li	a2,0
   15b48:	4681                	li	a3,0
   15b4a:	00000073          	ecall
   15b4e:	b745                	j	15aee <_ZN18complex_no_dynamic3app17hbb449ff7dc003dabE+0x9c>

00015b50 <_ZN18complex_no_dynamic3app17hbe4e5259158ec4edE>:
   15b50:	7119                	addi	sp,sp,-128
   15b52:	de86                	sw	ra,124(sp)
   15b54:	dca2                	sw	s0,120(sp)
   15b56:	daa6                	sw	s1,116(sp)
   15b58:	842a                	mv	s0,a0
   15b5a:	00e10513          	addi	a0,sp,14
   15b5e:	02e00613          	li	a2,46
   15b62:	00005097          	auipc	ra,0x5
   15b66:	0b4080e7          	jalr	180(ra) # 1ac16 <memcpy>
   15b6a:	1868                	addi	a0,sp,60
   15b6c:	03800613          	li	a2,56
   15b70:	4581                	li	a1,0
   15b72:	00005097          	auipc	ra,0x5
   15b76:	038080e7          	jalr	56(ra) # 1abaa <memset>
   15b7a:	6505                	lui	a0,0x1
   15b7c:	45a5                	li	a1,9
   15b7e:	00e10613          	addi	a2,sp,14
   15b82:	02e00693          	li	a3,46
   15b86:	a9d50793          	addi	a5,a0,-1379 # a9d <.Lline_table_start1+0x872>
   15b8a:	4711                	li	a4,4
   15b8c:	4489                	li	s1,2
   15b8e:	853e                	mv	a0,a5
   15b90:	00000073          	ecall
   15b94:	02950a63          	beq	a0,s1,15bc8 <_ZN18complex_no_dynamic3app17hbe4e5259158ec4edE+0x78>
   15b98:	45a5                	li	a1,9
   15b9a:	1870                	addi	a2,sp,60
   15b9c:	03800693          	li	a3,56
   15ba0:	470d                	li	a4,3
   15ba2:	853e                	mv	a0,a5
   15ba4:	00000073          	ecall
   15ba8:	02950063          	beq	a0,s1,15bc8 <_ZN18complex_no_dynamic3app17hbe4e5259158ec4edE+0x78>
   15bac:	6505                	lui	a0,0x1
   15bae:	45a5                	li	a1,9
   15bb0:	4625                	li	a2,9
   15bb2:	a9d50493          	addi	s1,a0,-1379 # a9d <.Lline_table_start1+0x872>
   15bb6:	4709                	li	a4,2
   15bb8:	07f00793          	li	a5,127
   15bbc:	8526                	mv	a0,s1
   15bbe:	4681                	li	a3,0
   15bc0:	00000073          	ecall
   15bc4:	02a7ed63          	bltu	a5,a0,15bfe <_ZN18complex_no_dynamic3app17hbe4e5259158ec4edE+0xae>
   15bc8:	872e                	mv	a4,a1
   15bca:	4601                	li	a2,0
   15bcc:	4681                	li	a3,0
   15bce:	4505                	li	a0,1
   15bd0:	6785                	lui	a5,0x1
   15bd2:	45a5                	li	a1,9
   15bd4:	00a40023          	sb	a0,0(s0)
   15bd8:	c058                	sw	a4,4(s0)
   15bda:	a9d78793          	addi	a5,a5,-1379 # a9d <.Lline_table_start1+0x872>
   15bde:	470d                	li	a4,3
   15be0:	853e                	mv	a0,a5
   15be2:	00000073          	ecall
   15be6:	45a5                	li	a1,9
   15be8:	4711                	li	a4,4
   15bea:	853e                	mv	a0,a5
   15bec:	4601                	li	a2,0
   15bee:	4681                	li	a3,0
   15bf0:	00000073          	ecall
   15bf4:	50f6                	lw	ra,124(sp)
   15bf6:	5466                	lw	s0,120(sp)
   15bf8:	54d6                	lw	s1,116(sp)
   15bfa:	6109                	addi	sp,sp,128
   15bfc:	8082                	ret
   15bfe:	8526                	mv	a0,s1
   15c00:	4601                	li	a2,0
   15c02:	4681                	li	a3,0
   15c04:	45a5                	li	a1,9
   15c06:	470d                	li	a4,3
   15c08:	00000073          	ecall
   15c0c:	45a5                	li	a1,9
   15c0e:	470d                	li	a4,3
   15c10:	8526                	mv	a0,s1
   15c12:	4601                	li	a2,0
   15c14:	4681                	li	a3,0
   15c16:	00000073          	ecall
   15c1a:	00140513          	addi	a0,s0,1
   15c1e:	186c                	addi	a1,sp,60
   15c20:	03800613          	li	a2,56
   15c24:	00005097          	auipc	ra,0x5
   15c28:	ff2080e7          	jalr	-14(ra) # 1ac16 <memcpy>
   15c2c:	8526                	mv	a0,s1
   15c2e:	4601                	li	a2,0
   15c30:	4681                	li	a3,0
   15c32:	00040023          	sb	zero,0(s0)
   15c36:	45a5                	li	a1,9
   15c38:	470d                	li	a4,3
   15c3a:	00000073          	ecall
   15c3e:	45a5                	li	a1,9
   15c40:	4711                	li	a4,4
   15c42:	8526                	mv	a0,s1
   15c44:	4601                	li	a2,0
   15c46:	4681                	li	a3,0
   15c48:	00000073          	ecall
   15c4c:	b765                	j	15bf4 <_ZN18complex_no_dynamic3app17hbe4e5259158ec4edE+0xa4>

00015c4e <_ZN18complex_no_dynamic3app17hbf3a8a93ce048469E>:
   15c4e:	711d                	addi	sp,sp,-96
   15c50:	ce86                	sw	ra,92(sp)
   15c52:	cca2                	sw	s0,88(sp)
   15c54:	caa6                	sw	s1,84(sp)
   15c56:	842a                	mv	s0,a0
   15c58:	00110513          	addi	a0,sp,1
   15c5c:	02c00613          	li	a2,44
   15c60:	00005097          	auipc	ra,0x5
   15c64:	fb6080e7          	jalr	-74(ra) # 1ac16 <memcpy>
   15c68:	02d10513          	addi	a0,sp,45
   15c6c:	02700613          	li	a2,39
   15c70:	4581                	li	a1,0
   15c72:	00005097          	auipc	ra,0x5
   15c76:	f38080e7          	jalr	-200(ra) # 1abaa <memset>
   15c7a:	6505                	lui	a0,0x1
   15c7c:	4591                	li	a1,4
   15c7e:	00110613          	addi	a2,sp,1
   15c82:	02c00693          	li	a3,44
   15c86:	1b550793          	addi	a5,a0,437 # 11b5 <.Lline_table_start1+0xf8a>
   15c8a:	4711                	li	a4,4
   15c8c:	4489                	li	s1,2
   15c8e:	853e                	mv	a0,a5
   15c90:	00000073          	ecall
   15c94:	02950b63          	beq	a0,s1,15cca <_ZN18complex_no_dynamic3app17hbf3a8a93ce048469E+0x7c>
   15c98:	458d                	li	a1,3
   15c9a:	02d10613          	addi	a2,sp,45
   15c9e:	02700693          	li	a3,39
   15ca2:	470d                	li	a4,3
   15ca4:	853e                	mv	a0,a5
   15ca6:	00000073          	ecall
   15caa:	02950063          	beq	a0,s1,15cca <_ZN18complex_no_dynamic3app17hbf3a8a93ce048469E+0x7c>
   15cae:	6505                	lui	a0,0x1
   15cb0:	4591                	li	a1,4
   15cb2:	460d                	li	a2,3
   15cb4:	1b550493          	addi	s1,a0,437 # 11b5 <.Lline_table_start1+0xf8a>
   15cb8:	4709                	li	a4,2
   15cba:	07f00793          	li	a5,127
   15cbe:	8526                	mv	a0,s1
   15cc0:	4681                	li	a3,0
   15cc2:	00000073          	ecall
   15cc6:	02a7ed63          	bltu	a5,a0,15d00 <_ZN18complex_no_dynamic3app17hbf3a8a93ce048469E+0xb2>
   15cca:	872e                	mv	a4,a1
   15ccc:	4601                	li	a2,0
   15cce:	4681                	li	a3,0
   15cd0:	4505                	li	a0,1
   15cd2:	6785                	lui	a5,0x1
   15cd4:	458d                	li	a1,3
   15cd6:	00a40023          	sb	a0,0(s0)
   15cda:	c058                	sw	a4,4(s0)
   15cdc:	1b578793          	addi	a5,a5,437 # 11b5 <.Lline_table_start1+0xf8a>
   15ce0:	470d                	li	a4,3
   15ce2:	853e                	mv	a0,a5
   15ce4:	00000073          	ecall
   15ce8:	4591                	li	a1,4
   15cea:	4711                	li	a4,4
   15cec:	853e                	mv	a0,a5
   15cee:	4601                	li	a2,0
   15cf0:	4681                	li	a3,0
   15cf2:	00000073          	ecall
   15cf6:	40f6                	lw	ra,92(sp)
   15cf8:	4466                	lw	s0,88(sp)
   15cfa:	44d6                	lw	s1,84(sp)
   15cfc:	6125                	addi	sp,sp,96
   15cfe:	8082                	ret
   15d00:	8526                	mv	a0,s1
   15d02:	4601                	li	a2,0
   15d04:	4681                	li	a3,0
   15d06:	458d                	li	a1,3
   15d08:	470d                	li	a4,3
   15d0a:	00000073          	ecall
   15d0e:	458d                	li	a1,3
   15d10:	470d                	li	a4,3
   15d12:	8526                	mv	a0,s1
   15d14:	4601                	li	a2,0
   15d16:	4681                	li	a3,0
   15d18:	00000073          	ecall
   15d1c:	00140513          	addi	a0,s0,1
   15d20:	02d10593          	addi	a1,sp,45
   15d24:	02700613          	li	a2,39
   15d28:	00005097          	auipc	ra,0x5
   15d2c:	eee080e7          	jalr	-274(ra) # 1ac16 <memcpy>
   15d30:	8526                	mv	a0,s1
   15d32:	4601                	li	a2,0
   15d34:	4681                	li	a3,0
   15d36:	00040023          	sb	zero,0(s0)
   15d3a:	458d                	li	a1,3
   15d3c:	470d                	li	a4,3
   15d3e:	00000073          	ecall
   15d42:	4591                	li	a1,4
   15d44:	4711                	li	a4,4
   15d46:	8526                	mv	a0,s1
   15d48:	4601                	li	a2,0
   15d4a:	4681                	li	a3,0
   15d4c:	00000073          	ecall
   15d50:	b75d                	j	15cf6 <_ZN18complex_no_dynamic3app17hbf3a8a93ce048469E+0xa8>

00015d52 <_ZN18complex_no_dynamic3app17hc070bbadcda9b16eE>:
   15d52:	7175                	addi	sp,sp,-144
   15d54:	c706                	sw	ra,140(sp)
   15d56:	c522                	sw	s0,136(sp)
   15d58:	842a                	mv	s0,a0
   15d5a:	00910513          	addi	a0,sp,9
   15d5e:	06100613          	li	a2,97
   15d62:	00005097          	auipc	ra,0x5
   15d66:	eb4080e7          	jalr	-332(ra) # 1ac16 <memcpy>
   15d6a:	06a10513          	addi	a0,sp,106
   15d6e:	4679                	li	a2,30
   15d70:	4581                	li	a1,0
   15d72:	00005097          	auipc	ra,0x5
   15d76:	e38080e7          	jalr	-456(ra) # 1abaa <memset>
   15d7a:	18800513          	li	a0,392
   15d7e:	4591                	li	a1,4
   15d80:	00910613          	addi	a2,sp,9
   15d84:	06100693          	li	a3,97
   15d88:	4711                	li	a4,4
   15d8a:	4789                	li	a5,2
   15d8c:	00000073          	ecall
   15d90:	02f50963          	beq	a0,a5,15dc2 <_ZN18complex_no_dynamic3app17hc070bbadcda9b16eE+0x70>
   15d94:	18800513          	li	a0,392
   15d98:	4599                	li	a1,6
   15d9a:	06a10613          	addi	a2,sp,106
   15d9e:	46f9                	li	a3,30
   15da0:	470d                	li	a4,3
   15da2:	00000073          	ecall
   15da6:	00f50e63          	beq	a0,a5,15dc2 <_ZN18complex_no_dynamic3app17hc070bbadcda9b16eE+0x70>
   15daa:	18800513          	li	a0,392
   15dae:	4591                	li	a1,4
   15db0:	4619                	li	a2,6
   15db2:	4709                	li	a4,2
   15db4:	07f00793          	li	a5,127
   15db8:	4681                	li	a3,0
   15dba:	00000073          	ecall
   15dbe:	02a7ea63          	bltu	a5,a0,15df2 <_ZN18complex_no_dynamic3app17hc070bbadcda9b16eE+0xa0>
   15dc2:	4601                	li	a2,0
   15dc4:	4681                	li	a3,0
   15dc6:	4705                	li	a4,1
   15dc8:	18800513          	li	a0,392
   15dcc:	00e40023          	sb	a4,0(s0)
   15dd0:	c04c                	sw	a1,4(s0)
   15dd2:	4599                	li	a1,6
   15dd4:	470d                	li	a4,3
   15dd6:	00000073          	ecall
   15dda:	18800513          	li	a0,392
   15dde:	4591                	li	a1,4
   15de0:	4711                	li	a4,4
   15de2:	4601                	li	a2,0
   15de4:	4681                	li	a3,0
   15de6:	00000073          	ecall
   15dea:	40ba                	lw	ra,140(sp)
   15dec:	442a                	lw	s0,136(sp)
   15dee:	6149                	addi	sp,sp,144
   15df0:	8082                	ret
   15df2:	4601                	li	a2,0
   15df4:	4681                	li	a3,0
   15df6:	18800513          	li	a0,392
   15dfa:	4599                	li	a1,6
   15dfc:	470d                	li	a4,3
   15dfe:	00000073          	ecall
   15e02:	18800513          	li	a0,392
   15e06:	4599                	li	a1,6
   15e08:	470d                	li	a4,3
   15e0a:	4601                	li	a2,0
   15e0c:	4681                	li	a3,0
   15e0e:	00000073          	ecall
   15e12:	00140513          	addi	a0,s0,1
   15e16:	06a10593          	addi	a1,sp,106
   15e1a:	4679                	li	a2,30
   15e1c:	00005097          	auipc	ra,0x5
   15e20:	dfa080e7          	jalr	-518(ra) # 1ac16 <memcpy>
   15e24:	4601                	li	a2,0
   15e26:	4681                	li	a3,0
   15e28:	00040023          	sb	zero,0(s0)
   15e2c:	18800513          	li	a0,392
   15e30:	4599                	li	a1,6
   15e32:	470d                	li	a4,3
   15e34:	00000073          	ecall
   15e38:	18800513          	li	a0,392
   15e3c:	4591                	li	a1,4
   15e3e:	4711                	li	a4,4
   15e40:	4601                	li	a2,0
   15e42:	4681                	li	a3,0
   15e44:	00000073          	ecall
   15e48:	b74d                	j	15dea <_ZN18complex_no_dynamic3app17hc070bbadcda9b16eE+0x98>

00015e4a <_ZN18complex_no_dynamic3app17hc16a806fd83998b2E>:
   15e4a:	7119                	addi	sp,sp,-128
   15e4c:	de86                	sw	ra,124(sp)
   15e4e:	dca2                	sw	s0,120(sp)
   15e50:	daa6                	sw	s1,116(sp)
   15e52:	842a                	mv	s0,a0
   15e54:	00310513          	addi	a0,sp,3
   15e58:	04800613          	li	a2,72
   15e5c:	00005097          	auipc	ra,0x5
   15e60:	dba080e7          	jalr	-582(ra) # 1ac16 <memcpy>
   15e64:	04b10513          	addi	a0,sp,75
   15e68:	02900613          	li	a2,41
   15e6c:	4581                	li	a1,0
   15e6e:	00005097          	auipc	ra,0x5
   15e72:	d3c080e7          	jalr	-708(ra) # 1abaa <memset>
   15e76:	6509                	lui	a0,0x2
   15e78:	458d                	li	a1,3
   15e7a:	00310613          	addi	a2,sp,3
   15e7e:	04800693          	li	a3,72
   15e82:	6a450793          	addi	a5,a0,1700 # 26a4 <.Lline_table_start1+0x2479>
   15e86:	4711                	li	a4,4
   15e88:	4489                	li	s1,2
   15e8a:	853e                	mv	a0,a5
   15e8c:	00000073          	ecall
   15e90:	02950b63          	beq	a0,s1,15ec6 <_ZN18complex_no_dynamic3app17hc16a806fd83998b2E+0x7c>
   15e94:	4591                	li	a1,4
   15e96:	04b10613          	addi	a2,sp,75
   15e9a:	02900693          	li	a3,41
   15e9e:	470d                	li	a4,3
   15ea0:	853e                	mv	a0,a5
   15ea2:	00000073          	ecall
   15ea6:	02950063          	beq	a0,s1,15ec6 <_ZN18complex_no_dynamic3app17hc16a806fd83998b2E+0x7c>
   15eaa:	6509                	lui	a0,0x2
   15eac:	458d                	li	a1,3
   15eae:	4611                	li	a2,4
   15eb0:	6a450493          	addi	s1,a0,1700 # 26a4 <.Lline_table_start1+0x2479>
   15eb4:	4709                	li	a4,2
   15eb6:	07f00793          	li	a5,127
   15eba:	8526                	mv	a0,s1
   15ebc:	4681                	li	a3,0
   15ebe:	00000073          	ecall
   15ec2:	02a7ed63          	bltu	a5,a0,15efc <_ZN18complex_no_dynamic3app17hc16a806fd83998b2E+0xb2>
   15ec6:	872e                	mv	a4,a1
   15ec8:	4601                	li	a2,0
   15eca:	4681                	li	a3,0
   15ecc:	4505                	li	a0,1
   15ece:	6789                	lui	a5,0x2
   15ed0:	4591                	li	a1,4
   15ed2:	00a40023          	sb	a0,0(s0)
   15ed6:	c058                	sw	a4,4(s0)
   15ed8:	6a478793          	addi	a5,a5,1700 # 26a4 <.Lline_table_start1+0x2479>
   15edc:	470d                	li	a4,3
   15ede:	853e                	mv	a0,a5
   15ee0:	00000073          	ecall
   15ee4:	458d                	li	a1,3
   15ee6:	4711                	li	a4,4
   15ee8:	853e                	mv	a0,a5
   15eea:	4601                	li	a2,0
   15eec:	4681                	li	a3,0
   15eee:	00000073          	ecall
   15ef2:	50f6                	lw	ra,124(sp)
   15ef4:	5466                	lw	s0,120(sp)
   15ef6:	54d6                	lw	s1,116(sp)
   15ef8:	6109                	addi	sp,sp,128
   15efa:	8082                	ret
   15efc:	8526                	mv	a0,s1
   15efe:	4601                	li	a2,0
   15f00:	4681                	li	a3,0
   15f02:	4591                	li	a1,4
   15f04:	470d                	li	a4,3
   15f06:	00000073          	ecall
   15f0a:	4591                	li	a1,4
   15f0c:	470d                	li	a4,3
   15f0e:	8526                	mv	a0,s1
   15f10:	4601                	li	a2,0
   15f12:	4681                	li	a3,0
   15f14:	00000073          	ecall
   15f18:	00140513          	addi	a0,s0,1
   15f1c:	04b10593          	addi	a1,sp,75
   15f20:	02900613          	li	a2,41
   15f24:	00005097          	auipc	ra,0x5
   15f28:	cf2080e7          	jalr	-782(ra) # 1ac16 <memcpy>
   15f2c:	8526                	mv	a0,s1
   15f2e:	4601                	li	a2,0
   15f30:	4681                	li	a3,0
   15f32:	00040023          	sb	zero,0(s0)
   15f36:	4591                	li	a1,4
   15f38:	470d                	li	a4,3
   15f3a:	00000073          	ecall
   15f3e:	458d                	li	a1,3
   15f40:	4711                	li	a4,4
   15f42:	8526                	mv	a0,s1
   15f44:	4601                	li	a2,0
   15f46:	4681                	li	a3,0
   15f48:	00000073          	ecall
   15f4c:	b75d                	j	15ef2 <_ZN18complex_no_dynamic3app17hc16a806fd83998b2E+0xa8>

00015f4e <_ZN18complex_no_dynamic3app17hc51683e8854a7cd6E>:
   15f4e:	7119                	addi	sp,sp,-128
   15f50:	de86                	sw	ra,124(sp)
   15f52:	dca2                	sw	s0,120(sp)
   15f54:	daa6                	sw	s1,116(sp)
   15f56:	842a                	mv	s0,a0
   15f58:	850a                	mv	a0,sp
   15f5a:	03500613          	li	a2,53
   15f5e:	00005097          	auipc	ra,0x5
   15f62:	cb8080e7          	jalr	-840(ra) # 1ac16 <memcpy>
   15f66:	03510513          	addi	a0,sp,53
   15f6a:	03f00613          	li	a2,63
   15f6e:	4581                	li	a1,0
   15f70:	00005097          	auipc	ra,0x5
   15f74:	c3a080e7          	jalr	-966(ra) # 1abaa <memset>
   15f78:	6505                	lui	a0,0x1
   15f7a:	860a                	mv	a2,sp
   15f7c:	03500693          	li	a3,53
   15f80:	e5750793          	addi	a5,a0,-425 # e57 <.Lline_table_start1+0xc2c>
   15f84:	4711                	li	a4,4
   15f86:	4489                	li	s1,2
   15f88:	853e                	mv	a0,a5
   15f8a:	4581                	li	a1,0
   15f8c:	00000073          	ecall
   15f90:	02950b63          	beq	a0,s1,15fc6 <_ZN18complex_no_dynamic3app17hc51683e8854a7cd6E+0x78>
   15f94:	458d                	li	a1,3
   15f96:	03510613          	addi	a2,sp,53
   15f9a:	03f00693          	li	a3,63
   15f9e:	470d                	li	a4,3
   15fa0:	853e                	mv	a0,a5
   15fa2:	00000073          	ecall
   15fa6:	02950063          	beq	a0,s1,15fc6 <_ZN18complex_no_dynamic3app17hc51683e8854a7cd6E+0x78>
   15faa:	6505                	lui	a0,0x1
   15fac:	460d                	li	a2,3
   15fae:	e5750493          	addi	s1,a0,-425 # e57 <.Lline_table_start1+0xc2c>
   15fb2:	4709                	li	a4,2
   15fb4:	07f00793          	li	a5,127
   15fb8:	8526                	mv	a0,s1
   15fba:	4581                	li	a1,0
   15fbc:	4681                	li	a3,0
   15fbe:	00000073          	ecall
   15fc2:	02a7ec63          	bltu	a5,a0,15ffa <_ZN18complex_no_dynamic3app17hc51683e8854a7cd6E+0xac>
   15fc6:	4505                	li	a0,1
   15fc8:	6605                	lui	a2,0x1
   15fca:	00a40023          	sb	a0,0(s0)
   15fce:	c04c                	sw	a1,4(s0)
   15fd0:	e5760793          	addi	a5,a2,-425 # e57 <.Lline_table_start1+0xc2c>
   15fd4:	458d                	li	a1,3
   15fd6:	470d                	li	a4,3
   15fd8:	853e                	mv	a0,a5
   15fda:	4601                	li	a2,0
   15fdc:	4681                	li	a3,0
   15fde:	00000073          	ecall
   15fe2:	4711                	li	a4,4
   15fe4:	853e                	mv	a0,a5
   15fe6:	4581                	li	a1,0
   15fe8:	4601                	li	a2,0
   15fea:	4681                	li	a3,0
   15fec:	00000073          	ecall
   15ff0:	50f6                	lw	ra,124(sp)
   15ff2:	5466                	lw	s0,120(sp)
   15ff4:	54d6                	lw	s1,116(sp)
   15ff6:	6109                	addi	sp,sp,128
   15ff8:	8082                	ret
   15ffa:	8526                	mv	a0,s1
   15ffc:	4601                	li	a2,0
   15ffe:	4681                	li	a3,0
   16000:	458d                	li	a1,3
   16002:	470d                	li	a4,3
   16004:	00000073          	ecall
   16008:	458d                	li	a1,3
   1600a:	470d                	li	a4,3
   1600c:	8526                	mv	a0,s1
   1600e:	4601                	li	a2,0
   16010:	4681                	li	a3,0
   16012:	00000073          	ecall
   16016:	00140513          	addi	a0,s0,1
   1601a:	03510593          	addi	a1,sp,53
   1601e:	03f00613          	li	a2,63
   16022:	00005097          	auipc	ra,0x5
   16026:	bf4080e7          	jalr	-1036(ra) # 1ac16 <memcpy>
   1602a:	00040023          	sb	zero,0(s0)
   1602e:	458d                	li	a1,3
   16030:	470d                	li	a4,3
   16032:	8526                	mv	a0,s1
   16034:	4601                	li	a2,0
   16036:	4681                	li	a3,0
   16038:	00000073          	ecall
   1603c:	4711                	li	a4,4
   1603e:	8526                	mv	a0,s1
   16040:	4581                	li	a1,0
   16042:	4601                	li	a2,0
   16044:	4681                	li	a3,0
   16046:	00000073          	ecall
   1604a:	b75d                	j	15ff0 <_ZN18complex_no_dynamic3app17hc51683e8854a7cd6E+0xa2>

0001604c <_ZN18complex_no_dynamic3app17hc9ae9b2918b638cbE>:
   1604c:	7135                	addi	sp,sp,-160
   1604e:	cf06                	sw	ra,156(sp)
   16050:	cd22                	sw	s0,152(sp)
   16052:	cb26                	sw	s1,148(sp)
   16054:	842a                	mv	s0,a0
   16056:	0028                	addi	a0,sp,8
   16058:	05000613          	li	a2,80
   1605c:	00005097          	auipc	ra,0x5
   16060:	bba080e7          	jalr	-1094(ra) # 1ac16 <memcpy>
   16064:	08a8                	addi	a0,sp,88
   16066:	03c00613          	li	a2,60
   1606a:	4581                	li	a1,0
   1606c:	00005097          	auipc	ra,0x5
   16070:	b3e080e7          	jalr	-1218(ra) # 1abaa <memset>
   16074:	6505                	lui	a0,0x1
   16076:	458d                	li	a1,3
   16078:	0030                	addi	a2,sp,8
   1607a:	05000693          	li	a3,80
   1607e:	d7a50793          	addi	a5,a0,-646 # d7a <.Lline_table_start1+0xb4f>
   16082:	4711                	li	a4,4
   16084:	4489                	li	s1,2
   16086:	853e                	mv	a0,a5
   16088:	00000073          	ecall
   1608c:	02950a63          	beq	a0,s1,160c0 <_ZN18complex_no_dynamic3app17hc9ae9b2918b638cbE+0x74>
   16090:	45a5                	li	a1,9
   16092:	08b0                	addi	a2,sp,88
   16094:	03c00693          	li	a3,60
   16098:	470d                	li	a4,3
   1609a:	853e                	mv	a0,a5
   1609c:	00000073          	ecall
   160a0:	02950063          	beq	a0,s1,160c0 <_ZN18complex_no_dynamic3app17hc9ae9b2918b638cbE+0x74>
   160a4:	6505                	lui	a0,0x1
   160a6:	458d                	li	a1,3
   160a8:	4625                	li	a2,9
   160aa:	d7a50493          	addi	s1,a0,-646 # d7a <.Lline_table_start1+0xb4f>
   160ae:	4709                	li	a4,2
   160b0:	07f00793          	li	a5,127
   160b4:	8526                	mv	a0,s1
   160b6:	4681                	li	a3,0
   160b8:	00000073          	ecall
   160bc:	02a7ed63          	bltu	a5,a0,160f6 <_ZN18complex_no_dynamic3app17hc9ae9b2918b638cbE+0xaa>
   160c0:	872e                	mv	a4,a1
   160c2:	4601                	li	a2,0
   160c4:	4681                	li	a3,0
   160c6:	4505                	li	a0,1
   160c8:	6785                	lui	a5,0x1
   160ca:	45a5                	li	a1,9
   160cc:	00a40023          	sb	a0,0(s0)
   160d0:	c058                	sw	a4,4(s0)
   160d2:	d7a78793          	addi	a5,a5,-646 # d7a <.Lline_table_start1+0xb4f>
   160d6:	470d                	li	a4,3
   160d8:	853e                	mv	a0,a5
   160da:	00000073          	ecall
   160de:	458d                	li	a1,3
   160e0:	4711                	li	a4,4
   160e2:	853e                	mv	a0,a5
   160e4:	4601                	li	a2,0
   160e6:	4681                	li	a3,0
   160e8:	00000073          	ecall
   160ec:	40fa                	lw	ra,156(sp)
   160ee:	446a                	lw	s0,152(sp)
   160f0:	44da                	lw	s1,148(sp)
   160f2:	610d                	addi	sp,sp,160
   160f4:	8082                	ret
   160f6:	8526                	mv	a0,s1
   160f8:	4601                	li	a2,0
   160fa:	4681                	li	a3,0
   160fc:	45a5                	li	a1,9
   160fe:	470d                	li	a4,3
   16100:	00000073          	ecall
   16104:	45a5                	li	a1,9
   16106:	470d                	li	a4,3
   16108:	8526                	mv	a0,s1
   1610a:	4601                	li	a2,0
   1610c:	4681                	li	a3,0
   1610e:	00000073          	ecall
   16112:	00140513          	addi	a0,s0,1
   16116:	08ac                	addi	a1,sp,88
   16118:	03c00613          	li	a2,60
   1611c:	00005097          	auipc	ra,0x5
   16120:	afa080e7          	jalr	-1286(ra) # 1ac16 <memcpy>
   16124:	8526                	mv	a0,s1
   16126:	4601                	li	a2,0
   16128:	4681                	li	a3,0
   1612a:	00040023          	sb	zero,0(s0)
   1612e:	45a5                	li	a1,9
   16130:	470d                	li	a4,3
   16132:	00000073          	ecall
   16136:	458d                	li	a1,3
   16138:	4711                	li	a4,4
   1613a:	8526                	mv	a0,s1
   1613c:	4601                	li	a2,0
   1613e:	4681                	li	a3,0
   16140:	00000073          	ecall
   16144:	b765                	j	160ec <_ZN18complex_no_dynamic3app17hc9ae9b2918b638cbE+0xa0>

00016146 <_ZN18complex_no_dynamic3app17hd10f17feb7c09fa4E>:
   16146:	7159                	addi	sp,sp,-112
   16148:	d686                	sw	ra,108(sp)
   1614a:	d4a2                	sw	s0,104(sp)
   1614c:	d2a6                	sw	s1,100(sp)
   1614e:	842a                	mv	s0,a0
   16150:	00e10513          	addi	a0,sp,14
   16154:	4649                	li	a2,18
   16156:	00005097          	auipc	ra,0x5
   1615a:	ac0080e7          	jalr	-1344(ra) # 1ac16 <memcpy>
   1615e:	1008                	addi	a0,sp,32
   16160:	04400613          	li	a2,68
   16164:	4581                	li	a1,0
   16166:	00005097          	auipc	ra,0x5
   1616a:	a44080e7          	jalr	-1468(ra) # 1abaa <memset>
   1616e:	6509                	lui	a0,0x2
   16170:	4489                	li	s1,2
   16172:	4589                	li	a1,2
   16174:	00e10613          	addi	a2,sp,14
   16178:	43250793          	addi	a5,a0,1074 # 2432 <.Lline_table_start1+0x2207>
   1617c:	46c9                	li	a3,18
   1617e:	4711                	li	a4,4
   16180:	853e                	mv	a0,a5
   16182:	00000073          	ecall
   16186:	02950a63          	beq	a0,s1,161ba <_ZN18complex_no_dynamic3app17hd10f17feb7c09fa4E+0x74>
   1618a:	45a5                	li	a1,9
   1618c:	1010                	addi	a2,sp,32
   1618e:	04400693          	li	a3,68
   16192:	470d                	li	a4,3
   16194:	853e                	mv	a0,a5
   16196:	00000073          	ecall
   1619a:	02950063          	beq	a0,s1,161ba <_ZN18complex_no_dynamic3app17hd10f17feb7c09fa4E+0x74>
   1619e:	6509                	lui	a0,0x2
   161a0:	4589                	li	a1,2
   161a2:	4625                	li	a2,9
   161a4:	43250493          	addi	s1,a0,1074 # 2432 <.Lline_table_start1+0x2207>
   161a8:	4709                	li	a4,2
   161aa:	07f00793          	li	a5,127
   161ae:	8526                	mv	a0,s1
   161b0:	4681                	li	a3,0
   161b2:	00000073          	ecall
   161b6:	02a7ed63          	bltu	a5,a0,161f0 <_ZN18complex_no_dynamic3app17hd10f17feb7c09fa4E+0xaa>
   161ba:	872e                	mv	a4,a1
   161bc:	4601                	li	a2,0
   161be:	4681                	li	a3,0
   161c0:	4505                	li	a0,1
   161c2:	6789                	lui	a5,0x2
   161c4:	45a5                	li	a1,9
   161c6:	00a40023          	sb	a0,0(s0)
   161ca:	c058                	sw	a4,4(s0)
   161cc:	43278793          	addi	a5,a5,1074 # 2432 <.Lline_table_start1+0x2207>
   161d0:	470d                	li	a4,3
   161d2:	853e                	mv	a0,a5
   161d4:	00000073          	ecall
   161d8:	4589                	li	a1,2
   161da:	4711                	li	a4,4
   161dc:	853e                	mv	a0,a5
   161de:	4601                	li	a2,0
   161e0:	4681                	li	a3,0
   161e2:	00000073          	ecall
   161e6:	50b6                	lw	ra,108(sp)
   161e8:	5426                	lw	s0,104(sp)
   161ea:	5496                	lw	s1,100(sp)
   161ec:	6165                	addi	sp,sp,112
   161ee:	8082                	ret
   161f0:	8526                	mv	a0,s1
   161f2:	4601                	li	a2,0
   161f4:	4681                	li	a3,0
   161f6:	45a5                	li	a1,9
   161f8:	470d                	li	a4,3
   161fa:	00000073          	ecall
   161fe:	45a5                	li	a1,9
   16200:	470d                	li	a4,3
   16202:	8526                	mv	a0,s1
   16204:	4601                	li	a2,0
   16206:	4681                	li	a3,0
   16208:	00000073          	ecall
   1620c:	00140513          	addi	a0,s0,1
   16210:	100c                	addi	a1,sp,32
   16212:	04400613          	li	a2,68
   16216:	00005097          	auipc	ra,0x5
   1621a:	a00080e7          	jalr	-1536(ra) # 1ac16 <memcpy>
   1621e:	8526                	mv	a0,s1
   16220:	4601                	li	a2,0
   16222:	4681                	li	a3,0
   16224:	00040023          	sb	zero,0(s0)
   16228:	45a5                	li	a1,9
   1622a:	470d                	li	a4,3
   1622c:	00000073          	ecall
   16230:	4589                	li	a1,2
   16232:	4711                	li	a4,4
   16234:	8526                	mv	a0,s1
   16236:	4601                	li	a2,0
   16238:	4681                	li	a3,0
   1623a:	00000073          	ecall
   1623e:	b765                	j	161e6 <_ZN18complex_no_dynamic3app17hd10f17feb7c09fa4E+0xa0>

00016240 <_ZN18complex_no_dynamic3app17hd2178f68ec29decbE>:
   16240:	711d                	addi	sp,sp,-96
   16242:	ce86                	sw	ra,92(sp)
   16244:	cca2                	sw	s0,88(sp)
   16246:	caa6                	sw	s1,84(sp)
   16248:	c8ca                	sw	s2,80(sp)
   1624a:	892a                	mv	s2,a0
   1624c:	00c5c803          	lbu	a6,12(a1)
   16250:	00d5c603          	lbu	a2,13(a1)
   16254:	00e5c683          	lbu	a3,14(a1)
   16258:	00f5c703          	lbu	a4,15(a1)
   1625c:	0085c783          	lbu	a5,8(a1)
   16260:	0095c483          	lbu	s1,9(a1)
   16264:	00a5c403          	lbu	s0,10(a1)
   16268:	00b5c503          	lbu	a0,11(a1)
   1626c:	0622                	slli	a2,a2,0x8
   1626e:	06c2                	slli	a3,a3,0x10
   16270:	0762                	slli	a4,a4,0x18
   16272:	04a2                	slli	s1,s1,0x8
   16274:	01066833          	or	a6,a2,a6
   16278:	00d768b3          	or	a7,a4,a3
   1627c:	8fc5                	or	a5,a5,s1
   1627e:	0045c703          	lbu	a4,4(a1)
   16282:	0055c483          	lbu	s1,5(a1)
   16286:	0065c603          	lbu	a2,6(a1)
   1628a:	0075c683          	lbu	a3,7(a1)
   1628e:	0442                	slli	s0,s0,0x10
   16290:	0562                	slli	a0,a0,0x18
   16292:	04a2                	slli	s1,s1,0x8
   16294:	0642                	slli	a2,a2,0x10
   16296:	06e2                	slli	a3,a3,0x18
   16298:	8d41                	or	a0,a0,s0
   1629a:	8f45                	or	a4,a4,s1
   1629c:	0005c483          	lbu	s1,0(a1)
   162a0:	0015c403          	lbu	s0,1(a1)
   162a4:	8e55                	or	a2,a2,a3
   162a6:	0025c683          	lbu	a3,2(a1)
   162aa:	0035c583          	lbu	a1,3(a1)
   162ae:	0422                	slli	s0,s0,0x8
   162b0:	8c45                	or	s0,s0,s1
   162b2:	06c2                	slli	a3,a3,0x10
   162b4:	05e2                	slli	a1,a1,0x18
   162b6:	8dd5                	or	a1,a1,a3
   162b8:	0108e6b3          	or	a3,a7,a6
   162bc:	8d5d                	or	a0,a0,a5
   162be:	8e59                	or	a2,a2,a4
   162c0:	8dc1                	or	a1,a1,s0
   162c2:	c42e                	sw	a1,8(sp)
   162c4:	c632                	sw	a2,12(sp)
   162c6:	c82a                	sw	a0,16(sp)
   162c8:	ca36                	sw	a3,20(sp)
   162ca:	01a10513          	addi	a0,sp,26
   162ce:	03600613          	li	a2,54
   162d2:	4581                	li	a1,0
   162d4:	00005097          	auipc	ra,0x5
   162d8:	8d6080e7          	jalr	-1834(ra) # 1abaa <memset>
   162dc:	6509                	lui	a0,0x2
   162de:	4585                	li	a1,1
   162e0:	0030                	addi	a2,sp,8
   162e2:	46c1                	li	a3,16
   162e4:	98950793          	addi	a5,a0,-1655 # 1989 <.Lline_table_start1+0x175e>
   162e8:	4711                	li	a4,4
   162ea:	4489                	li	s1,2
   162ec:	853e                	mv	a0,a5
   162ee:	00000073          	ecall
   162f2:	02950b63          	beq	a0,s1,16328 <_ZN18complex_no_dynamic3app17hd2178f68ec29decbE+0xe8>
   162f6:	459d                	li	a1,7
   162f8:	01a10613          	addi	a2,sp,26
   162fc:	03600693          	li	a3,54
   16300:	470d                	li	a4,3
   16302:	853e                	mv	a0,a5
   16304:	00000073          	ecall
   16308:	02950063          	beq	a0,s1,16328 <_ZN18complex_no_dynamic3app17hd2178f68ec29decbE+0xe8>
   1630c:	6509                	lui	a0,0x2
   1630e:	4585                	li	a1,1
   16310:	461d                	li	a2,7
   16312:	98950493          	addi	s1,a0,-1655 # 1989 <.Lline_table_start1+0x175e>
   16316:	4709                	li	a4,2
   16318:	07f00793          	li	a5,127
   1631c:	8526                	mv	a0,s1
   1631e:	4681                	li	a3,0
   16320:	00000073          	ecall
   16324:	02a7ef63          	bltu	a5,a0,16362 <_ZN18complex_no_dynamic3app17hd2178f68ec29decbE+0x122>
   16328:	872e                	mv	a4,a1
   1632a:	4601                	li	a2,0
   1632c:	4681                	li	a3,0
   1632e:	4505                	li	a0,1
   16330:	6789                	lui	a5,0x2
   16332:	459d                	li	a1,7
   16334:	00a90023          	sb	a0,0(s2)
   16338:	00e92223          	sw	a4,4(s2)
   1633c:	98978793          	addi	a5,a5,-1655 # 1989 <.Lline_table_start1+0x175e>
   16340:	470d                	li	a4,3
   16342:	853e                	mv	a0,a5
   16344:	00000073          	ecall
   16348:	4585                	li	a1,1
   1634a:	4711                	li	a4,4
   1634c:	853e                	mv	a0,a5
   1634e:	4601                	li	a2,0
   16350:	4681                	li	a3,0
   16352:	00000073          	ecall
   16356:	40f6                	lw	ra,92(sp)
   16358:	4466                	lw	s0,88(sp)
   1635a:	44d6                	lw	s1,84(sp)
   1635c:	4946                	lw	s2,80(sp)
   1635e:	6125                	addi	sp,sp,96
   16360:	8082                	ret
   16362:	8526                	mv	a0,s1
   16364:	4601                	li	a2,0
   16366:	4681                	li	a3,0
   16368:	459d                	li	a1,7
   1636a:	470d                	li	a4,3
   1636c:	00000073          	ecall
   16370:	459d                	li	a1,7
   16372:	470d                	li	a4,3
   16374:	8526                	mv	a0,s1
   16376:	4601                	li	a2,0
   16378:	4681                	li	a3,0
   1637a:	00000073          	ecall
   1637e:	00190513          	addi	a0,s2,1
   16382:	01a10593          	addi	a1,sp,26
   16386:	03600613          	li	a2,54
   1638a:	00005097          	auipc	ra,0x5
   1638e:	88c080e7          	jalr	-1908(ra) # 1ac16 <memcpy>
   16392:	8526                	mv	a0,s1
   16394:	4601                	li	a2,0
   16396:	4681                	li	a3,0
   16398:	00090023          	sb	zero,0(s2)
   1639c:	459d                	li	a1,7
   1639e:	470d                	li	a4,3
   163a0:	00000073          	ecall
   163a4:	4585                	li	a1,1
   163a6:	4711                	li	a4,4
   163a8:	8526                	mv	a0,s1
   163aa:	4601                	li	a2,0
   163ac:	4681                	li	a3,0
   163ae:	00000073          	ecall
   163b2:	b755                	j	16356 <_ZN18complex_no_dynamic3app17hd2178f68ec29decbE+0x116>

000163b4 <_ZN18complex_no_dynamic3app17hd89938942323e178E>:
   163b4:	7159                	addi	sp,sp,-112
   163b6:	d686                	sw	ra,108(sp)
   163b8:	d4a2                	sw	s0,104(sp)
   163ba:	842a                	mv	s0,a0
   163bc:	850a                	mv	a0,sp
   163be:	464d                	li	a2,19
   163c0:	00005097          	auipc	ra,0x5
   163c4:	856080e7          	jalr	-1962(ra) # 1ac16 <memcpy>
   163c8:	01310513          	addi	a0,sp,19
   163cc:	05500613          	li	a2,85
   163d0:	4581                	li	a1,0
   163d2:	00004097          	auipc	ra,0x4
   163d6:	7d8080e7          	jalr	2008(ra) # 1abaa <memset>
   163da:	32e00513          	li	a0,814
   163de:	45a5                	li	a1,9
   163e0:	860a                	mv	a2,sp
   163e2:	46cd                	li	a3,19
   163e4:	4711                	li	a4,4
   163e6:	4789                	li	a5,2
   163e8:	00000073          	ecall
   163ec:	02f50a63          	beq	a0,a5,16420 <_ZN18complex_no_dynamic3app17hd89938942323e178E+0x6c>
   163f0:	32e00513          	li	a0,814
   163f4:	459d                	li	a1,7
   163f6:	01310613          	addi	a2,sp,19
   163fa:	05500693          	li	a3,85
   163fe:	470d                	li	a4,3
   16400:	00000073          	ecall
   16404:	00f50e63          	beq	a0,a5,16420 <_ZN18complex_no_dynamic3app17hd89938942323e178E+0x6c>
   16408:	32e00513          	li	a0,814
   1640c:	45a5                	li	a1,9
   1640e:	461d                	li	a2,7
   16410:	4709                	li	a4,2
   16412:	07f00793          	li	a5,127
   16416:	4681                	li	a3,0
   16418:	00000073          	ecall
   1641c:	02a7ea63          	bltu	a5,a0,16450 <_ZN18complex_no_dynamic3app17hd89938942323e178E+0x9c>
   16420:	4601                	li	a2,0
   16422:	4681                	li	a3,0
   16424:	4705                	li	a4,1
   16426:	32e00513          	li	a0,814
   1642a:	00e40023          	sb	a4,0(s0)
   1642e:	c04c                	sw	a1,4(s0)
   16430:	459d                	li	a1,7
   16432:	470d                	li	a4,3
   16434:	00000073          	ecall
   16438:	32e00513          	li	a0,814
   1643c:	45a5                	li	a1,9
   1643e:	4711                	li	a4,4
   16440:	4601                	li	a2,0
   16442:	4681                	li	a3,0
   16444:	00000073          	ecall
   16448:	50b6                	lw	ra,108(sp)
   1644a:	5426                	lw	s0,104(sp)
   1644c:	6165                	addi	sp,sp,112
   1644e:	8082                	ret
   16450:	4601                	li	a2,0
   16452:	4681                	li	a3,0
   16454:	32e00513          	li	a0,814
   16458:	459d                	li	a1,7
   1645a:	470d                	li	a4,3
   1645c:	00000073          	ecall
   16460:	32e00513          	li	a0,814
   16464:	459d                	li	a1,7
   16466:	470d                	li	a4,3
   16468:	4601                	li	a2,0
   1646a:	4681                	li	a3,0
   1646c:	00000073          	ecall
   16470:	00140513          	addi	a0,s0,1
   16474:	01310593          	addi	a1,sp,19
   16478:	05500613          	li	a2,85
   1647c:	00004097          	auipc	ra,0x4
   16480:	79a080e7          	jalr	1946(ra) # 1ac16 <memcpy>
   16484:	4601                	li	a2,0
   16486:	4681                	li	a3,0
   16488:	00040023          	sb	zero,0(s0)
   1648c:	32e00513          	li	a0,814
   16490:	459d                	li	a1,7
   16492:	470d                	li	a4,3
   16494:	00000073          	ecall
   16498:	32e00513          	li	a0,814
   1649c:	45a5                	li	a1,9
   1649e:	4711                	li	a4,4
   164a0:	4601                	li	a2,0
   164a2:	4681                	li	a3,0
   164a4:	00000073          	ecall
   164a8:	b745                	j	16448 <_ZN18complex_no_dynamic3app17hd89938942323e178E+0x94>

000164aa <_ZN18complex_no_dynamic3app17hdcd6443e7b9b1069E>:
   164aa:	7159                	addi	sp,sp,-112
   164ac:	d686                	sw	ra,108(sp)
   164ae:	d4a2                	sw	s0,104(sp)
   164b0:	d2a6                	sw	s1,100(sp)
   164b2:	842a                	mv	s0,a0
   164b4:	0048                	addi	a0,sp,4
   164b6:	05100613          	li	a2,81
   164ba:	00004097          	auipc	ra,0x4
   164be:	75c080e7          	jalr	1884(ra) # 1ac16 <memcpy>
   164c2:	05510513          	addi	a0,sp,85
   164c6:	463d                	li	a2,15
   164c8:	4581                	li	a1,0
   164ca:	00004097          	auipc	ra,0x4
   164ce:	6e0080e7          	jalr	1760(ra) # 1abaa <memset>
   164d2:	6505                	lui	a0,0x1
   164d4:	0050                	addi	a2,sp,4
   164d6:	05100693          	li	a3,81
   164da:	3bf50793          	addi	a5,a0,959 # 13bf <.Lline_table_start1+0x1194>
   164de:	4711                	li	a4,4
   164e0:	4489                	li	s1,2
   164e2:	853e                	mv	a0,a5
   164e4:	4581                	li	a1,0
   164e6:	00000073          	ecall
   164ea:	02950a63          	beq	a0,s1,1651e <_ZN18complex_no_dynamic3app17hdcd6443e7b9b1069E+0x74>
   164ee:	458d                	li	a1,3
   164f0:	05510613          	addi	a2,sp,85
   164f4:	46bd                	li	a3,15
   164f6:	470d                	li	a4,3
   164f8:	853e                	mv	a0,a5
   164fa:	00000073          	ecall
   164fe:	02950063          	beq	a0,s1,1651e <_ZN18complex_no_dynamic3app17hdcd6443e7b9b1069E+0x74>
   16502:	6505                	lui	a0,0x1
   16504:	460d                	li	a2,3
   16506:	3bf50493          	addi	s1,a0,959 # 13bf <.Lline_table_start1+0x1194>
   1650a:	4709                	li	a4,2
   1650c:	07f00793          	li	a5,127
   16510:	8526                	mv	a0,s1
   16512:	4581                	li	a1,0
   16514:	4681                	li	a3,0
   16516:	00000073          	ecall
   1651a:	02a7ec63          	bltu	a5,a0,16552 <_ZN18complex_no_dynamic3app17hdcd6443e7b9b1069E+0xa8>
   1651e:	4505                	li	a0,1
   16520:	6605                	lui	a2,0x1
   16522:	00a40023          	sb	a0,0(s0)
   16526:	c04c                	sw	a1,4(s0)
   16528:	3bf60793          	addi	a5,a2,959 # 13bf <.Lline_table_start1+0x1194>
   1652c:	458d                	li	a1,3
   1652e:	470d                	li	a4,3
   16530:	853e                	mv	a0,a5
   16532:	4601                	li	a2,0
   16534:	4681                	li	a3,0
   16536:	00000073          	ecall
   1653a:	4711                	li	a4,4
   1653c:	853e                	mv	a0,a5
   1653e:	4581                	li	a1,0
   16540:	4601                	li	a2,0
   16542:	4681                	li	a3,0
   16544:	00000073          	ecall
   16548:	50b6                	lw	ra,108(sp)
   1654a:	5426                	lw	s0,104(sp)
   1654c:	5496                	lw	s1,100(sp)
   1654e:	6165                	addi	sp,sp,112
   16550:	8082                	ret
   16552:	8526                	mv	a0,s1
   16554:	4601                	li	a2,0
   16556:	4681                	li	a3,0
   16558:	458d                	li	a1,3
   1655a:	470d                	li	a4,3
   1655c:	00000073          	ecall
   16560:	458d                	li	a1,3
   16562:	470d                	li	a4,3
   16564:	8526                	mv	a0,s1
   16566:	4601                	li	a2,0
   16568:	4681                	li	a3,0
   1656a:	00000073          	ecall
   1656e:	00140513          	addi	a0,s0,1
   16572:	05510593          	addi	a1,sp,85
   16576:	463d                	li	a2,15
   16578:	00004097          	auipc	ra,0x4
   1657c:	69e080e7          	jalr	1694(ra) # 1ac16 <memcpy>
   16580:	00040023          	sb	zero,0(s0)
   16584:	458d                	li	a1,3
   16586:	470d                	li	a4,3
   16588:	8526                	mv	a0,s1
   1658a:	4601                	li	a2,0
   1658c:	4681                	li	a3,0
   1658e:	00000073          	ecall
   16592:	4711                	li	a4,4
   16594:	8526                	mv	a0,s1
   16596:	4581                	li	a1,0
   16598:	4601                	li	a2,0
   1659a:	4681                	li	a3,0
   1659c:	00000073          	ecall
   165a0:	b765                	j	16548 <_ZN18complex_no_dynamic3app17hdcd6443e7b9b1069E+0x9e>

000165a2 <_ZN18complex_no_dynamic3app17hdd94b0165ec8b1b8E>:
   165a2:	7159                	addi	sp,sp,-112
   165a4:	d686                	sw	ra,108(sp)
   165a6:	d4a2                	sw	s0,104(sp)
   165a8:	d2a6                	sw	s1,100(sp)
   165aa:	842a                	mv	s0,a0
   165ac:	00310513          	addi	a0,sp,3
   165b0:	4645                	li	a2,17
   165b2:	00004097          	auipc	ra,0x4
   165b6:	664080e7          	jalr	1636(ra) # 1ac16 <memcpy>
   165ba:	0848                	addi	a0,sp,20
   165bc:	05000613          	li	a2,80
   165c0:	4581                	li	a1,0
   165c2:	00004097          	auipc	ra,0x4
   165c6:	5e8080e7          	jalr	1512(ra) # 1abaa <memset>
   165ca:	6509                	lui	a0,0x2
   165cc:	4599                	li	a1,6
   165ce:	00310613          	addi	a2,sp,3
   165d2:	46c5                	li	a3,17
   165d4:	aa950793          	addi	a5,a0,-1367 # 1aa9 <.Lline_table_start1+0x187e>
   165d8:	4711                	li	a4,4
   165da:	4489                	li	s1,2
   165dc:	853e                	mv	a0,a5
   165de:	00000073          	ecall
   165e2:	02950a63          	beq	a0,s1,16616 <_ZN18complex_no_dynamic3app17hdd94b0165ec8b1b8E+0x74>
   165e6:	4595                	li	a1,5
   165e8:	0850                	addi	a2,sp,20
   165ea:	05000693          	li	a3,80
   165ee:	470d                	li	a4,3
   165f0:	853e                	mv	a0,a5
   165f2:	00000073          	ecall
   165f6:	02950063          	beq	a0,s1,16616 <_ZN18complex_no_dynamic3app17hdd94b0165ec8b1b8E+0x74>
   165fa:	6509                	lui	a0,0x2
   165fc:	4599                	li	a1,6
   165fe:	4615                	li	a2,5
   16600:	aa950493          	addi	s1,a0,-1367 # 1aa9 <.Lline_table_start1+0x187e>
   16604:	4709                	li	a4,2
   16606:	07f00793          	li	a5,127
   1660a:	8526                	mv	a0,s1
   1660c:	4681                	li	a3,0
   1660e:	00000073          	ecall
   16612:	02a7ed63          	bltu	a5,a0,1664c <_ZN18complex_no_dynamic3app17hdd94b0165ec8b1b8E+0xaa>
   16616:	872e                	mv	a4,a1
   16618:	4601                	li	a2,0
   1661a:	4681                	li	a3,0
   1661c:	4505                	li	a0,1
   1661e:	6789                	lui	a5,0x2
   16620:	4595                	li	a1,5
   16622:	00a40023          	sb	a0,0(s0)
   16626:	c058                	sw	a4,4(s0)
   16628:	aa978793          	addi	a5,a5,-1367 # 1aa9 <.Lline_table_start1+0x187e>
   1662c:	470d                	li	a4,3
   1662e:	853e                	mv	a0,a5
   16630:	00000073          	ecall
   16634:	4599                	li	a1,6
   16636:	4711                	li	a4,4
   16638:	853e                	mv	a0,a5
   1663a:	4601                	li	a2,0
   1663c:	4681                	li	a3,0
   1663e:	00000073          	ecall
   16642:	50b6                	lw	ra,108(sp)
   16644:	5426                	lw	s0,104(sp)
   16646:	5496                	lw	s1,100(sp)
   16648:	6165                	addi	sp,sp,112
   1664a:	8082                	ret
   1664c:	8526                	mv	a0,s1
   1664e:	4601                	li	a2,0
   16650:	4681                	li	a3,0
   16652:	4595                	li	a1,5
   16654:	470d                	li	a4,3
   16656:	00000073          	ecall
   1665a:	4595                	li	a1,5
   1665c:	470d                	li	a4,3
   1665e:	8526                	mv	a0,s1
   16660:	4601                	li	a2,0
   16662:	4681                	li	a3,0
   16664:	00000073          	ecall
   16668:	00140513          	addi	a0,s0,1
   1666c:	084c                	addi	a1,sp,20
   1666e:	05000613          	li	a2,80
   16672:	00004097          	auipc	ra,0x4
   16676:	5a4080e7          	jalr	1444(ra) # 1ac16 <memcpy>
   1667a:	8526                	mv	a0,s1
   1667c:	4601                	li	a2,0
   1667e:	4681                	li	a3,0
   16680:	00040023          	sb	zero,0(s0)
   16684:	4595                	li	a1,5
   16686:	470d                	li	a4,3
   16688:	00000073          	ecall
   1668c:	4599                	li	a1,6
   1668e:	4711                	li	a4,4
   16690:	8526                	mv	a0,s1
   16692:	4601                	li	a2,0
   16694:	4681                	li	a3,0
   16696:	00000073          	ecall
   1669a:	b765                	j	16642 <_ZN18complex_no_dynamic3app17hdd94b0165ec8b1b8E+0xa0>

0001669c <_ZN18complex_no_dynamic3app17he40e0ff11db3deceE>:
   1669c:	715d                	addi	sp,sp,-80
   1669e:	c686                	sw	ra,76(sp)
   166a0:	c4a2                	sw	s0,72(sp)
   166a2:	c2a6                	sw	s1,68(sp)
   166a4:	842a                	mv	s0,a0
   166a6:	00110513          	addi	a0,sp,1
   166aa:	02900613          	li	a2,41
   166ae:	00004097          	auipc	ra,0x4
   166b2:	568080e7          	jalr	1384(ra) # 1ac16 <memcpy>
   166b6:	02a10513          	addi	a0,sp,42
   166ba:	4669                	li	a2,26
   166bc:	4581                	li	a1,0
   166be:	00004097          	auipc	ra,0x4
   166c2:	4ec080e7          	jalr	1260(ra) # 1abaa <memset>
   166c6:	6509                	lui	a0,0x2
   166c8:	4595                	li	a1,5
   166ca:	00110613          	addi	a2,sp,1
   166ce:	02900693          	li	a3,41
   166d2:	04850793          	addi	a5,a0,72 # 2048 <.Lline_table_start1+0x1e1d>
   166d6:	4711                	li	a4,4
   166d8:	4489                	li	s1,2
   166da:	853e                	mv	a0,a5
   166dc:	00000073          	ecall
   166e0:	02950a63          	beq	a0,s1,16714 <_ZN18complex_no_dynamic3app17he40e0ff11db3deceE+0x78>
   166e4:	458d                	li	a1,3
   166e6:	02a10613          	addi	a2,sp,42
   166ea:	46e9                	li	a3,26
   166ec:	470d                	li	a4,3
   166ee:	853e                	mv	a0,a5
   166f0:	00000073          	ecall
   166f4:	02950063          	beq	a0,s1,16714 <_ZN18complex_no_dynamic3app17he40e0ff11db3deceE+0x78>
   166f8:	6509                	lui	a0,0x2
   166fa:	4595                	li	a1,5
   166fc:	460d                	li	a2,3
   166fe:	04850493          	addi	s1,a0,72 # 2048 <.Lline_table_start1+0x1e1d>
   16702:	4709                	li	a4,2
   16704:	07f00793          	li	a5,127
   16708:	8526                	mv	a0,s1
   1670a:	4681                	li	a3,0
   1670c:	00000073          	ecall
   16710:	02a7ed63          	bltu	a5,a0,1674a <_ZN18complex_no_dynamic3app17he40e0ff11db3deceE+0xae>
   16714:	872e                	mv	a4,a1
   16716:	4601                	li	a2,0
   16718:	4681                	li	a3,0
   1671a:	4505                	li	a0,1
   1671c:	6789                	lui	a5,0x2
   1671e:	458d                	li	a1,3
   16720:	00a40023          	sb	a0,0(s0)
   16724:	c058                	sw	a4,4(s0)
   16726:	04878793          	addi	a5,a5,72 # 2048 <.Lline_table_start1+0x1e1d>
   1672a:	470d                	li	a4,3
   1672c:	853e                	mv	a0,a5
   1672e:	00000073          	ecall
   16732:	4595                	li	a1,5
   16734:	4711                	li	a4,4
   16736:	853e                	mv	a0,a5
   16738:	4601                	li	a2,0
   1673a:	4681                	li	a3,0
   1673c:	00000073          	ecall
   16740:	40b6                	lw	ra,76(sp)
   16742:	4426                	lw	s0,72(sp)
   16744:	4496                	lw	s1,68(sp)
   16746:	6161                	addi	sp,sp,80
   16748:	8082                	ret
   1674a:	8526                	mv	a0,s1
   1674c:	4601                	li	a2,0
   1674e:	4681                	li	a3,0
   16750:	458d                	li	a1,3
   16752:	470d                	li	a4,3
   16754:	00000073          	ecall
   16758:	458d                	li	a1,3
   1675a:	470d                	li	a4,3
   1675c:	8526                	mv	a0,s1
   1675e:	4601                	li	a2,0
   16760:	4681                	li	a3,0
   16762:	00000073          	ecall
   16766:	00140513          	addi	a0,s0,1
   1676a:	02a10593          	addi	a1,sp,42
   1676e:	4669                	li	a2,26
   16770:	00004097          	auipc	ra,0x4
   16774:	4a6080e7          	jalr	1190(ra) # 1ac16 <memcpy>
   16778:	8526                	mv	a0,s1
   1677a:	4601                	li	a2,0
   1677c:	4681                	li	a3,0
   1677e:	00040023          	sb	zero,0(s0)
   16782:	458d                	li	a1,3
   16784:	470d                	li	a4,3
   16786:	00000073          	ecall
   1678a:	4595                	li	a1,5
   1678c:	4711                	li	a4,4
   1678e:	8526                	mv	a0,s1
   16790:	4601                	li	a2,0
   16792:	4681                	li	a3,0
   16794:	00000073          	ecall
   16798:	b765                	j	16740 <_ZN18complex_no_dynamic3app17he40e0ff11db3deceE+0xa4>

0001679a <_ZN18complex_no_dynamic3app17heb6b0550e1130882E>:
   1679a:	711d                	addi	sp,sp,-96
   1679c:	ce86                	sw	ra,92(sp)
   1679e:	cca2                	sw	s0,88(sp)
   167a0:	caa6                	sw	s1,84(sp)
   167a2:	842a                	mv	s0,a0
   167a4:	00210513          	addi	a0,sp,2
   167a8:	02a00613          	li	a2,42
   167ac:	00004097          	auipc	ra,0x4
   167b0:	46a080e7          	jalr	1130(ra) # 1ac16 <memcpy>
   167b4:	1068                	addi	a0,sp,44
   167b6:	02800613          	li	a2,40
   167ba:	4581                	li	a1,0
   167bc:	00004097          	auipc	ra,0x4
   167c0:	3ee080e7          	jalr	1006(ra) # 1abaa <memset>
   167c4:	6509                	lui	a0,0x2
   167c6:	4591                	li	a1,4
   167c8:	00210613          	addi	a2,sp,2
   167cc:	02a00693          	li	a3,42
   167d0:	efa50793          	addi	a5,a0,-262 # 1efa <.Lline_table_start1+0x1ccf>
   167d4:	4711                	li	a4,4
   167d6:	4489                	li	s1,2
   167d8:	853e                	mv	a0,a5
   167da:	00000073          	ecall
   167de:	02950a63          	beq	a0,s1,16812 <_ZN18complex_no_dynamic3app17heb6b0550e1130882E+0x78>
   167e2:	45a1                	li	a1,8
   167e4:	1070                	addi	a2,sp,44
   167e6:	02800693          	li	a3,40
   167ea:	470d                	li	a4,3
   167ec:	853e                	mv	a0,a5
   167ee:	00000073          	ecall
   167f2:	02950063          	beq	a0,s1,16812 <_ZN18complex_no_dynamic3app17heb6b0550e1130882E+0x78>
   167f6:	6509                	lui	a0,0x2
   167f8:	4591                	li	a1,4
   167fa:	4621                	li	a2,8
   167fc:	efa50493          	addi	s1,a0,-262 # 1efa <.Lline_table_start1+0x1ccf>
   16800:	4709                	li	a4,2
   16802:	07f00793          	li	a5,127
   16806:	8526                	mv	a0,s1
   16808:	4681                	li	a3,0
   1680a:	00000073          	ecall
   1680e:	02a7ed63          	bltu	a5,a0,16848 <_ZN18complex_no_dynamic3app17heb6b0550e1130882E+0xae>
   16812:	872e                	mv	a4,a1
   16814:	4601                	li	a2,0
   16816:	4681                	li	a3,0
   16818:	4505                	li	a0,1
   1681a:	6789                	lui	a5,0x2
   1681c:	45a1                	li	a1,8
   1681e:	00a40023          	sb	a0,0(s0)
   16822:	c058                	sw	a4,4(s0)
   16824:	efa78793          	addi	a5,a5,-262 # 1efa <.Lline_table_start1+0x1ccf>
   16828:	470d                	li	a4,3
   1682a:	853e                	mv	a0,a5
   1682c:	00000073          	ecall
   16830:	4591                	li	a1,4
   16832:	4711                	li	a4,4
   16834:	853e                	mv	a0,a5
   16836:	4601                	li	a2,0
   16838:	4681                	li	a3,0
   1683a:	00000073          	ecall
   1683e:	40f6                	lw	ra,92(sp)
   16840:	4466                	lw	s0,88(sp)
   16842:	44d6                	lw	s1,84(sp)
   16844:	6125                	addi	sp,sp,96
   16846:	8082                	ret
   16848:	8526                	mv	a0,s1
   1684a:	4601                	li	a2,0
   1684c:	4681                	li	a3,0
   1684e:	45a1                	li	a1,8
   16850:	470d                	li	a4,3
   16852:	00000073          	ecall
   16856:	45a1                	li	a1,8
   16858:	470d                	li	a4,3
   1685a:	8526                	mv	a0,s1
   1685c:	4601                	li	a2,0
   1685e:	4681                	li	a3,0
   16860:	00000073          	ecall
   16864:	00140513          	addi	a0,s0,1
   16868:	106c                	addi	a1,sp,44
   1686a:	02800613          	li	a2,40
   1686e:	00004097          	auipc	ra,0x4
   16872:	3a8080e7          	jalr	936(ra) # 1ac16 <memcpy>
   16876:	8526                	mv	a0,s1
   16878:	4601                	li	a2,0
   1687a:	4681                	li	a3,0
   1687c:	00040023          	sb	zero,0(s0)
   16880:	45a1                	li	a1,8
   16882:	470d                	li	a4,3
   16884:	00000073          	ecall
   16888:	4591                	li	a1,4
   1688a:	4711                	li	a4,4
   1688c:	8526                	mv	a0,s1
   1688e:	4601                	li	a2,0
   16890:	4681                	li	a3,0
   16892:	00000073          	ecall
   16896:	b765                	j	1683e <_ZN18complex_no_dynamic3app17heb6b0550e1130882E+0xa4>

00016898 <_ZN18complex_no_dynamic3app17hf09a0a251d20990fE>:
   16898:	7159                	addi	sp,sp,-112
   1689a:	d686                	sw	ra,108(sp)
   1689c:	d4a2                	sw	s0,104(sp)
   1689e:	d2a6                	sw	s1,100(sp)
   168a0:	842a                	mv	s0,a0
   168a2:	00110513          	addi	a0,sp,1
   168a6:	04100613          	li	a2,65
   168aa:	00004097          	auipc	ra,0x4
   168ae:	36c080e7          	jalr	876(ra) # 1ac16 <memcpy>
   168b2:	04210513          	addi	a0,sp,66
   168b6:	02200613          	li	a2,34
   168ba:	4581                	li	a1,0
   168bc:	00004097          	auipc	ra,0x4
   168c0:	2ee080e7          	jalr	750(ra) # 1abaa <memset>
   168c4:	6509                	lui	a0,0x2
   168c6:	4585                	li	a1,1
   168c8:	00110613          	addi	a2,sp,1
   168cc:	04100693          	li	a3,65
   168d0:	47c50793          	addi	a5,a0,1148 # 247c <.Lline_table_start1+0x2251>
   168d4:	4711                	li	a4,4
   168d6:	4489                	li	s1,2
   168d8:	853e                	mv	a0,a5
   168da:	00000073          	ecall
   168de:	02950b63          	beq	a0,s1,16914 <_ZN18complex_no_dynamic3app17hf09a0a251d20990fE+0x7c>
   168e2:	04210613          	addi	a2,sp,66
   168e6:	02200693          	li	a3,34
   168ea:	470d                	li	a4,3
   168ec:	853e                	mv	a0,a5
   168ee:	4581                	li	a1,0
   168f0:	00000073          	ecall
   168f4:	02950063          	beq	a0,s1,16914 <_ZN18complex_no_dynamic3app17hf09a0a251d20990fE+0x7c>
   168f8:	6509                	lui	a0,0x2
   168fa:	4585                	li	a1,1
   168fc:	47c50493          	addi	s1,a0,1148 # 247c <.Lline_table_start1+0x2251>
   16900:	4709                	li	a4,2
   16902:	07f00793          	li	a5,127
   16906:	8526                	mv	a0,s1
   16908:	4601                	li	a2,0
   1690a:	4681                	li	a3,0
   1690c:	00000073          	ecall
   16910:	02a7ed63          	bltu	a5,a0,1694a <_ZN18complex_no_dynamic3app17hf09a0a251d20990fE+0xb2>
   16914:	872e                	mv	a4,a1
   16916:	4581                	li	a1,0
   16918:	4601                	li	a2,0
   1691a:	4681                	li	a3,0
   1691c:	4505                	li	a0,1
   1691e:	6789                	lui	a5,0x2
   16920:	00a40023          	sb	a0,0(s0)
   16924:	c058                	sw	a4,4(s0)
   16926:	47c78793          	addi	a5,a5,1148 # 247c <.Lline_table_start1+0x2251>
   1692a:	470d                	li	a4,3
   1692c:	853e                	mv	a0,a5
   1692e:	00000073          	ecall
   16932:	4585                	li	a1,1
   16934:	4711                	li	a4,4
   16936:	853e                	mv	a0,a5
   16938:	4601                	li	a2,0
   1693a:	4681                	li	a3,0
   1693c:	00000073          	ecall
   16940:	50b6                	lw	ra,108(sp)
   16942:	5426                	lw	s0,104(sp)
   16944:	5496                	lw	s1,100(sp)
   16946:	6165                	addi	sp,sp,112
   16948:	8082                	ret
   1694a:	470d                	li	a4,3
   1694c:	8526                	mv	a0,s1
   1694e:	4581                	li	a1,0
   16950:	4601                	li	a2,0
   16952:	4681                	li	a3,0
   16954:	00000073          	ecall
   16958:	470d                	li	a4,3
   1695a:	8526                	mv	a0,s1
   1695c:	4581                	li	a1,0
   1695e:	4601                	li	a2,0
   16960:	4681                	li	a3,0
   16962:	00000073          	ecall
   16966:	00140513          	addi	a0,s0,1
   1696a:	04210593          	addi	a1,sp,66
   1696e:	02200613          	li	a2,34
   16972:	00004097          	auipc	ra,0x4
   16976:	2a4080e7          	jalr	676(ra) # 1ac16 <memcpy>
   1697a:	8526                	mv	a0,s1
   1697c:	4581                	li	a1,0
   1697e:	4601                	li	a2,0
   16980:	4681                	li	a3,0
   16982:	00040023          	sb	zero,0(s0)
   16986:	470d                	li	a4,3
   16988:	00000073          	ecall
   1698c:	4585                	li	a1,1
   1698e:	4711                	li	a4,4
   16990:	8526                	mv	a0,s1
   16992:	4601                	li	a2,0
   16994:	4681                	li	a3,0
   16996:	00000073          	ecall
   1699a:	b75d                	j	16940 <_ZN18complex_no_dynamic3app17hf09a0a251d20990fE+0xa8>

0001699c <_ZN18complex_no_dynamic3app17hf50523c94e8d54f8E>:
   1699c:	7159                	addi	sp,sp,-112
   1699e:	d686                	sw	ra,108(sp)
   169a0:	d4a2                	sw	s0,104(sp)
   169a2:	d2a6                	sw	s1,100(sp)
   169a4:	842a                	mv	s0,a0
   169a6:	00e10513          	addi	a0,sp,14
   169aa:	02c00613          	li	a2,44
   169ae:	00004097          	auipc	ra,0x4
   169b2:	268080e7          	jalr	616(ra) # 1ac16 <memcpy>
   169b6:	03a10513          	addi	a0,sp,58
   169ba:	02a00613          	li	a2,42
   169be:	4581                	li	a1,0
   169c0:	00004097          	auipc	ra,0x4
   169c4:	1ea080e7          	jalr	490(ra) # 1abaa <memset>
   169c8:	6509                	lui	a0,0x2
   169ca:	458d                	li	a1,3
   169cc:	00e10613          	addi	a2,sp,14
   169d0:	02c00693          	li	a3,44
   169d4:	4f050793          	addi	a5,a0,1264 # 24f0 <.Lline_table_start1+0x22c5>
   169d8:	4711                	li	a4,4
   169da:	4489                	li	s1,2
   169dc:	853e                	mv	a0,a5
   169de:	00000073          	ecall
   169e2:	02950b63          	beq	a0,s1,16a18 <_ZN18complex_no_dynamic3app17hf50523c94e8d54f8E+0x7c>
   169e6:	03a10613          	addi	a2,sp,58
   169ea:	02a00693          	li	a3,42
   169ee:	470d                	li	a4,3
   169f0:	853e                	mv	a0,a5
   169f2:	4581                	li	a1,0
   169f4:	00000073          	ecall
   169f8:	02950063          	beq	a0,s1,16a18 <_ZN18complex_no_dynamic3app17hf50523c94e8d54f8E+0x7c>
   169fc:	6509                	lui	a0,0x2
   169fe:	458d                	li	a1,3
   16a00:	4f050493          	addi	s1,a0,1264 # 24f0 <.Lline_table_start1+0x22c5>
   16a04:	4709                	li	a4,2
   16a06:	07f00793          	li	a5,127
   16a0a:	8526                	mv	a0,s1
   16a0c:	4601                	li	a2,0
   16a0e:	4681                	li	a3,0
   16a10:	00000073          	ecall
   16a14:	02a7ed63          	bltu	a5,a0,16a4e <_ZN18complex_no_dynamic3app17hf50523c94e8d54f8E+0xb2>
   16a18:	872e                	mv	a4,a1
   16a1a:	4581                	li	a1,0
   16a1c:	4601                	li	a2,0
   16a1e:	4681                	li	a3,0
   16a20:	4505                	li	a0,1
   16a22:	6789                	lui	a5,0x2
   16a24:	00a40023          	sb	a0,0(s0)
   16a28:	c058                	sw	a4,4(s0)
   16a2a:	4f078793          	addi	a5,a5,1264 # 24f0 <.Lline_table_start1+0x22c5>
   16a2e:	470d                	li	a4,3
   16a30:	853e                	mv	a0,a5
   16a32:	00000073          	ecall
   16a36:	458d                	li	a1,3
   16a38:	4711                	li	a4,4
   16a3a:	853e                	mv	a0,a5
   16a3c:	4601                	li	a2,0
   16a3e:	4681                	li	a3,0
   16a40:	00000073          	ecall
   16a44:	50b6                	lw	ra,108(sp)
   16a46:	5426                	lw	s0,104(sp)
   16a48:	5496                	lw	s1,100(sp)
   16a4a:	6165                	addi	sp,sp,112
   16a4c:	8082                	ret
   16a4e:	470d                	li	a4,3
   16a50:	8526                	mv	a0,s1
   16a52:	4581                	li	a1,0
   16a54:	4601                	li	a2,0
   16a56:	4681                	li	a3,0
   16a58:	00000073          	ecall
   16a5c:	470d                	li	a4,3
   16a5e:	8526                	mv	a0,s1
   16a60:	4581                	li	a1,0
   16a62:	4601                	li	a2,0
   16a64:	4681                	li	a3,0
   16a66:	00000073          	ecall
   16a6a:	00140513          	addi	a0,s0,1
   16a6e:	03a10593          	addi	a1,sp,58
   16a72:	02a00613          	li	a2,42
   16a76:	00004097          	auipc	ra,0x4
   16a7a:	1a0080e7          	jalr	416(ra) # 1ac16 <memcpy>
   16a7e:	8526                	mv	a0,s1
   16a80:	4581                	li	a1,0
   16a82:	4601                	li	a2,0
   16a84:	4681                	li	a3,0
   16a86:	00040023          	sb	zero,0(s0)
   16a8a:	470d                	li	a4,3
   16a8c:	00000073          	ecall
   16a90:	458d                	li	a1,3
   16a92:	4711                	li	a4,4
   16a94:	8526                	mv	a0,s1
   16a96:	4601                	li	a2,0
   16a98:	4681                	li	a3,0
   16a9a:	00000073          	ecall
   16a9e:	b75d                	j	16a44 <_ZN18complex_no_dynamic3app17hf50523c94e8d54f8E+0xa8>

00016aa0 <_ZN18complex_no_dynamic3app17hf5a17c94359c531bE>:
   16aa0:	7175                	addi	sp,sp,-144
   16aa2:	c706                	sw	ra,140(sp)
   16aa4:	c522                	sw	s0,136(sp)
   16aa6:	c326                	sw	s1,132(sp)
   16aa8:	842a                	mv	s0,a0
   16aaa:	850a                	mv	a0,sp
   16aac:	04f00613          	li	a2,79
   16ab0:	00004097          	auipc	ra,0x4
   16ab4:	166080e7          	jalr	358(ra) # 1ac16 <memcpy>
   16ab8:	04f10513          	addi	a0,sp,79
   16abc:	03500613          	li	a2,53
   16ac0:	4581                	li	a1,0
   16ac2:	00004097          	auipc	ra,0x4
   16ac6:	0e8080e7          	jalr	232(ra) # 1abaa <memset>
   16aca:	6505                	lui	a0,0x1
   16acc:	459d                	li	a1,7
   16ace:	860a                	mv	a2,sp
   16ad0:	04f00693          	li	a3,79
   16ad4:	6d750793          	addi	a5,a0,1751 # 16d7 <.Lline_table_start1+0x14ac>
   16ad8:	4711                	li	a4,4
   16ada:	4489                	li	s1,2
   16adc:	853e                	mv	a0,a5
   16ade:	00000073          	ecall
   16ae2:	02950b63          	beq	a0,s1,16b18 <_ZN18complex_no_dynamic3app17hf5a17c94359c531bE+0x78>
   16ae6:	4585                	li	a1,1
   16ae8:	04f10613          	addi	a2,sp,79
   16aec:	03500693          	li	a3,53
   16af0:	470d                	li	a4,3
   16af2:	853e                	mv	a0,a5
   16af4:	00000073          	ecall
   16af8:	02950063          	beq	a0,s1,16b18 <_ZN18complex_no_dynamic3app17hf5a17c94359c531bE+0x78>
   16afc:	6505                	lui	a0,0x1
   16afe:	459d                	li	a1,7
   16b00:	4605                	li	a2,1
   16b02:	6d750493          	addi	s1,a0,1751 # 16d7 <.Lline_table_start1+0x14ac>
   16b06:	4709                	li	a4,2
   16b08:	07f00793          	li	a5,127
   16b0c:	8526                	mv	a0,s1
   16b0e:	4681                	li	a3,0
   16b10:	00000073          	ecall
   16b14:	02a7ed63          	bltu	a5,a0,16b4e <_ZN18complex_no_dynamic3app17hf5a17c94359c531bE+0xae>
   16b18:	872e                	mv	a4,a1
   16b1a:	4601                	li	a2,0
   16b1c:	4681                	li	a3,0
   16b1e:	4505                	li	a0,1
   16b20:	6785                	lui	a5,0x1
   16b22:	4585                	li	a1,1
   16b24:	00a40023          	sb	a0,0(s0)
   16b28:	c058                	sw	a4,4(s0)
   16b2a:	6d778793          	addi	a5,a5,1751 # 16d7 <.Lline_table_start1+0x14ac>
   16b2e:	470d                	li	a4,3
   16b30:	853e                	mv	a0,a5
   16b32:	00000073          	ecall
   16b36:	459d                	li	a1,7
   16b38:	4711                	li	a4,4
   16b3a:	853e                	mv	a0,a5
   16b3c:	4601                	li	a2,0
   16b3e:	4681                	li	a3,0
   16b40:	00000073          	ecall
   16b44:	40ba                	lw	ra,140(sp)
   16b46:	442a                	lw	s0,136(sp)
   16b48:	449a                	lw	s1,132(sp)
   16b4a:	6149                	addi	sp,sp,144
   16b4c:	8082                	ret
   16b4e:	8526                	mv	a0,s1
   16b50:	4601                	li	a2,0
   16b52:	4681                	li	a3,0
   16b54:	4585                	li	a1,1
   16b56:	470d                	li	a4,3
   16b58:	00000073          	ecall
   16b5c:	4585                	li	a1,1
   16b5e:	470d                	li	a4,3
   16b60:	8526                	mv	a0,s1
   16b62:	4601                	li	a2,0
   16b64:	4681                	li	a3,0
   16b66:	00000073          	ecall
   16b6a:	00140513          	addi	a0,s0,1
   16b6e:	04f10593          	addi	a1,sp,79
   16b72:	03500613          	li	a2,53
   16b76:	00004097          	auipc	ra,0x4
   16b7a:	0a0080e7          	jalr	160(ra) # 1ac16 <memcpy>
   16b7e:	8526                	mv	a0,s1
   16b80:	4601                	li	a2,0
   16b82:	4681                	li	a3,0
   16b84:	00040023          	sb	zero,0(s0)
   16b88:	4585                	li	a1,1
   16b8a:	470d                	li	a4,3
   16b8c:	00000073          	ecall
   16b90:	459d                	li	a1,7
   16b92:	4711                	li	a4,4
   16b94:	8526                	mv	a0,s1
   16b96:	4601                	li	a2,0
   16b98:	4681                	li	a3,0
   16b9a:	00000073          	ecall
   16b9e:	b75d                	j	16b44 <_ZN18complex_no_dynamic3app17hf5a17c94359c531bE+0xa4>

00016ba0 <_ZN18complex_no_dynamic3app17hfafe8df9bdc2f6dfE>:
   16ba0:	7171                	addi	sp,sp,-176
   16ba2:	d706                	sw	ra,172(sp)
   16ba4:	d522                	sw	s0,168(sp)
   16ba6:	d326                	sw	s1,164(sp)
   16ba8:	842a                	mv	s0,a0
   16baa:	00d10513          	addi	a0,sp,13
   16bae:	03a00613          	li	a2,58
   16bb2:	00004097          	auipc	ra,0x4
   16bb6:	064080e7          	jalr	100(ra) # 1ac16 <memcpy>
   16bba:	04710513          	addi	a0,sp,71
   16bbe:	05d00613          	li	a2,93
   16bc2:	4581                	li	a1,0
   16bc4:	00004097          	auipc	ra,0x4
   16bc8:	fe6080e7          	jalr	-26(ra) # 1abaa <memset>
   16bcc:	6505                	lui	a0,0x1
   16bce:	00d10613          	addi	a2,sp,13
   16bd2:	03a00693          	li	a3,58
   16bd6:	4a450793          	addi	a5,a0,1188 # 14a4 <.Lline_table_start1+0x1279>
   16bda:	4711                	li	a4,4
   16bdc:	4489                	li	s1,2
   16bde:	853e                	mv	a0,a5
   16be0:	4581                	li	a1,0
   16be2:	00000073          	ecall
   16be6:	02950b63          	beq	a0,s1,16c1c <_ZN18complex_no_dynamic3app17hfafe8df9bdc2f6dfE+0x7c>
   16bea:	4595                	li	a1,5
   16bec:	04710613          	addi	a2,sp,71
   16bf0:	05d00693          	li	a3,93
   16bf4:	470d                	li	a4,3
   16bf6:	853e                	mv	a0,a5
   16bf8:	00000073          	ecall
   16bfc:	02950063          	beq	a0,s1,16c1c <_ZN18complex_no_dynamic3app17hfafe8df9bdc2f6dfE+0x7c>
   16c00:	6505                	lui	a0,0x1
   16c02:	4615                	li	a2,5
   16c04:	4a450493          	addi	s1,a0,1188 # 14a4 <.Lline_table_start1+0x1279>
   16c08:	4709                	li	a4,2
   16c0a:	07f00793          	li	a5,127
   16c0e:	8526                	mv	a0,s1
   16c10:	4581                	li	a1,0
   16c12:	4681                	li	a3,0
   16c14:	00000073          	ecall
   16c18:	02a7ec63          	bltu	a5,a0,16c50 <_ZN18complex_no_dynamic3app17hfafe8df9bdc2f6dfE+0xb0>
   16c1c:	4505                	li	a0,1
   16c1e:	6605                	lui	a2,0x1
   16c20:	00a40023          	sb	a0,0(s0)
   16c24:	c04c                	sw	a1,4(s0)
   16c26:	4a460793          	addi	a5,a2,1188 # 14a4 <.Lline_table_start1+0x1279>
   16c2a:	4595                	li	a1,5
   16c2c:	470d                	li	a4,3
   16c2e:	853e                	mv	a0,a5
   16c30:	4601                	li	a2,0
   16c32:	4681                	li	a3,0
   16c34:	00000073          	ecall
   16c38:	4711                	li	a4,4
   16c3a:	853e                	mv	a0,a5
   16c3c:	4581                	li	a1,0
   16c3e:	4601                	li	a2,0
   16c40:	4681                	li	a3,0
   16c42:	00000073          	ecall
   16c46:	50ba                	lw	ra,172(sp)
   16c48:	542a                	lw	s0,168(sp)
   16c4a:	549a                	lw	s1,164(sp)
   16c4c:	614d                	addi	sp,sp,176
   16c4e:	8082                	ret
   16c50:	8526                	mv	a0,s1
   16c52:	4601                	li	a2,0
   16c54:	4681                	li	a3,0
   16c56:	4595                	li	a1,5
   16c58:	470d                	li	a4,3
   16c5a:	00000073          	ecall
   16c5e:	4595                	li	a1,5
   16c60:	470d                	li	a4,3
   16c62:	8526                	mv	a0,s1
   16c64:	4601                	li	a2,0
   16c66:	4681                	li	a3,0
   16c68:	00000073          	ecall
   16c6c:	00140513          	addi	a0,s0,1
   16c70:	04710593          	addi	a1,sp,71
   16c74:	05d00613          	li	a2,93
   16c78:	00004097          	auipc	ra,0x4
   16c7c:	f9e080e7          	jalr	-98(ra) # 1ac16 <memcpy>
   16c80:	00040023          	sb	zero,0(s0)
   16c84:	4595                	li	a1,5
   16c86:	470d                	li	a4,3
   16c88:	8526                	mv	a0,s1
   16c8a:	4601                	li	a2,0
   16c8c:	4681                	li	a3,0
   16c8e:	00000073          	ecall
   16c92:	4711                	li	a4,4
   16c94:	8526                	mv	a0,s1
   16c96:	4581                	li	a1,0
   16c98:	4601                	li	a2,0
   16c9a:	4681                	li	a3,0
   16c9c:	00000073          	ecall
   16ca0:	b75d                	j	16c46 <_ZN18complex_no_dynamic3app17hfafe8df9bdc2f6dfE+0xa6>

00016ca2 <_ZN18complex_no_dynamic3app17hfbc8c4a587c184d1E>:
   16ca2:	7159                	addi	sp,sp,-112
   16ca4:	d686                	sw	ra,108(sp)
   16ca6:	d4a2                	sw	s0,104(sp)
   16ca8:	d2a6                	sw	s1,100(sp)
   16caa:	842a                	mv	s0,a0
   16cac:	00a10513          	addi	a0,sp,10
   16cb0:	4679                	li	a2,30
   16cb2:	00004097          	auipc	ra,0x4
   16cb6:	f64080e7          	jalr	-156(ra) # 1ac16 <memcpy>
   16cba:	1028                	addi	a0,sp,40
   16cbc:	03c00613          	li	a2,60
   16cc0:	4581                	li	a1,0
   16cc2:	00004097          	auipc	ra,0x4
   16cc6:	ee8080e7          	jalr	-280(ra) # 1abaa <memset>
   16cca:	6505                	lui	a0,0x1
   16ccc:	4489                	li	s1,2
   16cce:	4589                	li	a1,2
   16cd0:	00a10613          	addi	a2,sp,10
   16cd4:	b3c50793          	addi	a5,a0,-1220 # b3c <.Lline_table_start1+0x911>
   16cd8:	46f9                	li	a3,30
   16cda:	4711                	li	a4,4
   16cdc:	853e                	mv	a0,a5
   16cde:	00000073          	ecall
   16ce2:	02950a63          	beq	a0,s1,16d16 <_ZN18complex_no_dynamic3app17hfbc8c4a587c184d1E+0x74>
   16ce6:	458d                	li	a1,3
   16ce8:	1030                	addi	a2,sp,40
   16cea:	03c00693          	li	a3,60
   16cee:	470d                	li	a4,3
   16cf0:	853e                	mv	a0,a5
   16cf2:	00000073          	ecall
   16cf6:	02950063          	beq	a0,s1,16d16 <_ZN18complex_no_dynamic3app17hfbc8c4a587c184d1E+0x74>
   16cfa:	6505                	lui	a0,0x1
   16cfc:	4589                	li	a1,2
   16cfe:	460d                	li	a2,3
   16d00:	b3c50493          	addi	s1,a0,-1220 # b3c <.Lline_table_start1+0x911>
   16d04:	4709                	li	a4,2
   16d06:	07f00793          	li	a5,127
   16d0a:	8526                	mv	a0,s1
   16d0c:	4681                	li	a3,0
   16d0e:	00000073          	ecall
   16d12:	02a7ed63          	bltu	a5,a0,16d4c <_ZN18complex_no_dynamic3app17hfbc8c4a587c184d1E+0xaa>
   16d16:	872e                	mv	a4,a1
   16d18:	4601                	li	a2,0
   16d1a:	4681                	li	a3,0
   16d1c:	4505                	li	a0,1
   16d1e:	6785                	lui	a5,0x1
   16d20:	458d                	li	a1,3
   16d22:	00a40023          	sb	a0,0(s0)
   16d26:	c058                	sw	a4,4(s0)
   16d28:	b3c78793          	addi	a5,a5,-1220 # b3c <.Lline_table_start1+0x911>
   16d2c:	470d                	li	a4,3
   16d2e:	853e                	mv	a0,a5
   16d30:	00000073          	ecall
   16d34:	4589                	li	a1,2
   16d36:	4711                	li	a4,4
   16d38:	853e                	mv	a0,a5
   16d3a:	4601                	li	a2,0
   16d3c:	4681                	li	a3,0
   16d3e:	00000073          	ecall
   16d42:	50b6                	lw	ra,108(sp)
   16d44:	5426                	lw	s0,104(sp)
   16d46:	5496                	lw	s1,100(sp)
   16d48:	6165                	addi	sp,sp,112
   16d4a:	8082                	ret
   16d4c:	8526                	mv	a0,s1
   16d4e:	4601                	li	a2,0
   16d50:	4681                	li	a3,0
   16d52:	458d                	li	a1,3
   16d54:	470d                	li	a4,3
   16d56:	00000073          	ecall
   16d5a:	458d                	li	a1,3
   16d5c:	470d                	li	a4,3
   16d5e:	8526                	mv	a0,s1
   16d60:	4601                	li	a2,0
   16d62:	4681                	li	a3,0
   16d64:	00000073          	ecall
   16d68:	00140513          	addi	a0,s0,1
   16d6c:	102c                	addi	a1,sp,40
   16d6e:	03c00613          	li	a2,60
   16d72:	00004097          	auipc	ra,0x4
   16d76:	ea4080e7          	jalr	-348(ra) # 1ac16 <memcpy>
   16d7a:	8526                	mv	a0,s1
   16d7c:	4601                	li	a2,0
   16d7e:	4681                	li	a3,0
   16d80:	00040023          	sb	zero,0(s0)
   16d84:	458d                	li	a1,3
   16d86:	470d                	li	a4,3
   16d88:	00000073          	ecall
   16d8c:	4589                	li	a1,2
   16d8e:	4711                	li	a4,4
   16d90:	8526                	mv	a0,s1
   16d92:	4601                	li	a2,0
   16d94:	4681                	li	a3,0
   16d96:	00000073          	ecall
   16d9a:	b765                	j	16d42 <_ZN18complex_no_dynamic3app17hfbc8c4a587c184d1E+0xa0>

00016d9c <_ZN18complex_no_dynamic3app17hfbee440b8c3b5806E>:
   16d9c:	715d                	addi	sp,sp,-80
   16d9e:	c686                	sw	ra,76(sp)
   16da0:	c4a2                	sw	s0,72(sp)
   16da2:	c2a6                	sw	s1,68(sp)
   16da4:	842a                	mv	s0,a0
   16da6:	00910513          	addi	a0,sp,9
   16daa:	02700613          	li	a2,39
   16dae:	00004097          	auipc	ra,0x4
   16db2:	e68080e7          	jalr	-408(ra) # 1ac16 <memcpy>
   16db6:	1808                	addi	a0,sp,48
   16db8:	4651                	li	a2,20
   16dba:	4581                	li	a1,0
   16dbc:	00004097          	auipc	ra,0x4
   16dc0:	dee080e7          	jalr	-530(ra) # 1abaa <memset>
   16dc4:	6509                	lui	a0,0x2
   16dc6:	4599                	li	a1,6
   16dc8:	00910613          	addi	a2,sp,9
   16dcc:	02700693          	li	a3,39
   16dd0:	2c950793          	addi	a5,a0,713 # 22c9 <.Lline_table_start1+0x209e>
   16dd4:	4711                	li	a4,4
   16dd6:	4489                	li	s1,2
   16dd8:	853e                	mv	a0,a5
   16dda:	00000073          	ecall
   16dde:	02950963          	beq	a0,s1,16e10 <_ZN18complex_no_dynamic3app17hfbee440b8c3b5806E+0x74>
   16de2:	4595                	li	a1,5
   16de4:	1810                	addi	a2,sp,48
   16de6:	46d1                	li	a3,20
   16de8:	470d                	li	a4,3
   16dea:	853e                	mv	a0,a5
   16dec:	00000073          	ecall
   16df0:	02950063          	beq	a0,s1,16e10 <_ZN18complex_no_dynamic3app17hfbee440b8c3b5806E+0x74>
   16df4:	6509                	lui	a0,0x2
   16df6:	4599                	li	a1,6
   16df8:	4615                	li	a2,5
   16dfa:	2c950493          	addi	s1,a0,713 # 22c9 <.Lline_table_start1+0x209e>
   16dfe:	4709                	li	a4,2
   16e00:	07f00793          	li	a5,127
   16e04:	8526                	mv	a0,s1
   16e06:	4681                	li	a3,0
   16e08:	00000073          	ecall
   16e0c:	02a7ed63          	bltu	a5,a0,16e46 <_ZN18complex_no_dynamic3app17hfbee440b8c3b5806E+0xaa>
   16e10:	872e                	mv	a4,a1
   16e12:	4601                	li	a2,0
   16e14:	4681                	li	a3,0
   16e16:	4505                	li	a0,1
   16e18:	6789                	lui	a5,0x2
   16e1a:	4595                	li	a1,5
   16e1c:	00a40023          	sb	a0,0(s0)
   16e20:	c058                	sw	a4,4(s0)
   16e22:	2c978793          	addi	a5,a5,713 # 22c9 <.Lline_table_start1+0x209e>
   16e26:	470d                	li	a4,3
   16e28:	853e                	mv	a0,a5
   16e2a:	00000073          	ecall
   16e2e:	4599                	li	a1,6
   16e30:	4711                	li	a4,4
   16e32:	853e                	mv	a0,a5
   16e34:	4601                	li	a2,0
   16e36:	4681                	li	a3,0
   16e38:	00000073          	ecall
   16e3c:	40b6                	lw	ra,76(sp)
   16e3e:	4426                	lw	s0,72(sp)
   16e40:	4496                	lw	s1,68(sp)
   16e42:	6161                	addi	sp,sp,80
   16e44:	8082                	ret
   16e46:	8526                	mv	a0,s1
   16e48:	4601                	li	a2,0
   16e4a:	4681                	li	a3,0
   16e4c:	4595                	li	a1,5
   16e4e:	470d                	li	a4,3
   16e50:	00000073          	ecall
   16e54:	4595                	li	a1,5
   16e56:	470d                	li	a4,3
   16e58:	8526                	mv	a0,s1
   16e5a:	4601                	li	a2,0
   16e5c:	4681                	li	a3,0
   16e5e:	00000073          	ecall
   16e62:	00140513          	addi	a0,s0,1
   16e66:	180c                	addi	a1,sp,48
   16e68:	4651                	li	a2,20
   16e6a:	00004097          	auipc	ra,0x4
   16e6e:	dac080e7          	jalr	-596(ra) # 1ac16 <memcpy>
   16e72:	8526                	mv	a0,s1
   16e74:	4601                	li	a2,0
   16e76:	4681                	li	a3,0
   16e78:	00040023          	sb	zero,0(s0)
   16e7c:	4595                	li	a1,5
   16e7e:	470d                	li	a4,3
   16e80:	00000073          	ecall
   16e84:	4599                	li	a1,6
   16e86:	4711                	li	a4,4
   16e88:	8526                	mv	a0,s1
   16e8a:	4601                	li	a2,0
   16e8c:	4681                	li	a3,0
   16e8e:	00000073          	ecall
   16e92:	b76d                	j	16e3c <_ZN18complex_no_dynamic3app17hfbee440b8c3b5806E+0xa0>

00016e94 <_ZN18complex_no_dynamic3app17hff8dc928a614bdf5E>:
   16e94:	7175                	addi	sp,sp,-144
   16e96:	c706                	sw	ra,140(sp)
   16e98:	c522                	sw	s0,136(sp)
   16e9a:	c326                	sw	s1,132(sp)
   16e9c:	842a                	mv	s0,a0
   16e9e:	00110513          	addi	a0,sp,1
   16ea2:	02a00613          	li	a2,42
   16ea6:	00004097          	auipc	ra,0x4
   16eaa:	d70080e7          	jalr	-656(ra) # 1ac16 <memcpy>
   16eae:	02b10513          	addi	a0,sp,43
   16eb2:	05900613          	li	a2,89
   16eb6:	4581                	li	a1,0
   16eb8:	00004097          	auipc	ra,0x4
   16ebc:	cf2080e7          	jalr	-782(ra) # 1abaa <memset>
   16ec0:	6505                	lui	a0,0x1
   16ec2:	4585                	li	a1,1
   16ec4:	00110613          	addi	a2,sp,1
   16ec8:	02a00693          	li	a3,42
   16ecc:	ed250793          	addi	a5,a0,-302 # ed2 <.Lline_table_start1+0xca7>
   16ed0:	4711                	li	a4,4
   16ed2:	4489                	li	s1,2
   16ed4:	853e                	mv	a0,a5
   16ed6:	00000073          	ecall
   16eda:	02950b63          	beq	a0,s1,16f10 <_ZN18complex_no_dynamic3app17hff8dc928a614bdf5E+0x7c>
   16ede:	458d                	li	a1,3
   16ee0:	02b10613          	addi	a2,sp,43
   16ee4:	05900693          	li	a3,89
   16ee8:	470d                	li	a4,3
   16eea:	853e                	mv	a0,a5
   16eec:	00000073          	ecall
   16ef0:	02950063          	beq	a0,s1,16f10 <_ZN18complex_no_dynamic3app17hff8dc928a614bdf5E+0x7c>
   16ef4:	6505                	lui	a0,0x1
   16ef6:	4585                	li	a1,1
   16ef8:	460d                	li	a2,3
   16efa:	ed250493          	addi	s1,a0,-302 # ed2 <.Lline_table_start1+0xca7>
   16efe:	4709                	li	a4,2
   16f00:	07f00793          	li	a5,127
   16f04:	8526                	mv	a0,s1
   16f06:	4681                	li	a3,0
   16f08:	00000073          	ecall
   16f0c:	02a7ed63          	bltu	a5,a0,16f46 <_ZN18complex_no_dynamic3app17hff8dc928a614bdf5E+0xb2>
   16f10:	872e                	mv	a4,a1
   16f12:	4601                	li	a2,0
   16f14:	4681                	li	a3,0
   16f16:	4505                	li	a0,1
   16f18:	6785                	lui	a5,0x1
   16f1a:	458d                	li	a1,3
   16f1c:	00a40023          	sb	a0,0(s0)
   16f20:	c058                	sw	a4,4(s0)
   16f22:	ed278793          	addi	a5,a5,-302 # ed2 <.Lline_table_start1+0xca7>
   16f26:	470d                	li	a4,3
   16f28:	853e                	mv	a0,a5
   16f2a:	00000073          	ecall
   16f2e:	4585                	li	a1,1
   16f30:	4711                	li	a4,4
   16f32:	853e                	mv	a0,a5
   16f34:	4601                	li	a2,0
   16f36:	4681                	li	a3,0
   16f38:	00000073          	ecall
   16f3c:	40ba                	lw	ra,140(sp)
   16f3e:	442a                	lw	s0,136(sp)
   16f40:	449a                	lw	s1,132(sp)
   16f42:	6149                	addi	sp,sp,144
   16f44:	8082                	ret
   16f46:	8526                	mv	a0,s1
   16f48:	4601                	li	a2,0
   16f4a:	4681                	li	a3,0
   16f4c:	458d                	li	a1,3
   16f4e:	470d                	li	a4,3
   16f50:	00000073          	ecall
   16f54:	458d                	li	a1,3
   16f56:	470d                	li	a4,3
   16f58:	8526                	mv	a0,s1
   16f5a:	4601                	li	a2,0
   16f5c:	4681                	li	a3,0
   16f5e:	00000073          	ecall
   16f62:	00140513          	addi	a0,s0,1
   16f66:	02b10593          	addi	a1,sp,43
   16f6a:	05900613          	li	a2,89
   16f6e:	00004097          	auipc	ra,0x4
   16f72:	ca8080e7          	jalr	-856(ra) # 1ac16 <memcpy>
   16f76:	8526                	mv	a0,s1
   16f78:	4601                	li	a2,0
   16f7a:	4681                	li	a3,0
   16f7c:	00040023          	sb	zero,0(s0)
   16f80:	458d                	li	a1,3
   16f82:	470d                	li	a4,3
   16f84:	00000073          	ecall
   16f88:	4585                	li	a1,1
   16f8a:	4711                	li	a4,4
   16f8c:	8526                	mv	a0,s1
   16f8e:	4601                	li	a2,0
   16f90:	4681                	li	a3,0
   16f92:	00000073          	ecall
   16f96:	b75d                	j	16f3c <_ZN18complex_no_dynamic3app17hff8dc928a614bdf5E+0xa8>

00016f98 <_start>:
   16f98:	81010113          	addi	sp,sp,-2032
   16f9c:	7e112623          	sw	ra,2028(sp)
   16fa0:	7e812423          	sw	s0,2024(sp)
   16fa4:	7e912223          	sw	s1,2020(sp)
   16fa8:	7f212023          	sw	s2,2016(sp)
   16fac:	7d312e23          	sw	s3,2012(sp)
   16fb0:	7d412c23          	sw	s4,2008(sp)
   16fb4:	7d512a23          	sw	s5,2004(sp)
   16fb8:	7d612823          	sw	s6,2000(sp)
   16fbc:	7d712623          	sw	s7,1996(sp)
   16fc0:	80010113          	addi	sp,sp,-2048
   16fc4:	b6010113          	addi	sp,sp,-1184
   16fc8:	0848                	addi	a0,sp,20
   16fca:	02800613          	li	a2,40
   16fce:	4581                	li	a1,0
   16fd0:	00004097          	auipc	ra,0x4
   16fd4:	bda080e7          	jalr	-1062(ra) # 1abaa <memset>
   16fd8:	6505                	lui	a0,0x1
   16fda:	34c50513          	addi	a0,a0,844 # 134c <.Lline_table_start1+0x1121>
   16fde:	950a                	add	a0,a0,sp
   16fe0:	05100613          	li	a2,81
   16fe4:	4581                	li	a1,0
   16fe6:	00004097          	auipc	ra,0x4
   16fea:	bc4080e7          	jalr	-1084(ra) # 1abaa <memset>
   16fee:	6409                	lui	s0,0x2
   16ff0:	45a5                	li	a1,9
   16ff2:	0850                	addi	a2,sp,20
   16ff4:	02800693          	li	a3,40
   16ff8:	0419                	addi	s0,s0,6 # 2006 <.Lline_table_start1+0x1ddb>
   16ffa:	4711                	li	a4,4
   16ffc:	4489                	li	s1,2
   16ffe:	8522                	mv	a0,s0
   17000:	00000073          	ecall
   17004:	02950f63          	beq	a0,s1,17042 <_start+0xaa>
   17008:	45a5                	li	a1,9
   1700a:	6505                	lui	a0,0x1
   1700c:	34c50513          	addi	a0,a0,844 # 134c <.Lline_table_start1+0x1121>
   17010:	00a10633          	add	a2,sp,a0
   17014:	05100693          	li	a3,81
   17018:	470d                	li	a4,3
   1701a:	8522                	mv	a0,s0
   1701c:	00000073          	ecall
   17020:	02950163          	beq	a0,s1,17042 <_start+0xaa>
   17024:	4681                	li	a3,0
   17026:	6a09                	lui	s4,0x2
   17028:	45a5                	li	a1,9
   1702a:	4625                	li	a2,9
   1702c:	4709                	li	a4,2
   1702e:	006a0413          	addi	s0,s4,6 # 2006 <.Lline_table_start1+0x1ddb>
   17032:	07f00493          	li	s1,127
   17036:	8522                	mv	a0,s0
   17038:	00000073          	ecall
   1703c:	4989                	li	s3,2
   1703e:	04a4ee63          	bltu	s1,a0,1709a <_start+0x102>
   17042:	87ae                	mv	a5,a1
   17044:	4601                	li	a2,0
   17046:	4681                	li	a3,0
   17048:	6409                	lui	s0,0x2
   1704a:	45a5                	li	a1,9
   1704c:	0419                	addi	s0,s0,6 # 2006 <.Lline_table_start1+0x1ddb>
   1704e:	470d                	li	a4,3
   17050:	8522                	mv	a0,s0
   17052:	00000073          	ecall
   17056:	45a5                	li	a1,9
   17058:	4711                	li	a4,4
   1705a:	8522                	mv	a0,s0
   1705c:	4601                	li	a2,0
   1705e:	4681                	li	a3,0
   17060:	00000073          	ecall
   17064:	4505                	li	a0,1
   17066:	85be                	mv	a1,a5
   17068:	7f010113          	addi	sp,sp,2032
   1706c:	4b010113          	addi	sp,sp,1200
   17070:	7ec12083          	lw	ra,2028(sp)
   17074:	7e812403          	lw	s0,2024(sp)
   17078:	7e412483          	lw	s1,2020(sp)
   1707c:	7e012903          	lw	s2,2016(sp)
   17080:	7dc12983          	lw	s3,2012(sp)
   17084:	7d812a03          	lw	s4,2008(sp)
   17088:	7d412a83          	lw	s5,2004(sp)
   1708c:	7d012b03          	lw	s6,2000(sp)
   17090:	7cc12b83          	lw	s7,1996(sp)
   17094:	7f010113          	addi	sp,sp,2032
   17098:	8082                	ret
   1709a:	8522                	mv	a0,s0
   1709c:	4601                	li	a2,0
   1709e:	4681                	li	a3,0
   170a0:	7ff10913          	addi	s2,sp,2047
   170a4:	7b590913          	addi	s2,s2,1973
   170a8:	45a5                	li	a1,9
   170aa:	470d                	li	a4,3
   170ac:	00000073          	ecall
   170b0:	470d                	li	a4,3
   170b2:	45a5                	li	a1,9
   170b4:	8522                	mv	a0,s0
   170b6:	4601                	li	a2,0
   170b8:	4681                	li	a3,0
   170ba:	00000073          	ecall
   170be:	39994503          	lbu	a0,921(s2)
   170c2:	39894583          	lbu	a1,920(s2)
   170c6:	39a94603          	lbu	a2,922(s2)
   170ca:	39b94a83          	lbu	s5,923(s2)
   170ce:	0522                	slli	a0,a0,0x8
   170d0:	8d4d                	or	a0,a0,a1
   170d2:	39c94b03          	lbu	s6,924(s2)
   170d6:	39d94483          	lbu	s1,925(s2)
   170da:	39e94b83          	lbu	s7,926(s2)
   170de:	00a11823          	sh	a0,16(sp)
   170e2:	00c10923          	sb	a2,18(sp)
   170e6:	6505                	lui	a0,0x1
   170e8:	35350513          	addi	a0,a0,851 # 1353 <.Lline_table_start1+0x1128>
   170ec:	00a105b3          	add	a1,sp,a0
   170f0:	6505                	lui	a0,0x1
   170f2:	2f050513          	addi	a0,a0,752 # 12f0 <.Lline_table_start1+0x10c5>
   170f6:	950a                	add	a0,a0,sp
   170f8:	04a00613          	li	a2,74
   170fc:	00004097          	auipc	ra,0x4
   17100:	b1a080e7          	jalr	-1254(ra) # 1ac16 <memcpy>
   17104:	8522                	mv	a0,s0
   17106:	4601                	li	a2,0
   17108:	4681                	li	a3,0
   1710a:	45a5                	li	a1,9
   1710c:	470d                	li	a4,3
   1710e:	00000073          	ecall
   17112:	45a5                	li	a1,9
   17114:	4711                	li	a4,4
   17116:	8522                	mv	a0,s0
   17118:	4601                	li	a2,0
   1711a:	4681                	li	a3,0
   1711c:	00000073          	ecall
   17120:	6505                	lui	a0,0x1
   17122:	35350513          	addi	a0,a0,851 # 1353 <.Lline_table_start1+0x1128>
   17126:	950a                	add	a0,a0,sp
   17128:	6585                	lui	a1,0x1
   1712a:	2f058593          	addi	a1,a1,752 # 12f0 <.Lline_table_start1+0x10c5>
   1712e:	958a                	add	a1,a1,sp
   17130:	04a00613          	li	a2,74
   17134:	00004097          	auipc	ra,0x4
   17138:	ae2080e7          	jalr	-1310(ra) # 1ac16 <memcpy>
   1713c:	01011503          	lh	a0,16(sp)
   17140:	01214583          	lbu	a1,18(sp)
   17144:	38990ea3          	sb	s1,925(s2)
   17148:	39790f23          	sb	s7,926(s2)
   1714c:	38a91c23          	sh	a0,920(s2)
   17150:	38b90d23          	sb	a1,922(s2)
   17154:	39590da3          	sb	s5,923(s2)
   17158:	39690e23          	sb	s6,924(s2)
   1715c:	6505                	lui	a0,0x1
   1715e:	2f050513          	addi	a0,a0,752 # 12f0 <.Lline_table_start1+0x10c5>
   17162:	950a                	add	a0,a0,sp
   17164:	04600613          	li	a2,70
   17168:	4581                	li	a1,0
   1716a:	00004097          	auipc	ra,0x4
   1716e:	a40080e7          	jalr	-1472(ra) # 1abaa <memset>
   17172:	0c4a0513          	addi	a0,s4,196
   17176:	459d                	li	a1,7
   17178:	6605                	lui	a2,0x1
   1717a:	34c60613          	addi	a2,a2,844 # 134c <.Lline_table_start1+0x1121>
   1717e:	960a                	add	a2,a2,sp
   17180:	05100693          	li	a3,81
   17184:	4711                	li	a4,4
   17186:	00000073          	ecall
   1718a:	05350063          	beq	a0,s3,171ca <_start+0x232>
   1718e:	6509                	lui	a0,0x2
   17190:	6585                	lui	a1,0x1
   17192:	2f058593          	addi	a1,a1,752 # 12f0 <.Lline_table_start1+0x10c5>
   17196:	00b10633          	add	a2,sp,a1
   1719a:	04600693          	li	a3,70
   1719e:	0c450413          	addi	s0,a0,196 # 20c4 <.Lline_table_start1+0x1e99>
   171a2:	470d                	li	a4,3
   171a4:	4489                	li	s1,2
   171a6:	8522                	mv	a0,s0
   171a8:	4581                	li	a1,0
   171aa:	00000073          	ecall
   171ae:	00950e63          	beq	a0,s1,171ca <_start+0x232>
   171b2:	8522                	mv	a0,s0
   171b4:	4601                	li	a2,0
   171b6:	4681                	li	a3,0
   171b8:	459d                	li	a1,7
   171ba:	4709                	li	a4,2
   171bc:	07f00493          	li	s1,127
   171c0:	00000073          	ecall
   171c4:	4989                	li	s3,2
   171c6:	02a4e563          	bltu	s1,a0,171f0 <_start+0x258>
   171ca:	87ae                	mv	a5,a1
   171cc:	4581                	li	a1,0
   171ce:	4601                	li	a2,0
   171d0:	4681                	li	a3,0
   171d2:	6509                	lui	a0,0x2
   171d4:	0c450413          	addi	s0,a0,196 # 20c4 <.Lline_table_start1+0x1e99>
   171d8:	470d                	li	a4,3
   171da:	8522                	mv	a0,s0
   171dc:	00000073          	ecall
   171e0:	459d                	li	a1,7
   171e2:	4711                	li	a4,4
   171e4:	8522                	mv	a0,s0
   171e6:	4601                	li	a2,0
   171e8:	4681                	li	a3,0
   171ea:	00000073          	ecall
   171ee:	bd9d                	j	17064 <_start+0xcc>
   171f0:	4581                	li	a1,0
   171f2:	4601                	li	a2,0
   171f4:	4681                	li	a3,0
   171f6:	6a09                	lui	s4,0x2
   171f8:	0c4a0413          	addi	s0,s4,196 # 20c4 <.Lline_table_start1+0x1e99>
   171fc:	470d                	li	a4,3
   171fe:	8522                	mv	a0,s0
   17200:	00000073          	ecall
   17204:	470d                	li	a4,3
   17206:	8522                	mv	a0,s0
   17208:	4581                	li	a1,0
   1720a:	4601                	li	a2,0
   1720c:	4681                	li	a3,0
   1720e:	00000073          	ecall
   17212:	33d94503          	lbu	a0,829(s2)
   17216:	33c94583          	lbu	a1,828(s2)
   1721a:	33e94603          	lbu	a2,830(s2)
   1721e:	33f94a83          	lbu	s5,831(s2)
   17222:	0522                	slli	a0,a0,0x8
   17224:	8d4d                	or	a0,a0,a1
   17226:	34094b03          	lbu	s6,832(s2)
   1722a:	34194483          	lbu	s1,833(s2)
   1722e:	34294b83          	lbu	s7,834(s2)
   17232:	04a11a23          	sh	a0,84(sp)
   17236:	04c10b23          	sb	a2,86(sp)
   1723a:	6505                	lui	a0,0x1
   1723c:	2f750513          	addi	a0,a0,759 # 12f7 <.Lline_table_start1+0x10cc>
   17240:	00a105b3          	add	a1,sp,a0
   17244:	0848                	addi	a0,sp,20
   17246:	03f00613          	li	a2,63
   1724a:	00004097          	auipc	ra,0x4
   1724e:	9cc080e7          	jalr	-1588(ra) # 1ac16 <memcpy>
   17252:	8522                	mv	a0,s0
   17254:	4581                	li	a1,0
   17256:	4601                	li	a2,0
   17258:	4681                	li	a3,0
   1725a:	470d                	li	a4,3
   1725c:	00000073          	ecall
   17260:	459d                	li	a1,7
   17262:	4711                	li	a4,4
   17264:	8522                	mv	a0,s0
   17266:	4601                	li	a2,0
   17268:	4681                	li	a3,0
   1726a:	00000073          	ecall
   1726e:	6505                	lui	a0,0x1
   17270:	35350513          	addi	a0,a0,851 # 1353 <.Lline_table_start1+0x1128>
   17274:	950a                	add	a0,a0,sp
   17276:	084c                	addi	a1,sp,20
   17278:	03f00613          	li	a2,63
   1727c:	00004097          	auipc	ra,0x4
   17280:	99a080e7          	jalr	-1638(ra) # 1ac16 <memcpy>
   17284:	05411503          	lh	a0,84(sp)
   17288:	05614583          	lbu	a1,86(sp)
   1728c:	38990ea3          	sb	s1,925(s2)
   17290:	39790f23          	sb	s7,926(s2)
   17294:	38a91c23          	sh	a0,920(s2)
   17298:	38b90d23          	sb	a1,922(s2)
   1729c:	39590da3          	sb	s5,923(s2)
   172a0:	39690e23          	sb	s6,924(s2)
   172a4:	6505                	lui	a0,0x1
   172a6:	2f050513          	addi	a0,a0,752 # 12f0 <.Lline_table_start1+0x10c5>
   172aa:	950a                	add	a0,a0,sp
   172ac:	4661                	li	a2,24
   172ae:	4581                	li	a1,0
   172b0:	00004097          	auipc	ra,0x4
   172b4:	8fa080e7          	jalr	-1798(ra) # 1abaa <memset>
   172b8:	3cfa0413          	addi	s0,s4,975
   172bc:	458d                	li	a1,3
   172be:	6505                	lui	a0,0x1
   172c0:	34c50513          	addi	a0,a0,844 # 134c <.Lline_table_start1+0x1121>
   172c4:	00a10633          	add	a2,sp,a0
   172c8:	04600693          	li	a3,70
   172cc:	4711                	li	a4,4
   172ce:	8522                	mv	a0,s0
   172d0:	00000073          	ecall
   172d4:	03350f63          	beq	a0,s3,17312 <_start+0x37a>
   172d8:	4489                	li	s1,2
   172da:	4589                	li	a1,2
   172dc:	6505                	lui	a0,0x1
   172de:	2f050513          	addi	a0,a0,752 # 12f0 <.Lline_table_start1+0x10c5>
   172e2:	00a10633          	add	a2,sp,a0
   172e6:	46e1                	li	a3,24
   172e8:	470d                	li	a4,3
   172ea:	8522                	mv	a0,s0
   172ec:	00000073          	ecall
   172f0:	02950163          	beq	a0,s1,17312 <_start+0x37a>
   172f4:	4681                	li	a3,0
   172f6:	6509                	lui	a0,0x2
   172f8:	458d                	li	a1,3
   172fa:	4609                	li	a2,2
   172fc:	4709                	li	a4,2
   172fe:	3cf50413          	addi	s0,a0,975 # 23cf <.Lline_table_start1+0x21a4>
   17302:	07f00493          	li	s1,127
   17306:	8522                	mv	a0,s0
   17308:	00000073          	ecall
   1730c:	4989                	li	s3,2
   1730e:	02a4e563          	bltu	s1,a0,17338 <_start+0x3a0>
   17312:	87ae                	mv	a5,a1
   17314:	4601                	li	a2,0
   17316:	4681                	li	a3,0
   17318:	6509                	lui	a0,0x2
   1731a:	4589                	li	a1,2
   1731c:	3cf50413          	addi	s0,a0,975 # 23cf <.Lline_table_start1+0x21a4>
   17320:	470d                	li	a4,3
   17322:	8522                	mv	a0,s0
   17324:	00000073          	ecall
   17328:	458d                	li	a1,3
   1732a:	4711                	li	a4,4
   1732c:	8522                	mv	a0,s0
   1732e:	4601                	li	a2,0
   17330:	4681                	li	a3,0
   17332:	00000073          	ecall
   17336:	b33d                	j	17064 <_start+0xcc>
   17338:	8522                	mv	a0,s0
   1733a:	4601                	li	a2,0
   1733c:	4681                	li	a3,0
   1733e:	4589                	li	a1,2
   17340:	470d                	li	a4,3
   17342:	00000073          	ecall
   17346:	470d                	li	a4,3
   17348:	4589                	li	a1,2
   1734a:	8522                	mv	a0,s0
   1734c:	4601                	li	a2,0
   1734e:	4681                	li	a3,0
   17350:	00000073          	ecall
   17354:	33d94503          	lbu	a0,829(s2)
   17358:	33c94583          	lbu	a1,828(s2)
   1735c:	33e94603          	lbu	a2,830(s2)
   17360:	33f94a03          	lbu	s4,831(s2)
   17364:	0522                	slli	a0,a0,0x8
   17366:	8d4d                	or	a0,a0,a1
   17368:	34094a83          	lbu	s5,832(s2)
   1736c:	34194483          	lbu	s1,833(s2)
   17370:	34294b03          	lbu	s6,834(s2)
   17374:	06a11623          	sh	a0,108(sp)
   17378:	06c10723          	sb	a2,110(sp)
   1737c:	6505                	lui	a0,0x1
   1737e:	2f750513          	addi	a0,a0,759 # 12f7 <.Lline_table_start1+0x10cc>
   17382:	00a105b3          	add	a1,sp,a0
   17386:	08a8                	addi	a0,sp,88
   17388:	4645                	li	a2,17
   1738a:	00004097          	auipc	ra,0x4
   1738e:	88c080e7          	jalr	-1908(ra) # 1ac16 <memcpy>
   17392:	8522                	mv	a0,s0
   17394:	4601                	li	a2,0
   17396:	4681                	li	a3,0
   17398:	4589                	li	a1,2
   1739a:	470d                	li	a4,3
   1739c:	00000073          	ecall
   173a0:	458d                	li	a1,3
   173a2:	4711                	li	a4,4
   173a4:	8522                	mv	a0,s0
   173a6:	4601                	li	a2,0
   173a8:	4681                	li	a3,0
   173aa:	00000073          	ecall
   173ae:	01b10513          	addi	a0,sp,27
   173b2:	08ac                	addi	a1,sp,88
   173b4:	4645                	li	a2,17
   173b6:	00004097          	auipc	ra,0x4
   173ba:	860080e7          	jalr	-1952(ra) # 1ac16 <memcpy>
   173be:	06c11503          	lh	a0,108(sp)
   173c2:	06e14583          	lbu	a1,110(sp)
   173c6:	00910ca3          	sb	s1,25(sp)
   173ca:	01610d23          	sb	s6,26(sp)
   173ce:	00a11a23          	sh	a0,20(sp)
   173d2:	00b10b23          	sb	a1,22(sp)
   173d6:	01410ba3          	sb	s4,23(sp)
   173da:	01510c23          	sb	s5,24(sp)
   173de:	6505                	lui	a0,0x1
   173e0:	34c50513          	addi	a0,a0,844 # 134c <.Lline_table_start1+0x1121>
   173e4:	950a                	add	a0,a0,sp
   173e6:	03600613          	li	a2,54
   173ea:	4581                	li	a1,0
   173ec:	00003097          	auipc	ra,0x3
   173f0:	7be080e7          	jalr	1982(ra) # 1abaa <memset>
   173f4:	21f00513          	li	a0,543
   173f8:	0850                	addi	a2,sp,20
   173fa:	46e1                	li	a3,24
   173fc:	4711                	li	a4,4
   173fe:	4581                	li	a1,0
   17400:	00000073          	ecall
   17404:	03350e63          	beq	a0,s3,17440 <_start+0x4a8>
   17408:	21f00513          	li	a0,543
   1740c:	459d                	li	a1,7
   1740e:	6605                	lui	a2,0x1
   17410:	34c60613          	addi	a2,a2,844 # 134c <.Lline_table_start1+0x1121>
   17414:	960a                	add	a2,a2,sp
   17416:	03600693          	li	a3,54
   1741a:	470d                	li	a4,3
   1741c:	4489                	li	s1,2
   1741e:	00000073          	ecall
   17422:	00950f63          	beq	a0,s1,17440 <_start+0x4a8>
   17426:	4581                	li	a1,0
   17428:	4681                	li	a3,0
   1742a:	21f00513          	li	a0,543
   1742e:	461d                	li	a2,7
   17430:	4709                	li	a4,2
   17432:	07f00413          	li	s0,127
   17436:	00000073          	ecall
   1743a:	4989                	li	s3,2
   1743c:	02a46463          	bltu	s0,a0,17464 <_start+0x4cc>
   17440:	87ae                	mv	a5,a1
   17442:	4601                	li	a2,0
   17444:	4681                	li	a3,0
   17446:	21f00513          	li	a0,543
   1744a:	459d                	li	a1,7
   1744c:	470d                	li	a4,3
   1744e:	00000073          	ecall
   17452:	21f00513          	li	a0,543
   17456:	4711                	li	a4,4
   17458:	4581                	li	a1,0
   1745a:	4601                	li	a2,0
   1745c:	4681                	li	a3,0
   1745e:	00000073          	ecall
   17462:	b109                	j	17064 <_start+0xcc>
   17464:	4601                	li	a2,0
   17466:	4681                	li	a3,0
   17468:	21f00513          	li	a0,543
   1746c:	459d                	li	a1,7
   1746e:	470d                	li	a4,3
   17470:	00000073          	ecall
   17474:	470d                	li	a4,3
   17476:	21f00513          	li	a0,543
   1747a:	459d                	li	a1,7
   1747c:	4601                	li	a2,0
   1747e:	4681                	li	a3,0
   17480:	00000073          	ecall
   17484:	39994503          	lbu	a0,921(s2)
   17488:	39894583          	lbu	a1,920(s2)
   1748c:	39a94603          	lbu	a2,922(s2)
   17490:	39b94a03          	lbu	s4,923(s2)
   17494:	0522                	slli	a0,a0,0x8
   17496:	8d4d                	or	a0,a0,a1
   17498:	39c94a83          	lbu	s5,924(s2)
   1749c:	39d94403          	lbu	s0,925(s2)
   174a0:	39e94483          	lbu	s1,926(s2)
   174a4:	06a11823          	sh	a0,112(sp)
   174a8:	06c10923          	sb	a2,114(sp)
   174ac:	6505                	lui	a0,0x1
   174ae:	35350513          	addi	a0,a0,851 # 1353 <.Lline_table_start1+0x1128>
   174b2:	00a105b3          	add	a1,sp,a0
   174b6:	6505                	lui	a0,0x1
   174b8:	2f050513          	addi	a0,a0,752 # 12f0 <.Lline_table_start1+0x10c5>
   174bc:	950a                	add	a0,a0,sp
   174be:	02f00613          	li	a2,47
   174c2:	00003097          	auipc	ra,0x3
   174c6:	754080e7          	jalr	1876(ra) # 1ac16 <memcpy>
   174ca:	4601                	li	a2,0
   174cc:	4681                	li	a3,0
   174ce:	21f00513          	li	a0,543
   174d2:	459d                	li	a1,7
   174d4:	470d                	li	a4,3
   174d6:	00000073          	ecall
   174da:	21f00513          	li	a0,543
   174de:	4711                	li	a4,4
   174e0:	4581                	li	a1,0
   174e2:	4601                	li	a2,0
   174e4:	4681                	li	a3,0
   174e6:	00000073          	ecall
   174ea:	6505                	lui	a0,0x1
   174ec:	35350513          	addi	a0,a0,851 # 1353 <.Lline_table_start1+0x1128>
   174f0:	950a                	add	a0,a0,sp
   174f2:	6585                	lui	a1,0x1
   174f4:	2f058593          	addi	a1,a1,752 # 12f0 <.Lline_table_start1+0x10c5>
   174f8:	958a                	add	a1,a1,sp
   174fa:	02f00613          	li	a2,47
   174fe:	00003097          	auipc	ra,0x3
   17502:	718080e7          	jalr	1816(ra) # 1ac16 <memcpy>
   17506:	07011503          	lh	a0,112(sp)
   1750a:	07214583          	lbu	a1,114(sp)
   1750e:	38890ea3          	sb	s0,925(s2)
   17512:	38990f23          	sb	s1,926(s2)
   17516:	38a91c23          	sh	a0,920(s2)
   1751a:	38b90d23          	sb	a1,922(s2)
   1751e:	39490da3          	sb	s4,923(s2)
   17522:	39590e23          	sb	s5,924(s2)
   17526:	6505                	lui	a0,0x1
   17528:	2f050513          	addi	a0,a0,752 # 12f0 <.Lline_table_start1+0x10c5>
   1752c:	950a                	add	a0,a0,sp
   1752e:	02500613          	li	a2,37
   17532:	4581                	li	a1,0
   17534:	00003097          	auipc	ra,0x3
   17538:	676080e7          	jalr	1654(ra) # 1abaa <memset>
   1753c:	6505                	lui	a0,0x1
   1753e:	459d                	li	a1,7
   17540:	6605                	lui	a2,0x1
   17542:	34c60613          	addi	a2,a2,844 # 134c <.Lline_table_start1+0x1121>
   17546:	960a                	add	a2,a2,sp
   17548:	59750413          	addi	s0,a0,1431 # 1597 <.Lline_table_start1+0x136c>
   1754c:	03600693          	li	a3,54
   17550:	4711                	li	a4,4
   17552:	8522                	mv	a0,s0
   17554:	00000073          	ecall
   17558:	05350063          	beq	a0,s3,17598 <_start+0x600>
   1755c:	6505                	lui	a0,0x1
   1755e:	2f050513          	addi	a0,a0,752 # 12f0 <.Lline_table_start1+0x10c5>
   17562:	00a10633          	add	a2,sp,a0
   17566:	02500693          	li	a3,37
   1756a:	470d                	li	a4,3
   1756c:	4489                	li	s1,2
   1756e:	8522                	mv	a0,s0
   17570:	4581                	li	a1,0
   17572:	00000073          	ecall
   17576:	02950163          	beq	a0,s1,17598 <_start+0x600>
   1757a:	4601                	li	a2,0
   1757c:	4681                	li	a3,0
   1757e:	6505                	lui	a0,0x1
   17580:	459d                	li	a1,7
   17582:	4709                	li	a4,2
   17584:	59750413          	addi	s0,a0,1431 # 1597 <.Lline_table_start1+0x136c>
   17588:	07f00493          	li	s1,127
   1758c:	8522                	mv	a0,s0
   1758e:	00000073          	ecall
   17592:	4989                	li	s3,2
   17594:	02a4e563          	bltu	s1,a0,175be <_start+0x626>
   17598:	87ae                	mv	a5,a1
   1759a:	4581                	li	a1,0
   1759c:	4601                	li	a2,0
   1759e:	4681                	li	a3,0
   175a0:	6505                	lui	a0,0x1
   175a2:	59750413          	addi	s0,a0,1431 # 1597 <.Lline_table_start1+0x136c>
   175a6:	470d                	li	a4,3
   175a8:	8522                	mv	a0,s0
   175aa:	00000073          	ecall
   175ae:	459d                	li	a1,7
   175b0:	4711                	li	a4,4
   175b2:	8522                	mv	a0,s0
   175b4:	4601                	li	a2,0
   175b6:	4681                	li	a3,0
   175b8:	00000073          	ecall
   175bc:	b465                	j	17064 <_start+0xcc>
   175be:	8522                	mv	a0,s0
   175c0:	4581                	li	a1,0
   175c2:	4601                	li	a2,0
   175c4:	4681                	li	a3,0
   175c6:	470d                	li	a4,3
   175c8:	00000073          	ecall
   175cc:	8522                	mv	a0,s0
   175ce:	4581                	li	a1,0
   175d0:	4601                	li	a2,0
   175d2:	4681                	li	a3,0
   175d4:	470d                	li	a4,3
   175d6:	00000073          	ecall
   175da:	33d94503          	lbu	a0,829(s2)
   175de:	33c94583          	lbu	a1,828(s2)
   175e2:	33e94603          	lbu	a2,830(s2)
   175e6:	33f94a03          	lbu	s4,831(s2)
   175ea:	0522                	slli	a0,a0,0x8
   175ec:	8d4d                	or	a0,a0,a1
   175ee:	34094a83          	lbu	s5,832(s2)
   175f2:	34194483          	lbu	s1,833(s2)
   175f6:	34294b03          	lbu	s6,834(s2)
   175fa:	06a11a23          	sh	a0,116(sp)
   175fe:	06c10b23          	sb	a2,118(sp)
   17602:	6505                	lui	a0,0x1
   17604:	2f750513          	addi	a0,a0,759 # 12f7 <.Lline_table_start1+0x10cc>
   17608:	00a105b3          	add	a1,sp,a0
   1760c:	0848                	addi	a0,sp,20
   1760e:	4679                	li	a2,30
   17610:	00003097          	auipc	ra,0x3
   17614:	606080e7          	jalr	1542(ra) # 1ac16 <memcpy>
   17618:	8522                	mv	a0,s0
   1761a:	4581                	li	a1,0
   1761c:	4601                	li	a2,0
   1761e:	4681                	li	a3,0
   17620:	470d                	li	a4,3
   17622:	00000073          	ecall
   17626:	459d                	li	a1,7
   17628:	4711                	li	a4,4
   1762a:	8522                	mv	a0,s0
   1762c:	4601                	li	a2,0
   1762e:	4681                	li	a3,0
   17630:	00000073          	ecall
   17634:	6505                	lui	a0,0x1
   17636:	35350513          	addi	a0,a0,851 # 1353 <.Lline_table_start1+0x1128>
   1763a:	950a                	add	a0,a0,sp
   1763c:	084c                	addi	a1,sp,20
   1763e:	4679                	li	a2,30
   17640:	00003097          	auipc	ra,0x3
   17644:	5d6080e7          	jalr	1494(ra) # 1ac16 <memcpy>
   17648:	07411703          	lh	a4,116(sp)
   1764c:	07614783          	lbu	a5,118(sp)
   17650:	38990ea3          	sb	s1,925(s2)
   17654:	39690f23          	sb	s6,926(s2)
   17658:	32092e23          	sw	zero,828(s2)
   1765c:	34092023          	sw	zero,832(s2)
   17660:	34092223          	sw	zero,836(s2)
   17664:	34091423          	sh	zero,840(s2)
   17668:	66700513          	li	a0,1639
   1766c:	4589                	li	a1,2
   1766e:	6605                	lui	a2,0x1
   17670:	34c60613          	addi	a2,a2,844 # 134c <.Lline_table_start1+0x1121>
   17674:	960a                	add	a2,a2,sp
   17676:	02500693          	li	a3,37
   1767a:	38e91c23          	sh	a4,920(s2)
   1767e:	38f90d23          	sb	a5,922(s2)
   17682:	39490da3          	sb	s4,923(s2)
   17686:	39590e23          	sb	s5,924(s2)
   1768a:	4711                	li	a4,4
   1768c:	00000073          	ecall
   17690:	03350c63          	beq	a0,s3,176c8 <_start+0x730>
   17694:	66700513          	li	a0,1639
   17698:	45a1                	li	a1,8
   1769a:	6605                	lui	a2,0x1
   1769c:	2f060613          	addi	a2,a2,752 # 12f0 <.Lline_table_start1+0x10c5>
   176a0:	960a                	add	a2,a2,sp
   176a2:	46b9                	li	a3,14
   176a4:	470d                	li	a4,3
   176a6:	4489                	li	s1,2
   176a8:	00000073          	ecall
   176ac:	00950e63          	beq	a0,s1,176c8 <_start+0x730>
   176b0:	66700513          	li	a0,1639
   176b4:	4589                	li	a1,2
   176b6:	4621                	li	a2,8
   176b8:	4709                	li	a4,2
   176ba:	07f00493          	li	s1,127
   176be:	4681                	li	a3,0
   176c0:	00000073          	ecall
   176c4:	02a4e463          	bltu	s1,a0,176ec <_start+0x754>
   176c8:	87ae                	mv	a5,a1
   176ca:	4601                	li	a2,0
   176cc:	4681                	li	a3,0
   176ce:	66700513          	li	a0,1639
   176d2:	45a1                	li	a1,8
   176d4:	470d                	li	a4,3
   176d6:	00000073          	ecall
   176da:	66700513          	li	a0,1639
   176de:	4589                	li	a1,2
   176e0:	4711                	li	a4,4
   176e2:	4601                	li	a2,0
   176e4:	4681                	li	a3,0
   176e6:	00000073          	ecall
   176ea:	baad                	j	17064 <_start+0xcc>
   176ec:	4601                	li	a2,0
   176ee:	4681                	li	a3,0
   176f0:	66700513          	li	a0,1639
   176f4:	45a1                	li	a1,8
   176f6:	470d                	li	a4,3
   176f8:	00000073          	ecall
   176fc:	470d                	li	a4,3
   176fe:	66700513          	li	a0,1639
   17702:	45a1                	li	a1,8
   17704:	4601                	li	a2,0
   17706:	4681                	li	a3,0
   17708:	00000073          	ecall
   1770c:	33c91503          	lh	a0,828(s2)
   17710:	33e94583          	lbu	a1,830(s2)
   17714:	33f94803          	lbu	a6,831(s2)
   17718:	34094883          	lbu	a7,832(s2)
   1771c:	34594603          	lbu	a2,837(s2)
   17720:	34694683          	lbu	a3,838(s2)
   17724:	34794703          	lbu	a4,839(s2)
   17728:	34894403          	lbu	s0,840(s2)
   1772c:	06a11c23          	sh	a0,120(sp)
   17730:	06b10d23          	sb	a1,122(sp)
   17734:	34194283          	lbu	t0,833(s2)
   17738:	34294483          	lbu	s1,834(s2)
   1773c:	34394503          	lbu	a0,835(s2)
   17740:	34494583          	lbu	a1,836(s2)
   17744:	0422                	slli	s0,s0,0x8
   17746:	8c59                	or	s0,s0,a4
   17748:	470d                	li	a4,3
   1774a:	05a2                	slli	a1,a1,0x8
   1774c:	8dc9                	or	a1,a1,a0
   1774e:	34994783          	lbu	a5,841(s2)
   17752:	0642                	slli	a2,a2,0x10
   17754:	06e2                	slli	a3,a3,0x18
   17756:	8e55                	or	a2,a2,a3
   17758:	66700513          	li	a0,1639
   1775c:	8e4d                	or	a2,a2,a1
   1775e:	45a1                	li	a1,8
   17760:	ca32                	sw	a2,20(sp)
   17762:	00811c23          	sh	s0,24(sp)
   17766:	00f10d23          	sb	a5,26(sp)
   1776a:	4601                	li	a2,0
   1776c:	4681                	li	a3,0
   1776e:	00000073          	ecall
   17772:	4711                	li	a4,4
   17774:	66700513          	li	a0,1639
   17778:	4589                	li	a1,2
   1777a:	4601                	li	a2,0
   1777c:	4681                	li	a3,0
   1777e:	00000073          	ecall
   17782:	07010da3          	sb	a6,123(sp)
   17786:	07110e23          	sb	a7,124(sp)
   1778a:	06510ea3          	sb	t0,125(sp)
   1778e:	06910f23          	sb	s1,126(sp)
   17792:	07f10513          	addi	a0,sp,127
   17796:	084c                	addi	a1,sp,20
   17798:	461d                	li	a2,7
   1779a:	00003097          	auipc	ra,0x3
   1779e:	47c080e7          	jalr	1148(ra) # 1ac16 <memcpy>
   177a2:	6505                	lui	a0,0x1
   177a4:	34c50513          	addi	a0,a0,844 # 134c <.Lline_table_start1+0x1121>
   177a8:	950a                	add	a0,a0,sp
   177aa:	18ac                	addi	a1,sp,120
   177ac:	ffffc097          	auipc	ra,0xffffc
   177b0:	69e080e7          	jalr	1694(ra) # 13e4a <_ZN18complex_no_dynamic3app17h5fa8028b25a9b54dE>
   177b4:	39894503          	lbu	a0,920(s2)
   177b8:	c119                	beqz	a0,177be <_start+0x826>
   177ba:	3e40306f          	j	1ab9e <_start+0x3c06>
   177be:	39a94503          	lbu	a0,922(s2)
   177c2:	39994583          	lbu	a1,921(s2)
   177c6:	39b94603          	lbu	a2,923(s2)
   177ca:	39c92403          	lw	s0,924(s2)
   177ce:	0522                	slli	a0,a0,0x8
   177d0:	8d4d                	or	a0,a0,a1
   177d2:	08a11323          	sh	a0,134(sp)
   177d6:	08c10423          	sb	a2,136(sp)
   177da:	6505                	lui	a0,0x1
   177dc:	35450513          	addi	a0,a0,852 # 1354 <.Lline_table_start1+0x1129>
   177e0:	00a105b3          	add	a1,sp,a0
   177e4:	6505                	lui	a0,0x1
   177e6:	2f050513          	addi	a0,a0,752 # 12f0 <.Lline_table_start1+0x10c5>
   177ea:	950a                	add	a0,a0,sp
   177ec:	04100613          	li	a2,65
   177f0:	00003097          	auipc	ra,0x3
   177f4:	426080e7          	jalr	1062(ra) # 1ac16 <memcpy>
   177f8:	01845513          	srli	a0,s0,0x18
   177fc:	01045593          	srli	a1,s0,0x10
   17800:	00845613          	srli	a2,s0,0x8
   17804:	088104a3          	sb	s0,137(sp)
   17808:	08c10523          	sb	a2,138(sp)
   1780c:	08b105a3          	sb	a1,139(sp)
   17810:	08a10623          	sb	a0,140(sp)
   17814:	08d10513          	addi	a0,sp,141
   17818:	6585                	lui	a1,0x1
   1781a:	2f058593          	addi	a1,a1,752 # 12f0 <.Lline_table_start1+0x10c5>
   1781e:	958a                	add	a1,a1,sp
   17820:	04100613          	li	a2,65
   17824:	00003097          	auipc	ra,0x3
   17828:	3f2080e7          	jalr	1010(ra) # 1ac16 <memcpy>
   1782c:	6505                	lui	a0,0x1
   1782e:	34c50513          	addi	a0,a0,844 # 134c <.Lline_table_start1+0x1121>
   17832:	950a                	add	a0,a0,sp
   17834:	08610593          	addi	a1,sp,134
   17838:	ffffb097          	auipc	ra,0xffffb
   1783c:	722080e7          	jalr	1826(ra) # 12f5a <_ZN18complex_no_dynamic3app17h433a004fab26c4dfE>
   17840:	39894503          	lbu	a0,920(s2)
   17844:	c119                	beqz	a0,1784a <_start+0x8b2>
   17846:	3580306f          	j	1ab9e <_start+0x3c06>
   1784a:	39994503          	lbu	a0,921(s2)
   1784e:	39a94583          	lbu	a1,922(s2)
   17852:	39b94803          	lbu	a6,923(s2)
   17856:	39c92683          	lw	a3,924(s2)
   1785a:	3a092703          	lw	a4,928(s2)
   1785e:	3a492783          	lw	a5,932(s2)
   17862:	05a2                	slli	a1,a1,0x8
   17864:	0186d893          	srli	a7,a3,0x18
   17868:	0106d293          	srli	t0,a3,0x10
   1786c:	0187d613          	srli	a2,a5,0x18
   17870:	0107d493          	srli	s1,a5,0x10
   17874:	0087d413          	srli	s0,a5,0x8
   17878:	8d4d                	or	a0,a0,a1
   1787a:	01875593          	srli	a1,a4,0x18
   1787e:	0c910da3          	sb	s1,219(sp)
   17882:	0cc10e23          	sb	a2,220(sp)
   17886:	01075613          	srli	a2,a4,0x10
   1788a:	0cc10ba3          	sb	a2,215(sp)
   1788e:	0cb10c23          	sb	a1,216(sp)
   17892:	0cf10ca3          	sb	a5,217(sp)
   17896:	0c810d23          	sb	s0,218(sp)
   1789a:	0086d593          	srli	a1,a3,0x8
   1789e:	0ca11723          	sh	a0,206(sp)
   178a2:	0d010823          	sb	a6,208(sp)
   178a6:	0cd108a3          	sb	a3,209(sp)
   178aa:	0cb10923          	sb	a1,210(sp)
   178ae:	00875513          	srli	a0,a4,0x8
   178b2:	0c5109a3          	sb	t0,211(sp)
   178b6:	0d110a23          	sb	a7,212(sp)
   178ba:	0ce10aa3          	sb	a4,213(sp)
   178be:	0ca10b23          	sb	a0,214(sp)
   178c2:	6505                	lui	a0,0x1
   178c4:	34c50513          	addi	a0,a0,844 # 134c <.Lline_table_start1+0x1121>
   178c8:	950a                	add	a0,a0,sp
   178ca:	0ce10593          	addi	a1,sp,206
   178ce:	ffffb097          	auipc	ra,0xffffb
   178d2:	f92080e7          	jalr	-110(ra) # 12860 <_ZN18complex_no_dynamic3app17h3246f04ed2c5b0a3E>
   178d6:	39894503          	lbu	a0,920(s2)
   178da:	c119                	beqz	a0,178e0 <_start+0x948>
   178dc:	2c20306f          	j	1ab9e <_start+0x3c06>
   178e0:	39a94503          	lbu	a0,922(s2)
   178e4:	39994583          	lbu	a1,921(s2)
   178e8:	39b94603          	lbu	a2,923(s2)
   178ec:	39c92403          	lw	s0,924(s2)
   178f0:	0522                	slli	a0,a0,0x8
   178f2:	8d4d                	or	a0,a0,a1
   178f4:	0ca11f23          	sh	a0,222(sp)
   178f8:	0ec10023          	sb	a2,224(sp)
   178fc:	6505                	lui	a0,0x1
   178fe:	35450513          	addi	a0,a0,852 # 1354 <.Lline_table_start1+0x1129>
   17902:	00a105b3          	add	a1,sp,a0
   17906:	6505                	lui	a0,0x1
   17908:	2f050513          	addi	a0,a0,752 # 12f0 <.Lline_table_start1+0x10c5>
   1790c:	950a                	add	a0,a0,sp
   1790e:	4679                	li	a2,30
   17910:	00003097          	auipc	ra,0x3
   17914:	306080e7          	jalr	774(ra) # 1ac16 <memcpy>
   17918:	01845513          	srli	a0,s0,0x18
   1791c:	01045593          	srli	a1,s0,0x10
   17920:	00845613          	srli	a2,s0,0x8
   17924:	0e8100a3          	sb	s0,225(sp)
   17928:	0ec10123          	sb	a2,226(sp)
   1792c:	0eb101a3          	sb	a1,227(sp)
   17930:	0ea10223          	sb	a0,228(sp)
   17934:	0e510513          	addi	a0,sp,229
   17938:	6585                	lui	a1,0x1
   1793a:	2f058593          	addi	a1,a1,752 # 12f0 <.Lline_table_start1+0x10c5>
   1793e:	958a                	add	a1,a1,sp
   17940:	4679                	li	a2,30
   17942:	00003097          	auipc	ra,0x3
   17946:	2d4080e7          	jalr	724(ra) # 1ac16 <memcpy>
   1794a:	6505                	lui	a0,0x1
   1794c:	34c50513          	addi	a0,a0,844 # 134c <.Lline_table_start1+0x1121>
   17950:	950a                	add	a0,a0,sp
   17952:	0de10593          	addi	a1,sp,222
   17956:	ffffd097          	auipc	ra,0xffffd
   1795a:	612080e7          	jalr	1554(ra) # 14f68 <_ZN18complex_no_dynamic3app17h9d356e8b2f7e4490E>
   1795e:	39894503          	lbu	a0,920(s2)
   17962:	c119                	beqz	a0,17968 <_start+0x9d0>
   17964:	23a0306f          	j	1ab9e <_start+0x3c06>
   17968:	39a94503          	lbu	a0,922(s2)
   1796c:	39994583          	lbu	a1,921(s2)
   17970:	39b94603          	lbu	a2,923(s2)
   17974:	39c92403          	lw	s0,924(s2)
   17978:	0522                	slli	a0,a0,0x8
   1797a:	8d4d                	or	a0,a0,a1
   1797c:	10a11223          	sh	a0,260(sp)
   17980:	10c10323          	sb	a2,262(sp)
   17984:	6505                	lui	a0,0x1
   17986:	35450513          	addi	a0,a0,852 # 1354 <.Lline_table_start1+0x1129>
   1798a:	00a105b3          	add	a1,sp,a0
   1798e:	6505                	lui	a0,0x1
   17990:	2f050513          	addi	a0,a0,752 # 12f0 <.Lline_table_start1+0x10c5>
   17994:	950a                	add	a0,a0,sp
   17996:	02300613          	li	a2,35
   1799a:	00003097          	auipc	ra,0x3
   1799e:	27c080e7          	jalr	636(ra) # 1ac16 <memcpy>
   179a2:	01845513          	srli	a0,s0,0x18
   179a6:	01045593          	srli	a1,s0,0x10
   179aa:	00845613          	srli	a2,s0,0x8
   179ae:	108103a3          	sb	s0,263(sp)
   179b2:	10c10423          	sb	a2,264(sp)
   179b6:	10b104a3          	sb	a1,265(sp)
   179ba:	10a10523          	sb	a0,266(sp)
   179be:	10b10513          	addi	a0,sp,267
   179c2:	6585                	lui	a1,0x1
   179c4:	2f058593          	addi	a1,a1,752 # 12f0 <.Lline_table_start1+0x10c5>
   179c8:	958a                	add	a1,a1,sp
   179ca:	02300613          	li	a2,35
   179ce:	00003097          	auipc	ra,0x3
   179d2:	248080e7          	jalr	584(ra) # 1ac16 <memcpy>
   179d6:	6505                	lui	a0,0x1
   179d8:	34c50513          	addi	a0,a0,844 # 134c <.Lline_table_start1+0x1121>
   179dc:	950a                	add	a0,a0,sp
   179de:	024c                	addi	a1,sp,260
   179e0:	ffffc097          	auipc	ra,0xffffc
   179e4:	06e080e7          	jalr	110(ra) # 13a4e <_ZN18complex_no_dynamic3app17h5c656c7ef7d923deE>
   179e8:	39894503          	lbu	a0,920(s2)
   179ec:	c119                	beqz	a0,179f2 <_start+0xa5a>
   179ee:	1b00306f          	j	1ab9e <_start+0x3c06>
   179f2:	39a94503          	lbu	a0,922(s2)
   179f6:	39994583          	lbu	a1,921(s2)
   179fa:	39b94603          	lbu	a2,923(s2)
   179fe:	39c92403          	lw	s0,924(s2)
   17a02:	0522                	slli	a0,a0,0x8
   17a04:	8d4d                	or	a0,a0,a1
   17a06:	12a11723          	sh	a0,302(sp)
   17a0a:	12c10823          	sb	a2,304(sp)
   17a0e:	6505                	lui	a0,0x1
   17a10:	35450513          	addi	a0,a0,852 # 1354 <.Lline_table_start1+0x1129>
   17a14:	00a105b3          	add	a1,sp,a0
   17a18:	6505                	lui	a0,0x1
   17a1a:	2f050513          	addi	a0,a0,752 # 12f0 <.Lline_table_start1+0x10c5>
   17a1e:	950a                	add	a0,a0,sp
   17a20:	05c00613          	li	a2,92
   17a24:	00003097          	auipc	ra,0x3
   17a28:	1f2080e7          	jalr	498(ra) # 1ac16 <memcpy>
   17a2c:	01845513          	srli	a0,s0,0x18
   17a30:	01045593          	srli	a1,s0,0x10
   17a34:	00845613          	srli	a2,s0,0x8
   17a38:	128108a3          	sb	s0,305(sp)
   17a3c:	12c10923          	sb	a2,306(sp)
   17a40:	12b109a3          	sb	a1,307(sp)
   17a44:	12a10a23          	sb	a0,308(sp)
   17a48:	13510513          	addi	a0,sp,309
   17a4c:	6585                	lui	a1,0x1
   17a4e:	2f058593          	addi	a1,a1,752 # 12f0 <.Lline_table_start1+0x10c5>
   17a52:	958a                	add	a1,a1,sp
   17a54:	05c00613          	li	a2,92
   17a58:	00003097          	auipc	ra,0x3
   17a5c:	1be080e7          	jalr	446(ra) # 1ac16 <memcpy>
   17a60:	6505                	lui	a0,0x1
   17a62:	34c50513          	addi	a0,a0,844 # 134c <.Lline_table_start1+0x1121>
   17a66:	950a                	add	a0,a0,sp
   17a68:	12e10593          	addi	a1,sp,302
   17a6c:	ffffb097          	auipc	ra,0xffffb
   17a70:	1ee080e7          	jalr	494(ra) # 12c5a <_ZN18complex_no_dynamic3app17h3d20d32cf2e92329E>
   17a74:	39894503          	lbu	a0,920(s2)
   17a78:	c119                	beqz	a0,17a7e <_start+0xae6>
   17a7a:	1240306f          	j	1ab9e <_start+0x3c06>
   17a7e:	39a94503          	lbu	a0,922(s2)
   17a82:	39994583          	lbu	a1,921(s2)
   17a86:	39b94603          	lbu	a2,923(s2)
   17a8a:	39c92403          	lw	s0,924(s2)
   17a8e:	0522                	slli	a0,a0,0x8
   17a90:	8d4d                	or	a0,a0,a1
   17a92:	18a11923          	sh	a0,402(sp)
   17a96:	18c10a23          	sb	a2,404(sp)
   17a9a:	6505                	lui	a0,0x1
   17a9c:	35450513          	addi	a0,a0,852 # 1354 <.Lline_table_start1+0x1129>
   17aa0:	00a105b3          	add	a1,sp,a0
   17aa4:	6505                	lui	a0,0x1
   17aa6:	2f050513          	addi	a0,a0,752 # 12f0 <.Lline_table_start1+0x10c5>
   17aaa:	950a                	add	a0,a0,sp
   17aac:	02000613          	li	a2,32
   17ab0:	00003097          	auipc	ra,0x3
   17ab4:	166080e7          	jalr	358(ra) # 1ac16 <memcpy>
   17ab8:	01845513          	srli	a0,s0,0x18
   17abc:	01045593          	srli	a1,s0,0x10
   17ac0:	00845613          	srli	a2,s0,0x8
   17ac4:	18810aa3          	sb	s0,405(sp)
   17ac8:	18c10b23          	sb	a2,406(sp)
   17acc:	18b10ba3          	sb	a1,407(sp)
   17ad0:	18a10c23          	sb	a0,408(sp)
   17ad4:	19910513          	addi	a0,sp,409
   17ad8:	6585                	lui	a1,0x1
   17ada:	2f058593          	addi	a1,a1,752 # 12f0 <.Lline_table_start1+0x10c5>
   17ade:	958a                	add	a1,a1,sp
   17ae0:	02000613          	li	a2,32
   17ae4:	00003097          	auipc	ra,0x3
   17ae8:	132080e7          	jalr	306(ra) # 1ac16 <memcpy>
   17aec:	6505                	lui	a0,0x1
   17aee:	34c50513          	addi	a0,a0,844 # 134c <.Lline_table_start1+0x1121>
   17af2:	950a                	add	a0,a0,sp
   17af4:	19210593          	addi	a1,sp,402
   17af8:	ffffb097          	auipc	ra,0xffffb
   17afc:	266080e7          	jalr	614(ra) # 12d5e <_ZN18complex_no_dynamic3app17h3e7f76d0bb5ad748E>
   17b00:	39894503          	lbu	a0,920(s2)
   17b04:	c119                	beqz	a0,17b0a <_start+0xb72>
   17b06:	0980306f          	j	1ab9e <_start+0x3c06>
   17b0a:	39a94503          	lbu	a0,922(s2)
   17b0e:	39994583          	lbu	a1,921(s2)
   17b12:	39b94603          	lbu	a2,923(s2)
   17b16:	39c92403          	lw	s0,924(s2)
   17b1a:	0522                	slli	a0,a0,0x8
   17b1c:	8d4d                	or	a0,a0,a1
   17b1e:	1aa11d23          	sh	a0,442(sp)
   17b22:	1ac10e23          	sb	a2,444(sp)
   17b26:	6505                	lui	a0,0x1
   17b28:	35450513          	addi	a0,a0,852 # 1354 <.Lline_table_start1+0x1129>
   17b2c:	00a105b3          	add	a1,sp,a0
   17b30:	6505                	lui	a0,0x1
   17b32:	2f050513          	addi	a0,a0,752 # 12f0 <.Lline_table_start1+0x10c5>
   17b36:	950a                	add	a0,a0,sp
   17b38:	465d                	li	a2,23
   17b3a:	00003097          	auipc	ra,0x3
   17b3e:	0dc080e7          	jalr	220(ra) # 1ac16 <memcpy>
   17b42:	01845513          	srli	a0,s0,0x18
   17b46:	01045593          	srli	a1,s0,0x10
   17b4a:	00845613          	srli	a2,s0,0x8
   17b4e:	1a810ea3          	sb	s0,445(sp)
   17b52:	1ac10f23          	sb	a2,446(sp)
   17b56:	1ab10fa3          	sb	a1,447(sp)
   17b5a:	1ca10023          	sb	a0,448(sp)
   17b5e:	1c110513          	addi	a0,sp,449
   17b62:	6585                	lui	a1,0x1
   17b64:	2f058593          	addi	a1,a1,752 # 12f0 <.Lline_table_start1+0x10c5>
   17b68:	958a                	add	a1,a1,sp
   17b6a:	465d                	li	a2,23
   17b6c:	00003097          	auipc	ra,0x3
   17b70:	0aa080e7          	jalr	170(ra) # 1ac16 <memcpy>
   17b74:	6505                	lui	a0,0x1
   17b76:	34c50513          	addi	a0,a0,844 # 134c <.Lline_table_start1+0x1121>
   17b7a:	950a                	add	a0,a0,sp
   17b7c:	1ba10593          	addi	a1,sp,442
   17b80:	ffffd097          	auipc	ra,0xffffd
   17b84:	b0c080e7          	jalr	-1268(ra) # 1468c <_ZN18complex_no_dynamic3app17h898d0e587db6caa3E>
   17b88:	39894503          	lbu	a0,920(s2)
   17b8c:	c119                	beqz	a0,17b92 <_start+0xbfa>
   17b8e:	0100306f          	j	1ab9e <_start+0x3c06>
   17b92:	39a94503          	lbu	a0,922(s2)
   17b96:	39994583          	lbu	a1,921(s2)
   17b9a:	39b94603          	lbu	a2,923(s2)
   17b9e:	39c92403          	lw	s0,924(s2)
   17ba2:	0522                	slli	a0,a0,0x8
   17ba4:	8d4d                	or	a0,a0,a1
   17ba6:	1ca11c23          	sh	a0,472(sp)
   17baa:	1cc10d23          	sb	a2,474(sp)
   17bae:	6505                	lui	a0,0x1
   17bb0:	35450513          	addi	a0,a0,852 # 1354 <.Lline_table_start1+0x1129>
   17bb4:	00a105b3          	add	a1,sp,a0
   17bb8:	6505                	lui	a0,0x1
   17bba:	2f050513          	addi	a0,a0,752 # 12f0 <.Lline_table_start1+0x10c5>
   17bbe:	950a                	add	a0,a0,sp
   17bc0:	02500613          	li	a2,37
   17bc4:	00003097          	auipc	ra,0x3
   17bc8:	052080e7          	jalr	82(ra) # 1ac16 <memcpy>
   17bcc:	01845513          	srli	a0,s0,0x18
   17bd0:	01045593          	srli	a1,s0,0x10
   17bd4:	00845613          	srli	a2,s0,0x8
   17bd8:	1c810da3          	sb	s0,475(sp)
   17bdc:	1cc10e23          	sb	a2,476(sp)
   17be0:	1cb10ea3          	sb	a1,477(sp)
   17be4:	1ca10f23          	sb	a0,478(sp)
   17be8:	1df10513          	addi	a0,sp,479
   17bec:	6585                	lui	a1,0x1
   17bee:	2f058593          	addi	a1,a1,752 # 12f0 <.Lline_table_start1+0x10c5>
   17bf2:	958a                	add	a1,a1,sp
   17bf4:	02500613          	li	a2,37
   17bf8:	00003097          	auipc	ra,0x3
   17bfc:	01e080e7          	jalr	30(ra) # 1ac16 <memcpy>
   17c00:	6505                	lui	a0,0x1
   17c02:	34c50513          	addi	a0,a0,844 # 134c <.Lline_table_start1+0x1121>
   17c06:	950a                	add	a0,a0,sp
   17c08:	0bac                	addi	a1,sp,472
   17c0a:	ffffa097          	auipc	ra,0xffffa
   17c0e:	20a080e7          	jalr	522(ra) # 11e14 <_ZN18complex_no_dynamic3app17h1ad3abee1a903415E>
   17c12:	39894503          	lbu	a0,920(s2)
   17c16:	c119                	beqz	a0,17c1c <_start+0xc84>
   17c18:	7870206f          	j	1ab9e <_start+0x3c06>
   17c1c:	39a94503          	lbu	a0,922(s2)
   17c20:	39994583          	lbu	a1,921(s2)
   17c24:	39b94603          	lbu	a2,923(s2)
   17c28:	39c92403          	lw	s0,924(s2)
   17c2c:	0522                	slli	a0,a0,0x8
   17c2e:	8d4d                	or	a0,a0,a1
   17c30:	20a11223          	sh	a0,516(sp)
   17c34:	20c10323          	sb	a2,518(sp)
   17c38:	6505                	lui	a0,0x1
   17c3a:	35450513          	addi	a0,a0,852 # 1354 <.Lline_table_start1+0x1129>
   17c3e:	00a105b3          	add	a1,sp,a0
   17c42:	6505                	lui	a0,0x1
   17c44:	2f050513          	addi	a0,a0,752 # 12f0 <.Lline_table_start1+0x10c5>
   17c48:	950a                	add	a0,a0,sp
   17c4a:	4679                	li	a2,30
   17c4c:	00003097          	auipc	ra,0x3
   17c50:	fca080e7          	jalr	-54(ra) # 1ac16 <memcpy>
   17c54:	01845513          	srli	a0,s0,0x18
   17c58:	01045593          	srli	a1,s0,0x10
   17c5c:	00845613          	srli	a2,s0,0x8
   17c60:	208103a3          	sb	s0,519(sp)
   17c64:	20c10423          	sb	a2,520(sp)
   17c68:	20b104a3          	sb	a1,521(sp)
   17c6c:	20a10523          	sb	a0,522(sp)
   17c70:	20b10513          	addi	a0,sp,523
   17c74:	6585                	lui	a1,0x1
   17c76:	2f058593          	addi	a1,a1,752 # 12f0 <.Lline_table_start1+0x10c5>
   17c7a:	958a                	add	a1,a1,sp
   17c7c:	4679                	li	a2,30
   17c7e:	00003097          	auipc	ra,0x3
   17c82:	f98080e7          	jalr	-104(ra) # 1ac16 <memcpy>
   17c86:	6505                	lui	a0,0x1
   17c88:	34c50513          	addi	a0,a0,844 # 134c <.Lline_table_start1+0x1121>
   17c8c:	950a                	add	a0,a0,sp
   17c8e:	044c                	addi	a1,sp,516
   17c90:	ffffd097          	auipc	ra,0xffffd
   17c94:	0e0080e7          	jalr	224(ra) # 14d70 <_ZN18complex_no_dynamic3app17h961f08cae24e3187E>
   17c98:	39894503          	lbu	a0,920(s2)
   17c9c:	c119                	beqz	a0,17ca2 <_start+0xd0a>
   17c9e:	7010206f          	j	1ab9e <_start+0x3c06>
   17ca2:	39a94503          	lbu	a0,922(s2)
   17ca6:	39994583          	lbu	a1,921(s2)
   17caa:	39b94603          	lbu	a2,923(s2)
   17cae:	39c92403          	lw	s0,924(s2)
   17cb2:	0522                	slli	a0,a0,0x8
   17cb4:	8d4d                	or	a0,a0,a1
   17cb6:	22a11523          	sh	a0,554(sp)
   17cba:	22c10623          	sb	a2,556(sp)
   17cbe:	6505                	lui	a0,0x1
   17cc0:	35450513          	addi	a0,a0,852 # 1354 <.Lline_table_start1+0x1129>
   17cc4:	00a105b3          	add	a1,sp,a0
   17cc8:	6505                	lui	a0,0x1
   17cca:	2f050513          	addi	a0,a0,752 # 12f0 <.Lline_table_start1+0x10c5>
   17cce:	950a                	add	a0,a0,sp
   17cd0:	4645                	li	a2,17
   17cd2:	00003097          	auipc	ra,0x3
   17cd6:	f44080e7          	jalr	-188(ra) # 1ac16 <memcpy>
   17cda:	01845513          	srli	a0,s0,0x18
   17cde:	01045593          	srli	a1,s0,0x10
   17ce2:	00845613          	srli	a2,s0,0x8
   17ce6:	228106a3          	sb	s0,557(sp)
   17cea:	22c10723          	sb	a2,558(sp)
   17cee:	22b107a3          	sb	a1,559(sp)
   17cf2:	22a10823          	sb	a0,560(sp)
   17cf6:	23110513          	addi	a0,sp,561
   17cfa:	6585                	lui	a1,0x1
   17cfc:	2f058593          	addi	a1,a1,752 # 12f0 <.Lline_table_start1+0x10c5>
   17d00:	958a                	add	a1,a1,sp
   17d02:	4645                	li	a2,17
   17d04:	00003097          	auipc	ra,0x3
   17d08:	f12080e7          	jalr	-238(ra) # 1ac16 <memcpy>
   17d0c:	6505                	lui	a0,0x1
   17d0e:	34c50513          	addi	a0,a0,844 # 134c <.Lline_table_start1+0x1121>
   17d12:	950a                	add	a0,a0,sp
   17d14:	22a10593          	addi	a1,sp,554
   17d18:	ffffe097          	auipc	ra,0xffffe
   17d1c:	a38080e7          	jalr	-1480(ra) # 15750 <_ZN18complex_no_dynamic3app17hb529d497ff5de1c9E>
   17d20:	39894503          	lbu	a0,920(s2)
   17d24:	c119                	beqz	a0,17d2a <_start+0xd92>
   17d26:	6790206f          	j	1ab9e <_start+0x3c06>
   17d2a:	39a94503          	lbu	a0,922(s2)
   17d2e:	39994583          	lbu	a1,921(s2)
   17d32:	39b94603          	lbu	a2,923(s2)
   17d36:	39c92403          	lw	s0,924(s2)
   17d3a:	0522                	slli	a0,a0,0x8
   17d3c:	8d4d                	or	a0,a0,a1
   17d3e:	24a11123          	sh	a0,578(sp)
   17d42:	24c10223          	sb	a2,580(sp)
   17d46:	6505                	lui	a0,0x1
   17d48:	35450513          	addi	a0,a0,852 # 1354 <.Lline_table_start1+0x1129>
   17d4c:	00a105b3          	add	a1,sp,a0
   17d50:	6505                	lui	a0,0x1
   17d52:	2f050513          	addi	a0,a0,752 # 12f0 <.Lline_table_start1+0x10c5>
   17d56:	950a                	add	a0,a0,sp
   17d58:	02f00613          	li	a2,47
   17d5c:	00003097          	auipc	ra,0x3
   17d60:	eba080e7          	jalr	-326(ra) # 1ac16 <memcpy>
   17d64:	01845513          	srli	a0,s0,0x18
   17d68:	01045593          	srli	a1,s0,0x10
   17d6c:	00845613          	srli	a2,s0,0x8
   17d70:	248102a3          	sb	s0,581(sp)
   17d74:	24c10323          	sb	a2,582(sp)
   17d78:	24b103a3          	sb	a1,583(sp)
   17d7c:	24a10423          	sb	a0,584(sp)
   17d80:	24910513          	addi	a0,sp,585
   17d84:	6585                	lui	a1,0x1
   17d86:	2f058593          	addi	a1,a1,752 # 12f0 <.Lline_table_start1+0x10c5>
   17d8a:	958a                	add	a1,a1,sp
   17d8c:	02f00613          	li	a2,47
   17d90:	00003097          	auipc	ra,0x3
   17d94:	e86080e7          	jalr	-378(ra) # 1ac16 <memcpy>
   17d98:	6505                	lui	a0,0x1
   17d9a:	34c50513          	addi	a0,a0,844 # 134c <.Lline_table_start1+0x1121>
   17d9e:	950a                	add	a0,a0,sp
   17da0:	24210593          	addi	a1,sp,578
   17da4:	ffffd097          	auipc	ra,0xffffd
   17da8:	cc6080e7          	jalr	-826(ra) # 14a6a <_ZN18complex_no_dynamic3app17h8e687e15a59e7c3bE>
   17dac:	39894503          	lbu	a0,920(s2)
   17db0:	c119                	beqz	a0,17db6 <_start+0xe1e>
   17db2:	5ed0206f          	j	1ab9e <_start+0x3c06>
   17db6:	39a94503          	lbu	a0,922(s2)
   17dba:	39994583          	lbu	a1,921(s2)
   17dbe:	39b94603          	lbu	a2,923(s2)
   17dc2:	39c92403          	lw	s0,924(s2)
   17dc6:	0522                	slli	a0,a0,0x8
   17dc8:	8d4d                	or	a0,a0,a1
   17dca:	26a11c23          	sh	a0,632(sp)
   17dce:	26c10d23          	sb	a2,634(sp)
   17dd2:	6505                	lui	a0,0x1
   17dd4:	35450513          	addi	a0,a0,852 # 1354 <.Lline_table_start1+0x1129>
   17dd8:	00a105b3          	add	a1,sp,a0
   17ddc:	6505                	lui	a0,0x1
   17dde:	2f050513          	addi	a0,a0,752 # 12f0 <.Lline_table_start1+0x10c5>
   17de2:	950a                	add	a0,a0,sp
   17de4:	02d00613          	li	a2,45
   17de8:	00003097          	auipc	ra,0x3
   17dec:	e2e080e7          	jalr	-466(ra) # 1ac16 <memcpy>
   17df0:	01845513          	srli	a0,s0,0x18
   17df4:	01045593          	srli	a1,s0,0x10
   17df8:	00845613          	srli	a2,s0,0x8
   17dfc:	26810da3          	sb	s0,635(sp)
   17e00:	26c10e23          	sb	a2,636(sp)
   17e04:	26b10ea3          	sb	a1,637(sp)
   17e08:	26a10f23          	sb	a0,638(sp)
   17e0c:	27f10513          	addi	a0,sp,639
   17e10:	6585                	lui	a1,0x1
   17e12:	2f058593          	addi	a1,a1,752 # 12f0 <.Lline_table_start1+0x10c5>
   17e16:	958a                	add	a1,a1,sp
   17e18:	02d00613          	li	a2,45
   17e1c:	00003097          	auipc	ra,0x3
   17e20:	dfa080e7          	jalr	-518(ra) # 1ac16 <memcpy>
   17e24:	6505                	lui	a0,0x1
   17e26:	34c50513          	addi	a0,a0,844 # 134c <.Lline_table_start1+0x1121>
   17e2a:	950a                	add	a0,a0,sp
   17e2c:	1cac                	addi	a1,sp,632
   17e2e:	ffffd097          	auipc	ra,0xffffd
   17e32:	b3e080e7          	jalr	-1218(ra) # 1496c <_ZN18complex_no_dynamic3app17h8dbdeecde8eb7d06E>
   17e36:	39894503          	lbu	a0,920(s2)
   17e3a:	c119                	beqz	a0,17e40 <_start+0xea8>
   17e3c:	5630206f          	j	1ab9e <_start+0x3c06>
   17e40:	39a94503          	lbu	a0,922(s2)
   17e44:	39994583          	lbu	a1,921(s2)
   17e48:	39b94603          	lbu	a2,923(s2)
   17e4c:	39c92403          	lw	s0,924(s2)
   17e50:	0522                	slli	a0,a0,0x8
   17e52:	8d4d                	or	a0,a0,a1
   17e54:	2aa11623          	sh	a0,684(sp)
   17e58:	2ac10723          	sb	a2,686(sp)
   17e5c:	6505                	lui	a0,0x1
   17e5e:	35450513          	addi	a0,a0,852 # 1354 <.Lline_table_start1+0x1129>
   17e62:	00a105b3          	add	a1,sp,a0
   17e66:	6505                	lui	a0,0x1
   17e68:	2f050513          	addi	a0,a0,752 # 12f0 <.Lline_table_start1+0x10c5>
   17e6c:	950a                	add	a0,a0,sp
   17e6e:	02700613          	li	a2,39
   17e72:	00003097          	auipc	ra,0x3
   17e76:	da4080e7          	jalr	-604(ra) # 1ac16 <memcpy>
   17e7a:	01845513          	srli	a0,s0,0x18
   17e7e:	01045593          	srli	a1,s0,0x10
   17e82:	00845613          	srli	a2,s0,0x8
   17e86:	2a8107a3          	sb	s0,687(sp)
   17e8a:	2ac10823          	sb	a2,688(sp)
   17e8e:	2ab108a3          	sb	a1,689(sp)
   17e92:	2aa10923          	sb	a0,690(sp)
   17e96:	2b310513          	addi	a0,sp,691
   17e9a:	6585                	lui	a1,0x1
   17e9c:	2f058593          	addi	a1,a1,752 # 12f0 <.Lline_table_start1+0x10c5>
   17ea0:	958a                	add	a1,a1,sp
   17ea2:	02700613          	li	a2,39
   17ea6:	00003097          	auipc	ra,0x3
   17eaa:	d70080e7          	jalr	-656(ra) # 1ac16 <memcpy>
   17eae:	6505                	lui	a0,0x1
   17eb0:	34c50513          	addi	a0,a0,844 # 134c <.Lline_table_start1+0x1121>
   17eb4:	950a                	add	a0,a0,sp
   17eb6:	156c                	addi	a1,sp,684
   17eb8:	ffffe097          	auipc	ra,0xffffe
   17ebc:	c98080e7          	jalr	-872(ra) # 15b50 <_ZN18complex_no_dynamic3app17hbe4e5259158ec4edE>
   17ec0:	39894503          	lbu	a0,920(s2)
   17ec4:	c119                	beqz	a0,17eca <_start+0xf32>
   17ec6:	4d90206f          	j	1ab9e <_start+0x3c06>
   17eca:	39a94503          	lbu	a0,922(s2)
   17ece:	39994583          	lbu	a1,921(s2)
   17ed2:	39b94603          	lbu	a2,923(s2)
   17ed6:	39c92403          	lw	s0,924(s2)
   17eda:	0522                	slli	a0,a0,0x8
   17edc:	8d4d                	or	a0,a0,a1
   17ede:	2ca11d23          	sh	a0,730(sp)
   17ee2:	2cc10e23          	sb	a2,732(sp)
   17ee6:	6505                	lui	a0,0x1
   17ee8:	35450513          	addi	a0,a0,852 # 1354 <.Lline_table_start1+0x1129>
   17eec:	00a105b3          	add	a1,sp,a0
   17ef0:	6505                	lui	a0,0x1
   17ef2:	2f050513          	addi	a0,a0,752 # 12f0 <.Lline_table_start1+0x10c5>
   17ef6:	950a                	add	a0,a0,sp
   17ef8:	03100613          	li	a2,49
   17efc:	00003097          	auipc	ra,0x3
   17f00:	d1a080e7          	jalr	-742(ra) # 1ac16 <memcpy>
   17f04:	01845513          	srli	a0,s0,0x18
   17f08:	01045593          	srli	a1,s0,0x10
   17f0c:	00845613          	srli	a2,s0,0x8
   17f10:	2c810ea3          	sb	s0,733(sp)
   17f14:	2cc10f23          	sb	a2,734(sp)
   17f18:	2cb10fa3          	sb	a1,735(sp)
   17f1c:	2ea10023          	sb	a0,736(sp)
   17f20:	2e110513          	addi	a0,sp,737
   17f24:	6585                	lui	a1,0x1
   17f26:	2f058593          	addi	a1,a1,752 # 12f0 <.Lline_table_start1+0x10c5>
   17f2a:	958a                	add	a1,a1,sp
   17f2c:	03100613          	li	a2,49
   17f30:	00003097          	auipc	ra,0x3
   17f34:	ce6080e7          	jalr	-794(ra) # 1ac16 <memcpy>
   17f38:	6505                	lui	a0,0x1
   17f3a:	34c50513          	addi	a0,a0,844 # 134c <.Lline_table_start1+0x1121>
   17f3e:	950a                	add	a0,a0,sp
   17f40:	2da10593          	addi	a1,sp,730
   17f44:	ffffd097          	auipc	ra,0xffffd
   17f48:	718080e7          	jalr	1816(ra) # 1565c <_ZN18complex_no_dynamic3app17hb485e515b8235f7cE>
   17f4c:	39894503          	lbu	a0,920(s2)
   17f50:	c119                	beqz	a0,17f56 <_start+0xfbe>
   17f52:	44d0206f          	j	1ab9e <_start+0x3c06>
   17f56:	39a94503          	lbu	a0,922(s2)
   17f5a:	39994583          	lbu	a1,921(s2)
   17f5e:	39b94603          	lbu	a2,923(s2)
   17f62:	39c92403          	lw	s0,924(s2)
   17f66:	0522                	slli	a0,a0,0x8
   17f68:	8d4d                	or	a0,a0,a1
   17f6a:	30a11923          	sh	a0,786(sp)
   17f6e:	30c10a23          	sb	a2,788(sp)
   17f72:	6505                	lui	a0,0x1
   17f74:	35450513          	addi	a0,a0,852 # 1354 <.Lline_table_start1+0x1129>
   17f78:	00a105b3          	add	a1,sp,a0
   17f7c:	6505                	lui	a0,0x1
   17f7e:	2f050513          	addi	a0,a0,752 # 12f0 <.Lline_table_start1+0x10c5>
   17f82:	950a                	add	a0,a0,sp
   17f84:	02d00613          	li	a2,45
   17f88:	00003097          	auipc	ra,0x3
   17f8c:	c8e080e7          	jalr	-882(ra) # 1ac16 <memcpy>
   17f90:	01845513          	srli	a0,s0,0x18
   17f94:	01045593          	srli	a1,s0,0x10
   17f98:	00845613          	srli	a2,s0,0x8
   17f9c:	30810aa3          	sb	s0,789(sp)
   17fa0:	30c10b23          	sb	a2,790(sp)
   17fa4:	30b10ba3          	sb	a1,791(sp)
   17fa8:	30a10c23          	sb	a0,792(sp)
   17fac:	31910513          	addi	a0,sp,793
   17fb0:	6585                	lui	a1,0x1
   17fb2:	2f058593          	addi	a1,a1,752 # 12f0 <.Lline_table_start1+0x10c5>
   17fb6:	958a                	add	a1,a1,sp
   17fb8:	02d00613          	li	a2,45
   17fbc:	00003097          	auipc	ra,0x3
   17fc0:	c5a080e7          	jalr	-934(ra) # 1ac16 <memcpy>
   17fc4:	6505                	lui	a0,0x1
   17fc6:	34c50513          	addi	a0,a0,844 # 134c <.Lline_table_start1+0x1121>
   17fca:	950a                	add	a0,a0,sp
   17fcc:	31210593          	addi	a1,sp,786
   17fd0:	ffffa097          	auipc	ra,0xffffa
   17fd4:	c48080e7          	jalr	-952(ra) # 11c18 <_ZN18complex_no_dynamic3app17h16fb513908777d1eE>
   17fd8:	39894503          	lbu	a0,920(s2)
   17fdc:	c119                	beqz	a0,17fe2 <_start+0x104a>
   17fde:	3c10206f          	j	1ab9e <_start+0x3c06>
   17fe2:	39a94503          	lbu	a0,922(s2)
   17fe6:	39994583          	lbu	a1,921(s2)
   17fea:	39b94603          	lbu	a2,923(s2)
   17fee:	39c92403          	lw	s0,924(s2)
   17ff2:	0522                	slli	a0,a0,0x8
   17ff4:	8d4d                	or	a0,a0,a1
   17ff6:	34a11323          	sh	a0,838(sp)
   17ffa:	34c10423          	sb	a2,840(sp)
   17ffe:	6505                	lui	a0,0x1
   18000:	35450513          	addi	a0,a0,852 # 1354 <.Lline_table_start1+0x1129>
   18004:	00a105b3          	add	a1,sp,a0
   18008:	6505                	lui	a0,0x1
   1800a:	2f050513          	addi	a0,a0,752 # 12f0 <.Lline_table_start1+0x10c5>
   1800e:	950a                	add	a0,a0,sp
   18010:	464d                	li	a2,19
   18012:	00003097          	auipc	ra,0x3
   18016:	c04080e7          	jalr	-1020(ra) # 1ac16 <memcpy>
   1801a:	01845513          	srli	a0,s0,0x18
   1801e:	01045593          	srli	a1,s0,0x10
   18022:	00845613          	srli	a2,s0,0x8
   18026:	348104a3          	sb	s0,841(sp)
   1802a:	34c10523          	sb	a2,842(sp)
   1802e:	34b105a3          	sb	a1,843(sp)
   18032:	34a10623          	sb	a0,844(sp)
   18036:	34d10513          	addi	a0,sp,845
   1803a:	6585                	lui	a1,0x1
   1803c:	2f058593          	addi	a1,a1,752 # 12f0 <.Lline_table_start1+0x10c5>
   18040:	958a                	add	a1,a1,sp
   18042:	464d                	li	a2,19
   18044:	00003097          	auipc	ra,0x3
   18048:	bd2080e7          	jalr	-1070(ra) # 1ac16 <memcpy>
   1804c:	6505                	lui	a0,0x1
   1804e:	34c50513          	addi	a0,a0,844 # 134c <.Lline_table_start1+0x1121>
   18052:	950a                	add	a0,a0,sp
   18054:	34610593          	addi	a1,sp,838
   18058:	ffffc097          	auipc	ra,0xffffc
   1805c:	bfe080e7          	jalr	-1026(ra) # 13c56 <_ZN18complex_no_dynamic3app17h5d90096cbea91824E>
   18060:	39894503          	lbu	a0,920(s2)
   18064:	c119                	beqz	a0,1806a <_start+0x10d2>
   18066:	3390206f          	j	1ab9e <_start+0x3c06>
   1806a:	39a94503          	lbu	a0,922(s2)
   1806e:	39994583          	lbu	a1,921(s2)
   18072:	39b94603          	lbu	a2,923(s2)
   18076:	39c92403          	lw	s0,924(s2)
   1807a:	0522                	slli	a0,a0,0x8
   1807c:	8d4d                	or	a0,a0,a1
   1807e:	36a11023          	sh	a0,864(sp)
   18082:	36c10123          	sb	a2,866(sp)
   18086:	6505                	lui	a0,0x1
   18088:	35450513          	addi	a0,a0,852 # 1354 <.Lline_table_start1+0x1129>
   1808c:	00a105b3          	add	a1,sp,a0
   18090:	6505                	lui	a0,0x1
   18092:	2f050513          	addi	a0,a0,752 # 12f0 <.Lline_table_start1+0x10c5>
   18096:	950a                	add	a0,a0,sp
   18098:	04900613          	li	a2,73
   1809c:	00003097          	auipc	ra,0x3
   180a0:	b7a080e7          	jalr	-1158(ra) # 1ac16 <memcpy>
   180a4:	01845513          	srli	a0,s0,0x18
   180a8:	01045593          	srli	a1,s0,0x10
   180ac:	00845613          	srli	a2,s0,0x8
   180b0:	368101a3          	sb	s0,867(sp)
   180b4:	36c10223          	sb	a2,868(sp)
   180b8:	36b102a3          	sb	a1,869(sp)
   180bc:	36a10323          	sb	a0,870(sp)
   180c0:	36710513          	addi	a0,sp,871
   180c4:	6585                	lui	a1,0x1
   180c6:	2f058593          	addi	a1,a1,752 # 12f0 <.Lline_table_start1+0x10c5>
   180ca:	958a                	add	a1,a1,sp
   180cc:	04900613          	li	a2,73
   180d0:	00003097          	auipc	ra,0x3
   180d4:	b46080e7          	jalr	-1210(ra) # 1ac16 <memcpy>
   180d8:	6505                	lui	a0,0x1
   180da:	34c50513          	addi	a0,a0,844 # 134c <.Lline_table_start1+0x1121>
   180de:	950a                	add	a0,a0,sp
   180e0:	168c                	addi	a1,sp,864
   180e2:	ffffe097          	auipc	ra,0xffffe
   180e6:	f6a080e7          	jalr	-150(ra) # 1604c <_ZN18complex_no_dynamic3app17hc9ae9b2918b638cbE>
   180ea:	39894503          	lbu	a0,920(s2)
   180ee:	c119                	beqz	a0,180f4 <_start+0x115c>
   180f0:	2af0206f          	j	1ab9e <_start+0x3c06>
   180f4:	39a94503          	lbu	a0,922(s2)
   180f8:	39994583          	lbu	a1,921(s2)
   180fc:	39b94603          	lbu	a2,923(s2)
   18100:	39c92403          	lw	s0,924(s2)
   18104:	0522                	slli	a0,a0,0x8
   18106:	8d4d                	or	a0,a0,a1
   18108:	3aa11823          	sh	a0,944(sp)
   1810c:	3ac10923          	sb	a2,946(sp)
   18110:	6505                	lui	a0,0x1
   18112:	35450513          	addi	a0,a0,852 # 1354 <.Lline_table_start1+0x1129>
   18116:	00a105b3          	add	a1,sp,a0
   1811a:	6505                	lui	a0,0x1
   1811c:	2f050513          	addi	a0,a0,752 # 12f0 <.Lline_table_start1+0x10c5>
   18120:	950a                	add	a0,a0,sp
   18122:	03500613          	li	a2,53
   18126:	00003097          	auipc	ra,0x3
   1812a:	af0080e7          	jalr	-1296(ra) # 1ac16 <memcpy>
   1812e:	01845513          	srli	a0,s0,0x18
   18132:	01045593          	srli	a1,s0,0x10
   18136:	00845613          	srli	a2,s0,0x8
   1813a:	3a8109a3          	sb	s0,947(sp)
   1813e:	3ac10a23          	sb	a2,948(sp)
   18142:	3ab10aa3          	sb	a1,949(sp)
   18146:	3aa10b23          	sb	a0,950(sp)
   1814a:	3b710513          	addi	a0,sp,951
   1814e:	6585                	lui	a1,0x1
   18150:	2f058593          	addi	a1,a1,752 # 12f0 <.Lline_table_start1+0x10c5>
   18154:	958a                	add	a1,a1,sp
   18156:	03500613          	li	a2,53
   1815a:	00003097          	auipc	ra,0x3
   1815e:	abc080e7          	jalr	-1348(ra) # 1ac16 <memcpy>
   18162:	6505                	lui	a0,0x1
   18164:	34c50513          	addi	a0,a0,844 # 134c <.Lline_table_start1+0x1121>
   18168:	950a                	add	a0,a0,sp
   1816a:	1f0c                	addi	a1,sp,944
   1816c:	ffffd097          	auipc	ra,0xffffd
   18170:	6de080e7          	jalr	1758(ra) # 1584a <_ZN18complex_no_dynamic3app17hb544262728b9d36dE>
   18174:	39894503          	lbu	a0,920(s2)
   18178:	c119                	beqz	a0,1817e <_start+0x11e6>
   1817a:	2250206f          	j	1ab9e <_start+0x3c06>
   1817e:	39a94503          	lbu	a0,922(s2)
   18182:	39994583          	lbu	a1,921(s2)
   18186:	39b94603          	lbu	a2,923(s2)
   1818a:	39c92403          	lw	s0,924(s2)
   1818e:	0522                	slli	a0,a0,0x8
   18190:	8d4d                	or	a0,a0,a1
   18192:	3ea11623          	sh	a0,1004(sp)
   18196:	3ec10723          	sb	a2,1006(sp)
   1819a:	6505                	lui	a0,0x1
   1819c:	35450513          	addi	a0,a0,852 # 1354 <.Lline_table_start1+0x1129>
   181a0:	00a105b3          	add	a1,sp,a0
   181a4:	6505                	lui	a0,0x1
   181a6:	2f050513          	addi	a0,a0,752 # 12f0 <.Lline_table_start1+0x10c5>
   181aa:	950a                	add	a0,a0,sp
   181ac:	02b00613          	li	a2,43
   181b0:	00003097          	auipc	ra,0x3
   181b4:	a66080e7          	jalr	-1434(ra) # 1ac16 <memcpy>
   181b8:	01845513          	srli	a0,s0,0x18
   181bc:	01045593          	srli	a1,s0,0x10
   181c0:	00845613          	srli	a2,s0,0x8
   181c4:	3e8107a3          	sb	s0,1007(sp)
   181c8:	3ec10823          	sb	a2,1008(sp)
   181cc:	3eb108a3          	sb	a1,1009(sp)
   181d0:	3ea10923          	sb	a0,1010(sp)
   181d4:	3f310513          	addi	a0,sp,1011
   181d8:	6585                	lui	a1,0x1
   181da:	2f058593          	addi	a1,a1,752 # 12f0 <.Lline_table_start1+0x10c5>
   181de:	958a                	add	a1,a1,sp
   181e0:	02b00613          	li	a2,43
   181e4:	00003097          	auipc	ra,0x3
   181e8:	a32080e7          	jalr	-1486(ra) # 1ac16 <memcpy>
   181ec:	6505                	lui	a0,0x1
   181ee:	34c50513          	addi	a0,a0,844 # 134c <.Lline_table_start1+0x1121>
   181f2:	950a                	add	a0,a0,sp
   181f4:	17ec                	addi	a1,sp,1004
   181f6:	ffffd097          	auipc	ra,0xffffd
   181fa:	f78080e7          	jalr	-136(ra) # 1516e <_ZN18complex_no_dynamic3app17ha2d6e718333e3d85E>
   181fe:	39894503          	lbu	a0,920(s2)
   18202:	c119                	beqz	a0,18208 <_start+0x1270>
   18204:	19b0206f          	j	1ab9e <_start+0x3c06>
   18208:	39a94503          	lbu	a0,922(s2)
   1820c:	39994583          	lbu	a1,921(s2)
   18210:	39b94603          	lbu	a2,923(s2)
   18214:	39c92403          	lw	s0,924(s2)
   18218:	0522                	slli	a0,a0,0x8
   1821a:	8d4d                	or	a0,a0,a1
   1821c:	40a11f23          	sh	a0,1054(sp)
   18220:	42c10023          	sb	a2,1056(sp)
   18224:	6505                	lui	a0,0x1
   18226:	35450513          	addi	a0,a0,852 # 1354 <.Lline_table_start1+0x1129>
   1822a:	00a105b3          	add	a1,sp,a0
   1822e:	6505                	lui	a0,0x1
   18230:	2f050513          	addi	a0,a0,752 # 12f0 <.Lline_table_start1+0x10c5>
   18234:	950a                	add	a0,a0,sp
   18236:	02b00613          	li	a2,43
   1823a:	00003097          	auipc	ra,0x3
   1823e:	9dc080e7          	jalr	-1572(ra) # 1ac16 <memcpy>
   18242:	01845513          	srli	a0,s0,0x18
   18246:	01045593          	srli	a1,s0,0x10
   1824a:	00845613          	srli	a2,s0,0x8
   1824e:	428100a3          	sb	s0,1057(sp)
   18252:	42c10123          	sb	a2,1058(sp)
   18256:	42b101a3          	sb	a1,1059(sp)
   1825a:	42a10223          	sb	a0,1060(sp)
   1825e:	42510513          	addi	a0,sp,1061
   18262:	6585                	lui	a1,0x1
   18264:	2f058593          	addi	a1,a1,752 # 12f0 <.Lline_table_start1+0x10c5>
   18268:	958a                	add	a1,a1,sp
   1826a:	02b00613          	li	a2,43
   1826e:	00003097          	auipc	ra,0x3
   18272:	9a8080e7          	jalr	-1624(ra) # 1ac16 <memcpy>
   18276:	6505                	lui	a0,0x1
   18278:	34c50513          	addi	a0,a0,844 # 134c <.Lline_table_start1+0x1121>
   1827c:	950a                	add	a0,a0,sp
   1827e:	41e10593          	addi	a1,sp,1054
   18282:	ffffa097          	auipc	ra,0xffffa
   18286:	c92080e7          	jalr	-878(ra) # 11f14 <_ZN18complex_no_dynamic3app17h1b253de7c2d224c1E>
   1828a:	39894503          	lbu	a0,920(s2)
   1828e:	c119                	beqz	a0,18294 <_start+0x12fc>
   18290:	10f0206f          	j	1ab9e <_start+0x3c06>
   18294:	39994503          	lbu	a0,921(s2)
   18298:	39a94583          	lbu	a1,922(s2)
   1829c:	39b94603          	lbu	a2,923(s2)
   182a0:	39c92683          	lw	a3,924(s2)
   182a4:	3a092703          	lw	a4,928(s2)
   182a8:	3a492783          	lw	a5,932(s2)
   182ac:	3a894483          	lbu	s1,936(s2)
   182b0:	05a2                	slli	a1,a1,0x8
   182b2:	32e92e23          	sw	a4,828(s2)
   182b6:	34f92023          	sw	a5,832(s2)
   182ba:	34990223          	sb	s1,836(s2)
   182be:	0186d713          	srli	a4,a3,0x18
   182c2:	8d4d                	or	a0,a0,a1
   182c4:	0106d593          	srli	a1,a3,0x10
   182c8:	44b10aa3          	sb	a1,1109(sp)
   182cc:	44e10b23          	sb	a4,1110(sp)
   182d0:	0086d593          	srli	a1,a3,0x8
   182d4:	44a11823          	sh	a0,1104(sp)
   182d8:	44c10923          	sb	a2,1106(sp)
   182dc:	44d109a3          	sb	a3,1107(sp)
   182e0:	44b10a23          	sb	a1,1108(sp)
   182e4:	45710513          	addi	a0,sp,1111
   182e8:	6585                	lui	a1,0x1
   182ea:	2f058593          	addi	a1,a1,752 # 12f0 <.Lline_table_start1+0x10c5>
   182ee:	958a                	add	a1,a1,sp
   182f0:	4625                	li	a2,9
   182f2:	00003097          	auipc	ra,0x3
   182f6:	924080e7          	jalr	-1756(ra) # 1ac16 <memcpy>
   182fa:	6505                	lui	a0,0x1
   182fc:	34c50513          	addi	a0,a0,844 # 134c <.Lline_table_start1+0x1121>
   18300:	950a                	add	a0,a0,sp
   18302:	45010593          	addi	a1,sp,1104
   18306:	ffffe097          	auipc	ra,0xffffe
   1830a:	f3a080e7          	jalr	-198(ra) # 16240 <_ZN18complex_no_dynamic3app17hd2178f68ec29decbE>
   1830e:	39894503          	lbu	a0,920(s2)
   18312:	c119                	beqz	a0,18318 <_start+0x1380>
   18314:	08b0206f          	j	1ab9e <_start+0x3c06>
   18318:	39a94503          	lbu	a0,922(s2)
   1831c:	39994583          	lbu	a1,921(s2)
   18320:	39b94603          	lbu	a2,923(s2)
   18324:	39c92403          	lw	s0,924(s2)
   18328:	0522                	slli	a0,a0,0x8
   1832a:	8d4d                	or	a0,a0,a1
   1832c:	46a11023          	sh	a0,1120(sp)
   18330:	46c10123          	sb	a2,1122(sp)
   18334:	6505                	lui	a0,0x1
   18336:	35450513          	addi	a0,a0,852 # 1354 <.Lline_table_start1+0x1129>
   1833a:	00a105b3          	add	a1,sp,a0
   1833e:	6505                	lui	a0,0x1
   18340:	2f050513          	addi	a0,a0,752 # 12f0 <.Lline_table_start1+0x10c5>
   18344:	950a                	add	a0,a0,sp
   18346:	02f00613          	li	a2,47
   1834a:	00003097          	auipc	ra,0x3
   1834e:	8cc080e7          	jalr	-1844(ra) # 1ac16 <memcpy>
   18352:	01845513          	srli	a0,s0,0x18
   18356:	01045593          	srli	a1,s0,0x10
   1835a:	00845613          	srli	a2,s0,0x8
   1835e:	468101a3          	sb	s0,1123(sp)
   18362:	46c10223          	sb	a2,1124(sp)
   18366:	46b102a3          	sb	a1,1125(sp)
   1836a:	46a10323          	sb	a0,1126(sp)
   1836e:	46710513          	addi	a0,sp,1127
   18372:	6585                	lui	a1,0x1
   18374:	2f058593          	addi	a1,a1,752 # 12f0 <.Lline_table_start1+0x10c5>
   18378:	958a                	add	a1,a1,sp
   1837a:	02f00613          	li	a2,47
   1837e:	00003097          	auipc	ra,0x3
   18382:	898080e7          	jalr	-1896(ra) # 1ac16 <memcpy>
   18386:	6505                	lui	a0,0x1
   18388:	34c50513          	addi	a0,a0,844 # 134c <.Lline_table_start1+0x1121>
   1838c:	950a                	add	a0,a0,sp
   1838e:	46010593          	addi	a1,sp,1120
   18392:	ffffa097          	auipc	ra,0xffffa
   18396:	d78080e7          	jalr	-648(ra) # 1210a <_ZN18complex_no_dynamic3app17h1d2a3d4bcef1aa3aE>
   1839a:	39894503          	lbu	a0,920(s2)
   1839e:	c119                	beqz	a0,183a4 <_start+0x140c>
   183a0:	7fe0206f          	j	1ab9e <_start+0x3c06>
   183a4:	39994503          	lbu	a0,921(s2)
   183a8:	39a94583          	lbu	a1,922(s2)
   183ac:	39b94803          	lbu	a6,923(s2)
   183b0:	39c92683          	lw	a3,924(s2)
   183b4:	3a092703          	lw	a4,928(s2)
   183b8:	3a492783          	lw	a5,932(s2)
   183bc:	05a2                	slli	a1,a1,0x8
   183be:	0186d893          	srli	a7,a3,0x18
   183c2:	0106d293          	srli	t0,a3,0x10
   183c6:	0187d613          	srli	a2,a5,0x18
   183ca:	0107d493          	srli	s1,a5,0x10
   183ce:	0087d413          	srli	s0,a5,0x8
   183d2:	8d4d                	or	a0,a0,a1
   183d4:	01875593          	srli	a1,a4,0x18
   183d8:	4a9101a3          	sb	s1,1187(sp)
   183dc:	4ac10223          	sb	a2,1188(sp)
   183e0:	01075613          	srli	a2,a4,0x10
   183e4:	48c10fa3          	sb	a2,1183(sp)
   183e8:	4ab10023          	sb	a1,1184(sp)
   183ec:	4af100a3          	sb	a5,1185(sp)
   183f0:	4a810123          	sb	s0,1186(sp)
   183f4:	0086d593          	srli	a1,a3,0x8
   183f8:	48a11b23          	sh	a0,1174(sp)
   183fc:	49010c23          	sb	a6,1176(sp)
   18400:	48d10ca3          	sb	a3,1177(sp)
   18404:	48b10d23          	sb	a1,1178(sp)
   18408:	00875513          	srli	a0,a4,0x8
   1840c:	48510da3          	sb	t0,1179(sp)
   18410:	49110e23          	sb	a7,1180(sp)
   18414:	48e10ea3          	sb	a4,1181(sp)
   18418:	48a10f23          	sb	a0,1182(sp)
   1841c:	6505                	lui	a0,0x1
   1841e:	34c50513          	addi	a0,a0,844 # 134c <.Lline_table_start1+0x1121>
   18422:	950a                	add	a0,a0,sp
   18424:	49610593          	addi	a1,sp,1174
   18428:	ffffd097          	auipc	ra,0xffffd
   1842c:	044080e7          	jalr	68(ra) # 1546c <_ZN18complex_no_dynamic3app17haee193fb0f9d7f8bE>
   18430:	39894503          	lbu	a0,920(s2)
   18434:	c119                	beqz	a0,1843a <_start+0x14a2>
   18436:	7680206f          	j	1ab9e <_start+0x3c06>
   1843a:	39994503          	lbu	a0,921(s2)
   1843e:	39a94583          	lbu	a1,922(s2)
   18442:	39b94603          	lbu	a2,923(s2)
   18446:	39c92683          	lw	a3,924(s2)
   1844a:	3a092703          	lw	a4,928(s2)
   1844e:	3a492783          	lw	a5,932(s2)
   18452:	3a892483          	lw	s1,936(s2)
   18456:	05a2                	slli	a1,a1,0x8
   18458:	32e92e23          	sw	a4,828(s2)
   1845c:	34f92023          	sw	a5,832(s2)
   18460:	34992223          	sw	s1,836(s2)
   18464:	0186d713          	srli	a4,a3,0x18
   18468:	8d4d                	or	a0,a0,a1
   1846a:	0106d593          	srli	a1,a3,0x10
   1846e:	4ab105a3          	sb	a1,1195(sp)
   18472:	4ae10623          	sb	a4,1196(sp)
   18476:	0086d593          	srli	a1,a3,0x8
   1847a:	4aa11323          	sh	a0,1190(sp)
   1847e:	4ac10423          	sb	a2,1192(sp)
   18482:	4ad104a3          	sb	a3,1193(sp)
   18486:	4ab10523          	sb	a1,1194(sp)
   1848a:	4ad10513          	addi	a0,sp,1197
   1848e:	6585                	lui	a1,0x1
   18490:	2f058593          	addi	a1,a1,752 # 12f0 <.Lline_table_start1+0x10c5>
   18494:	958a                	add	a1,a1,sp
   18496:	4631                	li	a2,12
   18498:	00002097          	auipc	ra,0x2
   1849c:	77e080e7          	jalr	1918(ra) # 1ac16 <memcpy>
   184a0:	6505                	lui	a0,0x1
   184a2:	34c50513          	addi	a0,a0,844 # 134c <.Lline_table_start1+0x1121>
   184a6:	950a                	add	a0,a0,sp
   184a8:	4a610593          	addi	a1,sp,1190
   184ac:	ffffe097          	auipc	ra,0xffffe
   184b0:	f08080e7          	jalr	-248(ra) # 163b4 <_ZN18complex_no_dynamic3app17hd89938942323e178E>
   184b4:	39894503          	lbu	a0,920(s2)
   184b8:	c119                	beqz	a0,184be <_start+0x1526>
   184ba:	6e40206f          	j	1ab9e <_start+0x3c06>
   184be:	39a94503          	lbu	a0,922(s2)
   184c2:	39994583          	lbu	a1,921(s2)
   184c6:	39b94603          	lbu	a2,923(s2)
   184ca:	39c92403          	lw	s0,924(s2)
   184ce:	0522                	slli	a0,a0,0x8
   184d0:	8d4d                	or	a0,a0,a1
   184d2:	4aa11d23          	sh	a0,1210(sp)
   184d6:	4ac10e23          	sb	a2,1212(sp)
   184da:	6505                	lui	a0,0x1
   184dc:	35450513          	addi	a0,a0,852 # 1354 <.Lline_table_start1+0x1129>
   184e0:	00a105b3          	add	a1,sp,a0
   184e4:	6505                	lui	a0,0x1
   184e6:	2f050513          	addi	a0,a0,752 # 12f0 <.Lline_table_start1+0x10c5>
   184ea:	950a                	add	a0,a0,sp
   184ec:	04e00613          	li	a2,78
   184f0:	00002097          	auipc	ra,0x2
   184f4:	726080e7          	jalr	1830(ra) # 1ac16 <memcpy>
   184f8:	01845513          	srli	a0,s0,0x18
   184fc:	01045593          	srli	a1,s0,0x10
   18500:	00845613          	srli	a2,s0,0x8
   18504:	4a810ea3          	sb	s0,1213(sp)
   18508:	4ac10f23          	sb	a2,1214(sp)
   1850c:	4ab10fa3          	sb	a1,1215(sp)
   18510:	4ca10023          	sb	a0,1216(sp)
   18514:	4c110513          	addi	a0,sp,1217
   18518:	6585                	lui	a1,0x1
   1851a:	2f058593          	addi	a1,a1,752 # 12f0 <.Lline_table_start1+0x10c5>
   1851e:	958a                	add	a1,a1,sp
   18520:	04e00613          	li	a2,78
   18524:	00002097          	auipc	ra,0x2
   18528:	6f2080e7          	jalr	1778(ra) # 1ac16 <memcpy>
   1852c:	6505                	lui	a0,0x1
   1852e:	34c50513          	addi	a0,a0,844 # 134c <.Lline_table_start1+0x1121>
   18532:	950a                	add	a0,a0,sp
   18534:	4ba10593          	addi	a1,sp,1210
   18538:	ffffd097          	auipc	ra,0xffffd
   1853c:	416080e7          	jalr	1046(ra) # 1594e <_ZN18complex_no_dynamic3app17hb60cddf4bad0b9f4E>
   18540:	39894503          	lbu	a0,920(s2)
   18544:	c119                	beqz	a0,1854a <_start+0x15b2>
   18546:	6580206f          	j	1ab9e <_start+0x3c06>
   1854a:	39a94503          	lbu	a0,922(s2)
   1854e:	39994583          	lbu	a1,921(s2)
   18552:	39b94603          	lbu	a2,923(s2)
   18556:	39c92403          	lw	s0,924(s2)
   1855a:	0522                	slli	a0,a0,0x8
   1855c:	8d4d                	or	a0,a0,a1
   1855e:	50a11823          	sh	a0,1296(sp)
   18562:	50c10923          	sb	a2,1298(sp)
   18566:	6505                	lui	a0,0x1
   18568:	35450513          	addi	a0,a0,852 # 1354 <.Lline_table_start1+0x1129>
   1856c:	00a105b3          	add	a1,sp,a0
   18570:	6505                	lui	a0,0x1
   18572:	2f050513          	addi	a0,a0,752 # 12f0 <.Lline_table_start1+0x10c5>
   18576:	950a                	add	a0,a0,sp
   18578:	02b00613          	li	a2,43
   1857c:	00002097          	auipc	ra,0x2
   18580:	69a080e7          	jalr	1690(ra) # 1ac16 <memcpy>
   18584:	01845513          	srli	a0,s0,0x18
   18588:	01045593          	srli	a1,s0,0x10
   1858c:	00845613          	srli	a2,s0,0x8
   18590:	508109a3          	sb	s0,1299(sp)
   18594:	50c10a23          	sb	a2,1300(sp)
   18598:	50b10aa3          	sb	a1,1301(sp)
   1859c:	50a10b23          	sb	a0,1302(sp)
   185a0:	51710513          	addi	a0,sp,1303
   185a4:	6585                	lui	a1,0x1
   185a6:	2f058593          	addi	a1,a1,752 # 12f0 <.Lline_table_start1+0x10c5>
   185aa:	958a                	add	a1,a1,sp
   185ac:	02b00613          	li	a2,43
   185b0:	00002097          	auipc	ra,0x2
   185b4:	666080e7          	jalr	1638(ra) # 1ac16 <memcpy>
   185b8:	6505                	lui	a0,0x1
   185ba:	34c50513          	addi	a0,a0,844 # 134c <.Lline_table_start1+0x1121>
   185be:	950a                	add	a0,a0,sp
   185c0:	51010593          	addi	a1,sp,1296
   185c4:	ffffa097          	auipc	ra,0xffffa
   185c8:	a42080e7          	jalr	-1470(ra) # 12006 <_ZN18complex_no_dynamic3app17h1d047b7af8b4ff17E>
   185cc:	39894503          	lbu	a0,920(s2)
   185d0:	c119                	beqz	a0,185d6 <_start+0x163e>
   185d2:	5cc0206f          	j	1ab9e <_start+0x3c06>
   185d6:	39a94503          	lbu	a0,922(s2)
   185da:	39994583          	lbu	a1,921(s2)
   185de:	39b94603          	lbu	a2,923(s2)
   185e2:	39c92403          	lw	s0,924(s2)
   185e6:	0522                	slli	a0,a0,0x8
   185e8:	8d4d                	or	a0,a0,a1
   185ea:	54a11123          	sh	a0,1346(sp)
   185ee:	54c10223          	sb	a2,1348(sp)
   185f2:	6505                	lui	a0,0x1
   185f4:	35450513          	addi	a0,a0,852 # 1354 <.Lline_table_start1+0x1129>
   185f8:	00a105b3          	add	a1,sp,a0
   185fc:	6505                	lui	a0,0x1
   185fe:	2f050513          	addi	a0,a0,752 # 12f0 <.Lline_table_start1+0x10c5>
   18602:	950a                	add	a0,a0,sp
   18604:	03a00613          	li	a2,58
   18608:	00002097          	auipc	ra,0x2
   1860c:	60e080e7          	jalr	1550(ra) # 1ac16 <memcpy>
   18610:	01845513          	srli	a0,s0,0x18
   18614:	01045593          	srli	a1,s0,0x10
   18618:	00845613          	srli	a2,s0,0x8
   1861c:	548102a3          	sb	s0,1349(sp)
   18620:	54c10323          	sb	a2,1350(sp)
   18624:	54b103a3          	sb	a1,1351(sp)
   18628:	54a10423          	sb	a0,1352(sp)
   1862c:	54910513          	addi	a0,sp,1353
   18630:	6585                	lui	a1,0x1
   18632:	2f058593          	addi	a1,a1,752 # 12f0 <.Lline_table_start1+0x10c5>
   18636:	958a                	add	a1,a1,sp
   18638:	03a00613          	li	a2,58
   1863c:	00002097          	auipc	ra,0x2
   18640:	5da080e7          	jalr	1498(ra) # 1ac16 <memcpy>
   18644:	6505                	lui	a0,0x1
   18646:	34c50513          	addi	a0,a0,844 # 134c <.Lline_table_start1+0x1121>
   1864a:	950a                	add	a0,a0,sp
   1864c:	54210593          	addi	a1,sp,1346
   18650:	ffffe097          	auipc	ra,0xffffe
   18654:	248080e7          	jalr	584(ra) # 16898 <_ZN18complex_no_dynamic3app17hf09a0a251d20990fE>
   18658:	39894503          	lbu	a0,920(s2)
   1865c:	c119                	beqz	a0,18662 <_start+0x16ca>
   1865e:	5400206f          	j	1ab9e <_start+0x3c06>
   18662:	39a94503          	lbu	a0,922(s2)
   18666:	39994583          	lbu	a1,921(s2)
   1866a:	39b94603          	lbu	a2,923(s2)
   1866e:	39c92403          	lw	s0,924(s2)
   18672:	0522                	slli	a0,a0,0x8
   18674:	8d4d                	or	a0,a0,a1
   18676:	58a11223          	sh	a0,1412(sp)
   1867a:	58c10323          	sb	a2,1414(sp)
   1867e:	6505                	lui	a0,0x1
   18680:	35450513          	addi	a0,a0,852 # 1354 <.Lline_table_start1+0x1129>
   18684:	00a105b3          	add	a1,sp,a0
   18688:	6505                	lui	a0,0x1
   1868a:	2f050513          	addi	a0,a0,752 # 12f0 <.Lline_table_start1+0x10c5>
   1868e:	950a                	add	a0,a0,sp
   18690:	466d                	li	a2,27
   18692:	00002097          	auipc	ra,0x2
   18696:	584080e7          	jalr	1412(ra) # 1ac16 <memcpy>
   1869a:	01845513          	srli	a0,s0,0x18
   1869e:	01045593          	srli	a1,s0,0x10
   186a2:	00845613          	srli	a2,s0,0x8
   186a6:	588103a3          	sb	s0,1415(sp)
   186aa:	58c10423          	sb	a2,1416(sp)
   186ae:	58b104a3          	sb	a1,1417(sp)
   186b2:	58a10523          	sb	a0,1418(sp)
   186b6:	58b10513          	addi	a0,sp,1419
   186ba:	6585                	lui	a1,0x1
   186bc:	2f058593          	addi	a1,a1,752 # 12f0 <.Lline_table_start1+0x10c5>
   186c0:	958a                	add	a1,a1,sp
   186c2:	466d                	li	a2,27
   186c4:	00002097          	auipc	ra,0x2
   186c8:	552080e7          	jalr	1362(ra) # 1ac16 <memcpy>
   186cc:	6505                	lui	a0,0x1
   186ce:	34c50513          	addi	a0,a0,844 # 134c <.Lline_table_start1+0x1121>
   186d2:	950a                	add	a0,a0,sp
   186d4:	58410593          	addi	a1,sp,1412
   186d8:	ffff9097          	auipc	ra,0xffff9
   186dc:	c54080e7          	jalr	-940(ra) # 1132c <_ZN18complex_no_dynamic3app17h02eb63f641427a8dE>
   186e0:	39894503          	lbu	a0,920(s2)
   186e4:	c119                	beqz	a0,186ea <_start+0x1752>
   186e6:	4b80206f          	j	1ab9e <_start+0x3c06>
   186ea:	39a94503          	lbu	a0,922(s2)
   186ee:	39994583          	lbu	a1,921(s2)
   186f2:	39b94603          	lbu	a2,923(s2)
   186f6:	39c92403          	lw	s0,924(s2)
   186fa:	0522                	slli	a0,a0,0x8
   186fc:	8d4d                	or	a0,a0,a1
   186fe:	5aa11323          	sh	a0,1446(sp)
   18702:	5ac10423          	sb	a2,1448(sp)
   18706:	6505                	lui	a0,0x1
   18708:	35450513          	addi	a0,a0,852 # 1354 <.Lline_table_start1+0x1129>
   1870c:	00a105b3          	add	a1,sp,a0
   18710:	6505                	lui	a0,0x1
   18712:	2f050513          	addi	a0,a0,752 # 12f0 <.Lline_table_start1+0x10c5>
   18716:	950a                	add	a0,a0,sp
   18718:	04a00613          	li	a2,74
   1871c:	00002097          	auipc	ra,0x2
   18720:	4fa080e7          	jalr	1274(ra) # 1ac16 <memcpy>
   18724:	01845513          	srli	a0,s0,0x18
   18728:	01045593          	srli	a1,s0,0x10
   1872c:	00845613          	srli	a2,s0,0x8
   18730:	5a8104a3          	sb	s0,1449(sp)
   18734:	5ac10523          	sb	a2,1450(sp)
   18738:	5ab105a3          	sb	a1,1451(sp)
   1873c:	5aa10623          	sb	a0,1452(sp)
   18740:	5ad10513          	addi	a0,sp,1453
   18744:	6585                	lui	a1,0x1
   18746:	2f058593          	addi	a1,a1,752 # 12f0 <.Lline_table_start1+0x10c5>
   1874a:	958a                	add	a1,a1,sp
   1874c:	04a00613          	li	a2,74
   18750:	00002097          	auipc	ra,0x2
   18754:	4c6080e7          	jalr	1222(ra) # 1ac16 <memcpy>
   18758:	6505                	lui	a0,0x1
   1875a:	34c50513          	addi	a0,a0,844 # 134c <.Lline_table_start1+0x1121>
   1875e:	950a                	add	a0,a0,sp
   18760:	5a610593          	addi	a1,sp,1446
   18764:	ffffc097          	auipc	ra,0xffffc
   18768:	704080e7          	jalr	1796(ra) # 14e68 <_ZN18complex_no_dynamic3app17h96568b94bb73b3f9E>
   1876c:	39894503          	lbu	a0,920(s2)
   18770:	c119                	beqz	a0,18776 <_start+0x17de>
   18772:	42c0206f          	j	1ab9e <_start+0x3c06>
   18776:	39a94503          	lbu	a0,922(s2)
   1877a:	39994583          	lbu	a1,921(s2)
   1877e:	39b94603          	lbu	a2,923(s2)
   18782:	39c92403          	lw	s0,924(s2)
   18786:	0522                	slli	a0,a0,0x8
   18788:	8d4d                	or	a0,a0,a1
   1878a:	5ea11c23          	sh	a0,1528(sp)
   1878e:	5ec10d23          	sb	a2,1530(sp)
   18792:	6505                	lui	a0,0x1
   18794:	35450513          	addi	a0,a0,852 # 1354 <.Lline_table_start1+0x1129>
   18798:	00a105b3          	add	a1,sp,a0
   1879c:	6505                	lui	a0,0x1
   1879e:	2f050513          	addi	a0,a0,752 # 12f0 <.Lline_table_start1+0x10c5>
   187a2:	950a                	add	a0,a0,sp
   187a4:	04800613          	li	a2,72
   187a8:	00002097          	auipc	ra,0x2
   187ac:	46e080e7          	jalr	1134(ra) # 1ac16 <memcpy>
   187b0:	01845513          	srli	a0,s0,0x18
   187b4:	01045593          	srli	a1,s0,0x10
   187b8:	00845613          	srli	a2,s0,0x8
   187bc:	5e810da3          	sb	s0,1531(sp)
   187c0:	5ec10e23          	sb	a2,1532(sp)
   187c4:	5eb10ea3          	sb	a1,1533(sp)
   187c8:	5ea10f23          	sb	a0,1534(sp)
   187cc:	5ff10513          	addi	a0,sp,1535
   187d0:	6585                	lui	a1,0x1
   187d2:	2f058593          	addi	a1,a1,752 # 12f0 <.Lline_table_start1+0x10c5>
   187d6:	958a                	add	a1,a1,sp
   187d8:	04800613          	li	a2,72
   187dc:	00002097          	auipc	ra,0x2
   187e0:	43a080e7          	jalr	1082(ra) # 1ac16 <memcpy>
   187e4:	6505                	lui	a0,0x1
   187e6:	34c50513          	addi	a0,a0,844 # 134c <.Lline_table_start1+0x1121>
   187ea:	950a                	add	a0,a0,sp
   187ec:	5f810593          	addi	a1,sp,1528
   187f0:	ffffb097          	auipc	ra,0xffffb
   187f4:	362080e7          	jalr	866(ra) # 13b52 <_ZN18complex_no_dynamic3app17h5c9f761c136b3258E>
   187f8:	39894503          	lbu	a0,920(s2)
   187fc:	c119                	beqz	a0,18802 <_start+0x186a>
   187fe:	3a00206f          	j	1ab9e <_start+0x3c06>
   18802:	39a94503          	lbu	a0,922(s2)
   18806:	39994583          	lbu	a1,921(s2)
   1880a:	39b94603          	lbu	a2,923(s2)
   1880e:	39c92403          	lw	s0,924(s2)
   18812:	0522                	slli	a0,a0,0x8
   18814:	8d4d                	or	a0,a0,a1
   18816:	64a11423          	sh	a0,1608(sp)
   1881a:	64c10523          	sb	a2,1610(sp)
   1881e:	6505                	lui	a0,0x1
   18820:	35450513          	addi	a0,a0,852 # 1354 <.Lline_table_start1+0x1129>
   18824:	00a105b3          	add	a1,sp,a0
   18828:	6505                	lui	a0,0x1
   1882a:	2f050513          	addi	a0,a0,752 # 12f0 <.Lline_table_start1+0x10c5>
   1882e:	950a                	add	a0,a0,sp
   18830:	03400613          	li	a2,52
   18834:	00002097          	auipc	ra,0x2
   18838:	3e2080e7          	jalr	994(ra) # 1ac16 <memcpy>
   1883c:	01845513          	srli	a0,s0,0x18
   18840:	01045593          	srli	a1,s0,0x10
   18844:	00845613          	srli	a2,s0,0x8
   18848:	648105a3          	sb	s0,1611(sp)
   1884c:	64c10623          	sb	a2,1612(sp)
   18850:	64b106a3          	sb	a1,1613(sp)
   18854:	64a10723          	sb	a0,1614(sp)
   18858:	64f10513          	addi	a0,sp,1615
   1885c:	6585                	lui	a1,0x1
   1885e:	2f058593          	addi	a1,a1,752 # 12f0 <.Lline_table_start1+0x10c5>
   18862:	958a                	add	a1,a1,sp
   18864:	03400613          	li	a2,52
   18868:	00002097          	auipc	ra,0x2
   1886c:	3ae080e7          	jalr	942(ra) # 1ac16 <memcpy>
   18870:	6505                	lui	a0,0x1
   18872:	34c50513          	addi	a0,a0,844 # 134c <.Lline_table_start1+0x1121>
   18876:	950a                	add	a0,a0,sp
   18878:	64810593          	addi	a1,sp,1608
   1887c:	ffffb097          	auipc	ra,0xffffb
   18880:	ed0080e7          	jalr	-304(ra) # 1374c <_ZN18complex_no_dynamic3app17h594c8f06144ff079E>
   18884:	39894503          	lbu	a0,920(s2)
   18888:	c119                	beqz	a0,1888e <_start+0x18f6>
   1888a:	3140206f          	j	1ab9e <_start+0x3c06>
   1888e:	39a94503          	lbu	a0,922(s2)
   18892:	39994583          	lbu	a1,921(s2)
   18896:	39b94603          	lbu	a2,923(s2)
   1889a:	39c92403          	lw	s0,924(s2)
   1889e:	0522                	slli	a0,a0,0x8
   188a0:	8d4d                	or	a0,a0,a1
   188a2:	68a11223          	sh	a0,1668(sp)
   188a6:	68c10323          	sb	a2,1670(sp)
   188aa:	6505                	lui	a0,0x1
   188ac:	35450513          	addi	a0,a0,852 # 1354 <.Lline_table_start1+0x1129>
   188b0:	00a105b3          	add	a1,sp,a0
   188b4:	6505                	lui	a0,0x1
   188b6:	2f050513          	addi	a0,a0,752 # 12f0 <.Lline_table_start1+0x10c5>
   188ba:	950a                	add	a0,a0,sp
   188bc:	02000613          	li	a2,32
   188c0:	00002097          	auipc	ra,0x2
   188c4:	356080e7          	jalr	854(ra) # 1ac16 <memcpy>
   188c8:	01845513          	srli	a0,s0,0x18
   188cc:	01045593          	srli	a1,s0,0x10
   188d0:	00845613          	srli	a2,s0,0x8
   188d4:	688103a3          	sb	s0,1671(sp)
   188d8:	68c10423          	sb	a2,1672(sp)
   188dc:	68b104a3          	sb	a1,1673(sp)
   188e0:	68a10523          	sb	a0,1674(sp)
   188e4:	68b10513          	addi	a0,sp,1675
   188e8:	6585                	lui	a1,0x1
   188ea:	2f058593          	addi	a1,a1,752 # 12f0 <.Lline_table_start1+0x10c5>
   188ee:	958a                	add	a1,a1,sp
   188f0:	02000613          	li	a2,32
   188f4:	00002097          	auipc	ra,0x2
   188f8:	322080e7          	jalr	802(ra) # 1ac16 <memcpy>
   188fc:	6505                	lui	a0,0x1
   188fe:	34c50513          	addi	a0,a0,844 # 134c <.Lline_table_start1+0x1121>
   18902:	950a                	add	a0,a0,sp
   18904:	68410593          	addi	a1,sp,1668
   18908:	ffffe097          	auipc	ra,0xffffe
   1890c:	494080e7          	jalr	1172(ra) # 16d9c <_ZN18complex_no_dynamic3app17hfbee440b8c3b5806E>
   18910:	39894503          	lbu	a0,920(s2)
   18914:	c119                	beqz	a0,1891a <_start+0x1982>
   18916:	2880206f          	j	1ab9e <_start+0x3c06>
   1891a:	39994503          	lbu	a0,921(s2)
   1891e:	39a94583          	lbu	a1,922(s2)
   18922:	39b94603          	lbu	a2,923(s2)
   18926:	39c92683          	lw	a3,924(s2)
   1892a:	3a092703          	lw	a4,928(s2)
   1892e:	3a492783          	lw	a5,932(s2)
   18932:	3a892483          	lw	s1,936(s2)
   18936:	3ac94403          	lbu	s0,940(s2)
   1893a:	05a2                	slli	a1,a1,0x8
   1893c:	32e92e23          	sw	a4,828(s2)
   18940:	34f92023          	sw	a5,832(s2)
   18944:	34992223          	sw	s1,836(s2)
   18948:	34890423          	sb	s0,840(s2)
   1894c:	0186d713          	srli	a4,a3,0x18
   18950:	8d4d                	or	a0,a0,a1
   18952:	0106d593          	srli	a1,a3,0x10
   18956:	6ab108a3          	sb	a1,1713(sp)
   1895a:	6ae10923          	sb	a4,1714(sp)
   1895e:	0086d593          	srli	a1,a3,0x8
   18962:	6aa11623          	sh	a0,1708(sp)
   18966:	6ac10723          	sb	a2,1710(sp)
   1896a:	6ad107a3          	sb	a3,1711(sp)
   1896e:	6ab10823          	sb	a1,1712(sp)
   18972:	6b310513          	addi	a0,sp,1715
   18976:	6585                	lui	a1,0x1
   18978:	2f058593          	addi	a1,a1,752 # 12f0 <.Lline_table_start1+0x10c5>
   1897c:	958a                	add	a1,a1,sp
   1897e:	4635                	li	a2,13
   18980:	00002097          	auipc	ra,0x2
   18984:	296080e7          	jalr	662(ra) # 1ac16 <memcpy>
   18988:	6505                	lui	a0,0x1
   1898a:	34c50513          	addi	a0,a0,844 # 134c <.Lline_table_start1+0x1121>
   1898e:	950a                	add	a0,a0,sp
   18990:	6ac10593          	addi	a1,sp,1708
   18994:	ffffa097          	auipc	ra,0xffffa
   18998:	86e080e7          	jalr	-1938(ra) # 12202 <_ZN18complex_no_dynamic3app17h21a58828ddcbd44cE>
   1899c:	39894503          	lbu	a0,920(s2)
   189a0:	c119                	beqz	a0,189a6 <_start+0x1a0e>
   189a2:	1fc0206f          	j	1ab9e <_start+0x3c06>
   189a6:	39a94503          	lbu	a0,922(s2)
   189aa:	39994583          	lbu	a1,921(s2)
   189ae:	39b94603          	lbu	a2,923(s2)
   189b2:	39c92403          	lw	s0,924(s2)
   189b6:	0522                	slli	a0,a0,0x8
   189b8:	8d4d                	or	a0,a0,a1
   189ba:	6ca11023          	sh	a0,1728(sp)
   189be:	6cc10123          	sb	a2,1730(sp)
   189c2:	6505                	lui	a0,0x1
   189c4:	35450513          	addi	a0,a0,852 # 1354 <.Lline_table_start1+0x1129>
   189c8:	00a105b3          	add	a1,sp,a0
   189cc:	6505                	lui	a0,0x1
   189ce:	2f050513          	addi	a0,a0,752 # 12f0 <.Lline_table_start1+0x10c5>
   189d2:	950a                	add	a0,a0,sp
   189d4:	02400613          	li	a2,36
   189d8:	00002097          	auipc	ra,0x2
   189dc:	23e080e7          	jalr	574(ra) # 1ac16 <memcpy>
   189e0:	01845513          	srli	a0,s0,0x18
   189e4:	01045593          	srli	a1,s0,0x10
   189e8:	00845613          	srli	a2,s0,0x8
   189ec:	6c8101a3          	sb	s0,1731(sp)
   189f0:	6cc10223          	sb	a2,1732(sp)
   189f4:	6cb102a3          	sb	a1,1733(sp)
   189f8:	6ca10323          	sb	a0,1734(sp)
   189fc:	6c710513          	addi	a0,sp,1735
   18a00:	6585                	lui	a1,0x1
   18a02:	2f058593          	addi	a1,a1,752 # 12f0 <.Lline_table_start1+0x10c5>
   18a06:	958a                	add	a1,a1,sp
   18a08:	02400613          	li	a2,36
   18a0c:	00002097          	auipc	ra,0x2
   18a10:	20a080e7          	jalr	522(ra) # 1ac16 <memcpy>
   18a14:	6505                	lui	a0,0x1
   18a16:	34c50513          	addi	a0,a0,844 # 134c <.Lline_table_start1+0x1121>
   18a1a:	950a                	add	a0,a0,sp
   18a1c:	6c010593          	addi	a1,sp,1728
   18a20:	ffff9097          	auipc	ra,0xffff9
   18a24:	d06080e7          	jalr	-762(ra) # 11726 <_ZN18complex_no_dynamic3app17h0c09a874c458a673E>
   18a28:	39894503          	lbu	a0,920(s2)
   18a2c:	c119                	beqz	a0,18a32 <_start+0x1a9a>
   18a2e:	1700206f          	j	1ab9e <_start+0x3c06>
   18a32:	39a94503          	lbu	a0,922(s2)
   18a36:	39994583          	lbu	a1,921(s2)
   18a3a:	39b94603          	lbu	a2,923(s2)
   18a3e:	39c92403          	lw	s0,924(s2)
   18a42:	0522                	slli	a0,a0,0x8
   18a44:	8d4d                	or	a0,a0,a1
   18a46:	6ea11623          	sh	a0,1772(sp)
   18a4a:	6ec10723          	sb	a2,1774(sp)
   18a4e:	6505                	lui	a0,0x1
   18a50:	35450513          	addi	a0,a0,852 # 1354 <.Lline_table_start1+0x1129>
   18a54:	00a105b3          	add	a1,sp,a0
   18a58:	6505                	lui	a0,0x1
   18a5a:	2f050513          	addi	a0,a0,752 # 12f0 <.Lline_table_start1+0x10c5>
   18a5e:	950a                	add	a0,a0,sp
   18a60:	465d                	li	a2,23
   18a62:	00002097          	auipc	ra,0x2
   18a66:	1b4080e7          	jalr	436(ra) # 1ac16 <memcpy>
   18a6a:	01845513          	srli	a0,s0,0x18
   18a6e:	01045593          	srli	a1,s0,0x10
   18a72:	00845613          	srli	a2,s0,0x8
   18a76:	6e8107a3          	sb	s0,1775(sp)
   18a7a:	6ec10823          	sb	a2,1776(sp)
   18a7e:	6eb108a3          	sb	a1,1777(sp)
   18a82:	6ea10923          	sb	a0,1778(sp)
   18a86:	6f310513          	addi	a0,sp,1779
   18a8a:	6585                	lui	a1,0x1
   18a8c:	2f058593          	addi	a1,a1,752 # 12f0 <.Lline_table_start1+0x10c5>
   18a90:	958a                	add	a1,a1,sp
   18a92:	465d                	li	a2,23
   18a94:	00002097          	auipc	ra,0x2
   18a98:	182080e7          	jalr	386(ra) # 1ac16 <memcpy>
   18a9c:	6505                	lui	a0,0x1
   18a9e:	34c50513          	addi	a0,a0,844 # 134c <.Lline_table_start1+0x1121>
   18aa2:	950a                	add	a0,a0,sp
   18aa4:	6ec10593          	addi	a1,sp,1772
   18aa8:	ffffc097          	auipc	ra,0xffffc
   18aac:	8ea080e7          	jalr	-1814(ra) # 14392 <_ZN18complex_no_dynamic3app17h7a4e798c4e0b3040E>
   18ab0:	39894503          	lbu	a0,920(s2)
   18ab4:	c119                	beqz	a0,18aba <_start+0x1b22>
   18ab6:	0e80206f          	j	1ab9e <_start+0x3c06>
   18aba:	39a94503          	lbu	a0,922(s2)
   18abe:	39994583          	lbu	a1,921(s2)
   18ac2:	39b94603          	lbu	a2,923(s2)
   18ac6:	39c92403          	lw	s0,924(s2)
   18aca:	0522                	slli	a0,a0,0x8
   18acc:	8d4d                	or	a0,a0,a1
   18ace:	70a11523          	sh	a0,1802(sp)
   18ad2:	70c10623          	sb	a2,1804(sp)
   18ad6:	6505                	lui	a0,0x1
   18ad8:	35450513          	addi	a0,a0,852 # 1354 <.Lline_table_start1+0x1129>
   18adc:	00a105b3          	add	a1,sp,a0
   18ae0:	6505                	lui	a0,0x1
   18ae2:	2f050513          	addi	a0,a0,752 # 12f0 <.Lline_table_start1+0x10c5>
   18ae6:	950a                	add	a0,a0,sp
   18ae8:	04a00613          	li	a2,74
   18aec:	00002097          	auipc	ra,0x2
   18af0:	12a080e7          	jalr	298(ra) # 1ac16 <memcpy>
   18af4:	01845513          	srli	a0,s0,0x18
   18af8:	01045593          	srli	a1,s0,0x10
   18afc:	00845613          	srli	a2,s0,0x8
   18b00:	708106a3          	sb	s0,1805(sp)
   18b04:	70c10723          	sb	a2,1806(sp)
   18b08:	70b107a3          	sb	a1,1807(sp)
   18b0c:	70a10823          	sb	a0,1808(sp)
   18b10:	71110513          	addi	a0,sp,1809
   18b14:	6585                	lui	a1,0x1
   18b16:	2f058593          	addi	a1,a1,752 # 12f0 <.Lline_table_start1+0x10c5>
   18b1a:	958a                	add	a1,a1,sp
   18b1c:	04a00613          	li	a2,74
   18b20:	00002097          	auipc	ra,0x2
   18b24:	0f6080e7          	jalr	246(ra) # 1ac16 <memcpy>
   18b28:	6505                	lui	a0,0x1
   18b2a:	34c50513          	addi	a0,a0,844 # 134c <.Lline_table_start1+0x1121>
   18b2e:	950a                	add	a0,a0,sp
   18b30:	70a10593          	addi	a1,sp,1802
   18b34:	ffffe097          	auipc	ra,0xffffe
   18b38:	976080e7          	jalr	-1674(ra) # 164aa <_ZN18complex_no_dynamic3app17hdcd6443e7b9b1069E>
   18b3c:	39894503          	lbu	a0,920(s2)
   18b40:	c119                	beqz	a0,18b46 <_start+0x1bae>
   18b42:	05c0206f          	j	1ab9e <_start+0x3c06>
   18b46:	39994503          	lbu	a0,921(s2)
   18b4a:	39a94583          	lbu	a1,922(s2)
   18b4e:	39b94803          	lbu	a6,923(s2)
   18b52:	39c92683          	lw	a3,924(s2)
   18b56:	3a092703          	lw	a4,928(s2)
   18b5a:	3a492783          	lw	a5,932(s2)
   18b5e:	05a2                	slli	a1,a1,0x8
   18b60:	0186d893          	srli	a7,a3,0x18
   18b64:	0106d293          	srli	t0,a3,0x10
   18b68:	0187d613          	srli	a2,a5,0x18
   18b6c:	0107d493          	srli	s1,a5,0x10
   18b70:	0087d413          	srli	s0,a5,0x8
   18b74:	8d4d                	or	a0,a0,a1
   18b76:	01875593          	srli	a1,a4,0x18
   18b7a:	769104a3          	sb	s1,1897(sp)
   18b7e:	76c10523          	sb	a2,1898(sp)
   18b82:	01075613          	srli	a2,a4,0x10
   18b86:	76c102a3          	sb	a2,1893(sp)
   18b8a:	76b10323          	sb	a1,1894(sp)
   18b8e:	76f103a3          	sb	a5,1895(sp)
   18b92:	76810423          	sb	s0,1896(sp)
   18b96:	0086d593          	srli	a1,a3,0x8
   18b9a:	74a11e23          	sh	a0,1884(sp)
   18b9e:	75010f23          	sb	a6,1886(sp)
   18ba2:	74d10fa3          	sb	a3,1887(sp)
   18ba6:	76b10023          	sb	a1,1888(sp)
   18baa:	00875513          	srli	a0,a4,0x8
   18bae:	765100a3          	sb	t0,1889(sp)
   18bb2:	77110123          	sb	a7,1890(sp)
   18bb6:	76e101a3          	sb	a4,1891(sp)
   18bba:	76a10223          	sb	a0,1892(sp)
   18bbe:	6505                	lui	a0,0x1
   18bc0:	34c50513          	addi	a0,a0,844 # 134c <.Lline_table_start1+0x1121>
   18bc4:	950a                	add	a0,a0,sp
   18bc6:	75c10593          	addi	a1,sp,1884
   18bca:	ffff9097          	auipc	ra,0xffff9
   18bce:	f4e080e7          	jalr	-178(ra) # 11b18 <_ZN18complex_no_dynamic3app17h14f2c020a4fed1c8E>
   18bd2:	39894503          	lbu	a0,920(s2)
   18bd6:	c119                	beqz	a0,18bdc <_start+0x1c44>
   18bd8:	7c70106f          	j	1ab9e <_start+0x3c06>
   18bdc:	39a94503          	lbu	a0,922(s2)
   18be0:	39994583          	lbu	a1,921(s2)
   18be4:	39b94603          	lbu	a2,923(s2)
   18be8:	39c92403          	lw	s0,924(s2)
   18bec:	0522                	slli	a0,a0,0x8
   18bee:	8d4d                	or	a0,a0,a1
   18bf0:	76a11623          	sh	a0,1900(sp)
   18bf4:	76c10723          	sb	a2,1902(sp)
   18bf8:	6505                	lui	a0,0x1
   18bfa:	35450513          	addi	a0,a0,852 # 1354 <.Lline_table_start1+0x1129>
   18bfe:	00a105b3          	add	a1,sp,a0
   18c02:	6505                	lui	a0,0x1
   18c04:	2f050513          	addi	a0,a0,752 # 12f0 <.Lline_table_start1+0x10c5>
   18c08:	950a                	add	a0,a0,sp
   18c0a:	03f00613          	li	a2,63
   18c0e:	00002097          	auipc	ra,0x2
   18c12:	008080e7          	jalr	8(ra) # 1ac16 <memcpy>
   18c16:	01845513          	srli	a0,s0,0x18
   18c1a:	01045593          	srli	a1,s0,0x10
   18c1e:	00845613          	srli	a2,s0,0x8
   18c22:	768107a3          	sb	s0,1903(sp)
   18c26:	76c10823          	sb	a2,1904(sp)
   18c2a:	76b108a3          	sb	a1,1905(sp)
   18c2e:	76a10923          	sb	a0,1906(sp)
   18c32:	77310513          	addi	a0,sp,1907
   18c36:	6585                	lui	a1,0x1
   18c38:	2f058593          	addi	a1,a1,752 # 12f0 <.Lline_table_start1+0x10c5>
   18c3c:	958a                	add	a1,a1,sp
   18c3e:	03f00613          	li	a2,63
   18c42:	00002097          	auipc	ra,0x2
   18c46:	fd4080e7          	jalr	-44(ra) # 1ac16 <memcpy>
   18c4a:	6505                	lui	a0,0x1
   18c4c:	34c50513          	addi	a0,a0,844 # 134c <.Lline_table_start1+0x1121>
   18c50:	950a                	add	a0,a0,sp
   18c52:	76c10593          	addi	a1,sp,1900
   18c56:	ffffa097          	auipc	ra,0xffffa
   18c5a:	6fe080e7          	jalr	1790(ra) # 13354 <_ZN18complex_no_dynamic3app17h4dc64539dd0076a5E>
   18c5e:	39894503          	lbu	a0,920(s2)
   18c62:	c119                	beqz	a0,18c68 <_start+0x1cd0>
   18c64:	73b0106f          	j	1ab9e <_start+0x3c06>
   18c68:	39a94503          	lbu	a0,922(s2)
   18c6c:	39994583          	lbu	a1,921(s2)
   18c70:	39b94603          	lbu	a2,923(s2)
   18c74:	39c92483          	lw	s1,924(s2)
   18c78:	0522                	slli	a0,a0,0x8
   18c7a:	8d4d                	or	a0,a0,a1
   18c7c:	7b410413          	addi	s0,sp,1972
   18c80:	fea41f23          	sh	a0,-2(s0)
   18c84:	00c40023          	sb	a2,0(s0)
   18c88:	6505                	lui	a0,0x1
   18c8a:	35450513          	addi	a0,a0,852 # 1354 <.Lline_table_start1+0x1129>
   18c8e:	00a105b3          	add	a1,sp,a0
   18c92:	6505                	lui	a0,0x1
   18c94:	2f050513          	addi	a0,a0,752 # 12f0 <.Lline_table_start1+0x10c5>
   18c98:	950a                	add	a0,a0,sp
   18c9a:	04f00613          	li	a2,79
   18c9e:	00002097          	auipc	ra,0x2
   18ca2:	f78080e7          	jalr	-136(ra) # 1ac16 <memcpy>
   18ca6:	0184d513          	srli	a0,s1,0x18
   18caa:	0104d593          	srli	a1,s1,0x10
   18cae:	0084d613          	srli	a2,s1,0x8
   18cb2:	009400a3          	sb	s1,1(s0)
   18cb6:	00c40123          	sb	a2,2(s0)
   18cba:	00b401a3          	sb	a1,3(s0)
   18cbe:	00a40223          	sb	a0,4(s0)
   18cc2:	7b910513          	addi	a0,sp,1977
   18cc6:	6585                	lui	a1,0x1
   18cc8:	2f058593          	addi	a1,a1,752 # 12f0 <.Lline_table_start1+0x10c5>
   18ccc:	958a                	add	a1,a1,sp
   18cce:	04f00613          	li	a2,79
   18cd2:	00002097          	auipc	ra,0x2
   18cd6:	f44080e7          	jalr	-188(ra) # 1ac16 <memcpy>
   18cda:	6505                	lui	a0,0x1
   18cdc:	34c50513          	addi	a0,a0,844 # 134c <.Lline_table_start1+0x1121>
   18ce0:	950a                	add	a0,a0,sp
   18ce2:	7b210593          	addi	a1,sp,1970
   18ce6:	ffffc097          	auipc	ra,0xffffc
   18cea:	384080e7          	jalr	900(ra) # 1506a <_ZN18complex_no_dynamic3app17h9dade551e84a6b6eE>
   18cee:	39894503          	lbu	a0,920(s2)
   18cf2:	c119                	beqz	a0,18cf8 <_start+0x1d60>
   18cf4:	6ab0106f          	j	1ab9e <_start+0x3c06>
   18cf8:	39a94503          	lbu	a0,922(s2)
   18cfc:	39994583          	lbu	a1,921(s2)
   18d00:	39b94603          	lbu	a2,923(s2)
   18d04:	39c92483          	lw	s1,924(s2)
   18d08:	0522                	slli	a0,a0,0x8
   18d0a:	8d4d                	or	a0,a0,a1
   18d0c:	04a41a23          	sh	a0,84(s0)
   18d10:	04c40b23          	sb	a2,86(s0)
   18d14:	6505                	lui	a0,0x1
   18d16:	35450513          	addi	a0,a0,852 # 1354 <.Lline_table_start1+0x1129>
   18d1a:	00a105b3          	add	a1,sp,a0
   18d1e:	6505                	lui	a0,0x1
   18d20:	2f050513          	addi	a0,a0,752 # 12f0 <.Lline_table_start1+0x10c5>
   18d24:	950a                	add	a0,a0,sp
   18d26:	04200613          	li	a2,66
   18d2a:	00002097          	auipc	ra,0x2
   18d2e:	eec080e7          	jalr	-276(ra) # 1ac16 <memcpy>
   18d32:	0184d513          	srli	a0,s1,0x18
   18d36:	0104d593          	srli	a1,s1,0x10
   18d3a:	0084d613          	srli	a2,s1,0x8
   18d3e:	04940ba3          	sb	s1,87(s0)
   18d42:	04c40c23          	sb	a2,88(s0)
   18d46:	04b40ca3          	sb	a1,89(s0)
   18d4a:	04a40d23          	sb	a0,90(s0)
   18d4e:	7ff10513          	addi	a0,sp,2047
   18d52:	0541                	addi	a0,a0,16
   18d54:	6585                	lui	a1,0x1
   18d56:	2f058593          	addi	a1,a1,752 # 12f0 <.Lline_table_start1+0x10c5>
   18d5a:	958a                	add	a1,a1,sp
   18d5c:	04200613          	li	a2,66
   18d60:	00002097          	auipc	ra,0x2
   18d64:	eb6080e7          	jalr	-330(ra) # 1ac16 <memcpy>
   18d68:	6505                	lui	a0,0x1
   18d6a:	34c50513          	addi	a0,a0,844 # 134c <.Lline_table_start1+0x1121>
   18d6e:	950a                	add	a0,a0,sp
   18d70:	7ff10593          	addi	a1,sp,2047
   18d74:	05a5                	addi	a1,a1,9
   18d76:	ffff9097          	auipc	ra,0xffff9
   18d7a:	f9e080e7          	jalr	-98(ra) # 11d14 <_ZN18complex_no_dynamic3app17h1aa2b27641644fa9E>
   18d7e:	39894503          	lbu	a0,920(s2)
   18d82:	c119                	beqz	a0,18d88 <_start+0x1df0>
   18d84:	61b0106f          	j	1ab9e <_start+0x3c06>
   18d88:	39a94503          	lbu	a0,922(s2)
   18d8c:	39994583          	lbu	a1,921(s2)
   18d90:	39b94603          	lbu	a2,923(s2)
   18d94:	39c92483          	lw	s1,924(s2)
   18d98:	0522                	slli	a0,a0,0x8
   18d9a:	8d4d                	or	a0,a0,a1
   18d9c:	08a41f23          	sh	a0,158(s0)
   18da0:	0ac40023          	sb	a2,160(s0)
   18da4:	6505                	lui	a0,0x1
   18da6:	35450513          	addi	a0,a0,852 # 1354 <.Lline_table_start1+0x1129>
   18daa:	00a105b3          	add	a1,sp,a0
   18dae:	6505                	lui	a0,0x1
   18db0:	2f050513          	addi	a0,a0,752 # 12f0 <.Lline_table_start1+0x10c5>
   18db4:	950a                	add	a0,a0,sp
   18db6:	4671                	li	a2,28
   18db8:	00002097          	auipc	ra,0x2
   18dbc:	e5e080e7          	jalr	-418(ra) # 1ac16 <memcpy>
   18dc0:	0184d513          	srli	a0,s1,0x18
   18dc4:	0104d593          	srli	a1,s1,0x10
   18dc8:	0084d613          	srli	a2,s1,0x8
   18dcc:	0a9400a3          	sb	s1,161(s0)
   18dd0:	0ac40123          	sb	a2,162(s0)
   18dd4:	0ab401a3          	sb	a1,163(s0)
   18dd8:	0aa40223          	sb	a0,164(s0)
   18ddc:	7ff10513          	addi	a0,sp,2047
   18de0:	05a50513          	addi	a0,a0,90
   18de4:	6585                	lui	a1,0x1
   18de6:	2f058593          	addi	a1,a1,752 # 12f0 <.Lline_table_start1+0x10c5>
   18dea:	958a                	add	a1,a1,sp
   18dec:	4671                	li	a2,28
   18dee:	00002097          	auipc	ra,0x2
   18df2:	e28080e7          	jalr	-472(ra) # 1ac16 <memcpy>
   18df6:	6505                	lui	a0,0x1
   18df8:	34c50513          	addi	a0,a0,844 # 134c <.Lline_table_start1+0x1121>
   18dfc:	950a                	add	a0,a0,sp
   18dfe:	7ff10593          	addi	a1,sp,2047
   18e02:	05358593          	addi	a1,a1,83
   18e06:	ffff9097          	auipc	ra,0xffff9
   18e0a:	81c080e7          	jalr	-2020(ra) # 11622 <_ZN18complex_no_dynamic3app17h05f7f701aec031caE>
   18e0e:	39894503          	lbu	a0,920(s2)
   18e12:	c119                	beqz	a0,18e18 <_start+0x1e80>
   18e14:	58b0106f          	j	1ab9e <_start+0x3c06>
   18e18:	39a94503          	lbu	a0,922(s2)
   18e1c:	39994583          	lbu	a1,921(s2)
   18e20:	39b94603          	lbu	a2,923(s2)
   18e24:	39c92483          	lw	s1,924(s2)
   18e28:	0522                	slli	a0,a0,0x8
   18e2a:	8d4d                	or	a0,a0,a1
   18e2c:	0ca41123          	sh	a0,194(s0)
   18e30:	0cc40223          	sb	a2,196(s0)
   18e34:	6505                	lui	a0,0x1
   18e36:	35450513          	addi	a0,a0,852 # 1354 <.Lline_table_start1+0x1129>
   18e3a:	00a105b3          	add	a1,sp,a0
   18e3e:	6505                	lui	a0,0x1
   18e40:	2f050513          	addi	a0,a0,752 # 12f0 <.Lline_table_start1+0x10c5>
   18e44:	950a                	add	a0,a0,sp
   18e46:	02400613          	li	a2,36
   18e4a:	00002097          	auipc	ra,0x2
   18e4e:	dcc080e7          	jalr	-564(ra) # 1ac16 <memcpy>
   18e52:	0184d513          	srli	a0,s1,0x18
   18e56:	0104d593          	srli	a1,s1,0x10
   18e5a:	0084d613          	srli	a2,s1,0x8
   18e5e:	0c9402a3          	sb	s1,197(s0)
   18e62:	0cc40323          	sb	a2,198(s0)
   18e66:	0cb403a3          	sb	a1,199(s0)
   18e6a:	0ca40423          	sb	a0,200(s0)
   18e6e:	7ff10513          	addi	a0,sp,2047
   18e72:	07e50513          	addi	a0,a0,126
   18e76:	6585                	lui	a1,0x1
   18e78:	2f058593          	addi	a1,a1,752 # 12f0 <.Lline_table_start1+0x10c5>
   18e7c:	958a                	add	a1,a1,sp
   18e7e:	02400613          	li	a2,36
   18e82:	00002097          	auipc	ra,0x2
   18e86:	d94080e7          	jalr	-620(ra) # 1ac16 <memcpy>
   18e8a:	6505                	lui	a0,0x1
   18e8c:	34c50513          	addi	a0,a0,844 # 134c <.Lline_table_start1+0x1121>
   18e90:	950a                	add	a0,a0,sp
   18e92:	7ff10593          	addi	a1,sp,2047
   18e96:	07758593          	addi	a1,a1,119
   18e9a:	ffffb097          	auipc	ra,0xffffb
   18e9e:	10c080e7          	jalr	268(ra) # 13fa6 <_ZN18complex_no_dynamic3app17h62fc2020ff0ff908E>
   18ea2:	39894503          	lbu	a0,920(s2)
   18ea6:	c119                	beqz	a0,18eac <_start+0x1f14>
   18ea8:	4f70106f          	j	1ab9e <_start+0x3c06>
   18eac:	39994503          	lbu	a0,921(s2)
   18eb0:	39a94583          	lbu	a1,922(s2)
   18eb4:	3a092603          	lw	a2,928(s2)
   18eb8:	3a491683          	lh	a3,932(s2)
   18ebc:	39b94703          	lbu	a4,923(s2)
   18ec0:	39c92783          	lw	a5,924(s2)
   18ec4:	05a2                	slli	a1,a1,0x8
   18ec6:	32c92e23          	sw	a2,828(s2)
   18eca:	34d91023          	sh	a3,832(s2)
   18ece:	0187d613          	srli	a2,a5,0x18
   18ed2:	8d4d                	or	a0,a0,a1
   18ed4:	0107d593          	srli	a1,a5,0x10
   18ed8:	0eb409a3          	sb	a1,243(s0)
   18edc:	0ec40a23          	sb	a2,244(s0)
   18ee0:	0087d593          	srli	a1,a5,0x8
   18ee4:	0ea41723          	sh	a0,238(s0)
   18ee8:	0ee40823          	sb	a4,240(s0)
   18eec:	0ef408a3          	sb	a5,241(s0)
   18ef0:	0eb40923          	sb	a1,242(s0)
   18ef4:	7ff10513          	addi	a0,sp,2047
   18ef8:	0aa50513          	addi	a0,a0,170
   18efc:	6585                	lui	a1,0x1
   18efe:	2f058593          	addi	a1,a1,752 # 12f0 <.Lline_table_start1+0x10c5>
   18f02:	958a                	add	a1,a1,sp
   18f04:	4619                	li	a2,6
   18f06:	00002097          	auipc	ra,0x2
   18f0a:	d10080e7          	jalr	-752(ra) # 1ac16 <memcpy>
   18f0e:	6505                	lui	a0,0x1
   18f10:	34c50513          	addi	a0,a0,844 # 134c <.Lline_table_start1+0x1121>
   18f14:	950a                	add	a0,a0,sp
   18f16:	7ff10593          	addi	a1,sp,2047
   18f1a:	0a358593          	addi	a1,a1,163
   18f1e:	ffff9097          	auipc	ra,0xffff9
   18f22:	4e8080e7          	jalr	1256(ra) # 12406 <_ZN18complex_no_dynamic3app17h26185ce0bbdd18c1E>
   18f26:	39894503          	lbu	a0,920(s2)
   18f2a:	c119                	beqz	a0,18f30 <_start+0x1f98>
   18f2c:	4730106f          	j	1ab9e <_start+0x3c06>
   18f30:	39a94503          	lbu	a0,922(s2)
   18f34:	39994583          	lbu	a1,921(s2)
   18f38:	39b94603          	lbu	a2,923(s2)
   18f3c:	39c92483          	lw	s1,924(s2)
   18f40:	0522                	slli	a0,a0,0x8
   18f42:	8d4d                	or	a0,a0,a1
   18f44:	0ea41e23          	sh	a0,252(s0)
   18f48:	0ec40f23          	sb	a2,254(s0)
   18f4c:	6505                	lui	a0,0x1
   18f4e:	35450513          	addi	a0,a0,852 # 1354 <.Lline_table_start1+0x1129>
   18f52:	00a105b3          	add	a1,sp,a0
   18f56:	6505                	lui	a0,0x1
   18f58:	2f050513          	addi	a0,a0,752 # 12f0 <.Lline_table_start1+0x10c5>
   18f5c:	950a                	add	a0,a0,sp
   18f5e:	4669                	li	a2,26
   18f60:	00002097          	auipc	ra,0x2
   18f64:	cb6080e7          	jalr	-842(ra) # 1ac16 <memcpy>
   18f68:	0184d513          	srli	a0,s1,0x18
   18f6c:	0104d593          	srli	a1,s1,0x10
   18f70:	0084d613          	srli	a2,s1,0x8
   18f74:	0e940fa3          	sb	s1,255(s0)
   18f78:	10c40023          	sb	a2,256(s0)
   18f7c:	10b400a3          	sb	a1,257(s0)
   18f80:	10a40123          	sb	a0,258(s0)
   18f84:	7ff10513          	addi	a0,sp,2047
   18f88:	0b850513          	addi	a0,a0,184
   18f8c:	6585                	lui	a1,0x1
   18f8e:	2f058593          	addi	a1,a1,752 # 12f0 <.Lline_table_start1+0x10c5>
   18f92:	958a                	add	a1,a1,sp
   18f94:	4669                	li	a2,26
   18f96:	00002097          	auipc	ra,0x2
   18f9a:	c80080e7          	jalr	-896(ra) # 1ac16 <memcpy>
   18f9e:	6505                	lui	a0,0x1
   18fa0:	34c50513          	addi	a0,a0,844 # 134c <.Lline_table_start1+0x1121>
   18fa4:	950a                	add	a0,a0,sp
   18fa6:	7ff10593          	addi	a1,sp,2047
   18faa:	0b158593          	addi	a1,a1,177
   18fae:	ffffa097          	auipc	ra,0xffffa
   18fb2:	bac080e7          	jalr	-1108(ra) # 12b5a <_ZN18complex_no_dynamic3app17h3c34ea83ae272567E>
   18fb6:	39894503          	lbu	a0,920(s2)
   18fba:	c119                	beqz	a0,18fc0 <_start+0x2028>
   18fbc:	3e30106f          	j	1ab9e <_start+0x3c06>
   18fc0:	39a94503          	lbu	a0,922(s2)
   18fc4:	39994583          	lbu	a1,921(s2)
   18fc8:	39b94603          	lbu	a2,923(s2)
   18fcc:	39c92483          	lw	s1,924(s2)
   18fd0:	0522                	slli	a0,a0,0x8
   18fd2:	8d4d                	or	a0,a0,a1
   18fd4:	10a41f23          	sh	a0,286(s0)
   18fd8:	12c40023          	sb	a2,288(s0)
   18fdc:	6505                	lui	a0,0x1
   18fde:	35450513          	addi	a0,a0,852 # 1354 <.Lline_table_start1+0x1129>
   18fe2:	00a105b3          	add	a1,sp,a0
   18fe6:	6505                	lui	a0,0x1
   18fe8:	2f050513          	addi	a0,a0,752 # 12f0 <.Lline_table_start1+0x10c5>
   18fec:	950a                	add	a0,a0,sp
   18fee:	04c00613          	li	a2,76
   18ff2:	00002097          	auipc	ra,0x2
   18ff6:	c24080e7          	jalr	-988(ra) # 1ac16 <memcpy>
   18ffa:	0184d513          	srli	a0,s1,0x18
   18ffe:	0104d593          	srli	a1,s1,0x10
   19002:	0084d613          	srli	a2,s1,0x8
   19006:	129400a3          	sb	s1,289(s0)
   1900a:	12c40123          	sb	a2,290(s0)
   1900e:	12b401a3          	sb	a1,291(s0)
   19012:	12a40223          	sb	a0,292(s0)
   19016:	7ff10513          	addi	a0,sp,2047
   1901a:	0da50513          	addi	a0,a0,218
   1901e:	6585                	lui	a1,0x1
   19020:	2f058593          	addi	a1,a1,752 # 12f0 <.Lline_table_start1+0x10c5>
   19024:	958a                	add	a1,a1,sp
   19026:	04c00613          	li	a2,76
   1902a:	00002097          	auipc	ra,0x2
   1902e:	bec080e7          	jalr	-1044(ra) # 1ac16 <memcpy>
   19032:	6505                	lui	a0,0x1
   19034:	34c50513          	addi	a0,a0,844 # 134c <.Lline_table_start1+0x1121>
   19038:	950a                	add	a0,a0,sp
   1903a:	7ff10593          	addi	a1,sp,2047
   1903e:	0d358593          	addi	a1,a1,211
   19042:	ffffa097          	auipc	ra,0xffffa
   19046:	512080e7          	jalr	1298(ra) # 13554 <_ZN18complex_no_dynamic3app17h506dd918cac2eeacE>
   1904a:	39894503          	lbu	a0,920(s2)
   1904e:	c119                	beqz	a0,19054 <_start+0x20bc>
   19050:	34f0106f          	j	1ab9e <_start+0x3c06>
   19054:	39a94503          	lbu	a0,922(s2)
   19058:	39994583          	lbu	a1,921(s2)
   1905c:	39b94603          	lbu	a2,923(s2)
   19060:	39c92483          	lw	s1,924(s2)
   19064:	0522                	slli	a0,a0,0x8
   19066:	8d4d                	or	a0,a0,a1
   19068:	16a41923          	sh	a0,370(s0)
   1906c:	16c40a23          	sb	a2,372(s0)
   19070:	6505                	lui	a0,0x1
   19072:	35450513          	addi	a0,a0,852 # 1354 <.Lline_table_start1+0x1129>
   19076:	00a105b3          	add	a1,sp,a0
   1907a:	6505                	lui	a0,0x1
   1907c:	2f050513          	addi	a0,a0,752 # 12f0 <.Lline_table_start1+0x10c5>
   19080:	950a                	add	a0,a0,sp
   19082:	04600613          	li	a2,70
   19086:	00002097          	auipc	ra,0x2
   1908a:	b90080e7          	jalr	-1136(ra) # 1ac16 <memcpy>
   1908e:	0184d513          	srli	a0,s1,0x18
   19092:	0104d593          	srli	a1,s1,0x10
   19096:	0084d613          	srli	a2,s1,0x8
   1909a:	16940aa3          	sb	s1,373(s0)
   1909e:	16c40b23          	sb	a2,374(s0)
   190a2:	16b40ba3          	sb	a1,375(s0)
   190a6:	16a40c23          	sb	a0,376(s0)
   190aa:	7ff10513          	addi	a0,sp,2047
   190ae:	12e50513          	addi	a0,a0,302
   190b2:	6585                	lui	a1,0x1
   190b4:	2f058593          	addi	a1,a1,752 # 12f0 <.Lline_table_start1+0x10c5>
   190b8:	958a                	add	a1,a1,sp
   190ba:	04600613          	li	a2,70
   190be:	00002097          	auipc	ra,0x2
   190c2:	b58080e7          	jalr	-1192(ra) # 1ac16 <memcpy>
   190c6:	6505                	lui	a0,0x1
   190c8:	34c50513          	addi	a0,a0,844 # 134c <.Lline_table_start1+0x1121>
   190cc:	950a                	add	a0,a0,sp
   190ce:	7ff10593          	addi	a1,sp,2047
   190d2:	12758593          	addi	a1,a1,295
   190d6:	ffffa097          	auipc	ra,0xffffa
   190da:	77a080e7          	jalr	1914(ra) # 13850 <_ZN18complex_no_dynamic3app17h5ab6f7283ff475ddE>
   190de:	39894503          	lbu	a0,920(s2)
   190e2:	c119                	beqz	a0,190e8 <_start+0x2150>
   190e4:	2bb0106f          	j	1ab9e <_start+0x3c06>
   190e8:	39a94503          	lbu	a0,922(s2)
   190ec:	39994583          	lbu	a1,921(s2)
   190f0:	39b94603          	lbu	a2,923(s2)
   190f4:	39c92483          	lw	s1,924(s2)
   190f8:	0522                	slli	a0,a0,0x8
   190fa:	8d4d                	or	a0,a0,a1
   190fc:	1ca41023          	sh	a0,448(s0)
   19100:	1cc40123          	sb	a2,450(s0)
   19104:	6505                	lui	a0,0x1
   19106:	35450513          	addi	a0,a0,852 # 1354 <.Lline_table_start1+0x1129>
   1910a:	00a105b3          	add	a1,sp,a0
   1910e:	6505                	lui	a0,0x1
   19110:	2f050513          	addi	a0,a0,752 # 12f0 <.Lline_table_start1+0x10c5>
   19114:	950a                	add	a0,a0,sp
   19116:	03500613          	li	a2,53
   1911a:	00002097          	auipc	ra,0x2
   1911e:	afc080e7          	jalr	-1284(ra) # 1ac16 <memcpy>
   19122:	0184d513          	srli	a0,s1,0x18
   19126:	0104d593          	srli	a1,s1,0x10
   1912a:	0084d613          	srli	a2,s1,0x8
   1912e:	1c9401a3          	sb	s1,451(s0)
   19132:	1cc40223          	sb	a2,452(s0)
   19136:	1cb402a3          	sb	a1,453(s0)
   1913a:	1ca40323          	sb	a0,454(s0)
   1913e:	7ff10513          	addi	a0,sp,2047
   19142:	17c50513          	addi	a0,a0,380
   19146:	6585                	lui	a1,0x1
   19148:	2f058593          	addi	a1,a1,752 # 12f0 <.Lline_table_start1+0x10c5>
   1914c:	958a                	add	a1,a1,sp
   1914e:	03500613          	li	a2,53
   19152:	00002097          	auipc	ra,0x2
   19156:	ac4080e7          	jalr	-1340(ra) # 1ac16 <memcpy>
   1915a:	6505                	lui	a0,0x1
   1915c:	34c50513          	addi	a0,a0,844 # 134c <.Lline_table_start1+0x1121>
   19160:	950a                	add	a0,a0,sp
   19162:	7ff10593          	addi	a1,sp,2047
   19166:	17558593          	addi	a1,a1,373
   1916a:	ffff8097          	auipc	ra,0xffff8
   1916e:	fca080e7          	jalr	-54(ra) # 11134 <_ZN18complex_no_dynamic3app17h00949a7b4f76fb68E>
   19172:	39894503          	lbu	a0,920(s2)
   19176:	c119                	beqz	a0,1917c <_start+0x21e4>
   19178:	2270106f          	j	1ab9e <_start+0x3c06>
   1917c:	39a94503          	lbu	a0,922(s2)
   19180:	39994583          	lbu	a1,921(s2)
   19184:	39b94603          	lbu	a2,923(s2)
   19188:	39c92483          	lw	s1,924(s2)
   1918c:	0522                	slli	a0,a0,0x8
   1918e:	8d4d                	or	a0,a0,a1
   19190:	1ea41e23          	sh	a0,508(s0)
   19194:	1ec40f23          	sb	a2,510(s0)
   19198:	6505                	lui	a0,0x1
   1919a:	35450513          	addi	a0,a0,852 # 1354 <.Lline_table_start1+0x1129>
   1919e:	00a105b3          	add	a1,sp,a0
   191a2:	6505                	lui	a0,0x1
   191a4:	2f050513          	addi	a0,a0,752 # 12f0 <.Lline_table_start1+0x10c5>
   191a8:	950a                	add	a0,a0,sp
   191aa:	03100613          	li	a2,49
   191ae:	00002097          	auipc	ra,0x2
   191b2:	a68080e7          	jalr	-1432(ra) # 1ac16 <memcpy>
   191b6:	0184d513          	srli	a0,s1,0x18
   191ba:	0104d593          	srli	a1,s1,0x10
   191be:	0084d613          	srli	a2,s1,0x8
   191c2:	1e940fa3          	sb	s1,511(s0)
   191c6:	20c40023          	sb	a2,512(s0)
   191ca:	20b400a3          	sb	a1,513(s0)
   191ce:	20a40123          	sb	a0,514(s0)
   191d2:	7ff10513          	addi	a0,sp,2047
   191d6:	1b850513          	addi	a0,a0,440
   191da:	6585                	lui	a1,0x1
   191dc:	2f058593          	addi	a1,a1,752 # 12f0 <.Lline_table_start1+0x10c5>
   191e0:	958a                	add	a1,a1,sp
   191e2:	03100613          	li	a2,49
   191e6:	00002097          	auipc	ra,0x2
   191ea:	a30080e7          	jalr	-1488(ra) # 1ac16 <memcpy>
   191ee:	6505                	lui	a0,0x1
   191f0:	34c50513          	addi	a0,a0,844 # 134c <.Lline_table_start1+0x1121>
   191f4:	950a                	add	a0,a0,sp
   191f6:	7ff10593          	addi	a1,sp,2047
   191fa:	1b158593          	addi	a1,a1,433
   191fe:	ffffb097          	auipc	ra,0xffffb
   19202:	66a080e7          	jalr	1642(ra) # 14868 <_ZN18complex_no_dynamic3app17h8bc23e9dc28440f0E>
   19206:	39894503          	lbu	a0,920(s2)
   1920a:	c119                	beqz	a0,19210 <_start+0x2278>
   1920c:	1930106f          	j	1ab9e <_start+0x3c06>
   19210:	39a94503          	lbu	a0,922(s2)
   19214:	39994583          	lbu	a1,921(s2)
   19218:	39b94603          	lbu	a2,923(s2)
   1921c:	39c92483          	lw	s1,924(s2)
   19220:	0522                	slli	a0,a0,0x8
   19222:	8d4d                	or	a0,a0,a1
   19224:	22a41a23          	sh	a0,564(s0)
   19228:	22c40b23          	sb	a2,566(s0)
   1922c:	6505                	lui	a0,0x1
   1922e:	35450513          	addi	a0,a0,852 # 1354 <.Lline_table_start1+0x1129>
   19232:	00a105b3          	add	a1,sp,a0
   19236:	6505                	lui	a0,0x1
   19238:	2f050513          	addi	a0,a0,752 # 12f0 <.Lline_table_start1+0x10c5>
   1923c:	950a                	add	a0,a0,sp
   1923e:	02000613          	li	a2,32
   19242:	00002097          	auipc	ra,0x2
   19246:	9d4080e7          	jalr	-1580(ra) # 1ac16 <memcpy>
   1924a:	0184d513          	srli	a0,s1,0x18
   1924e:	0104d593          	srli	a1,s1,0x10
   19252:	0084d613          	srli	a2,s1,0x8
   19256:	22940ba3          	sb	s1,567(s0)
   1925a:	22c40c23          	sb	a2,568(s0)
   1925e:	22b40ca3          	sb	a1,569(s0)
   19262:	22a40d23          	sb	a0,570(s0)
   19266:	7ff10513          	addi	a0,sp,2047
   1926a:	1f050513          	addi	a0,a0,496
   1926e:	6585                	lui	a1,0x1
   19270:	2f058593          	addi	a1,a1,752 # 12f0 <.Lline_table_start1+0x10c5>
   19274:	958a                	add	a1,a1,sp
   19276:	02000613          	li	a2,32
   1927a:	00002097          	auipc	ra,0x2
   1927e:	99c080e7          	jalr	-1636(ra) # 1ac16 <memcpy>
   19282:	6505                	lui	a0,0x1
   19284:	34c50513          	addi	a0,a0,844 # 134c <.Lline_table_start1+0x1121>
   19288:	950a                	add	a0,a0,sp
   1928a:	7ff10593          	addi	a1,sp,2047
   1928e:	1e958593          	addi	a1,a1,489
   19292:	ffff8097          	auipc	ra,0xffff8
   19296:	690080e7          	jalr	1680(ra) # 11922 <_ZN18complex_no_dynamic3app17h124459315d2a5064E>
   1929a:	39894503          	lbu	a0,920(s2)
   1929e:	c119                	beqz	a0,192a4 <_start+0x230c>
   192a0:	0ff0106f          	j	1ab9e <_start+0x3c06>
   192a4:	39a94503          	lbu	a0,922(s2)
   192a8:	39994583          	lbu	a1,921(s2)
   192ac:	39b94603          	lbu	a2,923(s2)
   192b0:	39c92483          	lw	s1,924(s2)
   192b4:	0522                	slli	a0,a0,0x8
   192b6:	8d4d                	or	a0,a0,a1
   192b8:	24a41e23          	sh	a0,604(s0)
   192bc:	24c40f23          	sb	a2,606(s0)
   192c0:	6505                	lui	a0,0x1
   192c2:	35450513          	addi	a0,a0,852 # 1354 <.Lline_table_start1+0x1129>
   192c6:	00a105b3          	add	a1,sp,a0
   192ca:	6505                	lui	a0,0x1
   192cc:	2f050513          	addi	a0,a0,752 # 12f0 <.Lline_table_start1+0x10c5>
   192d0:	950a                	add	a0,a0,sp
   192d2:	04a00613          	li	a2,74
   192d6:	00002097          	auipc	ra,0x2
   192da:	940080e7          	jalr	-1728(ra) # 1ac16 <memcpy>
   192de:	0184d513          	srli	a0,s1,0x18
   192e2:	0104d593          	srli	a1,s1,0x10
   192e6:	0084d613          	srli	a2,s1,0x8
   192ea:	24940fa3          	sb	s1,607(s0)
   192ee:	26c40023          	sb	a2,608(s0)
   192f2:	26b400a3          	sb	a1,609(s0)
   192f6:	26a40123          	sb	a0,610(s0)
   192fa:	7ff10513          	addi	a0,sp,2047
   192fe:	21850513          	addi	a0,a0,536
   19302:	6585                	lui	a1,0x1
   19304:	2f058593          	addi	a1,a1,752 # 12f0 <.Lline_table_start1+0x10c5>
   19308:	958a                	add	a1,a1,sp
   1930a:	04a00613          	li	a2,74
   1930e:	00002097          	auipc	ra,0x2
   19312:	908080e7          	jalr	-1784(ra) # 1ac16 <memcpy>
   19316:	6505                	lui	a0,0x1
   19318:	34c50513          	addi	a0,a0,844 # 134c <.Lline_table_start1+0x1121>
   1931c:	950a                	add	a0,a0,sp
   1931e:	7ff10593          	addi	a1,sp,2047
   19322:	21158593          	addi	a1,a1,529
   19326:	ffffb097          	auipc	ra,0xffffb
   1932a:	16c080e7          	jalr	364(ra) # 14492 <_ZN18complex_no_dynamic3app17h7a6381a27820cce2E>
   1932e:	39894503          	lbu	a0,920(s2)
   19332:	c119                	beqz	a0,19338 <_start+0x23a0>
   19334:	06b0106f          	j	1ab9e <_start+0x3c06>
   19338:	39a94503          	lbu	a0,922(s2)
   1933c:	39994583          	lbu	a1,921(s2)
   19340:	39b94603          	lbu	a2,923(s2)
   19344:	39c92483          	lw	s1,924(s2)
   19348:	0522                	slli	a0,a0,0x8
   1934a:	8d4d                	or	a0,a0,a1
   1934c:	2aa41723          	sh	a0,686(s0)
   19350:	2ac40823          	sb	a2,688(s0)
   19354:	6505                	lui	a0,0x1
   19356:	35450513          	addi	a0,a0,852 # 1354 <.Lline_table_start1+0x1129>
   1935a:	00a105b3          	add	a1,sp,a0
   1935e:	6505                	lui	a0,0x1
   19360:	2f050513          	addi	a0,a0,752 # 12f0 <.Lline_table_start1+0x10c5>
   19364:	950a                	add	a0,a0,sp
   19366:	04800613          	li	a2,72
   1936a:	00002097          	auipc	ra,0x2
   1936e:	8ac080e7          	jalr	-1876(ra) # 1ac16 <memcpy>
   19372:	0184d513          	srli	a0,s1,0x18
   19376:	0104d593          	srli	a1,s1,0x10
   1937a:	0084d613          	srli	a2,s1,0x8
   1937e:	2a9408a3          	sb	s1,689(s0)
   19382:	2ac40923          	sb	a2,690(s0)
   19386:	2ab409a3          	sb	a1,691(s0)
   1938a:	2aa40a23          	sb	a0,692(s0)
   1938e:	7ff10513          	addi	a0,sp,2047
   19392:	26a50513          	addi	a0,a0,618
   19396:	6585                	lui	a1,0x1
   19398:	2f058593          	addi	a1,a1,752 # 12f0 <.Lline_table_start1+0x10c5>
   1939c:	958a                	add	a1,a1,sp
   1939e:	04800613          	li	a2,72
   193a2:	00002097          	auipc	ra,0x2
   193a6:	874080e7          	jalr	-1932(ra) # 1ac16 <memcpy>
   193aa:	6505                	lui	a0,0x1
   193ac:	34c50513          	addi	a0,a0,844 # 134c <.Lline_table_start1+0x1121>
   193b0:	950a                	add	a0,a0,sp
   193b2:	7ff10593          	addi	a1,sp,2047
   193b6:	26358593          	addi	a1,a1,611
   193ba:	ffffb097          	auipc	ra,0xffffb
   193be:	ddc080e7          	jalr	-548(ra) # 14196 <_ZN18complex_no_dynamic3app17h6efb98fb0b0ce428E>
   193c2:	39894503          	lbu	a0,920(s2)
   193c6:	c119                	beqz	a0,193cc <_start+0x2434>
   193c8:	7d60106f          	j	1ab9e <_start+0x3c06>
   193cc:	39a94503          	lbu	a0,922(s2)
   193d0:	39994583          	lbu	a1,921(s2)
   193d4:	39b94603          	lbu	a2,923(s2)
   193d8:	39c92483          	lw	s1,924(s2)
   193dc:	0522                	slli	a0,a0,0x8
   193de:	8d4d                	or	a0,a0,a1
   193e0:	2ea41f23          	sh	a0,766(s0)
   193e4:	30c40023          	sb	a2,768(s0)
   193e8:	6505                	lui	a0,0x1
   193ea:	35450513          	addi	a0,a0,852 # 1354 <.Lline_table_start1+0x1129>
   193ee:	00a105b3          	add	a1,sp,a0
   193f2:	6505                	lui	a0,0x1
   193f4:	2f050513          	addi	a0,a0,752 # 12f0 <.Lline_table_start1+0x10c5>
   193f8:	950a                	add	a0,a0,sp
   193fa:	05a00613          	li	a2,90
   193fe:	00002097          	auipc	ra,0x2
   19402:	818080e7          	jalr	-2024(ra) # 1ac16 <memcpy>
   19406:	0184d513          	srli	a0,s1,0x18
   1940a:	0104d593          	srli	a1,s1,0x10
   1940e:	0084d613          	srli	a2,s1,0x8
   19412:	309400a3          	sb	s1,769(s0)
   19416:	30c40123          	sb	a2,770(s0)
   1941a:	30b401a3          	sb	a1,771(s0)
   1941e:	30a40223          	sb	a0,772(s0)
   19422:	7ff10513          	addi	a0,sp,2047
   19426:	2ba50513          	addi	a0,a0,698
   1942a:	6585                	lui	a1,0x1
   1942c:	2f058593          	addi	a1,a1,752 # 12f0 <.Lline_table_start1+0x10c5>
   19430:	958a                	add	a1,a1,sp
   19432:	05a00613          	li	a2,90
   19436:	00001097          	auipc	ra,0x1
   1943a:	7e0080e7          	jalr	2016(ra) # 1ac16 <memcpy>
   1943e:	6505                	lui	a0,0x1
   19440:	34c50513          	addi	a0,a0,844 # 134c <.Lline_table_start1+0x1121>
   19444:	950a                	add	a0,a0,sp
   19446:	7ff10593          	addi	a1,sp,2047
   1944a:	2b358593          	addi	a1,a1,691
   1944e:	ffffd097          	auipc	ra,0xffffd
   19452:	904080e7          	jalr	-1788(ra) # 15d52 <_ZN18complex_no_dynamic3app17hc070bbadcda9b16eE>
   19456:	39894503          	lbu	a0,920(s2)
   1945a:	c119                	beqz	a0,19460 <_start+0x24c8>
   1945c:	7420106f          	j	1ab9e <_start+0x3c06>
   19460:	39a94503          	lbu	a0,922(s2)
   19464:	39994583          	lbu	a1,921(s2)
   19468:	39b94603          	lbu	a2,923(s2)
   1946c:	39c92483          	lw	s1,924(s2)
   19470:	0522                	slli	a0,a0,0x8
   19472:	8d4d                	or	a0,a0,a1
   19474:	36a41023          	sh	a0,864(s0)
   19478:	36c40123          	sb	a2,866(s0)
   1947c:	6505                	lui	a0,0x1
   1947e:	35450513          	addi	a0,a0,852 # 1354 <.Lline_table_start1+0x1129>
   19482:	00a105b3          	add	a1,sp,a0
   19486:	6505                	lui	a0,0x1
   19488:	2f050513          	addi	a0,a0,752 # 12f0 <.Lline_table_start1+0x10c5>
   1948c:	950a                	add	a0,a0,sp
   1948e:	465d                	li	a2,23
   19490:	00001097          	auipc	ra,0x1
   19494:	786080e7          	jalr	1926(ra) # 1ac16 <memcpy>
   19498:	0184d513          	srli	a0,s1,0x18
   1949c:	0104d593          	srli	a1,s1,0x10
   194a0:	0084d613          	srli	a2,s1,0x8
   194a4:	369401a3          	sb	s1,867(s0)
   194a8:	36c40223          	sb	a2,868(s0)
   194ac:	36b402a3          	sb	a1,869(s0)
   194b0:	36a40323          	sb	a0,870(s0)
   194b4:	7ff10513          	addi	a0,sp,2047
   194b8:	31c50513          	addi	a0,a0,796
   194bc:	6585                	lui	a1,0x1
   194be:	2f058593          	addi	a1,a1,752 # 12f0 <.Lline_table_start1+0x10c5>
   194c2:	958a                	add	a1,a1,sp
   194c4:	465d                	li	a2,23
   194c6:	00001097          	auipc	ra,0x1
   194ca:	750080e7          	jalr	1872(ra) # 1ac16 <memcpy>
   194ce:	6505                	lui	a0,0x1
   194d0:	34c50513          	addi	a0,a0,844 # 134c <.Lline_table_start1+0x1121>
   194d4:	950a                	add	a0,a0,sp
   194d6:	7ff10593          	addi	a1,sp,2047
   194da:	31558593          	addi	a1,a1,789
   194de:	ffffa097          	auipc	ra,0xffffa
   194e2:	470080e7          	jalr	1136(ra) # 1394e <_ZN18complex_no_dynamic3app17h5c43b85e4780e119E>
   194e6:	39894503          	lbu	a0,920(s2)
   194ea:	c119                	beqz	a0,194f0 <_start+0x2558>
   194ec:	6b20106f          	j	1ab9e <_start+0x3c06>
   194f0:	39a94503          	lbu	a0,922(s2)
   194f4:	39994583          	lbu	a1,921(s2)
   194f8:	39b94603          	lbu	a2,923(s2)
   194fc:	39c92483          	lw	s1,924(s2)
   19500:	0522                	slli	a0,a0,0x8
   19502:	8d4d                	or	a0,a0,a1
   19504:	36a41f23          	sh	a0,894(s0)
   19508:	38c40023          	sb	a2,896(s0)
   1950c:	6505                	lui	a0,0x1
   1950e:	35450513          	addi	a0,a0,852 # 1354 <.Lline_table_start1+0x1129>
   19512:	00a105b3          	add	a1,sp,a0
   19516:	6505                	lui	a0,0x1
   19518:	2f050513          	addi	a0,a0,752 # 12f0 <.Lline_table_start1+0x10c5>
   1951c:	950a                	add	a0,a0,sp
   1951e:	4669                	li	a2,26
   19520:	00001097          	auipc	ra,0x1
   19524:	6f6080e7          	jalr	1782(ra) # 1ac16 <memcpy>
   19528:	0184d513          	srli	a0,s1,0x18
   1952c:	0104d593          	srli	a1,s1,0x10
   19530:	0084d613          	srli	a2,s1,0x8
   19534:	389400a3          	sb	s1,897(s0)
   19538:	38c40123          	sb	a2,898(s0)
   1953c:	38b401a3          	sb	a1,899(s0)
   19540:	38a40223          	sb	a0,900(s0)
   19544:	7ff10513          	addi	a0,sp,2047
   19548:	33a50513          	addi	a0,a0,826
   1954c:	6585                	lui	a1,0x1
   1954e:	2f058593          	addi	a1,a1,752 # 12f0 <.Lline_table_start1+0x10c5>
   19552:	958a                	add	a1,a1,sp
   19554:	4669                	li	a2,26
   19556:	00001097          	auipc	ra,0x1
   1955a:	6c0080e7          	jalr	1728(ra) # 1ac16 <memcpy>
   1955e:	6505                	lui	a0,0x1
   19560:	34c50513          	addi	a0,a0,844 # 134c <.Lline_table_start1+0x1121>
   19564:	950a                	add	a0,a0,sp
   19566:	7ff10593          	addi	a1,sp,2047
   1956a:	33358593          	addi	a1,a1,819
   1956e:	ffffb097          	auipc	ra,0xffffb
   19572:	6fe080e7          	jalr	1790(ra) # 14c6c <_ZN18complex_no_dynamic3app17h93e9a706e91d2b04E>
   19576:	39894503          	lbu	a0,920(s2)
   1957a:	c119                	beqz	a0,19580 <_start+0x25e8>
   1957c:	6220106f          	j	1ab9e <_start+0x3c06>
   19580:	39a94503          	lbu	a0,922(s2)
   19584:	39994583          	lbu	a1,921(s2)
   19588:	39b94603          	lbu	a2,923(s2)
   1958c:	39c92483          	lw	s1,924(s2)
   19590:	0522                	slli	a0,a0,0x8
   19592:	8d4d                	or	a0,a0,a1
   19594:	3aa41023          	sh	a0,928(s0)
   19598:	3ac40123          	sb	a2,930(s0)
   1959c:	6505                	lui	a0,0x1
   1959e:	35450513          	addi	a0,a0,852 # 1354 <.Lline_table_start1+0x1129>
   195a2:	00a105b3          	add	a1,sp,a0
   195a6:	6505                	lui	a0,0x1
   195a8:	2f050513          	addi	a0,a0,752 # 12f0 <.Lline_table_start1+0x10c5>
   195ac:	950a                	add	a0,a0,sp
   195ae:	02300613          	li	a2,35
   195b2:	00001097          	auipc	ra,0x1
   195b6:	664080e7          	jalr	1636(ra) # 1ac16 <memcpy>
   195ba:	0184d513          	srli	a0,s1,0x18
   195be:	0104d593          	srli	a1,s1,0x10
   195c2:	0084d613          	srli	a2,s1,0x8
   195c6:	3a9401a3          	sb	s1,931(s0)
   195ca:	3ac40223          	sb	a2,932(s0)
   195ce:	3ab402a3          	sb	a1,933(s0)
   195d2:	3aa40323          	sb	a0,934(s0)
   195d6:	7ff10513          	addi	a0,sp,2047
   195da:	35c50513          	addi	a0,a0,860
   195de:	6585                	lui	a1,0x1
   195e0:	2f058593          	addi	a1,a1,752 # 12f0 <.Lline_table_start1+0x10c5>
   195e4:	958a                	add	a1,a1,sp
   195e6:	02300613          	li	a2,35
   195ea:	00001097          	auipc	ra,0x1
   195ee:	62c080e7          	jalr	1580(ra) # 1ac16 <memcpy>
   195f2:	6505                	lui	a0,0x1
   195f4:	34c50513          	addi	a0,a0,844 # 134c <.Lline_table_start1+0x1121>
   195f8:	950a                	add	a0,a0,sp
   195fa:	7ff10593          	addi	a1,sp,2047
   195fe:	35558593          	addi	a1,a1,853
   19602:	ffffe097          	auipc	ra,0xffffe
   19606:	892080e7          	jalr	-1902(ra) # 16e94 <_ZN18complex_no_dynamic3app17hff8dc928a614bdf5E>
   1960a:	39894503          	lbu	a0,920(s2)
   1960e:	c119                	beqz	a0,19614 <_start+0x267c>
   19610:	58e0106f          	j	1ab9e <_start+0x3c06>
   19614:	39a94503          	lbu	a0,922(s2)
   19618:	39994583          	lbu	a1,921(s2)
   1961c:	39b94603          	lbu	a2,923(s2)
   19620:	39c92483          	lw	s1,924(s2)
   19624:	0522                	slli	a0,a0,0x8
   19626:	8d4d                	or	a0,a0,a1
   19628:	3ca41523          	sh	a0,970(s0)
   1962c:	3cc40623          	sb	a2,972(s0)
   19630:	6505                	lui	a0,0x1
   19632:	35450513          	addi	a0,a0,852 # 1354 <.Lline_table_start1+0x1129>
   19636:	00a105b3          	add	a1,sp,a0
   1963a:	6505                	lui	a0,0x1
   1963c:	2f050513          	addi	a0,a0,752 # 12f0 <.Lline_table_start1+0x10c5>
   19640:	950a                	add	a0,a0,sp
   19642:	05200613          	li	a2,82
   19646:	00001097          	auipc	ra,0x1
   1964a:	5d0080e7          	jalr	1488(ra) # 1ac16 <memcpy>
   1964e:	0184d513          	srli	a0,s1,0x18
   19652:	0104d593          	srli	a1,s1,0x10
   19656:	0084d613          	srli	a2,s1,0x8
   1965a:	3c9406a3          	sb	s1,973(s0)
   1965e:	3cc40723          	sb	a2,974(s0)
   19662:	3cb407a3          	sb	a1,975(s0)
   19666:	3ca40823          	sb	a0,976(s0)
   1966a:	7ff10513          	addi	a0,sp,2047
   1966e:	38650513          	addi	a0,a0,902
   19672:	6585                	lui	a1,0x1
   19674:	2f058593          	addi	a1,a1,752 # 12f0 <.Lline_table_start1+0x10c5>
   19678:	958a                	add	a1,a1,sp
   1967a:	05200613          	li	a2,82
   1967e:	00001097          	auipc	ra,0x1
   19682:	598080e7          	jalr	1432(ra) # 1ac16 <memcpy>
   19686:	6505                	lui	a0,0x1
   19688:	34c50513          	addi	a0,a0,844 # 134c <.Lline_table_start1+0x1121>
   1968c:	950a                	add	a0,a0,sp
   1968e:	7ff10593          	addi	a1,sp,2047
   19692:	37f58593          	addi	a1,a1,895
   19696:	ffffb097          	auipc	ra,0xffffb
   1969a:	bfa080e7          	jalr	-1030(ra) # 14290 <_ZN18complex_no_dynamic3app17h72bb57634394a133E>
   1969e:	39894503          	lbu	a0,920(s2)
   196a2:	c119                	beqz	a0,196a8 <_start+0x2710>
   196a4:	4fa0106f          	j	1ab9e <_start+0x3c06>
   196a8:	39a94503          	lbu	a0,922(s2)
   196ac:	39994583          	lbu	a1,921(s2)
   196b0:	39b94603          	lbu	a2,923(s2)
   196b4:	39c92483          	lw	s1,924(s2)
   196b8:	0522                	slli	a0,a0,0x8
   196ba:	8d4d                	or	a0,a0,a1
   196bc:	42a41223          	sh	a0,1060(s0)
   196c0:	42c40323          	sb	a2,1062(s0)
   196c4:	6505                	lui	a0,0x1
   196c6:	35450513          	addi	a0,a0,852 # 1354 <.Lline_table_start1+0x1129>
   196ca:	00a105b3          	add	a1,sp,a0
   196ce:	6505                	lui	a0,0x1
   196d0:	2f050513          	addi	a0,a0,752 # 12f0 <.Lline_table_start1+0x10c5>
   196d4:	950a                	add	a0,a0,sp
   196d6:	04300613          	li	a2,67
   196da:	00001097          	auipc	ra,0x1
   196de:	53c080e7          	jalr	1340(ra) # 1ac16 <memcpy>
   196e2:	0184d513          	srli	a0,s1,0x18
   196e6:	0104d593          	srli	a1,s1,0x10
   196ea:	0084d613          	srli	a2,s1,0x8
   196ee:	429403a3          	sb	s1,1063(s0)
   196f2:	42c40423          	sb	a2,1064(s0)
   196f6:	42b404a3          	sb	a1,1065(s0)
   196fa:	42a40523          	sb	a0,1066(s0)
   196fe:	7ff10513          	addi	a0,sp,2047
   19702:	3e050513          	addi	a0,a0,992
   19706:	6585                	lui	a1,0x1
   19708:	2f058593          	addi	a1,a1,752 # 12f0 <.Lline_table_start1+0x10c5>
   1970c:	958a                	add	a1,a1,sp
   1970e:	04300613          	li	a2,67
   19712:	00001097          	auipc	ra,0x1
   19716:	504080e7          	jalr	1284(ra) # 1ac16 <memcpy>
   1971a:	6505                	lui	a0,0x1
   1971c:	34c50513          	addi	a0,a0,844 # 134c <.Lline_table_start1+0x1121>
   19720:	950a                	add	a0,a0,sp
   19722:	7ff10593          	addi	a1,sp,2047
   19726:	3d958593          	addi	a1,a1,985
   1972a:	ffff9097          	auipc	ra,0xffff9
   1972e:	bd8080e7          	jalr	-1064(ra) # 12302 <_ZN18complex_no_dynamic3app17h252b9b522302b900E>
   19732:	39894503          	lbu	a0,920(s2)
   19736:	c119                	beqz	a0,1973c <_start+0x27a4>
   19738:	4660106f          	j	1ab9e <_start+0x3c06>
   1973c:	39a94503          	lbu	a0,922(s2)
   19740:	39994583          	lbu	a1,921(s2)
   19744:	39b94603          	lbu	a2,923(s2)
   19748:	39c92483          	lw	s1,924(s2)
   1974c:	0522                	slli	a0,a0,0x8
   1974e:	8d4d                	or	a0,a0,a1
   19750:	46a41723          	sh	a0,1134(s0)
   19754:	46c40823          	sb	a2,1136(s0)
   19758:	6505                	lui	a0,0x1
   1975a:	35450513          	addi	a0,a0,852 # 1354 <.Lline_table_start1+0x1129>
   1975e:	00a105b3          	add	a1,sp,a0
   19762:	6505                	lui	a0,0x1
   19764:	2f050513          	addi	a0,a0,752 # 12f0 <.Lline_table_start1+0x10c5>
   19768:	950a                	add	a0,a0,sp
   1976a:	02600613          	li	a2,38
   1976e:	00001097          	auipc	ra,0x1
   19772:	4a8080e7          	jalr	1192(ra) # 1ac16 <memcpy>
   19776:	0184d513          	srli	a0,s1,0x18
   1977a:	0104d593          	srli	a1,s1,0x10
   1977e:	0084d613          	srli	a2,s1,0x8
   19782:	469408a3          	sb	s1,1137(s0)
   19786:	46c40923          	sb	a2,1138(s0)
   1978a:	46b409a3          	sb	a1,1139(s0)
   1978e:	46a40a23          	sb	a0,1140(s0)
   19792:	7ff10513          	addi	a0,sp,2047
   19796:	42a50513          	addi	a0,a0,1066
   1979a:	6585                	lui	a1,0x1
   1979c:	2f058593          	addi	a1,a1,752 # 12f0 <.Lline_table_start1+0x10c5>
   197a0:	958a                	add	a1,a1,sp
   197a2:	02600613          	li	a2,38
   197a6:	00001097          	auipc	ra,0x1
   197aa:	470080e7          	jalr	1136(ra) # 1ac16 <memcpy>
   197ae:	6505                	lui	a0,0x1
   197b0:	34c50513          	addi	a0,a0,844 # 134c <.Lline_table_start1+0x1121>
   197b4:	950a                	add	a0,a0,sp
   197b6:	7ff10593          	addi	a1,sp,2047
   197ba:	42358593          	addi	a1,a1,1059
   197be:	ffffa097          	auipc	ra,0xffffa
   197c2:	c96080e7          	jalr	-874(ra) # 13454 <_ZN18complex_no_dynamic3app17h4e69d42b788abe88E>
   197c6:	39894503          	lbu	a0,920(s2)
   197ca:	c119                	beqz	a0,197d0 <_start+0x2838>
   197cc:	3d20106f          	j	1ab9e <_start+0x3c06>
   197d0:	39a94503          	lbu	a0,922(s2)
   197d4:	39994583          	lbu	a1,921(s2)
   197d8:	39b94603          	lbu	a2,923(s2)
   197dc:	39c92483          	lw	s1,924(s2)
   197e0:	0522                	slli	a0,a0,0x8
   197e2:	8d4d                	or	a0,a0,a1
   197e4:	48a41e23          	sh	a0,1180(s0)
   197e8:	48c40f23          	sb	a2,1182(s0)
   197ec:	6505                	lui	a0,0x1
   197ee:	35450513          	addi	a0,a0,852 # 1354 <.Lline_table_start1+0x1129>
   197f2:	00a105b3          	add	a1,sp,a0
   197f6:	6505                	lui	a0,0x1
   197f8:	2f050513          	addi	a0,a0,752 # 12f0 <.Lline_table_start1+0x10c5>
   197fc:	950a                	add	a0,a0,sp
   197fe:	04c00613          	li	a2,76
   19802:	00001097          	auipc	ra,0x1
   19806:	414080e7          	jalr	1044(ra) # 1ac16 <memcpy>
   1980a:	0184d513          	srli	a0,s1,0x18
   1980e:	0104d593          	srli	a1,s1,0x10
   19812:	0084d613          	srli	a2,s1,0x8
   19816:	48940fa3          	sb	s1,1183(s0)
   1981a:	4ac40023          	sb	a2,1184(s0)
   1981e:	4ab400a3          	sb	a1,1185(s0)
   19822:	4aa40123          	sb	a0,1186(s0)
   19826:	7ff10513          	addi	a0,sp,2047
   1982a:	45850513          	addi	a0,a0,1112
   1982e:	6585                	lui	a1,0x1
   19830:	2f058593          	addi	a1,a1,752 # 12f0 <.Lline_table_start1+0x10c5>
   19834:	958a                	add	a1,a1,sp
   19836:	04c00613          	li	a2,76
   1983a:	00001097          	auipc	ra,0x1
   1983e:	3dc080e7          	jalr	988(ra) # 1ac16 <memcpy>
   19842:	6505                	lui	a0,0x1
   19844:	34c50513          	addi	a0,a0,844 # 134c <.Lline_table_start1+0x1121>
   19848:	950a                	add	a0,a0,sp
   1984a:	7ff10593          	addi	a1,sp,2047
   1984e:	45158593          	addi	a1,a1,1105
   19852:	ffff9097          	auipc	ra,0xffff9
   19856:	106080e7          	jalr	262(ra) # 12958 <_ZN18complex_no_dynamic3app17h32bb91afe5d9e131E>
   1985a:	39894503          	lbu	a0,920(s2)
   1985e:	c119                	beqz	a0,19864 <_start+0x28cc>
   19860:	33e0106f          	j	1ab9e <_start+0x3c06>
   19864:	39a94503          	lbu	a0,922(s2)
   19868:	39994583          	lbu	a1,921(s2)
   1986c:	39b94603          	lbu	a2,923(s2)
   19870:	39c92483          	lw	s1,924(s2)
   19874:	0522                	slli	a0,a0,0x8
   19876:	8d4d                	or	a0,a0,a1
   19878:	4ea41823          	sh	a0,1264(s0)
   1987c:	4ec40923          	sb	a2,1266(s0)
   19880:	6505                	lui	a0,0x1
   19882:	35450513          	addi	a0,a0,852 # 1354 <.Lline_table_start1+0x1129>
   19886:	00a105b3          	add	a1,sp,a0
   1988a:	6505                	lui	a0,0x1
   1988c:	2f050513          	addi	a0,a0,752 # 12f0 <.Lline_table_start1+0x10c5>
   19890:	950a                	add	a0,a0,sp
   19892:	03300613          	li	a2,51
   19896:	00001097          	auipc	ra,0x1
   1989a:	380080e7          	jalr	896(ra) # 1ac16 <memcpy>
   1989e:	0184d513          	srli	a0,s1,0x18
   198a2:	0104d593          	srli	a1,s1,0x10
   198a6:	0084d613          	srli	a2,s1,0x8
   198aa:	4e9409a3          	sb	s1,1267(s0)
   198ae:	4ec40a23          	sb	a2,1268(s0)
   198b2:	4eb40aa3          	sb	a1,1269(s0)
   198b6:	4ea40b23          	sb	a0,1270(s0)
   198ba:	7ff10513          	addi	a0,sp,2047
   198be:	4ac50513          	addi	a0,a0,1196
   198c2:	6585                	lui	a1,0x1
   198c4:	2f058593          	addi	a1,a1,752 # 12f0 <.Lline_table_start1+0x10c5>
   198c8:	958a                	add	a1,a1,sp
   198ca:	03300613          	li	a2,51
   198ce:	00001097          	auipc	ra,0x1
   198d2:	348080e7          	jalr	840(ra) # 1ac16 <memcpy>
   198d6:	6505                	lui	a0,0x1
   198d8:	34c50513          	addi	a0,a0,844 # 134c <.Lline_table_start1+0x1121>
   198dc:	950a                	add	a0,a0,sp
   198de:	7ff10593          	addi	a1,sp,2047
   198e2:	4a558593          	addi	a1,a1,1189
   198e6:	ffffd097          	auipc	ra,0xffffd
   198ea:	2ba080e7          	jalr	698(ra) # 16ba0 <_ZN18complex_no_dynamic3app17hfafe8df9bdc2f6dfE>
   198ee:	39894503          	lbu	a0,920(s2)
   198f2:	c119                	beqz	a0,198f8 <_start+0x2960>
   198f4:	2aa0106f          	j	1ab9e <_start+0x3c06>
   198f8:	39a94503          	lbu	a0,922(s2)
   198fc:	39994583          	lbu	a1,921(s2)
   19900:	39b94603          	lbu	a2,923(s2)
   19904:	39c92483          	lw	s1,924(s2)
   19908:	0522                	slli	a0,a0,0x8
   1990a:	8d4d                	or	a0,a0,a1
   1990c:	52a41523          	sh	a0,1322(s0)
   19910:	52c40623          	sb	a2,1324(s0)
   19914:	6505                	lui	a0,0x1
   19916:	35450513          	addi	a0,a0,852 # 1354 <.Lline_table_start1+0x1129>
   1991a:	00a105b3          	add	a1,sp,a0
   1991e:	6505                	lui	a0,0x1
   19920:	2f050513          	addi	a0,a0,752 # 12f0 <.Lline_table_start1+0x10c5>
   19924:	950a                	add	a0,a0,sp
   19926:	05600613          	li	a2,86
   1992a:	00001097          	auipc	ra,0x1
   1992e:	2ec080e7          	jalr	748(ra) # 1ac16 <memcpy>
   19932:	0184d513          	srli	a0,s1,0x18
   19936:	0104d593          	srli	a1,s1,0x10
   1993a:	0084d613          	srli	a2,s1,0x8
   1993e:	529406a3          	sb	s1,1325(s0)
   19942:	52c40723          	sb	a2,1326(s0)
   19946:	52b407a3          	sb	a1,1327(s0)
   1994a:	52a40823          	sb	a0,1328(s0)
   1994e:	7ff10513          	addi	a0,sp,2047
   19952:	4e650513          	addi	a0,a0,1254
   19956:	6585                	lui	a1,0x1
   19958:	2f058593          	addi	a1,a1,752 # 12f0 <.Lline_table_start1+0x10c5>
   1995c:	958a                	add	a1,a1,sp
   1995e:	05600613          	li	a2,86
   19962:	00001097          	auipc	ra,0x1
   19966:	2b4080e7          	jalr	692(ra) # 1ac16 <memcpy>
   1996a:	6505                	lui	a0,0x1
   1996c:	34c50513          	addi	a0,a0,844 # 134c <.Lline_table_start1+0x1121>
   19970:	950a                	add	a0,a0,sp
   19972:	7ff10593          	addi	a1,sp,2047
   19976:	4df58593          	addi	a1,a1,1247
   1997a:	ffff9097          	auipc	ra,0xffff9
   1997e:	4e2080e7          	jalr	1250(ra) # 12e5c <_ZN18complex_no_dynamic3app17h4332653be63a3dacE>
   19982:	39894503          	lbu	a0,920(s2)
   19986:	c119                	beqz	a0,1998c <_start+0x29f4>
   19988:	2160106f          	j	1ab9e <_start+0x3c06>
   1998c:	39a94503          	lbu	a0,922(s2)
   19990:	39994583          	lbu	a1,921(s2)
   19994:	39b94603          	lbu	a2,923(s2)
   19998:	39c92483          	lw	s1,924(s2)
   1999c:	0522                	slli	a0,a0,0x8
   1999e:	8d4d                	or	a0,a0,a1
   199a0:	58a41423          	sh	a0,1416(s0)
   199a4:	58c40523          	sb	a2,1418(s0)
   199a8:	6505                	lui	a0,0x1
   199aa:	35450513          	addi	a0,a0,852 # 1354 <.Lline_table_start1+0x1129>
   199ae:	00a105b3          	add	a1,sp,a0
   199b2:	6505                	lui	a0,0x1
   199b4:	2f050513          	addi	a0,a0,752 # 12f0 <.Lline_table_start1+0x10c5>
   199b8:	950a                	add	a0,a0,sp
   199ba:	03900613          	li	a2,57
   199be:	00001097          	auipc	ra,0x1
   199c2:	258080e7          	jalr	600(ra) # 1ac16 <memcpy>
   199c6:	0184d513          	srli	a0,s1,0x18
   199ca:	0104d593          	srli	a1,s1,0x10
   199ce:	0084d613          	srli	a2,s1,0x8
   199d2:	589405a3          	sb	s1,1419(s0)
   199d6:	58c40623          	sb	a2,1420(s0)
   199da:	58b406a3          	sb	a1,1421(s0)
   199de:	58a40723          	sb	a0,1422(s0)
   199e2:	7ff10513          	addi	a0,sp,2047
   199e6:	54450513          	addi	a0,a0,1348
   199ea:	6585                	lui	a1,0x1
   199ec:	2f058593          	addi	a1,a1,752 # 12f0 <.Lline_table_start1+0x10c5>
   199f0:	958a                	add	a1,a1,sp
   199f2:	03900613          	li	a2,57
   199f6:	00001097          	auipc	ra,0x1
   199fa:	220080e7          	jalr	544(ra) # 1ac16 <memcpy>
   199fe:	6505                	lui	a0,0x1
   19a00:	34c50513          	addi	a0,a0,844 # 134c <.Lline_table_start1+0x1121>
   19a04:	950a                	add	a0,a0,sp
   19a06:	7ff10593          	addi	a1,sp,2047
   19a0a:	53d58593          	addi	a1,a1,1341
   19a0e:	ffff9097          	auipc	ra,0xffff9
   19a12:	b52080e7          	jalr	-1198(ra) # 12560 <_ZN18complex_no_dynamic3app17h27351d6eb694a4b1E>
   19a16:	39894503          	lbu	a0,920(s2)
   19a1a:	c119                	beqz	a0,19a20 <_start+0x2a88>
   19a1c:	1820106f          	j	1ab9e <_start+0x3c06>
   19a20:	39a94503          	lbu	a0,922(s2)
   19a24:	39994583          	lbu	a1,921(s2)
   19a28:	39b94603          	lbu	a2,923(s2)
   19a2c:	39c92483          	lw	s1,924(s2)
   19a30:	0522                	slli	a0,a0,0x8
   19a32:	8d4d                	or	a0,a0,a1
   19a34:	5ca41423          	sh	a0,1480(s0)
   19a38:	5cc40523          	sb	a2,1482(s0)
   19a3c:	6505                	lui	a0,0x1
   19a3e:	35450513          	addi	a0,a0,852 # 1354 <.Lline_table_start1+0x1129>
   19a42:	00a105b3          	add	a1,sp,a0
   19a46:	6505                	lui	a0,0x1
   19a48:	2f050513          	addi	a0,a0,752 # 12f0 <.Lline_table_start1+0x10c5>
   19a4c:	950a                	add	a0,a0,sp
   19a4e:	02a00613          	li	a2,42
   19a52:	00001097          	auipc	ra,0x1
   19a56:	1c4080e7          	jalr	452(ra) # 1ac16 <memcpy>
   19a5a:	0184d513          	srli	a0,s1,0x18
   19a5e:	0104d593          	srli	a1,s1,0x10
   19a62:	0084d613          	srli	a2,s1,0x8
   19a66:	5c9405a3          	sb	s1,1483(s0)
   19a6a:	5cc40623          	sb	a2,1484(s0)
   19a6e:	5cb406a3          	sb	a1,1485(s0)
   19a72:	5ca40723          	sb	a0,1486(s0)
   19a76:	7ff10513          	addi	a0,sp,2047
   19a7a:	58450513          	addi	a0,a0,1412
   19a7e:	6585                	lui	a1,0x1
   19a80:	2f058593          	addi	a1,a1,752 # 12f0 <.Lline_table_start1+0x10c5>
   19a84:	958a                	add	a1,a1,sp
   19a86:	02a00613          	li	a2,42
   19a8a:	00001097          	auipc	ra,0x1
   19a8e:	18c080e7          	jalr	396(ra) # 1ac16 <memcpy>
   19a92:	6505                	lui	a0,0x1
   19a94:	34c50513          	addi	a0,a0,844 # 134c <.Lline_table_start1+0x1121>
   19a98:	950a                	add	a0,a0,sp
   19a9a:	7ff10593          	addi	a1,sp,2047
   19a9e:	57d58593          	addi	a1,a1,1405
   19aa2:	ffff7097          	auipc	ra,0xffff7
   19aa6:	78c080e7          	jalr	1932(ra) # 1122e <_ZN18complex_no_dynamic3app17h00fa707c601f136bE>
   19aaa:	39894503          	lbu	a0,920(s2)
   19aae:	c119                	beqz	a0,19ab4 <_start+0x2b1c>
   19ab0:	0ee0106f          	j	1ab9e <_start+0x3c06>
   19ab4:	39a94503          	lbu	a0,922(s2)
   19ab8:	39994583          	lbu	a1,921(s2)
   19abc:	39b94603          	lbu	a2,923(s2)
   19ac0:	39c92483          	lw	s1,924(s2)
   19ac4:	0522                	slli	a0,a0,0x8
   19ac6:	8d4d                	or	a0,a0,a1
   19ac8:	5ea41d23          	sh	a0,1530(s0)
   19acc:	5ec40e23          	sb	a2,1532(s0)
   19ad0:	6505                	lui	a0,0x1
   19ad2:	35450513          	addi	a0,a0,852 # 1354 <.Lline_table_start1+0x1129>
   19ad6:	00a105b3          	add	a1,sp,a0
   19ada:	6505                	lui	a0,0x1
   19adc:	2f050513          	addi	a0,a0,752 # 12f0 <.Lline_table_start1+0x10c5>
   19ae0:	950a                	add	a0,a0,sp
   19ae2:	04100613          	li	a2,65
   19ae6:	00001097          	auipc	ra,0x1
   19aea:	130080e7          	jalr	304(ra) # 1ac16 <memcpy>
   19aee:	0184d513          	srli	a0,s1,0x18
   19af2:	0104d593          	srli	a1,s1,0x10
   19af6:	0084d613          	srli	a2,s1,0x8
   19afa:	5e940ea3          	sb	s1,1533(s0)
   19afe:	5ec40f23          	sb	a2,1534(s0)
   19b02:	5eb40fa3          	sb	a1,1535(s0)
   19b06:	60a40023          	sb	a0,1536(s0)
   19b0a:	7ff10513          	addi	a0,sp,2047
   19b0e:	5b650513          	addi	a0,a0,1462
   19b12:	6585                	lui	a1,0x1
   19b14:	2f058593          	addi	a1,a1,752 # 12f0 <.Lline_table_start1+0x10c5>
   19b18:	958a                	add	a1,a1,sp
   19b1a:	04100613          	li	a2,65
   19b1e:	00001097          	auipc	ra,0x1
   19b22:	0f8080e7          	jalr	248(ra) # 1ac16 <memcpy>
   19b26:	6505                	lui	a0,0x1
   19b28:	34c50513          	addi	a0,a0,844 # 134c <.Lline_table_start1+0x1121>
   19b2c:	950a                	add	a0,a0,sp
   19b2e:	7ff10593          	addi	a1,sp,2047
   19b32:	5af58593          	addi	a1,a1,1455
   19b36:	ffffc097          	auipc	ra,0xffffc
   19b3a:	314080e7          	jalr	788(ra) # 15e4a <_ZN18complex_no_dynamic3app17hc16a806fd83998b2E>
   19b3e:	39894503          	lbu	a0,920(s2)
   19b42:	c119                	beqz	a0,19b48 <_start+0x2bb0>
   19b44:	05a0106f          	j	1ab9e <_start+0x3c06>
   19b48:	39a94503          	lbu	a0,922(s2)
   19b4c:	39994583          	lbu	a1,921(s2)
   19b50:	39b94603          	lbu	a2,923(s2)
   19b54:	39c92483          	lw	s1,924(s2)
   19b58:	0522                	slli	a0,a0,0x8
   19b5a:	8d4d                	or	a0,a0,a1
   19b5c:	64a41123          	sh	a0,1602(s0)
   19b60:	64c40223          	sb	a2,1604(s0)
   19b64:	6505                	lui	a0,0x1
   19b66:	35450513          	addi	a0,a0,852 # 1354 <.Lline_table_start1+0x1129>
   19b6a:	00a105b3          	add	a1,sp,a0
   19b6e:	6505                	lui	a0,0x1
   19b70:	2f050513          	addi	a0,a0,752 # 12f0 <.Lline_table_start1+0x10c5>
   19b74:	950a                	add	a0,a0,sp
   19b76:	02200613          	li	a2,34
   19b7a:	00001097          	auipc	ra,0x1
   19b7e:	09c080e7          	jalr	156(ra) # 1ac16 <memcpy>
   19b82:	0184d513          	srli	a0,s1,0x18
   19b86:	0104d593          	srli	a1,s1,0x10
   19b8a:	0084d613          	srli	a2,s1,0x8
   19b8e:	649402a3          	sb	s1,1605(s0)
   19b92:	64c40323          	sb	a2,1606(s0)
   19b96:	64b403a3          	sb	a1,1607(s0)
   19b9a:	64a40423          	sb	a0,1608(s0)
   19b9e:	7ff10513          	addi	a0,sp,2047
   19ba2:	5fe50513          	addi	a0,a0,1534
   19ba6:	6585                	lui	a1,0x1
   19ba8:	2f058593          	addi	a1,a1,752 # 12f0 <.Lline_table_start1+0x10c5>
   19bac:	958a                	add	a1,a1,sp
   19bae:	02200613          	li	a2,34
   19bb2:	00001097          	auipc	ra,0x1
   19bb6:	064080e7          	jalr	100(ra) # 1ac16 <memcpy>
   19bba:	6505                	lui	a0,0x1
   19bbc:	34c50513          	addi	a0,a0,844 # 134c <.Lline_table_start1+0x1121>
   19bc0:	950a                	add	a0,a0,sp
   19bc2:	7ff10593          	addi	a1,sp,2047
   19bc6:	5f758593          	addi	a1,a1,1527
   19bca:	ffffd097          	auipc	ra,0xffffd
   19bce:	ad2080e7          	jalr	-1326(ra) # 1669c <_ZN18complex_no_dynamic3app17he40e0ff11db3deceE>
   19bd2:	39894503          	lbu	a0,920(s2)
   19bd6:	7c0514e3          	bnez	a0,1ab9e <_start+0x3c06>
   19bda:	39a94503          	lbu	a0,922(s2)
   19bde:	39994583          	lbu	a1,921(s2)
   19be2:	39b94603          	lbu	a2,923(s2)
   19be6:	39c92483          	lw	s1,924(s2)
   19bea:	0522                	slli	a0,a0,0x8
   19bec:	8d4d                	or	a0,a0,a1
   19bee:	66a41623          	sh	a0,1644(s0)
   19bf2:	66c40723          	sb	a2,1646(s0)
   19bf6:	6505                	lui	a0,0x1
   19bf8:	35450513          	addi	a0,a0,852 # 1354 <.Lline_table_start1+0x1129>
   19bfc:	00a105b3          	add	a1,sp,a0
   19c00:	6505                	lui	a0,0x1
   19c02:	2f050513          	addi	a0,a0,752 # 12f0 <.Lline_table_start1+0x10c5>
   19c06:	950a                	add	a0,a0,sp
   19c08:	464d                	li	a2,19
   19c0a:	00001097          	auipc	ra,0x1
   19c0e:	00c080e7          	jalr	12(ra) # 1ac16 <memcpy>
   19c12:	0184d513          	srli	a0,s1,0x18
   19c16:	0104d593          	srli	a1,s1,0x10
   19c1a:	0084d613          	srli	a2,s1,0x8
   19c1e:	669407a3          	sb	s1,1647(s0)
   19c22:	66c40823          	sb	a2,1648(s0)
   19c26:	66b408a3          	sb	a1,1649(s0)
   19c2a:	66a40923          	sb	a0,1650(s0)
   19c2e:	7ff10513          	addi	a0,sp,2047
   19c32:	62850513          	addi	a0,a0,1576
   19c36:	6585                	lui	a1,0x1
   19c38:	2f058593          	addi	a1,a1,752 # 12f0 <.Lline_table_start1+0x10c5>
   19c3c:	958a                	add	a1,a1,sp
   19c3e:	464d                	li	a2,19
   19c40:	00001097          	auipc	ra,0x1
   19c44:	fd6080e7          	jalr	-42(ra) # 1ac16 <memcpy>
   19c48:	6505                	lui	a0,0x1
   19c4a:	34c50513          	addi	a0,a0,844 # 134c <.Lline_table_start1+0x1121>
   19c4e:	950a                	add	a0,a0,sp
   19c50:	7ff10593          	addi	a1,sp,2047
   19c54:	62158593          	addi	a1,a1,1569
   19c58:	ffffa097          	auipc	ra,0xffffa
   19c5c:	0f8080e7          	jalr	248(ra) # 13d50 <_ZN18complex_no_dynamic3app17h5dde549509b29af0E>
   19c60:	39894503          	lbu	a0,920(s2)
   19c64:	72051de3          	bnez	a0,1ab9e <_start+0x3c06>
   19c68:	39a94503          	lbu	a0,922(s2)
   19c6c:	39994583          	lbu	a1,921(s2)
   19c70:	39b94603          	lbu	a2,923(s2)
   19c74:	39c92483          	lw	s1,924(s2)
   19c78:	0522                	slli	a0,a0,0x8
   19c7a:	8d4d                	or	a0,a0,a1
   19c7c:	68a41323          	sh	a0,1670(s0)
   19c80:	68c40423          	sb	a2,1672(s0)
   19c84:	6505                	lui	a0,0x1
   19c86:	35450513          	addi	a0,a0,852 # 1354 <.Lline_table_start1+0x1129>
   19c8a:	00a105b3          	add	a1,sp,a0
   19c8e:	6505                	lui	a0,0x1
   19c90:	2f050513          	addi	a0,a0,752 # 12f0 <.Lline_table_start1+0x10c5>
   19c94:	950a                	add	a0,a0,sp
   19c96:	4651                	li	a2,20
   19c98:	00001097          	auipc	ra,0x1
   19c9c:	f7e080e7          	jalr	-130(ra) # 1ac16 <memcpy>
   19ca0:	0184d513          	srli	a0,s1,0x18
   19ca4:	0104d593          	srli	a1,s1,0x10
   19ca8:	0084d613          	srli	a2,s1,0x8
   19cac:	689404a3          	sb	s1,1673(s0)
   19cb0:	68c40523          	sb	a2,1674(s0)
   19cb4:	68b405a3          	sb	a1,1675(s0)
   19cb8:	68a40623          	sb	a0,1676(s0)
   19cbc:	7ff10513          	addi	a0,sp,2047
   19cc0:	64250513          	addi	a0,a0,1602
   19cc4:	6585                	lui	a1,0x1
   19cc6:	2f058593          	addi	a1,a1,752 # 12f0 <.Lline_table_start1+0x10c5>
   19cca:	958a                	add	a1,a1,sp
   19ccc:	4651                	li	a2,20
   19cce:	00001097          	auipc	ra,0x1
   19cd2:	f48080e7          	jalr	-184(ra) # 1ac16 <memcpy>
   19cd6:	6505                	lui	a0,0x1
   19cd8:	34c50513          	addi	a0,a0,844 # 134c <.Lline_table_start1+0x1121>
   19cdc:	950a                	add	a0,a0,sp
   19cde:	7ff10593          	addi	a1,sp,2047
   19ce2:	63b58593          	addi	a1,a1,1595
   19ce6:	ffffc097          	auipc	ra,0xffffc
   19cea:	880080e7          	jalr	-1920(ra) # 15566 <_ZN18complex_no_dynamic3app17hb08578f55accbb9dE>
   19cee:	39894503          	lbu	a0,920(s2)
   19cf2:	6a0516e3          	bnez	a0,1ab9e <_start+0x3c06>
   19cf6:	39a94503          	lbu	a0,922(s2)
   19cfa:	39994583          	lbu	a1,921(s2)
   19cfe:	39b94603          	lbu	a2,923(s2)
   19d02:	39c92483          	lw	s1,924(s2)
   19d06:	0522                	slli	a0,a0,0x8
   19d08:	8d4d                	or	a0,a0,a1
   19d0a:	6aa41123          	sh	a0,1698(s0)
   19d0e:	6ac40223          	sb	a2,1700(s0)
   19d12:	6505                	lui	a0,0x1
   19d14:	35450513          	addi	a0,a0,852 # 1354 <.Lline_table_start1+0x1129>
   19d18:	00a105b3          	add	a1,sp,a0
   19d1c:	6505                	lui	a0,0x1
   19d1e:	2f050513          	addi	a0,a0,752 # 12f0 <.Lline_table_start1+0x10c5>
   19d22:	950a                	add	a0,a0,sp
   19d24:	03a00613          	li	a2,58
   19d28:	00001097          	auipc	ra,0x1
   19d2c:	eee080e7          	jalr	-274(ra) # 1ac16 <memcpy>
   19d30:	0184d513          	srli	a0,s1,0x18
   19d34:	0104d593          	srli	a1,s1,0x10
   19d38:	0084d613          	srli	a2,s1,0x8
   19d3c:	6a9402a3          	sb	s1,1701(s0)
   19d40:	6ac40323          	sb	a2,1702(s0)
   19d44:	6ab403a3          	sb	a1,1703(s0)
   19d48:	6aa40423          	sb	a0,1704(s0)
   19d4c:	7ff10513          	addi	a0,sp,2047
   19d50:	65e50513          	addi	a0,a0,1630
   19d54:	6585                	lui	a1,0x1
   19d56:	2f058593          	addi	a1,a1,752 # 12f0 <.Lline_table_start1+0x10c5>
   19d5a:	958a                	add	a1,a1,sp
   19d5c:	03a00613          	li	a2,58
   19d60:	00001097          	auipc	ra,0x1
   19d64:	eb6080e7          	jalr	-330(ra) # 1ac16 <memcpy>
   19d68:	6505                	lui	a0,0x1
   19d6a:	34c50513          	addi	a0,a0,844 # 134c <.Lline_table_start1+0x1121>
   19d6e:	950a                	add	a0,a0,sp
   19d70:	7ff10593          	addi	a1,sp,2047
   19d74:	65758593          	addi	a1,a1,1623
   19d78:	ffff8097          	auipc	ra,0xffff8
   19d7c:	ca8080e7          	jalr	-856(ra) # 11a20 <_ZN18complex_no_dynamic3app17h12746d1551633fe9E>
   19d80:	39894503          	lbu	a0,920(s2)
   19d84:	60051de3          	bnez	a0,1ab9e <_start+0x3c06>
   19d88:	39a94503          	lbu	a0,922(s2)
   19d8c:	39994583          	lbu	a1,921(s2)
   19d90:	39b94603          	lbu	a2,923(s2)
   19d94:	39c92483          	lw	s1,924(s2)
   19d98:	0522                	slli	a0,a0,0x8
   19d9a:	8d4d                	or	a0,a0,a1
   19d9c:	6ea41223          	sh	a0,1764(s0)
   19da0:	6ec40323          	sb	a2,1766(s0)
   19da4:	6505                	lui	a0,0x1
   19da6:	35450513          	addi	a0,a0,852 # 1354 <.Lline_table_start1+0x1129>
   19daa:	00a105b3          	add	a1,sp,a0
   19dae:	6505                	lui	a0,0x1
   19db0:	2f050513          	addi	a0,a0,752 # 12f0 <.Lline_table_start1+0x10c5>
   19db4:	950a                	add	a0,a0,sp
   19db6:	4645                	li	a2,17
   19db8:	00001097          	auipc	ra,0x1
   19dbc:	e5e080e7          	jalr	-418(ra) # 1ac16 <memcpy>
   19dc0:	0184d513          	srli	a0,s1,0x18
   19dc4:	0104d593          	srli	a1,s1,0x10
   19dc8:	0084d613          	srli	a2,s1,0x8
   19dcc:	6e9403a3          	sb	s1,1767(s0)
   19dd0:	6ec40423          	sb	a2,1768(s0)
   19dd4:	6eb404a3          	sb	a1,1769(s0)
   19dd8:	6ea40523          	sb	a0,1770(s0)
   19ddc:	7ff10513          	addi	a0,sp,2047
   19de0:	6a050513          	addi	a0,a0,1696
   19de4:	6585                	lui	a1,0x1
   19de6:	2f058593          	addi	a1,a1,752 # 12f0 <.Lline_table_start1+0x10c5>
   19dea:	958a                	add	a1,a1,sp
   19dec:	4645                	li	a2,17
   19dee:	00001097          	auipc	ra,0x1
   19df2:	e28080e7          	jalr	-472(ra) # 1ac16 <memcpy>
   19df6:	6505                	lui	a0,0x1
   19df8:	34c50513          	addi	a0,a0,844 # 134c <.Lline_table_start1+0x1121>
   19dfc:	950a                	add	a0,a0,sp
   19dfe:	7ff10593          	addi	a1,sp,2047
   19e02:	69958593          	addi	a1,a1,1689
   19e06:	ffff9097          	auipc	ra,0xffff9
   19e0a:	252080e7          	jalr	594(ra) # 13058 <_ZN18complex_no_dynamic3app17h444bfe7d8c3f64f7E>
   19e0e:	39894503          	lbu	a0,920(s2)
   19e12:	580516e3          	bnez	a0,1ab9e <_start+0x3c06>
   19e16:	39a94503          	lbu	a0,922(s2)
   19e1a:	39994583          	lbu	a1,921(s2)
   19e1e:	39b94603          	lbu	a2,923(s2)
   19e22:	39c92483          	lw	s1,924(s2)
   19e26:	0522                	slli	a0,a0,0x8
   19e28:	8d4d                	or	a0,a0,a1
   19e2a:	6ea41e23          	sh	a0,1788(s0)
   19e2e:	6ec40f23          	sb	a2,1790(s0)
   19e32:	6505                	lui	a0,0x1
   19e34:	35450513          	addi	a0,a0,852 # 1354 <.Lline_table_start1+0x1129>
   19e38:	00a105b3          	add	a1,sp,a0
   19e3c:	6505                	lui	a0,0x1
   19e3e:	2f050513          	addi	a0,a0,752 # 12f0 <.Lline_table_start1+0x10c5>
   19e42:	950a                	add	a0,a0,sp
   19e44:	465d                	li	a2,23
   19e46:	00001097          	auipc	ra,0x1
   19e4a:	dd0080e7          	jalr	-560(ra) # 1ac16 <memcpy>
   19e4e:	0184d513          	srli	a0,s1,0x18
   19e52:	0104d593          	srli	a1,s1,0x10
   19e56:	0084d613          	srli	a2,s1,0x8
   19e5a:	6e940fa3          	sb	s1,1791(s0)
   19e5e:	70c40023          	sb	a2,1792(s0)
   19e62:	70b400a3          	sb	a1,1793(s0)
   19e66:	70a40123          	sb	a0,1794(s0)
   19e6a:	7ff10513          	addi	a0,sp,2047
   19e6e:	6b850513          	addi	a0,a0,1720
   19e72:	6585                	lui	a1,0x1
   19e74:	2f058593          	addi	a1,a1,752 # 12f0 <.Lline_table_start1+0x10c5>
   19e78:	958a                	add	a1,a1,sp
   19e7a:	465d                	li	a2,23
   19e7c:	00001097          	auipc	ra,0x1
   19e80:	d9a080e7          	jalr	-614(ra) # 1ac16 <memcpy>
   19e84:	6505                	lui	a0,0x1
   19e86:	34c50513          	addi	a0,a0,844 # 134c <.Lline_table_start1+0x1121>
   19e8a:	950a                	add	a0,a0,sp
   19e8c:	7ff10593          	addi	a1,sp,2047
   19e90:	6b158593          	addi	a1,a1,1713
   19e94:	ffffd097          	auipc	ra,0xffffd
   19e98:	e0e080e7          	jalr	-498(ra) # 16ca2 <_ZN18complex_no_dynamic3app17hfbc8c4a587c184d1E>
   19e9c:	39894503          	lbu	a0,920(s2)
   19ea0:	4e051fe3          	bnez	a0,1ab9e <_start+0x3c06>
   19ea4:	39a94503          	lbu	a0,922(s2)
   19ea8:	39994583          	lbu	a1,921(s2)
   19eac:	39b94603          	lbu	a2,923(s2)
   19eb0:	39c92483          	lw	s1,924(s2)
   19eb4:	0522                	slli	a0,a0,0x8
   19eb6:	8d4d                	or	a0,a0,a1
   19eb8:	70a41d23          	sh	a0,1818(s0)
   19ebc:	70c40e23          	sb	a2,1820(s0)
   19ec0:	6505                	lui	a0,0x1
   19ec2:	35450513          	addi	a0,a0,852 # 1354 <.Lline_table_start1+0x1129>
   19ec6:	00a105b3          	add	a1,sp,a0
   19eca:	6505                	lui	a0,0x1
   19ecc:	2f050513          	addi	a0,a0,752 # 12f0 <.Lline_table_start1+0x10c5>
   19ed0:	950a                	add	a0,a0,sp
   19ed2:	03500613          	li	a2,53
   19ed6:	00001097          	auipc	ra,0x1
   19eda:	d40080e7          	jalr	-704(ra) # 1ac16 <memcpy>
   19ede:	0184d513          	srli	a0,s1,0x18
   19ee2:	0104d593          	srli	a1,s1,0x10
   19ee6:	0084d613          	srli	a2,s1,0x8
   19eea:	70940ea3          	sb	s1,1821(s0)
   19eee:	70c40f23          	sb	a2,1822(s0)
   19ef2:	70b40fa3          	sb	a1,1823(s0)
   19ef6:	72a40023          	sb	a0,1824(s0)
   19efa:	7ff10513          	addi	a0,sp,2047
   19efe:	6d650513          	addi	a0,a0,1750
   19f02:	6585                	lui	a1,0x1
   19f04:	2f058593          	addi	a1,a1,752 # 12f0 <.Lline_table_start1+0x10c5>
   19f08:	958a                	add	a1,a1,sp
   19f0a:	03500613          	li	a2,53
   19f0e:	00001097          	auipc	ra,0x1
   19f12:	d08080e7          	jalr	-760(ra) # 1ac16 <memcpy>
   19f16:	6505                	lui	a0,0x1
   19f18:	34c50513          	addi	a0,a0,844 # 134c <.Lline_table_start1+0x1121>
   19f1c:	950a                	add	a0,a0,sp
   19f1e:	7ff10593          	addi	a1,sp,2047
   19f22:	6cf58593          	addi	a1,a1,1743
   19f26:	ffffb097          	auipc	ra,0xffffb
   19f2a:	348080e7          	jalr	840(ra) # 1526e <_ZN18complex_no_dynamic3app17haab50eca2553a0fcE>
   19f2e:	39894503          	lbu	a0,920(s2)
   19f32:	460516e3          	bnez	a0,1ab9e <_start+0x3c06>
   19f36:	39a94503          	lbu	a0,922(s2)
   19f3a:	39994583          	lbu	a1,921(s2)
   19f3e:	39b94603          	lbu	a2,923(s2)
   19f42:	39c92483          	lw	s1,924(s2)
   19f46:	0522                	slli	a0,a0,0x8
   19f48:	8d4d                	or	a0,a0,a1
   19f4a:	74a41b23          	sh	a0,1878(s0)
   19f4e:	74c40c23          	sb	a2,1880(s0)
   19f52:	6505                	lui	a0,0x1
   19f54:	35450513          	addi	a0,a0,852 # 1354 <.Lline_table_start1+0x1129>
   19f58:	00a105b3          	add	a1,sp,a0
   19f5c:	6505                	lui	a0,0x1
   19f5e:	2f050513          	addi	a0,a0,752 # 12f0 <.Lline_table_start1+0x10c5>
   19f62:	950a                	add	a0,a0,sp
   19f64:	02500613          	li	a2,37
   19f68:	00001097          	auipc	ra,0x1
   19f6c:	cae080e7          	jalr	-850(ra) # 1ac16 <memcpy>
   19f70:	0184d513          	srli	a0,s1,0x18
   19f74:	0104d593          	srli	a1,s1,0x10
   19f78:	0084d613          	srli	a2,s1,0x8
   19f7c:	74940ca3          	sb	s1,1881(s0)
   19f80:	74c40d23          	sb	a2,1882(s0)
   19f84:	74b40da3          	sb	a1,1883(s0)
   19f88:	74a40e23          	sb	a0,1884(s0)
   19f8c:	7ff10513          	addi	a0,sp,2047
   19f90:	71250513          	addi	a0,a0,1810
   19f94:	6585                	lui	a1,0x1
   19f96:	2f058593          	addi	a1,a1,752 # 12f0 <.Lline_table_start1+0x10c5>
   19f9a:	958a                	add	a1,a1,sp
   19f9c:	02500613          	li	a2,37
   19fa0:	00001097          	auipc	ra,0x1
   19fa4:	c76080e7          	jalr	-906(ra) # 1ac16 <memcpy>
   19fa8:	6505                	lui	a0,0x1
   19faa:	34c50513          	addi	a0,a0,844 # 134c <.Lline_table_start1+0x1121>
   19fae:	950a                	add	a0,a0,sp
   19fb0:	7ff10593          	addi	a1,sp,2047
   19fb4:	70b58593          	addi	a1,a1,1803
   19fb8:	ffffc097          	auipc	ra,0xffffc
   19fbc:	c96080e7          	jalr	-874(ra) # 15c4e <_ZN18complex_no_dynamic3app17hbf3a8a93ce048469E>
   19fc0:	39894503          	lbu	a0,920(s2)
   19fc4:	3c051de3          	bnez	a0,1ab9e <_start+0x3c06>
   19fc8:	39a94503          	lbu	a0,922(s2)
   19fcc:	39994583          	lbu	a1,921(s2)
   19fd0:	39b94603          	lbu	a2,923(s2)
   19fd4:	39c92483          	lw	s1,924(s2)
   19fd8:	0522                	slli	a0,a0,0x8
   19fda:	8d4d                	or	a0,a0,a1
   19fdc:	78a41123          	sh	a0,1922(s0)
   19fe0:	78c40223          	sb	a2,1924(s0)
   19fe4:	6505                	lui	a0,0x1
   19fe6:	35450513          	addi	a0,a0,852 # 1354 <.Lline_table_start1+0x1129>
   19fea:	00a105b3          	add	a1,sp,a0
   19fee:	6505                	lui	a0,0x1
   19ff0:	2f050513          	addi	a0,a0,752 # 12f0 <.Lline_table_start1+0x10c5>
   19ff4:	950a                	add	a0,a0,sp
   19ff6:	02000613          	li	a2,32
   19ffa:	00001097          	auipc	ra,0x1
   19ffe:	c1c080e7          	jalr	-996(ra) # 1ac16 <memcpy>
   1a002:	0184d513          	srli	a0,s1,0x18
   1a006:	0104d593          	srli	a1,s1,0x10
   1a00a:	0084d613          	srli	a2,s1,0x8
   1a00e:	789402a3          	sb	s1,1925(s0)
   1a012:	78c40323          	sb	a2,1926(s0)
   1a016:	78b403a3          	sb	a1,1927(s0)
   1a01a:	78a40423          	sb	a0,1928(s0)
   1a01e:	7ff10513          	addi	a0,sp,2047
   1a022:	73e50513          	addi	a0,a0,1854
   1a026:	6585                	lui	a1,0x1
   1a028:	2f058593          	addi	a1,a1,752 # 12f0 <.Lline_table_start1+0x10c5>
   1a02c:	958a                	add	a1,a1,sp
   1a02e:	02000613          	li	a2,32
   1a032:	00001097          	auipc	ra,0x1
   1a036:	be4080e7          	jalr	-1052(ra) # 1ac16 <memcpy>
   1a03a:	6505                	lui	a0,0x1
   1a03c:	34c50513          	addi	a0,a0,844 # 134c <.Lline_table_start1+0x1121>
   1a040:	950a                	add	a0,a0,sp
   1a042:	7ff10593          	addi	a1,sp,2047
   1a046:	73758593          	addi	a1,a1,1847
   1a04a:	ffffb097          	auipc	ra,0xffffb
   1a04e:	31e080e7          	jalr	798(ra) # 15368 <_ZN18complex_no_dynamic3app17hae2efdc7f0522236E>
   1a052:	39894503          	lbu	a0,920(s2)
   1a056:	340514e3          	bnez	a0,1ab9e <_start+0x3c06>
   1a05a:	39a94503          	lbu	a0,922(s2)
   1a05e:	39994583          	lbu	a1,921(s2)
   1a062:	39b94603          	lbu	a2,923(s2)
   1a066:	39c92483          	lw	s1,924(s2)
   1a06a:	0522                	slli	a0,a0,0x8
   1a06c:	8d4d                	or	a0,a0,a1
   1a06e:	7aa41523          	sh	a0,1962(s0)
   1a072:	7ac40623          	sb	a2,1964(s0)
   1a076:	6505                	lui	a0,0x1
   1a078:	35450513          	addi	a0,a0,852 # 1354 <.Lline_table_start1+0x1129>
   1a07c:	00a105b3          	add	a1,sp,a0
   1a080:	6505                	lui	a0,0x1
   1a082:	2f050513          	addi	a0,a0,752 # 12f0 <.Lline_table_start1+0x10c5>
   1a086:	950a                	add	a0,a0,sp
   1a088:	04800613          	li	a2,72
   1a08c:	00001097          	auipc	ra,0x1
   1a090:	b8a080e7          	jalr	-1142(ra) # 1ac16 <memcpy>
   1a094:	0184d513          	srli	a0,s1,0x18
   1a098:	0104d593          	srli	a1,s1,0x10
   1a09c:	0084d613          	srli	a2,s1,0x8
   1a0a0:	7a9406a3          	sb	s1,1965(s0)
   1a0a4:	7ac40723          	sb	a2,1966(s0)
   1a0a8:	7ab407a3          	sb	a1,1967(s0)
   1a0ac:	7aa40823          	sb	a0,1968(s0)
   1a0b0:	7ff10513          	addi	a0,sp,2047
   1a0b4:	76650513          	addi	a0,a0,1894
   1a0b8:	6585                	lui	a1,0x1
   1a0ba:	2f058593          	addi	a1,a1,752 # 12f0 <.Lline_table_start1+0x10c5>
   1a0be:	958a                	add	a1,a1,sp
   1a0c0:	04800613          	li	a2,72
   1a0c4:	00001097          	auipc	ra,0x1
   1a0c8:	b52080e7          	jalr	-1198(ra) # 1ac16 <memcpy>
   1a0cc:	6505                	lui	a0,0x1
   1a0ce:	34c50513          	addi	a0,a0,844 # 134c <.Lline_table_start1+0x1121>
   1a0d2:	950a                	add	a0,a0,sp
   1a0d4:	7ff10593          	addi	a1,sp,2047
   1a0d8:	75f58593          	addi	a1,a1,1887
   1a0dc:	ffffd097          	auipc	ra,0xffffd
   1a0e0:	9c4080e7          	jalr	-1596(ra) # 16aa0 <_ZN18complex_no_dynamic3app17hf5a17c94359c531bE>
   1a0e4:	39894503          	lbu	a0,920(s2)
   1a0e8:	2a051be3          	bnez	a0,1ab9e <_start+0x3c06>
   1a0ec:	39a94503          	lbu	a0,922(s2)
   1a0f0:	39994583          	lbu	a1,921(s2)
   1a0f4:	39b94603          	lbu	a2,923(s2)
   1a0f8:	39c92483          	lw	s1,924(s2)
   1a0fc:	0522                	slli	a0,a0,0x8
   1a0fe:	8d4d                	or	a0,a0,a1
   1a100:	7ea41d23          	sh	a0,2042(s0)
   1a104:	7ec40e23          	sb	a2,2044(s0)
   1a108:	6505                	lui	a0,0x1
   1a10a:	35450513          	addi	a0,a0,852 # 1354 <.Lline_table_start1+0x1129>
   1a10e:	00a105b3          	add	a1,sp,a0
   1a112:	6505                	lui	a0,0x1
   1a114:	2f050513          	addi	a0,a0,752 # 12f0 <.Lline_table_start1+0x10c5>
   1a118:	950a                	add	a0,a0,sp
   1a11a:	02e00613          	li	a2,46
   1a11e:	00001097          	auipc	ra,0x1
   1a122:	af8080e7          	jalr	-1288(ra) # 1ac16 <memcpy>
   1a126:	0184d513          	srli	a0,s1,0x18
   1a12a:	0104d593          	srli	a1,s1,0x10
   1a12e:	0084d613          	srli	a2,s1,0x8
   1a132:	fe990ea3          	sb	s1,-3(s2)
   1a136:	fec90f23          	sb	a2,-2(s2)
   1a13a:	feb90fa3          	sb	a1,-1(s2)
   1a13e:	00a90023          	sb	a0,0(s2)
   1a142:	7ff10513          	addi	a0,sp,2047
   1a146:	7b650513          	addi	a0,a0,1974
   1a14a:	6585                	lui	a1,0x1
   1a14c:	2f058593          	addi	a1,a1,752 # 12f0 <.Lline_table_start1+0x10c5>
   1a150:	958a                	add	a1,a1,sp
   1a152:	02e00613          	li	a2,46
   1a156:	00001097          	auipc	ra,0x1
   1a15a:	ac0080e7          	jalr	-1344(ra) # 1ac16 <memcpy>
   1a15e:	6505                	lui	a0,0x1
   1a160:	34c50513          	addi	a0,a0,844 # 134c <.Lline_table_start1+0x1121>
   1a164:	950a                	add	a0,a0,sp
   1a166:	7ff10593          	addi	a1,sp,2047
   1a16a:	7af58593          	addi	a1,a1,1967
   1a16e:	ffffc097          	auipc	ra,0xffffc
   1a172:	de0080e7          	jalr	-544(ra) # 15f4e <_ZN18complex_no_dynamic3app17hc51683e8854a7cd6E>
   1a176:	39894503          	lbu	a0,920(s2)
   1a17a:	220512e3          	bnez	a0,1ab9e <_start+0x3c06>
   1a17e:	39a94503          	lbu	a0,922(s2)
   1a182:	39994583          	lbu	a1,921(s2)
   1a186:	39b94603          	lbu	a2,923(s2)
   1a18a:	39c92403          	lw	s0,924(s2)
   1a18e:	0522                	slli	a0,a0,0x8
   1a190:	8d4d                	or	a0,a0,a1
   1a192:	02a91823          	sh	a0,48(s2)
   1a196:	02c90923          	sb	a2,50(s2)
   1a19a:	6505                	lui	a0,0x1
   1a19c:	35450513          	addi	a0,a0,852 # 1354 <.Lline_table_start1+0x1129>
   1a1a0:	00a105b3          	add	a1,sp,a0
   1a1a4:	6505                	lui	a0,0x1
   1a1a6:	2f050513          	addi	a0,a0,752 # 12f0 <.Lline_table_start1+0x10c5>
   1a1aa:	950a                	add	a0,a0,sp
   1a1ac:	03800613          	li	a2,56
   1a1b0:	00001097          	auipc	ra,0x1
   1a1b4:	a66080e7          	jalr	-1434(ra) # 1ac16 <memcpy>
   1a1b8:	01845513          	srli	a0,s0,0x18
   1a1bc:	01045593          	srli	a1,s0,0x10
   1a1c0:	00845613          	srli	a2,s0,0x8
   1a1c4:	028909a3          	sb	s0,51(s2)
   1a1c8:	02c90a23          	sb	a2,52(s2)
   1a1cc:	02b90aa3          	sb	a1,53(s2)
   1a1d0:	02a90b23          	sb	a0,54(s2)
   1a1d4:	7ff10513          	addi	a0,sp,2047
   1a1d8:	7ec50513          	addi	a0,a0,2028
   1a1dc:	6585                	lui	a1,0x1
   1a1de:	2f058593          	addi	a1,a1,752 # 12f0 <.Lline_table_start1+0x10c5>
   1a1e2:	958a                	add	a1,a1,sp
   1a1e4:	03800613          	li	a2,56
   1a1e8:	00001097          	auipc	ra,0x1
   1a1ec:	a2e080e7          	jalr	-1490(ra) # 1ac16 <memcpy>
   1a1f0:	6505                	lui	a0,0x1
   1a1f2:	34c50513          	addi	a0,a0,844 # 134c <.Lline_table_start1+0x1121>
   1a1f6:	950a                	add	a0,a0,sp
   1a1f8:	7ff10593          	addi	a1,sp,2047
   1a1fc:	7e558593          	addi	a1,a1,2021
   1a200:	ffffa097          	auipc	ra,0xffffa
   1a204:	392080e7          	jalr	914(ra) # 14592 <_ZN18complex_no_dynamic3app17h82829cda7168cd5dE>
   1a208:	39894503          	lbu	a0,920(s2)
   1a20c:	180519e3          	bnez	a0,1ab9e <_start+0x3c06>
   1a210:	39994503          	lbu	a0,921(s2)
   1a214:	39a94583          	lbu	a1,922(s2)
   1a218:	39b94603          	lbu	a2,923(s2)
   1a21c:	39c92683          	lw	a3,924(s2)
   1a220:	3a092703          	lw	a4,928(s2)
   1a224:	3a492783          	lw	a5,932(s2)
   1a228:	3a891483          	lh	s1,936(s2)
   1a22c:	05a2                	slli	a1,a1,0x8
   1a22e:	32e92e23          	sw	a4,828(s2)
   1a232:	34f92023          	sw	a5,832(s2)
   1a236:	34991223          	sh	s1,836(s2)
   1a23a:	0186d713          	srli	a4,a3,0x18
   1a23e:	8d4d                	or	a0,a0,a1
   1a240:	0106d593          	srli	a1,a3,0x10
   1a244:	06b90aa3          	sb	a1,117(s2)
   1a248:	06e90b23          	sb	a4,118(s2)
   1a24c:	0086d593          	srli	a1,a3,0x8
   1a250:	06a91823          	sh	a0,112(s2)
   1a254:	06c90923          	sb	a2,114(s2)
   1a258:	06d909a3          	sb	a3,115(s2)
   1a25c:	06b90a23          	sb	a1,116(s2)
   1a260:	6505                	lui	a0,0x1
   1a262:	02b50513          	addi	a0,a0,43 # 102b <.Lline_table_start1+0xe00>
   1a266:	950a                	add	a0,a0,sp
   1a268:	6585                	lui	a1,0x1
   1a26a:	2f058593          	addi	a1,a1,752 # 12f0 <.Lline_table_start1+0x10c5>
   1a26e:	958a                	add	a1,a1,sp
   1a270:	4629                	li	a2,10
   1a272:	00001097          	auipc	ra,0x1
   1a276:	9a4080e7          	jalr	-1628(ra) # 1ac16 <memcpy>
   1a27a:	6505                	lui	a0,0x1
   1a27c:	34c50513          	addi	a0,a0,844 # 134c <.Lline_table_start1+0x1121>
   1a280:	950a                	add	a0,a0,sp
   1a282:	6585                	lui	a1,0x1
   1a284:	02458593          	addi	a1,a1,36 # 1024 <.Lline_table_start1+0xdf9>
   1a288:	958a                	add	a1,a1,sp
   1a28a:	ffffa097          	auipc	ra,0xffffa
   1a28e:	e10080e7          	jalr	-496(ra) # 1409a <_ZN18complex_no_dynamic3app17h6a8621888b72d2efE>
   1a292:	39894503          	lbu	a0,920(s2)
   1a296:	100514e3          	bnez	a0,1ab9e <_start+0x3c06>
   1a29a:	39a94503          	lbu	a0,922(s2)
   1a29e:	39994583          	lbu	a1,921(s2)
   1a2a2:	39b94603          	lbu	a2,923(s2)
   1a2a6:	39c92403          	lw	s0,924(s2)
   1a2aa:	0522                	slli	a0,a0,0x8
   1a2ac:	8d4d                	or	a0,a0,a1
   1a2ae:	08a91123          	sh	a0,130(s2)
   1a2b2:	08c90223          	sb	a2,132(s2)
   1a2b6:	6505                	lui	a0,0x1
   1a2b8:	35450513          	addi	a0,a0,852 # 1354 <.Lline_table_start1+0x1129>
   1a2bc:	00a105b3          	add	a1,sp,a0
   1a2c0:	6505                	lui	a0,0x1
   1a2c2:	2f050513          	addi	a0,a0,752 # 12f0 <.Lline_table_start1+0x10c5>
   1a2c6:	950a                	add	a0,a0,sp
   1a2c8:	03800613          	li	a2,56
   1a2cc:	00001097          	auipc	ra,0x1
   1a2d0:	94a080e7          	jalr	-1718(ra) # 1ac16 <memcpy>
   1a2d4:	01845513          	srli	a0,s0,0x18
   1a2d8:	01045593          	srli	a1,s0,0x10
   1a2dc:	00845613          	srli	a2,s0,0x8
   1a2e0:	088902a3          	sb	s0,133(s2)
   1a2e4:	08c90323          	sb	a2,134(s2)
   1a2e8:	08b903a3          	sb	a1,135(s2)
   1a2ec:	08a90423          	sb	a0,136(s2)
   1a2f0:	6505                	lui	a0,0x1
   1a2f2:	03d50513          	addi	a0,a0,61 # 103d <.Lline_table_start1+0xe12>
   1a2f6:	950a                	add	a0,a0,sp
   1a2f8:	6585                	lui	a1,0x1
   1a2fa:	2f058593          	addi	a1,a1,752 # 12f0 <.Lline_table_start1+0x10c5>
   1a2fe:	958a                	add	a1,a1,sp
   1a300:	03800613          	li	a2,56
   1a304:	00001097          	auipc	ra,0x1
   1a308:	912080e7          	jalr	-1774(ra) # 1ac16 <memcpy>
   1a30c:	6505                	lui	a0,0x1
   1a30e:	34c50513          	addi	a0,a0,844 # 134c <.Lline_table_start1+0x1121>
   1a312:	950a                	add	a0,a0,sp
   1a314:	6585                	lui	a1,0x1
   1a316:	03658593          	addi	a1,a1,54 # 1036 <.Lline_table_start1+0xe0b>
   1a31a:	958a                	add	a1,a1,sp
   1a31c:	ffff9097          	auipc	ra,0xffff9
   1a320:	338080e7          	jalr	824(ra) # 13654 <_ZN18complex_no_dynamic3app17h518994ad3477260dE>
   1a324:	39894503          	lbu	a0,920(s2)
   1a328:	06051be3          	bnez	a0,1ab9e <_start+0x3c06>
   1a32c:	39a94503          	lbu	a0,922(s2)
   1a330:	39994583          	lbu	a1,921(s2)
   1a334:	39b94603          	lbu	a2,923(s2)
   1a338:	39c92403          	lw	s0,924(s2)
   1a33c:	0522                	slli	a0,a0,0x8
   1a33e:	8d4d                	or	a0,a0,a1
   1a340:	0ca91123          	sh	a0,194(s2)
   1a344:	0cc90223          	sb	a2,196(s2)
   1a348:	6505                	lui	a0,0x1
   1a34a:	35450513          	addi	a0,a0,852 # 1354 <.Lline_table_start1+0x1129>
   1a34e:	00a105b3          	add	a1,sp,a0
   1a352:	6505                	lui	a0,0x1
   1a354:	2f050513          	addi	a0,a0,752 # 12f0 <.Lline_table_start1+0x10c5>
   1a358:	950a                	add	a0,a0,sp
   1a35a:	4655                	li	a2,21
   1a35c:	00001097          	auipc	ra,0x1
   1a360:	8ba080e7          	jalr	-1862(ra) # 1ac16 <memcpy>
   1a364:	01845513          	srli	a0,s0,0x18
   1a368:	01045593          	srli	a1,s0,0x10
   1a36c:	00845613          	srli	a2,s0,0x8
   1a370:	0c8902a3          	sb	s0,197(s2)
   1a374:	0cc90323          	sb	a2,198(s2)
   1a378:	0cb903a3          	sb	a1,199(s2)
   1a37c:	0ca90423          	sb	a0,200(s2)
   1a380:	6505                	lui	a0,0x1
   1a382:	07d50513          	addi	a0,a0,125 # 107d <.Lline_table_start1+0xe52>
   1a386:	950a                	add	a0,a0,sp
   1a388:	6585                	lui	a1,0x1
   1a38a:	2f058593          	addi	a1,a1,752 # 12f0 <.Lline_table_start1+0x10c5>
   1a38e:	958a                	add	a1,a1,sp
   1a390:	4655                	li	a2,21
   1a392:	00001097          	auipc	ra,0x1
   1a396:	884080e7          	jalr	-1916(ra) # 1ac16 <memcpy>
   1a39a:	6505                	lui	a0,0x1
   1a39c:	34c50513          	addi	a0,a0,844 # 134c <.Lline_table_start1+0x1121>
   1a3a0:	950a                	add	a0,a0,sp
   1a3a2:	6585                	lui	a1,0x1
   1a3a4:	07658593          	addi	a1,a1,118 # 1076 <.Lline_table_start1+0xe4b>
   1a3a8:	958a                	add	a1,a1,sp
   1a3aa:	ffff7097          	auipc	ra,0xffff7
   1a3ae:	080080e7          	jalr	128(ra) # 1142a <_ZN18complex_no_dynamic3app17h0393dca313eb15a2E>
   1a3b2:	39894503          	lbu	a0,920(s2)
   1a3b6:	7e051463          	bnez	a0,1ab9e <_start+0x3c06>
   1a3ba:	39a94503          	lbu	a0,922(s2)
   1a3be:	39994583          	lbu	a1,921(s2)
   1a3c2:	39b94603          	lbu	a2,923(s2)
   1a3c6:	39c92403          	lw	s0,924(s2)
   1a3ca:	0522                	slli	a0,a0,0x8
   1a3cc:	8d4d                	or	a0,a0,a1
   1a3ce:	0ca91f23          	sh	a0,222(s2)
   1a3d2:	0ec90023          	sb	a2,224(s2)
   1a3d6:	6505                	lui	a0,0x1
   1a3d8:	35450513          	addi	a0,a0,852 # 1354 <.Lline_table_start1+0x1129>
   1a3dc:	00a105b3          	add	a1,sp,a0
   1a3e0:	6505                	lui	a0,0x1
   1a3e2:	2f050513          	addi	a0,a0,752 # 12f0 <.Lline_table_start1+0x10c5>
   1a3e6:	950a                	add	a0,a0,sp
   1a3e8:	05600613          	li	a2,86
   1a3ec:	00001097          	auipc	ra,0x1
   1a3f0:	82a080e7          	jalr	-2006(ra) # 1ac16 <memcpy>
   1a3f4:	01845513          	srli	a0,s0,0x18
   1a3f8:	01045593          	srli	a1,s0,0x10
   1a3fc:	00845613          	srli	a2,s0,0x8
   1a400:	0e8900a3          	sb	s0,225(s2)
   1a404:	0ec90123          	sb	a2,226(s2)
   1a408:	0eb901a3          	sb	a1,227(s2)
   1a40c:	0ea90223          	sb	a0,228(s2)
   1a410:	6505                	lui	a0,0x1
   1a412:	09950513          	addi	a0,a0,153 # 1099 <.Lline_table_start1+0xe6e>
   1a416:	950a                	add	a0,a0,sp
   1a418:	6585                	lui	a1,0x1
   1a41a:	2f058593          	addi	a1,a1,752 # 12f0 <.Lline_table_start1+0x10c5>
   1a41e:	958a                	add	a1,a1,sp
   1a420:	05600613          	li	a2,86
   1a424:	00000097          	auipc	ra,0x0
   1a428:	7f2080e7          	jalr	2034(ra) # 1ac16 <memcpy>
   1a42c:	6505                	lui	a0,0x1
   1a42e:	34c50513          	addi	a0,a0,844 # 134c <.Lline_table_start1+0x1121>
   1a432:	950a                	add	a0,a0,sp
   1a434:	6585                	lui	a1,0x1
   1a436:	09258593          	addi	a1,a1,146 # 1092 <.Lline_table_start1+0xe67>
   1a43a:	958a                	add	a1,a1,sp
   1a43c:	ffff8097          	auipc	ra,0xffff8
   1a440:	328080e7          	jalr	808(ra) # 12764 <_ZN18complex_no_dynamic3app17h2fe32d82654cec80E>
   1a444:	39894503          	lbu	a0,920(s2)
   1a448:	74051b63          	bnez	a0,1ab9e <_start+0x3c06>
   1a44c:	39994503          	lbu	a0,921(s2)
   1a450:	39a94583          	lbu	a1,922(s2)
   1a454:	39b94603          	lbu	a2,923(s2)
   1a458:	39c92683          	lw	a3,924(s2)
   1a45c:	3a092703          	lw	a4,928(s2)
   1a460:	3a492783          	lw	a5,932(s2)
   1a464:	3a891483          	lh	s1,936(s2)
   1a468:	3aa94403          	lbu	s0,938(s2)
   1a46c:	05a2                	slli	a1,a1,0x8
   1a46e:	32e92e23          	sw	a4,828(s2)
   1a472:	34f92023          	sw	a5,832(s2)
   1a476:	34991223          	sh	s1,836(s2)
   1a47a:	34890323          	sb	s0,838(s2)
   1a47e:	0186d713          	srli	a4,a3,0x18
   1a482:	8d4d                	or	a0,a0,a1
   1a484:	0106d593          	srli	a1,a3,0x10
   1a488:	14b900a3          	sb	a1,321(s2)
   1a48c:	14e90123          	sb	a4,322(s2)
   1a490:	0086d593          	srli	a1,a3,0x8
   1a494:	12a91e23          	sh	a0,316(s2)
   1a498:	12c90f23          	sb	a2,318(s2)
   1a49c:	12d90fa3          	sb	a3,319(s2)
   1a4a0:	14b90023          	sb	a1,320(s2)
   1a4a4:	6505                	lui	a0,0x1
   1a4a6:	0f750513          	addi	a0,a0,247 # 10f7 <.Lline_table_start1+0xecc>
   1a4aa:	950a                	add	a0,a0,sp
   1a4ac:	6585                	lui	a1,0x1
   1a4ae:	2f058593          	addi	a1,a1,752 # 12f0 <.Lline_table_start1+0x10c5>
   1a4b2:	958a                	add	a1,a1,sp
   1a4b4:	462d                	li	a2,11
   1a4b6:	00000097          	auipc	ra,0x0
   1a4ba:	760080e7          	jalr	1888(ra) # 1ac16 <memcpy>
   1a4be:	6505                	lui	a0,0x1
   1a4c0:	34c50513          	addi	a0,a0,844 # 134c <.Lline_table_start1+0x1121>
   1a4c4:	950a                	add	a0,a0,sp
   1a4c6:	6585                	lui	a1,0x1
   1a4c8:	0f058593          	addi	a1,a1,240 # 10f0 <.Lline_table_start1+0xec5>
   1a4cc:	958a                	add	a1,a1,sp
   1a4ce:	ffffc097          	auipc	ra,0xffffc
   1a4d2:	c78080e7          	jalr	-904(ra) # 16146 <_ZN18complex_no_dynamic3app17hd10f17feb7c09fa4E>
   1a4d6:	39894503          	lbu	a0,920(s2)
   1a4da:	6c051263          	bnez	a0,1ab9e <_start+0x3c06>
   1a4de:	39a94503          	lbu	a0,922(s2)
   1a4e2:	39994583          	lbu	a1,921(s2)
   1a4e6:	39b94603          	lbu	a2,923(s2)
   1a4ea:	39c92403          	lw	s0,924(s2)
   1a4ee:	0522                	slli	a0,a0,0x8
   1a4f0:	8d4d                	or	a0,a0,a1
   1a4f2:	14a91723          	sh	a0,334(s2)
   1a4f6:	14c90823          	sb	a2,336(s2)
   1a4fa:	6505                	lui	a0,0x1
   1a4fc:	35450513          	addi	a0,a0,852 # 1354 <.Lline_table_start1+0x1129>
   1a500:	00a105b3          	add	a1,sp,a0
   1a504:	6505                	lui	a0,0x1
   1a506:	2f050513          	addi	a0,a0,752 # 12f0 <.Lline_table_start1+0x10c5>
   1a50a:	950a                	add	a0,a0,sp
   1a50c:	03d00613          	li	a2,61
   1a510:	00000097          	auipc	ra,0x0
   1a514:	706080e7          	jalr	1798(ra) # 1ac16 <memcpy>
   1a518:	01845513          	srli	a0,s0,0x18
   1a51c:	01045593          	srli	a1,s0,0x10
   1a520:	00845613          	srli	a2,s0,0x8
   1a524:	148908a3          	sb	s0,337(s2)
   1a528:	14c90923          	sb	a2,338(s2)
   1a52c:	14b909a3          	sb	a1,339(s2)
   1a530:	14a90a23          	sb	a0,340(s2)
   1a534:	6505                	lui	a0,0x1
   1a536:	10950513          	addi	a0,a0,265 # 1109 <.Lline_table_start1+0xede>
   1a53a:	950a                	add	a0,a0,sp
   1a53c:	6585                	lui	a1,0x1
   1a53e:	2f058593          	addi	a1,a1,752 # 12f0 <.Lline_table_start1+0x10c5>
   1a542:	958a                	add	a1,a1,sp
   1a544:	03d00613          	li	a2,61
   1a548:	00000097          	auipc	ra,0x0
   1a54c:	6ce080e7          	jalr	1742(ra) # 1ac16 <memcpy>
   1a550:	6505                	lui	a0,0x1
   1a552:	34c50513          	addi	a0,a0,844 # 134c <.Lline_table_start1+0x1121>
   1a556:	950a                	add	a0,a0,sp
   1a558:	6585                	lui	a1,0x1
   1a55a:	10258593          	addi	a1,a1,258 # 1102 <.Lline_table_start1+0xed7>
   1a55e:	958a                	add	a1,a1,sp
   1a560:	ffffa097          	auipc	ra,0xffffa
   1a564:	608080e7          	jalr	1544(ra) # 14b68 <_ZN18complex_no_dynamic3app17h90e58e6ab91efd53E>
   1a568:	39894503          	lbu	a0,920(s2)
   1a56c:	62051963          	bnez	a0,1ab9e <_start+0x3c06>
   1a570:	39a94503          	lbu	a0,922(s2)
   1a574:	39994583          	lbu	a1,921(s2)
   1a578:	39b94603          	lbu	a2,923(s2)
   1a57c:	39c92403          	lw	s0,924(s2)
   1a580:	0522                	slli	a0,a0,0x8
   1a582:	8d4d                	or	a0,a0,a1
   1a584:	18a91923          	sh	a0,402(s2)
   1a588:	18c90a23          	sb	a2,404(s2)
   1a58c:	6505                	lui	a0,0x1
   1a58e:	35450513          	addi	a0,a0,852 # 1354 <.Lline_table_start1+0x1129>
   1a592:	00a105b3          	add	a1,sp,a0
   1a596:	6505                	lui	a0,0x1
   1a598:	2f050513          	addi	a0,a0,752 # 12f0 <.Lline_table_start1+0x10c5>
   1a59c:	950a                	add	a0,a0,sp
   1a59e:	4671                	li	a2,28
   1a5a0:	00000097          	auipc	ra,0x0
   1a5a4:	676080e7          	jalr	1654(ra) # 1ac16 <memcpy>
   1a5a8:	01845513          	srli	a0,s0,0x18
   1a5ac:	01045593          	srli	a1,s0,0x10
   1a5b0:	00845613          	srli	a2,s0,0x8
   1a5b4:	18890aa3          	sb	s0,405(s2)
   1a5b8:	18c90b23          	sb	a2,406(s2)
   1a5bc:	18b90ba3          	sb	a1,407(s2)
   1a5c0:	18a90c23          	sb	a0,408(s2)
   1a5c4:	6505                	lui	a0,0x1
   1a5c6:	14d50513          	addi	a0,a0,333 # 114d <.Lline_table_start1+0xf22>
   1a5ca:	950a                	add	a0,a0,sp
   1a5cc:	6585                	lui	a1,0x1
   1a5ce:	2f058593          	addi	a1,a1,752 # 12f0 <.Lline_table_start1+0x10c5>
   1a5d2:	958a                	add	a1,a1,sp
   1a5d4:	4671                	li	a2,28
   1a5d6:	00000097          	auipc	ra,0x0
   1a5da:	640080e7          	jalr	1600(ra) # 1ac16 <memcpy>
   1a5de:	6505                	lui	a0,0x1
   1a5e0:	34c50513          	addi	a0,a0,844 # 134c <.Lline_table_start1+0x1121>
   1a5e4:	950a                	add	a0,a0,sp
   1a5e6:	6585                	lui	a1,0x1
   1a5e8:	14658593          	addi	a1,a1,326 # 1146 <.Lline_table_start1+0xf1b>
   1a5ec:	958a                	add	a1,a1,sp
   1a5ee:	ffff8097          	auipc	ra,0xffff8
   1a5f2:	46e080e7          	jalr	1134(ra) # 12a5c <_ZN18complex_no_dynamic3app17h39dddbde9172ac9bE>
   1a5f6:	39894503          	lbu	a0,920(s2)
   1a5fa:	5a051263          	bnez	a0,1ab9e <_start+0x3c06>
   1a5fe:	39a94503          	lbu	a0,922(s2)
   1a602:	39994583          	lbu	a1,921(s2)
   1a606:	39b94603          	lbu	a2,923(s2)
   1a60a:	39c92403          	lw	s0,924(s2)
   1a60e:	0522                	slli	a0,a0,0x8
   1a610:	8d4d                	or	a0,a0,a1
   1a612:	1aa91b23          	sh	a0,438(s2)
   1a616:	1ac90c23          	sb	a2,440(s2)
   1a61a:	6505                	lui	a0,0x1
   1a61c:	35450513          	addi	a0,a0,852 # 1354 <.Lline_table_start1+0x1129>
   1a620:	00a105b3          	add	a1,sp,a0
   1a624:	6505                	lui	a0,0x1
   1a626:	2f050513          	addi	a0,a0,752 # 12f0 <.Lline_table_start1+0x10c5>
   1a62a:	950a                	add	a0,a0,sp
   1a62c:	4675                	li	a2,29
   1a62e:	00000097          	auipc	ra,0x0
   1a632:	5e8080e7          	jalr	1512(ra) # 1ac16 <memcpy>
   1a636:	01845513          	srli	a0,s0,0x18
   1a63a:	01045593          	srli	a1,s0,0x10
   1a63e:	00845613          	srli	a2,s0,0x8
   1a642:	1a890ca3          	sb	s0,441(s2)
   1a646:	1ac90d23          	sb	a2,442(s2)
   1a64a:	1ab90da3          	sb	a1,443(s2)
   1a64e:	1aa90e23          	sb	a0,444(s2)
   1a652:	6505                	lui	a0,0x1
   1a654:	17150513          	addi	a0,a0,369 # 1171 <.Lline_table_start1+0xf46>
   1a658:	950a                	add	a0,a0,sp
   1a65a:	6585                	lui	a1,0x1
   1a65c:	2f058593          	addi	a1,a1,752 # 12f0 <.Lline_table_start1+0x10c5>
   1a660:	958a                	add	a1,a1,sp
   1a662:	4675                	li	a2,29
   1a664:	00000097          	auipc	ra,0x0
   1a668:	5b2080e7          	jalr	1458(ra) # 1ac16 <memcpy>
   1a66c:	6505                	lui	a0,0x1
   1a66e:	34c50513          	addi	a0,a0,844 # 134c <.Lline_table_start1+0x1121>
   1a672:	950a                	add	a0,a0,sp
   1a674:	6585                	lui	a1,0x1
   1a676:	16a58593          	addi	a1,a1,362 # 116a <.Lline_table_start1+0xf3f>
   1a67a:	958a                	add	a1,a1,sp
   1a67c:	ffff7097          	auipc	ra,0xffff7
   1a680:	1a2080e7          	jalr	418(ra) # 1181e <_ZN18complex_no_dynamic3app17h0db037d35b96210bE>
   1a684:	39894503          	lbu	a0,920(s2)
   1a688:	50051b63          	bnez	a0,1ab9e <_start+0x3c06>
   1a68c:	39a94503          	lbu	a0,922(s2)
   1a690:	39994583          	lbu	a1,921(s2)
   1a694:	39b94603          	lbu	a2,923(s2)
   1a698:	39c92403          	lw	s0,924(s2)
   1a69c:	0522                	slli	a0,a0,0x8
   1a69e:	8d4d                	or	a0,a0,a1
   1a6a0:	1ca91d23          	sh	a0,474(s2)
   1a6a4:	1cc90e23          	sb	a2,476(s2)
   1a6a8:	6505                	lui	a0,0x1
   1a6aa:	35450513          	addi	a0,a0,852 # 1354 <.Lline_table_start1+0x1129>
   1a6ae:	00a105b3          	add	a1,sp,a0
   1a6b2:	6505                	lui	a0,0x1
   1a6b4:	2f050513          	addi	a0,a0,752 # 12f0 <.Lline_table_start1+0x10c5>
   1a6b8:	950a                	add	a0,a0,sp
   1a6ba:	02800613          	li	a2,40
   1a6be:	00000097          	auipc	ra,0x0
   1a6c2:	558080e7          	jalr	1368(ra) # 1ac16 <memcpy>
   1a6c6:	01845513          	srli	a0,s0,0x18
   1a6ca:	01045593          	srli	a1,s0,0x10
   1a6ce:	00845613          	srli	a2,s0,0x8
   1a6d2:	1c890ea3          	sb	s0,477(s2)
   1a6d6:	1cc90f23          	sb	a2,478(s2)
   1a6da:	1cb90fa3          	sb	a1,479(s2)
   1a6de:	1ea90023          	sb	a0,480(s2)
   1a6e2:	6505                	lui	a0,0x1
   1a6e4:	19550513          	addi	a0,a0,405 # 1195 <.Lline_table_start1+0xf6a>
   1a6e8:	950a                	add	a0,a0,sp
   1a6ea:	6585                	lui	a1,0x1
   1a6ec:	2f058593          	addi	a1,a1,752 # 12f0 <.Lline_table_start1+0x10c5>
   1a6f0:	958a                	add	a1,a1,sp
   1a6f2:	02800613          	li	a2,40
   1a6f6:	00000097          	auipc	ra,0x0
   1a6fa:	520080e7          	jalr	1312(ra) # 1ac16 <memcpy>
   1a6fe:	6505                	lui	a0,0x1
   1a700:	34c50513          	addi	a0,a0,844 # 134c <.Lline_table_start1+0x1121>
   1a704:	950a                	add	a0,a0,sp
   1a706:	6585                	lui	a1,0x1
   1a708:	18e58593          	addi	a1,a1,398 # 118e <.Lline_table_start1+0xf63>
   1a70c:	958a                	add	a1,a1,sp
   1a70e:	ffffb097          	auipc	ra,0xffffb
   1a712:	344080e7          	jalr	836(ra) # 15a52 <_ZN18complex_no_dynamic3app17hbb449ff7dc003dabE>
   1a716:	39894503          	lbu	a0,920(s2)
   1a71a:	48051263          	bnez	a0,1ab9e <_start+0x3c06>
   1a71e:	39a94503          	lbu	a0,922(s2)
   1a722:	39994583          	lbu	a1,921(s2)
   1a726:	39b94603          	lbu	a2,923(s2)
   1a72a:	39c92403          	lw	s0,924(s2)
   1a72e:	0522                	slli	a0,a0,0x8
   1a730:	8d4d                	or	a0,a0,a1
   1a732:	20a91523          	sh	a0,522(s2)
   1a736:	20c90623          	sb	a2,524(s2)
   1a73a:	6505                	lui	a0,0x1
   1a73c:	35450513          	addi	a0,a0,852 # 1354 <.Lline_table_start1+0x1129>
   1a740:	00a105b3          	add	a1,sp,a0
   1a744:	6505                	lui	a0,0x1
   1a746:	2f050513          	addi	a0,a0,752 # 12f0 <.Lline_table_start1+0x10c5>
   1a74a:	950a                	add	a0,a0,sp
   1a74c:	05700613          	li	a2,87
   1a750:	00000097          	auipc	ra,0x0
   1a754:	4c6080e7          	jalr	1222(ra) # 1ac16 <memcpy>
   1a758:	01845513          	srli	a0,s0,0x18
   1a75c:	01045593          	srli	a1,s0,0x10
   1a760:	00845613          	srli	a2,s0,0x8
   1a764:	208906a3          	sb	s0,525(s2)
   1a768:	20c90723          	sb	a2,526(s2)
   1a76c:	20b907a3          	sb	a1,527(s2)
   1a770:	20a90823          	sb	a0,528(s2)
   1a774:	6505                	lui	a0,0x1
   1a776:	1c550513          	addi	a0,a0,453 # 11c5 <.Lline_table_start1+0xf9a>
   1a77a:	950a                	add	a0,a0,sp
   1a77c:	6585                	lui	a1,0x1
   1a77e:	2f058593          	addi	a1,a1,752 # 12f0 <.Lline_table_start1+0x10c5>
   1a782:	958a                	add	a1,a1,sp
   1a784:	05700613          	li	a2,87
   1a788:	00000097          	auipc	ra,0x0
   1a78c:	48e080e7          	jalr	1166(ra) # 1ac16 <memcpy>
   1a790:	6505                	lui	a0,0x1
   1a792:	34c50513          	addi	a0,a0,844 # 134c <.Lline_table_start1+0x1121>
   1a796:	950a                	add	a0,a0,sp
   1a798:	6585                	lui	a1,0x1
   1a79a:	1be58593          	addi	a1,a1,446 # 11be <.Lline_table_start1+0xf93>
   1a79e:	958a                	add	a1,a1,sp
   1a7a0:	ffff9097          	auipc	ra,0xffff9
   1a7a4:	9b2080e7          	jalr	-1614(ra) # 13152 <_ZN18complex_no_dynamic3app17h44c8d1e134bced00E>
   1a7a8:	39894503          	lbu	a0,920(s2)
   1a7ac:	3e051963          	bnez	a0,1ab9e <_start+0x3c06>
   1a7b0:	39a94503          	lbu	a0,922(s2)
   1a7b4:	39994583          	lbu	a1,921(s2)
   1a7b8:	39b94603          	lbu	a2,923(s2)
   1a7bc:	39c92403          	lw	s0,924(s2)
   1a7c0:	0522                	slli	a0,a0,0x8
   1a7c2:	8d4d                	or	a0,a0,a1
   1a7c4:	26a91423          	sh	a0,616(s2)
   1a7c8:	26c90523          	sb	a2,618(s2)
   1a7cc:	6505                	lui	a0,0x1
   1a7ce:	35450513          	addi	a0,a0,852 # 1354 <.Lline_table_start1+0x1129>
   1a7d2:	00a105b3          	add	a1,sp,a0
   1a7d6:	6505                	lui	a0,0x1
   1a7d8:	2f050513          	addi	a0,a0,752 # 12f0 <.Lline_table_start1+0x10c5>
   1a7dc:	950a                	add	a0,a0,sp
   1a7de:	04e00613          	li	a2,78
   1a7e2:	00000097          	auipc	ra,0x0
   1a7e6:	434080e7          	jalr	1076(ra) # 1ac16 <memcpy>
   1a7ea:	01845513          	srli	a0,s0,0x18
   1a7ee:	01045593          	srli	a1,s0,0x10
   1a7f2:	00845613          	srli	a2,s0,0x8
   1a7f6:	268905a3          	sb	s0,619(s2)
   1a7fa:	26c90623          	sb	a2,620(s2)
   1a7fe:	26b906a3          	sb	a1,621(s2)
   1a802:	26a90723          	sb	a0,622(s2)
   1a806:	6505                	lui	a0,0x1
   1a808:	22350513          	addi	a0,a0,547 # 1223 <.Lline_table_start1+0xff8>
   1a80c:	950a                	add	a0,a0,sp
   1a80e:	6585                	lui	a1,0x1
   1a810:	2f058593          	addi	a1,a1,752 # 12f0 <.Lline_table_start1+0x10c5>
   1a814:	958a                	add	a1,a1,sp
   1a816:	04e00613          	li	a2,78
   1a81a:	00000097          	auipc	ra,0x0
   1a81e:	3fc080e7          	jalr	1020(ra) # 1ac16 <memcpy>
   1a822:	6505                	lui	a0,0x1
   1a824:	34c50513          	addi	a0,a0,844 # 134c <.Lline_table_start1+0x1121>
   1a828:	950a                	add	a0,a0,sp
   1a82a:	6585                	lui	a1,0x1
   1a82c:	21c58593          	addi	a1,a1,540 # 121c <.Lline_table_start1+0xff1>
   1a830:	958a                	add	a1,a1,sp
   1a832:	ffff9097          	auipc	ra,0xffff9
   1a836:	a24080e7          	jalr	-1500(ra) # 13256 <_ZN18complex_no_dynamic3app17h4689e1f21df2556fE>
   1a83a:	39894503          	lbu	a0,920(s2)
   1a83e:	36051063          	bnez	a0,1ab9e <_start+0x3c06>
   1a842:	39994503          	lbu	a0,921(s2)
   1a846:	39a94583          	lbu	a1,922(s2)
   1a84a:	39b94603          	lbu	a2,923(s2)
   1a84e:	39c92683          	lw	a3,924(s2)
   1a852:	3a092703          	lw	a4,928(s2)
   1a856:	3a492783          	lw	a5,932(s2)
   1a85a:	3a891483          	lh	s1,936(s2)
   1a85e:	05a2                	slli	a1,a1,0x8
   1a860:	32e92e23          	sw	a4,828(s2)
   1a864:	34f92023          	sw	a5,832(s2)
   1a868:	34991223          	sh	s1,836(s2)
   1a86c:	0186d713          	srli	a4,a3,0x18
   1a870:	8d4d                	or	a0,a0,a1
   1a872:	0106d593          	srli	a1,a3,0x10
   1a876:	2cb901a3          	sb	a1,707(s2)
   1a87a:	2ce90223          	sb	a4,708(s2)
   1a87e:	0086d593          	srli	a1,a3,0x8
   1a882:	2aa91f23          	sh	a0,702(s2)
   1a886:	2cc90023          	sb	a2,704(s2)
   1a88a:	2cd900a3          	sb	a3,705(s2)
   1a88e:	2cb90123          	sb	a1,706(s2)
   1a892:	6505                	lui	a0,0x1
   1a894:	27950513          	addi	a0,a0,633 # 1279 <.Lline_table_start1+0x104e>
   1a898:	950a                	add	a0,a0,sp
   1a89a:	6585                	lui	a1,0x1
   1a89c:	2f058593          	addi	a1,a1,752 # 12f0 <.Lline_table_start1+0x10c5>
   1a8a0:	958a                	add	a1,a1,sp
   1a8a2:	4629                	li	a2,10
   1a8a4:	00000097          	auipc	ra,0x0
   1a8a8:	372080e7          	jalr	882(ra) # 1ac16 <memcpy>
   1a8ac:	6505                	lui	a0,0x1
   1a8ae:	34c50513          	addi	a0,a0,844 # 134c <.Lline_table_start1+0x1121>
   1a8b2:	950a                	add	a0,a0,sp
   1a8b4:	6585                	lui	a1,0x1
   1a8b6:	27258593          	addi	a1,a1,626 # 1272 <.Lline_table_start1+0x1047>
   1a8ba:	958a                	add	a1,a1,sp
   1a8bc:	ffffc097          	auipc	ra,0xffffc
   1a8c0:	ce6080e7          	jalr	-794(ra) # 165a2 <_ZN18complex_no_dynamic3app17hdd94b0165ec8b1b8E>
   1a8c4:	39894503          	lbu	a0,920(s2)
   1a8c8:	2c051b63          	bnez	a0,1ab9e <_start+0x3c06>
   1a8cc:	39a94503          	lbu	a0,922(s2)
   1a8d0:	39994583          	lbu	a1,921(s2)
   1a8d4:	39b94603          	lbu	a2,923(s2)
   1a8d8:	39c92403          	lw	s0,924(s2)
   1a8dc:	0522                	slli	a0,a0,0x8
   1a8de:	8d4d                	or	a0,a0,a1
   1a8e0:	2ca91823          	sh	a0,720(s2)
   1a8e4:	2cc90923          	sb	a2,722(s2)
   1a8e8:	6505                	lui	a0,0x1
   1a8ea:	35450513          	addi	a0,a0,852 # 1354 <.Lline_table_start1+0x1129>
   1a8ee:	00a105b3          	add	a1,sp,a0
   1a8f2:	6505                	lui	a0,0x1
   1a8f4:	2f050513          	addi	a0,a0,752 # 12f0 <.Lline_table_start1+0x10c5>
   1a8f8:	950a                	add	a0,a0,sp
   1a8fa:	04900613          	li	a2,73
   1a8fe:	00000097          	auipc	ra,0x0
   1a902:	318080e7          	jalr	792(ra) # 1ac16 <memcpy>
   1a906:	01845513          	srli	a0,s0,0x18
   1a90a:	01045593          	srli	a1,s0,0x10
   1a90e:	00845613          	srli	a2,s0,0x8
   1a912:	2c8909a3          	sb	s0,723(s2)
   1a916:	2cc90a23          	sb	a2,724(s2)
   1a91a:	2cb90aa3          	sb	a1,725(s2)
   1a91e:	2ca90b23          	sb	a0,726(s2)
   1a922:	6505                	lui	a0,0x1
   1a924:	28b50513          	addi	a0,a0,651 # 128b <.Lline_table_start1+0x1060>
   1a928:	950a                	add	a0,a0,sp
   1a92a:	6585                	lui	a1,0x1
   1a92c:	2f058593          	addi	a1,a1,752 # 12f0 <.Lline_table_start1+0x10c5>
   1a930:	958a                	add	a1,a1,sp
   1a932:	04900613          	li	a2,73
   1a936:	00000097          	auipc	ra,0x0
   1a93a:	2e0080e7          	jalr	736(ra) # 1ac16 <memcpy>
   1a93e:	6505                	lui	a0,0x1
   1a940:	34c50513          	addi	a0,a0,844 # 134c <.Lline_table_start1+0x1121>
   1a944:	950a                	add	a0,a0,sp
   1a946:	6585                	lui	a1,0x1
   1a948:	28458593          	addi	a1,a1,644 # 1284 <.Lline_table_start1+0x1059>
   1a94c:	958a                	add	a1,a1,sp
   1a94e:	ffff7097          	auipc	ra,0xffff7
   1a952:	bdc080e7          	jalr	-1060(ra) # 1152a <_ZN18complex_no_dynamic3app17h03a08d014d64fabdE>
   1a956:	39894503          	lbu	a0,920(s2)
   1a95a:	24051263          	bnez	a0,1ab9e <_start+0x3c06>
   1a95e:	39a94503          	lbu	a0,922(s2)
   1a962:	39994583          	lbu	a1,921(s2)
   1a966:	39b94603          	lbu	a2,923(s2)
   1a96a:	39c92403          	lw	s0,924(s2)
   1a96e:	0522                	slli	a0,a0,0x8
   1a970:	8d4d                	or	a0,a0,a1
   1a972:	32a91023          	sh	a0,800(s2)
   1a976:	32c90123          	sb	a2,802(s2)
   1a97a:	6505                	lui	a0,0x1
   1a97c:	35450513          	addi	a0,a0,852 # 1354 <.Lline_table_start1+0x1129>
   1a980:	00a105b3          	add	a1,sp,a0
   1a984:	6505                	lui	a0,0x1
   1a986:	2f050513          	addi	a0,a0,752 # 12f0 <.Lline_table_start1+0x10c5>
   1a98a:	950a                	add	a0,a0,sp
   1a98c:	4651                	li	a2,20
   1a98e:	00000097          	auipc	ra,0x0
   1a992:	288080e7          	jalr	648(ra) # 1ac16 <memcpy>
   1a996:	01845513          	srli	a0,s0,0x18
   1a99a:	01045593          	srli	a1,s0,0x10
   1a99e:	00845613          	srli	a2,s0,0x8
   1a9a2:	328901a3          	sb	s0,803(s2)
   1a9a6:	32c90223          	sb	a2,804(s2)
   1a9aa:	32b902a3          	sb	a1,805(s2)
   1a9ae:	32a90323          	sb	a0,806(s2)
   1a9b2:	6505                	lui	a0,0x1
   1a9b4:	2db50513          	addi	a0,a0,731 # 12db <.Lline_table_start1+0x10b0>
   1a9b8:	950a                	add	a0,a0,sp
   1a9ba:	6585                	lui	a1,0x1
   1a9bc:	2f058593          	addi	a1,a1,752 # 12f0 <.Lline_table_start1+0x10c5>
   1a9c0:	958a                	add	a1,a1,sp
   1a9c2:	4651                	li	a2,20
   1a9c4:	00000097          	auipc	ra,0x0
   1a9c8:	252080e7          	jalr	594(ra) # 1ac16 <memcpy>
   1a9cc:	6505                	lui	a0,0x1
   1a9ce:	34c50513          	addi	a0,a0,844 # 134c <.Lline_table_start1+0x1121>
   1a9d2:	950a                	add	a0,a0,sp
   1a9d4:	6585                	lui	a1,0x1
   1a9d6:	2d458593          	addi	a1,a1,724 # 12d4 <.Lline_table_start1+0x10a9>
   1a9da:	958a                	add	a1,a1,sp
   1a9dc:	ffff8097          	auipc	ra,0xffff8
   1a9e0:	c88080e7          	jalr	-888(ra) # 12664 <_ZN18complex_no_dynamic3app17h2e62b1b983d58d9eE>
   1a9e4:	39894503          	lbu	a0,920(s2)
   1a9e8:	1a051b63          	bnez	a0,1ab9e <_start+0x3c06>
   1a9ec:	39a94503          	lbu	a0,922(s2)
   1a9f0:	39994583          	lbu	a1,921(s2)
   1a9f4:	39b94603          	lbu	a2,923(s2)
   1a9f8:	39c92403          	lw	s0,924(s2)
   1a9fc:	0522                	slli	a0,a0,0x8
   1a9fe:	8d4d                	or	a0,a0,a1
   1aa00:	3ea91f23          	sh	a0,1022(s2)
   1aa04:	40c90023          	sb	a2,1024(s2)
   1aa08:	6505                	lui	a0,0x1
   1aa0a:	35450513          	addi	a0,a0,852 # 1354 <.Lline_table_start1+0x1129>
   1aa0e:	00a105b3          	add	a1,sp,a0
   1aa12:	6505                	lui	a0,0x1
   1aa14:	2f050513          	addi	a0,a0,752 # 12f0 <.Lline_table_start1+0x10c5>
   1aa18:	950a                	add	a0,a0,sp
   1aa1a:	05c00613          	li	a2,92
   1aa1e:	00000097          	auipc	ra,0x0
   1aa22:	1f8080e7          	jalr	504(ra) # 1ac16 <memcpy>
   1aa26:	01845513          	srli	a0,s0,0x18
   1aa2a:	01045593          	srli	a1,s0,0x10
   1aa2e:	00845613          	srli	a2,s0,0x8
   1aa32:	408900a3          	sb	s0,1025(s2)
   1aa36:	40c90123          	sb	a2,1026(s2)
   1aa3a:	40b901a3          	sb	a1,1027(s2)
   1aa3e:	40a90223          	sb	a0,1028(s2)
   1aa42:	6505                	lui	a0,0x1
   1aa44:	3b950513          	addi	a0,a0,953 # 13b9 <.Lline_table_start1+0x118e>
   1aa48:	950a                	add	a0,a0,sp
   1aa4a:	6585                	lui	a1,0x1
   1aa4c:	2f058593          	addi	a1,a1,752 # 12f0 <.Lline_table_start1+0x10c5>
   1aa50:	958a                	add	a1,a1,sp
   1aa52:	05c00613          	li	a2,92
   1aa56:	00000097          	auipc	ra,0x0
   1aa5a:	1c0080e7          	jalr	448(ra) # 1ac16 <memcpy>
   1aa5e:	6505                	lui	a0,0x1
   1aa60:	34c50513          	addi	a0,a0,844 # 134c <.Lline_table_start1+0x1121>
   1aa64:	950a                	add	a0,a0,sp
   1aa66:	6585                	lui	a1,0x1
   1aa68:	3b258593          	addi	a1,a1,946 # 13b2 <.Lline_table_start1+0x1187>
   1aa6c:	958a                	add	a1,a1,sp
   1aa6e:	ffffa097          	auipc	ra,0xffffa
   1aa72:	d14080e7          	jalr	-748(ra) # 14782 <_ZN18complex_no_dynamic3app17h89efe621b0fa2568E>
   1aa76:	39894503          	lbu	a0,920(s2)
   1aa7a:	12051263          	bnez	a0,1ab9e <_start+0x3c06>
   1aa7e:	39a94503          	lbu	a0,922(s2)
   1aa82:	39994583          	lbu	a1,921(s2)
   1aa86:	39b94603          	lbu	a2,923(s2)
   1aa8a:	39c92403          	lw	s0,924(s2)
   1aa8e:	0522                	slli	a0,a0,0x8
   1aa90:	8d4d                	or	a0,a0,a1
   1aa92:	46a91123          	sh	a0,1122(s2)
   1aa96:	46c90223          	sb	a2,1124(s2)
   1aa9a:	6505                	lui	a0,0x1
   1aa9c:	35450513          	addi	a0,a0,852 # 1354 <.Lline_table_start1+0x1129>
   1aaa0:	00a105b3          	add	a1,sp,a0
   1aaa4:	6505                	lui	a0,0x1
   1aaa6:	2f050513          	addi	a0,a0,752 # 12f0 <.Lline_table_start1+0x10c5>
   1aaaa:	950a                	add	a0,a0,sp
   1aaac:	02500613          	li	a2,37
   1aab0:	00000097          	auipc	ra,0x0
   1aab4:	166080e7          	jalr	358(ra) # 1ac16 <memcpy>
   1aab8:	01845513          	srli	a0,s0,0x18
   1aabc:	01045593          	srli	a1,s0,0x10
   1aac0:	00845613          	srli	a2,s0,0x8
   1aac4:	468902a3          	sb	s0,1125(s2)
   1aac8:	46c90323          	sb	a2,1126(s2)
   1aacc:	46b903a3          	sb	a1,1127(s2)
   1aad0:	46a90423          	sb	a0,1128(s2)
   1aad4:	6505                	lui	a0,0x1
   1aad6:	41d50513          	addi	a0,a0,1053 # 141d <.Lline_table_start1+0x11f2>
   1aada:	950a                	add	a0,a0,sp
   1aadc:	6585                	lui	a1,0x1
   1aade:	2f058593          	addi	a1,a1,752 # 12f0 <.Lline_table_start1+0x10c5>
   1aae2:	958a                	add	a1,a1,sp
   1aae4:	02500613          	li	a2,37
   1aae8:	00000097          	auipc	ra,0x0
   1aaec:	12e080e7          	jalr	302(ra) # 1ac16 <memcpy>
   1aaf0:	6505                	lui	a0,0x1
   1aaf2:	34c50513          	addi	a0,a0,844 # 134c <.Lline_table_start1+0x1121>
   1aaf6:	950a                	add	a0,a0,sp
   1aaf8:	6585                	lui	a1,0x1
   1aafa:	41658593          	addi	a1,a1,1046 # 1416 <.Lline_table_start1+0x11eb>
   1aafe:	958a                	add	a1,a1,sp
   1ab00:	ffffc097          	auipc	ra,0xffffc
   1ab04:	e9c080e7          	jalr	-356(ra) # 1699c <_ZN18complex_no_dynamic3app17hf50523c94e8d54f8E>
   1ab08:	39894503          	lbu	a0,920(s2)
   1ab0c:	e949                	bnez	a0,1ab9e <_start+0x3c06>
   1ab0e:	39a94503          	lbu	a0,922(s2)
   1ab12:	39994583          	lbu	a1,921(s2)
   1ab16:	39b94603          	lbu	a2,923(s2)
   1ab1a:	39c92403          	lw	s0,924(s2)
   1ab1e:	0522                	slli	a0,a0,0x8
   1ab20:	8d4d                	or	a0,a0,a1
   1ab22:	48a91723          	sh	a0,1166(s2)
   1ab26:	48c90823          	sb	a2,1168(s2)
   1ab2a:	6505                	lui	a0,0x1
   1ab2c:	35450513          	addi	a0,a0,852 # 1354 <.Lline_table_start1+0x1129>
   1ab30:	00a105b3          	add	a1,sp,a0
   1ab34:	6505                	lui	a0,0x1
   1ab36:	2f050513          	addi	a0,a0,752 # 12f0 <.Lline_table_start1+0x10c5>
   1ab3a:	950a                	add	a0,a0,sp
   1ab3c:	02300613          	li	a2,35
   1ab40:	00000097          	auipc	ra,0x0
   1ab44:	0d6080e7          	jalr	214(ra) # 1ac16 <memcpy>
   1ab48:	01845513          	srli	a0,s0,0x18
   1ab4c:	01045593          	srli	a1,s0,0x10
   1ab50:	00845613          	srli	a2,s0,0x8
   1ab54:	488908a3          	sb	s0,1169(s2)
   1ab58:	48c90923          	sb	a2,1170(s2)
   1ab5c:	48b909a3          	sb	a1,1171(s2)
   1ab60:	48a90a23          	sb	a0,1172(s2)
   1ab64:	6505                	lui	a0,0x1
   1ab66:	44950513          	addi	a0,a0,1097 # 1449 <.Lline_table_start1+0x121e>
   1ab6a:	950a                	add	a0,a0,sp
   1ab6c:	6585                	lui	a1,0x1
   1ab6e:	2f058593          	addi	a1,a1,752 # 12f0 <.Lline_table_start1+0x10c5>
   1ab72:	958a                	add	a1,a1,sp
   1ab74:	02300613          	li	a2,35
   1ab78:	00000097          	auipc	ra,0x0
   1ab7c:	09e080e7          	jalr	158(ra) # 1ac16 <memcpy>
   1ab80:	6505                	lui	a0,0x1
   1ab82:	34c50513          	addi	a0,a0,844 # 134c <.Lline_table_start1+0x1121>
   1ab86:	950a                	add	a0,a0,sp
   1ab88:	6585                	lui	a1,0x1
   1ab8a:	44258593          	addi	a1,a1,1090 # 1442 <.Lline_table_start1+0x1217>
   1ab8e:	958a                	add	a1,a1,sp
   1ab90:	ffffc097          	auipc	ra,0xffffc
   1ab94:	c0a080e7          	jalr	-1014(ra) # 1679a <_ZN18complex_no_dynamic3app17heb6b0550e1130882E>
   1ab98:	39894503          	lbu	a0,920(s2)
   1ab9c:	c509                	beqz	a0,1aba6 <_start+0x3c0e>
   1ab9e:	39c92783          	lw	a5,924(s2)
   1aba2:	cc2fc06f          	j	17064 <_start+0xcc>
   1aba6:	cc0fc06f          	j	17066 <_start+0xce>

0001abaa <memset>:
   1abaa:	46c1                	li	a3,16
   1abac:	04d66f63          	bltu	a2,a3,1ac0a <memset+0x60>
   1abb0:	40a006b3          	neg	a3,a0
   1abb4:	0036f813          	andi	a6,a3,3
   1abb8:	01050733          	add	a4,a0,a6
   1abbc:	00e57963          	bgeu	a0,a4,1abce <memset+0x24>
   1abc0:	87c2                	mv	a5,a6
   1abc2:	86aa                	mv	a3,a0
   1abc4:	00b68023          	sb	a1,0(a3)
   1abc8:	17fd                	addi	a5,a5,-1
   1abca:	0685                	addi	a3,a3,1
   1abcc:	ffe5                	bnez	a5,1abc4 <memset+0x1a>
   1abce:	41060633          	sub	a2,a2,a6
   1abd2:	ffc67693          	andi	a3,a2,-4
   1abd6:	96ba                	add	a3,a3,a4
   1abd8:	00d77e63          	bgeu	a4,a3,1abf4 <memset+0x4a>
   1abdc:	0ff5f813          	zext.b	a6,a1
   1abe0:	010107b7          	lui	a5,0x1010
   1abe4:	10178793          	addi	a5,a5,257 # 1010101 <_ZN17compiler_builtins3mem6memcpy17h90d0c987d2ef5a79E+0xff54e3>
   1abe8:	02f807b3          	mul	a5,a6,a5
   1abec:	c31c                	sw	a5,0(a4)
   1abee:	0711                	addi	a4,a4,4
   1abf0:	fed76ee3          	bltu	a4,a3,1abec <memset+0x42>
   1abf4:	8a0d                	andi	a2,a2,3
   1abf6:	00c68733          	add	a4,a3,a2
   1abfa:	00e6f763          	bgeu	a3,a4,1ac08 <memset+0x5e>
   1abfe:	00b68023          	sb	a1,0(a3)
   1ac02:	167d                	addi	a2,a2,-1
   1ac04:	0685                	addi	a3,a3,1
   1ac06:	fe65                	bnez	a2,1abfe <memset+0x54>
   1ac08:	8082                	ret
   1ac0a:	86aa                	mv	a3,a0
   1ac0c:	00c50733          	add	a4,a0,a2
   1ac10:	fee567e3          	bltu	a0,a4,1abfe <memset+0x54>
   1ac14:	bfd5                	j	1ac08 <memset+0x5e>

0001ac16 <memcpy>:
   1ac16:	00000317          	auipc	t1,0x0
   1ac1a:	00830067          	jr	8(t1) # 1ac1e <_ZN17compiler_builtins3mem6memcpy17h90d0c987d2ef5a79E>

0001ac1e <_ZN17compiler_builtins3mem6memcpy17h90d0c987d2ef5a79E>:
   1ac1e:	1141                	addi	sp,sp,-16
   1ac20:	c622                	sw	s0,12(sp)
   1ac22:	46c1                	li	a3,16
   1ac24:	06d66363          	bltu	a2,a3,1ac8a <_ZN17compiler_builtins3mem6memcpy17h90d0c987d2ef5a79E+0x6c>
   1ac28:	40a006b3          	neg	a3,a0
   1ac2c:	0036f813          	andi	a6,a3,3
   1ac30:	01050fb3          	add	t6,a0,a6
   1ac34:	01f57d63          	bgeu	a0,t6,1ac4e <_ZN17compiler_builtins3mem6memcpy17h90d0c987d2ef5a79E+0x30>
   1ac38:	8742                	mv	a4,a6
   1ac3a:	86aa                	mv	a3,a0
   1ac3c:	87ae                	mv	a5,a1
   1ac3e:	0007c883          	lbu	a7,0(a5)
   1ac42:	177d                	addi	a4,a4,-1
   1ac44:	01168023          	sb	a7,0(a3)
   1ac48:	0685                	addi	a3,a3,1
   1ac4a:	0785                	addi	a5,a5,1
   1ac4c:	fb6d                	bnez	a4,1ac3e <_ZN17compiler_builtins3mem6memcpy17h90d0c987d2ef5a79E+0x20>
   1ac4e:	01058433          	add	s0,a1,a6
   1ac52:	410608b3          	sub	a7,a2,a6
   1ac56:	ffc8f713          	andi	a4,a7,-4
   1ac5a:	00347613          	andi	a2,s0,3
   1ac5e:	00ef86b3          	add	a3,t6,a4
   1ac62:	e621                	bnez	a2,1acaa <_ZN17compiler_builtins3mem6memcpy17h90d0c987d2ef5a79E+0x8c>
   1ac64:	00dffa63          	bgeu	t6,a3,1ac78 <_ZN17compiler_builtins3mem6memcpy17h90d0c987d2ef5a79E+0x5a>
   1ac68:	8622                	mv	a2,s0
   1ac6a:	421c                	lw	a5,0(a2)
   1ac6c:	00ffa023          	sw	a5,0(t6)
   1ac70:	0f91                	addi	t6,t6,4
   1ac72:	0611                	addi	a2,a2,4
   1ac74:	fedfebe3          	bltu	t6,a3,1ac6a <_ZN17compiler_builtins3mem6memcpy17h90d0c987d2ef5a79E+0x4c>
   1ac78:	00e405b3          	add	a1,s0,a4
   1ac7c:	0038f613          	andi	a2,a7,3
   1ac80:	00c68733          	add	a4,a3,a2
   1ac84:	00e6e863          	bltu	a3,a4,1ac94 <_ZN17compiler_builtins3mem6memcpy17h90d0c987d2ef5a79E+0x76>
   1ac88:	a831                	j	1aca4 <_ZN17compiler_builtins3mem6memcpy17h90d0c987d2ef5a79E+0x86>
   1ac8a:	86aa                	mv	a3,a0
   1ac8c:	00c50733          	add	a4,a0,a2
   1ac90:	00e57a63          	bgeu	a0,a4,1aca4 <_ZN17compiler_builtins3mem6memcpy17h90d0c987d2ef5a79E+0x86>
   1ac94:	0005c703          	lbu	a4,0(a1)
   1ac98:	167d                	addi	a2,a2,-1
   1ac9a:	00e68023          	sb	a4,0(a3)
   1ac9e:	0685                	addi	a3,a3,1
   1aca0:	0585                	addi	a1,a1,1
   1aca2:	fa6d                	bnez	a2,1ac94 <_ZN17compiler_builtins3mem6memcpy17h90d0c987d2ef5a79E+0x76>
   1aca4:	4432                	lw	s0,12(sp)
   1aca6:	0141                	addi	sp,sp,16
   1aca8:	8082                	ret
   1acaa:	4801                	li	a6,0
   1acac:	4791                	li	a5,4
   1acae:	c402                	sw	zero,8(sp)
   1acb0:	40c783b3          	sub	t2,a5,a2
   1acb4:	00810293          	addi	t0,sp,8
   1acb8:	0013f313          	andi	t1,t2,1
   1acbc:	00c2e2b3          	or	t0,t0,a2
   1acc0:	04031763          	bnez	t1,1ad0e <_ZN17compiler_builtins3mem6memcpy17h90d0c987d2ef5a79E+0xf0>
   1acc4:	0023f793          	andi	a5,t2,2
   1acc8:	ebb9                	bnez	a5,1ad1e <_ZN17compiler_builtins3mem6memcpy17h90d0c987d2ef5a79E+0x100>
   1acca:	4ea2                	lw	t4,8(sp)
   1accc:	00361813          	slli	a6,a2,0x3
   1acd0:	004f8793          	addi	a5,t6,4
   1acd4:	40c40f33          	sub	t5,s0,a2
   1acd8:	06d7f363          	bgeu	a5,a3,1ad3e <_ZN17compiler_builtins3mem6memcpy17h90d0c987d2ef5a79E+0x120>
   1acdc:	410007b3          	neg	a5,a6
   1ace0:	0187fe13          	andi	t3,a5,24
   1ace4:	004f2283          	lw	t0,4(t5)
   1ace8:	004f0393          	addi	t2,t5,4
   1acec:	010ed5b3          	srl	a1,t4,a6
   1acf0:	004f8313          	addi	t1,t6,4
   1acf4:	01c297b3          	sll	a5,t0,t3
   1acf8:	8ddd                	or	a1,a1,a5
   1acfa:	008f8793          	addi	a5,t6,8
   1acfe:	00bfa023          	sw	a1,0(t6)
   1ad02:	8f9a                	mv	t6,t1
   1ad04:	8f1e                	mv	t5,t2
   1ad06:	8e96                	mv	t4,t0
   1ad08:	fcd7eee3          	bltu	a5,a3,1ace4 <_ZN17compiler_builtins3mem6memcpy17h90d0c987d2ef5a79E+0xc6>
   1ad0c:	a825                	j	1ad44 <_ZN17compiler_builtins3mem6memcpy17h90d0c987d2ef5a79E+0x126>
   1ad0e:	00044783          	lbu	a5,0(s0)
   1ad12:	00f28023          	sb	a5,0(t0)
   1ad16:	4805                	li	a6,1
   1ad18:	0023f793          	andi	a5,t2,2
   1ad1c:	d7dd                	beqz	a5,1acca <_ZN17compiler_builtins3mem6memcpy17h90d0c987d2ef5a79E+0xac>
   1ad1e:	010407b3          	add	a5,s0,a6
   1ad22:	00079783          	lh	a5,0(a5)
   1ad26:	9816                	add	a6,a6,t0
   1ad28:	00f81023          	sh	a5,0(a6)
   1ad2c:	4ea2                	lw	t4,8(sp)
   1ad2e:	00361813          	slli	a6,a2,0x3
   1ad32:	004f8793          	addi	a5,t6,4
   1ad36:	40c40f33          	sub	t5,s0,a2
   1ad3a:	fad7e1e3          	bltu	a5,a3,1acdc <_ZN17compiler_builtins3mem6memcpy17h90d0c987d2ef5a79E+0xbe>
   1ad3e:	82f6                	mv	t0,t4
   1ad40:	83fa                	mv	t2,t5
   1ad42:	837e                	mv	t1,t6
   1ad44:	00010223          	sb	zero,4(sp)
   1ad48:	4785                	li	a5,1
   1ad4a:	00010123          	sb	zero,2(sp)
   1ad4e:	00f61763          	bne	a2,a5,1ad5c <_ZN17compiler_builtins3mem6memcpy17h90d0c987d2ef5a79E+0x13e>
   1ad52:	4781                	li	a5,0
   1ad54:	4e01                	li	t3,0
   1ad56:	4e81                	li	t4,0
   1ad58:	0050                	addi	a2,sp,4
   1ad5a:	a819                	j	1ad70 <_ZN17compiler_builtins3mem6memcpy17h90d0c987d2ef5a79E+0x152>
   1ad5c:	0043c783          	lbu	a5,4(t2)
   1ad60:	0053ce03          	lbu	t3,5(t2)
   1ad64:	4e89                	li	t4,2
   1ad66:	00f10223          	sb	a5,4(sp)
   1ad6a:	0e22                	slli	t3,t3,0x8
   1ad6c:	00210613          	addi	a2,sp,2
   1ad70:	00147593          	andi	a1,s0,1
   1ad74:	e199                	bnez	a1,1ad7a <_ZN17compiler_builtins3mem6memcpy17h90d0c987d2ef5a79E+0x15c>
   1ad76:	4601                	li	a2,0
   1ad78:	a821                	j	1ad90 <_ZN17compiler_builtins3mem6memcpy17h90d0c987d2ef5a79E+0x172>
   1ad7a:	0391                	addi	t2,t2,4
   1ad7c:	93f6                	add	t2,t2,t4
   1ad7e:	0003c583          	lbu	a1,0(t2)
   1ad82:	00b60023          	sb	a1,0(a2)
   1ad86:	00214603          	lbu	a2,2(sp)
   1ad8a:	00414783          	lbu	a5,4(sp)
   1ad8e:	0642                	slli	a2,a2,0x10
   1ad90:	8e5d                	or	a2,a2,a5
   1ad92:	0102d5b3          	srl	a1,t0,a6
   1ad96:	410007b3          	neg	a5,a6
   1ad9a:	00ce6633          	or	a2,t3,a2
   1ad9e:	8be1                	andi	a5,a5,24
   1ada0:	00f61633          	sll	a2,a2,a5
   1ada4:	8dd1                	or	a1,a1,a2
   1ada6:	00b32023          	sw	a1,0(t1)
   1adaa:	00e405b3          	add	a1,s0,a4
   1adae:	0038f613          	andi	a2,a7,3
   1adb2:	00c68733          	add	a4,a3,a2
   1adb6:	ece6efe3          	bltu	a3,a4,1ac94 <_ZN17compiler_builtins3mem6memcpy17h90d0c987d2ef5a79E+0x76>
   1adba:	b5ed                	j	1aca4 <_ZN17compiler_builtins3mem6memcpy17h90d0c987d2ef5a79E+0x86>
