
target/riscv32imc-unknown-none-elf/opt-2/examples/complex_no_dynamic:     file format elf32-littleriscv

Sections:
Idx Name          Size      VMA       LMA       File off  Algn
  0 .eh_frame     00000060  000100d4  000100d4  000000d4  2**2
                  CONTENTS, ALLOC, LOAD, READONLY, DATA
  1 .text         0000aafc  00011134  00011134  00000134  2**1
                  CONTENTS, ALLOC, LOAD, READONLY, CODE
  2 .comment      0000008b  00000000  00000000  0000ac30  2**0
                  CONTENTS, READONLY
  3 .riscv.attributes 0000002f  00000000  00000000  0000acbb  2**0
                  CONTENTS, READONLY

Disassembly of section .text:

00011134 <_ZN18complex_no_dynamic3app17h0900ce7bf0bb14ddE>:
   11134:	7119                	addi	sp,sp,-128
   11136:	de86                	sw	ra,124(sp)
   11138:	dca2                	sw	s0,120(sp)
   1113a:	daa6                	sw	s1,116(sp)
   1113c:	842a                	mv	s0,a0
   1113e:	00b10513          	addi	a0,sp,11
   11142:	05500613          	li	a2,85
   11146:	0000b097          	auipc	ra,0xb
   1114a:	944080e7          	jalr	-1724(ra) # 1ba8a <memcpy>
   1114e:	06010823          	sb	zero,112(sp)
   11152:	d082                	sw	zero,96(sp)
   11154:	d282                	sw	zero,100(sp)
   11156:	d482                	sw	zero,104(sp)
   11158:	d682                	sw	zero,108(sp)
   1115a:	6505                	lui	a0,0x1
   1115c:	4489                	li	s1,2
   1115e:	4589                	li	a1,2
   11160:	00b10613          	addi	a2,sp,11
   11164:	c8950793          	addi	a5,a0,-887 # c89 <.Lline_table_start1+0xa5e>
   11168:	05500693          	li	a3,85
   1116c:	4711                	li	a4,4
   1116e:	853e                	mv	a0,a5
   11170:	00000073          	ecall
   11174:	02950963          	beq	a0,s1,111a6 <_ZN18complex_no_dynamic3app17h0900ce7bf0bb14ddE+0x72>
   11178:	4589                	li	a1,2
   1117a:	1090                	addi	a2,sp,96
   1117c:	46c5                	li	a3,17
   1117e:	470d                	li	a4,3
   11180:	853e                	mv	a0,a5
   11182:	00000073          	ecall
   11186:	02950063          	beq	a0,s1,111a6 <_ZN18complex_no_dynamic3app17h0900ce7bf0bb14ddE+0x72>
   1118a:	6505                	lui	a0,0x1
   1118c:	4589                	li	a1,2
   1118e:	4609                	li	a2,2
   11190:	c8950493          	addi	s1,a0,-887 # c89 <.Lline_table_start1+0xa5e>
   11194:	4709                	li	a4,2
   11196:	07f00813          	li	a6,127
   1119a:	8526                	mv	a0,s1
   1119c:	4681                	li	a3,0
   1119e:	00000073          	ecall
   111a2:	02a86963          	bltu	a6,a0,111d4 <_ZN18complex_no_dynamic3app17h0900ce7bf0bb14ddE+0xa0>
   111a6:	853e                	mv	a0,a5
   111a8:	4601                	li	a2,0
   111aa:	4681                	li	a3,0
   111ac:	4705                	li	a4,1
   111ae:	00e40023          	sb	a4,0(s0)
   111b2:	c04c                	sw	a1,4(s0)
   111b4:	4589                	li	a1,2
   111b6:	470d                	li	a4,3
   111b8:	00000073          	ecall
   111bc:	4589                	li	a1,2
   111be:	4711                	li	a4,4
   111c0:	853e                	mv	a0,a5
   111c2:	4601                	li	a2,0
   111c4:	4681                	li	a3,0
   111c6:	00000073          	ecall
   111ca:	50f6                	lw	ra,124(sp)
   111cc:	5466                	lw	s0,120(sp)
   111ce:	54d6                	lw	s1,116(sp)
   111d0:	6109                	addi	sp,sp,128
   111d2:	8082                	ret
   111d4:	8526                	mv	a0,s1
   111d6:	4601                	li	a2,0
   111d8:	4681                	li	a3,0
   111da:	4589                	li	a1,2
   111dc:	470d                	li	a4,3
   111de:	00000073          	ecall
   111e2:	4589                	li	a1,2
   111e4:	470d                	li	a4,3
   111e6:	8526                	mv	a0,s1
   111e8:	4601                	li	a2,0
   111ea:	4681                	li	a3,0
   111ec:	00000073          	ecall
   111f0:	00140513          	addi	a0,s0,1
   111f4:	108c                	addi	a1,sp,96
   111f6:	4645                	li	a2,17
   111f8:	0000b097          	auipc	ra,0xb
   111fc:	892080e7          	jalr	-1902(ra) # 1ba8a <memcpy>
   11200:	8526                	mv	a0,s1
   11202:	4601                	li	a2,0
   11204:	4681                	li	a3,0
   11206:	00040023          	sb	zero,0(s0)
   1120a:	4589                	li	a1,2
   1120c:	470d                	li	a4,3
   1120e:	00000073          	ecall
   11212:	4589                	li	a1,2
   11214:	4711                	li	a4,4
   11216:	8526                	mv	a0,s1
   11218:	4601                	li	a2,0
   1121a:	4681                	li	a3,0
   1121c:	00000073          	ecall
   11220:	b76d                	j	111ca <_ZN18complex_no_dynamic3app17h0900ce7bf0bb14ddE+0x96>

00011222 <_ZN18complex_no_dynamic3app17h094985f0d99ad1d3E>:
   11222:	7175                	addi	sp,sp,-144
   11224:	c706                	sw	ra,140(sp)
   11226:	c522                	sw	s0,136(sp)
   11228:	c326                	sw	s1,132(sp)
   1122a:	842a                	mv	s0,a0
   1122c:	00b10513          	addi	a0,sp,11
   11230:	03100613          	li	a2,49
   11234:	0000b097          	auipc	ra,0xb
   11238:	856080e7          	jalr	-1962(ra) # 1ba8a <memcpy>
   1123c:	1868                	addi	a0,sp,60
   1123e:	04800613          	li	a2,72
   11242:	4581                	li	a1,0
   11244:	0000a097          	auipc	ra,0xa
   11248:	7da080e7          	jalr	2010(ra) # 1ba1e <memset>
   1124c:	6509                	lui	a0,0x2
   1124e:	4591                	li	a1,4
   11250:	00b10613          	addi	a2,sp,11
   11254:	03100693          	li	a3,49
   11258:	80e50793          	addi	a5,a0,-2034 # 180e <.Lline_table_start1+0x15e3>
   1125c:	4711                	li	a4,4
   1125e:	4489                	li	s1,2
   11260:	853e                	mv	a0,a5
   11262:	00000073          	ecall
   11266:	02950a63          	beq	a0,s1,1129a <_ZN18complex_no_dynamic3app17h094985f0d99ad1d3E+0x78>
   1126a:	458d                	li	a1,3
   1126c:	1870                	addi	a2,sp,60
   1126e:	04800693          	li	a3,72
   11272:	470d                	li	a4,3
   11274:	853e                	mv	a0,a5
   11276:	00000073          	ecall
   1127a:	02950063          	beq	a0,s1,1129a <_ZN18complex_no_dynamic3app17h094985f0d99ad1d3E+0x78>
   1127e:	6509                	lui	a0,0x2
   11280:	4591                	li	a1,4
   11282:	460d                	li	a2,3
   11284:	80e50493          	addi	s1,a0,-2034 # 180e <.Lline_table_start1+0x15e3>
   11288:	4709                	li	a4,2
   1128a:	07f00813          	li	a6,127
   1128e:	8526                	mv	a0,s1
   11290:	4681                	li	a3,0
   11292:	00000073          	ecall
   11296:	02a86963          	bltu	a6,a0,112c8 <_ZN18complex_no_dynamic3app17h094985f0d99ad1d3E+0xa6>
   1129a:	853e                	mv	a0,a5
   1129c:	4601                	li	a2,0
   1129e:	4681                	li	a3,0
   112a0:	4705                	li	a4,1
   112a2:	00e40023          	sb	a4,0(s0)
   112a6:	c04c                	sw	a1,4(s0)
   112a8:	458d                	li	a1,3
   112aa:	470d                	li	a4,3
   112ac:	00000073          	ecall
   112b0:	4591                	li	a1,4
   112b2:	4711                	li	a4,4
   112b4:	853e                	mv	a0,a5
   112b6:	4601                	li	a2,0
   112b8:	4681                	li	a3,0
   112ba:	00000073          	ecall
   112be:	40ba                	lw	ra,140(sp)
   112c0:	442a                	lw	s0,136(sp)
   112c2:	449a                	lw	s1,132(sp)
   112c4:	6149                	addi	sp,sp,144
   112c6:	8082                	ret
   112c8:	8526                	mv	a0,s1
   112ca:	4601                	li	a2,0
   112cc:	4681                	li	a3,0
   112ce:	458d                	li	a1,3
   112d0:	470d                	li	a4,3
   112d2:	00000073          	ecall
   112d6:	458d                	li	a1,3
   112d8:	470d                	li	a4,3
   112da:	8526                	mv	a0,s1
   112dc:	4601                	li	a2,0
   112de:	4681                	li	a3,0
   112e0:	00000073          	ecall
   112e4:	00140513          	addi	a0,s0,1
   112e8:	186c                	addi	a1,sp,60
   112ea:	04800613          	li	a2,72
   112ee:	0000a097          	auipc	ra,0xa
   112f2:	79c080e7          	jalr	1948(ra) # 1ba8a <memcpy>
   112f6:	8526                	mv	a0,s1
   112f8:	4601                	li	a2,0
   112fa:	4681                	li	a3,0
   112fc:	00040023          	sb	zero,0(s0)
   11300:	458d                	li	a1,3
   11302:	470d                	li	a4,3
   11304:	00000073          	ecall
   11308:	4591                	li	a1,4
   1130a:	4711                	li	a4,4
   1130c:	8526                	mv	a0,s1
   1130e:	4601                	li	a2,0
   11310:	4681                	li	a3,0
   11312:	00000073          	ecall
   11316:	b765                	j	112be <_ZN18complex_no_dynamic3app17h094985f0d99ad1d3E+0x9c>

00011318 <_ZN18complex_no_dynamic3app17h0ae55064b53f0bb3E>:
   11318:	7119                	addi	sp,sp,-128
   1131a:	de86                	sw	ra,124(sp)
   1131c:	dca2                	sw	s0,120(sp)
   1131e:	daa6                	sw	s1,116(sp)
   11320:	842a                	mv	s0,a0
   11322:	00e10513          	addi	a0,sp,14
   11326:	02e00613          	li	a2,46
   1132a:	0000a097          	auipc	ra,0xa
   1132e:	760080e7          	jalr	1888(ra) # 1ba8a <memcpy>
   11332:	1868                	addi	a0,sp,60
   11334:	03800613          	li	a2,56
   11338:	4581                	li	a1,0
   1133a:	0000a097          	auipc	ra,0xa
   1133e:	6e4080e7          	jalr	1764(ra) # 1ba1e <memset>
   11342:	6505                	lui	a0,0x1
   11344:	45a5                	li	a1,9
   11346:	00e10613          	addi	a2,sp,14
   1134a:	02e00693          	li	a3,46
   1134e:	a9d50793          	addi	a5,a0,-1379 # a9d <.Lline_table_start1+0x872>
   11352:	4711                	li	a4,4
   11354:	4489                	li	s1,2
   11356:	853e                	mv	a0,a5
   11358:	00000073          	ecall
   1135c:	02950a63          	beq	a0,s1,11390 <_ZN18complex_no_dynamic3app17h0ae55064b53f0bb3E+0x78>
   11360:	45a5                	li	a1,9
   11362:	1870                	addi	a2,sp,60
   11364:	03800693          	li	a3,56
   11368:	470d                	li	a4,3
   1136a:	853e                	mv	a0,a5
   1136c:	00000073          	ecall
   11370:	02950063          	beq	a0,s1,11390 <_ZN18complex_no_dynamic3app17h0ae55064b53f0bb3E+0x78>
   11374:	6505                	lui	a0,0x1
   11376:	45a5                	li	a1,9
   11378:	4625                	li	a2,9
   1137a:	a9d50493          	addi	s1,a0,-1379 # a9d <.Lline_table_start1+0x872>
   1137e:	4709                	li	a4,2
   11380:	07f00813          	li	a6,127
   11384:	8526                	mv	a0,s1
   11386:	4681                	li	a3,0
   11388:	00000073          	ecall
   1138c:	02a86963          	bltu	a6,a0,113be <_ZN18complex_no_dynamic3app17h0ae55064b53f0bb3E+0xa6>
   11390:	853e                	mv	a0,a5
   11392:	4601                	li	a2,0
   11394:	4681                	li	a3,0
   11396:	4705                	li	a4,1
   11398:	00e40023          	sb	a4,0(s0)
   1139c:	c04c                	sw	a1,4(s0)
   1139e:	45a5                	li	a1,9
   113a0:	470d                	li	a4,3
   113a2:	00000073          	ecall
   113a6:	45a5                	li	a1,9
   113a8:	4711                	li	a4,4
   113aa:	853e                	mv	a0,a5
   113ac:	4601                	li	a2,0
   113ae:	4681                	li	a3,0
   113b0:	00000073          	ecall
   113b4:	50f6                	lw	ra,124(sp)
   113b6:	5466                	lw	s0,120(sp)
   113b8:	54d6                	lw	s1,116(sp)
   113ba:	6109                	addi	sp,sp,128
   113bc:	8082                	ret
   113be:	8526                	mv	a0,s1
   113c0:	4601                	li	a2,0
   113c2:	4681                	li	a3,0
   113c4:	45a5                	li	a1,9
   113c6:	470d                	li	a4,3
   113c8:	00000073          	ecall
   113cc:	45a5                	li	a1,9
   113ce:	470d                	li	a4,3
   113d0:	8526                	mv	a0,s1
   113d2:	4601                	li	a2,0
   113d4:	4681                	li	a3,0
   113d6:	00000073          	ecall
   113da:	00140513          	addi	a0,s0,1
   113de:	186c                	addi	a1,sp,60
   113e0:	03800613          	li	a2,56
   113e4:	0000a097          	auipc	ra,0xa
   113e8:	6a6080e7          	jalr	1702(ra) # 1ba8a <memcpy>
   113ec:	8526                	mv	a0,s1
   113ee:	4601                	li	a2,0
   113f0:	4681                	li	a3,0
   113f2:	00040023          	sb	zero,0(s0)
   113f6:	45a5                	li	a1,9
   113f8:	470d                	li	a4,3
   113fa:	00000073          	ecall
   113fe:	45a5                	li	a1,9
   11400:	4711                	li	a4,4
   11402:	8526                	mv	a0,s1
   11404:	4601                	li	a2,0
   11406:	4681                	li	a3,0
   11408:	00000073          	ecall
   1140c:	b765                	j	113b4 <_ZN18complex_no_dynamic3app17h0ae55064b53f0bb3E+0x9c>

0001140e <_ZN18complex_no_dynamic3app17h1059ec75e3565da3E>:
   1140e:	7171                	addi	sp,sp,-176
   11410:	d706                	sw	ra,172(sp)
   11412:	d522                	sw	s0,168(sp)
   11414:	d326                	sw	s1,164(sp)
   11416:	842a                	mv	s0,a0
   11418:	0048                	addi	a0,sp,4
   1141a:	05100613          	li	a2,81
   1141e:	0000a097          	auipc	ra,0xa
   11422:	66c080e7          	jalr	1644(ra) # 1ba8a <memcpy>
   11426:	05510513          	addi	a0,sp,85
   1142a:	04f00613          	li	a2,79
   1142e:	4581                	li	a1,0
   11430:	0000a097          	auipc	ra,0xa
   11434:	5ee080e7          	jalr	1518(ra) # 1ba1e <memset>
   11438:	6505                	lui	a0,0x1
   1143a:	4489                	li	s1,2
   1143c:	4589                	li	a1,2
   1143e:	0050                	addi	a2,sp,4
   11440:	e1650793          	addi	a5,a0,-490 # e16 <.Lline_table_start1+0xbeb>
   11444:	05100693          	li	a3,81
   11448:	4711                	li	a4,4
   1144a:	853e                	mv	a0,a5
   1144c:	00000073          	ecall
   11450:	02950b63          	beq	a0,s1,11486 <_ZN18complex_no_dynamic3app17h1059ec75e3565da3E+0x78>
   11454:	4591                	li	a1,4
   11456:	05510613          	addi	a2,sp,85
   1145a:	04f00693          	li	a3,79
   1145e:	470d                	li	a4,3
   11460:	853e                	mv	a0,a5
   11462:	00000073          	ecall
   11466:	02950063          	beq	a0,s1,11486 <_ZN18complex_no_dynamic3app17h1059ec75e3565da3E+0x78>
   1146a:	6505                	lui	a0,0x1
   1146c:	4589                	li	a1,2
   1146e:	4611                	li	a2,4
   11470:	e1650493          	addi	s1,a0,-490 # e16 <.Lline_table_start1+0xbeb>
   11474:	4709                	li	a4,2
   11476:	07f00813          	li	a6,127
   1147a:	8526                	mv	a0,s1
   1147c:	4681                	li	a3,0
   1147e:	00000073          	ecall
   11482:	02a86963          	bltu	a6,a0,114b4 <_ZN18complex_no_dynamic3app17h1059ec75e3565da3E+0xa6>
   11486:	853e                	mv	a0,a5
   11488:	4601                	li	a2,0
   1148a:	4681                	li	a3,0
   1148c:	4705                	li	a4,1
   1148e:	00e40023          	sb	a4,0(s0)
   11492:	c04c                	sw	a1,4(s0)
   11494:	4591                	li	a1,4
   11496:	470d                	li	a4,3
   11498:	00000073          	ecall
   1149c:	4589                	li	a1,2
   1149e:	4711                	li	a4,4
   114a0:	853e                	mv	a0,a5
   114a2:	4601                	li	a2,0
   114a4:	4681                	li	a3,0
   114a6:	00000073          	ecall
   114aa:	50ba                	lw	ra,172(sp)
   114ac:	542a                	lw	s0,168(sp)
   114ae:	549a                	lw	s1,164(sp)
   114b0:	614d                	addi	sp,sp,176
   114b2:	8082                	ret
   114b4:	8526                	mv	a0,s1
   114b6:	4601                	li	a2,0
   114b8:	4681                	li	a3,0
   114ba:	4591                	li	a1,4
   114bc:	470d                	li	a4,3
   114be:	00000073          	ecall
   114c2:	4591                	li	a1,4
   114c4:	470d                	li	a4,3
   114c6:	8526                	mv	a0,s1
   114c8:	4601                	li	a2,0
   114ca:	4681                	li	a3,0
   114cc:	00000073          	ecall
   114d0:	00140513          	addi	a0,s0,1
   114d4:	05510593          	addi	a1,sp,85
   114d8:	04f00613          	li	a2,79
   114dc:	0000a097          	auipc	ra,0xa
   114e0:	5ae080e7          	jalr	1454(ra) # 1ba8a <memcpy>
   114e4:	8526                	mv	a0,s1
   114e6:	4601                	li	a2,0
   114e8:	4681                	li	a3,0
   114ea:	00040023          	sb	zero,0(s0)
   114ee:	4591                	li	a1,4
   114f0:	470d                	li	a4,3
   114f2:	00000073          	ecall
   114f6:	4589                	li	a1,2
   114f8:	4711                	li	a4,4
   114fa:	8526                	mv	a0,s1
   114fc:	4601                	li	a2,0
   114fe:	4681                	li	a3,0
   11500:	00000073          	ecall
   11504:	b75d                	j	114aa <_ZN18complex_no_dynamic3app17h1059ec75e3565da3E+0x9c>

00011506 <_ZN18complex_no_dynamic3app17h16ebfe222c901b9bE>:
   11506:	7119                	addi	sp,sp,-128
   11508:	de86                	sw	ra,124(sp)
   1150a:	dca2                	sw	s0,120(sp)
   1150c:	daa6                	sw	s1,116(sp)
   1150e:	842a                	mv	s0,a0
   11510:	00a10513          	addi	a0,sp,10
   11514:	03600613          	li	a2,54
   11518:	0000a097          	auipc	ra,0xa
   1151c:	572080e7          	jalr	1394(ra) # 1ba8a <memcpy>
   11520:	0088                	addi	a0,sp,64
   11522:	03400613          	li	a2,52
   11526:	4581                	li	a1,0
   11528:	0000a097          	auipc	ra,0xa
   1152c:	4f6080e7          	jalr	1270(ra) # 1ba1e <memset>
   11530:	6509                	lui	a0,0x2
   11532:	4591                	li	a1,4
   11534:	00a10613          	addi	a2,sp,10
   11538:	03600693          	li	a3,54
   1153c:	3c650793          	addi	a5,a0,966 # 23c6 <.Lline_table_start1+0x219b>
   11540:	4711                	li	a4,4
   11542:	4489                	li	s1,2
   11544:	853e                	mv	a0,a5
   11546:	00000073          	ecall
   1154a:	02950a63          	beq	a0,s1,1157e <_ZN18complex_no_dynamic3app17h16ebfe222c901b9bE+0x78>
   1154e:	4589                	li	a1,2
   11550:	0090                	addi	a2,sp,64
   11552:	03400693          	li	a3,52
   11556:	470d                	li	a4,3
   11558:	853e                	mv	a0,a5
   1155a:	00000073          	ecall
   1155e:	02950063          	beq	a0,s1,1157e <_ZN18complex_no_dynamic3app17h16ebfe222c901b9bE+0x78>
   11562:	6509                	lui	a0,0x2
   11564:	4591                	li	a1,4
   11566:	4609                	li	a2,2
   11568:	3c650493          	addi	s1,a0,966 # 23c6 <.Lline_table_start1+0x219b>
   1156c:	4709                	li	a4,2
   1156e:	07f00813          	li	a6,127
   11572:	8526                	mv	a0,s1
   11574:	4681                	li	a3,0
   11576:	00000073          	ecall
   1157a:	02a86963          	bltu	a6,a0,115ac <_ZN18complex_no_dynamic3app17h16ebfe222c901b9bE+0xa6>
   1157e:	853e                	mv	a0,a5
   11580:	4601                	li	a2,0
   11582:	4681                	li	a3,0
   11584:	4705                	li	a4,1
   11586:	00e40023          	sb	a4,0(s0)
   1158a:	c04c                	sw	a1,4(s0)
   1158c:	4589                	li	a1,2
   1158e:	470d                	li	a4,3
   11590:	00000073          	ecall
   11594:	4591                	li	a1,4
   11596:	4711                	li	a4,4
   11598:	853e                	mv	a0,a5
   1159a:	4601                	li	a2,0
   1159c:	4681                	li	a3,0
   1159e:	00000073          	ecall
   115a2:	50f6                	lw	ra,124(sp)
   115a4:	5466                	lw	s0,120(sp)
   115a6:	54d6                	lw	s1,116(sp)
   115a8:	6109                	addi	sp,sp,128
   115aa:	8082                	ret
   115ac:	8526                	mv	a0,s1
   115ae:	4601                	li	a2,0
   115b0:	4681                	li	a3,0
   115b2:	4589                	li	a1,2
   115b4:	470d                	li	a4,3
   115b6:	00000073          	ecall
   115ba:	4589                	li	a1,2
   115bc:	470d                	li	a4,3
   115be:	8526                	mv	a0,s1
   115c0:	4601                	li	a2,0
   115c2:	4681                	li	a3,0
   115c4:	00000073          	ecall
   115c8:	00140513          	addi	a0,s0,1
   115cc:	008c                	addi	a1,sp,64
   115ce:	03400613          	li	a2,52
   115d2:	0000a097          	auipc	ra,0xa
   115d6:	4b8080e7          	jalr	1208(ra) # 1ba8a <memcpy>
   115da:	8526                	mv	a0,s1
   115dc:	4601                	li	a2,0
   115de:	4681                	li	a3,0
   115e0:	00040023          	sb	zero,0(s0)
   115e4:	4589                	li	a1,2
   115e6:	470d                	li	a4,3
   115e8:	00000073          	ecall
   115ec:	4591                	li	a1,4
   115ee:	4711                	li	a4,4
   115f0:	8526                	mv	a0,s1
   115f2:	4601                	li	a2,0
   115f4:	4681                	li	a3,0
   115f6:	00000073          	ecall
   115fa:	b765                	j	115a2 <_ZN18complex_no_dynamic3app17h16ebfe222c901b9bE+0x9c>

000115fc <_ZN18complex_no_dynamic3app17h16f346ba8a96b5b8E>:
   115fc:	7131                	addi	sp,sp,-192
   115fe:	df06                	sw	ra,188(sp)
   11600:	dd22                	sw	s0,184(sp)
   11602:	db26                	sw	s1,180(sp)
   11604:	842a                	mv	s0,a0
   11606:	00110513          	addi	a0,sp,1
   1160a:	05e00613          	li	a2,94
   1160e:	0000a097          	auipc	ra,0xa
   11612:	47c080e7          	jalr	1148(ra) # 1ba8a <memcpy>
   11616:	05f10513          	addi	a0,sp,95
   1161a:	05500613          	li	a2,85
   1161e:	4581                	li	a1,0
   11620:	0000a097          	auipc	ra,0xa
   11624:	3fe080e7          	jalr	1022(ra) # 1ba1e <memset>
   11628:	6505                	lui	a0,0x1
   1162a:	459d                	li	a1,7
   1162c:	00110613          	addi	a2,sp,1
   11630:	05e00693          	li	a3,94
   11634:	78a50793          	addi	a5,a0,1930 # 178a <.Lline_table_start1+0x155f>
   11638:	4711                	li	a4,4
   1163a:	4489                	li	s1,2
   1163c:	853e                	mv	a0,a5
   1163e:	00000073          	ecall
   11642:	02950b63          	beq	a0,s1,11678 <_ZN18complex_no_dynamic3app17h16f346ba8a96b5b8E+0x7c>
   11646:	458d                	li	a1,3
   11648:	05f10613          	addi	a2,sp,95
   1164c:	05500693          	li	a3,85
   11650:	470d                	li	a4,3
   11652:	853e                	mv	a0,a5
   11654:	00000073          	ecall
   11658:	02950063          	beq	a0,s1,11678 <_ZN18complex_no_dynamic3app17h16f346ba8a96b5b8E+0x7c>
   1165c:	6505                	lui	a0,0x1
   1165e:	459d                	li	a1,7
   11660:	460d                	li	a2,3
   11662:	78a50493          	addi	s1,a0,1930 # 178a <.Lline_table_start1+0x155f>
   11666:	4709                	li	a4,2
   11668:	07f00813          	li	a6,127
   1166c:	8526                	mv	a0,s1
   1166e:	4681                	li	a3,0
   11670:	00000073          	ecall
   11674:	02a86963          	bltu	a6,a0,116a6 <_ZN18complex_no_dynamic3app17h16f346ba8a96b5b8E+0xaa>
   11678:	853e                	mv	a0,a5
   1167a:	4601                	li	a2,0
   1167c:	4681                	li	a3,0
   1167e:	4705                	li	a4,1
   11680:	00e40023          	sb	a4,0(s0)
   11684:	c04c                	sw	a1,4(s0)
   11686:	458d                	li	a1,3
   11688:	470d                	li	a4,3
   1168a:	00000073          	ecall
   1168e:	459d                	li	a1,7
   11690:	4711                	li	a4,4
   11692:	853e                	mv	a0,a5
   11694:	4601                	li	a2,0
   11696:	4681                	li	a3,0
   11698:	00000073          	ecall
   1169c:	50fa                	lw	ra,188(sp)
   1169e:	546a                	lw	s0,184(sp)
   116a0:	54da                	lw	s1,180(sp)
   116a2:	6129                	addi	sp,sp,192
   116a4:	8082                	ret
   116a6:	8526                	mv	a0,s1
   116a8:	4601                	li	a2,0
   116aa:	4681                	li	a3,0
   116ac:	458d                	li	a1,3
   116ae:	470d                	li	a4,3
   116b0:	00000073          	ecall
   116b4:	458d                	li	a1,3
   116b6:	470d                	li	a4,3
   116b8:	8526                	mv	a0,s1
   116ba:	4601                	li	a2,0
   116bc:	4681                	li	a3,0
   116be:	00000073          	ecall
   116c2:	00140513          	addi	a0,s0,1
   116c6:	05f10593          	addi	a1,sp,95
   116ca:	05500613          	li	a2,85
   116ce:	0000a097          	auipc	ra,0xa
   116d2:	3bc080e7          	jalr	956(ra) # 1ba8a <memcpy>
   116d6:	8526                	mv	a0,s1
   116d8:	4601                	li	a2,0
   116da:	4681                	li	a3,0
   116dc:	00040023          	sb	zero,0(s0)
   116e0:	458d                	li	a1,3
   116e2:	470d                	li	a4,3
   116e4:	00000073          	ecall
   116e8:	459d                	li	a1,7
   116ea:	4711                	li	a4,4
   116ec:	8526                	mv	a0,s1
   116ee:	4601                	li	a2,0
   116f0:	4681                	li	a3,0
   116f2:	00000073          	ecall
   116f6:	b75d                	j	1169c <_ZN18complex_no_dynamic3app17h16f346ba8a96b5b8E+0xa0>

000116f8 <_ZN18complex_no_dynamic3app17h195ea85fd642f877E>:
   116f8:	7171                	addi	sp,sp,-176
   116fa:	d706                	sw	ra,172(sp)
   116fc:	d522                	sw	s0,168(sp)
   116fe:	d326                	sw	s1,164(sp)
   11700:	842a                	mv	s0,a0
   11702:	0048                	addi	a0,sp,4
   11704:	05300613          	li	a2,83
   11708:	0000a097          	auipc	ra,0xa
   1170c:	382080e7          	jalr	898(ra) # 1ba8a <memcpy>
   11710:	05710513          	addi	a0,sp,87
   11714:	04d00613          	li	a2,77
   11718:	4581                	li	a1,0
   1171a:	0000a097          	auipc	ra,0xa
   1171e:	304080e7          	jalr	772(ra) # 1ba1e <memset>
   11722:	6505                	lui	a0,0x1
   11724:	45a5                	li	a1,9
   11726:	0050                	addi	a2,sp,4
   11728:	05300693          	li	a3,83
   1172c:	6ba50793          	addi	a5,a0,1722 # 16ba <.Lline_table_start1+0x148f>
   11730:	4711                	li	a4,4
   11732:	4489                	li	s1,2
   11734:	853e                	mv	a0,a5
   11736:	00000073          	ecall
   1173a:	02950b63          	beq	a0,s1,11770 <_ZN18complex_no_dynamic3app17h195ea85fd642f877E+0x78>
   1173e:	4591                	li	a1,4
   11740:	05710613          	addi	a2,sp,87
   11744:	04d00693          	li	a3,77
   11748:	470d                	li	a4,3
   1174a:	853e                	mv	a0,a5
   1174c:	00000073          	ecall
   11750:	02950063          	beq	a0,s1,11770 <_ZN18complex_no_dynamic3app17h195ea85fd642f877E+0x78>
   11754:	6505                	lui	a0,0x1
   11756:	45a5                	li	a1,9
   11758:	4611                	li	a2,4
   1175a:	6ba50493          	addi	s1,a0,1722 # 16ba <.Lline_table_start1+0x148f>
   1175e:	4709                	li	a4,2
   11760:	07f00813          	li	a6,127
   11764:	8526                	mv	a0,s1
   11766:	4681                	li	a3,0
   11768:	00000073          	ecall
   1176c:	02a86963          	bltu	a6,a0,1179e <_ZN18complex_no_dynamic3app17h195ea85fd642f877E+0xa6>
   11770:	853e                	mv	a0,a5
   11772:	4601                	li	a2,0
   11774:	4681                	li	a3,0
   11776:	4705                	li	a4,1
   11778:	00e40023          	sb	a4,0(s0)
   1177c:	c04c                	sw	a1,4(s0)
   1177e:	4591                	li	a1,4
   11780:	470d                	li	a4,3
   11782:	00000073          	ecall
   11786:	45a5                	li	a1,9
   11788:	4711                	li	a4,4
   1178a:	853e                	mv	a0,a5
   1178c:	4601                	li	a2,0
   1178e:	4681                	li	a3,0
   11790:	00000073          	ecall
   11794:	50ba                	lw	ra,172(sp)
   11796:	542a                	lw	s0,168(sp)
   11798:	549a                	lw	s1,164(sp)
   1179a:	614d                	addi	sp,sp,176
   1179c:	8082                	ret
   1179e:	8526                	mv	a0,s1
   117a0:	4601                	li	a2,0
   117a2:	4681                	li	a3,0
   117a4:	4591                	li	a1,4
   117a6:	470d                	li	a4,3
   117a8:	00000073          	ecall
   117ac:	4591                	li	a1,4
   117ae:	470d                	li	a4,3
   117b0:	8526                	mv	a0,s1
   117b2:	4601                	li	a2,0
   117b4:	4681                	li	a3,0
   117b6:	00000073          	ecall
   117ba:	00140513          	addi	a0,s0,1
   117be:	05710593          	addi	a1,sp,87
   117c2:	04d00613          	li	a2,77
   117c6:	0000a097          	auipc	ra,0xa
   117ca:	2c4080e7          	jalr	708(ra) # 1ba8a <memcpy>
   117ce:	8526                	mv	a0,s1
   117d0:	4601                	li	a2,0
   117d2:	4681                	li	a3,0
   117d4:	00040023          	sb	zero,0(s0)
   117d8:	4591                	li	a1,4
   117da:	470d                	li	a4,3
   117dc:	00000073          	ecall
   117e0:	45a5                	li	a1,9
   117e2:	4711                	li	a4,4
   117e4:	8526                	mv	a0,s1
   117e6:	4601                	li	a2,0
   117e8:	4681                	li	a3,0
   117ea:	00000073          	ecall
   117ee:	b75d                	j	11794 <_ZN18complex_no_dynamic3app17h195ea85fd642f877E+0x9c>

000117f0 <_ZN18complex_no_dynamic3app17h1a9f63ea001f8786E>:
   117f0:	7159                	addi	sp,sp,-112
   117f2:	d686                	sw	ra,108(sp)
   117f4:	d4a2                	sw	s0,104(sp)
   117f6:	d2a6                	sw	s1,100(sp)
   117f8:	842a                	mv	s0,a0
   117fa:	00310513          	addi	a0,sp,3
   117fe:	05100613          	li	a2,81
   11802:	0000a097          	auipc	ra,0xa
   11806:	288080e7          	jalr	648(ra) # 1ba8a <memcpy>
   1180a:	06010123          	sb	zero,98(sp)
   1180e:	ca82                	sw	zero,84(sp)
   11810:	cc82                	sw	zero,88(sp)
   11812:	ce82                	sw	zero,92(sp)
   11814:	06011023          	sh	zero,96(sp)
   11818:	6505                	lui	a0,0x1
   1181a:	00310613          	addi	a2,sp,3
   1181e:	05100693          	li	a3,81
   11822:	3bf50793          	addi	a5,a0,959 # 13bf <.Lline_table_start1+0x1194>
   11826:	4711                	li	a4,4
   11828:	4489                	li	s1,2
   1182a:	853e                	mv	a0,a5
   1182c:	4581                	li	a1,0
   1182e:	00000073          	ecall
   11832:	02950963          	beq	a0,s1,11864 <_ZN18complex_no_dynamic3app17h1a9f63ea001f8786E+0x74>
   11836:	458d                	li	a1,3
   11838:	08d0                	addi	a2,sp,84
   1183a:	46bd                	li	a3,15
   1183c:	470d                	li	a4,3
   1183e:	853e                	mv	a0,a5
   11840:	00000073          	ecall
   11844:	02950063          	beq	a0,s1,11864 <_ZN18complex_no_dynamic3app17h1a9f63ea001f8786E+0x74>
   11848:	6505                	lui	a0,0x1
   1184a:	460d                	li	a2,3
   1184c:	3bf50493          	addi	s1,a0,959 # 13bf <.Lline_table_start1+0x1194>
   11850:	4709                	li	a4,2
   11852:	07f00813          	li	a6,127
   11856:	8526                	mv	a0,s1
   11858:	4581                	li	a1,0
   1185a:	4681                	li	a3,0
   1185c:	00000073          	ecall
   11860:	02a86a63          	bltu	a6,a0,11894 <_ZN18complex_no_dynamic3app17h1a9f63ea001f8786E+0xa4>
   11864:	862e                	mv	a2,a1
   11866:	4505                	li	a0,1
   11868:	458d                	li	a1,3
   1186a:	00a40023          	sb	a0,0(s0)
   1186e:	c050                	sw	a2,4(s0)
   11870:	470d                	li	a4,3
   11872:	853e                	mv	a0,a5
   11874:	4601                	li	a2,0
   11876:	4681                	li	a3,0
   11878:	00000073          	ecall
   1187c:	4711                	li	a4,4
   1187e:	853e                	mv	a0,a5
   11880:	4581                	li	a1,0
   11882:	4601                	li	a2,0
   11884:	4681                	li	a3,0
   11886:	00000073          	ecall
   1188a:	50b6                	lw	ra,108(sp)
   1188c:	5426                	lw	s0,104(sp)
   1188e:	5496                	lw	s1,100(sp)
   11890:	6165                	addi	sp,sp,112
   11892:	8082                	ret
   11894:	8526                	mv	a0,s1
   11896:	4601                	li	a2,0
   11898:	4681                	li	a3,0
   1189a:	458d                	li	a1,3
   1189c:	470d                	li	a4,3
   1189e:	00000073          	ecall
   118a2:	458d                	li	a1,3
   118a4:	470d                	li	a4,3
   118a6:	8526                	mv	a0,s1
   118a8:	4601                	li	a2,0
   118aa:	4681                	li	a3,0
   118ac:	00000073          	ecall
   118b0:	00140513          	addi	a0,s0,1
   118b4:	08cc                	addi	a1,sp,84
   118b6:	463d                	li	a2,15
   118b8:	0000a097          	auipc	ra,0xa
   118bc:	1d2080e7          	jalr	466(ra) # 1ba8a <memcpy>
   118c0:	00040023          	sb	zero,0(s0)
   118c4:	458d                	li	a1,3
   118c6:	470d                	li	a4,3
   118c8:	8526                	mv	a0,s1
   118ca:	4601                	li	a2,0
   118cc:	4681                	li	a3,0
   118ce:	00000073          	ecall
   118d2:	4711                	li	a4,4
   118d4:	8526                	mv	a0,s1
   118d6:	4581                	li	a1,0
   118d8:	4601                	li	a2,0
   118da:	4681                	li	a3,0
   118dc:	00000073          	ecall
   118e0:	b76d                	j	1188a <_ZN18complex_no_dynamic3app17h1a9f63ea001f8786E+0x9a>

000118e2 <_ZN18complex_no_dynamic3app17h1be1f831664dbddfE>:
   118e2:	7135                	addi	sp,sp,-160
   118e4:	cf06                	sw	ra,156(sp)
   118e6:	cd22                	sw	s0,152(sp)
   118e8:	cb26                	sw	s1,148(sp)
   118ea:	c94a                	sw	s2,144(sp)
   118ec:	c74e                	sw	s3,140(sp)
   118ee:	c552                	sw	s4,136(sp)
   118f0:	892a                	mv	s2,a0
   118f2:	0185c503          	lbu	a0,24(a1)
   118f6:	0195c603          	lbu	a2,25(a1)
   118fa:	01a5c803          	lbu	a6,26(a1)
   118fe:	01b5c283          	lbu	t0,27(a1)
   11902:	0145c883          	lbu	a7,20(a1)
   11906:	0155cf03          	lbu	t5,21(a1)
   1190a:	0165c403          	lbu	s0,22(a1)
   1190e:	0175c683          	lbu	a3,23(a1)
   11912:	0105c783          	lbu	a5,16(a1)
   11916:	0115c703          	lbu	a4,17(a1)
   1191a:	0125c303          	lbu	t1,18(a1)
   1191e:	0135c383          	lbu	t2,19(a1)
   11922:	0622                	slli	a2,a2,0x8
   11924:	00a66e33          	or	t3,a2,a0
   11928:	00c5ce83          	lbu	t4,12(a1)
   1192c:	00d5c603          	lbu	a2,13(a1)
   11930:	00e5c503          	lbu	a0,14(a1)
   11934:	00f5c483          	lbu	s1,15(a1)
   11938:	0842                	slli	a6,a6,0x10
   1193a:	02e2                	slli	t0,t0,0x18
   1193c:	0f22                	slli	t5,t5,0x8
   1193e:	0442                	slli	s0,s0,0x10
   11940:	06e2                	slli	a3,a3,0x18
   11942:	0722                	slli	a4,a4,0x8
   11944:	0102e833          	or	a6,t0,a6
   11948:	011f68b3          	or	a7,t5,a7
   1194c:	0086e2b3          	or	t0,a3,s0
   11950:	00f76f33          	or	t5,a4,a5
   11954:	0085c703          	lbu	a4,8(a1)
   11958:	0095c403          	lbu	s0,9(a1)
   1195c:	00a5c683          	lbu	a3,10(a1)
   11960:	00b5c783          	lbu	a5,11(a1)
   11964:	0342                	slli	t1,t1,0x10
   11966:	03e2                	slli	t2,t2,0x18
   11968:	0622                	slli	a2,a2,0x8
   1196a:	0542                	slli	a0,a0,0x10
   1196c:	04e2                	slli	s1,s1,0x18
   1196e:	0422                	slli	s0,s0,0x8
   11970:	0063e333          	or	t1,t2,t1
   11974:	01d663b3          	or	t2,a2,t4
   11978:	00a4eeb3          	or	t4,s1,a0
   1197c:	00e46fb3          	or	t6,s0,a4
   11980:	0045c483          	lbu	s1,4(a1)
   11984:	0055c403          	lbu	s0,5(a1)
   11988:	0065c603          	lbu	a2,6(a1)
   1198c:	0075c503          	lbu	a0,7(a1)
   11990:	06c2                	slli	a3,a3,0x10
   11992:	07e2                	slli	a5,a5,0x18
   11994:	0422                	slli	s0,s0,0x8
   11996:	0642                	slli	a2,a2,0x10
   11998:	0562                	slli	a0,a0,0x18
   1199a:	00d7e9b3          	or	s3,a5,a3
   1199e:	00946a33          	or	s4,s0,s1
   119a2:	0005c783          	lbu	a5,0(a1)
   119a6:	0015c483          	lbu	s1,1(a1)
   119aa:	8d51                	or	a0,a0,a2
   119ac:	0025c603          	lbu	a2,2(a1)
   119b0:	0035c583          	lbu	a1,3(a1)
   119b4:	04a2                	slli	s1,s1,0x8
   119b6:	8fc5                	or	a5,a5,s1
   119b8:	0642                	slli	a2,a2,0x10
   119ba:	05e2                	slli	a1,a1,0x18
   119bc:	8dd1                	or	a1,a1,a2
   119be:	01c86633          	or	a2,a6,t3
   119c2:	0112e4b3          	or	s1,t0,a7
   119c6:	01e36733          	or	a4,t1,t5
   119ca:	007ee6b3          	or	a3,t4,t2
   119ce:	01f9e433          	or	s0,s3,t6
   119d2:	01456533          	or	a0,a0,s4
   119d6:	8ddd                	or	a1,a1,a5
   119d8:	ce3a                	sw	a4,28(sp)
   119da:	d026                	sw	s1,32(sp)
   119dc:	d232                	sw	a2,36(sp)
   119de:	c62e                	sw	a1,12(sp)
   119e0:	c82a                	sw	a0,16(sp)
   119e2:	ca22                	sw	s0,20(sp)
   119e4:	cc36                	sw	a3,24(sp)
   119e6:	02b10513          	addi	a0,sp,43
   119ea:	05d00613          	li	a2,93
   119ee:	4581                	li	a1,0
   119f0:	0000a097          	auipc	ra,0xa
   119f4:	02e080e7          	jalr	46(ra) # 1ba1e <memset>
   119f8:	6505                	lui	a0,0x1
   119fa:	45a1                	li	a1,8
   119fc:	0070                	addi	a2,sp,12
   119fe:	46f1                	li	a3,28
   11a00:	c3e50793          	addi	a5,a0,-962 # c3e <.Lline_table_start1+0xa13>
   11a04:	4711                	li	a4,4
   11a06:	4489                	li	s1,2
   11a08:	853e                	mv	a0,a5
   11a0a:	00000073          	ecall
   11a0e:	02950b63          	beq	a0,s1,11a44 <_ZN18complex_no_dynamic3app17h1be1f831664dbddfE+0x162>
   11a12:	4595                	li	a1,5
   11a14:	02b10613          	addi	a2,sp,43
   11a18:	05d00693          	li	a3,93
   11a1c:	470d                	li	a4,3
   11a1e:	853e                	mv	a0,a5
   11a20:	00000073          	ecall
   11a24:	02950063          	beq	a0,s1,11a44 <_ZN18complex_no_dynamic3app17h1be1f831664dbddfE+0x162>
   11a28:	6505                	lui	a0,0x1
   11a2a:	45a1                	li	a1,8
   11a2c:	4615                	li	a2,5
   11a2e:	c3e50493          	addi	s1,a0,-962 # c3e <.Lline_table_start1+0xa13>
   11a32:	4709                	li	a4,2
   11a34:	07f00413          	li	s0,127
   11a38:	8526                	mv	a0,s1
   11a3a:	4681                	li	a3,0
   11a3c:	00000073          	ecall
   11a40:	02a46d63          	bltu	s0,a0,11a7a <_ZN18complex_no_dynamic3app17h1be1f831664dbddfE+0x198>
   11a44:	853e                	mv	a0,a5
   11a46:	4601                	li	a2,0
   11a48:	4681                	li	a3,0
   11a4a:	4705                	li	a4,1
   11a4c:	00e90023          	sb	a4,0(s2)
   11a50:	00b92223          	sw	a1,4(s2)
   11a54:	4595                	li	a1,5
   11a56:	470d                	li	a4,3
   11a58:	00000073          	ecall
   11a5c:	45a1                	li	a1,8
   11a5e:	4711                	li	a4,4
   11a60:	853e                	mv	a0,a5
   11a62:	4601                	li	a2,0
   11a64:	4681                	li	a3,0
   11a66:	00000073          	ecall
   11a6a:	40fa                	lw	ra,156(sp)
   11a6c:	446a                	lw	s0,152(sp)
   11a6e:	44da                	lw	s1,148(sp)
   11a70:	494a                	lw	s2,144(sp)
   11a72:	49ba                	lw	s3,140(sp)
   11a74:	4a2a                	lw	s4,136(sp)
   11a76:	610d                	addi	sp,sp,160
   11a78:	8082                	ret
   11a7a:	8526                	mv	a0,s1
   11a7c:	4601                	li	a2,0
   11a7e:	4681                	li	a3,0
   11a80:	4595                	li	a1,5
   11a82:	470d                	li	a4,3
   11a84:	00000073          	ecall
   11a88:	4595                	li	a1,5
   11a8a:	470d                	li	a4,3
   11a8c:	8526                	mv	a0,s1
   11a8e:	4601                	li	a2,0
   11a90:	4681                	li	a3,0
   11a92:	00000073          	ecall
   11a96:	00190513          	addi	a0,s2,1
   11a9a:	02b10593          	addi	a1,sp,43
   11a9e:	05d00613          	li	a2,93
   11aa2:	0000a097          	auipc	ra,0xa
   11aa6:	fe8080e7          	jalr	-24(ra) # 1ba8a <memcpy>
   11aaa:	8526                	mv	a0,s1
   11aac:	4601                	li	a2,0
   11aae:	4681                	li	a3,0
   11ab0:	00090023          	sb	zero,0(s2)
   11ab4:	4595                	li	a1,5
   11ab6:	470d                	li	a4,3
   11ab8:	00000073          	ecall
   11abc:	45a1                	li	a1,8
   11abe:	4711                	li	a4,4
   11ac0:	8526                	mv	a0,s1
   11ac2:	4601                	li	a2,0
   11ac4:	4681                	li	a3,0
   11ac6:	00000073          	ecall
   11aca:	b745                	j	11a6a <_ZN18complex_no_dynamic3app17h1be1f831664dbddfE+0x188>

00011acc <_ZN18complex_no_dynamic3app17h1ca51d27962bcf74E>:
   11acc:	715d                	addi	sp,sp,-80
   11ace:	c686                	sw	ra,76(sp)
   11ad0:	c4a2                	sw	s0,72(sp)
   11ad2:	c2a6                	sw	s1,68(sp)
   11ad4:	c0ca                	sw	s2,64(sp)
   11ad6:	892a                	mv	s2,a0
   11ad8:	0145c803          	lbu	a6,20(a1)
   11adc:	0155c383          	lbu	t2,21(a1)
   11ae0:	0165c483          	lbu	s1,22(a1)
   11ae4:	0175c703          	lbu	a4,23(a1)
   11ae8:	0105c783          	lbu	a5,16(a1)
   11aec:	0115c683          	lbu	a3,17(a1)
   11af0:	0125c283          	lbu	t0,18(a1)
   11af4:	0135c303          	lbu	t1,19(a1)
   11af8:	00c5c883          	lbu	a7,12(a1)
   11afc:	00d5c403          	lbu	s0,13(a1)
   11b00:	00e5c503          	lbu	a0,14(a1)
   11b04:	00f5c603          	lbu	a2,15(a1)
   11b08:	03a2                	slli	t2,t2,0x8
   11b0a:	04c2                	slli	s1,s1,0x10
   11b0c:	0762                	slli	a4,a4,0x18
   11b0e:	06a2                	slli	a3,a3,0x8
   11b10:	0103e833          	or	a6,t2,a6
   11b14:	00976e33          	or	t3,a4,s1
   11b18:	00f6e3b3          	or	t2,a3,a5
   11b1c:	0085c703          	lbu	a4,8(a1)
   11b20:	0095c783          	lbu	a5,9(a1)
   11b24:	00a5c683          	lbu	a3,10(a1)
   11b28:	00b5c483          	lbu	s1,11(a1)
   11b2c:	02c2                	slli	t0,t0,0x10
   11b2e:	0362                	slli	t1,t1,0x18
   11b30:	0422                	slli	s0,s0,0x8
   11b32:	0542                	slli	a0,a0,0x10
   11b34:	0662                	slli	a2,a2,0x18
   11b36:	07a2                	slli	a5,a5,0x8
   11b38:	005362b3          	or	t0,t1,t0
   11b3c:	01146333          	or	t1,s0,a7
   11b40:	00a66eb3          	or	t4,a2,a0
   11b44:	00e7e8b3          	or	a7,a5,a4
   11b48:	0045c603          	lbu	a2,4(a1)
   11b4c:	0055c783          	lbu	a5,5(a1)
   11b50:	0065c703          	lbu	a4,6(a1)
   11b54:	0075c403          	lbu	s0,7(a1)
   11b58:	06c2                	slli	a3,a3,0x10
   11b5a:	04e2                	slli	s1,s1,0x18
   11b5c:	07a2                	slli	a5,a5,0x8
   11b5e:	0742                	slli	a4,a4,0x10
   11b60:	0462                	slli	s0,s0,0x18
   11b62:	00d4e533          	or	a0,s1,a3
   11b66:	00c7ef33          	or	t5,a5,a2
   11b6a:	0005c783          	lbu	a5,0(a1)
   11b6e:	0015c483          	lbu	s1,1(a1)
   11b72:	00e46633          	or	a2,s0,a4
   11b76:	0025c403          	lbu	s0,2(a1)
   11b7a:	0035c583          	lbu	a1,3(a1)
   11b7e:	04a2                	slli	s1,s1,0x8
   11b80:	00f4efb3          	or	t6,s1,a5
   11b84:	0442                	slli	s0,s0,0x10
   11b86:	05e2                	slli	a1,a1,0x18
   11b88:	0085e6b3          	or	a3,a1,s0
   11b8c:	010e6e33          	or	t3,t3,a6
   11b90:	0072e733          	or	a4,t0,t2
   11b94:	d802                	sw	zero,48(sp)
   11b96:	da02                	sw	zero,52(sp)
   11b98:	dc02                	sw	zero,56(sp)
   11b9a:	02011e23          	sh	zero,60(sp)
   11b9e:	d002                	sw	zero,32(sp)
   11ba0:	d202                	sw	zero,36(sp)
   11ba2:	d402                	sw	zero,40(sp)
   11ba4:	d602                	sw	zero,44(sp)
   11ba6:	006ee4b3          	or	s1,t4,t1
   11baa:	6805                	lui	a6,0x1
   11bac:	01156533          	or	a0,a0,a7
   11bb0:	45a5                	li	a1,9
   11bb2:	01e66433          	or	s0,a2,t5
   11bb6:	0030                	addi	a2,sp,8
   11bb8:	01f6e7b3          	or	a5,a3,t6
   11bbc:	46e1                	li	a3,24
   11bbe:	cc3a                	sw	a4,24(sp)
   11bc0:	ce72                	sw	t3,28(sp)
   11bc2:	4711                	li	a4,4
   11bc4:	cbb80813          	addi	a6,a6,-837 # cbb <.Lline_table_start1+0xa90>
   11bc8:	c43e                	sw	a5,8(sp)
   11bca:	c622                	sw	s0,12(sp)
   11bcc:	c82a                	sw	a0,16(sp)
   11bce:	ca26                	sw	s1,20(sp)
   11bd0:	4489                	li	s1,2
   11bd2:	8542                	mv	a0,a6
   11bd4:	00000073          	ecall
   11bd8:	02950963          	beq	a0,s1,11c0a <_ZN18complex_no_dynamic3app17h1ca51d27962bcf74E+0x13e>
   11bdc:	4595                	li	a1,5
   11bde:	1010                	addi	a2,sp,32
   11be0:	46f9                	li	a3,30
   11be2:	470d                	li	a4,3
   11be4:	8542                	mv	a0,a6
   11be6:	00000073          	ecall
   11bea:	02950063          	beq	a0,s1,11c0a <_ZN18complex_no_dynamic3app17h1ca51d27962bcf74E+0x13e>
   11bee:	6505                	lui	a0,0x1
   11bf0:	45a5                	li	a1,9
   11bf2:	4615                	li	a2,5
   11bf4:	cbb50493          	addi	s1,a0,-837 # cbb <.Lline_table_start1+0xa90>
   11bf8:	4709                	li	a4,2
   11bfa:	07f00793          	li	a5,127
   11bfe:	8526                	mv	a0,s1
   11c00:	4681                	li	a3,0
   11c02:	00000073          	ecall
   11c06:	02a7eb63          	bltu	a5,a0,11c3c <_ZN18complex_no_dynamic3app17h1ca51d27962bcf74E+0x170>
   11c0a:	8542                	mv	a0,a6
   11c0c:	4601                	li	a2,0
   11c0e:	4681                	li	a3,0
   11c10:	4705                	li	a4,1
   11c12:	00e90023          	sb	a4,0(s2)
   11c16:	00b92223          	sw	a1,4(s2)
   11c1a:	4595                	li	a1,5
   11c1c:	470d                	li	a4,3
   11c1e:	00000073          	ecall
   11c22:	45a5                	li	a1,9
   11c24:	4711                	li	a4,4
   11c26:	8542                	mv	a0,a6
   11c28:	4601                	li	a2,0
   11c2a:	4681                	li	a3,0
   11c2c:	00000073          	ecall
   11c30:	40b6                	lw	ra,76(sp)
   11c32:	4426                	lw	s0,72(sp)
   11c34:	4496                	lw	s1,68(sp)
   11c36:	4906                	lw	s2,64(sp)
   11c38:	6161                	addi	sp,sp,80
   11c3a:	8082                	ret
   11c3c:	8526                	mv	a0,s1
   11c3e:	4601                	li	a2,0
   11c40:	4681                	li	a3,0
   11c42:	4595                	li	a1,5
   11c44:	470d                	li	a4,3
   11c46:	00000073          	ecall
   11c4a:	4595                	li	a1,5
   11c4c:	470d                	li	a4,3
   11c4e:	8526                	mv	a0,s1
   11c50:	4601                	li	a2,0
   11c52:	4681                	li	a3,0
   11c54:	00000073          	ecall
   11c58:	00190513          	addi	a0,s2,1
   11c5c:	100c                	addi	a1,sp,32
   11c5e:	4679                	li	a2,30
   11c60:	0000a097          	auipc	ra,0xa
   11c64:	e2a080e7          	jalr	-470(ra) # 1ba8a <memcpy>
   11c68:	8526                	mv	a0,s1
   11c6a:	4601                	li	a2,0
   11c6c:	4681                	li	a3,0
   11c6e:	00090023          	sb	zero,0(s2)
   11c72:	4595                	li	a1,5
   11c74:	470d                	li	a4,3
   11c76:	00000073          	ecall
   11c7a:	45a5                	li	a1,9
   11c7c:	4711                	li	a4,4
   11c7e:	8526                	mv	a0,s1
   11c80:	4601                	li	a2,0
   11c82:	4681                	li	a3,0
   11c84:	00000073          	ecall
   11c88:	b765                	j	11c30 <_ZN18complex_no_dynamic3app17h1ca51d27962bcf74E+0x164>

00011c8a <_ZN18complex_no_dynamic3app17h2065cca9b87e41daE>:
   11c8a:	7175                	addi	sp,sp,-144
   11c8c:	c706                	sw	ra,140(sp)
   11c8e:	c522                	sw	s0,136(sp)
   11c90:	c326                	sw	s1,132(sp)
   11c92:	842a                	mv	s0,a0
   11c94:	850a                	mv	a0,sp
   11c96:	04f00613          	li	a2,79
   11c9a:	0000a097          	auipc	ra,0xa
   11c9e:	df0080e7          	jalr	-528(ra) # 1ba8a <memcpy>
   11ca2:	04f10513          	addi	a0,sp,79
   11ca6:	03500613          	li	a2,53
   11caa:	4581                	li	a1,0
   11cac:	0000a097          	auipc	ra,0xa
   11cb0:	d72080e7          	jalr	-654(ra) # 1ba1e <memset>
   11cb4:	6505                	lui	a0,0x1
   11cb6:	459d                	li	a1,7
   11cb8:	860a                	mv	a2,sp
   11cba:	04f00693          	li	a3,79
   11cbe:	6d750793          	addi	a5,a0,1751 # 16d7 <.Lline_table_start1+0x14ac>
   11cc2:	4711                	li	a4,4
   11cc4:	4489                	li	s1,2
   11cc6:	853e                	mv	a0,a5
   11cc8:	00000073          	ecall
   11ccc:	02950b63          	beq	a0,s1,11d02 <_ZN18complex_no_dynamic3app17h2065cca9b87e41daE+0x78>
   11cd0:	4585                	li	a1,1
   11cd2:	04f10613          	addi	a2,sp,79
   11cd6:	03500693          	li	a3,53
   11cda:	470d                	li	a4,3
   11cdc:	853e                	mv	a0,a5
   11cde:	00000073          	ecall
   11ce2:	02950063          	beq	a0,s1,11d02 <_ZN18complex_no_dynamic3app17h2065cca9b87e41daE+0x78>
   11ce6:	6505                	lui	a0,0x1
   11ce8:	459d                	li	a1,7
   11cea:	4605                	li	a2,1
   11cec:	6d750493          	addi	s1,a0,1751 # 16d7 <.Lline_table_start1+0x14ac>
   11cf0:	4709                	li	a4,2
   11cf2:	07f00813          	li	a6,127
   11cf6:	8526                	mv	a0,s1
   11cf8:	4681                	li	a3,0
   11cfa:	00000073          	ecall
   11cfe:	02a86963          	bltu	a6,a0,11d30 <_ZN18complex_no_dynamic3app17h2065cca9b87e41daE+0xa6>
   11d02:	853e                	mv	a0,a5
   11d04:	4601                	li	a2,0
   11d06:	4681                	li	a3,0
   11d08:	4705                	li	a4,1
   11d0a:	00e40023          	sb	a4,0(s0)
   11d0e:	c04c                	sw	a1,4(s0)
   11d10:	4585                	li	a1,1
   11d12:	470d                	li	a4,3
   11d14:	00000073          	ecall
   11d18:	459d                	li	a1,7
   11d1a:	4711                	li	a4,4
   11d1c:	853e                	mv	a0,a5
   11d1e:	4601                	li	a2,0
   11d20:	4681                	li	a3,0
   11d22:	00000073          	ecall
   11d26:	40ba                	lw	ra,140(sp)
   11d28:	442a                	lw	s0,136(sp)
   11d2a:	449a                	lw	s1,132(sp)
   11d2c:	6149                	addi	sp,sp,144
   11d2e:	8082                	ret
   11d30:	8526                	mv	a0,s1
   11d32:	4601                	li	a2,0
   11d34:	4681                	li	a3,0
   11d36:	4585                	li	a1,1
   11d38:	470d                	li	a4,3
   11d3a:	00000073          	ecall
   11d3e:	4585                	li	a1,1
   11d40:	470d                	li	a4,3
   11d42:	8526                	mv	a0,s1
   11d44:	4601                	li	a2,0
   11d46:	4681                	li	a3,0
   11d48:	00000073          	ecall
   11d4c:	00140513          	addi	a0,s0,1
   11d50:	04f10593          	addi	a1,sp,79
   11d54:	03500613          	li	a2,53
   11d58:	0000a097          	auipc	ra,0xa
   11d5c:	d32080e7          	jalr	-718(ra) # 1ba8a <memcpy>
   11d60:	8526                	mv	a0,s1
   11d62:	4601                	li	a2,0
   11d64:	4681                	li	a3,0
   11d66:	00040023          	sb	zero,0(s0)
   11d6a:	4585                	li	a1,1
   11d6c:	470d                	li	a4,3
   11d6e:	00000073          	ecall
   11d72:	459d                	li	a1,7
   11d74:	4711                	li	a4,4
   11d76:	8526                	mv	a0,s1
   11d78:	4601                	li	a2,0
   11d7a:	4681                	li	a3,0
   11d7c:	00000073          	ecall
   11d80:	b75d                	j	11d26 <_ZN18complex_no_dynamic3app17h2065cca9b87e41daE+0x9c>

00011d82 <_ZN18complex_no_dynamic3app17h219c7d24cbc871d9E>:
   11d82:	7119                	addi	sp,sp,-128
   11d84:	de86                	sw	ra,124(sp)
   11d86:	dca2                	sw	s0,120(sp)
   11d88:	842a                	mv	s0,a0
   11d8a:	0068                	addi	a0,sp,12
   11d8c:	03800613          	li	a2,56
   11d90:	0000a097          	auipc	ra,0xa
   11d94:	cfa080e7          	jalr	-774(ra) # 1ba8a <memcpy>
   11d98:	00c8                	addi	a0,sp,68
   11d9a:	03400613          	li	a2,52
   11d9e:	4581                	li	a1,0
   11da0:	0000a097          	auipc	ra,0xa
   11da4:	c7e080e7          	jalr	-898(ra) # 1ba1e <memset>
   11da8:	12e00513          	li	a0,302
   11dac:	45a1                	li	a1,8
   11dae:	0070                	addi	a2,sp,12
   11db0:	03800693          	li	a3,56
   11db4:	4711                	li	a4,4
   11db6:	4789                	li	a5,2
   11db8:	00000073          	ecall
   11dbc:	02f50963          	beq	a0,a5,11dee <_ZN18complex_no_dynamic3app17h219c7d24cbc871d9E+0x6c>
   11dc0:	12e00513          	li	a0,302
   11dc4:	458d                	li	a1,3
   11dc6:	00d0                	addi	a2,sp,68
   11dc8:	03400693          	li	a3,52
   11dcc:	470d                	li	a4,3
   11dce:	00000073          	ecall
   11dd2:	00f50e63          	beq	a0,a5,11dee <_ZN18complex_no_dynamic3app17h219c7d24cbc871d9E+0x6c>
   11dd6:	12e00513          	li	a0,302
   11dda:	45a1                	li	a1,8
   11ddc:	460d                	li	a2,3
   11dde:	4709                	li	a4,2
   11de0:	07f00793          	li	a5,127
   11de4:	4681                	li	a3,0
   11de6:	00000073          	ecall
   11dea:	02a7ea63          	bltu	a5,a0,11e1e <_ZN18complex_no_dynamic3app17h219c7d24cbc871d9E+0x9c>
   11dee:	4601                	li	a2,0
   11df0:	4681                	li	a3,0
   11df2:	4705                	li	a4,1
   11df4:	12e00513          	li	a0,302
   11df8:	00e40023          	sb	a4,0(s0)
   11dfc:	c04c                	sw	a1,4(s0)
   11dfe:	458d                	li	a1,3
   11e00:	470d                	li	a4,3
   11e02:	00000073          	ecall
   11e06:	12e00513          	li	a0,302
   11e0a:	45a1                	li	a1,8
   11e0c:	4711                	li	a4,4
   11e0e:	4601                	li	a2,0
   11e10:	4681                	li	a3,0
   11e12:	00000073          	ecall
   11e16:	50f6                	lw	ra,124(sp)
   11e18:	5466                	lw	s0,120(sp)
   11e1a:	6109                	addi	sp,sp,128
   11e1c:	8082                	ret
   11e1e:	4601                	li	a2,0
   11e20:	4681                	li	a3,0
   11e22:	12e00513          	li	a0,302
   11e26:	458d                	li	a1,3
   11e28:	470d                	li	a4,3
   11e2a:	00000073          	ecall
   11e2e:	12e00513          	li	a0,302
   11e32:	458d                	li	a1,3
   11e34:	470d                	li	a4,3
   11e36:	4601                	li	a2,0
   11e38:	4681                	li	a3,0
   11e3a:	00000073          	ecall
   11e3e:	00140513          	addi	a0,s0,1
   11e42:	00cc                	addi	a1,sp,68
   11e44:	03400613          	li	a2,52
   11e48:	0000a097          	auipc	ra,0xa
   11e4c:	c42080e7          	jalr	-958(ra) # 1ba8a <memcpy>
   11e50:	4601                	li	a2,0
   11e52:	4681                	li	a3,0
   11e54:	00040023          	sb	zero,0(s0)
   11e58:	12e00513          	li	a0,302
   11e5c:	458d                	li	a1,3
   11e5e:	470d                	li	a4,3
   11e60:	00000073          	ecall
   11e64:	12e00513          	li	a0,302
   11e68:	45a1                	li	a1,8
   11e6a:	4711                	li	a4,4
   11e6c:	4601                	li	a2,0
   11e6e:	4681                	li	a3,0
   11e70:	00000073          	ecall
   11e74:	b74d                	j	11e16 <_ZN18complex_no_dynamic3app17h219c7d24cbc871d9E+0x94>

00011e76 <_ZN18complex_no_dynamic3app17h227f367e7099d497E>:
   11e76:	7135                	addi	sp,sp,-160
   11e78:	cf06                	sw	ra,156(sp)
   11e7a:	cd22                	sw	s0,152(sp)
   11e7c:	cb26                	sw	s1,148(sp)
   11e7e:	842a                	mv	s0,a0
   11e80:	00710513          	addi	a0,sp,7
   11e84:	05300613          	li	a2,83
   11e88:	0000a097          	auipc	ra,0xa
   11e8c:	c02080e7          	jalr	-1022(ra) # 1ba8a <memcpy>
   11e90:	05a10513          	addi	a0,sp,90
   11e94:	03a00613          	li	a2,58
   11e98:	4581                	li	a1,0
   11e9a:	0000a097          	auipc	ra,0xa
   11e9e:	b84080e7          	jalr	-1148(ra) # 1ba1e <memset>
   11ea2:	6509                	lui	a0,0x2
   11ea4:	4599                	li	a1,6
   11ea6:	00710613          	addi	a2,sp,7
   11eaa:	05300693          	li	a3,83
   11eae:	64550793          	addi	a5,a0,1605 # 2645 <.Lline_table_start1+0x241a>
   11eb2:	4711                	li	a4,4
   11eb4:	4489                	li	s1,2
   11eb6:	853e                	mv	a0,a5
   11eb8:	00000073          	ecall
   11ebc:	02950b63          	beq	a0,s1,11ef2 <_ZN18complex_no_dynamic3app17h227f367e7099d497E+0x7c>
   11ec0:	459d                	li	a1,7
   11ec2:	05a10613          	addi	a2,sp,90
   11ec6:	03a00693          	li	a3,58
   11eca:	470d                	li	a4,3
   11ecc:	853e                	mv	a0,a5
   11ece:	00000073          	ecall
   11ed2:	02950063          	beq	a0,s1,11ef2 <_ZN18complex_no_dynamic3app17h227f367e7099d497E+0x7c>
   11ed6:	6509                	lui	a0,0x2
   11ed8:	4599                	li	a1,6
   11eda:	461d                	li	a2,7
   11edc:	64550493          	addi	s1,a0,1605 # 2645 <.Lline_table_start1+0x241a>
   11ee0:	4709                	li	a4,2
   11ee2:	07f00813          	li	a6,127
   11ee6:	8526                	mv	a0,s1
   11ee8:	4681                	li	a3,0
   11eea:	00000073          	ecall
   11eee:	02a86963          	bltu	a6,a0,11f20 <_ZN18complex_no_dynamic3app17h227f367e7099d497E+0xaa>
   11ef2:	853e                	mv	a0,a5
   11ef4:	4601                	li	a2,0
   11ef6:	4681                	li	a3,0
   11ef8:	4705                	li	a4,1
   11efa:	00e40023          	sb	a4,0(s0)
   11efe:	c04c                	sw	a1,4(s0)
   11f00:	459d                	li	a1,7
   11f02:	470d                	li	a4,3
   11f04:	00000073          	ecall
   11f08:	4599                	li	a1,6
   11f0a:	4711                	li	a4,4
   11f0c:	853e                	mv	a0,a5
   11f0e:	4601                	li	a2,0
   11f10:	4681                	li	a3,0
   11f12:	00000073          	ecall
   11f16:	40fa                	lw	ra,156(sp)
   11f18:	446a                	lw	s0,152(sp)
   11f1a:	44da                	lw	s1,148(sp)
   11f1c:	610d                	addi	sp,sp,160
   11f1e:	8082                	ret
   11f20:	8526                	mv	a0,s1
   11f22:	4601                	li	a2,0
   11f24:	4681                	li	a3,0
   11f26:	459d                	li	a1,7
   11f28:	470d                	li	a4,3
   11f2a:	00000073          	ecall
   11f2e:	459d                	li	a1,7
   11f30:	470d                	li	a4,3
   11f32:	8526                	mv	a0,s1
   11f34:	4601                	li	a2,0
   11f36:	4681                	li	a3,0
   11f38:	00000073          	ecall
   11f3c:	00140513          	addi	a0,s0,1
   11f40:	05a10593          	addi	a1,sp,90
   11f44:	03a00613          	li	a2,58
   11f48:	0000a097          	auipc	ra,0xa
   11f4c:	b42080e7          	jalr	-1214(ra) # 1ba8a <memcpy>
   11f50:	8526                	mv	a0,s1
   11f52:	4601                	li	a2,0
   11f54:	4681                	li	a3,0
   11f56:	00040023          	sb	zero,0(s0)
   11f5a:	459d                	li	a1,7
   11f5c:	470d                	li	a4,3
   11f5e:	00000073          	ecall
   11f62:	4599                	li	a1,6
   11f64:	4711                	li	a4,4
   11f66:	8526                	mv	a0,s1
   11f68:	4601                	li	a2,0
   11f6a:	4681                	li	a3,0
   11f6c:	00000073          	ecall
   11f70:	b75d                	j	11f16 <_ZN18complex_no_dynamic3app17h227f367e7099d497E+0xa0>

00011f72 <_ZN18complex_no_dynamic3app17h27a72bff5b241b7aE>:
   11f72:	7159                	addi	sp,sp,-112
   11f74:	d686                	sw	ra,108(sp)
   11f76:	d4a2                	sw	s0,104(sp)
   11f78:	d2a6                	sw	s1,100(sp)
   11f7a:	842a                	mv	s0,a0
   11f7c:	0068                	addi	a0,sp,12
   11f7e:	04800613          	li	a2,72
   11f82:	0000a097          	auipc	ra,0xa
   11f86:	b08080e7          	jalr	-1272(ra) # 1ba8a <memcpy>
   11f8a:	06010123          	sb	zero,98(sp)
   11f8e:	ca82                	sw	zero,84(sp)
   11f90:	cc82                	sw	zero,88(sp)
   11f92:	ce82                	sw	zero,92(sp)
   11f94:	06011023          	sh	zero,96(sp)
   11f98:	6505                	lui	a0,0x1
   11f9a:	45a1                	li	a1,8
   11f9c:	0070                	addi	a2,sp,12
   11f9e:	04800693          	li	a3,72
   11fa2:	11d50793          	addi	a5,a0,285 # 111d <.Lline_table_start1+0xef2>
   11fa6:	4711                	li	a4,4
   11fa8:	4489                	li	s1,2
   11faa:	853e                	mv	a0,a5
   11fac:	00000073          	ecall
   11fb0:	02950963          	beq	a0,s1,11fe2 <_ZN18complex_no_dynamic3app17h27a72bff5b241b7aE+0x70>
   11fb4:	45a5                	li	a1,9
   11fb6:	08d0                	addi	a2,sp,84
   11fb8:	46bd                	li	a3,15
   11fba:	470d                	li	a4,3
   11fbc:	853e                	mv	a0,a5
   11fbe:	00000073          	ecall
   11fc2:	02950063          	beq	a0,s1,11fe2 <_ZN18complex_no_dynamic3app17h27a72bff5b241b7aE+0x70>
   11fc6:	6505                	lui	a0,0x1
   11fc8:	45a1                	li	a1,8
   11fca:	4625                	li	a2,9
   11fcc:	11d50493          	addi	s1,a0,285 # 111d <.Lline_table_start1+0xef2>
   11fd0:	4709                	li	a4,2
   11fd2:	07f00813          	li	a6,127
   11fd6:	8526                	mv	a0,s1
   11fd8:	4681                	li	a3,0
   11fda:	00000073          	ecall
   11fde:	02a86963          	bltu	a6,a0,12010 <_ZN18complex_no_dynamic3app17h27a72bff5b241b7aE+0x9e>
   11fe2:	853e                	mv	a0,a5
   11fe4:	4601                	li	a2,0
   11fe6:	4681                	li	a3,0
   11fe8:	4705                	li	a4,1
   11fea:	00e40023          	sb	a4,0(s0)
   11fee:	c04c                	sw	a1,4(s0)
   11ff0:	45a5                	li	a1,9
   11ff2:	470d                	li	a4,3
   11ff4:	00000073          	ecall
   11ff8:	45a1                	li	a1,8
   11ffa:	4711                	li	a4,4
   11ffc:	853e                	mv	a0,a5
   11ffe:	4601                	li	a2,0
   12000:	4681                	li	a3,0
   12002:	00000073          	ecall
   12006:	50b6                	lw	ra,108(sp)
   12008:	5426                	lw	s0,104(sp)
   1200a:	5496                	lw	s1,100(sp)
   1200c:	6165                	addi	sp,sp,112
   1200e:	8082                	ret
   12010:	8526                	mv	a0,s1
   12012:	4601                	li	a2,0
   12014:	4681                	li	a3,0
   12016:	45a5                	li	a1,9
   12018:	470d                	li	a4,3
   1201a:	00000073          	ecall
   1201e:	45a5                	li	a1,9
   12020:	470d                	li	a4,3
   12022:	8526                	mv	a0,s1
   12024:	4601                	li	a2,0
   12026:	4681                	li	a3,0
   12028:	00000073          	ecall
   1202c:	00140513          	addi	a0,s0,1
   12030:	08cc                	addi	a1,sp,84
   12032:	463d                	li	a2,15
   12034:	0000a097          	auipc	ra,0xa
   12038:	a56080e7          	jalr	-1450(ra) # 1ba8a <memcpy>
   1203c:	8526                	mv	a0,s1
   1203e:	4601                	li	a2,0
   12040:	4681                	li	a3,0
   12042:	00040023          	sb	zero,0(s0)
   12046:	45a5                	li	a1,9
   12048:	470d                	li	a4,3
   1204a:	00000073          	ecall
   1204e:	45a1                	li	a1,8
   12050:	4711                	li	a4,4
   12052:	8526                	mv	a0,s1
   12054:	4601                	li	a2,0
   12056:	4681                	li	a3,0
   12058:	00000073          	ecall
   1205c:	b76d                	j	12006 <_ZN18complex_no_dynamic3app17h27a72bff5b241b7aE+0x94>

0001205e <_ZN18complex_no_dynamic3app17h284a014a9ff68683E>:
   1205e:	711d                	addi	sp,sp,-96
   12060:	ce86                	sw	ra,92(sp)
   12062:	cca2                	sw	s0,88(sp)
   12064:	caa6                	sw	s1,84(sp)
   12066:	842a                	mv	s0,a0
   12068:	00610513          	addi	a0,sp,6
   1206c:	02300613          	li	a2,35
   12070:	0000a097          	auipc	ra,0xa
   12074:	a1a080e7          	jalr	-1510(ra) # 1ba8a <memcpy>
   12078:	02910513          	addi	a0,sp,41
   1207c:	02b00613          	li	a2,43
   12080:	4581                	li	a1,0
   12082:	0000a097          	auipc	ra,0xa
   12086:	99c080e7          	jalr	-1636(ra) # 1ba1e <memset>
   1208a:	6505                	lui	a0,0x1
   1208c:	4489                	li	s1,2
   1208e:	4589                	li	a1,2
   12090:	00610613          	addi	a2,sp,6
   12094:	d5d50793          	addi	a5,a0,-675 # d5d <.Lline_table_start1+0xb32>
   12098:	02300693          	li	a3,35
   1209c:	4711                	li	a4,4
   1209e:	853e                	mv	a0,a5
   120a0:	00000073          	ecall
   120a4:	02950b63          	beq	a0,s1,120da <_ZN18complex_no_dynamic3app17h284a014a9ff68683E+0x7c>
   120a8:	02910613          	addi	a2,sp,41
   120ac:	02b00693          	li	a3,43
   120b0:	470d                	li	a4,3
   120b2:	853e                	mv	a0,a5
   120b4:	4581                	li	a1,0
   120b6:	00000073          	ecall
   120ba:	02950063          	beq	a0,s1,120da <_ZN18complex_no_dynamic3app17h284a014a9ff68683E+0x7c>
   120be:	6505                	lui	a0,0x1
   120c0:	4589                	li	a1,2
   120c2:	d5d50493          	addi	s1,a0,-675 # d5d <.Lline_table_start1+0xb32>
   120c6:	4709                	li	a4,2
   120c8:	07f00813          	li	a6,127
   120cc:	8526                	mv	a0,s1
   120ce:	4601                	li	a2,0
   120d0:	4681                	li	a3,0
   120d2:	00000073          	ecall
   120d6:	02a86a63          	bltu	a6,a0,1210a <_ZN18complex_no_dynamic3app17h284a014a9ff68683E+0xac>
   120da:	872e                	mv	a4,a1
   120dc:	853e                	mv	a0,a5
   120de:	4581                	li	a1,0
   120e0:	4601                	li	a2,0
   120e2:	4681                	li	a3,0
   120e4:	4485                	li	s1,1
   120e6:	00940023          	sb	s1,0(s0)
   120ea:	c058                	sw	a4,4(s0)
   120ec:	470d                	li	a4,3
   120ee:	00000073          	ecall
   120f2:	4589                	li	a1,2
   120f4:	4711                	li	a4,4
   120f6:	853e                	mv	a0,a5
   120f8:	4601                	li	a2,0
   120fa:	4681                	li	a3,0
   120fc:	00000073          	ecall
   12100:	40f6                	lw	ra,92(sp)
   12102:	4466                	lw	s0,88(sp)
   12104:	44d6                	lw	s1,84(sp)
   12106:	6125                	addi	sp,sp,96
   12108:	8082                	ret
   1210a:	470d                	li	a4,3
   1210c:	8526                	mv	a0,s1
   1210e:	4581                	li	a1,0
   12110:	4601                	li	a2,0
   12112:	4681                	li	a3,0
   12114:	00000073          	ecall
   12118:	470d                	li	a4,3
   1211a:	8526                	mv	a0,s1
   1211c:	4581                	li	a1,0
   1211e:	4601                	li	a2,0
   12120:	4681                	li	a3,0
   12122:	00000073          	ecall
   12126:	00140513          	addi	a0,s0,1
   1212a:	02910593          	addi	a1,sp,41
   1212e:	02b00613          	li	a2,43
   12132:	0000a097          	auipc	ra,0xa
   12136:	958080e7          	jalr	-1704(ra) # 1ba8a <memcpy>
   1213a:	8526                	mv	a0,s1
   1213c:	4581                	li	a1,0
   1213e:	4601                	li	a2,0
   12140:	4681                	li	a3,0
   12142:	00040023          	sb	zero,0(s0)
   12146:	470d                	li	a4,3
   12148:	00000073          	ecall
   1214c:	4589                	li	a1,2
   1214e:	4711                	li	a4,4
   12150:	8526                	mv	a0,s1
   12152:	4601                	li	a2,0
   12154:	4681                	li	a3,0
   12156:	00000073          	ecall
   1215a:	b75d                	j	12100 <_ZN18complex_no_dynamic3app17h284a014a9ff68683E+0xa2>

0001215c <_ZN18complex_no_dynamic3app17h28b47fd001c27732E>:
   1215c:	7175                	addi	sp,sp,-144
   1215e:	c706                	sw	ra,140(sp)
   12160:	c522                	sw	s0,136(sp)
   12162:	c326                	sw	s1,132(sp)
   12164:	c14a                	sw	s2,128(sp)
   12166:	892a                	mv	s2,a0
   12168:	0185c883          	lbu	a7,24(a1)
   1216c:	0195c303          	lbu	t1,25(a1)
   12170:	01a5c803          	lbu	a6,26(a1)
   12174:	0145c283          	lbu	t0,20(a1)
   12178:	0155cf03          	lbu	t5,21(a1)
   1217c:	0165c483          	lbu	s1,22(a1)
   12180:	0175c403          	lbu	s0,23(a1)
   12184:	0105c703          	lbu	a4,16(a1)
   12188:	0115c603          	lbu	a2,17(a1)
   1218c:	0125ce03          	lbu	t3,18(a1)
   12190:	0135ce83          	lbu	t4,19(a1)
   12194:	00c5c383          	lbu	t2,12(a1)
   12198:	00d5cf83          	lbu	t6,13(a1)
   1219c:	00e5c683          	lbu	a3,14(a1)
   121a0:	00f5c783          	lbu	a5,15(a1)
   121a4:	0322                	slli	t1,t1,0x8
   121a6:	0f22                	slli	t5,t5,0x8
   121a8:	04c2                	slli	s1,s1,0x10
   121aa:	0462                	slli	s0,s0,0x18
   121ac:	00861513          	slli	a0,a2,0x8
   121b0:	011368b3          	or	a7,t1,a7
   121b4:	005f62b3          	or	t0,t5,t0
   121b8:	00946f33          	or	t5,s0,s1
   121bc:	00e56333          	or	t1,a0,a4
   121c0:	0085c703          	lbu	a4,8(a1)
   121c4:	0095c403          	lbu	s0,9(a1)
   121c8:	00a5c603          	lbu	a2,10(a1)
   121cc:	00b5c503          	lbu	a0,11(a1)
   121d0:	0e42                	slli	t3,t3,0x10
   121d2:	0ee2                	slli	t4,t4,0x18
   121d4:	0fa2                	slli	t6,t6,0x8
   121d6:	06c2                	slli	a3,a3,0x10
   121d8:	07e2                	slli	a5,a5,0x18
   121da:	0422                	slli	s0,s0,0x8
   121dc:	01ceee33          	or	t3,t4,t3
   121e0:	007fe3b3          	or	t2,t6,t2
   121e4:	00d7eeb3          	or	t4,a5,a3
   121e8:	00e46fb3          	or	t6,s0,a4
   121ec:	0045c783          	lbu	a5,4(a1)
   121f0:	0055c403          	lbu	s0,5(a1)
   121f4:	0065c483          	lbu	s1,6(a1)
   121f8:	0075c683          	lbu	a3,7(a1)
   121fc:	0642                	slli	a2,a2,0x10
   121fe:	0562                	slli	a0,a0,0x18
   12200:	0422                	slli	s0,s0,0x8
   12202:	04c2                	slli	s1,s1,0x10
   12204:	06e2                	slli	a3,a3,0x18
   12206:	8d51                	or	a0,a0,a2
   12208:	8fc1                	or	a5,a5,s0
   1220a:	0005c603          	lbu	a2,0(a1)
   1220e:	0015c403          	lbu	s0,1(a1)
   12212:	8ec5                	or	a3,a3,s1
   12214:	0025c483          	lbu	s1,2(a1)
   12218:	0035c583          	lbu	a1,3(a1)
   1221c:	0422                	slli	s0,s0,0x8
   1221e:	8e41                	or	a2,a2,s0
   12220:	04c2                	slli	s1,s1,0x10
   12222:	05e2                	slli	a1,a1,0x18
   12224:	8dc5                	or	a1,a1,s1
   12226:	005f64b3          	or	s1,t5,t0
   1222a:	006e6433          	or	s0,t3,t1
   1222e:	007ee733          	or	a4,t4,t2
   12232:	01f56533          	or	a0,a0,t6
   12236:	8edd                	or	a3,a3,a5
   12238:	8dd1                	or	a1,a1,a2
   1223a:	c822                	sw	s0,16(sp)
   1223c:	ca26                	sw	s1,20(sp)
   1223e:	01111c23          	sh	a7,24(sp)
   12242:	01010d23          	sb	a6,26(sp)
   12246:	c02e                	sw	a1,0(sp)
   12248:	c236                	sw	a3,4(sp)
   1224a:	c42a                	sw	a0,8(sp)
   1224c:	c63a                	sw	a4,12(sp)
   1224e:	01d10513          	addi	a0,sp,29
   12252:	06300613          	li	a2,99
   12256:	4581                	li	a1,0
   12258:	00009097          	auipc	ra,0x9
   1225c:	7c6080e7          	jalr	1990(ra) # 1ba1e <memset>
   12260:	6509                	lui	a0,0x2
   12262:	458d                	li	a1,3
   12264:	860a                	mv	a2,sp
   12266:	46ed                	li	a3,27
   12268:	54850793          	addi	a5,a0,1352 # 2548 <.Lline_table_start1+0x231d>
   1226c:	4711                	li	a4,4
   1226e:	4489                	li	s1,2
   12270:	853e                	mv	a0,a5
   12272:	00000073          	ecall
   12276:	02950b63          	beq	a0,s1,122ac <_ZN18complex_no_dynamic3app17h28b47fd001c27732E+0x150>
   1227a:	458d                	li	a1,3
   1227c:	01d10613          	addi	a2,sp,29
   12280:	06300693          	li	a3,99
   12284:	470d                	li	a4,3
   12286:	853e                	mv	a0,a5
   12288:	00000073          	ecall
   1228c:	02950063          	beq	a0,s1,122ac <_ZN18complex_no_dynamic3app17h28b47fd001c27732E+0x150>
   12290:	6509                	lui	a0,0x2
   12292:	458d                	li	a1,3
   12294:	460d                	li	a2,3
   12296:	54850493          	addi	s1,a0,1352 # 2548 <.Lline_table_start1+0x231d>
   1229a:	4709                	li	a4,2
   1229c:	07f00413          	li	s0,127
   122a0:	8526                	mv	a0,s1
   122a2:	4681                	li	a3,0
   122a4:	00000073          	ecall
   122a8:	02a46b63          	bltu	s0,a0,122de <_ZN18complex_no_dynamic3app17h28b47fd001c27732E+0x182>
   122ac:	853e                	mv	a0,a5
   122ae:	4601                	li	a2,0
   122b0:	4681                	li	a3,0
   122b2:	4705                	li	a4,1
   122b4:	00e90023          	sb	a4,0(s2)
   122b8:	00b92223          	sw	a1,4(s2)
   122bc:	458d                	li	a1,3
   122be:	470d                	li	a4,3
   122c0:	00000073          	ecall
   122c4:	458d                	li	a1,3
   122c6:	4711                	li	a4,4
   122c8:	853e                	mv	a0,a5
   122ca:	4601                	li	a2,0
   122cc:	4681                	li	a3,0
   122ce:	00000073          	ecall
   122d2:	40ba                	lw	ra,140(sp)
   122d4:	442a                	lw	s0,136(sp)
   122d6:	449a                	lw	s1,132(sp)
   122d8:	490a                	lw	s2,128(sp)
   122da:	6149                	addi	sp,sp,144
   122dc:	8082                	ret
   122de:	8526                	mv	a0,s1
   122e0:	4601                	li	a2,0
   122e2:	4681                	li	a3,0
   122e4:	458d                	li	a1,3
   122e6:	470d                	li	a4,3
   122e8:	00000073          	ecall
   122ec:	458d                	li	a1,3
   122ee:	470d                	li	a4,3
   122f0:	8526                	mv	a0,s1
   122f2:	4601                	li	a2,0
   122f4:	4681                	li	a3,0
   122f6:	00000073          	ecall
   122fa:	00190513          	addi	a0,s2,1
   122fe:	01d10593          	addi	a1,sp,29
   12302:	06300613          	li	a2,99
   12306:	00009097          	auipc	ra,0x9
   1230a:	784080e7          	jalr	1924(ra) # 1ba8a <memcpy>
   1230e:	8526                	mv	a0,s1
   12310:	4601                	li	a2,0
   12312:	4681                	li	a3,0
   12314:	00090023          	sb	zero,0(s2)
   12318:	458d                	li	a1,3
   1231a:	470d                	li	a4,3
   1231c:	00000073          	ecall
   12320:	458d                	li	a1,3
   12322:	4711                	li	a4,4
   12324:	8526                	mv	a0,s1
   12326:	4601                	li	a2,0
   12328:	4681                	li	a3,0
   1232a:	00000073          	ecall
   1232e:	b755                	j	122d2 <_ZN18complex_no_dynamic3app17h28b47fd001c27732E+0x176>

00012330 <_ZN18complex_no_dynamic3app17h297bf02351ca2b0bE>:
   12330:	711d                	addi	sp,sp,-96
   12332:	ce86                	sw	ra,92(sp)
   12334:	cca2                	sw	s0,88(sp)
   12336:	caa6                	sw	s1,84(sp)
   12338:	842a                	mv	s0,a0
   1233a:	00910513          	addi	a0,sp,9
   1233e:	02100613          	li	a2,33
   12342:	00009097          	auipc	ra,0x9
   12346:	748080e7          	jalr	1864(ra) # 1ba8a <memcpy>
   1234a:	02a10513          	addi	a0,sp,42
   1234e:	02a00613          	li	a2,42
   12352:	4581                	li	a1,0
   12354:	00009097          	auipc	ra,0x9
   12358:	6ca080e7          	jalr	1738(ra) # 1ba1e <memset>
   1235c:	6505                	lui	a0,0x1
   1235e:	4585                	li	a1,1
   12360:	00910613          	addi	a2,sp,9
   12364:	02100693          	li	a3,33
   12368:	4711                	li	a4,4
   1236a:	5f350793          	addi	a5,a0,1523 # 15f3 <.Lline_table_start1+0x13c8>
   1236e:	4489                	li	s1,2
   12370:	853e                	mv	a0,a5
   12372:	00000073          	ecall
   12376:	4805                	li	a6,1
   12378:	02950b63          	beq	a0,s1,123ae <_ZN18complex_no_dynamic3app17h297bf02351ca2b0bE+0x7e>
   1237c:	458d                	li	a1,3
   1237e:	02a10613          	addi	a2,sp,42
   12382:	02a00693          	li	a3,42
   12386:	470d                	li	a4,3
   12388:	853e                	mv	a0,a5
   1238a:	00000073          	ecall
   1238e:	02950063          	beq	a0,s1,123ae <_ZN18complex_no_dynamic3app17h297bf02351ca2b0bE+0x7e>
   12392:	6505                	lui	a0,0x1
   12394:	4585                	li	a1,1
   12396:	460d                	li	a2,3
   12398:	5f350493          	addi	s1,a0,1523 # 15f3 <.Lline_table_start1+0x13c8>
   1239c:	4709                	li	a4,2
   1239e:	07f00893          	li	a7,127
   123a2:	8526                	mv	a0,s1
   123a4:	4681                	li	a3,0
   123a6:	00000073          	ecall
   123aa:	02a8e863          	bltu	a7,a0,123da <_ZN18complex_no_dynamic3app17h297bf02351ca2b0bE+0xaa>
   123ae:	853e                	mv	a0,a5
   123b0:	4601                	li	a2,0
   123b2:	4681                	li	a3,0
   123b4:	01040023          	sb	a6,0(s0)
   123b8:	c04c                	sw	a1,4(s0)
   123ba:	458d                	li	a1,3
   123bc:	470d                	li	a4,3
   123be:	00000073          	ecall
   123c2:	4585                	li	a1,1
   123c4:	4711                	li	a4,4
   123c6:	853e                	mv	a0,a5
   123c8:	4601                	li	a2,0
   123ca:	4681                	li	a3,0
   123cc:	00000073          	ecall
   123d0:	40f6                	lw	ra,92(sp)
   123d2:	4466                	lw	s0,88(sp)
   123d4:	44d6                	lw	s1,84(sp)
   123d6:	6125                	addi	sp,sp,96
   123d8:	8082                	ret
   123da:	8526                	mv	a0,s1
   123dc:	4601                	li	a2,0
   123de:	4681                	li	a3,0
   123e0:	458d                	li	a1,3
   123e2:	470d                	li	a4,3
   123e4:	00000073          	ecall
   123e8:	458d                	li	a1,3
   123ea:	470d                	li	a4,3
   123ec:	8526                	mv	a0,s1
   123ee:	4601                	li	a2,0
   123f0:	4681                	li	a3,0
   123f2:	00000073          	ecall
   123f6:	00140513          	addi	a0,s0,1
   123fa:	02a10593          	addi	a1,sp,42
   123fe:	02a00613          	li	a2,42
   12402:	00009097          	auipc	ra,0x9
   12406:	688080e7          	jalr	1672(ra) # 1ba8a <memcpy>
   1240a:	8526                	mv	a0,s1
   1240c:	4601                	li	a2,0
   1240e:	4681                	li	a3,0
   12410:	00040023          	sb	zero,0(s0)
   12414:	458d                	li	a1,3
   12416:	470d                	li	a4,3
   12418:	00000073          	ecall
   1241c:	4585                	li	a1,1
   1241e:	4711                	li	a4,4
   12420:	8526                	mv	a0,s1
   12422:	4601                	li	a2,0
   12424:	4681                	li	a3,0
   12426:	00000073          	ecall
   1242a:	b75d                	j	123d0 <_ZN18complex_no_dynamic3app17h297bf02351ca2b0bE+0xa0>

0001242c <_ZN18complex_no_dynamic3app17h2d8505bcd64ec5caE>:
   1242c:	7159                	addi	sp,sp,-112
   1242e:	d686                	sw	ra,108(sp)
   12430:	d4a2                	sw	s0,104(sp)
   12432:	d2a6                	sw	s1,100(sp)
   12434:	842a                	mv	s0,a0
   12436:	00510513          	addi	a0,sp,5
   1243a:	03800613          	li	a2,56
   1243e:	00009097          	auipc	ra,0x9
   12442:	64c080e7          	jalr	1612(ra) # 1ba8a <memcpy>
   12446:	03d10513          	addi	a0,sp,61
   1244a:	02700613          	li	a2,39
   1244e:	4581                	li	a1,0
   12450:	00009097          	auipc	ra,0x9
   12454:	5ce080e7          	jalr	1486(ra) # 1ba1e <memset>
   12458:	6505                	lui	a0,0x1
   1245a:	4489                	li	s1,2
   1245c:	4589                	li	a1,2
   1245e:	00510613          	addi	a2,sp,5
   12462:	e2b50793          	addi	a5,a0,-469 # e2b <.Lline_table_start1+0xc00>
   12466:	03800693          	li	a3,56
   1246a:	4711                	li	a4,4
   1246c:	853e                	mv	a0,a5
   1246e:	00000073          	ecall
   12472:	02950b63          	beq	a0,s1,124a8 <_ZN18complex_no_dynamic3app17h2d8505bcd64ec5caE+0x7c>
   12476:	45a1                	li	a1,8
   12478:	03d10613          	addi	a2,sp,61
   1247c:	02700693          	li	a3,39
   12480:	470d                	li	a4,3
   12482:	853e                	mv	a0,a5
   12484:	00000073          	ecall
   12488:	02950063          	beq	a0,s1,124a8 <_ZN18complex_no_dynamic3app17h2d8505bcd64ec5caE+0x7c>
   1248c:	6505                	lui	a0,0x1
   1248e:	4589                	li	a1,2
   12490:	4621                	li	a2,8
   12492:	e2b50493          	addi	s1,a0,-469 # e2b <.Lline_table_start1+0xc00>
   12496:	4709                	li	a4,2
   12498:	07f00813          	li	a6,127
   1249c:	8526                	mv	a0,s1
   1249e:	4681                	li	a3,0
   124a0:	00000073          	ecall
   124a4:	02a86963          	bltu	a6,a0,124d6 <_ZN18complex_no_dynamic3app17h2d8505bcd64ec5caE+0xaa>
   124a8:	853e                	mv	a0,a5
   124aa:	4601                	li	a2,0
   124ac:	4681                	li	a3,0
   124ae:	4705                	li	a4,1
   124b0:	00e40023          	sb	a4,0(s0)
   124b4:	c04c                	sw	a1,4(s0)
   124b6:	45a1                	li	a1,8
   124b8:	470d                	li	a4,3
   124ba:	00000073          	ecall
   124be:	4589                	li	a1,2
   124c0:	4711                	li	a4,4
   124c2:	853e                	mv	a0,a5
   124c4:	4601                	li	a2,0
   124c6:	4681                	li	a3,0
   124c8:	00000073          	ecall
   124cc:	50b6                	lw	ra,108(sp)
   124ce:	5426                	lw	s0,104(sp)
   124d0:	5496                	lw	s1,100(sp)
   124d2:	6165                	addi	sp,sp,112
   124d4:	8082                	ret
   124d6:	8526                	mv	a0,s1
   124d8:	4601                	li	a2,0
   124da:	4681                	li	a3,0
   124dc:	45a1                	li	a1,8
   124de:	470d                	li	a4,3
   124e0:	00000073          	ecall
   124e4:	45a1                	li	a1,8
   124e6:	470d                	li	a4,3
   124e8:	8526                	mv	a0,s1
   124ea:	4601                	li	a2,0
   124ec:	4681                	li	a3,0
   124ee:	00000073          	ecall
   124f2:	00140513          	addi	a0,s0,1
   124f6:	03d10593          	addi	a1,sp,61
   124fa:	02700613          	li	a2,39
   124fe:	00009097          	auipc	ra,0x9
   12502:	58c080e7          	jalr	1420(ra) # 1ba8a <memcpy>
   12506:	8526                	mv	a0,s1
   12508:	4601                	li	a2,0
   1250a:	4681                	li	a3,0
   1250c:	00040023          	sb	zero,0(s0)
   12510:	45a1                	li	a1,8
   12512:	470d                	li	a4,3
   12514:	00000073          	ecall
   12518:	4589                	li	a1,2
   1251a:	4711                	li	a4,4
   1251c:	8526                	mv	a0,s1
   1251e:	4601                	li	a2,0
   12520:	4681                	li	a3,0
   12522:	00000073          	ecall
   12526:	b75d                	j	124cc <_ZN18complex_no_dynamic3app17h2d8505bcd64ec5caE+0xa0>

00012528 <_ZN18complex_no_dynamic3app17h32bc4852a36212e5E>:
   12528:	7171                	addi	sp,sp,-176
   1252a:	d706                	sw	ra,172(sp)
   1252c:	d522                	sw	s0,168(sp)
   1252e:	d326                	sw	s1,164(sp)
   12530:	842a                	mv	s0,a0
   12532:	0048                	addi	a0,sp,4
   12534:	05100613          	li	a2,81
   12538:	00009097          	auipc	ra,0x9
   1253c:	552080e7          	jalr	1362(ra) # 1ba8a <memcpy>
   12540:	05510513          	addi	a0,sp,85
   12544:	04f00613          	li	a2,79
   12548:	4581                	li	a1,0
   1254a:	00009097          	auipc	ra,0x9
   1254e:	4d4080e7          	jalr	1236(ra) # 1ba1e <memset>
   12552:	6509                	lui	a0,0x2
   12554:	4591                	li	a1,4
   12556:	0050                	addi	a2,sp,4
   12558:	05100693          	li	a3,81
   1255c:	0ee50793          	addi	a5,a0,238 # 20ee <.Lline_table_start1+0x1ec3>
   12560:	4711                	li	a4,4
   12562:	4489                	li	s1,2
   12564:	853e                	mv	a0,a5
   12566:	00000073          	ecall
   1256a:	02950b63          	beq	a0,s1,125a0 <_ZN18complex_no_dynamic3app17h32bc4852a36212e5E+0x78>
   1256e:	45a5                	li	a1,9
   12570:	05510613          	addi	a2,sp,85
   12574:	04f00693          	li	a3,79
   12578:	470d                	li	a4,3
   1257a:	853e                	mv	a0,a5
   1257c:	00000073          	ecall
   12580:	02950063          	beq	a0,s1,125a0 <_ZN18complex_no_dynamic3app17h32bc4852a36212e5E+0x78>
   12584:	6509                	lui	a0,0x2
   12586:	4591                	li	a1,4
   12588:	4625                	li	a2,9
   1258a:	0ee50493          	addi	s1,a0,238 # 20ee <.Lline_table_start1+0x1ec3>
   1258e:	4709                	li	a4,2
   12590:	07f00813          	li	a6,127
   12594:	8526                	mv	a0,s1
   12596:	4681                	li	a3,0
   12598:	00000073          	ecall
   1259c:	02a86963          	bltu	a6,a0,125ce <_ZN18complex_no_dynamic3app17h32bc4852a36212e5E+0xa6>
   125a0:	853e                	mv	a0,a5
   125a2:	4601                	li	a2,0
   125a4:	4681                	li	a3,0
   125a6:	4705                	li	a4,1
   125a8:	00e40023          	sb	a4,0(s0)
   125ac:	c04c                	sw	a1,4(s0)
   125ae:	45a5                	li	a1,9
   125b0:	470d                	li	a4,3
   125b2:	00000073          	ecall
   125b6:	4591                	li	a1,4
   125b8:	4711                	li	a4,4
   125ba:	853e                	mv	a0,a5
   125bc:	4601                	li	a2,0
   125be:	4681                	li	a3,0
   125c0:	00000073          	ecall
   125c4:	50ba                	lw	ra,172(sp)
   125c6:	542a                	lw	s0,168(sp)
   125c8:	549a                	lw	s1,164(sp)
   125ca:	614d                	addi	sp,sp,176
   125cc:	8082                	ret
   125ce:	8526                	mv	a0,s1
   125d0:	4601                	li	a2,0
   125d2:	4681                	li	a3,0
   125d4:	45a5                	li	a1,9
   125d6:	470d                	li	a4,3
   125d8:	00000073          	ecall
   125dc:	45a5                	li	a1,9
   125de:	470d                	li	a4,3
   125e0:	8526                	mv	a0,s1
   125e2:	4601                	li	a2,0
   125e4:	4681                	li	a3,0
   125e6:	00000073          	ecall
   125ea:	00140513          	addi	a0,s0,1
   125ee:	05510593          	addi	a1,sp,85
   125f2:	04f00613          	li	a2,79
   125f6:	00009097          	auipc	ra,0x9
   125fa:	494080e7          	jalr	1172(ra) # 1ba8a <memcpy>
   125fe:	8526                	mv	a0,s1
   12600:	4601                	li	a2,0
   12602:	4681                	li	a3,0
   12604:	00040023          	sb	zero,0(s0)
   12608:	45a5                	li	a1,9
   1260a:	470d                	li	a4,3
   1260c:	00000073          	ecall
   12610:	4591                	li	a1,4
   12612:	4711                	li	a4,4
   12614:	8526                	mv	a0,s1
   12616:	4601                	li	a2,0
   12618:	4681                	li	a3,0
   1261a:	00000073          	ecall
   1261e:	b75d                	j	125c4 <_ZN18complex_no_dynamic3app17h32bc4852a36212e5E+0x9c>

00012620 <_ZN18complex_no_dynamic3app17h334c07c6964937b3E>:
   12620:	7119                	addi	sp,sp,-128
   12622:	de86                	sw	ra,124(sp)
   12624:	dca2                	sw	s0,120(sp)
   12626:	daa6                	sw	s1,116(sp)
   12628:	842a                	mv	s0,a0
   1262a:	00310513          	addi	a0,sp,3
   1262e:	04000613          	li	a2,64
   12632:	00009097          	auipc	ra,0x9
   12636:	458080e7          	jalr	1112(ra) # 1ba8a <memcpy>
   1263a:	04310513          	addi	a0,sp,67
   1263e:	03100613          	li	a2,49
   12642:	4581                	li	a1,0
   12644:	00009097          	auipc	ra,0x9
   12648:	3da080e7          	jalr	986(ra) # 1ba1e <memset>
   1264c:	6505                	lui	a0,0x1
   1264e:	45a1                	li	a1,8
   12650:	00310613          	addi	a2,sp,3
   12654:	04000693          	li	a3,64
   12658:	fce50793          	addi	a5,a0,-50 # fce <.Lline_table_start1+0xda3>
   1265c:	4711                	li	a4,4
   1265e:	4489                	li	s1,2
   12660:	853e                	mv	a0,a5
   12662:	00000073          	ecall
   12666:	02950b63          	beq	a0,s1,1269c <_ZN18complex_no_dynamic3app17h334c07c6964937b3E+0x7c>
   1266a:	4595                	li	a1,5
   1266c:	04310613          	addi	a2,sp,67
   12670:	03100693          	li	a3,49
   12674:	470d                	li	a4,3
   12676:	853e                	mv	a0,a5
   12678:	00000073          	ecall
   1267c:	02950063          	beq	a0,s1,1269c <_ZN18complex_no_dynamic3app17h334c07c6964937b3E+0x7c>
   12680:	6505                	lui	a0,0x1
   12682:	45a1                	li	a1,8
   12684:	4615                	li	a2,5
   12686:	fce50493          	addi	s1,a0,-50 # fce <.Lline_table_start1+0xda3>
   1268a:	4709                	li	a4,2
   1268c:	07f00813          	li	a6,127
   12690:	8526                	mv	a0,s1
   12692:	4681                	li	a3,0
   12694:	00000073          	ecall
   12698:	02a86963          	bltu	a6,a0,126ca <_ZN18complex_no_dynamic3app17h334c07c6964937b3E+0xaa>
   1269c:	853e                	mv	a0,a5
   1269e:	4601                	li	a2,0
   126a0:	4681                	li	a3,0
   126a2:	4705                	li	a4,1
   126a4:	00e40023          	sb	a4,0(s0)
   126a8:	c04c                	sw	a1,4(s0)
   126aa:	4595                	li	a1,5
   126ac:	470d                	li	a4,3
   126ae:	00000073          	ecall
   126b2:	45a1                	li	a1,8
   126b4:	4711                	li	a4,4
   126b6:	853e                	mv	a0,a5
   126b8:	4601                	li	a2,0
   126ba:	4681                	li	a3,0
   126bc:	00000073          	ecall
   126c0:	50f6                	lw	ra,124(sp)
   126c2:	5466                	lw	s0,120(sp)
   126c4:	54d6                	lw	s1,116(sp)
   126c6:	6109                	addi	sp,sp,128
   126c8:	8082                	ret
   126ca:	8526                	mv	a0,s1
   126cc:	4601                	li	a2,0
   126ce:	4681                	li	a3,0
   126d0:	4595                	li	a1,5
   126d2:	470d                	li	a4,3
   126d4:	00000073          	ecall
   126d8:	4595                	li	a1,5
   126da:	470d                	li	a4,3
   126dc:	8526                	mv	a0,s1
   126de:	4601                	li	a2,0
   126e0:	4681                	li	a3,0
   126e2:	00000073          	ecall
   126e6:	00140513          	addi	a0,s0,1
   126ea:	04310593          	addi	a1,sp,67
   126ee:	03100613          	li	a2,49
   126f2:	00009097          	auipc	ra,0x9
   126f6:	398080e7          	jalr	920(ra) # 1ba8a <memcpy>
   126fa:	8526                	mv	a0,s1
   126fc:	4601                	li	a2,0
   126fe:	4681                	li	a3,0
   12700:	00040023          	sb	zero,0(s0)
   12704:	4595                	li	a1,5
   12706:	470d                	li	a4,3
   12708:	00000073          	ecall
   1270c:	45a1                	li	a1,8
   1270e:	4711                	li	a4,4
   12710:	8526                	mv	a0,s1
   12712:	4601                	li	a2,0
   12714:	4681                	li	a3,0
   12716:	00000073          	ecall
   1271a:	b75d                	j	126c0 <_ZN18complex_no_dynamic3app17h334c07c6964937b3E+0xa0>

0001271c <_ZN18complex_no_dynamic3app17h341fd51cee7cdbddE>:
   1271c:	7119                	addi	sp,sp,-128
   1271e:	de86                	sw	ra,124(sp)
   12720:	dca2                	sw	s0,120(sp)
   12722:	daa6                	sw	s1,116(sp)
   12724:	d8ca                	sw	s2,112(sp)
   12726:	892a                	mv	s2,a0
   12728:	0105c883          	lbu	a7,16(a1)
   1272c:	0115c303          	lbu	t1,17(a1)
   12730:	0125c803          	lbu	a6,18(a1)
   12734:	00c5c283          	lbu	t0,12(a1)
   12738:	00d5c783          	lbu	a5,13(a1)
   1273c:	00e5c403          	lbu	s0,14(a1)
   12740:	00f5c483          	lbu	s1,15(a1)
   12744:	0085c503          	lbu	a0,8(a1)
   12748:	0095c603          	lbu	a2,9(a1)
   1274c:	00a5c703          	lbu	a4,10(a1)
   12750:	00b5c683          	lbu	a3,11(a1)
   12754:	0322                	slli	t1,t1,0x8
   12756:	07a2                	slli	a5,a5,0x8
   12758:	0442                	slli	s0,s0,0x10
   1275a:	04e2                	slli	s1,s1,0x18
   1275c:	0622                	slli	a2,a2,0x8
   1275e:	011368b3          	or	a7,t1,a7
   12762:	0057e2b3          	or	t0,a5,t0
   12766:	8c45                	or	s0,s0,s1
   12768:	00a66333          	or	t1,a2,a0
   1276c:	0045c603          	lbu	a2,4(a1)
   12770:	0055c483          	lbu	s1,5(a1)
   12774:	0065c783          	lbu	a5,6(a1)
   12778:	0075c503          	lbu	a0,7(a1)
   1277c:	0742                	slli	a4,a4,0x10
   1277e:	06e2                	slli	a3,a3,0x18
   12780:	04a2                	slli	s1,s1,0x8
   12782:	07c2                	slli	a5,a5,0x10
   12784:	0562                	slli	a0,a0,0x18
   12786:	8ed9                	or	a3,a3,a4
   12788:	8e45                	or	a2,a2,s1
   1278a:	0005c703          	lbu	a4,0(a1)
   1278e:	0015c483          	lbu	s1,1(a1)
   12792:	8d5d                	or	a0,a0,a5
   12794:	0025c783          	lbu	a5,2(a1)
   12798:	0035c583          	lbu	a1,3(a1)
   1279c:	04a2                	slli	s1,s1,0x8
   1279e:	8f45                	or	a4,a4,s1
   127a0:	07c2                	slli	a5,a5,0x10
   127a2:	05e2                	slli	a1,a1,0x18
   127a4:	8ddd                	or	a1,a1,a5
   127a6:	01111c23          	sh	a7,24(sp)
   127aa:	01010d23          	sb	a6,26(sp)
   127ae:	005467b3          	or	a5,s0,t0
   127b2:	0066e6b3          	or	a3,a3,t1
   127b6:	8d51                	or	a0,a0,a2
   127b8:	8dd9                	or	a1,a1,a4
   127ba:	c42e                	sw	a1,8(sp)
   127bc:	c62a                	sw	a0,12(sp)
   127be:	c836                	sw	a3,16(sp)
   127c0:	ca3e                	sw	a5,20(sp)
   127c2:	01b10513          	addi	a0,sp,27
   127c6:	05500613          	li	a2,85
   127ca:	4581                	li	a1,0
   127cc:	00009097          	auipc	ra,0x9
   127d0:	252080e7          	jalr	594(ra) # 1ba1e <memset>
   127d4:	32e00513          	li	a0,814
   127d8:	45a5                	li	a1,9
   127da:	0030                	addi	a2,sp,8
   127dc:	46cd                	li	a3,19
   127de:	4711                	li	a4,4
   127e0:	4789                	li	a5,2
   127e2:	00000073          	ecall
   127e6:	02f50a63          	beq	a0,a5,1281a <_ZN18complex_no_dynamic3app17h341fd51cee7cdbddE+0xfe>
   127ea:	32e00513          	li	a0,814
   127ee:	459d                	li	a1,7
   127f0:	01b10613          	addi	a2,sp,27
   127f4:	05500693          	li	a3,85
   127f8:	470d                	li	a4,3
   127fa:	00000073          	ecall
   127fe:	00f50e63          	beq	a0,a5,1281a <_ZN18complex_no_dynamic3app17h341fd51cee7cdbddE+0xfe>
   12802:	32e00513          	li	a0,814
   12806:	45a5                	li	a1,9
   12808:	461d                	li	a2,7
   1280a:	4709                	li	a4,2
   1280c:	07f00793          	li	a5,127
   12810:	4681                	li	a3,0
   12812:	00000073          	ecall
   12816:	02a7ed63          	bltu	a5,a0,12850 <_ZN18complex_no_dynamic3app17h341fd51cee7cdbddE+0x134>
   1281a:	4601                	li	a2,0
   1281c:	4681                	li	a3,0
   1281e:	4705                	li	a4,1
   12820:	32e00513          	li	a0,814
   12824:	00e90023          	sb	a4,0(s2)
   12828:	00b92223          	sw	a1,4(s2)
   1282c:	459d                	li	a1,7
   1282e:	470d                	li	a4,3
   12830:	00000073          	ecall
   12834:	32e00513          	li	a0,814
   12838:	45a5                	li	a1,9
   1283a:	4711                	li	a4,4
   1283c:	4601                	li	a2,0
   1283e:	4681                	li	a3,0
   12840:	00000073          	ecall
   12844:	50f6                	lw	ra,124(sp)
   12846:	5466                	lw	s0,120(sp)
   12848:	54d6                	lw	s1,116(sp)
   1284a:	5946                	lw	s2,112(sp)
   1284c:	6109                	addi	sp,sp,128
   1284e:	8082                	ret
   12850:	4601                	li	a2,0
   12852:	4681                	li	a3,0
   12854:	32e00513          	li	a0,814
   12858:	459d                	li	a1,7
   1285a:	470d                	li	a4,3
   1285c:	00000073          	ecall
   12860:	32e00513          	li	a0,814
   12864:	459d                	li	a1,7
   12866:	470d                	li	a4,3
   12868:	4601                	li	a2,0
   1286a:	4681                	li	a3,0
   1286c:	00000073          	ecall
   12870:	00190513          	addi	a0,s2,1
   12874:	01b10593          	addi	a1,sp,27
   12878:	05500613          	li	a2,85
   1287c:	00009097          	auipc	ra,0x9
   12880:	20e080e7          	jalr	526(ra) # 1ba8a <memcpy>
   12884:	4601                	li	a2,0
   12886:	4681                	li	a3,0
   12888:	00090023          	sb	zero,0(s2)
   1288c:	32e00513          	li	a0,814
   12890:	459d                	li	a1,7
   12892:	470d                	li	a4,3
   12894:	00000073          	ecall
   12898:	32e00513          	li	a0,814
   1289c:	45a5                	li	a1,9
   1289e:	4711                	li	a4,4
   128a0:	4601                	li	a2,0
   128a2:	4681                	li	a3,0
   128a4:	00000073          	ecall
   128a8:	bf71                	j	12844 <_ZN18complex_no_dynamic3app17h341fd51cee7cdbddE+0x128>

000128aa <_ZN18complex_no_dynamic3app17h399a38791e39ada1E>:
   128aa:	715d                	addi	sp,sp,-80
   128ac:	c686                	sw	ra,76(sp)
   128ae:	c4a2                	sw	s0,72(sp)
   128b0:	c2a6                	sw	s1,68(sp)
   128b2:	c0ca                	sw	s2,64(sp)
   128b4:	892a                	mv	s2,a0
   128b6:	0105c503          	lbu	a0,16(a1)
   128ba:	0115c603          	lbu	a2,17(a1)
   128be:	0125c803          	lbu	a6,18(a1)
   128c2:	0135c303          	lbu	t1,19(a1)
   128c6:	00c5c283          	lbu	t0,12(a1)
   128ca:	00d5c483          	lbu	s1,13(a1)
   128ce:	00e5c403          	lbu	s0,14(a1)
   128d2:	00f5c683          	lbu	a3,15(a1)
   128d6:	0622                	slli	a2,a2,0x8
   128d8:	00a668b3          	or	a7,a2,a0
   128dc:	0085c603          	lbu	a2,8(a1)
   128e0:	0095c503          	lbu	a0,9(a1)
   128e4:	00a5c783          	lbu	a5,10(a1)
   128e8:	00b5c703          	lbu	a4,11(a1)
   128ec:	0842                	slli	a6,a6,0x10
   128ee:	0362                	slli	t1,t1,0x18
   128f0:	04a2                	slli	s1,s1,0x8
   128f2:	0442                	slli	s0,s0,0x10
   128f4:	06e2                	slli	a3,a3,0x18
   128f6:	0522                	slli	a0,a0,0x8
   128f8:	01036833          	or	a6,t1,a6
   128fc:	0054e2b3          	or	t0,s1,t0
   12900:	8ec1                	or	a3,a3,s0
   12902:	00c56333          	or	t1,a0,a2
   12906:	0045c603          	lbu	a2,4(a1)
   1290a:	0055c403          	lbu	s0,5(a1)
   1290e:	0065c483          	lbu	s1,6(a1)
   12912:	0075c503          	lbu	a0,7(a1)
   12916:	07c2                	slli	a5,a5,0x10
   12918:	0762                	slli	a4,a4,0x18
   1291a:	0422                	slli	s0,s0,0x8
   1291c:	04c2                	slli	s1,s1,0x10
   1291e:	0562                	slli	a0,a0,0x18
   12920:	8f5d                	or	a4,a4,a5
   12922:	8e41                	or	a2,a2,s0
   12924:	0005c783          	lbu	a5,0(a1)
   12928:	0015c403          	lbu	s0,1(a1)
   1292c:	8d45                	or	a0,a0,s1
   1292e:	0025c483          	lbu	s1,2(a1)
   12932:	0035c583          	lbu	a1,3(a1)
   12936:	0422                	slli	s0,s0,0x8
   12938:	8fc1                	or	a5,a5,s0
   1293a:	04c2                	slli	s1,s1,0x10
   1293c:	05e2                	slli	a1,a1,0x18
   1293e:	8dc5                	or	a1,a1,s1
   12940:	011864b3          	or	s1,a6,a7
   12944:	0056e6b3          	or	a3,a3,t0
   12948:	00676733          	or	a4,a4,t1
   1294c:	8d51                	or	a0,a0,a2
   1294e:	8ddd                	or	a1,a1,a5
   12950:	c826                	sw	s1,16(sp)
   12952:	c02e                	sw	a1,0(sp)
   12954:	c22a                	sw	a0,4(sp)
   12956:	c43a                	sw	a4,8(sp)
   12958:	c636                	sw	a3,12(sp)
   1295a:	01510513          	addi	a0,sp,21
   1295e:	02b00613          	li	a2,43
   12962:	4581                	li	a1,0
   12964:	00009097          	auipc	ra,0x9
   12968:	0ba080e7          	jalr	186(ra) # 1ba1e <memset>
   1296c:	6509                	lui	a0,0x2
   1296e:	45a1                	li	a1,8
   12970:	860a                	mv	a2,sp
   12972:	46d1                	li	a3,20
   12974:	39f50793          	addi	a5,a0,927 # 239f <.Lline_table_start1+0x2174>
   12978:	4711                	li	a4,4
   1297a:	4489                	li	s1,2
   1297c:	853e                	mv	a0,a5
   1297e:	00000073          	ecall
   12982:	02950b63          	beq	a0,s1,129b8 <_ZN18complex_no_dynamic3app17h399a38791e39ada1E+0x10e>
   12986:	4591                	li	a1,4
   12988:	01510613          	addi	a2,sp,21
   1298c:	02b00693          	li	a3,43
   12990:	470d                	li	a4,3
   12992:	853e                	mv	a0,a5
   12994:	00000073          	ecall
   12998:	02950063          	beq	a0,s1,129b8 <_ZN18complex_no_dynamic3app17h399a38791e39ada1E+0x10e>
   1299c:	6509                	lui	a0,0x2
   1299e:	45a1                	li	a1,8
   129a0:	4611                	li	a2,4
   129a2:	39f50493          	addi	s1,a0,927 # 239f <.Lline_table_start1+0x2174>
   129a6:	4709                	li	a4,2
   129a8:	07f00413          	li	s0,127
   129ac:	8526                	mv	a0,s1
   129ae:	4681                	li	a3,0
   129b0:	00000073          	ecall
   129b4:	02a46b63          	bltu	s0,a0,129ea <_ZN18complex_no_dynamic3app17h399a38791e39ada1E+0x140>
   129b8:	853e                	mv	a0,a5
   129ba:	4601                	li	a2,0
   129bc:	4681                	li	a3,0
   129be:	4705                	li	a4,1
   129c0:	00e90023          	sb	a4,0(s2)
   129c4:	00b92223          	sw	a1,4(s2)
   129c8:	4591                	li	a1,4
   129ca:	470d                	li	a4,3
   129cc:	00000073          	ecall
   129d0:	45a1                	li	a1,8
   129d2:	4711                	li	a4,4
   129d4:	853e                	mv	a0,a5
   129d6:	4601                	li	a2,0
   129d8:	4681                	li	a3,0
   129da:	00000073          	ecall
   129de:	40b6                	lw	ra,76(sp)
   129e0:	4426                	lw	s0,72(sp)
   129e2:	4496                	lw	s1,68(sp)
   129e4:	4906                	lw	s2,64(sp)
   129e6:	6161                	addi	sp,sp,80
   129e8:	8082                	ret
   129ea:	8526                	mv	a0,s1
   129ec:	4601                	li	a2,0
   129ee:	4681                	li	a3,0
   129f0:	4591                	li	a1,4
   129f2:	470d                	li	a4,3
   129f4:	00000073          	ecall
   129f8:	4591                	li	a1,4
   129fa:	470d                	li	a4,3
   129fc:	8526                	mv	a0,s1
   129fe:	4601                	li	a2,0
   12a00:	4681                	li	a3,0
   12a02:	00000073          	ecall
   12a06:	00190513          	addi	a0,s2,1
   12a0a:	01510593          	addi	a1,sp,21
   12a0e:	02b00613          	li	a2,43
   12a12:	00009097          	auipc	ra,0x9
   12a16:	078080e7          	jalr	120(ra) # 1ba8a <memcpy>
   12a1a:	8526                	mv	a0,s1
   12a1c:	4601                	li	a2,0
   12a1e:	4681                	li	a3,0
   12a20:	00090023          	sb	zero,0(s2)
   12a24:	4591                	li	a1,4
   12a26:	470d                	li	a4,3
   12a28:	00000073          	ecall
   12a2c:	45a1                	li	a1,8
   12a2e:	4711                	li	a4,4
   12a30:	8526                	mv	a0,s1
   12a32:	4601                	li	a2,0
   12a34:	4681                	li	a3,0
   12a36:	00000073          	ecall
   12a3a:	b755                	j	129de <_ZN18complex_no_dynamic3app17h399a38791e39ada1E+0x134>

00012a3c <_ZN18complex_no_dynamic3app17h3a3e4417e5891f3eE>:
   12a3c:	7135                	addi	sp,sp,-160
   12a3e:	cf06                	sw	ra,156(sp)
   12a40:	cd22                	sw	s0,152(sp)
   12a42:	cb26                	sw	s1,148(sp)
   12a44:	842a                	mv	s0,a0
   12a46:	00b10513          	addi	a0,sp,11
   12a4a:	04d00613          	li	a2,77
   12a4e:	00009097          	auipc	ra,0x9
   12a52:	03c080e7          	jalr	60(ra) # 1ba8a <memcpy>
   12a56:	08a8                	addi	a0,sp,88
   12a58:	03c00613          	li	a2,60
   12a5c:	4581                	li	a1,0
   12a5e:	00009097          	auipc	ra,0x9
   12a62:	fc0080e7          	jalr	-64(ra) # 1ba1e <memset>
   12a66:	6509                	lui	a0,0x2
   12a68:	4591                	li	a1,4
   12a6a:	00b10613          	addi	a2,sp,11
   12a6e:	04d00693          	li	a3,77
   12a72:	1ab50793          	addi	a5,a0,427 # 21ab <.Lline_table_start1+0x1f80>
   12a76:	4711                	li	a4,4
   12a78:	4489                	li	s1,2
   12a7a:	853e                	mv	a0,a5
   12a7c:	00000073          	ecall
   12a80:	02950a63          	beq	a0,s1,12ab4 <_ZN18complex_no_dynamic3app17h3a3e4417e5891f3eE+0x78>
   12a84:	45a5                	li	a1,9
   12a86:	08b0                	addi	a2,sp,88
   12a88:	03c00693          	li	a3,60
   12a8c:	470d                	li	a4,3
   12a8e:	853e                	mv	a0,a5
   12a90:	00000073          	ecall
   12a94:	02950063          	beq	a0,s1,12ab4 <_ZN18complex_no_dynamic3app17h3a3e4417e5891f3eE+0x78>
   12a98:	6509                	lui	a0,0x2
   12a9a:	4591                	li	a1,4
   12a9c:	4625                	li	a2,9
   12a9e:	1ab50493          	addi	s1,a0,427 # 21ab <.Lline_table_start1+0x1f80>
   12aa2:	4709                	li	a4,2
   12aa4:	07f00813          	li	a6,127
   12aa8:	8526                	mv	a0,s1
   12aaa:	4681                	li	a3,0
   12aac:	00000073          	ecall
   12ab0:	02a86963          	bltu	a6,a0,12ae2 <_ZN18complex_no_dynamic3app17h3a3e4417e5891f3eE+0xa6>
   12ab4:	853e                	mv	a0,a5
   12ab6:	4601                	li	a2,0
   12ab8:	4681                	li	a3,0
   12aba:	4705                	li	a4,1
   12abc:	00e40023          	sb	a4,0(s0)
   12ac0:	c04c                	sw	a1,4(s0)
   12ac2:	45a5                	li	a1,9
   12ac4:	470d                	li	a4,3
   12ac6:	00000073          	ecall
   12aca:	4591                	li	a1,4
   12acc:	4711                	li	a4,4
   12ace:	853e                	mv	a0,a5
   12ad0:	4601                	li	a2,0
   12ad2:	4681                	li	a3,0
   12ad4:	00000073          	ecall
   12ad8:	40fa                	lw	ra,156(sp)
   12ada:	446a                	lw	s0,152(sp)
   12adc:	44da                	lw	s1,148(sp)
   12ade:	610d                	addi	sp,sp,160
   12ae0:	8082                	ret
   12ae2:	8526                	mv	a0,s1
   12ae4:	4601                	li	a2,0
   12ae6:	4681                	li	a3,0
   12ae8:	45a5                	li	a1,9
   12aea:	470d                	li	a4,3
   12aec:	00000073          	ecall
   12af0:	45a5                	li	a1,9
   12af2:	470d                	li	a4,3
   12af4:	8526                	mv	a0,s1
   12af6:	4601                	li	a2,0
   12af8:	4681                	li	a3,0
   12afa:	00000073          	ecall
   12afe:	00140513          	addi	a0,s0,1
   12b02:	08ac                	addi	a1,sp,88
   12b04:	03c00613          	li	a2,60
   12b08:	00009097          	auipc	ra,0x9
   12b0c:	f82080e7          	jalr	-126(ra) # 1ba8a <memcpy>
   12b10:	8526                	mv	a0,s1
   12b12:	4601                	li	a2,0
   12b14:	4681                	li	a3,0
   12b16:	00040023          	sb	zero,0(s0)
   12b1a:	45a5                	li	a1,9
   12b1c:	470d                	li	a4,3
   12b1e:	00000073          	ecall
   12b22:	4591                	li	a1,4
   12b24:	4711                	li	a4,4
   12b26:	8526                	mv	a0,s1
   12b28:	4601                	li	a2,0
   12b2a:	4681                	li	a3,0
   12b2c:	00000073          	ecall
   12b30:	b765                	j	12ad8 <_ZN18complex_no_dynamic3app17h3a3e4417e5891f3eE+0x9c>

00012b32 <_ZN18complex_no_dynamic3app17h3b79ba547d39f065E>:
   12b32:	7119                	addi	sp,sp,-128
   12b34:	de86                	sw	ra,124(sp)
   12b36:	dca2                	sw	s0,120(sp)
   12b38:	daa6                	sw	s1,116(sp)
   12b3a:	d8ca                	sw	s2,112(sp)
   12b3c:	892a                	mv	s2,a0
   12b3e:	0105c503          	lbu	a0,16(a1)
   12b42:	00c5c803          	lbu	a6,12(a1)
   12b46:	00d5c683          	lbu	a3,13(a1)
   12b4a:	00e5c703          	lbu	a4,14(a1)
   12b4e:	00f5c783          	lbu	a5,15(a1)
   12b52:	0085c483          	lbu	s1,8(a1)
   12b56:	0095c403          	lbu	s0,9(a1)
   12b5a:	00a5c883          	lbu	a7,10(a1)
   12b5e:	00b5c603          	lbu	a2,11(a1)
   12b62:	00a10e23          	sb	a0,28(sp)
   12b66:	06a2                	slli	a3,a3,0x8
   12b68:	0742                	slli	a4,a4,0x10
   12b6a:	07e2                	slli	a5,a5,0x18
   12b6c:	0422                	slli	s0,s0,0x8
   12b6e:	0106e833          	or	a6,a3,a6
   12b72:	00e7e2b3          	or	t0,a5,a4
   12b76:	8c45                	or	s0,s0,s1
   12b78:	0045c683          	lbu	a3,4(a1)
   12b7c:	0055c783          	lbu	a5,5(a1)
   12b80:	0065c483          	lbu	s1,6(a1)
   12b84:	0075c503          	lbu	a0,7(a1)
   12b88:	08c2                	slli	a7,a7,0x10
   12b8a:	0662                	slli	a2,a2,0x18
   12b8c:	07a2                	slli	a5,a5,0x8
   12b8e:	04c2                	slli	s1,s1,0x10
   12b90:	0562                	slli	a0,a0,0x18
   12b92:	01166633          	or	a2,a2,a7
   12b96:	8edd                	or	a3,a3,a5
   12b98:	0005c783          	lbu	a5,0(a1)
   12b9c:	0015c703          	lbu	a4,1(a1)
   12ba0:	8d45                	or	a0,a0,s1
   12ba2:	0025c483          	lbu	s1,2(a1)
   12ba6:	0035c583          	lbu	a1,3(a1)
   12baa:	0722                	slli	a4,a4,0x8
   12bac:	8f5d                	or	a4,a4,a5
   12bae:	04c2                	slli	s1,s1,0x10
   12bb0:	05e2                	slli	a1,a1,0x18
   12bb2:	8dc5                	or	a1,a1,s1
   12bb4:	0102e7b3          	or	a5,t0,a6
   12bb8:	8e41                	or	a2,a2,s0
   12bba:	8d55                	or	a0,a0,a3
   12bbc:	8dd9                	or	a1,a1,a4
   12bbe:	c62e                	sw	a1,12(sp)
   12bc0:	c82a                	sw	a0,16(sp)
   12bc2:	ca32                	sw	a2,20(sp)
   12bc4:	cc3e                	sw	a5,24(sp)
   12bc6:	1008                	addi	a0,sp,32
   12bc8:	05000613          	li	a2,80
   12bcc:	4581                	li	a1,0
   12bce:	00009097          	auipc	ra,0x9
   12bd2:	e50080e7          	jalr	-432(ra) # 1ba1e <memset>
   12bd6:	6509                	lui	a0,0x2
   12bd8:	4599                	li	a1,6
   12bda:	0070                	addi	a2,sp,12
   12bdc:	46c5                	li	a3,17
   12bde:	aa950793          	addi	a5,a0,-1367 # 1aa9 <.Lline_table_start1+0x187e>
   12be2:	4711                	li	a4,4
   12be4:	4489                	li	s1,2
   12be6:	853e                	mv	a0,a5
   12be8:	00000073          	ecall
   12bec:	02950a63          	beq	a0,s1,12c20 <_ZN18complex_no_dynamic3app17h3b79ba547d39f065E+0xee>
   12bf0:	4595                	li	a1,5
   12bf2:	1010                	addi	a2,sp,32
   12bf4:	05000693          	li	a3,80
   12bf8:	470d                	li	a4,3
   12bfa:	853e                	mv	a0,a5
   12bfc:	00000073          	ecall
   12c00:	02950063          	beq	a0,s1,12c20 <_ZN18complex_no_dynamic3app17h3b79ba547d39f065E+0xee>
   12c04:	6509                	lui	a0,0x2
   12c06:	4599                	li	a1,6
   12c08:	4615                	li	a2,5
   12c0a:	aa950493          	addi	s1,a0,-1367 # 1aa9 <.Lline_table_start1+0x187e>
   12c0e:	4709                	li	a4,2
   12c10:	07f00413          	li	s0,127
   12c14:	8526                	mv	a0,s1
   12c16:	4681                	li	a3,0
   12c18:	00000073          	ecall
   12c1c:	02a46b63          	bltu	s0,a0,12c52 <_ZN18complex_no_dynamic3app17h3b79ba547d39f065E+0x120>
   12c20:	853e                	mv	a0,a5
   12c22:	4601                	li	a2,0
   12c24:	4681                	li	a3,0
   12c26:	4705                	li	a4,1
   12c28:	00e90023          	sb	a4,0(s2)
   12c2c:	00b92223          	sw	a1,4(s2)
   12c30:	4595                	li	a1,5
   12c32:	470d                	li	a4,3
   12c34:	00000073          	ecall
   12c38:	4599                	li	a1,6
   12c3a:	4711                	li	a4,4
   12c3c:	853e                	mv	a0,a5
   12c3e:	4601                	li	a2,0
   12c40:	4681                	li	a3,0
   12c42:	00000073          	ecall
   12c46:	50f6                	lw	ra,124(sp)
   12c48:	5466                	lw	s0,120(sp)
   12c4a:	54d6                	lw	s1,116(sp)
   12c4c:	5946                	lw	s2,112(sp)
   12c4e:	6109                	addi	sp,sp,128
   12c50:	8082                	ret
   12c52:	8526                	mv	a0,s1
   12c54:	4601                	li	a2,0
   12c56:	4681                	li	a3,0
   12c58:	4595                	li	a1,5
   12c5a:	470d                	li	a4,3
   12c5c:	00000073          	ecall
   12c60:	4595                	li	a1,5
   12c62:	470d                	li	a4,3
   12c64:	8526                	mv	a0,s1
   12c66:	4601                	li	a2,0
   12c68:	4681                	li	a3,0
   12c6a:	00000073          	ecall
   12c6e:	00190513          	addi	a0,s2,1
   12c72:	100c                	addi	a1,sp,32
   12c74:	05000613          	li	a2,80
   12c78:	00009097          	auipc	ra,0x9
   12c7c:	e12080e7          	jalr	-494(ra) # 1ba8a <memcpy>
   12c80:	8526                	mv	a0,s1
   12c82:	4601                	li	a2,0
   12c84:	4681                	li	a3,0
   12c86:	00090023          	sb	zero,0(s2)
   12c8a:	4595                	li	a1,5
   12c8c:	470d                	li	a4,3
   12c8e:	00000073          	ecall
   12c92:	4599                	li	a1,6
   12c94:	4711                	li	a4,4
   12c96:	8526                	mv	a0,s1
   12c98:	4601                	li	a2,0
   12c9a:	4681                	li	a3,0
   12c9c:	00000073          	ecall
   12ca0:	b75d                	j	12c46 <_ZN18complex_no_dynamic3app17h3b79ba547d39f065E+0x114>

00012ca2 <_ZN18complex_no_dynamic3app17h3c20b46173168e84E>:
   12ca2:	7175                	addi	sp,sp,-144
   12ca4:	c706                	sw	ra,140(sp)
   12ca6:	c522                	sw	s0,136(sp)
   12ca8:	c326                	sw	s1,132(sp)
   12caa:	842a                	mv	s0,a0
   12cac:	0048                	addi	a0,sp,4
   12cae:	02d00613          	li	a2,45
   12cb2:	00009097          	auipc	ra,0x9
   12cb6:	dd8080e7          	jalr	-552(ra) # 1ba8a <memcpy>
   12cba:	03110513          	addi	a0,sp,49
   12cbe:	05300613          	li	a2,83
   12cc2:	4581                	li	a1,0
   12cc4:	00009097          	auipc	ra,0x9
   12cc8:	d5a080e7          	jalr	-678(ra) # 1ba1e <memset>
   12ccc:	6505                	lui	a0,0x1
   12cce:	4489                	li	s1,2
   12cd0:	4589                	li	a1,2
   12cd2:	0050                	addi	a2,sp,4
   12cd4:	ec350793          	addi	a5,a0,-317 # ec3 <.Lline_table_start1+0xc98>
   12cd8:	02d00693          	li	a3,45
   12cdc:	4711                	li	a4,4
   12cde:	853e                	mv	a0,a5
   12ce0:	00000073          	ecall
   12ce4:	02950b63          	beq	a0,s1,12d1a <_ZN18complex_no_dynamic3app17h3c20b46173168e84E+0x78>
   12ce8:	459d                	li	a1,7
   12cea:	03110613          	addi	a2,sp,49
   12cee:	05300693          	li	a3,83
   12cf2:	470d                	li	a4,3
   12cf4:	853e                	mv	a0,a5
   12cf6:	00000073          	ecall
   12cfa:	02950063          	beq	a0,s1,12d1a <_ZN18complex_no_dynamic3app17h3c20b46173168e84E+0x78>
   12cfe:	6505                	lui	a0,0x1
   12d00:	4589                	li	a1,2
   12d02:	461d                	li	a2,7
   12d04:	ec350493          	addi	s1,a0,-317 # ec3 <.Lline_table_start1+0xc98>
   12d08:	4709                	li	a4,2
   12d0a:	07f00813          	li	a6,127
   12d0e:	8526                	mv	a0,s1
   12d10:	4681                	li	a3,0
   12d12:	00000073          	ecall
   12d16:	02a86963          	bltu	a6,a0,12d48 <_ZN18complex_no_dynamic3app17h3c20b46173168e84E+0xa6>
   12d1a:	853e                	mv	a0,a5
   12d1c:	4601                	li	a2,0
   12d1e:	4681                	li	a3,0
   12d20:	4705                	li	a4,1
   12d22:	00e40023          	sb	a4,0(s0)
   12d26:	c04c                	sw	a1,4(s0)
   12d28:	459d                	li	a1,7
   12d2a:	470d                	li	a4,3
   12d2c:	00000073          	ecall
   12d30:	4589                	li	a1,2
   12d32:	4711                	li	a4,4
   12d34:	853e                	mv	a0,a5
   12d36:	4601                	li	a2,0
   12d38:	4681                	li	a3,0
   12d3a:	00000073          	ecall
   12d3e:	40ba                	lw	ra,140(sp)
   12d40:	442a                	lw	s0,136(sp)
   12d42:	449a                	lw	s1,132(sp)
   12d44:	6149                	addi	sp,sp,144
   12d46:	8082                	ret
   12d48:	8526                	mv	a0,s1
   12d4a:	4601                	li	a2,0
   12d4c:	4681                	li	a3,0
   12d4e:	459d                	li	a1,7
   12d50:	470d                	li	a4,3
   12d52:	00000073          	ecall
   12d56:	459d                	li	a1,7
   12d58:	470d                	li	a4,3
   12d5a:	8526                	mv	a0,s1
   12d5c:	4601                	li	a2,0
   12d5e:	4681                	li	a3,0
   12d60:	00000073          	ecall
   12d64:	00140513          	addi	a0,s0,1
   12d68:	03110593          	addi	a1,sp,49
   12d6c:	05300613          	li	a2,83
   12d70:	00009097          	auipc	ra,0x9
   12d74:	d1a080e7          	jalr	-742(ra) # 1ba8a <memcpy>
   12d78:	8526                	mv	a0,s1
   12d7a:	4601                	li	a2,0
   12d7c:	4681                	li	a3,0
   12d7e:	00040023          	sb	zero,0(s0)
   12d82:	459d                	li	a1,7
   12d84:	470d                	li	a4,3
   12d86:	00000073          	ecall
   12d8a:	4589                	li	a1,2
   12d8c:	4711                	li	a4,4
   12d8e:	8526                	mv	a0,s1
   12d90:	4601                	li	a2,0
   12d92:	4681                	li	a3,0
   12d94:	00000073          	ecall
   12d98:	b75d                	j	12d3e <_ZN18complex_no_dynamic3app17h3c20b46173168e84E+0x9c>

00012d9a <_ZN18complex_no_dynamic3app17h3e9628540f3029cfE>:
   12d9a:	7119                	addi	sp,sp,-128
   12d9c:	de86                	sw	ra,124(sp)
   12d9e:	dca2                	sw	s0,120(sp)
   12da0:	daa6                	sw	s1,116(sp)
   12da2:	842a                	mv	s0,a0
   12da4:	0068                	addi	a0,sp,12
   12da6:	03c00613          	li	a2,60
   12daa:	00009097          	auipc	ra,0x9
   12dae:	ce0080e7          	jalr	-800(ra) # 1ba8a <memcpy>
   12db2:	00a8                	addi	a0,sp,72
   12db4:	02c00613          	li	a2,44
   12db8:	4581                	li	a1,0
   12dba:	00009097          	auipc	ra,0x9
   12dbe:	c64080e7          	jalr	-924(ra) # 1ba1e <memset>
   12dc2:	6509                	lui	a0,0x2
   12dc4:	4595                	li	a1,5
   12dc6:	0070                	addi	a2,sp,12
   12dc8:	03c00693          	li	a3,60
   12dcc:	eac50793          	addi	a5,a0,-340 # 1eac <.Lline_table_start1+0x1c81>
   12dd0:	4711                	li	a4,4
   12dd2:	4489                	li	s1,2
   12dd4:	853e                	mv	a0,a5
   12dd6:	00000073          	ecall
   12dda:	02950a63          	beq	a0,s1,12e0e <_ZN18complex_no_dynamic3app17h3e9628540f3029cfE+0x74>
   12dde:	459d                	li	a1,7
   12de0:	00b0                	addi	a2,sp,72
   12de2:	02c00693          	li	a3,44
   12de6:	470d                	li	a4,3
   12de8:	853e                	mv	a0,a5
   12dea:	00000073          	ecall
   12dee:	02950063          	beq	a0,s1,12e0e <_ZN18complex_no_dynamic3app17h3e9628540f3029cfE+0x74>
   12df2:	6509                	lui	a0,0x2
   12df4:	4595                	li	a1,5
   12df6:	461d                	li	a2,7
   12df8:	eac50493          	addi	s1,a0,-340 # 1eac <.Lline_table_start1+0x1c81>
   12dfc:	4709                	li	a4,2
   12dfe:	07f00813          	li	a6,127
   12e02:	8526                	mv	a0,s1
   12e04:	4681                	li	a3,0
   12e06:	00000073          	ecall
   12e0a:	02a86963          	bltu	a6,a0,12e3c <_ZN18complex_no_dynamic3app17h3e9628540f3029cfE+0xa2>
   12e0e:	853e                	mv	a0,a5
   12e10:	4601                	li	a2,0
   12e12:	4681                	li	a3,0
   12e14:	4705                	li	a4,1
   12e16:	00e40023          	sb	a4,0(s0)
   12e1a:	c04c                	sw	a1,4(s0)
   12e1c:	459d                	li	a1,7
   12e1e:	470d                	li	a4,3
   12e20:	00000073          	ecall
   12e24:	4595                	li	a1,5
   12e26:	4711                	li	a4,4
   12e28:	853e                	mv	a0,a5
   12e2a:	4601                	li	a2,0
   12e2c:	4681                	li	a3,0
   12e2e:	00000073          	ecall
   12e32:	50f6                	lw	ra,124(sp)
   12e34:	5466                	lw	s0,120(sp)
   12e36:	54d6                	lw	s1,116(sp)
   12e38:	6109                	addi	sp,sp,128
   12e3a:	8082                	ret
   12e3c:	8526                	mv	a0,s1
   12e3e:	4601                	li	a2,0
   12e40:	4681                	li	a3,0
   12e42:	459d                	li	a1,7
   12e44:	470d                	li	a4,3
   12e46:	00000073          	ecall
   12e4a:	459d                	li	a1,7
   12e4c:	470d                	li	a4,3
   12e4e:	8526                	mv	a0,s1
   12e50:	4601                	li	a2,0
   12e52:	4681                	li	a3,0
   12e54:	00000073          	ecall
   12e58:	00140513          	addi	a0,s0,1
   12e5c:	00ac                	addi	a1,sp,72
   12e5e:	02c00613          	li	a2,44
   12e62:	00009097          	auipc	ra,0x9
   12e66:	c28080e7          	jalr	-984(ra) # 1ba8a <memcpy>
   12e6a:	8526                	mv	a0,s1
   12e6c:	4601                	li	a2,0
   12e6e:	4681                	li	a3,0
   12e70:	00040023          	sb	zero,0(s0)
   12e74:	459d                	li	a1,7
   12e76:	470d                	li	a4,3
   12e78:	00000073          	ecall
   12e7c:	4595                	li	a1,5
   12e7e:	4711                	li	a4,4
   12e80:	8526                	mv	a0,s1
   12e82:	4601                	li	a2,0
   12e84:	4681                	li	a3,0
   12e86:	00000073          	ecall
   12e8a:	b765                	j	12e32 <_ZN18complex_no_dynamic3app17h3e9628540f3029cfE+0x98>

00012e8c <_ZN18complex_no_dynamic3app17h3eea1e0a5510e2f4E>:
   12e8c:	7159                	addi	sp,sp,-112
   12e8e:	d686                	sw	ra,108(sp)
   12e90:	d4a2                	sw	s0,104(sp)
   12e92:	d2a6                	sw	s1,100(sp)
   12e94:	d0ca                	sw	s2,96(sp)
   12e96:	892a                	mv	s2,a0
   12e98:	00c5c503          	lbu	a0,12(a1)
   12e9c:	00d5c603          	lbu	a2,13(a1)
   12ea0:	0085c683          	lbu	a3,8(a1)
   12ea4:	0095c703          	lbu	a4,9(a1)
   12ea8:	00a5c783          	lbu	a5,10(a1)
   12eac:	00b5c483          	lbu	s1,11(a1)
   12eb0:	0622                	slli	a2,a2,0x8
   12eb2:	0722                	slli	a4,a4,0x8
   12eb4:	00a66833          	or	a6,a2,a0
   12eb8:	8ed9                	or	a3,a3,a4
   12eba:	0045c603          	lbu	a2,4(a1)
   12ebe:	0055c703          	lbu	a4,5(a1)
   12ec2:	0065c403          	lbu	s0,6(a1)
   12ec6:	0075c503          	lbu	a0,7(a1)
   12eca:	07c2                	slli	a5,a5,0x10
   12ecc:	04e2                	slli	s1,s1,0x18
   12ece:	0722                	slli	a4,a4,0x8
   12ed0:	0442                	slli	s0,s0,0x10
   12ed2:	0562                	slli	a0,a0,0x18
   12ed4:	8fc5                	or	a5,a5,s1
   12ed6:	8e59                	or	a2,a2,a4
   12ed8:	0005c703          	lbu	a4,0(a1)
   12edc:	0015c483          	lbu	s1,1(a1)
   12ee0:	8d41                	or	a0,a0,s0
   12ee2:	0025c403          	lbu	s0,2(a1)
   12ee6:	0035c583          	lbu	a1,3(a1)
   12eea:	04a2                	slli	s1,s1,0x8
   12eec:	8f45                	or	a4,a4,s1
   12eee:	0442                	slli	s0,s0,0x10
   12ef0:	05e2                	slli	a1,a1,0x18
   12ef2:	8dc1                	or	a1,a1,s0
   12ef4:	8edd                	or	a3,a3,a5
   12ef6:	8d51                	or	a0,a0,a2
   12ef8:	8dd9                	or	a1,a1,a4
   12efa:	c42e                	sw	a1,8(sp)
   12efc:	c62a                	sw	a0,12(sp)
   12efe:	c836                	sw	a3,16(sp)
   12f00:	01011a23          	sh	a6,20(sp)
   12f04:	0828                	addi	a0,sp,24
   12f06:	04800613          	li	a2,72
   12f0a:	4581                	li	a1,0
   12f0c:	00009097          	auipc	ra,0x9
   12f10:	b12080e7          	jalr	-1262(ra) # 1ba1e <memset>
   12f14:	6505                	lui	a0,0x1
   12f16:	458d                	li	a1,3
   12f18:	0030                	addi	a2,sp,8
   12f1a:	46b9                	li	a3,14
   12f1c:	2d150793          	addi	a5,a0,721 # 12d1 <.Lline_table_start1+0x10a6>
   12f20:	4711                	li	a4,4
   12f22:	4489                	li	s1,2
   12f24:	853e                	mv	a0,a5
   12f26:	00000073          	ecall
   12f2a:	02950a63          	beq	a0,s1,12f5e <_ZN18complex_no_dynamic3app17h3eea1e0a5510e2f4E+0xd2>
   12f2e:	45a1                	li	a1,8
   12f30:	0830                	addi	a2,sp,24
   12f32:	04800693          	li	a3,72
   12f36:	470d                	li	a4,3
   12f38:	853e                	mv	a0,a5
   12f3a:	00000073          	ecall
   12f3e:	02950063          	beq	a0,s1,12f5e <_ZN18complex_no_dynamic3app17h3eea1e0a5510e2f4E+0xd2>
   12f42:	6505                	lui	a0,0x1
   12f44:	458d                	li	a1,3
   12f46:	4621                	li	a2,8
   12f48:	2d150493          	addi	s1,a0,721 # 12d1 <.Lline_table_start1+0x10a6>
   12f4c:	4709                	li	a4,2
   12f4e:	07f00413          	li	s0,127
   12f52:	8526                	mv	a0,s1
   12f54:	4681                	li	a3,0
   12f56:	00000073          	ecall
   12f5a:	02a46b63          	bltu	s0,a0,12f90 <_ZN18complex_no_dynamic3app17h3eea1e0a5510e2f4E+0x104>
   12f5e:	853e                	mv	a0,a5
   12f60:	4601                	li	a2,0
   12f62:	4681                	li	a3,0
   12f64:	4705                	li	a4,1
   12f66:	00e90023          	sb	a4,0(s2)
   12f6a:	00b92223          	sw	a1,4(s2)
   12f6e:	45a1                	li	a1,8
   12f70:	470d                	li	a4,3
   12f72:	00000073          	ecall
   12f76:	458d                	li	a1,3
   12f78:	4711                	li	a4,4
   12f7a:	853e                	mv	a0,a5
   12f7c:	4601                	li	a2,0
   12f7e:	4681                	li	a3,0
   12f80:	00000073          	ecall
   12f84:	50b6                	lw	ra,108(sp)
   12f86:	5426                	lw	s0,104(sp)
   12f88:	5496                	lw	s1,100(sp)
   12f8a:	5906                	lw	s2,96(sp)
   12f8c:	6165                	addi	sp,sp,112
   12f8e:	8082                	ret
   12f90:	8526                	mv	a0,s1
   12f92:	4601                	li	a2,0
   12f94:	4681                	li	a3,0
   12f96:	45a1                	li	a1,8
   12f98:	470d                	li	a4,3
   12f9a:	00000073          	ecall
   12f9e:	45a1                	li	a1,8
   12fa0:	470d                	li	a4,3
   12fa2:	8526                	mv	a0,s1
   12fa4:	4601                	li	a2,0
   12fa6:	4681                	li	a3,0
   12fa8:	00000073          	ecall
   12fac:	00190513          	addi	a0,s2,1
   12fb0:	082c                	addi	a1,sp,24
   12fb2:	04800613          	li	a2,72
   12fb6:	00009097          	auipc	ra,0x9
   12fba:	ad4080e7          	jalr	-1324(ra) # 1ba8a <memcpy>
   12fbe:	8526                	mv	a0,s1
   12fc0:	4601                	li	a2,0
   12fc2:	4681                	li	a3,0
   12fc4:	00090023          	sb	zero,0(s2)
   12fc8:	45a1                	li	a1,8
   12fca:	470d                	li	a4,3
   12fcc:	00000073          	ecall
   12fd0:	458d                	li	a1,3
   12fd2:	4711                	li	a4,4
   12fd4:	8526                	mv	a0,s1
   12fd6:	4601                	li	a2,0
   12fd8:	4681                	li	a3,0
   12fda:	00000073          	ecall
   12fde:	b75d                	j	12f84 <_ZN18complex_no_dynamic3app17h3eea1e0a5510e2f4E+0xf8>

00012fe0 <_ZN18complex_no_dynamic3app17h3efcafac019b764bE>:
   12fe0:	7135                	addi	sp,sp,-160
   12fe2:	cf06                	sw	ra,156(sp)
   12fe4:	cd22                	sw	s0,152(sp)
   12fe6:	842a                	mv	s0,a0
   12fe8:	00b10513          	addi	a0,sp,11
   12fec:	02f00613          	li	a2,47
   12ff0:	00009097          	auipc	ra,0x9
   12ff4:	a9a080e7          	jalr	-1382(ra) # 1ba8a <memcpy>
   12ff8:	03a10513          	addi	a0,sp,58
   12ffc:	05e00613          	li	a2,94
   13000:	4581                	li	a1,0
   13002:	00009097          	auipc	ra,0x9
   13006:	a1c080e7          	jalr	-1508(ra) # 1ba1e <memset>
   1300a:	22b00513          	li	a0,555
   1300e:	4595                	li	a1,5
   13010:	00b10613          	addi	a2,sp,11
   13014:	02f00693          	li	a3,47
   13018:	4711                	li	a4,4
   1301a:	4789                	li	a5,2
   1301c:	00000073          	ecall
   13020:	02f50a63          	beq	a0,a5,13054 <_ZN18complex_no_dynamic3app17h3efcafac019b764bE+0x74>
   13024:	22b00513          	li	a0,555
   13028:	4589                	li	a1,2
   1302a:	03a10613          	addi	a2,sp,58
   1302e:	05e00693          	li	a3,94
   13032:	470d                	li	a4,3
   13034:	00000073          	ecall
   13038:	00f50e63          	beq	a0,a5,13054 <_ZN18complex_no_dynamic3app17h3efcafac019b764bE+0x74>
   1303c:	22b00513          	li	a0,555
   13040:	4595                	li	a1,5
   13042:	4609                	li	a2,2
   13044:	4709                	li	a4,2
   13046:	07f00793          	li	a5,127
   1304a:	4681                	li	a3,0
   1304c:	00000073          	ecall
   13050:	02a7ea63          	bltu	a5,a0,13084 <_ZN18complex_no_dynamic3app17h3efcafac019b764bE+0xa4>
   13054:	4601                	li	a2,0
   13056:	4681                	li	a3,0
   13058:	4705                	li	a4,1
   1305a:	22b00513          	li	a0,555
   1305e:	00e40023          	sb	a4,0(s0)
   13062:	c04c                	sw	a1,4(s0)
   13064:	4589                	li	a1,2
   13066:	470d                	li	a4,3
   13068:	00000073          	ecall
   1306c:	22b00513          	li	a0,555
   13070:	4595                	li	a1,5
   13072:	4711                	li	a4,4
   13074:	4601                	li	a2,0
   13076:	4681                	li	a3,0
   13078:	00000073          	ecall
   1307c:	40fa                	lw	ra,156(sp)
   1307e:	446a                	lw	s0,152(sp)
   13080:	610d                	addi	sp,sp,160
   13082:	8082                	ret
   13084:	4601                	li	a2,0
   13086:	4681                	li	a3,0
   13088:	22b00513          	li	a0,555
   1308c:	4589                	li	a1,2
   1308e:	470d                	li	a4,3
   13090:	00000073          	ecall
   13094:	22b00513          	li	a0,555
   13098:	4589                	li	a1,2
   1309a:	470d                	li	a4,3
   1309c:	4601                	li	a2,0
   1309e:	4681                	li	a3,0
   130a0:	00000073          	ecall
   130a4:	00140513          	addi	a0,s0,1
   130a8:	03a10593          	addi	a1,sp,58
   130ac:	05e00613          	li	a2,94
   130b0:	00009097          	auipc	ra,0x9
   130b4:	9da080e7          	jalr	-1574(ra) # 1ba8a <memcpy>
   130b8:	4601                	li	a2,0
   130ba:	4681                	li	a3,0
   130bc:	00040023          	sb	zero,0(s0)
   130c0:	22b00513          	li	a0,555
   130c4:	4589                	li	a1,2
   130c6:	470d                	li	a4,3
   130c8:	00000073          	ecall
   130cc:	22b00513          	li	a0,555
   130d0:	4595                	li	a1,5
   130d2:	4711                	li	a4,4
   130d4:	4601                	li	a2,0
   130d6:	4681                	li	a3,0
   130d8:	00000073          	ecall
   130dc:	b745                	j	1307c <_ZN18complex_no_dynamic3app17h3efcafac019b764bE+0x9c>

000130de <_ZN18complex_no_dynamic3app17h40b9df9e9eb7ecdaE>:
   130de:	715d                	addi	sp,sp,-80
   130e0:	c686                	sw	ra,76(sp)
   130e2:	c4a2                	sw	s0,72(sp)
   130e4:	c2a6                	sw	s1,68(sp)
   130e6:	842a                	mv	s0,a0
   130e8:	00710513          	addi	a0,sp,7
   130ec:	02500613          	li	a2,37
   130f0:	00009097          	auipc	ra,0x9
   130f4:	99a080e7          	jalr	-1638(ra) # 1ba8a <memcpy>
   130f8:	de02                	sw	zero,60(sp)
   130fa:	c082                	sw	zero,64(sp)
   130fc:	d602                	sw	zero,44(sp)
   130fe:	d802                	sw	zero,48(sp)
   13100:	da02                	sw	zero,52(sp)
   13102:	dc02                	sw	zero,56(sp)
   13104:	6505                	lui	a0,0x1
   13106:	45a5                	li	a1,9
   13108:	00710613          	addi	a2,sp,7
   1310c:	02500693          	li	a3,37
   13110:	a7050793          	addi	a5,a0,-1424 # a70 <.Lline_table_start1+0x845>
   13114:	4711                	li	a4,4
   13116:	4489                	li	s1,2
   13118:	853e                	mv	a0,a5
   1311a:	00000073          	ecall
   1311e:	02950963          	beq	a0,s1,13150 <_ZN18complex_no_dynamic3app17h40b9df9e9eb7ecdaE+0x72>
   13122:	45a1                	li	a1,8
   13124:	1070                	addi	a2,sp,44
   13126:	46e1                	li	a3,24
   13128:	470d                	li	a4,3
   1312a:	853e                	mv	a0,a5
   1312c:	00000073          	ecall
   13130:	02950063          	beq	a0,s1,13150 <_ZN18complex_no_dynamic3app17h40b9df9e9eb7ecdaE+0x72>
   13134:	6505                	lui	a0,0x1
   13136:	45a5                	li	a1,9
   13138:	4621                	li	a2,8
   1313a:	a7050493          	addi	s1,a0,-1424 # a70 <.Lline_table_start1+0x845>
   1313e:	4709                	li	a4,2
   13140:	07f00813          	li	a6,127
   13144:	8526                	mv	a0,s1
   13146:	4681                	li	a3,0
   13148:	00000073          	ecall
   1314c:	02a86963          	bltu	a6,a0,1317e <_ZN18complex_no_dynamic3app17h40b9df9e9eb7ecdaE+0xa0>
   13150:	853e                	mv	a0,a5
   13152:	4601                	li	a2,0
   13154:	4681                	li	a3,0
   13156:	4705                	li	a4,1
   13158:	00e40023          	sb	a4,0(s0)
   1315c:	c04c                	sw	a1,4(s0)
   1315e:	45a1                	li	a1,8
   13160:	470d                	li	a4,3
   13162:	00000073          	ecall
   13166:	45a5                	li	a1,9
   13168:	4711                	li	a4,4
   1316a:	853e                	mv	a0,a5
   1316c:	4601                	li	a2,0
   1316e:	4681                	li	a3,0
   13170:	00000073          	ecall
   13174:	40b6                	lw	ra,76(sp)
   13176:	4426                	lw	s0,72(sp)
   13178:	4496                	lw	s1,68(sp)
   1317a:	6161                	addi	sp,sp,80
   1317c:	8082                	ret
   1317e:	8526                	mv	a0,s1
   13180:	4601                	li	a2,0
   13182:	4681                	li	a3,0
   13184:	45a1                	li	a1,8
   13186:	470d                	li	a4,3
   13188:	00000073          	ecall
   1318c:	45a1                	li	a1,8
   1318e:	470d                	li	a4,3
   13190:	8526                	mv	a0,s1
   13192:	4601                	li	a2,0
   13194:	4681                	li	a3,0
   13196:	00000073          	ecall
   1319a:	00140513          	addi	a0,s0,1
   1319e:	106c                	addi	a1,sp,44
   131a0:	4661                	li	a2,24
   131a2:	00009097          	auipc	ra,0x9
   131a6:	8e8080e7          	jalr	-1816(ra) # 1ba8a <memcpy>
   131aa:	8526                	mv	a0,s1
   131ac:	4601                	li	a2,0
   131ae:	4681                	li	a3,0
   131b0:	00040023          	sb	zero,0(s0)
   131b4:	45a1                	li	a1,8
   131b6:	470d                	li	a4,3
   131b8:	00000073          	ecall
   131bc:	45a5                	li	a1,9
   131be:	4711                	li	a4,4
   131c0:	8526                	mv	a0,s1
   131c2:	4601                	li	a2,0
   131c4:	4681                	li	a3,0
   131c6:	00000073          	ecall
   131ca:	b76d                	j	13174 <_ZN18complex_no_dynamic3app17h40b9df9e9eb7ecdaE+0x96>

000131cc <_ZN18complex_no_dynamic3app17h461723454f8c0f04E>:
   131cc:	711d                	addi	sp,sp,-96
   131ce:	ce86                	sw	ra,92(sp)
   131d0:	cca2                	sw	s0,88(sp)
   131d2:	caa6                	sw	s1,84(sp)
   131d4:	842a                	mv	s0,a0
   131d6:	00d10513          	addi	a0,sp,13
   131da:	02700613          	li	a2,39
   131de:	00009097          	auipc	ra,0x9
   131e2:	8ac080e7          	jalr	-1876(ra) # 1ba8a <memcpy>
   131e6:	c282                	sw	zero,68(sp)
   131e8:	c482                	sw	zero,72(sp)
   131ea:	c682                	sw	zero,76(sp)
   131ec:	04011823          	sh	zero,80(sp)
   131f0:	da02                	sw	zero,52(sp)
   131f2:	dc02                	sw	zero,56(sp)
   131f4:	de02                	sw	zero,60(sp)
   131f6:	c082                	sw	zero,64(sp)
   131f8:	6505                	lui	a0,0x1
   131fa:	458d                	li	a1,3
   131fc:	00d10613          	addi	a2,sp,13
   13200:	02700693          	li	a3,39
   13204:	0e250793          	addi	a5,a0,226 # 10e2 <.Lline_table_start1+0xeb7>
   13208:	4711                	li	a4,4
   1320a:	4489                	li	s1,2
   1320c:	853e                	mv	a0,a5
   1320e:	00000073          	ecall
   13212:	02950963          	beq	a0,s1,13244 <_ZN18complex_no_dynamic3app17h461723454f8c0f04E+0x78>
   13216:	458d                	li	a1,3
   13218:	1850                	addi	a2,sp,52
   1321a:	46f9                	li	a3,30
   1321c:	470d                	li	a4,3
   1321e:	853e                	mv	a0,a5
   13220:	00000073          	ecall
   13224:	02950063          	beq	a0,s1,13244 <_ZN18complex_no_dynamic3app17h461723454f8c0f04E+0x78>
   13228:	6505                	lui	a0,0x1
   1322a:	458d                	li	a1,3
   1322c:	460d                	li	a2,3
   1322e:	0e250493          	addi	s1,a0,226 # 10e2 <.Lline_table_start1+0xeb7>
   13232:	4709                	li	a4,2
   13234:	07f00813          	li	a6,127
   13238:	8526                	mv	a0,s1
   1323a:	4681                	li	a3,0
   1323c:	00000073          	ecall
   13240:	02a86963          	bltu	a6,a0,13272 <_ZN18complex_no_dynamic3app17h461723454f8c0f04E+0xa6>
   13244:	853e                	mv	a0,a5
   13246:	4601                	li	a2,0
   13248:	4681                	li	a3,0
   1324a:	4705                	li	a4,1
   1324c:	00e40023          	sb	a4,0(s0)
   13250:	c04c                	sw	a1,4(s0)
   13252:	458d                	li	a1,3
   13254:	470d                	li	a4,3
   13256:	00000073          	ecall
   1325a:	458d                	li	a1,3
   1325c:	4711                	li	a4,4
   1325e:	853e                	mv	a0,a5
   13260:	4601                	li	a2,0
   13262:	4681                	li	a3,0
   13264:	00000073          	ecall
   13268:	40f6                	lw	ra,92(sp)
   1326a:	4466                	lw	s0,88(sp)
   1326c:	44d6                	lw	s1,84(sp)
   1326e:	6125                	addi	sp,sp,96
   13270:	8082                	ret
   13272:	8526                	mv	a0,s1
   13274:	4601                	li	a2,0
   13276:	4681                	li	a3,0
   13278:	458d                	li	a1,3
   1327a:	470d                	li	a4,3
   1327c:	00000073          	ecall
   13280:	458d                	li	a1,3
   13282:	470d                	li	a4,3
   13284:	8526                	mv	a0,s1
   13286:	4601                	li	a2,0
   13288:	4681                	li	a3,0
   1328a:	00000073          	ecall
   1328e:	00140513          	addi	a0,s0,1
   13292:	184c                	addi	a1,sp,52
   13294:	4679                	li	a2,30
   13296:	00008097          	auipc	ra,0x8
   1329a:	7f4080e7          	jalr	2036(ra) # 1ba8a <memcpy>
   1329e:	8526                	mv	a0,s1
   132a0:	4601                	li	a2,0
   132a2:	4681                	li	a3,0
   132a4:	00040023          	sb	zero,0(s0)
   132a8:	458d                	li	a1,3
   132aa:	470d                	li	a4,3
   132ac:	00000073          	ecall
   132b0:	458d                	li	a1,3
   132b2:	4711                	li	a4,4
   132b4:	8526                	mv	a0,s1
   132b6:	4601                	li	a2,0
   132b8:	4681                	li	a3,0
   132ba:	00000073          	ecall
   132be:	b76d                	j	13268 <_ZN18complex_no_dynamic3app17h461723454f8c0f04E+0x9c>

000132c0 <_ZN18complex_no_dynamic3app17h4f3557670c7cd438E>:
   132c0:	7159                	addi	sp,sp,-112
   132c2:	d686                	sw	ra,108(sp)
   132c4:	d4a2                	sw	s0,104(sp)
   132c6:	d2a6                	sw	s1,100(sp)
   132c8:	842a                	mv	s0,a0
   132ca:	00110513          	addi	a0,sp,1
   132ce:	04100613          	li	a2,65
   132d2:	00008097          	auipc	ra,0x8
   132d6:	7b8080e7          	jalr	1976(ra) # 1ba8a <memcpy>
   132da:	04210513          	addi	a0,sp,66
   132de:	02200613          	li	a2,34
   132e2:	4581                	li	a1,0
   132e4:	00008097          	auipc	ra,0x8
   132e8:	73a080e7          	jalr	1850(ra) # 1ba1e <memset>
   132ec:	6509                	lui	a0,0x2
   132ee:	4585                	li	a1,1
   132f0:	00110613          	addi	a2,sp,1
   132f4:	04100693          	li	a3,65
   132f8:	4711                	li	a4,4
   132fa:	47c50793          	addi	a5,a0,1148 # 247c <.Lline_table_start1+0x2251>
   132fe:	4489                	li	s1,2
   13300:	853e                	mv	a0,a5
   13302:	00000073          	ecall
   13306:	4805                	li	a6,1
   13308:	02950b63          	beq	a0,s1,1333e <_ZN18complex_no_dynamic3app17h4f3557670c7cd438E+0x7e>
   1330c:	04210613          	addi	a2,sp,66
   13310:	02200693          	li	a3,34
   13314:	470d                	li	a4,3
   13316:	853e                	mv	a0,a5
   13318:	4581                	li	a1,0
   1331a:	00000073          	ecall
   1331e:	02950063          	beq	a0,s1,1333e <_ZN18complex_no_dynamic3app17h4f3557670c7cd438E+0x7e>
   13322:	6509                	lui	a0,0x2
   13324:	4585                	li	a1,1
   13326:	47c50493          	addi	s1,a0,1148 # 247c <.Lline_table_start1+0x2251>
   1332a:	4709                	li	a4,2
   1332c:	07f00893          	li	a7,127
   13330:	8526                	mv	a0,s1
   13332:	4601                	li	a2,0
   13334:	4681                	li	a3,0
   13336:	00000073          	ecall
   1333a:	02a8e963          	bltu	a7,a0,1336c <_ZN18complex_no_dynamic3app17h4f3557670c7cd438E+0xac>
   1333e:	872e                	mv	a4,a1
   13340:	853e                	mv	a0,a5
   13342:	4581                	li	a1,0
   13344:	4601                	li	a2,0
   13346:	4681                	li	a3,0
   13348:	01040023          	sb	a6,0(s0)
   1334c:	c058                	sw	a4,4(s0)
   1334e:	470d                	li	a4,3
   13350:	00000073          	ecall
   13354:	4585                	li	a1,1
   13356:	4711                	li	a4,4
   13358:	853e                	mv	a0,a5
   1335a:	4601                	li	a2,0
   1335c:	4681                	li	a3,0
   1335e:	00000073          	ecall
   13362:	50b6                	lw	ra,108(sp)
   13364:	5426                	lw	s0,104(sp)
   13366:	5496                	lw	s1,100(sp)
   13368:	6165                	addi	sp,sp,112
   1336a:	8082                	ret
   1336c:	470d                	li	a4,3
   1336e:	8526                	mv	a0,s1
   13370:	4581                	li	a1,0
   13372:	4601                	li	a2,0
   13374:	4681                	li	a3,0
   13376:	00000073          	ecall
   1337a:	470d                	li	a4,3
   1337c:	8526                	mv	a0,s1
   1337e:	4581                	li	a1,0
   13380:	4601                	li	a2,0
   13382:	4681                	li	a3,0
   13384:	00000073          	ecall
   13388:	00140513          	addi	a0,s0,1
   1338c:	04210593          	addi	a1,sp,66
   13390:	02200613          	li	a2,34
   13394:	00008097          	auipc	ra,0x8
   13398:	6f6080e7          	jalr	1782(ra) # 1ba8a <memcpy>
   1339c:	8526                	mv	a0,s1
   1339e:	4581                	li	a1,0
   133a0:	4601                	li	a2,0
   133a2:	4681                	li	a3,0
   133a4:	00040023          	sb	zero,0(s0)
   133a8:	470d                	li	a4,3
   133aa:	00000073          	ecall
   133ae:	4585                	li	a1,1
   133b0:	4711                	li	a4,4
   133b2:	8526                	mv	a0,s1
   133b4:	4601                	li	a2,0
   133b6:	4681                	li	a3,0
   133b8:	00000073          	ecall
   133bc:	b75d                	j	13362 <_ZN18complex_no_dynamic3app17h4f3557670c7cd438E+0xa2>

000133be <_ZN18complex_no_dynamic3app17h4fedb7513ff9aaa4E>:
   133be:	7135                	addi	sp,sp,-160
   133c0:	cf06                	sw	ra,156(sp)
   133c2:	cd22                	sw	s0,152(sp)
   133c4:	cb26                	sw	s1,148(sp)
   133c6:	842a                	mv	s0,a0
   133c8:	00d10513          	addi	a0,sp,13
   133cc:	05500613          	li	a2,85
   133d0:	00008097          	auipc	ra,0x8
   133d4:	6ba080e7          	jalr	1722(ra) # 1ba8a <memcpy>
   133d8:	06210513          	addi	a0,sp,98
   133dc:	03200613          	li	a2,50
   133e0:	4581                	li	a1,0
   133e2:	00008097          	auipc	ra,0x8
   133e6:	63c080e7          	jalr	1596(ra) # 1ba1e <memset>
   133ea:	6509                	lui	a0,0x2
   133ec:	45a1                	li	a1,8
   133ee:	00d10613          	addi	a2,sp,13
   133f2:	05500693          	li	a3,85
   133f6:	09550793          	addi	a5,a0,149 # 2095 <.Lline_table_start1+0x1e6a>
   133fa:	4711                	li	a4,4
   133fc:	4489                	li	s1,2
   133fe:	853e                	mv	a0,a5
   13400:	00000073          	ecall
   13404:	02950b63          	beq	a0,s1,1343a <_ZN18complex_no_dynamic3app17h4fedb7513ff9aaa4E+0x7c>
   13408:	45a1                	li	a1,8
   1340a:	06210613          	addi	a2,sp,98
   1340e:	03200693          	li	a3,50
   13412:	470d                	li	a4,3
   13414:	853e                	mv	a0,a5
   13416:	00000073          	ecall
   1341a:	02950063          	beq	a0,s1,1343a <_ZN18complex_no_dynamic3app17h4fedb7513ff9aaa4E+0x7c>
   1341e:	6509                	lui	a0,0x2
   13420:	45a1                	li	a1,8
   13422:	4621                	li	a2,8
   13424:	09550493          	addi	s1,a0,149 # 2095 <.Lline_table_start1+0x1e6a>
   13428:	4709                	li	a4,2
   1342a:	07f00813          	li	a6,127
   1342e:	8526                	mv	a0,s1
   13430:	4681                	li	a3,0
   13432:	00000073          	ecall
   13436:	02a86963          	bltu	a6,a0,13468 <_ZN18complex_no_dynamic3app17h4fedb7513ff9aaa4E+0xaa>
   1343a:	853e                	mv	a0,a5
   1343c:	4601                	li	a2,0
   1343e:	4681                	li	a3,0
   13440:	4705                	li	a4,1
   13442:	00e40023          	sb	a4,0(s0)
   13446:	c04c                	sw	a1,4(s0)
   13448:	45a1                	li	a1,8
   1344a:	470d                	li	a4,3
   1344c:	00000073          	ecall
   13450:	45a1                	li	a1,8
   13452:	4711                	li	a4,4
   13454:	853e                	mv	a0,a5
   13456:	4601                	li	a2,0
   13458:	4681                	li	a3,0
   1345a:	00000073          	ecall
   1345e:	40fa                	lw	ra,156(sp)
   13460:	446a                	lw	s0,152(sp)
   13462:	44da                	lw	s1,148(sp)
   13464:	610d                	addi	sp,sp,160
   13466:	8082                	ret
   13468:	8526                	mv	a0,s1
   1346a:	4601                	li	a2,0
   1346c:	4681                	li	a3,0
   1346e:	45a1                	li	a1,8
   13470:	470d                	li	a4,3
   13472:	00000073          	ecall
   13476:	45a1                	li	a1,8
   13478:	470d                	li	a4,3
   1347a:	8526                	mv	a0,s1
   1347c:	4601                	li	a2,0
   1347e:	4681                	li	a3,0
   13480:	00000073          	ecall
   13484:	00140513          	addi	a0,s0,1
   13488:	06210593          	addi	a1,sp,98
   1348c:	03200613          	li	a2,50
   13490:	00008097          	auipc	ra,0x8
   13494:	5fa080e7          	jalr	1530(ra) # 1ba8a <memcpy>
   13498:	8526                	mv	a0,s1
   1349a:	4601                	li	a2,0
   1349c:	4681                	li	a3,0
   1349e:	00040023          	sb	zero,0(s0)
   134a2:	45a1                	li	a1,8
   134a4:	470d                	li	a4,3
   134a6:	00000073          	ecall
   134aa:	45a1                	li	a1,8
   134ac:	4711                	li	a4,4
   134ae:	8526                	mv	a0,s1
   134b0:	4601                	li	a2,0
   134b2:	4681                	li	a3,0
   134b4:	00000073          	ecall
   134b8:	b75d                	j	1345e <_ZN18complex_no_dynamic3app17h4fedb7513ff9aaa4E+0xa0>

000134ba <_ZN18complex_no_dynamic3app17h505dcf38962d99caE>:
   134ba:	7159                	addi	sp,sp,-112
   134bc:	d686                	sw	ra,108(sp)
   134be:	d4a2                	sw	s0,104(sp)
   134c0:	d2a6                	sw	s1,100(sp)
   134c2:	842a                	mv	s0,a0
   134c4:	00b10513          	addi	a0,sp,11
   134c8:	04100613          	li	a2,65
   134cc:	00008097          	auipc	ra,0x8
   134d0:	5be080e7          	jalr	1470(ra) # 1ba8a <memcpy>
   134d4:	ce82                	sw	zero,92(sp)
   134d6:	d082                	sw	zero,96(sp)
   134d8:	c682                	sw	zero,76(sp)
   134da:	c882                	sw	zero,80(sp)
   134dc:	ca82                	sw	zero,84(sp)
   134de:	cc82                	sw	zero,88(sp)
   134e0:	6509                	lui	a0,0x2
   134e2:	4585                	li	a1,1
   134e4:	00b10613          	addi	a2,sp,11
   134e8:	04100693          	li	a3,65
   134ec:	4711                	li	a4,4
   134ee:	15650793          	addi	a5,a0,342 # 2156 <.Lline_table_start1+0x1f2b>
   134f2:	4489                	li	s1,2
   134f4:	853e                	mv	a0,a5
   134f6:	00000073          	ecall
   134fa:	4805                	li	a6,1
   134fc:	02950963          	beq	a0,s1,1352e <_ZN18complex_no_dynamic3app17h505dcf38962d99caE+0x74>
   13500:	45a5                	li	a1,9
   13502:	00f0                	addi	a2,sp,76
   13504:	46e1                	li	a3,24
   13506:	470d                	li	a4,3
   13508:	853e                	mv	a0,a5
   1350a:	00000073          	ecall
   1350e:	02950063          	beq	a0,s1,1352e <_ZN18complex_no_dynamic3app17h505dcf38962d99caE+0x74>
   13512:	6509                	lui	a0,0x2
   13514:	4585                	li	a1,1
   13516:	4625                	li	a2,9
   13518:	15650493          	addi	s1,a0,342 # 2156 <.Lline_table_start1+0x1f2b>
   1351c:	4709                	li	a4,2
   1351e:	07f00893          	li	a7,127
   13522:	8526                	mv	a0,s1
   13524:	4681                	li	a3,0
   13526:	00000073          	ecall
   1352a:	02a8e863          	bltu	a7,a0,1355a <_ZN18complex_no_dynamic3app17h505dcf38962d99caE+0xa0>
   1352e:	853e                	mv	a0,a5
   13530:	4601                	li	a2,0
   13532:	4681                	li	a3,0
   13534:	01040023          	sb	a6,0(s0)
   13538:	c04c                	sw	a1,4(s0)
   1353a:	45a5                	li	a1,9
   1353c:	470d                	li	a4,3
   1353e:	00000073          	ecall
   13542:	4585                	li	a1,1
   13544:	4711                	li	a4,4
   13546:	853e                	mv	a0,a5
   13548:	4601                	li	a2,0
   1354a:	4681                	li	a3,0
   1354c:	00000073          	ecall
   13550:	50b6                	lw	ra,108(sp)
   13552:	5426                	lw	s0,104(sp)
   13554:	5496                	lw	s1,100(sp)
   13556:	6165                	addi	sp,sp,112
   13558:	8082                	ret
   1355a:	8526                	mv	a0,s1
   1355c:	4601                	li	a2,0
   1355e:	4681                	li	a3,0
   13560:	45a5                	li	a1,9
   13562:	470d                	li	a4,3
   13564:	00000073          	ecall
   13568:	45a5                	li	a1,9
   1356a:	470d                	li	a4,3
   1356c:	8526                	mv	a0,s1
   1356e:	4601                	li	a2,0
   13570:	4681                	li	a3,0
   13572:	00000073          	ecall
   13576:	00140513          	addi	a0,s0,1
   1357a:	00ec                	addi	a1,sp,76
   1357c:	4661                	li	a2,24
   1357e:	00008097          	auipc	ra,0x8
   13582:	50c080e7          	jalr	1292(ra) # 1ba8a <memcpy>
   13586:	8526                	mv	a0,s1
   13588:	4601                	li	a2,0
   1358a:	4681                	li	a3,0
   1358c:	00040023          	sb	zero,0(s0)
   13590:	45a5                	li	a1,9
   13592:	470d                	li	a4,3
   13594:	00000073          	ecall
   13598:	4585                	li	a1,1
   1359a:	4711                	li	a4,4
   1359c:	8526                	mv	a0,s1
   1359e:	4601                	li	a2,0
   135a0:	4681                	li	a3,0
   135a2:	00000073          	ecall
   135a6:	b76d                	j	13550 <_ZN18complex_no_dynamic3app17h505dcf38962d99caE+0x96>

000135a8 <_ZN18complex_no_dynamic3app17h54f427a95d7bd583E>:
   135a8:	7171                	addi	sp,sp,-176
   135aa:	d706                	sw	ra,172(sp)
   135ac:	d522                	sw	s0,168(sp)
   135ae:	d326                	sw	s1,164(sp)
   135b0:	842a                	mv	s0,a0
   135b2:	0028                	addi	a0,sp,8
   135b4:	04600613          	li	a2,70
   135b8:	00008097          	auipc	ra,0x8
   135bc:	4d2080e7          	jalr	1234(ra) # 1ba8a <memcpy>
   135c0:	04e10513          	addi	a0,sp,78
   135c4:	05600613          	li	a2,86
   135c8:	4581                	li	a1,0
   135ca:	00008097          	auipc	ra,0x8
   135ce:	454080e7          	jalr	1108(ra) # 1ba1e <memset>
   135d2:	6509                	lui	a0,0x2
   135d4:	459d                	li	a1,7
   135d6:	0030                	addi	a2,sp,8
   135d8:	04600693          	li	a3,70
   135dc:	e5050793          	addi	a5,a0,-432 # 1e50 <.Lline_table_start1+0x1c25>
   135e0:	4711                	li	a4,4
   135e2:	4489                	li	s1,2
   135e4:	853e                	mv	a0,a5
   135e6:	00000073          	ecall
   135ea:	02950b63          	beq	a0,s1,13620 <_ZN18complex_no_dynamic3app17h54f427a95d7bd583E+0x78>
   135ee:	458d                	li	a1,3
   135f0:	04e10613          	addi	a2,sp,78
   135f4:	05600693          	li	a3,86
   135f8:	470d                	li	a4,3
   135fa:	853e                	mv	a0,a5
   135fc:	00000073          	ecall
   13600:	02950063          	beq	a0,s1,13620 <_ZN18complex_no_dynamic3app17h54f427a95d7bd583E+0x78>
   13604:	6509                	lui	a0,0x2
   13606:	459d                	li	a1,7
   13608:	460d                	li	a2,3
   1360a:	e5050493          	addi	s1,a0,-432 # 1e50 <.Lline_table_start1+0x1c25>
   1360e:	4709                	li	a4,2
   13610:	07f00813          	li	a6,127
   13614:	8526                	mv	a0,s1
   13616:	4681                	li	a3,0
   13618:	00000073          	ecall
   1361c:	02a86963          	bltu	a6,a0,1364e <_ZN18complex_no_dynamic3app17h54f427a95d7bd583E+0xa6>
   13620:	853e                	mv	a0,a5
   13622:	4601                	li	a2,0
   13624:	4681                	li	a3,0
   13626:	4705                	li	a4,1
   13628:	00e40023          	sb	a4,0(s0)
   1362c:	c04c                	sw	a1,4(s0)
   1362e:	458d                	li	a1,3
   13630:	470d                	li	a4,3
   13632:	00000073          	ecall
   13636:	459d                	li	a1,7
   13638:	4711                	li	a4,4
   1363a:	853e                	mv	a0,a5
   1363c:	4601                	li	a2,0
   1363e:	4681                	li	a3,0
   13640:	00000073          	ecall
   13644:	50ba                	lw	ra,172(sp)
   13646:	542a                	lw	s0,168(sp)
   13648:	549a                	lw	s1,164(sp)
   1364a:	614d                	addi	sp,sp,176
   1364c:	8082                	ret
   1364e:	8526                	mv	a0,s1
   13650:	4601                	li	a2,0
   13652:	4681                	li	a3,0
   13654:	458d                	li	a1,3
   13656:	470d                	li	a4,3
   13658:	00000073          	ecall
   1365c:	458d                	li	a1,3
   1365e:	470d                	li	a4,3
   13660:	8526                	mv	a0,s1
   13662:	4601                	li	a2,0
   13664:	4681                	li	a3,0
   13666:	00000073          	ecall
   1366a:	00140513          	addi	a0,s0,1
   1366e:	04e10593          	addi	a1,sp,78
   13672:	05600613          	li	a2,86
   13676:	00008097          	auipc	ra,0x8
   1367a:	414080e7          	jalr	1044(ra) # 1ba8a <memcpy>
   1367e:	8526                	mv	a0,s1
   13680:	4601                	li	a2,0
   13682:	4681                	li	a3,0
   13684:	00040023          	sb	zero,0(s0)
   13688:	458d                	li	a1,3
   1368a:	470d                	li	a4,3
   1368c:	00000073          	ecall
   13690:	459d                	li	a1,7
   13692:	4711                	li	a4,4
   13694:	8526                	mv	a0,s1
   13696:	4601                	li	a2,0
   13698:	4681                	li	a3,0
   1369a:	00000073          	ecall
   1369e:	b75d                	j	13644 <_ZN18complex_no_dynamic3app17h54f427a95d7bd583E+0x9c>

000136a0 <_ZN18complex_no_dynamic3app17h593542a74b8eb231E>:
   136a0:	7175                	addi	sp,sp,-144
   136a2:	c706                	sw	ra,140(sp)
   136a4:	c522                	sw	s0,136(sp)
   136a6:	c326                	sw	s1,132(sp)
   136a8:	842a                	mv	s0,a0
   136aa:	00110513          	addi	a0,sp,1
   136ae:	02a00613          	li	a2,42
   136b2:	00008097          	auipc	ra,0x8
   136b6:	3d8080e7          	jalr	984(ra) # 1ba8a <memcpy>
   136ba:	02b10513          	addi	a0,sp,43
   136be:	05900613          	li	a2,89
   136c2:	4581                	li	a1,0
   136c4:	00008097          	auipc	ra,0x8
   136c8:	35a080e7          	jalr	858(ra) # 1ba1e <memset>
   136cc:	6505                	lui	a0,0x1
   136ce:	4585                	li	a1,1
   136d0:	00110613          	addi	a2,sp,1
   136d4:	02a00693          	li	a3,42
   136d8:	4711                	li	a4,4
   136da:	ed250793          	addi	a5,a0,-302 # ed2 <.Lline_table_start1+0xca7>
   136de:	4489                	li	s1,2
   136e0:	853e                	mv	a0,a5
   136e2:	00000073          	ecall
   136e6:	4805                	li	a6,1
   136e8:	02950b63          	beq	a0,s1,1371e <_ZN18complex_no_dynamic3app17h593542a74b8eb231E+0x7e>
   136ec:	458d                	li	a1,3
   136ee:	02b10613          	addi	a2,sp,43
   136f2:	05900693          	li	a3,89
   136f6:	470d                	li	a4,3
   136f8:	853e                	mv	a0,a5
   136fa:	00000073          	ecall
   136fe:	02950063          	beq	a0,s1,1371e <_ZN18complex_no_dynamic3app17h593542a74b8eb231E+0x7e>
   13702:	6505                	lui	a0,0x1
   13704:	4585                	li	a1,1
   13706:	460d                	li	a2,3
   13708:	ed250493          	addi	s1,a0,-302 # ed2 <.Lline_table_start1+0xca7>
   1370c:	4709                	li	a4,2
   1370e:	07f00893          	li	a7,127
   13712:	8526                	mv	a0,s1
   13714:	4681                	li	a3,0
   13716:	00000073          	ecall
   1371a:	02a8e863          	bltu	a7,a0,1374a <_ZN18complex_no_dynamic3app17h593542a74b8eb231E+0xaa>
   1371e:	853e                	mv	a0,a5
   13720:	4601                	li	a2,0
   13722:	4681                	li	a3,0
   13724:	01040023          	sb	a6,0(s0)
   13728:	c04c                	sw	a1,4(s0)
   1372a:	458d                	li	a1,3
   1372c:	470d                	li	a4,3
   1372e:	00000073          	ecall
   13732:	4585                	li	a1,1
   13734:	4711                	li	a4,4
   13736:	853e                	mv	a0,a5
   13738:	4601                	li	a2,0
   1373a:	4681                	li	a3,0
   1373c:	00000073          	ecall
   13740:	40ba                	lw	ra,140(sp)
   13742:	442a                	lw	s0,136(sp)
   13744:	449a                	lw	s1,132(sp)
   13746:	6149                	addi	sp,sp,144
   13748:	8082                	ret
   1374a:	8526                	mv	a0,s1
   1374c:	4601                	li	a2,0
   1374e:	4681                	li	a3,0
   13750:	458d                	li	a1,3
   13752:	470d                	li	a4,3
   13754:	00000073          	ecall
   13758:	458d                	li	a1,3
   1375a:	470d                	li	a4,3
   1375c:	8526                	mv	a0,s1
   1375e:	4601                	li	a2,0
   13760:	4681                	li	a3,0
   13762:	00000073          	ecall
   13766:	00140513          	addi	a0,s0,1
   1376a:	02b10593          	addi	a1,sp,43
   1376e:	05900613          	li	a2,89
   13772:	00008097          	auipc	ra,0x8
   13776:	318080e7          	jalr	792(ra) # 1ba8a <memcpy>
   1377a:	8526                	mv	a0,s1
   1377c:	4601                	li	a2,0
   1377e:	4681                	li	a3,0
   13780:	00040023          	sb	zero,0(s0)
   13784:	458d                	li	a1,3
   13786:	470d                	li	a4,3
   13788:	00000073          	ecall
   1378c:	4585                	li	a1,1
   1378e:	4711                	li	a4,4
   13790:	8526                	mv	a0,s1
   13792:	4601                	li	a2,0
   13794:	4681                	li	a3,0
   13796:	00000073          	ecall
   1379a:	b75d                	j	13740 <_ZN18complex_no_dynamic3app17h593542a74b8eb231E+0xa0>

0001379c <_ZN18complex_no_dynamic3app17h59a4235887019378E>:
   1379c:	7119                	addi	sp,sp,-128
   1379e:	de86                	sw	ra,124(sp)
   137a0:	dca2                	sw	s0,120(sp)
   137a2:	daa6                	sw	s1,116(sp)
   137a4:	d8ca                	sw	s2,112(sp)
   137a6:	892a                	mv	s2,a0
   137a8:	0185c803          	lbu	a6,24(a1)
   137ac:	0195c383          	lbu	t2,25(a1)
   137b0:	0145c883          	lbu	a7,20(a1)
   137b4:	0155ce83          	lbu	t4,21(a1)
   137b8:	0165c783          	lbu	a5,22(a1)
   137bc:	0175c483          	lbu	s1,23(a1)
   137c0:	0105c403          	lbu	s0,16(a1)
   137c4:	0115c503          	lbu	a0,17(a1)
   137c8:	0125c283          	lbu	t0,18(a1)
   137cc:	0135ce03          	lbu	t3,19(a1)
   137d0:	00c5c303          	lbu	t1,12(a1)
   137d4:	00d5cf03          	lbu	t5,13(a1)
   137d8:	00e5c683          	lbu	a3,14(a1)
   137dc:	00f5c703          	lbu	a4,15(a1)
   137e0:	03a2                	slli	t2,t2,0x8
   137e2:	0ea2                	slli	t4,t4,0x8
   137e4:	01079613          	slli	a2,a5,0x10
   137e8:	01849793          	slli	a5,s1,0x18
   137ec:	0522                	slli	a0,a0,0x8
   137ee:	0103e833          	or	a6,t2,a6
   137f2:	011ee8b3          	or	a7,t4,a7
   137f6:	00c7e3b3          	or	t2,a5,a2
   137fa:	00856eb3          	or	t4,a0,s0
   137fe:	0085c503          	lbu	a0,8(a1)
   13802:	0095c603          	lbu	a2,9(a1)
   13806:	00a5c483          	lbu	s1,10(a1)
   1380a:	00b5c783          	lbu	a5,11(a1)
   1380e:	02c2                	slli	t0,t0,0x10
   13810:	0e62                	slli	t3,t3,0x18
   13812:	0f22                	slli	t5,t5,0x8
   13814:	06c2                	slli	a3,a3,0x10
   13816:	0762                	slli	a4,a4,0x18
   13818:	0622                	slli	a2,a2,0x8
   1381a:	005e6e33          	or	t3,t3,t0
   1381e:	006f62b3          	or	t0,t5,t1
   13822:	8ed9                	or	a3,a3,a4
   13824:	00a66333          	or	t1,a2,a0
   13828:	0045c603          	lbu	a2,4(a1)
   1382c:	0055c703          	lbu	a4,5(a1)
   13830:	0065c403          	lbu	s0,6(a1)
   13834:	0075c503          	lbu	a0,7(a1)
   13838:	04c2                	slli	s1,s1,0x10
   1383a:	07e2                	slli	a5,a5,0x18
   1383c:	0722                	slli	a4,a4,0x8
   1383e:	0442                	slli	s0,s0,0x10
   13840:	0562                	slli	a0,a0,0x18
   13842:	8fc5                	or	a5,a5,s1
   13844:	8e59                	or	a2,a2,a4
   13846:	0005c703          	lbu	a4,0(a1)
   1384a:	0015c483          	lbu	s1,1(a1)
   1384e:	8d41                	or	a0,a0,s0
   13850:	0025c403          	lbu	s0,2(a1)
   13854:	0035c583          	lbu	a1,3(a1)
   13858:	04a2                	slli	s1,s1,0x8
   1385a:	8f45                	or	a4,a4,s1
   1385c:	0442                	slli	s0,s0,0x10
   1385e:	05e2                	slli	a1,a1,0x18
   13860:	8dc1                	or	a1,a1,s0
   13862:	0113e4b3          	or	s1,t2,a7
   13866:	01de6433          	or	s0,t3,t4
   1386a:	0056e6b3          	or	a3,a3,t0
   1386e:	0067e7b3          	or	a5,a5,t1
   13872:	8d51                	or	a0,a0,a2
   13874:	8dd9                	or	a1,a1,a4
   13876:	ca22                	sw	s0,20(sp)
   13878:	cc26                	sw	s1,24(sp)
   1387a:	01011e23          	sh	a6,28(sp)
   1387e:	c22e                	sw	a1,4(sp)
   13880:	c42a                	sw	a0,8(sp)
   13882:	c63e                	sw	a5,12(sp)
   13884:	c836                	sw	a3,16(sp)
   13886:	1008                	addi	a0,sp,32
   13888:	05000613          	li	a2,80
   1388c:	4581                	li	a1,0
   1388e:	00008097          	auipc	ra,0x8
   13892:	190080e7          	jalr	400(ra) # 1ba1e <memset>
   13896:	6505                	lui	a0,0x1
   13898:	459d                	li	a1,7
   1389a:	0050                	addi	a2,sp,4
   1389c:	46e9                	li	a3,26
   1389e:	aee50793          	addi	a5,a0,-1298 # aee <.Lline_table_start1+0x8c3>
   138a2:	4711                	li	a4,4
   138a4:	4489                	li	s1,2
   138a6:	853e                	mv	a0,a5
   138a8:	00000073          	ecall
   138ac:	02950a63          	beq	a0,s1,138e0 <_ZN18complex_no_dynamic3app17h59a4235887019378E+0x144>
   138b0:	4591                	li	a1,4
   138b2:	1010                	addi	a2,sp,32
   138b4:	05000693          	li	a3,80
   138b8:	470d                	li	a4,3
   138ba:	853e                	mv	a0,a5
   138bc:	00000073          	ecall
   138c0:	02950063          	beq	a0,s1,138e0 <_ZN18complex_no_dynamic3app17h59a4235887019378E+0x144>
   138c4:	6505                	lui	a0,0x1
   138c6:	459d                	li	a1,7
   138c8:	4611                	li	a2,4
   138ca:	aee50493          	addi	s1,a0,-1298 # aee <.Lline_table_start1+0x8c3>
   138ce:	4709                	li	a4,2
   138d0:	07f00413          	li	s0,127
   138d4:	8526                	mv	a0,s1
   138d6:	4681                	li	a3,0
   138d8:	00000073          	ecall
   138dc:	02a46b63          	bltu	s0,a0,13912 <_ZN18complex_no_dynamic3app17h59a4235887019378E+0x176>
   138e0:	853e                	mv	a0,a5
   138e2:	4601                	li	a2,0
   138e4:	4681                	li	a3,0
   138e6:	4705                	li	a4,1
   138e8:	00e90023          	sb	a4,0(s2)
   138ec:	00b92223          	sw	a1,4(s2)
   138f0:	4591                	li	a1,4
   138f2:	470d                	li	a4,3
   138f4:	00000073          	ecall
   138f8:	459d                	li	a1,7
   138fa:	4711                	li	a4,4
   138fc:	853e                	mv	a0,a5
   138fe:	4601                	li	a2,0
   13900:	4681                	li	a3,0
   13902:	00000073          	ecall
   13906:	50f6                	lw	ra,124(sp)
   13908:	5466                	lw	s0,120(sp)
   1390a:	54d6                	lw	s1,116(sp)
   1390c:	5946                	lw	s2,112(sp)
   1390e:	6109                	addi	sp,sp,128
   13910:	8082                	ret
   13912:	8526                	mv	a0,s1
   13914:	4601                	li	a2,0
   13916:	4681                	li	a3,0
   13918:	4591                	li	a1,4
   1391a:	470d                	li	a4,3
   1391c:	00000073          	ecall
   13920:	4591                	li	a1,4
   13922:	470d                	li	a4,3
   13924:	8526                	mv	a0,s1
   13926:	4601                	li	a2,0
   13928:	4681                	li	a3,0
   1392a:	00000073          	ecall
   1392e:	00190513          	addi	a0,s2,1
   13932:	100c                	addi	a1,sp,32
   13934:	05000613          	li	a2,80
   13938:	00008097          	auipc	ra,0x8
   1393c:	152080e7          	jalr	338(ra) # 1ba8a <memcpy>
   13940:	8526                	mv	a0,s1
   13942:	4601                	li	a2,0
   13944:	4681                	li	a3,0
   13946:	00090023          	sb	zero,0(s2)
   1394a:	4591                	li	a1,4
   1394c:	470d                	li	a4,3
   1394e:	00000073          	ecall
   13952:	459d                	li	a1,7
   13954:	4711                	li	a4,4
   13956:	8526                	mv	a0,s1
   13958:	4601                	li	a2,0
   1395a:	4681                	li	a3,0
   1395c:	00000073          	ecall
   13960:	b75d                	j	13906 <_ZN18complex_no_dynamic3app17h59a4235887019378E+0x16a>

00013962 <_ZN18complex_no_dynamic3app17h60a218fc3c820718E>:
   13962:	7159                	addi	sp,sp,-112
   13964:	d686                	sw	ra,108(sp)
   13966:	d4a2                	sw	s0,104(sp)
   13968:	d2a6                	sw	s1,100(sp)
   1396a:	842a                	mv	s0,a0
   1396c:	00210513          	addi	a0,sp,2
   13970:	03b00613          	li	a2,59
   13974:	00008097          	auipc	ra,0x8
   13978:	116080e7          	jalr	278(ra) # 1ba8a <memcpy>
   1397c:	03d10513          	addi	a0,sp,61
   13980:	02700613          	li	a2,39
   13984:	4581                	li	a1,0
   13986:	00008097          	auipc	ra,0x8
   1398a:	098080e7          	jalr	152(ra) # 1ba1e <memset>
   1398e:	6505                	lui	a0,0x1
   13990:	4595                	li	a1,5
   13992:	00210613          	addi	a2,sp,2
   13996:	03b00693          	li	a3,59
   1399a:	bd350793          	addi	a5,a0,-1069 # bd3 <.Lline_table_start1+0x9a8>
   1399e:	4711                	li	a4,4
   139a0:	4489                	li	s1,2
   139a2:	853e                	mv	a0,a5
   139a4:	00000073          	ecall
   139a8:	02950b63          	beq	a0,s1,139de <_ZN18complex_no_dynamic3app17h60a218fc3c820718E+0x7c>
   139ac:	458d                	li	a1,3
   139ae:	03d10613          	addi	a2,sp,61
   139b2:	02700693          	li	a3,39
   139b6:	470d                	li	a4,3
   139b8:	853e                	mv	a0,a5
   139ba:	00000073          	ecall
   139be:	02950063          	beq	a0,s1,139de <_ZN18complex_no_dynamic3app17h60a218fc3c820718E+0x7c>
   139c2:	6505                	lui	a0,0x1
   139c4:	4595                	li	a1,5
   139c6:	460d                	li	a2,3
   139c8:	bd350493          	addi	s1,a0,-1069 # bd3 <.Lline_table_start1+0x9a8>
   139cc:	4709                	li	a4,2
   139ce:	07f00813          	li	a6,127
   139d2:	8526                	mv	a0,s1
   139d4:	4681                	li	a3,0
   139d6:	00000073          	ecall
   139da:	02a86963          	bltu	a6,a0,13a0c <_ZN18complex_no_dynamic3app17h60a218fc3c820718E+0xaa>
   139de:	853e                	mv	a0,a5
   139e0:	4601                	li	a2,0
   139e2:	4681                	li	a3,0
   139e4:	4705                	li	a4,1
   139e6:	00e40023          	sb	a4,0(s0)
   139ea:	c04c                	sw	a1,4(s0)
   139ec:	458d                	li	a1,3
   139ee:	470d                	li	a4,3
   139f0:	00000073          	ecall
   139f4:	4595                	li	a1,5
   139f6:	4711                	li	a4,4
   139f8:	853e                	mv	a0,a5
   139fa:	4601                	li	a2,0
   139fc:	4681                	li	a3,0
   139fe:	00000073          	ecall
   13a02:	50b6                	lw	ra,108(sp)
   13a04:	5426                	lw	s0,104(sp)
   13a06:	5496                	lw	s1,100(sp)
   13a08:	6165                	addi	sp,sp,112
   13a0a:	8082                	ret
   13a0c:	8526                	mv	a0,s1
   13a0e:	4601                	li	a2,0
   13a10:	4681                	li	a3,0
   13a12:	458d                	li	a1,3
   13a14:	470d                	li	a4,3
   13a16:	00000073          	ecall
   13a1a:	458d                	li	a1,3
   13a1c:	470d                	li	a4,3
   13a1e:	8526                	mv	a0,s1
   13a20:	4601                	li	a2,0
   13a22:	4681                	li	a3,0
   13a24:	00000073          	ecall
   13a28:	00140513          	addi	a0,s0,1
   13a2c:	03d10593          	addi	a1,sp,61
   13a30:	02700613          	li	a2,39
   13a34:	00008097          	auipc	ra,0x8
   13a38:	056080e7          	jalr	86(ra) # 1ba8a <memcpy>
   13a3c:	8526                	mv	a0,s1
   13a3e:	4601                	li	a2,0
   13a40:	4681                	li	a3,0
   13a42:	00040023          	sb	zero,0(s0)
   13a46:	458d                	li	a1,3
   13a48:	470d                	li	a4,3
   13a4a:	00000073          	ecall
   13a4e:	4595                	li	a1,5
   13a50:	4711                	li	a4,4
   13a52:	8526                	mv	a0,s1
   13a54:	4601                	li	a2,0
   13a56:	4681                	li	a3,0
   13a58:	00000073          	ecall
   13a5c:	b75d                	j	13a02 <_ZN18complex_no_dynamic3app17h60a218fc3c820718E+0xa0>

00013a5e <_ZN18complex_no_dynamic3app17h61ba743a2fa1af96E>:
   13a5e:	7119                	addi	sp,sp,-128
   13a60:	de86                	sw	ra,124(sp)
   13a62:	dca2                	sw	s0,120(sp)
   13a64:	daa6                	sw	s1,116(sp)
   13a66:	842a                	mv	s0,a0
   13a68:	850a                	mv	a0,sp
   13a6a:	03500613          	li	a2,53
   13a6e:	00008097          	auipc	ra,0x8
   13a72:	01c080e7          	jalr	28(ra) # 1ba8a <memcpy>
   13a76:	03510513          	addi	a0,sp,53
   13a7a:	03f00613          	li	a2,63
   13a7e:	4581                	li	a1,0
   13a80:	00008097          	auipc	ra,0x8
   13a84:	f9e080e7          	jalr	-98(ra) # 1ba1e <memset>
   13a88:	6505                	lui	a0,0x1
   13a8a:	860a                	mv	a2,sp
   13a8c:	03500693          	li	a3,53
   13a90:	e5750793          	addi	a5,a0,-425 # e57 <.Lline_table_start1+0xc2c>
   13a94:	4711                	li	a4,4
   13a96:	4489                	li	s1,2
   13a98:	853e                	mv	a0,a5
   13a9a:	4581                	li	a1,0
   13a9c:	00000073          	ecall
   13aa0:	02950b63          	beq	a0,s1,13ad6 <_ZN18complex_no_dynamic3app17h61ba743a2fa1af96E+0x78>
   13aa4:	458d                	li	a1,3
   13aa6:	03510613          	addi	a2,sp,53
   13aaa:	03f00693          	li	a3,63
   13aae:	470d                	li	a4,3
   13ab0:	853e                	mv	a0,a5
   13ab2:	00000073          	ecall
   13ab6:	02950063          	beq	a0,s1,13ad6 <_ZN18complex_no_dynamic3app17h61ba743a2fa1af96E+0x78>
   13aba:	6505                	lui	a0,0x1
   13abc:	460d                	li	a2,3
   13abe:	e5750493          	addi	s1,a0,-425 # e57 <.Lline_table_start1+0xc2c>
   13ac2:	4709                	li	a4,2
   13ac4:	07f00813          	li	a6,127
   13ac8:	8526                	mv	a0,s1
   13aca:	4581                	li	a1,0
   13acc:	4681                	li	a3,0
   13ace:	00000073          	ecall
   13ad2:	02a86a63          	bltu	a6,a0,13b06 <_ZN18complex_no_dynamic3app17h61ba743a2fa1af96E+0xa8>
   13ad6:	862e                	mv	a2,a1
   13ad8:	4505                	li	a0,1
   13ada:	458d                	li	a1,3
   13adc:	00a40023          	sb	a0,0(s0)
   13ae0:	c050                	sw	a2,4(s0)
   13ae2:	470d                	li	a4,3
   13ae4:	853e                	mv	a0,a5
   13ae6:	4601                	li	a2,0
   13ae8:	4681                	li	a3,0
   13aea:	00000073          	ecall
   13aee:	4711                	li	a4,4
   13af0:	853e                	mv	a0,a5
   13af2:	4581                	li	a1,0
   13af4:	4601                	li	a2,0
   13af6:	4681                	li	a3,0
   13af8:	00000073          	ecall
   13afc:	50f6                	lw	ra,124(sp)
   13afe:	5466                	lw	s0,120(sp)
   13b00:	54d6                	lw	s1,116(sp)
   13b02:	6109                	addi	sp,sp,128
   13b04:	8082                	ret
   13b06:	8526                	mv	a0,s1
   13b08:	4601                	li	a2,0
   13b0a:	4681                	li	a3,0
   13b0c:	458d                	li	a1,3
   13b0e:	470d                	li	a4,3
   13b10:	00000073          	ecall
   13b14:	458d                	li	a1,3
   13b16:	470d                	li	a4,3
   13b18:	8526                	mv	a0,s1
   13b1a:	4601                	li	a2,0
   13b1c:	4681                	li	a3,0
   13b1e:	00000073          	ecall
   13b22:	00140513          	addi	a0,s0,1
   13b26:	03510593          	addi	a1,sp,53
   13b2a:	03f00613          	li	a2,63
   13b2e:	00008097          	auipc	ra,0x8
   13b32:	f5c080e7          	jalr	-164(ra) # 1ba8a <memcpy>
   13b36:	00040023          	sb	zero,0(s0)
   13b3a:	458d                	li	a1,3
   13b3c:	470d                	li	a4,3
   13b3e:	8526                	mv	a0,s1
   13b40:	4601                	li	a2,0
   13b42:	4681                	li	a3,0
   13b44:	00000073          	ecall
   13b48:	4711                	li	a4,4
   13b4a:	8526                	mv	a0,s1
   13b4c:	4581                	li	a1,0
   13b4e:	4601                	li	a2,0
   13b50:	4681                	li	a3,0
   13b52:	00000073          	ecall
   13b56:	b75d                	j	13afc <_ZN18complex_no_dynamic3app17h61ba743a2fa1af96E+0x9e>

00013b58 <_ZN18complex_no_dynamic3app17h664d6f97b0cdfa01E>:
   13b58:	7159                	addi	sp,sp,-112
   13b5a:	d686                	sw	ra,108(sp)
   13b5c:	d4a2                	sw	s0,104(sp)
   13b5e:	d2a6                	sw	s1,100(sp)
   13b60:	842a                	mv	s0,a0
   13b62:	00910513          	addi	a0,sp,9
   13b66:	03f00613          	li	a2,63
   13b6a:	00008097          	auipc	ra,0x8
   13b6e:	f20080e7          	jalr	-224(ra) # 1ba8a <memcpy>
   13b72:	cc82                	sw	zero,88(sp)
   13b74:	ce82                	sw	zero,92(sp)
   13b76:	d082                	sw	zero,96(sp)
   13b78:	c482                	sw	zero,72(sp)
   13b7a:	c682                	sw	zero,76(sp)
   13b7c:	c882                	sw	zero,80(sp)
   13b7e:	ca82                	sw	zero,84(sp)
   13b80:	6505                	lui	a0,0x1
   13b82:	4595                	li	a1,5
   13b84:	00910613          	addi	a2,sp,9
   13b88:	03f00693          	li	a3,63
   13b8c:	69450793          	addi	a5,a0,1684 # 1694 <.Lline_table_start1+0x1469>
   13b90:	4711                	li	a4,4
   13b92:	4489                	li	s1,2
   13b94:	853e                	mv	a0,a5
   13b96:	00000073          	ecall
   13b9a:	02950963          	beq	a0,s1,13bcc <_ZN18complex_no_dynamic3app17h664d6f97b0cdfa01E+0x74>
   13b9e:	45a5                	li	a1,9
   13ba0:	00b0                	addi	a2,sp,72
   13ba2:	46f1                	li	a3,28
   13ba4:	470d                	li	a4,3
   13ba6:	853e                	mv	a0,a5
   13ba8:	00000073          	ecall
   13bac:	02950063          	beq	a0,s1,13bcc <_ZN18complex_no_dynamic3app17h664d6f97b0cdfa01E+0x74>
   13bb0:	6505                	lui	a0,0x1
   13bb2:	4595                	li	a1,5
   13bb4:	4625                	li	a2,9
   13bb6:	69450493          	addi	s1,a0,1684 # 1694 <.Lline_table_start1+0x1469>
   13bba:	4709                	li	a4,2
   13bbc:	07f00813          	li	a6,127
   13bc0:	8526                	mv	a0,s1
   13bc2:	4681                	li	a3,0
   13bc4:	00000073          	ecall
   13bc8:	02a86963          	bltu	a6,a0,13bfa <_ZN18complex_no_dynamic3app17h664d6f97b0cdfa01E+0xa2>
   13bcc:	853e                	mv	a0,a5
   13bce:	4601                	li	a2,0
   13bd0:	4681                	li	a3,0
   13bd2:	4705                	li	a4,1
   13bd4:	00e40023          	sb	a4,0(s0)
   13bd8:	c04c                	sw	a1,4(s0)
   13bda:	45a5                	li	a1,9
   13bdc:	470d                	li	a4,3
   13bde:	00000073          	ecall
   13be2:	4595                	li	a1,5
   13be4:	4711                	li	a4,4
   13be6:	853e                	mv	a0,a5
   13be8:	4601                	li	a2,0
   13bea:	4681                	li	a3,0
   13bec:	00000073          	ecall
   13bf0:	50b6                	lw	ra,108(sp)
   13bf2:	5426                	lw	s0,104(sp)
   13bf4:	5496                	lw	s1,100(sp)
   13bf6:	6165                	addi	sp,sp,112
   13bf8:	8082                	ret
   13bfa:	8526                	mv	a0,s1
   13bfc:	4601                	li	a2,0
   13bfe:	4681                	li	a3,0
   13c00:	45a5                	li	a1,9
   13c02:	470d                	li	a4,3
   13c04:	00000073          	ecall
   13c08:	45a5                	li	a1,9
   13c0a:	470d                	li	a4,3
   13c0c:	8526                	mv	a0,s1
   13c0e:	4601                	li	a2,0
   13c10:	4681                	li	a3,0
   13c12:	00000073          	ecall
   13c16:	00140513          	addi	a0,s0,1
   13c1a:	00ac                	addi	a1,sp,72
   13c1c:	4671                	li	a2,28
   13c1e:	00008097          	auipc	ra,0x8
   13c22:	e6c080e7          	jalr	-404(ra) # 1ba8a <memcpy>
   13c26:	8526                	mv	a0,s1
   13c28:	4601                	li	a2,0
   13c2a:	4681                	li	a3,0
   13c2c:	00040023          	sb	zero,0(s0)
   13c30:	45a5                	li	a1,9
   13c32:	470d                	li	a4,3
   13c34:	00000073          	ecall
   13c38:	4595                	li	a1,5
   13c3a:	4711                	li	a4,4
   13c3c:	8526                	mv	a0,s1
   13c3e:	4601                	li	a2,0
   13c40:	4681                	li	a3,0
   13c42:	00000073          	ecall
   13c46:	b76d                	j	13bf0 <_ZN18complex_no_dynamic3app17h664d6f97b0cdfa01E+0x98>

00013c48 <_ZN18complex_no_dynamic3app17h66612f856908dceaE>:
   13c48:	7171                	addi	sp,sp,-176
   13c4a:	d706                	sw	ra,172(sp)
   13c4c:	d522                	sw	s0,168(sp)
   13c4e:	d326                	sw	s1,164(sp)
   13c50:	842a                	mv	s0,a0
   13c52:	00510513          	addi	a0,sp,5
   13c56:	05600613          	li	a2,86
   13c5a:	00008097          	auipc	ra,0x8
   13c5e:	e30080e7          	jalr	-464(ra) # 1ba8a <memcpy>
   13c62:	05b10513          	addi	a0,sp,91
   13c66:	04900613          	li	a2,73
   13c6a:	4581                	li	a1,0
   13c6c:	00008097          	auipc	ra,0x8
   13c70:	db2080e7          	jalr	-590(ra) # 1ba1e <memset>
   13c74:	6509                	lui	a0,0x2
   13c76:	4599                	li	a1,6
   13c78:	00510613          	addi	a2,sp,5
   13c7c:	05600693          	li	a3,86
   13c80:	c6b50793          	addi	a5,a0,-917 # 1c6b <.Lline_table_start1+0x1a40>
   13c84:	4711                	li	a4,4
   13c86:	4489                	li	s1,2
   13c88:	853e                	mv	a0,a5
   13c8a:	00000073          	ecall
   13c8e:	02950b63          	beq	a0,s1,13cc4 <_ZN18complex_no_dynamic3app17h66612f856908dceaE+0x7c>
   13c92:	4599                	li	a1,6
   13c94:	05b10613          	addi	a2,sp,91
   13c98:	04900693          	li	a3,73
   13c9c:	470d                	li	a4,3
   13c9e:	853e                	mv	a0,a5
   13ca0:	00000073          	ecall
   13ca4:	02950063          	beq	a0,s1,13cc4 <_ZN18complex_no_dynamic3app17h66612f856908dceaE+0x7c>
   13ca8:	6509                	lui	a0,0x2
   13caa:	4599                	li	a1,6
   13cac:	4619                	li	a2,6
   13cae:	c6b50493          	addi	s1,a0,-917 # 1c6b <.Lline_table_start1+0x1a40>
   13cb2:	4709                	li	a4,2
   13cb4:	07f00813          	li	a6,127
   13cb8:	8526                	mv	a0,s1
   13cba:	4681                	li	a3,0
   13cbc:	00000073          	ecall
   13cc0:	02a86963          	bltu	a6,a0,13cf2 <_ZN18complex_no_dynamic3app17h66612f856908dceaE+0xaa>
   13cc4:	853e                	mv	a0,a5
   13cc6:	4601                	li	a2,0
   13cc8:	4681                	li	a3,0
   13cca:	4705                	li	a4,1
   13ccc:	00e40023          	sb	a4,0(s0)
   13cd0:	c04c                	sw	a1,4(s0)
   13cd2:	4599                	li	a1,6
   13cd4:	470d                	li	a4,3
   13cd6:	00000073          	ecall
   13cda:	4599                	li	a1,6
   13cdc:	4711                	li	a4,4
   13cde:	853e                	mv	a0,a5
   13ce0:	4601                	li	a2,0
   13ce2:	4681                	li	a3,0
   13ce4:	00000073          	ecall
   13ce8:	50ba                	lw	ra,172(sp)
   13cea:	542a                	lw	s0,168(sp)
   13cec:	549a                	lw	s1,164(sp)
   13cee:	614d                	addi	sp,sp,176
   13cf0:	8082                	ret
   13cf2:	8526                	mv	a0,s1
   13cf4:	4601                	li	a2,0
   13cf6:	4681                	li	a3,0
   13cf8:	4599                	li	a1,6
   13cfa:	470d                	li	a4,3
   13cfc:	00000073          	ecall
   13d00:	4599                	li	a1,6
   13d02:	470d                	li	a4,3
   13d04:	8526                	mv	a0,s1
   13d06:	4601                	li	a2,0
   13d08:	4681                	li	a3,0
   13d0a:	00000073          	ecall
   13d0e:	00140513          	addi	a0,s0,1
   13d12:	05b10593          	addi	a1,sp,91
   13d16:	04900613          	li	a2,73
   13d1a:	00008097          	auipc	ra,0x8
   13d1e:	d70080e7          	jalr	-656(ra) # 1ba8a <memcpy>
   13d22:	8526                	mv	a0,s1
   13d24:	4601                	li	a2,0
   13d26:	4681                	li	a3,0
   13d28:	00040023          	sb	zero,0(s0)
   13d2c:	4599                	li	a1,6
   13d2e:	470d                	li	a4,3
   13d30:	00000073          	ecall
   13d34:	4599                	li	a1,6
   13d36:	4711                	li	a4,4
   13d38:	8526                	mv	a0,s1
   13d3a:	4601                	li	a2,0
   13d3c:	4681                	li	a3,0
   13d3e:	00000073          	ecall
   13d42:	b75d                	j	13ce8 <_ZN18complex_no_dynamic3app17h66612f856908dceaE+0xa0>

00013d44 <_ZN18complex_no_dynamic3app17h6711aae808d7a5b2E>:
   13d44:	711d                	addi	sp,sp,-96
   13d46:	ce86                	sw	ra,92(sp)
   13d48:	cca2                	sw	s0,88(sp)
   13d4a:	caa6                	sw	s1,84(sp)
   13d4c:	842a                	mv	s0,a0
   13d4e:	00d10513          	addi	a0,sp,13
   13d52:	02300613          	li	a2,35
   13d56:	00008097          	auipc	ra,0x8
   13d5a:	d34080e7          	jalr	-716(ra) # 1ba8a <memcpy>
   13d5e:	1808                	addi	a0,sp,48
   13d60:	02400613          	li	a2,36
   13d64:	4581                	li	a1,0
   13d66:	00008097          	auipc	ra,0x8
   13d6a:	cb8080e7          	jalr	-840(ra) # 1ba1e <memset>
   13d6e:	6509                	lui	a0,0x2
   13d70:	4591                	li	a1,4
   13d72:	00d10613          	addi	a2,sp,13
   13d76:	02300693          	li	a3,35
   13d7a:	bd650793          	addi	a5,a0,-1066 # 1bd6 <.Lline_table_start1+0x19ab>
   13d7e:	4711                	li	a4,4
   13d80:	4489                	li	s1,2
   13d82:	853e                	mv	a0,a5
   13d84:	00000073          	ecall
   13d88:	02950a63          	beq	a0,s1,13dbc <_ZN18complex_no_dynamic3app17h6711aae808d7a5b2E+0x78>
   13d8c:	45a1                	li	a1,8
   13d8e:	1810                	addi	a2,sp,48
   13d90:	02400693          	li	a3,36
   13d94:	470d                	li	a4,3
   13d96:	853e                	mv	a0,a5
   13d98:	00000073          	ecall
   13d9c:	02950063          	beq	a0,s1,13dbc <_ZN18complex_no_dynamic3app17h6711aae808d7a5b2E+0x78>
   13da0:	6509                	lui	a0,0x2
   13da2:	4591                	li	a1,4
   13da4:	4621                	li	a2,8
   13da6:	bd650493          	addi	s1,a0,-1066 # 1bd6 <.Lline_table_start1+0x19ab>
   13daa:	4709                	li	a4,2
   13dac:	07f00813          	li	a6,127
   13db0:	8526                	mv	a0,s1
   13db2:	4681                	li	a3,0
   13db4:	00000073          	ecall
   13db8:	02a86963          	bltu	a6,a0,13dea <_ZN18complex_no_dynamic3app17h6711aae808d7a5b2E+0xa6>
   13dbc:	853e                	mv	a0,a5
   13dbe:	4601                	li	a2,0
   13dc0:	4681                	li	a3,0
   13dc2:	4705                	li	a4,1
   13dc4:	00e40023          	sb	a4,0(s0)
   13dc8:	c04c                	sw	a1,4(s0)
   13dca:	45a1                	li	a1,8
   13dcc:	470d                	li	a4,3
   13dce:	00000073          	ecall
   13dd2:	4591                	li	a1,4
   13dd4:	4711                	li	a4,4
   13dd6:	853e                	mv	a0,a5
   13dd8:	4601                	li	a2,0
   13dda:	4681                	li	a3,0
   13ddc:	00000073          	ecall
   13de0:	40f6                	lw	ra,92(sp)
   13de2:	4466                	lw	s0,88(sp)
   13de4:	44d6                	lw	s1,84(sp)
   13de6:	6125                	addi	sp,sp,96
   13de8:	8082                	ret
   13dea:	8526                	mv	a0,s1
   13dec:	4601                	li	a2,0
   13dee:	4681                	li	a3,0
   13df0:	45a1                	li	a1,8
   13df2:	470d                	li	a4,3
   13df4:	00000073          	ecall
   13df8:	45a1                	li	a1,8
   13dfa:	470d                	li	a4,3
   13dfc:	8526                	mv	a0,s1
   13dfe:	4601                	li	a2,0
   13e00:	4681                	li	a3,0
   13e02:	00000073          	ecall
   13e06:	00140513          	addi	a0,s0,1
   13e0a:	180c                	addi	a1,sp,48
   13e0c:	02400613          	li	a2,36
   13e10:	00008097          	auipc	ra,0x8
   13e14:	c7a080e7          	jalr	-902(ra) # 1ba8a <memcpy>
   13e18:	8526                	mv	a0,s1
   13e1a:	4601                	li	a2,0
   13e1c:	4681                	li	a3,0
   13e1e:	00040023          	sb	zero,0(s0)
   13e22:	45a1                	li	a1,8
   13e24:	470d                	li	a4,3
   13e26:	00000073          	ecall
   13e2a:	4591                	li	a1,4
   13e2c:	4711                	li	a4,4
   13e2e:	8526                	mv	a0,s1
   13e30:	4601                	li	a2,0
   13e32:	4681                	li	a3,0
   13e34:	00000073          	ecall
   13e38:	b765                	j	13de0 <_ZN18complex_no_dynamic3app17h6711aae808d7a5b2E+0x9c>

00013e3a <_ZN18complex_no_dynamic3app17h67a043543bf8a2c0E>:
   13e3a:	7119                	addi	sp,sp,-128
   13e3c:	de86                	sw	ra,124(sp)
   13e3e:	dca2                	sw	s0,120(sp)
   13e40:	daa6                	sw	s1,116(sp)
   13e42:	842a                	mv	s0,a0
   13e44:	00610513          	addi	a0,sp,6
   13e48:	03c00613          	li	a2,60
   13e4c:	00008097          	auipc	ra,0x8
   13e50:	c3e080e7          	jalr	-962(ra) # 1ba8a <memcpy>
   13e54:	04210513          	addi	a0,sp,66
   13e58:	03200613          	li	a2,50
   13e5c:	4581                	li	a1,0
   13e5e:	00008097          	auipc	ra,0x8
   13e62:	bc0080e7          	jalr	-1088(ra) # 1ba1e <memset>
   13e66:	6509                	lui	a0,0x2
   13e68:	4599                	li	a1,6
   13e6a:	00610613          	addi	a2,sp,6
   13e6e:	03c00693          	li	a3,60
   13e72:	b1e50793          	addi	a5,a0,-1250 # 1b1e <.Lline_table_start1+0x18f3>
   13e76:	4711                	li	a4,4
   13e78:	4489                	li	s1,2
   13e7a:	853e                	mv	a0,a5
   13e7c:	00000073          	ecall
   13e80:	02950b63          	beq	a0,s1,13eb6 <_ZN18complex_no_dynamic3app17h67a043543bf8a2c0E+0x7c>
   13e84:	45a1                	li	a1,8
   13e86:	04210613          	addi	a2,sp,66
   13e8a:	03200693          	li	a3,50
   13e8e:	470d                	li	a4,3
   13e90:	853e                	mv	a0,a5
   13e92:	00000073          	ecall
   13e96:	02950063          	beq	a0,s1,13eb6 <_ZN18complex_no_dynamic3app17h67a043543bf8a2c0E+0x7c>
   13e9a:	6509                	lui	a0,0x2
   13e9c:	4599                	li	a1,6
   13e9e:	4621                	li	a2,8
   13ea0:	b1e50493          	addi	s1,a0,-1250 # 1b1e <.Lline_table_start1+0x18f3>
   13ea4:	4709                	li	a4,2
   13ea6:	07f00813          	li	a6,127
   13eaa:	8526                	mv	a0,s1
   13eac:	4681                	li	a3,0
   13eae:	00000073          	ecall
   13eb2:	02a86963          	bltu	a6,a0,13ee4 <_ZN18complex_no_dynamic3app17h67a043543bf8a2c0E+0xaa>
   13eb6:	853e                	mv	a0,a5
   13eb8:	4601                	li	a2,0
   13eba:	4681                	li	a3,0
   13ebc:	4705                	li	a4,1
   13ebe:	00e40023          	sb	a4,0(s0)
   13ec2:	c04c                	sw	a1,4(s0)
   13ec4:	45a1                	li	a1,8
   13ec6:	470d                	li	a4,3
   13ec8:	00000073          	ecall
   13ecc:	4599                	li	a1,6
   13ece:	4711                	li	a4,4
   13ed0:	853e                	mv	a0,a5
   13ed2:	4601                	li	a2,0
   13ed4:	4681                	li	a3,0
   13ed6:	00000073          	ecall
   13eda:	50f6                	lw	ra,124(sp)
   13edc:	5466                	lw	s0,120(sp)
   13ede:	54d6                	lw	s1,116(sp)
   13ee0:	6109                	addi	sp,sp,128
   13ee2:	8082                	ret
   13ee4:	8526                	mv	a0,s1
   13ee6:	4601                	li	a2,0
   13ee8:	4681                	li	a3,0
   13eea:	45a1                	li	a1,8
   13eec:	470d                	li	a4,3
   13eee:	00000073          	ecall
   13ef2:	45a1                	li	a1,8
   13ef4:	470d                	li	a4,3
   13ef6:	8526                	mv	a0,s1
   13ef8:	4601                	li	a2,0
   13efa:	4681                	li	a3,0
   13efc:	00000073          	ecall
   13f00:	00140513          	addi	a0,s0,1
   13f04:	04210593          	addi	a1,sp,66
   13f08:	03200613          	li	a2,50
   13f0c:	00008097          	auipc	ra,0x8
   13f10:	b7e080e7          	jalr	-1154(ra) # 1ba8a <memcpy>
   13f14:	8526                	mv	a0,s1
   13f16:	4601                	li	a2,0
   13f18:	4681                	li	a3,0
   13f1a:	00040023          	sb	zero,0(s0)
   13f1e:	45a1                	li	a1,8
   13f20:	470d                	li	a4,3
   13f22:	00000073          	ecall
   13f26:	4599                	li	a1,6
   13f28:	4711                	li	a4,4
   13f2a:	8526                	mv	a0,s1
   13f2c:	4601                	li	a2,0
   13f2e:	4681                	li	a3,0
   13f30:	00000073          	ecall
   13f34:	b75d                	j	13eda <_ZN18complex_no_dynamic3app17h67a043543bf8a2c0E+0xa0>

00013f36 <_ZN18complex_no_dynamic3app17h6895f89b5693ea64E>:
   13f36:	7175                	addi	sp,sp,-144
   13f38:	c706                	sw	ra,140(sp)
   13f3a:	c522                	sw	s0,136(sp)
   13f3c:	c326                	sw	s1,132(sp)
   13f3e:	c14a                	sw	s2,128(sp)
   13f40:	dece                	sw	s3,124(sp)
   13f42:	dcd2                	sw	s4,120(sp)
   13f44:	892a                	mv	s2,a0
   13f46:	01c5c303          	lbu	t1,28(a1)
   13f4a:	01d5c603          	lbu	a2,29(a1)
   13f4e:	0185c683          	lbu	a3,24(a1)
   13f52:	0195c703          	lbu	a4,25(a1)
   13f56:	01a5c803          	lbu	a6,26(a1)
   13f5a:	01b5c283          	lbu	t0,27(a1)
   13f5e:	0145c883          	lbu	a7,20(a1)
   13f62:	0155c383          	lbu	t2,21(a1)
   13f66:	0165c403          	lbu	s0,22(a1)
   13f6a:	0175c483          	lbu	s1,23(a1)
   13f6e:	0105c503          	lbu	a0,16(a1)
   13f72:	0115c783          	lbu	a5,17(a1)
   13f76:	0125ce03          	lbu	t3,18(a1)
   13f7a:	0135ce83          	lbu	t4,19(a1)
   13f7e:	0622                	slli	a2,a2,0x8
   13f80:	0722                	slli	a4,a4,0x8
   13f82:	00666333          	or	t1,a2,t1
   13f86:	00d76f33          	or	t5,a4,a3
   13f8a:	00c5cf83          	lbu	t6,12(a1)
   13f8e:	00d5c683          	lbu	a3,13(a1)
   13f92:	00e5c703          	lbu	a4,14(a1)
   13f96:	00f5c603          	lbu	a2,15(a1)
   13f9a:	0842                	slli	a6,a6,0x10
   13f9c:	02e2                	slli	t0,t0,0x18
   13f9e:	03a2                	slli	t2,t2,0x8
   13fa0:	0442                	slli	s0,s0,0x10
   13fa2:	04e2                	slli	s1,s1,0x18
   13fa4:	07a2                	slli	a5,a5,0x8
   13fa6:	0102e2b3          	or	t0,t0,a6
   13faa:	0113e833          	or	a6,t2,a7
   13fae:	0084e8b3          	or	a7,s1,s0
   13fb2:	00a7e3b3          	or	t2,a5,a0
   13fb6:	0085c503          	lbu	a0,8(a1)
   13fba:	0095c783          	lbu	a5,9(a1)
   13fbe:	00a5c403          	lbu	s0,10(a1)
   13fc2:	00b5c483          	lbu	s1,11(a1)
   13fc6:	0e42                	slli	t3,t3,0x10
   13fc8:	0ee2                	slli	t4,t4,0x18
   13fca:	06a2                	slli	a3,a3,0x8
   13fcc:	0742                	slli	a4,a4,0x10
   13fce:	0662                	slli	a2,a2,0x18
   13fd0:	07a2                	slli	a5,a5,0x8
   13fd2:	01ceee33          	or	t3,t4,t3
   13fd6:	01f6eeb3          	or	t4,a3,t6
   13fda:	00e669b3          	or	s3,a2,a4
   13fde:	00a7efb3          	or	t6,a5,a0
   13fe2:	0045c703          	lbu	a4,4(a1)
   13fe6:	0055c783          	lbu	a5,5(a1)
   13fea:	0065c683          	lbu	a3,6(a1)
   13fee:	0075c503          	lbu	a0,7(a1)
   13ff2:	0442                	slli	s0,s0,0x10
   13ff4:	04e2                	slli	s1,s1,0x18
   13ff6:	07a2                	slli	a5,a5,0x8
   13ff8:	06c2                	slli	a3,a3,0x10
   13ffa:	0562                	slli	a0,a0,0x18
   13ffc:	8c45                	or	s0,s0,s1
   13ffe:	00e7ea33          	or	s4,a5,a4
   14002:	0005c783          	lbu	a5,0(a1)
   14006:	0015c483          	lbu	s1,1(a1)
   1400a:	8d55                	or	a0,a0,a3
   1400c:	0025c683          	lbu	a3,2(a1)
   14010:	0035c583          	lbu	a1,3(a1)
   14014:	04a2                	slli	s1,s1,0x8
   14016:	8fc5                	or	a5,a5,s1
   14018:	06c2                	slli	a3,a3,0x10
   1401a:	05e2                	slli	a1,a1,0x18
   1401c:	8dd5                	or	a1,a1,a3
   1401e:	01e2e6b3          	or	a3,t0,t5
   14022:	0108e4b3          	or	s1,a7,a6
   14026:	007e6633          	or	a2,t3,t2
   1402a:	01d9e733          	or	a4,s3,t4
   1402e:	01f46433          	or	s0,s0,t6
   14032:	01456533          	or	a0,a0,s4
   14036:	8ddd                	or	a1,a1,a5
   14038:	cc32                	sw	a2,24(sp)
   1403a:	ce26                	sw	s1,28(sp)
   1403c:	d036                	sw	a3,32(sp)
   1403e:	02611223          	sh	t1,36(sp)
   14042:	c42e                	sw	a1,8(sp)
   14044:	c62a                	sw	a0,12(sp)
   14046:	c822                	sw	s0,16(sp)
   14048:	ca3a                	sw	a4,20(sp)
   1404a:	02710513          	addi	a0,sp,39
   1404e:	05100613          	li	a2,81
   14052:	4581                	li	a1,0
   14054:	00008097          	auipc	ra,0x8
   14058:	9ca080e7          	jalr	-1590(ra) # 1ba1e <memset>
   1405c:	6509                	lui	a0,0x2
   1405e:	4489                	li	s1,2
   14060:	4589                	li	a1,2
   14062:	0030                	addi	a2,sp,8
   14064:	96b50793          	addi	a5,a0,-1685 # 196b <.Lline_table_start1+0x1740>
   14068:	46f9                	li	a3,30
   1406a:	4711                	li	a4,4
   1406c:	853e                	mv	a0,a5
   1406e:	00000073          	ecall
   14072:	02950b63          	beq	a0,s1,140a8 <_ZN18complex_no_dynamic3app17h6895f89b5693ea64E+0x172>
   14076:	02710613          	addi	a2,sp,39
   1407a:	05100693          	li	a3,81
   1407e:	470d                	li	a4,3
   14080:	853e                	mv	a0,a5
   14082:	4581                	li	a1,0
   14084:	00000073          	ecall
   14088:	02950063          	beq	a0,s1,140a8 <_ZN18complex_no_dynamic3app17h6895f89b5693ea64E+0x172>
   1408c:	6509                	lui	a0,0x2
   1408e:	4589                	li	a1,2
   14090:	96b50493          	addi	s1,a0,-1685 # 196b <.Lline_table_start1+0x1740>
   14094:	4709                	li	a4,2
   14096:	07f00413          	li	s0,127
   1409a:	8526                	mv	a0,s1
   1409c:	4601                	li	a2,0
   1409e:	4681                	li	a3,0
   140a0:	00000073          	ecall
   140a4:	02a46e63          	bltu	s0,a0,140e0 <_ZN18complex_no_dynamic3app17h6895f89b5693ea64E+0x1aa>
   140a8:	872e                	mv	a4,a1
   140aa:	853e                	mv	a0,a5
   140ac:	4581                	li	a1,0
   140ae:	4601                	li	a2,0
   140b0:	4681                	li	a3,0
   140b2:	4485                	li	s1,1
   140b4:	00990023          	sb	s1,0(s2)
   140b8:	00e92223          	sw	a4,4(s2)
   140bc:	470d                	li	a4,3
   140be:	00000073          	ecall
   140c2:	4589                	li	a1,2
   140c4:	4711                	li	a4,4
   140c6:	853e                	mv	a0,a5
   140c8:	4601                	li	a2,0
   140ca:	4681                	li	a3,0
   140cc:	00000073          	ecall
   140d0:	40ba                	lw	ra,140(sp)
   140d2:	442a                	lw	s0,136(sp)
   140d4:	449a                	lw	s1,132(sp)
   140d6:	490a                	lw	s2,128(sp)
   140d8:	59f6                	lw	s3,124(sp)
   140da:	5a66                	lw	s4,120(sp)
   140dc:	6149                	addi	sp,sp,144
   140de:	8082                	ret
   140e0:	470d                	li	a4,3
   140e2:	8526                	mv	a0,s1
   140e4:	4581                	li	a1,0
   140e6:	4601                	li	a2,0
   140e8:	4681                	li	a3,0
   140ea:	00000073          	ecall
   140ee:	470d                	li	a4,3
   140f0:	8526                	mv	a0,s1
   140f2:	4581                	li	a1,0
   140f4:	4601                	li	a2,0
   140f6:	4681                	li	a3,0
   140f8:	00000073          	ecall
   140fc:	00190513          	addi	a0,s2,1
   14100:	02710593          	addi	a1,sp,39
   14104:	05100613          	li	a2,81
   14108:	00008097          	auipc	ra,0x8
   1410c:	982080e7          	jalr	-1662(ra) # 1ba8a <memcpy>
   14110:	8526                	mv	a0,s1
   14112:	4581                	li	a1,0
   14114:	4601                	li	a2,0
   14116:	4681                	li	a3,0
   14118:	00090023          	sb	zero,0(s2)
   1411c:	470d                	li	a4,3
   1411e:	00000073          	ecall
   14122:	4589                	li	a1,2
   14124:	4711                	li	a4,4
   14126:	8526                	mv	a0,s1
   14128:	4601                	li	a2,0
   1412a:	4681                	li	a3,0
   1412c:	00000073          	ecall
   14130:	b745                	j	140d0 <_ZN18complex_no_dynamic3app17h6895f89b5693ea64E+0x19a>

00014132 <_ZN18complex_no_dynamic3app17h6d9401401e925069E>:
   14132:	715d                	addi	sp,sp,-80
   14134:	c686                	sw	ra,76(sp)
   14136:	c4a2                	sw	s0,72(sp)
   14138:	c2a6                	sw	s1,68(sp)
   1413a:	c0ca                	sw	s2,64(sp)
   1413c:	892a                	mv	s2,a0
   1413e:	00c5c503          	lbu	a0,12(a1)
   14142:	00d5c603          	lbu	a2,13(a1)
   14146:	00e5c683          	lbu	a3,14(a1)
   1414a:	0085c703          	lbu	a4,8(a1)
   1414e:	0095c783          	lbu	a5,9(a1)
   14152:	00a5c403          	lbu	s0,10(a1)
   14156:	00b5c483          	lbu	s1,11(a1)
   1415a:	00d10d23          	sb	a3,26(sp)
   1415e:	0622                	slli	a2,a2,0x8
   14160:	07a2                	slli	a5,a5,0x8
   14162:	00a66833          	or	a6,a2,a0
   14166:	8f5d                	or	a4,a4,a5
   14168:	0045c603          	lbu	a2,4(a1)
   1416c:	0055c683          	lbu	a3,5(a1)
   14170:	0065c783          	lbu	a5,6(a1)
   14174:	0075c503          	lbu	a0,7(a1)
   14178:	0442                	slli	s0,s0,0x10
   1417a:	04e2                	slli	s1,s1,0x18
   1417c:	06a2                	slli	a3,a3,0x8
   1417e:	07c2                	slli	a5,a5,0x10
   14180:	0562                	slli	a0,a0,0x18
   14182:	8c45                	or	s0,s0,s1
   14184:	8e55                	or	a2,a2,a3
   14186:	0005c683          	lbu	a3,0(a1)
   1418a:	0015c483          	lbu	s1,1(a1)
   1418e:	8d5d                	or	a0,a0,a5
   14190:	0025c783          	lbu	a5,2(a1)
   14194:	0035c583          	lbu	a1,3(a1)
   14198:	04a2                	slli	s1,s1,0x8
   1419a:	8ec5                	or	a3,a3,s1
   1419c:	07c2                	slli	a5,a5,0x10
   1419e:	05e2                	slli	a1,a1,0x18
   141a0:	8ddd                	or	a1,a1,a5
   141a2:	8f41                	or	a4,a4,s0
   141a4:	8d51                	or	a0,a0,a2
   141a6:	8dd5                	or	a1,a1,a3
   141a8:	c62e                	sw	a1,12(sp)
   141aa:	c82a                	sw	a0,16(sp)
   141ac:	ca3a                	sw	a4,20(sp)
   141ae:	01011c23          	sh	a6,24(sp)
   141b2:	01b10513          	addi	a0,sp,27
   141b6:	02500613          	li	a2,37
   141ba:	4581                	li	a1,0
   141bc:	00008097          	auipc	ra,0x8
   141c0:	862080e7          	jalr	-1950(ra) # 1ba1e <memset>
   141c4:	0a200513          	li	a0,162
   141c8:	45a1                	li	a1,8
   141ca:	0070                	addi	a2,sp,12
   141cc:	46bd                	li	a3,15
   141ce:	4711                	li	a4,4
   141d0:	4789                	li	a5,2
   141d2:	00000073          	ecall
   141d6:	02f50a63          	beq	a0,a5,1420a <_ZN18complex_no_dynamic3app17h6d9401401e925069E+0xd8>
   141da:	0a200513          	li	a0,162
   141de:	01b10613          	addi	a2,sp,27
   141e2:	02500693          	li	a3,37
   141e6:	470d                	li	a4,3
   141e8:	4581                	li	a1,0
   141ea:	00000073          	ecall
   141ee:	00f50e63          	beq	a0,a5,1420a <_ZN18complex_no_dynamic3app17h6d9401401e925069E+0xd8>
   141f2:	0a200513          	li	a0,162
   141f6:	45a1                	li	a1,8
   141f8:	4709                	li	a4,2
   141fa:	07f00793          	li	a5,127
   141fe:	4601                	li	a2,0
   14200:	4681                	li	a3,0
   14202:	00000073          	ecall
   14206:	02a7ee63          	bltu	a5,a0,14242 <_ZN18complex_no_dynamic3app17h6d9401401e925069E+0x110>
   1420a:	872e                	mv	a4,a1
   1420c:	4581                	li	a1,0
   1420e:	4601                	li	a2,0
   14210:	4681                	li	a3,0
   14212:	4505                	li	a0,1
   14214:	00a90023          	sb	a0,0(s2)
   14218:	00e92223          	sw	a4,4(s2)
   1421c:	0a200513          	li	a0,162
   14220:	470d                	li	a4,3
   14222:	00000073          	ecall
   14226:	0a200513          	li	a0,162
   1422a:	45a1                	li	a1,8
   1422c:	4711                	li	a4,4
   1422e:	4601                	li	a2,0
   14230:	4681                	li	a3,0
   14232:	00000073          	ecall
   14236:	40b6                	lw	ra,76(sp)
   14238:	4426                	lw	s0,72(sp)
   1423a:	4496                	lw	s1,68(sp)
   1423c:	4906                	lw	s2,64(sp)
   1423e:	6161                	addi	sp,sp,80
   14240:	8082                	ret
   14242:	4581                	li	a1,0
   14244:	4601                	li	a2,0
   14246:	4681                	li	a3,0
   14248:	0a200513          	li	a0,162
   1424c:	470d                	li	a4,3
   1424e:	00000073          	ecall
   14252:	0a200513          	li	a0,162
   14256:	470d                	li	a4,3
   14258:	4581                	li	a1,0
   1425a:	4601                	li	a2,0
   1425c:	4681                	li	a3,0
   1425e:	00000073          	ecall
   14262:	00190513          	addi	a0,s2,1
   14266:	01b10593          	addi	a1,sp,27
   1426a:	02500613          	li	a2,37
   1426e:	00008097          	auipc	ra,0x8
   14272:	81c080e7          	jalr	-2020(ra) # 1ba8a <memcpy>
   14276:	4581                	li	a1,0
   14278:	4601                	li	a2,0
   1427a:	4681                	li	a3,0
   1427c:	00090023          	sb	zero,0(s2)
   14280:	0a200513          	li	a0,162
   14284:	470d                	li	a4,3
   14286:	00000073          	ecall
   1428a:	0a200513          	li	a0,162
   1428e:	45a1                	li	a1,8
   14290:	4711                	li	a4,4
   14292:	4601                	li	a2,0
   14294:	4681                	li	a3,0
   14296:	00000073          	ecall
   1429a:	bf71                	j	14236 <_ZN18complex_no_dynamic3app17h6d9401401e925069E+0x104>

0001429c <_ZN18complex_no_dynamic3app17h6f3b0062c63cdd67E>:
   1429c:	715d                	addi	sp,sp,-80
   1429e:	c686                	sw	ra,76(sp)
   142a0:	c4a2                	sw	s0,72(sp)
   142a2:	c2a6                	sw	s1,68(sp)
   142a4:	842a                	mv	s0,a0
   142a6:	00210513          	addi	a0,sp,2
   142aa:	03200613          	li	a2,50
   142ae:	00007097          	auipc	ra,0x7
   142b2:	7dc080e7          	jalr	2012(ra) # 1ba8a <memcpy>
   142b6:	da02                	sw	zero,52(sp)
   142b8:	dc02                	sw	zero,56(sp)
   142ba:	de02                	sw	zero,60(sp)
   142bc:	c082                	sw	zero,64(sp)
   142be:	6509                	lui	a0,0x2
   142c0:	4591                	li	a1,4
   142c2:	00210613          	addi	a2,sp,2
   142c6:	03200693          	li	a3,50
   142ca:	9d650793          	addi	a5,a0,-1578 # 19d6 <.Lline_table_start1+0x17ab>
   142ce:	4711                	li	a4,4
   142d0:	4489                	li	s1,2
   142d2:	853e                	mv	a0,a5
   142d4:	00000073          	ecall
   142d8:	02950963          	beq	a0,s1,1430a <_ZN18complex_no_dynamic3app17h6f3b0062c63cdd67E+0x6e>
   142dc:	45a5                	li	a1,9
   142de:	1850                	addi	a2,sp,52
   142e0:	46c1                	li	a3,16
   142e2:	470d                	li	a4,3
   142e4:	853e                	mv	a0,a5
   142e6:	00000073          	ecall
   142ea:	02950063          	beq	a0,s1,1430a <_ZN18complex_no_dynamic3app17h6f3b0062c63cdd67E+0x6e>
   142ee:	6509                	lui	a0,0x2
   142f0:	4591                	li	a1,4
   142f2:	4625                	li	a2,9
   142f4:	9d650493          	addi	s1,a0,-1578 # 19d6 <.Lline_table_start1+0x17ab>
   142f8:	4709                	li	a4,2
   142fa:	07f00813          	li	a6,127
   142fe:	8526                	mv	a0,s1
   14300:	4681                	li	a3,0
   14302:	00000073          	ecall
   14306:	02a86963          	bltu	a6,a0,14338 <_ZN18complex_no_dynamic3app17h6f3b0062c63cdd67E+0x9c>
   1430a:	853e                	mv	a0,a5
   1430c:	4601                	li	a2,0
   1430e:	4681                	li	a3,0
   14310:	4705                	li	a4,1
   14312:	00e40023          	sb	a4,0(s0)
   14316:	c04c                	sw	a1,4(s0)
   14318:	45a5                	li	a1,9
   1431a:	470d                	li	a4,3
   1431c:	00000073          	ecall
   14320:	4591                	li	a1,4
   14322:	4711                	li	a4,4
   14324:	853e                	mv	a0,a5
   14326:	4601                	li	a2,0
   14328:	4681                	li	a3,0
   1432a:	00000073          	ecall
   1432e:	40b6                	lw	ra,76(sp)
   14330:	4426                	lw	s0,72(sp)
   14332:	4496                	lw	s1,68(sp)
   14334:	6161                	addi	sp,sp,80
   14336:	8082                	ret
   14338:	8526                	mv	a0,s1
   1433a:	4601                	li	a2,0
   1433c:	4681                	li	a3,0
   1433e:	45a5                	li	a1,9
   14340:	470d                	li	a4,3
   14342:	00000073          	ecall
   14346:	45a5                	li	a1,9
   14348:	470d                	li	a4,3
   1434a:	8526                	mv	a0,s1
   1434c:	4601                	li	a2,0
   1434e:	4681                	li	a3,0
   14350:	00000073          	ecall
   14354:	00140513          	addi	a0,s0,1
   14358:	184c                	addi	a1,sp,52
   1435a:	4641                	li	a2,16
   1435c:	00007097          	auipc	ra,0x7
   14360:	72e080e7          	jalr	1838(ra) # 1ba8a <memcpy>
   14364:	8526                	mv	a0,s1
   14366:	4601                	li	a2,0
   14368:	4681                	li	a3,0
   1436a:	00040023          	sb	zero,0(s0)
   1436e:	45a5                	li	a1,9
   14370:	470d                	li	a4,3
   14372:	00000073          	ecall
   14376:	4591                	li	a1,4
   14378:	4711                	li	a4,4
   1437a:	8526                	mv	a0,s1
   1437c:	4601                	li	a2,0
   1437e:	4681                	li	a3,0
   14380:	00000073          	ecall
   14384:	b76d                	j	1432e <_ZN18complex_no_dynamic3app17h6f3b0062c63cdd67E+0x92>

00014386 <_ZN18complex_no_dynamic3app17h73615abd1ddac0a0E>:
   14386:	7171                	addi	sp,sp,-176
   14388:	d706                	sw	ra,172(sp)
   1438a:	d522                	sw	s0,168(sp)
   1438c:	d326                	sw	s1,164(sp)
   1438e:	842a                	mv	s0,a0
   14390:	00710513          	addi	a0,sp,7
   14394:	05d00613          	li	a2,93
   14398:	00007097          	auipc	ra,0x7
   1439c:	6f2080e7          	jalr	1778(ra) # 1ba8a <memcpy>
   143a0:	10c8                	addi	a0,sp,100
   143a2:	04000613          	li	a2,64
   143a6:	4581                	li	a1,0
   143a8:	00007097          	auipc	ra,0x7
   143ac:	676080e7          	jalr	1654(ra) # 1ba1e <memset>
   143b0:	6505                	lui	a0,0x1
   143b2:	45a1                	li	a1,8
   143b4:	00710613          	addi	a2,sp,7
   143b8:	05d00693          	li	a3,93
   143bc:	02850793          	addi	a5,a0,40 # 1028 <.Lline_table_start1+0xdfd>
   143c0:	4711                	li	a4,4
   143c2:	4489                	li	s1,2
   143c4:	853e                	mv	a0,a5
   143c6:	00000073          	ecall
   143ca:	02950a63          	beq	a0,s1,143fe <_ZN18complex_no_dynamic3app17h73615abd1ddac0a0E+0x78>
   143ce:	4591                	li	a1,4
   143d0:	10d0                	addi	a2,sp,100
   143d2:	04000693          	li	a3,64
   143d6:	470d                	li	a4,3
   143d8:	853e                	mv	a0,a5
   143da:	00000073          	ecall
   143de:	02950063          	beq	a0,s1,143fe <_ZN18complex_no_dynamic3app17h73615abd1ddac0a0E+0x78>
   143e2:	6505                	lui	a0,0x1
   143e4:	45a1                	li	a1,8
   143e6:	4611                	li	a2,4
   143e8:	02850493          	addi	s1,a0,40 # 1028 <.Lline_table_start1+0xdfd>
   143ec:	4709                	li	a4,2
   143ee:	07f00813          	li	a6,127
   143f2:	8526                	mv	a0,s1
   143f4:	4681                	li	a3,0
   143f6:	00000073          	ecall
   143fa:	02a86963          	bltu	a6,a0,1442c <_ZN18complex_no_dynamic3app17h73615abd1ddac0a0E+0xa6>
   143fe:	853e                	mv	a0,a5
   14400:	4601                	li	a2,0
   14402:	4681                	li	a3,0
   14404:	4705                	li	a4,1
   14406:	00e40023          	sb	a4,0(s0)
   1440a:	c04c                	sw	a1,4(s0)
   1440c:	4591                	li	a1,4
   1440e:	470d                	li	a4,3
   14410:	00000073          	ecall
   14414:	45a1                	li	a1,8
   14416:	4711                	li	a4,4
   14418:	853e                	mv	a0,a5
   1441a:	4601                	li	a2,0
   1441c:	4681                	li	a3,0
   1441e:	00000073          	ecall
   14422:	50ba                	lw	ra,172(sp)
   14424:	542a                	lw	s0,168(sp)
   14426:	549a                	lw	s1,164(sp)
   14428:	614d                	addi	sp,sp,176
   1442a:	8082                	ret
   1442c:	8526                	mv	a0,s1
   1442e:	4601                	li	a2,0
   14430:	4681                	li	a3,0
   14432:	4591                	li	a1,4
   14434:	470d                	li	a4,3
   14436:	00000073          	ecall
   1443a:	4591                	li	a1,4
   1443c:	470d                	li	a4,3
   1443e:	8526                	mv	a0,s1
   14440:	4601                	li	a2,0
   14442:	4681                	li	a3,0
   14444:	00000073          	ecall
   14448:	00140513          	addi	a0,s0,1
   1444c:	10cc                	addi	a1,sp,100
   1444e:	04000613          	li	a2,64
   14452:	00007097          	auipc	ra,0x7
   14456:	638080e7          	jalr	1592(ra) # 1ba8a <memcpy>
   1445a:	8526                	mv	a0,s1
   1445c:	4601                	li	a2,0
   1445e:	4681                	li	a3,0
   14460:	00040023          	sb	zero,0(s0)
   14464:	4591                	li	a1,4
   14466:	470d                	li	a4,3
   14468:	00000073          	ecall
   1446c:	45a1                	li	a1,8
   1446e:	4711                	li	a4,4
   14470:	8526                	mv	a0,s1
   14472:	4601                	li	a2,0
   14474:	4681                	li	a3,0
   14476:	00000073          	ecall
   1447a:	b765                	j	14422 <_ZN18complex_no_dynamic3app17h73615abd1ddac0a0E+0x9c>

0001447c <_ZN18complex_no_dynamic3app17h75bccc001cb7bb3fE>:
   1447c:	711d                	addi	sp,sp,-96
   1447e:	ce86                	sw	ra,92(sp)
   14480:	cca2                	sw	s0,88(sp)
   14482:	caa6                	sw	s1,84(sp)
   14484:	842a                	mv	s0,a0
   14486:	00110513          	addi	a0,sp,1
   1448a:	03f00613          	li	a2,63
   1448e:	00007097          	auipc	ra,0x7
   14492:	5fc080e7          	jalr	1532(ra) # 1ba8a <memcpy>
   14496:	04010823          	sb	zero,80(sp)
   1449a:	c082                	sw	zero,64(sp)
   1449c:	c282                	sw	zero,68(sp)
   1449e:	c482                	sw	zero,72(sp)
   144a0:	c682                	sw	zero,76(sp)
   144a2:	6505                	lui	a0,0x1
   144a4:	4591                	li	a1,4
   144a6:	00110613          	addi	a2,sp,1
   144aa:	03f00693          	li	a3,63
   144ae:	4d750793          	addi	a5,a0,1239 # 14d7 <.Lline_table_start1+0x12ac>
   144b2:	4711                	li	a4,4
   144b4:	4489                	li	s1,2
   144b6:	853e                	mv	a0,a5
   144b8:	00000073          	ecall
   144bc:	02950963          	beq	a0,s1,144ee <_ZN18complex_no_dynamic3app17h75bccc001cb7bb3fE+0x72>
   144c0:	458d                	li	a1,3
   144c2:	0090                	addi	a2,sp,64
   144c4:	46c5                	li	a3,17
   144c6:	470d                	li	a4,3
   144c8:	853e                	mv	a0,a5
   144ca:	00000073          	ecall
   144ce:	02950063          	beq	a0,s1,144ee <_ZN18complex_no_dynamic3app17h75bccc001cb7bb3fE+0x72>
   144d2:	6505                	lui	a0,0x1
   144d4:	4591                	li	a1,4
   144d6:	460d                	li	a2,3
   144d8:	4d750493          	addi	s1,a0,1239 # 14d7 <.Lline_table_start1+0x12ac>
   144dc:	4709                	li	a4,2
   144de:	07f00813          	li	a6,127
   144e2:	8526                	mv	a0,s1
   144e4:	4681                	li	a3,0
   144e6:	00000073          	ecall
   144ea:	02a86963          	bltu	a6,a0,1451c <_ZN18complex_no_dynamic3app17h75bccc001cb7bb3fE+0xa0>
   144ee:	853e                	mv	a0,a5
   144f0:	4601                	li	a2,0
   144f2:	4681                	li	a3,0
   144f4:	4705                	li	a4,1
   144f6:	00e40023          	sb	a4,0(s0)
   144fa:	c04c                	sw	a1,4(s0)
   144fc:	458d                	li	a1,3
   144fe:	470d                	li	a4,3
   14500:	00000073          	ecall
   14504:	4591                	li	a1,4
   14506:	4711                	li	a4,4
   14508:	853e                	mv	a0,a5
   1450a:	4601                	li	a2,0
   1450c:	4681                	li	a3,0
   1450e:	00000073          	ecall
   14512:	40f6                	lw	ra,92(sp)
   14514:	4466                	lw	s0,88(sp)
   14516:	44d6                	lw	s1,84(sp)
   14518:	6125                	addi	sp,sp,96
   1451a:	8082                	ret
   1451c:	8526                	mv	a0,s1
   1451e:	4601                	li	a2,0
   14520:	4681                	li	a3,0
   14522:	458d                	li	a1,3
   14524:	470d                	li	a4,3
   14526:	00000073          	ecall
   1452a:	458d                	li	a1,3
   1452c:	470d                	li	a4,3
   1452e:	8526                	mv	a0,s1
   14530:	4601                	li	a2,0
   14532:	4681                	li	a3,0
   14534:	00000073          	ecall
   14538:	00140513          	addi	a0,s0,1
   1453c:	008c                	addi	a1,sp,64
   1453e:	4645                	li	a2,17
   14540:	00007097          	auipc	ra,0x7
   14544:	54a080e7          	jalr	1354(ra) # 1ba8a <memcpy>
   14548:	8526                	mv	a0,s1
   1454a:	4601                	li	a2,0
   1454c:	4681                	li	a3,0
   1454e:	00040023          	sb	zero,0(s0)
   14552:	458d                	li	a1,3
   14554:	470d                	li	a4,3
   14556:	00000073          	ecall
   1455a:	4591                	li	a1,4
   1455c:	4711                	li	a4,4
   1455e:	8526                	mv	a0,s1
   14560:	4601                	li	a2,0
   14562:	4681                	li	a3,0
   14564:	00000073          	ecall
   14568:	b76d                	j	14512 <_ZN18complex_no_dynamic3app17h75bccc001cb7bb3fE+0x96>

0001456a <_ZN18complex_no_dynamic3app17h76c5552f9ad24715E>:
   1456a:	7119                	addi	sp,sp,-128
   1456c:	de86                	sw	ra,124(sp)
   1456e:	dca2                	sw	s0,120(sp)
   14570:	842a                	mv	s0,a0
   14572:	00510513          	addi	a0,sp,5
   14576:	02200613          	li	a2,34
   1457a:	00007097          	auipc	ra,0x7
   1457e:	510080e7          	jalr	1296(ra) # 1ba8a <memcpy>
   14582:	02710513          	addi	a0,sp,39
   14586:	05100613          	li	a2,81
   1458a:	4581                	li	a1,0
   1458c:	00007097          	auipc	ra,0x7
   14590:	492080e7          	jalr	1170(ra) # 1ba1e <memset>
   14594:	55e00513          	li	a0,1374
   14598:	45a5                	li	a1,9
   1459a:	00510613          	addi	a2,sp,5
   1459e:	02200693          	li	a3,34
   145a2:	4711                	li	a4,4
   145a4:	4789                	li	a5,2
   145a6:	00000073          	ecall
   145aa:	02f50a63          	beq	a0,a5,145de <_ZN18complex_no_dynamic3app17h76c5552f9ad24715E+0x74>
   145ae:	55e00513          	li	a0,1374
   145b2:	45a5                	li	a1,9
   145b4:	02710613          	addi	a2,sp,39
   145b8:	05100693          	li	a3,81
   145bc:	470d                	li	a4,3
   145be:	00000073          	ecall
   145c2:	00f50e63          	beq	a0,a5,145de <_ZN18complex_no_dynamic3app17h76c5552f9ad24715E+0x74>
   145c6:	55e00513          	li	a0,1374
   145ca:	45a5                	li	a1,9
   145cc:	4625                	li	a2,9
   145ce:	4709                	li	a4,2
   145d0:	07f00793          	li	a5,127
   145d4:	4681                	li	a3,0
   145d6:	00000073          	ecall
   145da:	02a7ea63          	bltu	a5,a0,1460e <_ZN18complex_no_dynamic3app17h76c5552f9ad24715E+0xa4>
   145de:	4601                	li	a2,0
   145e0:	4681                	li	a3,0
   145e2:	4705                	li	a4,1
   145e4:	55e00513          	li	a0,1374
   145e8:	00e40023          	sb	a4,0(s0)
   145ec:	c04c                	sw	a1,4(s0)
   145ee:	45a5                	li	a1,9
   145f0:	470d                	li	a4,3
   145f2:	00000073          	ecall
   145f6:	55e00513          	li	a0,1374
   145fa:	45a5                	li	a1,9
   145fc:	4711                	li	a4,4
   145fe:	4601                	li	a2,0
   14600:	4681                	li	a3,0
   14602:	00000073          	ecall
   14606:	50f6                	lw	ra,124(sp)
   14608:	5466                	lw	s0,120(sp)
   1460a:	6109                	addi	sp,sp,128
   1460c:	8082                	ret
   1460e:	4601                	li	a2,0
   14610:	4681                	li	a3,0
   14612:	55e00513          	li	a0,1374
   14616:	45a5                	li	a1,9
   14618:	470d                	li	a4,3
   1461a:	00000073          	ecall
   1461e:	55e00513          	li	a0,1374
   14622:	45a5                	li	a1,9
   14624:	470d                	li	a4,3
   14626:	4601                	li	a2,0
   14628:	4681                	li	a3,0
   1462a:	00000073          	ecall
   1462e:	00140513          	addi	a0,s0,1
   14632:	02710593          	addi	a1,sp,39
   14636:	05100613          	li	a2,81
   1463a:	00007097          	auipc	ra,0x7
   1463e:	450080e7          	jalr	1104(ra) # 1ba8a <memcpy>
   14642:	4601                	li	a2,0
   14644:	4681                	li	a3,0
   14646:	00040023          	sb	zero,0(s0)
   1464a:	55e00513          	li	a0,1374
   1464e:	45a5                	li	a1,9
   14650:	470d                	li	a4,3
   14652:	00000073          	ecall
   14656:	55e00513          	li	a0,1374
   1465a:	45a5                	li	a1,9
   1465c:	4711                	li	a4,4
   1465e:	4601                	li	a2,0
   14660:	4681                	li	a3,0
   14662:	00000073          	ecall
   14666:	b745                	j	14606 <_ZN18complex_no_dynamic3app17h76c5552f9ad24715E+0x9c>

00014668 <_ZN18complex_no_dynamic3app17h7a2f5c5f4dc0629eE>:
   14668:	711d                	addi	sp,sp,-96
   1466a:	ce86                	sw	ra,92(sp)
   1466c:	cca2                	sw	s0,88(sp)
   1466e:	842a                	mv	s0,a0
   14670:	00710513          	addi	a0,sp,7
   14674:	02c00613          	li	a2,44
   14678:	00007097          	auipc	ra,0x7
   1467c:	412080e7          	jalr	1042(ra) # 1ba8a <memcpy>
   14680:	03310513          	addi	a0,sp,51
   14684:	02500613          	li	a2,37
   14688:	4581                	li	a1,0
   1468a:	00007097          	auipc	ra,0x7
   1468e:	394080e7          	jalr	916(ra) # 1ba1e <memset>
   14692:	77f00513          	li	a0,1919
   14696:	458d                	li	a1,3
   14698:	00710613          	addi	a2,sp,7
   1469c:	02c00693          	li	a3,44
   146a0:	4711                	li	a4,4
   146a2:	4789                	li	a5,2
   146a4:	00000073          	ecall
   146a8:	02f50a63          	beq	a0,a5,146dc <_ZN18complex_no_dynamic3app17h7a2f5c5f4dc0629eE+0x74>
   146ac:	77f00513          	li	a0,1919
   146b0:	03310613          	addi	a2,sp,51
   146b4:	02500693          	li	a3,37
   146b8:	470d                	li	a4,3
   146ba:	4581                	li	a1,0
   146bc:	00000073          	ecall
   146c0:	00f50e63          	beq	a0,a5,146dc <_ZN18complex_no_dynamic3app17h7a2f5c5f4dc0629eE+0x74>
   146c4:	77f00513          	li	a0,1919
   146c8:	458d                	li	a1,3
   146ca:	4709                	li	a4,2
   146cc:	07f00793          	li	a5,127
   146d0:	4601                	li	a2,0
   146d2:	4681                	li	a3,0
   146d4:	00000073          	ecall
   146d8:	02a7eb63          	bltu	a5,a0,1470e <_ZN18complex_no_dynamic3app17h7a2f5c5f4dc0629eE+0xa6>
   146dc:	872e                	mv	a4,a1
   146de:	4581                	li	a1,0
   146e0:	4601                	li	a2,0
   146e2:	4681                	li	a3,0
   146e4:	4505                	li	a0,1
   146e6:	00a40023          	sb	a0,0(s0)
   146ea:	c058                	sw	a4,4(s0)
   146ec:	77f00513          	li	a0,1919
   146f0:	470d                	li	a4,3
   146f2:	00000073          	ecall
   146f6:	77f00513          	li	a0,1919
   146fa:	458d                	li	a1,3
   146fc:	4711                	li	a4,4
   146fe:	4601                	li	a2,0
   14700:	4681                	li	a3,0
   14702:	00000073          	ecall
   14706:	40f6                	lw	ra,92(sp)
   14708:	4466                	lw	s0,88(sp)
   1470a:	6125                	addi	sp,sp,96
   1470c:	8082                	ret
   1470e:	4581                	li	a1,0
   14710:	4601                	li	a2,0
   14712:	4681                	li	a3,0
   14714:	77f00513          	li	a0,1919
   14718:	470d                	li	a4,3
   1471a:	00000073          	ecall
   1471e:	77f00513          	li	a0,1919
   14722:	470d                	li	a4,3
   14724:	4581                	li	a1,0
   14726:	4601                	li	a2,0
   14728:	4681                	li	a3,0
   1472a:	00000073          	ecall
   1472e:	00140513          	addi	a0,s0,1
   14732:	03310593          	addi	a1,sp,51
   14736:	02500613          	li	a2,37
   1473a:	00007097          	auipc	ra,0x7
   1473e:	350080e7          	jalr	848(ra) # 1ba8a <memcpy>
   14742:	4581                	li	a1,0
   14744:	4601                	li	a2,0
   14746:	4681                	li	a3,0
   14748:	00040023          	sb	zero,0(s0)
   1474c:	77f00513          	li	a0,1919
   14750:	470d                	li	a4,3
   14752:	00000073          	ecall
   14756:	77f00513          	li	a0,1919
   1475a:	458d                	li	a1,3
   1475c:	4711                	li	a4,4
   1475e:	4601                	li	a2,0
   14760:	4681                	li	a3,0
   14762:	00000073          	ecall
   14766:	b745                	j	14706 <_ZN18complex_no_dynamic3app17h7a2f5c5f4dc0629eE+0x9e>

00014768 <_ZN18complex_no_dynamic3app17h7fe2149cbb74bd5bE>:
   14768:	7131                	addi	sp,sp,-192
   1476a:	df06                	sw	ra,188(sp)
   1476c:	dd22                	sw	s0,184(sp)
   1476e:	842a                	mv	s0,a0
   14770:	0028                	addi	a0,sp,8
   14772:	04f00613          	li	a2,79
   14776:	00007097          	auipc	ra,0x7
   1477a:	314080e7          	jalr	788(ra) # 1ba8a <memcpy>
   1477e:	05710513          	addi	a0,sp,87
   14782:	06100613          	li	a2,97
   14786:	4581                	li	a1,0
   14788:	00007097          	auipc	ra,0x7
   1478c:	296080e7          	jalr	662(ra) # 1ba1e <memset>
   14790:	4789                	li	a5,2
   14792:	1b600513          	li	a0,438
   14796:	4589                	li	a1,2
   14798:	0030                	addi	a2,sp,8
   1479a:	04f00693          	li	a3,79
   1479e:	4711                	li	a4,4
   147a0:	00000073          	ecall
   147a4:	02f50a63          	beq	a0,a5,147d8 <_ZN18complex_no_dynamic3app17h7fe2149cbb74bd5bE+0x70>
   147a8:	1b600513          	li	a0,438
   147ac:	45a1                	li	a1,8
   147ae:	05710613          	addi	a2,sp,87
   147b2:	06100693          	li	a3,97
   147b6:	470d                	li	a4,3
   147b8:	00000073          	ecall
   147bc:	00f50e63          	beq	a0,a5,147d8 <_ZN18complex_no_dynamic3app17h7fe2149cbb74bd5bE+0x70>
   147c0:	1b600513          	li	a0,438
   147c4:	4589                	li	a1,2
   147c6:	4621                	li	a2,8
   147c8:	4709                	li	a4,2
   147ca:	07f00793          	li	a5,127
   147ce:	4681                	li	a3,0
   147d0:	00000073          	ecall
   147d4:	02a7ea63          	bltu	a5,a0,14808 <_ZN18complex_no_dynamic3app17h7fe2149cbb74bd5bE+0xa0>
   147d8:	4601                	li	a2,0
   147da:	4681                	li	a3,0
   147dc:	4705                	li	a4,1
   147de:	1b600513          	li	a0,438
   147e2:	00e40023          	sb	a4,0(s0)
   147e6:	c04c                	sw	a1,4(s0)
   147e8:	45a1                	li	a1,8
   147ea:	470d                	li	a4,3
   147ec:	00000073          	ecall
   147f0:	1b600513          	li	a0,438
   147f4:	4589                	li	a1,2
   147f6:	4711                	li	a4,4
   147f8:	4601                	li	a2,0
   147fa:	4681                	li	a3,0
   147fc:	00000073          	ecall
   14800:	50fa                	lw	ra,188(sp)
   14802:	546a                	lw	s0,184(sp)
   14804:	6129                	addi	sp,sp,192
   14806:	8082                	ret
   14808:	4601                	li	a2,0
   1480a:	4681                	li	a3,0
   1480c:	1b600513          	li	a0,438
   14810:	45a1                	li	a1,8
   14812:	470d                	li	a4,3
   14814:	00000073          	ecall
   14818:	1b600513          	li	a0,438
   1481c:	45a1                	li	a1,8
   1481e:	470d                	li	a4,3
   14820:	4601                	li	a2,0
   14822:	4681                	li	a3,0
   14824:	00000073          	ecall
   14828:	00140513          	addi	a0,s0,1
   1482c:	05710593          	addi	a1,sp,87
   14830:	06100613          	li	a2,97
   14834:	00007097          	auipc	ra,0x7
   14838:	256080e7          	jalr	598(ra) # 1ba8a <memcpy>
   1483c:	4601                	li	a2,0
   1483e:	4681                	li	a3,0
   14840:	00040023          	sb	zero,0(s0)
   14844:	1b600513          	li	a0,438
   14848:	45a1                	li	a1,8
   1484a:	470d                	li	a4,3
   1484c:	00000073          	ecall
   14850:	1b600513          	li	a0,438
   14854:	4589                	li	a1,2
   14856:	4711                	li	a4,4
   14858:	4601                	li	a2,0
   1485a:	4681                	li	a3,0
   1485c:	00000073          	ecall
   14860:	b745                	j	14800 <_ZN18complex_no_dynamic3app17h7fe2149cbb74bd5bE+0x98>

00014862 <_ZN18complex_no_dynamic3app17h8015c6fbeeeb4f24E>:
   14862:	7119                	addi	sp,sp,-128
   14864:	de86                	sw	ra,124(sp)
   14866:	dca2                	sw	s0,120(sp)
   14868:	daa6                	sw	s1,116(sp)
   1486a:	842a                	mv	s0,a0
   1486c:	850a                	mv	a0,sp
   1486e:	02100613          	li	a2,33
   14872:	00007097          	auipc	ra,0x7
   14876:	218080e7          	jalr	536(ra) # 1ba8a <memcpy>
   1487a:	02110513          	addi	a0,sp,33
   1487e:	05300613          	li	a2,83
   14882:	4581                	li	a1,0
   14884:	00007097          	auipc	ra,0x7
   14888:	19a080e7          	jalr	410(ra) # 1ba1e <memset>
   1488c:	6509                	lui	a0,0x2
   1488e:	4489                	li	s1,2
   14890:	4589                	li	a1,2
   14892:	860a                	mv	a2,sp
   14894:	53e50793          	addi	a5,a0,1342 # 253e <.Lline_table_start1+0x2313>
   14898:	02100693          	li	a3,33
   1489c:	4711                	li	a4,4
   1489e:	853e                	mv	a0,a5
   148a0:	00000073          	ecall
   148a4:	02950b63          	beq	a0,s1,148da <_ZN18complex_no_dynamic3app17h8015c6fbeeeb4f24E+0x78>
   148a8:	45a1                	li	a1,8
   148aa:	02110613          	addi	a2,sp,33
   148ae:	05300693          	li	a3,83
   148b2:	470d                	li	a4,3
   148b4:	853e                	mv	a0,a5
   148b6:	00000073          	ecall
   148ba:	02950063          	beq	a0,s1,148da <_ZN18complex_no_dynamic3app17h8015c6fbeeeb4f24E+0x78>
   148be:	6509                	lui	a0,0x2
   148c0:	4589                	li	a1,2
   148c2:	4621                	li	a2,8
   148c4:	53e50493          	addi	s1,a0,1342 # 253e <.Lline_table_start1+0x2313>
   148c8:	4709                	li	a4,2
   148ca:	07f00813          	li	a6,127
   148ce:	8526                	mv	a0,s1
   148d0:	4681                	li	a3,0
   148d2:	00000073          	ecall
   148d6:	02a86963          	bltu	a6,a0,14908 <_ZN18complex_no_dynamic3app17h8015c6fbeeeb4f24E+0xa6>
   148da:	853e                	mv	a0,a5
   148dc:	4601                	li	a2,0
   148de:	4681                	li	a3,0
   148e0:	4705                	li	a4,1
   148e2:	00e40023          	sb	a4,0(s0)
   148e6:	c04c                	sw	a1,4(s0)
   148e8:	45a1                	li	a1,8
   148ea:	470d                	li	a4,3
   148ec:	00000073          	ecall
   148f0:	4589                	li	a1,2
   148f2:	4711                	li	a4,4
   148f4:	853e                	mv	a0,a5
   148f6:	4601                	li	a2,0
   148f8:	4681                	li	a3,0
   148fa:	00000073          	ecall
   148fe:	50f6                	lw	ra,124(sp)
   14900:	5466                	lw	s0,120(sp)
   14902:	54d6                	lw	s1,116(sp)
   14904:	6109                	addi	sp,sp,128
   14906:	8082                	ret
   14908:	8526                	mv	a0,s1
   1490a:	4601                	li	a2,0
   1490c:	4681                	li	a3,0
   1490e:	45a1                	li	a1,8
   14910:	470d                	li	a4,3
   14912:	00000073          	ecall
   14916:	45a1                	li	a1,8
   14918:	470d                	li	a4,3
   1491a:	8526                	mv	a0,s1
   1491c:	4601                	li	a2,0
   1491e:	4681                	li	a3,0
   14920:	00000073          	ecall
   14924:	00140513          	addi	a0,s0,1
   14928:	02110593          	addi	a1,sp,33
   1492c:	05300613          	li	a2,83
   14930:	00007097          	auipc	ra,0x7
   14934:	15a080e7          	jalr	346(ra) # 1ba8a <memcpy>
   14938:	8526                	mv	a0,s1
   1493a:	4601                	li	a2,0
   1493c:	4681                	li	a3,0
   1493e:	00040023          	sb	zero,0(s0)
   14942:	45a1                	li	a1,8
   14944:	470d                	li	a4,3
   14946:	00000073          	ecall
   1494a:	4589                	li	a1,2
   1494c:	4711                	li	a4,4
   1494e:	8526                	mv	a0,s1
   14950:	4601                	li	a2,0
   14952:	4681                	li	a3,0
   14954:	00000073          	ecall
   14958:	b75d                	j	148fe <_ZN18complex_no_dynamic3app17h8015c6fbeeeb4f24E+0x9c>

0001495a <_ZN18complex_no_dynamic3app17h84a27a4329ac939cE>:
   1495a:	7135                	addi	sp,sp,-160
   1495c:	cf06                	sw	ra,156(sp)
   1495e:	cd22                	sw	s0,152(sp)
   14960:	cb26                	sw	s1,148(sp)
   14962:	842a                	mv	s0,a0
   14964:	00a10513          	addi	a0,sp,10
   14968:	06300613          	li	a2,99
   1496c:	00007097          	auipc	ra,0x7
   14970:	11e080e7          	jalr	286(ra) # 1ba8a <memcpy>
   14974:	06d10513          	addi	a0,sp,109
   14978:	02700613          	li	a2,39
   1497c:	4581                	li	a1,0
   1497e:	00007097          	auipc	ra,0x7
   14982:	0a0080e7          	jalr	160(ra) # 1ba1e <memset>
   14986:	6509                	lui	a0,0x2
   14988:	459d                	li	a1,7
   1498a:	00a10613          	addi	a2,sp,10
   1498e:	06300693          	li	a3,99
   14992:	e5450793          	addi	a5,a0,-428 # 1e54 <.Lline_table_start1+0x1c29>
   14996:	4711                	li	a4,4
   14998:	4489                	li	s1,2
   1499a:	853e                	mv	a0,a5
   1499c:	00000073          	ecall
   149a0:	02950b63          	beq	a0,s1,149d6 <_ZN18complex_no_dynamic3app17h84a27a4329ac939cE+0x7c>
   149a4:	06d10613          	addi	a2,sp,109
   149a8:	02700693          	li	a3,39
   149ac:	470d                	li	a4,3
   149ae:	853e                	mv	a0,a5
   149b0:	4581                	li	a1,0
   149b2:	00000073          	ecall
   149b6:	02950063          	beq	a0,s1,149d6 <_ZN18complex_no_dynamic3app17h84a27a4329ac939cE+0x7c>
   149ba:	6509                	lui	a0,0x2
   149bc:	459d                	li	a1,7
   149be:	e5450493          	addi	s1,a0,-428 # 1e54 <.Lline_table_start1+0x1c29>
   149c2:	4709                	li	a4,2
   149c4:	07f00813          	li	a6,127
   149c8:	8526                	mv	a0,s1
   149ca:	4601                	li	a2,0
   149cc:	4681                	li	a3,0
   149ce:	00000073          	ecall
   149d2:	02a86a63          	bltu	a6,a0,14a06 <_ZN18complex_no_dynamic3app17h84a27a4329ac939cE+0xac>
   149d6:	872e                	mv	a4,a1
   149d8:	853e                	mv	a0,a5
   149da:	4581                	li	a1,0
   149dc:	4601                	li	a2,0
   149de:	4681                	li	a3,0
   149e0:	4485                	li	s1,1
   149e2:	00940023          	sb	s1,0(s0)
   149e6:	c058                	sw	a4,4(s0)
   149e8:	470d                	li	a4,3
   149ea:	00000073          	ecall
   149ee:	459d                	li	a1,7
   149f0:	4711                	li	a4,4
   149f2:	853e                	mv	a0,a5
   149f4:	4601                	li	a2,0
   149f6:	4681                	li	a3,0
   149f8:	00000073          	ecall
   149fc:	40fa                	lw	ra,156(sp)
   149fe:	446a                	lw	s0,152(sp)
   14a00:	44da                	lw	s1,148(sp)
   14a02:	610d                	addi	sp,sp,160
   14a04:	8082                	ret
   14a06:	470d                	li	a4,3
   14a08:	8526                	mv	a0,s1
   14a0a:	4581                	li	a1,0
   14a0c:	4601                	li	a2,0
   14a0e:	4681                	li	a3,0
   14a10:	00000073          	ecall
   14a14:	470d                	li	a4,3
   14a16:	8526                	mv	a0,s1
   14a18:	4581                	li	a1,0
   14a1a:	4601                	li	a2,0
   14a1c:	4681                	li	a3,0
   14a1e:	00000073          	ecall
   14a22:	00140513          	addi	a0,s0,1
   14a26:	06d10593          	addi	a1,sp,109
   14a2a:	02700613          	li	a2,39
   14a2e:	00007097          	auipc	ra,0x7
   14a32:	05c080e7          	jalr	92(ra) # 1ba8a <memcpy>
   14a36:	8526                	mv	a0,s1
   14a38:	4581                	li	a1,0
   14a3a:	4601                	li	a2,0
   14a3c:	4681                	li	a3,0
   14a3e:	00040023          	sb	zero,0(s0)
   14a42:	470d                	li	a4,3
   14a44:	00000073          	ecall
   14a48:	459d                	li	a1,7
   14a4a:	4711                	li	a4,4
   14a4c:	8526                	mv	a0,s1
   14a4e:	4601                	li	a2,0
   14a50:	4681                	li	a3,0
   14a52:	00000073          	ecall
   14a56:	b75d                	j	149fc <_ZN18complex_no_dynamic3app17h84a27a4329ac939cE+0xa2>

00014a58 <_ZN18complex_no_dynamic3app17h85566205037905b6E>:
   14a58:	7119                	addi	sp,sp,-128
   14a5a:	de86                	sw	ra,124(sp)
   14a5c:	dca2                	sw	s0,120(sp)
   14a5e:	daa6                	sw	s1,116(sp)
   14a60:	842a                	mv	s0,a0
   14a62:	00110513          	addi	a0,sp,1
   14a66:	03200613          	li	a2,50
   14a6a:	00007097          	auipc	ra,0x7
   14a6e:	020080e7          	jalr	32(ra) # 1ba8a <memcpy>
   14a72:	03310513          	addi	a0,sp,51
   14a76:	04100613          	li	a2,65
   14a7a:	4581                	li	a1,0
   14a7c:	00007097          	auipc	ra,0x7
   14a80:	fa2080e7          	jalr	-94(ra) # 1ba1e <memset>
   14a84:	6505                	lui	a0,0x1
   14a86:	459d                	li	a1,7
   14a88:	00110613          	addi	a2,sp,1
   14a8c:	03200693          	li	a3,50
   14a90:	91d50793          	addi	a5,a0,-1763 # 91d <.Lline_table_start1+0x6f2>
   14a94:	4711                	li	a4,4
   14a96:	4489                	li	s1,2
   14a98:	853e                	mv	a0,a5
   14a9a:	00000073          	ecall
   14a9e:	02950b63          	beq	a0,s1,14ad4 <_ZN18complex_no_dynamic3app17h85566205037905b6E+0x7c>
   14aa2:	4595                	li	a1,5
   14aa4:	03310613          	addi	a2,sp,51
   14aa8:	04100693          	li	a3,65
   14aac:	470d                	li	a4,3
   14aae:	853e                	mv	a0,a5
   14ab0:	00000073          	ecall
   14ab4:	02950063          	beq	a0,s1,14ad4 <_ZN18complex_no_dynamic3app17h85566205037905b6E+0x7c>
   14ab8:	6505                	lui	a0,0x1
   14aba:	459d                	li	a1,7
   14abc:	4615                	li	a2,5
   14abe:	91d50493          	addi	s1,a0,-1763 # 91d <.Lline_table_start1+0x6f2>
   14ac2:	4709                	li	a4,2
   14ac4:	07f00813          	li	a6,127
   14ac8:	8526                	mv	a0,s1
   14aca:	4681                	li	a3,0
   14acc:	00000073          	ecall
   14ad0:	02a86963          	bltu	a6,a0,14b02 <_ZN18complex_no_dynamic3app17h85566205037905b6E+0xaa>
   14ad4:	853e                	mv	a0,a5
   14ad6:	4601                	li	a2,0
   14ad8:	4681                	li	a3,0
   14ada:	4705                	li	a4,1
   14adc:	00e40023          	sb	a4,0(s0)
   14ae0:	c04c                	sw	a1,4(s0)
   14ae2:	4595                	li	a1,5
   14ae4:	470d                	li	a4,3
   14ae6:	00000073          	ecall
   14aea:	459d                	li	a1,7
   14aec:	4711                	li	a4,4
   14aee:	853e                	mv	a0,a5
   14af0:	4601                	li	a2,0
   14af2:	4681                	li	a3,0
   14af4:	00000073          	ecall
   14af8:	50f6                	lw	ra,124(sp)
   14afa:	5466                	lw	s0,120(sp)
   14afc:	54d6                	lw	s1,116(sp)
   14afe:	6109                	addi	sp,sp,128
   14b00:	8082                	ret
   14b02:	8526                	mv	a0,s1
   14b04:	4601                	li	a2,0
   14b06:	4681                	li	a3,0
   14b08:	4595                	li	a1,5
   14b0a:	470d                	li	a4,3
   14b0c:	00000073          	ecall
   14b10:	4595                	li	a1,5
   14b12:	470d                	li	a4,3
   14b14:	8526                	mv	a0,s1
   14b16:	4601                	li	a2,0
   14b18:	4681                	li	a3,0
   14b1a:	00000073          	ecall
   14b1e:	00140513          	addi	a0,s0,1
   14b22:	03310593          	addi	a1,sp,51
   14b26:	04100613          	li	a2,65
   14b2a:	00007097          	auipc	ra,0x7
   14b2e:	f60080e7          	jalr	-160(ra) # 1ba8a <memcpy>
   14b32:	8526                	mv	a0,s1
   14b34:	4601                	li	a2,0
   14b36:	4681                	li	a3,0
   14b38:	00040023          	sb	zero,0(s0)
   14b3c:	4595                	li	a1,5
   14b3e:	470d                	li	a4,3
   14b40:	00000073          	ecall
   14b44:	459d                	li	a1,7
   14b46:	4711                	li	a4,4
   14b48:	8526                	mv	a0,s1
   14b4a:	4601                	li	a2,0
   14b4c:	4681                	li	a3,0
   14b4e:	00000073          	ecall
   14b52:	b75d                	j	14af8 <_ZN18complex_no_dynamic3app17h85566205037905b6E+0xa0>

00014b54 <_ZN18complex_no_dynamic3app17h87ca0f95877320e9E>:
   14b54:	711d                	addi	sp,sp,-96
   14b56:	ce86                	sw	ra,92(sp)
   14b58:	cca2                	sw	s0,88(sp)
   14b5a:	caa6                	sw	s1,84(sp)
   14b5c:	c8ca                	sw	s2,80(sp)
   14b5e:	892a                	mv	s2,a0
   14b60:	0105c503          	lbu	a0,16(a1)
   14b64:	00c5c803          	lbu	a6,12(a1)
   14b68:	00d5c683          	lbu	a3,13(a1)
   14b6c:	00e5c703          	lbu	a4,14(a1)
   14b70:	00f5c783          	lbu	a5,15(a1)
   14b74:	0085c483          	lbu	s1,8(a1)
   14b78:	0095c403          	lbu	s0,9(a1)
   14b7c:	00a5c883          	lbu	a7,10(a1)
   14b80:	00b5c603          	lbu	a2,11(a1)
   14b84:	00a10823          	sb	a0,16(sp)
   14b88:	06a2                	slli	a3,a3,0x8
   14b8a:	0742                	slli	a4,a4,0x10
   14b8c:	07e2                	slli	a5,a5,0x18
   14b8e:	0422                	slli	s0,s0,0x8
   14b90:	0106e833          	or	a6,a3,a6
   14b94:	00e7e2b3          	or	t0,a5,a4
   14b98:	8c45                	or	s0,s0,s1
   14b9a:	0045c683          	lbu	a3,4(a1)
   14b9e:	0055c783          	lbu	a5,5(a1)
   14ba2:	0065c483          	lbu	s1,6(a1)
   14ba6:	0075c503          	lbu	a0,7(a1)
   14baa:	08c2                	slli	a7,a7,0x10
   14bac:	0662                	slli	a2,a2,0x18
   14bae:	07a2                	slli	a5,a5,0x8
   14bb0:	04c2                	slli	s1,s1,0x10
   14bb2:	0562                	slli	a0,a0,0x18
   14bb4:	01166633          	or	a2,a2,a7
   14bb8:	8edd                	or	a3,a3,a5
   14bba:	0005c783          	lbu	a5,0(a1)
   14bbe:	0015c703          	lbu	a4,1(a1)
   14bc2:	8d45                	or	a0,a0,s1
   14bc4:	0025c483          	lbu	s1,2(a1)
   14bc8:	0035c583          	lbu	a1,3(a1)
   14bcc:	0722                	slli	a4,a4,0x8
   14bce:	8f5d                	or	a4,a4,a5
   14bd0:	04c2                	slli	s1,s1,0x10
   14bd2:	05e2                	slli	a1,a1,0x18
   14bd4:	8dc5                	or	a1,a1,s1
   14bd6:	0102e7b3          	or	a5,t0,a6
   14bda:	8e41                	or	a2,a2,s0
   14bdc:	8d55                	or	a0,a0,a3
   14bde:	8dd9                	or	a1,a1,a4
   14be0:	c02e                	sw	a1,0(sp)
   14be2:	c22a                	sw	a0,4(sp)
   14be4:	c432                	sw	a2,8(sp)
   14be6:	c63e                	sw	a5,12(sp)
   14be8:	01110513          	addi	a0,sp,17
   14bec:	03f00613          	li	a2,63
   14bf0:	4581                	li	a1,0
   14bf2:	00007097          	auipc	ra,0x7
   14bf6:	e2c080e7          	jalr	-468(ra) # 1ba1e <memset>
   14bfa:	6505                	lui	a0,0x1
   14bfc:	459d                	li	a1,7
   14bfe:	860a                	mv	a2,sp
   14c00:	46c5                	li	a3,17
   14c02:	cb050793          	addi	a5,a0,-848 # cb0 <.Lline_table_start1+0xa85>
   14c06:	4711                	li	a4,4
   14c08:	4489                	li	s1,2
   14c0a:	853e                	mv	a0,a5
   14c0c:	00000073          	ecall
   14c10:	02950b63          	beq	a0,s1,14c46 <_ZN18complex_no_dynamic3app17h87ca0f95877320e9E+0xf2>
   14c14:	4591                	li	a1,4
   14c16:	01110613          	addi	a2,sp,17
   14c1a:	03f00693          	li	a3,63
   14c1e:	470d                	li	a4,3
   14c20:	853e                	mv	a0,a5
   14c22:	00000073          	ecall
   14c26:	02950063          	beq	a0,s1,14c46 <_ZN18complex_no_dynamic3app17h87ca0f95877320e9E+0xf2>
   14c2a:	6505                	lui	a0,0x1
   14c2c:	459d                	li	a1,7
   14c2e:	4611                	li	a2,4
   14c30:	cb050493          	addi	s1,a0,-848 # cb0 <.Lline_table_start1+0xa85>
   14c34:	4709                	li	a4,2
   14c36:	07f00413          	li	s0,127
   14c3a:	8526                	mv	a0,s1
   14c3c:	4681                	li	a3,0
   14c3e:	00000073          	ecall
   14c42:	02a46b63          	bltu	s0,a0,14c78 <_ZN18complex_no_dynamic3app17h87ca0f95877320e9E+0x124>
   14c46:	853e                	mv	a0,a5
   14c48:	4601                	li	a2,0
   14c4a:	4681                	li	a3,0
   14c4c:	4705                	li	a4,1
   14c4e:	00e90023          	sb	a4,0(s2)
   14c52:	00b92223          	sw	a1,4(s2)
   14c56:	4591                	li	a1,4
   14c58:	470d                	li	a4,3
   14c5a:	00000073          	ecall
   14c5e:	459d                	li	a1,7
   14c60:	4711                	li	a4,4
   14c62:	853e                	mv	a0,a5
   14c64:	4601                	li	a2,0
   14c66:	4681                	li	a3,0
   14c68:	00000073          	ecall
   14c6c:	40f6                	lw	ra,92(sp)
   14c6e:	4466                	lw	s0,88(sp)
   14c70:	44d6                	lw	s1,84(sp)
   14c72:	4946                	lw	s2,80(sp)
   14c74:	6125                	addi	sp,sp,96
   14c76:	8082                	ret
   14c78:	8526                	mv	a0,s1
   14c7a:	4601                	li	a2,0
   14c7c:	4681                	li	a3,0
   14c7e:	4591                	li	a1,4
   14c80:	470d                	li	a4,3
   14c82:	00000073          	ecall
   14c86:	4591                	li	a1,4
   14c88:	470d                	li	a4,3
   14c8a:	8526                	mv	a0,s1
   14c8c:	4601                	li	a2,0
   14c8e:	4681                	li	a3,0
   14c90:	00000073          	ecall
   14c94:	00190513          	addi	a0,s2,1
   14c98:	01110593          	addi	a1,sp,17
   14c9c:	03f00613          	li	a2,63
   14ca0:	00007097          	auipc	ra,0x7
   14ca4:	dea080e7          	jalr	-534(ra) # 1ba8a <memcpy>
   14ca8:	8526                	mv	a0,s1
   14caa:	4601                	li	a2,0
   14cac:	4681                	li	a3,0
   14cae:	00090023          	sb	zero,0(s2)
   14cb2:	4591                	li	a1,4
   14cb4:	470d                	li	a4,3
   14cb6:	00000073          	ecall
   14cba:	459d                	li	a1,7
   14cbc:	4711                	li	a4,4
   14cbe:	8526                	mv	a0,s1
   14cc0:	4601                	li	a2,0
   14cc2:	4681                	li	a3,0
   14cc4:	00000073          	ecall
   14cc8:	b755                	j	14c6c <_ZN18complex_no_dynamic3app17h87ca0f95877320e9E+0x118>

00014cca <_ZN18complex_no_dynamic3app17h896d3150679a12e0E>:
   14cca:	715d                	addi	sp,sp,-80
   14ccc:	c686                	sw	ra,76(sp)
   14cce:	c4a2                	sw	s0,72(sp)
   14cd0:	842a                	mv	s0,a0
   14cd2:	00210513          	addi	a0,sp,2
   14cd6:	03600613          	li	a2,54
   14cda:	00007097          	auipc	ra,0x7
   14cde:	db0080e7          	jalr	-592(ra) # 1ba8a <memcpy>
   14ce2:	04010323          	sb	zero,70(sp)
   14ce6:	dc02                	sw	zero,56(sp)
   14ce8:	de02                	sw	zero,60(sp)
   14cea:	c082                	sw	zero,64(sp)
   14cec:	04011223          	sh	zero,68(sp)
   14cf0:	65300513          	li	a0,1619
   14cf4:	4595                	li	a1,5
   14cf6:	00210613          	addi	a2,sp,2
   14cfa:	03600693          	li	a3,54
   14cfe:	4711                	li	a4,4
   14d00:	4789                	li	a5,2
   14d02:	00000073          	ecall
   14d06:	02f50863          	beq	a0,a5,14d36 <_ZN18complex_no_dynamic3app17h896d3150679a12e0E+0x6c>
   14d0a:	65300513          	li	a0,1619
   14d0e:	458d                	li	a1,3
   14d10:	1830                	addi	a2,sp,56
   14d12:	46bd                	li	a3,15
   14d14:	470d                	li	a4,3
   14d16:	00000073          	ecall
   14d1a:	00f50e63          	beq	a0,a5,14d36 <_ZN18complex_no_dynamic3app17h896d3150679a12e0E+0x6c>
   14d1e:	65300513          	li	a0,1619
   14d22:	4595                	li	a1,5
   14d24:	460d                	li	a2,3
   14d26:	4709                	li	a4,2
   14d28:	07f00793          	li	a5,127
   14d2c:	4681                	li	a3,0
   14d2e:	00000073          	ecall
   14d32:	02a7ea63          	bltu	a5,a0,14d66 <_ZN18complex_no_dynamic3app17h896d3150679a12e0E+0x9c>
   14d36:	4601                	li	a2,0
   14d38:	4681                	li	a3,0
   14d3a:	4705                	li	a4,1
   14d3c:	65300513          	li	a0,1619
   14d40:	00e40023          	sb	a4,0(s0)
   14d44:	c04c                	sw	a1,4(s0)
   14d46:	458d                	li	a1,3
   14d48:	470d                	li	a4,3
   14d4a:	00000073          	ecall
   14d4e:	65300513          	li	a0,1619
   14d52:	4595                	li	a1,5
   14d54:	4711                	li	a4,4
   14d56:	4601                	li	a2,0
   14d58:	4681                	li	a3,0
   14d5a:	00000073          	ecall
   14d5e:	40b6                	lw	ra,76(sp)
   14d60:	4426                	lw	s0,72(sp)
   14d62:	6161                	addi	sp,sp,80
   14d64:	8082                	ret
   14d66:	4601                	li	a2,0
   14d68:	4681                	li	a3,0
   14d6a:	65300513          	li	a0,1619
   14d6e:	458d                	li	a1,3
   14d70:	470d                	li	a4,3
   14d72:	00000073          	ecall
   14d76:	65300513          	li	a0,1619
   14d7a:	458d                	li	a1,3
   14d7c:	470d                	li	a4,3
   14d7e:	4601                	li	a2,0
   14d80:	4681                	li	a3,0
   14d82:	00000073          	ecall
   14d86:	00140513          	addi	a0,s0,1
   14d8a:	182c                	addi	a1,sp,56
   14d8c:	463d                	li	a2,15
   14d8e:	00007097          	auipc	ra,0x7
   14d92:	cfc080e7          	jalr	-772(ra) # 1ba8a <memcpy>
   14d96:	4601                	li	a2,0
   14d98:	4681                	li	a3,0
   14d9a:	00040023          	sb	zero,0(s0)
   14d9e:	65300513          	li	a0,1619
   14da2:	458d                	li	a1,3
   14da4:	470d                	li	a4,3
   14da6:	00000073          	ecall
   14daa:	65300513          	li	a0,1619
   14dae:	4595                	li	a1,5
   14db0:	4711                	li	a4,4
   14db2:	4601                	li	a2,0
   14db4:	4681                	li	a3,0
   14db6:	00000073          	ecall
   14dba:	b755                	j	14d5e <_ZN18complex_no_dynamic3app17h896d3150679a12e0E+0x94>

00014dbc <_ZN18complex_no_dynamic3app17h8a97f949e33df4b7E>:
   14dbc:	7159                	addi	sp,sp,-112
   14dbe:	d686                	sw	ra,108(sp)
   14dc0:	d4a2                	sw	s0,104(sp)
   14dc2:	842a                	mv	s0,a0
   14dc4:	00610513          	addi	a0,sp,6
   14dc8:	03400613          	li	a2,52
   14dcc:	00007097          	auipc	ra,0x7
   14dd0:	cbe080e7          	jalr	-834(ra) # 1ba8a <memcpy>
   14dd4:	03a10513          	addi	a0,sp,58
   14dd8:	02e00613          	li	a2,46
   14ddc:	4581                	li	a1,0
   14dde:	00007097          	auipc	ra,0x7
   14de2:	c40080e7          	jalr	-960(ra) # 1ba1e <memset>
   14de6:	4789                	li	a5,2
   14de8:	20900513          	li	a0,521
   14dec:	4589                	li	a1,2
   14dee:	00610613          	addi	a2,sp,6
   14df2:	03400693          	li	a3,52
   14df6:	4711                	li	a4,4
   14df8:	00000073          	ecall
   14dfc:	02f50a63          	beq	a0,a5,14e30 <_ZN18complex_no_dynamic3app17h8a97f949e33df4b7E+0x74>
   14e00:	20900513          	li	a0,521
   14e04:	45a1                	li	a1,8
   14e06:	03a10613          	addi	a2,sp,58
   14e0a:	02e00693          	li	a3,46
   14e0e:	470d                	li	a4,3
   14e10:	00000073          	ecall
   14e14:	00f50e63          	beq	a0,a5,14e30 <_ZN18complex_no_dynamic3app17h8a97f949e33df4b7E+0x74>
   14e18:	20900513          	li	a0,521
   14e1c:	4589                	li	a1,2
   14e1e:	4621                	li	a2,8
   14e20:	4709                	li	a4,2
   14e22:	07f00793          	li	a5,127
   14e26:	4681                	li	a3,0
   14e28:	00000073          	ecall
   14e2c:	02a7ea63          	bltu	a5,a0,14e60 <_ZN18complex_no_dynamic3app17h8a97f949e33df4b7E+0xa4>
   14e30:	4601                	li	a2,0
   14e32:	4681                	li	a3,0
   14e34:	4705                	li	a4,1
   14e36:	20900513          	li	a0,521
   14e3a:	00e40023          	sb	a4,0(s0)
   14e3e:	c04c                	sw	a1,4(s0)
   14e40:	45a1                	li	a1,8
   14e42:	470d                	li	a4,3
   14e44:	00000073          	ecall
   14e48:	20900513          	li	a0,521
   14e4c:	4589                	li	a1,2
   14e4e:	4711                	li	a4,4
   14e50:	4601                	li	a2,0
   14e52:	4681                	li	a3,0
   14e54:	00000073          	ecall
   14e58:	50b6                	lw	ra,108(sp)
   14e5a:	5426                	lw	s0,104(sp)
   14e5c:	6165                	addi	sp,sp,112
   14e5e:	8082                	ret
   14e60:	4601                	li	a2,0
   14e62:	4681                	li	a3,0
   14e64:	20900513          	li	a0,521
   14e68:	45a1                	li	a1,8
   14e6a:	470d                	li	a4,3
   14e6c:	00000073          	ecall
   14e70:	20900513          	li	a0,521
   14e74:	45a1                	li	a1,8
   14e76:	470d                	li	a4,3
   14e78:	4601                	li	a2,0
   14e7a:	4681                	li	a3,0
   14e7c:	00000073          	ecall
   14e80:	00140513          	addi	a0,s0,1
   14e84:	03a10593          	addi	a1,sp,58
   14e88:	02e00613          	li	a2,46
   14e8c:	00007097          	auipc	ra,0x7
   14e90:	bfe080e7          	jalr	-1026(ra) # 1ba8a <memcpy>
   14e94:	4601                	li	a2,0
   14e96:	4681                	li	a3,0
   14e98:	00040023          	sb	zero,0(s0)
   14e9c:	20900513          	li	a0,521
   14ea0:	45a1                	li	a1,8
   14ea2:	470d                	li	a4,3
   14ea4:	00000073          	ecall
   14ea8:	20900513          	li	a0,521
   14eac:	4589                	li	a1,2
   14eae:	4711                	li	a4,4
   14eb0:	4601                	li	a2,0
   14eb2:	4681                	li	a3,0
   14eb4:	00000073          	ecall
   14eb8:	b745                	j	14e58 <_ZN18complex_no_dynamic3app17h8a97f949e33df4b7E+0x9c>

00014eba <_ZN18complex_no_dynamic3app17h8e99cbd9e0d7781cE>:
   14eba:	715d                	addi	sp,sp,-80
   14ebc:	c686                	sw	ra,76(sp)
   14ebe:	c4a2                	sw	s0,72(sp)
   14ec0:	c2a6                	sw	s1,68(sp)
   14ec2:	c0ca                	sw	s2,64(sp)
   14ec4:	de4e                	sw	s3,60(sp)
   14ec6:	892a                	mv	s2,a0
   14ec8:	0185c803          	lbu	a6,24(a1)
   14ecc:	0195c383          	lbu	t2,25(a1)
   14ed0:	0145c883          	lbu	a7,20(a1)
   14ed4:	0155ce83          	lbu	t4,21(a1)
   14ed8:	0165c783          	lbu	a5,22(a1)
   14edc:	0175c483          	lbu	s1,23(a1)
   14ee0:	0105c403          	lbu	s0,16(a1)
   14ee4:	0115c503          	lbu	a0,17(a1)
   14ee8:	0125c283          	lbu	t0,18(a1)
   14eec:	0135ce03          	lbu	t3,19(a1)
   14ef0:	00c5c303          	lbu	t1,12(a1)
   14ef4:	00d5cf03          	lbu	t5,13(a1)
   14ef8:	00e5c683          	lbu	a3,14(a1)
   14efc:	00f5c703          	lbu	a4,15(a1)
   14f00:	03a2                	slli	t2,t2,0x8
   14f02:	0ea2                	slli	t4,t4,0x8
   14f04:	01079613          	slli	a2,a5,0x10
   14f08:	01849793          	slli	a5,s1,0x18
   14f0c:	0522                	slli	a0,a0,0x8
   14f0e:	0103e833          	or	a6,t2,a6
   14f12:	011ee8b3          	or	a7,t4,a7
   14f16:	00c7e3b3          	or	t2,a5,a2
   14f1a:	00856eb3          	or	t4,a0,s0
   14f1e:	0085c503          	lbu	a0,8(a1)
   14f22:	0095c603          	lbu	a2,9(a1)
   14f26:	00a5c483          	lbu	s1,10(a1)
   14f2a:	00b5c783          	lbu	a5,11(a1)
   14f2e:	02c2                	slli	t0,t0,0x10
   14f30:	0e62                	slli	t3,t3,0x18
   14f32:	0f22                	slli	t5,t5,0x8
   14f34:	06c2                	slli	a3,a3,0x10
   14f36:	0762                	slli	a4,a4,0x18
   14f38:	0622                	slli	a2,a2,0x8
   14f3a:	005e6433          	or	s0,t3,t0
   14f3e:	006f62b3          	or	t0,t5,t1
   14f42:	00d76e33          	or	t3,a4,a3
   14f46:	00a66333          	or	t1,a2,a0
   14f4a:	0045c603          	lbu	a2,4(a1)
   14f4e:	0055c703          	lbu	a4,5(a1)
   14f52:	0065c503          	lbu	a0,6(a1)
   14f56:	0075c683          	lbu	a3,7(a1)
   14f5a:	04c2                	slli	s1,s1,0x10
   14f5c:	07e2                	slli	a5,a5,0x18
   14f5e:	0722                	slli	a4,a4,0x8
   14f60:	0542                	slli	a0,a0,0x10
   14f62:	06e2                	slli	a3,a3,0x18
   14f64:	0097efb3          	or	t6,a5,s1
   14f68:	00c76f33          	or	t5,a4,a2
   14f6c:	0005c703          	lbu	a4,0(a1)
   14f70:	0015c483          	lbu	s1,1(a1)
   14f74:	00a6e633          	or	a2,a3,a0
   14f78:	0025c683          	lbu	a3,2(a1)
   14f7c:	0035c583          	lbu	a1,3(a1)
   14f80:	04a2                	slli	s1,s1,0x8
   14f82:	00e4e9b3          	or	s3,s1,a4
   14f86:	06c2                	slli	a3,a3,0x10
   14f88:	05e2                	slli	a1,a1,0x18
   14f8a:	8ecd                	or	a3,a3,a1
   14f8c:	0113e3b3          	or	t2,t2,a7
   14f90:	01d46733          	or	a4,s0,t4
   14f94:	d802                	sw	zero,48(sp)
   14f96:	da02                	sw	zero,52(sp)
   14f98:	02011c23          	sh	zero,56(sp)
   14f9c:	02010d23          	sb	zero,58(sp)
   14fa0:	d002                	sw	zero,32(sp)
   14fa2:	d202                	sw	zero,36(sp)
   14fa4:	d402                	sw	zero,40(sp)
   14fa6:	d602                	sw	zero,44(sp)
   14fa8:	005e6533          	or	a0,t3,t0
   14fac:	6889                	lui	a7,0x2
   14fae:	006fe4b3          	or	s1,t6,t1
   14fb2:	4595                	li	a1,5
   14fb4:	01e66433          	or	s0,a2,t5
   14fb8:	0050                	addi	a2,sp,4
   14fba:	0136e7b3          	or	a5,a3,s3
   14fbe:	46e9                	li	a3,26
   14fc0:	ca3a                	sw	a4,20(sp)
   14fc2:	cc1e                	sw	t2,24(sp)
   14fc4:	01011e23          	sh	a6,28(sp)
   14fc8:	4711                	li	a4,4
   14fca:	cce88813          	addi	a6,a7,-818 # 1cce <.Lline_table_start1+0x1aa3>
   14fce:	c23e                	sw	a5,4(sp)
   14fd0:	c422                	sw	s0,8(sp)
   14fd2:	c626                	sw	s1,12(sp)
   14fd4:	c82a                	sw	a0,16(sp)
   14fd6:	4489                	li	s1,2
   14fd8:	8542                	mv	a0,a6
   14fda:	00000073          	ecall
   14fde:	02950963          	beq	a0,s1,15010 <_ZN18complex_no_dynamic3app17h8e99cbd9e0d7781cE+0x156>
   14fe2:	4589                	li	a1,2
   14fe4:	1010                	addi	a2,sp,32
   14fe6:	46ed                	li	a3,27
   14fe8:	470d                	li	a4,3
   14fea:	8542                	mv	a0,a6
   14fec:	00000073          	ecall
   14ff0:	02950063          	beq	a0,s1,15010 <_ZN18complex_no_dynamic3app17h8e99cbd9e0d7781cE+0x156>
   14ff4:	6509                	lui	a0,0x2
   14ff6:	4595                	li	a1,5
   14ff8:	4609                	li	a2,2
   14ffa:	cce50493          	addi	s1,a0,-818 # 1cce <.Lline_table_start1+0x1aa3>
   14ffe:	4709                	li	a4,2
   15000:	07f00793          	li	a5,127
   15004:	8526                	mv	a0,s1
   15006:	4681                	li	a3,0
   15008:	00000073          	ecall
   1500c:	02a7ec63          	bltu	a5,a0,15044 <_ZN18complex_no_dynamic3app17h8e99cbd9e0d7781cE+0x18a>
   15010:	8542                	mv	a0,a6
   15012:	4601                	li	a2,0
   15014:	4681                	li	a3,0
   15016:	4705                	li	a4,1
   15018:	00e90023          	sb	a4,0(s2)
   1501c:	00b92223          	sw	a1,4(s2)
   15020:	4589                	li	a1,2
   15022:	470d                	li	a4,3
   15024:	00000073          	ecall
   15028:	4595                	li	a1,5
   1502a:	4711                	li	a4,4
   1502c:	8542                	mv	a0,a6
   1502e:	4601                	li	a2,0
   15030:	4681                	li	a3,0
   15032:	00000073          	ecall
   15036:	40b6                	lw	ra,76(sp)
   15038:	4426                	lw	s0,72(sp)
   1503a:	4496                	lw	s1,68(sp)
   1503c:	4906                	lw	s2,64(sp)
   1503e:	59f2                	lw	s3,60(sp)
   15040:	6161                	addi	sp,sp,80
   15042:	8082                	ret
   15044:	8526                	mv	a0,s1
   15046:	4601                	li	a2,0
   15048:	4681                	li	a3,0
   1504a:	4589                	li	a1,2
   1504c:	470d                	li	a4,3
   1504e:	00000073          	ecall
   15052:	4589                	li	a1,2
   15054:	470d                	li	a4,3
   15056:	8526                	mv	a0,s1
   15058:	4601                	li	a2,0
   1505a:	4681                	li	a3,0
   1505c:	00000073          	ecall
   15060:	00190513          	addi	a0,s2,1
   15064:	100c                	addi	a1,sp,32
   15066:	466d                	li	a2,27
   15068:	00007097          	auipc	ra,0x7
   1506c:	a22080e7          	jalr	-1502(ra) # 1ba8a <memcpy>
   15070:	8526                	mv	a0,s1
   15072:	4601                	li	a2,0
   15074:	4681                	li	a3,0
   15076:	00090023          	sb	zero,0(s2)
   1507a:	4589                	li	a1,2
   1507c:	470d                	li	a4,3
   1507e:	00000073          	ecall
   15082:	4595                	li	a1,5
   15084:	4711                	li	a4,4
   15086:	8526                	mv	a0,s1
   15088:	4601                	li	a2,0
   1508a:	4681                	li	a3,0
   1508c:	00000073          	ecall
   15090:	b75d                	j	15036 <_ZN18complex_no_dynamic3app17h8e99cbd9e0d7781cE+0x17c>

00015092 <_ZN18complex_no_dynamic3app17h8f39b4c463cfa43eE>:
   15092:	7119                	addi	sp,sp,-128
   15094:	de86                	sw	ra,124(sp)
   15096:	dca2                	sw	s0,120(sp)
   15098:	daa6                	sw	s1,116(sp)
   1509a:	842a                	mv	s0,a0
   1509c:	00d10513          	addi	a0,sp,13
   150a0:	04400613          	li	a2,68
   150a4:	00007097          	auipc	ra,0x7
   150a8:	9e6080e7          	jalr	-1562(ra) # 1ba8a <memcpy>
   150ac:	05110513          	addi	a0,sp,81
   150b0:	02300613          	li	a2,35
   150b4:	4581                	li	a1,0
   150b6:	00007097          	auipc	ra,0x7
   150ba:	968080e7          	jalr	-1688(ra) # 1ba1e <memset>
   150be:	6505                	lui	a0,0x1
   150c0:	4599                	li	a1,6
   150c2:	00d10613          	addi	a2,sp,13
   150c6:	04400693          	li	a3,68
   150ca:	9bf50793          	addi	a5,a0,-1601 # 9bf <.Lline_table_start1+0x794>
   150ce:	4711                	li	a4,4
   150d0:	4489                	li	s1,2
   150d2:	853e                	mv	a0,a5
   150d4:	00000073          	ecall
   150d8:	02950b63          	beq	a0,s1,1510e <_ZN18complex_no_dynamic3app17h8f39b4c463cfa43eE+0x7c>
   150dc:	458d                	li	a1,3
   150de:	05110613          	addi	a2,sp,81
   150e2:	02300693          	li	a3,35
   150e6:	470d                	li	a4,3
   150e8:	853e                	mv	a0,a5
   150ea:	00000073          	ecall
   150ee:	02950063          	beq	a0,s1,1510e <_ZN18complex_no_dynamic3app17h8f39b4c463cfa43eE+0x7c>
   150f2:	6505                	lui	a0,0x1
   150f4:	4599                	li	a1,6
   150f6:	460d                	li	a2,3
   150f8:	9bf50493          	addi	s1,a0,-1601 # 9bf <.Lline_table_start1+0x794>
   150fc:	4709                	li	a4,2
   150fe:	07f00813          	li	a6,127
   15102:	8526                	mv	a0,s1
   15104:	4681                	li	a3,0
   15106:	00000073          	ecall
   1510a:	02a86963          	bltu	a6,a0,1513c <_ZN18complex_no_dynamic3app17h8f39b4c463cfa43eE+0xaa>
   1510e:	853e                	mv	a0,a5
   15110:	4601                	li	a2,0
   15112:	4681                	li	a3,0
   15114:	4705                	li	a4,1
   15116:	00e40023          	sb	a4,0(s0)
   1511a:	c04c                	sw	a1,4(s0)
   1511c:	458d                	li	a1,3
   1511e:	470d                	li	a4,3
   15120:	00000073          	ecall
   15124:	4599                	li	a1,6
   15126:	4711                	li	a4,4
   15128:	853e                	mv	a0,a5
   1512a:	4601                	li	a2,0
   1512c:	4681                	li	a3,0
   1512e:	00000073          	ecall
   15132:	50f6                	lw	ra,124(sp)
   15134:	5466                	lw	s0,120(sp)
   15136:	54d6                	lw	s1,116(sp)
   15138:	6109                	addi	sp,sp,128
   1513a:	8082                	ret
   1513c:	8526                	mv	a0,s1
   1513e:	4601                	li	a2,0
   15140:	4681                	li	a3,0
   15142:	458d                	li	a1,3
   15144:	470d                	li	a4,3
   15146:	00000073          	ecall
   1514a:	458d                	li	a1,3
   1514c:	470d                	li	a4,3
   1514e:	8526                	mv	a0,s1
   15150:	4601                	li	a2,0
   15152:	4681                	li	a3,0
   15154:	00000073          	ecall
   15158:	00140513          	addi	a0,s0,1
   1515c:	05110593          	addi	a1,sp,81
   15160:	02300613          	li	a2,35
   15164:	00007097          	auipc	ra,0x7
   15168:	926080e7          	jalr	-1754(ra) # 1ba8a <memcpy>
   1516c:	8526                	mv	a0,s1
   1516e:	4601                	li	a2,0
   15170:	4681                	li	a3,0
   15172:	00040023          	sb	zero,0(s0)
   15176:	458d                	li	a1,3
   15178:	470d                	li	a4,3
   1517a:	00000073          	ecall
   1517e:	4599                	li	a1,6
   15180:	4711                	li	a4,4
   15182:	8526                	mv	a0,s1
   15184:	4601                	li	a2,0
   15186:	4681                	li	a3,0
   15188:	00000073          	ecall
   1518c:	b75d                	j	15132 <_ZN18complex_no_dynamic3app17h8f39b4c463cfa43eE+0xa0>

0001518e <_ZN18complex_no_dynamic3app17h903f1500752f4afdE>:
   1518e:	7119                	addi	sp,sp,-128
   15190:	de86                	sw	ra,124(sp)
   15192:	dca2                	sw	s0,120(sp)
   15194:	daa6                	sw	s1,116(sp)
   15196:	d8ca                	sw	s2,112(sp)
   15198:	d6ce                	sw	s3,108(sp)
   1519a:	d4d2                	sw	s4,104(sp)
   1519c:	892a                	mv	s2,a0
   1519e:	01c5c303          	lbu	t1,28(a1)
   151a2:	01d5c603          	lbu	a2,29(a1)
   151a6:	0185c683          	lbu	a3,24(a1)
   151aa:	0195c703          	lbu	a4,25(a1)
   151ae:	01a5c803          	lbu	a6,26(a1)
   151b2:	01b5c283          	lbu	t0,27(a1)
   151b6:	0145c883          	lbu	a7,20(a1)
   151ba:	0155c383          	lbu	t2,21(a1)
   151be:	0165c403          	lbu	s0,22(a1)
   151c2:	0175c483          	lbu	s1,23(a1)
   151c6:	0105c503          	lbu	a0,16(a1)
   151ca:	0115c783          	lbu	a5,17(a1)
   151ce:	0125ce03          	lbu	t3,18(a1)
   151d2:	0135ce83          	lbu	t4,19(a1)
   151d6:	0622                	slli	a2,a2,0x8
   151d8:	0722                	slli	a4,a4,0x8
   151da:	00666333          	or	t1,a2,t1
   151de:	00d76f33          	or	t5,a4,a3
   151e2:	00c5cf83          	lbu	t6,12(a1)
   151e6:	00d5c683          	lbu	a3,13(a1)
   151ea:	00e5c703          	lbu	a4,14(a1)
   151ee:	00f5c603          	lbu	a2,15(a1)
   151f2:	0842                	slli	a6,a6,0x10
   151f4:	02e2                	slli	t0,t0,0x18
   151f6:	03a2                	slli	t2,t2,0x8
   151f8:	0442                	slli	s0,s0,0x10
   151fa:	04e2                	slli	s1,s1,0x18
   151fc:	07a2                	slli	a5,a5,0x8
   151fe:	0102e2b3          	or	t0,t0,a6
   15202:	0113e833          	or	a6,t2,a7
   15206:	0084e8b3          	or	a7,s1,s0
   1520a:	00a7e3b3          	or	t2,a5,a0
   1520e:	0085c503          	lbu	a0,8(a1)
   15212:	0095c783          	lbu	a5,9(a1)
   15216:	00a5c403          	lbu	s0,10(a1)
   1521a:	00b5c483          	lbu	s1,11(a1)
   1521e:	0e42                	slli	t3,t3,0x10
   15220:	0ee2                	slli	t4,t4,0x18
   15222:	06a2                	slli	a3,a3,0x8
   15224:	0742                	slli	a4,a4,0x10
   15226:	0662                	slli	a2,a2,0x18
   15228:	07a2                	slli	a5,a5,0x8
   1522a:	01ceee33          	or	t3,t4,t3
   1522e:	01f6eeb3          	or	t4,a3,t6
   15232:	00e669b3          	or	s3,a2,a4
   15236:	00a7efb3          	or	t6,a5,a0
   1523a:	0045c703          	lbu	a4,4(a1)
   1523e:	0055c783          	lbu	a5,5(a1)
   15242:	0065c683          	lbu	a3,6(a1)
   15246:	0075c503          	lbu	a0,7(a1)
   1524a:	0442                	slli	s0,s0,0x10
   1524c:	04e2                	slli	s1,s1,0x18
   1524e:	07a2                	slli	a5,a5,0x8
   15250:	06c2                	slli	a3,a3,0x10
   15252:	0562                	slli	a0,a0,0x18
   15254:	8c45                	or	s0,s0,s1
   15256:	00e7ea33          	or	s4,a5,a4
   1525a:	0005c783          	lbu	a5,0(a1)
   1525e:	0015c483          	lbu	s1,1(a1)
   15262:	8d55                	or	a0,a0,a3
   15264:	0025c683          	lbu	a3,2(a1)
   15268:	0035c583          	lbu	a1,3(a1)
   1526c:	04a2                	slli	s1,s1,0x8
   1526e:	8fc5                	or	a5,a5,s1
   15270:	06c2                	slli	a3,a3,0x10
   15272:	05e2                	slli	a1,a1,0x18
   15274:	8dd5                	or	a1,a1,a3
   15276:	01e2e6b3          	or	a3,t0,t5
   1527a:	0108e4b3          	or	s1,a7,a6
   1527e:	007e6633          	or	a2,t3,t2
   15282:	01d9e733          	or	a4,s3,t4
   15286:	01f46433          	or	s0,s0,t6
   1528a:	01456533          	or	a0,a0,s4
   1528e:	8ddd                	or	a1,a1,a5
   15290:	ce32                	sw	a2,28(sp)
   15292:	d026                	sw	s1,32(sp)
   15294:	d236                	sw	a3,36(sp)
   15296:	02611423          	sh	t1,40(sp)
   1529a:	c62e                	sw	a1,12(sp)
   1529c:	c82a                	sw	a0,16(sp)
   1529e:	ca22                	sw	s0,20(sp)
   152a0:	cc3a                	sw	a4,24(sp)
   152a2:	1068                	addi	a0,sp,44
   152a4:	03c00613          	li	a2,60
   152a8:	4581                	li	a1,0
   152aa:	00006097          	auipc	ra,0x6
   152ae:	774080e7          	jalr	1908(ra) # 1ba1e <memset>
   152b2:	6505                	lui	a0,0x1
   152b4:	4489                	li	s1,2
   152b6:	4589                	li	a1,2
   152b8:	0070                	addi	a2,sp,12
   152ba:	b3c50793          	addi	a5,a0,-1220 # b3c <.Lline_table_start1+0x911>
   152be:	46f9                	li	a3,30
   152c0:	4711                	li	a4,4
   152c2:	853e                	mv	a0,a5
   152c4:	00000073          	ecall
   152c8:	02950a63          	beq	a0,s1,152fc <_ZN18complex_no_dynamic3app17h903f1500752f4afdE+0x16e>
   152cc:	458d                	li	a1,3
   152ce:	1070                	addi	a2,sp,44
   152d0:	03c00693          	li	a3,60
   152d4:	470d                	li	a4,3
   152d6:	853e                	mv	a0,a5
   152d8:	00000073          	ecall
   152dc:	02950063          	beq	a0,s1,152fc <_ZN18complex_no_dynamic3app17h903f1500752f4afdE+0x16e>
   152e0:	6505                	lui	a0,0x1
   152e2:	4589                	li	a1,2
   152e4:	460d                	li	a2,3
   152e6:	b3c50493          	addi	s1,a0,-1220 # b3c <.Lline_table_start1+0x911>
   152ea:	4709                	li	a4,2
   152ec:	07f00413          	li	s0,127
   152f0:	8526                	mv	a0,s1
   152f2:	4681                	li	a3,0
   152f4:	00000073          	ecall
   152f8:	02a46d63          	bltu	s0,a0,15332 <_ZN18complex_no_dynamic3app17h903f1500752f4afdE+0x1a4>
   152fc:	853e                	mv	a0,a5
   152fe:	4601                	li	a2,0
   15300:	4681                	li	a3,0
   15302:	4705                	li	a4,1
   15304:	00e90023          	sb	a4,0(s2)
   15308:	00b92223          	sw	a1,4(s2)
   1530c:	458d                	li	a1,3
   1530e:	470d                	li	a4,3
   15310:	00000073          	ecall
   15314:	4589                	li	a1,2
   15316:	4711                	li	a4,4
   15318:	853e                	mv	a0,a5
   1531a:	4601                	li	a2,0
   1531c:	4681                	li	a3,0
   1531e:	00000073          	ecall
   15322:	50f6                	lw	ra,124(sp)
   15324:	5466                	lw	s0,120(sp)
   15326:	54d6                	lw	s1,116(sp)
   15328:	5946                	lw	s2,112(sp)
   1532a:	59b6                	lw	s3,108(sp)
   1532c:	5a26                	lw	s4,104(sp)
   1532e:	6109                	addi	sp,sp,128
   15330:	8082                	ret
   15332:	8526                	mv	a0,s1
   15334:	4601                	li	a2,0
   15336:	4681                	li	a3,0
   15338:	458d                	li	a1,3
   1533a:	470d                	li	a4,3
   1533c:	00000073          	ecall
   15340:	458d                	li	a1,3
   15342:	470d                	li	a4,3
   15344:	8526                	mv	a0,s1
   15346:	4601                	li	a2,0
   15348:	4681                	li	a3,0
   1534a:	00000073          	ecall
   1534e:	00190513          	addi	a0,s2,1
   15352:	106c                	addi	a1,sp,44
   15354:	03c00613          	li	a2,60
   15358:	00006097          	auipc	ra,0x6
   1535c:	732080e7          	jalr	1842(ra) # 1ba8a <memcpy>
   15360:	8526                	mv	a0,s1
   15362:	4601                	li	a2,0
   15364:	4681                	li	a3,0
   15366:	00090023          	sb	zero,0(s2)
   1536a:	458d                	li	a1,3
   1536c:	470d                	li	a4,3
   1536e:	00000073          	ecall
   15372:	4589                	li	a1,2
   15374:	4711                	li	a4,4
   15376:	8526                	mv	a0,s1
   15378:	4601                	li	a2,0
   1537a:	4681                	li	a3,0
   1537c:	00000073          	ecall
   15380:	b74d                	j	15322 <_ZN18complex_no_dynamic3app17h903f1500752f4afdE+0x194>

00015382 <_ZN18complex_no_dynamic3app17h924a8f040b0b8b24E>:
   15382:	7119                	addi	sp,sp,-128
   15384:	de86                	sw	ra,124(sp)
   15386:	dca2                	sw	s0,120(sp)
   15388:	daa6                	sw	s1,116(sp)
   1538a:	842a                	mv	s0,a0
   1538c:	00310513          	addi	a0,sp,3
   15390:	04800613          	li	a2,72
   15394:	00006097          	auipc	ra,0x6
   15398:	6f6080e7          	jalr	1782(ra) # 1ba8a <memcpy>
   1539c:	04b10513          	addi	a0,sp,75
   153a0:	02900613          	li	a2,41
   153a4:	4581                	li	a1,0
   153a6:	00006097          	auipc	ra,0x6
   153aa:	678080e7          	jalr	1656(ra) # 1ba1e <memset>
   153ae:	6509                	lui	a0,0x2
   153b0:	458d                	li	a1,3
   153b2:	00310613          	addi	a2,sp,3
   153b6:	04800693          	li	a3,72
   153ba:	6a450793          	addi	a5,a0,1700 # 26a4 <.Lline_table_start1+0x2479>
   153be:	4711                	li	a4,4
   153c0:	4489                	li	s1,2
   153c2:	853e                	mv	a0,a5
   153c4:	00000073          	ecall
   153c8:	02950b63          	beq	a0,s1,153fe <_ZN18complex_no_dynamic3app17h924a8f040b0b8b24E+0x7c>
   153cc:	4591                	li	a1,4
   153ce:	04b10613          	addi	a2,sp,75
   153d2:	02900693          	li	a3,41
   153d6:	470d                	li	a4,3
   153d8:	853e                	mv	a0,a5
   153da:	00000073          	ecall
   153de:	02950063          	beq	a0,s1,153fe <_ZN18complex_no_dynamic3app17h924a8f040b0b8b24E+0x7c>
   153e2:	6509                	lui	a0,0x2
   153e4:	458d                	li	a1,3
   153e6:	4611                	li	a2,4
   153e8:	6a450493          	addi	s1,a0,1700 # 26a4 <.Lline_table_start1+0x2479>
   153ec:	4709                	li	a4,2
   153ee:	07f00813          	li	a6,127
   153f2:	8526                	mv	a0,s1
   153f4:	4681                	li	a3,0
   153f6:	00000073          	ecall
   153fa:	02a86963          	bltu	a6,a0,1542c <_ZN18complex_no_dynamic3app17h924a8f040b0b8b24E+0xaa>
   153fe:	853e                	mv	a0,a5
   15400:	4601                	li	a2,0
   15402:	4681                	li	a3,0
   15404:	4705                	li	a4,1
   15406:	00e40023          	sb	a4,0(s0)
   1540a:	c04c                	sw	a1,4(s0)
   1540c:	4591                	li	a1,4
   1540e:	470d                	li	a4,3
   15410:	00000073          	ecall
   15414:	458d                	li	a1,3
   15416:	4711                	li	a4,4
   15418:	853e                	mv	a0,a5
   1541a:	4601                	li	a2,0
   1541c:	4681                	li	a3,0
   1541e:	00000073          	ecall
   15422:	50f6                	lw	ra,124(sp)
   15424:	5466                	lw	s0,120(sp)
   15426:	54d6                	lw	s1,116(sp)
   15428:	6109                	addi	sp,sp,128
   1542a:	8082                	ret
   1542c:	8526                	mv	a0,s1
   1542e:	4601                	li	a2,0
   15430:	4681                	li	a3,0
   15432:	4591                	li	a1,4
   15434:	470d                	li	a4,3
   15436:	00000073          	ecall
   1543a:	4591                	li	a1,4
   1543c:	470d                	li	a4,3
   1543e:	8526                	mv	a0,s1
   15440:	4601                	li	a2,0
   15442:	4681                	li	a3,0
   15444:	00000073          	ecall
   15448:	00140513          	addi	a0,s0,1
   1544c:	04b10593          	addi	a1,sp,75
   15450:	02900613          	li	a2,41
   15454:	00006097          	auipc	ra,0x6
   15458:	636080e7          	jalr	1590(ra) # 1ba8a <memcpy>
   1545c:	8526                	mv	a0,s1
   1545e:	4601                	li	a2,0
   15460:	4681                	li	a3,0
   15462:	00040023          	sb	zero,0(s0)
   15466:	4591                	li	a1,4
   15468:	470d                	li	a4,3
   1546a:	00000073          	ecall
   1546e:	458d                	li	a1,3
   15470:	4711                	li	a4,4
   15472:	8526                	mv	a0,s1
   15474:	4601                	li	a2,0
   15476:	4681                	li	a3,0
   15478:	00000073          	ecall
   1547c:	b75d                	j	15422 <_ZN18complex_no_dynamic3app17h924a8f040b0b8b24E+0xa0>

0001547e <_ZN18complex_no_dynamic3app17h984af622513f02f5E>:
   1547e:	7175                	addi	sp,sp,-144
   15480:	c706                	sw	ra,140(sp)
   15482:	c522                	sw	s0,136(sp)
   15484:	c326                	sw	s1,132(sp)
   15486:	842a                	mv	s0,a0
   15488:	0068                	addi	a0,sp,12
   1548a:	02700613          	li	a2,39
   1548e:	00006097          	auipc	ra,0x6
   15492:	5fc080e7          	jalr	1532(ra) # 1ba8a <memcpy>
   15496:	03310513          	addi	a0,sp,51
   1549a:	05100613          	li	a2,81
   1549e:	4581                	li	a1,0
   154a0:	00006097          	auipc	ra,0x6
   154a4:	57e080e7          	jalr	1406(ra) # 1ba1e <memset>
   154a8:	6505                	lui	a0,0x1
   154aa:	0070                	addi	a2,sp,12
   154ac:	02700693          	li	a3,39
   154b0:	a3650793          	addi	a5,a0,-1482 # a36 <.Lline_table_start1+0x80b>
   154b4:	4711                	li	a4,4
   154b6:	4489                	li	s1,2
   154b8:	853e                	mv	a0,a5
   154ba:	4581                	li	a1,0
   154bc:	00000073          	ecall
   154c0:	02950b63          	beq	a0,s1,154f6 <_ZN18complex_no_dynamic3app17h984af622513f02f5E+0x78>
   154c4:	4591                	li	a1,4
   154c6:	03310613          	addi	a2,sp,51
   154ca:	05100693          	li	a3,81
   154ce:	470d                	li	a4,3
   154d0:	853e                	mv	a0,a5
   154d2:	00000073          	ecall
   154d6:	02950063          	beq	a0,s1,154f6 <_ZN18complex_no_dynamic3app17h984af622513f02f5E+0x78>
   154da:	6505                	lui	a0,0x1
   154dc:	4611                	li	a2,4
   154de:	a3650493          	addi	s1,a0,-1482 # a36 <.Lline_table_start1+0x80b>
   154e2:	4709                	li	a4,2
   154e4:	07f00813          	li	a6,127
   154e8:	8526                	mv	a0,s1
   154ea:	4581                	li	a1,0
   154ec:	4681                	li	a3,0
   154ee:	00000073          	ecall
   154f2:	02a86a63          	bltu	a6,a0,15526 <_ZN18complex_no_dynamic3app17h984af622513f02f5E+0xa8>
   154f6:	862e                	mv	a2,a1
   154f8:	4505                	li	a0,1
   154fa:	4591                	li	a1,4
   154fc:	00a40023          	sb	a0,0(s0)
   15500:	c050                	sw	a2,4(s0)
   15502:	470d                	li	a4,3
   15504:	853e                	mv	a0,a5
   15506:	4601                	li	a2,0
   15508:	4681                	li	a3,0
   1550a:	00000073          	ecall
   1550e:	4711                	li	a4,4
   15510:	853e                	mv	a0,a5
   15512:	4581                	li	a1,0
   15514:	4601                	li	a2,0
   15516:	4681                	li	a3,0
   15518:	00000073          	ecall
   1551c:	40ba                	lw	ra,140(sp)
   1551e:	442a                	lw	s0,136(sp)
   15520:	449a                	lw	s1,132(sp)
   15522:	6149                	addi	sp,sp,144
   15524:	8082                	ret
   15526:	8526                	mv	a0,s1
   15528:	4601                	li	a2,0
   1552a:	4681                	li	a3,0
   1552c:	4591                	li	a1,4
   1552e:	470d                	li	a4,3
   15530:	00000073          	ecall
   15534:	4591                	li	a1,4
   15536:	470d                	li	a4,3
   15538:	8526                	mv	a0,s1
   1553a:	4601                	li	a2,0
   1553c:	4681                	li	a3,0
   1553e:	00000073          	ecall
   15542:	00140513          	addi	a0,s0,1
   15546:	03310593          	addi	a1,sp,51
   1554a:	05100613          	li	a2,81
   1554e:	00006097          	auipc	ra,0x6
   15552:	53c080e7          	jalr	1340(ra) # 1ba8a <memcpy>
   15556:	00040023          	sb	zero,0(s0)
   1555a:	4591                	li	a1,4
   1555c:	470d                	li	a4,3
   1555e:	8526                	mv	a0,s1
   15560:	4601                	li	a2,0
   15562:	4681                	li	a3,0
   15564:	00000073          	ecall
   15568:	4711                	li	a4,4
   1556a:	8526                	mv	a0,s1
   1556c:	4581                	li	a1,0
   1556e:	4601                	li	a2,0
   15570:	4681                	li	a3,0
   15572:	00000073          	ecall
   15576:	b75d                	j	1551c <_ZN18complex_no_dynamic3app17h984af622513f02f5E+0x9e>

00015578 <_ZN18complex_no_dynamic3app17h9927af4eda18a744E>:
   15578:	711d                	addi	sp,sp,-96
   1557a:	ce86                	sw	ra,92(sp)
   1557c:	cca2                	sw	s0,88(sp)
   1557e:	caa6                	sw	s1,84(sp)
   15580:	842a                	mv	s0,a0
   15582:	00110513          	addi	a0,sp,1
   15586:	02400613          	li	a2,36
   1558a:	00006097          	auipc	ra,0x6
   1558e:	500080e7          	jalr	1280(ra) # 1ba8a <memcpy>
   15592:	02510513          	addi	a0,sp,37
   15596:	02f00613          	li	a2,47
   1559a:	4581                	li	a1,0
   1559c:	00006097          	auipc	ra,0x6
   155a0:	482080e7          	jalr	1154(ra) # 1ba1e <memset>
   155a4:	6505                	lui	a0,0x1
   155a6:	4599                	li	a1,6
   155a8:	00110613          	addi	a2,sp,1
   155ac:	02400693          	li	a3,36
   155b0:	27350793          	addi	a5,a0,627 # 1273 <.Lline_table_start1+0x1048>
   155b4:	4711                	li	a4,4
   155b6:	4489                	li	s1,2
   155b8:	853e                	mv	a0,a5
   155ba:	00000073          	ecall
   155be:	02950b63          	beq	a0,s1,155f4 <_ZN18complex_no_dynamic3app17h9927af4eda18a744E+0x7c>
   155c2:	45a5                	li	a1,9
   155c4:	02510613          	addi	a2,sp,37
   155c8:	02f00693          	li	a3,47
   155cc:	470d                	li	a4,3
   155ce:	853e                	mv	a0,a5
   155d0:	00000073          	ecall
   155d4:	02950063          	beq	a0,s1,155f4 <_ZN18complex_no_dynamic3app17h9927af4eda18a744E+0x7c>
   155d8:	6505                	lui	a0,0x1
   155da:	4599                	li	a1,6
   155dc:	4625                	li	a2,9
   155de:	27350493          	addi	s1,a0,627 # 1273 <.Lline_table_start1+0x1048>
   155e2:	4709                	li	a4,2
   155e4:	07f00813          	li	a6,127
   155e8:	8526                	mv	a0,s1
   155ea:	4681                	li	a3,0
   155ec:	00000073          	ecall
   155f0:	02a86963          	bltu	a6,a0,15622 <_ZN18complex_no_dynamic3app17h9927af4eda18a744E+0xaa>
   155f4:	853e                	mv	a0,a5
   155f6:	4601                	li	a2,0
   155f8:	4681                	li	a3,0
   155fa:	4705                	li	a4,1
   155fc:	00e40023          	sb	a4,0(s0)
   15600:	c04c                	sw	a1,4(s0)
   15602:	45a5                	li	a1,9
   15604:	470d                	li	a4,3
   15606:	00000073          	ecall
   1560a:	4599                	li	a1,6
   1560c:	4711                	li	a4,4
   1560e:	853e                	mv	a0,a5
   15610:	4601                	li	a2,0
   15612:	4681                	li	a3,0
   15614:	00000073          	ecall
   15618:	40f6                	lw	ra,92(sp)
   1561a:	4466                	lw	s0,88(sp)
   1561c:	44d6                	lw	s1,84(sp)
   1561e:	6125                	addi	sp,sp,96
   15620:	8082                	ret
   15622:	8526                	mv	a0,s1
   15624:	4601                	li	a2,0
   15626:	4681                	li	a3,0
   15628:	45a5                	li	a1,9
   1562a:	470d                	li	a4,3
   1562c:	00000073          	ecall
   15630:	45a5                	li	a1,9
   15632:	470d                	li	a4,3
   15634:	8526                	mv	a0,s1
   15636:	4601                	li	a2,0
   15638:	4681                	li	a3,0
   1563a:	00000073          	ecall
   1563e:	00140513          	addi	a0,s0,1
   15642:	02510593          	addi	a1,sp,37
   15646:	02f00613          	li	a2,47
   1564a:	00006097          	auipc	ra,0x6
   1564e:	440080e7          	jalr	1088(ra) # 1ba8a <memcpy>
   15652:	8526                	mv	a0,s1
   15654:	4601                	li	a2,0
   15656:	4681                	li	a3,0
   15658:	00040023          	sb	zero,0(s0)
   1565c:	45a5                	li	a1,9
   1565e:	470d                	li	a4,3
   15660:	00000073          	ecall
   15664:	4599                	li	a1,6
   15666:	4711                	li	a4,4
   15668:	8526                	mv	a0,s1
   1566a:	4601                	li	a2,0
   1566c:	4681                	li	a3,0
   1566e:	00000073          	ecall
   15672:	b75d                	j	15618 <_ZN18complex_no_dynamic3app17h9927af4eda18a744E+0xa0>

00015674 <_ZN18complex_no_dynamic3app17h99da13c32a308f6aE>:
   15674:	711d                	addi	sp,sp,-96
   15676:	ce86                	sw	ra,92(sp)
   15678:	cca2                	sw	s0,88(sp)
   1567a:	caa6                	sw	s1,84(sp)
   1567c:	842a                	mv	s0,a0
   1567e:	0048                	addi	a0,sp,4
   15680:	03400613          	li	a2,52
   15684:	00006097          	auipc	ra,0x6
   15688:	406080e7          	jalr	1030(ra) # 1ba8a <memcpy>
   1568c:	c482                	sw	zero,72(sp)
   1568e:	c682                	sw	zero,76(sp)
   15690:	04011823          	sh	zero,80(sp)
   15694:	dc02                	sw	zero,56(sp)
   15696:	de02                	sw	zero,60(sp)
   15698:	c082                	sw	zero,64(sp)
   1569a:	c282                	sw	zero,68(sp)
   1569c:	6505                	lui	a0,0x1
   1569e:	0050                	addi	a2,sp,4
   156a0:	03400693          	li	a3,52
   156a4:	2cc50793          	addi	a5,a0,716 # 12cc <.Lline_table_start1+0x10a1>
   156a8:	4711                	li	a4,4
   156aa:	4489                	li	s1,2
   156ac:	853e                	mv	a0,a5
   156ae:	4581                	li	a1,0
   156b0:	00000073          	ecall
   156b4:	02950963          	beq	a0,s1,156e6 <_ZN18complex_no_dynamic3app17h99da13c32a308f6aE+0x72>
   156b8:	4595                	li	a1,5
   156ba:	1830                	addi	a2,sp,56
   156bc:	46e9                	li	a3,26
   156be:	470d                	li	a4,3
   156c0:	853e                	mv	a0,a5
   156c2:	00000073          	ecall
   156c6:	02950063          	beq	a0,s1,156e6 <_ZN18complex_no_dynamic3app17h99da13c32a308f6aE+0x72>
   156ca:	6505                	lui	a0,0x1
   156cc:	4615                	li	a2,5
   156ce:	2cc50493          	addi	s1,a0,716 # 12cc <.Lline_table_start1+0x10a1>
   156d2:	4709                	li	a4,2
   156d4:	07f00813          	li	a6,127
   156d8:	8526                	mv	a0,s1
   156da:	4581                	li	a1,0
   156dc:	4681                	li	a3,0
   156de:	00000073          	ecall
   156e2:	02a86a63          	bltu	a6,a0,15716 <_ZN18complex_no_dynamic3app17h99da13c32a308f6aE+0xa2>
   156e6:	862e                	mv	a2,a1
   156e8:	4505                	li	a0,1
   156ea:	4595                	li	a1,5
   156ec:	00a40023          	sb	a0,0(s0)
   156f0:	c050                	sw	a2,4(s0)
   156f2:	470d                	li	a4,3
   156f4:	853e                	mv	a0,a5
   156f6:	4601                	li	a2,0
   156f8:	4681                	li	a3,0
   156fa:	00000073          	ecall
   156fe:	4711                	li	a4,4
   15700:	853e                	mv	a0,a5
   15702:	4581                	li	a1,0
   15704:	4601                	li	a2,0
   15706:	4681                	li	a3,0
   15708:	00000073          	ecall
   1570c:	40f6                	lw	ra,92(sp)
   1570e:	4466                	lw	s0,88(sp)
   15710:	44d6                	lw	s1,84(sp)
   15712:	6125                	addi	sp,sp,96
   15714:	8082                	ret
   15716:	8526                	mv	a0,s1
   15718:	4601                	li	a2,0
   1571a:	4681                	li	a3,0
   1571c:	4595                	li	a1,5
   1571e:	470d                	li	a4,3
   15720:	00000073          	ecall
   15724:	4595                	li	a1,5
   15726:	470d                	li	a4,3
   15728:	8526                	mv	a0,s1
   1572a:	4601                	li	a2,0
   1572c:	4681                	li	a3,0
   1572e:	00000073          	ecall
   15732:	00140513          	addi	a0,s0,1
   15736:	182c                	addi	a1,sp,56
   15738:	4669                	li	a2,26
   1573a:	00006097          	auipc	ra,0x6
   1573e:	350080e7          	jalr	848(ra) # 1ba8a <memcpy>
   15742:	00040023          	sb	zero,0(s0)
   15746:	4595                	li	a1,5
   15748:	470d                	li	a4,3
   1574a:	8526                	mv	a0,s1
   1574c:	4601                	li	a2,0
   1574e:	4681                	li	a3,0
   15750:	00000073          	ecall
   15754:	4711                	li	a4,4
   15756:	8526                	mv	a0,s1
   15758:	4581                	li	a1,0
   1575a:	4601                	li	a2,0
   1575c:	4681                	li	a3,0
   1575e:	00000073          	ecall
   15762:	b76d                	j	1570c <_ZN18complex_no_dynamic3app17h99da13c32a308f6aE+0x98>

00015764 <_ZN18complex_no_dynamic3app17h9a9097db920f57f8E>:
   15764:	711d                	addi	sp,sp,-96
   15766:	ce86                	sw	ra,92(sp)
   15768:	cca2                	sw	s0,88(sp)
   1576a:	842a                	mv	s0,a0
   1576c:	00d10513          	addi	a0,sp,13
   15770:	02b00613          	li	a2,43
   15774:	00006097          	auipc	ra,0x6
   15778:	316080e7          	jalr	790(ra) # 1ba8a <memcpy>
   1577c:	c482                	sw	zero,72(sp)
   1577e:	c682                	sw	zero,76(sp)
   15780:	c882                	sw	zero,80(sp)
   15782:	04011a23          	sh	zero,84(sp)
   15786:	dc02                	sw	zero,56(sp)
   15788:	de02                	sw	zero,60(sp)
   1578a:	c082                	sw	zero,64(sp)
   1578c:	c282                	sw	zero,68(sp)
   1578e:	7e300513          	li	a0,2019
   15792:	459d                	li	a1,7
   15794:	00d10613          	addi	a2,sp,13
   15798:	02b00693          	li	a3,43
   1579c:	4711                	li	a4,4
   1579e:	4789                	li	a5,2
   157a0:	00000073          	ecall
   157a4:	02f50863          	beq	a0,a5,157d4 <_ZN18complex_no_dynamic3app17h9a9097db920f57f8E+0x70>
   157a8:	7e300513          	li	a0,2019
   157ac:	45a1                	li	a1,8
   157ae:	1830                	addi	a2,sp,56
   157b0:	46f9                	li	a3,30
   157b2:	470d                	li	a4,3
   157b4:	00000073          	ecall
   157b8:	00f50e63          	beq	a0,a5,157d4 <_ZN18complex_no_dynamic3app17h9a9097db920f57f8E+0x70>
   157bc:	7e300513          	li	a0,2019
   157c0:	459d                	li	a1,7
   157c2:	4621                	li	a2,8
   157c4:	4709                	li	a4,2
   157c6:	07f00793          	li	a5,127
   157ca:	4681                	li	a3,0
   157cc:	00000073          	ecall
   157d0:	02a7ea63          	bltu	a5,a0,15804 <_ZN18complex_no_dynamic3app17h9a9097db920f57f8E+0xa0>
   157d4:	4601                	li	a2,0
   157d6:	4681                	li	a3,0
   157d8:	4705                	li	a4,1
   157da:	7e300513          	li	a0,2019
   157de:	00e40023          	sb	a4,0(s0)
   157e2:	c04c                	sw	a1,4(s0)
   157e4:	45a1                	li	a1,8
   157e6:	470d                	li	a4,3
   157e8:	00000073          	ecall
   157ec:	7e300513          	li	a0,2019
   157f0:	459d                	li	a1,7
   157f2:	4711                	li	a4,4
   157f4:	4601                	li	a2,0
   157f6:	4681                	li	a3,0
   157f8:	00000073          	ecall
   157fc:	40f6                	lw	ra,92(sp)
   157fe:	4466                	lw	s0,88(sp)
   15800:	6125                	addi	sp,sp,96
   15802:	8082                	ret
   15804:	4601                	li	a2,0
   15806:	4681                	li	a3,0
   15808:	7e300513          	li	a0,2019
   1580c:	45a1                	li	a1,8
   1580e:	470d                	li	a4,3
   15810:	00000073          	ecall
   15814:	7e300513          	li	a0,2019
   15818:	45a1                	li	a1,8
   1581a:	470d                	li	a4,3
   1581c:	4601                	li	a2,0
   1581e:	4681                	li	a3,0
   15820:	00000073          	ecall
   15824:	00140513          	addi	a0,s0,1
   15828:	182c                	addi	a1,sp,56
   1582a:	4679                	li	a2,30
   1582c:	00006097          	auipc	ra,0x6
   15830:	25e080e7          	jalr	606(ra) # 1ba8a <memcpy>
   15834:	4601                	li	a2,0
   15836:	4681                	li	a3,0
   15838:	00040023          	sb	zero,0(s0)
   1583c:	7e300513          	li	a0,2019
   15840:	45a1                	li	a1,8
   15842:	470d                	li	a4,3
   15844:	00000073          	ecall
   15848:	7e300513          	li	a0,2019
   1584c:	459d                	li	a1,7
   1584e:	4711                	li	a4,4
   15850:	4601                	li	a2,0
   15852:	4681                	li	a3,0
   15854:	00000073          	ecall
   15858:	b755                	j	157fc <_ZN18complex_no_dynamic3app17h9a9097db920f57f8E+0x98>

0001585a <_ZN18complex_no_dynamic3app17h9b9c8f5f301343b7E>:
   1585a:	7119                	addi	sp,sp,-128
   1585c:	de86                	sw	ra,124(sp)
   1585e:	dca2                	sw	s0,120(sp)
   15860:	daa6                	sw	s1,116(sp)
   15862:	842a                	mv	s0,a0
   15864:	0028                	addi	a0,sp,8
   15866:	04900613          	li	a2,73
   1586a:	00006097          	auipc	ra,0x6
   1586e:	220080e7          	jalr	544(ra) # 1ba8a <memcpy>
   15872:	05110513          	addi	a0,sp,81
   15876:	02300613          	li	a2,35
   1587a:	4581                	li	a1,0
   1587c:	00006097          	auipc	ra,0x6
   15880:	1a2080e7          	jalr	418(ra) # 1ba1e <memset>
   15884:	6505                	lui	a0,0x1
   15886:	459d                	li	a1,7
   15888:	0030                	addi	a2,sp,8
   1588a:	04900693          	li	a3,73
   1588e:	55150793          	addi	a5,a0,1361 # 1551 <.Lline_table_start1+0x1326>
   15892:	4711                	li	a4,4
   15894:	4489                	li	s1,2
   15896:	853e                	mv	a0,a5
   15898:	00000073          	ecall
   1589c:	02950b63          	beq	a0,s1,158d2 <_ZN18complex_no_dynamic3app17h9b9c8f5f301343b7E+0x78>
   158a0:	4585                	li	a1,1
   158a2:	05110613          	addi	a2,sp,81
   158a6:	02300693          	li	a3,35
   158aa:	470d                	li	a4,3
   158ac:	853e                	mv	a0,a5
   158ae:	00000073          	ecall
   158b2:	02950063          	beq	a0,s1,158d2 <_ZN18complex_no_dynamic3app17h9b9c8f5f301343b7E+0x78>
   158b6:	6505                	lui	a0,0x1
   158b8:	459d                	li	a1,7
   158ba:	4605                	li	a2,1
   158bc:	55150493          	addi	s1,a0,1361 # 1551 <.Lline_table_start1+0x1326>
   158c0:	4709                	li	a4,2
   158c2:	07f00813          	li	a6,127
   158c6:	8526                	mv	a0,s1
   158c8:	4681                	li	a3,0
   158ca:	00000073          	ecall
   158ce:	02a86963          	bltu	a6,a0,15900 <_ZN18complex_no_dynamic3app17h9b9c8f5f301343b7E+0xa6>
   158d2:	853e                	mv	a0,a5
   158d4:	4601                	li	a2,0
   158d6:	4681                	li	a3,0
   158d8:	4705                	li	a4,1
   158da:	00e40023          	sb	a4,0(s0)
   158de:	c04c                	sw	a1,4(s0)
   158e0:	4585                	li	a1,1
   158e2:	470d                	li	a4,3
   158e4:	00000073          	ecall
   158e8:	459d                	li	a1,7
   158ea:	4711                	li	a4,4
   158ec:	853e                	mv	a0,a5
   158ee:	4601                	li	a2,0
   158f0:	4681                	li	a3,0
   158f2:	00000073          	ecall
   158f6:	50f6                	lw	ra,124(sp)
   158f8:	5466                	lw	s0,120(sp)
   158fa:	54d6                	lw	s1,116(sp)
   158fc:	6109                	addi	sp,sp,128
   158fe:	8082                	ret
   15900:	8526                	mv	a0,s1
   15902:	4601                	li	a2,0
   15904:	4681                	li	a3,0
   15906:	4585                	li	a1,1
   15908:	470d                	li	a4,3
   1590a:	00000073          	ecall
   1590e:	4585                	li	a1,1
   15910:	470d                	li	a4,3
   15912:	8526                	mv	a0,s1
   15914:	4601                	li	a2,0
   15916:	4681                	li	a3,0
   15918:	00000073          	ecall
   1591c:	00140513          	addi	a0,s0,1
   15920:	05110593          	addi	a1,sp,81
   15924:	02300613          	li	a2,35
   15928:	00006097          	auipc	ra,0x6
   1592c:	162080e7          	jalr	354(ra) # 1ba8a <memcpy>
   15930:	8526                	mv	a0,s1
   15932:	4601                	li	a2,0
   15934:	4681                	li	a3,0
   15936:	00040023          	sb	zero,0(s0)
   1593a:	4585                	li	a1,1
   1593c:	470d                	li	a4,3
   1593e:	00000073          	ecall
   15942:	459d                	li	a1,7
   15944:	4711                	li	a4,4
   15946:	8526                	mv	a0,s1
   15948:	4601                	li	a2,0
   1594a:	4681                	li	a3,0
   1594c:	00000073          	ecall
   15950:	b75d                	j	158f6 <_ZN18complex_no_dynamic3app17h9b9c8f5f301343b7E+0x9c>

00015952 <_ZN18complex_no_dynamic3app17ha1b0b354e8b5405dE>:
   15952:	7159                	addi	sp,sp,-112
   15954:	d686                	sw	ra,108(sp)
   15956:	d4a2                	sw	s0,104(sp)
   15958:	d2a6                	sw	s1,100(sp)
   1595a:	d0ca                	sw	s2,96(sp)
   1595c:	892a                	mv	s2,a0
   1595e:	0105c803          	lbu	a6,16(a1)
   15962:	0115c603          	lbu	a2,17(a1)
   15966:	00c5c883          	lbu	a7,12(a1)
   1596a:	00d5c703          	lbu	a4,13(a1)
   1596e:	00e5c783          	lbu	a5,14(a1)
   15972:	00f5c483          	lbu	s1,15(a1)
   15976:	0085c403          	lbu	s0,8(a1)
   1597a:	0095c503          	lbu	a0,9(a1)
   1597e:	00a5c283          	lbu	t0,10(a1)
   15982:	00b5c683          	lbu	a3,11(a1)
   15986:	0622                	slli	a2,a2,0x8
   15988:	0722                	slli	a4,a4,0x8
   1598a:	07c2                	slli	a5,a5,0x10
   1598c:	04e2                	slli	s1,s1,0x18
   1598e:	0522                	slli	a0,a0,0x8
   15990:	01066833          	or	a6,a2,a6
   15994:	011768b3          	or	a7,a4,a7
   15998:	8fc5                	or	a5,a5,s1
   1599a:	00856333          	or	t1,a0,s0
   1599e:	0045c483          	lbu	s1,4(a1)
   159a2:	0055c403          	lbu	s0,5(a1)
   159a6:	0065c603          	lbu	a2,6(a1)
   159aa:	0075c703          	lbu	a4,7(a1)
   159ae:	02c2                	slli	t0,t0,0x10
   159b0:	06e2                	slli	a3,a3,0x18
   159b2:	0422                	slli	s0,s0,0x8
   159b4:	0642                	slli	a2,a2,0x10
   159b6:	0762                	slli	a4,a4,0x18
   159b8:	0056e6b3          	or	a3,a3,t0
   159bc:	8c45                	or	s0,s0,s1
   159be:	0005c483          	lbu	s1,0(a1)
   159c2:	0015c503          	lbu	a0,1(a1)
   159c6:	8e59                	or	a2,a2,a4
   159c8:	0025c703          	lbu	a4,2(a1)
   159cc:	0035c583          	lbu	a1,3(a1)
   159d0:	0522                	slli	a0,a0,0x8
   159d2:	8d45                	or	a0,a0,s1
   159d4:	0742                	slli	a4,a4,0x10
   159d6:	05e2                	slli	a1,a1,0x18
   159d8:	8dd9                	or	a1,a1,a4
   159da:	01011c23          	sh	a6,24(sp)
   159de:	0117e733          	or	a4,a5,a7
   159e2:	0066e6b3          	or	a3,a3,t1
   159e6:	8e41                	or	a2,a2,s0
   159e8:	8d4d                	or	a0,a0,a1
   159ea:	c42a                	sw	a0,8(sp)
   159ec:	c632                	sw	a2,12(sp)
   159ee:	c836                	sw	a3,16(sp)
   159f0:	ca3a                	sw	a4,20(sp)
   159f2:	0868                	addi	a0,sp,28
   159f4:	04400613          	li	a2,68
   159f8:	4581                	li	a1,0
   159fa:	00006097          	auipc	ra,0x6
   159fe:	024080e7          	jalr	36(ra) # 1ba1e <memset>
   15a02:	6509                	lui	a0,0x2
   15a04:	4489                	li	s1,2
   15a06:	4589                	li	a1,2
   15a08:	0030                	addi	a2,sp,8
   15a0a:	43250793          	addi	a5,a0,1074 # 2432 <.Lline_table_start1+0x2207>
   15a0e:	46c9                	li	a3,18
   15a10:	4711                	li	a4,4
   15a12:	853e                	mv	a0,a5
   15a14:	00000073          	ecall
   15a18:	02950a63          	beq	a0,s1,15a4c <_ZN18complex_no_dynamic3app17ha1b0b354e8b5405dE+0xfa>
   15a1c:	45a5                	li	a1,9
   15a1e:	0870                	addi	a2,sp,28
   15a20:	04400693          	li	a3,68
   15a24:	470d                	li	a4,3
   15a26:	853e                	mv	a0,a5
   15a28:	00000073          	ecall
   15a2c:	02950063          	beq	a0,s1,15a4c <_ZN18complex_no_dynamic3app17ha1b0b354e8b5405dE+0xfa>
   15a30:	6509                	lui	a0,0x2
   15a32:	4589                	li	a1,2
   15a34:	4625                	li	a2,9
   15a36:	43250493          	addi	s1,a0,1074 # 2432 <.Lline_table_start1+0x2207>
   15a3a:	4709                	li	a4,2
   15a3c:	07f00413          	li	s0,127
   15a40:	8526                	mv	a0,s1
   15a42:	4681                	li	a3,0
   15a44:	00000073          	ecall
   15a48:	02a46b63          	bltu	s0,a0,15a7e <_ZN18complex_no_dynamic3app17ha1b0b354e8b5405dE+0x12c>
   15a4c:	853e                	mv	a0,a5
   15a4e:	4601                	li	a2,0
   15a50:	4681                	li	a3,0
   15a52:	4705                	li	a4,1
   15a54:	00e90023          	sb	a4,0(s2)
   15a58:	00b92223          	sw	a1,4(s2)
   15a5c:	45a5                	li	a1,9
   15a5e:	470d                	li	a4,3
   15a60:	00000073          	ecall
   15a64:	4589                	li	a1,2
   15a66:	4711                	li	a4,4
   15a68:	853e                	mv	a0,a5
   15a6a:	4601                	li	a2,0
   15a6c:	4681                	li	a3,0
   15a6e:	00000073          	ecall
   15a72:	50b6                	lw	ra,108(sp)
   15a74:	5426                	lw	s0,104(sp)
   15a76:	5496                	lw	s1,100(sp)
   15a78:	5906                	lw	s2,96(sp)
   15a7a:	6165                	addi	sp,sp,112
   15a7c:	8082                	ret
   15a7e:	8526                	mv	a0,s1
   15a80:	4601                	li	a2,0
   15a82:	4681                	li	a3,0
   15a84:	45a5                	li	a1,9
   15a86:	470d                	li	a4,3
   15a88:	00000073          	ecall
   15a8c:	45a5                	li	a1,9
   15a8e:	470d                	li	a4,3
   15a90:	8526                	mv	a0,s1
   15a92:	4601                	li	a2,0
   15a94:	4681                	li	a3,0
   15a96:	00000073          	ecall
   15a9a:	00190513          	addi	a0,s2,1
   15a9e:	086c                	addi	a1,sp,28
   15aa0:	04400613          	li	a2,68
   15aa4:	00006097          	auipc	ra,0x6
   15aa8:	fe6080e7          	jalr	-26(ra) # 1ba8a <memcpy>
   15aac:	8526                	mv	a0,s1
   15aae:	4601                	li	a2,0
   15ab0:	4681                	li	a3,0
   15ab2:	00090023          	sb	zero,0(s2)
   15ab6:	45a5                	li	a1,9
   15ab8:	470d                	li	a4,3
   15aba:	00000073          	ecall
   15abe:	4589                	li	a1,2
   15ac0:	4711                	li	a4,4
   15ac2:	8526                	mv	a0,s1
   15ac4:	4601                	li	a2,0
   15ac6:	4681                	li	a3,0
   15ac8:	00000073          	ecall
   15acc:	b75d                	j	15a72 <_ZN18complex_no_dynamic3app17ha1b0b354e8b5405dE+0x120>

00015ace <_ZN18complex_no_dynamic3app17ha4aac8abcaf30016E>:
   15ace:	711d                	addi	sp,sp,-96
   15ad0:	ce86                	sw	ra,92(sp)
   15ad2:	cca2                	sw	s0,88(sp)
   15ad4:	caa6                	sw	s1,84(sp)
   15ad6:	842a                	mv	s0,a0
   15ad8:	00510513          	addi	a0,sp,5
   15adc:	02500613          	li	a2,37
   15ae0:	00006097          	auipc	ra,0x6
   15ae4:	faa080e7          	jalr	-86(ra) # 1ba8a <memcpy>
   15ae8:	02a10513          	addi	a0,sp,42
   15aec:	02a00613          	li	a2,42
   15af0:	4581                	li	a1,0
   15af2:	00006097          	auipc	ra,0x6
   15af6:	f2c080e7          	jalr	-212(ra) # 1ba1e <memset>
   15afa:	6505                	lui	a0,0x1
   15afc:	00510613          	addi	a2,sp,5
   15b00:	02500693          	li	a3,37
   15b04:	93c50793          	addi	a5,a0,-1732 # 93c <.Lline_table_start1+0x711>
   15b08:	4711                	li	a4,4
   15b0a:	4489                	li	s1,2
   15b0c:	853e                	mv	a0,a5
   15b0e:	4581                	li	a1,0
   15b10:	00000073          	ecall
   15b14:	02950b63          	beq	a0,s1,15b4a <_ZN18complex_no_dynamic3app17ha4aac8abcaf30016E+0x7c>
   15b18:	458d                	li	a1,3
   15b1a:	02a10613          	addi	a2,sp,42
   15b1e:	02a00693          	li	a3,42
   15b22:	470d                	li	a4,3
   15b24:	853e                	mv	a0,a5
   15b26:	00000073          	ecall
   15b2a:	02950063          	beq	a0,s1,15b4a <_ZN18complex_no_dynamic3app17ha4aac8abcaf30016E+0x7c>
   15b2e:	6505                	lui	a0,0x1
   15b30:	460d                	li	a2,3
   15b32:	93c50493          	addi	s1,a0,-1732 # 93c <.Lline_table_start1+0x711>
   15b36:	4709                	li	a4,2
   15b38:	07f00813          	li	a6,127
   15b3c:	8526                	mv	a0,s1
   15b3e:	4581                	li	a1,0
   15b40:	4681                	li	a3,0
   15b42:	00000073          	ecall
   15b46:	02a86a63          	bltu	a6,a0,15b7a <_ZN18complex_no_dynamic3app17ha4aac8abcaf30016E+0xac>
   15b4a:	862e                	mv	a2,a1
   15b4c:	4505                	li	a0,1
   15b4e:	458d                	li	a1,3
   15b50:	00a40023          	sb	a0,0(s0)
   15b54:	c050                	sw	a2,4(s0)
   15b56:	470d                	li	a4,3
   15b58:	853e                	mv	a0,a5
   15b5a:	4601                	li	a2,0
   15b5c:	4681                	li	a3,0
   15b5e:	00000073          	ecall
   15b62:	4711                	li	a4,4
   15b64:	853e                	mv	a0,a5
   15b66:	4581                	li	a1,0
   15b68:	4601                	li	a2,0
   15b6a:	4681                	li	a3,0
   15b6c:	00000073          	ecall
   15b70:	40f6                	lw	ra,92(sp)
   15b72:	4466                	lw	s0,88(sp)
   15b74:	44d6                	lw	s1,84(sp)
   15b76:	6125                	addi	sp,sp,96
   15b78:	8082                	ret
   15b7a:	8526                	mv	a0,s1
   15b7c:	4601                	li	a2,0
   15b7e:	4681                	li	a3,0
   15b80:	458d                	li	a1,3
   15b82:	470d                	li	a4,3
   15b84:	00000073          	ecall
   15b88:	458d                	li	a1,3
   15b8a:	470d                	li	a4,3
   15b8c:	8526                	mv	a0,s1
   15b8e:	4601                	li	a2,0
   15b90:	4681                	li	a3,0
   15b92:	00000073          	ecall
   15b96:	00140513          	addi	a0,s0,1
   15b9a:	02a10593          	addi	a1,sp,42
   15b9e:	02a00613          	li	a2,42
   15ba2:	00006097          	auipc	ra,0x6
   15ba6:	ee8080e7          	jalr	-280(ra) # 1ba8a <memcpy>
   15baa:	00040023          	sb	zero,0(s0)
   15bae:	458d                	li	a1,3
   15bb0:	470d                	li	a4,3
   15bb2:	8526                	mv	a0,s1
   15bb4:	4601                	li	a2,0
   15bb6:	4681                	li	a3,0
   15bb8:	00000073          	ecall
   15bbc:	4711                	li	a4,4
   15bbe:	8526                	mv	a0,s1
   15bc0:	4581                	li	a1,0
   15bc2:	4601                	li	a2,0
   15bc4:	4681                	li	a3,0
   15bc6:	00000073          	ecall
   15bca:	b75d                	j	15b70 <_ZN18complex_no_dynamic3app17ha4aac8abcaf30016E+0xa2>

00015bcc <_ZN18complex_no_dynamic3app17ha5caaefe3876bd1dE>:
   15bcc:	711d                	addi	sp,sp,-96
   15bce:	ce86                	sw	ra,92(sp)
   15bd0:	cca2                	sw	s0,88(sp)
   15bd2:	caa6                	sw	s1,84(sp)
   15bd4:	c8ca                	sw	s2,80(sp)
   15bd6:	892a                	mv	s2,a0
   15bd8:	0145c803          	lbu	a6,20(a1)
   15bdc:	0155c383          	lbu	t2,21(a1)
   15be0:	0165c403          	lbu	s0,22(a1)
   15be4:	0175c703          	lbu	a4,23(a1)
   15be8:	0105c783          	lbu	a5,16(a1)
   15bec:	0115c683          	lbu	a3,17(a1)
   15bf0:	0125c283          	lbu	t0,18(a1)
   15bf4:	0135c303          	lbu	t1,19(a1)
   15bf8:	00c5c883          	lbu	a7,12(a1)
   15bfc:	00d5c483          	lbu	s1,13(a1)
   15c00:	00e5c503          	lbu	a0,14(a1)
   15c04:	00f5c603          	lbu	a2,15(a1)
   15c08:	03a2                	slli	t2,t2,0x8
   15c0a:	0442                	slli	s0,s0,0x10
   15c0c:	0762                	slli	a4,a4,0x18
   15c0e:	06a2                	slli	a3,a3,0x8
   15c10:	0103e833          	or	a6,t2,a6
   15c14:	00876e33          	or	t3,a4,s0
   15c18:	00f6e3b3          	or	t2,a3,a5
   15c1c:	0085c703          	lbu	a4,8(a1)
   15c20:	0095c783          	lbu	a5,9(a1)
   15c24:	00a5c683          	lbu	a3,10(a1)
   15c28:	00b5c403          	lbu	s0,11(a1)
   15c2c:	02c2                	slli	t0,t0,0x10
   15c2e:	0362                	slli	t1,t1,0x18
   15c30:	04a2                	slli	s1,s1,0x8
   15c32:	0542                	slli	a0,a0,0x10
   15c34:	0662                	slli	a2,a2,0x18
   15c36:	07a2                	slli	a5,a5,0x8
   15c38:	005362b3          	or	t0,t1,t0
   15c3c:	0114e8b3          	or	a7,s1,a7
   15c40:	00a66333          	or	t1,a2,a0
   15c44:	00e7eeb3          	or	t4,a5,a4
   15c48:	0045c603          	lbu	a2,4(a1)
   15c4c:	0055c783          	lbu	a5,5(a1)
   15c50:	0065c483          	lbu	s1,6(a1)
   15c54:	0075c503          	lbu	a0,7(a1)
   15c58:	06c2                	slli	a3,a3,0x10
   15c5a:	0462                	slli	s0,s0,0x18
   15c5c:	07a2                	slli	a5,a5,0x8
   15c5e:	04c2                	slli	s1,s1,0x10
   15c60:	0562                	slli	a0,a0,0x18
   15c62:	8ec1                	or	a3,a3,s0
   15c64:	8e5d                	or	a2,a2,a5
   15c66:	0005c783          	lbu	a5,0(a1)
   15c6a:	0015c403          	lbu	s0,1(a1)
   15c6e:	8d45                	or	a0,a0,s1
   15c70:	0025c483          	lbu	s1,2(a1)
   15c74:	0035c583          	lbu	a1,3(a1)
   15c78:	0422                	slli	s0,s0,0x8
   15c7a:	8fc1                	or	a5,a5,s0
   15c7c:	04c2                	slli	s1,s1,0x10
   15c7e:	05e2                	slli	a1,a1,0x18
   15c80:	8dc5                	or	a1,a1,s1
   15c82:	010e64b3          	or	s1,t3,a6
   15c86:	0072e433          	or	s0,t0,t2
   15c8a:	01136733          	or	a4,t1,a7
   15c8e:	01d6e6b3          	or	a3,a3,t4
   15c92:	8d51                	or	a0,a0,a2
   15c94:	8ddd                	or	a1,a1,a5
   15c96:	c822                	sw	s0,16(sp)
   15c98:	ca26                	sw	s1,20(sp)
   15c9a:	c02e                	sw	a1,0(sp)
   15c9c:	c22a                	sw	a0,4(sp)
   15c9e:	c436                	sw	a3,8(sp)
   15ca0:	c63a                	sw	a4,12(sp)
   15ca2:	01a10513          	addi	a0,sp,26
   15ca6:	03600613          	li	a2,54
   15caa:	4581                	li	a1,0
   15cac:	00006097          	auipc	ra,0x6
   15cb0:	d72080e7          	jalr	-654(ra) # 1ba1e <memset>
   15cb4:	0f300513          	li	a0,243
   15cb8:	45a1                	li	a1,8
   15cba:	860a                	mv	a2,sp
   15cbc:	46e1                	li	a3,24
   15cbe:	4711                	li	a4,4
   15cc0:	4789                	li	a5,2
   15cc2:	00000073          	ecall
   15cc6:	02f50a63          	beq	a0,a5,15cfa <_ZN18complex_no_dynamic3app17ha5caaefe3876bd1dE+0x12e>
   15cca:	0f300513          	li	a0,243
   15cce:	4591                	li	a1,4
   15cd0:	01a10613          	addi	a2,sp,26
   15cd4:	03600693          	li	a3,54
   15cd8:	470d                	li	a4,3
   15cda:	00000073          	ecall
   15cde:	00f50e63          	beq	a0,a5,15cfa <_ZN18complex_no_dynamic3app17ha5caaefe3876bd1dE+0x12e>
   15ce2:	0f300513          	li	a0,243
   15ce6:	45a1                	li	a1,8
   15ce8:	4611                	li	a2,4
   15cea:	4709                	li	a4,2
   15cec:	07f00793          	li	a5,127
   15cf0:	4681                	li	a3,0
   15cf2:	00000073          	ecall
   15cf6:	02a7ed63          	bltu	a5,a0,15d30 <_ZN18complex_no_dynamic3app17ha5caaefe3876bd1dE+0x164>
   15cfa:	4601                	li	a2,0
   15cfc:	4681                	li	a3,0
   15cfe:	4705                	li	a4,1
   15d00:	0f300513          	li	a0,243
   15d04:	00e90023          	sb	a4,0(s2)
   15d08:	00b92223          	sw	a1,4(s2)
   15d0c:	4591                	li	a1,4
   15d0e:	470d                	li	a4,3
   15d10:	00000073          	ecall
   15d14:	0f300513          	li	a0,243
   15d18:	45a1                	li	a1,8
   15d1a:	4711                	li	a4,4
   15d1c:	4601                	li	a2,0
   15d1e:	4681                	li	a3,0
   15d20:	00000073          	ecall
   15d24:	40f6                	lw	ra,92(sp)
   15d26:	4466                	lw	s0,88(sp)
   15d28:	44d6                	lw	s1,84(sp)
   15d2a:	4946                	lw	s2,80(sp)
   15d2c:	6125                	addi	sp,sp,96
   15d2e:	8082                	ret
   15d30:	4601                	li	a2,0
   15d32:	4681                	li	a3,0
   15d34:	0f300513          	li	a0,243
   15d38:	4591                	li	a1,4
   15d3a:	470d                	li	a4,3
   15d3c:	00000073          	ecall
   15d40:	0f300513          	li	a0,243
   15d44:	4591                	li	a1,4
   15d46:	470d                	li	a4,3
   15d48:	4601                	li	a2,0
   15d4a:	4681                	li	a3,0
   15d4c:	00000073          	ecall
   15d50:	00190513          	addi	a0,s2,1
   15d54:	01a10593          	addi	a1,sp,26
   15d58:	03600613          	li	a2,54
   15d5c:	00006097          	auipc	ra,0x6
   15d60:	d2e080e7          	jalr	-722(ra) # 1ba8a <memcpy>
   15d64:	4601                	li	a2,0
   15d66:	4681                	li	a3,0
   15d68:	00090023          	sb	zero,0(s2)
   15d6c:	0f300513          	li	a0,243
   15d70:	4591                	li	a1,4
   15d72:	470d                	li	a4,3
   15d74:	00000073          	ecall
   15d78:	0f300513          	li	a0,243
   15d7c:	45a1                	li	a1,8
   15d7e:	4711                	li	a4,4
   15d80:	4601                	li	a2,0
   15d82:	4681                	li	a3,0
   15d84:	00000073          	ecall
   15d88:	bf71                	j	15d24 <_ZN18complex_no_dynamic3app17ha5caaefe3876bd1dE+0x158>

00015d8a <_ZN18complex_no_dynamic3app17ha7f689aae45e1d7aE>:
   15d8a:	7159                	addi	sp,sp,-112
   15d8c:	d686                	sw	ra,108(sp)
   15d8e:	d4a2                	sw	s0,104(sp)
   15d90:	d2a6                	sw	s1,100(sp)
   15d92:	d0ca                	sw	s2,96(sp)
   15d94:	cece                	sw	s3,92(sp)
   15d96:	ccd2                	sw	s4,88(sp)
   15d98:	892a                	mv	s2,a0
   15d9a:	01c5c303          	lbu	t1,28(a1)
   15d9e:	01d5c603          	lbu	a2,29(a1)
   15da2:	0185c683          	lbu	a3,24(a1)
   15da6:	0195c703          	lbu	a4,25(a1)
   15daa:	01a5c803          	lbu	a6,26(a1)
   15dae:	01b5c283          	lbu	t0,27(a1)
   15db2:	0145c883          	lbu	a7,20(a1)
   15db6:	0155c383          	lbu	t2,21(a1)
   15dba:	0165c483          	lbu	s1,22(a1)
   15dbe:	0175c403          	lbu	s0,23(a1)
   15dc2:	0105c503          	lbu	a0,16(a1)
   15dc6:	0115c783          	lbu	a5,17(a1)
   15dca:	0125ce03          	lbu	t3,18(a1)
   15dce:	0135ce83          	lbu	t4,19(a1)
   15dd2:	0622                	slli	a2,a2,0x8
   15dd4:	0722                	slli	a4,a4,0x8
   15dd6:	00666333          	or	t1,a2,t1
   15dda:	00d76f33          	or	t5,a4,a3
   15dde:	00c5cf83          	lbu	t6,12(a1)
   15de2:	00d5c683          	lbu	a3,13(a1)
   15de6:	00e5c703          	lbu	a4,14(a1)
   15dea:	00f5c603          	lbu	a2,15(a1)
   15dee:	0842                	slli	a6,a6,0x10
   15df0:	02e2                	slli	t0,t0,0x18
   15df2:	03a2                	slli	t2,t2,0x8
   15df4:	04c2                	slli	s1,s1,0x10
   15df6:	0462                	slli	s0,s0,0x18
   15df8:	07a2                	slli	a5,a5,0x8
   15dfa:	0102e2b3          	or	t0,t0,a6
   15dfe:	0113e833          	or	a6,t2,a7
   15e02:	009463b3          	or	t2,s0,s1
   15e06:	00a7e8b3          	or	a7,a5,a0
   15e0a:	0085c503          	lbu	a0,8(a1)
   15e0e:	0095c783          	lbu	a5,9(a1)
   15e12:	00a5c403          	lbu	s0,10(a1)
   15e16:	00b5c483          	lbu	s1,11(a1)
   15e1a:	0e42                	slli	t3,t3,0x10
   15e1c:	0ee2                	slli	t4,t4,0x18
   15e1e:	06a2                	slli	a3,a3,0x8
   15e20:	0742                	slli	a4,a4,0x10
   15e22:	0662                	slli	a2,a2,0x18
   15e24:	07a2                	slli	a5,a5,0x8
   15e26:	01ceee33          	or	t3,t4,t3
   15e2a:	01f6eeb3          	or	t4,a3,t6
   15e2e:	00e669b3          	or	s3,a2,a4
   15e32:	00a7efb3          	or	t6,a5,a0
   15e36:	0045c703          	lbu	a4,4(a1)
   15e3a:	0055c783          	lbu	a5,5(a1)
   15e3e:	0065c683          	lbu	a3,6(a1)
   15e42:	0075c503          	lbu	a0,7(a1)
   15e46:	0442                	slli	s0,s0,0x10
   15e48:	04e2                	slli	s1,s1,0x18
   15e4a:	07a2                	slli	a5,a5,0x8
   15e4c:	06c2                	slli	a3,a3,0x10
   15e4e:	0562                	slli	a0,a0,0x18
   15e50:	8c45                	or	s0,s0,s1
   15e52:	00e7ea33          	or	s4,a5,a4
   15e56:	0005c783          	lbu	a5,0(a1)
   15e5a:	0015c483          	lbu	s1,1(a1)
   15e5e:	8d55                	or	a0,a0,a3
   15e60:	0025c683          	lbu	a3,2(a1)
   15e64:	0035c583          	lbu	a1,3(a1)
   15e68:	04a2                	slli	s1,s1,0x8
   15e6a:	8fc5                	or	a5,a5,s1
   15e6c:	06c2                	slli	a3,a3,0x10
   15e6e:	05e2                	slli	a1,a1,0x18
   15e70:	8dd5                	or	a1,a1,a3
   15e72:	01e2e6b3          	or	a3,t0,t5
   15e76:	0103e4b3          	or	s1,t2,a6
   15e7a:	011e6633          	or	a2,t3,a7
   15e7e:	01d9e733          	or	a4,s3,t4
   15e82:	01f46433          	or	s0,s0,t6
   15e86:	01456533          	or	a0,a0,s4
   15e8a:	8ddd                	or	a1,a1,a5
   15e8c:	ce32                	sw	a2,28(sp)
   15e8e:	d026                	sw	s1,32(sp)
   15e90:	d236                	sw	a3,36(sp)
   15e92:	02611423          	sh	t1,40(sp)
   15e96:	c62e                	sw	a1,12(sp)
   15e98:	c82a                	sw	a0,16(sp)
   15e9a:	ca22                	sw	s0,20(sp)
   15e9c:	cc3a                	sw	a4,24(sp)
   15e9e:	1068                	addi	a0,sp,44
   15ea0:	02c00613          	li	a2,44
   15ea4:	4581                	li	a1,0
   15ea6:	00006097          	auipc	ra,0x6
   15eaa:	b78080e7          	jalr	-1160(ra) # 1ba1e <memset>
   15eae:	3fb00513          	li	a0,1019
   15eb2:	459d                	li	a1,7
   15eb4:	0070                	addi	a2,sp,12
   15eb6:	46f9                	li	a3,30
   15eb8:	4711                	li	a4,4
   15eba:	4789                	li	a5,2
   15ebc:	00000073          	ecall
   15ec0:	02f50963          	beq	a0,a5,15ef2 <_ZN18complex_no_dynamic3app17ha7f689aae45e1d7aE+0x168>
   15ec4:	3fb00513          	li	a0,1019
   15ec8:	1070                	addi	a2,sp,44
   15eca:	02c00693          	li	a3,44
   15ece:	470d                	li	a4,3
   15ed0:	4581                	li	a1,0
   15ed2:	00000073          	ecall
   15ed6:	00f50e63          	beq	a0,a5,15ef2 <_ZN18complex_no_dynamic3app17ha7f689aae45e1d7aE+0x168>
   15eda:	3fb00513          	li	a0,1019
   15ede:	459d                	li	a1,7
   15ee0:	4709                	li	a4,2
   15ee2:	07f00793          	li	a5,127
   15ee6:	4601                	li	a2,0
   15ee8:	4681                	li	a3,0
   15eea:	00000073          	ecall
   15eee:	04a7e063          	bltu	a5,a0,15f2e <_ZN18complex_no_dynamic3app17ha7f689aae45e1d7aE+0x1a4>
   15ef2:	872e                	mv	a4,a1
   15ef4:	4581                	li	a1,0
   15ef6:	4601                	li	a2,0
   15ef8:	4681                	li	a3,0
   15efa:	4505                	li	a0,1
   15efc:	00a90023          	sb	a0,0(s2)
   15f00:	00e92223          	sw	a4,4(s2)
   15f04:	3fb00513          	li	a0,1019
   15f08:	470d                	li	a4,3
   15f0a:	00000073          	ecall
   15f0e:	3fb00513          	li	a0,1019
   15f12:	459d                	li	a1,7
   15f14:	4711                	li	a4,4
   15f16:	4601                	li	a2,0
   15f18:	4681                	li	a3,0
   15f1a:	00000073          	ecall
   15f1e:	50b6                	lw	ra,108(sp)
   15f20:	5426                	lw	s0,104(sp)
   15f22:	5496                	lw	s1,100(sp)
   15f24:	5906                	lw	s2,96(sp)
   15f26:	49f6                	lw	s3,92(sp)
   15f28:	4a66                	lw	s4,88(sp)
   15f2a:	6165                	addi	sp,sp,112
   15f2c:	8082                	ret
   15f2e:	4581                	li	a1,0
   15f30:	4601                	li	a2,0
   15f32:	4681                	li	a3,0
   15f34:	3fb00513          	li	a0,1019
   15f38:	470d                	li	a4,3
   15f3a:	00000073          	ecall
   15f3e:	3fb00513          	li	a0,1019
   15f42:	470d                	li	a4,3
   15f44:	4581                	li	a1,0
   15f46:	4601                	li	a2,0
   15f48:	4681                	li	a3,0
   15f4a:	00000073          	ecall
   15f4e:	00190513          	addi	a0,s2,1
   15f52:	106c                	addi	a1,sp,44
   15f54:	02c00613          	li	a2,44
   15f58:	00006097          	auipc	ra,0x6
   15f5c:	b32080e7          	jalr	-1230(ra) # 1ba8a <memcpy>
   15f60:	4581                	li	a1,0
   15f62:	4601                	li	a2,0
   15f64:	4681                	li	a3,0
   15f66:	00090023          	sb	zero,0(s2)
   15f6a:	3fb00513          	li	a0,1019
   15f6e:	470d                	li	a4,3
   15f70:	00000073          	ecall
   15f74:	3fb00513          	li	a0,1019
   15f78:	459d                	li	a1,7
   15f7a:	4711                	li	a4,4
   15f7c:	4601                	li	a2,0
   15f7e:	4681                	li	a3,0
   15f80:	00000073          	ecall
   15f84:	bf69                	j	15f1e <_ZN18complex_no_dynamic3app17ha7f689aae45e1d7aE+0x194>

00015f86 <_ZN18complex_no_dynamic3app17haa33980be5e5d6f1E>:
   15f86:	7135                	addi	sp,sp,-160
   15f88:	cf06                	sw	ra,156(sp)
   15f8a:	cd22                	sw	s0,152(sp)
   15f8c:	cb26                	sw	s1,148(sp)
   15f8e:	842a                	mv	s0,a0
   15f90:	00a10513          	addi	a0,sp,10
   15f94:	04f00613          	li	a2,79
   15f98:	00006097          	auipc	ra,0x6
   15f9c:	af2080e7          	jalr	-1294(ra) # 1ba8a <memcpy>
   15fa0:	05910513          	addi	a0,sp,89
   15fa4:	03b00613          	li	a2,59
   15fa8:	4581                	li	a1,0
   15faa:	00006097          	auipc	ra,0x6
   15fae:	a74080e7          	jalr	-1420(ra) # 1ba1e <memset>
   15fb2:	6505                	lui	a0,0x1
   15fb4:	45a1                	li	a1,8
   15fb6:	00a10613          	addi	a2,sp,10
   15fba:	04f00693          	li	a3,79
   15fbe:	a0650793          	addi	a5,a0,-1530 # a06 <.Lline_table_start1+0x7db>
   15fc2:	4711                	li	a4,4
   15fc4:	4489                	li	s1,2
   15fc6:	853e                	mv	a0,a5
   15fc8:	00000073          	ecall
   15fcc:	02950b63          	beq	a0,s1,16002 <_ZN18complex_no_dynamic3app17haa33980be5e5d6f1E+0x7c>
   15fd0:	4595                	li	a1,5
   15fd2:	05910613          	addi	a2,sp,89
   15fd6:	03b00693          	li	a3,59
   15fda:	470d                	li	a4,3
   15fdc:	853e                	mv	a0,a5
   15fde:	00000073          	ecall
   15fe2:	02950063          	beq	a0,s1,16002 <_ZN18complex_no_dynamic3app17haa33980be5e5d6f1E+0x7c>
   15fe6:	6505                	lui	a0,0x1
   15fe8:	45a1                	li	a1,8
   15fea:	4615                	li	a2,5
   15fec:	a0650493          	addi	s1,a0,-1530 # a06 <.Lline_table_start1+0x7db>
   15ff0:	4709                	li	a4,2
   15ff2:	07f00813          	li	a6,127
   15ff6:	8526                	mv	a0,s1
   15ff8:	4681                	li	a3,0
   15ffa:	00000073          	ecall
   15ffe:	02a86963          	bltu	a6,a0,16030 <_ZN18complex_no_dynamic3app17haa33980be5e5d6f1E+0xaa>
   16002:	853e                	mv	a0,a5
   16004:	4601                	li	a2,0
   16006:	4681                	li	a3,0
   16008:	4705                	li	a4,1
   1600a:	00e40023          	sb	a4,0(s0)
   1600e:	c04c                	sw	a1,4(s0)
   16010:	4595                	li	a1,5
   16012:	470d                	li	a4,3
   16014:	00000073          	ecall
   16018:	45a1                	li	a1,8
   1601a:	4711                	li	a4,4
   1601c:	853e                	mv	a0,a5
   1601e:	4601                	li	a2,0
   16020:	4681                	li	a3,0
   16022:	00000073          	ecall
   16026:	40fa                	lw	ra,156(sp)
   16028:	446a                	lw	s0,152(sp)
   1602a:	44da                	lw	s1,148(sp)
   1602c:	610d                	addi	sp,sp,160
   1602e:	8082                	ret
   16030:	8526                	mv	a0,s1
   16032:	4601                	li	a2,0
   16034:	4681                	li	a3,0
   16036:	4595                	li	a1,5
   16038:	470d                	li	a4,3
   1603a:	00000073          	ecall
   1603e:	4595                	li	a1,5
   16040:	470d                	li	a4,3
   16042:	8526                	mv	a0,s1
   16044:	4601                	li	a2,0
   16046:	4681                	li	a3,0
   16048:	00000073          	ecall
   1604c:	00140513          	addi	a0,s0,1
   16050:	05910593          	addi	a1,sp,89
   16054:	03b00613          	li	a2,59
   16058:	00006097          	auipc	ra,0x6
   1605c:	a32080e7          	jalr	-1486(ra) # 1ba8a <memcpy>
   16060:	8526                	mv	a0,s1
   16062:	4601                	li	a2,0
   16064:	4681                	li	a3,0
   16066:	00040023          	sb	zero,0(s0)
   1606a:	4595                	li	a1,5
   1606c:	470d                	li	a4,3
   1606e:	00000073          	ecall
   16072:	45a1                	li	a1,8
   16074:	4711                	li	a4,4
   16076:	8526                	mv	a0,s1
   16078:	4601                	li	a2,0
   1607a:	4681                	li	a3,0
   1607c:	00000073          	ecall
   16080:	b75d                	j	16026 <_ZN18complex_no_dynamic3app17haa33980be5e5d6f1E+0xa0>

00016082 <_ZN18complex_no_dynamic3app17hac673a2368d6a834E>:
   16082:	7119                	addi	sp,sp,-128
   16084:	de86                	sw	ra,124(sp)
   16086:	dca2                	sw	s0,120(sp)
   16088:	daa6                	sw	s1,116(sp)
   1608a:	842a                	mv	s0,a0
   1608c:	850a                	mv	a0,sp
   1608e:	03c00613          	li	a2,60
   16092:	00006097          	auipc	ra,0x6
   16096:	9f8080e7          	jalr	-1544(ra) # 1ba8a <memcpy>
   1609a:	1868                	addi	a0,sp,60
   1609c:	03800613          	li	a2,56
   160a0:	4581                	li	a1,0
   160a2:	00006097          	auipc	ra,0x6
   160a6:	97c080e7          	jalr	-1668(ra) # 1ba1e <memset>
   160aa:	6509                	lui	a0,0x2
   160ac:	458d                	li	a1,3
   160ae:	860a                	mv	a2,sp
   160b0:	03c00693          	li	a3,60
   160b4:	d1950793          	addi	a5,a0,-743 # 1d19 <.Lline_table_start1+0x1aee>
   160b8:	4711                	li	a4,4
   160ba:	4489                	li	s1,2
   160bc:	853e                	mv	a0,a5
   160be:	00000073          	ecall
   160c2:	02950a63          	beq	a0,s1,160f6 <_ZN18complex_no_dynamic3app17hac673a2368d6a834E+0x74>
   160c6:	458d                	li	a1,3
   160c8:	1870                	addi	a2,sp,60
   160ca:	03800693          	li	a3,56
   160ce:	470d                	li	a4,3
   160d0:	853e                	mv	a0,a5
   160d2:	00000073          	ecall
   160d6:	02950063          	beq	a0,s1,160f6 <_ZN18complex_no_dynamic3app17hac673a2368d6a834E+0x74>
   160da:	6509                	lui	a0,0x2
   160dc:	458d                	li	a1,3
   160de:	460d                	li	a2,3
   160e0:	d1950493          	addi	s1,a0,-743 # 1d19 <.Lline_table_start1+0x1aee>
   160e4:	4709                	li	a4,2
   160e6:	07f00813          	li	a6,127
   160ea:	8526                	mv	a0,s1
   160ec:	4681                	li	a3,0
   160ee:	00000073          	ecall
   160f2:	02a86963          	bltu	a6,a0,16124 <_ZN18complex_no_dynamic3app17hac673a2368d6a834E+0xa2>
   160f6:	853e                	mv	a0,a5
   160f8:	4601                	li	a2,0
   160fa:	4681                	li	a3,0
   160fc:	4705                	li	a4,1
   160fe:	00e40023          	sb	a4,0(s0)
   16102:	c04c                	sw	a1,4(s0)
   16104:	458d                	li	a1,3
   16106:	470d                	li	a4,3
   16108:	00000073          	ecall
   1610c:	458d                	li	a1,3
   1610e:	4711                	li	a4,4
   16110:	853e                	mv	a0,a5
   16112:	4601                	li	a2,0
   16114:	4681                	li	a3,0
   16116:	00000073          	ecall
   1611a:	50f6                	lw	ra,124(sp)
   1611c:	5466                	lw	s0,120(sp)
   1611e:	54d6                	lw	s1,116(sp)
   16120:	6109                	addi	sp,sp,128
   16122:	8082                	ret
   16124:	8526                	mv	a0,s1
   16126:	4601                	li	a2,0
   16128:	4681                	li	a3,0
   1612a:	458d                	li	a1,3
   1612c:	470d                	li	a4,3
   1612e:	00000073          	ecall
   16132:	458d                	li	a1,3
   16134:	470d                	li	a4,3
   16136:	8526                	mv	a0,s1
   16138:	4601                	li	a2,0
   1613a:	4681                	li	a3,0
   1613c:	00000073          	ecall
   16140:	00140513          	addi	a0,s0,1
   16144:	186c                	addi	a1,sp,60
   16146:	03800613          	li	a2,56
   1614a:	00006097          	auipc	ra,0x6
   1614e:	940080e7          	jalr	-1728(ra) # 1ba8a <memcpy>
   16152:	8526                	mv	a0,s1
   16154:	4601                	li	a2,0
   16156:	4681                	li	a3,0
   16158:	00040023          	sb	zero,0(s0)
   1615c:	458d                	li	a1,3
   1615e:	470d                	li	a4,3
   16160:	00000073          	ecall
   16164:	458d                	li	a1,3
   16166:	4711                	li	a4,4
   16168:	8526                	mv	a0,s1
   1616a:	4601                	li	a2,0
   1616c:	4681                	li	a3,0
   1616e:	00000073          	ecall
   16172:	b765                	j	1611a <_ZN18complex_no_dynamic3app17hac673a2368d6a834E+0x98>

00016174 <_ZN18complex_no_dynamic3app17hae66bbb1f1e10f9cE>:
   16174:	7175                	addi	sp,sp,-144
   16176:	c706                	sw	ra,140(sp)
   16178:	c522                	sw	s0,136(sp)
   1617a:	842a                	mv	s0,a0
   1617c:	00710513          	addi	a0,sp,7
   16180:	06100613          	li	a2,97
   16184:	00006097          	auipc	ra,0x6
   16188:	906080e7          	jalr	-1786(ra) # 1ba8a <memcpy>
   1618c:	dc82                	sw	zero,120(sp)
   1618e:	de82                	sw	zero,124(sp)
   16190:	c102                	sw	zero,128(sp)
   16192:	08011223          	sh	zero,132(sp)
   16196:	d482                	sw	zero,104(sp)
   16198:	d682                	sw	zero,108(sp)
   1619a:	d882                	sw	zero,112(sp)
   1619c:	da82                	sw	zero,116(sp)
   1619e:	18800513          	li	a0,392
   161a2:	4591                	li	a1,4
   161a4:	00710613          	addi	a2,sp,7
   161a8:	06100693          	li	a3,97
   161ac:	4711                	li	a4,4
   161ae:	4789                	li	a5,2
   161b0:	00000073          	ecall
   161b4:	02f50863          	beq	a0,a5,161e4 <_ZN18complex_no_dynamic3app17hae66bbb1f1e10f9cE+0x70>
   161b8:	18800513          	li	a0,392
   161bc:	4599                	li	a1,6
   161be:	10b0                	addi	a2,sp,104
   161c0:	46f9                	li	a3,30
   161c2:	470d                	li	a4,3
   161c4:	00000073          	ecall
   161c8:	00f50e63          	beq	a0,a5,161e4 <_ZN18complex_no_dynamic3app17hae66bbb1f1e10f9cE+0x70>
   161cc:	18800513          	li	a0,392
   161d0:	4591                	li	a1,4
   161d2:	4619                	li	a2,6
   161d4:	4709                	li	a4,2
   161d6:	07f00793          	li	a5,127
   161da:	4681                	li	a3,0
   161dc:	00000073          	ecall
   161e0:	02a7ea63          	bltu	a5,a0,16214 <_ZN18complex_no_dynamic3app17hae66bbb1f1e10f9cE+0xa0>
   161e4:	4601                	li	a2,0
   161e6:	4681                	li	a3,0
   161e8:	4705                	li	a4,1
   161ea:	18800513          	li	a0,392
   161ee:	00e40023          	sb	a4,0(s0)
   161f2:	c04c                	sw	a1,4(s0)
   161f4:	4599                	li	a1,6
   161f6:	470d                	li	a4,3
   161f8:	00000073          	ecall
   161fc:	18800513          	li	a0,392
   16200:	4591                	li	a1,4
   16202:	4711                	li	a4,4
   16204:	4601                	li	a2,0
   16206:	4681                	li	a3,0
   16208:	00000073          	ecall
   1620c:	40ba                	lw	ra,140(sp)
   1620e:	442a                	lw	s0,136(sp)
   16210:	6149                	addi	sp,sp,144
   16212:	8082                	ret
   16214:	4601                	li	a2,0
   16216:	4681                	li	a3,0
   16218:	18800513          	li	a0,392
   1621c:	4599                	li	a1,6
   1621e:	470d                	li	a4,3
   16220:	00000073          	ecall
   16224:	18800513          	li	a0,392
   16228:	4599                	li	a1,6
   1622a:	470d                	li	a4,3
   1622c:	4601                	li	a2,0
   1622e:	4681                	li	a3,0
   16230:	00000073          	ecall
   16234:	00140513          	addi	a0,s0,1
   16238:	10ac                	addi	a1,sp,104
   1623a:	4679                	li	a2,30
   1623c:	00006097          	auipc	ra,0x6
   16240:	84e080e7          	jalr	-1970(ra) # 1ba8a <memcpy>
   16244:	4601                	li	a2,0
   16246:	4681                	li	a3,0
   16248:	00040023          	sb	zero,0(s0)
   1624c:	18800513          	li	a0,392
   16250:	4599                	li	a1,6
   16252:	470d                	li	a4,3
   16254:	00000073          	ecall
   16258:	18800513          	li	a0,392
   1625c:	4591                	li	a1,4
   1625e:	4711                	li	a4,4
   16260:	4601                	li	a2,0
   16262:	4681                	li	a3,0
   16264:	00000073          	ecall
   16268:	b755                	j	1620c <_ZN18complex_no_dynamic3app17hae66bbb1f1e10f9cE+0x98>

0001626a <_ZN18complex_no_dynamic3app17haf076ee7991a24abE>:
   1626a:	711d                	addi	sp,sp,-96
   1626c:	ce86                	sw	ra,92(sp)
   1626e:	cca2                	sw	s0,88(sp)
   16270:	caa6                	sw	s1,84(sp)
   16272:	842a                	mv	s0,a0
   16274:	00110513          	addi	a0,sp,1
   16278:	02c00613          	li	a2,44
   1627c:	00006097          	auipc	ra,0x6
   16280:	80e080e7          	jalr	-2034(ra) # 1ba8a <memcpy>
   16284:	02d10513          	addi	a0,sp,45
   16288:	02700613          	li	a2,39
   1628c:	4581                	li	a1,0
   1628e:	00005097          	auipc	ra,0x5
   16292:	790080e7          	jalr	1936(ra) # 1ba1e <memset>
   16296:	6505                	lui	a0,0x1
   16298:	4591                	li	a1,4
   1629a:	00110613          	addi	a2,sp,1
   1629e:	02c00693          	li	a3,44
   162a2:	1b550793          	addi	a5,a0,437 # 11b5 <.Lline_table_start1+0xf8a>
   162a6:	4711                	li	a4,4
   162a8:	4489                	li	s1,2
   162aa:	853e                	mv	a0,a5
   162ac:	00000073          	ecall
   162b0:	02950b63          	beq	a0,s1,162e6 <_ZN18complex_no_dynamic3app17haf076ee7991a24abE+0x7c>
   162b4:	458d                	li	a1,3
   162b6:	02d10613          	addi	a2,sp,45
   162ba:	02700693          	li	a3,39
   162be:	470d                	li	a4,3
   162c0:	853e                	mv	a0,a5
   162c2:	00000073          	ecall
   162c6:	02950063          	beq	a0,s1,162e6 <_ZN18complex_no_dynamic3app17haf076ee7991a24abE+0x7c>
   162ca:	6505                	lui	a0,0x1
   162cc:	4591                	li	a1,4
   162ce:	460d                	li	a2,3
   162d0:	1b550493          	addi	s1,a0,437 # 11b5 <.Lline_table_start1+0xf8a>
   162d4:	4709                	li	a4,2
   162d6:	07f00813          	li	a6,127
   162da:	8526                	mv	a0,s1
   162dc:	4681                	li	a3,0
   162de:	00000073          	ecall
   162e2:	02a86963          	bltu	a6,a0,16314 <_ZN18complex_no_dynamic3app17haf076ee7991a24abE+0xaa>
   162e6:	853e                	mv	a0,a5
   162e8:	4601                	li	a2,0
   162ea:	4681                	li	a3,0
   162ec:	4705                	li	a4,1
   162ee:	00e40023          	sb	a4,0(s0)
   162f2:	c04c                	sw	a1,4(s0)
   162f4:	458d                	li	a1,3
   162f6:	470d                	li	a4,3
   162f8:	00000073          	ecall
   162fc:	4591                	li	a1,4
   162fe:	4711                	li	a4,4
   16300:	853e                	mv	a0,a5
   16302:	4601                	li	a2,0
   16304:	4681                	li	a3,0
   16306:	00000073          	ecall
   1630a:	40f6                	lw	ra,92(sp)
   1630c:	4466                	lw	s0,88(sp)
   1630e:	44d6                	lw	s1,84(sp)
   16310:	6125                	addi	sp,sp,96
   16312:	8082                	ret
   16314:	8526                	mv	a0,s1
   16316:	4601                	li	a2,0
   16318:	4681                	li	a3,0
   1631a:	458d                	li	a1,3
   1631c:	470d                	li	a4,3
   1631e:	00000073          	ecall
   16322:	458d                	li	a1,3
   16324:	470d                	li	a4,3
   16326:	8526                	mv	a0,s1
   16328:	4601                	li	a2,0
   1632a:	4681                	li	a3,0
   1632c:	00000073          	ecall
   16330:	00140513          	addi	a0,s0,1
   16334:	02d10593          	addi	a1,sp,45
   16338:	02700613          	li	a2,39
   1633c:	00005097          	auipc	ra,0x5
   16340:	74e080e7          	jalr	1870(ra) # 1ba8a <memcpy>
   16344:	8526                	mv	a0,s1
   16346:	4601                	li	a2,0
   16348:	4681                	li	a3,0
   1634a:	00040023          	sb	zero,0(s0)
   1634e:	458d                	li	a1,3
   16350:	470d                	li	a4,3
   16352:	00000073          	ecall
   16356:	4591                	li	a1,4
   16358:	4711                	li	a4,4
   1635a:	8526                	mv	a0,s1
   1635c:	4601                	li	a2,0
   1635e:	4681                	li	a3,0
   16360:	00000073          	ecall
   16364:	b75d                	j	1630a <_ZN18complex_no_dynamic3app17haf076ee7991a24abE+0xa0>

00016366 <_ZN18complex_no_dynamic3app17haf4b3e37890d7b43E>:
   16366:	7159                	addi	sp,sp,-112
   16368:	d686                	sw	ra,108(sp)
   1636a:	d4a2                	sw	s0,104(sp)
   1636c:	d2a6                	sw	s1,100(sp)
   1636e:	842a                	mv	s0,a0
   16370:	850a                	mv	a0,sp
   16372:	03200613          	li	a2,50
   16376:	00005097          	auipc	ra,0x5
   1637a:	714080e7          	jalr	1812(ra) # 1ba8a <memcpy>
   1637e:	03210513          	addi	a0,sp,50
   16382:	03200613          	li	a2,50
   16386:	4581                	li	a1,0
   16388:	00005097          	auipc	ra,0x5
   1638c:	696080e7          	jalr	1686(ra) # 1ba1e <memset>
   16390:	6509                	lui	a0,0x2
   16392:	458d                	li	a1,3
   16394:	860a                	mv	a2,sp
   16396:	03200693          	li	a3,50
   1639a:	f0750793          	addi	a5,a0,-249 # 1f07 <.Lline_table_start1+0x1cdc>
   1639e:	4711                	li	a4,4
   163a0:	4489                	li	s1,2
   163a2:	853e                	mv	a0,a5
   163a4:	00000073          	ecall
   163a8:	02950b63          	beq	a0,s1,163de <_ZN18complex_no_dynamic3app17haf4b3e37890d7b43E+0x78>
   163ac:	4585                	li	a1,1
   163ae:	03210613          	addi	a2,sp,50
   163b2:	03200693          	li	a3,50
   163b6:	470d                	li	a4,3
   163b8:	853e                	mv	a0,a5
   163ba:	00000073          	ecall
   163be:	02950063          	beq	a0,s1,163de <_ZN18complex_no_dynamic3app17haf4b3e37890d7b43E+0x78>
   163c2:	6509                	lui	a0,0x2
   163c4:	458d                	li	a1,3
   163c6:	4605                	li	a2,1
   163c8:	f0750493          	addi	s1,a0,-249 # 1f07 <.Lline_table_start1+0x1cdc>
   163cc:	4709                	li	a4,2
   163ce:	07f00813          	li	a6,127
   163d2:	8526                	mv	a0,s1
   163d4:	4681                	li	a3,0
   163d6:	00000073          	ecall
   163da:	02a86963          	bltu	a6,a0,1640c <_ZN18complex_no_dynamic3app17haf4b3e37890d7b43E+0xa6>
   163de:	853e                	mv	a0,a5
   163e0:	4601                	li	a2,0
   163e2:	4681                	li	a3,0
   163e4:	4705                	li	a4,1
   163e6:	00e40023          	sb	a4,0(s0)
   163ea:	c04c                	sw	a1,4(s0)
   163ec:	4585                	li	a1,1
   163ee:	470d                	li	a4,3
   163f0:	00000073          	ecall
   163f4:	458d                	li	a1,3
   163f6:	4711                	li	a4,4
   163f8:	853e                	mv	a0,a5
   163fa:	4601                	li	a2,0
   163fc:	4681                	li	a3,0
   163fe:	00000073          	ecall
   16402:	50b6                	lw	ra,108(sp)
   16404:	5426                	lw	s0,104(sp)
   16406:	5496                	lw	s1,100(sp)
   16408:	6165                	addi	sp,sp,112
   1640a:	8082                	ret
   1640c:	8526                	mv	a0,s1
   1640e:	4601                	li	a2,0
   16410:	4681                	li	a3,0
   16412:	4585                	li	a1,1
   16414:	470d                	li	a4,3
   16416:	00000073          	ecall
   1641a:	4585                	li	a1,1
   1641c:	470d                	li	a4,3
   1641e:	8526                	mv	a0,s1
   16420:	4601                	li	a2,0
   16422:	4681                	li	a3,0
   16424:	00000073          	ecall
   16428:	00140513          	addi	a0,s0,1
   1642c:	03210593          	addi	a1,sp,50
   16430:	03200613          	li	a2,50
   16434:	00005097          	auipc	ra,0x5
   16438:	656080e7          	jalr	1622(ra) # 1ba8a <memcpy>
   1643c:	8526                	mv	a0,s1
   1643e:	4601                	li	a2,0
   16440:	4681                	li	a3,0
   16442:	00040023          	sb	zero,0(s0)
   16446:	4585                	li	a1,1
   16448:	470d                	li	a4,3
   1644a:	00000073          	ecall
   1644e:	458d                	li	a1,3
   16450:	4711                	li	a4,4
   16452:	8526                	mv	a0,s1
   16454:	4601                	li	a2,0
   16456:	4681                	li	a3,0
   16458:	00000073          	ecall
   1645c:	b75d                	j	16402 <_ZN18complex_no_dynamic3app17haf4b3e37890d7b43E+0x9c>

0001645e <_ZN18complex_no_dynamic3app17hb00213b4ce68fd0eE>:
   1645e:	7119                	addi	sp,sp,-128
   16460:	de86                	sw	ra,124(sp)
   16462:	dca2                	sw	s0,120(sp)
   16464:	daa6                	sw	s1,116(sp)
   16466:	842a                	mv	s0,a0
   16468:	00310513          	addi	a0,sp,3
   1646c:	05d00613          	li	a2,93
   16470:	00005097          	auipc	ra,0x5
   16474:	61a080e7          	jalr	1562(ra) # 1ba8a <memcpy>
   16478:	06011823          	sh	zero,112(sp)
   1647c:	d082                	sw	zero,96(sp)
   1647e:	d282                	sw	zero,100(sp)
   16480:	d482                	sw	zero,104(sp)
   16482:	d682                	sw	zero,108(sp)
   16484:	6505                	lui	a0,0x1
   16486:	00310613          	addi	a2,sp,3
   1648a:	05d00693          	li	a3,93
   1648e:	5f150793          	addi	a5,a0,1521 # 15f1 <.Lline_table_start1+0x13c6>
   16492:	4711                	li	a4,4
   16494:	4489                	li	s1,2
   16496:	853e                	mv	a0,a5
   16498:	4581                	li	a1,0
   1649a:	00000073          	ecall
   1649e:	02950963          	beq	a0,s1,164d0 <_ZN18complex_no_dynamic3app17hb00213b4ce68fd0eE+0x72>
   164a2:	4589                	li	a1,2
   164a4:	1090                	addi	a2,sp,96
   164a6:	46c9                	li	a3,18
   164a8:	470d                	li	a4,3
   164aa:	853e                	mv	a0,a5
   164ac:	00000073          	ecall
   164b0:	02950063          	beq	a0,s1,164d0 <_ZN18complex_no_dynamic3app17hb00213b4ce68fd0eE+0x72>
   164b4:	6505                	lui	a0,0x1
   164b6:	4609                	li	a2,2
   164b8:	5f150493          	addi	s1,a0,1521 # 15f1 <.Lline_table_start1+0x13c6>
   164bc:	4709                	li	a4,2
   164be:	07f00813          	li	a6,127
   164c2:	8526                	mv	a0,s1
   164c4:	4581                	li	a1,0
   164c6:	4681                	li	a3,0
   164c8:	00000073          	ecall
   164cc:	02a86a63          	bltu	a6,a0,16500 <_ZN18complex_no_dynamic3app17hb00213b4ce68fd0eE+0xa2>
   164d0:	862e                	mv	a2,a1
   164d2:	4505                	li	a0,1
   164d4:	4589                	li	a1,2
   164d6:	00a40023          	sb	a0,0(s0)
   164da:	c050                	sw	a2,4(s0)
   164dc:	470d                	li	a4,3
   164de:	853e                	mv	a0,a5
   164e0:	4601                	li	a2,0
   164e2:	4681                	li	a3,0
   164e4:	00000073          	ecall
   164e8:	4711                	li	a4,4
   164ea:	853e                	mv	a0,a5
   164ec:	4581                	li	a1,0
   164ee:	4601                	li	a2,0
   164f0:	4681                	li	a3,0
   164f2:	00000073          	ecall
   164f6:	50f6                	lw	ra,124(sp)
   164f8:	5466                	lw	s0,120(sp)
   164fa:	54d6                	lw	s1,116(sp)
   164fc:	6109                	addi	sp,sp,128
   164fe:	8082                	ret
   16500:	8526                	mv	a0,s1
   16502:	4601                	li	a2,0
   16504:	4681                	li	a3,0
   16506:	4589                	li	a1,2
   16508:	470d                	li	a4,3
   1650a:	00000073          	ecall
   1650e:	4589                	li	a1,2
   16510:	470d                	li	a4,3
   16512:	8526                	mv	a0,s1
   16514:	4601                	li	a2,0
   16516:	4681                	li	a3,0
   16518:	00000073          	ecall
   1651c:	00140513          	addi	a0,s0,1
   16520:	108c                	addi	a1,sp,96
   16522:	4649                	li	a2,18
   16524:	00005097          	auipc	ra,0x5
   16528:	566080e7          	jalr	1382(ra) # 1ba8a <memcpy>
   1652c:	00040023          	sb	zero,0(s0)
   16530:	4589                	li	a1,2
   16532:	470d                	li	a4,3
   16534:	8526                	mv	a0,s1
   16536:	4601                	li	a2,0
   16538:	4681                	li	a3,0
   1653a:	00000073          	ecall
   1653e:	4711                	li	a4,4
   16540:	8526                	mv	a0,s1
   16542:	4581                	li	a1,0
   16544:	4601                	li	a2,0
   16546:	4681                	li	a3,0
   16548:	00000073          	ecall
   1654c:	b76d                	j	164f6 <_ZN18complex_no_dynamic3app17hb00213b4ce68fd0eE+0x98>

0001654e <_ZN18complex_no_dynamic3app17hb1945e33bddc1861E>:
   1654e:	711d                	addi	sp,sp,-96
   16550:	ce86                	sw	ra,92(sp)
   16552:	cca2                	sw	s0,88(sp)
   16554:	caa6                	sw	s1,84(sp)
   16556:	842a                	mv	s0,a0
   16558:	00f10513          	addi	a0,sp,15
   1655c:	02900613          	li	a2,41
   16560:	00005097          	auipc	ra,0x5
   16564:	52a080e7          	jalr	1322(ra) # 1ba8a <memcpy>
   16568:	c482                	sw	zero,72(sp)
   1656a:	c682                	sw	zero,76(sp)
   1656c:	04011823          	sh	zero,80(sp)
   16570:	dc02                	sw	zero,56(sp)
   16572:	de02                	sw	zero,60(sp)
   16574:	c082                	sw	zero,64(sp)
   16576:	c282                	sw	zero,68(sp)
   16578:	6509                	lui	a0,0x2
   1657a:	4595                	li	a1,5
   1657c:	00f10613          	addi	a2,sp,15
   16580:	02900693          	li	a3,41
   16584:	04850793          	addi	a5,a0,72 # 2048 <.Lline_table_start1+0x1e1d>
   16588:	4711                	li	a4,4
   1658a:	4489                	li	s1,2
   1658c:	853e                	mv	a0,a5
   1658e:	00000073          	ecall
   16592:	02950963          	beq	a0,s1,165c4 <_ZN18complex_no_dynamic3app17hb1945e33bddc1861E+0x76>
   16596:	458d                	li	a1,3
   16598:	1830                	addi	a2,sp,56
   1659a:	46e9                	li	a3,26
   1659c:	470d                	li	a4,3
   1659e:	853e                	mv	a0,a5
   165a0:	00000073          	ecall
   165a4:	02950063          	beq	a0,s1,165c4 <_ZN18complex_no_dynamic3app17hb1945e33bddc1861E+0x76>
   165a8:	6509                	lui	a0,0x2
   165aa:	4595                	li	a1,5
   165ac:	460d                	li	a2,3
   165ae:	04850493          	addi	s1,a0,72 # 2048 <.Lline_table_start1+0x1e1d>
   165b2:	4709                	li	a4,2
   165b4:	07f00813          	li	a6,127
   165b8:	8526                	mv	a0,s1
   165ba:	4681                	li	a3,0
   165bc:	00000073          	ecall
   165c0:	02a86963          	bltu	a6,a0,165f2 <_ZN18complex_no_dynamic3app17hb1945e33bddc1861E+0xa4>
   165c4:	853e                	mv	a0,a5
   165c6:	4601                	li	a2,0
   165c8:	4681                	li	a3,0
   165ca:	4705                	li	a4,1
   165cc:	00e40023          	sb	a4,0(s0)
   165d0:	c04c                	sw	a1,4(s0)
   165d2:	458d                	li	a1,3
   165d4:	470d                	li	a4,3
   165d6:	00000073          	ecall
   165da:	4595                	li	a1,5
   165dc:	4711                	li	a4,4
   165de:	853e                	mv	a0,a5
   165e0:	4601                	li	a2,0
   165e2:	4681                	li	a3,0
   165e4:	00000073          	ecall
   165e8:	40f6                	lw	ra,92(sp)
   165ea:	4466                	lw	s0,88(sp)
   165ec:	44d6                	lw	s1,84(sp)
   165ee:	6125                	addi	sp,sp,96
   165f0:	8082                	ret
   165f2:	8526                	mv	a0,s1
   165f4:	4601                	li	a2,0
   165f6:	4681                	li	a3,0
   165f8:	458d                	li	a1,3
   165fa:	470d                	li	a4,3
   165fc:	00000073          	ecall
   16600:	458d                	li	a1,3
   16602:	470d                	li	a4,3
   16604:	8526                	mv	a0,s1
   16606:	4601                	li	a2,0
   16608:	4681                	li	a3,0
   1660a:	00000073          	ecall
   1660e:	00140513          	addi	a0,s0,1
   16612:	182c                	addi	a1,sp,56
   16614:	4669                	li	a2,26
   16616:	00005097          	auipc	ra,0x5
   1661a:	474080e7          	jalr	1140(ra) # 1ba8a <memcpy>
   1661e:	8526                	mv	a0,s1
   16620:	4601                	li	a2,0
   16622:	4681                	li	a3,0
   16624:	00040023          	sb	zero,0(s0)
   16628:	458d                	li	a1,3
   1662a:	470d                	li	a4,3
   1662c:	00000073          	ecall
   16630:	4595                	li	a1,5
   16632:	4711                	li	a4,4
   16634:	8526                	mv	a0,s1
   16636:	4601                	li	a2,0
   16638:	4681                	li	a3,0
   1663a:	00000073          	ecall
   1663e:	b76d                	j	165e8 <_ZN18complex_no_dynamic3app17hb1945e33bddc1861E+0x9a>

00016640 <_ZN18complex_no_dynamic3app17hb36348f5305d2b55E>:
   16640:	7135                	addi	sp,sp,-160
   16642:	cf06                	sw	ra,156(sp)
   16644:	cd22                	sw	s0,152(sp)
   16646:	842a                	mv	s0,a0
   16648:	00910513          	addi	a0,sp,9
   1664c:	06300613          	li	a2,99
   16650:	00005097          	auipc	ra,0x5
   16654:	43a080e7          	jalr	1082(ra) # 1ba8a <memcpy>
   16658:	10e8                	addi	a0,sp,108
   1665a:	02c00613          	li	a2,44
   1665e:	4581                	li	a1,0
   16660:	00005097          	auipc	ra,0x5
   16664:	3be080e7          	jalr	958(ra) # 1ba1e <memset>
   16668:	4561                	li	a0,24
   1666a:	4595                	li	a1,5
   1666c:	00910613          	addi	a2,sp,9
   16670:	06300693          	li	a3,99
   16674:	4711                	li	a4,4
   16676:	4789                	li	a5,2
   16678:	00000073          	ecall
   1667c:	02f50763          	beq	a0,a5,166aa <_ZN18complex_no_dynamic3app17hb36348f5305d2b55E+0x6a>
   16680:	4561                	li	a0,24
   16682:	458d                	li	a1,3
   16684:	10f0                	addi	a2,sp,108
   16686:	02c00693          	li	a3,44
   1668a:	470d                	li	a4,3
   1668c:	00000073          	ecall
   16690:	00f50d63          	beq	a0,a5,166aa <_ZN18complex_no_dynamic3app17hb36348f5305d2b55E+0x6a>
   16694:	4561                	li	a0,24
   16696:	4595                	li	a1,5
   16698:	460d                	li	a2,3
   1669a:	4709                	li	a4,2
   1669c:	07f00793          	li	a5,127
   166a0:	4681                	li	a3,0
   166a2:	00000073          	ecall
   166a6:	02a7e863          	bltu	a5,a0,166d6 <_ZN18complex_no_dynamic3app17hb36348f5305d2b55E+0x96>
   166aa:	4601                	li	a2,0
   166ac:	4681                	li	a3,0
   166ae:	4705                	li	a4,1
   166b0:	4561                	li	a0,24
   166b2:	00e40023          	sb	a4,0(s0)
   166b6:	c04c                	sw	a1,4(s0)
   166b8:	458d                	li	a1,3
   166ba:	470d                	li	a4,3
   166bc:	00000073          	ecall
   166c0:	4561                	li	a0,24
   166c2:	4595                	li	a1,5
   166c4:	4711                	li	a4,4
   166c6:	4601                	li	a2,0
   166c8:	4681                	li	a3,0
   166ca:	00000073          	ecall
   166ce:	40fa                	lw	ra,156(sp)
   166d0:	446a                	lw	s0,152(sp)
   166d2:	610d                	addi	sp,sp,160
   166d4:	8082                	ret
   166d6:	4601                	li	a2,0
   166d8:	4681                	li	a3,0
   166da:	4561                	li	a0,24
   166dc:	458d                	li	a1,3
   166de:	470d                	li	a4,3
   166e0:	00000073          	ecall
   166e4:	4561                	li	a0,24
   166e6:	458d                	li	a1,3
   166e8:	470d                	li	a4,3
   166ea:	4601                	li	a2,0
   166ec:	4681                	li	a3,0
   166ee:	00000073          	ecall
   166f2:	00140513          	addi	a0,s0,1
   166f6:	10ec                	addi	a1,sp,108
   166f8:	02c00613          	li	a2,44
   166fc:	00005097          	auipc	ra,0x5
   16700:	38e080e7          	jalr	910(ra) # 1ba8a <memcpy>
   16704:	4601                	li	a2,0
   16706:	4681                	li	a3,0
   16708:	00040023          	sb	zero,0(s0)
   1670c:	4561                	li	a0,24
   1670e:	458d                	li	a1,3
   16710:	470d                	li	a4,3
   16712:	00000073          	ecall
   16716:	4561                	li	a0,24
   16718:	4595                	li	a1,5
   1671a:	4711                	li	a4,4
   1671c:	4601                	li	a2,0
   1671e:	4681                	li	a3,0
   16720:	00000073          	ecall
   16724:	b76d                	j	166ce <_ZN18complex_no_dynamic3app17hb36348f5305d2b55E+0x8e>

00016726 <_ZN18complex_no_dynamic3app17hb7270697985f26e8E>:
   16726:	715d                	addi	sp,sp,-80
   16728:	c686                	sw	ra,76(sp)
   1672a:	c4a2                	sw	s0,72(sp)
   1672c:	c2a6                	sw	s1,68(sp)
   1672e:	842a                	mv	s0,a0
   16730:	00910513          	addi	a0,sp,9
   16734:	02b00613          	li	a2,43
   16738:	00005097          	auipc	ra,0x5
   1673c:	352080e7          	jalr	850(ra) # 1ba8a <memcpy>
   16740:	da02                	sw	zero,52(sp)
   16742:	dc02                	sw	zero,56(sp)
   16744:	de02                	sw	zero,60(sp)
   16746:	04010023          	sb	zero,64(sp)
   1674a:	6505                	lui	a0,0x1
   1674c:	4599                	li	a1,6
   1674e:	00910613          	addi	a2,sp,9
   16752:	02b00693          	li	a3,43
   16756:	46550793          	addi	a5,a0,1125 # 1465 <.Lline_table_start1+0x123a>
   1675a:	4711                	li	a4,4
   1675c:	4489                	li	s1,2
   1675e:	853e                	mv	a0,a5
   16760:	00000073          	ecall
   16764:	02950963          	beq	a0,s1,16796 <_ZN18complex_no_dynamic3app17hb7270697985f26e8E+0x70>
   16768:	1850                	addi	a2,sp,52
   1676a:	46b5                	li	a3,13
   1676c:	470d                	li	a4,3
   1676e:	853e                	mv	a0,a5
   16770:	4581                	li	a1,0
   16772:	00000073          	ecall
   16776:	02950063          	beq	a0,s1,16796 <_ZN18complex_no_dynamic3app17hb7270697985f26e8E+0x70>
   1677a:	6505                	lui	a0,0x1
   1677c:	4599                	li	a1,6
   1677e:	46550493          	addi	s1,a0,1125 # 1465 <.Lline_table_start1+0x123a>
   16782:	4709                	li	a4,2
   16784:	07f00813          	li	a6,127
   16788:	8526                	mv	a0,s1
   1678a:	4601                	li	a2,0
   1678c:	4681                	li	a3,0
   1678e:	00000073          	ecall
   16792:	02a86a63          	bltu	a6,a0,167c6 <_ZN18complex_no_dynamic3app17hb7270697985f26e8E+0xa0>
   16796:	872e                	mv	a4,a1
   16798:	853e                	mv	a0,a5
   1679a:	4581                	li	a1,0
   1679c:	4601                	li	a2,0
   1679e:	4681                	li	a3,0
   167a0:	4485                	li	s1,1
   167a2:	00940023          	sb	s1,0(s0)
   167a6:	c058                	sw	a4,4(s0)
   167a8:	470d                	li	a4,3
   167aa:	00000073          	ecall
   167ae:	4599                	li	a1,6
   167b0:	4711                	li	a4,4
   167b2:	853e                	mv	a0,a5
   167b4:	4601                	li	a2,0
   167b6:	4681                	li	a3,0
   167b8:	00000073          	ecall
   167bc:	40b6                	lw	ra,76(sp)
   167be:	4426                	lw	s0,72(sp)
   167c0:	4496                	lw	s1,68(sp)
   167c2:	6161                	addi	sp,sp,80
   167c4:	8082                	ret
   167c6:	470d                	li	a4,3
   167c8:	8526                	mv	a0,s1
   167ca:	4581                	li	a1,0
   167cc:	4601                	li	a2,0
   167ce:	4681                	li	a3,0
   167d0:	00000073          	ecall
   167d4:	470d                	li	a4,3
   167d6:	8526                	mv	a0,s1
   167d8:	4581                	li	a1,0
   167da:	4601                	li	a2,0
   167dc:	4681                	li	a3,0
   167de:	00000073          	ecall
   167e2:	00140513          	addi	a0,s0,1
   167e6:	184c                	addi	a1,sp,52
   167e8:	4635                	li	a2,13
   167ea:	00005097          	auipc	ra,0x5
   167ee:	2a0080e7          	jalr	672(ra) # 1ba8a <memcpy>
   167f2:	8526                	mv	a0,s1
   167f4:	4581                	li	a1,0
   167f6:	4601                	li	a2,0
   167f8:	4681                	li	a3,0
   167fa:	00040023          	sb	zero,0(s0)
   167fe:	470d                	li	a4,3
   16800:	00000073          	ecall
   16804:	4599                	li	a1,6
   16806:	4711                	li	a4,4
   16808:	8526                	mv	a0,s1
   1680a:	4601                	li	a2,0
   1680c:	4681                	li	a3,0
   1680e:	00000073          	ecall
   16812:	b76d                	j	167bc <_ZN18complex_no_dynamic3app17hb7270697985f26e8E+0x96>

00016814 <_ZN18complex_no_dynamic3app17hb952355b8403e0fbE>:
   16814:	7171                	addi	sp,sp,-176
   16816:	d706                	sw	ra,172(sp)
   16818:	d522                	sw	s0,168(sp)
   1681a:	d326                	sw	s1,164(sp)
   1681c:	842a                	mv	s0,a0
   1681e:	00d10513          	addi	a0,sp,13
   16822:	03a00613          	li	a2,58
   16826:	00005097          	auipc	ra,0x5
   1682a:	264080e7          	jalr	612(ra) # 1ba8a <memcpy>
   1682e:	04710513          	addi	a0,sp,71
   16832:	05d00613          	li	a2,93
   16836:	4581                	li	a1,0
   16838:	00005097          	auipc	ra,0x5
   1683c:	1e6080e7          	jalr	486(ra) # 1ba1e <memset>
   16840:	6505                	lui	a0,0x1
   16842:	00d10613          	addi	a2,sp,13
   16846:	03a00693          	li	a3,58
   1684a:	4a450793          	addi	a5,a0,1188 # 14a4 <.Lline_table_start1+0x1279>
   1684e:	4711                	li	a4,4
   16850:	4489                	li	s1,2
   16852:	853e                	mv	a0,a5
   16854:	4581                	li	a1,0
   16856:	00000073          	ecall
   1685a:	02950b63          	beq	a0,s1,16890 <_ZN18complex_no_dynamic3app17hb952355b8403e0fbE+0x7c>
   1685e:	4595                	li	a1,5
   16860:	04710613          	addi	a2,sp,71
   16864:	05d00693          	li	a3,93
   16868:	470d                	li	a4,3
   1686a:	853e                	mv	a0,a5
   1686c:	00000073          	ecall
   16870:	02950063          	beq	a0,s1,16890 <_ZN18complex_no_dynamic3app17hb952355b8403e0fbE+0x7c>
   16874:	6505                	lui	a0,0x1
   16876:	4615                	li	a2,5
   16878:	4a450493          	addi	s1,a0,1188 # 14a4 <.Lline_table_start1+0x1279>
   1687c:	4709                	li	a4,2
   1687e:	07f00813          	li	a6,127
   16882:	8526                	mv	a0,s1
   16884:	4581                	li	a1,0
   16886:	4681                	li	a3,0
   16888:	00000073          	ecall
   1688c:	02a86a63          	bltu	a6,a0,168c0 <_ZN18complex_no_dynamic3app17hb952355b8403e0fbE+0xac>
   16890:	862e                	mv	a2,a1
   16892:	4505                	li	a0,1
   16894:	4595                	li	a1,5
   16896:	00a40023          	sb	a0,0(s0)
   1689a:	c050                	sw	a2,4(s0)
   1689c:	470d                	li	a4,3
   1689e:	853e                	mv	a0,a5
   168a0:	4601                	li	a2,0
   168a2:	4681                	li	a3,0
   168a4:	00000073          	ecall
   168a8:	4711                	li	a4,4
   168aa:	853e                	mv	a0,a5
   168ac:	4581                	li	a1,0
   168ae:	4601                	li	a2,0
   168b0:	4681                	li	a3,0
   168b2:	00000073          	ecall
   168b6:	50ba                	lw	ra,172(sp)
   168b8:	542a                	lw	s0,168(sp)
   168ba:	549a                	lw	s1,164(sp)
   168bc:	614d                	addi	sp,sp,176
   168be:	8082                	ret
   168c0:	8526                	mv	a0,s1
   168c2:	4601                	li	a2,0
   168c4:	4681                	li	a3,0
   168c6:	4595                	li	a1,5
   168c8:	470d                	li	a4,3
   168ca:	00000073          	ecall
   168ce:	4595                	li	a1,5
   168d0:	470d                	li	a4,3
   168d2:	8526                	mv	a0,s1
   168d4:	4601                	li	a2,0
   168d6:	4681                	li	a3,0
   168d8:	00000073          	ecall
   168dc:	00140513          	addi	a0,s0,1
   168e0:	04710593          	addi	a1,sp,71
   168e4:	05d00613          	li	a2,93
   168e8:	00005097          	auipc	ra,0x5
   168ec:	1a2080e7          	jalr	418(ra) # 1ba8a <memcpy>
   168f0:	00040023          	sb	zero,0(s0)
   168f4:	4595                	li	a1,5
   168f6:	470d                	li	a4,3
   168f8:	8526                	mv	a0,s1
   168fa:	4601                	li	a2,0
   168fc:	4681                	li	a3,0
   168fe:	00000073          	ecall
   16902:	4711                	li	a4,4
   16904:	8526                	mv	a0,s1
   16906:	4581                	li	a1,0
   16908:	4601                	li	a2,0
   1690a:	4681                	li	a3,0
   1690c:	00000073          	ecall
   16910:	b75d                	j	168b6 <_ZN18complex_no_dynamic3app17hb952355b8403e0fbE+0xa2>

00016912 <_ZN18complex_no_dynamic3app17hba1e40fdd2d5fad8E>:
   16912:	711d                	addi	sp,sp,-96
   16914:	ce86                	sw	ra,92(sp)
   16916:	cca2                	sw	s0,88(sp)
   16918:	caa6                	sw	s1,84(sp)
   1691a:	c8ca                	sw	s2,80(sp)
   1691c:	c6ce                	sw	s3,76(sp)
   1691e:	c4d2                	sw	s4,72(sp)
   16920:	892a                	mv	s2,a0
   16922:	01c5c303          	lbu	t1,28(a1)
   16926:	01d5c603          	lbu	a2,29(a1)
   1692a:	0185c683          	lbu	a3,24(a1)
   1692e:	0195c703          	lbu	a4,25(a1)
   16932:	01a5c803          	lbu	a6,26(a1)
   16936:	01b5c283          	lbu	t0,27(a1)
   1693a:	0145c883          	lbu	a7,20(a1)
   1693e:	0155c383          	lbu	t2,21(a1)
   16942:	0165c403          	lbu	s0,22(a1)
   16946:	0175c483          	lbu	s1,23(a1)
   1694a:	0105c503          	lbu	a0,16(a1)
   1694e:	0115c783          	lbu	a5,17(a1)
   16952:	0125ce03          	lbu	t3,18(a1)
   16956:	0135ce83          	lbu	t4,19(a1)
   1695a:	0622                	slli	a2,a2,0x8
   1695c:	0722                	slli	a4,a4,0x8
   1695e:	00666333          	or	t1,a2,t1
   16962:	00d76f33          	or	t5,a4,a3
   16966:	00c5cf83          	lbu	t6,12(a1)
   1696a:	00d5c683          	lbu	a3,13(a1)
   1696e:	00e5c703          	lbu	a4,14(a1)
   16972:	00f5c603          	lbu	a2,15(a1)
   16976:	0842                	slli	a6,a6,0x10
   16978:	02e2                	slli	t0,t0,0x18
   1697a:	03a2                	slli	t2,t2,0x8
   1697c:	0442                	slli	s0,s0,0x10
   1697e:	04e2                	slli	s1,s1,0x18
   16980:	07a2                	slli	a5,a5,0x8
   16982:	0102e2b3          	or	t0,t0,a6
   16986:	0113e833          	or	a6,t2,a7
   1698a:	0084e8b3          	or	a7,s1,s0
   1698e:	00a7e3b3          	or	t2,a5,a0
   16992:	0085c503          	lbu	a0,8(a1)
   16996:	0095c783          	lbu	a5,9(a1)
   1699a:	00a5c403          	lbu	s0,10(a1)
   1699e:	00b5c483          	lbu	s1,11(a1)
   169a2:	0e42                	slli	t3,t3,0x10
   169a4:	0ee2                	slli	t4,t4,0x18
   169a6:	06a2                	slli	a3,a3,0x8
   169a8:	0742                	slli	a4,a4,0x10
   169aa:	0662                	slli	a2,a2,0x18
   169ac:	07a2                	slli	a5,a5,0x8
   169ae:	01ceee33          	or	t3,t4,t3
   169b2:	01f6eeb3          	or	t4,a3,t6
   169b6:	00e669b3          	or	s3,a2,a4
   169ba:	00a7efb3          	or	t6,a5,a0
   169be:	0045c703          	lbu	a4,4(a1)
   169c2:	0055c783          	lbu	a5,5(a1)
   169c6:	0065c683          	lbu	a3,6(a1)
   169ca:	0075c503          	lbu	a0,7(a1)
   169ce:	0442                	slli	s0,s0,0x10
   169d0:	04e2                	slli	s1,s1,0x18
   169d2:	07a2                	slli	a5,a5,0x8
   169d4:	06c2                	slli	a3,a3,0x10
   169d6:	0562                	slli	a0,a0,0x18
   169d8:	8c45                	or	s0,s0,s1
   169da:	00e7ea33          	or	s4,a5,a4
   169de:	0005c783          	lbu	a5,0(a1)
   169e2:	0015c483          	lbu	s1,1(a1)
   169e6:	8d55                	or	a0,a0,a3
   169e8:	0025c683          	lbu	a3,2(a1)
   169ec:	0035c583          	lbu	a1,3(a1)
   169f0:	04a2                	slli	s1,s1,0x8
   169f2:	8fc5                	or	a5,a5,s1
   169f4:	06c2                	slli	a3,a3,0x10
   169f6:	05e2                	slli	a1,a1,0x18
   169f8:	8dd5                	or	a1,a1,a3
   169fa:	01e2e6b3          	or	a3,t0,t5
   169fe:	0108e4b3          	or	s1,a7,a6
   16a02:	007e6633          	or	a2,t3,t2
   16a06:	01d9e733          	or	a4,s3,t4
   16a0a:	01f46433          	or	s0,s0,t6
   16a0e:	01456533          	or	a0,a0,s4
   16a12:	8ddd                	or	a1,a1,a5
   16a14:	cc32                	sw	a2,24(sp)
   16a16:	ce26                	sw	s1,28(sp)
   16a18:	d036                	sw	a3,32(sp)
   16a1a:	02611223          	sh	t1,36(sp)
   16a1e:	c42e                	sw	a1,8(sp)
   16a20:	c62a                	sw	a0,12(sp)
   16a22:	c822                	sw	s0,16(sp)
   16a24:	ca3a                	sw	a4,20(sp)
   16a26:	02710513          	addi	a0,sp,39
   16a2a:	02100613          	li	a2,33
   16a2e:	4581                	li	a1,0
   16a30:	00005097          	auipc	ra,0x5
   16a34:	fee080e7          	jalr	-18(ra) # 1ba1e <memset>
   16a38:	6509                	lui	a0,0x2
   16a3a:	4599                	li	a1,6
   16a3c:	0030                	addi	a2,sp,8
   16a3e:	46f9                	li	a3,30
   16a40:	9b550793          	addi	a5,a0,-1611 # 19b5 <.Lline_table_start1+0x178a>
   16a44:	4711                	li	a4,4
   16a46:	4489                	li	s1,2
   16a48:	853e                	mv	a0,a5
   16a4a:	00000073          	ecall
   16a4e:	02950b63          	beq	a0,s1,16a84 <_ZN18complex_no_dynamic3app17hba1e40fdd2d5fad8E+0x172>
   16a52:	45a5                	li	a1,9
   16a54:	02710613          	addi	a2,sp,39
   16a58:	02100693          	li	a3,33
   16a5c:	470d                	li	a4,3
   16a5e:	853e                	mv	a0,a5
   16a60:	00000073          	ecall
   16a64:	02950063          	beq	a0,s1,16a84 <_ZN18complex_no_dynamic3app17hba1e40fdd2d5fad8E+0x172>
   16a68:	6509                	lui	a0,0x2
   16a6a:	4599                	li	a1,6
   16a6c:	4625                	li	a2,9
   16a6e:	9b550493          	addi	s1,a0,-1611 # 19b5 <.Lline_table_start1+0x178a>
   16a72:	4709                	li	a4,2
   16a74:	07f00413          	li	s0,127
   16a78:	8526                	mv	a0,s1
   16a7a:	4681                	li	a3,0
   16a7c:	00000073          	ecall
   16a80:	02a46d63          	bltu	s0,a0,16aba <_ZN18complex_no_dynamic3app17hba1e40fdd2d5fad8E+0x1a8>
   16a84:	853e                	mv	a0,a5
   16a86:	4601                	li	a2,0
   16a88:	4681                	li	a3,0
   16a8a:	4705                	li	a4,1
   16a8c:	00e90023          	sb	a4,0(s2)
   16a90:	00b92223          	sw	a1,4(s2)
   16a94:	45a5                	li	a1,9
   16a96:	470d                	li	a4,3
   16a98:	00000073          	ecall
   16a9c:	4599                	li	a1,6
   16a9e:	4711                	li	a4,4
   16aa0:	853e                	mv	a0,a5
   16aa2:	4601                	li	a2,0
   16aa4:	4681                	li	a3,0
   16aa6:	00000073          	ecall
   16aaa:	40f6                	lw	ra,92(sp)
   16aac:	4466                	lw	s0,88(sp)
   16aae:	44d6                	lw	s1,84(sp)
   16ab0:	4946                	lw	s2,80(sp)
   16ab2:	49b6                	lw	s3,76(sp)
   16ab4:	4a26                	lw	s4,72(sp)
   16ab6:	6125                	addi	sp,sp,96
   16ab8:	8082                	ret
   16aba:	8526                	mv	a0,s1
   16abc:	4601                	li	a2,0
   16abe:	4681                	li	a3,0
   16ac0:	45a5                	li	a1,9
   16ac2:	470d                	li	a4,3
   16ac4:	00000073          	ecall
   16ac8:	45a5                	li	a1,9
   16aca:	470d                	li	a4,3
   16acc:	8526                	mv	a0,s1
   16ace:	4601                	li	a2,0
   16ad0:	4681                	li	a3,0
   16ad2:	00000073          	ecall
   16ad6:	00190513          	addi	a0,s2,1
   16ada:	02710593          	addi	a1,sp,39
   16ade:	02100613          	li	a2,33
   16ae2:	00005097          	auipc	ra,0x5
   16ae6:	fa8080e7          	jalr	-88(ra) # 1ba8a <memcpy>
   16aea:	8526                	mv	a0,s1
   16aec:	4601                	li	a2,0
   16aee:	4681                	li	a3,0
   16af0:	00090023          	sb	zero,0(s2)
   16af4:	45a5                	li	a1,9
   16af6:	470d                	li	a4,3
   16af8:	00000073          	ecall
   16afc:	4599                	li	a1,6
   16afe:	4711                	li	a4,4
   16b00:	8526                	mv	a0,s1
   16b02:	4601                	li	a2,0
   16b04:	4681                	li	a3,0
   16b06:	00000073          	ecall
   16b0a:	b745                	j	16aaa <_ZN18complex_no_dynamic3app17hba1e40fdd2d5fad8E+0x198>

00016b0c <_ZN18complex_no_dynamic3app17hbcc79c2a7155a487E>:
   16b0c:	7159                	addi	sp,sp,-112
   16b0e:	d686                	sw	ra,108(sp)
   16b10:	d4a2                	sw	s0,104(sp)
   16b12:	d2a6                	sw	s1,100(sp)
   16b14:	d0ca                	sw	s2,96(sp)
   16b16:	892a                	mv	s2,a0
   16b18:	0185c883          	lbu	a7,24(a1)
   16b1c:	0195c303          	lbu	t1,25(a1)
   16b20:	01a5c803          	lbu	a6,26(a1)
   16b24:	0145c283          	lbu	t0,20(a1)
   16b28:	0155cf03          	lbu	t5,21(a1)
   16b2c:	0165c403          	lbu	s0,22(a1)
   16b30:	0175c483          	lbu	s1,23(a1)
   16b34:	0105c703          	lbu	a4,16(a1)
   16b38:	0115c603          	lbu	a2,17(a1)
   16b3c:	0125ce03          	lbu	t3,18(a1)
   16b40:	0135ce83          	lbu	t4,19(a1)
   16b44:	00c5c383          	lbu	t2,12(a1)
   16b48:	00d5cf83          	lbu	t6,13(a1)
   16b4c:	00e5c683          	lbu	a3,14(a1)
   16b50:	00f5c783          	lbu	a5,15(a1)
   16b54:	0322                	slli	t1,t1,0x8
   16b56:	0f22                	slli	t5,t5,0x8
   16b58:	0442                	slli	s0,s0,0x10
   16b5a:	04e2                	slli	s1,s1,0x18
   16b5c:	00861513          	slli	a0,a2,0x8
   16b60:	011368b3          	or	a7,t1,a7
   16b64:	005f62b3          	or	t0,t5,t0
   16b68:	0084ef33          	or	t5,s1,s0
   16b6c:	00e56333          	or	t1,a0,a4
   16b70:	0085c703          	lbu	a4,8(a1)
   16b74:	0095c403          	lbu	s0,9(a1)
   16b78:	00a5c603          	lbu	a2,10(a1)
   16b7c:	00b5c503          	lbu	a0,11(a1)
   16b80:	0e42                	slli	t3,t3,0x10
   16b82:	0ee2                	slli	t4,t4,0x18
   16b84:	0fa2                	slli	t6,t6,0x8
   16b86:	06c2                	slli	a3,a3,0x10
   16b88:	07e2                	slli	a5,a5,0x18
   16b8a:	0422                	slli	s0,s0,0x8
   16b8c:	01ceee33          	or	t3,t4,t3
   16b90:	007fe3b3          	or	t2,t6,t2
   16b94:	00d7eeb3          	or	t4,a5,a3
   16b98:	00e46fb3          	or	t6,s0,a4
   16b9c:	0045c783          	lbu	a5,4(a1)
   16ba0:	0055c403          	lbu	s0,5(a1)
   16ba4:	0065c483          	lbu	s1,6(a1)
   16ba8:	0075c683          	lbu	a3,7(a1)
   16bac:	0642                	slli	a2,a2,0x10
   16bae:	0562                	slli	a0,a0,0x18
   16bb0:	0422                	slli	s0,s0,0x8
   16bb2:	04c2                	slli	s1,s1,0x10
   16bb4:	06e2                	slli	a3,a3,0x18
   16bb6:	8d51                	or	a0,a0,a2
   16bb8:	8fc1                	or	a5,a5,s0
   16bba:	0005c603          	lbu	a2,0(a1)
   16bbe:	0015c403          	lbu	s0,1(a1)
   16bc2:	8ec5                	or	a3,a3,s1
   16bc4:	0025c483          	lbu	s1,2(a1)
   16bc8:	0035c583          	lbu	a1,3(a1)
   16bcc:	0422                	slli	s0,s0,0x8
   16bce:	8e41                	or	a2,a2,s0
   16bd0:	04c2                	slli	s1,s1,0x10
   16bd2:	05e2                	slli	a1,a1,0x18
   16bd4:	8dc5                	or	a1,a1,s1
   16bd6:	005f64b3          	or	s1,t5,t0
   16bda:	006e6433          	or	s0,t3,t1
   16bde:	007ee733          	or	a4,t4,t2
   16be2:	01f56533          	or	a0,a0,t6
   16be6:	8edd                	or	a3,a3,a5
   16be8:	8dd1                	or	a1,a1,a2
   16bea:	ca22                	sw	s0,20(sp)
   16bec:	cc26                	sw	s1,24(sp)
   16bee:	01111e23          	sh	a7,28(sp)
   16bf2:	01010f23          	sb	a6,30(sp)
   16bf6:	c22e                	sw	a1,4(sp)
   16bf8:	c436                	sw	a3,8(sp)
   16bfa:	c62a                	sw	a0,12(sp)
   16bfc:	c83a                	sw	a4,16(sp)
   16bfe:	01f10513          	addi	a0,sp,31
   16c02:	04100613          	li	a2,65
   16c06:	4581                	li	a1,0
   16c08:	00005097          	auipc	ra,0x5
   16c0c:	e16080e7          	jalr	-490(ra) # 1ba1e <memset>
   16c10:	14000513          	li	a0,320
   16c14:	45a1                	li	a1,8
   16c16:	0050                	addi	a2,sp,4
   16c18:	46ed                	li	a3,27
   16c1a:	4711                	li	a4,4
   16c1c:	4789                	li	a5,2
   16c1e:	00000073          	ecall
   16c22:	02f50a63          	beq	a0,a5,16c56 <_ZN18complex_no_dynamic3app17hbcc79c2a7155a487E+0x14a>
   16c26:	14000513          	li	a0,320
   16c2a:	45a5                	li	a1,9
   16c2c:	01f10613          	addi	a2,sp,31
   16c30:	04100693          	li	a3,65
   16c34:	470d                	li	a4,3
   16c36:	00000073          	ecall
   16c3a:	00f50e63          	beq	a0,a5,16c56 <_ZN18complex_no_dynamic3app17hbcc79c2a7155a487E+0x14a>
   16c3e:	14000513          	li	a0,320
   16c42:	45a1                	li	a1,8
   16c44:	4625                	li	a2,9
   16c46:	4709                	li	a4,2
   16c48:	07f00793          	li	a5,127
   16c4c:	4681                	li	a3,0
   16c4e:	00000073          	ecall
   16c52:	02a7ed63          	bltu	a5,a0,16c8c <_ZN18complex_no_dynamic3app17hbcc79c2a7155a487E+0x180>
   16c56:	4601                	li	a2,0
   16c58:	4681                	li	a3,0
   16c5a:	4705                	li	a4,1
   16c5c:	14000513          	li	a0,320
   16c60:	00e90023          	sb	a4,0(s2)
   16c64:	00b92223          	sw	a1,4(s2)
   16c68:	45a5                	li	a1,9
   16c6a:	470d                	li	a4,3
   16c6c:	00000073          	ecall
   16c70:	14000513          	li	a0,320
   16c74:	45a1                	li	a1,8
   16c76:	4711                	li	a4,4
   16c78:	4601                	li	a2,0
   16c7a:	4681                	li	a3,0
   16c7c:	00000073          	ecall
   16c80:	50b6                	lw	ra,108(sp)
   16c82:	5426                	lw	s0,104(sp)
   16c84:	5496                	lw	s1,100(sp)
   16c86:	5906                	lw	s2,96(sp)
   16c88:	6165                	addi	sp,sp,112
   16c8a:	8082                	ret
   16c8c:	4601                	li	a2,0
   16c8e:	4681                	li	a3,0
   16c90:	14000513          	li	a0,320
   16c94:	45a5                	li	a1,9
   16c96:	470d                	li	a4,3
   16c98:	00000073          	ecall
   16c9c:	14000513          	li	a0,320
   16ca0:	45a5                	li	a1,9
   16ca2:	470d                	li	a4,3
   16ca4:	4601                	li	a2,0
   16ca6:	4681                	li	a3,0
   16ca8:	00000073          	ecall
   16cac:	00190513          	addi	a0,s2,1
   16cb0:	01f10593          	addi	a1,sp,31
   16cb4:	04100613          	li	a2,65
   16cb8:	00005097          	auipc	ra,0x5
   16cbc:	dd2080e7          	jalr	-558(ra) # 1ba8a <memcpy>
   16cc0:	4601                	li	a2,0
   16cc2:	4681                	li	a3,0
   16cc4:	00090023          	sb	zero,0(s2)
   16cc8:	14000513          	li	a0,320
   16ccc:	45a5                	li	a1,9
   16cce:	470d                	li	a4,3
   16cd0:	00000073          	ecall
   16cd4:	14000513          	li	a0,320
   16cd8:	45a1                	li	a1,8
   16cda:	4711                	li	a4,4
   16cdc:	4601                	li	a2,0
   16cde:	4681                	li	a3,0
   16ce0:	00000073          	ecall
   16ce4:	bf71                	j	16c80 <_ZN18complex_no_dynamic3app17hbcc79c2a7155a487E+0x174>

00016ce6 <_ZN18complex_no_dynamic3app17hc116035fb968a4bdE>:
   16ce6:	7139                	addi	sp,sp,-64
   16ce8:	de06                	sw	ra,60(sp)
   16cea:	dc22                	sw	s0,56(sp)
   16cec:	da26                	sw	s1,52(sp)
   16cee:	d84a                	sw	s2,48(sp)
   16cf0:	892a                	mv	s2,a0
   16cf2:	00c5c503          	lbu	a0,12(a1)
   16cf6:	00d5c603          	lbu	a2,13(a1)
   16cfa:	00e5c683          	lbu	a3,14(a1)
   16cfe:	0085c703          	lbu	a4,8(a1)
   16d02:	0095c783          	lbu	a5,9(a1)
   16d06:	00a5c483          	lbu	s1,10(a1)
   16d0a:	00b5c403          	lbu	s0,11(a1)
   16d0e:	00d10d23          	sb	a3,26(sp)
   16d12:	0622                	slli	a2,a2,0x8
   16d14:	07a2                	slli	a5,a5,0x8
   16d16:	00a66833          	or	a6,a2,a0
   16d1a:	8f5d                	or	a4,a4,a5
   16d1c:	0045c603          	lbu	a2,4(a1)
   16d20:	0055c683          	lbu	a3,5(a1)
   16d24:	0065c783          	lbu	a5,6(a1)
   16d28:	0075c503          	lbu	a0,7(a1)
   16d2c:	04c2                	slli	s1,s1,0x10
   16d2e:	0462                	slli	s0,s0,0x18
   16d30:	06a2                	slli	a3,a3,0x8
   16d32:	07c2                	slli	a5,a5,0x10
   16d34:	0562                	slli	a0,a0,0x18
   16d36:	8c45                	or	s0,s0,s1
   16d38:	8ed1                	or	a3,a3,a2
   16d3a:	8d5d                	or	a0,a0,a5
   16d3c:	0005c603          	lbu	a2,0(a1)
   16d40:	0015c783          	lbu	a5,1(a1)
   16d44:	0025c483          	lbu	s1,2(a1)
   16d48:	0035c583          	lbu	a1,3(a1)
   16d4c:	02011623          	sh	zero,44(sp)
   16d50:	02010723          	sb	zero,46(sp)
   16d54:	ce02                	sw	zero,28(sp)
   16d56:	d002                	sw	zero,32(sp)
   16d58:	d202                	sw	zero,36(sp)
   16d5a:	d402                	sw	zero,40(sp)
   16d5c:	07a2                	slli	a5,a5,0x8
   16d5e:	8fd1                	or	a5,a5,a2
   16d60:	6889                	lui	a7,0x2
   16d62:	04c2                	slli	s1,s1,0x10
   16d64:	05e2                	slli	a1,a1,0x18
   16d66:	8ccd                	or	s1,s1,a1
   16d68:	458d                	li	a1,3
   16d6a:	8c59                	or	s0,s0,a4
   16d6c:	0070                	addi	a2,sp,12
   16d6e:	8d55                	or	a0,a0,a3
   16d70:	46bd                	li	a3,15
   16d72:	8cdd                	or	s1,s1,a5
   16d74:	4711                	li	a4,4
   16d76:	e4b88793          	addi	a5,a7,-437 # 1e4b <.Lline_table_start1+0x1c20>
   16d7a:	c626                	sw	s1,12(sp)
   16d7c:	c82a                	sw	a0,16(sp)
   16d7e:	ca22                	sw	s0,20(sp)
   16d80:	01011c23          	sh	a6,24(sp)
   16d84:	4489                	li	s1,2
   16d86:	853e                	mv	a0,a5
   16d88:	00000073          	ecall
   16d8c:	02950963          	beq	a0,s1,16dbe <_ZN18complex_no_dynamic3app17hc116035fb968a4bdE+0xd8>
   16d90:	0870                	addi	a2,sp,28
   16d92:	46cd                	li	a3,19
   16d94:	470d                	li	a4,3
   16d96:	853e                	mv	a0,a5
   16d98:	4581                	li	a1,0
   16d9a:	00000073          	ecall
   16d9e:	02950063          	beq	a0,s1,16dbe <_ZN18complex_no_dynamic3app17hc116035fb968a4bdE+0xd8>
   16da2:	6509                	lui	a0,0x2
   16da4:	458d                	li	a1,3
   16da6:	e4b50493          	addi	s1,a0,-437 # 1e4b <.Lline_table_start1+0x1c20>
   16daa:	4709                	li	a4,2
   16dac:	07f00413          	li	s0,127
   16db0:	8526                	mv	a0,s1
   16db2:	4601                	li	a2,0
   16db4:	4681                	li	a3,0
   16db6:	00000073          	ecall
   16dba:	02a46c63          	bltu	s0,a0,16df2 <_ZN18complex_no_dynamic3app17hc116035fb968a4bdE+0x10c>
   16dbe:	872e                	mv	a4,a1
   16dc0:	853e                	mv	a0,a5
   16dc2:	4581                	li	a1,0
   16dc4:	4601                	li	a2,0
   16dc6:	4681                	li	a3,0
   16dc8:	4485                	li	s1,1
   16dca:	00990023          	sb	s1,0(s2)
   16dce:	00e92223          	sw	a4,4(s2)
   16dd2:	470d                	li	a4,3
   16dd4:	00000073          	ecall
   16dd8:	458d                	li	a1,3
   16dda:	4711                	li	a4,4
   16ddc:	853e                	mv	a0,a5
   16dde:	4601                	li	a2,0
   16de0:	4681                	li	a3,0
   16de2:	00000073          	ecall
   16de6:	50f2                	lw	ra,60(sp)
   16de8:	5462                	lw	s0,56(sp)
   16dea:	54d2                	lw	s1,52(sp)
   16dec:	5942                	lw	s2,48(sp)
   16dee:	6121                	addi	sp,sp,64
   16df0:	8082                	ret
   16df2:	470d                	li	a4,3
   16df4:	8526                	mv	a0,s1
   16df6:	4581                	li	a1,0
   16df8:	4601                	li	a2,0
   16dfa:	4681                	li	a3,0
   16dfc:	00000073          	ecall
   16e00:	470d                	li	a4,3
   16e02:	8526                	mv	a0,s1
   16e04:	4581                	li	a1,0
   16e06:	4601                	li	a2,0
   16e08:	4681                	li	a3,0
   16e0a:	00000073          	ecall
   16e0e:	00190513          	addi	a0,s2,1
   16e12:	086c                	addi	a1,sp,28
   16e14:	464d                	li	a2,19
   16e16:	00005097          	auipc	ra,0x5
   16e1a:	c74080e7          	jalr	-908(ra) # 1ba8a <memcpy>
   16e1e:	8526                	mv	a0,s1
   16e20:	4581                	li	a1,0
   16e22:	4601                	li	a2,0
   16e24:	4681                	li	a3,0
   16e26:	00090023          	sb	zero,0(s2)
   16e2a:	470d                	li	a4,3
   16e2c:	00000073          	ecall
   16e30:	458d                	li	a1,3
   16e32:	4711                	li	a4,4
   16e34:	8526                	mv	a0,s1
   16e36:	4601                	li	a2,0
   16e38:	4681                	li	a3,0
   16e3a:	00000073          	ecall
   16e3e:	b765                	j	16de6 <_ZN18complex_no_dynamic3app17hc116035fb968a4bdE+0x100>

00016e40 <_ZN18complex_no_dynamic3app17hc3ddd38a8a1ec537E>:
   16e40:	7175                	addi	sp,sp,-144
   16e42:	c706                	sw	ra,140(sp)
   16e44:	c522                	sw	s0,136(sp)
   16e46:	c326                	sw	s1,132(sp)
   16e48:	842a                	mv	s0,a0
   16e4a:	00e10513          	addi	a0,sp,14
   16e4e:	02700613          	li	a2,39
   16e52:	00005097          	auipc	ra,0x5
   16e56:	c38080e7          	jalr	-968(ra) # 1ba8a <memcpy>
   16e5a:	03510513          	addi	a0,sp,53
   16e5e:	04f00613          	li	a2,79
   16e62:	4581                	li	a1,0
   16e64:	00005097          	auipc	ra,0x5
   16e68:	bba080e7          	jalr	-1094(ra) # 1ba1e <memset>
   16e6c:	6505                	lui	a0,0x1
   16e6e:	45a5                	li	a1,9
   16e70:	00e10613          	addi	a2,sp,14
   16e74:	02700693          	li	a3,39
   16e78:	b4c50793          	addi	a5,a0,-1204 # b4c <.Lline_table_start1+0x921>
   16e7c:	4711                	li	a4,4
   16e7e:	4489                	li	s1,2
   16e80:	853e                	mv	a0,a5
   16e82:	00000073          	ecall
   16e86:	02950b63          	beq	a0,s1,16ebc <_ZN18complex_no_dynamic3app17hc3ddd38a8a1ec537E+0x7c>
   16e8a:	03510613          	addi	a2,sp,53
   16e8e:	04f00693          	li	a3,79
   16e92:	470d                	li	a4,3
   16e94:	853e                	mv	a0,a5
   16e96:	4581                	li	a1,0
   16e98:	00000073          	ecall
   16e9c:	02950063          	beq	a0,s1,16ebc <_ZN18complex_no_dynamic3app17hc3ddd38a8a1ec537E+0x7c>
   16ea0:	6505                	lui	a0,0x1
   16ea2:	45a5                	li	a1,9
   16ea4:	b4c50493          	addi	s1,a0,-1204 # b4c <.Lline_table_start1+0x921>
   16ea8:	4709                	li	a4,2
   16eaa:	07f00813          	li	a6,127
   16eae:	8526                	mv	a0,s1
   16eb0:	4601                	li	a2,0
   16eb2:	4681                	li	a3,0
   16eb4:	00000073          	ecall
   16eb8:	02a86a63          	bltu	a6,a0,16eec <_ZN18complex_no_dynamic3app17hc3ddd38a8a1ec537E+0xac>
   16ebc:	872e                	mv	a4,a1
   16ebe:	853e                	mv	a0,a5
   16ec0:	4581                	li	a1,0
   16ec2:	4601                	li	a2,0
   16ec4:	4681                	li	a3,0
   16ec6:	4485                	li	s1,1
   16ec8:	00940023          	sb	s1,0(s0)
   16ecc:	c058                	sw	a4,4(s0)
   16ece:	470d                	li	a4,3
   16ed0:	00000073          	ecall
   16ed4:	45a5                	li	a1,9
   16ed6:	4711                	li	a4,4
   16ed8:	853e                	mv	a0,a5
   16eda:	4601                	li	a2,0
   16edc:	4681                	li	a3,0
   16ede:	00000073          	ecall
   16ee2:	40ba                	lw	ra,140(sp)
   16ee4:	442a                	lw	s0,136(sp)
   16ee6:	449a                	lw	s1,132(sp)
   16ee8:	6149                	addi	sp,sp,144
   16eea:	8082                	ret
   16eec:	470d                	li	a4,3
   16eee:	8526                	mv	a0,s1
   16ef0:	4581                	li	a1,0
   16ef2:	4601                	li	a2,0
   16ef4:	4681                	li	a3,0
   16ef6:	00000073          	ecall
   16efa:	470d                	li	a4,3
   16efc:	8526                	mv	a0,s1
   16efe:	4581                	li	a1,0
   16f00:	4601                	li	a2,0
   16f02:	4681                	li	a3,0
   16f04:	00000073          	ecall
   16f08:	00140513          	addi	a0,s0,1
   16f0c:	03510593          	addi	a1,sp,53
   16f10:	04f00613          	li	a2,79
   16f14:	00005097          	auipc	ra,0x5
   16f18:	b76080e7          	jalr	-1162(ra) # 1ba8a <memcpy>
   16f1c:	8526                	mv	a0,s1
   16f1e:	4581                	li	a1,0
   16f20:	4601                	li	a2,0
   16f22:	4681                	li	a3,0
   16f24:	00040023          	sb	zero,0(s0)
   16f28:	470d                	li	a4,3
   16f2a:	00000073          	ecall
   16f2e:	45a5                	li	a1,9
   16f30:	4711                	li	a4,4
   16f32:	8526                	mv	a0,s1
   16f34:	4601                	li	a2,0
   16f36:	4681                	li	a3,0
   16f38:	00000073          	ecall
   16f3c:	b75d                	j	16ee2 <_ZN18complex_no_dynamic3app17hc3ddd38a8a1ec537E+0xa2>

00016f3e <_ZN18complex_no_dynamic3app17hc8d9e537d5eb6b2bE>:
   16f3e:	7159                	addi	sp,sp,-112
   16f40:	d686                	sw	ra,108(sp)
   16f42:	d4a2                	sw	s0,104(sp)
   16f44:	d2a6                	sw	s1,100(sp)
   16f46:	d0ca                	sw	s2,96(sp)
   16f48:	892a                	mv	s2,a0
   16f4a:	00c5c503          	lbu	a0,12(a1)
   16f4e:	00d5c603          	lbu	a2,13(a1)
   16f52:	00e5c683          	lbu	a3,14(a1)
   16f56:	0085c703          	lbu	a4,8(a1)
   16f5a:	0095c783          	lbu	a5,9(a1)
   16f5e:	00a5c483          	lbu	s1,10(a1)
   16f62:	00b5c403          	lbu	s0,11(a1)
   16f66:	00d10b23          	sb	a3,22(sp)
   16f6a:	0622                	slli	a2,a2,0x8
   16f6c:	07a2                	slli	a5,a5,0x8
   16f6e:	00a66833          	or	a6,a2,a0
   16f72:	8f5d                	or	a4,a4,a5
   16f74:	0045c603          	lbu	a2,4(a1)
   16f78:	0055c683          	lbu	a3,5(a1)
   16f7c:	0065c783          	lbu	a5,6(a1)
   16f80:	0075c503          	lbu	a0,7(a1)
   16f84:	04c2                	slli	s1,s1,0x10
   16f86:	0462                	slli	s0,s0,0x18
   16f88:	06a2                	slli	a3,a3,0x8
   16f8a:	07c2                	slli	a5,a5,0x10
   16f8c:	0562                	slli	a0,a0,0x18
   16f8e:	8c45                	or	s0,s0,s1
   16f90:	8e55                	or	a2,a2,a3
   16f92:	0005c683          	lbu	a3,0(a1)
   16f96:	0015c483          	lbu	s1,1(a1)
   16f9a:	8d5d                	or	a0,a0,a5
   16f9c:	0025c783          	lbu	a5,2(a1)
   16fa0:	0035c583          	lbu	a1,3(a1)
   16fa4:	04a2                	slli	s1,s1,0x8
   16fa6:	8ec5                	or	a3,a3,s1
   16fa8:	07c2                	slli	a5,a5,0x10
   16faa:	05e2                	slli	a1,a1,0x18
   16fac:	8ddd                	or	a1,a1,a5
   16fae:	8f41                	or	a4,a4,s0
   16fb0:	8d51                	or	a0,a0,a2
   16fb2:	8dd5                	or	a1,a1,a3
   16fb4:	c42e                	sw	a1,8(sp)
   16fb6:	c62a                	sw	a0,12(sp)
   16fb8:	c83a                	sw	a4,16(sp)
   16fba:	01011a23          	sh	a6,20(sp)
   16fbe:	01a10513          	addi	a0,sp,26
   16fc2:	04600613          	li	a2,70
   16fc6:	4581                	li	a1,0
   16fc8:	00005097          	auipc	ra,0x5
   16fcc:	a56080e7          	jalr	-1450(ra) # 1ba1e <memset>
   16fd0:	6509                	lui	a0,0x2
   16fd2:	45a5                	li	a1,9
   16fd4:	0030                	addi	a2,sp,8
   16fd6:	46bd                	li	a3,15
   16fd8:	d7e50793          	addi	a5,a0,-642 # 1d7e <.Lline_table_start1+0x1b53>
   16fdc:	4711                	li	a4,4
   16fde:	4489                	li	s1,2
   16fe0:	853e                	mv	a0,a5
   16fe2:	00000073          	ecall
   16fe6:	02950b63          	beq	a0,s1,1701c <_ZN18complex_no_dynamic3app17hc8d9e537d5eb6b2bE+0xde>
   16fea:	4589                	li	a1,2
   16fec:	01a10613          	addi	a2,sp,26
   16ff0:	04600693          	li	a3,70
   16ff4:	470d                	li	a4,3
   16ff6:	853e                	mv	a0,a5
   16ff8:	00000073          	ecall
   16ffc:	02950063          	beq	a0,s1,1701c <_ZN18complex_no_dynamic3app17hc8d9e537d5eb6b2bE+0xde>
   17000:	6509                	lui	a0,0x2
   17002:	45a5                	li	a1,9
   17004:	4609                	li	a2,2
   17006:	d7e50493          	addi	s1,a0,-642 # 1d7e <.Lline_table_start1+0x1b53>
   1700a:	4709                	li	a4,2
   1700c:	07f00413          	li	s0,127
   17010:	8526                	mv	a0,s1
   17012:	4681                	li	a3,0
   17014:	00000073          	ecall
   17018:	02a46b63          	bltu	s0,a0,1704e <_ZN18complex_no_dynamic3app17hc8d9e537d5eb6b2bE+0x110>
   1701c:	853e                	mv	a0,a5
   1701e:	4601                	li	a2,0
   17020:	4681                	li	a3,0
   17022:	4705                	li	a4,1
   17024:	00e90023          	sb	a4,0(s2)
   17028:	00b92223          	sw	a1,4(s2)
   1702c:	4589                	li	a1,2
   1702e:	470d                	li	a4,3
   17030:	00000073          	ecall
   17034:	45a5                	li	a1,9
   17036:	4711                	li	a4,4
   17038:	853e                	mv	a0,a5
   1703a:	4601                	li	a2,0
   1703c:	4681                	li	a3,0
   1703e:	00000073          	ecall
   17042:	50b6                	lw	ra,108(sp)
   17044:	5426                	lw	s0,104(sp)
   17046:	5496                	lw	s1,100(sp)
   17048:	5906                	lw	s2,96(sp)
   1704a:	6165                	addi	sp,sp,112
   1704c:	8082                	ret
   1704e:	8526                	mv	a0,s1
   17050:	4601                	li	a2,0
   17052:	4681                	li	a3,0
   17054:	4589                	li	a1,2
   17056:	470d                	li	a4,3
   17058:	00000073          	ecall
   1705c:	4589                	li	a1,2
   1705e:	470d                	li	a4,3
   17060:	8526                	mv	a0,s1
   17062:	4601                	li	a2,0
   17064:	4681                	li	a3,0
   17066:	00000073          	ecall
   1706a:	00190513          	addi	a0,s2,1
   1706e:	01a10593          	addi	a1,sp,26
   17072:	04600613          	li	a2,70
   17076:	00005097          	auipc	ra,0x5
   1707a:	a14080e7          	jalr	-1516(ra) # 1ba8a <memcpy>
   1707e:	8526                	mv	a0,s1
   17080:	4601                	li	a2,0
   17082:	4681                	li	a3,0
   17084:	00090023          	sb	zero,0(s2)
   17088:	4589                	li	a1,2
   1708a:	470d                	li	a4,3
   1708c:	00000073          	ecall
   17090:	45a5                	li	a1,9
   17092:	4711                	li	a4,4
   17094:	8526                	mv	a0,s1
   17096:	4601                	li	a2,0
   17098:	4681                	li	a3,0
   1709a:	00000073          	ecall
   1709e:	b755                	j	17042 <_ZN18complex_no_dynamic3app17hc8d9e537d5eb6b2bE+0x104>

000170a0 <_ZN18complex_no_dynamic3app17hd44103a2fd9ae347E>:
   170a0:	7119                	addi	sp,sp,-128
   170a2:	de86                	sw	ra,124(sp)
   170a4:	dca2                	sw	s0,120(sp)
   170a6:	842a                	mv	s0,a0
   170a8:	0068                	addi	a0,sp,12
   170aa:	05000613          	li	a2,80
   170ae:	00005097          	auipc	ra,0x5
   170b2:	9dc080e7          	jalr	-1572(ra) # 1ba8a <memcpy>
   170b6:	d682                	sw	zero,108(sp)
   170b8:	d882                	sw	zero,112(sp)
   170ba:	06011a23          	sh	zero,116(sp)
   170be:	06010b23          	sb	zero,118(sp)
   170c2:	ce82                	sw	zero,92(sp)
   170c4:	d082                	sw	zero,96(sp)
   170c6:	d282                	sw	zero,100(sp)
   170c8:	d482                	sw	zero,104(sp)
   170ca:	3d900513          	li	a0,985
   170ce:	4585                	li	a1,1
   170d0:	0070                	addi	a2,sp,12
   170d2:	05000693          	li	a3,80
   170d6:	4711                	li	a4,4
   170d8:	4789                	li	a5,2
   170da:	00000073          	ecall
   170de:	4805                	li	a6,1
   170e0:	02f50863          	beq	a0,a5,17110 <_ZN18complex_no_dynamic3app17hd44103a2fd9ae347E+0x70>
   170e4:	3d900513          	li	a0,985
   170e8:	4589                	li	a1,2
   170ea:	08f0                	addi	a2,sp,92
   170ec:	46ed                	li	a3,27
   170ee:	470d                	li	a4,3
   170f0:	00000073          	ecall
   170f4:	00f50e63          	beq	a0,a5,17110 <_ZN18complex_no_dynamic3app17hd44103a2fd9ae347E+0x70>
   170f8:	3d900513          	li	a0,985
   170fc:	4585                	li	a1,1
   170fe:	4609                	li	a2,2
   17100:	4709                	li	a4,2
   17102:	07f00793          	li	a5,127
   17106:	4681                	li	a3,0
   17108:	00000073          	ecall
   1710c:	02a7e963          	bltu	a5,a0,1713e <_ZN18complex_no_dynamic3app17hd44103a2fd9ae347E+0x9e>
   17110:	4601                	li	a2,0
   17112:	4681                	li	a3,0
   17114:	01040023          	sb	a6,0(s0)
   17118:	c04c                	sw	a1,4(s0)
   1711a:	3d900513          	li	a0,985
   1711e:	4589                	li	a1,2
   17120:	470d                	li	a4,3
   17122:	00000073          	ecall
   17126:	3d900513          	li	a0,985
   1712a:	4585                	li	a1,1
   1712c:	4711                	li	a4,4
   1712e:	4601                	li	a2,0
   17130:	4681                	li	a3,0
   17132:	00000073          	ecall
   17136:	50f6                	lw	ra,124(sp)
   17138:	5466                	lw	s0,120(sp)
   1713a:	6109                	addi	sp,sp,128
   1713c:	8082                	ret
   1713e:	4601                	li	a2,0
   17140:	4681                	li	a3,0
   17142:	3d900513          	li	a0,985
   17146:	4589                	li	a1,2
   17148:	470d                	li	a4,3
   1714a:	00000073          	ecall
   1714e:	3d900513          	li	a0,985
   17152:	4589                	li	a1,2
   17154:	470d                	li	a4,3
   17156:	4601                	li	a2,0
   17158:	4681                	li	a3,0
   1715a:	00000073          	ecall
   1715e:	00140513          	addi	a0,s0,1
   17162:	08ec                	addi	a1,sp,92
   17164:	466d                	li	a2,27
   17166:	00005097          	auipc	ra,0x5
   1716a:	924080e7          	jalr	-1756(ra) # 1ba8a <memcpy>
   1716e:	4601                	li	a2,0
   17170:	4681                	li	a3,0
   17172:	00040023          	sb	zero,0(s0)
   17176:	3d900513          	li	a0,985
   1717a:	4589                	li	a1,2
   1717c:	470d                	li	a4,3
   1717e:	00000073          	ecall
   17182:	3d900513          	li	a0,985
   17186:	4585                	li	a1,1
   17188:	4711                	li	a4,4
   1718a:	4601                	li	a2,0
   1718c:	4681                	li	a3,0
   1718e:	00000073          	ecall
   17192:	b755                	j	17136 <_ZN18complex_no_dynamic3app17hd44103a2fd9ae347E+0x96>

00017194 <_ZN18complex_no_dynamic3app17hd5b397ebcc830295E>:
   17194:	7135                	addi	sp,sp,-160
   17196:	cf06                	sw	ra,156(sp)
   17198:	cd22                	sw	s0,152(sp)
   1719a:	cb26                	sw	s1,148(sp)
   1719c:	842a                	mv	s0,a0
   1719e:	0028                	addi	a0,sp,8
   171a0:	05000613          	li	a2,80
   171a4:	00005097          	auipc	ra,0x5
   171a8:	8e6080e7          	jalr	-1818(ra) # 1ba8a <memcpy>
   171ac:	08a8                	addi	a0,sp,88
   171ae:	03c00613          	li	a2,60
   171b2:	4581                	li	a1,0
   171b4:	00005097          	auipc	ra,0x5
   171b8:	86a080e7          	jalr	-1942(ra) # 1ba1e <memset>
   171bc:	6505                	lui	a0,0x1
   171be:	458d                	li	a1,3
   171c0:	0030                	addi	a2,sp,8
   171c2:	05000693          	li	a3,80
   171c6:	d7a50793          	addi	a5,a0,-646 # d7a <.Lline_table_start1+0xb4f>
   171ca:	4711                	li	a4,4
   171cc:	4489                	li	s1,2
   171ce:	853e                	mv	a0,a5
   171d0:	00000073          	ecall
   171d4:	02950a63          	beq	a0,s1,17208 <_ZN18complex_no_dynamic3app17hd5b397ebcc830295E+0x74>
   171d8:	45a5                	li	a1,9
   171da:	08b0                	addi	a2,sp,88
   171dc:	03c00693          	li	a3,60
   171e0:	470d                	li	a4,3
   171e2:	853e                	mv	a0,a5
   171e4:	00000073          	ecall
   171e8:	02950063          	beq	a0,s1,17208 <_ZN18complex_no_dynamic3app17hd5b397ebcc830295E+0x74>
   171ec:	6505                	lui	a0,0x1
   171ee:	458d                	li	a1,3
   171f0:	4625                	li	a2,9
   171f2:	d7a50493          	addi	s1,a0,-646 # d7a <.Lline_table_start1+0xb4f>
   171f6:	4709                	li	a4,2
   171f8:	07f00813          	li	a6,127
   171fc:	8526                	mv	a0,s1
   171fe:	4681                	li	a3,0
   17200:	00000073          	ecall
   17204:	02a86963          	bltu	a6,a0,17236 <_ZN18complex_no_dynamic3app17hd5b397ebcc830295E+0xa2>
   17208:	853e                	mv	a0,a5
   1720a:	4601                	li	a2,0
   1720c:	4681                	li	a3,0
   1720e:	4705                	li	a4,1
   17210:	00e40023          	sb	a4,0(s0)
   17214:	c04c                	sw	a1,4(s0)
   17216:	45a5                	li	a1,9
   17218:	470d                	li	a4,3
   1721a:	00000073          	ecall
   1721e:	458d                	li	a1,3
   17220:	4711                	li	a4,4
   17222:	853e                	mv	a0,a5
   17224:	4601                	li	a2,0
   17226:	4681                	li	a3,0
   17228:	00000073          	ecall
   1722c:	40fa                	lw	ra,156(sp)
   1722e:	446a                	lw	s0,152(sp)
   17230:	44da                	lw	s1,148(sp)
   17232:	610d                	addi	sp,sp,160
   17234:	8082                	ret
   17236:	8526                	mv	a0,s1
   17238:	4601                	li	a2,0
   1723a:	4681                	li	a3,0
   1723c:	45a5                	li	a1,9
   1723e:	470d                	li	a4,3
   17240:	00000073          	ecall
   17244:	45a5                	li	a1,9
   17246:	470d                	li	a4,3
   17248:	8526                	mv	a0,s1
   1724a:	4601                	li	a2,0
   1724c:	4681                	li	a3,0
   1724e:	00000073          	ecall
   17252:	00140513          	addi	a0,s0,1
   17256:	08ac                	addi	a1,sp,88
   17258:	03c00613          	li	a2,60
   1725c:	00005097          	auipc	ra,0x5
   17260:	82e080e7          	jalr	-2002(ra) # 1ba8a <memcpy>
   17264:	8526                	mv	a0,s1
   17266:	4601                	li	a2,0
   17268:	4681                	li	a3,0
   1726a:	00040023          	sb	zero,0(s0)
   1726e:	45a5                	li	a1,9
   17270:	470d                	li	a4,3
   17272:	00000073          	ecall
   17276:	458d                	li	a1,3
   17278:	4711                	li	a4,4
   1727a:	8526                	mv	a0,s1
   1727c:	4601                	li	a2,0
   1727e:	4681                	li	a3,0
   17280:	00000073          	ecall
   17284:	b765                	j	1722c <_ZN18complex_no_dynamic3app17hd5b397ebcc830295E+0x98>

00017286 <_ZN18complex_no_dynamic3app17hdcc562058c07e7e9E>:
   17286:	7175                	addi	sp,sp,-144
   17288:	c706                	sw	ra,140(sp)
   1728a:	c522                	sw	s0,136(sp)
   1728c:	c326                	sw	s1,132(sp)
   1728e:	842a                	mv	s0,a0
   17290:	00d10513          	addi	a0,sp,13
   17294:	04a00613          	li	a2,74
   17298:	00004097          	auipc	ra,0x4
   1729c:	7f2080e7          	jalr	2034(ra) # 1ba8a <memcpy>
   172a0:	05710513          	addi	a0,sp,87
   172a4:	02d00613          	li	a2,45
   172a8:	4581                	li	a1,0
   172aa:	00004097          	auipc	ra,0x4
   172ae:	774080e7          	jalr	1908(ra) # 1ba1e <memset>
   172b2:	6505                	lui	a0,0x1
   172b4:	4489                	li	s1,2
   172b6:	4589                	li	a1,2
   172b8:	00d10613          	addi	a2,sp,13
   172bc:	e3d50793          	addi	a5,a0,-451 # e3d <.Lline_table_start1+0xc12>
   172c0:	04a00693          	li	a3,74
   172c4:	4711                	li	a4,4
   172c6:	853e                	mv	a0,a5
   172c8:	00000073          	ecall
   172cc:	02950b63          	beq	a0,s1,17302 <_ZN18complex_no_dynamic3app17hdcc562058c07e7e9E+0x7c>
   172d0:	458d                	li	a1,3
   172d2:	05710613          	addi	a2,sp,87
   172d6:	02d00693          	li	a3,45
   172da:	470d                	li	a4,3
   172dc:	853e                	mv	a0,a5
   172de:	00000073          	ecall
   172e2:	02950063          	beq	a0,s1,17302 <_ZN18complex_no_dynamic3app17hdcc562058c07e7e9E+0x7c>
   172e6:	6505                	lui	a0,0x1
   172e8:	4589                	li	a1,2
   172ea:	460d                	li	a2,3
   172ec:	e3d50493          	addi	s1,a0,-451 # e3d <.Lline_table_start1+0xc12>
   172f0:	4709                	li	a4,2
   172f2:	07f00813          	li	a6,127
   172f6:	8526                	mv	a0,s1
   172f8:	4681                	li	a3,0
   172fa:	00000073          	ecall
   172fe:	02a86963          	bltu	a6,a0,17330 <_ZN18complex_no_dynamic3app17hdcc562058c07e7e9E+0xaa>
   17302:	853e                	mv	a0,a5
   17304:	4601                	li	a2,0
   17306:	4681                	li	a3,0
   17308:	4705                	li	a4,1
   1730a:	00e40023          	sb	a4,0(s0)
   1730e:	c04c                	sw	a1,4(s0)
   17310:	458d                	li	a1,3
   17312:	470d                	li	a4,3
   17314:	00000073          	ecall
   17318:	4589                	li	a1,2
   1731a:	4711                	li	a4,4
   1731c:	853e                	mv	a0,a5
   1731e:	4601                	li	a2,0
   17320:	4681                	li	a3,0
   17322:	00000073          	ecall
   17326:	40ba                	lw	ra,140(sp)
   17328:	442a                	lw	s0,136(sp)
   1732a:	449a                	lw	s1,132(sp)
   1732c:	6149                	addi	sp,sp,144
   1732e:	8082                	ret
   17330:	8526                	mv	a0,s1
   17332:	4601                	li	a2,0
   17334:	4681                	li	a3,0
   17336:	458d                	li	a1,3
   17338:	470d                	li	a4,3
   1733a:	00000073          	ecall
   1733e:	458d                	li	a1,3
   17340:	470d                	li	a4,3
   17342:	8526                	mv	a0,s1
   17344:	4601                	li	a2,0
   17346:	4681                	li	a3,0
   17348:	00000073          	ecall
   1734c:	00140513          	addi	a0,s0,1
   17350:	05710593          	addi	a1,sp,87
   17354:	02d00613          	li	a2,45
   17358:	00004097          	auipc	ra,0x4
   1735c:	732080e7          	jalr	1842(ra) # 1ba8a <memcpy>
   17360:	8526                	mv	a0,s1
   17362:	4601                	li	a2,0
   17364:	4681                	li	a3,0
   17366:	00040023          	sb	zero,0(s0)
   1736a:	458d                	li	a1,3
   1736c:	470d                	li	a4,3
   1736e:	00000073          	ecall
   17372:	4589                	li	a1,2
   17374:	4711                	li	a4,4
   17376:	8526                	mv	a0,s1
   17378:	4601                	li	a2,0
   1737a:	4681                	li	a3,0
   1737c:	00000073          	ecall
   17380:	b75d                	j	17326 <_ZN18complex_no_dynamic3app17hdcc562058c07e7e9E+0xa0>

00017382 <_ZN18complex_no_dynamic3app17hde1fe44821129af0E>:
   17382:	7159                	addi	sp,sp,-112
   17384:	d686                	sw	ra,108(sp)
   17386:	d4a2                	sw	s0,104(sp)
   17388:	d2a6                	sw	s1,100(sp)
   1738a:	842a                	mv	s0,a0
   1738c:	00e10513          	addi	a0,sp,14
   17390:	02c00613          	li	a2,44
   17394:	00004097          	auipc	ra,0x4
   17398:	6f6080e7          	jalr	1782(ra) # 1ba8a <memcpy>
   1739c:	03a10513          	addi	a0,sp,58
   173a0:	02a00613          	li	a2,42
   173a4:	4581                	li	a1,0
   173a6:	00004097          	auipc	ra,0x4
   173aa:	678080e7          	jalr	1656(ra) # 1ba1e <memset>
   173ae:	6509                	lui	a0,0x2
   173b0:	458d                	li	a1,3
   173b2:	00e10613          	addi	a2,sp,14
   173b6:	02c00693          	li	a3,44
   173ba:	4f050793          	addi	a5,a0,1264 # 24f0 <.Lline_table_start1+0x22c5>
   173be:	4711                	li	a4,4
   173c0:	4489                	li	s1,2
   173c2:	853e                	mv	a0,a5
   173c4:	00000073          	ecall
   173c8:	02950b63          	beq	a0,s1,173fe <_ZN18complex_no_dynamic3app17hde1fe44821129af0E+0x7c>
   173cc:	03a10613          	addi	a2,sp,58
   173d0:	02a00693          	li	a3,42
   173d4:	470d                	li	a4,3
   173d6:	853e                	mv	a0,a5
   173d8:	4581                	li	a1,0
   173da:	00000073          	ecall
   173de:	02950063          	beq	a0,s1,173fe <_ZN18complex_no_dynamic3app17hde1fe44821129af0E+0x7c>
   173e2:	6509                	lui	a0,0x2
   173e4:	458d                	li	a1,3
   173e6:	4f050493          	addi	s1,a0,1264 # 24f0 <.Lline_table_start1+0x22c5>
   173ea:	4709                	li	a4,2
   173ec:	07f00813          	li	a6,127
   173f0:	8526                	mv	a0,s1
   173f2:	4601                	li	a2,0
   173f4:	4681                	li	a3,0
   173f6:	00000073          	ecall
   173fa:	02a86a63          	bltu	a6,a0,1742e <_ZN18complex_no_dynamic3app17hde1fe44821129af0E+0xac>
   173fe:	872e                	mv	a4,a1
   17400:	853e                	mv	a0,a5
   17402:	4581                	li	a1,0
   17404:	4601                	li	a2,0
   17406:	4681                	li	a3,0
   17408:	4485                	li	s1,1
   1740a:	00940023          	sb	s1,0(s0)
   1740e:	c058                	sw	a4,4(s0)
   17410:	470d                	li	a4,3
   17412:	00000073          	ecall
   17416:	458d                	li	a1,3
   17418:	4711                	li	a4,4
   1741a:	853e                	mv	a0,a5
   1741c:	4601                	li	a2,0
   1741e:	4681                	li	a3,0
   17420:	00000073          	ecall
   17424:	50b6                	lw	ra,108(sp)
   17426:	5426                	lw	s0,104(sp)
   17428:	5496                	lw	s1,100(sp)
   1742a:	6165                	addi	sp,sp,112
   1742c:	8082                	ret
   1742e:	470d                	li	a4,3
   17430:	8526                	mv	a0,s1
   17432:	4581                	li	a1,0
   17434:	4601                	li	a2,0
   17436:	4681                	li	a3,0
   17438:	00000073          	ecall
   1743c:	470d                	li	a4,3
   1743e:	8526                	mv	a0,s1
   17440:	4581                	li	a1,0
   17442:	4601                	li	a2,0
   17444:	4681                	li	a3,0
   17446:	00000073          	ecall
   1744a:	00140513          	addi	a0,s0,1
   1744e:	03a10593          	addi	a1,sp,58
   17452:	02a00613          	li	a2,42
   17456:	00004097          	auipc	ra,0x4
   1745a:	634080e7          	jalr	1588(ra) # 1ba8a <memcpy>
   1745e:	8526                	mv	a0,s1
   17460:	4581                	li	a1,0
   17462:	4601                	li	a2,0
   17464:	4681                	li	a3,0
   17466:	00040023          	sb	zero,0(s0)
   1746a:	470d                	li	a4,3
   1746c:	00000073          	ecall
   17470:	458d                	li	a1,3
   17472:	4711                	li	a4,4
   17474:	8526                	mv	a0,s1
   17476:	4601                	li	a2,0
   17478:	4681                	li	a3,0
   1747a:	00000073          	ecall
   1747e:	b75d                	j	17424 <_ZN18complex_no_dynamic3app17hde1fe44821129af0E+0xa2>

00017480 <_ZN18complex_no_dynamic3app17he4953ae91dfe7f56E>:
   17480:	711d                	addi	sp,sp,-96
   17482:	ce86                	sw	ra,92(sp)
   17484:	cca2                	sw	s0,88(sp)
   17486:	caa6                	sw	s1,84(sp)
   17488:	c8ca                	sw	s2,80(sp)
   1748a:	892a                	mv	s2,a0
   1748c:	00c5c803          	lbu	a6,12(a1)
   17490:	00d5c603          	lbu	a2,13(a1)
   17494:	00e5c683          	lbu	a3,14(a1)
   17498:	00f5c703          	lbu	a4,15(a1)
   1749c:	0085c783          	lbu	a5,8(a1)
   174a0:	0095c483          	lbu	s1,9(a1)
   174a4:	00a5c403          	lbu	s0,10(a1)
   174a8:	00b5c503          	lbu	a0,11(a1)
   174ac:	0622                	slli	a2,a2,0x8
   174ae:	06c2                	slli	a3,a3,0x10
   174b0:	0762                	slli	a4,a4,0x18
   174b2:	04a2                	slli	s1,s1,0x8
   174b4:	01066833          	or	a6,a2,a6
   174b8:	00d768b3          	or	a7,a4,a3
   174bc:	8fc5                	or	a5,a5,s1
   174be:	0045c703          	lbu	a4,4(a1)
   174c2:	0055c483          	lbu	s1,5(a1)
   174c6:	0065c603          	lbu	a2,6(a1)
   174ca:	0075c683          	lbu	a3,7(a1)
   174ce:	0442                	slli	s0,s0,0x10
   174d0:	0562                	slli	a0,a0,0x18
   174d2:	04a2                	slli	s1,s1,0x8
   174d4:	0642                	slli	a2,a2,0x10
   174d6:	06e2                	slli	a3,a3,0x18
   174d8:	8d41                	or	a0,a0,s0
   174da:	8f45                	or	a4,a4,s1
   174dc:	0005c483          	lbu	s1,0(a1)
   174e0:	0015c403          	lbu	s0,1(a1)
   174e4:	8e55                	or	a2,a2,a3
   174e6:	0025c683          	lbu	a3,2(a1)
   174ea:	0035c583          	lbu	a1,3(a1)
   174ee:	0422                	slli	s0,s0,0x8
   174f0:	8c45                	or	s0,s0,s1
   174f2:	06c2                	slli	a3,a3,0x10
   174f4:	05e2                	slli	a1,a1,0x18
   174f6:	8dd5                	or	a1,a1,a3
   174f8:	0108e6b3          	or	a3,a7,a6
   174fc:	8d5d                	or	a0,a0,a5
   174fe:	8e59                	or	a2,a2,a4
   17500:	8dc1                	or	a1,a1,s0
   17502:	c42e                	sw	a1,8(sp)
   17504:	c632                	sw	a2,12(sp)
   17506:	c82a                	sw	a0,16(sp)
   17508:	ca36                	sw	a3,20(sp)
   1750a:	01a10513          	addi	a0,sp,26
   1750e:	03600613          	li	a2,54
   17512:	4581                	li	a1,0
   17514:	00004097          	auipc	ra,0x4
   17518:	50a080e7          	jalr	1290(ra) # 1ba1e <memset>
   1751c:	6509                	lui	a0,0x2
   1751e:	4585                	li	a1,1
   17520:	0030                	addi	a2,sp,8
   17522:	46c1                	li	a3,16
   17524:	4711                	li	a4,4
   17526:	98950793          	addi	a5,a0,-1655 # 1989 <.Lline_table_start1+0x175e>
   1752a:	4489                	li	s1,2
   1752c:	853e                	mv	a0,a5
   1752e:	00000073          	ecall
   17532:	4805                	li	a6,1
   17534:	02950b63          	beq	a0,s1,1756a <_ZN18complex_no_dynamic3app17he4953ae91dfe7f56E+0xea>
   17538:	459d                	li	a1,7
   1753a:	01a10613          	addi	a2,sp,26
   1753e:	03600693          	li	a3,54
   17542:	470d                	li	a4,3
   17544:	853e                	mv	a0,a5
   17546:	00000073          	ecall
   1754a:	02950063          	beq	a0,s1,1756a <_ZN18complex_no_dynamic3app17he4953ae91dfe7f56E+0xea>
   1754e:	6509                	lui	a0,0x2
   17550:	4585                	li	a1,1
   17552:	461d                	li	a2,7
   17554:	98950493          	addi	s1,a0,-1655 # 1989 <.Lline_table_start1+0x175e>
   17558:	4709                	li	a4,2
   1755a:	07f00413          	li	s0,127
   1755e:	8526                	mv	a0,s1
   17560:	4681                	li	a3,0
   17562:	00000073          	ecall
   17566:	02a46a63          	bltu	s0,a0,1759a <_ZN18complex_no_dynamic3app17he4953ae91dfe7f56E+0x11a>
   1756a:	853e                	mv	a0,a5
   1756c:	4601                	li	a2,0
   1756e:	4681                	li	a3,0
   17570:	01090023          	sb	a6,0(s2)
   17574:	00b92223          	sw	a1,4(s2)
   17578:	459d                	li	a1,7
   1757a:	470d                	li	a4,3
   1757c:	00000073          	ecall
   17580:	4585                	li	a1,1
   17582:	4711                	li	a4,4
   17584:	853e                	mv	a0,a5
   17586:	4601                	li	a2,0
   17588:	4681                	li	a3,0
   1758a:	00000073          	ecall
   1758e:	40f6                	lw	ra,92(sp)
   17590:	4466                	lw	s0,88(sp)
   17592:	44d6                	lw	s1,84(sp)
   17594:	4946                	lw	s2,80(sp)
   17596:	6125                	addi	sp,sp,96
   17598:	8082                	ret
   1759a:	8526                	mv	a0,s1
   1759c:	4601                	li	a2,0
   1759e:	4681                	li	a3,0
   175a0:	459d                	li	a1,7
   175a2:	470d                	li	a4,3
   175a4:	00000073          	ecall
   175a8:	459d                	li	a1,7
   175aa:	470d                	li	a4,3
   175ac:	8526                	mv	a0,s1
   175ae:	4601                	li	a2,0
   175b0:	4681                	li	a3,0
   175b2:	00000073          	ecall
   175b6:	00190513          	addi	a0,s2,1
   175ba:	01a10593          	addi	a1,sp,26
   175be:	03600613          	li	a2,54
   175c2:	00004097          	auipc	ra,0x4
   175c6:	4c8080e7          	jalr	1224(ra) # 1ba8a <memcpy>
   175ca:	8526                	mv	a0,s1
   175cc:	4601                	li	a2,0
   175ce:	4681                	li	a3,0
   175d0:	00090023          	sb	zero,0(s2)
   175d4:	459d                	li	a1,7
   175d6:	470d                	li	a4,3
   175d8:	00000073          	ecall
   175dc:	4585                	li	a1,1
   175de:	4711                	li	a4,4
   175e0:	8526                	mv	a0,s1
   175e2:	4601                	li	a2,0
   175e4:	4681                	li	a3,0
   175e6:	00000073          	ecall
   175ea:	b755                	j	1758e <_ZN18complex_no_dynamic3app17he4953ae91dfe7f56E+0x10e>

000175ec <_ZN18complex_no_dynamic3app17he6dff84c552d72b6E>:
   175ec:	7135                	addi	sp,sp,-160
   175ee:	cf06                	sw	ra,156(sp)
   175f0:	cd22                	sw	s0,152(sp)
   175f2:	cb26                	sw	s1,148(sp)
   175f4:	842a                	mv	s0,a0
   175f6:	00710513          	addi	a0,sp,7
   175fa:	02a00613          	li	a2,42
   175fe:	00004097          	auipc	ra,0x4
   17602:	48c080e7          	jalr	1164(ra) # 1ba8a <memcpy>
   17606:	03110513          	addi	a0,sp,49
   1760a:	06300613          	li	a2,99
   1760e:	4581                	li	a1,0
   17610:	00004097          	auipc	ra,0x4
   17614:	40e080e7          	jalr	1038(ra) # 1ba1e <memset>
   17618:	6509                	lui	a0,0x2
   1761a:	4591                	li	a1,4
   1761c:	00710613          	addi	a2,sp,7
   17620:	02a00693          	li	a3,42
   17624:	c7c50793          	addi	a5,a0,-900 # 1c7c <.Lline_table_start1+0x1a51>
   17628:	4711                	li	a4,4
   1762a:	4489                	li	s1,2
   1762c:	853e                	mv	a0,a5
   1762e:	00000073          	ecall
   17632:	02950b63          	beq	a0,s1,17668 <_ZN18complex_no_dynamic3app17he6dff84c552d72b6E+0x7c>
   17636:	03110613          	addi	a2,sp,49
   1763a:	06300693          	li	a3,99
   1763e:	470d                	li	a4,3
   17640:	853e                	mv	a0,a5
   17642:	4581                	li	a1,0
   17644:	00000073          	ecall
   17648:	02950063          	beq	a0,s1,17668 <_ZN18complex_no_dynamic3app17he6dff84c552d72b6E+0x7c>
   1764c:	6509                	lui	a0,0x2
   1764e:	4591                	li	a1,4
   17650:	c7c50493          	addi	s1,a0,-900 # 1c7c <.Lline_table_start1+0x1a51>
   17654:	4709                	li	a4,2
   17656:	07f00813          	li	a6,127
   1765a:	8526                	mv	a0,s1
   1765c:	4601                	li	a2,0
   1765e:	4681                	li	a3,0
   17660:	00000073          	ecall
   17664:	02a86a63          	bltu	a6,a0,17698 <_ZN18complex_no_dynamic3app17he6dff84c552d72b6E+0xac>
   17668:	872e                	mv	a4,a1
   1766a:	853e                	mv	a0,a5
   1766c:	4581                	li	a1,0
   1766e:	4601                	li	a2,0
   17670:	4681                	li	a3,0
   17672:	4485                	li	s1,1
   17674:	00940023          	sb	s1,0(s0)
   17678:	c058                	sw	a4,4(s0)
   1767a:	470d                	li	a4,3
   1767c:	00000073          	ecall
   17680:	4591                	li	a1,4
   17682:	4711                	li	a4,4
   17684:	853e                	mv	a0,a5
   17686:	4601                	li	a2,0
   17688:	4681                	li	a3,0
   1768a:	00000073          	ecall
   1768e:	40fa                	lw	ra,156(sp)
   17690:	446a                	lw	s0,152(sp)
   17692:	44da                	lw	s1,148(sp)
   17694:	610d                	addi	sp,sp,160
   17696:	8082                	ret
   17698:	470d                	li	a4,3
   1769a:	8526                	mv	a0,s1
   1769c:	4581                	li	a1,0
   1769e:	4601                	li	a2,0
   176a0:	4681                	li	a3,0
   176a2:	00000073          	ecall
   176a6:	470d                	li	a4,3
   176a8:	8526                	mv	a0,s1
   176aa:	4581                	li	a1,0
   176ac:	4601                	li	a2,0
   176ae:	4681                	li	a3,0
   176b0:	00000073          	ecall
   176b4:	00140513          	addi	a0,s0,1
   176b8:	03110593          	addi	a1,sp,49
   176bc:	06300613          	li	a2,99
   176c0:	00004097          	auipc	ra,0x4
   176c4:	3ca080e7          	jalr	970(ra) # 1ba8a <memcpy>
   176c8:	8526                	mv	a0,s1
   176ca:	4581                	li	a1,0
   176cc:	4601                	li	a2,0
   176ce:	4681                	li	a3,0
   176d0:	00040023          	sb	zero,0(s0)
   176d4:	470d                	li	a4,3
   176d6:	00000073          	ecall
   176da:	4591                	li	a1,4
   176dc:	4711                	li	a4,4
   176de:	8526                	mv	a0,s1
   176e0:	4601                	li	a2,0
   176e2:	4681                	li	a3,0
   176e4:	00000073          	ecall
   176e8:	b75d                	j	1768e <_ZN18complex_no_dynamic3app17he6dff84c552d72b6E+0xa2>

000176ea <_ZN18complex_no_dynamic3app17headd322ac10840a8E>:
   176ea:	7139                	addi	sp,sp,-64
   176ec:	de06                	sw	ra,60(sp)
   176ee:	dc22                	sw	s0,56(sp)
   176f0:	da26                	sw	s1,52(sp)
   176f2:	d84a                	sw	s2,48(sp)
   176f4:	892a                	mv	s2,a0
   176f6:	0085c803          	lbu	a6,8(a1)
   176fa:	0095c603          	lbu	a2,9(a1)
   176fe:	00a5c683          	lbu	a3,10(a1)
   17702:	00b5c703          	lbu	a4,11(a1)
   17706:	0045c783          	lbu	a5,4(a1)
   1770a:	0055c483          	lbu	s1,5(a1)
   1770e:	0065c403          	lbu	s0,6(a1)
   17712:	0075c503          	lbu	a0,7(a1)
   17716:	0622                	slli	a2,a2,0x8
   17718:	06c2                	slli	a3,a3,0x10
   1771a:	0762                	slli	a4,a4,0x18
   1771c:	04a2                	slli	s1,s1,0x8
   1771e:	0442                	slli	s0,s0,0x10
   17720:	0562                	slli	a0,a0,0x18
   17722:	01066833          	or	a6,a2,a6
   17726:	8ed9                	or	a3,a3,a4
   17728:	8fc5                	or	a5,a5,s1
   1772a:	0005c703          	lbu	a4,0(a1)
   1772e:	0015c483          	lbu	s1,1(a1)
   17732:	8d41                	or	a0,a0,s0
   17734:	0025c403          	lbu	s0,2(a1)
   17738:	0035c603          	lbu	a2,3(a1)
   1773c:	04a2                	slli	s1,s1,0x8
   1773e:	8f45                	or	a4,a4,s1
   17740:	0442                	slli	s0,s0,0x10
   17742:	0662                	slli	a2,a2,0x18
   17744:	8e41                	or	a2,a2,s0
   17746:	0106e6b3          	or	a3,a3,a6
   1774a:	8d5d                	or	a0,a0,a5
   1774c:	8e59                	or	a2,a2,a4
   1774e:	00c5c583          	lbu	a1,12(a1)
   17752:	c032                	sw	a2,0(sp)
   17754:	c22a                	sw	a0,4(sp)
   17756:	c436                	sw	a3,8(sp)
   17758:	00b10623          	sb	a1,12(sp)
   1775c:	00f10513          	addi	a0,sp,15
   17760:	02100613          	li	a2,33
   17764:	4581                	li	a1,0
   17766:	00004097          	auipc	ra,0x4
   1776a:	2b8080e7          	jalr	696(ra) # 1ba1e <memset>
   1776e:	6505                	lui	a0,0x1
   17770:	860a                	mv	a2,sp
   17772:	46b5                	li	a3,13
   17774:	6b050793          	addi	a5,a0,1712 # 16b0 <.Lline_table_start1+0x1485>
   17778:	4711                	li	a4,4
   1777a:	4489                	li	s1,2
   1777c:	853e                	mv	a0,a5
   1777e:	4581                	li	a1,0
   17780:	00000073          	ecall
   17784:	02950b63          	beq	a0,s1,177ba <_ZN18complex_no_dynamic3app17headd322ac10840a8E+0xd0>
   17788:	00f10613          	addi	a2,sp,15
   1778c:	02100693          	li	a3,33
   17790:	470d                	li	a4,3
   17792:	853e                	mv	a0,a5
   17794:	4581                	li	a1,0
   17796:	00000073          	ecall
   1779a:	02950063          	beq	a0,s1,177ba <_ZN18complex_no_dynamic3app17headd322ac10840a8E+0xd0>
   1779e:	6505                	lui	a0,0x1
   177a0:	6b050493          	addi	s1,a0,1712 # 16b0 <.Lline_table_start1+0x1485>
   177a4:	4709                	li	a4,2
   177a6:	07f00413          	li	s0,127
   177aa:	8526                	mv	a0,s1
   177ac:	4581                	li	a1,0
   177ae:	4601                	li	a2,0
   177b0:	4681                	li	a3,0
   177b2:	00000073          	ecall
   177b6:	02a46b63          	bltu	s0,a0,177ec <_ZN18complex_no_dynamic3app17headd322ac10840a8E+0x102>
   177ba:	4505                	li	a0,1
   177bc:	00a90023          	sb	a0,0(s2)
   177c0:	00b92223          	sw	a1,4(s2)
   177c4:	470d                	li	a4,3
   177c6:	853e                	mv	a0,a5
   177c8:	4581                	li	a1,0
   177ca:	4601                	li	a2,0
   177cc:	4681                	li	a3,0
   177ce:	00000073          	ecall
   177d2:	4711                	li	a4,4
   177d4:	853e                	mv	a0,a5
   177d6:	4581                	li	a1,0
   177d8:	4601                	li	a2,0
   177da:	4681                	li	a3,0
   177dc:	00000073          	ecall
   177e0:	50f2                	lw	ra,60(sp)
   177e2:	5462                	lw	s0,56(sp)
   177e4:	54d2                	lw	s1,52(sp)
   177e6:	5942                	lw	s2,48(sp)
   177e8:	6121                	addi	sp,sp,64
   177ea:	8082                	ret
   177ec:	470d                	li	a4,3
   177ee:	8526                	mv	a0,s1
   177f0:	4581                	li	a1,0
   177f2:	4601                	li	a2,0
   177f4:	4681                	li	a3,0
   177f6:	00000073          	ecall
   177fa:	470d                	li	a4,3
   177fc:	8526                	mv	a0,s1
   177fe:	4581                	li	a1,0
   17800:	4601                	li	a2,0
   17802:	4681                	li	a3,0
   17804:	00000073          	ecall
   17808:	00190513          	addi	a0,s2,1
   1780c:	00f10593          	addi	a1,sp,15
   17810:	02100613          	li	a2,33
   17814:	00004097          	auipc	ra,0x4
   17818:	276080e7          	jalr	630(ra) # 1ba8a <memcpy>
   1781c:	00090023          	sb	zero,0(s2)
   17820:	470d                	li	a4,3
   17822:	8526                	mv	a0,s1
   17824:	4581                	li	a1,0
   17826:	4601                	li	a2,0
   17828:	4681                	li	a3,0
   1782a:	00000073          	ecall
   1782e:	4711                	li	a4,4
   17830:	8526                	mv	a0,s1
   17832:	4581                	li	a1,0
   17834:	4601                	li	a2,0
   17836:	4681                	li	a3,0
   17838:	00000073          	ecall
   1783c:	b755                	j	177e0 <_ZN18complex_no_dynamic3app17headd322ac10840a8E+0xf6>

0001783e <_ZN18complex_no_dynamic3app17hf2b9fbd1e9bfc33eE>:
   1783e:	715d                	addi	sp,sp,-80
   17840:	c686                	sw	ra,76(sp)
   17842:	c4a2                	sw	s0,72(sp)
   17844:	c2a6                	sw	s1,68(sp)
   17846:	842a                	mv	s0,a0
   17848:	00910513          	addi	a0,sp,9
   1784c:	02700613          	li	a2,39
   17850:	00004097          	auipc	ra,0x4
   17854:	23a080e7          	jalr	570(ra) # 1ba8a <memcpy>
   17858:	c082                	sw	zero,64(sp)
   1785a:	d802                	sw	zero,48(sp)
   1785c:	da02                	sw	zero,52(sp)
   1785e:	dc02                	sw	zero,56(sp)
   17860:	de02                	sw	zero,60(sp)
   17862:	6509                	lui	a0,0x2
   17864:	4599                	li	a1,6
   17866:	00910613          	addi	a2,sp,9
   1786a:	02700693          	li	a3,39
   1786e:	2c950793          	addi	a5,a0,713 # 22c9 <.Lline_table_start1+0x209e>
   17872:	4711                	li	a4,4
   17874:	4489                	li	s1,2
   17876:	853e                	mv	a0,a5
   17878:	00000073          	ecall
   1787c:	02950963          	beq	a0,s1,178ae <_ZN18complex_no_dynamic3app17hf2b9fbd1e9bfc33eE+0x70>
   17880:	4595                	li	a1,5
   17882:	1810                	addi	a2,sp,48
   17884:	46d1                	li	a3,20
   17886:	470d                	li	a4,3
   17888:	853e                	mv	a0,a5
   1788a:	00000073          	ecall
   1788e:	02950063          	beq	a0,s1,178ae <_ZN18complex_no_dynamic3app17hf2b9fbd1e9bfc33eE+0x70>
   17892:	6509                	lui	a0,0x2
   17894:	4599                	li	a1,6
   17896:	4615                	li	a2,5
   17898:	2c950493          	addi	s1,a0,713 # 22c9 <.Lline_table_start1+0x209e>
   1789c:	4709                	li	a4,2
   1789e:	07f00813          	li	a6,127
   178a2:	8526                	mv	a0,s1
   178a4:	4681                	li	a3,0
   178a6:	00000073          	ecall
   178aa:	02a86963          	bltu	a6,a0,178dc <_ZN18complex_no_dynamic3app17hf2b9fbd1e9bfc33eE+0x9e>
   178ae:	853e                	mv	a0,a5
   178b0:	4601                	li	a2,0
   178b2:	4681                	li	a3,0
   178b4:	4705                	li	a4,1
   178b6:	00e40023          	sb	a4,0(s0)
   178ba:	c04c                	sw	a1,4(s0)
   178bc:	4595                	li	a1,5
   178be:	470d                	li	a4,3
   178c0:	00000073          	ecall
   178c4:	4599                	li	a1,6
   178c6:	4711                	li	a4,4
   178c8:	853e                	mv	a0,a5
   178ca:	4601                	li	a2,0
   178cc:	4681                	li	a3,0
   178ce:	00000073          	ecall
   178d2:	40b6                	lw	ra,76(sp)
   178d4:	4426                	lw	s0,72(sp)
   178d6:	4496                	lw	s1,68(sp)
   178d8:	6161                	addi	sp,sp,80
   178da:	8082                	ret
   178dc:	8526                	mv	a0,s1
   178de:	4601                	li	a2,0
   178e0:	4681                	li	a3,0
   178e2:	4595                	li	a1,5
   178e4:	470d                	li	a4,3
   178e6:	00000073          	ecall
   178ea:	4595                	li	a1,5
   178ec:	470d                	li	a4,3
   178ee:	8526                	mv	a0,s1
   178f0:	4601                	li	a2,0
   178f2:	4681                	li	a3,0
   178f4:	00000073          	ecall
   178f8:	00140513          	addi	a0,s0,1
   178fc:	180c                	addi	a1,sp,48
   178fe:	4651                	li	a2,20
   17900:	00004097          	auipc	ra,0x4
   17904:	18a080e7          	jalr	394(ra) # 1ba8a <memcpy>
   17908:	8526                	mv	a0,s1
   1790a:	4601                	li	a2,0
   1790c:	4681                	li	a3,0
   1790e:	00040023          	sb	zero,0(s0)
   17912:	4595                	li	a1,5
   17914:	470d                	li	a4,3
   17916:	00000073          	ecall
   1791a:	4599                	li	a1,6
   1791c:	4711                	li	a4,4
   1791e:	8526                	mv	a0,s1
   17920:	4601                	li	a2,0
   17922:	4681                	li	a3,0
   17924:	00000073          	ecall
   17928:	b76d                	j	178d2 <_ZN18complex_no_dynamic3app17hf2b9fbd1e9bfc33eE+0x94>

0001792a <_ZN18complex_no_dynamic3app17hf31f3318bc51f659E>:
   1792a:	7171                	addi	sp,sp,-176
   1792c:	d706                	sw	ra,172(sp)
   1792e:	d522                	sw	s0,168(sp)
   17930:	d326                	sw	s1,164(sp)
   17932:	842a                	mv	s0,a0
   17934:	00110513          	addi	a0,sp,1
   17938:	05900613          	li	a2,89
   1793c:	00004097          	auipc	ra,0x4
   17940:	14e080e7          	jalr	334(ra) # 1ba8a <memcpy>
   17944:	05a10513          	addi	a0,sp,90
   17948:	04a00613          	li	a2,74
   1794c:	4581                	li	a1,0
   1794e:	00004097          	auipc	ra,0x4
   17952:	0d0080e7          	jalr	208(ra) # 1ba1e <memset>
   17956:	6505                	lui	a0,0x1
   17958:	00110613          	addi	a2,sp,1
   1795c:	05900693          	li	a3,89
   17960:	48450793          	addi	a5,a0,1156 # 1484 <.Lline_table_start1+0x1259>
   17964:	4711                	li	a4,4
   17966:	4489                	li	s1,2
   17968:	853e                	mv	a0,a5
   1796a:	4581                	li	a1,0
   1796c:	00000073          	ecall
   17970:	02950b63          	beq	a0,s1,179a6 <_ZN18complex_no_dynamic3app17hf31f3318bc51f659E+0x7c>
   17974:	4591                	li	a1,4
   17976:	05a10613          	addi	a2,sp,90
   1797a:	04a00693          	li	a3,74
   1797e:	470d                	li	a4,3
   17980:	853e                	mv	a0,a5
   17982:	00000073          	ecall
   17986:	02950063          	beq	a0,s1,179a6 <_ZN18complex_no_dynamic3app17hf31f3318bc51f659E+0x7c>
   1798a:	6505                	lui	a0,0x1
   1798c:	4611                	li	a2,4
   1798e:	48450493          	addi	s1,a0,1156 # 1484 <.Lline_table_start1+0x1259>
   17992:	4709                	li	a4,2
   17994:	07f00813          	li	a6,127
   17998:	8526                	mv	a0,s1
   1799a:	4581                	li	a1,0
   1799c:	4681                	li	a3,0
   1799e:	00000073          	ecall
   179a2:	02a86a63          	bltu	a6,a0,179d6 <_ZN18complex_no_dynamic3app17hf31f3318bc51f659E+0xac>
   179a6:	862e                	mv	a2,a1
   179a8:	4505                	li	a0,1
   179aa:	4591                	li	a1,4
   179ac:	00a40023          	sb	a0,0(s0)
   179b0:	c050                	sw	a2,4(s0)
   179b2:	470d                	li	a4,3
   179b4:	853e                	mv	a0,a5
   179b6:	4601                	li	a2,0
   179b8:	4681                	li	a3,0
   179ba:	00000073          	ecall
   179be:	4711                	li	a4,4
   179c0:	853e                	mv	a0,a5
   179c2:	4581                	li	a1,0
   179c4:	4601                	li	a2,0
   179c6:	4681                	li	a3,0
   179c8:	00000073          	ecall
   179cc:	50ba                	lw	ra,172(sp)
   179ce:	542a                	lw	s0,168(sp)
   179d0:	549a                	lw	s1,164(sp)
   179d2:	614d                	addi	sp,sp,176
   179d4:	8082                	ret
   179d6:	8526                	mv	a0,s1
   179d8:	4601                	li	a2,0
   179da:	4681                	li	a3,0
   179dc:	4591                	li	a1,4
   179de:	470d                	li	a4,3
   179e0:	00000073          	ecall
   179e4:	4591                	li	a1,4
   179e6:	470d                	li	a4,3
   179e8:	8526                	mv	a0,s1
   179ea:	4601                	li	a2,0
   179ec:	4681                	li	a3,0
   179ee:	00000073          	ecall
   179f2:	00140513          	addi	a0,s0,1
   179f6:	05a10593          	addi	a1,sp,90
   179fa:	04a00613          	li	a2,74
   179fe:	00004097          	auipc	ra,0x4
   17a02:	08c080e7          	jalr	140(ra) # 1ba8a <memcpy>
   17a06:	00040023          	sb	zero,0(s0)
   17a0a:	4591                	li	a1,4
   17a0c:	470d                	li	a4,3
   17a0e:	8526                	mv	a0,s1
   17a10:	4601                	li	a2,0
   17a12:	4681                	li	a3,0
   17a14:	00000073          	ecall
   17a18:	4711                	li	a4,4
   17a1a:	8526                	mv	a0,s1
   17a1c:	4581                	li	a1,0
   17a1e:	4601                	li	a2,0
   17a20:	4681                	li	a3,0
   17a22:	00000073          	ecall
   17a26:	b75d                	j	179cc <_ZN18complex_no_dynamic3app17hf31f3318bc51f659E+0xa2>

00017a28 <_ZN18complex_no_dynamic3app17hfbc4e335a321c6d6E>:
   17a28:	711d                	addi	sp,sp,-96
   17a2a:	ce86                	sw	ra,92(sp)
   17a2c:	cca2                	sw	s0,88(sp)
   17a2e:	caa6                	sw	s1,84(sp)
   17a30:	842a                	mv	s0,a0
   17a32:	00210513          	addi	a0,sp,2
   17a36:	02a00613          	li	a2,42
   17a3a:	00004097          	auipc	ra,0x4
   17a3e:	050080e7          	jalr	80(ra) # 1ba8a <memcpy>
   17a42:	1068                	addi	a0,sp,44
   17a44:	02800613          	li	a2,40
   17a48:	4581                	li	a1,0
   17a4a:	00004097          	auipc	ra,0x4
   17a4e:	fd4080e7          	jalr	-44(ra) # 1ba1e <memset>
   17a52:	6509                	lui	a0,0x2
   17a54:	4591                	li	a1,4
   17a56:	00210613          	addi	a2,sp,2
   17a5a:	02a00693          	li	a3,42
   17a5e:	efa50793          	addi	a5,a0,-262 # 1efa <.Lline_table_start1+0x1ccf>
   17a62:	4711                	li	a4,4
   17a64:	4489                	li	s1,2
   17a66:	853e                	mv	a0,a5
   17a68:	00000073          	ecall
   17a6c:	02950a63          	beq	a0,s1,17aa0 <_ZN18complex_no_dynamic3app17hfbc4e335a321c6d6E+0x78>
   17a70:	45a1                	li	a1,8
   17a72:	1070                	addi	a2,sp,44
   17a74:	02800693          	li	a3,40
   17a78:	470d                	li	a4,3
   17a7a:	853e                	mv	a0,a5
   17a7c:	00000073          	ecall
   17a80:	02950063          	beq	a0,s1,17aa0 <_ZN18complex_no_dynamic3app17hfbc4e335a321c6d6E+0x78>
   17a84:	6509                	lui	a0,0x2
   17a86:	4591                	li	a1,4
   17a88:	4621                	li	a2,8
   17a8a:	efa50493          	addi	s1,a0,-262 # 1efa <.Lline_table_start1+0x1ccf>
   17a8e:	4709                	li	a4,2
   17a90:	07f00813          	li	a6,127
   17a94:	8526                	mv	a0,s1
   17a96:	4681                	li	a3,0
   17a98:	00000073          	ecall
   17a9c:	02a86963          	bltu	a6,a0,17ace <_ZN18complex_no_dynamic3app17hfbc4e335a321c6d6E+0xa6>
   17aa0:	853e                	mv	a0,a5
   17aa2:	4601                	li	a2,0
   17aa4:	4681                	li	a3,0
   17aa6:	4705                	li	a4,1
   17aa8:	00e40023          	sb	a4,0(s0)
   17aac:	c04c                	sw	a1,4(s0)
   17aae:	45a1                	li	a1,8
   17ab0:	470d                	li	a4,3
   17ab2:	00000073          	ecall
   17ab6:	4591                	li	a1,4
   17ab8:	4711                	li	a4,4
   17aba:	853e                	mv	a0,a5
   17abc:	4601                	li	a2,0
   17abe:	4681                	li	a3,0
   17ac0:	00000073          	ecall
   17ac4:	40f6                	lw	ra,92(sp)
   17ac6:	4466                	lw	s0,88(sp)
   17ac8:	44d6                	lw	s1,84(sp)
   17aca:	6125                	addi	sp,sp,96
   17acc:	8082                	ret
   17ace:	8526                	mv	a0,s1
   17ad0:	4601                	li	a2,0
   17ad2:	4681                	li	a3,0
   17ad4:	45a1                	li	a1,8
   17ad6:	470d                	li	a4,3
   17ad8:	00000073          	ecall
   17adc:	45a1                	li	a1,8
   17ade:	470d                	li	a4,3
   17ae0:	8526                	mv	a0,s1
   17ae2:	4601                	li	a2,0
   17ae4:	4681                	li	a3,0
   17ae6:	00000073          	ecall
   17aea:	00140513          	addi	a0,s0,1
   17aee:	106c                	addi	a1,sp,44
   17af0:	02800613          	li	a2,40
   17af4:	00004097          	auipc	ra,0x4
   17af8:	f96080e7          	jalr	-106(ra) # 1ba8a <memcpy>
   17afc:	8526                	mv	a0,s1
   17afe:	4601                	li	a2,0
   17b00:	4681                	li	a3,0
   17b02:	00040023          	sb	zero,0(s0)
   17b06:	45a1                	li	a1,8
   17b08:	470d                	li	a4,3
   17b0a:	00000073          	ecall
   17b0e:	4591                	li	a1,4
   17b10:	4711                	li	a4,4
   17b12:	8526                	mv	a0,s1
   17b14:	4601                	li	a2,0
   17b16:	4681                	li	a3,0
   17b18:	00000073          	ecall
   17b1c:	b765                	j	17ac4 <_ZN18complex_no_dynamic3app17hfbc4e335a321c6d6E+0x9c>

00017b1e <_start>:
   17b1e:	81010113          	addi	sp,sp,-2032
   17b22:	7e112623          	sw	ra,2028(sp)
   17b26:	7e812423          	sw	s0,2024(sp)
   17b2a:	7e912223          	sw	s1,2020(sp)
   17b2e:	7f212023          	sw	s2,2016(sp)
   17b32:	7d312e23          	sw	s3,2012(sp)
   17b36:	7d412c23          	sw	s4,2008(sp)
   17b3a:	7d512a23          	sw	s5,2004(sp)
   17b3e:	7d612823          	sw	s6,2000(sp)
   17b42:	7d712623          	sw	s7,1996(sp)
   17b46:	7d812423          	sw	s8,1992(sp)
   17b4a:	7d912223          	sw	s9,1988(sp)
   17b4e:	7da12023          	sw	s10,1984(sp)
   17b52:	7bb12e23          	sw	s11,1980(sp)
   17b56:	80010113          	addi	sp,sp,-2048
   17b5a:	b4010113          	addi	sp,sp,-1216
   17b5e:	1048                	addi	a0,sp,36
   17b60:	02800613          	li	a2,40
   17b64:	4581                	li	a1,0
   17b66:	00004097          	auipc	ra,0x4
   17b6a:	eb8080e7          	jalr	-328(ra) # 1ba1e <memset>
   17b6e:	6505                	lui	a0,0x1
   17b70:	35c50513          	addi	a0,a0,860 # 135c <.Lline_table_start1+0x1131>
   17b74:	950a                	add	a0,a0,sp
   17b76:	05100613          	li	a2,81
   17b7a:	4581                	li	a1,0
   17b7c:	00004097          	auipc	ra,0x4
   17b80:	ea2080e7          	jalr	-350(ra) # 1ba1e <memset>
   17b84:	6789                	lui	a5,0x2
   17b86:	45a5                	li	a1,9
   17b88:	1050                	addi	a2,sp,36
   17b8a:	02800693          	li	a3,40
   17b8e:	0799                	addi	a5,a5,6 # 2006 <.Lline_table_start1+0x1ddb>
   17b90:	4711                	li	a4,4
   17b92:	4489                	li	s1,2
   17b94:	853e                	mv	a0,a5
   17b96:	00000073          	ecall
   17b9a:	02950f63          	beq	a0,s1,17bd8 <_start+0xba>
   17b9e:	45a5                	li	a1,9
   17ba0:	6505                	lui	a0,0x1
   17ba2:	35c50513          	addi	a0,a0,860 # 135c <.Lline_table_start1+0x1131>
   17ba6:	00a10633          	add	a2,sp,a0
   17baa:	05100693          	li	a3,81
   17bae:	470d                	li	a4,3
   17bb0:	853e                	mv	a0,a5
   17bb2:	00000073          	ecall
   17bb6:	02950163          	beq	a0,s1,17bd8 <_start+0xba>
   17bba:	4681                	li	a3,0
   17bbc:	6989                	lui	s3,0x2
   17bbe:	45a5                	li	a1,9
   17bc0:	4625                	li	a2,9
   17bc2:	4709                	li	a4,2
   17bc4:	00698413          	addi	s0,s3,6 # 2006 <.Lline_table_start1+0x1ddb>
   17bc8:	07f00493          	li	s1,127
   17bcc:	8522                	mv	a0,s0
   17bce:	00000073          	ecall
   17bd2:	4909                	li	s2,2
   17bd4:	06a4e463          	bltu	s1,a0,17c3c <_start+0x11e>
   17bd8:	82ae                	mv	t0,a1
   17bda:	853e                	mv	a0,a5
   17bdc:	4601                	li	a2,0
   17bde:	4681                	li	a3,0
   17be0:	45a5                	li	a1,9
   17be2:	470d                	li	a4,3
   17be4:	00000073          	ecall
   17be8:	45a5                	li	a1,9
   17bea:	4711                	li	a4,4
   17bec:	853e                	mv	a0,a5
   17bee:	4601                	li	a2,0
   17bf0:	4681                	li	a3,0
   17bf2:	00000073          	ecall
   17bf6:	4505                	li	a0,1
   17bf8:	8596                	mv	a1,t0
   17bfa:	7f010113          	addi	sp,sp,2032
   17bfe:	4d010113          	addi	sp,sp,1232
   17c02:	7ec12083          	lw	ra,2028(sp)
   17c06:	7e812403          	lw	s0,2024(sp)
   17c0a:	7e412483          	lw	s1,2020(sp)
   17c0e:	7e012903          	lw	s2,2016(sp)
   17c12:	7dc12983          	lw	s3,2012(sp)
   17c16:	7d812a03          	lw	s4,2008(sp)
   17c1a:	7d412a83          	lw	s5,2004(sp)
   17c1e:	7d012b03          	lw	s6,2000(sp)
   17c22:	7cc12b83          	lw	s7,1996(sp)
   17c26:	7c812c03          	lw	s8,1992(sp)
   17c2a:	7c412c83          	lw	s9,1988(sp)
   17c2e:	7c012d03          	lw	s10,1984(sp)
   17c32:	7bc12d83          	lw	s11,1980(sp)
   17c36:	7f010113          	addi	sp,sp,2032
   17c3a:	8082                	ret
   17c3c:	8522                	mv	a0,s0
   17c3e:	4601                	li	a2,0
   17c40:	4681                	li	a3,0
   17c42:	7ff10b13          	addi	s6,sp,2047
   17c46:	7c5b0b13          	addi	s6,s6,1989
   17c4a:	45a5                	li	a1,9
   17c4c:	470d                	li	a4,3
   17c4e:	00000073          	ecall
   17c52:	470d                	li	a4,3
   17c54:	45a5                	li	a1,9
   17c56:	8522                	mv	a0,s0
   17c58:	4601                	li	a2,0
   17c5a:	4681                	li	a3,0
   17c5c:	00000073          	ecall
   17c60:	399b4503          	lbu	a0,921(s6)
   17c64:	398b4583          	lbu	a1,920(s6)
   17c68:	39ab4603          	lbu	a2,922(s6)
   17c6c:	39bb4a03          	lbu	s4,923(s6)
   17c70:	0522                	slli	a0,a0,0x8
   17c72:	8d4d                	or	a0,a0,a1
   17c74:	39cb4a83          	lbu	s5,924(s6)
   17c78:	39db4483          	lbu	s1,925(s6)
   17c7c:	39eb4b83          	lbu	s7,926(s6)
   17c80:	02a11023          	sh	a0,32(sp)
   17c84:	02c10123          	sb	a2,34(sp)
   17c88:	6505                	lui	a0,0x1
   17c8a:	36350513          	addi	a0,a0,867 # 1363 <.Lline_table_start1+0x1138>
   17c8e:	00a105b3          	add	a1,sp,a0
   17c92:	454d                	li	a0,19
   17c94:	0522                	slli	a0,a0,0x8
   17c96:	950a                	add	a0,a0,sp
   17c98:	04a00613          	li	a2,74
   17c9c:	00004097          	auipc	ra,0x4
   17ca0:	dee080e7          	jalr	-530(ra) # 1ba8a <memcpy>
   17ca4:	8522                	mv	a0,s0
   17ca6:	4601                	li	a2,0
   17ca8:	4681                	li	a3,0
   17caa:	45a5                	li	a1,9
   17cac:	470d                	li	a4,3
   17cae:	00000073          	ecall
   17cb2:	45a5                	li	a1,9
   17cb4:	4711                	li	a4,4
   17cb6:	8522                	mv	a0,s0
   17cb8:	4601                	li	a2,0
   17cba:	4681                	li	a3,0
   17cbc:	00000073          	ecall
   17cc0:	6505                	lui	a0,0x1
   17cc2:	36350513          	addi	a0,a0,867 # 1363 <.Lline_table_start1+0x1138>
   17cc6:	950a                	add	a0,a0,sp
   17cc8:	45cd                	li	a1,19
   17cca:	05a2                	slli	a1,a1,0x8
   17ccc:	958a                	add	a1,a1,sp
   17cce:	04a00613          	li	a2,74
   17cd2:	00004097          	auipc	ra,0x4
   17cd6:	db8080e7          	jalr	-584(ra) # 1ba8a <memcpy>
   17cda:	02011503          	lh	a0,32(sp)
   17cde:	02214583          	lbu	a1,34(sp)
   17ce2:	389b0ea3          	sb	s1,925(s6)
   17ce6:	397b0f23          	sb	s7,926(s6)
   17cea:	38ab1c23          	sh	a0,920(s6)
   17cee:	38bb0d23          	sb	a1,922(s6)
   17cf2:	394b0da3          	sb	s4,923(s6)
   17cf6:	395b0e23          	sb	s5,924(s6)
   17cfa:	454d                	li	a0,19
   17cfc:	0522                	slli	a0,a0,0x8
   17cfe:	950a                	add	a0,a0,sp
   17d00:	04600613          	li	a2,70
   17d04:	4581                	li	a1,0
   17d06:	00004097          	auipc	ra,0x4
   17d0a:	d18080e7          	jalr	-744(ra) # 1ba1e <memset>
   17d0e:	0c498513          	addi	a0,s3,196
   17d12:	459d                	li	a1,7
   17d14:	6605                	lui	a2,0x1
   17d16:	35c60613          	addi	a2,a2,860 # 135c <.Lline_table_start1+0x1131>
   17d1a:	960a                	add	a2,a2,sp
   17d1c:	05100693          	li	a3,81
   17d20:	4711                	li	a4,4
   17d22:	00000073          	ecall
   17d26:	03250f63          	beq	a0,s2,17d64 <_start+0x246>
   17d2a:	6509                	lui	a0,0x2
   17d2c:	45cd                	li	a1,19
   17d2e:	05a2                	slli	a1,a1,0x8
   17d30:	00b10633          	add	a2,sp,a1
   17d34:	04600693          	li	a3,70
   17d38:	0c450793          	addi	a5,a0,196 # 20c4 <.Lline_table_start1+0x1e99>
   17d3c:	470d                	li	a4,3
   17d3e:	4489                	li	s1,2
   17d40:	853e                	mv	a0,a5
   17d42:	4581                	li	a1,0
   17d44:	00000073          	ecall
   17d48:	00950e63          	beq	a0,s1,17d64 <_start+0x246>
   17d4c:	853e                	mv	a0,a5
   17d4e:	4601                	li	a2,0
   17d50:	4681                	li	a3,0
   17d52:	459d                	li	a1,7
   17d54:	4709                	li	a4,2
   17d56:	07f00793          	li	a5,127
   17d5a:	00000073          	ecall
   17d5e:	4909                	li	s2,2
   17d60:	02a7e563          	bltu	a5,a0,17d8a <_start+0x26c>
   17d64:	82ae                	mv	t0,a1
   17d66:	4581                	li	a1,0
   17d68:	4601                	li	a2,0
   17d6a:	4681                	li	a3,0
   17d6c:	6509                	lui	a0,0x2
   17d6e:	0c450793          	addi	a5,a0,196 # 20c4 <.Lline_table_start1+0x1e99>
   17d72:	470d                	li	a4,3
   17d74:	853e                	mv	a0,a5
   17d76:	00000073          	ecall
   17d7a:	459d                	li	a1,7
   17d7c:	4711                	li	a4,4
   17d7e:	853e                	mv	a0,a5
   17d80:	4601                	li	a2,0
   17d82:	4681                	li	a3,0
   17d84:	00000073          	ecall
   17d88:	b5bd                	j	17bf6 <_start+0xd8>
   17d8a:	4581                	li	a1,0
   17d8c:	4601                	li	a2,0
   17d8e:	4681                	li	a3,0
   17d90:	6989                	lui	s3,0x2
   17d92:	0c498413          	addi	s0,s3,196 # 20c4 <.Lline_table_start1+0x1e99>
   17d96:	470d                	li	a4,3
   17d98:	8522                	mv	a0,s0
   17d9a:	00000073          	ecall
   17d9e:	470d                	li	a4,3
   17da0:	8522                	mv	a0,s0
   17da2:	4581                	li	a1,0
   17da4:	4601                	li	a2,0
   17da6:	4681                	li	a3,0
   17da8:	00000073          	ecall
   17dac:	33db4503          	lbu	a0,829(s6)
   17db0:	33cb4583          	lbu	a1,828(s6)
   17db4:	33eb4603          	lbu	a2,830(s6)
   17db8:	33fb4a03          	lbu	s4,831(s6)
   17dbc:	0522                	slli	a0,a0,0x8
   17dbe:	8d4d                	or	a0,a0,a1
   17dc0:	340b4a83          	lbu	s5,832(s6)
   17dc4:	341b4483          	lbu	s1,833(s6)
   17dc8:	342b4b83          	lbu	s7,834(s6)
   17dcc:	06a11223          	sh	a0,100(sp)
   17dd0:	06c10323          	sb	a2,102(sp)
   17dd4:	6505                	lui	a0,0x1
   17dd6:	30750513          	addi	a0,a0,775 # 1307 <.Lline_table_start1+0x10dc>
   17dda:	00a105b3          	add	a1,sp,a0
   17dde:	1048                	addi	a0,sp,36
   17de0:	03f00613          	li	a2,63
   17de4:	00004097          	auipc	ra,0x4
   17de8:	ca6080e7          	jalr	-858(ra) # 1ba8a <memcpy>
   17dec:	8522                	mv	a0,s0
   17dee:	4581                	li	a1,0
   17df0:	4601                	li	a2,0
   17df2:	4681                	li	a3,0
   17df4:	470d                	li	a4,3
   17df6:	00000073          	ecall
   17dfa:	459d                	li	a1,7
   17dfc:	4711                	li	a4,4
   17dfe:	8522                	mv	a0,s0
   17e00:	4601                	li	a2,0
   17e02:	4681                	li	a3,0
   17e04:	00000073          	ecall
   17e08:	6505                	lui	a0,0x1
   17e0a:	36350513          	addi	a0,a0,867 # 1363 <.Lline_table_start1+0x1138>
   17e0e:	950a                	add	a0,a0,sp
   17e10:	104c                	addi	a1,sp,36
   17e12:	03f00613          	li	a2,63
   17e16:	00004097          	auipc	ra,0x4
   17e1a:	c74080e7          	jalr	-908(ra) # 1ba8a <memcpy>
   17e1e:	06411503          	lh	a0,100(sp)
   17e22:	06614703          	lbu	a4,102(sp)
   17e26:	389b0ea3          	sb	s1,925(s6)
   17e2a:	397b0f23          	sb	s7,926(s6)
   17e2e:	340b2623          	sw	zero,844(s6)
   17e32:	340b2823          	sw	zero,848(s6)
   17e36:	320b2e23          	sw	zero,828(s6)
   17e3a:	340b2023          	sw	zero,832(s6)
   17e3e:	340b2223          	sw	zero,836(s6)
   17e42:	340b2423          	sw	zero,840(s6)
   17e46:	3cf98813          	addi	a6,s3,975
   17e4a:	458d                	li	a1,3
   17e4c:	6605                	lui	a2,0x1
   17e4e:	35c60613          	addi	a2,a2,860 # 135c <.Lline_table_start1+0x1131>
   17e52:	960a                	add	a2,a2,sp
   17e54:	04600693          	li	a3,70
   17e58:	38ab1c23          	sh	a0,920(s6)
   17e5c:	38eb0d23          	sb	a4,922(s6)
   17e60:	394b0da3          	sb	s4,923(s6)
   17e64:	395b0e23          	sb	s5,924(s6)
   17e68:	4711                	li	a4,4
   17e6a:	8542                	mv	a0,a6
   17e6c:	00000073          	ecall
   17e70:	03250e63          	beq	a0,s2,17eac <_start+0x38e>
   17e74:	4789                	li	a5,2
   17e76:	4589                	li	a1,2
   17e78:	454d                	li	a0,19
   17e7a:	0522                	slli	a0,a0,0x8
   17e7c:	00a10633          	add	a2,sp,a0
   17e80:	46e1                	li	a3,24
   17e82:	470d                	li	a4,3
   17e84:	8542                	mv	a0,a6
   17e86:	00000073          	ecall
   17e8a:	02f50163          	beq	a0,a5,17eac <_start+0x38e>
   17e8e:	4681                	li	a3,0
   17e90:	6509                	lui	a0,0x2
   17e92:	458d                	li	a1,3
   17e94:	4609                	li	a2,2
   17e96:	4709                	li	a4,2
   17e98:	3cf50393          	addi	t2,a0,975 # 23cf <.Lline_table_start1+0x21a4>
   17e9c:	07f00493          	li	s1,127
   17ea0:	851e                	mv	a0,t2
   17ea2:	00000073          	ecall
   17ea6:	4909                	li	s2,2
   17ea8:	02a4e263          	bltu	s1,a0,17ecc <_start+0x3ae>
   17eac:	82ae                	mv	t0,a1
   17eae:	8542                	mv	a0,a6
   17eb0:	4601                	li	a2,0
   17eb2:	4681                	li	a3,0
   17eb4:	4589                	li	a1,2
   17eb6:	470d                	li	a4,3
   17eb8:	00000073          	ecall
   17ebc:	458d                	li	a1,3
   17ebe:	4711                	li	a4,4
   17ec0:	8542                	mv	a0,a6
   17ec2:	4601                	li	a2,0
   17ec4:	4681                	li	a3,0
   17ec6:	00000073          	ecall
   17eca:	b335                	j	17bf6 <_start+0xd8>
   17ecc:	851e                	mv	a0,t2
   17ece:	4601                	li	a2,0
   17ed0:	4681                	li	a3,0
   17ed2:	4589                	li	a1,2
   17ed4:	470d                	li	a4,3
   17ed6:	00000073          	ecall
   17eda:	470d                	li	a4,3
   17edc:	4589                	li	a1,2
   17ede:	851e                	mv	a0,t2
   17ee0:	4601                	li	a2,0
   17ee2:	4681                	li	a3,0
   17ee4:	00000073          	ecall
   17ee8:	33cb1803          	lh	a6,828(s6)
   17eec:	33eb4883          	lbu	a7,830(s6)
   17ef0:	33fb4a03          	lbu	s4,831(s6)
   17ef4:	340b4983          	lbu	s3,832(s6)
   17ef8:	351b4283          	lbu	t0,849(s6)
   17efc:	352b4303          	lbu	t1,850(s6)
   17f00:	353b4703          	lbu	a4,851(s6)
   17f04:	341b4b83          	lbu	s7,833(s6)
   17f08:	342b4a83          	lbu	s5,834(s6)
   17f0c:	343b4403          	lbu	s0,835(s6)
   17f10:	344b4483          	lbu	s1,836(s6)
   17f14:	345b4503          	lbu	a0,837(s6)
   17f18:	346b4583          	lbu	a1,838(s6)
   17f1c:	347b4603          	lbu	a2,839(s6)
   17f20:	348b4683          	lbu	a3,840(s6)
   17f24:	07011e23          	sh	a6,124(sp)
   17f28:	07110f23          	sb	a7,126(sp)
   17f2c:	06e10c23          	sb	a4,120(sp)
   17f30:	04a2                	slli	s1,s1,0x8
   17f32:	0084e833          	or	a6,s1,s0
   17f36:	349b4703          	lbu	a4,841(s6)
   17f3a:	34ab4483          	lbu	s1,842(s6)
   17f3e:	34bb4403          	lbu	s0,843(s6)
   17f42:	34cb4783          	lbu	a5,844(s6)
   17f46:	0542                	slli	a0,a0,0x10
   17f48:	05e2                	slli	a1,a1,0x18
   17f4a:	06a2                	slli	a3,a3,0x8
   17f4c:	0742                	slli	a4,a4,0x10
   17f4e:	04e2                	slli	s1,s1,0x18
   17f50:	07a2                	slli	a5,a5,0x8
   17f52:	8d4d                	or	a0,a0,a1
   17f54:	8e55                	or	a2,a2,a3
   17f56:	8f45                	or	a4,a4,s1
   17f58:	8fc1                	or	a5,a5,s0
   17f5a:	34db4583          	lbu	a1,845(s6)
   17f5e:	34eb4683          	lbu	a3,846(s6)
   17f62:	34fb4483          	lbu	s1,847(s6)
   17f66:	350b4403          	lbu	s0,848(s6)
   17f6a:	05c2                	slli	a1,a1,0x10
   17f6c:	06e2                	slli	a3,a3,0x18
   17f6e:	8dd5                	or	a1,a1,a3
   17f70:	0422                	slli	s0,s0,0x8
   17f72:	8c45                	or	s0,s0,s1
   17f74:	02c2                	slli	t0,t0,0x10
   17f76:	0362                	slli	t1,t1,0x18
   17f78:	005366b3          	or	a3,t1,t0
   17f7c:	01056533          	or	a0,a0,a6
   17f80:	8e59                	or	a2,a2,a4
   17f82:	8fcd                	or	a5,a5,a1
   17f84:	470d                	li	a4,3
   17f86:	8ec1                	or	a3,a3,s0
   17f88:	4589                	li	a1,2
   17f8a:	d4aa                	sw	a0,104(sp)
   17f8c:	d6b2                	sw	a2,108(sp)
   17f8e:	d8be                	sw	a5,112(sp)
   17f90:	dab6                	sw	a3,116(sp)
   17f92:	851e                	mv	a0,t2
   17f94:	4601                	li	a2,0
   17f96:	4681                	li	a3,0
   17f98:	00000073          	ecall
   17f9c:	458d                	li	a1,3
   17f9e:	4711                	li	a4,4
   17fa0:	851e                	mv	a0,t2
   17fa2:	4601                	li	a2,0
   17fa4:	4681                	li	a3,0
   17fa6:	00000073          	ecall
   17faa:	02b10513          	addi	a0,sp,43
   17fae:	10ac                	addi	a1,sp,104
   17fb0:	4645                	li	a2,17
   17fb2:	00004097          	auipc	ra,0x4
   17fb6:	ad8080e7          	jalr	-1320(ra) # 1ba8a <memcpy>
   17fba:	07c11503          	lh	a0,124(sp)
   17fbe:	07e14583          	lbu	a1,126(sp)
   17fc2:	037104a3          	sb	s7,41(sp)
   17fc6:	03510523          	sb	s5,42(sp)
   17fca:	02a11223          	sh	a0,36(sp)
   17fce:	02b10323          	sb	a1,38(sp)
   17fd2:	034103a3          	sb	s4,39(sp)
   17fd6:	03310423          	sb	s3,40(sp)
   17fda:	6505                	lui	a0,0x1
   17fdc:	35c50513          	addi	a0,a0,860 # 135c <.Lline_table_start1+0x1131>
   17fe0:	950a                	add	a0,a0,sp
   17fe2:	03600613          	li	a2,54
   17fe6:	4581                	li	a1,0
   17fe8:	00004097          	auipc	ra,0x4
   17fec:	a36080e7          	jalr	-1482(ra) # 1ba1e <memset>
   17ff0:	21f00513          	li	a0,543
   17ff4:	1050                	addi	a2,sp,36
   17ff6:	46e1                	li	a3,24
   17ff8:	4711                	li	a4,4
   17ffa:	4581                	li	a1,0
   17ffc:	00000073          	ecall
   18000:	03250e63          	beq	a0,s2,1803c <_start+0x51e>
   18004:	21f00513          	li	a0,543
   18008:	459d                	li	a1,7
   1800a:	6605                	lui	a2,0x1
   1800c:	35c60613          	addi	a2,a2,860 # 135c <.Lline_table_start1+0x1131>
   18010:	960a                	add	a2,a2,sp
   18012:	03600693          	li	a3,54
   18016:	470d                	li	a4,3
   18018:	4789                	li	a5,2
   1801a:	00000073          	ecall
   1801e:	00f50f63          	beq	a0,a5,1803c <_start+0x51e>
   18022:	4581                	li	a1,0
   18024:	4681                	li	a3,0
   18026:	21f00513          	li	a0,543
   1802a:	461d                	li	a2,7
   1802c:	4709                	li	a4,2
   1802e:	07f00793          	li	a5,127
   18032:	00000073          	ecall
   18036:	4909                	li	s2,2
   18038:	02a7e463          	bltu	a5,a0,18060 <_start+0x542>
   1803c:	82ae                	mv	t0,a1
   1803e:	4601                	li	a2,0
   18040:	4681                	li	a3,0
   18042:	21f00513          	li	a0,543
   18046:	459d                	li	a1,7
   18048:	470d                	li	a4,3
   1804a:	00000073          	ecall
   1804e:	21f00513          	li	a0,543
   18052:	4711                	li	a4,4
   18054:	4581                	li	a1,0
   18056:	4601                	li	a2,0
   18058:	4681                	li	a3,0
   1805a:	00000073          	ecall
   1805e:	be61                	j	17bf6 <_start+0xd8>
   18060:	4601                	li	a2,0
   18062:	4681                	li	a3,0
   18064:	21f00513          	li	a0,543
   18068:	459d                	li	a1,7
   1806a:	470d                	li	a4,3
   1806c:	00000073          	ecall
   18070:	470d                	li	a4,3
   18072:	21f00513          	li	a0,543
   18076:	459d                	li	a1,7
   18078:	4601                	li	a2,0
   1807a:	4681                	li	a3,0
   1807c:	00000073          	ecall
   18080:	399b4503          	lbu	a0,921(s6)
   18084:	398b4583          	lbu	a1,920(s6)
   18088:	39ab4603          	lbu	a2,922(s6)
   1808c:	39bb4983          	lbu	s3,923(s6)
   18090:	0522                	slli	a0,a0,0x8
   18092:	8d4d                	or	a0,a0,a1
   18094:	39cb4a03          	lbu	s4,924(s6)
   18098:	39db4483          	lbu	s1,925(s6)
   1809c:	39eb4403          	lbu	s0,926(s6)
   180a0:	08a11023          	sh	a0,128(sp)
   180a4:	08c10123          	sb	a2,130(sp)
   180a8:	6505                	lui	a0,0x1
   180aa:	36350513          	addi	a0,a0,867 # 1363 <.Lline_table_start1+0x1138>
   180ae:	00a105b3          	add	a1,sp,a0
   180b2:	454d                	li	a0,19
   180b4:	0522                	slli	a0,a0,0x8
   180b6:	950a                	add	a0,a0,sp
   180b8:	02f00613          	li	a2,47
   180bc:	00004097          	auipc	ra,0x4
   180c0:	9ce080e7          	jalr	-1586(ra) # 1ba8a <memcpy>
   180c4:	4601                	li	a2,0
   180c6:	4681                	li	a3,0
   180c8:	21f00513          	li	a0,543
   180cc:	459d                	li	a1,7
   180ce:	470d                	li	a4,3
   180d0:	00000073          	ecall
   180d4:	21f00513          	li	a0,543
   180d8:	4711                	li	a4,4
   180da:	4581                	li	a1,0
   180dc:	4601                	li	a2,0
   180de:	4681                	li	a3,0
   180e0:	00000073          	ecall
   180e4:	6505                	lui	a0,0x1
   180e6:	36350513          	addi	a0,a0,867 # 1363 <.Lline_table_start1+0x1138>
   180ea:	950a                	add	a0,a0,sp
   180ec:	45cd                	li	a1,19
   180ee:	05a2                	slli	a1,a1,0x8
   180f0:	958a                	add	a1,a1,sp
   180f2:	02f00613          	li	a2,47
   180f6:	00004097          	auipc	ra,0x4
   180fa:	994080e7          	jalr	-1644(ra) # 1ba8a <memcpy>
   180fe:	08011503          	lh	a0,128(sp)
   18102:	08214583          	lbu	a1,130(sp)
   18106:	389b0ea3          	sb	s1,925(s6)
   1810a:	388b0f23          	sb	s0,926(s6)
   1810e:	38ab1c23          	sh	a0,920(s6)
   18112:	38bb0d23          	sb	a1,922(s6)
   18116:	393b0da3          	sb	s3,923(s6)
   1811a:	394b0e23          	sb	s4,924(s6)
   1811e:	454d                	li	a0,19
   18120:	0522                	slli	a0,a0,0x8
   18122:	950a                	add	a0,a0,sp
   18124:	02500613          	li	a2,37
   18128:	4581                	li	a1,0
   1812a:	00004097          	auipc	ra,0x4
   1812e:	8f4080e7          	jalr	-1804(ra) # 1ba1e <memset>
   18132:	6505                	lui	a0,0x1
   18134:	459d                	li	a1,7
   18136:	6605                	lui	a2,0x1
   18138:	35c60613          	addi	a2,a2,860 # 135c <.Lline_table_start1+0x1131>
   1813c:	960a                	add	a2,a2,sp
   1813e:	59750893          	addi	a7,a0,1431 # 1597 <.Lline_table_start1+0x136c>
   18142:	03600693          	li	a3,54
   18146:	4711                	li	a4,4
   18148:	8546                	mv	a0,a7
   1814a:	00000073          	ecall
   1814e:	03250e63          	beq	a0,s2,1818a <_start+0x66c>
   18152:	454d                	li	a0,19
   18154:	0522                	slli	a0,a0,0x8
   18156:	00a10633          	add	a2,sp,a0
   1815a:	02500693          	li	a3,37
   1815e:	470d                	li	a4,3
   18160:	4789                	li	a5,2
   18162:	8546                	mv	a0,a7
   18164:	4581                	li	a1,0
   18166:	00000073          	ecall
   1816a:	02f50063          	beq	a0,a5,1818a <_start+0x66c>
   1816e:	4601                	li	a2,0
   18170:	4681                	li	a3,0
   18172:	6505                	lui	a0,0x1
   18174:	459d                	li	a1,7
   18176:	4709                	li	a4,2
   18178:	59750813          	addi	a6,a0,1431 # 1597 <.Lline_table_start1+0x136c>
   1817c:	07f00793          	li	a5,127
   18180:	8542                	mv	a0,a6
   18182:	00000073          	ecall
   18186:	02a7e263          	bltu	a5,a0,181aa <_start+0x68c>
   1818a:	82ae                	mv	t0,a1
   1818c:	8546                	mv	a0,a7
   1818e:	4581                	li	a1,0
   18190:	4601                	li	a2,0
   18192:	4681                	li	a3,0
   18194:	470d                	li	a4,3
   18196:	00000073          	ecall
   1819a:	459d                	li	a1,7
   1819c:	4711                	li	a4,4
   1819e:	8546                	mv	a0,a7
   181a0:	4601                	li	a2,0
   181a2:	4681                	li	a3,0
   181a4:	00000073          	ecall
   181a8:	b4b9                	j	17bf6 <_start+0xd8>
   181aa:	8542                	mv	a0,a6
   181ac:	4581                	li	a1,0
   181ae:	4601                	li	a2,0
   181b0:	4681                	li	a3,0
   181b2:	470d                	li	a4,3
   181b4:	00000073          	ecall
   181b8:	8542                	mv	a0,a6
   181ba:	4581                	li	a1,0
   181bc:	4601                	li	a2,0
   181be:	4681                	li	a3,0
   181c0:	470d                	li	a4,3
   181c2:	00000073          	ecall
   181c6:	8542                	mv	a0,a6
   181c8:	4581                	li	a1,0
   181ca:	4601                	li	a2,0
   181cc:	4681                	li	a3,0
   181ce:	33cb4283          	lbu	t0,828(s6)
   181d2:	33db4303          	lbu	t1,829(s6)
   181d6:	33eb4703          	lbu	a4,830(s6)
   181da:	c63a                	sw	a4,12(sp)
   181dc:	33fb4703          	lbu	a4,831(s6)
   181e0:	ce3a                	sw	a4,28(sp)
   181e2:	360b4383          	lbu	t2,864(s6)
   181e6:	35fb4f83          	lbu	t6,863(s6)
   181ea:	340b4703          	lbu	a4,832(s6)
   181ee:	cc3a                	sw	a4,24(sp)
   181f0:	341b4703          	lbu	a4,833(s6)
   181f4:	ca3a                	sw	a4,20(sp)
   181f6:	342b4703          	lbu	a4,834(s6)
   181fa:	c83a                	sw	a4,16(sp)
   181fc:	343b4d03          	lbu	s10,835(s6)
   18200:	344b4703          	lbu	a4,836(s6)
   18204:	345b4e03          	lbu	t3,837(s6)
   18208:	346b4e83          	lbu	t4,838(s6)
   1820c:	347b4f03          	lbu	t5,839(s6)
   18210:	348b4c03          	lbu	s8,840(s6)
   18214:	349b4c83          	lbu	s9,841(s6)
   18218:	34ab4a03          	lbu	s4,842(s6)
   1821c:	34bb4a83          	lbu	s5,843(s6)
   18220:	34cb4783          	lbu	a5,844(s6)
   18224:	34db4d83          	lbu	s11,845(s6)
   18228:	34eb4083          	lbu	ra,846(s6)
   1822c:	34fb4903          	lbu	s2,847(s6)
   18230:	0322                	slli	t1,t1,0x8
   18232:	03a2                	slli	t2,t2,0x8
   18234:	0722                	slli	a4,a4,0x8
   18236:	005369b3          	or	s3,t1,t0
   1823a:	01f3e2b3          	or	t0,t2,t6
   1823e:	01a76333          	or	t1,a4,s10
   18242:	350b4f83          	lbu	t6,848(s6)
   18246:	351b4d03          	lbu	s10,849(s6)
   1824a:	352b4b83          	lbu	s7,850(s6)
   1824e:	353b4883          	lbu	a7,851(s6)
   18252:	0e42                	slli	t3,t3,0x10
   18254:	0ee2                	slli	t4,t4,0x18
   18256:	0c22                	slli	s8,s8,0x8
   18258:	0cc2                	slli	s9,s9,0x10
   1825a:	0a62                	slli	s4,s4,0x18
   1825c:	07a2                	slli	a5,a5,0x8
   1825e:	01cee3b3          	or	t2,t4,t3
   18262:	01ec6e33          	or	t3,s8,t5
   18266:	019a6f33          	or	t5,s4,s9
   1826a:	0157eeb3          	or	t4,a5,s5
   1826e:	354b4783          	lbu	a5,852(s6)
   18272:	355b4a83          	lbu	s5,853(s6)
   18276:	356b4c03          	lbu	s8,854(s6)
   1827a:	357b4c83          	lbu	s9,855(s6)
   1827e:	0dc2                	slli	s11,s11,0x10
   18280:	00e2                	slli	ra,ra,0x18
   18282:	0fa2                	slli	t6,t6,0x8
   18284:	0d42                	slli	s10,s10,0x10
   18286:	0be2                	slli	s7,s7,0x18
   18288:	07a2                	slli	a5,a5,0x8
   1828a:	01b0ea33          	or	s4,ra,s11
   1828e:	012fefb3          	or	t6,t6,s2
   18292:	01abe933          	or	s2,s7,s10
   18296:	0117e8b3          	or	a7,a5,a7
   1829a:	358b4783          	lbu	a5,856(s6)
   1829e:	359b4403          	lbu	s0,857(s6)
   182a2:	35ab4483          	lbu	s1,858(s6)
   182a6:	35bb4703          	lbu	a4,859(s6)
   182aa:	0ac2                	slli	s5,s5,0x10
   182ac:	0c62                	slli	s8,s8,0x18
   182ae:	07a2                	slli	a5,a5,0x8
   182b0:	0442                	slli	s0,s0,0x10
   182b2:	04e2                	slli	s1,s1,0x18
   182b4:	015c6ab3          	or	s5,s8,s5
   182b8:	0197ebb3          	or	s7,a5,s9
   182bc:	35cb4783          	lbu	a5,860(s6)
   182c0:	0084ec33          	or	s8,s1,s0
   182c4:	35db4483          	lbu	s1,861(s6)
   182c8:	35eb4403          	lbu	s0,862(s6)
   182cc:	07a2                	slli	a5,a5,0x8
   182ce:	00e7ecb3          	or	s9,a5,a4
   182d2:	04c2                	slli	s1,s1,0x10
   182d4:	0462                	slli	s0,s0,0x18
   182d6:	8c45                	or	s0,s0,s1
   182d8:	09311223          	sh	s3,132(sp)
   182dc:	4732                	lw	a4,12(sp)
   182de:	08e10323          	sb	a4,134(sp)
   182e2:	0063e9b3          	or	s3,t2,t1
   182e6:	01cf64b3          	or	s1,t5,t3
   182ea:	01da63b3          	or	t2,s4,t4
   182ee:	01f96333          	or	t1,s2,t6
   182f2:	011ae733          	or	a4,s5,a7
   182f6:	017c67b3          	or	a5,s8,s7
   182fa:	01946433          	or	s0,s0,s9
   182fe:	da3a                	sw	a4,52(sp)
   18300:	dc3e                	sw	a5,56(sp)
   18302:	de22                	sw	s0,60(sp)
   18304:	04511023          	sh	t0,64(sp)
   18308:	d24e                	sw	s3,36(sp)
   1830a:	d426                	sw	s1,40(sp)
   1830c:	d61e                	sw	t2,44(sp)
   1830e:	d81a                	sw	t1,48(sp)
   18310:	470d                	li	a4,3
   18312:	00000073          	ecall
   18316:	459d                	li	a1,7
   18318:	4711                	li	a4,4
   1831a:	8542                	mv	a0,a6
   1831c:	4601                	li	a2,0
   1831e:	4681                	li	a3,0
   18320:	00000073          	ecall
   18324:	6505                	lui	a0,0x1
   18326:	36350513          	addi	a0,a0,867 # 1363 <.Lline_table_start1+0x1138>
   1832a:	950a                	add	a0,a0,sp
   1832c:	104c                	addi	a1,sp,36
   1832e:	4679                	li	a2,30
   18330:	00003097          	auipc	ra,0x3
   18334:	75a080e7          	jalr	1882(ra) # 1ba8a <memcpy>
   18338:	08411703          	lh	a4,132(sp)
   1833c:	08614783          	lbu	a5,134(sp)
   18340:	4552                	lw	a0,20(sp)
   18342:	38ab0ea3          	sb	a0,925(s6)
   18346:	4542                	lw	a0,16(sp)
   18348:	38ab0f23          	sb	a0,926(s6)
   1834c:	320b2e23          	sw	zero,828(s6)
   18350:	340b2023          	sw	zero,832(s6)
   18354:	340b2223          	sw	zero,836(s6)
   18358:	340b1423          	sh	zero,840(s6)
   1835c:	66700513          	li	a0,1639
   18360:	4589                	li	a1,2
   18362:	6605                	lui	a2,0x1
   18364:	35c60613          	addi	a2,a2,860 # 135c <.Lline_table_start1+0x1131>
   18368:	960a                	add	a2,a2,sp
   1836a:	02500693          	li	a3,37
   1836e:	38eb1c23          	sh	a4,920(s6)
   18372:	38fb0d23          	sb	a5,922(s6)
   18376:	4772                	lw	a4,28(sp)
   18378:	38eb0da3          	sb	a4,923(s6)
   1837c:	4762                	lw	a4,24(sp)
   1837e:	38eb0e23          	sb	a4,924(s6)
   18382:	4711                	li	a4,4
   18384:	00000073          	ecall
   18388:	82ae                	mv	t0,a1
   1838a:	4589                	li	a1,2
   1838c:	02b50c63          	beq	a0,a1,183c4 <_start+0x8a6>
   18390:	66700513          	li	a0,1639
   18394:	45a1                	li	a1,8
   18396:	464d                	li	a2,19
   18398:	0622                	slli	a2,a2,0x8
   1839a:	960a                	add	a2,a2,sp
   1839c:	46b9                	li	a3,14
   1839e:	470d                	li	a4,3
   183a0:	4789                	li	a5,2
   183a2:	00000073          	ecall
   183a6:	00f50e63          	beq	a0,a5,183c2 <_start+0x8a4>
   183aa:	66700513          	li	a0,1639
   183ae:	4589                	li	a1,2
   183b0:	4621                	li	a2,8
   183b2:	4709                	li	a4,2
   183b4:	07f00793          	li	a5,127
   183b8:	4681                	li	a3,0
   183ba:	00000073          	ecall
   183be:	02a7e463          	bltu	a5,a0,183e6 <_start+0x8c8>
   183c2:	82ae                	mv	t0,a1
   183c4:	4601                	li	a2,0
   183c6:	4681                	li	a3,0
   183c8:	66700513          	li	a0,1639
   183cc:	45a1                	li	a1,8
   183ce:	470d                	li	a4,3
   183d0:	00000073          	ecall
   183d4:	66700513          	li	a0,1639
   183d8:	4589                	li	a1,2
   183da:	4711                	li	a4,4
   183dc:	4601                	li	a2,0
   183de:	4681                	li	a3,0
   183e0:	00000073          	ecall
   183e4:	b809                	j	17bf6 <_start+0xd8>
   183e6:	4601                	li	a2,0
   183e8:	4681                	li	a3,0
   183ea:	66700513          	li	a0,1639
   183ee:	45a1                	li	a1,8
   183f0:	470d                	li	a4,3
   183f2:	00000073          	ecall
   183f6:	470d                	li	a4,3
   183f8:	66700513          	li	a0,1639
   183fc:	45a1                	li	a1,8
   183fe:	4601                	li	a2,0
   18400:	4681                	li	a3,0
   18402:	00000073          	ecall
   18406:	33cb1503          	lh	a0,828(s6)
   1840a:	33eb4583          	lbu	a1,830(s6)
   1840e:	33fb4803          	lbu	a6,831(s6)
   18412:	340b4883          	lbu	a7,832(s6)
   18416:	345b4603          	lbu	a2,837(s6)
   1841a:	346b4683          	lbu	a3,838(s6)
   1841e:	347b4703          	lbu	a4,839(s6)
   18422:	348b4403          	lbu	s0,840(s6)
   18426:	08a11423          	sh	a0,136(sp)
   1842a:	08b10523          	sb	a1,138(sp)
   1842e:	341b4283          	lbu	t0,833(s6)
   18432:	342b4483          	lbu	s1,834(s6)
   18436:	343b4503          	lbu	a0,835(s6)
   1843a:	344b4583          	lbu	a1,836(s6)
   1843e:	0422                	slli	s0,s0,0x8
   18440:	8c59                	or	s0,s0,a4
   18442:	470d                	li	a4,3
   18444:	05a2                	slli	a1,a1,0x8
   18446:	8dc9                	or	a1,a1,a0
   18448:	349b4783          	lbu	a5,841(s6)
   1844c:	0642                	slli	a2,a2,0x10
   1844e:	06e2                	slli	a3,a3,0x18
   18450:	8e55                	or	a2,a2,a3
   18452:	66700513          	li	a0,1639
   18456:	8e4d                	or	a2,a2,a1
   18458:	45a1                	li	a1,8
   1845a:	d232                	sw	a2,36(sp)
   1845c:	02811423          	sh	s0,40(sp)
   18460:	02f10523          	sb	a5,42(sp)
   18464:	4601                	li	a2,0
   18466:	4681                	li	a3,0
   18468:	00000073          	ecall
   1846c:	4711                	li	a4,4
   1846e:	66700513          	li	a0,1639
   18472:	4589                	li	a1,2
   18474:	4601                	li	a2,0
   18476:	4681                	li	a3,0
   18478:	00000073          	ecall
   1847c:	090105a3          	sb	a6,139(sp)
   18480:	09110623          	sb	a7,140(sp)
   18484:	085106a3          	sb	t0,141(sp)
   18488:	08910723          	sb	s1,142(sp)
   1848c:	02414503          	lbu	a0,36(sp)
   18490:	02514583          	lbu	a1,37(sp)
   18494:	02614603          	lbu	a2,38(sp)
   18498:	02714683          	lbu	a3,39(sp)
   1849c:	02814703          	lbu	a4,40(sp)
   184a0:	02914783          	lbu	a5,41(sp)
   184a4:	02a14483          	lbu	s1,42(sp)
   184a8:	08a107a3          	sb	a0,143(sp)
   184ac:	08b10823          	sb	a1,144(sp)
   184b0:	08c108a3          	sb	a2,145(sp)
   184b4:	08d10923          	sb	a3,146(sp)
   184b8:	08e109a3          	sb	a4,147(sp)
   184bc:	08f10a23          	sb	a5,148(sp)
   184c0:	08910aa3          	sb	s1,149(sp)
   184c4:	6505                	lui	a0,0x1
   184c6:	35c50513          	addi	a0,a0,860 # 135c <.Lline_table_start1+0x1131>
   184ca:	950a                	add	a0,a0,sp
   184cc:	012c                	addi	a1,sp,136
   184ce:	ffffb097          	auipc	ra,0xffffb
   184d2:	9be080e7          	jalr	-1602(ra) # 12e8c <_ZN18complex_no_dynamic3app17h3eea1e0a5510e2f4E>
   184d6:	398b4503          	lbu	a0,920(s6)
   184da:	c119                	beqz	a0,184e0 <_start+0x9c2>
   184dc:	4a80306f          	j	1b984 <_start+0x3e66>
   184e0:	39ab4503          	lbu	a0,922(s6)
   184e4:	399b4583          	lbu	a1,921(s6)
   184e8:	39bb4603          	lbu	a2,923(s6)
   184ec:	39cb2403          	lw	s0,924(s6)
   184f0:	0522                	slli	a0,a0,0x8
   184f2:	8d4d                	or	a0,a0,a1
   184f4:	08a11b23          	sh	a0,150(sp)
   184f8:	08c10c23          	sb	a2,152(sp)
   184fc:	6505                	lui	a0,0x1
   184fe:	36450513          	addi	a0,a0,868 # 1364 <.Lline_table_start1+0x1139>
   18502:	00a105b3          	add	a1,sp,a0
   18506:	454d                	li	a0,19
   18508:	0522                	slli	a0,a0,0x8
   1850a:	950a                	add	a0,a0,sp
   1850c:	04100613          	li	a2,65
   18510:	00003097          	auipc	ra,0x3
   18514:	57a080e7          	jalr	1402(ra) # 1ba8a <memcpy>
   18518:	01845513          	srli	a0,s0,0x18
   1851c:	01045593          	srli	a1,s0,0x10
   18520:	00845613          	srli	a2,s0,0x8
   18524:	08810ca3          	sb	s0,153(sp)
   18528:	08c10d23          	sb	a2,154(sp)
   1852c:	08b10da3          	sb	a1,155(sp)
   18530:	08a10e23          	sb	a0,156(sp)
   18534:	09d10513          	addi	a0,sp,157
   18538:	45cd                	li	a1,19
   1853a:	05a2                	slli	a1,a1,0x8
   1853c:	958a                	add	a1,a1,sp
   1853e:	04100613          	li	a2,65
   18542:	00003097          	auipc	ra,0x3
   18546:	548080e7          	jalr	1352(ra) # 1ba8a <memcpy>
   1854a:	6505                	lui	a0,0x1
   1854c:	35c50513          	addi	a0,a0,860 # 135c <.Lline_table_start1+0x1131>
   18550:	950a                	add	a0,a0,sp
   18552:	09610593          	addi	a1,sp,150
   18556:	ffffa097          	auipc	ra,0xffffa
   1855a:	a1c080e7          	jalr	-1508(ra) # 11f72 <_ZN18complex_no_dynamic3app17h27a72bff5b241b7aE>
   1855e:	398b4503          	lbu	a0,920(s6)
   18562:	c119                	beqz	a0,18568 <_start+0xa4a>
   18564:	4200306f          	j	1b984 <_start+0x3e66>
   18568:	399b4503          	lbu	a0,921(s6)
   1856c:	39ab4583          	lbu	a1,922(s6)
   18570:	39bb4803          	lbu	a6,923(s6)
   18574:	39cb2683          	lw	a3,924(s6)
   18578:	3a0b2703          	lw	a4,928(s6)
   1857c:	3a4b2783          	lw	a5,932(s6)
   18580:	05a2                	slli	a1,a1,0x8
   18582:	0186d893          	srli	a7,a3,0x18
   18586:	0106d293          	srli	t0,a3,0x10
   1858a:	0187d613          	srli	a2,a5,0x18
   1858e:	0107d493          	srli	s1,a5,0x10
   18592:	0087d413          	srli	s0,a5,0x8
   18596:	8d4d                	or	a0,a0,a1
   18598:	01875593          	srli	a1,a4,0x18
   1859c:	0e9105a3          	sb	s1,235(sp)
   185a0:	0ec10623          	sb	a2,236(sp)
   185a4:	01075613          	srli	a2,a4,0x10
   185a8:	0ec103a3          	sb	a2,231(sp)
   185ac:	0eb10423          	sb	a1,232(sp)
   185b0:	0ef104a3          	sb	a5,233(sp)
   185b4:	0e810523          	sb	s0,234(sp)
   185b8:	0086d593          	srli	a1,a3,0x8
   185bc:	0ca11f23          	sh	a0,222(sp)
   185c0:	0f010023          	sb	a6,224(sp)
   185c4:	0ed100a3          	sb	a3,225(sp)
   185c8:	0eb10123          	sb	a1,226(sp)
   185cc:	00875513          	srli	a0,a4,0x8
   185d0:	0e5101a3          	sb	t0,227(sp)
   185d4:	0f110223          	sb	a7,228(sp)
   185d8:	0ee102a3          	sb	a4,229(sp)
   185dc:	0ea10323          	sb	a0,230(sp)
   185e0:	6505                	lui	a0,0x1
   185e2:	35c50513          	addi	a0,a0,860 # 135c <.Lline_table_start1+0x1131>
   185e6:	950a                	add	a0,a0,sp
   185e8:	0de10593          	addi	a1,sp,222
   185ec:	ffffc097          	auipc	ra,0xffffc
   185f0:	b46080e7          	jalr	-1210(ra) # 14132 <_ZN18complex_no_dynamic3app17h6d9401401e925069E>
   185f4:	398b4503          	lbu	a0,920(s6)
   185f8:	c119                	beqz	a0,185fe <_start+0xae0>
   185fa:	38a0306f          	j	1b984 <_start+0x3e66>
   185fe:	399b4503          	lbu	a0,921(s6)
   18602:	39ab4583          	lbu	a1,922(s6)
   18606:	39bb4603          	lbu	a2,923(s6)
   1860a:	39cb2683          	lw	a3,924(s6)
   1860e:	3a0b2703          	lw	a4,928(s6)
   18612:	3a4b2783          	lw	a5,932(s6)
   18616:	3a8b2483          	lw	s1,936(s6)
   1861a:	3acb2403          	lw	s0,940(s6)
   1861e:	32eb2e23          	sw	a4,828(s6)
   18622:	34fb2023          	sw	a5,832(s6)
   18626:	349b2223          	sw	s1,836(s6)
   1862a:	348b2423          	sw	s0,840(s6)
   1862e:	3b0b2703          	lw	a4,944(s6)
   18632:	3b4b2783          	lw	a5,948(s6)
   18636:	3b8b2483          	lw	s1,952(s6)
   1863a:	3bcb1403          	lh	s0,956(s6)
   1863e:	05a2                	slli	a1,a1,0x8
   18640:	34eb2623          	sw	a4,844(s6)
   18644:	34fb2823          	sw	a5,848(s6)
   18648:	349b2a23          	sw	s1,852(s6)
   1864c:	348b1c23          	sh	s0,856(s6)
   18650:	0186d713          	srli	a4,a3,0x18
   18654:	8d4d                	or	a0,a0,a1
   18656:	0106d593          	srli	a1,a3,0x10
   1865a:	0eb109a3          	sb	a1,243(sp)
   1865e:	0ee10a23          	sb	a4,244(sp)
   18662:	0086d593          	srli	a1,a3,0x8
   18666:	0ea11723          	sh	a0,238(sp)
   1866a:	0ec10823          	sb	a2,240(sp)
   1866e:	0ed108a3          	sb	a3,241(sp)
   18672:	0eb10923          	sb	a1,242(sp)
   18676:	0f510513          	addi	a0,sp,245
   1867a:	45cd                	li	a1,19
   1867c:	05a2                	slli	a1,a1,0x8
   1867e:	958a                	add	a1,a1,sp
   18680:	4679                	li	a2,30
   18682:	00003097          	auipc	ra,0x3
   18686:	408080e7          	jalr	1032(ra) # 1ba8a <memcpy>
   1868a:	6505                	lui	a0,0x1
   1868c:	35c50513          	addi	a0,a0,860 # 135c <.Lline_table_start1+0x1131>
   18690:	950a                	add	a0,a0,sp
   18692:	0ee10593          	addi	a1,sp,238
   18696:	ffffd097          	auipc	ra,0xffffd
   1869a:	438080e7          	jalr	1080(ra) # 15ace <_ZN18complex_no_dynamic3app17ha4aac8abcaf30016E>
   1869e:	398b4503          	lbu	a0,920(s6)
   186a2:	c119                	beqz	a0,186a8 <_start+0xb8a>
   186a4:	2e00306f          	j	1b984 <_start+0x3e66>
   186a8:	39ab4503          	lbu	a0,922(s6)
   186ac:	399b4583          	lbu	a1,921(s6)
   186b0:	39bb4603          	lbu	a2,923(s6)
   186b4:	39cb2403          	lw	s0,924(s6)
   186b8:	0522                	slli	a0,a0,0x8
   186ba:	8d4d                	or	a0,a0,a1
   186bc:	10a11a23          	sh	a0,276(sp)
   186c0:	10c10b23          	sb	a2,278(sp)
   186c4:	6505                	lui	a0,0x1
   186c6:	36450513          	addi	a0,a0,868 # 1364 <.Lline_table_start1+0x1139>
   186ca:	00a105b3          	add	a1,sp,a0
   186ce:	454d                	li	a0,19
   186d0:	0522                	slli	a0,a0,0x8
   186d2:	950a                	add	a0,a0,sp
   186d4:	02300613          	li	a2,35
   186d8:	00003097          	auipc	ra,0x3
   186dc:	3b2080e7          	jalr	946(ra) # 1ba8a <memcpy>
   186e0:	01845513          	srli	a0,s0,0x18
   186e4:	01045593          	srli	a1,s0,0x10
   186e8:	00845613          	srli	a2,s0,0x8
   186ec:	10810ba3          	sb	s0,279(sp)
   186f0:	10c10c23          	sb	a2,280(sp)
   186f4:	10b10ca3          	sb	a1,281(sp)
   186f8:	10a10d23          	sb	a0,282(sp)
   186fc:	11b10513          	addi	a0,sp,283
   18700:	45cd                	li	a1,19
   18702:	05a2                	slli	a1,a1,0x8
   18704:	958a                	add	a1,a1,sp
   18706:	02300613          	li	a2,35
   1870a:	00003097          	auipc	ra,0x3
   1870e:	380080e7          	jalr	896(ra) # 1ba8a <memcpy>
   18712:	6505                	lui	a0,0x1
   18714:	35c50513          	addi	a0,a0,860 # 135c <.Lline_table_start1+0x1131>
   18718:	950a                	add	a0,a0,sp
   1871a:	0a4c                	addi	a1,sp,276
   1871c:	fffff097          	auipc	ra,0xfffff
   18720:	ed0080e7          	jalr	-304(ra) # 175ec <_ZN18complex_no_dynamic3app17he6dff84c552d72b6E>
   18724:	398b4503          	lbu	a0,920(s6)
   18728:	c119                	beqz	a0,1872e <_start+0xc10>
   1872a:	25a0306f          	j	1b984 <_start+0x3e66>
   1872e:	39ab4503          	lbu	a0,922(s6)
   18732:	399b4583          	lbu	a1,921(s6)
   18736:	39bb4603          	lbu	a2,923(s6)
   1873a:	39cb2403          	lw	s0,924(s6)
   1873e:	0522                	slli	a0,a0,0x8
   18740:	8d4d                	or	a0,a0,a1
   18742:	12a11f23          	sh	a0,318(sp)
   18746:	14c10023          	sb	a2,320(sp)
   1874a:	6505                	lui	a0,0x1
   1874c:	36450513          	addi	a0,a0,868 # 1364 <.Lline_table_start1+0x1139>
   18750:	00a105b3          	add	a1,sp,a0
   18754:	454d                	li	a0,19
   18756:	0522                	slli	a0,a0,0x8
   18758:	950a                	add	a0,a0,sp
   1875a:	05c00613          	li	a2,92
   1875e:	00003097          	auipc	ra,0x3
   18762:	32c080e7          	jalr	812(ra) # 1ba8a <memcpy>
   18766:	01845513          	srli	a0,s0,0x18
   1876a:	01045593          	srli	a1,s0,0x10
   1876e:	00845613          	srli	a2,s0,0x8
   18772:	148100a3          	sb	s0,321(sp)
   18776:	14c10123          	sb	a2,322(sp)
   1877a:	14b101a3          	sb	a1,323(sp)
   1877e:	14a10223          	sb	a0,324(sp)
   18782:	14510513          	addi	a0,sp,325
   18786:	45cd                	li	a1,19
   18788:	05a2                	slli	a1,a1,0x8
   1878a:	958a                	add	a1,a1,sp
   1878c:	05c00613          	li	a2,92
   18790:	00003097          	auipc	ra,0x3
   18794:	2fa080e7          	jalr	762(ra) # 1ba8a <memcpy>
   18798:	6505                	lui	a0,0x1
   1879a:	35c50513          	addi	a0,a0,860 # 135c <.Lline_table_start1+0x1131>
   1879e:	950a                	add	a0,a0,sp
   187a0:	13e10593          	addi	a1,sp,318
   187a4:	ffffc097          	auipc	ra,0xffffc
   187a8:	1b6080e7          	jalr	438(ra) # 1495a <_ZN18complex_no_dynamic3app17h84a27a4329ac939cE>
   187ac:	398b4503          	lbu	a0,920(s6)
   187b0:	c119                	beqz	a0,187b6 <_start+0xc98>
   187b2:	1d20306f          	j	1b984 <_start+0x3e66>
   187b6:	399b4503          	lbu	a0,921(s6)
   187ba:	39ab4583          	lbu	a1,922(s6)
   187be:	39bb4603          	lbu	a2,923(s6)
   187c2:	39cb2683          	lw	a3,924(s6)
   187c6:	3a0b2703          	lw	a4,928(s6)
   187ca:	3a4b2783          	lw	a5,932(s6)
   187ce:	3a8b2483          	lw	s1,936(s6)
   187d2:	3acb2403          	lw	s0,940(s6)
   187d6:	32eb2e23          	sw	a4,828(s6)
   187da:	34fb2023          	sw	a5,832(s6)
   187de:	349b2223          	sw	s1,836(s6)
   187e2:	348b2423          	sw	s0,840(s6)
   187e6:	3b0b2703          	lw	a4,944(s6)
   187ea:	3b4b2783          	lw	a5,948(s6)
   187ee:	3b8b2483          	lw	s1,952(s6)
   187f2:	3bcb2403          	lw	s0,956(s6)
   187f6:	05a2                	slli	a1,a1,0x8
   187f8:	34eb2623          	sw	a4,844(s6)
   187fc:	34fb2823          	sw	a5,848(s6)
   18800:	349b2a23          	sw	s1,852(s6)
   18804:	348b2c23          	sw	s0,856(s6)
   18808:	0186d713          	srli	a4,a3,0x18
   1880c:	8d4d                	or	a0,a0,a1
   1880e:	0106d593          	srli	a1,a3,0x10
   18812:	1ab103a3          	sb	a1,423(sp)
   18816:	1ae10423          	sb	a4,424(sp)
   1881a:	0086d593          	srli	a1,a3,0x8
   1881e:	1aa11123          	sh	a0,418(sp)
   18822:	1ac10223          	sb	a2,420(sp)
   18826:	1ad102a3          	sb	a3,421(sp)
   1882a:	1ab10323          	sb	a1,422(sp)
   1882e:	1a910513          	addi	a0,sp,425
   18832:	45cd                	li	a1,19
   18834:	05a2                	slli	a1,a1,0x8
   18836:	958a                	add	a1,a1,sp
   18838:	02000613          	li	a2,32
   1883c:	00003097          	auipc	ra,0x3
   18840:	24e080e7          	jalr	590(ra) # 1ba8a <memcpy>
   18844:	6505                	lui	a0,0x1
   18846:	35c50513          	addi	a0,a0,860 # 135c <.Lline_table_start1+0x1131>
   1884a:	950a                	add	a0,a0,sp
   1884c:	1a210593          	addi	a1,sp,418
   18850:	ffffb097          	auipc	ra,0xffffb
   18854:	97c080e7          	jalr	-1668(ra) # 131cc <_ZN18complex_no_dynamic3app17h461723454f8c0f04E>
   18858:	398b4503          	lbu	a0,920(s6)
   1885c:	c119                	beqz	a0,18862 <_start+0xd44>
   1885e:	1260306f          	j	1b984 <_start+0x3e66>
   18862:	399b4503          	lbu	a0,921(s6)
   18866:	39ab4583          	lbu	a1,922(s6)
   1886a:	39bb4603          	lbu	a2,923(s6)
   1886e:	39cb2683          	lw	a3,924(s6)
   18872:	3a0b2703          	lw	a4,928(s6)
   18876:	3a4b2783          	lw	a5,932(s6)
   1887a:	3a8b2483          	lw	s1,936(s6)
   1887e:	3acb2403          	lw	s0,940(s6)
   18882:	32eb2e23          	sw	a4,828(s6)
   18886:	34fb2023          	sw	a5,832(s6)
   1888a:	349b2223          	sw	s1,836(s6)
   1888e:	348b2423          	sw	s0,840(s6)
   18892:	3b0b2703          	lw	a4,944(s6)
   18896:	3b4b1783          	lh	a5,948(s6)
   1889a:	3b6b4483          	lbu	s1,950(s6)
   1889e:	05a2                	slli	a1,a1,0x8
   188a0:	34eb2623          	sw	a4,844(s6)
   188a4:	34fb1823          	sh	a5,848(s6)
   188a8:	349b0923          	sb	s1,850(s6)
   188ac:	0186d713          	srli	a4,a3,0x18
   188b0:	8d4d                	or	a0,a0,a1
   188b2:	0106d593          	srli	a1,a3,0x10
   188b6:	1cb107a3          	sb	a1,463(sp)
   188ba:	1ce10823          	sb	a4,464(sp)
   188be:	0086d593          	srli	a1,a3,0x8
   188c2:	1ca11523          	sh	a0,458(sp)
   188c6:	1cc10623          	sb	a2,460(sp)
   188ca:	1cd106a3          	sb	a3,461(sp)
   188ce:	1cb10723          	sb	a1,462(sp)
   188d2:	1d110513          	addi	a0,sp,465
   188d6:	45cd                	li	a1,19
   188d8:	05a2                	slli	a1,a1,0x8
   188da:	958a                	add	a1,a1,sp
   188dc:	465d                	li	a2,23
   188de:	00003097          	auipc	ra,0x3
   188e2:	1ac080e7          	jalr	428(ra) # 1ba8a <memcpy>
   188e6:	6505                	lui	a0,0x1
   188e8:	35c50513          	addi	a0,a0,860 # 135c <.Lline_table_start1+0x1131>
   188ec:	950a                	add	a0,a0,sp
   188ee:	1ca10593          	addi	a1,sp,458
   188f2:	ffffd097          	auipc	ra,0xffffd
   188f6:	498080e7          	jalr	1176(ra) # 15d8a <_ZN18complex_no_dynamic3app17ha7f689aae45e1d7aE>
   188fa:	398b4503          	lbu	a0,920(s6)
   188fe:	c119                	beqz	a0,18904 <_start+0xde6>
   18900:	0840306f          	j	1b984 <_start+0x3e66>
   18904:	39ab4503          	lbu	a0,922(s6)
   18908:	399b4583          	lbu	a1,921(s6)
   1890c:	39bb4603          	lbu	a2,923(s6)
   18910:	39cb2403          	lw	s0,924(s6)
   18914:	0522                	slli	a0,a0,0x8
   18916:	8d4d                	or	a0,a0,a1
   18918:	1ea11423          	sh	a0,488(sp)
   1891c:	1ec10523          	sb	a2,490(sp)
   18920:	6505                	lui	a0,0x1
   18922:	36450513          	addi	a0,a0,868 # 1364 <.Lline_table_start1+0x1139>
   18926:	00a105b3          	add	a1,sp,a0
   1892a:	454d                	li	a0,19
   1892c:	0522                	slli	a0,a0,0x8
   1892e:	950a                	add	a0,a0,sp
   18930:	02500613          	li	a2,37
   18934:	00003097          	auipc	ra,0x3
   18938:	156080e7          	jalr	342(ra) # 1ba8a <memcpy>
   1893c:	01845513          	srli	a0,s0,0x18
   18940:	01045593          	srli	a1,s0,0x10
   18944:	00845613          	srli	a2,s0,0x8
   18948:	1e8105a3          	sb	s0,491(sp)
   1894c:	1ec10623          	sb	a2,492(sp)
   18950:	1eb106a3          	sb	a1,493(sp)
   18954:	1ea10723          	sb	a0,494(sp)
   18958:	1ef10513          	addi	a0,sp,495
   1895c:	45cd                	li	a1,19
   1895e:	05a2                	slli	a1,a1,0x8
   18960:	958a                	add	a1,a1,sp
   18962:	02500613          	li	a2,37
   18966:	00003097          	auipc	ra,0x3
   1896a:	124080e7          	jalr	292(ra) # 1ba8a <memcpy>
   1896e:	6505                	lui	a0,0x1
   18970:	35c50513          	addi	a0,a0,860 # 135c <.Lline_table_start1+0x1131>
   18974:	950a                	add	a0,a0,sp
   18976:	13ac                	addi	a1,sp,488
   18978:	ffffc097          	auipc	ra,0xffffc
   1897c:	cf0080e7          	jalr	-784(ra) # 14668 <_ZN18complex_no_dynamic3app17h7a2f5c5f4dc0629eE>
   18980:	398b4503          	lbu	a0,920(s6)
   18984:	c119                	beqz	a0,1898a <_start+0xe6c>
   18986:	7ff0206f          	j	1b984 <_start+0x3e66>
   1898a:	399b4503          	lbu	a0,921(s6)
   1898e:	39ab4583          	lbu	a1,922(s6)
   18992:	39bb4603          	lbu	a2,923(s6)
   18996:	39cb2683          	lw	a3,924(s6)
   1899a:	3a0b2703          	lw	a4,928(s6)
   1899e:	3a4b2783          	lw	a5,932(s6)
   189a2:	3a8b2483          	lw	s1,936(s6)
   189a6:	3acb2403          	lw	s0,940(s6)
   189aa:	32eb2e23          	sw	a4,828(s6)
   189ae:	34fb2023          	sw	a5,832(s6)
   189b2:	349b2223          	sw	s1,836(s6)
   189b6:	348b2423          	sw	s0,840(s6)
   189ba:	3b0b2703          	lw	a4,944(s6)
   189be:	3b4b2783          	lw	a5,948(s6)
   189c2:	3b8b2483          	lw	s1,952(s6)
   189c6:	3bcb1403          	lh	s0,956(s6)
   189ca:	05a2                	slli	a1,a1,0x8
   189cc:	34eb2623          	sw	a4,844(s6)
   189d0:	34fb2823          	sw	a5,848(s6)
   189d4:	349b2a23          	sw	s1,852(s6)
   189d8:	348b1c23          	sh	s0,856(s6)
   189dc:	0186d713          	srli	a4,a3,0x18
   189e0:	8d4d                	or	a0,a0,a1
   189e2:	0106d593          	srli	a1,a3,0x10
   189e6:	20b10ca3          	sb	a1,537(sp)
   189ea:	20e10d23          	sb	a4,538(sp)
   189ee:	0086d593          	srli	a1,a3,0x8
   189f2:	20a11a23          	sh	a0,532(sp)
   189f6:	20c10b23          	sb	a2,534(sp)
   189fa:	20d10ba3          	sb	a3,535(sp)
   189fe:	20b10c23          	sb	a1,536(sp)
   18a02:	21b10513          	addi	a0,sp,539
   18a06:	45cd                	li	a1,19
   18a08:	05a2                	slli	a1,a1,0x8
   18a0a:	958a                	add	a1,a1,sp
   18a0c:	4679                	li	a2,30
   18a0e:	00003097          	auipc	ra,0x3
   18a12:	07c080e7          	jalr	124(ra) # 1ba8a <memcpy>
   18a16:	6505                	lui	a0,0x1
   18a18:	35c50513          	addi	a0,a0,860 # 135c <.Lline_table_start1+0x1131>
   18a1c:	950a                	add	a0,a0,sp
   18a1e:	0c4c                	addi	a1,sp,532
   18a20:	ffffa097          	auipc	ra,0xffffa
   18a24:	6be080e7          	jalr	1726(ra) # 130de <_ZN18complex_no_dynamic3app17h40b9df9e9eb7ecdaE>
   18a28:	398b4503          	lbu	a0,920(s6)
   18a2c:	c119                	beqz	a0,18a32 <_start+0xf14>
   18a2e:	7570206f          	j	1b984 <_start+0x3e66>
   18a32:	399b4503          	lbu	a0,921(s6)
   18a36:	39ab4583          	lbu	a1,922(s6)
   18a3a:	39bb4803          	lbu	a6,923(s6)
   18a3e:	39cb2683          	lw	a3,924(s6)
   18a42:	3a0b2703          	lw	a4,928(s6)
   18a46:	3a4b2783          	lw	a5,932(s6)
   18a4a:	3a8b2483          	lw	s1,936(s6)
   18a4e:	3acb2403          	lw	s0,940(s6)
   18a52:	3b0b4603          	lbu	a2,944(s6)
   18a56:	32eb2e23          	sw	a4,828(s6)
   18a5a:	34fb2023          	sw	a5,832(s6)
   18a5e:	349b2223          	sw	s1,836(s6)
   18a62:	348b2423          	sw	s0,840(s6)
   18a66:	05a2                	slli	a1,a1,0x8
   18a68:	34cb0623          	sb	a2,844(s6)
   18a6c:	0186d613          	srli	a2,a3,0x18
   18a70:	8d4d                	or	a0,a0,a1
   18a72:	0106d593          	srli	a1,a3,0x10
   18a76:	22b10fa3          	sb	a1,575(sp)
   18a7a:	24c10023          	sb	a2,576(sp)
   18a7e:	0086d593          	srli	a1,a3,0x8
   18a82:	22a11d23          	sh	a0,570(sp)
   18a86:	23010e23          	sb	a6,572(sp)
   18a8a:	22d10ea3          	sb	a3,573(sp)
   18a8e:	22b10f23          	sb	a1,574(sp)
   18a92:	24110513          	addi	a0,sp,577
   18a96:	45cd                	li	a1,19
   18a98:	05a2                	slli	a1,a1,0x8
   18a9a:	958a                	add	a1,a1,sp
   18a9c:	4645                	li	a2,17
   18a9e:	00003097          	auipc	ra,0x3
   18aa2:	fec080e7          	jalr	-20(ra) # 1ba8a <memcpy>
   18aa6:	6505                	lui	a0,0x1
   18aa8:	35c50513          	addi	a0,a0,860 # 135c <.Lline_table_start1+0x1131>
   18aac:	950a                	add	a0,a0,sp
   18aae:	23a10593          	addi	a1,sp,570
   18ab2:	ffffd097          	auipc	ra,0xffffd
   18ab6:	11a080e7          	jalr	282(ra) # 15bcc <_ZN18complex_no_dynamic3app17ha5caaefe3876bd1dE>
   18aba:	398b4503          	lbu	a0,920(s6)
   18abe:	c119                	beqz	a0,18ac4 <_start+0xfa6>
   18ac0:	6c50206f          	j	1b984 <_start+0x3e66>
   18ac4:	39ab4503          	lbu	a0,922(s6)
   18ac8:	399b4583          	lbu	a1,921(s6)
   18acc:	39bb4603          	lbu	a2,923(s6)
   18ad0:	39cb2403          	lw	s0,924(s6)
   18ad4:	0522                	slli	a0,a0,0x8
   18ad6:	8d4d                	or	a0,a0,a1
   18ad8:	24a11923          	sh	a0,594(sp)
   18adc:	24c10a23          	sb	a2,596(sp)
   18ae0:	6505                	lui	a0,0x1
   18ae2:	36450513          	addi	a0,a0,868 # 1364 <.Lline_table_start1+0x1139>
   18ae6:	00a105b3          	add	a1,sp,a0
   18aea:	454d                	li	a0,19
   18aec:	0522                	slli	a0,a0,0x8
   18aee:	950a                	add	a0,a0,sp
   18af0:	02f00613          	li	a2,47
   18af4:	00003097          	auipc	ra,0x3
   18af8:	f96080e7          	jalr	-106(ra) # 1ba8a <memcpy>
   18afc:	01845513          	srli	a0,s0,0x18
   18b00:	01045593          	srli	a1,s0,0x10
   18b04:	00845613          	srli	a2,s0,0x8
   18b08:	24810aa3          	sb	s0,597(sp)
   18b0c:	24c10b23          	sb	a2,598(sp)
   18b10:	24b10ba3          	sb	a1,599(sp)
   18b14:	24a10c23          	sb	a0,600(sp)
   18b18:	25910513          	addi	a0,sp,601
   18b1c:	45cd                	li	a1,19
   18b1e:	05a2                	slli	a1,a1,0x8
   18b20:	958a                	add	a1,a1,sp
   18b22:	02f00613          	li	a2,47
   18b26:	00003097          	auipc	ra,0x3
   18b2a:	f64080e7          	jalr	-156(ra) # 1ba8a <memcpy>
   18b2e:	6505                	lui	a0,0x1
   18b30:	35c50513          	addi	a0,a0,860 # 135c <.Lline_table_start1+0x1131>
   18b34:	950a                	add	a0,a0,sp
   18b36:	25210593          	addi	a1,sp,594
   18b3a:	ffff9097          	auipc	ra,0xffff9
   18b3e:	9cc080e7          	jalr	-1588(ra) # 11506 <_ZN18complex_no_dynamic3app17h16ebfe222c901b9bE>
   18b42:	398b4503          	lbu	a0,920(s6)
   18b46:	c119                	beqz	a0,18b4c <_start+0x102e>
   18b48:	63d0206f          	j	1b984 <_start+0x3e66>
   18b4c:	39ab4503          	lbu	a0,922(s6)
   18b50:	399b4583          	lbu	a1,921(s6)
   18b54:	39bb4603          	lbu	a2,923(s6)
   18b58:	39cb2403          	lw	s0,924(s6)
   18b5c:	0522                	slli	a0,a0,0x8
   18b5e:	8d4d                	or	a0,a0,a1
   18b60:	28a11423          	sh	a0,648(sp)
   18b64:	28c10523          	sb	a2,650(sp)
   18b68:	6505                	lui	a0,0x1
   18b6a:	36450513          	addi	a0,a0,868 # 1364 <.Lline_table_start1+0x1139>
   18b6e:	00a105b3          	add	a1,sp,a0
   18b72:	454d                	li	a0,19
   18b74:	0522                	slli	a0,a0,0x8
   18b76:	950a                	add	a0,a0,sp
   18b78:	02d00613          	li	a2,45
   18b7c:	00003097          	auipc	ra,0x3
   18b80:	f0e080e7          	jalr	-242(ra) # 1ba8a <memcpy>
   18b84:	01845513          	srli	a0,s0,0x18
   18b88:	01045593          	srli	a1,s0,0x10
   18b8c:	00845613          	srli	a2,s0,0x8
   18b90:	288105a3          	sb	s0,651(sp)
   18b94:	28c10623          	sb	a2,652(sp)
   18b98:	28b106a3          	sb	a1,653(sp)
   18b9c:	28a10723          	sb	a0,654(sp)
   18ba0:	28f10513          	addi	a0,sp,655
   18ba4:	45cd                	li	a1,19
   18ba6:	05a2                	slli	a1,a1,0x8
   18ba8:	958a                	add	a1,a1,sp
   18baa:	02d00613          	li	a2,45
   18bae:	00003097          	auipc	ra,0x3
   18bb2:	edc080e7          	jalr	-292(ra) # 1ba8a <memcpy>
   18bb6:	6505                	lui	a0,0x1
   18bb8:	35c50513          	addi	a0,a0,860 # 135c <.Lline_table_start1+0x1131>
   18bbc:	950a                	add	a0,a0,sp
   18bbe:	052c                	addi	a1,sp,648
   18bc0:	ffffc097          	auipc	ra,0xffffc
   18bc4:	1fc080e7          	jalr	508(ra) # 14dbc <_ZN18complex_no_dynamic3app17h8a97f949e33df4b7E>
   18bc8:	398b4503          	lbu	a0,920(s6)
   18bcc:	c119                	beqz	a0,18bd2 <_start+0x10b4>
   18bce:	5b70206f          	j	1b984 <_start+0x3e66>
   18bd2:	39ab4503          	lbu	a0,922(s6)
   18bd6:	399b4583          	lbu	a1,921(s6)
   18bda:	39bb4603          	lbu	a2,923(s6)
   18bde:	39cb2403          	lw	s0,924(s6)
   18be2:	0522                	slli	a0,a0,0x8
   18be4:	8d4d                	or	a0,a0,a1
   18be6:	2aa11e23          	sh	a0,700(sp)
   18bea:	2ac10f23          	sb	a2,702(sp)
   18bee:	6505                	lui	a0,0x1
   18bf0:	36450513          	addi	a0,a0,868 # 1364 <.Lline_table_start1+0x1139>
   18bf4:	00a105b3          	add	a1,sp,a0
   18bf8:	454d                	li	a0,19
   18bfa:	0522                	slli	a0,a0,0x8
   18bfc:	950a                	add	a0,a0,sp
   18bfe:	02700613          	li	a2,39
   18c02:	00003097          	auipc	ra,0x3
   18c06:	e88080e7          	jalr	-376(ra) # 1ba8a <memcpy>
   18c0a:	01845513          	srli	a0,s0,0x18
   18c0e:	01045593          	srli	a1,s0,0x10
   18c12:	00845613          	srli	a2,s0,0x8
   18c16:	2a810fa3          	sb	s0,703(sp)
   18c1a:	2cc10023          	sb	a2,704(sp)
   18c1e:	2cb100a3          	sb	a1,705(sp)
   18c22:	2ca10123          	sb	a0,706(sp)
   18c26:	2c310513          	addi	a0,sp,707
   18c2a:	45cd                	li	a1,19
   18c2c:	05a2                	slli	a1,a1,0x8
   18c2e:	958a                	add	a1,a1,sp
   18c30:	02700613          	li	a2,39
   18c34:	00003097          	auipc	ra,0x3
   18c38:	e56080e7          	jalr	-426(ra) # 1ba8a <memcpy>
   18c3c:	6505                	lui	a0,0x1
   18c3e:	35c50513          	addi	a0,a0,860 # 135c <.Lline_table_start1+0x1131>
   18c42:	950a                	add	a0,a0,sp
   18c44:	1d6c                	addi	a1,sp,700
   18c46:	ffff8097          	auipc	ra,0xffff8
   18c4a:	6d2080e7          	jalr	1746(ra) # 11318 <_ZN18complex_no_dynamic3app17h0ae55064b53f0bb3E>
   18c4e:	398b4503          	lbu	a0,920(s6)
   18c52:	c119                	beqz	a0,18c58 <_start+0x113a>
   18c54:	5310206f          	j	1b984 <_start+0x3e66>
   18c58:	39ab4503          	lbu	a0,922(s6)
   18c5c:	399b4583          	lbu	a1,921(s6)
   18c60:	39bb4603          	lbu	a2,923(s6)
   18c64:	39cb2403          	lw	s0,924(s6)
   18c68:	0522                	slli	a0,a0,0x8
   18c6a:	8d4d                	or	a0,a0,a1
   18c6c:	2ea11523          	sh	a0,746(sp)
   18c70:	2ec10623          	sb	a2,748(sp)
   18c74:	6505                	lui	a0,0x1
   18c76:	36450513          	addi	a0,a0,868 # 1364 <.Lline_table_start1+0x1139>
   18c7a:	00a105b3          	add	a1,sp,a0
   18c7e:	454d                	li	a0,19
   18c80:	0522                	slli	a0,a0,0x8
   18c82:	950a                	add	a0,a0,sp
   18c84:	03100613          	li	a2,49
   18c88:	00003097          	auipc	ra,0x3
   18c8c:	e02080e7          	jalr	-510(ra) # 1ba8a <memcpy>
   18c90:	01845513          	srli	a0,s0,0x18
   18c94:	01045593          	srli	a1,s0,0x10
   18c98:	00845613          	srli	a2,s0,0x8
   18c9c:	2e8106a3          	sb	s0,749(sp)
   18ca0:	2ec10723          	sb	a2,750(sp)
   18ca4:	2eb107a3          	sb	a1,751(sp)
   18ca8:	2ea10823          	sb	a0,752(sp)
   18cac:	2f110513          	addi	a0,sp,753
   18cb0:	45cd                	li	a1,19
   18cb2:	05a2                	slli	a1,a1,0x8
   18cb4:	958a                	add	a1,a1,sp
   18cb6:	03100613          	li	a2,49
   18cba:	00003097          	auipc	ra,0x3
   18cbe:	dd0080e7          	jalr	-560(ra) # 1ba8a <memcpy>
   18cc2:	6505                	lui	a0,0x1
   18cc4:	35c50513          	addi	a0,a0,860 # 135c <.Lline_table_start1+0x1131>
   18cc8:	950a                	add	a0,a0,sp
   18cca:	2ea10593          	addi	a1,sp,746
   18cce:	ffff9097          	auipc	ra,0xffff9
   18cd2:	0b4080e7          	jalr	180(ra) # 11d82 <_ZN18complex_no_dynamic3app17h219c7d24cbc871d9E>
   18cd6:	398b4503          	lbu	a0,920(s6)
   18cda:	c119                	beqz	a0,18ce0 <_start+0x11c2>
   18cdc:	4a90206f          	j	1b984 <_start+0x3e66>
   18ce0:	39ab4503          	lbu	a0,922(s6)
   18ce4:	399b4583          	lbu	a1,921(s6)
   18ce8:	39bb4603          	lbu	a2,923(s6)
   18cec:	39cb2403          	lw	s0,924(s6)
   18cf0:	0522                	slli	a0,a0,0x8
   18cf2:	8d4d                	or	a0,a0,a1
   18cf4:	32a11123          	sh	a0,802(sp)
   18cf8:	32c10223          	sb	a2,804(sp)
   18cfc:	6505                	lui	a0,0x1
   18cfe:	36450513          	addi	a0,a0,868 # 1364 <.Lline_table_start1+0x1139>
   18d02:	00a105b3          	add	a1,sp,a0
   18d06:	454d                	li	a0,19
   18d08:	0522                	slli	a0,a0,0x8
   18d0a:	950a                	add	a0,a0,sp
   18d0c:	02d00613          	li	a2,45
   18d10:	00003097          	auipc	ra,0x3
   18d14:	d7a080e7          	jalr	-646(ra) # 1ba8a <memcpy>
   18d18:	01845513          	srli	a0,s0,0x18
   18d1c:	01045593          	srli	a1,s0,0x10
   18d20:	00845613          	srli	a2,s0,0x8
   18d24:	328102a3          	sb	s0,805(sp)
   18d28:	32c10323          	sb	a2,806(sp)
   18d2c:	32b103a3          	sb	a1,807(sp)
   18d30:	32a10423          	sb	a0,808(sp)
   18d34:	32910513          	addi	a0,sp,809
   18d38:	45cd                	li	a1,19
   18d3a:	05a2                	slli	a1,a1,0x8
   18d3c:	958a                	add	a1,a1,sp
   18d3e:	02d00613          	li	a2,45
   18d42:	00003097          	auipc	ra,0x3
   18d46:	d48080e7          	jalr	-696(ra) # 1ba8a <memcpy>
   18d4a:	6505                	lui	a0,0x1
   18d4c:	35c50513          	addi	a0,a0,860 # 135c <.Lline_table_start1+0x1131>
   18d50:	950a                	add	a0,a0,sp
   18d52:	32210593          	addi	a1,sp,802
   18d56:	ffffd097          	auipc	ra,0xffffd
   18d5a:	91e080e7          	jalr	-1762(ra) # 15674 <_ZN18complex_no_dynamic3app17h99da13c32a308f6aE>
   18d5e:	398b4503          	lbu	a0,920(s6)
   18d62:	c119                	beqz	a0,18d68 <_start+0x124a>
   18d64:	4210206f          	j	1b984 <_start+0x3e66>
   18d68:	399b4503          	lbu	a0,921(s6)
   18d6c:	39ab4583          	lbu	a1,922(s6)
   18d70:	3a0b2603          	lw	a2,928(s6)
   18d74:	3a4b2683          	lw	a3,932(s6)
   18d78:	3a8b2703          	lw	a4,936(s6)
   18d7c:	3acb2783          	lw	a5,940(s6)
   18d80:	3b0b1483          	lh	s1,944(s6)
   18d84:	3b2b4403          	lbu	s0,946(s6)
   18d88:	32cb2e23          	sw	a2,828(s6)
   18d8c:	34db2023          	sw	a3,832(s6)
   18d90:	34eb2223          	sw	a4,836(s6)
   18d94:	34fb2423          	sw	a5,840(s6)
   18d98:	39bb4603          	lbu	a2,923(s6)
   18d9c:	39cb2683          	lw	a3,924(s6)
   18da0:	05a2                	slli	a1,a1,0x8
   18da2:	349b1623          	sh	s1,844(s6)
   18da6:	348b0723          	sb	s0,846(s6)
   18daa:	0186d713          	srli	a4,a3,0x18
   18dae:	8d4d                	or	a0,a0,a1
   18db0:	0106d593          	srli	a1,a3,0x10
   18db4:	34b10da3          	sb	a1,859(sp)
   18db8:	34e10e23          	sb	a4,860(sp)
   18dbc:	0086d593          	srli	a1,a3,0x8
   18dc0:	34a11b23          	sh	a0,854(sp)
   18dc4:	34c10c23          	sb	a2,856(sp)
   18dc8:	34d10ca3          	sb	a3,857(sp)
   18dcc:	34b10d23          	sb	a1,858(sp)
   18dd0:	35d10513          	addi	a0,sp,861
   18dd4:	45cd                	li	a1,19
   18dd6:	05a2                	slli	a1,a1,0x8
   18dd8:	958a                	add	a1,a1,sp
   18dda:	464d                	li	a2,19
   18ddc:	00003097          	auipc	ra,0x3
   18de0:	cae080e7          	jalr	-850(ra) # 1ba8a <memcpy>
   18de4:	6505                	lui	a0,0x1
   18de6:	35c50513          	addi	a0,a0,860 # 135c <.Lline_table_start1+0x1131>
   18dea:	950a                	add	a0,a0,sp
   18dec:	35610593          	addi	a1,sp,854
   18df0:	ffffb097          	auipc	ra,0xffffb
   18df4:	9ac080e7          	jalr	-1620(ra) # 1379c <_ZN18complex_no_dynamic3app17h59a4235887019378E>
   18df8:	398b4503          	lbu	a0,920(s6)
   18dfc:	c119                	beqz	a0,18e02 <_start+0x12e4>
   18dfe:	3870206f          	j	1b984 <_start+0x3e66>
   18e02:	39ab4503          	lbu	a0,922(s6)
   18e06:	399b4583          	lbu	a1,921(s6)
   18e0a:	39bb4603          	lbu	a2,923(s6)
   18e0e:	39cb2403          	lw	s0,924(s6)
   18e12:	0522                	slli	a0,a0,0x8
   18e14:	8d4d                	or	a0,a0,a1
   18e16:	36a11823          	sh	a0,880(sp)
   18e1a:	36c10923          	sb	a2,882(sp)
   18e1e:	6505                	lui	a0,0x1
   18e20:	36450513          	addi	a0,a0,868 # 1364 <.Lline_table_start1+0x1139>
   18e24:	00a105b3          	add	a1,sp,a0
   18e28:	454d                	li	a0,19
   18e2a:	0522                	slli	a0,a0,0x8
   18e2c:	950a                	add	a0,a0,sp
   18e2e:	04900613          	li	a2,73
   18e32:	00003097          	auipc	ra,0x3
   18e36:	c58080e7          	jalr	-936(ra) # 1ba8a <memcpy>
   18e3a:	01845513          	srli	a0,s0,0x18
   18e3e:	01045593          	srli	a1,s0,0x10
   18e42:	00845613          	srli	a2,s0,0x8
   18e46:	368109a3          	sb	s0,883(sp)
   18e4a:	36c10a23          	sb	a2,884(sp)
   18e4e:	36b10aa3          	sb	a1,885(sp)
   18e52:	36a10b23          	sb	a0,886(sp)
   18e56:	37710513          	addi	a0,sp,887
   18e5a:	45cd                	li	a1,19
   18e5c:	05a2                	slli	a1,a1,0x8
   18e5e:	958a                	add	a1,a1,sp
   18e60:	04900613          	li	a2,73
   18e64:	00003097          	auipc	ra,0x3
   18e68:	c26080e7          	jalr	-986(ra) # 1ba8a <memcpy>
   18e6c:	6505                	lui	a0,0x1
   18e6e:	35c50513          	addi	a0,a0,860 # 135c <.Lline_table_start1+0x1131>
   18e72:	950a                	add	a0,a0,sp
   18e74:	1e8c                	addi	a1,sp,880
   18e76:	ffffe097          	auipc	ra,0xffffe
   18e7a:	31e080e7          	jalr	798(ra) # 17194 <_ZN18complex_no_dynamic3app17hd5b397ebcc830295E>
   18e7e:	398b4503          	lbu	a0,920(s6)
   18e82:	c119                	beqz	a0,18e88 <_start+0x136a>
   18e84:	3010206f          	j	1b984 <_start+0x3e66>
   18e88:	39ab4503          	lbu	a0,922(s6)
   18e8c:	399b4583          	lbu	a1,921(s6)
   18e90:	39bb4603          	lbu	a2,923(s6)
   18e94:	39cb2403          	lw	s0,924(s6)
   18e98:	0522                	slli	a0,a0,0x8
   18e9a:	8d4d                	or	a0,a0,a1
   18e9c:	3ca11023          	sh	a0,960(sp)
   18ea0:	3cc10123          	sb	a2,962(sp)
   18ea4:	6505                	lui	a0,0x1
   18ea6:	36450513          	addi	a0,a0,868 # 1364 <.Lline_table_start1+0x1139>
   18eaa:	00a105b3          	add	a1,sp,a0
   18eae:	454d                	li	a0,19
   18eb0:	0522                	slli	a0,a0,0x8
   18eb2:	950a                	add	a0,a0,sp
   18eb4:	03500613          	li	a2,53
   18eb8:	00003097          	auipc	ra,0x3
   18ebc:	bd2080e7          	jalr	-1070(ra) # 1ba8a <memcpy>
   18ec0:	01845513          	srli	a0,s0,0x18
   18ec4:	01045593          	srli	a1,s0,0x10
   18ec8:	00845613          	srli	a2,s0,0x8
   18ecc:	3c8101a3          	sb	s0,963(sp)
   18ed0:	3cc10223          	sb	a2,964(sp)
   18ed4:	3cb102a3          	sb	a1,965(sp)
   18ed8:	3ca10323          	sb	a0,966(sp)
   18edc:	3c710513          	addi	a0,sp,967
   18ee0:	45cd                	li	a1,19
   18ee2:	05a2                	slli	a1,a1,0x8
   18ee4:	958a                	add	a1,a1,sp
   18ee6:	03500613          	li	a2,53
   18eea:	00003097          	auipc	ra,0x3
   18eee:	ba0080e7          	jalr	-1120(ra) # 1ba8a <memcpy>
   18ef2:	6505                	lui	a0,0x1
   18ef4:	35c50513          	addi	a0,a0,860 # 135c <.Lline_table_start1+0x1131>
   18ef8:	950a                	add	a0,a0,sp
   18efa:	078c                	addi	a1,sp,960
   18efc:	ffffb097          	auipc	ra,0xffffb
   18f00:	f3e080e7          	jalr	-194(ra) # 13e3a <_ZN18complex_no_dynamic3app17h67a043543bf8a2c0E>
   18f04:	398b4503          	lbu	a0,920(s6)
   18f08:	c119                	beqz	a0,18f0e <_start+0x13f0>
   18f0a:	27b0206f          	j	1b984 <_start+0x3e66>
   18f0e:	39ab4503          	lbu	a0,922(s6)
   18f12:	399b4583          	lbu	a1,921(s6)
   18f16:	39bb4603          	lbu	a2,923(s6)
   18f1a:	39cb2403          	lw	s0,924(s6)
   18f1e:	0522                	slli	a0,a0,0x8
   18f20:	8d4d                	or	a0,a0,a1
   18f22:	3ea11e23          	sh	a0,1020(sp)
   18f26:	3ec10f23          	sb	a2,1022(sp)
   18f2a:	6505                	lui	a0,0x1
   18f2c:	36450513          	addi	a0,a0,868 # 1364 <.Lline_table_start1+0x1139>
   18f30:	00a105b3          	add	a1,sp,a0
   18f34:	454d                	li	a0,19
   18f36:	0522                	slli	a0,a0,0x8
   18f38:	950a                	add	a0,a0,sp
   18f3a:	02b00613          	li	a2,43
   18f3e:	00003097          	auipc	ra,0x3
   18f42:	b4c080e7          	jalr	-1204(ra) # 1ba8a <memcpy>
   18f46:	01845513          	srli	a0,s0,0x18
   18f4a:	01045593          	srli	a1,s0,0x10
   18f4e:	00845613          	srli	a2,s0,0x8
   18f52:	3e810fa3          	sb	s0,1023(sp)
   18f56:	40c10023          	sb	a2,1024(sp)
   18f5a:	40b100a3          	sb	a1,1025(sp)
   18f5e:	40a10123          	sb	a0,1026(sp)
   18f62:	40310513          	addi	a0,sp,1027
   18f66:	45cd                	li	a1,19
   18f68:	05a2                	slli	a1,a1,0x8
   18f6a:	958a                	add	a1,a1,sp
   18f6c:	02b00613          	li	a2,43
   18f70:	00003097          	auipc	ra,0x3
   18f74:	b1a080e7          	jalr	-1254(ra) # 1ba8a <memcpy>
   18f78:	6505                	lui	a0,0x1
   18f7a:	35c50513          	addi	a0,a0,860 # 135c <.Lline_table_start1+0x1131>
   18f7e:	950a                	add	a0,a0,sp
   18f80:	1fec                	addi	a1,sp,1020
   18f82:	ffffd097          	auipc	ra,0xffffd
   18f86:	3e4080e7          	jalr	996(ra) # 16366 <_ZN18complex_no_dynamic3app17haf4b3e37890d7b43E>
   18f8a:	398b4503          	lbu	a0,920(s6)
   18f8e:	c119                	beqz	a0,18f94 <_start+0x1476>
   18f90:	1f50206f          	j	1b984 <_start+0x3e66>
   18f94:	39ab4503          	lbu	a0,922(s6)
   18f98:	399b4583          	lbu	a1,921(s6)
   18f9c:	39bb4603          	lbu	a2,923(s6)
   18fa0:	39cb2403          	lw	s0,924(s6)
   18fa4:	0522                	slli	a0,a0,0x8
   18fa6:	8d4d                	or	a0,a0,a1
   18fa8:	42a11723          	sh	a0,1070(sp)
   18fac:	42c10823          	sb	a2,1072(sp)
   18fb0:	6505                	lui	a0,0x1
   18fb2:	36450513          	addi	a0,a0,868 # 1364 <.Lline_table_start1+0x1139>
   18fb6:	00a105b3          	add	a1,sp,a0
   18fba:	454d                	li	a0,19
   18fbc:	0522                	slli	a0,a0,0x8
   18fbe:	950a                	add	a0,a0,sp
   18fc0:	02b00613          	li	a2,43
   18fc4:	00003097          	auipc	ra,0x3
   18fc8:	ac6080e7          	jalr	-1338(ra) # 1ba8a <memcpy>
   18fcc:	01845513          	srli	a0,s0,0x18
   18fd0:	01045593          	srli	a1,s0,0x10
   18fd4:	00845613          	srli	a2,s0,0x8
   18fd8:	428108a3          	sb	s0,1073(sp)
   18fdc:	42c10923          	sb	a2,1074(sp)
   18fe0:	42b109a3          	sb	a1,1075(sp)
   18fe4:	42a10a23          	sb	a0,1076(sp)
   18fe8:	43510513          	addi	a0,sp,1077
   18fec:	45cd                	li	a1,19
   18fee:	05a2                	slli	a1,a1,0x8
   18ff0:	958a                	add	a1,a1,sp
   18ff2:	02b00613          	li	a2,43
   18ff6:	00003097          	auipc	ra,0x3
   18ffa:	a94080e7          	jalr	-1388(ra) # 1ba8a <memcpy>
   18ffe:	6505                	lui	a0,0x1
   19000:	35c50513          	addi	a0,a0,860 # 135c <.Lline_table_start1+0x1131>
   19004:	950a                	add	a0,a0,sp
   19006:	42e10593          	addi	a1,sp,1070
   1900a:	ffffb097          	auipc	ra,0xffffb
   1900e:	292080e7          	jalr	658(ra) # 1429c <_ZN18complex_no_dynamic3app17h6f3b0062c63cdd67E>
   19012:	398b4503          	lbu	a0,920(s6)
   19016:	c119                	beqz	a0,1901c <_start+0x14fe>
   19018:	16d0206f          	j	1b984 <_start+0x3e66>
   1901c:	399b4503          	lbu	a0,921(s6)
   19020:	39ab4583          	lbu	a1,922(s6)
   19024:	39bb4603          	lbu	a2,923(s6)
   19028:	39cb2683          	lw	a3,924(s6)
   1902c:	3a0b2703          	lw	a4,928(s6)
   19030:	3a4b2783          	lw	a5,932(s6)
   19034:	3a8b4483          	lbu	s1,936(s6)
   19038:	05a2                	slli	a1,a1,0x8
   1903a:	32eb2e23          	sw	a4,828(s6)
   1903e:	34fb2023          	sw	a5,832(s6)
   19042:	349b0223          	sb	s1,836(s6)
   19046:	0186d713          	srli	a4,a3,0x18
   1904a:	8d4d                	or	a0,a0,a1
   1904c:	0106d593          	srli	a1,a3,0x10
   19050:	46b102a3          	sb	a1,1125(sp)
   19054:	46e10323          	sb	a4,1126(sp)
   19058:	0086d593          	srli	a1,a3,0x8
   1905c:	46a11023          	sh	a0,1120(sp)
   19060:	46c10123          	sb	a2,1122(sp)
   19064:	46d101a3          	sb	a3,1123(sp)
   19068:	46b10223          	sb	a1,1124(sp)
   1906c:	46710513          	addi	a0,sp,1127
   19070:	45cd                	li	a1,19
   19072:	05a2                	slli	a1,a1,0x8
   19074:	958a                	add	a1,a1,sp
   19076:	4625                	li	a2,9
   19078:	00003097          	auipc	ra,0x3
   1907c:	a12080e7          	jalr	-1518(ra) # 1ba8a <memcpy>
   19080:	6505                	lui	a0,0x1
   19082:	35c50513          	addi	a0,a0,860 # 135c <.Lline_table_start1+0x1131>
   19086:	950a                	add	a0,a0,sp
   19088:	46010593          	addi	a1,sp,1120
   1908c:	ffffe097          	auipc	ra,0xffffe
   19090:	3f4080e7          	jalr	1012(ra) # 17480 <_ZN18complex_no_dynamic3app17he4953ae91dfe7f56E>
   19094:	398b4503          	lbu	a0,920(s6)
   19098:	c119                	beqz	a0,1909e <_start+0x1580>
   1909a:	0eb0206f          	j	1b984 <_start+0x3e66>
   1909e:	39ab4503          	lbu	a0,922(s6)
   190a2:	399b4583          	lbu	a1,921(s6)
   190a6:	39bb4603          	lbu	a2,923(s6)
   190aa:	39cb2403          	lw	s0,924(s6)
   190ae:	0522                	slli	a0,a0,0x8
   190b0:	8d4d                	or	a0,a0,a1
   190b2:	46a11823          	sh	a0,1136(sp)
   190b6:	46c10923          	sb	a2,1138(sp)
   190ba:	6505                	lui	a0,0x1
   190bc:	36450513          	addi	a0,a0,868 # 1364 <.Lline_table_start1+0x1139>
   190c0:	00a105b3          	add	a1,sp,a0
   190c4:	454d                	li	a0,19
   190c6:	0522                	slli	a0,a0,0x8
   190c8:	950a                	add	a0,a0,sp
   190ca:	02f00613          	li	a2,47
   190ce:	00003097          	auipc	ra,0x3
   190d2:	9bc080e7          	jalr	-1604(ra) # 1ba8a <memcpy>
   190d6:	01845513          	srli	a0,s0,0x18
   190da:	01045593          	srli	a1,s0,0x10
   190de:	00845613          	srli	a2,s0,0x8
   190e2:	468109a3          	sb	s0,1139(sp)
   190e6:	46c10a23          	sb	a2,1140(sp)
   190ea:	46b10aa3          	sb	a1,1141(sp)
   190ee:	46a10b23          	sb	a0,1142(sp)
   190f2:	47710513          	addi	a0,sp,1143
   190f6:	45cd                	li	a1,19
   190f8:	05a2                	slli	a1,a1,0x8
   190fa:	958a                	add	a1,a1,sp
   190fc:	02f00613          	li	a2,47
   19100:	00003097          	auipc	ra,0x3
   19104:	98a080e7          	jalr	-1654(ra) # 1ba8a <memcpy>
   19108:	6505                	lui	a0,0x1
   1910a:	35c50513          	addi	a0,a0,860 # 135c <.Lline_table_start1+0x1131>
   1910e:	950a                	add	a0,a0,sp
   19110:	47010593          	addi	a1,sp,1136
   19114:	ffffc097          	auipc	ra,0xffffc
   19118:	bb6080e7          	jalr	-1098(ra) # 14cca <_ZN18complex_no_dynamic3app17h896d3150679a12e0E>
   1911c:	398b4503          	lbu	a0,920(s6)
   19120:	c119                	beqz	a0,19126 <_start+0x1608>
   19122:	0630206f          	j	1b984 <_start+0x3e66>
   19126:	399b4503          	lbu	a0,921(s6)
   1912a:	39ab4583          	lbu	a1,922(s6)
   1912e:	39bb4803          	lbu	a6,923(s6)
   19132:	39cb2683          	lw	a3,924(s6)
   19136:	3a0b2703          	lw	a4,928(s6)
   1913a:	3a4b2783          	lw	a5,932(s6)
   1913e:	05a2                	slli	a1,a1,0x8
   19140:	0186d893          	srli	a7,a3,0x18
   19144:	0106d293          	srli	t0,a3,0x10
   19148:	0187d613          	srli	a2,a5,0x18
   1914c:	0107d493          	srli	s1,a5,0x10
   19150:	0087d413          	srli	s0,a5,0x8
   19154:	8d4d                	or	a0,a0,a1
   19156:	01875593          	srli	a1,a4,0x18
   1915a:	4a9109a3          	sb	s1,1203(sp)
   1915e:	4ac10a23          	sb	a2,1204(sp)
   19162:	01075613          	srli	a2,a4,0x10
   19166:	4ac107a3          	sb	a2,1199(sp)
   1916a:	4ab10823          	sb	a1,1200(sp)
   1916e:	4af108a3          	sb	a5,1201(sp)
   19172:	4a810923          	sb	s0,1202(sp)
   19176:	0086d593          	srli	a1,a3,0x8
   1917a:	4aa11323          	sh	a0,1190(sp)
   1917e:	4b010423          	sb	a6,1192(sp)
   19182:	4ad104a3          	sb	a3,1193(sp)
   19186:	4ab10523          	sb	a1,1194(sp)
   1918a:	00875513          	srli	a0,a4,0x8
   1918e:	4a5105a3          	sb	t0,1195(sp)
   19192:	4b110623          	sb	a7,1196(sp)
   19196:	4ae106a3          	sb	a4,1197(sp)
   1919a:	4aa10723          	sb	a0,1198(sp)
   1919e:	6505                	lui	a0,0x1
   191a0:	35c50513          	addi	a0,a0,860 # 135c <.Lline_table_start1+0x1131>
   191a4:	950a                	add	a0,a0,sp
   191a6:	4a610593          	addi	a1,sp,1190
   191aa:	ffffe097          	auipc	ra,0xffffe
   191ae:	b3c080e7          	jalr	-1220(ra) # 16ce6 <_ZN18complex_no_dynamic3app17hc116035fb968a4bdE>
   191b2:	398b4503          	lbu	a0,920(s6)
   191b6:	c119                	beqz	a0,191bc <_start+0x169e>
   191b8:	7cc0206f          	j	1b984 <_start+0x3e66>
   191bc:	399b4503          	lbu	a0,921(s6)
   191c0:	39ab4583          	lbu	a1,922(s6)
   191c4:	39bb4603          	lbu	a2,923(s6)
   191c8:	39cb2683          	lw	a3,924(s6)
   191cc:	3a0b2703          	lw	a4,928(s6)
   191d0:	3a4b2783          	lw	a5,932(s6)
   191d4:	3a8b2483          	lw	s1,936(s6)
   191d8:	05a2                	slli	a1,a1,0x8
   191da:	32eb2e23          	sw	a4,828(s6)
   191de:	34fb2023          	sw	a5,832(s6)
   191e2:	349b2223          	sw	s1,836(s6)
   191e6:	0186d713          	srli	a4,a3,0x18
   191ea:	8d4d                	or	a0,a0,a1
   191ec:	0106d593          	srli	a1,a3,0x10
   191f0:	4ab10da3          	sb	a1,1211(sp)
   191f4:	4ae10e23          	sb	a4,1212(sp)
   191f8:	0086d593          	srli	a1,a3,0x8
   191fc:	4aa11b23          	sh	a0,1206(sp)
   19200:	4ac10c23          	sb	a2,1208(sp)
   19204:	4ad10ca3          	sb	a3,1209(sp)
   19208:	4ab10d23          	sb	a1,1210(sp)
   1920c:	4bd10513          	addi	a0,sp,1213
   19210:	45cd                	li	a1,19
   19212:	05a2                	slli	a1,a1,0x8
   19214:	958a                	add	a1,a1,sp
   19216:	4631                	li	a2,12
   19218:	00003097          	auipc	ra,0x3
   1921c:	872080e7          	jalr	-1934(ra) # 1ba8a <memcpy>
   19220:	6505                	lui	a0,0x1
   19222:	35c50513          	addi	a0,a0,860 # 135c <.Lline_table_start1+0x1131>
   19226:	950a                	add	a0,a0,sp
   19228:	4b610593          	addi	a1,sp,1206
   1922c:	ffff9097          	auipc	ra,0xffff9
   19230:	4f0080e7          	jalr	1264(ra) # 1271c <_ZN18complex_no_dynamic3app17h341fd51cee7cdbddE>
   19234:	398b4503          	lbu	a0,920(s6)
   19238:	c119                	beqz	a0,1923e <_start+0x1720>
   1923a:	74a0206f          	j	1b984 <_start+0x3e66>
   1923e:	39ab4503          	lbu	a0,922(s6)
   19242:	399b4583          	lbu	a1,921(s6)
   19246:	39bb4603          	lbu	a2,923(s6)
   1924a:	39cb2403          	lw	s0,924(s6)
   1924e:	0522                	slli	a0,a0,0x8
   19250:	8d4d                	or	a0,a0,a1
   19252:	4ca11523          	sh	a0,1226(sp)
   19256:	4cc10623          	sb	a2,1228(sp)
   1925a:	6505                	lui	a0,0x1
   1925c:	36450513          	addi	a0,a0,868 # 1364 <.Lline_table_start1+0x1139>
   19260:	00a105b3          	add	a1,sp,a0
   19264:	454d                	li	a0,19
   19266:	0522                	slli	a0,a0,0x8
   19268:	950a                	add	a0,a0,sp
   1926a:	04e00613          	li	a2,78
   1926e:	00003097          	auipc	ra,0x3
   19272:	81c080e7          	jalr	-2020(ra) # 1ba8a <memcpy>
   19276:	01845513          	srli	a0,s0,0x18
   1927a:	01045593          	srli	a1,s0,0x10
   1927e:	00845613          	srli	a2,s0,0x8
   19282:	4c8106a3          	sb	s0,1229(sp)
   19286:	4cc10723          	sb	a2,1230(sp)
   1928a:	4cb107a3          	sb	a1,1231(sp)
   1928e:	4ca10823          	sb	a0,1232(sp)
   19292:	4d110513          	addi	a0,sp,1233
   19296:	45cd                	li	a1,19
   19298:	05a2                	slli	a1,a1,0x8
   1929a:	958a                	add	a1,a1,sp
   1929c:	04e00613          	li	a2,78
   192a0:	00002097          	auipc	ra,0x2
   192a4:	7ea080e7          	jalr	2026(ra) # 1ba8a <memcpy>
   192a8:	6505                	lui	a0,0x1
   192aa:	35c50513          	addi	a0,a0,860 # 135c <.Lline_table_start1+0x1131>
   192ae:	950a                	add	a0,a0,sp
   192b0:	4ca10593          	addi	a1,sp,1226
   192b4:	ffffa097          	auipc	ra,0xffffa
   192b8:	10a080e7          	jalr	266(ra) # 133be <_ZN18complex_no_dynamic3app17h4fedb7513ff9aaa4E>
   192bc:	398b4503          	lbu	a0,920(s6)
   192c0:	c119                	beqz	a0,192c6 <_start+0x17a8>
   192c2:	6c20206f          	j	1b984 <_start+0x3e66>
   192c6:	39ab4503          	lbu	a0,922(s6)
   192ca:	399b4583          	lbu	a1,921(s6)
   192ce:	39bb4603          	lbu	a2,923(s6)
   192d2:	39cb2403          	lw	s0,924(s6)
   192d6:	0522                	slli	a0,a0,0x8
   192d8:	8d4d                	or	a0,a0,a1
   192da:	52a11023          	sh	a0,1312(sp)
   192de:	52c10123          	sb	a2,1314(sp)
   192e2:	6505                	lui	a0,0x1
   192e4:	36450513          	addi	a0,a0,868 # 1364 <.Lline_table_start1+0x1139>
   192e8:	00a105b3          	add	a1,sp,a0
   192ec:	454d                	li	a0,19
   192ee:	0522                	slli	a0,a0,0x8
   192f0:	950a                	add	a0,a0,sp
   192f2:	02b00613          	li	a2,43
   192f6:	00002097          	auipc	ra,0x2
   192fa:	794080e7          	jalr	1940(ra) # 1ba8a <memcpy>
   192fe:	01845513          	srli	a0,s0,0x18
   19302:	01045593          	srli	a1,s0,0x10
   19306:	00845613          	srli	a2,s0,0x8
   1930a:	528101a3          	sb	s0,1315(sp)
   1930e:	52c10223          	sb	a2,1316(sp)
   19312:	52b102a3          	sb	a1,1317(sp)
   19316:	52a10323          	sb	a0,1318(sp)
   1931a:	52710513          	addi	a0,sp,1319
   1931e:	45cd                	li	a1,19
   19320:	05a2                	slli	a1,a1,0x8
   19322:	958a                	add	a1,a1,sp
   19324:	02b00613          	li	a2,43
   19328:	00002097          	auipc	ra,0x2
   1932c:	762080e7          	jalr	1890(ra) # 1ba8a <memcpy>
   19330:	6505                	lui	a0,0x1
   19332:	35c50513          	addi	a0,a0,860 # 135c <.Lline_table_start1+0x1131>
   19336:	950a                	add	a0,a0,sp
   19338:	52010593          	addi	a1,sp,1312
   1933c:	ffffb097          	auipc	ra,0xffffb
   19340:	71c080e7          	jalr	1820(ra) # 14a58 <_ZN18complex_no_dynamic3app17h85566205037905b6E>
   19344:	398b4503          	lbu	a0,920(s6)
   19348:	c119                	beqz	a0,1934e <_start+0x1830>
   1934a:	63a0206f          	j	1b984 <_start+0x3e66>
   1934e:	39ab4503          	lbu	a0,922(s6)
   19352:	399b4583          	lbu	a1,921(s6)
   19356:	39bb4603          	lbu	a2,923(s6)
   1935a:	39cb2403          	lw	s0,924(s6)
   1935e:	0522                	slli	a0,a0,0x8
   19360:	8d4d                	or	a0,a0,a1
   19362:	54a11923          	sh	a0,1362(sp)
   19366:	54c10a23          	sb	a2,1364(sp)
   1936a:	6505                	lui	a0,0x1
   1936c:	36450513          	addi	a0,a0,868 # 1364 <.Lline_table_start1+0x1139>
   19370:	00a105b3          	add	a1,sp,a0
   19374:	454d                	li	a0,19
   19376:	0522                	slli	a0,a0,0x8
   19378:	950a                	add	a0,a0,sp
   1937a:	03a00613          	li	a2,58
   1937e:	00002097          	auipc	ra,0x2
   19382:	70c080e7          	jalr	1804(ra) # 1ba8a <memcpy>
   19386:	01845513          	srli	a0,s0,0x18
   1938a:	01045593          	srli	a1,s0,0x10
   1938e:	00845613          	srli	a2,s0,0x8
   19392:	54810aa3          	sb	s0,1365(sp)
   19396:	54c10b23          	sb	a2,1366(sp)
   1939a:	54b10ba3          	sb	a1,1367(sp)
   1939e:	54a10c23          	sb	a0,1368(sp)
   193a2:	55910513          	addi	a0,sp,1369
   193a6:	45cd                	li	a1,19
   193a8:	05a2                	slli	a1,a1,0x8
   193aa:	958a                	add	a1,a1,sp
   193ac:	03a00613          	li	a2,58
   193b0:	00002097          	auipc	ra,0x2
   193b4:	6da080e7          	jalr	1754(ra) # 1ba8a <memcpy>
   193b8:	6505                	lui	a0,0x1
   193ba:	35c50513          	addi	a0,a0,860 # 135c <.Lline_table_start1+0x1131>
   193be:	950a                	add	a0,a0,sp
   193c0:	55210593          	addi	a1,sp,1362
   193c4:	ffffa097          	auipc	ra,0xffffa
   193c8:	efc080e7          	jalr	-260(ra) # 132c0 <_ZN18complex_no_dynamic3app17h4f3557670c7cd438E>
   193cc:	398b4503          	lbu	a0,920(s6)
   193d0:	c119                	beqz	a0,193d6 <_start+0x18b8>
   193d2:	5b20206f          	j	1b984 <_start+0x3e66>
   193d6:	399b4503          	lbu	a0,921(s6)
   193da:	39ab4583          	lbu	a1,922(s6)
   193de:	39bb4603          	lbu	a2,923(s6)
   193e2:	39cb2683          	lw	a3,924(s6)
   193e6:	3a0b2703          	lw	a4,928(s6)
   193ea:	3a4b2783          	lw	a5,932(s6)
   193ee:	3a8b2483          	lw	s1,936(s6)
   193f2:	3acb2403          	lw	s0,940(s6)
   193f6:	32eb2e23          	sw	a4,828(s6)
   193fa:	34fb2023          	sw	a5,832(s6)
   193fe:	349b2223          	sw	s1,836(s6)
   19402:	348b2423          	sw	s0,840(s6)
   19406:	3b0b2703          	lw	a4,944(s6)
   1940a:	3b4b2783          	lw	a5,948(s6)
   1940e:	3b8b1483          	lh	s1,952(s6)
   19412:	3bab4403          	lbu	s0,954(s6)
   19416:	05a2                	slli	a1,a1,0x8
   19418:	34eb2623          	sw	a4,844(s6)
   1941c:	34fb2823          	sw	a5,848(s6)
   19420:	349b1a23          	sh	s1,852(s6)
   19424:	348b0b23          	sb	s0,854(s6)
   19428:	0186d713          	srli	a4,a3,0x18
   1942c:	8d4d                	or	a0,a0,a1
   1942e:	0106d593          	srli	a1,a3,0x10
   19432:	58b10ca3          	sb	a1,1433(sp)
   19436:	58e10d23          	sb	a4,1434(sp)
   1943a:	0086d593          	srli	a1,a3,0x8
   1943e:	58a11a23          	sh	a0,1428(sp)
   19442:	58c10b23          	sb	a2,1430(sp)
   19446:	58d10ba3          	sb	a3,1431(sp)
   1944a:	58b10c23          	sb	a1,1432(sp)
   1944e:	59b10513          	addi	a0,sp,1435
   19452:	45cd                	li	a1,19
   19454:	05a2                	slli	a1,a1,0x8
   19456:	958a                	add	a1,a1,sp
   19458:	466d                	li	a2,27
   1945a:	00002097          	auipc	ra,0x2
   1945e:	630080e7          	jalr	1584(ra) # 1ba8a <memcpy>
   19462:	6505                	lui	a0,0x1
   19464:	35c50513          	addi	a0,a0,860 # 135c <.Lline_table_start1+0x1131>
   19468:	950a                	add	a0,a0,sp
   1946a:	59410593          	addi	a1,sp,1428
   1946e:	ffffb097          	auipc	ra,0xffffb
   19472:	0fc080e7          	jalr	252(ra) # 1456a <_ZN18complex_no_dynamic3app17h76c5552f9ad24715E>
   19476:	398b4503          	lbu	a0,920(s6)
   1947a:	c119                	beqz	a0,19480 <_start+0x1962>
   1947c:	5080206f          	j	1b984 <_start+0x3e66>
   19480:	39ab4503          	lbu	a0,922(s6)
   19484:	399b4583          	lbu	a1,921(s6)
   19488:	39bb4603          	lbu	a2,923(s6)
   1948c:	39cb2403          	lw	s0,924(s6)
   19490:	0522                	slli	a0,a0,0x8
   19492:	8d4d                	or	a0,a0,a1
   19494:	5aa11b23          	sh	a0,1462(sp)
   19498:	5ac10c23          	sb	a2,1464(sp)
   1949c:	6505                	lui	a0,0x1
   1949e:	36450513          	addi	a0,a0,868 # 1364 <.Lline_table_start1+0x1139>
   194a2:	00a105b3          	add	a1,sp,a0
   194a6:	454d                	li	a0,19
   194a8:	0522                	slli	a0,a0,0x8
   194aa:	950a                	add	a0,a0,sp
   194ac:	04a00613          	li	a2,74
   194b0:	00002097          	auipc	ra,0x2
   194b4:	5da080e7          	jalr	1498(ra) # 1ba8a <memcpy>
   194b8:	01845513          	srli	a0,s0,0x18
   194bc:	01045593          	srli	a1,s0,0x10
   194c0:	00845613          	srli	a2,s0,0x8
   194c4:	5a810ca3          	sb	s0,1465(sp)
   194c8:	5ac10d23          	sb	a2,1466(sp)
   194cc:	5ab10da3          	sb	a1,1467(sp)
   194d0:	5aa10e23          	sb	a0,1468(sp)
   194d4:	5bd10513          	addi	a0,sp,1469
   194d8:	45cd                	li	a1,19
   194da:	05a2                	slli	a1,a1,0x8
   194dc:	958a                	add	a1,a1,sp
   194de:	04a00613          	li	a2,74
   194e2:	00002097          	auipc	ra,0x2
   194e6:	5a8080e7          	jalr	1448(ra) # 1ba8a <memcpy>
   194ea:	6505                	lui	a0,0x1
   194ec:	35c50513          	addi	a0,a0,860 # 135c <.Lline_table_start1+0x1131>
   194f0:	950a                	add	a0,a0,sp
   194f2:	5b610593          	addi	a1,sp,1462
   194f6:	ffff8097          	auipc	ra,0xffff8
   194fa:	f18080e7          	jalr	-232(ra) # 1140e <_ZN18complex_no_dynamic3app17h1059ec75e3565da3E>
   194fe:	398b4503          	lbu	a0,920(s6)
   19502:	c119                	beqz	a0,19508 <_start+0x19ea>
   19504:	4800206f          	j	1b984 <_start+0x3e66>
   19508:	39ab4503          	lbu	a0,922(s6)
   1950c:	399b4583          	lbu	a1,921(s6)
   19510:	39bb4603          	lbu	a2,923(s6)
   19514:	39cb2403          	lw	s0,924(s6)
   19518:	0522                	slli	a0,a0,0x8
   1951a:	8d4d                	or	a0,a0,a1
   1951c:	60a11423          	sh	a0,1544(sp)
   19520:	60c10523          	sb	a2,1546(sp)
   19524:	6505                	lui	a0,0x1
   19526:	36450513          	addi	a0,a0,868 # 1364 <.Lline_table_start1+0x1139>
   1952a:	00a105b3          	add	a1,sp,a0
   1952e:	454d                	li	a0,19
   19530:	0522                	slli	a0,a0,0x8
   19532:	950a                	add	a0,a0,sp
   19534:	04800613          	li	a2,72
   19538:	00002097          	auipc	ra,0x2
   1953c:	552080e7          	jalr	1362(ra) # 1ba8a <memcpy>
   19540:	01845513          	srli	a0,s0,0x18
   19544:	01045593          	srli	a1,s0,0x10
   19548:	00845613          	srli	a2,s0,0x8
   1954c:	608105a3          	sb	s0,1547(sp)
   19550:	60c10623          	sb	a2,1548(sp)
   19554:	60b106a3          	sb	a1,1549(sp)
   19558:	60a10723          	sb	a0,1550(sp)
   1955c:	60f10513          	addi	a0,sp,1551
   19560:	45cd                	li	a1,19
   19562:	05a2                	slli	a1,a1,0x8
   19564:	958a                	add	a1,a1,sp
   19566:	04800613          	li	a2,72
   1956a:	00002097          	auipc	ra,0x2
   1956e:	520080e7          	jalr	1312(ra) # 1ba8a <memcpy>
   19572:	6505                	lui	a0,0x1
   19574:	35c50513          	addi	a0,a0,860 # 135c <.Lline_table_start1+0x1131>
   19578:	950a                	add	a0,a0,sp
   1957a:	60810593          	addi	a1,sp,1544
   1957e:	ffffd097          	auipc	ra,0xffffd
   19582:	a08080e7          	jalr	-1528(ra) # 15f86 <_ZN18complex_no_dynamic3app17haa33980be5e5d6f1E>
   19586:	398b4503          	lbu	a0,920(s6)
   1958a:	c119                	beqz	a0,19590 <_start+0x1a72>
   1958c:	3f80206f          	j	1b984 <_start+0x3e66>
   19590:	39ab4503          	lbu	a0,922(s6)
   19594:	399b4583          	lbu	a1,921(s6)
   19598:	39bb4603          	lbu	a2,923(s6)
   1959c:	39cb2403          	lw	s0,924(s6)
   195a0:	0522                	slli	a0,a0,0x8
   195a2:	8d4d                	or	a0,a0,a1
   195a4:	64a11c23          	sh	a0,1624(sp)
   195a8:	64c10d23          	sb	a2,1626(sp)
   195ac:	6505                	lui	a0,0x1
   195ae:	36450513          	addi	a0,a0,868 # 1364 <.Lline_table_start1+0x1139>
   195b2:	00a105b3          	add	a1,sp,a0
   195b6:	454d                	li	a0,19
   195b8:	0522                	slli	a0,a0,0x8
   195ba:	950a                	add	a0,a0,sp
   195bc:	03400613          	li	a2,52
   195c0:	00002097          	auipc	ra,0x2
   195c4:	4ca080e7          	jalr	1226(ra) # 1ba8a <memcpy>
   195c8:	01845513          	srli	a0,s0,0x18
   195cc:	01045593          	srli	a1,s0,0x10
   195d0:	00845613          	srli	a2,s0,0x8
   195d4:	64810da3          	sb	s0,1627(sp)
   195d8:	64c10e23          	sb	a2,1628(sp)
   195dc:	64b10ea3          	sb	a1,1629(sp)
   195e0:	64a10f23          	sb	a0,1630(sp)
   195e4:	65f10513          	addi	a0,sp,1631
   195e8:	45cd                	li	a1,19
   195ea:	05a2                	slli	a1,a1,0x8
   195ec:	958a                	add	a1,a1,sp
   195ee:	03400613          	li	a2,52
   195f2:	00002097          	auipc	ra,0x2
   195f6:	498080e7          	jalr	1176(ra) # 1ba8a <memcpy>
   195fa:	6505                	lui	a0,0x1
   195fc:	35c50513          	addi	a0,a0,860 # 135c <.Lline_table_start1+0x1131>
   19600:	950a                	add	a0,a0,sp
   19602:	65810593          	addi	a1,sp,1624
   19606:	ffffa097          	auipc	ra,0xffffa
   1960a:	35c080e7          	jalr	860(ra) # 13962 <_ZN18complex_no_dynamic3app17h60a218fc3c820718E>
   1960e:	398b4503          	lbu	a0,920(s6)
   19612:	c119                	beqz	a0,19618 <_start+0x1afa>
   19614:	3700206f          	j	1b984 <_start+0x3e66>
   19618:	399b4503          	lbu	a0,921(s6)
   1961c:	39ab4583          	lbu	a1,922(s6)
   19620:	39bb4603          	lbu	a2,923(s6)
   19624:	39cb2683          	lw	a3,924(s6)
   19628:	3a0b2703          	lw	a4,928(s6)
   1962c:	3a4b2783          	lw	a5,932(s6)
   19630:	3a8b2483          	lw	s1,936(s6)
   19634:	3acb2403          	lw	s0,940(s6)
   19638:	32eb2e23          	sw	a4,828(s6)
   1963c:	34fb2023          	sw	a5,832(s6)
   19640:	349b2223          	sw	s1,836(s6)
   19644:	348b2423          	sw	s0,840(s6)
   19648:	3b0b2703          	lw	a4,944(s6)
   1964c:	3b4b2783          	lw	a5,948(s6)
   19650:	3b8b2483          	lw	s1,952(s6)
   19654:	3bcb2403          	lw	s0,956(s6)
   19658:	05a2                	slli	a1,a1,0x8
   1965a:	34eb2623          	sw	a4,844(s6)
   1965e:	34fb2823          	sw	a5,848(s6)
   19662:	349b2a23          	sw	s1,852(s6)
   19666:	348b2c23          	sw	s0,856(s6)
   1966a:	0186d713          	srli	a4,a3,0x18
   1966e:	8d4d                	or	a0,a0,a1
   19670:	0106d593          	srli	a1,a3,0x10
   19674:	68b10ca3          	sb	a1,1689(sp)
   19678:	68e10d23          	sb	a4,1690(sp)
   1967c:	0086d593          	srli	a1,a3,0x8
   19680:	68a11a23          	sh	a0,1684(sp)
   19684:	68c10b23          	sb	a2,1686(sp)
   19688:	68d10ba3          	sb	a3,1687(sp)
   1968c:	68b10c23          	sb	a1,1688(sp)
   19690:	69b10513          	addi	a0,sp,1691
   19694:	45cd                	li	a1,19
   19696:	05a2                	slli	a1,a1,0x8
   19698:	958a                	add	a1,a1,sp
   1969a:	02000613          	li	a2,32
   1969e:	00002097          	auipc	ra,0x2
   196a2:	3ec080e7          	jalr	1004(ra) # 1ba8a <memcpy>
   196a6:	6505                	lui	a0,0x1
   196a8:	35c50513          	addi	a0,a0,860 # 135c <.Lline_table_start1+0x1131>
   196ac:	950a                	add	a0,a0,sp
   196ae:	69410593          	addi	a1,sp,1684
   196b2:	ffffe097          	auipc	ra,0xffffe
   196b6:	18c080e7          	jalr	396(ra) # 1783e <_ZN18complex_no_dynamic3app17hf2b9fbd1e9bfc33eE>
   196ba:	398b4503          	lbu	a0,920(s6)
   196be:	c119                	beqz	a0,196c4 <_start+0x1ba6>
   196c0:	2c40206f          	j	1b984 <_start+0x3e66>
   196c4:	399b4503          	lbu	a0,921(s6)
   196c8:	39ab4583          	lbu	a1,922(s6)
   196cc:	39bb4603          	lbu	a2,923(s6)
   196d0:	39cb2683          	lw	a3,924(s6)
   196d4:	3a0b2703          	lw	a4,928(s6)
   196d8:	3a4b2783          	lw	a5,932(s6)
   196dc:	3a8b2483          	lw	s1,936(s6)
   196e0:	3acb4403          	lbu	s0,940(s6)
   196e4:	05a2                	slli	a1,a1,0x8
   196e6:	32eb2e23          	sw	a4,828(s6)
   196ea:	34fb2023          	sw	a5,832(s6)
   196ee:	349b2223          	sw	s1,836(s6)
   196f2:	348b0423          	sb	s0,840(s6)
   196f6:	0186d713          	srli	a4,a3,0x18
   196fa:	8d4d                	or	a0,a0,a1
   196fc:	0106d593          	srli	a1,a3,0x10
   19700:	6cb100a3          	sb	a1,1729(sp)
   19704:	6ce10123          	sb	a4,1730(sp)
   19708:	0086d593          	srli	a1,a3,0x8
   1970c:	6aa11e23          	sh	a0,1724(sp)
   19710:	6ac10f23          	sb	a2,1726(sp)
   19714:	6ad10fa3          	sb	a3,1727(sp)
   19718:	6cb10023          	sb	a1,1728(sp)
   1971c:	6c310513          	addi	a0,sp,1731
   19720:	45cd                	li	a1,19
   19722:	05a2                	slli	a1,a1,0x8
   19724:	958a                	add	a1,a1,sp
   19726:	4635                	li	a2,13
   19728:	00002097          	auipc	ra,0x2
   1972c:	362080e7          	jalr	866(ra) # 1ba8a <memcpy>
   19730:	6505                	lui	a0,0x1
   19732:	35c50513          	addi	a0,a0,860 # 135c <.Lline_table_start1+0x1131>
   19736:	950a                	add	a0,a0,sp
   19738:	6bc10593          	addi	a1,sp,1724
   1973c:	ffff9097          	auipc	ra,0xffff9
   19740:	16e080e7          	jalr	366(ra) # 128aa <_ZN18complex_no_dynamic3app17h399a38791e39ada1E>
   19744:	398b4503          	lbu	a0,920(s6)
   19748:	c119                	beqz	a0,1974e <_start+0x1c30>
   1974a:	23a0206f          	j	1b984 <_start+0x3e66>
   1974e:	39ab4503          	lbu	a0,922(s6)
   19752:	399b4583          	lbu	a1,921(s6)
   19756:	39bb4603          	lbu	a2,923(s6)
   1975a:	39cb2403          	lw	s0,924(s6)
   1975e:	0522                	slli	a0,a0,0x8
   19760:	8d4d                	or	a0,a0,a1
   19762:	6ca11823          	sh	a0,1744(sp)
   19766:	6cc10923          	sb	a2,1746(sp)
   1976a:	6505                	lui	a0,0x1
   1976c:	36450513          	addi	a0,a0,868 # 1364 <.Lline_table_start1+0x1139>
   19770:	00a105b3          	add	a1,sp,a0
   19774:	454d                	li	a0,19
   19776:	0522                	slli	a0,a0,0x8
   19778:	950a                	add	a0,a0,sp
   1977a:	02400613          	li	a2,36
   1977e:	00002097          	auipc	ra,0x2
   19782:	30c080e7          	jalr	780(ra) # 1ba8a <memcpy>
   19786:	01845513          	srli	a0,s0,0x18
   1978a:	01045593          	srli	a1,s0,0x10
   1978e:	00845613          	srli	a2,s0,0x8
   19792:	6c8109a3          	sb	s0,1747(sp)
   19796:	6cc10a23          	sb	a2,1748(sp)
   1979a:	6cb10aa3          	sb	a1,1749(sp)
   1979e:	6ca10b23          	sb	a0,1750(sp)
   197a2:	6d710513          	addi	a0,sp,1751
   197a6:	45cd                	li	a1,19
   197a8:	05a2                	slli	a1,a1,0x8
   197aa:	958a                	add	a1,a1,sp
   197ac:	02400613          	li	a2,36
   197b0:	00002097          	auipc	ra,0x2
   197b4:	2da080e7          	jalr	730(ra) # 1ba8a <memcpy>
   197b8:	6505                	lui	a0,0x1
   197ba:	35c50513          	addi	a0,a0,860 # 135c <.Lline_table_start1+0x1131>
   197be:	950a                	add	a0,a0,sp
   197c0:	6d010593          	addi	a1,sp,1744
   197c4:	ffffc097          	auipc	ra,0xffffc
   197c8:	fa0080e7          	jalr	-96(ra) # 15764 <_ZN18complex_no_dynamic3app17h9a9097db920f57f8E>
   197cc:	398b4503          	lbu	a0,920(s6)
   197d0:	c119                	beqz	a0,197d6 <_start+0x1cb8>
   197d2:	1b20206f          	j	1b984 <_start+0x3e66>
   197d6:	399b4503          	lbu	a0,921(s6)
   197da:	39ab4583          	lbu	a1,922(s6)
   197de:	39bb4603          	lbu	a2,923(s6)
   197e2:	39cb2683          	lw	a3,924(s6)
   197e6:	3a0b2703          	lw	a4,928(s6)
   197ea:	3a4b2783          	lw	a5,932(s6)
   197ee:	3a8b2483          	lw	s1,936(s6)
   197f2:	3acb2403          	lw	s0,940(s6)
   197f6:	32eb2e23          	sw	a4,828(s6)
   197fa:	34fb2023          	sw	a5,832(s6)
   197fe:	349b2223          	sw	s1,836(s6)
   19802:	348b2423          	sw	s0,840(s6)
   19806:	3b0b2703          	lw	a4,944(s6)
   1980a:	3b4b1783          	lh	a5,948(s6)
   1980e:	3b6b4483          	lbu	s1,950(s6)
   19812:	05a2                	slli	a1,a1,0x8
   19814:	34eb2623          	sw	a4,844(s6)
   19818:	34fb1823          	sh	a5,848(s6)
   1981c:	349b0923          	sb	s1,850(s6)
   19820:	0186d713          	srli	a4,a3,0x18
   19824:	8d4d                	or	a0,a0,a1
   19826:	0106d593          	srli	a1,a3,0x10
   1982a:	70b100a3          	sb	a1,1793(sp)
   1982e:	70e10123          	sb	a4,1794(sp)
   19832:	0086d593          	srli	a1,a3,0x8
   19836:	6ea11e23          	sh	a0,1788(sp)
   1983a:	6ec10f23          	sb	a2,1790(sp)
   1983e:	6ed10fa3          	sb	a3,1791(sp)
   19842:	70b10023          	sb	a1,1792(sp)
   19846:	70310513          	addi	a0,sp,1795
   1984a:	45cd                	li	a1,19
   1984c:	05a2                	slli	a1,a1,0x8
   1984e:	958a                	add	a1,a1,sp
   19850:	465d                	li	a2,23
   19852:	00002097          	auipc	ra,0x2
   19856:	238080e7          	jalr	568(ra) # 1ba8a <memcpy>
   1985a:	6505                	lui	a0,0x1
   1985c:	35c50513          	addi	a0,a0,860 # 135c <.Lline_table_start1+0x1131>
   19860:	950a                	add	a0,a0,sp
   19862:	6fc10593          	addi	a1,sp,1788
   19866:	ffffa097          	auipc	ra,0xffffa
   1986a:	6d0080e7          	jalr	1744(ra) # 13f36 <_ZN18complex_no_dynamic3app17h6895f89b5693ea64E>
   1986e:	398b4503          	lbu	a0,920(s6)
   19872:	c119                	beqz	a0,19878 <_start+0x1d5a>
   19874:	1100206f          	j	1b984 <_start+0x3e66>
   19878:	39ab4503          	lbu	a0,922(s6)
   1987c:	399b4583          	lbu	a1,921(s6)
   19880:	39bb4603          	lbu	a2,923(s6)
   19884:	39cb2403          	lw	s0,924(s6)
   19888:	0522                	slli	a0,a0,0x8
   1988a:	8d4d                	or	a0,a0,a1
   1988c:	70a11d23          	sh	a0,1818(sp)
   19890:	70c10e23          	sb	a2,1820(sp)
   19894:	6505                	lui	a0,0x1
   19896:	36450513          	addi	a0,a0,868 # 1364 <.Lline_table_start1+0x1139>
   1989a:	00a105b3          	add	a1,sp,a0
   1989e:	454d                	li	a0,19
   198a0:	0522                	slli	a0,a0,0x8
   198a2:	950a                	add	a0,a0,sp
   198a4:	04a00613          	li	a2,74
   198a8:	00002097          	auipc	ra,0x2
   198ac:	1e2080e7          	jalr	482(ra) # 1ba8a <memcpy>
   198b0:	01845513          	srli	a0,s0,0x18
   198b4:	01045593          	srli	a1,s0,0x10
   198b8:	00845613          	srli	a2,s0,0x8
   198bc:	70810ea3          	sb	s0,1821(sp)
   198c0:	70c10f23          	sb	a2,1822(sp)
   198c4:	70b10fa3          	sb	a1,1823(sp)
   198c8:	72a10023          	sb	a0,1824(sp)
   198cc:	72110513          	addi	a0,sp,1825
   198d0:	45cd                	li	a1,19
   198d2:	05a2                	slli	a1,a1,0x8
   198d4:	958a                	add	a1,a1,sp
   198d6:	04a00613          	li	a2,74
   198da:	00002097          	auipc	ra,0x2
   198de:	1b0080e7          	jalr	432(ra) # 1ba8a <memcpy>
   198e2:	6505                	lui	a0,0x1
   198e4:	35c50513          	addi	a0,a0,860 # 135c <.Lline_table_start1+0x1131>
   198e8:	950a                	add	a0,a0,sp
   198ea:	71a10593          	addi	a1,sp,1818
   198ee:	ffff8097          	auipc	ra,0xffff8
   198f2:	f02080e7          	jalr	-254(ra) # 117f0 <_ZN18complex_no_dynamic3app17h1a9f63ea001f8786E>
   198f6:	398b4503          	lbu	a0,920(s6)
   198fa:	c119                	beqz	a0,19900 <_start+0x1de2>
   198fc:	0880206f          	j	1b984 <_start+0x3e66>
   19900:	399b4503          	lbu	a0,921(s6)
   19904:	39ab4583          	lbu	a1,922(s6)
   19908:	39bb4803          	lbu	a6,923(s6)
   1990c:	39cb2683          	lw	a3,924(s6)
   19910:	3a0b2703          	lw	a4,928(s6)
   19914:	3a4b2783          	lw	a5,932(s6)
   19918:	05a2                	slli	a1,a1,0x8
   1991a:	0186d893          	srli	a7,a3,0x18
   1991e:	0106d293          	srli	t0,a3,0x10
   19922:	0187d613          	srli	a2,a5,0x18
   19926:	0107d493          	srli	s1,a5,0x10
   1992a:	0087d413          	srli	s0,a5,0x8
   1992e:	8d4d                	or	a0,a0,a1
   19930:	01875593          	srli	a1,a4,0x18
   19934:	76910ca3          	sb	s1,1913(sp)
   19938:	76c10d23          	sb	a2,1914(sp)
   1993c:	01075613          	srli	a2,a4,0x10
   19940:	76c10aa3          	sb	a2,1909(sp)
   19944:	76b10b23          	sb	a1,1910(sp)
   19948:	76f10ba3          	sb	a5,1911(sp)
   1994c:	76810c23          	sb	s0,1912(sp)
   19950:	0086d593          	srli	a1,a3,0x8
   19954:	76a11623          	sh	a0,1900(sp)
   19958:	77010723          	sb	a6,1902(sp)
   1995c:	76d107a3          	sb	a3,1903(sp)
   19960:	76b10823          	sb	a1,1904(sp)
   19964:	00875513          	srli	a0,a4,0x8
   19968:	765108a3          	sb	t0,1905(sp)
   1996c:	77110923          	sb	a7,1906(sp)
   19970:	76e109a3          	sb	a4,1907(sp)
   19974:	76a10a23          	sb	a0,1908(sp)
   19978:	6505                	lui	a0,0x1
   1997a:	35c50513          	addi	a0,a0,860 # 135c <.Lline_table_start1+0x1131>
   1997e:	950a                	add	a0,a0,sp
   19980:	76c10593          	addi	a1,sp,1900
   19984:	ffffd097          	auipc	ra,0xffffd
   19988:	5ba080e7          	jalr	1466(ra) # 16f3e <_ZN18complex_no_dynamic3app17hc8d9e537d5eb6b2bE>
   1998c:	398b4503          	lbu	a0,920(s6)
   19990:	c119                	beqz	a0,19996 <_start+0x1e78>
   19992:	7f30106f          	j	1b984 <_start+0x3e66>
   19996:	39ab4503          	lbu	a0,922(s6)
   1999a:	399b4583          	lbu	a1,921(s6)
   1999e:	39bb4603          	lbu	a2,923(s6)
   199a2:	39cb2403          	lw	s0,924(s6)
   199a6:	0522                	slli	a0,a0,0x8
   199a8:	8d4d                	or	a0,a0,a1
   199aa:	76a11e23          	sh	a0,1916(sp)
   199ae:	76c10f23          	sb	a2,1918(sp)
   199b2:	6505                	lui	a0,0x1
   199b4:	36450513          	addi	a0,a0,868 # 1364 <.Lline_table_start1+0x1139>
   199b8:	00a105b3          	add	a1,sp,a0
   199bc:	454d                	li	a0,19
   199be:	0522                	slli	a0,a0,0x8
   199c0:	950a                	add	a0,a0,sp
   199c2:	03f00613          	li	a2,63
   199c6:	00002097          	auipc	ra,0x2
   199ca:	0c4080e7          	jalr	196(ra) # 1ba8a <memcpy>
   199ce:	01845513          	srli	a0,s0,0x18
   199d2:	01045593          	srli	a1,s0,0x10
   199d6:	00845613          	srli	a2,s0,0x8
   199da:	76810fa3          	sb	s0,1919(sp)
   199de:	78c10023          	sb	a2,1920(sp)
   199e2:	78b100a3          	sb	a1,1921(sp)
   199e6:	78a10123          	sb	a0,1922(sp)
   199ea:	78310513          	addi	a0,sp,1923
   199ee:	45cd                	li	a1,19
   199f0:	05a2                	slli	a1,a1,0x8
   199f2:	958a                	add	a1,a1,sp
   199f4:	03f00613          	li	a2,63
   199f8:	00002097          	auipc	ra,0x2
   199fc:	092080e7          	jalr	146(ra) # 1ba8a <memcpy>
   19a00:	6505                	lui	a0,0x1
   19a02:	35c50513          	addi	a0,a0,860 # 135c <.Lline_table_start1+0x1131>
   19a06:	950a                	add	a0,a0,sp
   19a08:	77c10593          	addi	a1,sp,1916
   19a0c:	ffffa097          	auipc	ra,0xffffa
   19a10:	b9c080e7          	jalr	-1124(ra) # 135a8 <_ZN18complex_no_dynamic3app17h54f427a95d7bd583E>
   19a14:	398b4503          	lbu	a0,920(s6)
   19a18:	c119                	beqz	a0,19a1e <_start+0x1f00>
   19a1a:	76b0106f          	j	1b984 <_start+0x3e66>
   19a1e:	39ab4503          	lbu	a0,922(s6)
   19a22:	399b4583          	lbu	a1,921(s6)
   19a26:	39bb4603          	lbu	a2,923(s6)
   19a2a:	39cb2483          	lw	s1,924(s6)
   19a2e:	0522                	slli	a0,a0,0x8
   19a30:	8d4d                	or	a0,a0,a1
   19a32:	7c410413          	addi	s0,sp,1988
   19a36:	fea41f23          	sh	a0,-2(s0)
   19a3a:	00c40023          	sb	a2,0(s0)
   19a3e:	6505                	lui	a0,0x1
   19a40:	36450513          	addi	a0,a0,868 # 1364 <.Lline_table_start1+0x1139>
   19a44:	00a105b3          	add	a1,sp,a0
   19a48:	454d                	li	a0,19
   19a4a:	0522                	slli	a0,a0,0x8
   19a4c:	950a                	add	a0,a0,sp
   19a4e:	04f00613          	li	a2,79
   19a52:	00002097          	auipc	ra,0x2
   19a56:	038080e7          	jalr	56(ra) # 1ba8a <memcpy>
   19a5a:	0184d513          	srli	a0,s1,0x18
   19a5e:	0104d593          	srli	a1,s1,0x10
   19a62:	0084d613          	srli	a2,s1,0x8
   19a66:	009400a3          	sb	s1,1(s0)
   19a6a:	00c40123          	sb	a2,2(s0)
   19a6e:	00b401a3          	sb	a1,3(s0)
   19a72:	00a40223          	sb	a0,4(s0)
   19a76:	7c910513          	addi	a0,sp,1993
   19a7a:	45cd                	li	a1,19
   19a7c:	05a2                	slli	a1,a1,0x8
   19a7e:	958a                	add	a1,a1,sp
   19a80:	04f00613          	li	a2,79
   19a84:	00002097          	auipc	ra,0x2
   19a88:	006080e7          	jalr	6(ra) # 1ba8a <memcpy>
   19a8c:	6505                	lui	a0,0x1
   19a8e:	35c50513          	addi	a0,a0,860 # 135c <.Lline_table_start1+0x1131>
   19a92:	950a                	add	a0,a0,sp
   19a94:	7c210593          	addi	a1,sp,1986
   19a98:	ffffa097          	auipc	ra,0xffffa
   19a9c:	1b0080e7          	jalr	432(ra) # 13c48 <_ZN18complex_no_dynamic3app17h66612f856908dceaE>
   19aa0:	398b4503          	lbu	a0,920(s6)
   19aa4:	c119                	beqz	a0,19aaa <_start+0x1f8c>
   19aa6:	6df0106f          	j	1b984 <_start+0x3e66>
   19aaa:	39ab4503          	lbu	a0,922(s6)
   19aae:	399b4583          	lbu	a1,921(s6)
   19ab2:	39bb4603          	lbu	a2,923(s6)
   19ab6:	39cb2483          	lw	s1,924(s6)
   19aba:	0522                	slli	a0,a0,0x8
   19abc:	8d4d                	or	a0,a0,a1
   19abe:	04a41a23          	sh	a0,84(s0)
   19ac2:	04c40b23          	sb	a2,86(s0)
   19ac6:	6505                	lui	a0,0x1
   19ac8:	36450513          	addi	a0,a0,868 # 1364 <.Lline_table_start1+0x1139>
   19acc:	00a105b3          	add	a1,sp,a0
   19ad0:	454d                	li	a0,19
   19ad2:	0522                	slli	a0,a0,0x8
   19ad4:	950a                	add	a0,a0,sp
   19ad6:	04200613          	li	a2,66
   19ada:	00002097          	auipc	ra,0x2
   19ade:	fb0080e7          	jalr	-80(ra) # 1ba8a <memcpy>
   19ae2:	0184d513          	srli	a0,s1,0x18
   19ae6:	0104d593          	srli	a1,s1,0x10
   19aea:	0084d613          	srli	a2,s1,0x8
   19aee:	04940ba3          	sb	s1,87(s0)
   19af2:	04c40c23          	sb	a2,88(s0)
   19af6:	04b40ca3          	sb	a1,89(s0)
   19afa:	04a40d23          	sb	a0,90(s0)
   19afe:	7ff10513          	addi	a0,sp,2047
   19b02:	02050513          	addi	a0,a0,32
   19b06:	45cd                	li	a1,19
   19b08:	05a2                	slli	a1,a1,0x8
   19b0a:	958a                	add	a1,a1,sp
   19b0c:	04200613          	li	a2,66
   19b10:	00002097          	auipc	ra,0x2
   19b14:	f7a080e7          	jalr	-134(ra) # 1ba8a <memcpy>
   19b18:	6505                	lui	a0,0x1
   19b1a:	35c50513          	addi	a0,a0,860 # 135c <.Lline_table_start1+0x1131>
   19b1e:	950a                	add	a0,a0,sp
   19b20:	7ff10593          	addi	a1,sp,2047
   19b24:	05e5                	addi	a1,a1,25
   19b26:	ffffc097          	auipc	ra,0xffffc
   19b2a:	d34080e7          	jalr	-716(ra) # 1585a <_ZN18complex_no_dynamic3app17h9b9c8f5f301343b7E>
   19b2e:	398b4503          	lbu	a0,920(s6)
   19b32:	c119                	beqz	a0,19b38 <_start+0x201a>
   19b34:	6510106f          	j	1b984 <_start+0x3e66>
   19b38:	399b4503          	lbu	a0,921(s6)
   19b3c:	39ab4583          	lbu	a1,922(s6)
   19b40:	39bb4803          	lbu	a6,923(s6)
   19b44:	39cb2683          	lw	a3,924(s6)
   19b48:	3a0b2703          	lw	a4,928(s6)
   19b4c:	3a4b2783          	lw	a5,932(s6)
   19b50:	3a8b2483          	lw	s1,936(s6)
   19b54:	3acb2603          	lw	a2,940(s6)
   19b58:	32eb2e23          	sw	a4,828(s6)
   19b5c:	34fb2023          	sw	a5,832(s6)
   19b60:	349b2223          	sw	s1,836(s6)
   19b64:	34cb2423          	sw	a2,840(s6)
   19b68:	3b0b2603          	lw	a2,944(s6)
   19b6c:	3b4b2703          	lw	a4,948(s6)
   19b70:	3b8b2783          	lw	a5,952(s6)
   19b74:	05a2                	slli	a1,a1,0x8
   19b76:	34cb2623          	sw	a2,844(s6)
   19b7a:	34eb2823          	sw	a4,848(s6)
   19b7e:	34fb2a23          	sw	a5,852(s6)
   19b82:	0186d613          	srli	a2,a3,0x18
   19b86:	8d4d                	or	a0,a0,a1
   19b88:	0106d593          	srli	a1,a3,0x10
   19b8c:	0ab401a3          	sb	a1,163(s0)
   19b90:	0ac40223          	sb	a2,164(s0)
   19b94:	0086d593          	srli	a1,a3,0x8
   19b98:	08a41f23          	sh	a0,158(s0)
   19b9c:	0b040023          	sb	a6,160(s0)
   19ba0:	0ad400a3          	sb	a3,161(s0)
   19ba4:	0ab40123          	sb	a1,162(s0)
   19ba8:	7ff10513          	addi	a0,sp,2047
   19bac:	06a50513          	addi	a0,a0,106
   19bb0:	45cd                	li	a1,19
   19bb2:	05a2                	slli	a1,a1,0x8
   19bb4:	958a                	add	a1,a1,sp
   19bb6:	4671                	li	a2,28
   19bb8:	00002097          	auipc	ra,0x2
   19bbc:	ed2080e7          	jalr	-302(ra) # 1ba8a <memcpy>
   19bc0:	6505                	lui	a0,0x1
   19bc2:	35c50513          	addi	a0,a0,860 # 135c <.Lline_table_start1+0x1131>
   19bc6:	950a                	add	a0,a0,sp
   19bc8:	7ff10593          	addi	a1,sp,2047
   19bcc:	06358593          	addi	a1,a1,99
   19bd0:	ffff8097          	auipc	ra,0xffff8
   19bd4:	48e080e7          	jalr	1166(ra) # 1205e <_ZN18complex_no_dynamic3app17h284a014a9ff68683E>
   19bd8:	398b4503          	lbu	a0,920(s6)
   19bdc:	c119                	beqz	a0,19be2 <_start+0x20c4>
   19bde:	5a70106f          	j	1b984 <_start+0x3e66>
   19be2:	39ab4503          	lbu	a0,922(s6)
   19be6:	399b4583          	lbu	a1,921(s6)
   19bea:	39bb4603          	lbu	a2,923(s6)
   19bee:	39cb2483          	lw	s1,924(s6)
   19bf2:	0522                	slli	a0,a0,0x8
   19bf4:	8d4d                	or	a0,a0,a1
   19bf6:	0ca41123          	sh	a0,194(s0)
   19bfa:	0cc40223          	sb	a2,196(s0)
   19bfe:	6505                	lui	a0,0x1
   19c00:	36450513          	addi	a0,a0,868 # 1364 <.Lline_table_start1+0x1139>
   19c04:	00a105b3          	add	a1,sp,a0
   19c08:	454d                	li	a0,19
   19c0a:	0522                	slli	a0,a0,0x8
   19c0c:	950a                	add	a0,a0,sp
   19c0e:	02400613          	li	a2,36
   19c12:	00002097          	auipc	ra,0x2
   19c16:	e78080e7          	jalr	-392(ra) # 1ba8a <memcpy>
   19c1a:	0184d513          	srli	a0,s1,0x18
   19c1e:	0104d593          	srli	a1,s1,0x10
   19c22:	0084d613          	srli	a2,s1,0x8
   19c26:	0c9402a3          	sb	s1,197(s0)
   19c2a:	0cc40323          	sb	a2,198(s0)
   19c2e:	0cb403a3          	sb	a1,199(s0)
   19c32:	0ca40423          	sb	a0,200(s0)
   19c36:	7ff10513          	addi	a0,sp,2047
   19c3a:	08e50513          	addi	a0,a0,142
   19c3e:	45cd                	li	a1,19
   19c40:	05a2                	slli	a1,a1,0x8
   19c42:	958a                	add	a1,a1,sp
   19c44:	02400613          	li	a2,36
   19c48:	00002097          	auipc	ra,0x2
   19c4c:	e42080e7          	jalr	-446(ra) # 1ba8a <memcpy>
   19c50:	6505                	lui	a0,0x1
   19c52:	35c50513          	addi	a0,a0,860 # 135c <.Lline_table_start1+0x1131>
   19c56:	950a                	add	a0,a0,sp
   19c58:	7ff10593          	addi	a1,sp,2047
   19c5c:	08758593          	addi	a1,a1,135
   19c60:	ffffd097          	auipc	ra,0xffffd
   19c64:	ac6080e7          	jalr	-1338(ra) # 16726 <_ZN18complex_no_dynamic3app17hb7270697985f26e8E>
   19c68:	398b4503          	lbu	a0,920(s6)
   19c6c:	c119                	beqz	a0,19c72 <_start+0x2154>
   19c6e:	5170106f          	j	1b984 <_start+0x3e66>
   19c72:	399b4503          	lbu	a0,921(s6)
   19c76:	39ab4583          	lbu	a1,922(s6)
   19c7a:	3a0b2603          	lw	a2,928(s6)
   19c7e:	3a4b1683          	lh	a3,932(s6)
   19c82:	39bb4703          	lbu	a4,923(s6)
   19c86:	39cb2783          	lw	a5,924(s6)
   19c8a:	05a2                	slli	a1,a1,0x8
   19c8c:	32cb2e23          	sw	a2,828(s6)
   19c90:	34db1023          	sh	a3,832(s6)
   19c94:	0187d693          	srli	a3,a5,0x18
   19c98:	0107d493          	srli	s1,a5,0x10
   19c9c:	8d4d                	or	a0,a0,a1
   19c9e:	0087d593          	srli	a1,a5,0x8
   19ca2:	0ea41723          	sh	a0,238(s0)
   19ca6:	0ee40823          	sb	a4,240(s0)
   19caa:	0ef408a3          	sb	a5,241(s0)
   19cae:	0eb40923          	sb	a1,242(s0)
   19cb2:	33db4503          	lbu	a0,829(s6)
   19cb6:	33eb4583          	lbu	a1,830(s6)
   19cba:	33fb4703          	lbu	a4,831(s6)
   19cbe:	340b4783          	lbu	a5,832(s6)
   19cc2:	0e9409a3          	sb	s1,243(s0)
   19cc6:	0ed40a23          	sb	a3,244(s0)
   19cca:	0ec40aa3          	sb	a2,245(s0)
   19cce:	0ea40b23          	sb	a0,246(s0)
   19cd2:	341b4503          	lbu	a0,833(s6)
   19cd6:	0eb40ba3          	sb	a1,247(s0)
   19cda:	0ee40c23          	sb	a4,248(s0)
   19cde:	0ef40ca3          	sb	a5,249(s0)
   19ce2:	0ea40d23          	sb	a0,250(s0)
   19ce6:	6505                	lui	a0,0x1
   19ce8:	35c50513          	addi	a0,a0,860 # 135c <.Lline_table_start1+0x1131>
   19cec:	950a                	add	a0,a0,sp
   19cee:	7ff10593          	addi	a1,sp,2047
   19cf2:	0b358593          	addi	a1,a1,179
   19cf6:	ffffe097          	auipc	ra,0xffffe
   19cfa:	9f4080e7          	jalr	-1548(ra) # 176ea <_ZN18complex_no_dynamic3app17headd322ac10840a8E>
   19cfe:	398b4503          	lbu	a0,920(s6)
   19d02:	c119                	beqz	a0,19d08 <_start+0x21ea>
   19d04:	4810106f          	j	1b984 <_start+0x3e66>
   19d08:	399b4503          	lbu	a0,921(s6)
   19d0c:	39ab4583          	lbu	a1,922(s6)
   19d10:	39bb4803          	lbu	a6,923(s6)
   19d14:	39cb2683          	lw	a3,924(s6)
   19d18:	3a0b2703          	lw	a4,928(s6)
   19d1c:	3a4b2783          	lw	a5,932(s6)
   19d20:	3a8b2483          	lw	s1,936(s6)
   19d24:	3acb2603          	lw	a2,940(s6)
   19d28:	32eb2e23          	sw	a4,828(s6)
   19d2c:	34fb2023          	sw	a5,832(s6)
   19d30:	349b2223          	sw	s1,836(s6)
   19d34:	34cb2423          	sw	a2,840(s6)
   19d38:	3b0b2603          	lw	a2,944(s6)
   19d3c:	3b4b2703          	lw	a4,948(s6)
   19d40:	3b8b1783          	lh	a5,952(s6)
   19d44:	05a2                	slli	a1,a1,0x8
   19d46:	34cb2623          	sw	a2,844(s6)
   19d4a:	34eb2823          	sw	a4,848(s6)
   19d4e:	34fb1a23          	sh	a5,852(s6)
   19d52:	0186d613          	srli	a2,a3,0x18
   19d56:	8d4d                	or	a0,a0,a1
   19d58:	0106d593          	srli	a1,a3,0x10
   19d5c:	10b400a3          	sb	a1,257(s0)
   19d60:	10c40123          	sb	a2,258(s0)
   19d64:	0086d593          	srli	a1,a3,0x8
   19d68:	0ea41e23          	sh	a0,252(s0)
   19d6c:	0f040f23          	sb	a6,254(s0)
   19d70:	0ed40fa3          	sb	a3,255(s0)
   19d74:	10b40023          	sb	a1,256(s0)
   19d78:	7ff10513          	addi	a0,sp,2047
   19d7c:	0c850513          	addi	a0,a0,200
   19d80:	45cd                	li	a1,19
   19d82:	05a2                	slli	a1,a1,0x8
   19d84:	958a                	add	a1,a1,sp
   19d86:	4669                	li	a2,26
   19d88:	00002097          	auipc	ra,0x2
   19d8c:	d02080e7          	jalr	-766(ra) # 1ba8a <memcpy>
   19d90:	6505                	lui	a0,0x1
   19d92:	35c50513          	addi	a0,a0,860 # 135c <.Lline_table_start1+0x1131>
   19d96:	950a                	add	a0,a0,sp
   19d98:	7ff10593          	addi	a1,sp,2047
   19d9c:	0c158593          	addi	a1,a1,193
   19da0:	ffffb097          	auipc	ra,0xffffb
   19da4:	ac2080e7          	jalr	-1342(ra) # 14862 <_ZN18complex_no_dynamic3app17h8015c6fbeeeb4f24E>
   19da8:	398b4503          	lbu	a0,920(s6)
   19dac:	c119                	beqz	a0,19db2 <_start+0x2294>
   19dae:	3d70106f          	j	1b984 <_start+0x3e66>
   19db2:	39ab4503          	lbu	a0,922(s6)
   19db6:	399b4583          	lbu	a1,921(s6)
   19dba:	39bb4603          	lbu	a2,923(s6)
   19dbe:	39cb2483          	lw	s1,924(s6)
   19dc2:	0522                	slli	a0,a0,0x8
   19dc4:	8d4d                	or	a0,a0,a1
   19dc6:	10a41f23          	sh	a0,286(s0)
   19dca:	12c40023          	sb	a2,288(s0)
   19dce:	6505                	lui	a0,0x1
   19dd0:	36450513          	addi	a0,a0,868 # 1364 <.Lline_table_start1+0x1139>
   19dd4:	00a105b3          	add	a1,sp,a0
   19dd8:	454d                	li	a0,19
   19dda:	0522                	slli	a0,a0,0x8
   19ddc:	950a                	add	a0,a0,sp
   19dde:	04c00613          	li	a2,76
   19de2:	00002097          	auipc	ra,0x2
   19de6:	ca8080e7          	jalr	-856(ra) # 1ba8a <memcpy>
   19dea:	0184d513          	srli	a0,s1,0x18
   19dee:	0104d593          	srli	a1,s1,0x10
   19df2:	0084d613          	srli	a2,s1,0x8
   19df6:	129400a3          	sb	s1,289(s0)
   19dfa:	12c40123          	sb	a2,290(s0)
   19dfe:	12b401a3          	sb	a1,291(s0)
   19e02:	12a40223          	sb	a0,292(s0)
   19e06:	7ff10513          	addi	a0,sp,2047
   19e0a:	0ea50513          	addi	a0,a0,234
   19e0e:	45cd                	li	a1,19
   19e10:	05a2                	slli	a1,a1,0x8
   19e12:	958a                	add	a1,a1,sp
   19e14:	04c00613          	li	a2,76
   19e18:	00002097          	auipc	ra,0x2
   19e1c:	c72080e7          	jalr	-910(ra) # 1ba8a <memcpy>
   19e20:	6505                	lui	a0,0x1
   19e22:	35c50513          	addi	a0,a0,860 # 135c <.Lline_table_start1+0x1131>
   19e26:	950a                	add	a0,a0,sp
   19e28:	7ff10593          	addi	a1,sp,2047
   19e2c:	0e358593          	addi	a1,a1,227
   19e30:	ffff8097          	auipc	ra,0xffff8
   19e34:	8c8080e7          	jalr	-1848(ra) # 116f8 <_ZN18complex_no_dynamic3app17h195ea85fd642f877E>
   19e38:	398b4503          	lbu	a0,920(s6)
   19e3c:	c119                	beqz	a0,19e42 <_start+0x2324>
   19e3e:	3470106f          	j	1b984 <_start+0x3e66>
   19e42:	39ab4503          	lbu	a0,922(s6)
   19e46:	399b4583          	lbu	a1,921(s6)
   19e4a:	39bb4603          	lbu	a2,923(s6)
   19e4e:	39cb2483          	lw	s1,924(s6)
   19e52:	0522                	slli	a0,a0,0x8
   19e54:	8d4d                	or	a0,a0,a1
   19e56:	16a41923          	sh	a0,370(s0)
   19e5a:	16c40a23          	sb	a2,372(s0)
   19e5e:	6505                	lui	a0,0x1
   19e60:	36450513          	addi	a0,a0,868 # 1364 <.Lline_table_start1+0x1139>
   19e64:	00a105b3          	add	a1,sp,a0
   19e68:	454d                	li	a0,19
   19e6a:	0522                	slli	a0,a0,0x8
   19e6c:	950a                	add	a0,a0,sp
   19e6e:	04600613          	li	a2,70
   19e72:	00002097          	auipc	ra,0x2
   19e76:	c18080e7          	jalr	-1000(ra) # 1ba8a <memcpy>
   19e7a:	0184d513          	srli	a0,s1,0x18
   19e7e:	0104d593          	srli	a1,s1,0x10
   19e82:	0084d613          	srli	a2,s1,0x8
   19e86:	16940aa3          	sb	s1,373(s0)
   19e8a:	16c40b23          	sb	a2,374(s0)
   19e8e:	16b40ba3          	sb	a1,375(s0)
   19e92:	16a40c23          	sb	a0,376(s0)
   19e96:	7ff10513          	addi	a0,sp,2047
   19e9a:	13e50513          	addi	a0,a0,318
   19e9e:	45cd                	li	a1,19
   19ea0:	05a2                	slli	a1,a1,0x8
   19ea2:	958a                	add	a1,a1,sp
   19ea4:	04600613          	li	a2,70
   19ea8:	00002097          	auipc	ra,0x2
   19eac:	be2080e7          	jalr	-1054(ra) # 1ba8a <memcpy>
   19eb0:	6505                	lui	a0,0x1
   19eb2:	35c50513          	addi	a0,a0,860 # 135c <.Lline_table_start1+0x1131>
   19eb6:	950a                	add	a0,a0,sp
   19eb8:	7ff10593          	addi	a1,sp,2047
   19ebc:	13758593          	addi	a1,a1,311
   19ec0:	ffff9097          	auipc	ra,0xffff9
   19ec4:	b7c080e7          	jalr	-1156(ra) # 12a3c <_ZN18complex_no_dynamic3app17h3a3e4417e5891f3eE>
   19ec8:	398b4503          	lbu	a0,920(s6)
   19ecc:	c119                	beqz	a0,19ed2 <_start+0x23b4>
   19ece:	2b70106f          	j	1b984 <_start+0x3e66>
   19ed2:	39ab4503          	lbu	a0,922(s6)
   19ed6:	399b4583          	lbu	a1,921(s6)
   19eda:	39bb4603          	lbu	a2,923(s6)
   19ede:	39cb2483          	lw	s1,924(s6)
   19ee2:	0522                	slli	a0,a0,0x8
   19ee4:	8d4d                	or	a0,a0,a1
   19ee6:	1ca41023          	sh	a0,448(s0)
   19eea:	1cc40123          	sb	a2,450(s0)
   19eee:	6505                	lui	a0,0x1
   19ef0:	36450513          	addi	a0,a0,868 # 1364 <.Lline_table_start1+0x1139>
   19ef4:	00a105b3          	add	a1,sp,a0
   19ef8:	454d                	li	a0,19
   19efa:	0522                	slli	a0,a0,0x8
   19efc:	950a                	add	a0,a0,sp
   19efe:	03500613          	li	a2,53
   19f02:	00002097          	auipc	ra,0x2
   19f06:	b88080e7          	jalr	-1144(ra) # 1ba8a <memcpy>
   19f0a:	0184d513          	srli	a0,s1,0x18
   19f0e:	0104d593          	srli	a1,s1,0x10
   19f12:	0084d613          	srli	a2,s1,0x8
   19f16:	1c9401a3          	sb	s1,451(s0)
   19f1a:	1cc40223          	sb	a2,452(s0)
   19f1e:	1cb402a3          	sb	a1,453(s0)
   19f22:	1ca40323          	sb	a0,454(s0)
   19f26:	7ff10513          	addi	a0,sp,2047
   19f2a:	18c50513          	addi	a0,a0,396
   19f2e:	45cd                	li	a1,19
   19f30:	05a2                	slli	a1,a1,0x8
   19f32:	958a                	add	a1,a1,sp
   19f34:	03500613          	li	a2,53
   19f38:	00002097          	auipc	ra,0x2
   19f3c:	b52080e7          	jalr	-1198(ra) # 1ba8a <memcpy>
   19f40:	6505                	lui	a0,0x1
   19f42:	35c50513          	addi	a0,a0,860 # 135c <.Lline_table_start1+0x1131>
   19f46:	950a                	add	a0,a0,sp
   19f48:	7ff10593          	addi	a1,sp,2047
   19f4c:	18558593          	addi	a1,a1,389
   19f50:	ffffc097          	auipc	ra,0xffffc
   19f54:	132080e7          	jalr	306(ra) # 16082 <_ZN18complex_no_dynamic3app17hac673a2368d6a834E>
   19f58:	398b4503          	lbu	a0,920(s6)
   19f5c:	c119                	beqz	a0,19f62 <_start+0x2444>
   19f5e:	2270106f          	j	1b984 <_start+0x3e66>
   19f62:	39ab4503          	lbu	a0,922(s6)
   19f66:	399b4583          	lbu	a1,921(s6)
   19f6a:	39bb4603          	lbu	a2,923(s6)
   19f6e:	39cb2483          	lw	s1,924(s6)
   19f72:	0522                	slli	a0,a0,0x8
   19f74:	8d4d                	or	a0,a0,a1
   19f76:	1ea41e23          	sh	a0,508(s0)
   19f7a:	1ec40f23          	sb	a2,510(s0)
   19f7e:	6505                	lui	a0,0x1
   19f80:	36450513          	addi	a0,a0,868 # 1364 <.Lline_table_start1+0x1139>
   19f84:	00a105b3          	add	a1,sp,a0
   19f88:	454d                	li	a0,19
   19f8a:	0522                	slli	a0,a0,0x8
   19f8c:	950a                	add	a0,a0,sp
   19f8e:	03100613          	li	a2,49
   19f92:	00002097          	auipc	ra,0x2
   19f96:	af8080e7          	jalr	-1288(ra) # 1ba8a <memcpy>
   19f9a:	0184d513          	srli	a0,s1,0x18
   19f9e:	0104d593          	srli	a1,s1,0x10
   19fa2:	0084d613          	srli	a2,s1,0x8
   19fa6:	1e940fa3          	sb	s1,511(s0)
   19faa:	20c40023          	sb	a2,512(s0)
   19fae:	20b400a3          	sb	a1,513(s0)
   19fb2:	20a40123          	sb	a0,514(s0)
   19fb6:	7ff10513          	addi	a0,sp,2047
   19fba:	1c850513          	addi	a0,a0,456
   19fbe:	45cd                	li	a1,19
   19fc0:	05a2                	slli	a1,a1,0x8
   19fc2:	958a                	add	a1,a1,sp
   19fc4:	03100613          	li	a2,49
   19fc8:	00002097          	auipc	ra,0x2
   19fcc:	ac2080e7          	jalr	-1342(ra) # 1ba8a <memcpy>
   19fd0:	6505                	lui	a0,0x1
   19fd2:	35c50513          	addi	a0,a0,860 # 135c <.Lline_table_start1+0x1131>
   19fd6:	950a                	add	a0,a0,sp
   19fd8:	7ff10593          	addi	a1,sp,2047
   19fdc:	1c158593          	addi	a1,a1,449
   19fe0:	ffff8097          	auipc	ra,0xffff8
   19fe4:	44c080e7          	jalr	1100(ra) # 1242c <_ZN18complex_no_dynamic3app17h2d8505bcd64ec5caE>
   19fe8:	398b4503          	lbu	a0,920(s6)
   19fec:	c119                	beqz	a0,19ff2 <_start+0x24d4>
   19fee:	1970106f          	j	1b984 <_start+0x3e66>
   19ff2:	399b4503          	lbu	a0,921(s6)
   19ff6:	39ab4583          	lbu	a1,922(s6)
   19ffa:	39bb4803          	lbu	a6,923(s6)
   19ffe:	39cb2683          	lw	a3,924(s6)
   1a002:	3a0b2703          	lw	a4,928(s6)
   1a006:	3a4b2783          	lw	a5,932(s6)
   1a00a:	3a8b2483          	lw	s1,936(s6)
   1a00e:	3acb2603          	lw	a2,940(s6)
   1a012:	32eb2e23          	sw	a4,828(s6)
   1a016:	34fb2023          	sw	a5,832(s6)
   1a01a:	349b2223          	sw	s1,836(s6)
   1a01e:	34cb2423          	sw	a2,840(s6)
   1a022:	3b0b2603          	lw	a2,944(s6)
   1a026:	3b4b2703          	lw	a4,948(s6)
   1a02a:	3b8b2783          	lw	a5,952(s6)
   1a02e:	3bcb2483          	lw	s1,956(s6)
   1a032:	05a2                	slli	a1,a1,0x8
   1a034:	34cb2623          	sw	a2,844(s6)
   1a038:	34eb2823          	sw	a4,848(s6)
   1a03c:	34fb2a23          	sw	a5,852(s6)
   1a040:	349b2c23          	sw	s1,856(s6)
   1a044:	0186d613          	srli	a2,a3,0x18
   1a048:	8d4d                	or	a0,a0,a1
   1a04a:	0106d593          	srli	a1,a3,0x10
   1a04e:	22b40ca3          	sb	a1,569(s0)
   1a052:	22c40d23          	sb	a2,570(s0)
   1a056:	0086d593          	srli	a1,a3,0x8
   1a05a:	22a41a23          	sh	a0,564(s0)
   1a05e:	23040b23          	sb	a6,566(s0)
   1a062:	22d40ba3          	sb	a3,567(s0)
   1a066:	22b40c23          	sb	a1,568(s0)
   1a06a:	7ff10513          	addi	a0,sp,2047
   1a06e:	20050513          	addi	a0,a0,512
   1a072:	45cd                	li	a1,19
   1a074:	05a2                	slli	a1,a1,0x8
   1a076:	958a                	add	a1,a1,sp
   1a078:	02000613          	li	a2,32
   1a07c:	00002097          	auipc	ra,0x2
   1a080:	a0e080e7          	jalr	-1522(ra) # 1ba8a <memcpy>
   1a084:	6505                	lui	a0,0x1
   1a086:	35c50513          	addi	a0,a0,860 # 135c <.Lline_table_start1+0x1131>
   1a08a:	950a                	add	a0,a0,sp
   1a08c:	7ff10593          	addi	a1,sp,2047
   1a090:	1f958593          	addi	a1,a1,505
   1a094:	ffffb097          	auipc	ra,0xffffb
   1a098:	3ea080e7          	jalr	1002(ra) # 1547e <_ZN18complex_no_dynamic3app17h984af622513f02f5E>
   1a09c:	398b4503          	lbu	a0,920(s6)
   1a0a0:	c119                	beqz	a0,1a0a6 <_start+0x2588>
   1a0a2:	0e30106f          	j	1b984 <_start+0x3e66>
   1a0a6:	39ab4503          	lbu	a0,922(s6)
   1a0aa:	399b4583          	lbu	a1,921(s6)
   1a0ae:	39bb4603          	lbu	a2,923(s6)
   1a0b2:	39cb2483          	lw	s1,924(s6)
   1a0b6:	0522                	slli	a0,a0,0x8
   1a0b8:	8d4d                	or	a0,a0,a1
   1a0ba:	24a41e23          	sh	a0,604(s0)
   1a0be:	24c40f23          	sb	a2,606(s0)
   1a0c2:	6505                	lui	a0,0x1
   1a0c4:	36450513          	addi	a0,a0,868 # 1364 <.Lline_table_start1+0x1139>
   1a0c8:	00a105b3          	add	a1,sp,a0
   1a0cc:	454d                	li	a0,19
   1a0ce:	0522                	slli	a0,a0,0x8
   1a0d0:	950a                	add	a0,a0,sp
   1a0d2:	04a00613          	li	a2,74
   1a0d6:	00002097          	auipc	ra,0x2
   1a0da:	9b4080e7          	jalr	-1612(ra) # 1ba8a <memcpy>
   1a0de:	0184d513          	srli	a0,s1,0x18
   1a0e2:	0104d593          	srli	a1,s1,0x10
   1a0e6:	0084d613          	srli	a2,s1,0x8
   1a0ea:	24940fa3          	sb	s1,607(s0)
   1a0ee:	26c40023          	sb	a2,608(s0)
   1a0f2:	26b400a3          	sb	a1,609(s0)
   1a0f6:	26a40123          	sb	a0,610(s0)
   1a0fa:	7ff10513          	addi	a0,sp,2047
   1a0fe:	22850513          	addi	a0,a0,552
   1a102:	45cd                	li	a1,19
   1a104:	05a2                	slli	a1,a1,0x8
   1a106:	958a                	add	a1,a1,sp
   1a108:	04a00613          	li	a2,74
   1a10c:	00002097          	auipc	ra,0x2
   1a110:	97e080e7          	jalr	-1666(ra) # 1ba8a <memcpy>
   1a114:	6505                	lui	a0,0x1
   1a116:	35c50513          	addi	a0,a0,860 # 135c <.Lline_table_start1+0x1131>
   1a11a:	950a                	add	a0,a0,sp
   1a11c:	7ff10593          	addi	a1,sp,2047
   1a120:	22158593          	addi	a1,a1,545
   1a124:	ffff8097          	auipc	ra,0xffff8
   1a128:	404080e7          	jalr	1028(ra) # 12528 <_ZN18complex_no_dynamic3app17h32bc4852a36212e5E>
   1a12c:	398b4503          	lbu	a0,920(s6)
   1a130:	c119                	beqz	a0,1a136 <_start+0x2618>
   1a132:	0530106f          	j	1b984 <_start+0x3e66>
   1a136:	39ab4503          	lbu	a0,922(s6)
   1a13a:	399b4583          	lbu	a1,921(s6)
   1a13e:	39bb4603          	lbu	a2,923(s6)
   1a142:	39cb2483          	lw	s1,924(s6)
   1a146:	0522                	slli	a0,a0,0x8
   1a148:	8d4d                	or	a0,a0,a1
   1a14a:	2aa41723          	sh	a0,686(s0)
   1a14e:	2ac40823          	sb	a2,688(s0)
   1a152:	6505                	lui	a0,0x1
   1a154:	36450513          	addi	a0,a0,868 # 1364 <.Lline_table_start1+0x1139>
   1a158:	00a105b3          	add	a1,sp,a0
   1a15c:	454d                	li	a0,19
   1a15e:	0522                	slli	a0,a0,0x8
   1a160:	950a                	add	a0,a0,sp
   1a162:	04800613          	li	a2,72
   1a166:	00002097          	auipc	ra,0x2
   1a16a:	924080e7          	jalr	-1756(ra) # 1ba8a <memcpy>
   1a16e:	0184d513          	srli	a0,s1,0x18
   1a172:	0104d593          	srli	a1,s1,0x10
   1a176:	0084d613          	srli	a2,s1,0x8
   1a17a:	2a9408a3          	sb	s1,689(s0)
   1a17e:	2ac40923          	sb	a2,690(s0)
   1a182:	2ab409a3          	sb	a1,691(s0)
   1a186:	2aa40a23          	sb	a0,692(s0)
   1a18a:	7ff10513          	addi	a0,sp,2047
   1a18e:	27a50513          	addi	a0,a0,634
   1a192:	45cd                	li	a1,19
   1a194:	05a2                	slli	a1,a1,0x8
   1a196:	958a                	add	a1,a1,sp
   1a198:	04800613          	li	a2,72
   1a19c:	00002097          	auipc	ra,0x2
   1a1a0:	8ee080e7          	jalr	-1810(ra) # 1ba8a <memcpy>
   1a1a4:	6505                	lui	a0,0x1
   1a1a6:	35c50513          	addi	a0,a0,860 # 135c <.Lline_table_start1+0x1131>
   1a1aa:	950a                	add	a0,a0,sp
   1a1ac:	7ff10593          	addi	a1,sp,2047
   1a1b0:	27358593          	addi	a1,a1,627
   1a1b4:	ffffa097          	auipc	ra,0xffffa
   1a1b8:	5b4080e7          	jalr	1460(ra) # 14768 <_ZN18complex_no_dynamic3app17h7fe2149cbb74bd5bE>
   1a1bc:	398b4503          	lbu	a0,920(s6)
   1a1c0:	c119                	beqz	a0,1a1c6 <_start+0x26a8>
   1a1c2:	7c20106f          	j	1b984 <_start+0x3e66>
   1a1c6:	39ab4503          	lbu	a0,922(s6)
   1a1ca:	399b4583          	lbu	a1,921(s6)
   1a1ce:	39bb4603          	lbu	a2,923(s6)
   1a1d2:	39cb2483          	lw	s1,924(s6)
   1a1d6:	0522                	slli	a0,a0,0x8
   1a1d8:	8d4d                	or	a0,a0,a1
   1a1da:	2ea41f23          	sh	a0,766(s0)
   1a1de:	30c40023          	sb	a2,768(s0)
   1a1e2:	6505                	lui	a0,0x1
   1a1e4:	36450513          	addi	a0,a0,868 # 1364 <.Lline_table_start1+0x1139>
   1a1e8:	00a105b3          	add	a1,sp,a0
   1a1ec:	454d                	li	a0,19
   1a1ee:	0522                	slli	a0,a0,0x8
   1a1f0:	950a                	add	a0,a0,sp
   1a1f2:	05a00613          	li	a2,90
   1a1f6:	00002097          	auipc	ra,0x2
   1a1fa:	894080e7          	jalr	-1900(ra) # 1ba8a <memcpy>
   1a1fe:	0184d513          	srli	a0,s1,0x18
   1a202:	0104d593          	srli	a1,s1,0x10
   1a206:	0084d613          	srli	a2,s1,0x8
   1a20a:	309400a3          	sb	s1,769(s0)
   1a20e:	30c40123          	sb	a2,770(s0)
   1a212:	30b401a3          	sb	a1,771(s0)
   1a216:	30a40223          	sb	a0,772(s0)
   1a21a:	7ff10513          	addi	a0,sp,2047
   1a21e:	2ca50513          	addi	a0,a0,714
   1a222:	45cd                	li	a1,19
   1a224:	05a2                	slli	a1,a1,0x8
   1a226:	958a                	add	a1,a1,sp
   1a228:	05a00613          	li	a2,90
   1a22c:	00002097          	auipc	ra,0x2
   1a230:	85e080e7          	jalr	-1954(ra) # 1ba8a <memcpy>
   1a234:	6505                	lui	a0,0x1
   1a236:	35c50513          	addi	a0,a0,860 # 135c <.Lline_table_start1+0x1131>
   1a23a:	950a                	add	a0,a0,sp
   1a23c:	7ff10593          	addi	a1,sp,2047
   1a240:	2c358593          	addi	a1,a1,707
   1a244:	ffffc097          	auipc	ra,0xffffc
   1a248:	f30080e7          	jalr	-208(ra) # 16174 <_ZN18complex_no_dynamic3app17hae66bbb1f1e10f9cE>
   1a24c:	398b4503          	lbu	a0,920(s6)
   1a250:	c119                	beqz	a0,1a256 <_start+0x2738>
   1a252:	7320106f          	j	1b984 <_start+0x3e66>
   1a256:	399b4503          	lbu	a0,921(s6)
   1a25a:	39ab4583          	lbu	a1,922(s6)
   1a25e:	39bb4803          	lbu	a6,923(s6)
   1a262:	39cb2683          	lw	a3,924(s6)
   1a266:	3a0b2703          	lw	a4,928(s6)
   1a26a:	3a4b2783          	lw	a5,932(s6)
   1a26e:	3a8b2483          	lw	s1,936(s6)
   1a272:	3acb2603          	lw	a2,940(s6)
   1a276:	32eb2e23          	sw	a4,828(s6)
   1a27a:	34fb2023          	sw	a5,832(s6)
   1a27e:	349b2223          	sw	s1,836(s6)
   1a282:	34cb2423          	sw	a2,840(s6)
   1a286:	3b0b2603          	lw	a2,944(s6)
   1a28a:	3b4b1703          	lh	a4,948(s6)
   1a28e:	3b6b4783          	lbu	a5,950(s6)
   1a292:	05a2                	slli	a1,a1,0x8
   1a294:	34cb2623          	sw	a2,844(s6)
   1a298:	34eb1823          	sh	a4,848(s6)
   1a29c:	34fb0923          	sb	a5,850(s6)
   1a2a0:	0186d613          	srli	a2,a3,0x18
   1a2a4:	8d4d                	or	a0,a0,a1
   1a2a6:	0106d593          	srli	a1,a3,0x10
   1a2aa:	36b402a3          	sb	a1,869(s0)
   1a2ae:	36c40323          	sb	a2,870(s0)
   1a2b2:	0086d593          	srli	a1,a3,0x8
   1a2b6:	36a41023          	sh	a0,864(s0)
   1a2ba:	37040123          	sb	a6,866(s0)
   1a2be:	36d401a3          	sb	a3,867(s0)
   1a2c2:	36b40223          	sb	a1,868(s0)
   1a2c6:	7ff10513          	addi	a0,sp,2047
   1a2ca:	32c50513          	addi	a0,a0,812
   1a2ce:	45cd                	li	a1,19
   1a2d0:	05a2                	slli	a1,a1,0x8
   1a2d2:	958a                	add	a1,a1,sp
   1a2d4:	465d                	li	a2,23
   1a2d6:	00001097          	auipc	ra,0x1
   1a2da:	7b4080e7          	jalr	1972(ra) # 1ba8a <memcpy>
   1a2de:	6505                	lui	a0,0x1
   1a2e0:	35c50513          	addi	a0,a0,860 # 135c <.Lline_table_start1+0x1131>
   1a2e4:	950a                	add	a0,a0,sp
   1a2e6:	7ff10593          	addi	a1,sp,2047
   1a2ea:	32558593          	addi	a1,a1,805
   1a2ee:	ffffc097          	auipc	ra,0xffffc
   1a2f2:	624080e7          	jalr	1572(ra) # 16912 <_ZN18complex_no_dynamic3app17hba1e40fdd2d5fad8E>
   1a2f6:	398b4503          	lbu	a0,920(s6)
   1a2fa:	c119                	beqz	a0,1a300 <_start+0x27e2>
   1a2fc:	6880106f          	j	1b984 <_start+0x3e66>
   1a300:	399b4503          	lbu	a0,921(s6)
   1a304:	39ab4583          	lbu	a1,922(s6)
   1a308:	39bb4803          	lbu	a6,923(s6)
   1a30c:	39cb2683          	lw	a3,924(s6)
   1a310:	3a0b2703          	lw	a4,928(s6)
   1a314:	3a4b2783          	lw	a5,932(s6)
   1a318:	3a8b2483          	lw	s1,936(s6)
   1a31c:	3acb2603          	lw	a2,940(s6)
   1a320:	32eb2e23          	sw	a4,828(s6)
   1a324:	34fb2023          	sw	a5,832(s6)
   1a328:	349b2223          	sw	s1,836(s6)
   1a32c:	34cb2423          	sw	a2,840(s6)
   1a330:	3b0b2603          	lw	a2,944(s6)
   1a334:	3b4b2703          	lw	a4,948(s6)
   1a338:	3b8b1783          	lh	a5,952(s6)
   1a33c:	05a2                	slli	a1,a1,0x8
   1a33e:	34cb2623          	sw	a2,844(s6)
   1a342:	34eb2823          	sw	a4,848(s6)
   1a346:	34fb1a23          	sh	a5,852(s6)
   1a34a:	0186d613          	srli	a2,a3,0x18
   1a34e:	8d4d                	or	a0,a0,a1
   1a350:	0106d593          	srli	a1,a3,0x10
   1a354:	38b401a3          	sb	a1,899(s0)
   1a358:	38c40223          	sb	a2,900(s0)
   1a35c:	0086d593          	srli	a1,a3,0x8
   1a360:	36a41f23          	sh	a0,894(s0)
   1a364:	39040023          	sb	a6,896(s0)
   1a368:	38d400a3          	sb	a3,897(s0)
   1a36c:	38b40123          	sb	a1,898(s0)
   1a370:	7ff10513          	addi	a0,sp,2047
   1a374:	34a50513          	addi	a0,a0,842
   1a378:	45cd                	li	a1,19
   1a37a:	05a2                	slli	a1,a1,0x8
   1a37c:	958a                	add	a1,a1,sp
   1a37e:	4669                	li	a2,26
   1a380:	00001097          	auipc	ra,0x1
   1a384:	70a080e7          	jalr	1802(ra) # 1ba8a <memcpy>
   1a388:	6505                	lui	a0,0x1
   1a38a:	35c50513          	addi	a0,a0,860 # 135c <.Lline_table_start1+0x1131>
   1a38e:	950a                	add	a0,a0,sp
   1a390:	7ff10593          	addi	a1,sp,2047
   1a394:	34358593          	addi	a1,a1,835
   1a398:	ffff8097          	auipc	ra,0xffff8
   1a39c:	f98080e7          	jalr	-104(ra) # 12330 <_ZN18complex_no_dynamic3app17h297bf02351ca2b0bE>
   1a3a0:	398b4503          	lbu	a0,920(s6)
   1a3a4:	c119                	beqz	a0,1a3aa <_start+0x288c>
   1a3a6:	5de0106f          	j	1b984 <_start+0x3e66>
   1a3aa:	39ab4503          	lbu	a0,922(s6)
   1a3ae:	399b4583          	lbu	a1,921(s6)
   1a3b2:	39bb4603          	lbu	a2,923(s6)
   1a3b6:	39cb2483          	lw	s1,924(s6)
   1a3ba:	0522                	slli	a0,a0,0x8
   1a3bc:	8d4d                	or	a0,a0,a1
   1a3be:	3aa41023          	sh	a0,928(s0)
   1a3c2:	3ac40123          	sb	a2,930(s0)
   1a3c6:	6505                	lui	a0,0x1
   1a3c8:	36450513          	addi	a0,a0,868 # 1364 <.Lline_table_start1+0x1139>
   1a3cc:	00a105b3          	add	a1,sp,a0
   1a3d0:	454d                	li	a0,19
   1a3d2:	0522                	slli	a0,a0,0x8
   1a3d4:	950a                	add	a0,a0,sp
   1a3d6:	02300613          	li	a2,35
   1a3da:	00001097          	auipc	ra,0x1
   1a3de:	6b0080e7          	jalr	1712(ra) # 1ba8a <memcpy>
   1a3e2:	0184d513          	srli	a0,s1,0x18
   1a3e6:	0104d593          	srli	a1,s1,0x10
   1a3ea:	0084d613          	srli	a2,s1,0x8
   1a3ee:	3a9401a3          	sb	s1,931(s0)
   1a3f2:	3ac40223          	sb	a2,932(s0)
   1a3f6:	3ab402a3          	sb	a1,933(s0)
   1a3fa:	3aa40323          	sb	a0,934(s0)
   1a3fe:	7ff10513          	addi	a0,sp,2047
   1a402:	36c50513          	addi	a0,a0,876
   1a406:	45cd                	li	a1,19
   1a408:	05a2                	slli	a1,a1,0x8
   1a40a:	958a                	add	a1,a1,sp
   1a40c:	02300613          	li	a2,35
   1a410:	00001097          	auipc	ra,0x1
   1a414:	67a080e7          	jalr	1658(ra) # 1ba8a <memcpy>
   1a418:	6505                	lui	a0,0x1
   1a41a:	35c50513          	addi	a0,a0,860 # 135c <.Lline_table_start1+0x1131>
   1a41e:	950a                	add	a0,a0,sp
   1a420:	7ff10593          	addi	a1,sp,2047
   1a424:	36558593          	addi	a1,a1,869
   1a428:	ffff9097          	auipc	ra,0xffff9
   1a42c:	278080e7          	jalr	632(ra) # 136a0 <_ZN18complex_no_dynamic3app17h593542a74b8eb231E>
   1a430:	398b4503          	lbu	a0,920(s6)
   1a434:	c119                	beqz	a0,1a43a <_start+0x291c>
   1a436:	54e0106f          	j	1b984 <_start+0x3e66>
   1a43a:	39ab4503          	lbu	a0,922(s6)
   1a43e:	399b4583          	lbu	a1,921(s6)
   1a442:	39bb4603          	lbu	a2,923(s6)
   1a446:	39cb2483          	lw	s1,924(s6)
   1a44a:	0522                	slli	a0,a0,0x8
   1a44c:	8d4d                	or	a0,a0,a1
   1a44e:	3ca41523          	sh	a0,970(s0)
   1a452:	3cc40623          	sb	a2,972(s0)
   1a456:	6505                	lui	a0,0x1
   1a458:	36450513          	addi	a0,a0,868 # 1364 <.Lline_table_start1+0x1139>
   1a45c:	00a105b3          	add	a1,sp,a0
   1a460:	454d                	li	a0,19
   1a462:	0522                	slli	a0,a0,0x8
   1a464:	950a                	add	a0,a0,sp
   1a466:	05200613          	li	a2,82
   1a46a:	00001097          	auipc	ra,0x1
   1a46e:	620080e7          	jalr	1568(ra) # 1ba8a <memcpy>
   1a472:	0184d513          	srli	a0,s1,0x18
   1a476:	0104d593          	srli	a1,s1,0x10
   1a47a:	0084d613          	srli	a2,s1,0x8
   1a47e:	3c9406a3          	sb	s1,973(s0)
   1a482:	3cc40723          	sb	a2,974(s0)
   1a486:	3cb407a3          	sb	a1,975(s0)
   1a48a:	3ca40823          	sb	a0,976(s0)
   1a48e:	7ff10513          	addi	a0,sp,2047
   1a492:	39650513          	addi	a0,a0,918
   1a496:	45cd                	li	a1,19
   1a498:	05a2                	slli	a1,a1,0x8
   1a49a:	958a                	add	a1,a1,sp
   1a49c:	05200613          	li	a2,82
   1a4a0:	00001097          	auipc	ra,0x1
   1a4a4:	5ea080e7          	jalr	1514(ra) # 1ba8a <memcpy>
   1a4a8:	6505                	lui	a0,0x1
   1a4aa:	35c50513          	addi	a0,a0,860 # 135c <.Lline_table_start1+0x1131>
   1a4ae:	950a                	add	a0,a0,sp
   1a4b0:	7ff10593          	addi	a1,sp,2047
   1a4b4:	38f58593          	addi	a1,a1,911
   1a4b8:	ffffd097          	auipc	ra,0xffffd
   1a4bc:	472080e7          	jalr	1138(ra) # 1792a <_ZN18complex_no_dynamic3app17hf31f3318bc51f659E>
   1a4c0:	398b4503          	lbu	a0,920(s6)
   1a4c4:	c119                	beqz	a0,1a4ca <_start+0x29ac>
   1a4c6:	4be0106f          	j	1b984 <_start+0x3e66>
   1a4ca:	39ab4503          	lbu	a0,922(s6)
   1a4ce:	399b4583          	lbu	a1,921(s6)
   1a4d2:	39bb4603          	lbu	a2,923(s6)
   1a4d6:	39cb2483          	lw	s1,924(s6)
   1a4da:	0522                	slli	a0,a0,0x8
   1a4dc:	8d4d                	or	a0,a0,a1
   1a4de:	42a41223          	sh	a0,1060(s0)
   1a4e2:	42c40323          	sb	a2,1062(s0)
   1a4e6:	6505                	lui	a0,0x1
   1a4e8:	36450513          	addi	a0,a0,868 # 1364 <.Lline_table_start1+0x1139>
   1a4ec:	00a105b3          	add	a1,sp,a0
   1a4f0:	454d                	li	a0,19
   1a4f2:	0522                	slli	a0,a0,0x8
   1a4f4:	950a                	add	a0,a0,sp
   1a4f6:	04300613          	li	a2,67
   1a4fa:	00001097          	auipc	ra,0x1
   1a4fe:	590080e7          	jalr	1424(ra) # 1ba8a <memcpy>
   1a502:	0184d513          	srli	a0,s1,0x18
   1a506:	0104d593          	srli	a1,s1,0x10
   1a50a:	0084d613          	srli	a2,s1,0x8
   1a50e:	429403a3          	sb	s1,1063(s0)
   1a512:	42c40423          	sb	a2,1064(s0)
   1a516:	42b404a3          	sb	a1,1065(s0)
   1a51a:	42a40523          	sb	a0,1066(s0)
   1a51e:	7ff10513          	addi	a0,sp,2047
   1a522:	3f050513          	addi	a0,a0,1008
   1a526:	45cd                	li	a1,19
   1a528:	05a2                	slli	a1,a1,0x8
   1a52a:	958a                	add	a1,a1,sp
   1a52c:	04300613          	li	a2,67
   1a530:	00001097          	auipc	ra,0x1
   1a534:	55a080e7          	jalr	1370(ra) # 1ba8a <memcpy>
   1a538:	6505                	lui	a0,0x1
   1a53a:	35c50513          	addi	a0,a0,860 # 135c <.Lline_table_start1+0x1131>
   1a53e:	950a                	add	a0,a0,sp
   1a540:	7ff10593          	addi	a1,sp,2047
   1a544:	3e958593          	addi	a1,a1,1001
   1a548:	ffffd097          	auipc	ra,0xffffd
   1a54c:	d3e080e7          	jalr	-706(ra) # 17286 <_ZN18complex_no_dynamic3app17hdcc562058c07e7e9E>
   1a550:	398b4503          	lbu	a0,920(s6)
   1a554:	c119                	beqz	a0,1a55a <_start+0x2a3c>
   1a556:	42e0106f          	j	1b984 <_start+0x3e66>
   1a55a:	39ab4503          	lbu	a0,922(s6)
   1a55e:	399b4583          	lbu	a1,921(s6)
   1a562:	39bb4603          	lbu	a2,923(s6)
   1a566:	39cb2483          	lw	s1,924(s6)
   1a56a:	0522                	slli	a0,a0,0x8
   1a56c:	8d4d                	or	a0,a0,a1
   1a56e:	46a41723          	sh	a0,1134(s0)
   1a572:	46c40823          	sb	a2,1136(s0)
   1a576:	6505                	lui	a0,0x1
   1a578:	36450513          	addi	a0,a0,868 # 1364 <.Lline_table_start1+0x1139>
   1a57c:	00a105b3          	add	a1,sp,a0
   1a580:	454d                	li	a0,19
   1a582:	0522                	slli	a0,a0,0x8
   1a584:	950a                	add	a0,a0,sp
   1a586:	02600613          	li	a2,38
   1a58a:	00001097          	auipc	ra,0x1
   1a58e:	500080e7          	jalr	1280(ra) # 1ba8a <memcpy>
   1a592:	0184d513          	srli	a0,s1,0x18
   1a596:	0104d593          	srli	a1,s1,0x10
   1a59a:	0084d613          	srli	a2,s1,0x8
   1a59e:	469408a3          	sb	s1,1137(s0)
   1a5a2:	46c40923          	sb	a2,1138(s0)
   1a5a6:	46b409a3          	sb	a1,1139(s0)
   1a5aa:	46a40a23          	sb	a0,1140(s0)
   1a5ae:	7ff10513          	addi	a0,sp,2047
   1a5b2:	43a50513          	addi	a0,a0,1082
   1a5b6:	45cd                	li	a1,19
   1a5b8:	05a2                	slli	a1,a1,0x8
   1a5ba:	958a                	add	a1,a1,sp
   1a5bc:	02600613          	li	a2,38
   1a5c0:	00001097          	auipc	ra,0x1
   1a5c4:	4ca080e7          	jalr	1226(ra) # 1ba8a <memcpy>
   1a5c8:	6505                	lui	a0,0x1
   1a5ca:	35c50513          	addi	a0,a0,860 # 135c <.Lline_table_start1+0x1131>
   1a5ce:	950a                	add	a0,a0,sp
   1a5d0:	7ff10593          	addi	a1,sp,2047
   1a5d4:	43358593          	addi	a1,a1,1075
   1a5d8:	ffff8097          	auipc	ra,0xffff8
   1a5dc:	6ca080e7          	jalr	1738(ra) # 12ca2 <_ZN18complex_no_dynamic3app17h3c20b46173168e84E>
   1a5e0:	398b4503          	lbu	a0,920(s6)
   1a5e4:	c119                	beqz	a0,1a5ea <_start+0x2acc>
   1a5e6:	39e0106f          	j	1b984 <_start+0x3e66>
   1a5ea:	39ab4503          	lbu	a0,922(s6)
   1a5ee:	399b4583          	lbu	a1,921(s6)
   1a5f2:	39bb4603          	lbu	a2,923(s6)
   1a5f6:	39cb2483          	lw	s1,924(s6)
   1a5fa:	0522                	slli	a0,a0,0x8
   1a5fc:	8d4d                	or	a0,a0,a1
   1a5fe:	48a41e23          	sh	a0,1180(s0)
   1a602:	48c40f23          	sb	a2,1182(s0)
   1a606:	6505                	lui	a0,0x1
   1a608:	36450513          	addi	a0,a0,868 # 1364 <.Lline_table_start1+0x1139>
   1a60c:	00a105b3          	add	a1,sp,a0
   1a610:	454d                	li	a0,19
   1a612:	0522                	slli	a0,a0,0x8
   1a614:	950a                	add	a0,a0,sp
   1a616:	04c00613          	li	a2,76
   1a61a:	00001097          	auipc	ra,0x1
   1a61e:	470080e7          	jalr	1136(ra) # 1ba8a <memcpy>
   1a622:	0184d513          	srli	a0,s1,0x18
   1a626:	0104d593          	srli	a1,s1,0x10
   1a62a:	0084d613          	srli	a2,s1,0x8
   1a62e:	48940fa3          	sb	s1,1183(s0)
   1a632:	4ac40023          	sb	a2,1184(s0)
   1a636:	4ab400a3          	sb	a1,1185(s0)
   1a63a:	4aa40123          	sb	a0,1186(s0)
   1a63e:	7ff10513          	addi	a0,sp,2047
   1a642:	46850513          	addi	a0,a0,1128
   1a646:	45cd                	li	a1,19
   1a648:	05a2                	slli	a1,a1,0x8
   1a64a:	958a                	add	a1,a1,sp
   1a64c:	04c00613          	li	a2,76
   1a650:	00001097          	auipc	ra,0x1
   1a654:	43a080e7          	jalr	1082(ra) # 1ba8a <memcpy>
   1a658:	6505                	lui	a0,0x1
   1a65a:	35c50513          	addi	a0,a0,860 # 135c <.Lline_table_start1+0x1131>
   1a65e:	950a                	add	a0,a0,sp
   1a660:	7ff10593          	addi	a1,sp,2047
   1a664:	46158593          	addi	a1,a1,1121
   1a668:	ffff8097          	auipc	ra,0xffff8
   1a66c:	80e080e7          	jalr	-2034(ra) # 11e76 <_ZN18complex_no_dynamic3app17h227f367e7099d497E>
   1a670:	398b4503          	lbu	a0,920(s6)
   1a674:	c119                	beqz	a0,1a67a <_start+0x2b5c>
   1a676:	30e0106f          	j	1b984 <_start+0x3e66>
   1a67a:	39ab4503          	lbu	a0,922(s6)
   1a67e:	399b4583          	lbu	a1,921(s6)
   1a682:	39bb4603          	lbu	a2,923(s6)
   1a686:	39cb2483          	lw	s1,924(s6)
   1a68a:	0522                	slli	a0,a0,0x8
   1a68c:	8d4d                	or	a0,a0,a1
   1a68e:	4ea41823          	sh	a0,1264(s0)
   1a692:	4ec40923          	sb	a2,1266(s0)
   1a696:	6505                	lui	a0,0x1
   1a698:	36450513          	addi	a0,a0,868 # 1364 <.Lline_table_start1+0x1139>
   1a69c:	00a105b3          	add	a1,sp,a0
   1a6a0:	454d                	li	a0,19
   1a6a2:	0522                	slli	a0,a0,0x8
   1a6a4:	950a                	add	a0,a0,sp
   1a6a6:	03300613          	li	a2,51
   1a6aa:	00001097          	auipc	ra,0x1
   1a6ae:	3e0080e7          	jalr	992(ra) # 1ba8a <memcpy>
   1a6b2:	0184d513          	srli	a0,s1,0x18
   1a6b6:	0104d593          	srli	a1,s1,0x10
   1a6ba:	0084d613          	srli	a2,s1,0x8
   1a6be:	4e9409a3          	sb	s1,1267(s0)
   1a6c2:	4ec40a23          	sb	a2,1268(s0)
   1a6c6:	4eb40aa3          	sb	a1,1269(s0)
   1a6ca:	4ea40b23          	sb	a0,1270(s0)
   1a6ce:	7ff10513          	addi	a0,sp,2047
   1a6d2:	4bc50513          	addi	a0,a0,1212
   1a6d6:	45cd                	li	a1,19
   1a6d8:	05a2                	slli	a1,a1,0x8
   1a6da:	958a                	add	a1,a1,sp
   1a6dc:	03300613          	li	a2,51
   1a6e0:	00001097          	auipc	ra,0x1
   1a6e4:	3aa080e7          	jalr	938(ra) # 1ba8a <memcpy>
   1a6e8:	6505                	lui	a0,0x1
   1a6ea:	35c50513          	addi	a0,a0,860 # 135c <.Lline_table_start1+0x1131>
   1a6ee:	950a                	add	a0,a0,sp
   1a6f0:	7ff10593          	addi	a1,sp,2047
   1a6f4:	4b558593          	addi	a1,a1,1205
   1a6f8:	ffffc097          	auipc	ra,0xffffc
   1a6fc:	11c080e7          	jalr	284(ra) # 16814 <_ZN18complex_no_dynamic3app17hb952355b8403e0fbE>
   1a700:	398b4503          	lbu	a0,920(s6)
   1a704:	c119                	beqz	a0,1a70a <_start+0x2bec>
   1a706:	27e0106f          	j	1b984 <_start+0x3e66>
   1a70a:	39ab4503          	lbu	a0,922(s6)
   1a70e:	399b4583          	lbu	a1,921(s6)
   1a712:	39bb4603          	lbu	a2,923(s6)
   1a716:	39cb2483          	lw	s1,924(s6)
   1a71a:	0522                	slli	a0,a0,0x8
   1a71c:	8d4d                	or	a0,a0,a1
   1a71e:	52a41523          	sh	a0,1322(s0)
   1a722:	52c40623          	sb	a2,1324(s0)
   1a726:	6505                	lui	a0,0x1
   1a728:	36450513          	addi	a0,a0,868 # 1364 <.Lline_table_start1+0x1139>
   1a72c:	00a105b3          	add	a1,sp,a0
   1a730:	454d                	li	a0,19
   1a732:	0522                	slli	a0,a0,0x8
   1a734:	950a                	add	a0,a0,sp
   1a736:	05600613          	li	a2,86
   1a73a:	00001097          	auipc	ra,0x1
   1a73e:	350080e7          	jalr	848(ra) # 1ba8a <memcpy>
   1a742:	0184d513          	srli	a0,s1,0x18
   1a746:	0104d593          	srli	a1,s1,0x10
   1a74a:	0084d613          	srli	a2,s1,0x8
   1a74e:	529406a3          	sb	s1,1325(s0)
   1a752:	52c40723          	sb	a2,1326(s0)
   1a756:	52b407a3          	sb	a1,1327(s0)
   1a75a:	52a40823          	sb	a0,1328(s0)
   1a75e:	7ff10513          	addi	a0,sp,2047
   1a762:	4f650513          	addi	a0,a0,1270
   1a766:	45cd                	li	a1,19
   1a768:	05a2                	slli	a1,a1,0x8
   1a76a:	958a                	add	a1,a1,sp
   1a76c:	05600613          	li	a2,86
   1a770:	00001097          	auipc	ra,0x1
   1a774:	31a080e7          	jalr	794(ra) # 1ba8a <memcpy>
   1a778:	6505                	lui	a0,0x1
   1a77a:	35c50513          	addi	a0,a0,860 # 135c <.Lline_table_start1+0x1131>
   1a77e:	950a                	add	a0,a0,sp
   1a780:	7ff10593          	addi	a1,sp,2047
   1a784:	4ef58593          	addi	a1,a1,1263
   1a788:	ffffa097          	auipc	ra,0xffffa
   1a78c:	bfe080e7          	jalr	-1026(ra) # 14386 <_ZN18complex_no_dynamic3app17h73615abd1ddac0a0E>
   1a790:	398b4503          	lbu	a0,920(s6)
   1a794:	c119                	beqz	a0,1a79a <_start+0x2c7c>
   1a796:	1ee0106f          	j	1b984 <_start+0x3e66>
   1a79a:	39ab4503          	lbu	a0,922(s6)
   1a79e:	399b4583          	lbu	a1,921(s6)
   1a7a2:	39bb4603          	lbu	a2,923(s6)
   1a7a6:	39cb2483          	lw	s1,924(s6)
   1a7aa:	0522                	slli	a0,a0,0x8
   1a7ac:	8d4d                	or	a0,a0,a1
   1a7ae:	58a41423          	sh	a0,1416(s0)
   1a7b2:	58c40523          	sb	a2,1418(s0)
   1a7b6:	6505                	lui	a0,0x1
   1a7b8:	36450513          	addi	a0,a0,868 # 1364 <.Lline_table_start1+0x1139>
   1a7bc:	00a105b3          	add	a1,sp,a0
   1a7c0:	454d                	li	a0,19
   1a7c2:	0522                	slli	a0,a0,0x8
   1a7c4:	950a                	add	a0,a0,sp
   1a7c6:	03900613          	li	a2,57
   1a7ca:	00001097          	auipc	ra,0x1
   1a7ce:	2c0080e7          	jalr	704(ra) # 1ba8a <memcpy>
   1a7d2:	0184d513          	srli	a0,s1,0x18
   1a7d6:	0104d593          	srli	a1,s1,0x10
   1a7da:	0084d613          	srli	a2,s1,0x8
   1a7de:	589405a3          	sb	s1,1419(s0)
   1a7e2:	58c40623          	sb	a2,1420(s0)
   1a7e6:	58b406a3          	sb	a1,1421(s0)
   1a7ea:	58a40723          	sb	a0,1422(s0)
   1a7ee:	7ff10513          	addi	a0,sp,2047
   1a7f2:	55450513          	addi	a0,a0,1364
   1a7f6:	45cd                	li	a1,19
   1a7f8:	05a2                	slli	a1,a1,0x8
   1a7fa:	958a                	add	a1,a1,sp
   1a7fc:	03900613          	li	a2,57
   1a800:	00001097          	auipc	ra,0x1
   1a804:	28a080e7          	jalr	650(ra) # 1ba8a <memcpy>
   1a808:	6505                	lui	a0,0x1
   1a80a:	35c50513          	addi	a0,a0,860 # 135c <.Lline_table_start1+0x1131>
   1a80e:	950a                	add	a0,a0,sp
   1a810:	7ff10593          	addi	a1,sp,2047
   1a814:	54d58593          	addi	a1,a1,1357
   1a818:	ffff8097          	auipc	ra,0xffff8
   1a81c:	e08080e7          	jalr	-504(ra) # 12620 <_ZN18complex_no_dynamic3app17h334c07c6964937b3E>
   1a820:	398b4503          	lbu	a0,920(s6)
   1a824:	c119                	beqz	a0,1a82a <_start+0x2d0c>
   1a826:	15e0106f          	j	1b984 <_start+0x3e66>
   1a82a:	39ab4503          	lbu	a0,922(s6)
   1a82e:	399b4583          	lbu	a1,921(s6)
   1a832:	39bb4603          	lbu	a2,923(s6)
   1a836:	39cb2483          	lw	s1,924(s6)
   1a83a:	0522                	slli	a0,a0,0x8
   1a83c:	8d4d                	or	a0,a0,a1
   1a83e:	5ca41423          	sh	a0,1480(s0)
   1a842:	5cc40523          	sb	a2,1482(s0)
   1a846:	6505                	lui	a0,0x1
   1a848:	36450513          	addi	a0,a0,868 # 1364 <.Lline_table_start1+0x1139>
   1a84c:	00a105b3          	add	a1,sp,a0
   1a850:	454d                	li	a0,19
   1a852:	0522                	slli	a0,a0,0x8
   1a854:	950a                	add	a0,a0,sp
   1a856:	02a00613          	li	a2,42
   1a85a:	00001097          	auipc	ra,0x1
   1a85e:	230080e7          	jalr	560(ra) # 1ba8a <memcpy>
   1a862:	0184d513          	srli	a0,s1,0x18
   1a866:	0104d593          	srli	a1,s1,0x10
   1a86a:	0084d613          	srli	a2,s1,0x8
   1a86e:	5c9405a3          	sb	s1,1483(s0)
   1a872:	5cc40623          	sb	a2,1484(s0)
   1a876:	5cb406a3          	sb	a1,1485(s0)
   1a87a:	5ca40723          	sb	a0,1486(s0)
   1a87e:	7ff10513          	addi	a0,sp,2047
   1a882:	59450513          	addi	a0,a0,1428
   1a886:	45cd                	li	a1,19
   1a888:	05a2                	slli	a1,a1,0x8
   1a88a:	958a                	add	a1,a1,sp
   1a88c:	02a00613          	li	a2,42
   1a890:	00001097          	auipc	ra,0x1
   1a894:	1fa080e7          	jalr	506(ra) # 1ba8a <memcpy>
   1a898:	6505                	lui	a0,0x1
   1a89a:	35c50513          	addi	a0,a0,860 # 135c <.Lline_table_start1+0x1131>
   1a89e:	950a                	add	a0,a0,sp
   1a8a0:	7ff10593          	addi	a1,sp,2047
   1a8a4:	58d58593          	addi	a1,a1,1421
   1a8a8:	ffff7097          	auipc	ra,0xffff7
   1a8ac:	97a080e7          	jalr	-1670(ra) # 11222 <_ZN18complex_no_dynamic3app17h094985f0d99ad1d3E>
   1a8b0:	398b4503          	lbu	a0,920(s6)
   1a8b4:	c119                	beqz	a0,1a8ba <_start+0x2d9c>
   1a8b6:	0ce0106f          	j	1b984 <_start+0x3e66>
   1a8ba:	39ab4503          	lbu	a0,922(s6)
   1a8be:	399b4583          	lbu	a1,921(s6)
   1a8c2:	39bb4603          	lbu	a2,923(s6)
   1a8c6:	39cb2483          	lw	s1,924(s6)
   1a8ca:	0522                	slli	a0,a0,0x8
   1a8cc:	8d4d                	or	a0,a0,a1
   1a8ce:	5ea41d23          	sh	a0,1530(s0)
   1a8d2:	5ec40e23          	sb	a2,1532(s0)
   1a8d6:	6505                	lui	a0,0x1
   1a8d8:	36450513          	addi	a0,a0,868 # 1364 <.Lline_table_start1+0x1139>
   1a8dc:	00a105b3          	add	a1,sp,a0
   1a8e0:	454d                	li	a0,19
   1a8e2:	0522                	slli	a0,a0,0x8
   1a8e4:	950a                	add	a0,a0,sp
   1a8e6:	04100613          	li	a2,65
   1a8ea:	00001097          	auipc	ra,0x1
   1a8ee:	1a0080e7          	jalr	416(ra) # 1ba8a <memcpy>
   1a8f2:	0184d513          	srli	a0,s1,0x18
   1a8f6:	0104d593          	srli	a1,s1,0x10
   1a8fa:	0084d613          	srli	a2,s1,0x8
   1a8fe:	5e940ea3          	sb	s1,1533(s0)
   1a902:	5ec40f23          	sb	a2,1534(s0)
   1a906:	5eb40fa3          	sb	a1,1535(s0)
   1a90a:	60a40023          	sb	a0,1536(s0)
   1a90e:	7ff10513          	addi	a0,sp,2047
   1a912:	5c650513          	addi	a0,a0,1478
   1a916:	45cd                	li	a1,19
   1a918:	05a2                	slli	a1,a1,0x8
   1a91a:	958a                	add	a1,a1,sp
   1a91c:	04100613          	li	a2,65
   1a920:	00001097          	auipc	ra,0x1
   1a924:	16a080e7          	jalr	362(ra) # 1ba8a <memcpy>
   1a928:	6505                	lui	a0,0x1
   1a92a:	35c50513          	addi	a0,a0,860 # 135c <.Lline_table_start1+0x1131>
   1a92e:	950a                	add	a0,a0,sp
   1a930:	7ff10593          	addi	a1,sp,2047
   1a934:	5bf58593          	addi	a1,a1,1471
   1a938:	ffffb097          	auipc	ra,0xffffb
   1a93c:	a4a080e7          	jalr	-1462(ra) # 15382 <_ZN18complex_no_dynamic3app17h924a8f040b0b8b24E>
   1a940:	398b4503          	lbu	a0,920(s6)
   1a944:	c119                	beqz	a0,1a94a <_start+0x2e2c>
   1a946:	03e0106f          	j	1b984 <_start+0x3e66>
   1a94a:	39ab4503          	lbu	a0,922(s6)
   1a94e:	399b4583          	lbu	a1,921(s6)
   1a952:	39bb4603          	lbu	a2,923(s6)
   1a956:	39cb2483          	lw	s1,924(s6)
   1a95a:	0522                	slli	a0,a0,0x8
   1a95c:	8d4d                	or	a0,a0,a1
   1a95e:	64a41123          	sh	a0,1602(s0)
   1a962:	64c40223          	sb	a2,1604(s0)
   1a966:	6505                	lui	a0,0x1
   1a968:	36450513          	addi	a0,a0,868 # 1364 <.Lline_table_start1+0x1139>
   1a96c:	00a105b3          	add	a1,sp,a0
   1a970:	454d                	li	a0,19
   1a972:	0522                	slli	a0,a0,0x8
   1a974:	950a                	add	a0,a0,sp
   1a976:	02200613          	li	a2,34
   1a97a:	00001097          	auipc	ra,0x1
   1a97e:	110080e7          	jalr	272(ra) # 1ba8a <memcpy>
   1a982:	0184d513          	srli	a0,s1,0x18
   1a986:	0104d593          	srli	a1,s1,0x10
   1a98a:	0084d613          	srli	a2,s1,0x8
   1a98e:	649402a3          	sb	s1,1605(s0)
   1a992:	64c40323          	sb	a2,1606(s0)
   1a996:	64b403a3          	sb	a1,1607(s0)
   1a99a:	64a40423          	sb	a0,1608(s0)
   1a99e:	7ff10513          	addi	a0,sp,2047
   1a9a2:	60e50513          	addi	a0,a0,1550
   1a9a6:	45cd                	li	a1,19
   1a9a8:	05a2                	slli	a1,a1,0x8
   1a9aa:	958a                	add	a1,a1,sp
   1a9ac:	02200613          	li	a2,34
   1a9b0:	00001097          	auipc	ra,0x1
   1a9b4:	0da080e7          	jalr	218(ra) # 1ba8a <memcpy>
   1a9b8:	6505                	lui	a0,0x1
   1a9ba:	35c50513          	addi	a0,a0,860 # 135c <.Lline_table_start1+0x1131>
   1a9be:	950a                	add	a0,a0,sp
   1a9c0:	7ff10593          	addi	a1,sp,2047
   1a9c4:	60758593          	addi	a1,a1,1543
   1a9c8:	ffffc097          	auipc	ra,0xffffc
   1a9cc:	b86080e7          	jalr	-1146(ra) # 1654e <_ZN18complex_no_dynamic3app17hb1945e33bddc1861E>
   1a9d0:	398b4503          	lbu	a0,920(s6)
   1a9d4:	7a0518e3          	bnez	a0,1b984 <_start+0x3e66>
   1a9d8:	399b4803          	lbu	a6,921(s6)
   1a9dc:	39ab4583          	lbu	a1,922(s6)
   1a9e0:	3a0b2603          	lw	a2,928(s6)
   1a9e4:	3a4b2683          	lw	a3,932(s6)
   1a9e8:	3a8b2703          	lw	a4,936(s6)
   1a9ec:	3acb2783          	lw	a5,940(s6)
   1a9f0:	3b0b1483          	lh	s1,944(s6)
   1a9f4:	3b2b4503          	lbu	a0,946(s6)
   1a9f8:	32cb2e23          	sw	a2,828(s6)
   1a9fc:	34db2023          	sw	a3,832(s6)
   1aa00:	34eb2223          	sw	a4,836(s6)
   1aa04:	34fb2423          	sw	a5,840(s6)
   1aa08:	39bb4603          	lbu	a2,923(s6)
   1aa0c:	39cb2683          	lw	a3,924(s6)
   1aa10:	05a2                	slli	a1,a1,0x8
   1aa12:	349b1623          	sh	s1,844(s6)
   1aa16:	34ab0723          	sb	a0,846(s6)
   1aa1a:	0186d513          	srli	a0,a3,0x18
   1aa1e:	0105e5b3          	or	a1,a1,a6
   1aa22:	0106d713          	srli	a4,a3,0x10
   1aa26:	66e408a3          	sb	a4,1649(s0)
   1aa2a:	66a40923          	sb	a0,1650(s0)
   1aa2e:	0086d513          	srli	a0,a3,0x8
   1aa32:	66b41623          	sh	a1,1644(s0)
   1aa36:	66c40723          	sb	a2,1646(s0)
   1aa3a:	66d407a3          	sb	a3,1647(s0)
   1aa3e:	66a40823          	sb	a0,1648(s0)
   1aa42:	7ff10513          	addi	a0,sp,2047
   1aa46:	63850513          	addi	a0,a0,1592
   1aa4a:	45cd                	li	a1,19
   1aa4c:	05a2                	slli	a1,a1,0x8
   1aa4e:	958a                	add	a1,a1,sp
   1aa50:	464d                	li	a2,19
   1aa52:	00001097          	auipc	ra,0x1
   1aa56:	038080e7          	jalr	56(ra) # 1ba8a <memcpy>
   1aa5a:	6505                	lui	a0,0x1
   1aa5c:	35c50513          	addi	a0,a0,860 # 135c <.Lline_table_start1+0x1131>
   1aa60:	950a                	add	a0,a0,sp
   1aa62:	7ff10593          	addi	a1,sp,2047
   1aa66:	63158593          	addi	a1,a1,1585
   1aa6a:	ffffa097          	auipc	ra,0xffffa
   1aa6e:	450080e7          	jalr	1104(ra) # 14eba <_ZN18complex_no_dynamic3app17h8e99cbd9e0d7781cE>
   1aa72:	398b4503          	lbu	a0,920(s6)
   1aa76:	700517e3          	bnez	a0,1b984 <_start+0x3e66>
   1aa7a:	399b4883          	lbu	a7,921(s6)
   1aa7e:	39ab4583          	lbu	a1,922(s6)
   1aa82:	39bb4803          	lbu	a6,923(s6)
   1aa86:	39cb2683          	lw	a3,924(s6)
   1aa8a:	3a0b2703          	lw	a4,928(s6)
   1aa8e:	3a4b2783          	lw	a5,932(s6)
   1aa92:	3a8b2483          	lw	s1,936(s6)
   1aa96:	3acb2603          	lw	a2,940(s6)
   1aa9a:	3b0b2503          	lw	a0,944(s6)
   1aa9e:	32eb2e23          	sw	a4,828(s6)
   1aaa2:	34fb2023          	sw	a5,832(s6)
   1aaa6:	349b2223          	sw	s1,836(s6)
   1aaaa:	34cb2423          	sw	a2,840(s6)
   1aaae:	05a2                	slli	a1,a1,0x8
   1aab0:	34ab2623          	sw	a0,844(s6)
   1aab4:	0186d513          	srli	a0,a3,0x18
   1aab8:	0115e5b3          	or	a1,a1,a7
   1aabc:	0106d613          	srli	a2,a3,0x10
   1aac0:	68c405a3          	sb	a2,1675(s0)
   1aac4:	68a40623          	sb	a0,1676(s0)
   1aac8:	0086d513          	srli	a0,a3,0x8
   1aacc:	68b41323          	sh	a1,1670(s0)
   1aad0:	69040423          	sb	a6,1672(s0)
   1aad4:	68d404a3          	sb	a3,1673(s0)
   1aad8:	68a40523          	sb	a0,1674(s0)
   1aadc:	7ff10513          	addi	a0,sp,2047
   1aae0:	65250513          	addi	a0,a0,1618
   1aae4:	45cd                	li	a1,19
   1aae6:	05a2                	slli	a1,a1,0x8
   1aae8:	958a                	add	a1,a1,sp
   1aaea:	4651                	li	a2,20
   1aaec:	00001097          	auipc	ra,0x1
   1aaf0:	f9e080e7          	jalr	-98(ra) # 1ba8a <memcpy>
   1aaf4:	6505                	lui	a0,0x1
   1aaf6:	35c50513          	addi	a0,a0,860 # 135c <.Lline_table_start1+0x1131>
   1aafa:	950a                	add	a0,a0,sp
   1aafc:	7ff10593          	addi	a1,sp,2047
   1ab00:	64b58593          	addi	a1,a1,1611
   1ab04:	ffffc097          	auipc	ra,0xffffc
   1ab08:	008080e7          	jalr	8(ra) # 16b0c <_ZN18complex_no_dynamic3app17hbcc79c2a7155a487E>
   1ab0c:	398b4503          	lbu	a0,920(s6)
   1ab10:	66051ae3          	bnez	a0,1b984 <_start+0x3e66>
   1ab14:	39ab4503          	lbu	a0,922(s6)
   1ab18:	399b4583          	lbu	a1,921(s6)
   1ab1c:	39bb4603          	lbu	a2,923(s6)
   1ab20:	39cb2483          	lw	s1,924(s6)
   1ab24:	0522                	slli	a0,a0,0x8
   1ab26:	8d4d                	or	a0,a0,a1
   1ab28:	6aa41123          	sh	a0,1698(s0)
   1ab2c:	6ac40223          	sb	a2,1700(s0)
   1ab30:	6505                	lui	a0,0x1
   1ab32:	36450513          	addi	a0,a0,868 # 1364 <.Lline_table_start1+0x1139>
   1ab36:	00a105b3          	add	a1,sp,a0
   1ab3a:	454d                	li	a0,19
   1ab3c:	0522                	slli	a0,a0,0x8
   1ab3e:	950a                	add	a0,a0,sp
   1ab40:	03a00613          	li	a2,58
   1ab44:	00001097          	auipc	ra,0x1
   1ab48:	f46080e7          	jalr	-186(ra) # 1ba8a <memcpy>
   1ab4c:	0184d513          	srli	a0,s1,0x18
   1ab50:	0104d593          	srli	a1,s1,0x10
   1ab54:	0084d613          	srli	a2,s1,0x8
   1ab58:	6a9402a3          	sb	s1,1701(s0)
   1ab5c:	6ac40323          	sb	a2,1702(s0)
   1ab60:	6ab403a3          	sb	a1,1703(s0)
   1ab64:	6aa40423          	sb	a0,1704(s0)
   1ab68:	7ff10513          	addi	a0,sp,2047
   1ab6c:	66e50513          	addi	a0,a0,1646
   1ab70:	45cd                	li	a1,19
   1ab72:	05a2                	slli	a1,a1,0x8
   1ab74:	958a                	add	a1,a1,sp
   1ab76:	03a00613          	li	a2,58
   1ab7a:	00001097          	auipc	ra,0x1
   1ab7e:	f10080e7          	jalr	-240(ra) # 1ba8a <memcpy>
   1ab82:	6505                	lui	a0,0x1
   1ab84:	35c50513          	addi	a0,a0,860 # 135c <.Lline_table_start1+0x1131>
   1ab88:	950a                	add	a0,a0,sp
   1ab8a:	7ff10593          	addi	a1,sp,2047
   1ab8e:	66758593          	addi	a1,a1,1639
   1ab92:	ffff9097          	auipc	ra,0xffff9
   1ab96:	928080e7          	jalr	-1752(ra) # 134ba <_ZN18complex_no_dynamic3app17h505dcf38962d99caE>
   1ab9a:	398b4503          	lbu	a0,920(s6)
   1ab9e:	5e0513e3          	bnez	a0,1b984 <_start+0x3e66>
   1aba2:	399b4883          	lbu	a7,921(s6)
   1aba6:	39ab4583          	lbu	a1,922(s6)
   1abaa:	39bb4803          	lbu	a6,923(s6)
   1abae:	39cb2683          	lw	a3,924(s6)
   1abb2:	3a0b2703          	lw	a4,928(s6)
   1abb6:	3a4b2783          	lw	a5,932(s6)
   1abba:	3a8b2483          	lw	s1,936(s6)
   1abbe:	3acb2603          	lw	a2,940(s6)
   1abc2:	3b0b4503          	lbu	a0,944(s6)
   1abc6:	32eb2e23          	sw	a4,828(s6)
   1abca:	34fb2023          	sw	a5,832(s6)
   1abce:	349b2223          	sw	s1,836(s6)
   1abd2:	34cb2423          	sw	a2,840(s6)
   1abd6:	05a2                	slli	a1,a1,0x8
   1abd8:	34ab0623          	sb	a0,844(s6)
   1abdc:	0186d513          	srli	a0,a3,0x18
   1abe0:	0115e5b3          	or	a1,a1,a7
   1abe4:	0106d613          	srli	a2,a3,0x10
   1abe8:	6ec404a3          	sb	a2,1769(s0)
   1abec:	6ea40523          	sb	a0,1770(s0)
   1abf0:	0086d513          	srli	a0,a3,0x8
   1abf4:	6eb41223          	sh	a1,1764(s0)
   1abf8:	6f040323          	sb	a6,1766(s0)
   1abfc:	6ed403a3          	sb	a3,1767(s0)
   1ac00:	6ea40423          	sb	a0,1768(s0)
   1ac04:	7ff10513          	addi	a0,sp,2047
   1ac08:	6b050513          	addi	a0,a0,1712
   1ac0c:	45cd                	li	a1,19
   1ac0e:	05a2                	slli	a1,a1,0x8
   1ac10:	958a                	add	a1,a1,sp
   1ac12:	4645                	li	a2,17
   1ac14:	00001097          	auipc	ra,0x1
   1ac18:	e76080e7          	jalr	-394(ra) # 1ba8a <memcpy>
   1ac1c:	6505                	lui	a0,0x1
   1ac1e:	35c50513          	addi	a0,a0,860 # 135c <.Lline_table_start1+0x1131>
   1ac22:	950a                	add	a0,a0,sp
   1ac24:	7ff10593          	addi	a1,sp,2047
   1ac28:	6a958593          	addi	a1,a1,1705
   1ac2c:	ffff7097          	auipc	ra,0xffff7
   1ac30:	ea0080e7          	jalr	-352(ra) # 11acc <_ZN18complex_no_dynamic3app17h1ca51d27962bcf74E>
   1ac34:	398b4503          	lbu	a0,920(s6)
   1ac38:	540516e3          	bnez	a0,1b984 <_start+0x3e66>
   1ac3c:	399b4503          	lbu	a0,921(s6)
   1ac40:	39ab4583          	lbu	a1,922(s6)
   1ac44:	39bb4803          	lbu	a6,923(s6)
   1ac48:	39cb2683          	lw	a3,924(s6)
   1ac4c:	3a0b2703          	lw	a4,928(s6)
   1ac50:	3a4b2783          	lw	a5,932(s6)
   1ac54:	3a8b2483          	lw	s1,936(s6)
   1ac58:	3acb2603          	lw	a2,940(s6)
   1ac5c:	32eb2e23          	sw	a4,828(s6)
   1ac60:	34fb2023          	sw	a5,832(s6)
   1ac64:	349b2223          	sw	s1,836(s6)
   1ac68:	34cb2423          	sw	a2,840(s6)
   1ac6c:	3b0b2603          	lw	a2,944(s6)
   1ac70:	3b4b1703          	lh	a4,948(s6)
   1ac74:	3b6b4783          	lbu	a5,950(s6)
   1ac78:	05a2                	slli	a1,a1,0x8
   1ac7a:	34cb2623          	sw	a2,844(s6)
   1ac7e:	34eb1823          	sh	a4,848(s6)
   1ac82:	34fb0923          	sb	a5,850(s6)
   1ac86:	0186d613          	srli	a2,a3,0x18
   1ac8a:	8d4d                	or	a0,a0,a1
   1ac8c:	0106d593          	srli	a1,a3,0x10
   1ac90:	70b400a3          	sb	a1,1793(s0)
   1ac94:	70c40123          	sb	a2,1794(s0)
   1ac98:	0086d593          	srli	a1,a3,0x8
   1ac9c:	6ea41e23          	sh	a0,1788(s0)
   1aca0:	6f040f23          	sb	a6,1790(s0)
   1aca4:	6ed40fa3          	sb	a3,1791(s0)
   1aca8:	70b40023          	sb	a1,1792(s0)
   1acac:	7ff10513          	addi	a0,sp,2047
   1acb0:	6c850513          	addi	a0,a0,1736
   1acb4:	45cd                	li	a1,19
   1acb6:	05a2                	slli	a1,a1,0x8
   1acb8:	958a                	add	a1,a1,sp
   1acba:	465d                	li	a2,23
   1acbc:	00001097          	auipc	ra,0x1
   1acc0:	dce080e7          	jalr	-562(ra) # 1ba8a <memcpy>
   1acc4:	6505                	lui	a0,0x1
   1acc6:	35c50513          	addi	a0,a0,860 # 135c <.Lline_table_start1+0x1131>
   1acca:	950a                	add	a0,a0,sp
   1accc:	7ff10593          	addi	a1,sp,2047
   1acd0:	6c158593          	addi	a1,a1,1729
   1acd4:	ffffa097          	auipc	ra,0xffffa
   1acd8:	4ba080e7          	jalr	1210(ra) # 1518e <_ZN18complex_no_dynamic3app17h903f1500752f4afdE>
   1acdc:	398b4503          	lbu	a0,920(s6)
   1ace0:	4a0512e3          	bnez	a0,1b984 <_start+0x3e66>
   1ace4:	39ab4503          	lbu	a0,922(s6)
   1ace8:	399b4583          	lbu	a1,921(s6)
   1acec:	39bb4603          	lbu	a2,923(s6)
   1acf0:	39cb2483          	lw	s1,924(s6)
   1acf4:	0522                	slli	a0,a0,0x8
   1acf6:	8d4d                	or	a0,a0,a1
   1acf8:	70a41d23          	sh	a0,1818(s0)
   1acfc:	70c40e23          	sb	a2,1820(s0)
   1ad00:	6505                	lui	a0,0x1
   1ad02:	36450513          	addi	a0,a0,868 # 1364 <.Lline_table_start1+0x1139>
   1ad06:	00a105b3          	add	a1,sp,a0
   1ad0a:	454d                	li	a0,19
   1ad0c:	0522                	slli	a0,a0,0x8
   1ad0e:	950a                	add	a0,a0,sp
   1ad10:	03500613          	li	a2,53
   1ad14:	00001097          	auipc	ra,0x1
   1ad18:	d76080e7          	jalr	-650(ra) # 1ba8a <memcpy>
   1ad1c:	0184d513          	srli	a0,s1,0x18
   1ad20:	0104d593          	srli	a1,s1,0x10
   1ad24:	0084d613          	srli	a2,s1,0x8
   1ad28:	70940ea3          	sb	s1,1821(s0)
   1ad2c:	70c40f23          	sb	a2,1822(s0)
   1ad30:	70b40fa3          	sb	a1,1823(s0)
   1ad34:	72a40023          	sb	a0,1824(s0)
   1ad38:	7ff10513          	addi	a0,sp,2047
   1ad3c:	6e650513          	addi	a0,a0,1766
   1ad40:	45cd                	li	a1,19
   1ad42:	05a2                	slli	a1,a1,0x8
   1ad44:	958a                	add	a1,a1,sp
   1ad46:	03500613          	li	a2,53
   1ad4a:	00001097          	auipc	ra,0x1
   1ad4e:	d40080e7          	jalr	-704(ra) # 1ba8a <memcpy>
   1ad52:	6505                	lui	a0,0x1
   1ad54:	35c50513          	addi	a0,a0,860 # 135c <.Lline_table_start1+0x1131>
   1ad58:	950a                	add	a0,a0,sp
   1ad5a:	7ff10593          	addi	a1,sp,2047
   1ad5e:	6df58593          	addi	a1,a1,1759
   1ad62:	ffff8097          	auipc	ra,0xffff8
   1ad66:	038080e7          	jalr	56(ra) # 12d9a <_ZN18complex_no_dynamic3app17h3e9628540f3029cfE>
   1ad6a:	398b4503          	lbu	a0,920(s6)
   1ad6e:	40051be3          	bnez	a0,1b984 <_start+0x3e66>
   1ad72:	39ab4503          	lbu	a0,922(s6)
   1ad76:	399b4583          	lbu	a1,921(s6)
   1ad7a:	39bb4603          	lbu	a2,923(s6)
   1ad7e:	39cb2483          	lw	s1,924(s6)
   1ad82:	0522                	slli	a0,a0,0x8
   1ad84:	8d4d                	or	a0,a0,a1
   1ad86:	74a41b23          	sh	a0,1878(s0)
   1ad8a:	74c40c23          	sb	a2,1880(s0)
   1ad8e:	6505                	lui	a0,0x1
   1ad90:	36450513          	addi	a0,a0,868 # 1364 <.Lline_table_start1+0x1139>
   1ad94:	00a105b3          	add	a1,sp,a0
   1ad98:	454d                	li	a0,19
   1ad9a:	0522                	slli	a0,a0,0x8
   1ad9c:	950a                	add	a0,a0,sp
   1ad9e:	02500613          	li	a2,37
   1ada2:	00001097          	auipc	ra,0x1
   1ada6:	ce8080e7          	jalr	-792(ra) # 1ba8a <memcpy>
   1adaa:	0184d513          	srli	a0,s1,0x18
   1adae:	0104d593          	srli	a1,s1,0x10
   1adb2:	0084d613          	srli	a2,s1,0x8
   1adb6:	74940ca3          	sb	s1,1881(s0)
   1adba:	74c40d23          	sb	a2,1882(s0)
   1adbe:	74b40da3          	sb	a1,1883(s0)
   1adc2:	74a40e23          	sb	a0,1884(s0)
   1adc6:	7ff10513          	addi	a0,sp,2047
   1adca:	72250513          	addi	a0,a0,1826
   1adce:	45cd                	li	a1,19
   1add0:	05a2                	slli	a1,a1,0x8
   1add2:	958a                	add	a1,a1,sp
   1add4:	02500613          	li	a2,37
   1add8:	00001097          	auipc	ra,0x1
   1addc:	cb2080e7          	jalr	-846(ra) # 1ba8a <memcpy>
   1ade0:	6505                	lui	a0,0x1
   1ade2:	35c50513          	addi	a0,a0,860 # 135c <.Lline_table_start1+0x1131>
   1ade6:	950a                	add	a0,a0,sp
   1ade8:	7ff10593          	addi	a1,sp,2047
   1adec:	71b58593          	addi	a1,a1,1819
   1adf0:	ffffb097          	auipc	ra,0xffffb
   1adf4:	47a080e7          	jalr	1146(ra) # 1626a <_ZN18complex_no_dynamic3app17haf076ee7991a24abE>
   1adf8:	398b4503          	lbu	a0,920(s6)
   1adfc:	380514e3          	bnez	a0,1b984 <_start+0x3e66>
   1ae00:	399b4503          	lbu	a0,921(s6)
   1ae04:	39ab4583          	lbu	a1,922(s6)
   1ae08:	39bb4803          	lbu	a6,923(s6)
   1ae0c:	39cb2683          	lw	a3,924(s6)
   1ae10:	3a0b2703          	lw	a4,928(s6)
   1ae14:	3a4b2783          	lw	a5,932(s6)
   1ae18:	3a8b2483          	lw	s1,936(s6)
   1ae1c:	3acb2603          	lw	a2,940(s6)
   1ae20:	32eb2e23          	sw	a4,828(s6)
   1ae24:	34fb2023          	sw	a5,832(s6)
   1ae28:	349b2223          	sw	s1,836(s6)
   1ae2c:	34cb2423          	sw	a2,840(s6)
   1ae30:	3b0b2603          	lw	a2,944(s6)
   1ae34:	3b4b2703          	lw	a4,948(s6)
   1ae38:	3b8b2783          	lw	a5,952(s6)
   1ae3c:	3bcb2483          	lw	s1,956(s6)
   1ae40:	05a2                	slli	a1,a1,0x8
   1ae42:	34cb2623          	sw	a2,844(s6)
   1ae46:	34eb2823          	sw	a4,848(s6)
   1ae4a:	34fb2a23          	sw	a5,852(s6)
   1ae4e:	349b2c23          	sw	s1,856(s6)
   1ae52:	0186d613          	srli	a2,a3,0x18
   1ae56:	8d4d                	or	a0,a0,a1
   1ae58:	0106d593          	srli	a1,a3,0x10
   1ae5c:	78b403a3          	sb	a1,1927(s0)
   1ae60:	78c40423          	sb	a2,1928(s0)
   1ae64:	0086d593          	srli	a1,a3,0x8
   1ae68:	78a41123          	sh	a0,1922(s0)
   1ae6c:	79040223          	sb	a6,1924(s0)
   1ae70:	78d402a3          	sb	a3,1925(s0)
   1ae74:	78b40323          	sb	a1,1926(s0)
   1ae78:	7ff10513          	addi	a0,sp,2047
   1ae7c:	74e50513          	addi	a0,a0,1870
   1ae80:	45cd                	li	a1,19
   1ae82:	05a2                	slli	a1,a1,0x8
   1ae84:	958a                	add	a1,a1,sp
   1ae86:	02000613          	li	a2,32
   1ae8a:	00001097          	auipc	ra,0x1
   1ae8e:	c00080e7          	jalr	-1024(ra) # 1ba8a <memcpy>
   1ae92:	6505                	lui	a0,0x1
   1ae94:	35c50513          	addi	a0,a0,860 # 135c <.Lline_table_start1+0x1131>
   1ae98:	950a                	add	a0,a0,sp
   1ae9a:	7ff10593          	addi	a1,sp,2047
   1ae9e:	74758593          	addi	a1,a1,1863
   1aea2:	ffffc097          	auipc	ra,0xffffc
   1aea6:	f9e080e7          	jalr	-98(ra) # 16e40 <_ZN18complex_no_dynamic3app17hc3ddd38a8a1ec537E>
   1aeaa:	398b4503          	lbu	a0,920(s6)
   1aeae:	2c051be3          	bnez	a0,1b984 <_start+0x3e66>
   1aeb2:	39ab4503          	lbu	a0,922(s6)
   1aeb6:	399b4583          	lbu	a1,921(s6)
   1aeba:	39bb4603          	lbu	a2,923(s6)
   1aebe:	39cb2483          	lw	s1,924(s6)
   1aec2:	0522                	slli	a0,a0,0x8
   1aec4:	8d4d                	or	a0,a0,a1
   1aec6:	7aa41523          	sh	a0,1962(s0)
   1aeca:	7ac40623          	sb	a2,1964(s0)
   1aece:	6505                	lui	a0,0x1
   1aed0:	36450513          	addi	a0,a0,868 # 1364 <.Lline_table_start1+0x1139>
   1aed4:	00a105b3          	add	a1,sp,a0
   1aed8:	454d                	li	a0,19
   1aeda:	0522                	slli	a0,a0,0x8
   1aedc:	950a                	add	a0,a0,sp
   1aede:	04800613          	li	a2,72
   1aee2:	00001097          	auipc	ra,0x1
   1aee6:	ba8080e7          	jalr	-1112(ra) # 1ba8a <memcpy>
   1aeea:	0184d513          	srli	a0,s1,0x18
   1aeee:	0104d593          	srli	a1,s1,0x10
   1aef2:	0084d613          	srli	a2,s1,0x8
   1aef6:	7a9406a3          	sb	s1,1965(s0)
   1aefa:	7ac40723          	sb	a2,1966(s0)
   1aefe:	7ab407a3          	sb	a1,1967(s0)
   1af02:	7aa40823          	sb	a0,1968(s0)
   1af06:	7ff10513          	addi	a0,sp,2047
   1af0a:	77650513          	addi	a0,a0,1910
   1af0e:	45cd                	li	a1,19
   1af10:	05a2                	slli	a1,a1,0x8
   1af12:	958a                	add	a1,a1,sp
   1af14:	04800613          	li	a2,72
   1af18:	00001097          	auipc	ra,0x1
   1af1c:	b72080e7          	jalr	-1166(ra) # 1ba8a <memcpy>
   1af20:	6505                	lui	a0,0x1
   1af22:	35c50513          	addi	a0,a0,860 # 135c <.Lline_table_start1+0x1131>
   1af26:	950a                	add	a0,a0,sp
   1af28:	7ff10593          	addi	a1,sp,2047
   1af2c:	76f58593          	addi	a1,a1,1903
   1af30:	ffff7097          	auipc	ra,0xffff7
   1af34:	d5a080e7          	jalr	-678(ra) # 11c8a <_ZN18complex_no_dynamic3app17h2065cca9b87e41daE>
   1af38:	398b4503          	lbu	a0,920(s6)
   1af3c:	240514e3          	bnez	a0,1b984 <_start+0x3e66>
   1af40:	39ab4503          	lbu	a0,922(s6)
   1af44:	399b4583          	lbu	a1,921(s6)
   1af48:	39bb4603          	lbu	a2,923(s6)
   1af4c:	39cb2483          	lw	s1,924(s6)
   1af50:	0522                	slli	a0,a0,0x8
   1af52:	8d4d                	or	a0,a0,a1
   1af54:	7ea41d23          	sh	a0,2042(s0)
   1af58:	7ec40e23          	sb	a2,2044(s0)
   1af5c:	6505                	lui	a0,0x1
   1af5e:	36450513          	addi	a0,a0,868 # 1364 <.Lline_table_start1+0x1139>
   1af62:	00a105b3          	add	a1,sp,a0
   1af66:	454d                	li	a0,19
   1af68:	0522                	slli	a0,a0,0x8
   1af6a:	950a                	add	a0,a0,sp
   1af6c:	02e00613          	li	a2,46
   1af70:	00001097          	auipc	ra,0x1
   1af74:	b1a080e7          	jalr	-1254(ra) # 1ba8a <memcpy>
   1af78:	0184d513          	srli	a0,s1,0x18
   1af7c:	0104d593          	srli	a1,s1,0x10
   1af80:	0084d613          	srli	a2,s1,0x8
   1af84:	fe9b0ea3          	sb	s1,-3(s6)
   1af88:	fecb0f23          	sb	a2,-2(s6)
   1af8c:	febb0fa3          	sb	a1,-1(s6)
   1af90:	00ab0023          	sb	a0,0(s6)
   1af94:	7ff10513          	addi	a0,sp,2047
   1af98:	7c650513          	addi	a0,a0,1990
   1af9c:	45cd                	li	a1,19
   1af9e:	05a2                	slli	a1,a1,0x8
   1afa0:	958a                	add	a1,a1,sp
   1afa2:	02e00613          	li	a2,46
   1afa6:	00001097          	auipc	ra,0x1
   1afaa:	ae4080e7          	jalr	-1308(ra) # 1ba8a <memcpy>
   1afae:	6505                	lui	a0,0x1
   1afb0:	35c50513          	addi	a0,a0,860 # 135c <.Lline_table_start1+0x1131>
   1afb4:	950a                	add	a0,a0,sp
   1afb6:	7ff10593          	addi	a1,sp,2047
   1afba:	7bf58593          	addi	a1,a1,1983
   1afbe:	ffff9097          	auipc	ra,0xffff9
   1afc2:	aa0080e7          	jalr	-1376(ra) # 13a5e <_ZN18complex_no_dynamic3app17h61ba743a2fa1af96E>
   1afc6:	398b4503          	lbu	a0,920(s6)
   1afca:	1a051de3          	bnez	a0,1b984 <_start+0x3e66>
   1afce:	39ab4503          	lbu	a0,922(s6)
   1afd2:	399b4583          	lbu	a1,921(s6)
   1afd6:	39bb4603          	lbu	a2,923(s6)
   1afda:	39cb2403          	lw	s0,924(s6)
   1afde:	0522                	slli	a0,a0,0x8
   1afe0:	8d4d                	or	a0,a0,a1
   1afe2:	02ab1823          	sh	a0,48(s6)
   1afe6:	02cb0923          	sb	a2,50(s6)
   1afea:	6505                	lui	a0,0x1
   1afec:	36450513          	addi	a0,a0,868 # 1364 <.Lline_table_start1+0x1139>
   1aff0:	00a105b3          	add	a1,sp,a0
   1aff4:	454d                	li	a0,19
   1aff6:	0522                	slli	a0,a0,0x8
   1aff8:	950a                	add	a0,a0,sp
   1affa:	03800613          	li	a2,56
   1affe:	00001097          	auipc	ra,0x1
   1b002:	a8c080e7          	jalr	-1396(ra) # 1ba8a <memcpy>
   1b006:	01845513          	srli	a0,s0,0x18
   1b00a:	01045593          	srli	a1,s0,0x10
   1b00e:	00845613          	srli	a2,s0,0x8
   1b012:	028b09a3          	sb	s0,51(s6)
   1b016:	02cb0a23          	sb	a2,52(s6)
   1b01a:	02bb0aa3          	sb	a1,53(s6)
   1b01e:	02ab0b23          	sb	a0,54(s6)
   1b022:	7ff10513          	addi	a0,sp,2047
   1b026:	7fc50513          	addi	a0,a0,2044
   1b02a:	45cd                	li	a1,19
   1b02c:	05a2                	slli	a1,a1,0x8
   1b02e:	958a                	add	a1,a1,sp
   1b030:	03800613          	li	a2,56
   1b034:	00001097          	auipc	ra,0x1
   1b038:	a56080e7          	jalr	-1450(ra) # 1ba8a <memcpy>
   1b03c:	6505                	lui	a0,0x1
   1b03e:	35c50513          	addi	a0,a0,860 # 135c <.Lline_table_start1+0x1131>
   1b042:	950a                	add	a0,a0,sp
   1b044:	7ff10593          	addi	a1,sp,2047
   1b048:	7f558593          	addi	a1,a1,2037
   1b04c:	ffff9097          	auipc	ra,0xffff9
   1b050:	430080e7          	jalr	1072(ra) # 1447c <_ZN18complex_no_dynamic3app17h75bccc001cb7bb3fE>
   1b054:	398b4503          	lbu	a0,920(s6)
   1b058:	120516e3          	bnez	a0,1b984 <_start+0x3e66>
   1b05c:	399b4503          	lbu	a0,921(s6)
   1b060:	39ab4583          	lbu	a1,922(s6)
   1b064:	39bb4603          	lbu	a2,923(s6)
   1b068:	39cb2683          	lw	a3,924(s6)
   1b06c:	3a0b2703          	lw	a4,928(s6)
   1b070:	3a4b2783          	lw	a5,932(s6)
   1b074:	3a8b1483          	lh	s1,936(s6)
   1b078:	05a2                	slli	a1,a1,0x8
   1b07a:	32eb2e23          	sw	a4,828(s6)
   1b07e:	34fb2023          	sw	a5,832(s6)
   1b082:	349b1223          	sh	s1,836(s6)
   1b086:	0186d713          	srli	a4,a3,0x18
   1b08a:	8d4d                	or	a0,a0,a1
   1b08c:	0106d593          	srli	a1,a3,0x10
   1b090:	06bb0aa3          	sb	a1,117(s6)
   1b094:	06eb0b23          	sb	a4,118(s6)
   1b098:	0086d593          	srli	a1,a3,0x8
   1b09c:	06ab1823          	sh	a0,112(s6)
   1b0a0:	06cb0923          	sb	a2,114(s6)
   1b0a4:	06db09a3          	sb	a3,115(s6)
   1b0a8:	06bb0a23          	sb	a1,116(s6)
   1b0ac:	6505                	lui	a0,0x1
   1b0ae:	03b50513          	addi	a0,a0,59 # 103b <.Lline_table_start1+0xe10>
   1b0b2:	950a                	add	a0,a0,sp
   1b0b4:	45cd                	li	a1,19
   1b0b6:	05a2                	slli	a1,a1,0x8
   1b0b8:	958a                	add	a1,a1,sp
   1b0ba:	4629                	li	a2,10
   1b0bc:	00001097          	auipc	ra,0x1
   1b0c0:	9ce080e7          	jalr	-1586(ra) # 1ba8a <memcpy>
   1b0c4:	6505                	lui	a0,0x1
   1b0c6:	35c50513          	addi	a0,a0,860 # 135c <.Lline_table_start1+0x1131>
   1b0ca:	950a                	add	a0,a0,sp
   1b0cc:	6585                	lui	a1,0x1
   1b0ce:	03458593          	addi	a1,a1,52 # 1034 <.Lline_table_start1+0xe09>
   1b0d2:	958a                	add	a1,a1,sp
   1b0d4:	ffffa097          	auipc	ra,0xffffa
   1b0d8:	a80080e7          	jalr	-1408(ra) # 14b54 <_ZN18complex_no_dynamic3app17h87ca0f95877320e9E>
   1b0dc:	398b4503          	lbu	a0,920(s6)
   1b0e0:	0a0512e3          	bnez	a0,1b984 <_start+0x3e66>
   1b0e4:	39ab4503          	lbu	a0,922(s6)
   1b0e8:	399b4583          	lbu	a1,921(s6)
   1b0ec:	39bb4603          	lbu	a2,923(s6)
   1b0f0:	39cb2403          	lw	s0,924(s6)
   1b0f4:	0522                	slli	a0,a0,0x8
   1b0f6:	8d4d                	or	a0,a0,a1
   1b0f8:	08ab1123          	sh	a0,130(s6)
   1b0fc:	08cb0223          	sb	a2,132(s6)
   1b100:	6505                	lui	a0,0x1
   1b102:	36450513          	addi	a0,a0,868 # 1364 <.Lline_table_start1+0x1139>
   1b106:	00a105b3          	add	a1,sp,a0
   1b10a:	454d                	li	a0,19
   1b10c:	0522                	slli	a0,a0,0x8
   1b10e:	950a                	add	a0,a0,sp
   1b110:	03800613          	li	a2,56
   1b114:	00001097          	auipc	ra,0x1
   1b118:	976080e7          	jalr	-1674(ra) # 1ba8a <memcpy>
   1b11c:	01845513          	srli	a0,s0,0x18
   1b120:	01045593          	srli	a1,s0,0x10
   1b124:	00845613          	srli	a2,s0,0x8
   1b128:	088b02a3          	sb	s0,133(s6)
   1b12c:	08cb0323          	sb	a2,134(s6)
   1b130:	08bb03a3          	sb	a1,135(s6)
   1b134:	08ab0423          	sb	a0,136(s6)
   1b138:	6505                	lui	a0,0x1
   1b13a:	04d50513          	addi	a0,a0,77 # 104d <.Lline_table_start1+0xe22>
   1b13e:	950a                	add	a0,a0,sp
   1b140:	45cd                	li	a1,19
   1b142:	05a2                	slli	a1,a1,0x8
   1b144:	958a                	add	a1,a1,sp
   1b146:	03800613          	li	a2,56
   1b14a:	00001097          	auipc	ra,0x1
   1b14e:	940080e7          	jalr	-1728(ra) # 1ba8a <memcpy>
   1b152:	6505                	lui	a0,0x1
   1b154:	35c50513          	addi	a0,a0,860 # 135c <.Lline_table_start1+0x1131>
   1b158:	950a                	add	a0,a0,sp
   1b15a:	6585                	lui	a1,0x1
   1b15c:	04658593          	addi	a1,a1,70 # 1046 <.Lline_table_start1+0xe1b>
   1b160:	958a                	add	a1,a1,sp
   1b162:	ffff9097          	auipc	ra,0xffff9
   1b166:	9f6080e7          	jalr	-1546(ra) # 13b58 <_ZN18complex_no_dynamic3app17h664d6f97b0cdfa01E>
   1b16a:	398b4503          	lbu	a0,920(s6)
   1b16e:	00051be3          	bnez	a0,1b984 <_start+0x3e66>
   1b172:	399b4503          	lbu	a0,921(s6)
   1b176:	39ab4583          	lbu	a1,922(s6)
   1b17a:	3a0b2603          	lw	a2,928(s6)
   1b17e:	3a4b2683          	lw	a3,932(s6)
   1b182:	3a8b2703          	lw	a4,936(s6)
   1b186:	3acb2783          	lw	a5,940(s6)
   1b18a:	3b0b2483          	lw	s1,944(s6)
   1b18e:	3b4b4403          	lbu	s0,948(s6)
   1b192:	32cb2e23          	sw	a2,828(s6)
   1b196:	34db2023          	sw	a3,832(s6)
   1b19a:	34eb2223          	sw	a4,836(s6)
   1b19e:	34fb2423          	sw	a5,840(s6)
   1b1a2:	39bb4603          	lbu	a2,923(s6)
   1b1a6:	39cb2683          	lw	a3,924(s6)
   1b1aa:	05a2                	slli	a1,a1,0x8
   1b1ac:	349b2623          	sw	s1,844(s6)
   1b1b0:	348b0823          	sb	s0,848(s6)
   1b1b4:	0186d713          	srli	a4,a3,0x18
   1b1b8:	8d4d                	or	a0,a0,a1
   1b1ba:	0106d593          	srli	a1,a3,0x10
   1b1be:	0cbb03a3          	sb	a1,199(s6)
   1b1c2:	0ceb0423          	sb	a4,200(s6)
   1b1c6:	0086d593          	srli	a1,a3,0x8
   1b1ca:	0cab1123          	sh	a0,194(s6)
   1b1ce:	0ccb0223          	sb	a2,196(s6)
   1b1d2:	0cdb02a3          	sb	a3,197(s6)
   1b1d6:	0cbb0323          	sb	a1,198(s6)
   1b1da:	6505                	lui	a0,0x1
   1b1dc:	08d50513          	addi	a0,a0,141 # 108d <.Lline_table_start1+0xe62>
   1b1e0:	950a                	add	a0,a0,sp
   1b1e2:	45cd                	li	a1,19
   1b1e4:	05a2                	slli	a1,a1,0x8
   1b1e6:	958a                	add	a1,a1,sp
   1b1e8:	4655                	li	a2,21
   1b1ea:	00001097          	auipc	ra,0x1
   1b1ee:	8a0080e7          	jalr	-1888(ra) # 1ba8a <memcpy>
   1b1f2:	6505                	lui	a0,0x1
   1b1f4:	35c50513          	addi	a0,a0,860 # 135c <.Lline_table_start1+0x1131>
   1b1f8:	950a                	add	a0,a0,sp
   1b1fa:	6585                	lui	a1,0x1
   1b1fc:	08658593          	addi	a1,a1,134 # 1086 <.Lline_table_start1+0xe5b>
   1b200:	958a                	add	a1,a1,sp
   1b202:	ffff6097          	auipc	ra,0xffff6
   1b206:	6e0080e7          	jalr	1760(ra) # 118e2 <_ZN18complex_no_dynamic3app17h1be1f831664dbddfE>
   1b20a:	398b4503          	lbu	a0,920(s6)
   1b20e:	76051b63          	bnez	a0,1b984 <_start+0x3e66>
   1b212:	39ab4503          	lbu	a0,922(s6)
   1b216:	399b4583          	lbu	a1,921(s6)
   1b21a:	39bb4603          	lbu	a2,923(s6)
   1b21e:	39cb2403          	lw	s0,924(s6)
   1b222:	0522                	slli	a0,a0,0x8
   1b224:	8d4d                	or	a0,a0,a1
   1b226:	0cab1f23          	sh	a0,222(s6)
   1b22a:	0ecb0023          	sb	a2,224(s6)
   1b22e:	6505                	lui	a0,0x1
   1b230:	36450513          	addi	a0,a0,868 # 1364 <.Lline_table_start1+0x1139>
   1b234:	00a105b3          	add	a1,sp,a0
   1b238:	454d                	li	a0,19
   1b23a:	0522                	slli	a0,a0,0x8
   1b23c:	950a                	add	a0,a0,sp
   1b23e:	05600613          	li	a2,86
   1b242:	00001097          	auipc	ra,0x1
   1b246:	848080e7          	jalr	-1976(ra) # 1ba8a <memcpy>
   1b24a:	01845513          	srli	a0,s0,0x18
   1b24e:	01045593          	srli	a1,s0,0x10
   1b252:	00845613          	srli	a2,s0,0x8
   1b256:	0e8b00a3          	sb	s0,225(s6)
   1b25a:	0ecb0123          	sb	a2,226(s6)
   1b25e:	0ebb01a3          	sb	a1,227(s6)
   1b262:	0eab0223          	sb	a0,228(s6)
   1b266:	6505                	lui	a0,0x1
   1b268:	0a950513          	addi	a0,a0,169 # 10a9 <.Lline_table_start1+0xe7e>
   1b26c:	950a                	add	a0,a0,sp
   1b26e:	45cd                	li	a1,19
   1b270:	05a2                	slli	a1,a1,0x8
   1b272:	958a                	add	a1,a1,sp
   1b274:	05600613          	li	a2,86
   1b278:	00001097          	auipc	ra,0x1
   1b27c:	812080e7          	jalr	-2030(ra) # 1ba8a <memcpy>
   1b280:	6505                	lui	a0,0x1
   1b282:	35c50513          	addi	a0,a0,860 # 135c <.Lline_table_start1+0x1131>
   1b286:	950a                	add	a0,a0,sp
   1b288:	6585                	lui	a1,0x1
   1b28a:	0a258593          	addi	a1,a1,162 # 10a2 <.Lline_table_start1+0xe77>
   1b28e:	958a                	add	a1,a1,sp
   1b290:	ffffb097          	auipc	ra,0xffffb
   1b294:	1ce080e7          	jalr	462(ra) # 1645e <_ZN18complex_no_dynamic3app17hb00213b4ce68fd0eE>
   1b298:	398b4503          	lbu	a0,920(s6)
   1b29c:	6e051463          	bnez	a0,1b984 <_start+0x3e66>
   1b2a0:	399b4503          	lbu	a0,921(s6)
   1b2a4:	39ab4583          	lbu	a1,922(s6)
   1b2a8:	39bb4603          	lbu	a2,923(s6)
   1b2ac:	39cb2683          	lw	a3,924(s6)
   1b2b0:	3a0b2703          	lw	a4,928(s6)
   1b2b4:	3a4b2783          	lw	a5,932(s6)
   1b2b8:	3a8b1483          	lh	s1,936(s6)
   1b2bc:	3aab4403          	lbu	s0,938(s6)
   1b2c0:	05a2                	slli	a1,a1,0x8
   1b2c2:	32eb2e23          	sw	a4,828(s6)
   1b2c6:	34fb2023          	sw	a5,832(s6)
   1b2ca:	349b1223          	sh	s1,836(s6)
   1b2ce:	348b0323          	sb	s0,838(s6)
   1b2d2:	0186d713          	srli	a4,a3,0x18
   1b2d6:	8d4d                	or	a0,a0,a1
   1b2d8:	0106d593          	srli	a1,a3,0x10
   1b2dc:	14bb00a3          	sb	a1,321(s6)
   1b2e0:	14eb0123          	sb	a4,322(s6)
   1b2e4:	0086d593          	srli	a1,a3,0x8
   1b2e8:	12ab1e23          	sh	a0,316(s6)
   1b2ec:	12cb0f23          	sb	a2,318(s6)
   1b2f0:	12db0fa3          	sb	a3,319(s6)
   1b2f4:	14bb0023          	sb	a1,320(s6)
   1b2f8:	6505                	lui	a0,0x1
   1b2fa:	10750513          	addi	a0,a0,263 # 1107 <.Lline_table_start1+0xedc>
   1b2fe:	950a                	add	a0,a0,sp
   1b300:	45cd                	li	a1,19
   1b302:	05a2                	slli	a1,a1,0x8
   1b304:	958a                	add	a1,a1,sp
   1b306:	462d                	li	a2,11
   1b308:	00000097          	auipc	ra,0x0
   1b30c:	782080e7          	jalr	1922(ra) # 1ba8a <memcpy>
   1b310:	6505                	lui	a0,0x1
   1b312:	35c50513          	addi	a0,a0,860 # 135c <.Lline_table_start1+0x1131>
   1b316:	950a                	add	a0,a0,sp
   1b318:	45c5                	li	a1,17
   1b31a:	05a2                	slli	a1,a1,0x8
   1b31c:	958a                	add	a1,a1,sp
   1b31e:	ffffa097          	auipc	ra,0xffffa
   1b322:	634080e7          	jalr	1588(ra) # 15952 <_ZN18complex_no_dynamic3app17ha1b0b354e8b5405dE>
   1b326:	398b4503          	lbu	a0,920(s6)
   1b32a:	64051d63          	bnez	a0,1b984 <_start+0x3e66>
   1b32e:	39ab4503          	lbu	a0,922(s6)
   1b332:	399b4583          	lbu	a1,921(s6)
   1b336:	39bb4603          	lbu	a2,923(s6)
   1b33a:	39cb2403          	lw	s0,924(s6)
   1b33e:	0522                	slli	a0,a0,0x8
   1b340:	8d4d                	or	a0,a0,a1
   1b342:	14ab1723          	sh	a0,334(s6)
   1b346:	14cb0823          	sb	a2,336(s6)
   1b34a:	6505                	lui	a0,0x1
   1b34c:	36450513          	addi	a0,a0,868 # 1364 <.Lline_table_start1+0x1139>
   1b350:	00a105b3          	add	a1,sp,a0
   1b354:	454d                	li	a0,19
   1b356:	0522                	slli	a0,a0,0x8
   1b358:	950a                	add	a0,a0,sp
   1b35a:	03d00613          	li	a2,61
   1b35e:	00000097          	auipc	ra,0x0
   1b362:	72c080e7          	jalr	1836(ra) # 1ba8a <memcpy>
   1b366:	01845513          	srli	a0,s0,0x18
   1b36a:	01045593          	srli	a1,s0,0x10
   1b36e:	00845613          	srli	a2,s0,0x8
   1b372:	148b08a3          	sb	s0,337(s6)
   1b376:	14cb0923          	sb	a2,338(s6)
   1b37a:	14bb09a3          	sb	a1,339(s6)
   1b37e:	14ab0a23          	sb	a0,340(s6)
   1b382:	6505                	lui	a0,0x1
   1b384:	11950513          	addi	a0,a0,281 # 1119 <.Lline_table_start1+0xeee>
   1b388:	950a                	add	a0,a0,sp
   1b38a:	45cd                	li	a1,19
   1b38c:	05a2                	slli	a1,a1,0x8
   1b38e:	958a                	add	a1,a1,sp
   1b390:	03d00613          	li	a2,61
   1b394:	00000097          	auipc	ra,0x0
   1b398:	6f6080e7          	jalr	1782(ra) # 1ba8a <memcpy>
   1b39c:	6505                	lui	a0,0x1
   1b39e:	35c50513          	addi	a0,a0,860 # 135c <.Lline_table_start1+0x1131>
   1b3a2:	950a                	add	a0,a0,sp
   1b3a4:	6585                	lui	a1,0x1
   1b3a6:	11258593          	addi	a1,a1,274 # 1112 <.Lline_table_start1+0xee7>
   1b3aa:	958a                	add	a1,a1,sp
   1b3ac:	ffffa097          	auipc	ra,0xffffa
   1b3b0:	ce6080e7          	jalr	-794(ra) # 15092 <_ZN18complex_no_dynamic3app17h8f39b4c463cfa43eE>
   1b3b4:	398b4503          	lbu	a0,920(s6)
   1b3b8:	5c051663          	bnez	a0,1b984 <_start+0x3e66>
   1b3bc:	399b4503          	lbu	a0,921(s6)
   1b3c0:	39ab4583          	lbu	a1,922(s6)
   1b3c4:	39bb4603          	lbu	a2,923(s6)
   1b3c8:	39cb2683          	lw	a3,924(s6)
   1b3cc:	3a0b2703          	lw	a4,928(s6)
   1b3d0:	3a4b2783          	lw	a5,932(s6)
   1b3d4:	3a8b2483          	lw	s1,936(s6)
   1b3d8:	3acb2403          	lw	s0,940(s6)
   1b3dc:	32eb2e23          	sw	a4,828(s6)
   1b3e0:	34fb2023          	sw	a5,832(s6)
   1b3e4:	349b2223          	sw	s1,836(s6)
   1b3e8:	348b2423          	sw	s0,840(s6)
   1b3ec:	3b0b2703          	lw	a4,944(s6)
   1b3f0:	3b4b2783          	lw	a5,948(s6)
   1b3f4:	3b8b2483          	lw	s1,952(s6)
   1b3f8:	05a2                	slli	a1,a1,0x8
   1b3fa:	34eb2623          	sw	a4,844(s6)
   1b3fe:	34fb2823          	sw	a5,848(s6)
   1b402:	349b2a23          	sw	s1,852(s6)
   1b406:	0186d713          	srli	a4,a3,0x18
   1b40a:	8d4d                	or	a0,a0,a1
   1b40c:	0106d593          	srli	a1,a3,0x10
   1b410:	18bb0ba3          	sb	a1,407(s6)
   1b414:	18eb0c23          	sb	a4,408(s6)
   1b418:	0086d593          	srli	a1,a3,0x8
   1b41c:	18ab1923          	sh	a0,402(s6)
   1b420:	18cb0a23          	sb	a2,404(s6)
   1b424:	18db0aa3          	sb	a3,405(s6)
   1b428:	18bb0b23          	sb	a1,406(s6)
   1b42c:	6505                	lui	a0,0x1
   1b42e:	15d50513          	addi	a0,a0,349 # 115d <.Lline_table_start1+0xf32>
   1b432:	950a                	add	a0,a0,sp
   1b434:	45cd                	li	a1,19
   1b436:	05a2                	slli	a1,a1,0x8
   1b438:	958a                	add	a1,a1,sp
   1b43a:	4671                	li	a2,28
   1b43c:	00000097          	auipc	ra,0x0
   1b440:	64e080e7          	jalr	1614(ra) # 1ba8a <memcpy>
   1b444:	6505                	lui	a0,0x1
   1b446:	35c50513          	addi	a0,a0,860 # 135c <.Lline_table_start1+0x1131>
   1b44a:	950a                	add	a0,a0,sp
   1b44c:	6585                	lui	a1,0x1
   1b44e:	15658593          	addi	a1,a1,342 # 1156 <.Lline_table_start1+0xf2b>
   1b452:	958a                	add	a1,a1,sp
   1b454:	ffff9097          	auipc	ra,0xffff9
   1b458:	8f0080e7          	jalr	-1808(ra) # 13d44 <_ZN18complex_no_dynamic3app17h6711aae808d7a5b2E>
   1b45c:	398b4503          	lbu	a0,920(s6)
   1b460:	52051263          	bnez	a0,1b984 <_start+0x3e66>
   1b464:	399b4503          	lbu	a0,921(s6)
   1b468:	39ab4583          	lbu	a1,922(s6)
   1b46c:	39bb4603          	lbu	a2,923(s6)
   1b470:	39cb2683          	lw	a3,924(s6)
   1b474:	3a0b2703          	lw	a4,928(s6)
   1b478:	3a4b2783          	lw	a5,932(s6)
   1b47c:	3a8b2483          	lw	s1,936(s6)
   1b480:	3acb2403          	lw	s0,940(s6)
   1b484:	32eb2e23          	sw	a4,828(s6)
   1b488:	34fb2023          	sw	a5,832(s6)
   1b48c:	349b2223          	sw	s1,836(s6)
   1b490:	348b2423          	sw	s0,840(s6)
   1b494:	3b0b2703          	lw	a4,944(s6)
   1b498:	3b4b2783          	lw	a5,948(s6)
   1b49c:	3b8b2483          	lw	s1,952(s6)
   1b4a0:	3bcb4403          	lbu	s0,956(s6)
   1b4a4:	05a2                	slli	a1,a1,0x8
   1b4a6:	34eb2623          	sw	a4,844(s6)
   1b4aa:	34fb2823          	sw	a5,848(s6)
   1b4ae:	349b2a23          	sw	s1,852(s6)
   1b4b2:	348b0c23          	sb	s0,856(s6)
   1b4b6:	0186d713          	srli	a4,a3,0x18
   1b4ba:	8d4d                	or	a0,a0,a1
   1b4bc:	0106d593          	srli	a1,a3,0x10
   1b4c0:	1abb0da3          	sb	a1,443(s6)
   1b4c4:	1aeb0e23          	sb	a4,444(s6)
   1b4c8:	0086d593          	srli	a1,a3,0x8
   1b4cc:	1aab1b23          	sh	a0,438(s6)
   1b4d0:	1acb0c23          	sb	a2,440(s6)
   1b4d4:	1adb0ca3          	sb	a3,441(s6)
   1b4d8:	1abb0d23          	sb	a1,442(s6)
   1b4dc:	6505                	lui	a0,0x1
   1b4de:	18150513          	addi	a0,a0,385 # 1181 <.Lline_table_start1+0xf56>
   1b4e2:	950a                	add	a0,a0,sp
   1b4e4:	45cd                	li	a1,19
   1b4e6:	05a2                	slli	a1,a1,0x8
   1b4e8:	958a                	add	a1,a1,sp
   1b4ea:	4675                	li	a2,29
   1b4ec:	00000097          	auipc	ra,0x0
   1b4f0:	59e080e7          	jalr	1438(ra) # 1ba8a <memcpy>
   1b4f4:	6505                	lui	a0,0x1
   1b4f6:	35c50513          	addi	a0,a0,860 # 135c <.Lline_table_start1+0x1131>
   1b4fa:	950a                	add	a0,a0,sp
   1b4fc:	6585                	lui	a1,0x1
   1b4fe:	17a58593          	addi	a1,a1,378 # 117a <.Lline_table_start1+0xf4f>
   1b502:	958a                	add	a1,a1,sp
   1b504:	ffffa097          	auipc	ra,0xffffa
   1b508:	074080e7          	jalr	116(ra) # 15578 <_ZN18complex_no_dynamic3app17h9927af4eda18a744E>
   1b50c:	398b4503          	lbu	a0,920(s6)
   1b510:	46051a63          	bnez	a0,1b984 <_start+0x3e66>
   1b514:	39ab4503          	lbu	a0,922(s6)
   1b518:	399b4583          	lbu	a1,921(s6)
   1b51c:	39bb4603          	lbu	a2,923(s6)
   1b520:	39cb2403          	lw	s0,924(s6)
   1b524:	0522                	slli	a0,a0,0x8
   1b526:	8d4d                	or	a0,a0,a1
   1b528:	1cab1d23          	sh	a0,474(s6)
   1b52c:	1ccb0e23          	sb	a2,476(s6)
   1b530:	6505                	lui	a0,0x1
   1b532:	36450513          	addi	a0,a0,868 # 1364 <.Lline_table_start1+0x1139>
   1b536:	00a105b3          	add	a1,sp,a0
   1b53a:	454d                	li	a0,19
   1b53c:	0522                	slli	a0,a0,0x8
   1b53e:	950a                	add	a0,a0,sp
   1b540:	02800613          	li	a2,40
   1b544:	00000097          	auipc	ra,0x0
   1b548:	546080e7          	jalr	1350(ra) # 1ba8a <memcpy>
   1b54c:	01845513          	srli	a0,s0,0x18
   1b550:	01045593          	srli	a1,s0,0x10
   1b554:	00845613          	srli	a2,s0,0x8
   1b558:	1c8b0ea3          	sb	s0,477(s6)
   1b55c:	1ccb0f23          	sb	a2,478(s6)
   1b560:	1cbb0fa3          	sb	a1,479(s6)
   1b564:	1eab0023          	sb	a0,480(s6)
   1b568:	6505                	lui	a0,0x1
   1b56a:	1a550513          	addi	a0,a0,421 # 11a5 <.Lline_table_start1+0xf7a>
   1b56e:	950a                	add	a0,a0,sp
   1b570:	45cd                	li	a1,19
   1b572:	05a2                	slli	a1,a1,0x8
   1b574:	958a                	add	a1,a1,sp
   1b576:	02800613          	li	a2,40
   1b57a:	00000097          	auipc	ra,0x0
   1b57e:	510080e7          	jalr	1296(ra) # 1ba8a <memcpy>
   1b582:	6505                	lui	a0,0x1
   1b584:	35c50513          	addi	a0,a0,860 # 135c <.Lline_table_start1+0x1131>
   1b588:	950a                	add	a0,a0,sp
   1b58a:	6585                	lui	a1,0x1
   1b58c:	19e58593          	addi	a1,a1,414 # 119e <.Lline_table_start1+0xf73>
   1b590:	958a                	add	a1,a1,sp
   1b592:	ffff8097          	auipc	ra,0xffff8
   1b596:	a4e080e7          	jalr	-1458(ra) # 12fe0 <_ZN18complex_no_dynamic3app17h3efcafac019b764bE>
   1b59a:	398b4503          	lbu	a0,920(s6)
   1b59e:	3e051363          	bnez	a0,1b984 <_start+0x3e66>
   1b5a2:	39ab4503          	lbu	a0,922(s6)
   1b5a6:	399b4583          	lbu	a1,921(s6)
   1b5aa:	39bb4603          	lbu	a2,923(s6)
   1b5ae:	39cb2403          	lw	s0,924(s6)
   1b5b2:	0522                	slli	a0,a0,0x8
   1b5b4:	8d4d                	or	a0,a0,a1
   1b5b6:	20ab1523          	sh	a0,522(s6)
   1b5ba:	20cb0623          	sb	a2,524(s6)
   1b5be:	6505                	lui	a0,0x1
   1b5c0:	36450513          	addi	a0,a0,868 # 1364 <.Lline_table_start1+0x1139>
   1b5c4:	00a105b3          	add	a1,sp,a0
   1b5c8:	454d                	li	a0,19
   1b5ca:	0522                	slli	a0,a0,0x8
   1b5cc:	950a                	add	a0,a0,sp
   1b5ce:	05700613          	li	a2,87
   1b5d2:	00000097          	auipc	ra,0x0
   1b5d6:	4b8080e7          	jalr	1208(ra) # 1ba8a <memcpy>
   1b5da:	01845513          	srli	a0,s0,0x18
   1b5de:	01045593          	srli	a1,s0,0x10
   1b5e2:	00845613          	srli	a2,s0,0x8
   1b5e6:	208b06a3          	sb	s0,525(s6)
   1b5ea:	20cb0723          	sb	a2,526(s6)
   1b5ee:	20bb07a3          	sb	a1,527(s6)
   1b5f2:	20ab0823          	sb	a0,528(s6)
   1b5f6:	6505                	lui	a0,0x1
   1b5f8:	1d550513          	addi	a0,a0,469 # 11d5 <.Lline_table_start1+0xfaa>
   1b5fc:	950a                	add	a0,a0,sp
   1b5fe:	45cd                	li	a1,19
   1b600:	05a2                	slli	a1,a1,0x8
   1b602:	958a                	add	a1,a1,sp
   1b604:	05700613          	li	a2,87
   1b608:	00000097          	auipc	ra,0x0
   1b60c:	482080e7          	jalr	1154(ra) # 1ba8a <memcpy>
   1b610:	6505                	lui	a0,0x1
   1b612:	35c50513          	addi	a0,a0,860 # 135c <.Lline_table_start1+0x1131>
   1b616:	950a                	add	a0,a0,sp
   1b618:	6585                	lui	a1,0x1
   1b61a:	1ce58593          	addi	a1,a1,462 # 11ce <.Lline_table_start1+0xfa3>
   1b61e:	958a                	add	a1,a1,sp
   1b620:	ffff6097          	auipc	ra,0xffff6
   1b624:	fdc080e7          	jalr	-36(ra) # 115fc <_ZN18complex_no_dynamic3app17h16f346ba8a96b5b8E>
   1b628:	398b4503          	lbu	a0,920(s6)
   1b62c:	34051c63          	bnez	a0,1b984 <_start+0x3e66>
   1b630:	39ab4503          	lbu	a0,922(s6)
   1b634:	399b4583          	lbu	a1,921(s6)
   1b638:	39bb4603          	lbu	a2,923(s6)
   1b63c:	39cb2403          	lw	s0,924(s6)
   1b640:	0522                	slli	a0,a0,0x8
   1b642:	8d4d                	or	a0,a0,a1
   1b644:	26ab1423          	sh	a0,616(s6)
   1b648:	26cb0523          	sb	a2,618(s6)
   1b64c:	6505                	lui	a0,0x1
   1b64e:	36450513          	addi	a0,a0,868 # 1364 <.Lline_table_start1+0x1139>
   1b652:	00a105b3          	add	a1,sp,a0
   1b656:	454d                	li	a0,19
   1b658:	0522                	slli	a0,a0,0x8
   1b65a:	950a                	add	a0,a0,sp
   1b65c:	04e00613          	li	a2,78
   1b660:	00000097          	auipc	ra,0x0
   1b664:	42a080e7          	jalr	1066(ra) # 1ba8a <memcpy>
   1b668:	01845513          	srli	a0,s0,0x18
   1b66c:	01045593          	srli	a1,s0,0x10
   1b670:	00845613          	srli	a2,s0,0x8
   1b674:	268b05a3          	sb	s0,619(s6)
   1b678:	26cb0623          	sb	a2,620(s6)
   1b67c:	26bb06a3          	sb	a1,621(s6)
   1b680:	26ab0723          	sb	a0,622(s6)
   1b684:	6505                	lui	a0,0x1
   1b686:	23350513          	addi	a0,a0,563 # 1233 <.Lline_table_start1+0x1008>
   1b68a:	950a                	add	a0,a0,sp
   1b68c:	45cd                	li	a1,19
   1b68e:	05a2                	slli	a1,a1,0x8
   1b690:	958a                	add	a1,a1,sp
   1b692:	04e00613          	li	a2,78
   1b696:	00000097          	auipc	ra,0x0
   1b69a:	3f4080e7          	jalr	1012(ra) # 1ba8a <memcpy>
   1b69e:	6505                	lui	a0,0x1
   1b6a0:	35c50513          	addi	a0,a0,860 # 135c <.Lline_table_start1+0x1131>
   1b6a4:	950a                	add	a0,a0,sp
   1b6a6:	6585                	lui	a1,0x1
   1b6a8:	22c58593          	addi	a1,a1,556 # 122c <.Lline_table_start1+0x1001>
   1b6ac:	958a                	add	a1,a1,sp
   1b6ae:	ffff6097          	auipc	ra,0xffff6
   1b6b2:	a86080e7          	jalr	-1402(ra) # 11134 <_ZN18complex_no_dynamic3app17h0900ce7bf0bb14ddE>
   1b6b6:	398b4503          	lbu	a0,920(s6)
   1b6ba:	2c051563          	bnez	a0,1b984 <_start+0x3e66>
   1b6be:	399b4503          	lbu	a0,921(s6)
   1b6c2:	39ab4583          	lbu	a1,922(s6)
   1b6c6:	39bb4603          	lbu	a2,923(s6)
   1b6ca:	39cb2683          	lw	a3,924(s6)
   1b6ce:	3a0b2703          	lw	a4,928(s6)
   1b6d2:	3a4b2783          	lw	a5,932(s6)
   1b6d6:	3a8b1483          	lh	s1,936(s6)
   1b6da:	05a2                	slli	a1,a1,0x8
   1b6dc:	32eb2e23          	sw	a4,828(s6)
   1b6e0:	34fb2023          	sw	a5,832(s6)
   1b6e4:	349b1223          	sh	s1,836(s6)
   1b6e8:	0186d713          	srli	a4,a3,0x18
   1b6ec:	8d4d                	or	a0,a0,a1
   1b6ee:	0106d593          	srli	a1,a3,0x10
   1b6f2:	2cbb01a3          	sb	a1,707(s6)
   1b6f6:	2ceb0223          	sb	a4,708(s6)
   1b6fa:	0086d593          	srli	a1,a3,0x8
   1b6fe:	2aab1f23          	sh	a0,702(s6)
   1b702:	2ccb0023          	sb	a2,704(s6)
   1b706:	2cdb00a3          	sb	a3,705(s6)
   1b70a:	2cbb0123          	sb	a1,706(s6)
   1b70e:	6505                	lui	a0,0x1
   1b710:	28950513          	addi	a0,a0,649 # 1289 <.Lline_table_start1+0x105e>
   1b714:	950a                	add	a0,a0,sp
   1b716:	45cd                	li	a1,19
   1b718:	05a2                	slli	a1,a1,0x8
   1b71a:	958a                	add	a1,a1,sp
   1b71c:	4629                	li	a2,10
   1b71e:	00000097          	auipc	ra,0x0
   1b722:	36c080e7          	jalr	876(ra) # 1ba8a <memcpy>
   1b726:	6505                	lui	a0,0x1
   1b728:	35c50513          	addi	a0,a0,860 # 135c <.Lline_table_start1+0x1131>
   1b72c:	950a                	add	a0,a0,sp
   1b72e:	6585                	lui	a1,0x1
   1b730:	28258593          	addi	a1,a1,642 # 1282 <.Lline_table_start1+0x1057>
   1b734:	958a                	add	a1,a1,sp
   1b736:	ffff7097          	auipc	ra,0xffff7
   1b73a:	3fc080e7          	jalr	1020(ra) # 12b32 <_ZN18complex_no_dynamic3app17h3b79ba547d39f065E>
   1b73e:	398b4503          	lbu	a0,920(s6)
   1b742:	24051163          	bnez	a0,1b984 <_start+0x3e66>
   1b746:	39ab4503          	lbu	a0,922(s6)
   1b74a:	399b4583          	lbu	a1,921(s6)
   1b74e:	39bb4603          	lbu	a2,923(s6)
   1b752:	39cb2403          	lw	s0,924(s6)
   1b756:	0522                	slli	a0,a0,0x8
   1b758:	8d4d                	or	a0,a0,a1
   1b75a:	2cab1823          	sh	a0,720(s6)
   1b75e:	2ccb0923          	sb	a2,722(s6)
   1b762:	6505                	lui	a0,0x1
   1b764:	36450513          	addi	a0,a0,868 # 1364 <.Lline_table_start1+0x1139>
   1b768:	00a105b3          	add	a1,sp,a0
   1b76c:	454d                	li	a0,19
   1b76e:	0522                	slli	a0,a0,0x8
   1b770:	950a                	add	a0,a0,sp
   1b772:	04900613          	li	a2,73
   1b776:	00000097          	auipc	ra,0x0
   1b77a:	314080e7          	jalr	788(ra) # 1ba8a <memcpy>
   1b77e:	01845513          	srli	a0,s0,0x18
   1b782:	01045593          	srli	a1,s0,0x10
   1b786:	00845613          	srli	a2,s0,0x8
   1b78a:	2c8b09a3          	sb	s0,723(s6)
   1b78e:	2ccb0a23          	sb	a2,724(s6)
   1b792:	2cbb0aa3          	sb	a1,725(s6)
   1b796:	2cab0b23          	sb	a0,726(s6)
   1b79a:	6505                	lui	a0,0x1
   1b79c:	29b50513          	addi	a0,a0,667 # 129b <.Lline_table_start1+0x1070>
   1b7a0:	950a                	add	a0,a0,sp
   1b7a2:	45cd                	li	a1,19
   1b7a4:	05a2                	slli	a1,a1,0x8
   1b7a6:	958a                	add	a1,a1,sp
   1b7a8:	04900613          	li	a2,73
   1b7ac:	00000097          	auipc	ra,0x0
   1b7b0:	2de080e7          	jalr	734(ra) # 1ba8a <memcpy>
   1b7b4:	6505                	lui	a0,0x1
   1b7b6:	35c50513          	addi	a0,a0,860 # 135c <.Lline_table_start1+0x1131>
   1b7ba:	950a                	add	a0,a0,sp
   1b7bc:	6585                	lui	a1,0x1
   1b7be:	29458593          	addi	a1,a1,660 # 1294 <.Lline_table_start1+0x1069>
   1b7c2:	958a                	add	a1,a1,sp
   1b7c4:	ffffc097          	auipc	ra,0xffffc
   1b7c8:	8dc080e7          	jalr	-1828(ra) # 170a0 <_ZN18complex_no_dynamic3app17hd44103a2fd9ae347E>
   1b7cc:	398b4503          	lbu	a0,920(s6)
   1b7d0:	1a051a63          	bnez	a0,1b984 <_start+0x3e66>
   1b7d4:	399b4503          	lbu	a0,921(s6)
   1b7d8:	39ab4583          	lbu	a1,922(s6)
   1b7dc:	39bb4803          	lbu	a6,923(s6)
   1b7e0:	39cb2683          	lw	a3,924(s6)
   1b7e4:	3a0b2703          	lw	a4,928(s6)
   1b7e8:	3a4b2783          	lw	a5,932(s6)
   1b7ec:	3a8b2483          	lw	s1,936(s6)
   1b7f0:	3acb2403          	lw	s0,940(s6)
   1b7f4:	3b0b2603          	lw	a2,944(s6)
   1b7f8:	05a2                	slli	a1,a1,0x8
   1b7fa:	349b2223          	sw	s1,836(s6)
   1b7fe:	348b2423          	sw	s0,840(s6)
   1b802:	34cb2623          	sw	a2,844(s6)
   1b806:	0186d613          	srli	a2,a3,0x18
   1b80a:	8d4d                	or	a0,a0,a1
   1b80c:	0106d593          	srli	a1,a3,0x10
   1b810:	32bb02a3          	sb	a1,805(s6)
   1b814:	32cb0323          	sb	a2,806(s6)
   1b818:	32eb2e23          	sw	a4,828(s6)
   1b81c:	34fb2023          	sw	a5,832(s6)
   1b820:	0086d593          	srli	a1,a3,0x8
   1b824:	32ab1023          	sh	a0,800(s6)
   1b828:	330b0123          	sb	a6,802(s6)
   1b82c:	32db01a3          	sb	a3,803(s6)
   1b830:	32bb0223          	sb	a1,804(s6)
   1b834:	6505                	lui	a0,0x1
   1b836:	2eb50513          	addi	a0,a0,747 # 12eb <.Lline_table_start1+0x10c0>
   1b83a:	950a                	add	a0,a0,sp
   1b83c:	45cd                	li	a1,19
   1b83e:	05a2                	slli	a1,a1,0x8
   1b840:	958a                	add	a1,a1,sp
   1b842:	4651                	li	a2,20
   1b844:	00000097          	auipc	ra,0x0
   1b848:	246080e7          	jalr	582(ra) # 1ba8a <memcpy>
   1b84c:	6505                	lui	a0,0x1
   1b84e:	35c50513          	addi	a0,a0,860 # 135c <.Lline_table_start1+0x1131>
   1b852:	950a                	add	a0,a0,sp
   1b854:	6585                	lui	a1,0x1
   1b856:	2e458593          	addi	a1,a1,740 # 12e4 <.Lline_table_start1+0x10b9>
   1b85a:	958a                	add	a1,a1,sp
   1b85c:	ffff7097          	auipc	ra,0xffff7
   1b860:	900080e7          	jalr	-1792(ra) # 1215c <_ZN18complex_no_dynamic3app17h28b47fd001c27732E>
   1b864:	398b4503          	lbu	a0,920(s6)
   1b868:	10051e63          	bnez	a0,1b984 <_start+0x3e66>
   1b86c:	39ab4503          	lbu	a0,922(s6)
   1b870:	399b4583          	lbu	a1,921(s6)
   1b874:	39bb4603          	lbu	a2,923(s6)
   1b878:	39cb2403          	lw	s0,924(s6)
   1b87c:	0522                	slli	a0,a0,0x8
   1b87e:	8d4d                	or	a0,a0,a1
   1b880:	3eab1f23          	sh	a0,1022(s6)
   1b884:	40cb0023          	sb	a2,1024(s6)
   1b888:	6505                	lui	a0,0x1
   1b88a:	36450513          	addi	a0,a0,868 # 1364 <.Lline_table_start1+0x1139>
   1b88e:	00a105b3          	add	a1,sp,a0
   1b892:	454d                	li	a0,19
   1b894:	0522                	slli	a0,a0,0x8
   1b896:	950a                	add	a0,a0,sp
   1b898:	05c00613          	li	a2,92
   1b89c:	00000097          	auipc	ra,0x0
   1b8a0:	1ee080e7          	jalr	494(ra) # 1ba8a <memcpy>
   1b8a4:	01845513          	srli	a0,s0,0x18
   1b8a8:	01045593          	srli	a1,s0,0x10
   1b8ac:	00845613          	srli	a2,s0,0x8
   1b8b0:	408b00a3          	sb	s0,1025(s6)
   1b8b4:	40cb0123          	sb	a2,1026(s6)
   1b8b8:	40bb01a3          	sb	a1,1027(s6)
   1b8bc:	40ab0223          	sb	a0,1028(s6)
   1b8c0:	6505                	lui	a0,0x1
   1b8c2:	3c950513          	addi	a0,a0,969 # 13c9 <.Lline_table_start1+0x119e>
   1b8c6:	950a                	add	a0,a0,sp
   1b8c8:	45cd                	li	a1,19
   1b8ca:	05a2                	slli	a1,a1,0x8
   1b8cc:	958a                	add	a1,a1,sp
   1b8ce:	05c00613          	li	a2,92
   1b8d2:	00000097          	auipc	ra,0x0
   1b8d6:	1b8080e7          	jalr	440(ra) # 1ba8a <memcpy>
   1b8da:	6505                	lui	a0,0x1
   1b8dc:	35c50513          	addi	a0,a0,860 # 135c <.Lline_table_start1+0x1131>
   1b8e0:	950a                	add	a0,a0,sp
   1b8e2:	6585                	lui	a1,0x1
   1b8e4:	3c258593          	addi	a1,a1,962 # 13c2 <.Lline_table_start1+0x1197>
   1b8e8:	958a                	add	a1,a1,sp
   1b8ea:	ffffb097          	auipc	ra,0xffffb
   1b8ee:	d56080e7          	jalr	-682(ra) # 16640 <_ZN18complex_no_dynamic3app17hb36348f5305d2b55E>
   1b8f2:	398b4503          	lbu	a0,920(s6)
   1b8f6:	e559                	bnez	a0,1b984 <_start+0x3e66>
   1b8f8:	39ab4503          	lbu	a0,922(s6)
   1b8fc:	399b4583          	lbu	a1,921(s6)
   1b900:	39bb4603          	lbu	a2,923(s6)
   1b904:	39cb2403          	lw	s0,924(s6)
   1b908:	0522                	slli	a0,a0,0x8
   1b90a:	8d4d                	or	a0,a0,a1
   1b90c:	46ab1123          	sh	a0,1122(s6)
   1b910:	46cb0223          	sb	a2,1124(s6)
   1b914:	6505                	lui	a0,0x1
   1b916:	36450513          	addi	a0,a0,868 # 1364 <.Lline_table_start1+0x1139>
   1b91a:	00a105b3          	add	a1,sp,a0
   1b91e:	454d                	li	a0,19
   1b920:	0522                	slli	a0,a0,0x8
   1b922:	950a                	add	a0,a0,sp
   1b924:	02500613          	li	a2,37
   1b928:	00000097          	auipc	ra,0x0
   1b92c:	162080e7          	jalr	354(ra) # 1ba8a <memcpy>
   1b930:	01845513          	srli	a0,s0,0x18
   1b934:	01045593          	srli	a1,s0,0x10
   1b938:	00845613          	srli	a2,s0,0x8
   1b93c:	468b02a3          	sb	s0,1125(s6)
   1b940:	46cb0323          	sb	a2,1126(s6)
   1b944:	46bb03a3          	sb	a1,1127(s6)
   1b948:	46ab0423          	sb	a0,1128(s6)
   1b94c:	6505                	lui	a0,0x1
   1b94e:	42d50513          	addi	a0,a0,1069 # 142d <.Lline_table_start1+0x1202>
   1b952:	950a                	add	a0,a0,sp
   1b954:	45cd                	li	a1,19
   1b956:	05a2                	slli	a1,a1,0x8
   1b958:	958a                	add	a1,a1,sp
   1b95a:	02500613          	li	a2,37
   1b95e:	00000097          	auipc	ra,0x0
   1b962:	12c080e7          	jalr	300(ra) # 1ba8a <memcpy>
   1b966:	6505                	lui	a0,0x1
   1b968:	35c50513          	addi	a0,a0,860 # 135c <.Lline_table_start1+0x1131>
   1b96c:	950a                	add	a0,a0,sp
   1b96e:	6585                	lui	a1,0x1
   1b970:	42658593          	addi	a1,a1,1062 # 1426 <.Lline_table_start1+0x11fb>
   1b974:	958a                	add	a1,a1,sp
   1b976:	ffffc097          	auipc	ra,0xffffc
   1b97a:	a0c080e7          	jalr	-1524(ra) # 17382 <_ZN18complex_no_dynamic3app17hde1fe44821129af0E>
   1b97e:	398b4503          	lbu	a0,920(s6)
   1b982:	c509                	beqz	a0,1b98c <_start+0x3e6e>
   1b984:	39cb2283          	lw	t0,924(s6)
   1b988:	a6efc06f          	j	17bf6 <_start+0xd8>
   1b98c:	39ab4503          	lbu	a0,922(s6)
   1b990:	399b4583          	lbu	a1,921(s6)
   1b994:	39bb4603          	lbu	a2,923(s6)
   1b998:	39cb2403          	lw	s0,924(s6)
   1b99c:	0522                	slli	a0,a0,0x8
   1b99e:	8d4d                	or	a0,a0,a1
   1b9a0:	48ab1723          	sh	a0,1166(s6)
   1b9a4:	48cb0823          	sb	a2,1168(s6)
   1b9a8:	6505                	lui	a0,0x1
   1b9aa:	36450513          	addi	a0,a0,868 # 1364 <.Lline_table_start1+0x1139>
   1b9ae:	00a105b3          	add	a1,sp,a0
   1b9b2:	454d                	li	a0,19
   1b9b4:	0522                	slli	a0,a0,0x8
   1b9b6:	950a                	add	a0,a0,sp
   1b9b8:	02300613          	li	a2,35
   1b9bc:	00000097          	auipc	ra,0x0
   1b9c0:	0ce080e7          	jalr	206(ra) # 1ba8a <memcpy>
   1b9c4:	01845513          	srli	a0,s0,0x18
   1b9c8:	01045593          	srli	a1,s0,0x10
   1b9cc:	00845613          	srli	a2,s0,0x8
   1b9d0:	488b08a3          	sb	s0,1169(s6)
   1b9d4:	48cb0923          	sb	a2,1170(s6)
   1b9d8:	48bb09a3          	sb	a1,1171(s6)
   1b9dc:	48ab0a23          	sb	a0,1172(s6)
   1b9e0:	6505                	lui	a0,0x1
   1b9e2:	45950513          	addi	a0,a0,1113 # 1459 <.Lline_table_start1+0x122e>
   1b9e6:	950a                	add	a0,a0,sp
   1b9e8:	45cd                	li	a1,19
   1b9ea:	05a2                	slli	a1,a1,0x8
   1b9ec:	958a                	add	a1,a1,sp
   1b9ee:	02300613          	li	a2,35
   1b9f2:	00000097          	auipc	ra,0x0
   1b9f6:	098080e7          	jalr	152(ra) # 1ba8a <memcpy>
   1b9fa:	6505                	lui	a0,0x1
   1b9fc:	35c50513          	addi	a0,a0,860 # 135c <.Lline_table_start1+0x1131>
   1ba00:	950a                	add	a0,a0,sp
   1ba02:	6585                	lui	a1,0x1
   1ba04:	45258593          	addi	a1,a1,1106 # 1452 <.Lline_table_start1+0x1227>
   1ba08:	958a                	add	a1,a1,sp
   1ba0a:	ffffc097          	auipc	ra,0xffffc
   1ba0e:	01e080e7          	jalr	30(ra) # 17a28 <_ZN18complex_no_dynamic3app17hfbc4e335a321c6d6E>
   1ba12:	398b4503          	lbu	a0,920(s6)
   1ba16:	39cb2283          	lw	t0,924(s6)
   1ba1a:	9defc06f          	j	17bf8 <_start+0xda>

0001ba1e <memset>:
   1ba1e:	46c1                	li	a3,16
   1ba20:	04d66f63          	bltu	a2,a3,1ba7e <memset+0x60>
   1ba24:	40a006b3          	neg	a3,a0
   1ba28:	0036f813          	andi	a6,a3,3
   1ba2c:	01050733          	add	a4,a0,a6
   1ba30:	00e57963          	bgeu	a0,a4,1ba42 <memset+0x24>
   1ba34:	87c2                	mv	a5,a6
   1ba36:	86aa                	mv	a3,a0
   1ba38:	00b68023          	sb	a1,0(a3)
   1ba3c:	17fd                	addi	a5,a5,-1
   1ba3e:	0685                	addi	a3,a3,1
   1ba40:	ffe5                	bnez	a5,1ba38 <memset+0x1a>
   1ba42:	41060633          	sub	a2,a2,a6
   1ba46:	ffc67693          	andi	a3,a2,-4
   1ba4a:	96ba                	add	a3,a3,a4
   1ba4c:	00d77e63          	bgeu	a4,a3,1ba68 <memset+0x4a>
   1ba50:	0ff5f813          	zext.b	a6,a1
   1ba54:	010107b7          	lui	a5,0x1010
   1ba58:	10178793          	addi	a5,a5,257 # 1010101 <_ZN17compiler_builtins3mem6memcpy17h90d0c987d2ef5a79E+0xff466f>
   1ba5c:	02f807b3          	mul	a5,a6,a5
   1ba60:	c31c                	sw	a5,0(a4)
   1ba62:	0711                	addi	a4,a4,4
   1ba64:	fed76ee3          	bltu	a4,a3,1ba60 <memset+0x42>
   1ba68:	8a0d                	andi	a2,a2,3
   1ba6a:	00c68733          	add	a4,a3,a2
   1ba6e:	00e6f763          	bgeu	a3,a4,1ba7c <memset+0x5e>
   1ba72:	00b68023          	sb	a1,0(a3)
   1ba76:	167d                	addi	a2,a2,-1
   1ba78:	0685                	addi	a3,a3,1
   1ba7a:	fe65                	bnez	a2,1ba72 <memset+0x54>
   1ba7c:	8082                	ret
   1ba7e:	86aa                	mv	a3,a0
   1ba80:	00c50733          	add	a4,a0,a2
   1ba84:	fee567e3          	bltu	a0,a4,1ba72 <memset+0x54>
   1ba88:	bfd5                	j	1ba7c <memset+0x5e>

0001ba8a <memcpy>:
   1ba8a:	00000317          	auipc	t1,0x0
   1ba8e:	00830067          	jr	8(t1) # 1ba92 <_ZN17compiler_builtins3mem6memcpy17h90d0c987d2ef5a79E>

0001ba92 <_ZN17compiler_builtins3mem6memcpy17h90d0c987d2ef5a79E>:
   1ba92:	1141                	addi	sp,sp,-16
   1ba94:	c622                	sw	s0,12(sp)
   1ba96:	46c1                	li	a3,16
   1ba98:	06d66363          	bltu	a2,a3,1bafe <_ZN17compiler_builtins3mem6memcpy17h90d0c987d2ef5a79E+0x6c>
   1ba9c:	40a006b3          	neg	a3,a0
   1baa0:	0036f813          	andi	a6,a3,3
   1baa4:	01050fb3          	add	t6,a0,a6
   1baa8:	01f57d63          	bgeu	a0,t6,1bac2 <_ZN17compiler_builtins3mem6memcpy17h90d0c987d2ef5a79E+0x30>
   1baac:	8742                	mv	a4,a6
   1baae:	86aa                	mv	a3,a0
   1bab0:	87ae                	mv	a5,a1
   1bab2:	0007c883          	lbu	a7,0(a5)
   1bab6:	177d                	addi	a4,a4,-1
   1bab8:	01168023          	sb	a7,0(a3)
   1babc:	0685                	addi	a3,a3,1
   1babe:	0785                	addi	a5,a5,1
   1bac0:	fb6d                	bnez	a4,1bab2 <_ZN17compiler_builtins3mem6memcpy17h90d0c987d2ef5a79E+0x20>
   1bac2:	01058433          	add	s0,a1,a6
   1bac6:	410608b3          	sub	a7,a2,a6
   1baca:	ffc8f713          	andi	a4,a7,-4
   1bace:	00347613          	andi	a2,s0,3
   1bad2:	00ef86b3          	add	a3,t6,a4
   1bad6:	e621                	bnez	a2,1bb1e <_ZN17compiler_builtins3mem6memcpy17h90d0c987d2ef5a79E+0x8c>
   1bad8:	00dffa63          	bgeu	t6,a3,1baec <_ZN17compiler_builtins3mem6memcpy17h90d0c987d2ef5a79E+0x5a>
   1badc:	8622                	mv	a2,s0
   1bade:	421c                	lw	a5,0(a2)
   1bae0:	00ffa023          	sw	a5,0(t6)
   1bae4:	0f91                	addi	t6,t6,4
   1bae6:	0611                	addi	a2,a2,4
   1bae8:	fedfebe3          	bltu	t6,a3,1bade <_ZN17compiler_builtins3mem6memcpy17h90d0c987d2ef5a79E+0x4c>
   1baec:	00e405b3          	add	a1,s0,a4
   1baf0:	0038f613          	andi	a2,a7,3
   1baf4:	00c68733          	add	a4,a3,a2
   1baf8:	00e6e863          	bltu	a3,a4,1bb08 <_ZN17compiler_builtins3mem6memcpy17h90d0c987d2ef5a79E+0x76>
   1bafc:	a831                	j	1bb18 <_ZN17compiler_builtins3mem6memcpy17h90d0c987d2ef5a79E+0x86>
   1bafe:	86aa                	mv	a3,a0
   1bb00:	00c50733          	add	a4,a0,a2
   1bb04:	00e57a63          	bgeu	a0,a4,1bb18 <_ZN17compiler_builtins3mem6memcpy17h90d0c987d2ef5a79E+0x86>
   1bb08:	0005c703          	lbu	a4,0(a1)
   1bb0c:	167d                	addi	a2,a2,-1
   1bb0e:	00e68023          	sb	a4,0(a3)
   1bb12:	0685                	addi	a3,a3,1
   1bb14:	0585                	addi	a1,a1,1
   1bb16:	fa6d                	bnez	a2,1bb08 <_ZN17compiler_builtins3mem6memcpy17h90d0c987d2ef5a79E+0x76>
   1bb18:	4432                	lw	s0,12(sp)
   1bb1a:	0141                	addi	sp,sp,16
   1bb1c:	8082                	ret
   1bb1e:	4801                	li	a6,0
   1bb20:	4791                	li	a5,4
   1bb22:	c402                	sw	zero,8(sp)
   1bb24:	40c783b3          	sub	t2,a5,a2
   1bb28:	00810293          	addi	t0,sp,8
   1bb2c:	0013f313          	andi	t1,t2,1
   1bb30:	00c2e2b3          	or	t0,t0,a2
   1bb34:	04031763          	bnez	t1,1bb82 <_ZN17compiler_builtins3mem6memcpy17h90d0c987d2ef5a79E+0xf0>
   1bb38:	0023f793          	andi	a5,t2,2
   1bb3c:	ebb9                	bnez	a5,1bb92 <_ZN17compiler_builtins3mem6memcpy17h90d0c987d2ef5a79E+0x100>
   1bb3e:	4ea2                	lw	t4,8(sp)
   1bb40:	00361813          	slli	a6,a2,0x3
   1bb44:	004f8793          	addi	a5,t6,4
   1bb48:	40c40f33          	sub	t5,s0,a2
   1bb4c:	06d7f363          	bgeu	a5,a3,1bbb2 <_ZN17compiler_builtins3mem6memcpy17h90d0c987d2ef5a79E+0x120>
   1bb50:	410007b3          	neg	a5,a6
   1bb54:	0187fe13          	andi	t3,a5,24
   1bb58:	004f2283          	lw	t0,4(t5)
   1bb5c:	004f0393          	addi	t2,t5,4
   1bb60:	010ed5b3          	srl	a1,t4,a6
   1bb64:	004f8313          	addi	t1,t6,4
   1bb68:	01c297b3          	sll	a5,t0,t3
   1bb6c:	8ddd                	or	a1,a1,a5
   1bb6e:	008f8793          	addi	a5,t6,8
   1bb72:	00bfa023          	sw	a1,0(t6)
   1bb76:	8f9a                	mv	t6,t1
   1bb78:	8f1e                	mv	t5,t2
   1bb7a:	8e96                	mv	t4,t0
   1bb7c:	fcd7eee3          	bltu	a5,a3,1bb58 <_ZN17compiler_builtins3mem6memcpy17h90d0c987d2ef5a79E+0xc6>
   1bb80:	a825                	j	1bbb8 <_ZN17compiler_builtins3mem6memcpy17h90d0c987d2ef5a79E+0x126>
   1bb82:	00044783          	lbu	a5,0(s0)
   1bb86:	00f28023          	sb	a5,0(t0)
   1bb8a:	4805                	li	a6,1
   1bb8c:	0023f793          	andi	a5,t2,2
   1bb90:	d7dd                	beqz	a5,1bb3e <_ZN17compiler_builtins3mem6memcpy17h90d0c987d2ef5a79E+0xac>
   1bb92:	010407b3          	add	a5,s0,a6
   1bb96:	00079783          	lh	a5,0(a5)
   1bb9a:	9816                	add	a6,a6,t0
   1bb9c:	00f81023          	sh	a5,0(a6)
   1bba0:	4ea2                	lw	t4,8(sp)
   1bba2:	00361813          	slli	a6,a2,0x3
   1bba6:	004f8793          	addi	a5,t6,4
   1bbaa:	40c40f33          	sub	t5,s0,a2
   1bbae:	fad7e1e3          	bltu	a5,a3,1bb50 <_ZN17compiler_builtins3mem6memcpy17h90d0c987d2ef5a79E+0xbe>
   1bbb2:	82f6                	mv	t0,t4
   1bbb4:	83fa                	mv	t2,t5
   1bbb6:	837e                	mv	t1,t6
   1bbb8:	00010223          	sb	zero,4(sp)
   1bbbc:	4785                	li	a5,1
   1bbbe:	00010123          	sb	zero,2(sp)
   1bbc2:	00f61763          	bne	a2,a5,1bbd0 <_ZN17compiler_builtins3mem6memcpy17h90d0c987d2ef5a79E+0x13e>
   1bbc6:	4781                	li	a5,0
   1bbc8:	4e01                	li	t3,0
   1bbca:	4e81                	li	t4,0
   1bbcc:	0050                	addi	a2,sp,4
   1bbce:	a819                	j	1bbe4 <_ZN17compiler_builtins3mem6memcpy17h90d0c987d2ef5a79E+0x152>
   1bbd0:	0043c783          	lbu	a5,4(t2)
   1bbd4:	0053ce03          	lbu	t3,5(t2)
   1bbd8:	4e89                	li	t4,2
   1bbda:	00f10223          	sb	a5,4(sp)
   1bbde:	0e22                	slli	t3,t3,0x8
   1bbe0:	00210613          	addi	a2,sp,2
   1bbe4:	00147593          	andi	a1,s0,1
   1bbe8:	e199                	bnez	a1,1bbee <_ZN17compiler_builtins3mem6memcpy17h90d0c987d2ef5a79E+0x15c>
   1bbea:	4601                	li	a2,0
   1bbec:	a821                	j	1bc04 <_ZN17compiler_builtins3mem6memcpy17h90d0c987d2ef5a79E+0x172>
   1bbee:	0391                	addi	t2,t2,4
   1bbf0:	93f6                	add	t2,t2,t4
   1bbf2:	0003c583          	lbu	a1,0(t2)
   1bbf6:	00b60023          	sb	a1,0(a2)
   1bbfa:	00214603          	lbu	a2,2(sp)
   1bbfe:	00414783          	lbu	a5,4(sp)
   1bc02:	0642                	slli	a2,a2,0x10
   1bc04:	8e5d                	or	a2,a2,a5
   1bc06:	0102d5b3          	srl	a1,t0,a6
   1bc0a:	410007b3          	neg	a5,a6
   1bc0e:	00ce6633          	or	a2,t3,a2
   1bc12:	8be1                	andi	a5,a5,24
   1bc14:	00f61633          	sll	a2,a2,a5
   1bc18:	8dd1                	or	a1,a1,a2
   1bc1a:	00b32023          	sw	a1,0(t1)
   1bc1e:	00e405b3          	add	a1,s0,a4
   1bc22:	0038f613          	andi	a2,a7,3
   1bc26:	00c68733          	add	a4,a3,a2
   1bc2a:	ece6efe3          	bltu	a3,a4,1bb08 <_ZN17compiler_builtins3mem6memcpy17h90d0c987d2ef5a79E+0x76>
   1bc2e:	b5ed                	j	1bb18 <_ZN17compiler_builtins3mem6memcpy17h90d0c987d2ef5a79E+0x86>
