
target/thumbv6m-none-eabi/opt-3/examples/complex_no_dynamic:     file format elf32-littlearm

Sections:
Idx Name          Size      VMA       LMA       File off  Algn
  0 .ARM.exidx    00000010  000100d4  000100d4  000000d4  2**2
                  CONTENTS, ALLOC, LOAD, READONLY, DATA
  1 .text         00006f30  000200e4  000200e4  000000e4  2**2
                  CONTENTS, ALLOC, LOAD, READONLY, CODE
  2 .comment      00000099  00000000  00000000  00007014  2**0
                  CONTENTS, READONLY
  3 .ARM.attributes 00000032  00000000  00000000  000070ad  2**0
                  CONTENTS, READONLY

Disassembly of section .text:

000200e4 <_ZN18complex_no_dynamic3app17h0281a11321c16b3cE>:
   200e4:	b5f0      	push	{r4, r5, r6, r7, lr}
   200e6:	af03      	add	r7, sp, #12
   200e8:	b099      	sub	sp, #100	@ 0x64
   200ea:	4604      	mov	r4, r0
   200ec:	466d      	mov	r5, sp
   200ee:	2651      	movs	r6, #81	@ 0x51
   200f0:	4628      	mov	r0, r5
   200f2:	4632      	mov	r2, r6
   200f4:	f006 ff89 	bl	2700a <__aeabi_memcpy>
   200f8:	a815      	add	r0, sp, #84	@ 0x54
   200fa:	2100      	movs	r1, #0
   200fc:	7381      	strb	r1, [r0, #14]
   200fe:	8181      	strh	r1, [r0, #12]
   20100:	9117      	str	r1, [sp, #92]	@ 0x5c
   20102:	9116      	str	r1, [sp, #88]	@ 0x58
   20104:	9115      	str	r1, [sp, #84]	@ 0x54
   20106:	4822      	ldr	r0, [pc, #136]	@ (20190 <_ZN18complex_no_dynamic3app17h0281a11321c16b3cE+0xac>)
   20108:	462a      	mov	r2, r5
   2010a:	4633      	mov	r3, r6
   2010c:	df04      	svc	4
   2010e:	2802      	cmp	r0, #2
   20110:	d00e      	beq.n	20130 <_ZN18complex_no_dynamic3app17h0281a11321c16b3cE+0x4c>
   20112:	481f      	ldr	r0, [pc, #124]	@ (20190 <_ZN18complex_no_dynamic3app17h0281a11321c16b3cE+0xac>)
   20114:	2103      	movs	r1, #3
   20116:	aa15      	add	r2, sp, #84	@ 0x54
   20118:	230f      	movs	r3, #15
   2011a:	df03      	svc	3
   2011c:	2802      	cmp	r0, #2
   2011e:	d007      	beq.n	20130 <_ZN18complex_no_dynamic3app17h0281a11321c16b3cE+0x4c>
   20120:	481b      	ldr	r0, [pc, #108]	@ (20190 <_ZN18complex_no_dynamic3app17h0281a11321c16b3cE+0xac>)
   20122:	2203      	movs	r2, #3
   20124:	2500      	movs	r5, #0
   20126:	4629      	mov	r1, r5
   20128:	462b      	mov	r3, r5
   2012a:	df02      	svc	2
   2012c:	287f      	cmp	r0, #127	@ 0x7f
   2012e:	d810      	bhi.n	20152 <_ZN18complex_no_dynamic3app17h0281a11321c16b3cE+0x6e>
   20130:	2001      	movs	r0, #1
   20132:	7020      	strb	r0, [r4, #0]
   20134:	6061      	str	r1, [r4, #4]
   20136:	4c16      	ldr	r4, [pc, #88]	@ (20190 <_ZN18complex_no_dynamic3app17h0281a11321c16b3cE+0xac>)
   20138:	2103      	movs	r1, #3
   2013a:	2500      	movs	r5, #0
   2013c:	4620      	mov	r0, r4
   2013e:	462a      	mov	r2, r5
   20140:	462b      	mov	r3, r5
   20142:	df03      	svc	3
   20144:	4620      	mov	r0, r4
   20146:	4629      	mov	r1, r5
   20148:	462a      	mov	r2, r5
   2014a:	462b      	mov	r3, r5
   2014c:	df04      	svc	4
   2014e:	b019      	add	sp, #100	@ 0x64
   20150:	bdf0      	pop	{r4, r5, r6, r7, pc}
   20152:	480f      	ldr	r0, [pc, #60]	@ (20190 <_ZN18complex_no_dynamic3app17h0281a11321c16b3cE+0xac>)
   20154:	2603      	movs	r6, #3
   20156:	4631      	mov	r1, r6
   20158:	462a      	mov	r2, r5
   2015a:	462b      	mov	r3, r5
   2015c:	df03      	svc	3
   2015e:	480c      	ldr	r0, [pc, #48]	@ (20190 <_ZN18complex_no_dynamic3app17h0281a11321c16b3cE+0xac>)
   20160:	4631      	mov	r1, r6
   20162:	462a      	mov	r2, r5
   20164:	462b      	mov	r3, r5
   20166:	df03      	svc	3
   20168:	1c60      	adds	r0, r4, #1
   2016a:	a915      	add	r1, sp, #84	@ 0x54
   2016c:	220f      	movs	r2, #15
   2016e:	f006 ff4c 	bl	2700a <__aeabi_memcpy>
   20172:	7025      	strb	r5, [r4, #0]
   20174:	4c06      	ldr	r4, [pc, #24]	@ (20190 <_ZN18complex_no_dynamic3app17h0281a11321c16b3cE+0xac>)
   20176:	4620      	mov	r0, r4
   20178:	4631      	mov	r1, r6
   2017a:	462a      	mov	r2, r5
   2017c:	462b      	mov	r3, r5
   2017e:	df03      	svc	3
   20180:	4620      	mov	r0, r4
   20182:	4629      	mov	r1, r5
   20184:	462a      	mov	r2, r5
   20186:	462b      	mov	r3, r5
   20188:	df04      	svc	4
   2018a:	b019      	add	sp, #100	@ 0x64
   2018c:	bdf0      	pop	{r4, r5, r6, r7, pc}
   2018e:	46c0      	nop			@ (mov r8, r8)
   20190:	000013bf 	.word	0x000013bf

00020194 <_ZN18complex_no_dynamic3app17h067f02d8e1587dfeE>:
   20194:	b5f0      	push	{r4, r5, r6, r7, lr}
   20196:	af03      	add	r7, sp, #12
   20198:	b0ab      	sub	sp, #172	@ 0xac
   2019a:	4604      	mov	r4, r0
   2019c:	ad01      	add	r5, sp, #4
   2019e:	2659      	movs	r6, #89	@ 0x59
   201a0:	4628      	mov	r0, r5
   201a2:	4632      	mov	r2, r6
   201a4:	f006 ff31 	bl	2700a <__aeabi_memcpy>
   201a8:	a818      	add	r0, sp, #96	@ 0x60
   201aa:	214a      	movs	r1, #74	@ 0x4a
   201ac:	f006 fd80 	bl	26cb0 <__aeabi_memclr4>
   201b0:	4822      	ldr	r0, [pc, #136]	@ (2023c <_ZN18complex_no_dynamic3app17h067f02d8e1587dfeE+0xa8>)
   201b2:	2100      	movs	r1, #0
   201b4:	462a      	mov	r2, r5
   201b6:	4633      	mov	r3, r6
   201b8:	df04      	svc	4
   201ba:	2802      	cmp	r0, #2
   201bc:	d00e      	beq.n	201dc <_ZN18complex_no_dynamic3app17h067f02d8e1587dfeE+0x48>
   201be:	481f      	ldr	r0, [pc, #124]	@ (2023c <_ZN18complex_no_dynamic3app17h067f02d8e1587dfeE+0xa8>)
   201c0:	2104      	movs	r1, #4
   201c2:	aa18      	add	r2, sp, #96	@ 0x60
   201c4:	234a      	movs	r3, #74	@ 0x4a
   201c6:	df03      	svc	3
   201c8:	2802      	cmp	r0, #2
   201ca:	d007      	beq.n	201dc <_ZN18complex_no_dynamic3app17h067f02d8e1587dfeE+0x48>
   201cc:	481b      	ldr	r0, [pc, #108]	@ (2023c <_ZN18complex_no_dynamic3app17h067f02d8e1587dfeE+0xa8>)
   201ce:	2204      	movs	r2, #4
   201d0:	2500      	movs	r5, #0
   201d2:	4629      	mov	r1, r5
   201d4:	462b      	mov	r3, r5
   201d6:	df02      	svc	2
   201d8:	287f      	cmp	r0, #127	@ 0x7f
   201da:	d810      	bhi.n	201fe <_ZN18complex_no_dynamic3app17h067f02d8e1587dfeE+0x6a>
   201dc:	2001      	movs	r0, #1
   201de:	7020      	strb	r0, [r4, #0]
   201e0:	6061      	str	r1, [r4, #4]
   201e2:	4c16      	ldr	r4, [pc, #88]	@ (2023c <_ZN18complex_no_dynamic3app17h067f02d8e1587dfeE+0xa8>)
   201e4:	2104      	movs	r1, #4
   201e6:	2500      	movs	r5, #0
   201e8:	4620      	mov	r0, r4
   201ea:	462a      	mov	r2, r5
   201ec:	462b      	mov	r3, r5
   201ee:	df03      	svc	3
   201f0:	4620      	mov	r0, r4
   201f2:	4629      	mov	r1, r5
   201f4:	462a      	mov	r2, r5
   201f6:	462b      	mov	r3, r5
   201f8:	df04      	svc	4
   201fa:	b02b      	add	sp, #172	@ 0xac
   201fc:	bdf0      	pop	{r4, r5, r6, r7, pc}
   201fe:	480f      	ldr	r0, [pc, #60]	@ (2023c <_ZN18complex_no_dynamic3app17h067f02d8e1587dfeE+0xa8>)
   20200:	2604      	movs	r6, #4
   20202:	4631      	mov	r1, r6
   20204:	462a      	mov	r2, r5
   20206:	462b      	mov	r3, r5
   20208:	df03      	svc	3
   2020a:	480c      	ldr	r0, [pc, #48]	@ (2023c <_ZN18complex_no_dynamic3app17h067f02d8e1587dfeE+0xa8>)
   2020c:	4631      	mov	r1, r6
   2020e:	462a      	mov	r2, r5
   20210:	462b      	mov	r3, r5
   20212:	df03      	svc	3
   20214:	1c60      	adds	r0, r4, #1
   20216:	a918      	add	r1, sp, #96	@ 0x60
   20218:	224a      	movs	r2, #74	@ 0x4a
   2021a:	f006 fef6 	bl	2700a <__aeabi_memcpy>
   2021e:	7025      	strb	r5, [r4, #0]
   20220:	4c06      	ldr	r4, [pc, #24]	@ (2023c <_ZN18complex_no_dynamic3app17h067f02d8e1587dfeE+0xa8>)
   20222:	4620      	mov	r0, r4
   20224:	4631      	mov	r1, r6
   20226:	462a      	mov	r2, r5
   20228:	462b      	mov	r3, r5
   2022a:	df03      	svc	3
   2022c:	4620      	mov	r0, r4
   2022e:	4629      	mov	r1, r5
   20230:	462a      	mov	r2, r5
   20232:	462b      	mov	r3, r5
   20234:	df04      	svc	4
   20236:	b02b      	add	sp, #172	@ 0xac
   20238:	bdf0      	pop	{r4, r5, r6, r7, pc}
   2023a:	46c0      	nop			@ (mov r8, r8)
   2023c:	00001484 	.word	0x00001484

00020240 <_ZN18complex_no_dynamic3app17h0849a7e01312f08bE>:
   20240:	b5f0      	push	{r4, r5, r6, r7, lr}
   20242:	af03      	add	r7, sp, #12
   20244:	b08f      	sub	sp, #60	@ 0x3c
   20246:	4604      	mov	r4, r0
   20248:	ad01      	add	r5, sp, #4
   2024a:	261a      	movs	r6, #26
   2024c:	4628      	mov	r0, r5
   2024e:	4632      	mov	r2, r6
   20250:	f006 fedb 	bl	2700a <__aeabi_memcpy>
   20254:	a808      	add	r0, sp, #32
   20256:	2100      	movs	r1, #0
   20258:	7681      	strb	r1, [r0, #26]
   2025a:	8301      	strh	r1, [r0, #24]
   2025c:	910d      	str	r1, [sp, #52]	@ 0x34
   2025e:	910c      	str	r1, [sp, #48]	@ 0x30
   20260:	910b      	str	r1, [sp, #44]	@ 0x2c
   20262:	910a      	str	r1, [sp, #40]	@ 0x28
   20264:	9109      	str	r1, [sp, #36]	@ 0x24
   20266:	9108      	str	r1, [sp, #32]
   20268:	4822      	ldr	r0, [pc, #136]	@ (202f4 <_ZN18complex_no_dynamic3app17h0849a7e01312f08bE+0xb4>)
   2026a:	2105      	movs	r1, #5
   2026c:	462a      	mov	r2, r5
   2026e:	4633      	mov	r3, r6
   20270:	df04      	svc	4
   20272:	2802      	cmp	r0, #2
   20274:	d00e      	beq.n	20294 <_ZN18complex_no_dynamic3app17h0849a7e01312f08bE+0x54>
   20276:	481f      	ldr	r0, [pc, #124]	@ (202f4 <_ZN18complex_no_dynamic3app17h0849a7e01312f08bE+0xb4>)
   20278:	2102      	movs	r1, #2
   2027a:	aa08      	add	r2, sp, #32
   2027c:	231b      	movs	r3, #27
   2027e:	df03      	svc	3
   20280:	2802      	cmp	r0, #2
   20282:	d007      	beq.n	20294 <_ZN18complex_no_dynamic3app17h0849a7e01312f08bE+0x54>
   20284:	481b      	ldr	r0, [pc, #108]	@ (202f4 <_ZN18complex_no_dynamic3app17h0849a7e01312f08bE+0xb4>)
   20286:	2105      	movs	r1, #5
   20288:	2202      	movs	r2, #2
   2028a:	2500      	movs	r5, #0
   2028c:	462b      	mov	r3, r5
   2028e:	df02      	svc	2
   20290:	287f      	cmp	r0, #127	@ 0x7f
   20292:	d810      	bhi.n	202b6 <_ZN18complex_no_dynamic3app17h0849a7e01312f08bE+0x76>
   20294:	2001      	movs	r0, #1
   20296:	7020      	strb	r0, [r4, #0]
   20298:	6061      	str	r1, [r4, #4]
   2029a:	4c16      	ldr	r4, [pc, #88]	@ (202f4 <_ZN18complex_no_dynamic3app17h0849a7e01312f08bE+0xb4>)
   2029c:	2102      	movs	r1, #2
   2029e:	2500      	movs	r5, #0
   202a0:	4620      	mov	r0, r4
   202a2:	462a      	mov	r2, r5
   202a4:	462b      	mov	r3, r5
   202a6:	df03      	svc	3
   202a8:	2105      	movs	r1, #5
   202aa:	4620      	mov	r0, r4
   202ac:	462a      	mov	r2, r5
   202ae:	462b      	mov	r3, r5
   202b0:	df04      	svc	4
   202b2:	b00f      	add	sp, #60	@ 0x3c
   202b4:	bdf0      	pop	{r4, r5, r6, r7, pc}
   202b6:	480f      	ldr	r0, [pc, #60]	@ (202f4 <_ZN18complex_no_dynamic3app17h0849a7e01312f08bE+0xb4>)
   202b8:	2602      	movs	r6, #2
   202ba:	4631      	mov	r1, r6
   202bc:	462a      	mov	r2, r5
   202be:	462b      	mov	r3, r5
   202c0:	df03      	svc	3
   202c2:	480c      	ldr	r0, [pc, #48]	@ (202f4 <_ZN18complex_no_dynamic3app17h0849a7e01312f08bE+0xb4>)
   202c4:	4631      	mov	r1, r6
   202c6:	462a      	mov	r2, r5
   202c8:	462b      	mov	r3, r5
   202ca:	df03      	svc	3
   202cc:	1c60      	adds	r0, r4, #1
   202ce:	a908      	add	r1, sp, #32
   202d0:	221b      	movs	r2, #27
   202d2:	f006 fe9a 	bl	2700a <__aeabi_memcpy>
   202d6:	7025      	strb	r5, [r4, #0]
   202d8:	4c06      	ldr	r4, [pc, #24]	@ (202f4 <_ZN18complex_no_dynamic3app17h0849a7e01312f08bE+0xb4>)
   202da:	4620      	mov	r0, r4
   202dc:	4631      	mov	r1, r6
   202de:	462a      	mov	r2, r5
   202e0:	462b      	mov	r3, r5
   202e2:	df03      	svc	3
   202e4:	2105      	movs	r1, #5
   202e6:	4620      	mov	r0, r4
   202e8:	462a      	mov	r2, r5
   202ea:	462b      	mov	r3, r5
   202ec:	df04      	svc	4
   202ee:	b00f      	add	sp, #60	@ 0x3c
   202f0:	bdf0      	pop	{r4, r5, r6, r7, pc}
   202f2:	46c0      	nop			@ (mov r8, r8)
   202f4:	00001cce 	.word	0x00001cce

000202f8 <_ZN18complex_no_dynamic3app17h0bc2c3b1d4a81dafE>:
   202f8:	b5f0      	push	{r4, r5, r6, r7, lr}
   202fa:	af03      	add	r7, sp, #12
   202fc:	b09b      	sub	sp, #108	@ 0x6c
   202fe:	4604      	mov	r4, r0
   20300:	ad01      	add	r5, sp, #4
   20302:	263c      	movs	r6, #60	@ 0x3c
   20304:	4628      	mov	r0, r5
   20306:	4632      	mov	r2, r6
   20308:	f006 fe7f 	bl	2700a <__aeabi_memcpy>
   2030c:	a810      	add	r0, sp, #64	@ 0x40
   2030e:	212c      	movs	r1, #44	@ 0x2c
   20310:	f006 fcce 	bl	26cb0 <__aeabi_memclr4>
   20314:	4822      	ldr	r0, [pc, #136]	@ (203a0 <_ZN18complex_no_dynamic3app17h0bc2c3b1d4a81dafE+0xa8>)
   20316:	2105      	movs	r1, #5
   20318:	462a      	mov	r2, r5
   2031a:	4633      	mov	r3, r6
   2031c:	df04      	svc	4
   2031e:	2802      	cmp	r0, #2
   20320:	d00e      	beq.n	20340 <_ZN18complex_no_dynamic3app17h0bc2c3b1d4a81dafE+0x48>
   20322:	481f      	ldr	r0, [pc, #124]	@ (203a0 <_ZN18complex_no_dynamic3app17h0bc2c3b1d4a81dafE+0xa8>)
   20324:	2107      	movs	r1, #7
   20326:	aa10      	add	r2, sp, #64	@ 0x40
   20328:	232c      	movs	r3, #44	@ 0x2c
   2032a:	df03      	svc	3
   2032c:	2802      	cmp	r0, #2
   2032e:	d007      	beq.n	20340 <_ZN18complex_no_dynamic3app17h0bc2c3b1d4a81dafE+0x48>
   20330:	481b      	ldr	r0, [pc, #108]	@ (203a0 <_ZN18complex_no_dynamic3app17h0bc2c3b1d4a81dafE+0xa8>)
   20332:	2105      	movs	r1, #5
   20334:	2207      	movs	r2, #7
   20336:	2500      	movs	r5, #0
   20338:	462b      	mov	r3, r5
   2033a:	df02      	svc	2
   2033c:	287f      	cmp	r0, #127	@ 0x7f
   2033e:	d810      	bhi.n	20362 <_ZN18complex_no_dynamic3app17h0bc2c3b1d4a81dafE+0x6a>
   20340:	2001      	movs	r0, #1
   20342:	7020      	strb	r0, [r4, #0]
   20344:	6061      	str	r1, [r4, #4]
   20346:	4c16      	ldr	r4, [pc, #88]	@ (203a0 <_ZN18complex_no_dynamic3app17h0bc2c3b1d4a81dafE+0xa8>)
   20348:	2107      	movs	r1, #7
   2034a:	2500      	movs	r5, #0
   2034c:	4620      	mov	r0, r4
   2034e:	462a      	mov	r2, r5
   20350:	462b      	mov	r3, r5
   20352:	df03      	svc	3
   20354:	2105      	movs	r1, #5
   20356:	4620      	mov	r0, r4
   20358:	462a      	mov	r2, r5
   2035a:	462b      	mov	r3, r5
   2035c:	df04      	svc	4
   2035e:	b01b      	add	sp, #108	@ 0x6c
   20360:	bdf0      	pop	{r4, r5, r6, r7, pc}
   20362:	480f      	ldr	r0, [pc, #60]	@ (203a0 <_ZN18complex_no_dynamic3app17h0bc2c3b1d4a81dafE+0xa8>)
   20364:	2607      	movs	r6, #7
   20366:	4631      	mov	r1, r6
   20368:	462a      	mov	r2, r5
   2036a:	462b      	mov	r3, r5
   2036c:	df03      	svc	3
   2036e:	480c      	ldr	r0, [pc, #48]	@ (203a0 <_ZN18complex_no_dynamic3app17h0bc2c3b1d4a81dafE+0xa8>)
   20370:	4631      	mov	r1, r6
   20372:	462a      	mov	r2, r5
   20374:	462b      	mov	r3, r5
   20376:	df03      	svc	3
   20378:	1c60      	adds	r0, r4, #1
   2037a:	a910      	add	r1, sp, #64	@ 0x40
   2037c:	222c      	movs	r2, #44	@ 0x2c
   2037e:	f006 fe44 	bl	2700a <__aeabi_memcpy>
   20382:	7025      	strb	r5, [r4, #0]
   20384:	4c06      	ldr	r4, [pc, #24]	@ (203a0 <_ZN18complex_no_dynamic3app17h0bc2c3b1d4a81dafE+0xa8>)
   20386:	4620      	mov	r0, r4
   20388:	4631      	mov	r1, r6
   2038a:	462a      	mov	r2, r5
   2038c:	462b      	mov	r3, r5
   2038e:	df03      	svc	3
   20390:	2105      	movs	r1, #5
   20392:	4620      	mov	r0, r4
   20394:	462a      	mov	r2, r5
   20396:	462b      	mov	r3, r5
   20398:	df04      	svc	4
   2039a:	b01b      	add	sp, #108	@ 0x6c
   2039c:	bdf0      	pop	{r4, r5, r6, r7, pc}
   2039e:	46c0      	nop			@ (mov r8, r8)
   203a0:	00001eac 	.word	0x00001eac

000203a4 <_ZN18complex_no_dynamic3app17h0c9b245c19d50031E>:
   203a4:	b5f0      	push	{r4, r5, r6, r7, lr}
   203a6:	af03      	add	r7, sp, #12
   203a8:	b09d      	sub	sp, #116	@ 0x74
   203aa:	4604      	mov	r4, r0
   203ac:	ad01      	add	r5, sp, #4
   203ae:	2649      	movs	r6, #73	@ 0x49
   203b0:	4628      	mov	r0, r5
   203b2:	4632      	mov	r2, r6
   203b4:	f006 fe29 	bl	2700a <__aeabi_memcpy>
   203b8:	a814      	add	r0, sp, #80	@ 0x50
   203ba:	2123      	movs	r1, #35	@ 0x23
   203bc:	f006 fc78 	bl	26cb0 <__aeabi_memclr4>
   203c0:	4822      	ldr	r0, [pc, #136]	@ (2044c <_ZN18complex_no_dynamic3app17h0c9b245c19d50031E+0xa8>)
   203c2:	2107      	movs	r1, #7
   203c4:	462a      	mov	r2, r5
   203c6:	4633      	mov	r3, r6
   203c8:	df04      	svc	4
   203ca:	2802      	cmp	r0, #2
   203cc:	d00e      	beq.n	203ec <_ZN18complex_no_dynamic3app17h0c9b245c19d50031E+0x48>
   203ce:	481f      	ldr	r0, [pc, #124]	@ (2044c <_ZN18complex_no_dynamic3app17h0c9b245c19d50031E+0xa8>)
   203d0:	2101      	movs	r1, #1
   203d2:	aa14      	add	r2, sp, #80	@ 0x50
   203d4:	2323      	movs	r3, #35	@ 0x23
   203d6:	df03      	svc	3
   203d8:	2802      	cmp	r0, #2
   203da:	d007      	beq.n	203ec <_ZN18complex_no_dynamic3app17h0c9b245c19d50031E+0x48>
   203dc:	481b      	ldr	r0, [pc, #108]	@ (2044c <_ZN18complex_no_dynamic3app17h0c9b245c19d50031E+0xa8>)
   203de:	2107      	movs	r1, #7
   203e0:	2201      	movs	r2, #1
   203e2:	2500      	movs	r5, #0
   203e4:	462b      	mov	r3, r5
   203e6:	df02      	svc	2
   203e8:	287f      	cmp	r0, #127	@ 0x7f
   203ea:	d810      	bhi.n	2040e <_ZN18complex_no_dynamic3app17h0c9b245c19d50031E+0x6a>
   203ec:	2201      	movs	r2, #1
   203ee:	7022      	strb	r2, [r4, #0]
   203f0:	6061      	str	r1, [r4, #4]
   203f2:	4c16      	ldr	r4, [pc, #88]	@ (2044c <_ZN18complex_no_dynamic3app17h0c9b245c19d50031E+0xa8>)
   203f4:	2500      	movs	r5, #0
   203f6:	4620      	mov	r0, r4
   203f8:	4611      	mov	r1, r2
   203fa:	462a      	mov	r2, r5
   203fc:	462b      	mov	r3, r5
   203fe:	df03      	svc	3
   20400:	2107      	movs	r1, #7
   20402:	4620      	mov	r0, r4
   20404:	462a      	mov	r2, r5
   20406:	462b      	mov	r3, r5
   20408:	df04      	svc	4
   2040a:	b01d      	add	sp, #116	@ 0x74
   2040c:	bdf0      	pop	{r4, r5, r6, r7, pc}
   2040e:	480f      	ldr	r0, [pc, #60]	@ (2044c <_ZN18complex_no_dynamic3app17h0c9b245c19d50031E+0xa8>)
   20410:	2601      	movs	r6, #1
   20412:	4631      	mov	r1, r6
   20414:	462a      	mov	r2, r5
   20416:	462b      	mov	r3, r5
   20418:	df03      	svc	3
   2041a:	480c      	ldr	r0, [pc, #48]	@ (2044c <_ZN18complex_no_dynamic3app17h0c9b245c19d50031E+0xa8>)
   2041c:	4631      	mov	r1, r6
   2041e:	462a      	mov	r2, r5
   20420:	462b      	mov	r3, r5
   20422:	df03      	svc	3
   20424:	1c60      	adds	r0, r4, #1
   20426:	a914      	add	r1, sp, #80	@ 0x50
   20428:	2223      	movs	r2, #35	@ 0x23
   2042a:	f006 fdee 	bl	2700a <__aeabi_memcpy>
   2042e:	7025      	strb	r5, [r4, #0]
   20430:	4c06      	ldr	r4, [pc, #24]	@ (2044c <_ZN18complex_no_dynamic3app17h0c9b245c19d50031E+0xa8>)
   20432:	4620      	mov	r0, r4
   20434:	4631      	mov	r1, r6
   20436:	462a      	mov	r2, r5
   20438:	462b      	mov	r3, r5
   2043a:	df03      	svc	3
   2043c:	2107      	movs	r1, #7
   2043e:	4620      	mov	r0, r4
   20440:	462a      	mov	r2, r5
   20442:	462b      	mov	r3, r5
   20444:	df04      	svc	4
   20446:	b01d      	add	sp, #116	@ 0x74
   20448:	bdf0      	pop	{r4, r5, r6, r7, pc}
   2044a:	46c0      	nop			@ (mov r8, r8)
   2044c:	00001551 	.word	0x00001551

00020450 <_ZN18complex_no_dynamic3app17h0d28ba1d081ee700E>:
   20450:	b5f0      	push	{r4, r5, r6, r7, lr}
   20452:	af03      	add	r7, sp, #12
   20454:	b09d      	sub	sp, #116	@ 0x74
   20456:	4604      	mov	r4, r0
   20458:	466d      	mov	r5, sp
   2045a:	265d      	movs	r6, #93	@ 0x5d
   2045c:	4628      	mov	r0, r5
   2045e:	4632      	mov	r2, r6
   20460:	f006 fdd3 	bl	2700a <__aeabi_memcpy>
   20464:	a818      	add	r0, sp, #96	@ 0x60
   20466:	2100      	movs	r1, #0
   20468:	8201      	strh	r1, [r0, #16]
   2046a:	911b      	str	r1, [sp, #108]	@ 0x6c
   2046c:	911a      	str	r1, [sp, #104]	@ 0x68
   2046e:	9119      	str	r1, [sp, #100]	@ 0x64
   20470:	9118      	str	r1, [sp, #96]	@ 0x60
   20472:	4822      	ldr	r0, [pc, #136]	@ (204fc <_ZN18complex_no_dynamic3app17h0d28ba1d081ee700E+0xac>)
   20474:	462a      	mov	r2, r5
   20476:	4633      	mov	r3, r6
   20478:	df04      	svc	4
   2047a:	2802      	cmp	r0, #2
   2047c:	d00e      	beq.n	2049c <_ZN18complex_no_dynamic3app17h0d28ba1d081ee700E+0x4c>
   2047e:	481f      	ldr	r0, [pc, #124]	@ (204fc <_ZN18complex_no_dynamic3app17h0d28ba1d081ee700E+0xac>)
   20480:	2102      	movs	r1, #2
   20482:	aa18      	add	r2, sp, #96	@ 0x60
   20484:	2312      	movs	r3, #18
   20486:	df03      	svc	3
   20488:	2802      	cmp	r0, #2
   2048a:	d007      	beq.n	2049c <_ZN18complex_no_dynamic3app17h0d28ba1d081ee700E+0x4c>
   2048c:	481b      	ldr	r0, [pc, #108]	@ (204fc <_ZN18complex_no_dynamic3app17h0d28ba1d081ee700E+0xac>)
   2048e:	2202      	movs	r2, #2
   20490:	2500      	movs	r5, #0
   20492:	4629      	mov	r1, r5
   20494:	462b      	mov	r3, r5
   20496:	df02      	svc	2
   20498:	287f      	cmp	r0, #127	@ 0x7f
   2049a:	d810      	bhi.n	204be <_ZN18complex_no_dynamic3app17h0d28ba1d081ee700E+0x6e>
   2049c:	2001      	movs	r0, #1
   2049e:	7020      	strb	r0, [r4, #0]
   204a0:	6061      	str	r1, [r4, #4]
   204a2:	4c16      	ldr	r4, [pc, #88]	@ (204fc <_ZN18complex_no_dynamic3app17h0d28ba1d081ee700E+0xac>)
   204a4:	2102      	movs	r1, #2
   204a6:	2500      	movs	r5, #0
   204a8:	4620      	mov	r0, r4
   204aa:	462a      	mov	r2, r5
   204ac:	462b      	mov	r3, r5
   204ae:	df03      	svc	3
   204b0:	4620      	mov	r0, r4
   204b2:	4629      	mov	r1, r5
   204b4:	462a      	mov	r2, r5
   204b6:	462b      	mov	r3, r5
   204b8:	df04      	svc	4
   204ba:	b01d      	add	sp, #116	@ 0x74
   204bc:	bdf0      	pop	{r4, r5, r6, r7, pc}
   204be:	480f      	ldr	r0, [pc, #60]	@ (204fc <_ZN18complex_no_dynamic3app17h0d28ba1d081ee700E+0xac>)
   204c0:	2602      	movs	r6, #2
   204c2:	4631      	mov	r1, r6
   204c4:	462a      	mov	r2, r5
   204c6:	462b      	mov	r3, r5
   204c8:	df03      	svc	3
   204ca:	480c      	ldr	r0, [pc, #48]	@ (204fc <_ZN18complex_no_dynamic3app17h0d28ba1d081ee700E+0xac>)
   204cc:	4631      	mov	r1, r6
   204ce:	462a      	mov	r2, r5
   204d0:	462b      	mov	r3, r5
   204d2:	df03      	svc	3
   204d4:	1c60      	adds	r0, r4, #1
   204d6:	a918      	add	r1, sp, #96	@ 0x60
   204d8:	2212      	movs	r2, #18
   204da:	f006 fd96 	bl	2700a <__aeabi_memcpy>
   204de:	7025      	strb	r5, [r4, #0]
   204e0:	4c06      	ldr	r4, [pc, #24]	@ (204fc <_ZN18complex_no_dynamic3app17h0d28ba1d081ee700E+0xac>)
   204e2:	4620      	mov	r0, r4
   204e4:	4631      	mov	r1, r6
   204e6:	462a      	mov	r2, r5
   204e8:	462b      	mov	r3, r5
   204ea:	df03      	svc	3
   204ec:	4620      	mov	r0, r4
   204ee:	4629      	mov	r1, r5
   204f0:	462a      	mov	r2, r5
   204f2:	462b      	mov	r3, r5
   204f4:	df04      	svc	4
   204f6:	b01d      	add	sp, #116	@ 0x74
   204f8:	bdf0      	pop	{r4, r5, r6, r7, pc}
   204fa:	46c0      	nop			@ (mov r8, r8)
   204fc:	000015f1 	.word	0x000015f1

00020500 <_ZN18complex_no_dynamic3app17h0d3fe1b9a7dccfe7E>:
   20500:	b5f0      	push	{r4, r5, r6, r7, lr}
   20502:	af03      	add	r7, sp, #12
   20504:	b0a3      	sub	sp, #140	@ 0x8c
   20506:	4604      	mov	r4, r0
   20508:	466d      	mov	r5, sp
   2050a:	2663      	movs	r6, #99	@ 0x63
   2050c:	4628      	mov	r0, r5
   2050e:	4632      	mov	r2, r6
   20510:	f006 fd7b 	bl	2700a <__aeabi_memcpy>
   20514:	a819      	add	r0, sp, #100	@ 0x64
   20516:	2127      	movs	r1, #39	@ 0x27
   20518:	f006 fbca 	bl	26cb0 <__aeabi_memclr4>
   2051c:	4821      	ldr	r0, [pc, #132]	@ (205a4 <_ZN18complex_no_dynamic3app17h0d3fe1b9a7dccfe7E+0xa4>)
   2051e:	2107      	movs	r1, #7
   20520:	462a      	mov	r2, r5
   20522:	4633      	mov	r3, r6
   20524:	df04      	svc	4
   20526:	2802      	cmp	r0, #2
   20528:	d00e      	beq.n	20548 <_ZN18complex_no_dynamic3app17h0d3fe1b9a7dccfe7E+0x48>
   2052a:	481e      	ldr	r0, [pc, #120]	@ (205a4 <_ZN18complex_no_dynamic3app17h0d3fe1b9a7dccfe7E+0xa4>)
   2052c:	2100      	movs	r1, #0
   2052e:	aa19      	add	r2, sp, #100	@ 0x64
   20530:	2327      	movs	r3, #39	@ 0x27
   20532:	df03      	svc	3
   20534:	2802      	cmp	r0, #2
   20536:	d007      	beq.n	20548 <_ZN18complex_no_dynamic3app17h0d3fe1b9a7dccfe7E+0x48>
   20538:	481a      	ldr	r0, [pc, #104]	@ (205a4 <_ZN18complex_no_dynamic3app17h0d3fe1b9a7dccfe7E+0xa4>)
   2053a:	2107      	movs	r1, #7
   2053c:	2500      	movs	r5, #0
   2053e:	462a      	mov	r2, r5
   20540:	462b      	mov	r3, r5
   20542:	df02      	svc	2
   20544:	287f      	cmp	r0, #127	@ 0x7f
   20546:	d810      	bhi.n	2056a <_ZN18complex_no_dynamic3app17h0d3fe1b9a7dccfe7E+0x6a>
   20548:	2001      	movs	r0, #1
   2054a:	7020      	strb	r0, [r4, #0]
   2054c:	6061      	str	r1, [r4, #4]
   2054e:	4c15      	ldr	r4, [pc, #84]	@ (205a4 <_ZN18complex_no_dynamic3app17h0d3fe1b9a7dccfe7E+0xa4>)
   20550:	2500      	movs	r5, #0
   20552:	4620      	mov	r0, r4
   20554:	4629      	mov	r1, r5
   20556:	462a      	mov	r2, r5
   20558:	462b      	mov	r3, r5
   2055a:	df03      	svc	3
   2055c:	2107      	movs	r1, #7
   2055e:	4620      	mov	r0, r4
   20560:	462a      	mov	r2, r5
   20562:	462b      	mov	r3, r5
   20564:	df04      	svc	4
   20566:	b023      	add	sp, #140	@ 0x8c
   20568:	bdf0      	pop	{r4, r5, r6, r7, pc}
   2056a:	4e0e      	ldr	r6, [pc, #56]	@ (205a4 <_ZN18complex_no_dynamic3app17h0d3fe1b9a7dccfe7E+0xa4>)
   2056c:	4630      	mov	r0, r6
   2056e:	4629      	mov	r1, r5
   20570:	462a      	mov	r2, r5
   20572:	462b      	mov	r3, r5
   20574:	df03      	svc	3
   20576:	4630      	mov	r0, r6
   20578:	4629      	mov	r1, r5
   2057a:	462a      	mov	r2, r5
   2057c:	462b      	mov	r3, r5
   2057e:	df03      	svc	3
   20580:	1c60      	adds	r0, r4, #1
   20582:	a919      	add	r1, sp, #100	@ 0x64
   20584:	2227      	movs	r2, #39	@ 0x27
   20586:	f006 fd40 	bl	2700a <__aeabi_memcpy>
   2058a:	7025      	strb	r5, [r4, #0]
   2058c:	4630      	mov	r0, r6
   2058e:	4629      	mov	r1, r5
   20590:	462a      	mov	r2, r5
   20592:	462b      	mov	r3, r5
   20594:	df03      	svc	3
   20596:	2107      	movs	r1, #7
   20598:	4630      	mov	r0, r6
   2059a:	462a      	mov	r2, r5
   2059c:	462b      	mov	r3, r5
   2059e:	df04      	svc	4
   205a0:	b023      	add	sp, #140	@ 0x8c
   205a2:	bdf0      	pop	{r4, r5, r6, r7, pc}
   205a4:	00001e54 	.word	0x00001e54

000205a8 <_ZN18complex_no_dynamic3app17h0e7a185c4cf74505E>:
   205a8:	b5f0      	push	{r4, r5, r6, r7, lr}
   205aa:	af03      	add	r7, sp, #12
   205ac:	b095      	sub	sp, #84	@ 0x54
   205ae:	4604      	mov	r4, r0
   205b0:	466d      	mov	r5, sp
   205b2:	262c      	movs	r6, #44	@ 0x2c
   205b4:	4628      	mov	r0, r5
   205b6:	4632      	mov	r2, r6
   205b8:	f006 fd27 	bl	2700a <__aeabi_memcpy>
   205bc:	a80b      	add	r0, sp, #44	@ 0x2c
   205be:	2125      	movs	r1, #37	@ 0x25
   205c0:	f006 fb76 	bl	26cb0 <__aeabi_memclr4>
   205c4:	4821      	ldr	r0, [pc, #132]	@ (2064c <_ZN18complex_no_dynamic3app17h0e7a185c4cf74505E+0xa4>)
   205c6:	2103      	movs	r1, #3
   205c8:	462a      	mov	r2, r5
   205ca:	4633      	mov	r3, r6
   205cc:	df04      	svc	4
   205ce:	2802      	cmp	r0, #2
   205d0:	d00e      	beq.n	205f0 <_ZN18complex_no_dynamic3app17h0e7a185c4cf74505E+0x48>
   205d2:	481e      	ldr	r0, [pc, #120]	@ (2064c <_ZN18complex_no_dynamic3app17h0e7a185c4cf74505E+0xa4>)
   205d4:	2100      	movs	r1, #0
   205d6:	aa0b      	add	r2, sp, #44	@ 0x2c
   205d8:	2325      	movs	r3, #37	@ 0x25
   205da:	df03      	svc	3
   205dc:	2802      	cmp	r0, #2
   205de:	d007      	beq.n	205f0 <_ZN18complex_no_dynamic3app17h0e7a185c4cf74505E+0x48>
   205e0:	481a      	ldr	r0, [pc, #104]	@ (2064c <_ZN18complex_no_dynamic3app17h0e7a185c4cf74505E+0xa4>)
   205e2:	2103      	movs	r1, #3
   205e4:	2500      	movs	r5, #0
   205e6:	462a      	mov	r2, r5
   205e8:	462b      	mov	r3, r5
   205ea:	df02      	svc	2
   205ec:	287f      	cmp	r0, #127	@ 0x7f
   205ee:	d810      	bhi.n	20612 <_ZN18complex_no_dynamic3app17h0e7a185c4cf74505E+0x6a>
   205f0:	2001      	movs	r0, #1
   205f2:	7020      	strb	r0, [r4, #0]
   205f4:	6061      	str	r1, [r4, #4]
   205f6:	4c15      	ldr	r4, [pc, #84]	@ (2064c <_ZN18complex_no_dynamic3app17h0e7a185c4cf74505E+0xa4>)
   205f8:	2500      	movs	r5, #0
   205fa:	4620      	mov	r0, r4
   205fc:	4629      	mov	r1, r5
   205fe:	462a      	mov	r2, r5
   20600:	462b      	mov	r3, r5
   20602:	df03      	svc	3
   20604:	2103      	movs	r1, #3
   20606:	4620      	mov	r0, r4
   20608:	462a      	mov	r2, r5
   2060a:	462b      	mov	r3, r5
   2060c:	df04      	svc	4
   2060e:	b015      	add	sp, #84	@ 0x54
   20610:	bdf0      	pop	{r4, r5, r6, r7, pc}
   20612:	4e0e      	ldr	r6, [pc, #56]	@ (2064c <_ZN18complex_no_dynamic3app17h0e7a185c4cf74505E+0xa4>)
   20614:	4630      	mov	r0, r6
   20616:	4629      	mov	r1, r5
   20618:	462a      	mov	r2, r5
   2061a:	462b      	mov	r3, r5
   2061c:	df03      	svc	3
   2061e:	4630      	mov	r0, r6
   20620:	4629      	mov	r1, r5
   20622:	462a      	mov	r2, r5
   20624:	462b      	mov	r3, r5
   20626:	df03      	svc	3
   20628:	1c60      	adds	r0, r4, #1
   2062a:	a90b      	add	r1, sp, #44	@ 0x2c
   2062c:	2225      	movs	r2, #37	@ 0x25
   2062e:	f006 fcec 	bl	2700a <__aeabi_memcpy>
   20632:	7025      	strb	r5, [r4, #0]
   20634:	4630      	mov	r0, r6
   20636:	4629      	mov	r1, r5
   20638:	462a      	mov	r2, r5
   2063a:	462b      	mov	r3, r5
   2063c:	df03      	svc	3
   2063e:	2103      	movs	r1, #3
   20640:	4630      	mov	r0, r6
   20642:	462a      	mov	r2, r5
   20644:	462b      	mov	r3, r5
   20646:	df04      	svc	4
   20648:	b015      	add	sp, #84	@ 0x54
   2064a:	bdf0      	pop	{r4, r5, r6, r7, pc}
   2064c:	0000077f 	.word	0x0000077f

00020650 <_ZN18complex_no_dynamic3app17h0fd0c8aad29661c9E>:
   20650:	b5f0      	push	{r4, r5, r6, r7, lr}
   20652:	af03      	add	r7, sp, #12
   20654:	b0a9      	sub	sp, #164	@ 0xa4
   20656:	4604      	mov	r4, r0
   20658:	466d      	mov	r5, sp
   2065a:	2656      	movs	r6, #86	@ 0x56
   2065c:	4628      	mov	r0, r5
   2065e:	4632      	mov	r2, r6
   20660:	f006 fcd3 	bl	2700a <__aeabi_memcpy>
   20664:	a816      	add	r0, sp, #88	@ 0x58
   20666:	2149      	movs	r1, #73	@ 0x49
   20668:	f006 fb22 	bl	26cb0 <__aeabi_memclr4>
   2066c:	4822      	ldr	r0, [pc, #136]	@ (206f8 <_ZN18complex_no_dynamic3app17h0fd0c8aad29661c9E+0xa8>)
   2066e:	2106      	movs	r1, #6
   20670:	462a      	mov	r2, r5
   20672:	4633      	mov	r3, r6
   20674:	df04      	svc	4
   20676:	2802      	cmp	r0, #2
   20678:	d00e      	beq.n	20698 <_ZN18complex_no_dynamic3app17h0fd0c8aad29661c9E+0x48>
   2067a:	481f      	ldr	r0, [pc, #124]	@ (206f8 <_ZN18complex_no_dynamic3app17h0fd0c8aad29661c9E+0xa8>)
   2067c:	2106      	movs	r1, #6
   2067e:	aa16      	add	r2, sp, #88	@ 0x58
   20680:	2349      	movs	r3, #73	@ 0x49
   20682:	df03      	svc	3
   20684:	2802      	cmp	r0, #2
   20686:	d007      	beq.n	20698 <_ZN18complex_no_dynamic3app17h0fd0c8aad29661c9E+0x48>
   20688:	481b      	ldr	r0, [pc, #108]	@ (206f8 <_ZN18complex_no_dynamic3app17h0fd0c8aad29661c9E+0xa8>)
   2068a:	2106      	movs	r1, #6
   2068c:	2500      	movs	r5, #0
   2068e:	460a      	mov	r2, r1
   20690:	462b      	mov	r3, r5
   20692:	df02      	svc	2
   20694:	287f      	cmp	r0, #127	@ 0x7f
   20696:	d811      	bhi.n	206bc <_ZN18complex_no_dynamic3app17h0fd0c8aad29661c9E+0x6c>
   20698:	2001      	movs	r0, #1
   2069a:	7020      	strb	r0, [r4, #0]
   2069c:	6061      	str	r1, [r4, #4]
   2069e:	4c16      	ldr	r4, [pc, #88]	@ (206f8 <_ZN18complex_no_dynamic3app17h0fd0c8aad29661c9E+0xa8>)
   206a0:	2506      	movs	r5, #6
   206a2:	2600      	movs	r6, #0
   206a4:	4620      	mov	r0, r4
   206a6:	4629      	mov	r1, r5
   206a8:	4632      	mov	r2, r6
   206aa:	4633      	mov	r3, r6
   206ac:	df03      	svc	3
   206ae:	4620      	mov	r0, r4
   206b0:	4629      	mov	r1, r5
   206b2:	4632      	mov	r2, r6
   206b4:	4633      	mov	r3, r6
   206b6:	df04      	svc	4
   206b8:	b029      	add	sp, #164	@ 0xa4
   206ba:	bdf0      	pop	{r4, r5, r6, r7, pc}
   206bc:	480e      	ldr	r0, [pc, #56]	@ (206f8 <_ZN18complex_no_dynamic3app17h0fd0c8aad29661c9E+0xa8>)
   206be:	2606      	movs	r6, #6
   206c0:	4631      	mov	r1, r6
   206c2:	462a      	mov	r2, r5
   206c4:	462b      	mov	r3, r5
   206c6:	df03      	svc	3
   206c8:	480b      	ldr	r0, [pc, #44]	@ (206f8 <_ZN18complex_no_dynamic3app17h0fd0c8aad29661c9E+0xa8>)
   206ca:	4631      	mov	r1, r6
   206cc:	462a      	mov	r2, r5
   206ce:	462b      	mov	r3, r5
   206d0:	df03      	svc	3
   206d2:	1c60      	adds	r0, r4, #1
   206d4:	a916      	add	r1, sp, #88	@ 0x58
   206d6:	2249      	movs	r2, #73	@ 0x49
   206d8:	f006 fc97 	bl	2700a <__aeabi_memcpy>
   206dc:	7025      	strb	r5, [r4, #0]
   206de:	4c06      	ldr	r4, [pc, #24]	@ (206f8 <_ZN18complex_no_dynamic3app17h0fd0c8aad29661c9E+0xa8>)
   206e0:	4620      	mov	r0, r4
   206e2:	4631      	mov	r1, r6
   206e4:	462a      	mov	r2, r5
   206e6:	462b      	mov	r3, r5
   206e8:	df03      	svc	3
   206ea:	4620      	mov	r0, r4
   206ec:	4631      	mov	r1, r6
   206ee:	462a      	mov	r2, r5
   206f0:	462b      	mov	r3, r5
   206f2:	df04      	svc	4
   206f4:	b029      	add	sp, #164	@ 0xa4
   206f6:	bdf0      	pop	{r4, r5, r6, r7, pc}
   206f8:	00001c6b 	.word	0x00001c6b

000206fc <_ZN18complex_no_dynamic3app17h10b27212ae94cf86E>:
   206fc:	b5f0      	push	{r4, r5, r6, r7, lr}
   206fe:	af03      	add	r7, sp, #12
   20700:	b097      	sub	sp, #92	@ 0x5c
   20702:	4604      	mov	r4, r0
   20704:	ad01      	add	r5, sp, #4
   20706:	262c      	movs	r6, #44	@ 0x2c
   20708:	4628      	mov	r0, r5
   2070a:	4632      	mov	r2, r6
   2070c:	f006 fc7d 	bl	2700a <__aeabi_memcpy>
   20710:	a80c      	add	r0, sp, #48	@ 0x30
   20712:	212a      	movs	r1, #42	@ 0x2a
   20714:	f006 facc 	bl	26cb0 <__aeabi_memclr4>
   20718:	4821      	ldr	r0, [pc, #132]	@ (207a0 <_ZN18complex_no_dynamic3app17h10b27212ae94cf86E+0xa4>)
   2071a:	2103      	movs	r1, #3
   2071c:	462a      	mov	r2, r5
   2071e:	4633      	mov	r3, r6
   20720:	df04      	svc	4
   20722:	2802      	cmp	r0, #2
   20724:	d00e      	beq.n	20744 <_ZN18complex_no_dynamic3app17h10b27212ae94cf86E+0x48>
   20726:	481e      	ldr	r0, [pc, #120]	@ (207a0 <_ZN18complex_no_dynamic3app17h10b27212ae94cf86E+0xa4>)
   20728:	2100      	movs	r1, #0
   2072a:	aa0c      	add	r2, sp, #48	@ 0x30
   2072c:	232a      	movs	r3, #42	@ 0x2a
   2072e:	df03      	svc	3
   20730:	2802      	cmp	r0, #2
   20732:	d007      	beq.n	20744 <_ZN18complex_no_dynamic3app17h10b27212ae94cf86E+0x48>
   20734:	481a      	ldr	r0, [pc, #104]	@ (207a0 <_ZN18complex_no_dynamic3app17h10b27212ae94cf86E+0xa4>)
   20736:	2103      	movs	r1, #3
   20738:	2500      	movs	r5, #0
   2073a:	462a      	mov	r2, r5
   2073c:	462b      	mov	r3, r5
   2073e:	df02      	svc	2
   20740:	287f      	cmp	r0, #127	@ 0x7f
   20742:	d810      	bhi.n	20766 <_ZN18complex_no_dynamic3app17h10b27212ae94cf86E+0x6a>
   20744:	2001      	movs	r0, #1
   20746:	7020      	strb	r0, [r4, #0]
   20748:	6061      	str	r1, [r4, #4]
   2074a:	4c15      	ldr	r4, [pc, #84]	@ (207a0 <_ZN18complex_no_dynamic3app17h10b27212ae94cf86E+0xa4>)
   2074c:	2500      	movs	r5, #0
   2074e:	4620      	mov	r0, r4
   20750:	4629      	mov	r1, r5
   20752:	462a      	mov	r2, r5
   20754:	462b      	mov	r3, r5
   20756:	df03      	svc	3
   20758:	2103      	movs	r1, #3
   2075a:	4620      	mov	r0, r4
   2075c:	462a      	mov	r2, r5
   2075e:	462b      	mov	r3, r5
   20760:	df04      	svc	4
   20762:	b017      	add	sp, #92	@ 0x5c
   20764:	bdf0      	pop	{r4, r5, r6, r7, pc}
   20766:	4e0e      	ldr	r6, [pc, #56]	@ (207a0 <_ZN18complex_no_dynamic3app17h10b27212ae94cf86E+0xa4>)
   20768:	4630      	mov	r0, r6
   2076a:	4629      	mov	r1, r5
   2076c:	462a      	mov	r2, r5
   2076e:	462b      	mov	r3, r5
   20770:	df03      	svc	3
   20772:	4630      	mov	r0, r6
   20774:	4629      	mov	r1, r5
   20776:	462a      	mov	r2, r5
   20778:	462b      	mov	r3, r5
   2077a:	df03      	svc	3
   2077c:	1c60      	adds	r0, r4, #1
   2077e:	a90c      	add	r1, sp, #48	@ 0x30
   20780:	222a      	movs	r2, #42	@ 0x2a
   20782:	f006 fc42 	bl	2700a <__aeabi_memcpy>
   20786:	7025      	strb	r5, [r4, #0]
   20788:	4630      	mov	r0, r6
   2078a:	4629      	mov	r1, r5
   2078c:	462a      	mov	r2, r5
   2078e:	462b      	mov	r3, r5
   20790:	df03      	svc	3
   20792:	2103      	movs	r1, #3
   20794:	4630      	mov	r0, r6
   20796:	462a      	mov	r2, r5
   20798:	462b      	mov	r3, r5
   2079a:	df04      	svc	4
   2079c:	b017      	add	sp, #92	@ 0x5c
   2079e:	bdf0      	pop	{r4, r5, r6, r7, pc}
   207a0:	000024f0 	.word	0x000024f0

000207a4 <_ZN18complex_no_dynamic3app17h12117e9db5f3e57cE>:
   207a4:	b5f0      	push	{r4, r5, r6, r7, lr}
   207a6:	af03      	add	r7, sp, #12
   207a8:	b097      	sub	sp, #92	@ 0x5c
   207aa:	4604      	mov	r4, r0
   207ac:	466d      	mov	r5, sp
   207ae:	261e      	movs	r6, #30
   207b0:	4628      	mov	r0, r5
   207b2:	4632      	mov	r2, r6
   207b4:	f006 fc29 	bl	2700a <__aeabi_memcpy>
   207b8:	a808      	add	r0, sp, #32
   207ba:	213c      	movs	r1, #60	@ 0x3c
   207bc:	f006 fa78 	bl	26cb0 <__aeabi_memclr4>
   207c0:	4822      	ldr	r0, [pc, #136]	@ (2084c <_ZN18complex_no_dynamic3app17h12117e9db5f3e57cE+0xa8>)
   207c2:	2102      	movs	r1, #2
   207c4:	462a      	mov	r2, r5
   207c6:	4633      	mov	r3, r6
   207c8:	df04      	svc	4
   207ca:	2802      	cmp	r0, #2
   207cc:	d00e      	beq.n	207ec <_ZN18complex_no_dynamic3app17h12117e9db5f3e57cE+0x48>
   207ce:	481f      	ldr	r0, [pc, #124]	@ (2084c <_ZN18complex_no_dynamic3app17h12117e9db5f3e57cE+0xa8>)
   207d0:	2103      	movs	r1, #3
   207d2:	aa08      	add	r2, sp, #32
   207d4:	233c      	movs	r3, #60	@ 0x3c
   207d6:	df03      	svc	3
   207d8:	2802      	cmp	r0, #2
   207da:	d007      	beq.n	207ec <_ZN18complex_no_dynamic3app17h12117e9db5f3e57cE+0x48>
   207dc:	481b      	ldr	r0, [pc, #108]	@ (2084c <_ZN18complex_no_dynamic3app17h12117e9db5f3e57cE+0xa8>)
   207de:	2102      	movs	r1, #2
   207e0:	2203      	movs	r2, #3
   207e2:	2500      	movs	r5, #0
   207e4:	462b      	mov	r3, r5
   207e6:	df02      	svc	2
   207e8:	287f      	cmp	r0, #127	@ 0x7f
   207ea:	d810      	bhi.n	2080e <_ZN18complex_no_dynamic3app17h12117e9db5f3e57cE+0x6a>
   207ec:	2001      	movs	r0, #1
   207ee:	7020      	strb	r0, [r4, #0]
   207f0:	6061      	str	r1, [r4, #4]
   207f2:	4c16      	ldr	r4, [pc, #88]	@ (2084c <_ZN18complex_no_dynamic3app17h12117e9db5f3e57cE+0xa8>)
   207f4:	2103      	movs	r1, #3
   207f6:	2500      	movs	r5, #0
   207f8:	4620      	mov	r0, r4
   207fa:	462a      	mov	r2, r5
   207fc:	462b      	mov	r3, r5
   207fe:	df03      	svc	3
   20800:	2102      	movs	r1, #2
   20802:	4620      	mov	r0, r4
   20804:	462a      	mov	r2, r5
   20806:	462b      	mov	r3, r5
   20808:	df04      	svc	4
   2080a:	b017      	add	sp, #92	@ 0x5c
   2080c:	bdf0      	pop	{r4, r5, r6, r7, pc}
   2080e:	480f      	ldr	r0, [pc, #60]	@ (2084c <_ZN18complex_no_dynamic3app17h12117e9db5f3e57cE+0xa8>)
   20810:	2603      	movs	r6, #3
   20812:	4631      	mov	r1, r6
   20814:	462a      	mov	r2, r5
   20816:	462b      	mov	r3, r5
   20818:	df03      	svc	3
   2081a:	480c      	ldr	r0, [pc, #48]	@ (2084c <_ZN18complex_no_dynamic3app17h12117e9db5f3e57cE+0xa8>)
   2081c:	4631      	mov	r1, r6
   2081e:	462a      	mov	r2, r5
   20820:	462b      	mov	r3, r5
   20822:	df03      	svc	3
   20824:	1c60      	adds	r0, r4, #1
   20826:	a908      	add	r1, sp, #32
   20828:	223c      	movs	r2, #60	@ 0x3c
   2082a:	f006 fbee 	bl	2700a <__aeabi_memcpy>
   2082e:	7025      	strb	r5, [r4, #0]
   20830:	4c06      	ldr	r4, [pc, #24]	@ (2084c <_ZN18complex_no_dynamic3app17h12117e9db5f3e57cE+0xa8>)
   20832:	4620      	mov	r0, r4
   20834:	4631      	mov	r1, r6
   20836:	462a      	mov	r2, r5
   20838:	462b      	mov	r3, r5
   2083a:	df03      	svc	3
   2083c:	2102      	movs	r1, #2
   2083e:	4620      	mov	r0, r4
   20840:	462a      	mov	r2, r5
   20842:	462b      	mov	r3, r5
   20844:	df04      	svc	4
   20846:	b017      	add	sp, #92	@ 0x5c
   20848:	bdf0      	pop	{r4, r5, r6, r7, pc}
   2084a:	46c0      	nop			@ (mov r8, r8)
   2084c:	00000b3c 	.word	0x00000b3c

00020850 <_ZN18complex_no_dynamic3app17h193ffab009baf231E>:
   20850:	b5f0      	push	{r4, r5, r6, r7, lr}
   20852:	af03      	add	r7, sp, #12
   20854:	b097      	sub	sp, #92	@ 0x5c
   20856:	4604      	mov	r4, r0
   20858:	7b08      	ldrb	r0, [r1, #12]
   2085a:	7b4a      	ldrb	r2, [r1, #13]
   2085c:	0212      	lsls	r2, r2, #8
   2085e:	1810      	adds	r0, r2, r0
   20860:	ad01      	add	r5, sp, #4
   20862:	81a8      	strh	r0, [r5, #12]
   20864:	7a08      	ldrb	r0, [r1, #8]
   20866:	7a4a      	ldrb	r2, [r1, #9]
   20868:	0212      	lsls	r2, r2, #8
   2086a:	1810      	adds	r0, r2, r0
   2086c:	7a8a      	ldrb	r2, [r1, #10]
   2086e:	0412      	lsls	r2, r2, #16
   20870:	7acb      	ldrb	r3, [r1, #11]
   20872:	061b      	lsls	r3, r3, #24
   20874:	189a      	adds	r2, r3, r2
   20876:	1810      	adds	r0, r2, r0
   20878:	9003      	str	r0, [sp, #12]
   2087a:	7908      	ldrb	r0, [r1, #4]
   2087c:	794a      	ldrb	r2, [r1, #5]
   2087e:	0212      	lsls	r2, r2, #8
   20880:	1810      	adds	r0, r2, r0
   20882:	798a      	ldrb	r2, [r1, #6]
   20884:	0412      	lsls	r2, r2, #16
   20886:	79cb      	ldrb	r3, [r1, #7]
   20888:	061b      	lsls	r3, r3, #24
   2088a:	189a      	adds	r2, r3, r2
   2088c:	1810      	adds	r0, r2, r0
   2088e:	9002      	str	r0, [sp, #8]
   20890:	7808      	ldrb	r0, [r1, #0]
   20892:	784a      	ldrb	r2, [r1, #1]
   20894:	0212      	lsls	r2, r2, #8
   20896:	1810      	adds	r0, r2, r0
   20898:	788a      	ldrb	r2, [r1, #2]
   2089a:	0412      	lsls	r2, r2, #16
   2089c:	78c9      	ldrb	r1, [r1, #3]
   2089e:	0609      	lsls	r1, r1, #24
   208a0:	1889      	adds	r1, r1, r2
   208a2:	1808      	adds	r0, r1, r0
   208a4:	9001      	str	r0, [sp, #4]
   208a6:	a805      	add	r0, sp, #20
   208a8:	2148      	movs	r1, #72	@ 0x48
   208aa:	f006 fa01 	bl	26cb0 <__aeabi_memclr4>
   208ae:	4822      	ldr	r0, [pc, #136]	@ (20938 <_ZN18complex_no_dynamic3app17h193ffab009baf231E+0xe8>)
   208b0:	2103      	movs	r1, #3
   208b2:	230e      	movs	r3, #14
   208b4:	462a      	mov	r2, r5
   208b6:	df04      	svc	4
   208b8:	2802      	cmp	r0, #2
   208ba:	d00e      	beq.n	208da <_ZN18complex_no_dynamic3app17h193ffab009baf231E+0x8a>
   208bc:	481e      	ldr	r0, [pc, #120]	@ (20938 <_ZN18complex_no_dynamic3app17h193ffab009baf231E+0xe8>)
   208be:	2108      	movs	r1, #8
   208c0:	aa05      	add	r2, sp, #20
   208c2:	2348      	movs	r3, #72	@ 0x48
   208c4:	df03      	svc	3
   208c6:	2802      	cmp	r0, #2
   208c8:	d007      	beq.n	208da <_ZN18complex_no_dynamic3app17h193ffab009baf231E+0x8a>
   208ca:	481b      	ldr	r0, [pc, #108]	@ (20938 <_ZN18complex_no_dynamic3app17h193ffab009baf231E+0xe8>)
   208cc:	2103      	movs	r1, #3
   208ce:	2208      	movs	r2, #8
   208d0:	2500      	movs	r5, #0
   208d2:	462b      	mov	r3, r5
   208d4:	df02      	svc	2
   208d6:	287f      	cmp	r0, #127	@ 0x7f
   208d8:	d810      	bhi.n	208fc <_ZN18complex_no_dynamic3app17h193ffab009baf231E+0xac>
   208da:	2001      	movs	r0, #1
   208dc:	7020      	strb	r0, [r4, #0]
   208de:	6061      	str	r1, [r4, #4]
   208e0:	4c15      	ldr	r4, [pc, #84]	@ (20938 <_ZN18complex_no_dynamic3app17h193ffab009baf231E+0xe8>)
   208e2:	2108      	movs	r1, #8
   208e4:	2500      	movs	r5, #0
   208e6:	4620      	mov	r0, r4
   208e8:	462a      	mov	r2, r5
   208ea:	462b      	mov	r3, r5
   208ec:	df03      	svc	3
   208ee:	2103      	movs	r1, #3
   208f0:	4620      	mov	r0, r4
   208f2:	462a      	mov	r2, r5
   208f4:	462b      	mov	r3, r5
   208f6:	df04      	svc	4
   208f8:	b017      	add	sp, #92	@ 0x5c
   208fa:	bdf0      	pop	{r4, r5, r6, r7, pc}
   208fc:	480e      	ldr	r0, [pc, #56]	@ (20938 <_ZN18complex_no_dynamic3app17h193ffab009baf231E+0xe8>)
   208fe:	2608      	movs	r6, #8
   20900:	4631      	mov	r1, r6
   20902:	462a      	mov	r2, r5
   20904:	462b      	mov	r3, r5
   20906:	df03      	svc	3
   20908:	480b      	ldr	r0, [pc, #44]	@ (20938 <_ZN18complex_no_dynamic3app17h193ffab009baf231E+0xe8>)
   2090a:	4631      	mov	r1, r6
   2090c:	462a      	mov	r2, r5
   2090e:	462b      	mov	r3, r5
   20910:	df03      	svc	3
   20912:	1c60      	adds	r0, r4, #1
   20914:	a905      	add	r1, sp, #20
   20916:	2248      	movs	r2, #72	@ 0x48
   20918:	f006 fb77 	bl	2700a <__aeabi_memcpy>
   2091c:	7025      	strb	r5, [r4, #0]
   2091e:	4c06      	ldr	r4, [pc, #24]	@ (20938 <_ZN18complex_no_dynamic3app17h193ffab009baf231E+0xe8>)
   20920:	4620      	mov	r0, r4
   20922:	4631      	mov	r1, r6
   20924:	462a      	mov	r2, r5
   20926:	462b      	mov	r3, r5
   20928:	df03      	svc	3
   2092a:	2103      	movs	r1, #3
   2092c:	4620      	mov	r0, r4
   2092e:	462a      	mov	r2, r5
   20930:	462b      	mov	r3, r5
   20932:	df04      	svc	4
   20934:	b017      	add	sp, #92	@ 0x5c
   20936:	bdf0      	pop	{r4, r5, r6, r7, pc}
   20938:	000012d1 	.word	0x000012d1

0002093c <_ZN18complex_no_dynamic3app17h1963f44e14d33619E>:
   2093c:	b5f0      	push	{r4, r5, r6, r7, lr}
   2093e:	af03      	add	r7, sp, #12
   20940:	b09f      	sub	sp, #124	@ 0x7c
   20942:	4604      	mov	r4, r0
   20944:	ad01      	add	r5, sp, #4
   20946:	2635      	movs	r6, #53	@ 0x35
   20948:	4628      	mov	r0, r5
   2094a:	4632      	mov	r2, r6
   2094c:	f006 fb5d 	bl	2700a <__aeabi_memcpy>
   20950:	a80f      	add	r0, sp, #60	@ 0x3c
   20952:	213f      	movs	r1, #63	@ 0x3f
   20954:	f006 f9ac 	bl	26cb0 <__aeabi_memclr4>
   20958:	4822      	ldr	r0, [pc, #136]	@ (209e4 <_ZN18complex_no_dynamic3app17h1963f44e14d33619E+0xa8>)
   2095a:	2100      	movs	r1, #0
   2095c:	462a      	mov	r2, r5
   2095e:	4633      	mov	r3, r6
   20960:	df04      	svc	4
   20962:	2802      	cmp	r0, #2
   20964:	d00e      	beq.n	20984 <_ZN18complex_no_dynamic3app17h1963f44e14d33619E+0x48>
   20966:	481f      	ldr	r0, [pc, #124]	@ (209e4 <_ZN18complex_no_dynamic3app17h1963f44e14d33619E+0xa8>)
   20968:	2103      	movs	r1, #3
   2096a:	aa0f      	add	r2, sp, #60	@ 0x3c
   2096c:	233f      	movs	r3, #63	@ 0x3f
   2096e:	df03      	svc	3
   20970:	2802      	cmp	r0, #2
   20972:	d007      	beq.n	20984 <_ZN18complex_no_dynamic3app17h1963f44e14d33619E+0x48>
   20974:	481b      	ldr	r0, [pc, #108]	@ (209e4 <_ZN18complex_no_dynamic3app17h1963f44e14d33619E+0xa8>)
   20976:	2203      	movs	r2, #3
   20978:	2500      	movs	r5, #0
   2097a:	4629      	mov	r1, r5
   2097c:	462b      	mov	r3, r5
   2097e:	df02      	svc	2
   20980:	287f      	cmp	r0, #127	@ 0x7f
   20982:	d810      	bhi.n	209a6 <_ZN18complex_no_dynamic3app17h1963f44e14d33619E+0x6a>
   20984:	2001      	movs	r0, #1
   20986:	7020      	strb	r0, [r4, #0]
   20988:	6061      	str	r1, [r4, #4]
   2098a:	4c16      	ldr	r4, [pc, #88]	@ (209e4 <_ZN18complex_no_dynamic3app17h1963f44e14d33619E+0xa8>)
   2098c:	2103      	movs	r1, #3
   2098e:	2500      	movs	r5, #0
   20990:	4620      	mov	r0, r4
   20992:	462a      	mov	r2, r5
   20994:	462b      	mov	r3, r5
   20996:	df03      	svc	3
   20998:	4620      	mov	r0, r4
   2099a:	4629      	mov	r1, r5
   2099c:	462a      	mov	r2, r5
   2099e:	462b      	mov	r3, r5
   209a0:	df04      	svc	4
   209a2:	b01f      	add	sp, #124	@ 0x7c
   209a4:	bdf0      	pop	{r4, r5, r6, r7, pc}
   209a6:	480f      	ldr	r0, [pc, #60]	@ (209e4 <_ZN18complex_no_dynamic3app17h1963f44e14d33619E+0xa8>)
   209a8:	2603      	movs	r6, #3
   209aa:	4631      	mov	r1, r6
   209ac:	462a      	mov	r2, r5
   209ae:	462b      	mov	r3, r5
   209b0:	df03      	svc	3
   209b2:	480c      	ldr	r0, [pc, #48]	@ (209e4 <_ZN18complex_no_dynamic3app17h1963f44e14d33619E+0xa8>)
   209b4:	4631      	mov	r1, r6
   209b6:	462a      	mov	r2, r5
   209b8:	462b      	mov	r3, r5
   209ba:	df03      	svc	3
   209bc:	1c60      	adds	r0, r4, #1
   209be:	a90f      	add	r1, sp, #60	@ 0x3c
   209c0:	223f      	movs	r2, #63	@ 0x3f
   209c2:	f006 fb22 	bl	2700a <__aeabi_memcpy>
   209c6:	7025      	strb	r5, [r4, #0]
   209c8:	4c06      	ldr	r4, [pc, #24]	@ (209e4 <_ZN18complex_no_dynamic3app17h1963f44e14d33619E+0xa8>)
   209ca:	4620      	mov	r0, r4
   209cc:	4631      	mov	r1, r6
   209ce:	462a      	mov	r2, r5
   209d0:	462b      	mov	r3, r5
   209d2:	df03      	svc	3
   209d4:	4620      	mov	r0, r4
   209d6:	4629      	mov	r1, r5
   209d8:	462a      	mov	r2, r5
   209da:	462b      	mov	r3, r5
   209dc:	df04      	svc	4
   209de:	b01f      	add	sp, #124	@ 0x7c
   209e0:	bdf0      	pop	{r4, r5, r6, r7, pc}
   209e2:	46c0      	nop			@ (mov r8, r8)
   209e4:	00000e57 	.word	0x00000e57

000209e8 <_ZN18complex_no_dynamic3app17h19671c4bf5dfc925E>:
   209e8:	b5f0      	push	{r4, r5, r6, r7, lr}
   209ea:	af03      	add	r7, sp, #12
   209ec:	b097      	sub	sp, #92	@ 0x5c
   209ee:	9001      	str	r0, [sp, #4]
   209f0:	ae02      	add	r6, sp, #8
   209f2:	2411      	movs	r4, #17
   209f4:	4630      	mov	r0, r6
   209f6:	4622      	mov	r2, r4
   209f8:	f006 fb07 	bl	2700a <__aeabi_memcpy>
   209fc:	a807      	add	r0, sp, #28
   209fe:	213f      	movs	r1, #63	@ 0x3f
   20a00:	f006 f956 	bl	26cb0 <__aeabi_memclr4>
   20a04:	20cb      	movs	r0, #203	@ 0xcb
   20a06:	0105      	lsls	r5, r0, #4
   20a08:	2107      	movs	r1, #7
   20a0a:	4628      	mov	r0, r5
   20a0c:	4632      	mov	r2, r6
   20a0e:	4623      	mov	r3, r4
   20a10:	df04      	svc	4
   20a12:	2802      	cmp	r0, #2
   20a14:	d00e      	beq.n	20a34 <_ZN18complex_no_dynamic3app17h19671c4bf5dfc925E+0x4c>
   20a16:	2104      	movs	r1, #4
   20a18:	aa07      	add	r2, sp, #28
   20a1a:	233f      	movs	r3, #63	@ 0x3f
   20a1c:	4628      	mov	r0, r5
   20a1e:	df03      	svc	3
   20a20:	2802      	cmp	r0, #2
   20a22:	d007      	beq.n	20a34 <_ZN18complex_no_dynamic3app17h19671c4bf5dfc925E+0x4c>
   20a24:	2107      	movs	r1, #7
   20a26:	2204      	movs	r2, #4
   20a28:	2600      	movs	r6, #0
   20a2a:	4628      	mov	r0, r5
   20a2c:	4633      	mov	r3, r6
   20a2e:	df02      	svc	2
   20a30:	287f      	cmp	r0, #127	@ 0x7f
   20a32:	d810      	bhi.n	20a56 <_ZN18complex_no_dynamic3app17h19671c4bf5dfc925E+0x6e>
   20a34:	2001      	movs	r0, #1
   20a36:	9a01      	ldr	r2, [sp, #4]
   20a38:	7010      	strb	r0, [r2, #0]
   20a3a:	6051      	str	r1, [r2, #4]
   20a3c:	2104      	movs	r1, #4
   20a3e:	2400      	movs	r4, #0
   20a40:	4628      	mov	r0, r5
   20a42:	4622      	mov	r2, r4
   20a44:	4623      	mov	r3, r4
   20a46:	df03      	svc	3
   20a48:	2107      	movs	r1, #7
   20a4a:	4628      	mov	r0, r5
   20a4c:	4622      	mov	r2, r4
   20a4e:	4623      	mov	r3, r4
   20a50:	df04      	svc	4
   20a52:	b017      	add	sp, #92	@ 0x5c
   20a54:	bdf0      	pop	{r4, r5, r6, r7, pc}
   20a56:	2404      	movs	r4, #4
   20a58:	9400      	str	r4, [sp, #0]
   20a5a:	4628      	mov	r0, r5
   20a5c:	4621      	mov	r1, r4
   20a5e:	4632      	mov	r2, r6
   20a60:	4633      	mov	r3, r6
   20a62:	df03      	svc	3
   20a64:	4628      	mov	r0, r5
   20a66:	4621      	mov	r1, r4
   20a68:	4632      	mov	r2, r6
   20a6a:	4633      	mov	r3, r6
   20a6c:	df03      	svc	3
   20a6e:	9c01      	ldr	r4, [sp, #4]
   20a70:	1c60      	adds	r0, r4, #1
   20a72:	a907      	add	r1, sp, #28
   20a74:	223f      	movs	r2, #63	@ 0x3f
   20a76:	f006 fac8 	bl	2700a <__aeabi_memcpy>
   20a7a:	7026      	strb	r6, [r4, #0]
   20a7c:	4628      	mov	r0, r5
   20a7e:	9900      	ldr	r1, [sp, #0]
   20a80:	4632      	mov	r2, r6
   20a82:	4633      	mov	r3, r6
   20a84:	df03      	svc	3
   20a86:	2107      	movs	r1, #7
   20a88:	4628      	mov	r0, r5
   20a8a:	4632      	mov	r2, r6
   20a8c:	4633      	mov	r3, r6
   20a8e:	df04      	svc	4
   20a90:	b017      	add	sp, #92	@ 0x5c
   20a92:	bdf0      	pop	{r4, r5, r6, r7, pc}

00020a94 <_ZN18complex_no_dynamic3app17h1a3eb9cc767babd5E>:
   20a94:	b5f0      	push	{r4, r5, r6, r7, lr}
   20a96:	af03      	add	r7, sp, #12
   20a98:	b093      	sub	sp, #76	@ 0x4c
   20a9a:	4604      	mov	r4, r0
   20a9c:	ad01      	add	r5, sp, #4
   20a9e:	2636      	movs	r6, #54	@ 0x36
   20aa0:	4628      	mov	r0, r5
   20aa2:	4632      	mov	r2, r6
   20aa4:	f006 fab1 	bl	2700a <__aeabi_memcpy>
   20aa8:	a80f      	add	r0, sp, #60	@ 0x3c
   20aaa:	2100      	movs	r1, #0
   20aac:	7381      	strb	r1, [r0, #14]
   20aae:	8181      	strh	r1, [r0, #12]
   20ab0:	9111      	str	r1, [sp, #68]	@ 0x44
   20ab2:	9110      	str	r1, [sp, #64]	@ 0x40
   20ab4:	910f      	str	r1, [sp, #60]	@ 0x3c
   20ab6:	4822      	ldr	r0, [pc, #136]	@ (20b40 <_ZN18complex_no_dynamic3app17h1a3eb9cc767babd5E+0xac>)
   20ab8:	2105      	movs	r1, #5
   20aba:	462a      	mov	r2, r5
   20abc:	4633      	mov	r3, r6
   20abe:	df04      	svc	4
   20ac0:	2802      	cmp	r0, #2
   20ac2:	d00e      	beq.n	20ae2 <_ZN18complex_no_dynamic3app17h1a3eb9cc767babd5E+0x4e>
   20ac4:	481e      	ldr	r0, [pc, #120]	@ (20b40 <_ZN18complex_no_dynamic3app17h1a3eb9cc767babd5E+0xac>)
   20ac6:	2103      	movs	r1, #3
   20ac8:	aa0f      	add	r2, sp, #60	@ 0x3c
   20aca:	230f      	movs	r3, #15
   20acc:	df03      	svc	3
   20ace:	2802      	cmp	r0, #2
   20ad0:	d007      	beq.n	20ae2 <_ZN18complex_no_dynamic3app17h1a3eb9cc767babd5E+0x4e>
   20ad2:	481b      	ldr	r0, [pc, #108]	@ (20b40 <_ZN18complex_no_dynamic3app17h1a3eb9cc767babd5E+0xac>)
   20ad4:	2105      	movs	r1, #5
   20ad6:	2203      	movs	r2, #3
   20ad8:	2500      	movs	r5, #0
   20ada:	462b      	mov	r3, r5
   20adc:	df02      	svc	2
   20ade:	287f      	cmp	r0, #127	@ 0x7f
   20ae0:	d810      	bhi.n	20b04 <_ZN18complex_no_dynamic3app17h1a3eb9cc767babd5E+0x70>
   20ae2:	2001      	movs	r0, #1
   20ae4:	7020      	strb	r0, [r4, #0]
   20ae6:	6061      	str	r1, [r4, #4]
   20ae8:	4c15      	ldr	r4, [pc, #84]	@ (20b40 <_ZN18complex_no_dynamic3app17h1a3eb9cc767babd5E+0xac>)
   20aea:	2103      	movs	r1, #3
   20aec:	2500      	movs	r5, #0
   20aee:	4620      	mov	r0, r4
   20af0:	462a      	mov	r2, r5
   20af2:	462b      	mov	r3, r5
   20af4:	df03      	svc	3
   20af6:	2105      	movs	r1, #5
   20af8:	4620      	mov	r0, r4
   20afa:	462a      	mov	r2, r5
   20afc:	462b      	mov	r3, r5
   20afe:	df04      	svc	4
   20b00:	b013      	add	sp, #76	@ 0x4c
   20b02:	bdf0      	pop	{r4, r5, r6, r7, pc}
   20b04:	480e      	ldr	r0, [pc, #56]	@ (20b40 <_ZN18complex_no_dynamic3app17h1a3eb9cc767babd5E+0xac>)
   20b06:	2603      	movs	r6, #3
   20b08:	4631      	mov	r1, r6
   20b0a:	462a      	mov	r2, r5
   20b0c:	462b      	mov	r3, r5
   20b0e:	df03      	svc	3
   20b10:	480b      	ldr	r0, [pc, #44]	@ (20b40 <_ZN18complex_no_dynamic3app17h1a3eb9cc767babd5E+0xac>)
   20b12:	4631      	mov	r1, r6
   20b14:	462a      	mov	r2, r5
   20b16:	462b      	mov	r3, r5
   20b18:	df03      	svc	3
   20b1a:	1c60      	adds	r0, r4, #1
   20b1c:	a90f      	add	r1, sp, #60	@ 0x3c
   20b1e:	220f      	movs	r2, #15
   20b20:	f006 fa73 	bl	2700a <__aeabi_memcpy>
   20b24:	7025      	strb	r5, [r4, #0]
   20b26:	4c06      	ldr	r4, [pc, #24]	@ (20b40 <_ZN18complex_no_dynamic3app17h1a3eb9cc767babd5E+0xac>)
   20b28:	4620      	mov	r0, r4
   20b2a:	4631      	mov	r1, r6
   20b2c:	462a      	mov	r2, r5
   20b2e:	462b      	mov	r3, r5
   20b30:	df03      	svc	3
   20b32:	2105      	movs	r1, #5
   20b34:	4620      	mov	r0, r4
   20b36:	462a      	mov	r2, r5
   20b38:	462b      	mov	r3, r5
   20b3a:	df04      	svc	4
   20b3c:	b013      	add	sp, #76	@ 0x4c
   20b3e:	bdf0      	pop	{r4, r5, r6, r7, pc}
   20b40:	00000653 	.word	0x00000653

00020b44 <_ZN18complex_no_dynamic3app17h21af1c329fdc5fb9E>:
   20b44:	b5f0      	push	{r4, r5, r6, r7, lr}
   20b46:	af03      	add	r7, sp, #12
   20b48:	b097      	sub	sp, #92	@ 0x5c
   20b4a:	4604      	mov	r4, r0
   20b4c:	ad01      	add	r5, sp, #4
   20b4e:	2612      	movs	r6, #18
   20b50:	4628      	mov	r0, r5
   20b52:	4632      	mov	r2, r6
   20b54:	f006 fa59 	bl	2700a <__aeabi_memcpy>
   20b58:	a806      	add	r0, sp, #24
   20b5a:	2144      	movs	r1, #68	@ 0x44
   20b5c:	f006 f8a8 	bl	26cb0 <__aeabi_memclr4>
   20b60:	4822      	ldr	r0, [pc, #136]	@ (20bec <_ZN18complex_no_dynamic3app17h21af1c329fdc5fb9E+0xa8>)
   20b62:	2102      	movs	r1, #2
   20b64:	462a      	mov	r2, r5
   20b66:	4633      	mov	r3, r6
   20b68:	df04      	svc	4
   20b6a:	2802      	cmp	r0, #2
   20b6c:	d00e      	beq.n	20b8c <_ZN18complex_no_dynamic3app17h21af1c329fdc5fb9E+0x48>
   20b6e:	481f      	ldr	r0, [pc, #124]	@ (20bec <_ZN18complex_no_dynamic3app17h21af1c329fdc5fb9E+0xa8>)
   20b70:	2109      	movs	r1, #9
   20b72:	aa06      	add	r2, sp, #24
   20b74:	2344      	movs	r3, #68	@ 0x44
   20b76:	df03      	svc	3
   20b78:	2802      	cmp	r0, #2
   20b7a:	d007      	beq.n	20b8c <_ZN18complex_no_dynamic3app17h21af1c329fdc5fb9E+0x48>
   20b7c:	481b      	ldr	r0, [pc, #108]	@ (20bec <_ZN18complex_no_dynamic3app17h21af1c329fdc5fb9E+0xa8>)
   20b7e:	2102      	movs	r1, #2
   20b80:	2209      	movs	r2, #9
   20b82:	2500      	movs	r5, #0
   20b84:	462b      	mov	r3, r5
   20b86:	df02      	svc	2
   20b88:	287f      	cmp	r0, #127	@ 0x7f
   20b8a:	d810      	bhi.n	20bae <_ZN18complex_no_dynamic3app17h21af1c329fdc5fb9E+0x6a>
   20b8c:	2001      	movs	r0, #1
   20b8e:	7020      	strb	r0, [r4, #0]
   20b90:	6061      	str	r1, [r4, #4]
   20b92:	4c16      	ldr	r4, [pc, #88]	@ (20bec <_ZN18complex_no_dynamic3app17h21af1c329fdc5fb9E+0xa8>)
   20b94:	2109      	movs	r1, #9
   20b96:	2500      	movs	r5, #0
   20b98:	4620      	mov	r0, r4
   20b9a:	462a      	mov	r2, r5
   20b9c:	462b      	mov	r3, r5
   20b9e:	df03      	svc	3
   20ba0:	2102      	movs	r1, #2
   20ba2:	4620      	mov	r0, r4
   20ba4:	462a      	mov	r2, r5
   20ba6:	462b      	mov	r3, r5
   20ba8:	df04      	svc	4
   20baa:	b017      	add	sp, #92	@ 0x5c
   20bac:	bdf0      	pop	{r4, r5, r6, r7, pc}
   20bae:	480f      	ldr	r0, [pc, #60]	@ (20bec <_ZN18complex_no_dynamic3app17h21af1c329fdc5fb9E+0xa8>)
   20bb0:	2609      	movs	r6, #9
   20bb2:	4631      	mov	r1, r6
   20bb4:	462a      	mov	r2, r5
   20bb6:	462b      	mov	r3, r5
   20bb8:	df03      	svc	3
   20bba:	480c      	ldr	r0, [pc, #48]	@ (20bec <_ZN18complex_no_dynamic3app17h21af1c329fdc5fb9E+0xa8>)
   20bbc:	4631      	mov	r1, r6
   20bbe:	462a      	mov	r2, r5
   20bc0:	462b      	mov	r3, r5
   20bc2:	df03      	svc	3
   20bc4:	1c60      	adds	r0, r4, #1
   20bc6:	a906      	add	r1, sp, #24
   20bc8:	2244      	movs	r2, #68	@ 0x44
   20bca:	f006 fa1e 	bl	2700a <__aeabi_memcpy>
   20bce:	7025      	strb	r5, [r4, #0]
   20bd0:	4c06      	ldr	r4, [pc, #24]	@ (20bec <_ZN18complex_no_dynamic3app17h21af1c329fdc5fb9E+0xa8>)
   20bd2:	4620      	mov	r0, r4
   20bd4:	4631      	mov	r1, r6
   20bd6:	462a      	mov	r2, r5
   20bd8:	462b      	mov	r3, r5
   20bda:	df03      	svc	3
   20bdc:	2102      	movs	r1, #2
   20bde:	4620      	mov	r0, r4
   20be0:	462a      	mov	r2, r5
   20be2:	462b      	mov	r3, r5
   20be4:	df04      	svc	4
   20be6:	b017      	add	sp, #92	@ 0x5c
   20be8:	bdf0      	pop	{r4, r5, r6, r7, pc}
   20bea:	46c0      	nop			@ (mov r8, r8)
   20bec:	00002432 	.word	0x00002432

00020bf0 <_ZN18complex_no_dynamic3app17h27d458842a79c424E>:
   20bf0:	b5f0      	push	{r4, r5, r6, r7, lr}
   20bf2:	af03      	add	r7, sp, #12
   20bf4:	b09b      	sub	sp, #108	@ 0x6c
   20bf6:	4604      	mov	r4, r0
   20bf8:	466d      	mov	r5, sp
   20bfa:	261a      	movs	r6, #26
   20bfc:	4628      	mov	r0, r5
   20bfe:	4632      	mov	r2, r6
   20c00:	f006 fa03 	bl	2700a <__aeabi_memcpy>
   20c04:	a807      	add	r0, sp, #28
   20c06:	2150      	movs	r1, #80	@ 0x50
   20c08:	f006 f852 	bl	26cb0 <__aeabi_memclr4>
   20c0c:	4822      	ldr	r0, [pc, #136]	@ (20c98 <_ZN18complex_no_dynamic3app17h27d458842a79c424E+0xa8>)
   20c0e:	2107      	movs	r1, #7
   20c10:	462a      	mov	r2, r5
   20c12:	4633      	mov	r3, r6
   20c14:	df04      	svc	4
   20c16:	2802      	cmp	r0, #2
   20c18:	d00e      	beq.n	20c38 <_ZN18complex_no_dynamic3app17h27d458842a79c424E+0x48>
   20c1a:	481f      	ldr	r0, [pc, #124]	@ (20c98 <_ZN18complex_no_dynamic3app17h27d458842a79c424E+0xa8>)
   20c1c:	2104      	movs	r1, #4
   20c1e:	aa07      	add	r2, sp, #28
   20c20:	2350      	movs	r3, #80	@ 0x50
   20c22:	df03      	svc	3
   20c24:	2802      	cmp	r0, #2
   20c26:	d007      	beq.n	20c38 <_ZN18complex_no_dynamic3app17h27d458842a79c424E+0x48>
   20c28:	481b      	ldr	r0, [pc, #108]	@ (20c98 <_ZN18complex_no_dynamic3app17h27d458842a79c424E+0xa8>)
   20c2a:	2107      	movs	r1, #7
   20c2c:	2204      	movs	r2, #4
   20c2e:	2500      	movs	r5, #0
   20c30:	462b      	mov	r3, r5
   20c32:	df02      	svc	2
   20c34:	287f      	cmp	r0, #127	@ 0x7f
   20c36:	d810      	bhi.n	20c5a <_ZN18complex_no_dynamic3app17h27d458842a79c424E+0x6a>
   20c38:	2001      	movs	r0, #1
   20c3a:	7020      	strb	r0, [r4, #0]
   20c3c:	6061      	str	r1, [r4, #4]
   20c3e:	4c16      	ldr	r4, [pc, #88]	@ (20c98 <_ZN18complex_no_dynamic3app17h27d458842a79c424E+0xa8>)
   20c40:	2104      	movs	r1, #4
   20c42:	2500      	movs	r5, #0
   20c44:	4620      	mov	r0, r4
   20c46:	462a      	mov	r2, r5
   20c48:	462b      	mov	r3, r5
   20c4a:	df03      	svc	3
   20c4c:	2107      	movs	r1, #7
   20c4e:	4620      	mov	r0, r4
   20c50:	462a      	mov	r2, r5
   20c52:	462b      	mov	r3, r5
   20c54:	df04      	svc	4
   20c56:	b01b      	add	sp, #108	@ 0x6c
   20c58:	bdf0      	pop	{r4, r5, r6, r7, pc}
   20c5a:	480f      	ldr	r0, [pc, #60]	@ (20c98 <_ZN18complex_no_dynamic3app17h27d458842a79c424E+0xa8>)
   20c5c:	2604      	movs	r6, #4
   20c5e:	4631      	mov	r1, r6
   20c60:	462a      	mov	r2, r5
   20c62:	462b      	mov	r3, r5
   20c64:	df03      	svc	3
   20c66:	480c      	ldr	r0, [pc, #48]	@ (20c98 <_ZN18complex_no_dynamic3app17h27d458842a79c424E+0xa8>)
   20c68:	4631      	mov	r1, r6
   20c6a:	462a      	mov	r2, r5
   20c6c:	462b      	mov	r3, r5
   20c6e:	df03      	svc	3
   20c70:	1c60      	adds	r0, r4, #1
   20c72:	a907      	add	r1, sp, #28
   20c74:	2250      	movs	r2, #80	@ 0x50
   20c76:	f006 f9c8 	bl	2700a <__aeabi_memcpy>
   20c7a:	7025      	strb	r5, [r4, #0]
   20c7c:	4c06      	ldr	r4, [pc, #24]	@ (20c98 <_ZN18complex_no_dynamic3app17h27d458842a79c424E+0xa8>)
   20c7e:	4620      	mov	r0, r4
   20c80:	4631      	mov	r1, r6
   20c82:	462a      	mov	r2, r5
   20c84:	462b      	mov	r3, r5
   20c86:	df03      	svc	3
   20c88:	2107      	movs	r1, #7
   20c8a:	4620      	mov	r0, r4
   20c8c:	462a      	mov	r2, r5
   20c8e:	462b      	mov	r3, r5
   20c90:	df04      	svc	4
   20c92:	b01b      	add	sp, #108	@ 0x6c
   20c94:	bdf0      	pop	{r4, r5, r6, r7, pc}
   20c96:	46c0      	nop			@ (mov r8, r8)
   20c98:	00000aee 	.word	0x00000aee

00020c9c <_ZN18complex_no_dynamic3app17h2c189561b0fd8ccfE>:
   20c9c:	b5f0      	push	{r4, r5, r6, r7, lr}
   20c9e:	af03      	add	r7, sp, #12
   20ca0:	b09b      	sub	sp, #108	@ 0x6c
   20ca2:	4604      	mov	r4, r0
   20ca4:	466d      	mov	r5, sp
   20ca6:	2613      	movs	r6, #19
   20ca8:	4628      	mov	r0, r5
   20caa:	4632      	mov	r2, r6
   20cac:	f006 f9ad 	bl	2700a <__aeabi_memcpy>
   20cb0:	a805      	add	r0, sp, #20
   20cb2:	2155      	movs	r1, #85	@ 0x55
   20cb4:	f005 fffc 	bl	26cb0 <__aeabi_memclr4>
   20cb8:	4822      	ldr	r0, [pc, #136]	@ (20d44 <_ZN18complex_no_dynamic3app17h2c189561b0fd8ccfE+0xa8>)
   20cba:	2109      	movs	r1, #9
   20cbc:	462a      	mov	r2, r5
   20cbe:	4633      	mov	r3, r6
   20cc0:	df04      	svc	4
   20cc2:	2802      	cmp	r0, #2
   20cc4:	d00e      	beq.n	20ce4 <_ZN18complex_no_dynamic3app17h2c189561b0fd8ccfE+0x48>
   20cc6:	481f      	ldr	r0, [pc, #124]	@ (20d44 <_ZN18complex_no_dynamic3app17h2c189561b0fd8ccfE+0xa8>)
   20cc8:	2107      	movs	r1, #7
   20cca:	aa05      	add	r2, sp, #20
   20ccc:	2355      	movs	r3, #85	@ 0x55
   20cce:	df03      	svc	3
   20cd0:	2802      	cmp	r0, #2
   20cd2:	d007      	beq.n	20ce4 <_ZN18complex_no_dynamic3app17h2c189561b0fd8ccfE+0x48>
   20cd4:	481b      	ldr	r0, [pc, #108]	@ (20d44 <_ZN18complex_no_dynamic3app17h2c189561b0fd8ccfE+0xa8>)
   20cd6:	2109      	movs	r1, #9
   20cd8:	2207      	movs	r2, #7
   20cda:	2500      	movs	r5, #0
   20cdc:	462b      	mov	r3, r5
   20cde:	df02      	svc	2
   20ce0:	287f      	cmp	r0, #127	@ 0x7f
   20ce2:	d810      	bhi.n	20d06 <_ZN18complex_no_dynamic3app17h2c189561b0fd8ccfE+0x6a>
   20ce4:	2001      	movs	r0, #1
   20ce6:	7020      	strb	r0, [r4, #0]
   20ce8:	6061      	str	r1, [r4, #4]
   20cea:	4c16      	ldr	r4, [pc, #88]	@ (20d44 <_ZN18complex_no_dynamic3app17h2c189561b0fd8ccfE+0xa8>)
   20cec:	2107      	movs	r1, #7
   20cee:	2500      	movs	r5, #0
   20cf0:	4620      	mov	r0, r4
   20cf2:	462a      	mov	r2, r5
   20cf4:	462b      	mov	r3, r5
   20cf6:	df03      	svc	3
   20cf8:	2109      	movs	r1, #9
   20cfa:	4620      	mov	r0, r4
   20cfc:	462a      	mov	r2, r5
   20cfe:	462b      	mov	r3, r5
   20d00:	df04      	svc	4
   20d02:	b01b      	add	sp, #108	@ 0x6c
   20d04:	bdf0      	pop	{r4, r5, r6, r7, pc}
   20d06:	480f      	ldr	r0, [pc, #60]	@ (20d44 <_ZN18complex_no_dynamic3app17h2c189561b0fd8ccfE+0xa8>)
   20d08:	2607      	movs	r6, #7
   20d0a:	4631      	mov	r1, r6
   20d0c:	462a      	mov	r2, r5
   20d0e:	462b      	mov	r3, r5
   20d10:	df03      	svc	3
   20d12:	480c      	ldr	r0, [pc, #48]	@ (20d44 <_ZN18complex_no_dynamic3app17h2c189561b0fd8ccfE+0xa8>)
   20d14:	4631      	mov	r1, r6
   20d16:	462a      	mov	r2, r5
   20d18:	462b      	mov	r3, r5
   20d1a:	df03      	svc	3
   20d1c:	1c60      	adds	r0, r4, #1
   20d1e:	a905      	add	r1, sp, #20
   20d20:	2255      	movs	r2, #85	@ 0x55
   20d22:	f006 f972 	bl	2700a <__aeabi_memcpy>
   20d26:	7025      	strb	r5, [r4, #0]
   20d28:	4c06      	ldr	r4, [pc, #24]	@ (20d44 <_ZN18complex_no_dynamic3app17h2c189561b0fd8ccfE+0xa8>)
   20d2a:	4620      	mov	r0, r4
   20d2c:	4631      	mov	r1, r6
   20d2e:	462a      	mov	r2, r5
   20d30:	462b      	mov	r3, r5
   20d32:	df03      	svc	3
   20d34:	2109      	movs	r1, #9
   20d36:	4620      	mov	r0, r4
   20d38:	462a      	mov	r2, r5
   20d3a:	462b      	mov	r3, r5
   20d3c:	df04      	svc	4
   20d3e:	b01b      	add	sp, #108	@ 0x6c
   20d40:	bdf0      	pop	{r4, r5, r6, r7, pc}
   20d42:	46c0      	nop			@ (mov r8, r8)
   20d44:	0000032e 	.word	0x0000032e

00020d48 <_ZN18complex_no_dynamic3app17h2f9c7af30dcd7bf7E>:
   20d48:	b5f0      	push	{r4, r5, r6, r7, lr}
   20d4a:	af03      	add	r7, sp, #12
   20d4c:	b095      	sub	sp, #84	@ 0x54
   20d4e:	4604      	mov	r4, r0
   20d50:	ad01      	add	r5, sp, #4
   20d52:	2634      	movs	r6, #52	@ 0x34
   20d54:	4628      	mov	r0, r5
   20d56:	4632      	mov	r2, r6
   20d58:	f006 f957 	bl	2700a <__aeabi_memcpy>
   20d5c:	a80e      	add	r0, sp, #56	@ 0x38
   20d5e:	2100      	movs	r1, #0
   20d60:	8301      	strh	r1, [r0, #24]
   20d62:	9113      	str	r1, [sp, #76]	@ 0x4c
   20d64:	9112      	str	r1, [sp, #72]	@ 0x48
   20d66:	9111      	str	r1, [sp, #68]	@ 0x44
   20d68:	9110      	str	r1, [sp, #64]	@ 0x40
   20d6a:	910f      	str	r1, [sp, #60]	@ 0x3c
   20d6c:	910e      	str	r1, [sp, #56]	@ 0x38
   20d6e:	4822      	ldr	r0, [pc, #136]	@ (20df8 <_ZN18complex_no_dynamic3app17h2f9c7af30dcd7bf7E+0xb0>)
   20d70:	462a      	mov	r2, r5
   20d72:	4633      	mov	r3, r6
   20d74:	df04      	svc	4
   20d76:	2802      	cmp	r0, #2
   20d78:	d00e      	beq.n	20d98 <_ZN18complex_no_dynamic3app17h2f9c7af30dcd7bf7E+0x50>
   20d7a:	481f      	ldr	r0, [pc, #124]	@ (20df8 <_ZN18complex_no_dynamic3app17h2f9c7af30dcd7bf7E+0xb0>)
   20d7c:	2105      	movs	r1, #5
   20d7e:	aa0e      	add	r2, sp, #56	@ 0x38
   20d80:	231a      	movs	r3, #26
   20d82:	df03      	svc	3
   20d84:	2802      	cmp	r0, #2
   20d86:	d007      	beq.n	20d98 <_ZN18complex_no_dynamic3app17h2f9c7af30dcd7bf7E+0x50>
   20d88:	481b      	ldr	r0, [pc, #108]	@ (20df8 <_ZN18complex_no_dynamic3app17h2f9c7af30dcd7bf7E+0xb0>)
   20d8a:	2205      	movs	r2, #5
   20d8c:	2500      	movs	r5, #0
   20d8e:	4629      	mov	r1, r5
   20d90:	462b      	mov	r3, r5
   20d92:	df02      	svc	2
   20d94:	287f      	cmp	r0, #127	@ 0x7f
   20d96:	d810      	bhi.n	20dba <_ZN18complex_no_dynamic3app17h2f9c7af30dcd7bf7E+0x72>
   20d98:	2001      	movs	r0, #1
   20d9a:	7020      	strb	r0, [r4, #0]
   20d9c:	6061      	str	r1, [r4, #4]
   20d9e:	4c16      	ldr	r4, [pc, #88]	@ (20df8 <_ZN18complex_no_dynamic3app17h2f9c7af30dcd7bf7E+0xb0>)
   20da0:	2105      	movs	r1, #5
   20da2:	2500      	movs	r5, #0
   20da4:	4620      	mov	r0, r4
   20da6:	462a      	mov	r2, r5
   20da8:	462b      	mov	r3, r5
   20daa:	df03      	svc	3
   20dac:	4620      	mov	r0, r4
   20dae:	4629      	mov	r1, r5
   20db0:	462a      	mov	r2, r5
   20db2:	462b      	mov	r3, r5
   20db4:	df04      	svc	4
   20db6:	b015      	add	sp, #84	@ 0x54
   20db8:	bdf0      	pop	{r4, r5, r6, r7, pc}
   20dba:	480f      	ldr	r0, [pc, #60]	@ (20df8 <_ZN18complex_no_dynamic3app17h2f9c7af30dcd7bf7E+0xb0>)
   20dbc:	2605      	movs	r6, #5
   20dbe:	4631      	mov	r1, r6
   20dc0:	462a      	mov	r2, r5
   20dc2:	462b      	mov	r3, r5
   20dc4:	df03      	svc	3
   20dc6:	480c      	ldr	r0, [pc, #48]	@ (20df8 <_ZN18complex_no_dynamic3app17h2f9c7af30dcd7bf7E+0xb0>)
   20dc8:	4631      	mov	r1, r6
   20dca:	462a      	mov	r2, r5
   20dcc:	462b      	mov	r3, r5
   20dce:	df03      	svc	3
   20dd0:	1c60      	adds	r0, r4, #1
   20dd2:	a90e      	add	r1, sp, #56	@ 0x38
   20dd4:	221a      	movs	r2, #26
   20dd6:	f006 f918 	bl	2700a <__aeabi_memcpy>
   20dda:	7025      	strb	r5, [r4, #0]
   20ddc:	4c06      	ldr	r4, [pc, #24]	@ (20df8 <_ZN18complex_no_dynamic3app17h2f9c7af30dcd7bf7E+0xb0>)
   20dde:	4620      	mov	r0, r4
   20de0:	4631      	mov	r1, r6
   20de2:	462a      	mov	r2, r5
   20de4:	462b      	mov	r3, r5
   20de6:	df03      	svc	3
   20de8:	4620      	mov	r0, r4
   20dea:	4629      	mov	r1, r5
   20dec:	462a      	mov	r2, r5
   20dee:	462b      	mov	r3, r5
   20df0:	df04      	svc	4
   20df2:	b015      	add	sp, #84	@ 0x54
   20df4:	bdf0      	pop	{r4, r5, r6, r7, pc}
   20df6:	46c0      	nop			@ (mov r8, r8)
   20df8:	000012cc 	.word	0x000012cc

00020dfc <_ZN18complex_no_dynamic3app17h2fc5ac383cd6e47eE>:
   20dfc:	b5f0      	push	{r4, r5, r6, r7, lr}
   20dfe:	af03      	add	r7, sp, #12
   20e00:	b09b      	sub	sp, #108	@ 0x6c
   20e02:	4604      	mov	r4, r0
   20e04:	ad01      	add	r5, sp, #4
   20e06:	2644      	movs	r6, #68	@ 0x44
   20e08:	4628      	mov	r0, r5
   20e0a:	4632      	mov	r2, r6
   20e0c:	f006 f8fd 	bl	2700a <__aeabi_memcpy>
   20e10:	a812      	add	r0, sp, #72	@ 0x48
   20e12:	2123      	movs	r1, #35	@ 0x23
   20e14:	f005 ff4c 	bl	26cb0 <__aeabi_memclr4>
   20e18:	4822      	ldr	r0, [pc, #136]	@ (20ea4 <_ZN18complex_no_dynamic3app17h2fc5ac383cd6e47eE+0xa8>)
   20e1a:	2106      	movs	r1, #6
   20e1c:	462a      	mov	r2, r5
   20e1e:	4633      	mov	r3, r6
   20e20:	df04      	svc	4
   20e22:	2802      	cmp	r0, #2
   20e24:	d00e      	beq.n	20e44 <_ZN18complex_no_dynamic3app17h2fc5ac383cd6e47eE+0x48>
   20e26:	481f      	ldr	r0, [pc, #124]	@ (20ea4 <_ZN18complex_no_dynamic3app17h2fc5ac383cd6e47eE+0xa8>)
   20e28:	2103      	movs	r1, #3
   20e2a:	aa12      	add	r2, sp, #72	@ 0x48
   20e2c:	2323      	movs	r3, #35	@ 0x23
   20e2e:	df03      	svc	3
   20e30:	2802      	cmp	r0, #2
   20e32:	d007      	beq.n	20e44 <_ZN18complex_no_dynamic3app17h2fc5ac383cd6e47eE+0x48>
   20e34:	481b      	ldr	r0, [pc, #108]	@ (20ea4 <_ZN18complex_no_dynamic3app17h2fc5ac383cd6e47eE+0xa8>)
   20e36:	2106      	movs	r1, #6
   20e38:	2203      	movs	r2, #3
   20e3a:	2500      	movs	r5, #0
   20e3c:	462b      	mov	r3, r5
   20e3e:	df02      	svc	2
   20e40:	287f      	cmp	r0, #127	@ 0x7f
   20e42:	d810      	bhi.n	20e66 <_ZN18complex_no_dynamic3app17h2fc5ac383cd6e47eE+0x6a>
   20e44:	2001      	movs	r0, #1
   20e46:	7020      	strb	r0, [r4, #0]
   20e48:	6061      	str	r1, [r4, #4]
   20e4a:	4c16      	ldr	r4, [pc, #88]	@ (20ea4 <_ZN18complex_no_dynamic3app17h2fc5ac383cd6e47eE+0xa8>)
   20e4c:	2103      	movs	r1, #3
   20e4e:	2500      	movs	r5, #0
   20e50:	4620      	mov	r0, r4
   20e52:	462a      	mov	r2, r5
   20e54:	462b      	mov	r3, r5
   20e56:	df03      	svc	3
   20e58:	2106      	movs	r1, #6
   20e5a:	4620      	mov	r0, r4
   20e5c:	462a      	mov	r2, r5
   20e5e:	462b      	mov	r3, r5
   20e60:	df04      	svc	4
   20e62:	b01b      	add	sp, #108	@ 0x6c
   20e64:	bdf0      	pop	{r4, r5, r6, r7, pc}
   20e66:	480f      	ldr	r0, [pc, #60]	@ (20ea4 <_ZN18complex_no_dynamic3app17h2fc5ac383cd6e47eE+0xa8>)
   20e68:	2603      	movs	r6, #3
   20e6a:	4631      	mov	r1, r6
   20e6c:	462a      	mov	r2, r5
   20e6e:	462b      	mov	r3, r5
   20e70:	df03      	svc	3
   20e72:	480c      	ldr	r0, [pc, #48]	@ (20ea4 <_ZN18complex_no_dynamic3app17h2fc5ac383cd6e47eE+0xa8>)
   20e74:	4631      	mov	r1, r6
   20e76:	462a      	mov	r2, r5
   20e78:	462b      	mov	r3, r5
   20e7a:	df03      	svc	3
   20e7c:	1c60      	adds	r0, r4, #1
   20e7e:	a912      	add	r1, sp, #72	@ 0x48
   20e80:	2223      	movs	r2, #35	@ 0x23
   20e82:	f006 f8c2 	bl	2700a <__aeabi_memcpy>
   20e86:	7025      	strb	r5, [r4, #0]
   20e88:	4c06      	ldr	r4, [pc, #24]	@ (20ea4 <_ZN18complex_no_dynamic3app17h2fc5ac383cd6e47eE+0xa8>)
   20e8a:	4620      	mov	r0, r4
   20e8c:	4631      	mov	r1, r6
   20e8e:	462a      	mov	r2, r5
   20e90:	462b      	mov	r3, r5
   20e92:	df03      	svc	3
   20e94:	2106      	movs	r1, #6
   20e96:	4620      	mov	r0, r4
   20e98:	462a      	mov	r2, r5
   20e9a:	462b      	mov	r3, r5
   20e9c:	df04      	svc	4
   20e9e:	b01b      	add	sp, #108	@ 0x6c
   20ea0:	bdf0      	pop	{r4, r5, r6, r7, pc}
   20ea2:	46c0      	nop			@ (mov r8, r8)
   20ea4:	000009bf 	.word	0x000009bf

00020ea8 <_ZN18complex_no_dynamic3app17h337988e0bb4108a2E>:
   20ea8:	b5f0      	push	{r4, r5, r6, r7, lr}
   20eaa:	af03      	add	r7, sp, #12
   20eac:	b09b      	sub	sp, #108	@ 0x6c
   20eae:	9000      	str	r0, [sp, #0]
   20eb0:	ae01      	add	r6, sp, #4
   20eb2:	2441      	movs	r4, #65	@ 0x41
   20eb4:	4630      	mov	r0, r6
   20eb6:	4622      	mov	r2, r4
   20eb8:	f006 f8a7 	bl	2700a <__aeabi_memcpy>
   20ebc:	a812      	add	r0, sp, #72	@ 0x48
   20ebe:	2122      	movs	r1, #34	@ 0x22
   20ec0:	f005 fef6 	bl	26cb0 <__aeabi_memclr4>
   20ec4:	4822      	ldr	r0, [pc, #136]	@ (20f50 <_ZN18complex_no_dynamic3app17h337988e0bb4108a2E+0xa8>)
   20ec6:	2501      	movs	r5, #1
   20ec8:	4629      	mov	r1, r5
   20eca:	4632      	mov	r2, r6
   20ecc:	4623      	mov	r3, r4
   20ece:	df04      	svc	4
   20ed0:	2802      	cmp	r0, #2
   20ed2:	d00e      	beq.n	20ef2 <_ZN18complex_no_dynamic3app17h337988e0bb4108a2E+0x4a>
   20ed4:	481e      	ldr	r0, [pc, #120]	@ (20f50 <_ZN18complex_no_dynamic3app17h337988e0bb4108a2E+0xa8>)
   20ed6:	2100      	movs	r1, #0
   20ed8:	aa12      	add	r2, sp, #72	@ 0x48
   20eda:	2322      	movs	r3, #34	@ 0x22
   20edc:	df03      	svc	3
   20ede:	2802      	cmp	r0, #2
   20ee0:	d007      	beq.n	20ef2 <_ZN18complex_no_dynamic3app17h337988e0bb4108a2E+0x4a>
   20ee2:	481b      	ldr	r0, [pc, #108]	@ (20f50 <_ZN18complex_no_dynamic3app17h337988e0bb4108a2E+0xa8>)
   20ee4:	2101      	movs	r1, #1
   20ee6:	2600      	movs	r6, #0
   20ee8:	4632      	mov	r2, r6
   20eea:	4633      	mov	r3, r6
   20eec:	df02      	svc	2
   20eee:	287f      	cmp	r0, #127	@ 0x7f
   20ef0:	d810      	bhi.n	20f14 <_ZN18complex_no_dynamic3app17h337988e0bb4108a2E+0x6c>
   20ef2:	9800      	ldr	r0, [sp, #0]
   20ef4:	7005      	strb	r5, [r0, #0]
   20ef6:	6041      	str	r1, [r0, #4]
   20ef8:	4c15      	ldr	r4, [pc, #84]	@ (20f50 <_ZN18complex_no_dynamic3app17h337988e0bb4108a2E+0xa8>)
   20efa:	2600      	movs	r6, #0
   20efc:	4620      	mov	r0, r4
   20efe:	4631      	mov	r1, r6
   20f00:	4632      	mov	r2, r6
   20f02:	4633      	mov	r3, r6
   20f04:	df03      	svc	3
   20f06:	4620      	mov	r0, r4
   20f08:	4629      	mov	r1, r5
   20f0a:	4632      	mov	r2, r6
   20f0c:	4633      	mov	r3, r6
   20f0e:	df04      	svc	4
   20f10:	b01b      	add	sp, #108	@ 0x6c
   20f12:	bdf0      	pop	{r4, r5, r6, r7, pc}
   20f14:	4d0e      	ldr	r5, [pc, #56]	@ (20f50 <_ZN18complex_no_dynamic3app17h337988e0bb4108a2E+0xa8>)
   20f16:	4628      	mov	r0, r5
   20f18:	4631      	mov	r1, r6
   20f1a:	4632      	mov	r2, r6
   20f1c:	4633      	mov	r3, r6
   20f1e:	df03      	svc	3
   20f20:	4628      	mov	r0, r5
   20f22:	4631      	mov	r1, r6
   20f24:	4632      	mov	r2, r6
   20f26:	4633      	mov	r3, r6
   20f28:	df03      	svc	3
   20f2a:	9c00      	ldr	r4, [sp, #0]
   20f2c:	1c60      	adds	r0, r4, #1
   20f2e:	a912      	add	r1, sp, #72	@ 0x48
   20f30:	2222      	movs	r2, #34	@ 0x22
   20f32:	f006 f86a 	bl	2700a <__aeabi_memcpy>
   20f36:	7026      	strb	r6, [r4, #0]
   20f38:	4628      	mov	r0, r5
   20f3a:	4631      	mov	r1, r6
   20f3c:	4632      	mov	r2, r6
   20f3e:	4633      	mov	r3, r6
   20f40:	df03      	svc	3
   20f42:	2101      	movs	r1, #1
   20f44:	4628      	mov	r0, r5
   20f46:	4632      	mov	r2, r6
   20f48:	4633      	mov	r3, r6
   20f4a:	df04      	svc	4
   20f4c:	b01b      	add	sp, #108	@ 0x6c
   20f4e:	bdf0      	pop	{r4, r5, r6, r7, pc}
   20f50:	0000247c 	.word	0x0000247c

00020f54 <_ZN18complex_no_dynamic3app17h33a786eaf011967eE>:
   20f54:	b5f0      	push	{r4, r5, r6, r7, lr}
   20f56:	af03      	add	r7, sp, #12
   20f58:	b093      	sub	sp, #76	@ 0x4c
   20f5a:	4604      	mov	r4, r0
   20f5c:	466d      	mov	r5, sp
   20f5e:	261e      	movs	r6, #30
   20f60:	4628      	mov	r0, r5
   20f62:	4632      	mov	r2, r6
   20f64:	f006 f851 	bl	2700a <__aeabi_memcpy>
   20f68:	a808      	add	r0, sp, #32
   20f6a:	212c      	movs	r1, #44	@ 0x2c
   20f6c:	f005 fea0 	bl	26cb0 <__aeabi_memclr4>
   20f70:	4821      	ldr	r0, [pc, #132]	@ (20ff8 <_ZN18complex_no_dynamic3app17h33a786eaf011967eE+0xa4>)
   20f72:	2107      	movs	r1, #7
   20f74:	462a      	mov	r2, r5
   20f76:	4633      	mov	r3, r6
   20f78:	df04      	svc	4
   20f7a:	2802      	cmp	r0, #2
   20f7c:	d00e      	beq.n	20f9c <_ZN18complex_no_dynamic3app17h33a786eaf011967eE+0x48>
   20f7e:	481e      	ldr	r0, [pc, #120]	@ (20ff8 <_ZN18complex_no_dynamic3app17h33a786eaf011967eE+0xa4>)
   20f80:	2100      	movs	r1, #0
   20f82:	aa08      	add	r2, sp, #32
   20f84:	232c      	movs	r3, #44	@ 0x2c
   20f86:	df03      	svc	3
   20f88:	2802      	cmp	r0, #2
   20f8a:	d007      	beq.n	20f9c <_ZN18complex_no_dynamic3app17h33a786eaf011967eE+0x48>
   20f8c:	481a      	ldr	r0, [pc, #104]	@ (20ff8 <_ZN18complex_no_dynamic3app17h33a786eaf011967eE+0xa4>)
   20f8e:	2107      	movs	r1, #7
   20f90:	2500      	movs	r5, #0
   20f92:	462a      	mov	r2, r5
   20f94:	462b      	mov	r3, r5
   20f96:	df02      	svc	2
   20f98:	287f      	cmp	r0, #127	@ 0x7f
   20f9a:	d810      	bhi.n	20fbe <_ZN18complex_no_dynamic3app17h33a786eaf011967eE+0x6a>
   20f9c:	2001      	movs	r0, #1
   20f9e:	7020      	strb	r0, [r4, #0]
   20fa0:	6061      	str	r1, [r4, #4]
   20fa2:	4c15      	ldr	r4, [pc, #84]	@ (20ff8 <_ZN18complex_no_dynamic3app17h33a786eaf011967eE+0xa4>)
   20fa4:	2500      	movs	r5, #0
   20fa6:	4620      	mov	r0, r4
   20fa8:	4629      	mov	r1, r5
   20faa:	462a      	mov	r2, r5
   20fac:	462b      	mov	r3, r5
   20fae:	df03      	svc	3
   20fb0:	2107      	movs	r1, #7
   20fb2:	4620      	mov	r0, r4
   20fb4:	462a      	mov	r2, r5
   20fb6:	462b      	mov	r3, r5
   20fb8:	df04      	svc	4
   20fba:	b013      	add	sp, #76	@ 0x4c
   20fbc:	bdf0      	pop	{r4, r5, r6, r7, pc}
   20fbe:	4e0e      	ldr	r6, [pc, #56]	@ (20ff8 <_ZN18complex_no_dynamic3app17h33a786eaf011967eE+0xa4>)
   20fc0:	4630      	mov	r0, r6
   20fc2:	4629      	mov	r1, r5
   20fc4:	462a      	mov	r2, r5
   20fc6:	462b      	mov	r3, r5
   20fc8:	df03      	svc	3
   20fca:	4630      	mov	r0, r6
   20fcc:	4629      	mov	r1, r5
   20fce:	462a      	mov	r2, r5
   20fd0:	462b      	mov	r3, r5
   20fd2:	df03      	svc	3
   20fd4:	1c60      	adds	r0, r4, #1
   20fd6:	a908      	add	r1, sp, #32
   20fd8:	222c      	movs	r2, #44	@ 0x2c
   20fda:	f006 f816 	bl	2700a <__aeabi_memcpy>
   20fde:	7025      	strb	r5, [r4, #0]
   20fe0:	4630      	mov	r0, r6
   20fe2:	4629      	mov	r1, r5
   20fe4:	462a      	mov	r2, r5
   20fe6:	462b      	mov	r3, r5
   20fe8:	df03      	svc	3
   20fea:	2107      	movs	r1, #7
   20fec:	4630      	mov	r0, r6
   20fee:	462a      	mov	r2, r5
   20ff0:	462b      	mov	r3, r5
   20ff2:	df04      	svc	4
   20ff4:	b013      	add	sp, #76	@ 0x4c
   20ff6:	bdf0      	pop	{r4, r5, r6, r7, pc}
   20ff8:	000003fb 	.word	0x000003fb

00020ffc <_ZN18complex_no_dynamic3app17h36efd118741ae1ffE>:
   20ffc:	b5f0      	push	{r4, r5, r6, r7, lr}
   20ffe:	af03      	add	r7, sp, #12
   21000:	b0a9      	sub	sp, #164	@ 0xa4
   21002:	4604      	mov	r4, r0
   21004:	ad01      	add	r5, sp, #4
   21006:	2646      	movs	r6, #70	@ 0x46
   21008:	4628      	mov	r0, r5
   2100a:	4632      	mov	r2, r6
   2100c:	f005 fffd 	bl	2700a <__aeabi_memcpy>
   21010:	a813      	add	r0, sp, #76	@ 0x4c
   21012:	2156      	movs	r1, #86	@ 0x56
   21014:	f005 fe4c 	bl	26cb0 <__aeabi_memclr4>
   21018:	4822      	ldr	r0, [pc, #136]	@ (210a4 <_ZN18complex_no_dynamic3app17h36efd118741ae1ffE+0xa8>)
   2101a:	2107      	movs	r1, #7
   2101c:	462a      	mov	r2, r5
   2101e:	4633      	mov	r3, r6
   21020:	df04      	svc	4
   21022:	2802      	cmp	r0, #2
   21024:	d00e      	beq.n	21044 <_ZN18complex_no_dynamic3app17h36efd118741ae1ffE+0x48>
   21026:	481f      	ldr	r0, [pc, #124]	@ (210a4 <_ZN18complex_no_dynamic3app17h36efd118741ae1ffE+0xa8>)
   21028:	2103      	movs	r1, #3
   2102a:	aa13      	add	r2, sp, #76	@ 0x4c
   2102c:	2356      	movs	r3, #86	@ 0x56
   2102e:	df03      	svc	3
   21030:	2802      	cmp	r0, #2
   21032:	d007      	beq.n	21044 <_ZN18complex_no_dynamic3app17h36efd118741ae1ffE+0x48>
   21034:	481b      	ldr	r0, [pc, #108]	@ (210a4 <_ZN18complex_no_dynamic3app17h36efd118741ae1ffE+0xa8>)
   21036:	2107      	movs	r1, #7
   21038:	2203      	movs	r2, #3
   2103a:	2500      	movs	r5, #0
   2103c:	462b      	mov	r3, r5
   2103e:	df02      	svc	2
   21040:	287f      	cmp	r0, #127	@ 0x7f
   21042:	d810      	bhi.n	21066 <_ZN18complex_no_dynamic3app17h36efd118741ae1ffE+0x6a>
   21044:	2001      	movs	r0, #1
   21046:	7020      	strb	r0, [r4, #0]
   21048:	6061      	str	r1, [r4, #4]
   2104a:	4c16      	ldr	r4, [pc, #88]	@ (210a4 <_ZN18complex_no_dynamic3app17h36efd118741ae1ffE+0xa8>)
   2104c:	2103      	movs	r1, #3
   2104e:	2500      	movs	r5, #0
   21050:	4620      	mov	r0, r4
   21052:	462a      	mov	r2, r5
   21054:	462b      	mov	r3, r5
   21056:	df03      	svc	3
   21058:	2107      	movs	r1, #7
   2105a:	4620      	mov	r0, r4
   2105c:	462a      	mov	r2, r5
   2105e:	462b      	mov	r3, r5
   21060:	df04      	svc	4
   21062:	b029      	add	sp, #164	@ 0xa4
   21064:	bdf0      	pop	{r4, r5, r6, r7, pc}
   21066:	480f      	ldr	r0, [pc, #60]	@ (210a4 <_ZN18complex_no_dynamic3app17h36efd118741ae1ffE+0xa8>)
   21068:	2603      	movs	r6, #3
   2106a:	4631      	mov	r1, r6
   2106c:	462a      	mov	r2, r5
   2106e:	462b      	mov	r3, r5
   21070:	df03      	svc	3
   21072:	480c      	ldr	r0, [pc, #48]	@ (210a4 <_ZN18complex_no_dynamic3app17h36efd118741ae1ffE+0xa8>)
   21074:	4631      	mov	r1, r6
   21076:	462a      	mov	r2, r5
   21078:	462b      	mov	r3, r5
   2107a:	df03      	svc	3
   2107c:	1c60      	adds	r0, r4, #1
   2107e:	a913      	add	r1, sp, #76	@ 0x4c
   21080:	2256      	movs	r2, #86	@ 0x56
   21082:	f005 ffc2 	bl	2700a <__aeabi_memcpy>
   21086:	7025      	strb	r5, [r4, #0]
   21088:	4c06      	ldr	r4, [pc, #24]	@ (210a4 <_ZN18complex_no_dynamic3app17h36efd118741ae1ffE+0xa8>)
   2108a:	4620      	mov	r0, r4
   2108c:	4631      	mov	r1, r6
   2108e:	462a      	mov	r2, r5
   21090:	462b      	mov	r3, r5
   21092:	df03      	svc	3
   21094:	2107      	movs	r1, #7
   21096:	4620      	mov	r0, r4
   21098:	462a      	mov	r2, r5
   2109a:	462b      	mov	r3, r5
   2109c:	df04      	svc	4
   2109e:	b029      	add	sp, #164	@ 0xa4
   210a0:	bdf0      	pop	{r4, r5, r6, r7, pc}
   210a2:	46c0      	nop			@ (mov r8, r8)
   210a4:	00001e50 	.word	0x00001e50

000210a8 <_ZN18complex_no_dynamic3app17h3fe32e38ab8d7a78E>:
   210a8:	b5f0      	push	{r4, r5, r6, r7, lr}
   210aa:	af03      	add	r7, sp, #12
   210ac:	b08f      	sub	sp, #60	@ 0x3c
   210ae:	4604      	mov	r4, r0
   210b0:	ad01      	add	r5, sp, #4
   210b2:	2618      	movs	r6, #24
   210b4:	4628      	mov	r0, r5
   210b6:	4632      	mov	r2, r6
   210b8:	f005 ffa7 	bl	2700a <__aeabi_memcpy>
   210bc:	a807      	add	r0, sp, #28
   210be:	2100      	movs	r1, #0
   210c0:	8381      	strh	r1, [r0, #28]
   210c2:	910d      	str	r1, [sp, #52]	@ 0x34
   210c4:	910c      	str	r1, [sp, #48]	@ 0x30
   210c6:	910b      	str	r1, [sp, #44]	@ 0x2c
   210c8:	910a      	str	r1, [sp, #40]	@ 0x28
   210ca:	9109      	str	r1, [sp, #36]	@ 0x24
   210cc:	9108      	str	r1, [sp, #32]
   210ce:	9107      	str	r1, [sp, #28]
   210d0:	4822      	ldr	r0, [pc, #136]	@ (2115c <_ZN18complex_no_dynamic3app17h3fe32e38ab8d7a78E+0xb4>)
   210d2:	2109      	movs	r1, #9
   210d4:	462a      	mov	r2, r5
   210d6:	4633      	mov	r3, r6
   210d8:	df04      	svc	4
   210da:	2802      	cmp	r0, #2
   210dc:	d00e      	beq.n	210fc <_ZN18complex_no_dynamic3app17h3fe32e38ab8d7a78E+0x54>
   210de:	481f      	ldr	r0, [pc, #124]	@ (2115c <_ZN18complex_no_dynamic3app17h3fe32e38ab8d7a78E+0xb4>)
   210e0:	2105      	movs	r1, #5
   210e2:	aa07      	add	r2, sp, #28
   210e4:	231e      	movs	r3, #30
   210e6:	df03      	svc	3
   210e8:	2802      	cmp	r0, #2
   210ea:	d007      	beq.n	210fc <_ZN18complex_no_dynamic3app17h3fe32e38ab8d7a78E+0x54>
   210ec:	481b      	ldr	r0, [pc, #108]	@ (2115c <_ZN18complex_no_dynamic3app17h3fe32e38ab8d7a78E+0xb4>)
   210ee:	2109      	movs	r1, #9
   210f0:	2205      	movs	r2, #5
   210f2:	2500      	movs	r5, #0
   210f4:	462b      	mov	r3, r5
   210f6:	df02      	svc	2
   210f8:	287f      	cmp	r0, #127	@ 0x7f
   210fa:	d810      	bhi.n	2111e <_ZN18complex_no_dynamic3app17h3fe32e38ab8d7a78E+0x76>
   210fc:	2001      	movs	r0, #1
   210fe:	7020      	strb	r0, [r4, #0]
   21100:	6061      	str	r1, [r4, #4]
   21102:	4c16      	ldr	r4, [pc, #88]	@ (2115c <_ZN18complex_no_dynamic3app17h3fe32e38ab8d7a78E+0xb4>)
   21104:	2105      	movs	r1, #5
   21106:	2500      	movs	r5, #0
   21108:	4620      	mov	r0, r4
   2110a:	462a      	mov	r2, r5
   2110c:	462b      	mov	r3, r5
   2110e:	df03      	svc	3
   21110:	2109      	movs	r1, #9
   21112:	4620      	mov	r0, r4
   21114:	462a      	mov	r2, r5
   21116:	462b      	mov	r3, r5
   21118:	df04      	svc	4
   2111a:	b00f      	add	sp, #60	@ 0x3c
   2111c:	bdf0      	pop	{r4, r5, r6, r7, pc}
   2111e:	480f      	ldr	r0, [pc, #60]	@ (2115c <_ZN18complex_no_dynamic3app17h3fe32e38ab8d7a78E+0xb4>)
   21120:	2605      	movs	r6, #5
   21122:	4631      	mov	r1, r6
   21124:	462a      	mov	r2, r5
   21126:	462b      	mov	r3, r5
   21128:	df03      	svc	3
   2112a:	480c      	ldr	r0, [pc, #48]	@ (2115c <_ZN18complex_no_dynamic3app17h3fe32e38ab8d7a78E+0xb4>)
   2112c:	4631      	mov	r1, r6
   2112e:	462a      	mov	r2, r5
   21130:	462b      	mov	r3, r5
   21132:	df03      	svc	3
   21134:	1c60      	adds	r0, r4, #1
   21136:	a907      	add	r1, sp, #28
   21138:	221e      	movs	r2, #30
   2113a:	f005 ff66 	bl	2700a <__aeabi_memcpy>
   2113e:	7025      	strb	r5, [r4, #0]
   21140:	4c06      	ldr	r4, [pc, #24]	@ (2115c <_ZN18complex_no_dynamic3app17h3fe32e38ab8d7a78E+0xb4>)
   21142:	4620      	mov	r0, r4
   21144:	4631      	mov	r1, r6
   21146:	462a      	mov	r2, r5
   21148:	462b      	mov	r3, r5
   2114a:	df03      	svc	3
   2114c:	2109      	movs	r1, #9
   2114e:	4620      	mov	r0, r4
   21150:	462a      	mov	r2, r5
   21152:	462b      	mov	r3, r5
   21154:	df04      	svc	4
   21156:	b00f      	add	sp, #60	@ 0x3c
   21158:	bdf0      	pop	{r4, r5, r6, r7, pc}
   2115a:	46c0      	nop			@ (mov r8, r8)
   2115c:	00000cbb 	.word	0x00000cbb

00021160 <_ZN18complex_no_dynamic3app17h43bab9c444db90ddE>:
   21160:	b5f0      	push	{r4, r5, r6, r7, lr}
   21162:	af03      	add	r7, sp, #12
   21164:	b0a3      	sub	sp, #140	@ 0x8c
   21166:	4604      	mov	r4, r0
   21168:	ad01      	add	r5, sp, #4
   2116a:	264f      	movs	r6, #79	@ 0x4f
   2116c:	4628      	mov	r0, r5
   2116e:	4632      	mov	r2, r6
   21170:	f005 ff4b 	bl	2700a <__aeabi_memcpy>
   21174:	a815      	add	r0, sp, #84	@ 0x54
   21176:	2135      	movs	r1, #53	@ 0x35
   21178:	f005 fd9a 	bl	26cb0 <__aeabi_memclr4>
   2117c:	4822      	ldr	r0, [pc, #136]	@ (21208 <_ZN18complex_no_dynamic3app17h43bab9c444db90ddE+0xa8>)
   2117e:	2107      	movs	r1, #7
   21180:	462a      	mov	r2, r5
   21182:	4633      	mov	r3, r6
   21184:	df04      	svc	4
   21186:	2802      	cmp	r0, #2
   21188:	d00e      	beq.n	211a8 <_ZN18complex_no_dynamic3app17h43bab9c444db90ddE+0x48>
   2118a:	481f      	ldr	r0, [pc, #124]	@ (21208 <_ZN18complex_no_dynamic3app17h43bab9c444db90ddE+0xa8>)
   2118c:	2101      	movs	r1, #1
   2118e:	aa15      	add	r2, sp, #84	@ 0x54
   21190:	2335      	movs	r3, #53	@ 0x35
   21192:	df03      	svc	3
   21194:	2802      	cmp	r0, #2
   21196:	d007      	beq.n	211a8 <_ZN18complex_no_dynamic3app17h43bab9c444db90ddE+0x48>
   21198:	481b      	ldr	r0, [pc, #108]	@ (21208 <_ZN18complex_no_dynamic3app17h43bab9c444db90ddE+0xa8>)
   2119a:	2107      	movs	r1, #7
   2119c:	2201      	movs	r2, #1
   2119e:	2500      	movs	r5, #0
   211a0:	462b      	mov	r3, r5
   211a2:	df02      	svc	2
   211a4:	287f      	cmp	r0, #127	@ 0x7f
   211a6:	d810      	bhi.n	211ca <_ZN18complex_no_dynamic3app17h43bab9c444db90ddE+0x6a>
   211a8:	2201      	movs	r2, #1
   211aa:	7022      	strb	r2, [r4, #0]
   211ac:	6061      	str	r1, [r4, #4]
   211ae:	4c16      	ldr	r4, [pc, #88]	@ (21208 <_ZN18complex_no_dynamic3app17h43bab9c444db90ddE+0xa8>)
   211b0:	2500      	movs	r5, #0
   211b2:	4620      	mov	r0, r4
   211b4:	4611      	mov	r1, r2
   211b6:	462a      	mov	r2, r5
   211b8:	462b      	mov	r3, r5
   211ba:	df03      	svc	3
   211bc:	2107      	movs	r1, #7
   211be:	4620      	mov	r0, r4
   211c0:	462a      	mov	r2, r5
   211c2:	462b      	mov	r3, r5
   211c4:	df04      	svc	4
   211c6:	b023      	add	sp, #140	@ 0x8c
   211c8:	bdf0      	pop	{r4, r5, r6, r7, pc}
   211ca:	480f      	ldr	r0, [pc, #60]	@ (21208 <_ZN18complex_no_dynamic3app17h43bab9c444db90ddE+0xa8>)
   211cc:	2601      	movs	r6, #1
   211ce:	4631      	mov	r1, r6
   211d0:	462a      	mov	r2, r5
   211d2:	462b      	mov	r3, r5
   211d4:	df03      	svc	3
   211d6:	480c      	ldr	r0, [pc, #48]	@ (21208 <_ZN18complex_no_dynamic3app17h43bab9c444db90ddE+0xa8>)
   211d8:	4631      	mov	r1, r6
   211da:	462a      	mov	r2, r5
   211dc:	462b      	mov	r3, r5
   211de:	df03      	svc	3
   211e0:	1c60      	adds	r0, r4, #1
   211e2:	a915      	add	r1, sp, #84	@ 0x54
   211e4:	2235      	movs	r2, #53	@ 0x35
   211e6:	f005 ff10 	bl	2700a <__aeabi_memcpy>
   211ea:	7025      	strb	r5, [r4, #0]
   211ec:	4c06      	ldr	r4, [pc, #24]	@ (21208 <_ZN18complex_no_dynamic3app17h43bab9c444db90ddE+0xa8>)
   211ee:	4620      	mov	r0, r4
   211f0:	4631      	mov	r1, r6
   211f2:	462a      	mov	r2, r5
   211f4:	462b      	mov	r3, r5
   211f6:	df03      	svc	3
   211f8:	2107      	movs	r1, #7
   211fa:	4620      	mov	r0, r4
   211fc:	462a      	mov	r2, r5
   211fe:	462b      	mov	r3, r5
   21200:	df04      	svc	4
   21202:	b023      	add	sp, #140	@ 0x8c
   21204:	bdf0      	pop	{r4, r5, r6, r7, pc}
   21206:	46c0      	nop			@ (mov r8, r8)
   21208:	000016d7 	.word	0x000016d7

0002120c <_ZN18complex_no_dynamic3app17h4a48a9710cd26a1fE>:
   2120c:	b5f0      	push	{r4, r5, r6, r7, lr}
   2120e:	af03      	add	r7, sp, #12
   21210:	b095      	sub	sp, #84	@ 0x54
   21212:	4604      	mov	r4, r0
   21214:	466d      	mov	r5, sp
   21216:	2625      	movs	r6, #37	@ 0x25
   21218:	4628      	mov	r0, r5
   2121a:	4632      	mov	r2, r6
   2121c:	f005 fef5 	bl	2700a <__aeabi_memcpy>
   21220:	a80a      	add	r0, sp, #40	@ 0x28
   21222:	212a      	movs	r1, #42	@ 0x2a
   21224:	f005 fd44 	bl	26cb0 <__aeabi_memclr4>
   21228:	4822      	ldr	r0, [pc, #136]	@ (212b4 <_ZN18complex_no_dynamic3app17h4a48a9710cd26a1fE+0xa8>)
   2122a:	2100      	movs	r1, #0
   2122c:	462a      	mov	r2, r5
   2122e:	4633      	mov	r3, r6
   21230:	df04      	svc	4
   21232:	2802      	cmp	r0, #2
   21234:	d00e      	beq.n	21254 <_ZN18complex_no_dynamic3app17h4a48a9710cd26a1fE+0x48>
   21236:	481f      	ldr	r0, [pc, #124]	@ (212b4 <_ZN18complex_no_dynamic3app17h4a48a9710cd26a1fE+0xa8>)
   21238:	2103      	movs	r1, #3
   2123a:	aa0a      	add	r2, sp, #40	@ 0x28
   2123c:	232a      	movs	r3, #42	@ 0x2a
   2123e:	df03      	svc	3
   21240:	2802      	cmp	r0, #2
   21242:	d007      	beq.n	21254 <_ZN18complex_no_dynamic3app17h4a48a9710cd26a1fE+0x48>
   21244:	481b      	ldr	r0, [pc, #108]	@ (212b4 <_ZN18complex_no_dynamic3app17h4a48a9710cd26a1fE+0xa8>)
   21246:	2203      	movs	r2, #3
   21248:	2500      	movs	r5, #0
   2124a:	4629      	mov	r1, r5
   2124c:	462b      	mov	r3, r5
   2124e:	df02      	svc	2
   21250:	287f      	cmp	r0, #127	@ 0x7f
   21252:	d810      	bhi.n	21276 <_ZN18complex_no_dynamic3app17h4a48a9710cd26a1fE+0x6a>
   21254:	2001      	movs	r0, #1
   21256:	7020      	strb	r0, [r4, #0]
   21258:	6061      	str	r1, [r4, #4]
   2125a:	4c16      	ldr	r4, [pc, #88]	@ (212b4 <_ZN18complex_no_dynamic3app17h4a48a9710cd26a1fE+0xa8>)
   2125c:	2103      	movs	r1, #3
   2125e:	2500      	movs	r5, #0
   21260:	4620      	mov	r0, r4
   21262:	462a      	mov	r2, r5
   21264:	462b      	mov	r3, r5
   21266:	df03      	svc	3
   21268:	4620      	mov	r0, r4
   2126a:	4629      	mov	r1, r5
   2126c:	462a      	mov	r2, r5
   2126e:	462b      	mov	r3, r5
   21270:	df04      	svc	4
   21272:	b015      	add	sp, #84	@ 0x54
   21274:	bdf0      	pop	{r4, r5, r6, r7, pc}
   21276:	480f      	ldr	r0, [pc, #60]	@ (212b4 <_ZN18complex_no_dynamic3app17h4a48a9710cd26a1fE+0xa8>)
   21278:	2603      	movs	r6, #3
   2127a:	4631      	mov	r1, r6
   2127c:	462a      	mov	r2, r5
   2127e:	462b      	mov	r3, r5
   21280:	df03      	svc	3
   21282:	480c      	ldr	r0, [pc, #48]	@ (212b4 <_ZN18complex_no_dynamic3app17h4a48a9710cd26a1fE+0xa8>)
   21284:	4631      	mov	r1, r6
   21286:	462a      	mov	r2, r5
   21288:	462b      	mov	r3, r5
   2128a:	df03      	svc	3
   2128c:	1c60      	adds	r0, r4, #1
   2128e:	a90a      	add	r1, sp, #40	@ 0x28
   21290:	222a      	movs	r2, #42	@ 0x2a
   21292:	f005 feba 	bl	2700a <__aeabi_memcpy>
   21296:	7025      	strb	r5, [r4, #0]
   21298:	4c06      	ldr	r4, [pc, #24]	@ (212b4 <_ZN18complex_no_dynamic3app17h4a48a9710cd26a1fE+0xa8>)
   2129a:	4620      	mov	r0, r4
   2129c:	4631      	mov	r1, r6
   2129e:	462a      	mov	r2, r5
   212a0:	462b      	mov	r3, r5
   212a2:	df03      	svc	3
   212a4:	4620      	mov	r0, r4
   212a6:	4629      	mov	r1, r5
   212a8:	462a      	mov	r2, r5
   212aa:	462b      	mov	r3, r5
   212ac:	df04      	svc	4
   212ae:	b015      	add	sp, #84	@ 0x54
   212b0:	bdf0      	pop	{r4, r5, r6, r7, pc}
   212b2:	46c0      	nop			@ (mov r8, r8)
   212b4:	0000093c 	.word	0x0000093c

000212b8 <_ZN18complex_no_dynamic3app17h4b4e86ce909f9995E>:
   212b8:	b5f0      	push	{r4, r5, r6, r7, lr}
   212ba:	af03      	add	r7, sp, #12
   212bc:	b099      	sub	sp, #100	@ 0x64
   212be:	4604      	mov	r4, r0
   212c0:	466d      	mov	r5, sp
   212c2:	263b      	movs	r6, #59	@ 0x3b
   212c4:	4628      	mov	r0, r5
   212c6:	4632      	mov	r2, r6
   212c8:	f005 fe9f 	bl	2700a <__aeabi_memcpy>
   212cc:	a80f      	add	r0, sp, #60	@ 0x3c
   212ce:	2127      	movs	r1, #39	@ 0x27
   212d0:	f005 fcee 	bl	26cb0 <__aeabi_memclr4>
   212d4:	4822      	ldr	r0, [pc, #136]	@ (21360 <_ZN18complex_no_dynamic3app17h4b4e86ce909f9995E+0xa8>)
   212d6:	2105      	movs	r1, #5
   212d8:	462a      	mov	r2, r5
   212da:	4633      	mov	r3, r6
   212dc:	df04      	svc	4
   212de:	2802      	cmp	r0, #2
   212e0:	d00e      	beq.n	21300 <_ZN18complex_no_dynamic3app17h4b4e86ce909f9995E+0x48>
   212e2:	481f      	ldr	r0, [pc, #124]	@ (21360 <_ZN18complex_no_dynamic3app17h4b4e86ce909f9995E+0xa8>)
   212e4:	2103      	movs	r1, #3
   212e6:	aa0f      	add	r2, sp, #60	@ 0x3c
   212e8:	2327      	movs	r3, #39	@ 0x27
   212ea:	df03      	svc	3
   212ec:	2802      	cmp	r0, #2
   212ee:	d007      	beq.n	21300 <_ZN18complex_no_dynamic3app17h4b4e86ce909f9995E+0x48>
   212f0:	481b      	ldr	r0, [pc, #108]	@ (21360 <_ZN18complex_no_dynamic3app17h4b4e86ce909f9995E+0xa8>)
   212f2:	2105      	movs	r1, #5
   212f4:	2203      	movs	r2, #3
   212f6:	2500      	movs	r5, #0
   212f8:	462b      	mov	r3, r5
   212fa:	df02      	svc	2
   212fc:	287f      	cmp	r0, #127	@ 0x7f
   212fe:	d810      	bhi.n	21322 <_ZN18complex_no_dynamic3app17h4b4e86ce909f9995E+0x6a>
   21300:	2001      	movs	r0, #1
   21302:	7020      	strb	r0, [r4, #0]
   21304:	6061      	str	r1, [r4, #4]
   21306:	4c16      	ldr	r4, [pc, #88]	@ (21360 <_ZN18complex_no_dynamic3app17h4b4e86ce909f9995E+0xa8>)
   21308:	2103      	movs	r1, #3
   2130a:	2500      	movs	r5, #0
   2130c:	4620      	mov	r0, r4
   2130e:	462a      	mov	r2, r5
   21310:	462b      	mov	r3, r5
   21312:	df03      	svc	3
   21314:	2105      	movs	r1, #5
   21316:	4620      	mov	r0, r4
   21318:	462a      	mov	r2, r5
   2131a:	462b      	mov	r3, r5
   2131c:	df04      	svc	4
   2131e:	b019      	add	sp, #100	@ 0x64
   21320:	bdf0      	pop	{r4, r5, r6, r7, pc}
   21322:	480f      	ldr	r0, [pc, #60]	@ (21360 <_ZN18complex_no_dynamic3app17h4b4e86ce909f9995E+0xa8>)
   21324:	2603      	movs	r6, #3
   21326:	4631      	mov	r1, r6
   21328:	462a      	mov	r2, r5
   2132a:	462b      	mov	r3, r5
   2132c:	df03      	svc	3
   2132e:	480c      	ldr	r0, [pc, #48]	@ (21360 <_ZN18complex_no_dynamic3app17h4b4e86ce909f9995E+0xa8>)
   21330:	4631      	mov	r1, r6
   21332:	462a      	mov	r2, r5
   21334:	462b      	mov	r3, r5
   21336:	df03      	svc	3
   21338:	1c60      	adds	r0, r4, #1
   2133a:	a90f      	add	r1, sp, #60	@ 0x3c
   2133c:	2227      	movs	r2, #39	@ 0x27
   2133e:	f005 fe64 	bl	2700a <__aeabi_memcpy>
   21342:	7025      	strb	r5, [r4, #0]
   21344:	4c06      	ldr	r4, [pc, #24]	@ (21360 <_ZN18complex_no_dynamic3app17h4b4e86ce909f9995E+0xa8>)
   21346:	4620      	mov	r0, r4
   21348:	4631      	mov	r1, r6
   2134a:	462a      	mov	r2, r5
   2134c:	462b      	mov	r3, r5
   2134e:	df03      	svc	3
   21350:	2105      	movs	r1, #5
   21352:	4620      	mov	r0, r4
   21354:	462a      	mov	r2, r5
   21356:	462b      	mov	r3, r5
   21358:	df04      	svc	4
   2135a:	b019      	add	sp, #100	@ 0x64
   2135c:	bdf0      	pop	{r4, r5, r6, r7, pc}
   2135e:	46c0      	nop			@ (mov r8, r8)
   21360:	00000bd3 	.word	0x00000bd3

00021364 <_ZN18complex_no_dynamic3app17h4d8a4c3b231ec2eeE>:
   21364:	b5f0      	push	{r4, r5, r6, r7, lr}
   21366:	af03      	add	r7, sp, #12
   21368:	b0a5      	sub	sp, #148	@ 0x94
   2136a:	4604      	mov	r4, r0
   2136c:	ad01      	add	r5, sp, #4
   2136e:	2653      	movs	r6, #83	@ 0x53
   21370:	4628      	mov	r0, r5
   21372:	4632      	mov	r2, r6
   21374:	f005 fe49 	bl	2700a <__aeabi_memcpy>
   21378:	a816      	add	r0, sp, #88	@ 0x58
   2137a:	213a      	movs	r1, #58	@ 0x3a
   2137c:	f005 fc98 	bl	26cb0 <__aeabi_memclr4>
   21380:	4822      	ldr	r0, [pc, #136]	@ (2140c <_ZN18complex_no_dynamic3app17h4d8a4c3b231ec2eeE+0xa8>)
   21382:	2106      	movs	r1, #6
   21384:	462a      	mov	r2, r5
   21386:	4633      	mov	r3, r6
   21388:	df04      	svc	4
   2138a:	2802      	cmp	r0, #2
   2138c:	d00e      	beq.n	213ac <_ZN18complex_no_dynamic3app17h4d8a4c3b231ec2eeE+0x48>
   2138e:	481f      	ldr	r0, [pc, #124]	@ (2140c <_ZN18complex_no_dynamic3app17h4d8a4c3b231ec2eeE+0xa8>)
   21390:	2107      	movs	r1, #7
   21392:	aa16      	add	r2, sp, #88	@ 0x58
   21394:	233a      	movs	r3, #58	@ 0x3a
   21396:	df03      	svc	3
   21398:	2802      	cmp	r0, #2
   2139a:	d007      	beq.n	213ac <_ZN18complex_no_dynamic3app17h4d8a4c3b231ec2eeE+0x48>
   2139c:	481b      	ldr	r0, [pc, #108]	@ (2140c <_ZN18complex_no_dynamic3app17h4d8a4c3b231ec2eeE+0xa8>)
   2139e:	2106      	movs	r1, #6
   213a0:	2207      	movs	r2, #7
   213a2:	2500      	movs	r5, #0
   213a4:	462b      	mov	r3, r5
   213a6:	df02      	svc	2
   213a8:	287f      	cmp	r0, #127	@ 0x7f
   213aa:	d810      	bhi.n	213ce <_ZN18complex_no_dynamic3app17h4d8a4c3b231ec2eeE+0x6a>
   213ac:	2001      	movs	r0, #1
   213ae:	7020      	strb	r0, [r4, #0]
   213b0:	6061      	str	r1, [r4, #4]
   213b2:	4c16      	ldr	r4, [pc, #88]	@ (2140c <_ZN18complex_no_dynamic3app17h4d8a4c3b231ec2eeE+0xa8>)
   213b4:	2107      	movs	r1, #7
   213b6:	2500      	movs	r5, #0
   213b8:	4620      	mov	r0, r4
   213ba:	462a      	mov	r2, r5
   213bc:	462b      	mov	r3, r5
   213be:	df03      	svc	3
   213c0:	2106      	movs	r1, #6
   213c2:	4620      	mov	r0, r4
   213c4:	462a      	mov	r2, r5
   213c6:	462b      	mov	r3, r5
   213c8:	df04      	svc	4
   213ca:	b025      	add	sp, #148	@ 0x94
   213cc:	bdf0      	pop	{r4, r5, r6, r7, pc}
   213ce:	480f      	ldr	r0, [pc, #60]	@ (2140c <_ZN18complex_no_dynamic3app17h4d8a4c3b231ec2eeE+0xa8>)
   213d0:	2607      	movs	r6, #7
   213d2:	4631      	mov	r1, r6
   213d4:	462a      	mov	r2, r5
   213d6:	462b      	mov	r3, r5
   213d8:	df03      	svc	3
   213da:	480c      	ldr	r0, [pc, #48]	@ (2140c <_ZN18complex_no_dynamic3app17h4d8a4c3b231ec2eeE+0xa8>)
   213dc:	4631      	mov	r1, r6
   213de:	462a      	mov	r2, r5
   213e0:	462b      	mov	r3, r5
   213e2:	df03      	svc	3
   213e4:	1c60      	adds	r0, r4, #1
   213e6:	a916      	add	r1, sp, #88	@ 0x58
   213e8:	223a      	movs	r2, #58	@ 0x3a
   213ea:	f005 fe0e 	bl	2700a <__aeabi_memcpy>
   213ee:	7025      	strb	r5, [r4, #0]
   213f0:	4c06      	ldr	r4, [pc, #24]	@ (2140c <_ZN18complex_no_dynamic3app17h4d8a4c3b231ec2eeE+0xa8>)
   213f2:	4620      	mov	r0, r4
   213f4:	4631      	mov	r1, r6
   213f6:	462a      	mov	r2, r5
   213f8:	462b      	mov	r3, r5
   213fa:	df03      	svc	3
   213fc:	2106      	movs	r1, #6
   213fe:	4620      	mov	r0, r4
   21400:	462a      	mov	r2, r5
   21402:	462b      	mov	r3, r5
   21404:	df04      	svc	4
   21406:	b025      	add	sp, #148	@ 0x94
   21408:	bdf0      	pop	{r4, r5, r6, r7, pc}
   2140a:	46c0      	nop			@ (mov r8, r8)
   2140c:	00002645 	.word	0x00002645

00021410 <_ZN18complex_no_dynamic3app17h4dc9963e6281a3a6E>:
   21410:	b5f0      	push	{r4, r5, r6, r7, lr}
   21412:	af03      	add	r7, sp, #12
   21414:	b09d      	sub	sp, #116	@ 0x74
   21416:	4604      	mov	r4, r0
   21418:	466d      	mov	r5, sp
   2141a:	261e      	movs	r6, #30
   2141c:	4628      	mov	r0, r5
   2141e:	4632      	mov	r2, r6
   21420:	f005 fdf3 	bl	2700a <__aeabi_memcpy>
   21424:	a808      	add	r0, sp, #32
   21426:	2151      	movs	r1, #81	@ 0x51
   21428:	f005 fc42 	bl	26cb0 <__aeabi_memclr4>
   2142c:	4821      	ldr	r0, [pc, #132]	@ (214b4 <_ZN18complex_no_dynamic3app17h4dc9963e6281a3a6E+0xa4>)
   2142e:	2102      	movs	r1, #2
   21430:	462a      	mov	r2, r5
   21432:	4633      	mov	r3, r6
   21434:	df04      	svc	4
   21436:	2802      	cmp	r0, #2
   21438:	d00e      	beq.n	21458 <_ZN18complex_no_dynamic3app17h4dc9963e6281a3a6E+0x48>
   2143a:	481e      	ldr	r0, [pc, #120]	@ (214b4 <_ZN18complex_no_dynamic3app17h4dc9963e6281a3a6E+0xa4>)
   2143c:	2100      	movs	r1, #0
   2143e:	aa08      	add	r2, sp, #32
   21440:	2351      	movs	r3, #81	@ 0x51
   21442:	df03      	svc	3
   21444:	2802      	cmp	r0, #2
   21446:	d007      	beq.n	21458 <_ZN18complex_no_dynamic3app17h4dc9963e6281a3a6E+0x48>
   21448:	481a      	ldr	r0, [pc, #104]	@ (214b4 <_ZN18complex_no_dynamic3app17h4dc9963e6281a3a6E+0xa4>)
   2144a:	2102      	movs	r1, #2
   2144c:	2500      	movs	r5, #0
   2144e:	462a      	mov	r2, r5
   21450:	462b      	mov	r3, r5
   21452:	df02      	svc	2
   21454:	287f      	cmp	r0, #127	@ 0x7f
   21456:	d810      	bhi.n	2147a <_ZN18complex_no_dynamic3app17h4dc9963e6281a3a6E+0x6a>
   21458:	2001      	movs	r0, #1
   2145a:	7020      	strb	r0, [r4, #0]
   2145c:	6061      	str	r1, [r4, #4]
   2145e:	4c15      	ldr	r4, [pc, #84]	@ (214b4 <_ZN18complex_no_dynamic3app17h4dc9963e6281a3a6E+0xa4>)
   21460:	2500      	movs	r5, #0
   21462:	4620      	mov	r0, r4
   21464:	4629      	mov	r1, r5
   21466:	462a      	mov	r2, r5
   21468:	462b      	mov	r3, r5
   2146a:	df03      	svc	3
   2146c:	2102      	movs	r1, #2
   2146e:	4620      	mov	r0, r4
   21470:	462a      	mov	r2, r5
   21472:	462b      	mov	r3, r5
   21474:	df04      	svc	4
   21476:	b01d      	add	sp, #116	@ 0x74
   21478:	bdf0      	pop	{r4, r5, r6, r7, pc}
   2147a:	4e0e      	ldr	r6, [pc, #56]	@ (214b4 <_ZN18complex_no_dynamic3app17h4dc9963e6281a3a6E+0xa4>)
   2147c:	4630      	mov	r0, r6
   2147e:	4629      	mov	r1, r5
   21480:	462a      	mov	r2, r5
   21482:	462b      	mov	r3, r5
   21484:	df03      	svc	3
   21486:	4630      	mov	r0, r6
   21488:	4629      	mov	r1, r5
   2148a:	462a      	mov	r2, r5
   2148c:	462b      	mov	r3, r5
   2148e:	df03      	svc	3
   21490:	1c60      	adds	r0, r4, #1
   21492:	a908      	add	r1, sp, #32
   21494:	2251      	movs	r2, #81	@ 0x51
   21496:	f005 fdb8 	bl	2700a <__aeabi_memcpy>
   2149a:	7025      	strb	r5, [r4, #0]
   2149c:	4630      	mov	r0, r6
   2149e:	4629      	mov	r1, r5
   214a0:	462a      	mov	r2, r5
   214a2:	462b      	mov	r3, r5
   214a4:	df03      	svc	3
   214a6:	2102      	movs	r1, #2
   214a8:	4630      	mov	r0, r6
   214aa:	462a      	mov	r2, r5
   214ac:	462b      	mov	r3, r5
   214ae:	df04      	svc	4
   214b0:	b01d      	add	sp, #116	@ 0x74
   214b2:	bdf0      	pop	{r4, r5, r6, r7, pc}
   214b4:	0000196b 	.word	0x0000196b

000214b8 <_ZN18complex_no_dynamic3app17h4ddb4dbd4afda2b5E>:
   214b8:	b5f0      	push	{r4, r5, r6, r7, lr}
   214ba:	af03      	add	r7, sp, #12
   214bc:	b09d      	sub	sp, #116	@ 0x74
   214be:	4604      	mov	r4, r0
   214c0:	466d      	mov	r5, sp
   214c2:	2648      	movs	r6, #72	@ 0x48
   214c4:	4628      	mov	r0, r5
   214c6:	4632      	mov	r2, r6
   214c8:	f005 fd9f 	bl	2700a <__aeabi_memcpy>
   214cc:	a812      	add	r0, sp, #72	@ 0x48
   214ce:	2129      	movs	r1, #41	@ 0x29
   214d0:	f005 fbee 	bl	26cb0 <__aeabi_memclr4>
   214d4:	4822      	ldr	r0, [pc, #136]	@ (21560 <_ZN18complex_no_dynamic3app17h4ddb4dbd4afda2b5E+0xa8>)
   214d6:	2103      	movs	r1, #3
   214d8:	462a      	mov	r2, r5
   214da:	4633      	mov	r3, r6
   214dc:	df04      	svc	4
   214de:	2802      	cmp	r0, #2
   214e0:	d00e      	beq.n	21500 <_ZN18complex_no_dynamic3app17h4ddb4dbd4afda2b5E+0x48>
   214e2:	481f      	ldr	r0, [pc, #124]	@ (21560 <_ZN18complex_no_dynamic3app17h4ddb4dbd4afda2b5E+0xa8>)
   214e4:	2104      	movs	r1, #4
   214e6:	aa12      	add	r2, sp, #72	@ 0x48
   214e8:	2329      	movs	r3, #41	@ 0x29
   214ea:	df03      	svc	3
   214ec:	2802      	cmp	r0, #2
   214ee:	d007      	beq.n	21500 <_ZN18complex_no_dynamic3app17h4ddb4dbd4afda2b5E+0x48>
   214f0:	481b      	ldr	r0, [pc, #108]	@ (21560 <_ZN18complex_no_dynamic3app17h4ddb4dbd4afda2b5E+0xa8>)
   214f2:	2103      	movs	r1, #3
   214f4:	2204      	movs	r2, #4
   214f6:	2500      	movs	r5, #0
   214f8:	462b      	mov	r3, r5
   214fa:	df02      	svc	2
   214fc:	287f      	cmp	r0, #127	@ 0x7f
   214fe:	d810      	bhi.n	21522 <_ZN18complex_no_dynamic3app17h4ddb4dbd4afda2b5E+0x6a>
   21500:	2001      	movs	r0, #1
   21502:	7020      	strb	r0, [r4, #0]
   21504:	6061      	str	r1, [r4, #4]
   21506:	4c16      	ldr	r4, [pc, #88]	@ (21560 <_ZN18complex_no_dynamic3app17h4ddb4dbd4afda2b5E+0xa8>)
   21508:	2104      	movs	r1, #4
   2150a:	2500      	movs	r5, #0
   2150c:	4620      	mov	r0, r4
   2150e:	462a      	mov	r2, r5
   21510:	462b      	mov	r3, r5
   21512:	df03      	svc	3
   21514:	2103      	movs	r1, #3
   21516:	4620      	mov	r0, r4
   21518:	462a      	mov	r2, r5
   2151a:	462b      	mov	r3, r5
   2151c:	df04      	svc	4
   2151e:	b01d      	add	sp, #116	@ 0x74
   21520:	bdf0      	pop	{r4, r5, r6, r7, pc}
   21522:	480f      	ldr	r0, [pc, #60]	@ (21560 <_ZN18complex_no_dynamic3app17h4ddb4dbd4afda2b5E+0xa8>)
   21524:	2604      	movs	r6, #4
   21526:	4631      	mov	r1, r6
   21528:	462a      	mov	r2, r5
   2152a:	462b      	mov	r3, r5
   2152c:	df03      	svc	3
   2152e:	480c      	ldr	r0, [pc, #48]	@ (21560 <_ZN18complex_no_dynamic3app17h4ddb4dbd4afda2b5E+0xa8>)
   21530:	4631      	mov	r1, r6
   21532:	462a      	mov	r2, r5
   21534:	462b      	mov	r3, r5
   21536:	df03      	svc	3
   21538:	1c60      	adds	r0, r4, #1
   2153a:	a912      	add	r1, sp, #72	@ 0x48
   2153c:	2229      	movs	r2, #41	@ 0x29
   2153e:	f005 fd64 	bl	2700a <__aeabi_memcpy>
   21542:	7025      	strb	r5, [r4, #0]
   21544:	4c06      	ldr	r4, [pc, #24]	@ (21560 <_ZN18complex_no_dynamic3app17h4ddb4dbd4afda2b5E+0xa8>)
   21546:	4620      	mov	r0, r4
   21548:	4631      	mov	r1, r6
   2154a:	462a      	mov	r2, r5
   2154c:	462b      	mov	r3, r5
   2154e:	df03      	svc	3
   21550:	2103      	movs	r1, #3
   21552:	4620      	mov	r0, r4
   21554:	462a      	mov	r2, r5
   21556:	462b      	mov	r3, r5
   21558:	df04      	svc	4
   2155a:	b01d      	add	sp, #116	@ 0x74
   2155c:	bdf0      	pop	{r4, r5, r6, r7, pc}
   2155e:	46c0      	nop			@ (mov r8, r8)
   21560:	000026a4 	.word	0x000026a4

00021564 <_ZN18complex_no_dynamic3app17h50e7290864403dd5E>:
   21564:	b5f0      	push	{r4, r5, r6, r7, lr}
   21566:	af03      	add	r7, sp, #12
   21568:	b091      	sub	sp, #68	@ 0x44
   2156a:	4604      	mov	r4, r0
   2156c:	ad01      	add	r5, sp, #4
   2156e:	2614      	movs	r6, #20
   21570:	4628      	mov	r0, r5
   21572:	4632      	mov	r2, r6
   21574:	f005 fd49 	bl	2700a <__aeabi_memcpy>
   21578:	a806      	add	r0, sp, #24
   2157a:	212b      	movs	r1, #43	@ 0x2b
   2157c:	f005 fb98 	bl	26cb0 <__aeabi_memclr4>
   21580:	4822      	ldr	r0, [pc, #136]	@ (2160c <_ZN18complex_no_dynamic3app17h50e7290864403dd5E+0xa8>)
   21582:	2108      	movs	r1, #8
   21584:	462a      	mov	r2, r5
   21586:	4633      	mov	r3, r6
   21588:	df04      	svc	4
   2158a:	2802      	cmp	r0, #2
   2158c:	d00e      	beq.n	215ac <_ZN18complex_no_dynamic3app17h50e7290864403dd5E+0x48>
   2158e:	481f      	ldr	r0, [pc, #124]	@ (2160c <_ZN18complex_no_dynamic3app17h50e7290864403dd5E+0xa8>)
   21590:	2104      	movs	r1, #4
   21592:	aa06      	add	r2, sp, #24
   21594:	232b      	movs	r3, #43	@ 0x2b
   21596:	df03      	svc	3
   21598:	2802      	cmp	r0, #2
   2159a:	d007      	beq.n	215ac <_ZN18complex_no_dynamic3app17h50e7290864403dd5E+0x48>
   2159c:	481b      	ldr	r0, [pc, #108]	@ (2160c <_ZN18complex_no_dynamic3app17h50e7290864403dd5E+0xa8>)
   2159e:	2108      	movs	r1, #8
   215a0:	2204      	movs	r2, #4
   215a2:	2500      	movs	r5, #0
   215a4:	462b      	mov	r3, r5
   215a6:	df02      	svc	2
   215a8:	287f      	cmp	r0, #127	@ 0x7f
   215aa:	d810      	bhi.n	215ce <_ZN18complex_no_dynamic3app17h50e7290864403dd5E+0x6a>
   215ac:	2001      	movs	r0, #1
   215ae:	7020      	strb	r0, [r4, #0]
   215b0:	6061      	str	r1, [r4, #4]
   215b2:	4c16      	ldr	r4, [pc, #88]	@ (2160c <_ZN18complex_no_dynamic3app17h50e7290864403dd5E+0xa8>)
   215b4:	2104      	movs	r1, #4
   215b6:	2500      	movs	r5, #0
   215b8:	4620      	mov	r0, r4
   215ba:	462a      	mov	r2, r5
   215bc:	462b      	mov	r3, r5
   215be:	df03      	svc	3
   215c0:	2108      	movs	r1, #8
   215c2:	4620      	mov	r0, r4
   215c4:	462a      	mov	r2, r5
   215c6:	462b      	mov	r3, r5
   215c8:	df04      	svc	4
   215ca:	b011      	add	sp, #68	@ 0x44
   215cc:	bdf0      	pop	{r4, r5, r6, r7, pc}
   215ce:	480f      	ldr	r0, [pc, #60]	@ (2160c <_ZN18complex_no_dynamic3app17h50e7290864403dd5E+0xa8>)
   215d0:	2604      	movs	r6, #4
   215d2:	4631      	mov	r1, r6
   215d4:	462a      	mov	r2, r5
   215d6:	462b      	mov	r3, r5
   215d8:	df03      	svc	3
   215da:	480c      	ldr	r0, [pc, #48]	@ (2160c <_ZN18complex_no_dynamic3app17h50e7290864403dd5E+0xa8>)
   215dc:	4631      	mov	r1, r6
   215de:	462a      	mov	r2, r5
   215e0:	462b      	mov	r3, r5
   215e2:	df03      	svc	3
   215e4:	1c60      	adds	r0, r4, #1
   215e6:	a906      	add	r1, sp, #24
   215e8:	222b      	movs	r2, #43	@ 0x2b
   215ea:	f005 fd0e 	bl	2700a <__aeabi_memcpy>
   215ee:	7025      	strb	r5, [r4, #0]
   215f0:	4c06      	ldr	r4, [pc, #24]	@ (2160c <_ZN18complex_no_dynamic3app17h50e7290864403dd5E+0xa8>)
   215f2:	4620      	mov	r0, r4
   215f4:	4631      	mov	r1, r6
   215f6:	462a      	mov	r2, r5
   215f8:	462b      	mov	r3, r5
   215fa:	df03      	svc	3
   215fc:	2108      	movs	r1, #8
   215fe:	4620      	mov	r0, r4
   21600:	462a      	mov	r2, r5
   21602:	462b      	mov	r3, r5
   21604:	df04      	svc	4
   21606:	b011      	add	sp, #68	@ 0x44
   21608:	bdf0      	pop	{r4, r5, r6, r7, pc}
   2160a:	46c0      	nop			@ (mov r8, r8)
   2160c:	0000239f 	.word	0x0000239f

00021610 <_ZN18complex_no_dynamic3app17h52ba18524848a7faE>:
   21610:	b5f0      	push	{r4, r5, r6, r7, lr}
   21612:	af03      	add	r7, sp, #12
   21614:	b0a5      	sub	sp, #148	@ 0x94
   21616:	4604      	mov	r4, r0
   21618:	ad01      	add	r5, sp, #4
   2161a:	262f      	movs	r6, #47	@ 0x2f
   2161c:	4628      	mov	r0, r5
   2161e:	4632      	mov	r2, r6
   21620:	f005 fcf3 	bl	2700a <__aeabi_memcpy>
   21624:	a80d      	add	r0, sp, #52	@ 0x34
   21626:	215e      	movs	r1, #94	@ 0x5e
   21628:	f005 fb42 	bl	26cb0 <__aeabi_memclr4>
   2162c:	4822      	ldr	r0, [pc, #136]	@ (216b8 <_ZN18complex_no_dynamic3app17h52ba18524848a7faE+0xa8>)
   2162e:	2105      	movs	r1, #5
   21630:	462a      	mov	r2, r5
   21632:	4633      	mov	r3, r6
   21634:	df04      	svc	4
   21636:	2802      	cmp	r0, #2
   21638:	d00e      	beq.n	21658 <_ZN18complex_no_dynamic3app17h52ba18524848a7faE+0x48>
   2163a:	481f      	ldr	r0, [pc, #124]	@ (216b8 <_ZN18complex_no_dynamic3app17h52ba18524848a7faE+0xa8>)
   2163c:	2102      	movs	r1, #2
   2163e:	aa0d      	add	r2, sp, #52	@ 0x34
   21640:	235e      	movs	r3, #94	@ 0x5e
   21642:	df03      	svc	3
   21644:	2802      	cmp	r0, #2
   21646:	d007      	beq.n	21658 <_ZN18complex_no_dynamic3app17h52ba18524848a7faE+0x48>
   21648:	481b      	ldr	r0, [pc, #108]	@ (216b8 <_ZN18complex_no_dynamic3app17h52ba18524848a7faE+0xa8>)
   2164a:	2105      	movs	r1, #5
   2164c:	2202      	movs	r2, #2
   2164e:	2500      	movs	r5, #0
   21650:	462b      	mov	r3, r5
   21652:	df02      	svc	2
   21654:	287f      	cmp	r0, #127	@ 0x7f
   21656:	d810      	bhi.n	2167a <_ZN18complex_no_dynamic3app17h52ba18524848a7faE+0x6a>
   21658:	2001      	movs	r0, #1
   2165a:	7020      	strb	r0, [r4, #0]
   2165c:	6061      	str	r1, [r4, #4]
   2165e:	4c16      	ldr	r4, [pc, #88]	@ (216b8 <_ZN18complex_no_dynamic3app17h52ba18524848a7faE+0xa8>)
   21660:	2102      	movs	r1, #2
   21662:	2500      	movs	r5, #0
   21664:	4620      	mov	r0, r4
   21666:	462a      	mov	r2, r5
   21668:	462b      	mov	r3, r5
   2166a:	df03      	svc	3
   2166c:	2105      	movs	r1, #5
   2166e:	4620      	mov	r0, r4
   21670:	462a      	mov	r2, r5
   21672:	462b      	mov	r3, r5
   21674:	df04      	svc	4
   21676:	b025      	add	sp, #148	@ 0x94
   21678:	bdf0      	pop	{r4, r5, r6, r7, pc}
   2167a:	480f      	ldr	r0, [pc, #60]	@ (216b8 <_ZN18complex_no_dynamic3app17h52ba18524848a7faE+0xa8>)
   2167c:	2602      	movs	r6, #2
   2167e:	4631      	mov	r1, r6
   21680:	462a      	mov	r2, r5
   21682:	462b      	mov	r3, r5
   21684:	df03      	svc	3
   21686:	480c      	ldr	r0, [pc, #48]	@ (216b8 <_ZN18complex_no_dynamic3app17h52ba18524848a7faE+0xa8>)
   21688:	4631      	mov	r1, r6
   2168a:	462a      	mov	r2, r5
   2168c:	462b      	mov	r3, r5
   2168e:	df03      	svc	3
   21690:	1c60      	adds	r0, r4, #1
   21692:	a90d      	add	r1, sp, #52	@ 0x34
   21694:	225e      	movs	r2, #94	@ 0x5e
   21696:	f005 fcb8 	bl	2700a <__aeabi_memcpy>
   2169a:	7025      	strb	r5, [r4, #0]
   2169c:	4c06      	ldr	r4, [pc, #24]	@ (216b8 <_ZN18complex_no_dynamic3app17h52ba18524848a7faE+0xa8>)
   2169e:	4620      	mov	r0, r4
   216a0:	4631      	mov	r1, r6
   216a2:	462a      	mov	r2, r5
   216a4:	462b      	mov	r3, r5
   216a6:	df03      	svc	3
   216a8:	2105      	movs	r1, #5
   216aa:	4620      	mov	r0, r4
   216ac:	462a      	mov	r2, r5
   216ae:	462b      	mov	r3, r5
   216b0:	df04      	svc	4
   216b2:	b025      	add	sp, #148	@ 0x94
   216b4:	bdf0      	pop	{r4, r5, r6, r7, pc}
   216b6:	46c0      	nop			@ (mov r8, r8)
   216b8:	0000022b 	.word	0x0000022b

000216bc <_ZN18complex_no_dynamic3app17h5302259378c56e85E>:
   216bc:	b5f0      	push	{r4, r5, r6, r7, lr}
   216be:	af03      	add	r7, sp, #12
   216c0:	b09d      	sub	sp, #116	@ 0x74
   216c2:	4604      	mov	r4, r0
   216c4:	466d      	mov	r5, sp
   216c6:	263c      	movs	r6, #60	@ 0x3c
   216c8:	4628      	mov	r0, r5
   216ca:	4632      	mov	r2, r6
   216cc:	f005 fc9d 	bl	2700a <__aeabi_memcpy>
   216d0:	a80f      	add	r0, sp, #60	@ 0x3c
   216d2:	2138      	movs	r1, #56	@ 0x38
   216d4:	f005 faec 	bl	26cb0 <__aeabi_memclr4>
   216d8:	4822      	ldr	r0, [pc, #136]	@ (21764 <_ZN18complex_no_dynamic3app17h5302259378c56e85E+0xa8>)
   216da:	2103      	movs	r1, #3
   216dc:	462a      	mov	r2, r5
   216de:	4633      	mov	r3, r6
   216e0:	df04      	svc	4
   216e2:	2802      	cmp	r0, #2
   216e4:	d00e      	beq.n	21704 <_ZN18complex_no_dynamic3app17h5302259378c56e85E+0x48>
   216e6:	481f      	ldr	r0, [pc, #124]	@ (21764 <_ZN18complex_no_dynamic3app17h5302259378c56e85E+0xa8>)
   216e8:	2103      	movs	r1, #3
   216ea:	aa0f      	add	r2, sp, #60	@ 0x3c
   216ec:	2338      	movs	r3, #56	@ 0x38
   216ee:	df03      	svc	3
   216f0:	2802      	cmp	r0, #2
   216f2:	d007      	beq.n	21704 <_ZN18complex_no_dynamic3app17h5302259378c56e85E+0x48>
   216f4:	481b      	ldr	r0, [pc, #108]	@ (21764 <_ZN18complex_no_dynamic3app17h5302259378c56e85E+0xa8>)
   216f6:	2103      	movs	r1, #3
   216f8:	2500      	movs	r5, #0
   216fa:	460a      	mov	r2, r1
   216fc:	462b      	mov	r3, r5
   216fe:	df02      	svc	2
   21700:	287f      	cmp	r0, #127	@ 0x7f
   21702:	d811      	bhi.n	21728 <_ZN18complex_no_dynamic3app17h5302259378c56e85E+0x6c>
   21704:	2001      	movs	r0, #1
   21706:	7020      	strb	r0, [r4, #0]
   21708:	6061      	str	r1, [r4, #4]
   2170a:	4c16      	ldr	r4, [pc, #88]	@ (21764 <_ZN18complex_no_dynamic3app17h5302259378c56e85E+0xa8>)
   2170c:	2503      	movs	r5, #3
   2170e:	2600      	movs	r6, #0
   21710:	4620      	mov	r0, r4
   21712:	4629      	mov	r1, r5
   21714:	4632      	mov	r2, r6
   21716:	4633      	mov	r3, r6
   21718:	df03      	svc	3
   2171a:	4620      	mov	r0, r4
   2171c:	4629      	mov	r1, r5
   2171e:	4632      	mov	r2, r6
   21720:	4633      	mov	r3, r6
   21722:	df04      	svc	4
   21724:	b01d      	add	sp, #116	@ 0x74
   21726:	bdf0      	pop	{r4, r5, r6, r7, pc}
   21728:	480e      	ldr	r0, [pc, #56]	@ (21764 <_ZN18complex_no_dynamic3app17h5302259378c56e85E+0xa8>)
   2172a:	2603      	movs	r6, #3
   2172c:	4631      	mov	r1, r6
   2172e:	462a      	mov	r2, r5
   21730:	462b      	mov	r3, r5
   21732:	df03      	svc	3
   21734:	480b      	ldr	r0, [pc, #44]	@ (21764 <_ZN18complex_no_dynamic3app17h5302259378c56e85E+0xa8>)
   21736:	4631      	mov	r1, r6
   21738:	462a      	mov	r2, r5
   2173a:	462b      	mov	r3, r5
   2173c:	df03      	svc	3
   2173e:	1c60      	adds	r0, r4, #1
   21740:	a90f      	add	r1, sp, #60	@ 0x3c
   21742:	2238      	movs	r2, #56	@ 0x38
   21744:	f005 fc61 	bl	2700a <__aeabi_memcpy>
   21748:	7025      	strb	r5, [r4, #0]
   2174a:	4c06      	ldr	r4, [pc, #24]	@ (21764 <_ZN18complex_no_dynamic3app17h5302259378c56e85E+0xa8>)
   2174c:	4620      	mov	r0, r4
   2174e:	4631      	mov	r1, r6
   21750:	462a      	mov	r2, r5
   21752:	462b      	mov	r3, r5
   21754:	df03      	svc	3
   21756:	4620      	mov	r0, r4
   21758:	4631      	mov	r1, r6
   2175a:	462a      	mov	r2, r5
   2175c:	462b      	mov	r3, r5
   2175e:	df04      	svc	4
   21760:	b01d      	add	sp, #116	@ 0x74
   21762:	bdf0      	pop	{r4, r5, r6, r7, pc}
   21764:	00001d19 	.word	0x00001d19

00021768 <_ZN18complex_no_dynamic3app17h5305e2d25e8255b6E>:
   21768:	b5f0      	push	{r4, r5, r6, r7, lr}
   2176a:	af03      	add	r7, sp, #12
   2176c:	b09f      	sub	sp, #124	@ 0x7c
   2176e:	4604      	mov	r4, r0
   21770:	466d      	mov	r5, sp
   21772:	264a      	movs	r6, #74	@ 0x4a
   21774:	4628      	mov	r0, r5
   21776:	4632      	mov	r2, r6
   21778:	f005 fc47 	bl	2700a <__aeabi_memcpy>
   2177c:	a813      	add	r0, sp, #76	@ 0x4c
   2177e:	212d      	movs	r1, #45	@ 0x2d
   21780:	f005 fa96 	bl	26cb0 <__aeabi_memclr4>
   21784:	4822      	ldr	r0, [pc, #136]	@ (21810 <_ZN18complex_no_dynamic3app17h5305e2d25e8255b6E+0xa8>)
   21786:	2102      	movs	r1, #2
   21788:	462a      	mov	r2, r5
   2178a:	4633      	mov	r3, r6
   2178c:	df04      	svc	4
   2178e:	2802      	cmp	r0, #2
   21790:	d00e      	beq.n	217b0 <_ZN18complex_no_dynamic3app17h5305e2d25e8255b6E+0x48>
   21792:	481f      	ldr	r0, [pc, #124]	@ (21810 <_ZN18complex_no_dynamic3app17h5305e2d25e8255b6E+0xa8>)
   21794:	2103      	movs	r1, #3
   21796:	aa13      	add	r2, sp, #76	@ 0x4c
   21798:	232d      	movs	r3, #45	@ 0x2d
   2179a:	df03      	svc	3
   2179c:	2802      	cmp	r0, #2
   2179e:	d007      	beq.n	217b0 <_ZN18complex_no_dynamic3app17h5305e2d25e8255b6E+0x48>
   217a0:	481b      	ldr	r0, [pc, #108]	@ (21810 <_ZN18complex_no_dynamic3app17h5305e2d25e8255b6E+0xa8>)
   217a2:	2102      	movs	r1, #2
   217a4:	2203      	movs	r2, #3
   217a6:	2500      	movs	r5, #0
   217a8:	462b      	mov	r3, r5
   217aa:	df02      	svc	2
   217ac:	287f      	cmp	r0, #127	@ 0x7f
   217ae:	d810      	bhi.n	217d2 <_ZN18complex_no_dynamic3app17h5305e2d25e8255b6E+0x6a>
   217b0:	2001      	movs	r0, #1
   217b2:	7020      	strb	r0, [r4, #0]
   217b4:	6061      	str	r1, [r4, #4]
   217b6:	4c16      	ldr	r4, [pc, #88]	@ (21810 <_ZN18complex_no_dynamic3app17h5305e2d25e8255b6E+0xa8>)
   217b8:	2103      	movs	r1, #3
   217ba:	2500      	movs	r5, #0
   217bc:	4620      	mov	r0, r4
   217be:	462a      	mov	r2, r5
   217c0:	462b      	mov	r3, r5
   217c2:	df03      	svc	3
   217c4:	2102      	movs	r1, #2
   217c6:	4620      	mov	r0, r4
   217c8:	462a      	mov	r2, r5
   217ca:	462b      	mov	r3, r5
   217cc:	df04      	svc	4
   217ce:	b01f      	add	sp, #124	@ 0x7c
   217d0:	bdf0      	pop	{r4, r5, r6, r7, pc}
   217d2:	480f      	ldr	r0, [pc, #60]	@ (21810 <_ZN18complex_no_dynamic3app17h5305e2d25e8255b6E+0xa8>)
   217d4:	2603      	movs	r6, #3
   217d6:	4631      	mov	r1, r6
   217d8:	462a      	mov	r2, r5
   217da:	462b      	mov	r3, r5
   217dc:	df03      	svc	3
   217de:	480c      	ldr	r0, [pc, #48]	@ (21810 <_ZN18complex_no_dynamic3app17h5305e2d25e8255b6E+0xa8>)
   217e0:	4631      	mov	r1, r6
   217e2:	462a      	mov	r2, r5
   217e4:	462b      	mov	r3, r5
   217e6:	df03      	svc	3
   217e8:	1c60      	adds	r0, r4, #1
   217ea:	a913      	add	r1, sp, #76	@ 0x4c
   217ec:	222d      	movs	r2, #45	@ 0x2d
   217ee:	f005 fc0c 	bl	2700a <__aeabi_memcpy>
   217f2:	7025      	strb	r5, [r4, #0]
   217f4:	4c06      	ldr	r4, [pc, #24]	@ (21810 <_ZN18complex_no_dynamic3app17h5305e2d25e8255b6E+0xa8>)
   217f6:	4620      	mov	r0, r4
   217f8:	4631      	mov	r1, r6
   217fa:	462a      	mov	r2, r5
   217fc:	462b      	mov	r3, r5
   217fe:	df03      	svc	3
   21800:	2102      	movs	r1, #2
   21802:	4620      	mov	r0, r4
   21804:	462a      	mov	r2, r5
   21806:	462b      	mov	r3, r5
   21808:	df04      	svc	4
   2180a:	b01f      	add	sp, #124	@ 0x7c
   2180c:	bdf0      	pop	{r4, r5, r6, r7, pc}
   2180e:	46c0      	nop			@ (mov r8, r8)
   21810:	00000e3d 	.word	0x00000e3d

00021814 <_ZN18complex_no_dynamic3app17h53435a79727c9325E>:
   21814:	b5f0      	push	{r4, r5, r6, r7, lr}
   21816:	af03      	add	r7, sp, #12
   21818:	b093      	sub	sp, #76	@ 0x4c
   2181a:	4604      	mov	r4, r0
   2181c:	ad01      	add	r5, sp, #4
   2181e:	2623      	movs	r6, #35	@ 0x23
   21820:	4628      	mov	r0, r5
   21822:	4632      	mov	r2, r6
   21824:	f005 fbf1 	bl	2700a <__aeabi_memcpy>
   21828:	a80a      	add	r0, sp, #40	@ 0x28
   2182a:	2124      	movs	r1, #36	@ 0x24
   2182c:	f005 fa40 	bl	26cb0 <__aeabi_memclr4>
   21830:	4822      	ldr	r0, [pc, #136]	@ (218bc <_ZN18complex_no_dynamic3app17h53435a79727c9325E+0xa8>)
   21832:	2104      	movs	r1, #4
   21834:	462a      	mov	r2, r5
   21836:	4633      	mov	r3, r6
   21838:	df04      	svc	4
   2183a:	2802      	cmp	r0, #2
   2183c:	d00e      	beq.n	2185c <_ZN18complex_no_dynamic3app17h53435a79727c9325E+0x48>
   2183e:	481f      	ldr	r0, [pc, #124]	@ (218bc <_ZN18complex_no_dynamic3app17h53435a79727c9325E+0xa8>)
   21840:	2108      	movs	r1, #8
   21842:	aa0a      	add	r2, sp, #40	@ 0x28
   21844:	2324      	movs	r3, #36	@ 0x24
   21846:	df03      	svc	3
   21848:	2802      	cmp	r0, #2
   2184a:	d007      	beq.n	2185c <_ZN18complex_no_dynamic3app17h53435a79727c9325E+0x48>
   2184c:	481b      	ldr	r0, [pc, #108]	@ (218bc <_ZN18complex_no_dynamic3app17h53435a79727c9325E+0xa8>)
   2184e:	2104      	movs	r1, #4
   21850:	2208      	movs	r2, #8
   21852:	2500      	movs	r5, #0
   21854:	462b      	mov	r3, r5
   21856:	df02      	svc	2
   21858:	287f      	cmp	r0, #127	@ 0x7f
   2185a:	d810      	bhi.n	2187e <_ZN18complex_no_dynamic3app17h53435a79727c9325E+0x6a>
   2185c:	2001      	movs	r0, #1
   2185e:	7020      	strb	r0, [r4, #0]
   21860:	6061      	str	r1, [r4, #4]
   21862:	4c16      	ldr	r4, [pc, #88]	@ (218bc <_ZN18complex_no_dynamic3app17h53435a79727c9325E+0xa8>)
   21864:	2108      	movs	r1, #8
   21866:	2500      	movs	r5, #0
   21868:	4620      	mov	r0, r4
   2186a:	462a      	mov	r2, r5
   2186c:	462b      	mov	r3, r5
   2186e:	df03      	svc	3
   21870:	2104      	movs	r1, #4
   21872:	4620      	mov	r0, r4
   21874:	462a      	mov	r2, r5
   21876:	462b      	mov	r3, r5
   21878:	df04      	svc	4
   2187a:	b013      	add	sp, #76	@ 0x4c
   2187c:	bdf0      	pop	{r4, r5, r6, r7, pc}
   2187e:	480f      	ldr	r0, [pc, #60]	@ (218bc <_ZN18complex_no_dynamic3app17h53435a79727c9325E+0xa8>)
   21880:	2608      	movs	r6, #8
   21882:	4631      	mov	r1, r6
   21884:	462a      	mov	r2, r5
   21886:	462b      	mov	r3, r5
   21888:	df03      	svc	3
   2188a:	480c      	ldr	r0, [pc, #48]	@ (218bc <_ZN18complex_no_dynamic3app17h53435a79727c9325E+0xa8>)
   2188c:	4631      	mov	r1, r6
   2188e:	462a      	mov	r2, r5
   21890:	462b      	mov	r3, r5
   21892:	df03      	svc	3
   21894:	1c60      	adds	r0, r4, #1
   21896:	a90a      	add	r1, sp, #40	@ 0x28
   21898:	2224      	movs	r2, #36	@ 0x24
   2189a:	f005 fbb6 	bl	2700a <__aeabi_memcpy>
   2189e:	7025      	strb	r5, [r4, #0]
   218a0:	4c06      	ldr	r4, [pc, #24]	@ (218bc <_ZN18complex_no_dynamic3app17h53435a79727c9325E+0xa8>)
   218a2:	4620      	mov	r0, r4
   218a4:	4631      	mov	r1, r6
   218a6:	462a      	mov	r2, r5
   218a8:	462b      	mov	r3, r5
   218aa:	df03      	svc	3
   218ac:	2104      	movs	r1, #4
   218ae:	4620      	mov	r0, r4
   218b0:	462a      	mov	r2, r5
   218b2:	462b      	mov	r3, r5
   218b4:	df04      	svc	4
   218b6:	b013      	add	sp, #76	@ 0x4c
   218b8:	bdf0      	pop	{r4, r5, r6, r7, pc}
   218ba:	46c0      	nop			@ (mov r8, r8)
   218bc:	00001bd6 	.word	0x00001bd6

000218c0 <_ZN18complex_no_dynamic3app17h56067bfefb86ca1fE>:
   218c0:	b5f0      	push	{r4, r5, r6, r7, lr}
   218c2:	af03      	add	r7, sp, #12
   218c4:	b0a9      	sub	sp, #164	@ 0xa4
   218c6:	4604      	mov	r4, r0
   218c8:	466d      	mov	r5, sp
   218ca:	2651      	movs	r6, #81	@ 0x51
   218cc:	4628      	mov	r0, r5
   218ce:	4632      	mov	r2, r6
   218d0:	f005 fb9b 	bl	2700a <__aeabi_memcpy>
   218d4:	a815      	add	r0, sp, #84	@ 0x54
   218d6:	214f      	movs	r1, #79	@ 0x4f
   218d8:	f005 f9ea 	bl	26cb0 <__aeabi_memclr4>
   218dc:	4822      	ldr	r0, [pc, #136]	@ (21968 <_ZN18complex_no_dynamic3app17h56067bfefb86ca1fE+0xa8>)
   218de:	2104      	movs	r1, #4
   218e0:	462a      	mov	r2, r5
   218e2:	4633      	mov	r3, r6
   218e4:	df04      	svc	4
   218e6:	2802      	cmp	r0, #2
   218e8:	d00e      	beq.n	21908 <_ZN18complex_no_dynamic3app17h56067bfefb86ca1fE+0x48>
   218ea:	481f      	ldr	r0, [pc, #124]	@ (21968 <_ZN18complex_no_dynamic3app17h56067bfefb86ca1fE+0xa8>)
   218ec:	2109      	movs	r1, #9
   218ee:	aa15      	add	r2, sp, #84	@ 0x54
   218f0:	234f      	movs	r3, #79	@ 0x4f
   218f2:	df03      	svc	3
   218f4:	2802      	cmp	r0, #2
   218f6:	d007      	beq.n	21908 <_ZN18complex_no_dynamic3app17h56067bfefb86ca1fE+0x48>
   218f8:	481b      	ldr	r0, [pc, #108]	@ (21968 <_ZN18complex_no_dynamic3app17h56067bfefb86ca1fE+0xa8>)
   218fa:	2104      	movs	r1, #4
   218fc:	2209      	movs	r2, #9
   218fe:	2500      	movs	r5, #0
   21900:	462b      	mov	r3, r5
   21902:	df02      	svc	2
   21904:	287f      	cmp	r0, #127	@ 0x7f
   21906:	d810      	bhi.n	2192a <_ZN18complex_no_dynamic3app17h56067bfefb86ca1fE+0x6a>
   21908:	2001      	movs	r0, #1
   2190a:	7020      	strb	r0, [r4, #0]
   2190c:	6061      	str	r1, [r4, #4]
   2190e:	4c16      	ldr	r4, [pc, #88]	@ (21968 <_ZN18complex_no_dynamic3app17h56067bfefb86ca1fE+0xa8>)
   21910:	2109      	movs	r1, #9
   21912:	2500      	movs	r5, #0
   21914:	4620      	mov	r0, r4
   21916:	462a      	mov	r2, r5
   21918:	462b      	mov	r3, r5
   2191a:	df03      	svc	3
   2191c:	2104      	movs	r1, #4
   2191e:	4620      	mov	r0, r4
   21920:	462a      	mov	r2, r5
   21922:	462b      	mov	r3, r5
   21924:	df04      	svc	4
   21926:	b029      	add	sp, #164	@ 0xa4
   21928:	bdf0      	pop	{r4, r5, r6, r7, pc}
   2192a:	480f      	ldr	r0, [pc, #60]	@ (21968 <_ZN18complex_no_dynamic3app17h56067bfefb86ca1fE+0xa8>)
   2192c:	2609      	movs	r6, #9
   2192e:	4631      	mov	r1, r6
   21930:	462a      	mov	r2, r5
   21932:	462b      	mov	r3, r5
   21934:	df03      	svc	3
   21936:	480c      	ldr	r0, [pc, #48]	@ (21968 <_ZN18complex_no_dynamic3app17h56067bfefb86ca1fE+0xa8>)
   21938:	4631      	mov	r1, r6
   2193a:	462a      	mov	r2, r5
   2193c:	462b      	mov	r3, r5
   2193e:	df03      	svc	3
   21940:	1c60      	adds	r0, r4, #1
   21942:	a915      	add	r1, sp, #84	@ 0x54
   21944:	224f      	movs	r2, #79	@ 0x4f
   21946:	f005 fb60 	bl	2700a <__aeabi_memcpy>
   2194a:	7025      	strb	r5, [r4, #0]
   2194c:	4c06      	ldr	r4, [pc, #24]	@ (21968 <_ZN18complex_no_dynamic3app17h56067bfefb86ca1fE+0xa8>)
   2194e:	4620      	mov	r0, r4
   21950:	4631      	mov	r1, r6
   21952:	462a      	mov	r2, r5
   21954:	462b      	mov	r3, r5
   21956:	df03      	svc	3
   21958:	2104      	movs	r1, #4
   2195a:	4620      	mov	r0, r4
   2195c:	462a      	mov	r2, r5
   2195e:	462b      	mov	r3, r5
   21960:	df04      	svc	4
   21962:	b029      	add	sp, #164	@ 0xa4
   21964:	bdf0      	pop	{r4, r5, r6, r7, pc}
   21966:	46c0      	nop			@ (mov r8, r8)
   21968:	000020ee 	.word	0x000020ee

0002196c <_ZN18complex_no_dynamic3app17h5b37b2fa29fa0db0E>:
   2196c:	b5f0      	push	{r4, r5, r6, r7, lr}
   2196e:	af03      	add	r7, sp, #12
   21970:	b095      	sub	sp, #84	@ 0x54
   21972:	4604      	mov	r4, r0
   21974:	466d      	mov	r5, sp
   21976:	262a      	movs	r6, #42	@ 0x2a
   21978:	4628      	mov	r0, r5
   2197a:	4632      	mov	r2, r6
   2197c:	f005 fb45 	bl	2700a <__aeabi_memcpy>
   21980:	a80b      	add	r0, sp, #44	@ 0x2c
   21982:	2128      	movs	r1, #40	@ 0x28
   21984:	f005 f994 	bl	26cb0 <__aeabi_memclr4>
   21988:	4822      	ldr	r0, [pc, #136]	@ (21a14 <_ZN18complex_no_dynamic3app17h5b37b2fa29fa0db0E+0xa8>)
   2198a:	2104      	movs	r1, #4
   2198c:	462a      	mov	r2, r5
   2198e:	4633      	mov	r3, r6
   21990:	df04      	svc	4
   21992:	2802      	cmp	r0, #2
   21994:	d00e      	beq.n	219b4 <_ZN18complex_no_dynamic3app17h5b37b2fa29fa0db0E+0x48>
   21996:	481f      	ldr	r0, [pc, #124]	@ (21a14 <_ZN18complex_no_dynamic3app17h5b37b2fa29fa0db0E+0xa8>)
   21998:	2108      	movs	r1, #8
   2199a:	aa0b      	add	r2, sp, #44	@ 0x2c
   2199c:	2328      	movs	r3, #40	@ 0x28
   2199e:	df03      	svc	3
   219a0:	2802      	cmp	r0, #2
   219a2:	d007      	beq.n	219b4 <_ZN18complex_no_dynamic3app17h5b37b2fa29fa0db0E+0x48>
   219a4:	481b      	ldr	r0, [pc, #108]	@ (21a14 <_ZN18complex_no_dynamic3app17h5b37b2fa29fa0db0E+0xa8>)
   219a6:	2104      	movs	r1, #4
   219a8:	2208      	movs	r2, #8
   219aa:	2500      	movs	r5, #0
   219ac:	462b      	mov	r3, r5
   219ae:	df02      	svc	2
   219b0:	287f      	cmp	r0, #127	@ 0x7f
   219b2:	d810      	bhi.n	219d6 <_ZN18complex_no_dynamic3app17h5b37b2fa29fa0db0E+0x6a>
   219b4:	2001      	movs	r0, #1
   219b6:	7020      	strb	r0, [r4, #0]
   219b8:	6061      	str	r1, [r4, #4]
   219ba:	4c16      	ldr	r4, [pc, #88]	@ (21a14 <_ZN18complex_no_dynamic3app17h5b37b2fa29fa0db0E+0xa8>)
   219bc:	2108      	movs	r1, #8
   219be:	2500      	movs	r5, #0
   219c0:	4620      	mov	r0, r4
   219c2:	462a      	mov	r2, r5
   219c4:	462b      	mov	r3, r5
   219c6:	df03      	svc	3
   219c8:	2104      	movs	r1, #4
   219ca:	4620      	mov	r0, r4
   219cc:	462a      	mov	r2, r5
   219ce:	462b      	mov	r3, r5
   219d0:	df04      	svc	4
   219d2:	b015      	add	sp, #84	@ 0x54
   219d4:	bdf0      	pop	{r4, r5, r6, r7, pc}
   219d6:	480f      	ldr	r0, [pc, #60]	@ (21a14 <_ZN18complex_no_dynamic3app17h5b37b2fa29fa0db0E+0xa8>)
   219d8:	2608      	movs	r6, #8
   219da:	4631      	mov	r1, r6
   219dc:	462a      	mov	r2, r5
   219de:	462b      	mov	r3, r5
   219e0:	df03      	svc	3
   219e2:	480c      	ldr	r0, [pc, #48]	@ (21a14 <_ZN18complex_no_dynamic3app17h5b37b2fa29fa0db0E+0xa8>)
   219e4:	4631      	mov	r1, r6
   219e6:	462a      	mov	r2, r5
   219e8:	462b      	mov	r3, r5
   219ea:	df03      	svc	3
   219ec:	1c60      	adds	r0, r4, #1
   219ee:	a90b      	add	r1, sp, #44	@ 0x2c
   219f0:	2228      	movs	r2, #40	@ 0x28
   219f2:	f005 fb0a 	bl	2700a <__aeabi_memcpy>
   219f6:	7025      	strb	r5, [r4, #0]
   219f8:	4c06      	ldr	r4, [pc, #24]	@ (21a14 <_ZN18complex_no_dynamic3app17h5b37b2fa29fa0db0E+0xa8>)
   219fa:	4620      	mov	r0, r4
   219fc:	4631      	mov	r1, r6
   219fe:	462a      	mov	r2, r5
   21a00:	462b      	mov	r3, r5
   21a02:	df03      	svc	3
   21a04:	2104      	movs	r1, #4
   21a06:	4620      	mov	r0, r4
   21a08:	462a      	mov	r2, r5
   21a0a:	462b      	mov	r3, r5
   21a0c:	df04      	svc	4
   21a0e:	b015      	add	sp, #84	@ 0x54
   21a10:	bdf0      	pop	{r4, r5, r6, r7, pc}
   21a12:	46c0      	nop			@ (mov r8, r8)
   21a14:	00001efa 	.word	0x00001efa

00021a18 <_ZN18complex_no_dynamic3app17h5d37ca1bb5f2df44E>:
   21a18:	b5f0      	push	{r4, r5, r6, r7, lr}
   21a1a:	af03      	add	r7, sp, #12
   21a1c:	b09f      	sub	sp, #124	@ 0x7c
   21a1e:	4604      	mov	r4, r0
   21a20:	ad01      	add	r5, sp, #4
   21a22:	2621      	movs	r6, #33	@ 0x21
   21a24:	4628      	mov	r0, r5
   21a26:	4632      	mov	r2, r6
   21a28:	f005 faef 	bl	2700a <__aeabi_memcpy>
   21a2c:	a80a      	add	r0, sp, #40	@ 0x28
   21a2e:	2153      	movs	r1, #83	@ 0x53
   21a30:	f005 f93e 	bl	26cb0 <__aeabi_memclr4>
   21a34:	4822      	ldr	r0, [pc, #136]	@ (21ac0 <_ZN18complex_no_dynamic3app17h5d37ca1bb5f2df44E+0xa8>)
   21a36:	2102      	movs	r1, #2
   21a38:	462a      	mov	r2, r5
   21a3a:	4633      	mov	r3, r6
   21a3c:	df04      	svc	4
   21a3e:	2802      	cmp	r0, #2
   21a40:	d00e      	beq.n	21a60 <_ZN18complex_no_dynamic3app17h5d37ca1bb5f2df44E+0x48>
   21a42:	481f      	ldr	r0, [pc, #124]	@ (21ac0 <_ZN18complex_no_dynamic3app17h5d37ca1bb5f2df44E+0xa8>)
   21a44:	2108      	movs	r1, #8
   21a46:	aa0a      	add	r2, sp, #40	@ 0x28
   21a48:	2353      	movs	r3, #83	@ 0x53
   21a4a:	df03      	svc	3
   21a4c:	2802      	cmp	r0, #2
   21a4e:	d007      	beq.n	21a60 <_ZN18complex_no_dynamic3app17h5d37ca1bb5f2df44E+0x48>
   21a50:	481b      	ldr	r0, [pc, #108]	@ (21ac0 <_ZN18complex_no_dynamic3app17h5d37ca1bb5f2df44E+0xa8>)
   21a52:	2102      	movs	r1, #2
   21a54:	2208      	movs	r2, #8
   21a56:	2500      	movs	r5, #0
   21a58:	462b      	mov	r3, r5
   21a5a:	df02      	svc	2
   21a5c:	287f      	cmp	r0, #127	@ 0x7f
   21a5e:	d810      	bhi.n	21a82 <_ZN18complex_no_dynamic3app17h5d37ca1bb5f2df44E+0x6a>
   21a60:	2001      	movs	r0, #1
   21a62:	7020      	strb	r0, [r4, #0]
   21a64:	6061      	str	r1, [r4, #4]
   21a66:	4c16      	ldr	r4, [pc, #88]	@ (21ac0 <_ZN18complex_no_dynamic3app17h5d37ca1bb5f2df44E+0xa8>)
   21a68:	2108      	movs	r1, #8
   21a6a:	2500      	movs	r5, #0
   21a6c:	4620      	mov	r0, r4
   21a6e:	462a      	mov	r2, r5
   21a70:	462b      	mov	r3, r5
   21a72:	df03      	svc	3
   21a74:	2102      	movs	r1, #2
   21a76:	4620      	mov	r0, r4
   21a78:	462a      	mov	r2, r5
   21a7a:	462b      	mov	r3, r5
   21a7c:	df04      	svc	4
   21a7e:	b01f      	add	sp, #124	@ 0x7c
   21a80:	bdf0      	pop	{r4, r5, r6, r7, pc}
   21a82:	480f      	ldr	r0, [pc, #60]	@ (21ac0 <_ZN18complex_no_dynamic3app17h5d37ca1bb5f2df44E+0xa8>)
   21a84:	2608      	movs	r6, #8
   21a86:	4631      	mov	r1, r6
   21a88:	462a      	mov	r2, r5
   21a8a:	462b      	mov	r3, r5
   21a8c:	df03      	svc	3
   21a8e:	480c      	ldr	r0, [pc, #48]	@ (21ac0 <_ZN18complex_no_dynamic3app17h5d37ca1bb5f2df44E+0xa8>)
   21a90:	4631      	mov	r1, r6
   21a92:	462a      	mov	r2, r5
   21a94:	462b      	mov	r3, r5
   21a96:	df03      	svc	3
   21a98:	1c60      	adds	r0, r4, #1
   21a9a:	a90a      	add	r1, sp, #40	@ 0x28
   21a9c:	2253      	movs	r2, #83	@ 0x53
   21a9e:	f005 fab4 	bl	2700a <__aeabi_memcpy>
   21aa2:	7025      	strb	r5, [r4, #0]
   21aa4:	4c06      	ldr	r4, [pc, #24]	@ (21ac0 <_ZN18complex_no_dynamic3app17h5d37ca1bb5f2df44E+0xa8>)
   21aa6:	4620      	mov	r0, r4
   21aa8:	4631      	mov	r1, r6
   21aaa:	462a      	mov	r2, r5
   21aac:	462b      	mov	r3, r5
   21aae:	df03      	svc	3
   21ab0:	2102      	movs	r1, #2
   21ab2:	4620      	mov	r0, r4
   21ab4:	462a      	mov	r2, r5
   21ab6:	462b      	mov	r3, r5
   21ab8:	df04      	svc	4
   21aba:	b01f      	add	sp, #124	@ 0x7c
   21abc:	bdf0      	pop	{r4, r5, r6, r7, pc}
   21abe:	46c0      	nop			@ (mov r8, r8)
   21ac0:	0000253e 	.word	0x0000253e

00021ac4 <_ZN18complex_no_dynamic3app17h5f4965ced58acf24E>:
   21ac4:	b5f0      	push	{r4, r5, r6, r7, lr}
   21ac6:	af03      	add	r7, sp, #12
   21ac8:	b0a3      	sub	sp, #140	@ 0x8c
   21aca:	9000      	str	r0, [sp, #0]
   21acc:	ae01      	add	r6, sp, #4
   21ace:	242a      	movs	r4, #42	@ 0x2a
   21ad0:	4630      	mov	r0, r6
   21ad2:	4622      	mov	r2, r4
   21ad4:	f005 fa99 	bl	2700a <__aeabi_memcpy>
   21ad8:	a80c      	add	r0, sp, #48	@ 0x30
   21ada:	2159      	movs	r1, #89	@ 0x59
   21adc:	f005 f8e8 	bl	26cb0 <__aeabi_memclr4>
   21ae0:	4823      	ldr	r0, [pc, #140]	@ (21b70 <_ZN18complex_no_dynamic3app17h5f4965ced58acf24E+0xac>)
   21ae2:	2501      	movs	r5, #1
   21ae4:	4629      	mov	r1, r5
   21ae6:	4632      	mov	r2, r6
   21ae8:	4623      	mov	r3, r4
   21aea:	df04      	svc	4
   21aec:	2802      	cmp	r0, #2
   21aee:	d00e      	beq.n	21b0e <_ZN18complex_no_dynamic3app17h5f4965ced58acf24E+0x4a>
   21af0:	481f      	ldr	r0, [pc, #124]	@ (21b70 <_ZN18complex_no_dynamic3app17h5f4965ced58acf24E+0xac>)
   21af2:	2103      	movs	r1, #3
   21af4:	aa0c      	add	r2, sp, #48	@ 0x30
   21af6:	2359      	movs	r3, #89	@ 0x59
   21af8:	df03      	svc	3
   21afa:	2802      	cmp	r0, #2
   21afc:	d007      	beq.n	21b0e <_ZN18complex_no_dynamic3app17h5f4965ced58acf24E+0x4a>
   21afe:	481c      	ldr	r0, [pc, #112]	@ (21b70 <_ZN18complex_no_dynamic3app17h5f4965ced58acf24E+0xac>)
   21b00:	2101      	movs	r1, #1
   21b02:	2203      	movs	r2, #3
   21b04:	2600      	movs	r6, #0
   21b06:	4633      	mov	r3, r6
   21b08:	df02      	svc	2
   21b0a:	287f      	cmp	r0, #127	@ 0x7f
   21b0c:	d810      	bhi.n	21b30 <_ZN18complex_no_dynamic3app17h5f4965ced58acf24E+0x6c>
   21b0e:	9800      	ldr	r0, [sp, #0]
   21b10:	7005      	strb	r5, [r0, #0]
   21b12:	6041      	str	r1, [r0, #4]
   21b14:	4c16      	ldr	r4, [pc, #88]	@ (21b70 <_ZN18complex_no_dynamic3app17h5f4965ced58acf24E+0xac>)
   21b16:	2103      	movs	r1, #3
   21b18:	2600      	movs	r6, #0
   21b1a:	4620      	mov	r0, r4
   21b1c:	4632      	mov	r2, r6
   21b1e:	4633      	mov	r3, r6
   21b20:	df03      	svc	3
   21b22:	4620      	mov	r0, r4
   21b24:	4629      	mov	r1, r5
   21b26:	4632      	mov	r2, r6
   21b28:	4633      	mov	r3, r6
   21b2a:	df04      	svc	4
   21b2c:	b023      	add	sp, #140	@ 0x8c
   21b2e:	bdf0      	pop	{r4, r5, r6, r7, pc}
   21b30:	4c0f      	ldr	r4, [pc, #60]	@ (21b70 <_ZN18complex_no_dynamic3app17h5f4965ced58acf24E+0xac>)
   21b32:	2503      	movs	r5, #3
   21b34:	4620      	mov	r0, r4
   21b36:	4629      	mov	r1, r5
   21b38:	4632      	mov	r2, r6
   21b3a:	4633      	mov	r3, r6
   21b3c:	df03      	svc	3
   21b3e:	4620      	mov	r0, r4
   21b40:	4629      	mov	r1, r5
   21b42:	4632      	mov	r2, r6
   21b44:	4633      	mov	r3, r6
   21b46:	df03      	svc	3
   21b48:	9c00      	ldr	r4, [sp, #0]
   21b4a:	1c60      	adds	r0, r4, #1
   21b4c:	a90c      	add	r1, sp, #48	@ 0x30
   21b4e:	2259      	movs	r2, #89	@ 0x59
   21b50:	f005 fa5b 	bl	2700a <__aeabi_memcpy>
   21b54:	7026      	strb	r6, [r4, #0]
   21b56:	4c06      	ldr	r4, [pc, #24]	@ (21b70 <_ZN18complex_no_dynamic3app17h5f4965ced58acf24E+0xac>)
   21b58:	4620      	mov	r0, r4
   21b5a:	4629      	mov	r1, r5
   21b5c:	4632      	mov	r2, r6
   21b5e:	4633      	mov	r3, r6
   21b60:	df03      	svc	3
   21b62:	2101      	movs	r1, #1
   21b64:	4620      	mov	r0, r4
   21b66:	4632      	mov	r2, r6
   21b68:	4633      	mov	r3, r6
   21b6a:	df04      	svc	4
   21b6c:	b023      	add	sp, #140	@ 0x8c
   21b6e:	bdf0      	pop	{r4, r5, r6, r7, pc}
   21b70:	00000ed2 	.word	0x00000ed2

00021b74 <_ZN18complex_no_dynamic3app17h60bb35fd9706b8c3E>:
   21b74:	b5f0      	push	{r4, r5, r6, r7, lr}
   21b76:	af03      	add	r7, sp, #12
   21b78:	b09b      	sub	sp, #108	@ 0x6c
   21b7a:	4604      	mov	r4, r0
   21b7c:	ad01      	add	r5, sp, #4
   21b7e:	262e      	movs	r6, #46	@ 0x2e
   21b80:	4628      	mov	r0, r5
   21b82:	4632      	mov	r2, r6
   21b84:	f005 fa41 	bl	2700a <__aeabi_memcpy>
   21b88:	a80d      	add	r0, sp, #52	@ 0x34
   21b8a:	2138      	movs	r1, #56	@ 0x38
   21b8c:	f005 f890 	bl	26cb0 <__aeabi_memclr4>
   21b90:	4822      	ldr	r0, [pc, #136]	@ (21c1c <_ZN18complex_no_dynamic3app17h60bb35fd9706b8c3E+0xa8>)
   21b92:	2109      	movs	r1, #9
   21b94:	462a      	mov	r2, r5
   21b96:	4633      	mov	r3, r6
   21b98:	df04      	svc	4
   21b9a:	2802      	cmp	r0, #2
   21b9c:	d00e      	beq.n	21bbc <_ZN18complex_no_dynamic3app17h60bb35fd9706b8c3E+0x48>
   21b9e:	481f      	ldr	r0, [pc, #124]	@ (21c1c <_ZN18complex_no_dynamic3app17h60bb35fd9706b8c3E+0xa8>)
   21ba0:	2109      	movs	r1, #9
   21ba2:	aa0d      	add	r2, sp, #52	@ 0x34
   21ba4:	2338      	movs	r3, #56	@ 0x38
   21ba6:	df03      	svc	3
   21ba8:	2802      	cmp	r0, #2
   21baa:	d007      	beq.n	21bbc <_ZN18complex_no_dynamic3app17h60bb35fd9706b8c3E+0x48>
   21bac:	481b      	ldr	r0, [pc, #108]	@ (21c1c <_ZN18complex_no_dynamic3app17h60bb35fd9706b8c3E+0xa8>)
   21bae:	2109      	movs	r1, #9
   21bb0:	2500      	movs	r5, #0
   21bb2:	460a      	mov	r2, r1
   21bb4:	462b      	mov	r3, r5
   21bb6:	df02      	svc	2
   21bb8:	287f      	cmp	r0, #127	@ 0x7f
   21bba:	d811      	bhi.n	21be0 <_ZN18complex_no_dynamic3app17h60bb35fd9706b8c3E+0x6c>
   21bbc:	2001      	movs	r0, #1
   21bbe:	7020      	strb	r0, [r4, #0]
   21bc0:	6061      	str	r1, [r4, #4]
   21bc2:	4c16      	ldr	r4, [pc, #88]	@ (21c1c <_ZN18complex_no_dynamic3app17h60bb35fd9706b8c3E+0xa8>)
   21bc4:	2509      	movs	r5, #9
   21bc6:	2600      	movs	r6, #0
   21bc8:	4620      	mov	r0, r4
   21bca:	4629      	mov	r1, r5
   21bcc:	4632      	mov	r2, r6
   21bce:	4633      	mov	r3, r6
   21bd0:	df03      	svc	3
   21bd2:	4620      	mov	r0, r4
   21bd4:	4629      	mov	r1, r5
   21bd6:	4632      	mov	r2, r6
   21bd8:	4633      	mov	r3, r6
   21bda:	df04      	svc	4
   21bdc:	b01b      	add	sp, #108	@ 0x6c
   21bde:	bdf0      	pop	{r4, r5, r6, r7, pc}
   21be0:	480e      	ldr	r0, [pc, #56]	@ (21c1c <_ZN18complex_no_dynamic3app17h60bb35fd9706b8c3E+0xa8>)
   21be2:	2609      	movs	r6, #9
   21be4:	4631      	mov	r1, r6
   21be6:	462a      	mov	r2, r5
   21be8:	462b      	mov	r3, r5
   21bea:	df03      	svc	3
   21bec:	480b      	ldr	r0, [pc, #44]	@ (21c1c <_ZN18complex_no_dynamic3app17h60bb35fd9706b8c3E+0xa8>)
   21bee:	4631      	mov	r1, r6
   21bf0:	462a      	mov	r2, r5
   21bf2:	462b      	mov	r3, r5
   21bf4:	df03      	svc	3
   21bf6:	1c60      	adds	r0, r4, #1
   21bf8:	a90d      	add	r1, sp, #52	@ 0x34
   21bfa:	2238      	movs	r2, #56	@ 0x38
   21bfc:	f005 fa05 	bl	2700a <__aeabi_memcpy>
   21c00:	7025      	strb	r5, [r4, #0]
   21c02:	4c06      	ldr	r4, [pc, #24]	@ (21c1c <_ZN18complex_no_dynamic3app17h60bb35fd9706b8c3E+0xa8>)
   21c04:	4620      	mov	r0, r4
   21c06:	4631      	mov	r1, r6
   21c08:	462a      	mov	r2, r5
   21c0a:	462b      	mov	r3, r5
   21c0c:	df03      	svc	3
   21c0e:	4620      	mov	r0, r4
   21c10:	4631      	mov	r1, r6
   21c12:	462a      	mov	r2, r5
   21c14:	462b      	mov	r3, r5
   21c16:	df04      	svc	4
   21c18:	b01b      	add	sp, #108	@ 0x6c
   21c1a:	bdf0      	pop	{r4, r5, r6, r7, pc}
   21c1c:	00000a9d 	.word	0x00000a9d

00021c20 <_ZN18complex_no_dynamic3app17h63553874f2dd810eE>:
   21c20:	b5f0      	push	{r4, r5, r6, r7, lr}
   21c22:	af03      	add	r7, sp, #12
   21c24:	b0a3      	sub	sp, #140	@ 0x8c
   21c26:	4604      	mov	r4, r0
   21c28:	466d      	mov	r5, sp
   21c2a:	2650      	movs	r6, #80	@ 0x50
   21c2c:	4628      	mov	r0, r5
   21c2e:	4632      	mov	r2, r6
   21c30:	f005 f9eb 	bl	2700a <__aeabi_memcpy>
   21c34:	a814      	add	r0, sp, #80	@ 0x50
   21c36:	213c      	movs	r1, #60	@ 0x3c
   21c38:	f005 f83a 	bl	26cb0 <__aeabi_memclr4>
   21c3c:	4822      	ldr	r0, [pc, #136]	@ (21cc8 <_ZN18complex_no_dynamic3app17h63553874f2dd810eE+0xa8>)
   21c3e:	2103      	movs	r1, #3
   21c40:	462a      	mov	r2, r5
   21c42:	4633      	mov	r3, r6
   21c44:	df04      	svc	4
   21c46:	2802      	cmp	r0, #2
   21c48:	d00e      	beq.n	21c68 <_ZN18complex_no_dynamic3app17h63553874f2dd810eE+0x48>
   21c4a:	481f      	ldr	r0, [pc, #124]	@ (21cc8 <_ZN18complex_no_dynamic3app17h63553874f2dd810eE+0xa8>)
   21c4c:	2109      	movs	r1, #9
   21c4e:	aa14      	add	r2, sp, #80	@ 0x50
   21c50:	233c      	movs	r3, #60	@ 0x3c
   21c52:	df03      	svc	3
   21c54:	2802      	cmp	r0, #2
   21c56:	d007      	beq.n	21c68 <_ZN18complex_no_dynamic3app17h63553874f2dd810eE+0x48>
   21c58:	481b      	ldr	r0, [pc, #108]	@ (21cc8 <_ZN18complex_no_dynamic3app17h63553874f2dd810eE+0xa8>)
   21c5a:	2103      	movs	r1, #3
   21c5c:	2209      	movs	r2, #9
   21c5e:	2500      	movs	r5, #0
   21c60:	462b      	mov	r3, r5
   21c62:	df02      	svc	2
   21c64:	287f      	cmp	r0, #127	@ 0x7f
   21c66:	d810      	bhi.n	21c8a <_ZN18complex_no_dynamic3app17h63553874f2dd810eE+0x6a>
   21c68:	2001      	movs	r0, #1
   21c6a:	7020      	strb	r0, [r4, #0]
   21c6c:	6061      	str	r1, [r4, #4]
   21c6e:	4c16      	ldr	r4, [pc, #88]	@ (21cc8 <_ZN18complex_no_dynamic3app17h63553874f2dd810eE+0xa8>)
   21c70:	2109      	movs	r1, #9
   21c72:	2500      	movs	r5, #0
   21c74:	4620      	mov	r0, r4
   21c76:	462a      	mov	r2, r5
   21c78:	462b      	mov	r3, r5
   21c7a:	df03      	svc	3
   21c7c:	2103      	movs	r1, #3
   21c7e:	4620      	mov	r0, r4
   21c80:	462a      	mov	r2, r5
   21c82:	462b      	mov	r3, r5
   21c84:	df04      	svc	4
   21c86:	b023      	add	sp, #140	@ 0x8c
   21c88:	bdf0      	pop	{r4, r5, r6, r7, pc}
   21c8a:	480f      	ldr	r0, [pc, #60]	@ (21cc8 <_ZN18complex_no_dynamic3app17h63553874f2dd810eE+0xa8>)
   21c8c:	2609      	movs	r6, #9
   21c8e:	4631      	mov	r1, r6
   21c90:	462a      	mov	r2, r5
   21c92:	462b      	mov	r3, r5
   21c94:	df03      	svc	3
   21c96:	480c      	ldr	r0, [pc, #48]	@ (21cc8 <_ZN18complex_no_dynamic3app17h63553874f2dd810eE+0xa8>)
   21c98:	4631      	mov	r1, r6
   21c9a:	462a      	mov	r2, r5
   21c9c:	462b      	mov	r3, r5
   21c9e:	df03      	svc	3
   21ca0:	1c60      	adds	r0, r4, #1
   21ca2:	a914      	add	r1, sp, #80	@ 0x50
   21ca4:	223c      	movs	r2, #60	@ 0x3c
   21ca6:	f005 f9b0 	bl	2700a <__aeabi_memcpy>
   21caa:	7025      	strb	r5, [r4, #0]
   21cac:	4c06      	ldr	r4, [pc, #24]	@ (21cc8 <_ZN18complex_no_dynamic3app17h63553874f2dd810eE+0xa8>)
   21cae:	4620      	mov	r0, r4
   21cb0:	4631      	mov	r1, r6
   21cb2:	462a      	mov	r2, r5
   21cb4:	462b      	mov	r3, r5
   21cb6:	df03      	svc	3
   21cb8:	2103      	movs	r1, #3
   21cba:	4620      	mov	r0, r4
   21cbc:	462a      	mov	r2, r5
   21cbe:	462b      	mov	r3, r5
   21cc0:	df04      	svc	4
   21cc2:	b023      	add	sp, #140	@ 0x8c
   21cc4:	bdf0      	pop	{r4, r5, r6, r7, pc}
   21cc6:	46c0      	nop			@ (mov r8, r8)
   21cc8:	00000d7a 	.word	0x00000d7a

00021ccc <_ZN18complex_no_dynamic3app17h671a94871d838e53E>:
   21ccc:	b5f0      	push	{r4, r5, r6, r7, lr}
   21cce:	af03      	add	r7, sp, #12
   21cd0:	b093      	sub	sp, #76	@ 0x4c
   21cd2:	9002      	str	r0, [sp, #8]
   21cd4:	ae03      	add	r6, sp, #12
   21cd6:	2425      	movs	r4, #37	@ 0x25
   21cd8:	4630      	mov	r0, r6
   21cda:	4622      	mov	r2, r4
   21cdc:	f005 f995 	bl	2700a <__aeabi_memcpy>
   21ce0:	2000      	movs	r0, #0
   21ce2:	9012      	str	r0, [sp, #72]	@ 0x48
   21ce4:	9011      	str	r0, [sp, #68]	@ 0x44
   21ce6:	9010      	str	r0, [sp, #64]	@ 0x40
   21ce8:	900f      	str	r0, [sp, #60]	@ 0x3c
   21cea:	900e      	str	r0, [sp, #56]	@ 0x38
   21cec:	900d      	str	r0, [sp, #52]	@ 0x34
   21cee:	20a7      	movs	r0, #167	@ 0xa7
   21cf0:	0105      	lsls	r5, r0, #4
   21cf2:	2109      	movs	r1, #9
   21cf4:	4628      	mov	r0, r5
   21cf6:	4632      	mov	r2, r6
   21cf8:	4623      	mov	r3, r4
   21cfa:	df04      	svc	4
   21cfc:	2802      	cmp	r0, #2
   21cfe:	d00e      	beq.n	21d1e <_ZN18complex_no_dynamic3app17h671a94871d838e53E+0x52>
   21d00:	2108      	movs	r1, #8
   21d02:	aa0d      	add	r2, sp, #52	@ 0x34
   21d04:	2318      	movs	r3, #24
   21d06:	4628      	mov	r0, r5
   21d08:	df03      	svc	3
   21d0a:	2802      	cmp	r0, #2
   21d0c:	d007      	beq.n	21d1e <_ZN18complex_no_dynamic3app17h671a94871d838e53E+0x52>
   21d0e:	2109      	movs	r1, #9
   21d10:	2208      	movs	r2, #8
   21d12:	2600      	movs	r6, #0
   21d14:	4628      	mov	r0, r5
   21d16:	4633      	mov	r3, r6
   21d18:	df02      	svc	2
   21d1a:	287f      	cmp	r0, #127	@ 0x7f
   21d1c:	d810      	bhi.n	21d40 <_ZN18complex_no_dynamic3app17h671a94871d838e53E+0x74>
   21d1e:	2001      	movs	r0, #1
   21d20:	9a02      	ldr	r2, [sp, #8]
   21d22:	7010      	strb	r0, [r2, #0]
   21d24:	6051      	str	r1, [r2, #4]
   21d26:	2108      	movs	r1, #8
   21d28:	2400      	movs	r4, #0
   21d2a:	4628      	mov	r0, r5
   21d2c:	4622      	mov	r2, r4
   21d2e:	4623      	mov	r3, r4
   21d30:	df03      	svc	3
   21d32:	2109      	movs	r1, #9
   21d34:	4628      	mov	r0, r5
   21d36:	4622      	mov	r2, r4
   21d38:	4623      	mov	r3, r4
   21d3a:	df04      	svc	4
   21d3c:	b013      	add	sp, #76	@ 0x4c
   21d3e:	bdf0      	pop	{r4, r5, r6, r7, pc}
   21d40:	2408      	movs	r4, #8
   21d42:	9401      	str	r4, [sp, #4]
   21d44:	4628      	mov	r0, r5
   21d46:	4621      	mov	r1, r4
   21d48:	4632      	mov	r2, r6
   21d4a:	4633      	mov	r3, r6
   21d4c:	df03      	svc	3
   21d4e:	4628      	mov	r0, r5
   21d50:	4621      	mov	r1, r4
   21d52:	4632      	mov	r2, r6
   21d54:	4633      	mov	r3, r6
   21d56:	df03      	svc	3
   21d58:	9c02      	ldr	r4, [sp, #8]
   21d5a:	1c60      	adds	r0, r4, #1
   21d5c:	a90d      	add	r1, sp, #52	@ 0x34
   21d5e:	2218      	movs	r2, #24
   21d60:	f005 f953 	bl	2700a <__aeabi_memcpy>
   21d64:	7026      	strb	r6, [r4, #0]
   21d66:	4628      	mov	r0, r5
   21d68:	9901      	ldr	r1, [sp, #4]
   21d6a:	4632      	mov	r2, r6
   21d6c:	4633      	mov	r3, r6
   21d6e:	df03      	svc	3
   21d70:	2109      	movs	r1, #9
   21d72:	4628      	mov	r0, r5
   21d74:	4632      	mov	r2, r6
   21d76:	4633      	mov	r3, r6
   21d78:	df04      	svc	4
   21d7a:	b013      	add	sp, #76	@ 0x4c
   21d7c:	bdf0      	pop	{r4, r5, r6, r7, pc}
   21d7e:	d4d4      	bmi.n	21d2a <_ZN18complex_no_dynamic3app17h671a94871d838e53E+0x5e>

00021d80 <_ZN18complex_no_dynamic3app17h6ef73df589dff240E>:
   21d80:	b5f0      	push	{r4, r5, r6, r7, lr}
   21d82:	af03      	add	r7, sp, #12
   21d84:	b09f      	sub	sp, #124	@ 0x7c
   21d86:	4604      	mov	r4, r0
   21d88:	ad01      	add	r5, sp, #4
   21d8a:	2622      	movs	r6, #34	@ 0x22
   21d8c:	4628      	mov	r0, r5
   21d8e:	4632      	mov	r2, r6
   21d90:	f005 f93b 	bl	2700a <__aeabi_memcpy>
   21d94:	a80a      	add	r0, sp, #40	@ 0x28
   21d96:	2151      	movs	r1, #81	@ 0x51
   21d98:	f004 ff8a 	bl	26cb0 <__aeabi_memclr4>
   21d9c:	4822      	ldr	r0, [pc, #136]	@ (21e28 <_ZN18complex_no_dynamic3app17h6ef73df589dff240E+0xa8>)
   21d9e:	2109      	movs	r1, #9
   21da0:	462a      	mov	r2, r5
   21da2:	4633      	mov	r3, r6
   21da4:	df04      	svc	4
   21da6:	2802      	cmp	r0, #2
   21da8:	d00e      	beq.n	21dc8 <_ZN18complex_no_dynamic3app17h6ef73df589dff240E+0x48>
   21daa:	481f      	ldr	r0, [pc, #124]	@ (21e28 <_ZN18complex_no_dynamic3app17h6ef73df589dff240E+0xa8>)
   21dac:	2109      	movs	r1, #9
   21dae:	aa0a      	add	r2, sp, #40	@ 0x28
   21db0:	2351      	movs	r3, #81	@ 0x51
   21db2:	df03      	svc	3
   21db4:	2802      	cmp	r0, #2
   21db6:	d007      	beq.n	21dc8 <_ZN18complex_no_dynamic3app17h6ef73df589dff240E+0x48>
   21db8:	481b      	ldr	r0, [pc, #108]	@ (21e28 <_ZN18complex_no_dynamic3app17h6ef73df589dff240E+0xa8>)
   21dba:	2109      	movs	r1, #9
   21dbc:	2500      	movs	r5, #0
   21dbe:	460a      	mov	r2, r1
   21dc0:	462b      	mov	r3, r5
   21dc2:	df02      	svc	2
   21dc4:	287f      	cmp	r0, #127	@ 0x7f
   21dc6:	d811      	bhi.n	21dec <_ZN18complex_no_dynamic3app17h6ef73df589dff240E+0x6c>
   21dc8:	2001      	movs	r0, #1
   21dca:	7020      	strb	r0, [r4, #0]
   21dcc:	6061      	str	r1, [r4, #4]
   21dce:	4c16      	ldr	r4, [pc, #88]	@ (21e28 <_ZN18complex_no_dynamic3app17h6ef73df589dff240E+0xa8>)
   21dd0:	2509      	movs	r5, #9
   21dd2:	2600      	movs	r6, #0
   21dd4:	4620      	mov	r0, r4
   21dd6:	4629      	mov	r1, r5
   21dd8:	4632      	mov	r2, r6
   21dda:	4633      	mov	r3, r6
   21ddc:	df03      	svc	3
   21dde:	4620      	mov	r0, r4
   21de0:	4629      	mov	r1, r5
   21de2:	4632      	mov	r2, r6
   21de4:	4633      	mov	r3, r6
   21de6:	df04      	svc	4
   21de8:	b01f      	add	sp, #124	@ 0x7c
   21dea:	bdf0      	pop	{r4, r5, r6, r7, pc}
   21dec:	480e      	ldr	r0, [pc, #56]	@ (21e28 <_ZN18complex_no_dynamic3app17h6ef73df589dff240E+0xa8>)
   21dee:	2609      	movs	r6, #9
   21df0:	4631      	mov	r1, r6
   21df2:	462a      	mov	r2, r5
   21df4:	462b      	mov	r3, r5
   21df6:	df03      	svc	3
   21df8:	480b      	ldr	r0, [pc, #44]	@ (21e28 <_ZN18complex_no_dynamic3app17h6ef73df589dff240E+0xa8>)
   21dfa:	4631      	mov	r1, r6
   21dfc:	462a      	mov	r2, r5
   21dfe:	462b      	mov	r3, r5
   21e00:	df03      	svc	3
   21e02:	1c60      	adds	r0, r4, #1
   21e04:	a90a      	add	r1, sp, #40	@ 0x28
   21e06:	2251      	movs	r2, #81	@ 0x51
   21e08:	f005 f8ff 	bl	2700a <__aeabi_memcpy>
   21e0c:	7025      	strb	r5, [r4, #0]
   21e0e:	4c06      	ldr	r4, [pc, #24]	@ (21e28 <_ZN18complex_no_dynamic3app17h6ef73df589dff240E+0xa8>)
   21e10:	4620      	mov	r0, r4
   21e12:	4631      	mov	r1, r6
   21e14:	462a      	mov	r2, r5
   21e16:	462b      	mov	r3, r5
   21e18:	df03      	svc	3
   21e1a:	4620      	mov	r0, r4
   21e1c:	4631      	mov	r1, r6
   21e1e:	462a      	mov	r2, r5
   21e20:	462b      	mov	r3, r5
   21e22:	df04      	svc	4
   21e24:	b01f      	add	sp, #124	@ 0x7c
   21e26:	bdf0      	pop	{r4, r5, r6, r7, pc}
   21e28:	0000055e 	.word	0x0000055e

00021e2c <_ZN18complex_no_dynamic3app17h7804bfcfafed93b8E>:
   21e2c:	b5f0      	push	{r4, r5, r6, r7, lr}
   21e2e:	af03      	add	r7, sp, #12
   21e30:	b0af      	sub	sp, #188	@ 0xbc
   21e32:	4604      	mov	r4, r0
   21e34:	ad01      	add	r5, sp, #4
   21e36:	265e      	movs	r6, #94	@ 0x5e
   21e38:	4628      	mov	r0, r5
   21e3a:	4632      	mov	r2, r6
   21e3c:	f005 f8e5 	bl	2700a <__aeabi_memcpy>
   21e40:	a819      	add	r0, sp, #100	@ 0x64
   21e42:	2155      	movs	r1, #85	@ 0x55
   21e44:	f004 ff34 	bl	26cb0 <__aeabi_memclr4>
   21e48:	4822      	ldr	r0, [pc, #136]	@ (21ed4 <_ZN18complex_no_dynamic3app17h7804bfcfafed93b8E+0xa8>)
   21e4a:	2107      	movs	r1, #7
   21e4c:	462a      	mov	r2, r5
   21e4e:	4633      	mov	r3, r6
   21e50:	df04      	svc	4
   21e52:	2802      	cmp	r0, #2
   21e54:	d00e      	beq.n	21e74 <_ZN18complex_no_dynamic3app17h7804bfcfafed93b8E+0x48>
   21e56:	481f      	ldr	r0, [pc, #124]	@ (21ed4 <_ZN18complex_no_dynamic3app17h7804bfcfafed93b8E+0xa8>)
   21e58:	2103      	movs	r1, #3
   21e5a:	aa19      	add	r2, sp, #100	@ 0x64
   21e5c:	2355      	movs	r3, #85	@ 0x55
   21e5e:	df03      	svc	3
   21e60:	2802      	cmp	r0, #2
   21e62:	d007      	beq.n	21e74 <_ZN18complex_no_dynamic3app17h7804bfcfafed93b8E+0x48>
   21e64:	481b      	ldr	r0, [pc, #108]	@ (21ed4 <_ZN18complex_no_dynamic3app17h7804bfcfafed93b8E+0xa8>)
   21e66:	2107      	movs	r1, #7
   21e68:	2203      	movs	r2, #3
   21e6a:	2500      	movs	r5, #0
   21e6c:	462b      	mov	r3, r5
   21e6e:	df02      	svc	2
   21e70:	287f      	cmp	r0, #127	@ 0x7f
   21e72:	d810      	bhi.n	21e96 <_ZN18complex_no_dynamic3app17h7804bfcfafed93b8E+0x6a>
   21e74:	2001      	movs	r0, #1
   21e76:	7020      	strb	r0, [r4, #0]
   21e78:	6061      	str	r1, [r4, #4]
   21e7a:	4c16      	ldr	r4, [pc, #88]	@ (21ed4 <_ZN18complex_no_dynamic3app17h7804bfcfafed93b8E+0xa8>)
   21e7c:	2103      	movs	r1, #3
   21e7e:	2500      	movs	r5, #0
   21e80:	4620      	mov	r0, r4
   21e82:	462a      	mov	r2, r5
   21e84:	462b      	mov	r3, r5
   21e86:	df03      	svc	3
   21e88:	2107      	movs	r1, #7
   21e8a:	4620      	mov	r0, r4
   21e8c:	462a      	mov	r2, r5
   21e8e:	462b      	mov	r3, r5
   21e90:	df04      	svc	4
   21e92:	b02f      	add	sp, #188	@ 0xbc
   21e94:	bdf0      	pop	{r4, r5, r6, r7, pc}
   21e96:	480f      	ldr	r0, [pc, #60]	@ (21ed4 <_ZN18complex_no_dynamic3app17h7804bfcfafed93b8E+0xa8>)
   21e98:	2603      	movs	r6, #3
   21e9a:	4631      	mov	r1, r6
   21e9c:	462a      	mov	r2, r5
   21e9e:	462b      	mov	r3, r5
   21ea0:	df03      	svc	3
   21ea2:	480c      	ldr	r0, [pc, #48]	@ (21ed4 <_ZN18complex_no_dynamic3app17h7804bfcfafed93b8E+0xa8>)
   21ea4:	4631      	mov	r1, r6
   21ea6:	462a      	mov	r2, r5
   21ea8:	462b      	mov	r3, r5
   21eaa:	df03      	svc	3
   21eac:	1c60      	adds	r0, r4, #1
   21eae:	a919      	add	r1, sp, #100	@ 0x64
   21eb0:	2255      	movs	r2, #85	@ 0x55
   21eb2:	f005 f8aa 	bl	2700a <__aeabi_memcpy>
   21eb6:	7025      	strb	r5, [r4, #0]
   21eb8:	4c06      	ldr	r4, [pc, #24]	@ (21ed4 <_ZN18complex_no_dynamic3app17h7804bfcfafed93b8E+0xa8>)
   21eba:	4620      	mov	r0, r4
   21ebc:	4631      	mov	r1, r6
   21ebe:	462a      	mov	r2, r5
   21ec0:	462b      	mov	r3, r5
   21ec2:	df03      	svc	3
   21ec4:	2107      	movs	r1, #7
   21ec6:	4620      	mov	r0, r4
   21ec8:	462a      	mov	r2, r5
   21eca:	462b      	mov	r3, r5
   21ecc:	df04      	svc	4
   21ece:	b02f      	add	sp, #188	@ 0xbc
   21ed0:	bdf0      	pop	{r4, r5, r6, r7, pc}
   21ed2:	46c0      	nop			@ (mov r8, r8)
   21ed4:	0000178a 	.word	0x0000178a

00021ed8 <_ZN18complex_no_dynamic3app17h7cda3ddc87da2a7eE>:
   21ed8:	b5f0      	push	{r4, r5, r6, r7, lr}
   21eda:	af03      	add	r7, sp, #12
   21edc:	b0a3      	sub	sp, #140	@ 0x8c
   21ede:	4604      	mov	r4, r0
   21ee0:	466d      	mov	r5, sp
   21ee2:	2655      	movs	r6, #85	@ 0x55
   21ee4:	4628      	mov	r0, r5
   21ee6:	4632      	mov	r2, r6
   21ee8:	f005 f88f 	bl	2700a <__aeabi_memcpy>
   21eec:	a816      	add	r0, sp, #88	@ 0x58
   21eee:	2132      	movs	r1, #50	@ 0x32
   21ef0:	f004 fede 	bl	26cb0 <__aeabi_memclr4>
   21ef4:	4822      	ldr	r0, [pc, #136]	@ (21f80 <_ZN18complex_no_dynamic3app17h7cda3ddc87da2a7eE+0xa8>)
   21ef6:	2108      	movs	r1, #8
   21ef8:	462a      	mov	r2, r5
   21efa:	4633      	mov	r3, r6
   21efc:	df04      	svc	4
   21efe:	2802      	cmp	r0, #2
   21f00:	d00e      	beq.n	21f20 <_ZN18complex_no_dynamic3app17h7cda3ddc87da2a7eE+0x48>
   21f02:	481f      	ldr	r0, [pc, #124]	@ (21f80 <_ZN18complex_no_dynamic3app17h7cda3ddc87da2a7eE+0xa8>)
   21f04:	2108      	movs	r1, #8
   21f06:	aa16      	add	r2, sp, #88	@ 0x58
   21f08:	2332      	movs	r3, #50	@ 0x32
   21f0a:	df03      	svc	3
   21f0c:	2802      	cmp	r0, #2
   21f0e:	d007      	beq.n	21f20 <_ZN18complex_no_dynamic3app17h7cda3ddc87da2a7eE+0x48>
   21f10:	481b      	ldr	r0, [pc, #108]	@ (21f80 <_ZN18complex_no_dynamic3app17h7cda3ddc87da2a7eE+0xa8>)
   21f12:	2108      	movs	r1, #8
   21f14:	2500      	movs	r5, #0
   21f16:	460a      	mov	r2, r1
   21f18:	462b      	mov	r3, r5
   21f1a:	df02      	svc	2
   21f1c:	287f      	cmp	r0, #127	@ 0x7f
   21f1e:	d811      	bhi.n	21f44 <_ZN18complex_no_dynamic3app17h7cda3ddc87da2a7eE+0x6c>
   21f20:	2001      	movs	r0, #1
   21f22:	7020      	strb	r0, [r4, #0]
   21f24:	6061      	str	r1, [r4, #4]
   21f26:	4c16      	ldr	r4, [pc, #88]	@ (21f80 <_ZN18complex_no_dynamic3app17h7cda3ddc87da2a7eE+0xa8>)
   21f28:	2508      	movs	r5, #8
   21f2a:	2600      	movs	r6, #0
   21f2c:	4620      	mov	r0, r4
   21f2e:	4629      	mov	r1, r5
   21f30:	4632      	mov	r2, r6
   21f32:	4633      	mov	r3, r6
   21f34:	df03      	svc	3
   21f36:	4620      	mov	r0, r4
   21f38:	4629      	mov	r1, r5
   21f3a:	4632      	mov	r2, r6
   21f3c:	4633      	mov	r3, r6
   21f3e:	df04      	svc	4
   21f40:	b023      	add	sp, #140	@ 0x8c
   21f42:	bdf0      	pop	{r4, r5, r6, r7, pc}
   21f44:	480e      	ldr	r0, [pc, #56]	@ (21f80 <_ZN18complex_no_dynamic3app17h7cda3ddc87da2a7eE+0xa8>)
   21f46:	2608      	movs	r6, #8
   21f48:	4631      	mov	r1, r6
   21f4a:	462a      	mov	r2, r5
   21f4c:	462b      	mov	r3, r5
   21f4e:	df03      	svc	3
   21f50:	480b      	ldr	r0, [pc, #44]	@ (21f80 <_ZN18complex_no_dynamic3app17h7cda3ddc87da2a7eE+0xa8>)
   21f52:	4631      	mov	r1, r6
   21f54:	462a      	mov	r2, r5
   21f56:	462b      	mov	r3, r5
   21f58:	df03      	svc	3
   21f5a:	1c60      	adds	r0, r4, #1
   21f5c:	a916      	add	r1, sp, #88	@ 0x58
   21f5e:	2232      	movs	r2, #50	@ 0x32
   21f60:	f005 f853 	bl	2700a <__aeabi_memcpy>
   21f64:	7025      	strb	r5, [r4, #0]
   21f66:	4c06      	ldr	r4, [pc, #24]	@ (21f80 <_ZN18complex_no_dynamic3app17h7cda3ddc87da2a7eE+0xa8>)
   21f68:	4620      	mov	r0, r4
   21f6a:	4631      	mov	r1, r6
   21f6c:	462a      	mov	r2, r5
   21f6e:	462b      	mov	r3, r5
   21f70:	df03      	svc	3
   21f72:	4620      	mov	r0, r4
   21f74:	4631      	mov	r1, r6
   21f76:	462a      	mov	r2, r5
   21f78:	462b      	mov	r3, r5
   21f7a:	df04      	svc	4
   21f7c:	b023      	add	sp, #140	@ 0x8c
   21f7e:	bdf0      	pop	{r4, r5, r6, r7, pc}
   21f80:	00002095 	.word	0x00002095

00021f84 <_ZN18complex_no_dynamic3app17h7d37c6f97bf6bcc9E>:
   21f84:	b5f0      	push	{r4, r5, r6, r7, lr}
   21f86:	af03      	add	r7, sp, #12
   21f88:	b0a7      	sub	sp, #156	@ 0x9c
   21f8a:	4604      	mov	r4, r0
   21f8c:	466d      	mov	r5, sp
   21f8e:	263a      	movs	r6, #58	@ 0x3a
   21f90:	4628      	mov	r0, r5
   21f92:	4632      	mov	r2, r6
   21f94:	f005 f839 	bl	2700a <__aeabi_memcpy>
   21f98:	a80f      	add	r0, sp, #60	@ 0x3c
   21f9a:	215d      	movs	r1, #93	@ 0x5d
   21f9c:	f004 fe88 	bl	26cb0 <__aeabi_memclr4>
   21fa0:	4822      	ldr	r0, [pc, #136]	@ (2202c <_ZN18complex_no_dynamic3app17h7d37c6f97bf6bcc9E+0xa8>)
   21fa2:	2100      	movs	r1, #0
   21fa4:	462a      	mov	r2, r5
   21fa6:	4633      	mov	r3, r6
   21fa8:	df04      	svc	4
   21faa:	2802      	cmp	r0, #2
   21fac:	d00e      	beq.n	21fcc <_ZN18complex_no_dynamic3app17h7d37c6f97bf6bcc9E+0x48>
   21fae:	481f      	ldr	r0, [pc, #124]	@ (2202c <_ZN18complex_no_dynamic3app17h7d37c6f97bf6bcc9E+0xa8>)
   21fb0:	2105      	movs	r1, #5
   21fb2:	aa0f      	add	r2, sp, #60	@ 0x3c
   21fb4:	235d      	movs	r3, #93	@ 0x5d
   21fb6:	df03      	svc	3
   21fb8:	2802      	cmp	r0, #2
   21fba:	d007      	beq.n	21fcc <_ZN18complex_no_dynamic3app17h7d37c6f97bf6bcc9E+0x48>
   21fbc:	481b      	ldr	r0, [pc, #108]	@ (2202c <_ZN18complex_no_dynamic3app17h7d37c6f97bf6bcc9E+0xa8>)
   21fbe:	2205      	movs	r2, #5
   21fc0:	2500      	movs	r5, #0
   21fc2:	4629      	mov	r1, r5
   21fc4:	462b      	mov	r3, r5
   21fc6:	df02      	svc	2
   21fc8:	287f      	cmp	r0, #127	@ 0x7f
   21fca:	d810      	bhi.n	21fee <_ZN18complex_no_dynamic3app17h7d37c6f97bf6bcc9E+0x6a>
   21fcc:	2001      	movs	r0, #1
   21fce:	7020      	strb	r0, [r4, #0]
   21fd0:	6061      	str	r1, [r4, #4]
   21fd2:	4c16      	ldr	r4, [pc, #88]	@ (2202c <_ZN18complex_no_dynamic3app17h7d37c6f97bf6bcc9E+0xa8>)
   21fd4:	2105      	movs	r1, #5
   21fd6:	2500      	movs	r5, #0
   21fd8:	4620      	mov	r0, r4
   21fda:	462a      	mov	r2, r5
   21fdc:	462b      	mov	r3, r5
   21fde:	df03      	svc	3
   21fe0:	4620      	mov	r0, r4
   21fe2:	4629      	mov	r1, r5
   21fe4:	462a      	mov	r2, r5
   21fe6:	462b      	mov	r3, r5
   21fe8:	df04      	svc	4
   21fea:	b027      	add	sp, #156	@ 0x9c
   21fec:	bdf0      	pop	{r4, r5, r6, r7, pc}
   21fee:	480f      	ldr	r0, [pc, #60]	@ (2202c <_ZN18complex_no_dynamic3app17h7d37c6f97bf6bcc9E+0xa8>)
   21ff0:	2605      	movs	r6, #5
   21ff2:	4631      	mov	r1, r6
   21ff4:	462a      	mov	r2, r5
   21ff6:	462b      	mov	r3, r5
   21ff8:	df03      	svc	3
   21ffa:	480c      	ldr	r0, [pc, #48]	@ (2202c <_ZN18complex_no_dynamic3app17h7d37c6f97bf6bcc9E+0xa8>)
   21ffc:	4631      	mov	r1, r6
   21ffe:	462a      	mov	r2, r5
   22000:	462b      	mov	r3, r5
   22002:	df03      	svc	3
   22004:	1c60      	adds	r0, r4, #1
   22006:	a90f      	add	r1, sp, #60	@ 0x3c
   22008:	225d      	movs	r2, #93	@ 0x5d
   2200a:	f004 fffe 	bl	2700a <__aeabi_memcpy>
   2200e:	7025      	strb	r5, [r4, #0]
   22010:	4c06      	ldr	r4, [pc, #24]	@ (2202c <_ZN18complex_no_dynamic3app17h7d37c6f97bf6bcc9E+0xa8>)
   22012:	4620      	mov	r0, r4
   22014:	4631      	mov	r1, r6
   22016:	462a      	mov	r2, r5
   22018:	462b      	mov	r3, r5
   2201a:	df03      	svc	3
   2201c:	4620      	mov	r0, r4
   2201e:	4629      	mov	r1, r5
   22020:	462a      	mov	r2, r5
   22022:	462b      	mov	r3, r5
   22024:	df04      	svc	4
   22026:	b027      	add	sp, #156	@ 0x9c
   22028:	bdf0      	pop	{r4, r5, r6, r7, pc}
   2202a:	46c0      	nop			@ (mov r8, r8)
   2202c:	000014a4 	.word	0x000014a4

00022030 <_ZN18complex_no_dynamic3app17h8271d6b405b254eeE>:
   22030:	b5f0      	push	{r4, r5, r6, r7, lr}
   22032:	af03      	add	r7, sp, #12
   22034:	b095      	sub	sp, #84	@ 0x54
   22036:	4604      	mov	r4, r0
   22038:	466d      	mov	r5, sp
   2203a:	262c      	movs	r6, #44	@ 0x2c
   2203c:	4628      	mov	r0, r5
   2203e:	4632      	mov	r2, r6
   22040:	f004 ffe3 	bl	2700a <__aeabi_memcpy>
   22044:	a80b      	add	r0, sp, #44	@ 0x2c
   22046:	2127      	movs	r1, #39	@ 0x27
   22048:	f004 fe32 	bl	26cb0 <__aeabi_memclr4>
   2204c:	4822      	ldr	r0, [pc, #136]	@ (220d8 <_ZN18complex_no_dynamic3app17h8271d6b405b254eeE+0xa8>)
   2204e:	2104      	movs	r1, #4
   22050:	462a      	mov	r2, r5
   22052:	4633      	mov	r3, r6
   22054:	df04      	svc	4
   22056:	2802      	cmp	r0, #2
   22058:	d00e      	beq.n	22078 <_ZN18complex_no_dynamic3app17h8271d6b405b254eeE+0x48>
   2205a:	481f      	ldr	r0, [pc, #124]	@ (220d8 <_ZN18complex_no_dynamic3app17h8271d6b405b254eeE+0xa8>)
   2205c:	2103      	movs	r1, #3
   2205e:	aa0b      	add	r2, sp, #44	@ 0x2c
   22060:	2327      	movs	r3, #39	@ 0x27
   22062:	df03      	svc	3
   22064:	2802      	cmp	r0, #2
   22066:	d007      	beq.n	22078 <_ZN18complex_no_dynamic3app17h8271d6b405b254eeE+0x48>
   22068:	481b      	ldr	r0, [pc, #108]	@ (220d8 <_ZN18complex_no_dynamic3app17h8271d6b405b254eeE+0xa8>)
   2206a:	2104      	movs	r1, #4
   2206c:	2203      	movs	r2, #3
   2206e:	2500      	movs	r5, #0
   22070:	462b      	mov	r3, r5
   22072:	df02      	svc	2
   22074:	287f      	cmp	r0, #127	@ 0x7f
   22076:	d810      	bhi.n	2209a <_ZN18complex_no_dynamic3app17h8271d6b405b254eeE+0x6a>
   22078:	2001      	movs	r0, #1
   2207a:	7020      	strb	r0, [r4, #0]
   2207c:	6061      	str	r1, [r4, #4]
   2207e:	4c16      	ldr	r4, [pc, #88]	@ (220d8 <_ZN18complex_no_dynamic3app17h8271d6b405b254eeE+0xa8>)
   22080:	2103      	movs	r1, #3
   22082:	2500      	movs	r5, #0
   22084:	4620      	mov	r0, r4
   22086:	462a      	mov	r2, r5
   22088:	462b      	mov	r3, r5
   2208a:	df03      	svc	3
   2208c:	2104      	movs	r1, #4
   2208e:	4620      	mov	r0, r4
   22090:	462a      	mov	r2, r5
   22092:	462b      	mov	r3, r5
   22094:	df04      	svc	4
   22096:	b015      	add	sp, #84	@ 0x54
   22098:	bdf0      	pop	{r4, r5, r6, r7, pc}
   2209a:	480f      	ldr	r0, [pc, #60]	@ (220d8 <_ZN18complex_no_dynamic3app17h8271d6b405b254eeE+0xa8>)
   2209c:	2603      	movs	r6, #3
   2209e:	4631      	mov	r1, r6
   220a0:	462a      	mov	r2, r5
   220a2:	462b      	mov	r3, r5
   220a4:	df03      	svc	3
   220a6:	480c      	ldr	r0, [pc, #48]	@ (220d8 <_ZN18complex_no_dynamic3app17h8271d6b405b254eeE+0xa8>)
   220a8:	4631      	mov	r1, r6
   220aa:	462a      	mov	r2, r5
   220ac:	462b      	mov	r3, r5
   220ae:	df03      	svc	3
   220b0:	1c60      	adds	r0, r4, #1
   220b2:	a90b      	add	r1, sp, #44	@ 0x2c
   220b4:	2227      	movs	r2, #39	@ 0x27
   220b6:	f004 ffa8 	bl	2700a <__aeabi_memcpy>
   220ba:	7025      	strb	r5, [r4, #0]
   220bc:	4c06      	ldr	r4, [pc, #24]	@ (220d8 <_ZN18complex_no_dynamic3app17h8271d6b405b254eeE+0xa8>)
   220be:	4620      	mov	r0, r4
   220c0:	4631      	mov	r1, r6
   220c2:	462a      	mov	r2, r5
   220c4:	462b      	mov	r3, r5
   220c6:	df03      	svc	3
   220c8:	2104      	movs	r1, #4
   220ca:	4620      	mov	r0, r4
   220cc:	462a      	mov	r2, r5
   220ce:	462b      	mov	r3, r5
   220d0:	df04      	svc	4
   220d2:	b015      	add	sp, #84	@ 0x54
   220d4:	bdf0      	pop	{r4, r5, r6, r7, pc}
   220d6:	46c0      	nop			@ (mov r8, r8)
   220d8:	000011b5 	.word	0x000011b5

000220dc <_ZN18complex_no_dynamic3app17h8305f47db233dca6E>:
   220dc:	b5f0      	push	{r4, r5, r6, r7, lr}
   220de:	af03      	add	r7, sp, #12
   220e0:	b095      	sub	sp, #84	@ 0x54
   220e2:	4604      	mov	r4, r0
   220e4:	ad01      	add	r5, sp, #4
   220e6:	2623      	movs	r6, #35	@ 0x23
   220e8:	4628      	mov	r0, r5
   220ea:	4632      	mov	r2, r6
   220ec:	f004 ff8d 	bl	2700a <__aeabi_memcpy>
   220f0:	a80a      	add	r0, sp, #40	@ 0x28
   220f2:	212b      	movs	r1, #43	@ 0x2b
   220f4:	f004 fddc 	bl	26cb0 <__aeabi_memclr4>
   220f8:	4821      	ldr	r0, [pc, #132]	@ (22180 <_ZN18complex_no_dynamic3app17h8305f47db233dca6E+0xa4>)
   220fa:	2102      	movs	r1, #2
   220fc:	462a      	mov	r2, r5
   220fe:	4633      	mov	r3, r6
   22100:	df04      	svc	4
   22102:	2802      	cmp	r0, #2
   22104:	d00e      	beq.n	22124 <_ZN18complex_no_dynamic3app17h8305f47db233dca6E+0x48>
   22106:	481e      	ldr	r0, [pc, #120]	@ (22180 <_ZN18complex_no_dynamic3app17h8305f47db233dca6E+0xa4>)
   22108:	2100      	movs	r1, #0
   2210a:	aa0a      	add	r2, sp, #40	@ 0x28
   2210c:	232b      	movs	r3, #43	@ 0x2b
   2210e:	df03      	svc	3
   22110:	2802      	cmp	r0, #2
   22112:	d007      	beq.n	22124 <_ZN18complex_no_dynamic3app17h8305f47db233dca6E+0x48>
   22114:	481a      	ldr	r0, [pc, #104]	@ (22180 <_ZN18complex_no_dynamic3app17h8305f47db233dca6E+0xa4>)
   22116:	2102      	movs	r1, #2
   22118:	2500      	movs	r5, #0
   2211a:	462a      	mov	r2, r5
   2211c:	462b      	mov	r3, r5
   2211e:	df02      	svc	2
   22120:	287f      	cmp	r0, #127	@ 0x7f
   22122:	d810      	bhi.n	22146 <_ZN18complex_no_dynamic3app17h8305f47db233dca6E+0x6a>
   22124:	2001      	movs	r0, #1
   22126:	7020      	strb	r0, [r4, #0]
   22128:	6061      	str	r1, [r4, #4]
   2212a:	4c15      	ldr	r4, [pc, #84]	@ (22180 <_ZN18complex_no_dynamic3app17h8305f47db233dca6E+0xa4>)
   2212c:	2500      	movs	r5, #0
   2212e:	4620      	mov	r0, r4
   22130:	4629      	mov	r1, r5
   22132:	462a      	mov	r2, r5
   22134:	462b      	mov	r3, r5
   22136:	df03      	svc	3
   22138:	2102      	movs	r1, #2
   2213a:	4620      	mov	r0, r4
   2213c:	462a      	mov	r2, r5
   2213e:	462b      	mov	r3, r5
   22140:	df04      	svc	4
   22142:	b015      	add	sp, #84	@ 0x54
   22144:	bdf0      	pop	{r4, r5, r6, r7, pc}
   22146:	4e0e      	ldr	r6, [pc, #56]	@ (22180 <_ZN18complex_no_dynamic3app17h8305f47db233dca6E+0xa4>)
   22148:	4630      	mov	r0, r6
   2214a:	4629      	mov	r1, r5
   2214c:	462a      	mov	r2, r5
   2214e:	462b      	mov	r3, r5
   22150:	df03      	svc	3
   22152:	4630      	mov	r0, r6
   22154:	4629      	mov	r1, r5
   22156:	462a      	mov	r2, r5
   22158:	462b      	mov	r3, r5
   2215a:	df03      	svc	3
   2215c:	1c60      	adds	r0, r4, #1
   2215e:	a90a      	add	r1, sp, #40	@ 0x28
   22160:	222b      	movs	r2, #43	@ 0x2b
   22162:	f004 ff52 	bl	2700a <__aeabi_memcpy>
   22166:	7025      	strb	r5, [r4, #0]
   22168:	4630      	mov	r0, r6
   2216a:	4629      	mov	r1, r5
   2216c:	462a      	mov	r2, r5
   2216e:	462b      	mov	r3, r5
   22170:	df03      	svc	3
   22172:	2102      	movs	r1, #2
   22174:	4630      	mov	r0, r6
   22176:	462a      	mov	r2, r5
   22178:	462b      	mov	r3, r5
   2217a:	df04      	svc	4
   2217c:	b015      	add	sp, #84	@ 0x54
   2217e:	bdf0      	pop	{r4, r5, r6, r7, pc}
   22180:	00000d5d 	.word	0x00000d5d

00022184 <_ZN18complex_no_dynamic3app17h84b48780df2c65e1E>:
   22184:	b5f0      	push	{r4, r5, r6, r7, lr}
   22186:	af03      	add	r7, sp, #12
   22188:	b0af      	sub	sp, #188	@ 0xbc
   2218a:	9001      	str	r0, [sp, #4]
   2218c:	ae02      	add	r6, sp, #8
   2218e:	244f      	movs	r4, #79	@ 0x4f
   22190:	4630      	mov	r0, r6
   22192:	4622      	mov	r2, r4
   22194:	f004 ff39 	bl	2700a <__aeabi_memcpy>
   22198:	a816      	add	r0, sp, #88	@ 0x58
   2219a:	2161      	movs	r1, #97	@ 0x61
   2219c:	f004 fd88 	bl	26cb0 <__aeabi_memclr4>
   221a0:	20db      	movs	r0, #219	@ 0xdb
   221a2:	0045      	lsls	r5, r0, #1
   221a4:	2102      	movs	r1, #2
   221a6:	4628      	mov	r0, r5
   221a8:	4632      	mov	r2, r6
   221aa:	4623      	mov	r3, r4
   221ac:	df04      	svc	4
   221ae:	2802      	cmp	r0, #2
   221b0:	d00e      	beq.n	221d0 <_ZN18complex_no_dynamic3app17h84b48780df2c65e1E+0x4c>
   221b2:	2108      	movs	r1, #8
   221b4:	aa16      	add	r2, sp, #88	@ 0x58
   221b6:	2361      	movs	r3, #97	@ 0x61
   221b8:	4628      	mov	r0, r5
   221ba:	df03      	svc	3
   221bc:	2802      	cmp	r0, #2
   221be:	d007      	beq.n	221d0 <_ZN18complex_no_dynamic3app17h84b48780df2c65e1E+0x4c>
   221c0:	2102      	movs	r1, #2
   221c2:	2208      	movs	r2, #8
   221c4:	2600      	movs	r6, #0
   221c6:	4628      	mov	r0, r5
   221c8:	4633      	mov	r3, r6
   221ca:	df02      	svc	2
   221cc:	287f      	cmp	r0, #127	@ 0x7f
   221ce:	d810      	bhi.n	221f2 <_ZN18complex_no_dynamic3app17h84b48780df2c65e1E+0x6e>
   221d0:	2001      	movs	r0, #1
   221d2:	9a01      	ldr	r2, [sp, #4]
   221d4:	7010      	strb	r0, [r2, #0]
   221d6:	6051      	str	r1, [r2, #4]
   221d8:	2108      	movs	r1, #8
   221da:	2400      	movs	r4, #0
   221dc:	4628      	mov	r0, r5
   221de:	4622      	mov	r2, r4
   221e0:	4623      	mov	r3, r4
   221e2:	df03      	svc	3
   221e4:	2102      	movs	r1, #2
   221e6:	4628      	mov	r0, r5
   221e8:	4622      	mov	r2, r4
   221ea:	4623      	mov	r3, r4
   221ec:	df04      	svc	4
   221ee:	b02f      	add	sp, #188	@ 0xbc
   221f0:	bdf0      	pop	{r4, r5, r6, r7, pc}
   221f2:	2408      	movs	r4, #8
   221f4:	9400      	str	r4, [sp, #0]
   221f6:	4628      	mov	r0, r5
   221f8:	4621      	mov	r1, r4
   221fa:	4632      	mov	r2, r6
   221fc:	4633      	mov	r3, r6
   221fe:	df03      	svc	3
   22200:	4628      	mov	r0, r5
   22202:	4621      	mov	r1, r4
   22204:	4632      	mov	r2, r6
   22206:	4633      	mov	r3, r6
   22208:	df03      	svc	3
   2220a:	9c01      	ldr	r4, [sp, #4]
   2220c:	1c60      	adds	r0, r4, #1
   2220e:	a916      	add	r1, sp, #88	@ 0x58
   22210:	2261      	movs	r2, #97	@ 0x61
   22212:	f004 fefa 	bl	2700a <__aeabi_memcpy>
   22216:	7026      	strb	r6, [r4, #0]
   22218:	4628      	mov	r0, r5
   2221a:	9900      	ldr	r1, [sp, #0]
   2221c:	4632      	mov	r2, r6
   2221e:	4633      	mov	r3, r6
   22220:	df03      	svc	3
   22222:	2102      	movs	r1, #2
   22224:	4628      	mov	r0, r5
   22226:	4632      	mov	r2, r6
   22228:	4633      	mov	r3, r6
   2222a:	df04      	svc	4
   2222c:	b02f      	add	sp, #188	@ 0xbc
   2222e:	bdf0      	pop	{r4, r5, r6, r7, pc}

00022230 <_ZN18complex_no_dynamic3app17h85bc942de68c5f51E>:
   22230:	b5f0      	push	{r4, r5, r6, r7, lr}
   22232:	af03      	add	r7, sp, #12
   22234:	b09f      	sub	sp, #124	@ 0x7c
   22236:	4604      	mov	r4, r0
   22238:	466d      	mov	r5, sp
   2223a:	261c      	movs	r6, #28
   2223c:	4628      	mov	r0, r5
   2223e:	4632      	mov	r2, r6
   22240:	f004 fee3 	bl	2700a <__aeabi_memcpy>
   22244:	a807      	add	r0, sp, #28
   22246:	215d      	movs	r1, #93	@ 0x5d
   22248:	f004 fd32 	bl	26cb0 <__aeabi_memclr4>
   2224c:	4822      	ldr	r0, [pc, #136]	@ (222d8 <_ZN18complex_no_dynamic3app17h85bc942de68c5f51E+0xa8>)
   2224e:	2108      	movs	r1, #8
   22250:	462a      	mov	r2, r5
   22252:	4633      	mov	r3, r6
   22254:	df04      	svc	4
   22256:	2802      	cmp	r0, #2
   22258:	d00e      	beq.n	22278 <_ZN18complex_no_dynamic3app17h85bc942de68c5f51E+0x48>
   2225a:	481f      	ldr	r0, [pc, #124]	@ (222d8 <_ZN18complex_no_dynamic3app17h85bc942de68c5f51E+0xa8>)
   2225c:	2105      	movs	r1, #5
   2225e:	aa07      	add	r2, sp, #28
   22260:	235d      	movs	r3, #93	@ 0x5d
   22262:	df03      	svc	3
   22264:	2802      	cmp	r0, #2
   22266:	d007      	beq.n	22278 <_ZN18complex_no_dynamic3app17h85bc942de68c5f51E+0x48>
   22268:	481b      	ldr	r0, [pc, #108]	@ (222d8 <_ZN18complex_no_dynamic3app17h85bc942de68c5f51E+0xa8>)
   2226a:	2108      	movs	r1, #8
   2226c:	2205      	movs	r2, #5
   2226e:	2500      	movs	r5, #0
   22270:	462b      	mov	r3, r5
   22272:	df02      	svc	2
   22274:	287f      	cmp	r0, #127	@ 0x7f
   22276:	d810      	bhi.n	2229a <_ZN18complex_no_dynamic3app17h85bc942de68c5f51E+0x6a>
   22278:	2001      	movs	r0, #1
   2227a:	7020      	strb	r0, [r4, #0]
   2227c:	6061      	str	r1, [r4, #4]
   2227e:	4c16      	ldr	r4, [pc, #88]	@ (222d8 <_ZN18complex_no_dynamic3app17h85bc942de68c5f51E+0xa8>)
   22280:	2105      	movs	r1, #5
   22282:	2500      	movs	r5, #0
   22284:	4620      	mov	r0, r4
   22286:	462a      	mov	r2, r5
   22288:	462b      	mov	r3, r5
   2228a:	df03      	svc	3
   2228c:	2108      	movs	r1, #8
   2228e:	4620      	mov	r0, r4
   22290:	462a      	mov	r2, r5
   22292:	462b      	mov	r3, r5
   22294:	df04      	svc	4
   22296:	b01f      	add	sp, #124	@ 0x7c
   22298:	bdf0      	pop	{r4, r5, r6, r7, pc}
   2229a:	480f      	ldr	r0, [pc, #60]	@ (222d8 <_ZN18complex_no_dynamic3app17h85bc942de68c5f51E+0xa8>)
   2229c:	2605      	movs	r6, #5
   2229e:	4631      	mov	r1, r6
   222a0:	462a      	mov	r2, r5
   222a2:	462b      	mov	r3, r5
   222a4:	df03      	svc	3
   222a6:	480c      	ldr	r0, [pc, #48]	@ (222d8 <_ZN18complex_no_dynamic3app17h85bc942de68c5f51E+0xa8>)
   222a8:	4631      	mov	r1, r6
   222aa:	462a      	mov	r2, r5
   222ac:	462b      	mov	r3, r5
   222ae:	df03      	svc	3
   222b0:	1c60      	adds	r0, r4, #1
   222b2:	a907      	add	r1, sp, #28
   222b4:	225d      	movs	r2, #93	@ 0x5d
   222b6:	f004 fea8 	bl	2700a <__aeabi_memcpy>
   222ba:	7025      	strb	r5, [r4, #0]
   222bc:	4c06      	ldr	r4, [pc, #24]	@ (222d8 <_ZN18complex_no_dynamic3app17h85bc942de68c5f51E+0xa8>)
   222be:	4620      	mov	r0, r4
   222c0:	4631      	mov	r1, r6
   222c2:	462a      	mov	r2, r5
   222c4:	462b      	mov	r3, r5
   222c6:	df03      	svc	3
   222c8:	2108      	movs	r1, #8
   222ca:	4620      	mov	r0, r4
   222cc:	462a      	mov	r2, r5
   222ce:	462b      	mov	r3, r5
   222d0:	df04      	svc	4
   222d2:	b01f      	add	sp, #124	@ 0x7c
   222d4:	bdf0      	pop	{r4, r5, r6, r7, pc}
   222d6:	46c0      	nop			@ (mov r8, r8)
   222d8:	00000c3e 	.word	0x00000c3e

000222dc <_ZN18complex_no_dynamic3app17h86058071c59e4ce8E>:
   222dc:	b5f0      	push	{r4, r5, r6, r7, lr}
   222de:	af03      	add	r7, sp, #12
   222e0:	b0a5      	sub	sp, #148	@ 0x94
   222e2:	4604      	mov	r4, r0
   222e4:	ad01      	add	r5, sp, #4
   222e6:	262a      	movs	r6, #42	@ 0x2a
   222e8:	4628      	mov	r0, r5
   222ea:	4632      	mov	r2, r6
   222ec:	f004 fe8d 	bl	2700a <__aeabi_memcpy>
   222f0:	a80c      	add	r0, sp, #48	@ 0x30
   222f2:	2163      	movs	r1, #99	@ 0x63
   222f4:	f004 fcdc 	bl	26cb0 <__aeabi_memclr4>
   222f8:	4821      	ldr	r0, [pc, #132]	@ (22380 <_ZN18complex_no_dynamic3app17h86058071c59e4ce8E+0xa4>)
   222fa:	2104      	movs	r1, #4
   222fc:	462a      	mov	r2, r5
   222fe:	4633      	mov	r3, r6
   22300:	df04      	svc	4
   22302:	2802      	cmp	r0, #2
   22304:	d00e      	beq.n	22324 <_ZN18complex_no_dynamic3app17h86058071c59e4ce8E+0x48>
   22306:	481e      	ldr	r0, [pc, #120]	@ (22380 <_ZN18complex_no_dynamic3app17h86058071c59e4ce8E+0xa4>)
   22308:	2100      	movs	r1, #0
   2230a:	aa0c      	add	r2, sp, #48	@ 0x30
   2230c:	2363      	movs	r3, #99	@ 0x63
   2230e:	df03      	svc	3
   22310:	2802      	cmp	r0, #2
   22312:	d007      	beq.n	22324 <_ZN18complex_no_dynamic3app17h86058071c59e4ce8E+0x48>
   22314:	481a      	ldr	r0, [pc, #104]	@ (22380 <_ZN18complex_no_dynamic3app17h86058071c59e4ce8E+0xa4>)
   22316:	2104      	movs	r1, #4
   22318:	2500      	movs	r5, #0
   2231a:	462a      	mov	r2, r5
   2231c:	462b      	mov	r3, r5
   2231e:	df02      	svc	2
   22320:	287f      	cmp	r0, #127	@ 0x7f
   22322:	d810      	bhi.n	22346 <_ZN18complex_no_dynamic3app17h86058071c59e4ce8E+0x6a>
   22324:	2001      	movs	r0, #1
   22326:	7020      	strb	r0, [r4, #0]
   22328:	6061      	str	r1, [r4, #4]
   2232a:	4c15      	ldr	r4, [pc, #84]	@ (22380 <_ZN18complex_no_dynamic3app17h86058071c59e4ce8E+0xa4>)
   2232c:	2500      	movs	r5, #0
   2232e:	4620      	mov	r0, r4
   22330:	4629      	mov	r1, r5
   22332:	462a      	mov	r2, r5
   22334:	462b      	mov	r3, r5
   22336:	df03      	svc	3
   22338:	2104      	movs	r1, #4
   2233a:	4620      	mov	r0, r4
   2233c:	462a      	mov	r2, r5
   2233e:	462b      	mov	r3, r5
   22340:	df04      	svc	4
   22342:	b025      	add	sp, #148	@ 0x94
   22344:	bdf0      	pop	{r4, r5, r6, r7, pc}
   22346:	4e0e      	ldr	r6, [pc, #56]	@ (22380 <_ZN18complex_no_dynamic3app17h86058071c59e4ce8E+0xa4>)
   22348:	4630      	mov	r0, r6
   2234a:	4629      	mov	r1, r5
   2234c:	462a      	mov	r2, r5
   2234e:	462b      	mov	r3, r5
   22350:	df03      	svc	3
   22352:	4630      	mov	r0, r6
   22354:	4629      	mov	r1, r5
   22356:	462a      	mov	r2, r5
   22358:	462b      	mov	r3, r5
   2235a:	df03      	svc	3
   2235c:	1c60      	adds	r0, r4, #1
   2235e:	a90c      	add	r1, sp, #48	@ 0x30
   22360:	2263      	movs	r2, #99	@ 0x63
   22362:	f004 fe52 	bl	2700a <__aeabi_memcpy>
   22366:	7025      	strb	r5, [r4, #0]
   22368:	4630      	mov	r0, r6
   2236a:	4629      	mov	r1, r5
   2236c:	462a      	mov	r2, r5
   2236e:	462b      	mov	r3, r5
   22370:	df03      	svc	3
   22372:	2104      	movs	r1, #4
   22374:	4630      	mov	r0, r6
   22376:	462a      	mov	r2, r5
   22378:	462b      	mov	r3, r5
   2237a:	df04      	svc	4
   2237c:	b025      	add	sp, #148	@ 0x94
   2237e:	bdf0      	pop	{r4, r5, r6, r7, pc}
   22380:	00001c7c 	.word	0x00001c7c

00022384 <_ZN18complex_no_dynamic3app17h86fc34b036371e27E>:
   22384:	b5f0      	push	{r4, r5, r6, r7, lr}
   22386:	af03      	add	r7, sp, #12
   22388:	b091      	sub	sp, #68	@ 0x44
   2238a:	4604      	mov	r4, r0
   2238c:	466d      	mov	r5, sp
   2238e:	2632      	movs	r6, #50	@ 0x32
   22390:	4628      	mov	r0, r5
   22392:	4632      	mov	r2, r6
   22394:	f004 fe39 	bl	2700a <__aeabi_memcpy>
   22398:	2000      	movs	r0, #0
   2239a:	9010      	str	r0, [sp, #64]	@ 0x40
   2239c:	900f      	str	r0, [sp, #60]	@ 0x3c
   2239e:	900e      	str	r0, [sp, #56]	@ 0x38
   223a0:	900d      	str	r0, [sp, #52]	@ 0x34
   223a2:	4822      	ldr	r0, [pc, #136]	@ (2242c <_ZN18complex_no_dynamic3app17h86fc34b036371e27E+0xa8>)
   223a4:	2104      	movs	r1, #4
   223a6:	462a      	mov	r2, r5
   223a8:	4633      	mov	r3, r6
   223aa:	df04      	svc	4
   223ac:	2802      	cmp	r0, #2
   223ae:	d00e      	beq.n	223ce <_ZN18complex_no_dynamic3app17h86fc34b036371e27E+0x4a>
   223b0:	481e      	ldr	r0, [pc, #120]	@ (2242c <_ZN18complex_no_dynamic3app17h86fc34b036371e27E+0xa8>)
   223b2:	2109      	movs	r1, #9
   223b4:	aa0d      	add	r2, sp, #52	@ 0x34
   223b6:	2310      	movs	r3, #16
   223b8:	df03      	svc	3
   223ba:	2802      	cmp	r0, #2
   223bc:	d007      	beq.n	223ce <_ZN18complex_no_dynamic3app17h86fc34b036371e27E+0x4a>
   223be:	481b      	ldr	r0, [pc, #108]	@ (2242c <_ZN18complex_no_dynamic3app17h86fc34b036371e27E+0xa8>)
   223c0:	2104      	movs	r1, #4
   223c2:	2209      	movs	r2, #9
   223c4:	2500      	movs	r5, #0
   223c6:	462b      	mov	r3, r5
   223c8:	df02      	svc	2
   223ca:	287f      	cmp	r0, #127	@ 0x7f
   223cc:	d810      	bhi.n	223f0 <_ZN18complex_no_dynamic3app17h86fc34b036371e27E+0x6c>
   223ce:	2001      	movs	r0, #1
   223d0:	7020      	strb	r0, [r4, #0]
   223d2:	6061      	str	r1, [r4, #4]
   223d4:	4c15      	ldr	r4, [pc, #84]	@ (2242c <_ZN18complex_no_dynamic3app17h86fc34b036371e27E+0xa8>)
   223d6:	2109      	movs	r1, #9
   223d8:	2500      	movs	r5, #0
   223da:	4620      	mov	r0, r4
   223dc:	462a      	mov	r2, r5
   223de:	462b      	mov	r3, r5
   223e0:	df03      	svc	3
   223e2:	2104      	movs	r1, #4
   223e4:	4620      	mov	r0, r4
   223e6:	462a      	mov	r2, r5
   223e8:	462b      	mov	r3, r5
   223ea:	df04      	svc	4
   223ec:	b011      	add	sp, #68	@ 0x44
   223ee:	bdf0      	pop	{r4, r5, r6, r7, pc}
   223f0:	480e      	ldr	r0, [pc, #56]	@ (2242c <_ZN18complex_no_dynamic3app17h86fc34b036371e27E+0xa8>)
   223f2:	2609      	movs	r6, #9
   223f4:	4631      	mov	r1, r6
   223f6:	462a      	mov	r2, r5
   223f8:	462b      	mov	r3, r5
   223fa:	df03      	svc	3
   223fc:	480b      	ldr	r0, [pc, #44]	@ (2242c <_ZN18complex_no_dynamic3app17h86fc34b036371e27E+0xa8>)
   223fe:	4631      	mov	r1, r6
   22400:	462a      	mov	r2, r5
   22402:	462b      	mov	r3, r5
   22404:	df03      	svc	3
   22406:	1c60      	adds	r0, r4, #1
   22408:	a90d      	add	r1, sp, #52	@ 0x34
   2240a:	2210      	movs	r2, #16
   2240c:	f004 fdfd 	bl	2700a <__aeabi_memcpy>
   22410:	7025      	strb	r5, [r4, #0]
   22412:	4c06      	ldr	r4, [pc, #24]	@ (2242c <_ZN18complex_no_dynamic3app17h86fc34b036371e27E+0xa8>)
   22414:	4620      	mov	r0, r4
   22416:	4631      	mov	r1, r6
   22418:	462a      	mov	r2, r5
   2241a:	462b      	mov	r3, r5
   2241c:	df03      	svc	3
   2241e:	2104      	movs	r1, #4
   22420:	4620      	mov	r0, r4
   22422:	462a      	mov	r2, r5
   22424:	462b      	mov	r3, r5
   22426:	df04      	svc	4
   22428:	b011      	add	sp, #68	@ 0x44
   2242a:	bdf0      	pop	{r4, r5, r6, r7, pc}
   2242c:	000019d6 	.word	0x000019d6

00022430 <_ZN18complex_no_dynamic3app17h882b458572fc0cc3E>:
   22430:	b5f0      	push	{r4, r5, r6, r7, lr}
   22432:	af03      	add	r7, sp, #12
   22434:	b0a9      	sub	sp, #164	@ 0xa4
   22436:	4604      	mov	r4, r0
   22438:	466d      	mov	r5, sp
   2243a:	2651      	movs	r6, #81	@ 0x51
   2243c:	4628      	mov	r0, r5
   2243e:	4632      	mov	r2, r6
   22440:	f004 fde3 	bl	2700a <__aeabi_memcpy>
   22444:	a815      	add	r0, sp, #84	@ 0x54
   22446:	214f      	movs	r1, #79	@ 0x4f
   22448:	f004 fc32 	bl	26cb0 <__aeabi_memclr4>
   2244c:	4822      	ldr	r0, [pc, #136]	@ (224d8 <_ZN18complex_no_dynamic3app17h882b458572fc0cc3E+0xa8>)
   2244e:	2102      	movs	r1, #2
   22450:	462a      	mov	r2, r5
   22452:	4633      	mov	r3, r6
   22454:	df04      	svc	4
   22456:	2802      	cmp	r0, #2
   22458:	d00e      	beq.n	22478 <_ZN18complex_no_dynamic3app17h882b458572fc0cc3E+0x48>
   2245a:	481f      	ldr	r0, [pc, #124]	@ (224d8 <_ZN18complex_no_dynamic3app17h882b458572fc0cc3E+0xa8>)
   2245c:	2104      	movs	r1, #4
   2245e:	aa15      	add	r2, sp, #84	@ 0x54
   22460:	234f      	movs	r3, #79	@ 0x4f
   22462:	df03      	svc	3
   22464:	2802      	cmp	r0, #2
   22466:	d007      	beq.n	22478 <_ZN18complex_no_dynamic3app17h882b458572fc0cc3E+0x48>
   22468:	481b      	ldr	r0, [pc, #108]	@ (224d8 <_ZN18complex_no_dynamic3app17h882b458572fc0cc3E+0xa8>)
   2246a:	2102      	movs	r1, #2
   2246c:	2204      	movs	r2, #4
   2246e:	2500      	movs	r5, #0
   22470:	462b      	mov	r3, r5
   22472:	df02      	svc	2
   22474:	287f      	cmp	r0, #127	@ 0x7f
   22476:	d810      	bhi.n	2249a <_ZN18complex_no_dynamic3app17h882b458572fc0cc3E+0x6a>
   22478:	2001      	movs	r0, #1
   2247a:	7020      	strb	r0, [r4, #0]
   2247c:	6061      	str	r1, [r4, #4]
   2247e:	4c16      	ldr	r4, [pc, #88]	@ (224d8 <_ZN18complex_no_dynamic3app17h882b458572fc0cc3E+0xa8>)
   22480:	2104      	movs	r1, #4
   22482:	2500      	movs	r5, #0
   22484:	4620      	mov	r0, r4
   22486:	462a      	mov	r2, r5
   22488:	462b      	mov	r3, r5
   2248a:	df03      	svc	3
   2248c:	2102      	movs	r1, #2
   2248e:	4620      	mov	r0, r4
   22490:	462a      	mov	r2, r5
   22492:	462b      	mov	r3, r5
   22494:	df04      	svc	4
   22496:	b029      	add	sp, #164	@ 0xa4
   22498:	bdf0      	pop	{r4, r5, r6, r7, pc}
   2249a:	480f      	ldr	r0, [pc, #60]	@ (224d8 <_ZN18complex_no_dynamic3app17h882b458572fc0cc3E+0xa8>)
   2249c:	2604      	movs	r6, #4
   2249e:	4631      	mov	r1, r6
   224a0:	462a      	mov	r2, r5
   224a2:	462b      	mov	r3, r5
   224a4:	df03      	svc	3
   224a6:	480c      	ldr	r0, [pc, #48]	@ (224d8 <_ZN18complex_no_dynamic3app17h882b458572fc0cc3E+0xa8>)
   224a8:	4631      	mov	r1, r6
   224aa:	462a      	mov	r2, r5
   224ac:	462b      	mov	r3, r5
   224ae:	df03      	svc	3
   224b0:	1c60      	adds	r0, r4, #1
   224b2:	a915      	add	r1, sp, #84	@ 0x54
   224b4:	224f      	movs	r2, #79	@ 0x4f
   224b6:	f004 fda8 	bl	2700a <__aeabi_memcpy>
   224ba:	7025      	strb	r5, [r4, #0]
   224bc:	4c06      	ldr	r4, [pc, #24]	@ (224d8 <_ZN18complex_no_dynamic3app17h882b458572fc0cc3E+0xa8>)
   224be:	4620      	mov	r0, r4
   224c0:	4631      	mov	r1, r6
   224c2:	462a      	mov	r2, r5
   224c4:	462b      	mov	r3, r5
   224c6:	df03      	svc	3
   224c8:	2102      	movs	r1, #2
   224ca:	4620      	mov	r0, r4
   224cc:	462a      	mov	r2, r5
   224ce:	462b      	mov	r3, r5
   224d0:	df04      	svc	4
   224d2:	b029      	add	sp, #164	@ 0xa4
   224d4:	bdf0      	pop	{r4, r5, r6, r7, pc}
   224d6:	46c0      	nop			@ (mov r8, r8)
   224d8:	00000e16 	.word	0x00000e16

000224dc <_ZN18complex_no_dynamic3app17h8c47ef46e3072d50E>:
   224dc:	b5f0      	push	{r4, r5, r6, r7, lr}
   224de:	af03      	add	r7, sp, #12
   224e0:	b095      	sub	sp, #84	@ 0x54
   224e2:	4604      	mov	r4, r0
   224e4:	ad01      	add	r5, sp, #4
   224e6:	2618      	movs	r6, #24
   224e8:	4628      	mov	r0, r5
   224ea:	4632      	mov	r2, r6
   224ec:	f004 fd8d 	bl	2700a <__aeabi_memcpy>
   224f0:	a807      	add	r0, sp, #28
   224f2:	2136      	movs	r1, #54	@ 0x36
   224f4:	f004 fbdc 	bl	26cb0 <__aeabi_memclr4>
   224f8:	20f3      	movs	r0, #243	@ 0xf3
   224fa:	2108      	movs	r1, #8
   224fc:	462a      	mov	r2, r5
   224fe:	4633      	mov	r3, r6
   22500:	df04      	svc	4
   22502:	2802      	cmp	r0, #2
   22504:	d00e      	beq.n	22524 <_ZN18complex_no_dynamic3app17h8c47ef46e3072d50E+0x48>
   22506:	20f3      	movs	r0, #243	@ 0xf3
   22508:	2104      	movs	r1, #4
   2250a:	aa07      	add	r2, sp, #28
   2250c:	2336      	movs	r3, #54	@ 0x36
   2250e:	df03      	svc	3
   22510:	2802      	cmp	r0, #2
   22512:	d007      	beq.n	22524 <_ZN18complex_no_dynamic3app17h8c47ef46e3072d50E+0x48>
   22514:	20f3      	movs	r0, #243	@ 0xf3
   22516:	2108      	movs	r1, #8
   22518:	2204      	movs	r2, #4
   2251a:	2500      	movs	r5, #0
   2251c:	462b      	mov	r3, r5
   2251e:	df02      	svc	2
   22520:	287f      	cmp	r0, #127	@ 0x7f
   22522:	d810      	bhi.n	22546 <_ZN18complex_no_dynamic3app17h8c47ef46e3072d50E+0x6a>
   22524:	2001      	movs	r0, #1
   22526:	7020      	strb	r0, [r4, #0]
   22528:	6061      	str	r1, [r4, #4]
   2252a:	24f3      	movs	r4, #243	@ 0xf3
   2252c:	2104      	movs	r1, #4
   2252e:	2500      	movs	r5, #0
   22530:	4620      	mov	r0, r4
   22532:	462a      	mov	r2, r5
   22534:	462b      	mov	r3, r5
   22536:	df03      	svc	3
   22538:	2108      	movs	r1, #8
   2253a:	4620      	mov	r0, r4
   2253c:	462a      	mov	r2, r5
   2253e:	462b      	mov	r3, r5
   22540:	df04      	svc	4
   22542:	b015      	add	sp, #84	@ 0x54
   22544:	bdf0      	pop	{r4, r5, r6, r7, pc}
   22546:	20f3      	movs	r0, #243	@ 0xf3
   22548:	9000      	str	r0, [sp, #0]
   2254a:	2604      	movs	r6, #4
   2254c:	4631      	mov	r1, r6
   2254e:	462a      	mov	r2, r5
   22550:	462b      	mov	r3, r5
   22552:	df03      	svc	3
   22554:	9800      	ldr	r0, [sp, #0]
   22556:	4631      	mov	r1, r6
   22558:	462a      	mov	r2, r5
   2255a:	462b      	mov	r3, r5
   2255c:	df03      	svc	3
   2255e:	1c60      	adds	r0, r4, #1
   22560:	a907      	add	r1, sp, #28
   22562:	2236      	movs	r2, #54	@ 0x36
   22564:	f004 fd51 	bl	2700a <__aeabi_memcpy>
   22568:	7025      	strb	r5, [r4, #0]
   2256a:	9c00      	ldr	r4, [sp, #0]
   2256c:	4620      	mov	r0, r4
   2256e:	4631      	mov	r1, r6
   22570:	462a      	mov	r2, r5
   22572:	462b      	mov	r3, r5
   22574:	df03      	svc	3
   22576:	2108      	movs	r1, #8
   22578:	4620      	mov	r0, r4
   2257a:	462a      	mov	r2, r5
   2257c:	462b      	mov	r3, r5
   2257e:	df04      	svc	4
   22580:	b015      	add	sp, #84	@ 0x54
   22582:	bdf0      	pop	{r4, r5, r6, r7, pc}

00022584 <_ZN18complex_no_dynamic3app17h92060fa8add62774E>:
   22584:	b5f0      	push	{r4, r5, r6, r7, lr}
   22586:	af03      	add	r7, sp, #12
   22588:	b093      	sub	sp, #76	@ 0x4c
   2258a:	4604      	mov	r4, r0
   2258c:	466d      	mov	r5, sp
   2258e:	262b      	movs	r6, #43	@ 0x2b
   22590:	4628      	mov	r0, r5
   22592:	4632      	mov	r2, r6
   22594:	f004 fd39 	bl	2700a <__aeabi_memcpy>
   22598:	a80b      	add	r0, sp, #44	@ 0x2c
   2259a:	2100      	movs	r1, #0
   2259c:	8381      	strh	r1, [r0, #28]
   2259e:	9111      	str	r1, [sp, #68]	@ 0x44
   225a0:	9110      	str	r1, [sp, #64]	@ 0x40
   225a2:	910f      	str	r1, [sp, #60]	@ 0x3c
   225a4:	910e      	str	r1, [sp, #56]	@ 0x38
   225a6:	910d      	str	r1, [sp, #52]	@ 0x34
   225a8:	910c      	str	r1, [sp, #48]	@ 0x30
   225aa:	910b      	str	r1, [sp, #44]	@ 0x2c
   225ac:	4822      	ldr	r0, [pc, #136]	@ (22638 <_ZN18complex_no_dynamic3app17h92060fa8add62774E+0xb4>)
   225ae:	2107      	movs	r1, #7
   225b0:	462a      	mov	r2, r5
   225b2:	4633      	mov	r3, r6
   225b4:	df04      	svc	4
   225b6:	2802      	cmp	r0, #2
   225b8:	d00e      	beq.n	225d8 <_ZN18complex_no_dynamic3app17h92060fa8add62774E+0x54>
   225ba:	481f      	ldr	r0, [pc, #124]	@ (22638 <_ZN18complex_no_dynamic3app17h92060fa8add62774E+0xb4>)
   225bc:	2108      	movs	r1, #8
   225be:	aa0b      	add	r2, sp, #44	@ 0x2c
   225c0:	231e      	movs	r3, #30
   225c2:	df03      	svc	3
   225c4:	2802      	cmp	r0, #2
   225c6:	d007      	beq.n	225d8 <_ZN18complex_no_dynamic3app17h92060fa8add62774E+0x54>
   225c8:	481b      	ldr	r0, [pc, #108]	@ (22638 <_ZN18complex_no_dynamic3app17h92060fa8add62774E+0xb4>)
   225ca:	2107      	movs	r1, #7
   225cc:	2208      	movs	r2, #8
   225ce:	2500      	movs	r5, #0
   225d0:	462b      	mov	r3, r5
   225d2:	df02      	svc	2
   225d4:	287f      	cmp	r0, #127	@ 0x7f
   225d6:	d810      	bhi.n	225fa <_ZN18complex_no_dynamic3app17h92060fa8add62774E+0x76>
   225d8:	2001      	movs	r0, #1
   225da:	7020      	strb	r0, [r4, #0]
   225dc:	6061      	str	r1, [r4, #4]
   225de:	4c16      	ldr	r4, [pc, #88]	@ (22638 <_ZN18complex_no_dynamic3app17h92060fa8add62774E+0xb4>)
   225e0:	2108      	movs	r1, #8
   225e2:	2500      	movs	r5, #0
   225e4:	4620      	mov	r0, r4
   225e6:	462a      	mov	r2, r5
   225e8:	462b      	mov	r3, r5
   225ea:	df03      	svc	3
   225ec:	2107      	movs	r1, #7
   225ee:	4620      	mov	r0, r4
   225f0:	462a      	mov	r2, r5
   225f2:	462b      	mov	r3, r5
   225f4:	df04      	svc	4
   225f6:	b013      	add	sp, #76	@ 0x4c
   225f8:	bdf0      	pop	{r4, r5, r6, r7, pc}
   225fa:	480f      	ldr	r0, [pc, #60]	@ (22638 <_ZN18complex_no_dynamic3app17h92060fa8add62774E+0xb4>)
   225fc:	2608      	movs	r6, #8
   225fe:	4631      	mov	r1, r6
   22600:	462a      	mov	r2, r5
   22602:	462b      	mov	r3, r5
   22604:	df03      	svc	3
   22606:	480c      	ldr	r0, [pc, #48]	@ (22638 <_ZN18complex_no_dynamic3app17h92060fa8add62774E+0xb4>)
   22608:	4631      	mov	r1, r6
   2260a:	462a      	mov	r2, r5
   2260c:	462b      	mov	r3, r5
   2260e:	df03      	svc	3
   22610:	1c60      	adds	r0, r4, #1
   22612:	a90b      	add	r1, sp, #44	@ 0x2c
   22614:	221e      	movs	r2, #30
   22616:	f004 fcf8 	bl	2700a <__aeabi_memcpy>
   2261a:	7025      	strb	r5, [r4, #0]
   2261c:	4c06      	ldr	r4, [pc, #24]	@ (22638 <_ZN18complex_no_dynamic3app17h92060fa8add62774E+0xb4>)
   2261e:	4620      	mov	r0, r4
   22620:	4631      	mov	r1, r6
   22622:	462a      	mov	r2, r5
   22624:	462b      	mov	r3, r5
   22626:	df03      	svc	3
   22628:	2107      	movs	r1, #7
   2262a:	4620      	mov	r0, r4
   2262c:	462a      	mov	r2, r5
   2262e:	462b      	mov	r3, r5
   22630:	df04      	svc	4
   22632:	b013      	add	sp, #76	@ 0x4c
   22634:	bdf0      	pop	{r4, r5, r6, r7, pc}
   22636:	46c0      	nop			@ (mov r8, r8)
   22638:	000007e3 	.word	0x000007e3

0002263c <_ZN18complex_no_dynamic3app17h94a7b0a1984498c3E>:
   2263c:	b5f0      	push	{r4, r5, r6, r7, lr}
   2263e:	af03      	add	r7, sp, #12
   22640:	b09b      	sub	sp, #108	@ 0x6c
   22642:	4604      	mov	r4, r0
   22644:	466d      	mov	r5, sp
   22646:	2636      	movs	r6, #54	@ 0x36
   22648:	4628      	mov	r0, r5
   2264a:	4632      	mov	r2, r6
   2264c:	f004 fcdd 	bl	2700a <__aeabi_memcpy>
   22650:	a80e      	add	r0, sp, #56	@ 0x38
   22652:	2134      	movs	r1, #52	@ 0x34
   22654:	f004 fb2c 	bl	26cb0 <__aeabi_memclr4>
   22658:	4822      	ldr	r0, [pc, #136]	@ (226e4 <_ZN18complex_no_dynamic3app17h94a7b0a1984498c3E+0xa8>)
   2265a:	2104      	movs	r1, #4
   2265c:	462a      	mov	r2, r5
   2265e:	4633      	mov	r3, r6
   22660:	df04      	svc	4
   22662:	2802      	cmp	r0, #2
   22664:	d00e      	beq.n	22684 <_ZN18complex_no_dynamic3app17h94a7b0a1984498c3E+0x48>
   22666:	481f      	ldr	r0, [pc, #124]	@ (226e4 <_ZN18complex_no_dynamic3app17h94a7b0a1984498c3E+0xa8>)
   22668:	2102      	movs	r1, #2
   2266a:	aa0e      	add	r2, sp, #56	@ 0x38
   2266c:	2334      	movs	r3, #52	@ 0x34
   2266e:	df03      	svc	3
   22670:	2802      	cmp	r0, #2
   22672:	d007      	beq.n	22684 <_ZN18complex_no_dynamic3app17h94a7b0a1984498c3E+0x48>
   22674:	481b      	ldr	r0, [pc, #108]	@ (226e4 <_ZN18complex_no_dynamic3app17h94a7b0a1984498c3E+0xa8>)
   22676:	2104      	movs	r1, #4
   22678:	2202      	movs	r2, #2
   2267a:	2500      	movs	r5, #0
   2267c:	462b      	mov	r3, r5
   2267e:	df02      	svc	2
   22680:	287f      	cmp	r0, #127	@ 0x7f
   22682:	d810      	bhi.n	226a6 <_ZN18complex_no_dynamic3app17h94a7b0a1984498c3E+0x6a>
   22684:	2001      	movs	r0, #1
   22686:	7020      	strb	r0, [r4, #0]
   22688:	6061      	str	r1, [r4, #4]
   2268a:	4c16      	ldr	r4, [pc, #88]	@ (226e4 <_ZN18complex_no_dynamic3app17h94a7b0a1984498c3E+0xa8>)
   2268c:	2102      	movs	r1, #2
   2268e:	2500      	movs	r5, #0
   22690:	4620      	mov	r0, r4
   22692:	462a      	mov	r2, r5
   22694:	462b      	mov	r3, r5
   22696:	df03      	svc	3
   22698:	2104      	movs	r1, #4
   2269a:	4620      	mov	r0, r4
   2269c:	462a      	mov	r2, r5
   2269e:	462b      	mov	r3, r5
   226a0:	df04      	svc	4
   226a2:	b01b      	add	sp, #108	@ 0x6c
   226a4:	bdf0      	pop	{r4, r5, r6, r7, pc}
   226a6:	480f      	ldr	r0, [pc, #60]	@ (226e4 <_ZN18complex_no_dynamic3app17h94a7b0a1984498c3E+0xa8>)
   226a8:	2602      	movs	r6, #2
   226aa:	4631      	mov	r1, r6
   226ac:	462a      	mov	r2, r5
   226ae:	462b      	mov	r3, r5
   226b0:	df03      	svc	3
   226b2:	480c      	ldr	r0, [pc, #48]	@ (226e4 <_ZN18complex_no_dynamic3app17h94a7b0a1984498c3E+0xa8>)
   226b4:	4631      	mov	r1, r6
   226b6:	462a      	mov	r2, r5
   226b8:	462b      	mov	r3, r5
   226ba:	df03      	svc	3
   226bc:	1c60      	adds	r0, r4, #1
   226be:	a90e      	add	r1, sp, #56	@ 0x38
   226c0:	2234      	movs	r2, #52	@ 0x34
   226c2:	f004 fca2 	bl	2700a <__aeabi_memcpy>
   226c6:	7025      	strb	r5, [r4, #0]
   226c8:	4c06      	ldr	r4, [pc, #24]	@ (226e4 <_ZN18complex_no_dynamic3app17h94a7b0a1984498c3E+0xa8>)
   226ca:	4620      	mov	r0, r4
   226cc:	4631      	mov	r1, r6
   226ce:	462a      	mov	r2, r5
   226d0:	462b      	mov	r3, r5
   226d2:	df03      	svc	3
   226d4:	2104      	movs	r1, #4
   226d6:	4620      	mov	r0, r4
   226d8:	462a      	mov	r2, r5
   226da:	462b      	mov	r3, r5
   226dc:	df04      	svc	4
   226de:	b01b      	add	sp, #108	@ 0x6c
   226e0:	bdf0      	pop	{r4, r5, r6, r7, pc}
   226e2:	46c0      	nop			@ (mov r8, r8)
   226e4:	000023c6 	.word	0x000023c6

000226e8 <_ZN18complex_no_dynamic3app17h95368f00db1b7aabE>:
   226e8:	b5f0      	push	{r4, r5, r6, r7, lr}
   226ea:	af03      	add	r7, sp, #12
   226ec:	b08f      	sub	sp, #60	@ 0x3c
   226ee:	4604      	mov	r4, r0
   226f0:	466d      	mov	r5, sp
   226f2:	2627      	movs	r6, #39	@ 0x27
   226f4:	4628      	mov	r0, r5
   226f6:	4632      	mov	r2, r6
   226f8:	f004 fc87 	bl	2700a <__aeabi_memcpy>
   226fc:	2000      	movs	r0, #0
   226fe:	900e      	str	r0, [sp, #56]	@ 0x38
   22700:	900d      	str	r0, [sp, #52]	@ 0x34
   22702:	900c      	str	r0, [sp, #48]	@ 0x30
   22704:	900b      	str	r0, [sp, #44]	@ 0x2c
   22706:	900a      	str	r0, [sp, #40]	@ 0x28
   22708:	4822      	ldr	r0, [pc, #136]	@ (22794 <_ZN18complex_no_dynamic3app17h95368f00db1b7aabE+0xac>)
   2270a:	2106      	movs	r1, #6
   2270c:	462a      	mov	r2, r5
   2270e:	4633      	mov	r3, r6
   22710:	df04      	svc	4
   22712:	2802      	cmp	r0, #2
   22714:	d00e      	beq.n	22734 <_ZN18complex_no_dynamic3app17h95368f00db1b7aabE+0x4c>
   22716:	481f      	ldr	r0, [pc, #124]	@ (22794 <_ZN18complex_no_dynamic3app17h95368f00db1b7aabE+0xac>)
   22718:	2105      	movs	r1, #5
   2271a:	aa0a      	add	r2, sp, #40	@ 0x28
   2271c:	2314      	movs	r3, #20
   2271e:	df03      	svc	3
   22720:	2802      	cmp	r0, #2
   22722:	d007      	beq.n	22734 <_ZN18complex_no_dynamic3app17h95368f00db1b7aabE+0x4c>
   22724:	481b      	ldr	r0, [pc, #108]	@ (22794 <_ZN18complex_no_dynamic3app17h95368f00db1b7aabE+0xac>)
   22726:	2106      	movs	r1, #6
   22728:	2205      	movs	r2, #5
   2272a:	2500      	movs	r5, #0
   2272c:	462b      	mov	r3, r5
   2272e:	df02      	svc	2
   22730:	287f      	cmp	r0, #127	@ 0x7f
   22732:	d810      	bhi.n	22756 <_ZN18complex_no_dynamic3app17h95368f00db1b7aabE+0x6e>
   22734:	2001      	movs	r0, #1
   22736:	7020      	strb	r0, [r4, #0]
   22738:	6061      	str	r1, [r4, #4]
   2273a:	4c16      	ldr	r4, [pc, #88]	@ (22794 <_ZN18complex_no_dynamic3app17h95368f00db1b7aabE+0xac>)
   2273c:	2105      	movs	r1, #5
   2273e:	2500      	movs	r5, #0
   22740:	4620      	mov	r0, r4
   22742:	462a      	mov	r2, r5
   22744:	462b      	mov	r3, r5
   22746:	df03      	svc	3
   22748:	2106      	movs	r1, #6
   2274a:	4620      	mov	r0, r4
   2274c:	462a      	mov	r2, r5
   2274e:	462b      	mov	r3, r5
   22750:	df04      	svc	4
   22752:	b00f      	add	sp, #60	@ 0x3c
   22754:	bdf0      	pop	{r4, r5, r6, r7, pc}
   22756:	480f      	ldr	r0, [pc, #60]	@ (22794 <_ZN18complex_no_dynamic3app17h95368f00db1b7aabE+0xac>)
   22758:	2605      	movs	r6, #5
   2275a:	4631      	mov	r1, r6
   2275c:	462a      	mov	r2, r5
   2275e:	462b      	mov	r3, r5
   22760:	df03      	svc	3
   22762:	480c      	ldr	r0, [pc, #48]	@ (22794 <_ZN18complex_no_dynamic3app17h95368f00db1b7aabE+0xac>)
   22764:	4631      	mov	r1, r6
   22766:	462a      	mov	r2, r5
   22768:	462b      	mov	r3, r5
   2276a:	df03      	svc	3
   2276c:	1c60      	adds	r0, r4, #1
   2276e:	a90a      	add	r1, sp, #40	@ 0x28
   22770:	2214      	movs	r2, #20
   22772:	f004 fc4a 	bl	2700a <__aeabi_memcpy>
   22776:	7025      	strb	r5, [r4, #0]
   22778:	4c06      	ldr	r4, [pc, #24]	@ (22794 <_ZN18complex_no_dynamic3app17h95368f00db1b7aabE+0xac>)
   2277a:	4620      	mov	r0, r4
   2277c:	4631      	mov	r1, r6
   2277e:	462a      	mov	r2, r5
   22780:	462b      	mov	r3, r5
   22782:	df03      	svc	3
   22784:	2106      	movs	r1, #6
   22786:	4620      	mov	r0, r4
   22788:	462a      	mov	r2, r5
   2278a:	462b      	mov	r3, r5
   2278c:	df04      	svc	4
   2278e:	b00f      	add	sp, #60	@ 0x3c
   22790:	bdf0      	pop	{r4, r5, r6, r7, pc}
   22792:	46c0      	nop			@ (mov r8, r8)
   22794:	000022c9 	.word	0x000022c9

00022798 <_ZN18complex_no_dynamic3app17h9a3108c89cce4579E>:
   22798:	b5f0      	push	{r4, r5, r6, r7, lr}
   2279a:	af03      	add	r7, sp, #12
   2279c:	b08f      	sub	sp, #60	@ 0x3c
   2279e:	4604      	mov	r4, r0
   227a0:	466d      	mov	r5, sp
   227a2:	262b      	movs	r6, #43	@ 0x2b
   227a4:	4628      	mov	r0, r5
   227a6:	4632      	mov	r2, r6
   227a8:	f004 fc2f 	bl	2700a <__aeabi_memcpy>
   227ac:	a80b      	add	r0, sp, #44	@ 0x2c
   227ae:	2100      	movs	r1, #0
   227b0:	7301      	strb	r1, [r0, #12]
   227b2:	910d      	str	r1, [sp, #52]	@ 0x34
   227b4:	910c      	str	r1, [sp, #48]	@ 0x30
   227b6:	910b      	str	r1, [sp, #44]	@ 0x2c
   227b8:	4821      	ldr	r0, [pc, #132]	@ (22840 <_ZN18complex_no_dynamic3app17h9a3108c89cce4579E+0xa8>)
   227ba:	2106      	movs	r1, #6
   227bc:	462a      	mov	r2, r5
   227be:	4633      	mov	r3, r6
   227c0:	df04      	svc	4
   227c2:	2802      	cmp	r0, #2
   227c4:	d00e      	beq.n	227e4 <_ZN18complex_no_dynamic3app17h9a3108c89cce4579E+0x4c>
   227c6:	481e      	ldr	r0, [pc, #120]	@ (22840 <_ZN18complex_no_dynamic3app17h9a3108c89cce4579E+0xa8>)
   227c8:	2100      	movs	r1, #0
   227ca:	aa0b      	add	r2, sp, #44	@ 0x2c
   227cc:	230d      	movs	r3, #13
   227ce:	df03      	svc	3
   227d0:	2802      	cmp	r0, #2
   227d2:	d007      	beq.n	227e4 <_ZN18complex_no_dynamic3app17h9a3108c89cce4579E+0x4c>
   227d4:	481a      	ldr	r0, [pc, #104]	@ (22840 <_ZN18complex_no_dynamic3app17h9a3108c89cce4579E+0xa8>)
   227d6:	2106      	movs	r1, #6
   227d8:	2500      	movs	r5, #0
   227da:	462a      	mov	r2, r5
   227dc:	462b      	mov	r3, r5
   227de:	df02      	svc	2
   227e0:	287f      	cmp	r0, #127	@ 0x7f
   227e2:	d810      	bhi.n	22806 <_ZN18complex_no_dynamic3app17h9a3108c89cce4579E+0x6e>
   227e4:	2001      	movs	r0, #1
   227e6:	7020      	strb	r0, [r4, #0]
   227e8:	6061      	str	r1, [r4, #4]
   227ea:	4c15      	ldr	r4, [pc, #84]	@ (22840 <_ZN18complex_no_dynamic3app17h9a3108c89cce4579E+0xa8>)
   227ec:	2500      	movs	r5, #0
   227ee:	4620      	mov	r0, r4
   227f0:	4629      	mov	r1, r5
   227f2:	462a      	mov	r2, r5
   227f4:	462b      	mov	r3, r5
   227f6:	df03      	svc	3
   227f8:	2106      	movs	r1, #6
   227fa:	4620      	mov	r0, r4
   227fc:	462a      	mov	r2, r5
   227fe:	462b      	mov	r3, r5
   22800:	df04      	svc	4
   22802:	b00f      	add	sp, #60	@ 0x3c
   22804:	bdf0      	pop	{r4, r5, r6, r7, pc}
   22806:	4e0e      	ldr	r6, [pc, #56]	@ (22840 <_ZN18complex_no_dynamic3app17h9a3108c89cce4579E+0xa8>)
   22808:	4630      	mov	r0, r6
   2280a:	4629      	mov	r1, r5
   2280c:	462a      	mov	r2, r5
   2280e:	462b      	mov	r3, r5
   22810:	df03      	svc	3
   22812:	4630      	mov	r0, r6
   22814:	4629      	mov	r1, r5
   22816:	462a      	mov	r2, r5
   22818:	462b      	mov	r3, r5
   2281a:	df03      	svc	3
   2281c:	1c60      	adds	r0, r4, #1
   2281e:	a90b      	add	r1, sp, #44	@ 0x2c
   22820:	220d      	movs	r2, #13
   22822:	f004 fbf2 	bl	2700a <__aeabi_memcpy>
   22826:	7025      	strb	r5, [r4, #0]
   22828:	4630      	mov	r0, r6
   2282a:	4629      	mov	r1, r5
   2282c:	462a      	mov	r2, r5
   2282e:	462b      	mov	r3, r5
   22830:	df03      	svc	3
   22832:	2106      	movs	r1, #6
   22834:	4630      	mov	r0, r6
   22836:	462a      	mov	r2, r5
   22838:	462b      	mov	r3, r5
   2283a:	df04      	svc	4
   2283c:	b00f      	add	sp, #60	@ 0x3c
   2283e:	bdf0      	pop	{r4, r5, r6, r7, pc}
   22840:	00001465 	.word	0x00001465

00022844 <_ZN18complex_no_dynamic3app17h9d41358aae4cae91E>:
   22844:	b5f0      	push	{r4, r5, r6, r7, lr}
   22846:	af03      	add	r7, sp, #12
   22848:	b08d      	sub	sp, #52	@ 0x34
   2284a:	4604      	mov	r4, r0
   2284c:	7b08      	ldrb	r0, [r1, #12]
   2284e:	466d      	mov	r5, sp
   22850:	7328      	strb	r0, [r5, #12]
   22852:	7a08      	ldrb	r0, [r1, #8]
   22854:	7a4a      	ldrb	r2, [r1, #9]
   22856:	0212      	lsls	r2, r2, #8
   22858:	1810      	adds	r0, r2, r0
   2285a:	7a8a      	ldrb	r2, [r1, #10]
   2285c:	0412      	lsls	r2, r2, #16
   2285e:	7acb      	ldrb	r3, [r1, #11]
   22860:	061b      	lsls	r3, r3, #24
   22862:	189a      	adds	r2, r3, r2
   22864:	1810      	adds	r0, r2, r0
   22866:	9002      	str	r0, [sp, #8]
   22868:	7908      	ldrb	r0, [r1, #4]
   2286a:	794a      	ldrb	r2, [r1, #5]
   2286c:	0212      	lsls	r2, r2, #8
   2286e:	1810      	adds	r0, r2, r0
   22870:	798a      	ldrb	r2, [r1, #6]
   22872:	0412      	lsls	r2, r2, #16
   22874:	79cb      	ldrb	r3, [r1, #7]
   22876:	061b      	lsls	r3, r3, #24
   22878:	189a      	adds	r2, r3, r2
   2287a:	1810      	adds	r0, r2, r0
   2287c:	9001      	str	r0, [sp, #4]
   2287e:	7808      	ldrb	r0, [r1, #0]
   22880:	784a      	ldrb	r2, [r1, #1]
   22882:	0212      	lsls	r2, r2, #8
   22884:	1810      	adds	r0, r2, r0
   22886:	788a      	ldrb	r2, [r1, #2]
   22888:	0412      	lsls	r2, r2, #16
   2288a:	78c9      	ldrb	r1, [r1, #3]
   2288c:	0609      	lsls	r1, r1, #24
   2288e:	1889      	adds	r1, r1, r2
   22890:	1808      	adds	r0, r1, r0
   22892:	9000      	str	r0, [sp, #0]
   22894:	a804      	add	r0, sp, #16
   22896:	2121      	movs	r1, #33	@ 0x21
   22898:	f004 fa0a 	bl	26cb0 <__aeabi_memclr4>
   2289c:	4821      	ldr	r0, [pc, #132]	@ (22924 <_ZN18complex_no_dynamic3app17h9d41358aae4cae91E+0xe0>)
   2289e:	2100      	movs	r1, #0
   228a0:	230d      	movs	r3, #13
   228a2:	462a      	mov	r2, r5
   228a4:	df04      	svc	4
   228a6:	2802      	cmp	r0, #2
   228a8:	d00e      	beq.n	228c8 <_ZN18complex_no_dynamic3app17h9d41358aae4cae91E+0x84>
   228aa:	481e      	ldr	r0, [pc, #120]	@ (22924 <_ZN18complex_no_dynamic3app17h9d41358aae4cae91E+0xe0>)
   228ac:	2100      	movs	r1, #0
   228ae:	aa04      	add	r2, sp, #16
   228b0:	2321      	movs	r3, #33	@ 0x21
   228b2:	df03      	svc	3
   228b4:	2802      	cmp	r0, #2
   228b6:	d007      	beq.n	228c8 <_ZN18complex_no_dynamic3app17h9d41358aae4cae91E+0x84>
   228b8:	481a      	ldr	r0, [pc, #104]	@ (22924 <_ZN18complex_no_dynamic3app17h9d41358aae4cae91E+0xe0>)
   228ba:	2500      	movs	r5, #0
   228bc:	4629      	mov	r1, r5
   228be:	462a      	mov	r2, r5
   228c0:	462b      	mov	r3, r5
   228c2:	df02      	svc	2
   228c4:	287f      	cmp	r0, #127	@ 0x7f
   228c6:	d810      	bhi.n	228ea <_ZN18complex_no_dynamic3app17h9d41358aae4cae91E+0xa6>
   228c8:	2001      	movs	r0, #1
   228ca:	7020      	strb	r0, [r4, #0]
   228cc:	6061      	str	r1, [r4, #4]
   228ce:	4c15      	ldr	r4, [pc, #84]	@ (22924 <_ZN18complex_no_dynamic3app17h9d41358aae4cae91E+0xe0>)
   228d0:	2500      	movs	r5, #0
   228d2:	4620      	mov	r0, r4
   228d4:	4629      	mov	r1, r5
   228d6:	462a      	mov	r2, r5
   228d8:	462b      	mov	r3, r5
   228da:	df03      	svc	3
   228dc:	4620      	mov	r0, r4
   228de:	4629      	mov	r1, r5
   228e0:	462a      	mov	r2, r5
   228e2:	462b      	mov	r3, r5
   228e4:	df04      	svc	4
   228e6:	b00d      	add	sp, #52	@ 0x34
   228e8:	bdf0      	pop	{r4, r5, r6, r7, pc}
   228ea:	4e0e      	ldr	r6, [pc, #56]	@ (22924 <_ZN18complex_no_dynamic3app17h9d41358aae4cae91E+0xe0>)
   228ec:	4630      	mov	r0, r6
   228ee:	4629      	mov	r1, r5
   228f0:	462a      	mov	r2, r5
   228f2:	462b      	mov	r3, r5
   228f4:	df03      	svc	3
   228f6:	4630      	mov	r0, r6
   228f8:	4629      	mov	r1, r5
   228fa:	462a      	mov	r2, r5
   228fc:	462b      	mov	r3, r5
   228fe:	df03      	svc	3
   22900:	1c60      	adds	r0, r4, #1
   22902:	a904      	add	r1, sp, #16
   22904:	2221      	movs	r2, #33	@ 0x21
   22906:	f004 fb80 	bl	2700a <__aeabi_memcpy>
   2290a:	7025      	strb	r5, [r4, #0]
   2290c:	4630      	mov	r0, r6
   2290e:	4629      	mov	r1, r5
   22910:	462a      	mov	r2, r5
   22912:	462b      	mov	r3, r5
   22914:	df03      	svc	3
   22916:	4630      	mov	r0, r6
   22918:	4629      	mov	r1, r5
   2291a:	462a      	mov	r2, r5
   2291c:	462b      	mov	r3, r5
   2291e:	df04      	svc	4
   22920:	b00d      	add	sp, #52	@ 0x34
   22922:	bdf0      	pop	{r4, r5, r6, r7, pc}
   22924:	000016b0 	.word	0x000016b0

00022928 <_ZN18complex_no_dynamic3app17ha83bdaa4e9a5c937E>:
   22928:	b5f0      	push	{r4, r5, r6, r7, lr}
   2292a:	af03      	add	r7, sp, #12
   2292c:	b09f      	sub	sp, #124	@ 0x7c
   2292e:	4604      	mov	r4, r0
   22930:	466d      	mov	r5, sp
   22932:	2627      	movs	r6, #39	@ 0x27
   22934:	4628      	mov	r0, r5
   22936:	4632      	mov	r2, r6
   22938:	f004 fb67 	bl	2700a <__aeabi_memcpy>
   2293c:	a80a      	add	r0, sp, #40	@ 0x28
   2293e:	2151      	movs	r1, #81	@ 0x51
   22940:	f004 f9b6 	bl	26cb0 <__aeabi_memclr4>
   22944:	4822      	ldr	r0, [pc, #136]	@ (229d0 <_ZN18complex_no_dynamic3app17ha83bdaa4e9a5c937E+0xa8>)
   22946:	2100      	movs	r1, #0
   22948:	462a      	mov	r2, r5
   2294a:	4633      	mov	r3, r6
   2294c:	df04      	svc	4
   2294e:	2802      	cmp	r0, #2
   22950:	d00e      	beq.n	22970 <_ZN18complex_no_dynamic3app17ha83bdaa4e9a5c937E+0x48>
   22952:	481f      	ldr	r0, [pc, #124]	@ (229d0 <_ZN18complex_no_dynamic3app17ha83bdaa4e9a5c937E+0xa8>)
   22954:	2104      	movs	r1, #4
   22956:	aa0a      	add	r2, sp, #40	@ 0x28
   22958:	2351      	movs	r3, #81	@ 0x51
   2295a:	df03      	svc	3
   2295c:	2802      	cmp	r0, #2
   2295e:	d007      	beq.n	22970 <_ZN18complex_no_dynamic3app17ha83bdaa4e9a5c937E+0x48>
   22960:	481b      	ldr	r0, [pc, #108]	@ (229d0 <_ZN18complex_no_dynamic3app17ha83bdaa4e9a5c937E+0xa8>)
   22962:	2204      	movs	r2, #4
   22964:	2500      	movs	r5, #0
   22966:	4629      	mov	r1, r5
   22968:	462b      	mov	r3, r5
   2296a:	df02      	svc	2
   2296c:	287f      	cmp	r0, #127	@ 0x7f
   2296e:	d810      	bhi.n	22992 <_ZN18complex_no_dynamic3app17ha83bdaa4e9a5c937E+0x6a>
   22970:	2001      	movs	r0, #1
   22972:	7020      	strb	r0, [r4, #0]
   22974:	6061      	str	r1, [r4, #4]
   22976:	4c16      	ldr	r4, [pc, #88]	@ (229d0 <_ZN18complex_no_dynamic3app17ha83bdaa4e9a5c937E+0xa8>)
   22978:	2104      	movs	r1, #4
   2297a:	2500      	movs	r5, #0
   2297c:	4620      	mov	r0, r4
   2297e:	462a      	mov	r2, r5
   22980:	462b      	mov	r3, r5
   22982:	df03      	svc	3
   22984:	4620      	mov	r0, r4
   22986:	4629      	mov	r1, r5
   22988:	462a      	mov	r2, r5
   2298a:	462b      	mov	r3, r5
   2298c:	df04      	svc	4
   2298e:	b01f      	add	sp, #124	@ 0x7c
   22990:	bdf0      	pop	{r4, r5, r6, r7, pc}
   22992:	480f      	ldr	r0, [pc, #60]	@ (229d0 <_ZN18complex_no_dynamic3app17ha83bdaa4e9a5c937E+0xa8>)
   22994:	2604      	movs	r6, #4
   22996:	4631      	mov	r1, r6
   22998:	462a      	mov	r2, r5
   2299a:	462b      	mov	r3, r5
   2299c:	df03      	svc	3
   2299e:	480c      	ldr	r0, [pc, #48]	@ (229d0 <_ZN18complex_no_dynamic3app17ha83bdaa4e9a5c937E+0xa8>)
   229a0:	4631      	mov	r1, r6
   229a2:	462a      	mov	r2, r5
   229a4:	462b      	mov	r3, r5
   229a6:	df03      	svc	3
   229a8:	1c60      	adds	r0, r4, #1
   229aa:	a90a      	add	r1, sp, #40	@ 0x28
   229ac:	2251      	movs	r2, #81	@ 0x51
   229ae:	f004 fb2c 	bl	2700a <__aeabi_memcpy>
   229b2:	7025      	strb	r5, [r4, #0]
   229b4:	4c06      	ldr	r4, [pc, #24]	@ (229d0 <_ZN18complex_no_dynamic3app17ha83bdaa4e9a5c937E+0xa8>)
   229b6:	4620      	mov	r0, r4
   229b8:	4631      	mov	r1, r6
   229ba:	462a      	mov	r2, r5
   229bc:	462b      	mov	r3, r5
   229be:	df03      	svc	3
   229c0:	4620      	mov	r0, r4
   229c2:	4629      	mov	r1, r5
   229c4:	462a      	mov	r2, r5
   229c6:	462b      	mov	r3, r5
   229c8:	df04      	svc	4
   229ca:	b01f      	add	sp, #124	@ 0x7c
   229cc:	bdf0      	pop	{r4, r5, r6, r7, pc}
   229ce:	46c0      	nop			@ (mov r8, r8)
   229d0:	00000a36 	.word	0x00000a36

000229d4 <_ZN18complex_no_dynamic3app17ha8842e87b17738a8E>:
   229d4:	b5f0      	push	{r4, r5, r6, r7, lr}
   229d6:	af03      	add	r7, sp, #12
   229d8:	b091      	sub	sp, #68	@ 0x44
   229da:	4604      	mov	r4, r0
   229dc:	466d      	mov	r5, sp
   229de:	261e      	movs	r6, #30
   229e0:	4628      	mov	r0, r5
   229e2:	4632      	mov	r2, r6
   229e4:	f004 fb11 	bl	2700a <__aeabi_memcpy>
   229e8:	a808      	add	r0, sp, #32
   229ea:	2121      	movs	r1, #33	@ 0x21
   229ec:	f004 f960 	bl	26cb0 <__aeabi_memclr4>
   229f0:	4822      	ldr	r0, [pc, #136]	@ (22a7c <_ZN18complex_no_dynamic3app17ha8842e87b17738a8E+0xa8>)
   229f2:	2106      	movs	r1, #6
   229f4:	462a      	mov	r2, r5
   229f6:	4633      	mov	r3, r6
   229f8:	df04      	svc	4
   229fa:	2802      	cmp	r0, #2
   229fc:	d00e      	beq.n	22a1c <_ZN18complex_no_dynamic3app17ha8842e87b17738a8E+0x48>
   229fe:	481f      	ldr	r0, [pc, #124]	@ (22a7c <_ZN18complex_no_dynamic3app17ha8842e87b17738a8E+0xa8>)
   22a00:	2109      	movs	r1, #9
   22a02:	aa08      	add	r2, sp, #32
   22a04:	2321      	movs	r3, #33	@ 0x21
   22a06:	df03      	svc	3
   22a08:	2802      	cmp	r0, #2
   22a0a:	d007      	beq.n	22a1c <_ZN18complex_no_dynamic3app17ha8842e87b17738a8E+0x48>
   22a0c:	481b      	ldr	r0, [pc, #108]	@ (22a7c <_ZN18complex_no_dynamic3app17ha8842e87b17738a8E+0xa8>)
   22a0e:	2106      	movs	r1, #6
   22a10:	2209      	movs	r2, #9
   22a12:	2500      	movs	r5, #0
   22a14:	462b      	mov	r3, r5
   22a16:	df02      	svc	2
   22a18:	287f      	cmp	r0, #127	@ 0x7f
   22a1a:	d810      	bhi.n	22a3e <_ZN18complex_no_dynamic3app17ha8842e87b17738a8E+0x6a>
   22a1c:	2001      	movs	r0, #1
   22a1e:	7020      	strb	r0, [r4, #0]
   22a20:	6061      	str	r1, [r4, #4]
   22a22:	4c16      	ldr	r4, [pc, #88]	@ (22a7c <_ZN18complex_no_dynamic3app17ha8842e87b17738a8E+0xa8>)
   22a24:	2109      	movs	r1, #9
   22a26:	2500      	movs	r5, #0
   22a28:	4620      	mov	r0, r4
   22a2a:	462a      	mov	r2, r5
   22a2c:	462b      	mov	r3, r5
   22a2e:	df03      	svc	3
   22a30:	2106      	movs	r1, #6
   22a32:	4620      	mov	r0, r4
   22a34:	462a      	mov	r2, r5
   22a36:	462b      	mov	r3, r5
   22a38:	df04      	svc	4
   22a3a:	b011      	add	sp, #68	@ 0x44
   22a3c:	bdf0      	pop	{r4, r5, r6, r7, pc}
   22a3e:	480f      	ldr	r0, [pc, #60]	@ (22a7c <_ZN18complex_no_dynamic3app17ha8842e87b17738a8E+0xa8>)
   22a40:	2609      	movs	r6, #9
   22a42:	4631      	mov	r1, r6
   22a44:	462a      	mov	r2, r5
   22a46:	462b      	mov	r3, r5
   22a48:	df03      	svc	3
   22a4a:	480c      	ldr	r0, [pc, #48]	@ (22a7c <_ZN18complex_no_dynamic3app17ha8842e87b17738a8E+0xa8>)
   22a4c:	4631      	mov	r1, r6
   22a4e:	462a      	mov	r2, r5
   22a50:	462b      	mov	r3, r5
   22a52:	df03      	svc	3
   22a54:	1c60      	adds	r0, r4, #1
   22a56:	a908      	add	r1, sp, #32
   22a58:	2221      	movs	r2, #33	@ 0x21
   22a5a:	f004 fad6 	bl	2700a <__aeabi_memcpy>
   22a5e:	7025      	strb	r5, [r4, #0]
   22a60:	4c06      	ldr	r4, [pc, #24]	@ (22a7c <_ZN18complex_no_dynamic3app17ha8842e87b17738a8E+0xa8>)
   22a62:	4620      	mov	r0, r4
   22a64:	4631      	mov	r1, r6
   22a66:	462a      	mov	r2, r5
   22a68:	462b      	mov	r3, r5
   22a6a:	df03      	svc	3
   22a6c:	2106      	movs	r1, #6
   22a6e:	4620      	mov	r0, r4
   22a70:	462a      	mov	r2, r5
   22a72:	462b      	mov	r3, r5
   22a74:	df04      	svc	4
   22a76:	b011      	add	sp, #68	@ 0x44
   22a78:	bdf0      	pop	{r4, r5, r6, r7, pc}
   22a7a:	46c0      	nop			@ (mov r8, r8)
   22a7c:	000019b5 	.word	0x000019b5

00022a80 <_ZN18complex_no_dynamic3app17ha88d2b092ef53f99E>:
   22a80:	b5f0      	push	{r4, r5, r6, r7, lr}
   22a82:	af03      	add	r7, sp, #12
   22a84:	b097      	sub	sp, #92	@ 0x5c
   22a86:	4604      	mov	r4, r0
   22a88:	466d      	mov	r5, sp
   22a8a:	263f      	movs	r6, #63	@ 0x3f
   22a8c:	4628      	mov	r0, r5
   22a8e:	4632      	mov	r2, r6
   22a90:	f004 fabb 	bl	2700a <__aeabi_memcpy>
   22a94:	2000      	movs	r0, #0
   22a96:	9016      	str	r0, [sp, #88]	@ 0x58
   22a98:	9015      	str	r0, [sp, #84]	@ 0x54
   22a9a:	9014      	str	r0, [sp, #80]	@ 0x50
   22a9c:	9013      	str	r0, [sp, #76]	@ 0x4c
   22a9e:	9012      	str	r0, [sp, #72]	@ 0x48
   22aa0:	9011      	str	r0, [sp, #68]	@ 0x44
   22aa2:	9010      	str	r0, [sp, #64]	@ 0x40
   22aa4:	4822      	ldr	r0, [pc, #136]	@ (22b30 <_ZN18complex_no_dynamic3app17ha88d2b092ef53f99E+0xb0>)
   22aa6:	2105      	movs	r1, #5
   22aa8:	462a      	mov	r2, r5
   22aaa:	4633      	mov	r3, r6
   22aac:	df04      	svc	4
   22aae:	2802      	cmp	r0, #2
   22ab0:	d00e      	beq.n	22ad0 <_ZN18complex_no_dynamic3app17ha88d2b092ef53f99E+0x50>
   22ab2:	481f      	ldr	r0, [pc, #124]	@ (22b30 <_ZN18complex_no_dynamic3app17ha88d2b092ef53f99E+0xb0>)
   22ab4:	2109      	movs	r1, #9
   22ab6:	aa10      	add	r2, sp, #64	@ 0x40
   22ab8:	231c      	movs	r3, #28
   22aba:	df03      	svc	3
   22abc:	2802      	cmp	r0, #2
   22abe:	d007      	beq.n	22ad0 <_ZN18complex_no_dynamic3app17ha88d2b092ef53f99E+0x50>
   22ac0:	481b      	ldr	r0, [pc, #108]	@ (22b30 <_ZN18complex_no_dynamic3app17ha88d2b092ef53f99E+0xb0>)
   22ac2:	2105      	movs	r1, #5
   22ac4:	2209      	movs	r2, #9
   22ac6:	2500      	movs	r5, #0
   22ac8:	462b      	mov	r3, r5
   22aca:	df02      	svc	2
   22acc:	287f      	cmp	r0, #127	@ 0x7f
   22ace:	d810      	bhi.n	22af2 <_ZN18complex_no_dynamic3app17ha88d2b092ef53f99E+0x72>
   22ad0:	2001      	movs	r0, #1
   22ad2:	7020      	strb	r0, [r4, #0]
   22ad4:	6061      	str	r1, [r4, #4]
   22ad6:	4c16      	ldr	r4, [pc, #88]	@ (22b30 <_ZN18complex_no_dynamic3app17ha88d2b092ef53f99E+0xb0>)
   22ad8:	2109      	movs	r1, #9
   22ada:	2500      	movs	r5, #0
   22adc:	4620      	mov	r0, r4
   22ade:	462a      	mov	r2, r5
   22ae0:	462b      	mov	r3, r5
   22ae2:	df03      	svc	3
   22ae4:	2105      	movs	r1, #5
   22ae6:	4620      	mov	r0, r4
   22ae8:	462a      	mov	r2, r5
   22aea:	462b      	mov	r3, r5
   22aec:	df04      	svc	4
   22aee:	b017      	add	sp, #92	@ 0x5c
   22af0:	bdf0      	pop	{r4, r5, r6, r7, pc}
   22af2:	480f      	ldr	r0, [pc, #60]	@ (22b30 <_ZN18complex_no_dynamic3app17ha88d2b092ef53f99E+0xb0>)
   22af4:	2609      	movs	r6, #9
   22af6:	4631      	mov	r1, r6
   22af8:	462a      	mov	r2, r5
   22afa:	462b      	mov	r3, r5
   22afc:	df03      	svc	3
   22afe:	480c      	ldr	r0, [pc, #48]	@ (22b30 <_ZN18complex_no_dynamic3app17ha88d2b092ef53f99E+0xb0>)
   22b00:	4631      	mov	r1, r6
   22b02:	462a      	mov	r2, r5
   22b04:	462b      	mov	r3, r5
   22b06:	df03      	svc	3
   22b08:	1c60      	adds	r0, r4, #1
   22b0a:	a910      	add	r1, sp, #64	@ 0x40
   22b0c:	221c      	movs	r2, #28
   22b0e:	f004 fa7c 	bl	2700a <__aeabi_memcpy>
   22b12:	7025      	strb	r5, [r4, #0]
   22b14:	4c06      	ldr	r4, [pc, #24]	@ (22b30 <_ZN18complex_no_dynamic3app17ha88d2b092ef53f99E+0xb0>)
   22b16:	4620      	mov	r0, r4
   22b18:	4631      	mov	r1, r6
   22b1a:	462a      	mov	r2, r5
   22b1c:	462b      	mov	r3, r5
   22b1e:	df03      	svc	3
   22b20:	2105      	movs	r1, #5
   22b22:	4620      	mov	r0, r4
   22b24:	462a      	mov	r2, r5
   22b26:	462b      	mov	r3, r5
   22b28:	df04      	svc	4
   22b2a:	b017      	add	sp, #92	@ 0x5c
   22b2c:	bdf0      	pop	{r4, r5, r6, r7, pc}
   22b2e:	46c0      	nop			@ (mov r8, r8)
   22b30:	00001694 	.word	0x00001694

00022b34 <_ZN18complex_no_dynamic3app17haa7b214dbb224f27E>:
   22b34:	b5f0      	push	{r4, r5, r6, r7, lr}
   22b36:	af03      	add	r7, sp, #12
   22b38:	b0a1      	sub	sp, #132	@ 0x84
   22b3a:	4604      	mov	r4, r0
   22b3c:	466d      	mov	r5, sp
   22b3e:	262d      	movs	r6, #45	@ 0x2d
   22b40:	4628      	mov	r0, r5
   22b42:	4632      	mov	r2, r6
   22b44:	f004 fa61 	bl	2700a <__aeabi_memcpy>
   22b48:	a80c      	add	r0, sp, #48	@ 0x30
   22b4a:	2153      	movs	r1, #83	@ 0x53
   22b4c:	f004 f8b0 	bl	26cb0 <__aeabi_memclr4>
   22b50:	4822      	ldr	r0, [pc, #136]	@ (22bdc <_ZN18complex_no_dynamic3app17haa7b214dbb224f27E+0xa8>)
   22b52:	2102      	movs	r1, #2
   22b54:	462a      	mov	r2, r5
   22b56:	4633      	mov	r3, r6
   22b58:	df04      	svc	4
   22b5a:	2802      	cmp	r0, #2
   22b5c:	d00e      	beq.n	22b7c <_ZN18complex_no_dynamic3app17haa7b214dbb224f27E+0x48>
   22b5e:	481f      	ldr	r0, [pc, #124]	@ (22bdc <_ZN18complex_no_dynamic3app17haa7b214dbb224f27E+0xa8>)
   22b60:	2107      	movs	r1, #7
   22b62:	aa0c      	add	r2, sp, #48	@ 0x30
   22b64:	2353      	movs	r3, #83	@ 0x53
   22b66:	df03      	svc	3
   22b68:	2802      	cmp	r0, #2
   22b6a:	d007      	beq.n	22b7c <_ZN18complex_no_dynamic3app17haa7b214dbb224f27E+0x48>
   22b6c:	481b      	ldr	r0, [pc, #108]	@ (22bdc <_ZN18complex_no_dynamic3app17haa7b214dbb224f27E+0xa8>)
   22b6e:	2102      	movs	r1, #2
   22b70:	2207      	movs	r2, #7
   22b72:	2500      	movs	r5, #0
   22b74:	462b      	mov	r3, r5
   22b76:	df02      	svc	2
   22b78:	287f      	cmp	r0, #127	@ 0x7f
   22b7a:	d810      	bhi.n	22b9e <_ZN18complex_no_dynamic3app17haa7b214dbb224f27E+0x6a>
   22b7c:	2001      	movs	r0, #1
   22b7e:	7020      	strb	r0, [r4, #0]
   22b80:	6061      	str	r1, [r4, #4]
   22b82:	4c16      	ldr	r4, [pc, #88]	@ (22bdc <_ZN18complex_no_dynamic3app17haa7b214dbb224f27E+0xa8>)
   22b84:	2107      	movs	r1, #7
   22b86:	2500      	movs	r5, #0
   22b88:	4620      	mov	r0, r4
   22b8a:	462a      	mov	r2, r5
   22b8c:	462b      	mov	r3, r5
   22b8e:	df03      	svc	3
   22b90:	2102      	movs	r1, #2
   22b92:	4620      	mov	r0, r4
   22b94:	462a      	mov	r2, r5
   22b96:	462b      	mov	r3, r5
   22b98:	df04      	svc	4
   22b9a:	b021      	add	sp, #132	@ 0x84
   22b9c:	bdf0      	pop	{r4, r5, r6, r7, pc}
   22b9e:	480f      	ldr	r0, [pc, #60]	@ (22bdc <_ZN18complex_no_dynamic3app17haa7b214dbb224f27E+0xa8>)
   22ba0:	2607      	movs	r6, #7
   22ba2:	4631      	mov	r1, r6
   22ba4:	462a      	mov	r2, r5
   22ba6:	462b      	mov	r3, r5
   22ba8:	df03      	svc	3
   22baa:	480c      	ldr	r0, [pc, #48]	@ (22bdc <_ZN18complex_no_dynamic3app17haa7b214dbb224f27E+0xa8>)
   22bac:	4631      	mov	r1, r6
   22bae:	462a      	mov	r2, r5
   22bb0:	462b      	mov	r3, r5
   22bb2:	df03      	svc	3
   22bb4:	1c60      	adds	r0, r4, #1
   22bb6:	a90c      	add	r1, sp, #48	@ 0x30
   22bb8:	2253      	movs	r2, #83	@ 0x53
   22bba:	f004 fa26 	bl	2700a <__aeabi_memcpy>
   22bbe:	7025      	strb	r5, [r4, #0]
   22bc0:	4c06      	ldr	r4, [pc, #24]	@ (22bdc <_ZN18complex_no_dynamic3app17haa7b214dbb224f27E+0xa8>)
   22bc2:	4620      	mov	r0, r4
   22bc4:	4631      	mov	r1, r6
   22bc6:	462a      	mov	r2, r5
   22bc8:	462b      	mov	r3, r5
   22bca:	df03      	svc	3
   22bcc:	2102      	movs	r1, #2
   22bce:	4620      	mov	r0, r4
   22bd0:	462a      	mov	r2, r5
   22bd2:	462b      	mov	r3, r5
   22bd4:	df04      	svc	4
   22bd6:	b021      	add	sp, #132	@ 0x84
   22bd8:	bdf0      	pop	{r4, r5, r6, r7, pc}
   22bda:	46c0      	nop			@ (mov r8, r8)
   22bdc:	00000ec3 	.word	0x00000ec3

00022be0 <_ZN18complex_no_dynamic3app17hab1f17957bca2439E>:
   22be0:	b5f0      	push	{r4, r5, r6, r7, lr}
   22be2:	af03      	add	r7, sp, #12
   22be4:	b0a9      	sub	sp, #164	@ 0xa4
   22be6:	4604      	mov	r4, r0
   22be8:	ad01      	add	r5, sp, #4
   22bea:	265d      	movs	r6, #93	@ 0x5d
   22bec:	4628      	mov	r0, r5
   22bee:	4632      	mov	r2, r6
   22bf0:	f004 fa0b 	bl	2700a <__aeabi_memcpy>
   22bf4:	a819      	add	r0, sp, #100	@ 0x64
   22bf6:	2140      	movs	r1, #64	@ 0x40
   22bf8:	f004 f85a 	bl	26cb0 <__aeabi_memclr4>
   22bfc:	4822      	ldr	r0, [pc, #136]	@ (22c88 <_ZN18complex_no_dynamic3app17hab1f17957bca2439E+0xa8>)
   22bfe:	2108      	movs	r1, #8
   22c00:	462a      	mov	r2, r5
   22c02:	4633      	mov	r3, r6
   22c04:	df04      	svc	4
   22c06:	2802      	cmp	r0, #2
   22c08:	d00e      	beq.n	22c28 <_ZN18complex_no_dynamic3app17hab1f17957bca2439E+0x48>
   22c0a:	481f      	ldr	r0, [pc, #124]	@ (22c88 <_ZN18complex_no_dynamic3app17hab1f17957bca2439E+0xa8>)
   22c0c:	2104      	movs	r1, #4
   22c0e:	aa19      	add	r2, sp, #100	@ 0x64
   22c10:	2340      	movs	r3, #64	@ 0x40
   22c12:	df03      	svc	3
   22c14:	2802      	cmp	r0, #2
   22c16:	d007      	beq.n	22c28 <_ZN18complex_no_dynamic3app17hab1f17957bca2439E+0x48>
   22c18:	481b      	ldr	r0, [pc, #108]	@ (22c88 <_ZN18complex_no_dynamic3app17hab1f17957bca2439E+0xa8>)
   22c1a:	2108      	movs	r1, #8
   22c1c:	2204      	movs	r2, #4
   22c1e:	2500      	movs	r5, #0
   22c20:	462b      	mov	r3, r5
   22c22:	df02      	svc	2
   22c24:	287f      	cmp	r0, #127	@ 0x7f
   22c26:	d810      	bhi.n	22c4a <_ZN18complex_no_dynamic3app17hab1f17957bca2439E+0x6a>
   22c28:	2001      	movs	r0, #1
   22c2a:	7020      	strb	r0, [r4, #0]
   22c2c:	6061      	str	r1, [r4, #4]
   22c2e:	4c16      	ldr	r4, [pc, #88]	@ (22c88 <_ZN18complex_no_dynamic3app17hab1f17957bca2439E+0xa8>)
   22c30:	2104      	movs	r1, #4
   22c32:	2500      	movs	r5, #0
   22c34:	4620      	mov	r0, r4
   22c36:	462a      	mov	r2, r5
   22c38:	462b      	mov	r3, r5
   22c3a:	df03      	svc	3
   22c3c:	2108      	movs	r1, #8
   22c3e:	4620      	mov	r0, r4
   22c40:	462a      	mov	r2, r5
   22c42:	462b      	mov	r3, r5
   22c44:	df04      	svc	4
   22c46:	b029      	add	sp, #164	@ 0xa4
   22c48:	bdf0      	pop	{r4, r5, r6, r7, pc}
   22c4a:	480f      	ldr	r0, [pc, #60]	@ (22c88 <_ZN18complex_no_dynamic3app17hab1f17957bca2439E+0xa8>)
   22c4c:	2604      	movs	r6, #4
   22c4e:	4631      	mov	r1, r6
   22c50:	462a      	mov	r2, r5
   22c52:	462b      	mov	r3, r5
   22c54:	df03      	svc	3
   22c56:	480c      	ldr	r0, [pc, #48]	@ (22c88 <_ZN18complex_no_dynamic3app17hab1f17957bca2439E+0xa8>)
   22c58:	4631      	mov	r1, r6
   22c5a:	462a      	mov	r2, r5
   22c5c:	462b      	mov	r3, r5
   22c5e:	df03      	svc	3
   22c60:	1c60      	adds	r0, r4, #1
   22c62:	a919      	add	r1, sp, #100	@ 0x64
   22c64:	2240      	movs	r2, #64	@ 0x40
   22c66:	f004 f9d0 	bl	2700a <__aeabi_memcpy>
   22c6a:	7025      	strb	r5, [r4, #0]
   22c6c:	4c06      	ldr	r4, [pc, #24]	@ (22c88 <_ZN18complex_no_dynamic3app17hab1f17957bca2439E+0xa8>)
   22c6e:	4620      	mov	r0, r4
   22c70:	4631      	mov	r1, r6
   22c72:	462a      	mov	r2, r5
   22c74:	462b      	mov	r3, r5
   22c76:	df03      	svc	3
   22c78:	2108      	movs	r1, #8
   22c7a:	4620      	mov	r0, r4
   22c7c:	462a      	mov	r2, r5
   22c7e:	462b      	mov	r3, r5
   22c80:	df04      	svc	4
   22c82:	b029      	add	sp, #164	@ 0xa4
   22c84:	bdf0      	pop	{r4, r5, r6, r7, pc}
   22c86:	46c0      	nop			@ (mov r8, r8)
   22c88:	00001028 	.word	0x00001028

00022c8c <_ZN18complex_no_dynamic3app17hb5a6f71c9681a3c3E>:
   22c8c:	b5f0      	push	{r4, r5, r6, r7, lr}
   22c8e:	af03      	add	r7, sp, #12
   22c90:	b099      	sub	sp, #100	@ 0x64
   22c92:	4604      	mov	r4, r0
   22c94:	466d      	mov	r5, sp
   22c96:	2634      	movs	r6, #52	@ 0x34
   22c98:	4628      	mov	r0, r5
   22c9a:	4632      	mov	r2, r6
   22c9c:	f004 f9b5 	bl	2700a <__aeabi_memcpy>
   22ca0:	a80d      	add	r0, sp, #52	@ 0x34
   22ca2:	212e      	movs	r1, #46	@ 0x2e
   22ca4:	f004 f804 	bl	26cb0 <__aeabi_memclr4>
   22ca8:	4822      	ldr	r0, [pc, #136]	@ (22d34 <_ZN18complex_no_dynamic3app17hb5a6f71c9681a3c3E+0xa8>)
   22caa:	2102      	movs	r1, #2
   22cac:	462a      	mov	r2, r5
   22cae:	4633      	mov	r3, r6
   22cb0:	df04      	svc	4
   22cb2:	2802      	cmp	r0, #2
   22cb4:	d00e      	beq.n	22cd4 <_ZN18complex_no_dynamic3app17hb5a6f71c9681a3c3E+0x48>
   22cb6:	481f      	ldr	r0, [pc, #124]	@ (22d34 <_ZN18complex_no_dynamic3app17hb5a6f71c9681a3c3E+0xa8>)
   22cb8:	2108      	movs	r1, #8
   22cba:	aa0d      	add	r2, sp, #52	@ 0x34
   22cbc:	232e      	movs	r3, #46	@ 0x2e
   22cbe:	df03      	svc	3
   22cc0:	2802      	cmp	r0, #2
   22cc2:	d007      	beq.n	22cd4 <_ZN18complex_no_dynamic3app17hb5a6f71c9681a3c3E+0x48>
   22cc4:	481b      	ldr	r0, [pc, #108]	@ (22d34 <_ZN18complex_no_dynamic3app17hb5a6f71c9681a3c3E+0xa8>)
   22cc6:	2102      	movs	r1, #2
   22cc8:	2208      	movs	r2, #8
   22cca:	2500      	movs	r5, #0
   22ccc:	462b      	mov	r3, r5
   22cce:	df02      	svc	2
   22cd0:	287f      	cmp	r0, #127	@ 0x7f
   22cd2:	d810      	bhi.n	22cf6 <_ZN18complex_no_dynamic3app17hb5a6f71c9681a3c3E+0x6a>
   22cd4:	2001      	movs	r0, #1
   22cd6:	7020      	strb	r0, [r4, #0]
   22cd8:	6061      	str	r1, [r4, #4]
   22cda:	4c16      	ldr	r4, [pc, #88]	@ (22d34 <_ZN18complex_no_dynamic3app17hb5a6f71c9681a3c3E+0xa8>)
   22cdc:	2108      	movs	r1, #8
   22cde:	2500      	movs	r5, #0
   22ce0:	4620      	mov	r0, r4
   22ce2:	462a      	mov	r2, r5
   22ce4:	462b      	mov	r3, r5
   22ce6:	df03      	svc	3
   22ce8:	2102      	movs	r1, #2
   22cea:	4620      	mov	r0, r4
   22cec:	462a      	mov	r2, r5
   22cee:	462b      	mov	r3, r5
   22cf0:	df04      	svc	4
   22cf2:	b019      	add	sp, #100	@ 0x64
   22cf4:	bdf0      	pop	{r4, r5, r6, r7, pc}
   22cf6:	480f      	ldr	r0, [pc, #60]	@ (22d34 <_ZN18complex_no_dynamic3app17hb5a6f71c9681a3c3E+0xa8>)
   22cf8:	2608      	movs	r6, #8
   22cfa:	4631      	mov	r1, r6
   22cfc:	462a      	mov	r2, r5
   22cfe:	462b      	mov	r3, r5
   22d00:	df03      	svc	3
   22d02:	480c      	ldr	r0, [pc, #48]	@ (22d34 <_ZN18complex_no_dynamic3app17hb5a6f71c9681a3c3E+0xa8>)
   22d04:	4631      	mov	r1, r6
   22d06:	462a      	mov	r2, r5
   22d08:	462b      	mov	r3, r5
   22d0a:	df03      	svc	3
   22d0c:	1c60      	adds	r0, r4, #1
   22d0e:	a90d      	add	r1, sp, #52	@ 0x34
   22d10:	222e      	movs	r2, #46	@ 0x2e
   22d12:	f004 f97a 	bl	2700a <__aeabi_memcpy>
   22d16:	7025      	strb	r5, [r4, #0]
   22d18:	4c06      	ldr	r4, [pc, #24]	@ (22d34 <_ZN18complex_no_dynamic3app17hb5a6f71c9681a3c3E+0xa8>)
   22d1a:	4620      	mov	r0, r4
   22d1c:	4631      	mov	r1, r6
   22d1e:	462a      	mov	r2, r5
   22d20:	462b      	mov	r3, r5
   22d22:	df03      	svc	3
   22d24:	2102      	movs	r1, #2
   22d26:	4620      	mov	r0, r4
   22d28:	462a      	mov	r2, r5
   22d2a:	462b      	mov	r3, r5
   22d2c:	df04      	svc	4
   22d2e:	b019      	add	sp, #100	@ 0x64
   22d30:	bdf0      	pop	{r4, r5, r6, r7, pc}
   22d32:	46c0      	nop			@ (mov r8, r8)
   22d34:	00000209 	.word	0x00000209

00022d38 <_ZN18complex_no_dynamic3app17hb89bffa5dcb40668E>:
   22d38:	b5f0      	push	{r4, r5, r6, r7, lr}
   22d3a:	af03      	add	r7, sp, #12
   22d3c:	b099      	sub	sp, #100	@ 0x64
   22d3e:	4604      	mov	r4, r0
   22d40:	466d      	mov	r5, sp
   22d42:	2611      	movs	r6, #17
   22d44:	4628      	mov	r0, r5
   22d46:	4632      	mov	r2, r6
   22d48:	f004 f95f 	bl	2700a <__aeabi_memcpy>
   22d4c:	a805      	add	r0, sp, #20
   22d4e:	2150      	movs	r1, #80	@ 0x50
   22d50:	f003 ffae 	bl	26cb0 <__aeabi_memclr4>
   22d54:	4822      	ldr	r0, [pc, #136]	@ (22de0 <_ZN18complex_no_dynamic3app17hb89bffa5dcb40668E+0xa8>)
   22d56:	2106      	movs	r1, #6
   22d58:	462a      	mov	r2, r5
   22d5a:	4633      	mov	r3, r6
   22d5c:	df04      	svc	4
   22d5e:	2802      	cmp	r0, #2
   22d60:	d00e      	beq.n	22d80 <_ZN18complex_no_dynamic3app17hb89bffa5dcb40668E+0x48>
   22d62:	481f      	ldr	r0, [pc, #124]	@ (22de0 <_ZN18complex_no_dynamic3app17hb89bffa5dcb40668E+0xa8>)
   22d64:	2105      	movs	r1, #5
   22d66:	aa05      	add	r2, sp, #20
   22d68:	2350      	movs	r3, #80	@ 0x50
   22d6a:	df03      	svc	3
   22d6c:	2802      	cmp	r0, #2
   22d6e:	d007      	beq.n	22d80 <_ZN18complex_no_dynamic3app17hb89bffa5dcb40668E+0x48>
   22d70:	481b      	ldr	r0, [pc, #108]	@ (22de0 <_ZN18complex_no_dynamic3app17hb89bffa5dcb40668E+0xa8>)
   22d72:	2106      	movs	r1, #6
   22d74:	2205      	movs	r2, #5
   22d76:	2500      	movs	r5, #0
   22d78:	462b      	mov	r3, r5
   22d7a:	df02      	svc	2
   22d7c:	287f      	cmp	r0, #127	@ 0x7f
   22d7e:	d810      	bhi.n	22da2 <_ZN18complex_no_dynamic3app17hb89bffa5dcb40668E+0x6a>
   22d80:	2001      	movs	r0, #1
   22d82:	7020      	strb	r0, [r4, #0]
   22d84:	6061      	str	r1, [r4, #4]
   22d86:	4c16      	ldr	r4, [pc, #88]	@ (22de0 <_ZN18complex_no_dynamic3app17hb89bffa5dcb40668E+0xa8>)
   22d88:	2105      	movs	r1, #5
   22d8a:	2500      	movs	r5, #0
   22d8c:	4620      	mov	r0, r4
   22d8e:	462a      	mov	r2, r5
   22d90:	462b      	mov	r3, r5
   22d92:	df03      	svc	3
   22d94:	2106      	movs	r1, #6
   22d96:	4620      	mov	r0, r4
   22d98:	462a      	mov	r2, r5
   22d9a:	462b      	mov	r3, r5
   22d9c:	df04      	svc	4
   22d9e:	b019      	add	sp, #100	@ 0x64
   22da0:	bdf0      	pop	{r4, r5, r6, r7, pc}
   22da2:	480f      	ldr	r0, [pc, #60]	@ (22de0 <_ZN18complex_no_dynamic3app17hb89bffa5dcb40668E+0xa8>)
   22da4:	2605      	movs	r6, #5
   22da6:	4631      	mov	r1, r6
   22da8:	462a      	mov	r2, r5
   22daa:	462b      	mov	r3, r5
   22dac:	df03      	svc	3
   22dae:	480c      	ldr	r0, [pc, #48]	@ (22de0 <_ZN18complex_no_dynamic3app17hb89bffa5dcb40668E+0xa8>)
   22db0:	4631      	mov	r1, r6
   22db2:	462a      	mov	r2, r5
   22db4:	462b      	mov	r3, r5
   22db6:	df03      	svc	3
   22db8:	1c60      	adds	r0, r4, #1
   22dba:	a905      	add	r1, sp, #20
   22dbc:	2250      	movs	r2, #80	@ 0x50
   22dbe:	f004 f924 	bl	2700a <__aeabi_memcpy>
   22dc2:	7025      	strb	r5, [r4, #0]
   22dc4:	4c06      	ldr	r4, [pc, #24]	@ (22de0 <_ZN18complex_no_dynamic3app17hb89bffa5dcb40668E+0xa8>)
   22dc6:	4620      	mov	r0, r4
   22dc8:	4631      	mov	r1, r6
   22dca:	462a      	mov	r2, r5
   22dcc:	462b      	mov	r3, r5
   22dce:	df03      	svc	3
   22dd0:	2106      	movs	r1, #6
   22dd2:	4620      	mov	r0, r4
   22dd4:	462a      	mov	r2, r5
   22dd6:	462b      	mov	r3, r5
   22dd8:	df04      	svc	4
   22dda:	b019      	add	sp, #100	@ 0x64
   22ddc:	bdf0      	pop	{r4, r5, r6, r7, pc}
   22dde:	46c0      	nop			@ (mov r8, r8)
   22de0:	00001aa9 	.word	0x00001aa9

00022de4 <_ZN18complex_no_dynamic3app17hb969a03286c184edE>:
   22de4:	b5f0      	push	{r4, r5, r6, r7, lr}
   22de6:	af03      	add	r7, sp, #12
   22de8:	b09d      	sub	sp, #116	@ 0x74
   22dea:	4604      	mov	r4, r0
   22dec:	ad01      	add	r5, sp, #4
   22dee:	263c      	movs	r6, #60	@ 0x3c
   22df0:	4628      	mov	r0, r5
   22df2:	4632      	mov	r2, r6
   22df4:	f004 f909 	bl	2700a <__aeabi_memcpy>
   22df8:	a810      	add	r0, sp, #64	@ 0x40
   22dfa:	2132      	movs	r1, #50	@ 0x32
   22dfc:	f003 ff58 	bl	26cb0 <__aeabi_memclr4>
   22e00:	4822      	ldr	r0, [pc, #136]	@ (22e8c <_ZN18complex_no_dynamic3app17hb969a03286c184edE+0xa8>)
   22e02:	2106      	movs	r1, #6
   22e04:	462a      	mov	r2, r5
   22e06:	4633      	mov	r3, r6
   22e08:	df04      	svc	4
   22e0a:	2802      	cmp	r0, #2
   22e0c:	d00e      	beq.n	22e2c <_ZN18complex_no_dynamic3app17hb969a03286c184edE+0x48>
   22e0e:	481f      	ldr	r0, [pc, #124]	@ (22e8c <_ZN18complex_no_dynamic3app17hb969a03286c184edE+0xa8>)
   22e10:	2108      	movs	r1, #8
   22e12:	aa10      	add	r2, sp, #64	@ 0x40
   22e14:	2332      	movs	r3, #50	@ 0x32
   22e16:	df03      	svc	3
   22e18:	2802      	cmp	r0, #2
   22e1a:	d007      	beq.n	22e2c <_ZN18complex_no_dynamic3app17hb969a03286c184edE+0x48>
   22e1c:	481b      	ldr	r0, [pc, #108]	@ (22e8c <_ZN18complex_no_dynamic3app17hb969a03286c184edE+0xa8>)
   22e1e:	2106      	movs	r1, #6
   22e20:	2208      	movs	r2, #8
   22e22:	2500      	movs	r5, #0
   22e24:	462b      	mov	r3, r5
   22e26:	df02      	svc	2
   22e28:	287f      	cmp	r0, #127	@ 0x7f
   22e2a:	d810      	bhi.n	22e4e <_ZN18complex_no_dynamic3app17hb969a03286c184edE+0x6a>
   22e2c:	2001      	movs	r0, #1
   22e2e:	7020      	strb	r0, [r4, #0]
   22e30:	6061      	str	r1, [r4, #4]
   22e32:	4c16      	ldr	r4, [pc, #88]	@ (22e8c <_ZN18complex_no_dynamic3app17hb969a03286c184edE+0xa8>)
   22e34:	2108      	movs	r1, #8
   22e36:	2500      	movs	r5, #0
   22e38:	4620      	mov	r0, r4
   22e3a:	462a      	mov	r2, r5
   22e3c:	462b      	mov	r3, r5
   22e3e:	df03      	svc	3
   22e40:	2106      	movs	r1, #6
   22e42:	4620      	mov	r0, r4
   22e44:	462a      	mov	r2, r5
   22e46:	462b      	mov	r3, r5
   22e48:	df04      	svc	4
   22e4a:	b01d      	add	sp, #116	@ 0x74
   22e4c:	bdf0      	pop	{r4, r5, r6, r7, pc}
   22e4e:	480f      	ldr	r0, [pc, #60]	@ (22e8c <_ZN18complex_no_dynamic3app17hb969a03286c184edE+0xa8>)
   22e50:	2608      	movs	r6, #8
   22e52:	4631      	mov	r1, r6
   22e54:	462a      	mov	r2, r5
   22e56:	462b      	mov	r3, r5
   22e58:	df03      	svc	3
   22e5a:	480c      	ldr	r0, [pc, #48]	@ (22e8c <_ZN18complex_no_dynamic3app17hb969a03286c184edE+0xa8>)
   22e5c:	4631      	mov	r1, r6
   22e5e:	462a      	mov	r2, r5
   22e60:	462b      	mov	r3, r5
   22e62:	df03      	svc	3
   22e64:	1c60      	adds	r0, r4, #1
   22e66:	a910      	add	r1, sp, #64	@ 0x40
   22e68:	2232      	movs	r2, #50	@ 0x32
   22e6a:	f004 f8ce 	bl	2700a <__aeabi_memcpy>
   22e6e:	7025      	strb	r5, [r4, #0]
   22e70:	4c06      	ldr	r4, [pc, #24]	@ (22e8c <_ZN18complex_no_dynamic3app17hb969a03286c184edE+0xa8>)
   22e72:	4620      	mov	r0, r4
   22e74:	4631      	mov	r1, r6
   22e76:	462a      	mov	r2, r5
   22e78:	462b      	mov	r3, r5
   22e7a:	df03      	svc	3
   22e7c:	2106      	movs	r1, #6
   22e7e:	4620      	mov	r0, r4
   22e80:	462a      	mov	r2, r5
   22e82:	462b      	mov	r3, r5
   22e84:	df04      	svc	4
   22e86:	b01d      	add	sp, #116	@ 0x74
   22e88:	bdf0      	pop	{r4, r5, r6, r7, pc}
   22e8a:	46c0      	nop			@ (mov r8, r8)
   22e8c:	00001b1e 	.word	0x00001b1e

00022e90 <_ZN18complex_no_dynamic3app17hb9aa78dfe115763dE>:
   22e90:	b5f0      	push	{r4, r5, r6, r7, lr}
   22e92:	af03      	add	r7, sp, #12
   22e94:	b09d      	sub	sp, #116	@ 0x74
   22e96:	4604      	mov	r4, r0
   22e98:	466d      	mov	r5, sp
   22e9a:	2640      	movs	r6, #64	@ 0x40
   22e9c:	4628      	mov	r0, r5
   22e9e:	4632      	mov	r2, r6
   22ea0:	f004 f8b3 	bl	2700a <__aeabi_memcpy>
   22ea4:	a810      	add	r0, sp, #64	@ 0x40
   22ea6:	2131      	movs	r1, #49	@ 0x31
   22ea8:	f003 ff02 	bl	26cb0 <__aeabi_memclr4>
   22eac:	4822      	ldr	r0, [pc, #136]	@ (22f38 <_ZN18complex_no_dynamic3app17hb9aa78dfe115763dE+0xa8>)
   22eae:	2108      	movs	r1, #8
   22eb0:	462a      	mov	r2, r5
   22eb2:	4633      	mov	r3, r6
   22eb4:	df04      	svc	4
   22eb6:	2802      	cmp	r0, #2
   22eb8:	d00e      	beq.n	22ed8 <_ZN18complex_no_dynamic3app17hb9aa78dfe115763dE+0x48>
   22eba:	481f      	ldr	r0, [pc, #124]	@ (22f38 <_ZN18complex_no_dynamic3app17hb9aa78dfe115763dE+0xa8>)
   22ebc:	2105      	movs	r1, #5
   22ebe:	aa10      	add	r2, sp, #64	@ 0x40
   22ec0:	2331      	movs	r3, #49	@ 0x31
   22ec2:	df03      	svc	3
   22ec4:	2802      	cmp	r0, #2
   22ec6:	d007      	beq.n	22ed8 <_ZN18complex_no_dynamic3app17hb9aa78dfe115763dE+0x48>
   22ec8:	481b      	ldr	r0, [pc, #108]	@ (22f38 <_ZN18complex_no_dynamic3app17hb9aa78dfe115763dE+0xa8>)
   22eca:	2108      	movs	r1, #8
   22ecc:	2205      	movs	r2, #5
   22ece:	2500      	movs	r5, #0
   22ed0:	462b      	mov	r3, r5
   22ed2:	df02      	svc	2
   22ed4:	287f      	cmp	r0, #127	@ 0x7f
   22ed6:	d810      	bhi.n	22efa <_ZN18complex_no_dynamic3app17hb9aa78dfe115763dE+0x6a>
   22ed8:	2001      	movs	r0, #1
   22eda:	7020      	strb	r0, [r4, #0]
   22edc:	6061      	str	r1, [r4, #4]
   22ede:	4c16      	ldr	r4, [pc, #88]	@ (22f38 <_ZN18complex_no_dynamic3app17hb9aa78dfe115763dE+0xa8>)
   22ee0:	2105      	movs	r1, #5
   22ee2:	2500      	movs	r5, #0
   22ee4:	4620      	mov	r0, r4
   22ee6:	462a      	mov	r2, r5
   22ee8:	462b      	mov	r3, r5
   22eea:	df03      	svc	3
   22eec:	2108      	movs	r1, #8
   22eee:	4620      	mov	r0, r4
   22ef0:	462a      	mov	r2, r5
   22ef2:	462b      	mov	r3, r5
   22ef4:	df04      	svc	4
   22ef6:	b01d      	add	sp, #116	@ 0x74
   22ef8:	bdf0      	pop	{r4, r5, r6, r7, pc}
   22efa:	480f      	ldr	r0, [pc, #60]	@ (22f38 <_ZN18complex_no_dynamic3app17hb9aa78dfe115763dE+0xa8>)
   22efc:	2605      	movs	r6, #5
   22efe:	4631      	mov	r1, r6
   22f00:	462a      	mov	r2, r5
   22f02:	462b      	mov	r3, r5
   22f04:	df03      	svc	3
   22f06:	480c      	ldr	r0, [pc, #48]	@ (22f38 <_ZN18complex_no_dynamic3app17hb9aa78dfe115763dE+0xa8>)
   22f08:	4631      	mov	r1, r6
   22f0a:	462a      	mov	r2, r5
   22f0c:	462b      	mov	r3, r5
   22f0e:	df03      	svc	3
   22f10:	1c60      	adds	r0, r4, #1
   22f12:	a910      	add	r1, sp, #64	@ 0x40
   22f14:	2231      	movs	r2, #49	@ 0x31
   22f16:	f004 f878 	bl	2700a <__aeabi_memcpy>
   22f1a:	7025      	strb	r5, [r4, #0]
   22f1c:	4c06      	ldr	r4, [pc, #24]	@ (22f38 <_ZN18complex_no_dynamic3app17hb9aa78dfe115763dE+0xa8>)
   22f1e:	4620      	mov	r0, r4
   22f20:	4631      	mov	r1, r6
   22f22:	462a      	mov	r2, r5
   22f24:	462b      	mov	r3, r5
   22f26:	df03      	svc	3
   22f28:	2108      	movs	r1, #8
   22f2a:	4620      	mov	r0, r4
   22f2c:	462a      	mov	r2, r5
   22f2e:	462b      	mov	r3, r5
   22f30:	df04      	svc	4
   22f32:	b01d      	add	sp, #116	@ 0x74
   22f34:	bdf0      	pop	{r4, r5, r6, r7, pc}
   22f36:	46c0      	nop			@ (mov r8, r8)
   22f38:	00000fce 	.word	0x00000fce

00022f3c <_ZN18complex_no_dynamic3app17hbc8d1b53733e91eeE>:
   22f3c:	b5f0      	push	{r4, r5, r6, r7, lr}
   22f3e:	af03      	add	r7, sp, #12
   22f40:	b097      	sub	sp, #92	@ 0x5c
   22f42:	4604      	mov	r4, r0
   22f44:	ad01      	add	r5, sp, #4
   22f46:	260f      	movs	r6, #15
   22f48:	4628      	mov	r0, r5
   22f4a:	4632      	mov	r2, r6
   22f4c:	f004 f85d 	bl	2700a <__aeabi_memcpy>
   22f50:	a805      	add	r0, sp, #20
   22f52:	2146      	movs	r1, #70	@ 0x46
   22f54:	f003 feac 	bl	26cb0 <__aeabi_memclr4>
   22f58:	4822      	ldr	r0, [pc, #136]	@ (22fe4 <_ZN18complex_no_dynamic3app17hbc8d1b53733e91eeE+0xa8>)
   22f5a:	2109      	movs	r1, #9
   22f5c:	462a      	mov	r2, r5
   22f5e:	4633      	mov	r3, r6
   22f60:	df04      	svc	4
   22f62:	2802      	cmp	r0, #2
   22f64:	d00e      	beq.n	22f84 <_ZN18complex_no_dynamic3app17hbc8d1b53733e91eeE+0x48>
   22f66:	481f      	ldr	r0, [pc, #124]	@ (22fe4 <_ZN18complex_no_dynamic3app17hbc8d1b53733e91eeE+0xa8>)
   22f68:	2102      	movs	r1, #2
   22f6a:	aa05      	add	r2, sp, #20
   22f6c:	2346      	movs	r3, #70	@ 0x46
   22f6e:	df03      	svc	3
   22f70:	2802      	cmp	r0, #2
   22f72:	d007      	beq.n	22f84 <_ZN18complex_no_dynamic3app17hbc8d1b53733e91eeE+0x48>
   22f74:	481b      	ldr	r0, [pc, #108]	@ (22fe4 <_ZN18complex_no_dynamic3app17hbc8d1b53733e91eeE+0xa8>)
   22f76:	2109      	movs	r1, #9
   22f78:	2202      	movs	r2, #2
   22f7a:	2500      	movs	r5, #0
   22f7c:	462b      	mov	r3, r5
   22f7e:	df02      	svc	2
   22f80:	287f      	cmp	r0, #127	@ 0x7f
   22f82:	d810      	bhi.n	22fa6 <_ZN18complex_no_dynamic3app17hbc8d1b53733e91eeE+0x6a>
   22f84:	2001      	movs	r0, #1
   22f86:	7020      	strb	r0, [r4, #0]
   22f88:	6061      	str	r1, [r4, #4]
   22f8a:	4c16      	ldr	r4, [pc, #88]	@ (22fe4 <_ZN18complex_no_dynamic3app17hbc8d1b53733e91eeE+0xa8>)
   22f8c:	2102      	movs	r1, #2
   22f8e:	2500      	movs	r5, #0
   22f90:	4620      	mov	r0, r4
   22f92:	462a      	mov	r2, r5
   22f94:	462b      	mov	r3, r5
   22f96:	df03      	svc	3
   22f98:	2109      	movs	r1, #9
   22f9a:	4620      	mov	r0, r4
   22f9c:	462a      	mov	r2, r5
   22f9e:	462b      	mov	r3, r5
   22fa0:	df04      	svc	4
   22fa2:	b017      	add	sp, #92	@ 0x5c
   22fa4:	bdf0      	pop	{r4, r5, r6, r7, pc}
   22fa6:	480f      	ldr	r0, [pc, #60]	@ (22fe4 <_ZN18complex_no_dynamic3app17hbc8d1b53733e91eeE+0xa8>)
   22fa8:	2602      	movs	r6, #2
   22faa:	4631      	mov	r1, r6
   22fac:	462a      	mov	r2, r5
   22fae:	462b      	mov	r3, r5
   22fb0:	df03      	svc	3
   22fb2:	480c      	ldr	r0, [pc, #48]	@ (22fe4 <_ZN18complex_no_dynamic3app17hbc8d1b53733e91eeE+0xa8>)
   22fb4:	4631      	mov	r1, r6
   22fb6:	462a      	mov	r2, r5
   22fb8:	462b      	mov	r3, r5
   22fba:	df03      	svc	3
   22fbc:	1c60      	adds	r0, r4, #1
   22fbe:	a905      	add	r1, sp, #20
   22fc0:	2246      	movs	r2, #70	@ 0x46
   22fc2:	f004 f822 	bl	2700a <__aeabi_memcpy>
   22fc6:	7025      	strb	r5, [r4, #0]
   22fc8:	4c06      	ldr	r4, [pc, #24]	@ (22fe4 <_ZN18complex_no_dynamic3app17hbc8d1b53733e91eeE+0xa8>)
   22fca:	4620      	mov	r0, r4
   22fcc:	4631      	mov	r1, r6
   22fce:	462a      	mov	r2, r5
   22fd0:	462b      	mov	r3, r5
   22fd2:	df03      	svc	3
   22fd4:	2109      	movs	r1, #9
   22fd6:	4620      	mov	r0, r4
   22fd8:	462a      	mov	r2, r5
   22fda:	462b      	mov	r3, r5
   22fdc:	df04      	svc	4
   22fde:	b017      	add	sp, #92	@ 0x5c
   22fe0:	bdf0      	pop	{r4, r5, r6, r7, pc}
   22fe2:	46c0      	nop			@ (mov r8, r8)
   22fe4:	00001d7e 	.word	0x00001d7e

00022fe8 <_ZN18complex_no_dynamic3app17hbc9c8abcf1cda53eE>:
   22fe8:	b5f0      	push	{r4, r5, r6, r7, lr}
   22fea:	af03      	add	r7, sp, #12
   22fec:	b095      	sub	sp, #84	@ 0x54
   22fee:	4604      	mov	r4, r0
   22ff0:	466d      	mov	r5, sp
   22ff2:	2624      	movs	r6, #36	@ 0x24
   22ff4:	4628      	mov	r0, r5
   22ff6:	4632      	mov	r2, r6
   22ff8:	f004 f807 	bl	2700a <__aeabi_memcpy>
   22ffc:	a809      	add	r0, sp, #36	@ 0x24
   22ffe:	212f      	movs	r1, #47	@ 0x2f
   23000:	f003 fe56 	bl	26cb0 <__aeabi_memclr4>
   23004:	4822      	ldr	r0, [pc, #136]	@ (23090 <_ZN18complex_no_dynamic3app17hbc9c8abcf1cda53eE+0xa8>)
   23006:	2106      	movs	r1, #6
   23008:	462a      	mov	r2, r5
   2300a:	4633      	mov	r3, r6
   2300c:	df04      	svc	4
   2300e:	2802      	cmp	r0, #2
   23010:	d00e      	beq.n	23030 <_ZN18complex_no_dynamic3app17hbc9c8abcf1cda53eE+0x48>
   23012:	481f      	ldr	r0, [pc, #124]	@ (23090 <_ZN18complex_no_dynamic3app17hbc9c8abcf1cda53eE+0xa8>)
   23014:	2109      	movs	r1, #9
   23016:	aa09      	add	r2, sp, #36	@ 0x24
   23018:	232f      	movs	r3, #47	@ 0x2f
   2301a:	df03      	svc	3
   2301c:	2802      	cmp	r0, #2
   2301e:	d007      	beq.n	23030 <_ZN18complex_no_dynamic3app17hbc9c8abcf1cda53eE+0x48>
   23020:	481b      	ldr	r0, [pc, #108]	@ (23090 <_ZN18complex_no_dynamic3app17hbc9c8abcf1cda53eE+0xa8>)
   23022:	2106      	movs	r1, #6
   23024:	2209      	movs	r2, #9
   23026:	2500      	movs	r5, #0
   23028:	462b      	mov	r3, r5
   2302a:	df02      	svc	2
   2302c:	287f      	cmp	r0, #127	@ 0x7f
   2302e:	d810      	bhi.n	23052 <_ZN18complex_no_dynamic3app17hbc9c8abcf1cda53eE+0x6a>
   23030:	2001      	movs	r0, #1
   23032:	7020      	strb	r0, [r4, #0]
   23034:	6061      	str	r1, [r4, #4]
   23036:	4c16      	ldr	r4, [pc, #88]	@ (23090 <_ZN18complex_no_dynamic3app17hbc9c8abcf1cda53eE+0xa8>)
   23038:	2109      	movs	r1, #9
   2303a:	2500      	movs	r5, #0
   2303c:	4620      	mov	r0, r4
   2303e:	462a      	mov	r2, r5
   23040:	462b      	mov	r3, r5
   23042:	df03      	svc	3
   23044:	2106      	movs	r1, #6
   23046:	4620      	mov	r0, r4
   23048:	462a      	mov	r2, r5
   2304a:	462b      	mov	r3, r5
   2304c:	df04      	svc	4
   2304e:	b015      	add	sp, #84	@ 0x54
   23050:	bdf0      	pop	{r4, r5, r6, r7, pc}
   23052:	480f      	ldr	r0, [pc, #60]	@ (23090 <_ZN18complex_no_dynamic3app17hbc9c8abcf1cda53eE+0xa8>)
   23054:	2609      	movs	r6, #9
   23056:	4631      	mov	r1, r6
   23058:	462a      	mov	r2, r5
   2305a:	462b      	mov	r3, r5
   2305c:	df03      	svc	3
   2305e:	480c      	ldr	r0, [pc, #48]	@ (23090 <_ZN18complex_no_dynamic3app17hbc9c8abcf1cda53eE+0xa8>)
   23060:	4631      	mov	r1, r6
   23062:	462a      	mov	r2, r5
   23064:	462b      	mov	r3, r5
   23066:	df03      	svc	3
   23068:	1c60      	adds	r0, r4, #1
   2306a:	a909      	add	r1, sp, #36	@ 0x24
   2306c:	222f      	movs	r2, #47	@ 0x2f
   2306e:	f003 ffcc 	bl	2700a <__aeabi_memcpy>
   23072:	7025      	strb	r5, [r4, #0]
   23074:	4c06      	ldr	r4, [pc, #24]	@ (23090 <_ZN18complex_no_dynamic3app17hbc9c8abcf1cda53eE+0xa8>)
   23076:	4620      	mov	r0, r4
   23078:	4631      	mov	r1, r6
   2307a:	462a      	mov	r2, r5
   2307c:	462b      	mov	r3, r5
   2307e:	df03      	svc	3
   23080:	2106      	movs	r1, #6
   23082:	4620      	mov	r0, r4
   23084:	462a      	mov	r2, r5
   23086:	462b      	mov	r3, r5
   23088:	df04      	svc	4
   2308a:	b015      	add	sp, #84	@ 0x54
   2308c:	bdf0      	pop	{r4, r5, r6, r7, pc}
   2308e:	46c0      	nop			@ (mov r8, r8)
   23090:	00001273 	.word	0x00001273

00023094 <_ZN18complex_no_dynamic3app17hbedf91ccdfc41f6eE>:
   23094:	b5f0      	push	{r4, r5, r6, r7, lr}
   23096:	af03      	add	r7, sp, #12
   23098:	b0a3      	sub	sp, #140	@ 0x8c
   2309a:	9001      	str	r0, [sp, #4]
   2309c:	ae02      	add	r6, sp, #8
   2309e:	2461      	movs	r4, #97	@ 0x61
   230a0:	4630      	mov	r0, r6
   230a2:	4622      	mov	r2, r4
   230a4:	f003 ffb1 	bl	2700a <__aeabi_memcpy>
   230a8:	a81b      	add	r0, sp, #108	@ 0x6c
   230aa:	2100      	movs	r1, #0
   230ac:	8381      	strh	r1, [r0, #28]
   230ae:	9121      	str	r1, [sp, #132]	@ 0x84
   230b0:	9120      	str	r1, [sp, #128]	@ 0x80
   230b2:	911f      	str	r1, [sp, #124]	@ 0x7c
   230b4:	911e      	str	r1, [sp, #120]	@ 0x78
   230b6:	911d      	str	r1, [sp, #116]	@ 0x74
   230b8:	911c      	str	r1, [sp, #112]	@ 0x70
   230ba:	911b      	str	r1, [sp, #108]	@ 0x6c
   230bc:	2031      	movs	r0, #49	@ 0x31
   230be:	00c5      	lsls	r5, r0, #3
   230c0:	2104      	movs	r1, #4
   230c2:	4628      	mov	r0, r5
   230c4:	4632      	mov	r2, r6
   230c6:	4623      	mov	r3, r4
   230c8:	df04      	svc	4
   230ca:	2802      	cmp	r0, #2
   230cc:	d00e      	beq.n	230ec <_ZN18complex_no_dynamic3app17hbedf91ccdfc41f6eE+0x58>
   230ce:	2106      	movs	r1, #6
   230d0:	aa1b      	add	r2, sp, #108	@ 0x6c
   230d2:	231e      	movs	r3, #30
   230d4:	4628      	mov	r0, r5
   230d6:	df03      	svc	3
   230d8:	2802      	cmp	r0, #2
   230da:	d007      	beq.n	230ec <_ZN18complex_no_dynamic3app17hbedf91ccdfc41f6eE+0x58>
   230dc:	2104      	movs	r1, #4
   230de:	2206      	movs	r2, #6
   230e0:	2600      	movs	r6, #0
   230e2:	4628      	mov	r0, r5
   230e4:	4633      	mov	r3, r6
   230e6:	df02      	svc	2
   230e8:	287f      	cmp	r0, #127	@ 0x7f
   230ea:	d810      	bhi.n	2310e <_ZN18complex_no_dynamic3app17hbedf91ccdfc41f6eE+0x7a>
   230ec:	2001      	movs	r0, #1
   230ee:	9a01      	ldr	r2, [sp, #4]
   230f0:	7010      	strb	r0, [r2, #0]
   230f2:	6051      	str	r1, [r2, #4]
   230f4:	2106      	movs	r1, #6
   230f6:	2400      	movs	r4, #0
   230f8:	4628      	mov	r0, r5
   230fa:	4622      	mov	r2, r4
   230fc:	4623      	mov	r3, r4
   230fe:	df03      	svc	3
   23100:	2104      	movs	r1, #4
   23102:	4628      	mov	r0, r5
   23104:	4622      	mov	r2, r4
   23106:	4623      	mov	r3, r4
   23108:	df04      	svc	4
   2310a:	b023      	add	sp, #140	@ 0x8c
   2310c:	bdf0      	pop	{r4, r5, r6, r7, pc}
   2310e:	2406      	movs	r4, #6
   23110:	9400      	str	r4, [sp, #0]
   23112:	4628      	mov	r0, r5
   23114:	4621      	mov	r1, r4
   23116:	4632      	mov	r2, r6
   23118:	4633      	mov	r3, r6
   2311a:	df03      	svc	3
   2311c:	4628      	mov	r0, r5
   2311e:	4621      	mov	r1, r4
   23120:	4632      	mov	r2, r6
   23122:	4633      	mov	r3, r6
   23124:	df03      	svc	3
   23126:	9c01      	ldr	r4, [sp, #4]
   23128:	1c60      	adds	r0, r4, #1
   2312a:	a91b      	add	r1, sp, #108	@ 0x6c
   2312c:	221e      	movs	r2, #30
   2312e:	f003 ff6c 	bl	2700a <__aeabi_memcpy>
   23132:	7026      	strb	r6, [r4, #0]
   23134:	4628      	mov	r0, r5
   23136:	9900      	ldr	r1, [sp, #0]
   23138:	4632      	mov	r2, r6
   2313a:	4633      	mov	r3, r6
   2313c:	df03      	svc	3
   2313e:	2104      	movs	r1, #4
   23140:	4628      	mov	r0, r5
   23142:	4632      	mov	r2, r6
   23144:	4633      	mov	r3, r6
   23146:	df04      	svc	4
   23148:	b023      	add	sp, #140	@ 0x8c
   2314a:	bdf0      	pop	{r4, r5, r6, r7, pc}

0002314c <_ZN18complex_no_dynamic3app17hc49012bb0d6c9191E>:
   2314c:	b5f0      	push	{r4, r5, r6, r7, lr}
   2314e:	af03      	add	r7, sp, #12
   23150:	b0a3      	sub	sp, #140	@ 0x8c
   23152:	4604      	mov	r4, r0
   23154:	466d      	mov	r5, sp
   23156:	264f      	movs	r6, #79	@ 0x4f
   23158:	4628      	mov	r0, r5
   2315a:	4632      	mov	r2, r6
   2315c:	f003 ff55 	bl	2700a <__aeabi_memcpy>
   23160:	a814      	add	r0, sp, #80	@ 0x50
   23162:	213b      	movs	r1, #59	@ 0x3b
   23164:	f003 fda4 	bl	26cb0 <__aeabi_memclr4>
   23168:	4822      	ldr	r0, [pc, #136]	@ (231f4 <_ZN18complex_no_dynamic3app17hc49012bb0d6c9191E+0xa8>)
   2316a:	2108      	movs	r1, #8
   2316c:	462a      	mov	r2, r5
   2316e:	4633      	mov	r3, r6
   23170:	df04      	svc	4
   23172:	2802      	cmp	r0, #2
   23174:	d00e      	beq.n	23194 <_ZN18complex_no_dynamic3app17hc49012bb0d6c9191E+0x48>
   23176:	481f      	ldr	r0, [pc, #124]	@ (231f4 <_ZN18complex_no_dynamic3app17hc49012bb0d6c9191E+0xa8>)
   23178:	2105      	movs	r1, #5
   2317a:	aa14      	add	r2, sp, #80	@ 0x50
   2317c:	233b      	movs	r3, #59	@ 0x3b
   2317e:	df03      	svc	3
   23180:	2802      	cmp	r0, #2
   23182:	d007      	beq.n	23194 <_ZN18complex_no_dynamic3app17hc49012bb0d6c9191E+0x48>
   23184:	481b      	ldr	r0, [pc, #108]	@ (231f4 <_ZN18complex_no_dynamic3app17hc49012bb0d6c9191E+0xa8>)
   23186:	2108      	movs	r1, #8
   23188:	2205      	movs	r2, #5
   2318a:	2500      	movs	r5, #0
   2318c:	462b      	mov	r3, r5
   2318e:	df02      	svc	2
   23190:	287f      	cmp	r0, #127	@ 0x7f
   23192:	d810      	bhi.n	231b6 <_ZN18complex_no_dynamic3app17hc49012bb0d6c9191E+0x6a>
   23194:	2001      	movs	r0, #1
   23196:	7020      	strb	r0, [r4, #0]
   23198:	6061      	str	r1, [r4, #4]
   2319a:	4c16      	ldr	r4, [pc, #88]	@ (231f4 <_ZN18complex_no_dynamic3app17hc49012bb0d6c9191E+0xa8>)
   2319c:	2105      	movs	r1, #5
   2319e:	2500      	movs	r5, #0
   231a0:	4620      	mov	r0, r4
   231a2:	462a      	mov	r2, r5
   231a4:	462b      	mov	r3, r5
   231a6:	df03      	svc	3
   231a8:	2108      	movs	r1, #8
   231aa:	4620      	mov	r0, r4
   231ac:	462a      	mov	r2, r5
   231ae:	462b      	mov	r3, r5
   231b0:	df04      	svc	4
   231b2:	b023      	add	sp, #140	@ 0x8c
   231b4:	bdf0      	pop	{r4, r5, r6, r7, pc}
   231b6:	480f      	ldr	r0, [pc, #60]	@ (231f4 <_ZN18complex_no_dynamic3app17hc49012bb0d6c9191E+0xa8>)
   231b8:	2605      	movs	r6, #5
   231ba:	4631      	mov	r1, r6
   231bc:	462a      	mov	r2, r5
   231be:	462b      	mov	r3, r5
   231c0:	df03      	svc	3
   231c2:	480c      	ldr	r0, [pc, #48]	@ (231f4 <_ZN18complex_no_dynamic3app17hc49012bb0d6c9191E+0xa8>)
   231c4:	4631      	mov	r1, r6
   231c6:	462a      	mov	r2, r5
   231c8:	462b      	mov	r3, r5
   231ca:	df03      	svc	3
   231cc:	1c60      	adds	r0, r4, #1
   231ce:	a914      	add	r1, sp, #80	@ 0x50
   231d0:	223b      	movs	r2, #59	@ 0x3b
   231d2:	f003 ff1a 	bl	2700a <__aeabi_memcpy>
   231d6:	7025      	strb	r5, [r4, #0]
   231d8:	4c06      	ldr	r4, [pc, #24]	@ (231f4 <_ZN18complex_no_dynamic3app17hc49012bb0d6c9191E+0xa8>)
   231da:	4620      	mov	r0, r4
   231dc:	4631      	mov	r1, r6
   231de:	462a      	mov	r2, r5
   231e0:	462b      	mov	r3, r5
   231e2:	df03      	svc	3
   231e4:	2108      	movs	r1, #8
   231e6:	4620      	mov	r0, r4
   231e8:	462a      	mov	r2, r5
   231ea:	462b      	mov	r3, r5
   231ec:	df04      	svc	4
   231ee:	b023      	add	sp, #140	@ 0x8c
   231f0:	bdf0      	pop	{r4, r5, r6, r7, pc}
   231f2:	46c0      	nop			@ (mov r8, r8)
   231f4:	00000a06 	.word	0x00000a06

000231f8 <_ZN18complex_no_dynamic3app17hc4d574f32add8096E>:
   231f8:	b5f0      	push	{r4, r5, r6, r7, lr}
   231fa:	af03      	add	r7, sp, #12
   231fc:	b09b      	sub	sp, #108	@ 0x6c
   231fe:	9002      	str	r0, [sp, #8]
   23200:	ae03      	add	r6, sp, #12
   23202:	241b      	movs	r4, #27
   23204:	4630      	mov	r0, r6
   23206:	4622      	mov	r2, r4
   23208:	f003 feff 	bl	2700a <__aeabi_memcpy>
   2320c:	a80a      	add	r0, sp, #40	@ 0x28
   2320e:	2141      	movs	r1, #65	@ 0x41
   23210:	f003 fd4e 	bl	26cb0 <__aeabi_memclr4>
   23214:	2005      	movs	r0, #5
   23216:	0185      	lsls	r5, r0, #6
   23218:	2108      	movs	r1, #8
   2321a:	4628      	mov	r0, r5
   2321c:	4632      	mov	r2, r6
   2321e:	4623      	mov	r3, r4
   23220:	df04      	svc	4
   23222:	2802      	cmp	r0, #2
   23224:	d00e      	beq.n	23244 <_ZN18complex_no_dynamic3app17hc4d574f32add8096E+0x4c>
   23226:	2109      	movs	r1, #9
   23228:	aa0a      	add	r2, sp, #40	@ 0x28
   2322a:	2341      	movs	r3, #65	@ 0x41
   2322c:	4628      	mov	r0, r5
   2322e:	df03      	svc	3
   23230:	2802      	cmp	r0, #2
   23232:	d007      	beq.n	23244 <_ZN18complex_no_dynamic3app17hc4d574f32add8096E+0x4c>
   23234:	2108      	movs	r1, #8
   23236:	2209      	movs	r2, #9
   23238:	2600      	movs	r6, #0
   2323a:	4628      	mov	r0, r5
   2323c:	4633      	mov	r3, r6
   2323e:	df02      	svc	2
   23240:	287f      	cmp	r0, #127	@ 0x7f
   23242:	d810      	bhi.n	23266 <_ZN18complex_no_dynamic3app17hc4d574f32add8096E+0x6e>
   23244:	2001      	movs	r0, #1
   23246:	9a02      	ldr	r2, [sp, #8]
   23248:	7010      	strb	r0, [r2, #0]
   2324a:	6051      	str	r1, [r2, #4]
   2324c:	2109      	movs	r1, #9
   2324e:	2400      	movs	r4, #0
   23250:	4628      	mov	r0, r5
   23252:	4622      	mov	r2, r4
   23254:	4623      	mov	r3, r4
   23256:	df03      	svc	3
   23258:	2108      	movs	r1, #8
   2325a:	4628      	mov	r0, r5
   2325c:	4622      	mov	r2, r4
   2325e:	4623      	mov	r3, r4
   23260:	df04      	svc	4
   23262:	b01b      	add	sp, #108	@ 0x6c
   23264:	bdf0      	pop	{r4, r5, r6, r7, pc}
   23266:	2409      	movs	r4, #9
   23268:	9401      	str	r4, [sp, #4]
   2326a:	4628      	mov	r0, r5
   2326c:	4621      	mov	r1, r4
   2326e:	4632      	mov	r2, r6
   23270:	4633      	mov	r3, r6
   23272:	df03      	svc	3
   23274:	4628      	mov	r0, r5
   23276:	4621      	mov	r1, r4
   23278:	4632      	mov	r2, r6
   2327a:	4633      	mov	r3, r6
   2327c:	df03      	svc	3
   2327e:	9c02      	ldr	r4, [sp, #8]
   23280:	1c60      	adds	r0, r4, #1
   23282:	a90a      	add	r1, sp, #40	@ 0x28
   23284:	2241      	movs	r2, #65	@ 0x41
   23286:	f003 fec0 	bl	2700a <__aeabi_memcpy>
   2328a:	7026      	strb	r6, [r4, #0]
   2328c:	4628      	mov	r0, r5
   2328e:	9901      	ldr	r1, [sp, #4]
   23290:	4632      	mov	r2, r6
   23292:	4633      	mov	r3, r6
   23294:	df03      	svc	3
   23296:	2108      	movs	r1, #8
   23298:	4628      	mov	r0, r5
   2329a:	4632      	mov	r2, r6
   2329c:	4633      	mov	r3, r6
   2329e:	df04      	svc	4
   232a0:	b01b      	add	sp, #108	@ 0x6c
   232a2:	bdf0      	pop	{r4, r5, r6, r7, pc}

000232a4 <_ZN18complex_no_dynamic3app17hc62607674f437f62E>:
   232a4:	b5f0      	push	{r4, r5, r6, r7, lr}
   232a6:	af03      	add	r7, sp, #12
   232a8:	b099      	sub	sp, #100	@ 0x64
   232aa:	4604      	mov	r4, r0
   232ac:	ad01      	add	r5, sp, #4
   232ae:	2638      	movs	r6, #56	@ 0x38
   232b0:	4628      	mov	r0, r5
   232b2:	4632      	mov	r2, r6
   232b4:	f003 fea9 	bl	2700a <__aeabi_memcpy>
   232b8:	a80f      	add	r0, sp, #60	@ 0x3c
   232ba:	2127      	movs	r1, #39	@ 0x27
   232bc:	f003 fcf8 	bl	26cb0 <__aeabi_memclr4>
   232c0:	4822      	ldr	r0, [pc, #136]	@ (2334c <_ZN18complex_no_dynamic3app17hc62607674f437f62E+0xa8>)
   232c2:	2102      	movs	r1, #2
   232c4:	462a      	mov	r2, r5
   232c6:	4633      	mov	r3, r6
   232c8:	df04      	svc	4
   232ca:	2802      	cmp	r0, #2
   232cc:	d00e      	beq.n	232ec <_ZN18complex_no_dynamic3app17hc62607674f437f62E+0x48>
   232ce:	481f      	ldr	r0, [pc, #124]	@ (2334c <_ZN18complex_no_dynamic3app17hc62607674f437f62E+0xa8>)
   232d0:	2108      	movs	r1, #8
   232d2:	aa0f      	add	r2, sp, #60	@ 0x3c
   232d4:	2327      	movs	r3, #39	@ 0x27
   232d6:	df03      	svc	3
   232d8:	2802      	cmp	r0, #2
   232da:	d007      	beq.n	232ec <_ZN18complex_no_dynamic3app17hc62607674f437f62E+0x48>
   232dc:	481b      	ldr	r0, [pc, #108]	@ (2334c <_ZN18complex_no_dynamic3app17hc62607674f437f62E+0xa8>)
   232de:	2102      	movs	r1, #2
   232e0:	2208      	movs	r2, #8
   232e2:	2500      	movs	r5, #0
   232e4:	462b      	mov	r3, r5
   232e6:	df02      	svc	2
   232e8:	287f      	cmp	r0, #127	@ 0x7f
   232ea:	d810      	bhi.n	2330e <_ZN18complex_no_dynamic3app17hc62607674f437f62E+0x6a>
   232ec:	2001      	movs	r0, #1
   232ee:	7020      	strb	r0, [r4, #0]
   232f0:	6061      	str	r1, [r4, #4]
   232f2:	4c16      	ldr	r4, [pc, #88]	@ (2334c <_ZN18complex_no_dynamic3app17hc62607674f437f62E+0xa8>)
   232f4:	2108      	movs	r1, #8
   232f6:	2500      	movs	r5, #0
   232f8:	4620      	mov	r0, r4
   232fa:	462a      	mov	r2, r5
   232fc:	462b      	mov	r3, r5
   232fe:	df03      	svc	3
   23300:	2102      	movs	r1, #2
   23302:	4620      	mov	r0, r4
   23304:	462a      	mov	r2, r5
   23306:	462b      	mov	r3, r5
   23308:	df04      	svc	4
   2330a:	b019      	add	sp, #100	@ 0x64
   2330c:	bdf0      	pop	{r4, r5, r6, r7, pc}
   2330e:	480f      	ldr	r0, [pc, #60]	@ (2334c <_ZN18complex_no_dynamic3app17hc62607674f437f62E+0xa8>)
   23310:	2608      	movs	r6, #8
   23312:	4631      	mov	r1, r6
   23314:	462a      	mov	r2, r5
   23316:	462b      	mov	r3, r5
   23318:	df03      	svc	3
   2331a:	480c      	ldr	r0, [pc, #48]	@ (2334c <_ZN18complex_no_dynamic3app17hc62607674f437f62E+0xa8>)
   2331c:	4631      	mov	r1, r6
   2331e:	462a      	mov	r2, r5
   23320:	462b      	mov	r3, r5
   23322:	df03      	svc	3
   23324:	1c60      	adds	r0, r4, #1
   23326:	a90f      	add	r1, sp, #60	@ 0x3c
   23328:	2227      	movs	r2, #39	@ 0x27
   2332a:	f003 fe6e 	bl	2700a <__aeabi_memcpy>
   2332e:	7025      	strb	r5, [r4, #0]
   23330:	4c06      	ldr	r4, [pc, #24]	@ (2334c <_ZN18complex_no_dynamic3app17hc62607674f437f62E+0xa8>)
   23332:	4620      	mov	r0, r4
   23334:	4631      	mov	r1, r6
   23336:	462a      	mov	r2, r5
   23338:	462b      	mov	r3, r5
   2333a:	df03      	svc	3
   2333c:	2102      	movs	r1, #2
   2333e:	4620      	mov	r0, r4
   23340:	462a      	mov	r2, r5
   23342:	462b      	mov	r3, r5
   23344:	df04      	svc	4
   23346:	b019      	add	sp, #100	@ 0x64
   23348:	bdf0      	pop	{r4, r5, r6, r7, pc}
   2334a:	46c0      	nop			@ (mov r8, r8)
   2334c:	00000e2b 	.word	0x00000e2b

00023350 <_ZN18complex_no_dynamic3app17hcb1bc536c839db82E>:
   23350:	b5f0      	push	{r4, r5, r6, r7, lr}
   23352:	af03      	add	r7, sp, #12
   23354:	b09b      	sub	sp, #108	@ 0x6c
   23356:	4604      	mov	r4, r0
   23358:	ad01      	add	r5, sp, #4
   2335a:	2632      	movs	r6, #50	@ 0x32
   2335c:	4628      	mov	r0, r5
   2335e:	4632      	mov	r2, r6
   23360:	f003 fe53 	bl	2700a <__aeabi_memcpy>
   23364:	a80e      	add	r0, sp, #56	@ 0x38
   23366:	4631      	mov	r1, r6
   23368:	f003 fca2 	bl	26cb0 <__aeabi_memclr4>
   2336c:	4822      	ldr	r0, [pc, #136]	@ (233f8 <_ZN18complex_no_dynamic3app17hcb1bc536c839db82E+0xa8>)
   2336e:	2103      	movs	r1, #3
   23370:	462a      	mov	r2, r5
   23372:	4633      	mov	r3, r6
   23374:	df04      	svc	4
   23376:	2802      	cmp	r0, #2
   23378:	d00e      	beq.n	23398 <_ZN18complex_no_dynamic3app17hcb1bc536c839db82E+0x48>
   2337a:	481f      	ldr	r0, [pc, #124]	@ (233f8 <_ZN18complex_no_dynamic3app17hcb1bc536c839db82E+0xa8>)
   2337c:	2101      	movs	r1, #1
   2337e:	aa0e      	add	r2, sp, #56	@ 0x38
   23380:	2332      	movs	r3, #50	@ 0x32
   23382:	df03      	svc	3
   23384:	2802      	cmp	r0, #2
   23386:	d007      	beq.n	23398 <_ZN18complex_no_dynamic3app17hcb1bc536c839db82E+0x48>
   23388:	481b      	ldr	r0, [pc, #108]	@ (233f8 <_ZN18complex_no_dynamic3app17hcb1bc536c839db82E+0xa8>)
   2338a:	2103      	movs	r1, #3
   2338c:	2201      	movs	r2, #1
   2338e:	2500      	movs	r5, #0
   23390:	462b      	mov	r3, r5
   23392:	df02      	svc	2
   23394:	287f      	cmp	r0, #127	@ 0x7f
   23396:	d810      	bhi.n	233ba <_ZN18complex_no_dynamic3app17hcb1bc536c839db82E+0x6a>
   23398:	2201      	movs	r2, #1
   2339a:	7022      	strb	r2, [r4, #0]
   2339c:	6061      	str	r1, [r4, #4]
   2339e:	4c16      	ldr	r4, [pc, #88]	@ (233f8 <_ZN18complex_no_dynamic3app17hcb1bc536c839db82E+0xa8>)
   233a0:	2500      	movs	r5, #0
   233a2:	4620      	mov	r0, r4
   233a4:	4611      	mov	r1, r2
   233a6:	462a      	mov	r2, r5
   233a8:	462b      	mov	r3, r5
   233aa:	df03      	svc	3
   233ac:	2103      	movs	r1, #3
   233ae:	4620      	mov	r0, r4
   233b0:	462a      	mov	r2, r5
   233b2:	462b      	mov	r3, r5
   233b4:	df04      	svc	4
   233b6:	b01b      	add	sp, #108	@ 0x6c
   233b8:	bdf0      	pop	{r4, r5, r6, r7, pc}
   233ba:	480f      	ldr	r0, [pc, #60]	@ (233f8 <_ZN18complex_no_dynamic3app17hcb1bc536c839db82E+0xa8>)
   233bc:	2601      	movs	r6, #1
   233be:	4631      	mov	r1, r6
   233c0:	462a      	mov	r2, r5
   233c2:	462b      	mov	r3, r5
   233c4:	df03      	svc	3
   233c6:	480c      	ldr	r0, [pc, #48]	@ (233f8 <_ZN18complex_no_dynamic3app17hcb1bc536c839db82E+0xa8>)
   233c8:	4631      	mov	r1, r6
   233ca:	462a      	mov	r2, r5
   233cc:	462b      	mov	r3, r5
   233ce:	df03      	svc	3
   233d0:	1c60      	adds	r0, r4, #1
   233d2:	a90e      	add	r1, sp, #56	@ 0x38
   233d4:	2232      	movs	r2, #50	@ 0x32
   233d6:	f003 fe18 	bl	2700a <__aeabi_memcpy>
   233da:	7025      	strb	r5, [r4, #0]
   233dc:	4c06      	ldr	r4, [pc, #24]	@ (233f8 <_ZN18complex_no_dynamic3app17hcb1bc536c839db82E+0xa8>)
   233de:	4620      	mov	r0, r4
   233e0:	4631      	mov	r1, r6
   233e2:	462a      	mov	r2, r5
   233e4:	462b      	mov	r3, r5
   233e6:	df03      	svc	3
   233e8:	2103      	movs	r1, #3
   233ea:	4620      	mov	r0, r4
   233ec:	462a      	mov	r2, r5
   233ee:	462b      	mov	r3, r5
   233f0:	df04      	svc	4
   233f2:	b01b      	add	sp, #108	@ 0x6c
   233f4:	bdf0      	pop	{r4, r5, r6, r7, pc}
   233f6:	46c0      	nop			@ (mov r8, r8)
   233f8:	00001f07 	.word	0x00001f07

000233fc <_ZN18complex_no_dynamic3app17hd04180a90b46026fE>:
   233fc:	b5f0      	push	{r4, r5, r6, r7, lr}
   233fe:	af03      	add	r7, sp, #12
   23400:	b095      	sub	sp, #84	@ 0x54
   23402:	9000      	str	r0, [sp, #0]
   23404:	ae01      	add	r6, sp, #4
   23406:	2421      	movs	r4, #33	@ 0x21
   23408:	4630      	mov	r0, r6
   2340a:	4622      	mov	r2, r4
   2340c:	f003 fdfd 	bl	2700a <__aeabi_memcpy>
   23410:	a80a      	add	r0, sp, #40	@ 0x28
   23412:	212a      	movs	r1, #42	@ 0x2a
   23414:	f003 fc4c 	bl	26cb0 <__aeabi_memclr4>
   23418:	4823      	ldr	r0, [pc, #140]	@ (234a8 <_ZN18complex_no_dynamic3app17hd04180a90b46026fE+0xac>)
   2341a:	2501      	movs	r5, #1
   2341c:	4629      	mov	r1, r5
   2341e:	4632      	mov	r2, r6
   23420:	4623      	mov	r3, r4
   23422:	df04      	svc	4
   23424:	2802      	cmp	r0, #2
   23426:	d00e      	beq.n	23446 <_ZN18complex_no_dynamic3app17hd04180a90b46026fE+0x4a>
   23428:	481f      	ldr	r0, [pc, #124]	@ (234a8 <_ZN18complex_no_dynamic3app17hd04180a90b46026fE+0xac>)
   2342a:	2103      	movs	r1, #3
   2342c:	aa0a      	add	r2, sp, #40	@ 0x28
   2342e:	232a      	movs	r3, #42	@ 0x2a
   23430:	df03      	svc	3
   23432:	2802      	cmp	r0, #2
   23434:	d007      	beq.n	23446 <_ZN18complex_no_dynamic3app17hd04180a90b46026fE+0x4a>
   23436:	481c      	ldr	r0, [pc, #112]	@ (234a8 <_ZN18complex_no_dynamic3app17hd04180a90b46026fE+0xac>)
   23438:	2101      	movs	r1, #1
   2343a:	2203      	movs	r2, #3
   2343c:	2600      	movs	r6, #0
   2343e:	4633      	mov	r3, r6
   23440:	df02      	svc	2
   23442:	287f      	cmp	r0, #127	@ 0x7f
   23444:	d810      	bhi.n	23468 <_ZN18complex_no_dynamic3app17hd04180a90b46026fE+0x6c>
   23446:	9800      	ldr	r0, [sp, #0]
   23448:	7005      	strb	r5, [r0, #0]
   2344a:	6041      	str	r1, [r0, #4]
   2344c:	4c16      	ldr	r4, [pc, #88]	@ (234a8 <_ZN18complex_no_dynamic3app17hd04180a90b46026fE+0xac>)
   2344e:	2103      	movs	r1, #3
   23450:	2600      	movs	r6, #0
   23452:	4620      	mov	r0, r4
   23454:	4632      	mov	r2, r6
   23456:	4633      	mov	r3, r6
   23458:	df03      	svc	3
   2345a:	4620      	mov	r0, r4
   2345c:	4629      	mov	r1, r5
   2345e:	4632      	mov	r2, r6
   23460:	4633      	mov	r3, r6
   23462:	df04      	svc	4
   23464:	b015      	add	sp, #84	@ 0x54
   23466:	bdf0      	pop	{r4, r5, r6, r7, pc}
   23468:	4c0f      	ldr	r4, [pc, #60]	@ (234a8 <_ZN18complex_no_dynamic3app17hd04180a90b46026fE+0xac>)
   2346a:	2503      	movs	r5, #3
   2346c:	4620      	mov	r0, r4
   2346e:	4629      	mov	r1, r5
   23470:	4632      	mov	r2, r6
   23472:	4633      	mov	r3, r6
   23474:	df03      	svc	3
   23476:	4620      	mov	r0, r4
   23478:	4629      	mov	r1, r5
   2347a:	4632      	mov	r2, r6
   2347c:	4633      	mov	r3, r6
   2347e:	df03      	svc	3
   23480:	9c00      	ldr	r4, [sp, #0]
   23482:	1c60      	adds	r0, r4, #1
   23484:	a90a      	add	r1, sp, #40	@ 0x28
   23486:	222a      	movs	r2, #42	@ 0x2a
   23488:	f003 fdbf 	bl	2700a <__aeabi_memcpy>
   2348c:	7026      	strb	r6, [r4, #0]
   2348e:	4c06      	ldr	r4, [pc, #24]	@ (234a8 <_ZN18complex_no_dynamic3app17hd04180a90b46026fE+0xac>)
   23490:	4620      	mov	r0, r4
   23492:	4629      	mov	r1, r5
   23494:	4632      	mov	r2, r6
   23496:	4633      	mov	r3, r6
   23498:	df03      	svc	3
   2349a:	2101      	movs	r1, #1
   2349c:	4620      	mov	r0, r4
   2349e:	4632      	mov	r2, r6
   234a0:	4633      	mov	r3, r6
   234a2:	df04      	svc	4
   234a4:	b015      	add	sp, #84	@ 0x54
   234a6:	bdf0      	pop	{r4, r5, r6, r7, pc}
   234a8:	000015f3 	.word	0x000015f3

000234ac <_ZN18complex_no_dynamic3app17hd0b00fcd24289745E>:
   234ac:	b5f0      	push	{r4, r5, r6, r7, lr}
   234ae:	af03      	add	r7, sp, #12
   234b0:	b09b      	sub	sp, #108	@ 0x6c
   234b2:	4604      	mov	r4, r0
   234b4:	466d      	mov	r5, sp
   234b6:	2655      	movs	r6, #85	@ 0x55
   234b8:	4628      	mov	r0, r5
   234ba:	4632      	mov	r2, r6
   234bc:	f003 fda5 	bl	2700a <__aeabi_memcpy>
   234c0:	a816      	add	r0, sp, #88	@ 0x58
   234c2:	2100      	movs	r1, #0
   234c4:	7401      	strb	r1, [r0, #16]
   234c6:	9119      	str	r1, [sp, #100]	@ 0x64
   234c8:	9118      	str	r1, [sp, #96]	@ 0x60
   234ca:	9117      	str	r1, [sp, #92]	@ 0x5c
   234cc:	9116      	str	r1, [sp, #88]	@ 0x58
   234ce:	4823      	ldr	r0, [pc, #140]	@ (2355c <_ZN18complex_no_dynamic3app17hd0b00fcd24289745E+0xb0>)
   234d0:	2102      	movs	r1, #2
   234d2:	462a      	mov	r2, r5
   234d4:	4633      	mov	r3, r6
   234d6:	df04      	svc	4
   234d8:	2802      	cmp	r0, #2
   234da:	d00e      	beq.n	234fa <_ZN18complex_no_dynamic3app17hd0b00fcd24289745E+0x4e>
   234dc:	481f      	ldr	r0, [pc, #124]	@ (2355c <_ZN18complex_no_dynamic3app17hd0b00fcd24289745E+0xb0>)
   234de:	2102      	movs	r1, #2
   234e0:	aa16      	add	r2, sp, #88	@ 0x58
   234e2:	2311      	movs	r3, #17
   234e4:	df03      	svc	3
   234e6:	2802      	cmp	r0, #2
   234e8:	d007      	beq.n	234fa <_ZN18complex_no_dynamic3app17hd0b00fcd24289745E+0x4e>
   234ea:	481c      	ldr	r0, [pc, #112]	@ (2355c <_ZN18complex_no_dynamic3app17hd0b00fcd24289745E+0xb0>)
   234ec:	2102      	movs	r1, #2
   234ee:	2500      	movs	r5, #0
   234f0:	460a      	mov	r2, r1
   234f2:	462b      	mov	r3, r5
   234f4:	df02      	svc	2
   234f6:	287f      	cmp	r0, #127	@ 0x7f
   234f8:	d811      	bhi.n	2351e <_ZN18complex_no_dynamic3app17hd0b00fcd24289745E+0x72>
   234fa:	2001      	movs	r0, #1
   234fc:	7020      	strb	r0, [r4, #0]
   234fe:	6061      	str	r1, [r4, #4]
   23500:	4c16      	ldr	r4, [pc, #88]	@ (2355c <_ZN18complex_no_dynamic3app17hd0b00fcd24289745E+0xb0>)
   23502:	2502      	movs	r5, #2
   23504:	2600      	movs	r6, #0
   23506:	4620      	mov	r0, r4
   23508:	4629      	mov	r1, r5
   2350a:	4632      	mov	r2, r6
   2350c:	4633      	mov	r3, r6
   2350e:	df03      	svc	3
   23510:	4620      	mov	r0, r4
   23512:	4629      	mov	r1, r5
   23514:	4632      	mov	r2, r6
   23516:	4633      	mov	r3, r6
   23518:	df04      	svc	4
   2351a:	b01b      	add	sp, #108	@ 0x6c
   2351c:	bdf0      	pop	{r4, r5, r6, r7, pc}
   2351e:	480f      	ldr	r0, [pc, #60]	@ (2355c <_ZN18complex_no_dynamic3app17hd0b00fcd24289745E+0xb0>)
   23520:	2602      	movs	r6, #2
   23522:	4631      	mov	r1, r6
   23524:	462a      	mov	r2, r5
   23526:	462b      	mov	r3, r5
   23528:	df03      	svc	3
   2352a:	480c      	ldr	r0, [pc, #48]	@ (2355c <_ZN18complex_no_dynamic3app17hd0b00fcd24289745E+0xb0>)
   2352c:	4631      	mov	r1, r6
   2352e:	462a      	mov	r2, r5
   23530:	462b      	mov	r3, r5
   23532:	df03      	svc	3
   23534:	1c60      	adds	r0, r4, #1
   23536:	a916      	add	r1, sp, #88	@ 0x58
   23538:	2211      	movs	r2, #17
   2353a:	f003 fd66 	bl	2700a <__aeabi_memcpy>
   2353e:	7025      	strb	r5, [r4, #0]
   23540:	4c06      	ldr	r4, [pc, #24]	@ (2355c <_ZN18complex_no_dynamic3app17hd0b00fcd24289745E+0xb0>)
   23542:	4620      	mov	r0, r4
   23544:	4631      	mov	r1, r6
   23546:	462a      	mov	r2, r5
   23548:	462b      	mov	r3, r5
   2354a:	df03      	svc	3
   2354c:	4620      	mov	r0, r4
   2354e:	4631      	mov	r1, r6
   23550:	462a      	mov	r2, r5
   23552:	462b      	mov	r3, r5
   23554:	df04      	svc	4
   23556:	b01b      	add	sp, #108	@ 0x6c
   23558:	bdf0      	pop	{r4, r5, r6, r7, pc}
   2355a:	46c0      	nop			@ (mov r8, r8)
   2355c:	00000c89 	.word	0x00000c89

00023560 <_ZN18complex_no_dynamic3app17hd337f1104f1b0f10E>:
   23560:	b5f0      	push	{r4, r5, r6, r7, lr}
   23562:	af03      	add	r7, sp, #12
   23564:	b099      	sub	sp, #100	@ 0x64
   23566:	9001      	str	r0, [sp, #4]
   23568:	ae02      	add	r6, sp, #8
   2356a:	2441      	movs	r4, #65	@ 0x41
   2356c:	4630      	mov	r0, r6
   2356e:	4622      	mov	r2, r4
   23570:	f003 fd4b 	bl	2700a <__aeabi_memcpy>
   23574:	2000      	movs	r0, #0
   23576:	9018      	str	r0, [sp, #96]	@ 0x60
   23578:	9017      	str	r0, [sp, #92]	@ 0x5c
   2357a:	9016      	str	r0, [sp, #88]	@ 0x58
   2357c:	9015      	str	r0, [sp, #84]	@ 0x54
   2357e:	9014      	str	r0, [sp, #80]	@ 0x50
   23580:	9013      	str	r0, [sp, #76]	@ 0x4c
   23582:	4824      	ldr	r0, [pc, #144]	@ (23614 <_ZN18complex_no_dynamic3app17hd337f1104f1b0f10E+0xb4>)
   23584:	2501      	movs	r5, #1
   23586:	4629      	mov	r1, r5
   23588:	4632      	mov	r2, r6
   2358a:	4623      	mov	r3, r4
   2358c:	df04      	svc	4
   2358e:	2802      	cmp	r0, #2
   23590:	d00e      	beq.n	235b0 <_ZN18complex_no_dynamic3app17hd337f1104f1b0f10E+0x50>
   23592:	4820      	ldr	r0, [pc, #128]	@ (23614 <_ZN18complex_no_dynamic3app17hd337f1104f1b0f10E+0xb4>)
   23594:	2109      	movs	r1, #9
   23596:	aa13      	add	r2, sp, #76	@ 0x4c
   23598:	2318      	movs	r3, #24
   2359a:	df03      	svc	3
   2359c:	2802      	cmp	r0, #2
   2359e:	d007      	beq.n	235b0 <_ZN18complex_no_dynamic3app17hd337f1104f1b0f10E+0x50>
   235a0:	481c      	ldr	r0, [pc, #112]	@ (23614 <_ZN18complex_no_dynamic3app17hd337f1104f1b0f10E+0xb4>)
   235a2:	2101      	movs	r1, #1
   235a4:	2209      	movs	r2, #9
   235a6:	2600      	movs	r6, #0
   235a8:	4633      	mov	r3, r6
   235aa:	df02      	svc	2
   235ac:	287f      	cmp	r0, #127	@ 0x7f
   235ae:	d810      	bhi.n	235d2 <_ZN18complex_no_dynamic3app17hd337f1104f1b0f10E+0x72>
   235b0:	9801      	ldr	r0, [sp, #4]
   235b2:	7005      	strb	r5, [r0, #0]
   235b4:	6041      	str	r1, [r0, #4]
   235b6:	4c17      	ldr	r4, [pc, #92]	@ (23614 <_ZN18complex_no_dynamic3app17hd337f1104f1b0f10E+0xb4>)
   235b8:	2109      	movs	r1, #9
   235ba:	2600      	movs	r6, #0
   235bc:	4620      	mov	r0, r4
   235be:	4632      	mov	r2, r6
   235c0:	4633      	mov	r3, r6
   235c2:	df03      	svc	3
   235c4:	4620      	mov	r0, r4
   235c6:	4629      	mov	r1, r5
   235c8:	4632      	mov	r2, r6
   235ca:	4633      	mov	r3, r6
   235cc:	df04      	svc	4
   235ce:	b019      	add	sp, #100	@ 0x64
   235d0:	bdf0      	pop	{r4, r5, r6, r7, pc}
   235d2:	4c10      	ldr	r4, [pc, #64]	@ (23614 <_ZN18complex_no_dynamic3app17hd337f1104f1b0f10E+0xb4>)
   235d4:	2509      	movs	r5, #9
   235d6:	4620      	mov	r0, r4
   235d8:	4629      	mov	r1, r5
   235da:	4632      	mov	r2, r6
   235dc:	4633      	mov	r3, r6
   235de:	df03      	svc	3
   235e0:	4620      	mov	r0, r4
   235e2:	4629      	mov	r1, r5
   235e4:	4632      	mov	r2, r6
   235e6:	4633      	mov	r3, r6
   235e8:	df03      	svc	3
   235ea:	9c01      	ldr	r4, [sp, #4]
   235ec:	1c60      	adds	r0, r4, #1
   235ee:	a913      	add	r1, sp, #76	@ 0x4c
   235f0:	2218      	movs	r2, #24
   235f2:	f003 fd0a 	bl	2700a <__aeabi_memcpy>
   235f6:	7026      	strb	r6, [r4, #0]
   235f8:	4c06      	ldr	r4, [pc, #24]	@ (23614 <_ZN18complex_no_dynamic3app17hd337f1104f1b0f10E+0xb4>)
   235fa:	4620      	mov	r0, r4
   235fc:	4629      	mov	r1, r5
   235fe:	4632      	mov	r2, r6
   23600:	4633      	mov	r3, r6
   23602:	df03      	svc	3
   23604:	2101      	movs	r1, #1
   23606:	4620      	mov	r0, r4
   23608:	4632      	mov	r2, r6
   2360a:	4633      	mov	r3, r6
   2360c:	df04      	svc	4
   2360e:	b019      	add	sp, #100	@ 0x64
   23610:	bdf0      	pop	{r4, r5, r6, r7, pc}
   23612:	46c0      	nop			@ (mov r8, r8)
   23614:	00002156 	.word	0x00002156

00023618 <_ZN18complex_no_dynamic3app17hd9c1ac55b58afb35E>:
   23618:	b5f0      	push	{r4, r5, r6, r7, lr}
   2361a:	af03      	add	r7, sp, #12
   2361c:	b09f      	sub	sp, #124	@ 0x7c
   2361e:	4604      	mov	r4, r0
   23620:	ad01      	add	r5, sp, #4
   23622:	2627      	movs	r6, #39	@ 0x27
   23624:	4628      	mov	r0, r5
   23626:	4632      	mov	r2, r6
   23628:	f003 fcef 	bl	2700a <__aeabi_memcpy>
   2362c:	a80b      	add	r0, sp, #44	@ 0x2c
   2362e:	214f      	movs	r1, #79	@ 0x4f
   23630:	f003 fb3e 	bl	26cb0 <__aeabi_memclr4>
   23634:	4821      	ldr	r0, [pc, #132]	@ (236bc <_ZN18complex_no_dynamic3app17hd9c1ac55b58afb35E+0xa4>)
   23636:	2109      	movs	r1, #9
   23638:	462a      	mov	r2, r5
   2363a:	4633      	mov	r3, r6
   2363c:	df04      	svc	4
   2363e:	2802      	cmp	r0, #2
   23640:	d00e      	beq.n	23660 <_ZN18complex_no_dynamic3app17hd9c1ac55b58afb35E+0x48>
   23642:	481e      	ldr	r0, [pc, #120]	@ (236bc <_ZN18complex_no_dynamic3app17hd9c1ac55b58afb35E+0xa4>)
   23644:	2100      	movs	r1, #0
   23646:	aa0b      	add	r2, sp, #44	@ 0x2c
   23648:	234f      	movs	r3, #79	@ 0x4f
   2364a:	df03      	svc	3
   2364c:	2802      	cmp	r0, #2
   2364e:	d007      	beq.n	23660 <_ZN18complex_no_dynamic3app17hd9c1ac55b58afb35E+0x48>
   23650:	481a      	ldr	r0, [pc, #104]	@ (236bc <_ZN18complex_no_dynamic3app17hd9c1ac55b58afb35E+0xa4>)
   23652:	2109      	movs	r1, #9
   23654:	2500      	movs	r5, #0
   23656:	462a      	mov	r2, r5
   23658:	462b      	mov	r3, r5
   2365a:	df02      	svc	2
   2365c:	287f      	cmp	r0, #127	@ 0x7f
   2365e:	d810      	bhi.n	23682 <_ZN18complex_no_dynamic3app17hd9c1ac55b58afb35E+0x6a>
   23660:	2001      	movs	r0, #1
   23662:	7020      	strb	r0, [r4, #0]
   23664:	6061      	str	r1, [r4, #4]
   23666:	4c15      	ldr	r4, [pc, #84]	@ (236bc <_ZN18complex_no_dynamic3app17hd9c1ac55b58afb35E+0xa4>)
   23668:	2500      	movs	r5, #0
   2366a:	4620      	mov	r0, r4
   2366c:	4629      	mov	r1, r5
   2366e:	462a      	mov	r2, r5
   23670:	462b      	mov	r3, r5
   23672:	df03      	svc	3
   23674:	2109      	movs	r1, #9
   23676:	4620      	mov	r0, r4
   23678:	462a      	mov	r2, r5
   2367a:	462b      	mov	r3, r5
   2367c:	df04      	svc	4
   2367e:	b01f      	add	sp, #124	@ 0x7c
   23680:	bdf0      	pop	{r4, r5, r6, r7, pc}
   23682:	4e0e      	ldr	r6, [pc, #56]	@ (236bc <_ZN18complex_no_dynamic3app17hd9c1ac55b58afb35E+0xa4>)
   23684:	4630      	mov	r0, r6
   23686:	4629      	mov	r1, r5
   23688:	462a      	mov	r2, r5
   2368a:	462b      	mov	r3, r5
   2368c:	df03      	svc	3
   2368e:	4630      	mov	r0, r6
   23690:	4629      	mov	r1, r5
   23692:	462a      	mov	r2, r5
   23694:	462b      	mov	r3, r5
   23696:	df03      	svc	3
   23698:	1c60      	adds	r0, r4, #1
   2369a:	a90b      	add	r1, sp, #44	@ 0x2c
   2369c:	224f      	movs	r2, #79	@ 0x4f
   2369e:	f003 fcb4 	bl	2700a <__aeabi_memcpy>
   236a2:	7025      	strb	r5, [r4, #0]
   236a4:	4630      	mov	r0, r6
   236a6:	4629      	mov	r1, r5
   236a8:	462a      	mov	r2, r5
   236aa:	462b      	mov	r3, r5
   236ac:	df03      	svc	3
   236ae:	2109      	movs	r1, #9
   236b0:	4630      	mov	r0, r6
   236b2:	462a      	mov	r2, r5
   236b4:	462b      	mov	r3, r5
   236b6:	df04      	svc	4
   236b8:	b01f      	add	sp, #124	@ 0x7c
   236ba:	bdf0      	pop	{r4, r5, r6, r7, pc}
   236bc:	00000b4c 	.word	0x00000b4c

000236c0 <_ZN18complex_no_dynamic3app17hddbe02a13b688855E>:
   236c0:	b5f0      	push	{r4, r5, r6, r7, lr}
   236c2:	af03      	add	r7, sp, #12
   236c4:	b0a3      	sub	sp, #140	@ 0x8c
   236c6:	4604      	mov	r4, r0
   236c8:	466d      	mov	r5, sp
   236ca:	264d      	movs	r6, #77	@ 0x4d
   236cc:	4628      	mov	r0, r5
   236ce:	4632      	mov	r2, r6
   236d0:	f003 fc9b 	bl	2700a <__aeabi_memcpy>
   236d4:	a814      	add	r0, sp, #80	@ 0x50
   236d6:	213c      	movs	r1, #60	@ 0x3c
   236d8:	f003 faea 	bl	26cb0 <__aeabi_memclr4>
   236dc:	4822      	ldr	r0, [pc, #136]	@ (23768 <_ZN18complex_no_dynamic3app17hddbe02a13b688855E+0xa8>)
   236de:	2104      	movs	r1, #4
   236e0:	462a      	mov	r2, r5
   236e2:	4633      	mov	r3, r6
   236e4:	df04      	svc	4
   236e6:	2802      	cmp	r0, #2
   236e8:	d00e      	beq.n	23708 <_ZN18complex_no_dynamic3app17hddbe02a13b688855E+0x48>
   236ea:	481f      	ldr	r0, [pc, #124]	@ (23768 <_ZN18complex_no_dynamic3app17hddbe02a13b688855E+0xa8>)
   236ec:	2109      	movs	r1, #9
   236ee:	aa14      	add	r2, sp, #80	@ 0x50
   236f0:	233c      	movs	r3, #60	@ 0x3c
   236f2:	df03      	svc	3
   236f4:	2802      	cmp	r0, #2
   236f6:	d007      	beq.n	23708 <_ZN18complex_no_dynamic3app17hddbe02a13b688855E+0x48>
   236f8:	481b      	ldr	r0, [pc, #108]	@ (23768 <_ZN18complex_no_dynamic3app17hddbe02a13b688855E+0xa8>)
   236fa:	2104      	movs	r1, #4
   236fc:	2209      	movs	r2, #9
   236fe:	2500      	movs	r5, #0
   23700:	462b      	mov	r3, r5
   23702:	df02      	svc	2
   23704:	287f      	cmp	r0, #127	@ 0x7f
   23706:	d810      	bhi.n	2372a <_ZN18complex_no_dynamic3app17hddbe02a13b688855E+0x6a>
   23708:	2001      	movs	r0, #1
   2370a:	7020      	strb	r0, [r4, #0]
   2370c:	6061      	str	r1, [r4, #4]
   2370e:	4c16      	ldr	r4, [pc, #88]	@ (23768 <_ZN18complex_no_dynamic3app17hddbe02a13b688855E+0xa8>)
   23710:	2109      	movs	r1, #9
   23712:	2500      	movs	r5, #0
   23714:	4620      	mov	r0, r4
   23716:	462a      	mov	r2, r5
   23718:	462b      	mov	r3, r5
   2371a:	df03      	svc	3
   2371c:	2104      	movs	r1, #4
   2371e:	4620      	mov	r0, r4
   23720:	462a      	mov	r2, r5
   23722:	462b      	mov	r3, r5
   23724:	df04      	svc	4
   23726:	b023      	add	sp, #140	@ 0x8c
   23728:	bdf0      	pop	{r4, r5, r6, r7, pc}
   2372a:	480f      	ldr	r0, [pc, #60]	@ (23768 <_ZN18complex_no_dynamic3app17hddbe02a13b688855E+0xa8>)
   2372c:	2609      	movs	r6, #9
   2372e:	4631      	mov	r1, r6
   23730:	462a      	mov	r2, r5
   23732:	462b      	mov	r3, r5
   23734:	df03      	svc	3
   23736:	480c      	ldr	r0, [pc, #48]	@ (23768 <_ZN18complex_no_dynamic3app17hddbe02a13b688855E+0xa8>)
   23738:	4631      	mov	r1, r6
   2373a:	462a      	mov	r2, r5
   2373c:	462b      	mov	r3, r5
   2373e:	df03      	svc	3
   23740:	1c60      	adds	r0, r4, #1
   23742:	a914      	add	r1, sp, #80	@ 0x50
   23744:	223c      	movs	r2, #60	@ 0x3c
   23746:	f003 fc60 	bl	2700a <__aeabi_memcpy>
   2374a:	7025      	strb	r5, [r4, #0]
   2374c:	4c06      	ldr	r4, [pc, #24]	@ (23768 <_ZN18complex_no_dynamic3app17hddbe02a13b688855E+0xa8>)
   2374e:	4620      	mov	r0, r4
   23750:	4631      	mov	r1, r6
   23752:	462a      	mov	r2, r5
   23754:	462b      	mov	r3, r5
   23756:	df03      	svc	3
   23758:	2104      	movs	r1, #4
   2375a:	4620      	mov	r0, r4
   2375c:	462a      	mov	r2, r5
   2375e:	462b      	mov	r3, r5
   23760:	df04      	svc	4
   23762:	b023      	add	sp, #140	@ 0x8c
   23764:	bdf0      	pop	{r4, r5, r6, r7, pc}
   23766:	46c0      	nop			@ (mov r8, r8)
   23768:	000021ab 	.word	0x000021ab

0002376c <_ZN18complex_no_dynamic3app17hdf11410fb776757fE>:
   2376c:	b5f0      	push	{r4, r5, r6, r7, lr}
   2376e:	af03      	add	r7, sp, #12
   23770:	b097      	sub	sp, #92	@ 0x5c
   23772:	4604      	mov	r4, r0
   23774:	ad01      	add	r5, sp, #4
   23776:	2648      	movs	r6, #72	@ 0x48
   23778:	4628      	mov	r0, r5
   2377a:	4632      	mov	r2, r6
   2377c:	f003 fc45 	bl	2700a <__aeabi_memcpy>
   23780:	a813      	add	r0, sp, #76	@ 0x4c
   23782:	2100      	movs	r1, #0
   23784:	7381      	strb	r1, [r0, #14]
   23786:	8181      	strh	r1, [r0, #12]
   23788:	9115      	str	r1, [sp, #84]	@ 0x54
   2378a:	9114      	str	r1, [sp, #80]	@ 0x50
   2378c:	9113      	str	r1, [sp, #76]	@ 0x4c
   2378e:	4822      	ldr	r0, [pc, #136]	@ (23818 <_ZN18complex_no_dynamic3app17hdf11410fb776757fE+0xac>)
   23790:	2108      	movs	r1, #8
   23792:	462a      	mov	r2, r5
   23794:	4633      	mov	r3, r6
   23796:	df04      	svc	4
   23798:	2802      	cmp	r0, #2
   2379a:	d00e      	beq.n	237ba <_ZN18complex_no_dynamic3app17hdf11410fb776757fE+0x4e>
   2379c:	481e      	ldr	r0, [pc, #120]	@ (23818 <_ZN18complex_no_dynamic3app17hdf11410fb776757fE+0xac>)
   2379e:	2109      	movs	r1, #9
   237a0:	aa13      	add	r2, sp, #76	@ 0x4c
   237a2:	230f      	movs	r3, #15
   237a4:	df03      	svc	3
   237a6:	2802      	cmp	r0, #2
   237a8:	d007      	beq.n	237ba <_ZN18complex_no_dynamic3app17hdf11410fb776757fE+0x4e>
   237aa:	481b      	ldr	r0, [pc, #108]	@ (23818 <_ZN18complex_no_dynamic3app17hdf11410fb776757fE+0xac>)
   237ac:	2108      	movs	r1, #8
   237ae:	2209      	movs	r2, #9
   237b0:	2500      	movs	r5, #0
   237b2:	462b      	mov	r3, r5
   237b4:	df02      	svc	2
   237b6:	287f      	cmp	r0, #127	@ 0x7f
   237b8:	d810      	bhi.n	237dc <_ZN18complex_no_dynamic3app17hdf11410fb776757fE+0x70>
   237ba:	2001      	movs	r0, #1
   237bc:	7020      	strb	r0, [r4, #0]
   237be:	6061      	str	r1, [r4, #4]
   237c0:	4c15      	ldr	r4, [pc, #84]	@ (23818 <_ZN18complex_no_dynamic3app17hdf11410fb776757fE+0xac>)
   237c2:	2109      	movs	r1, #9
   237c4:	2500      	movs	r5, #0
   237c6:	4620      	mov	r0, r4
   237c8:	462a      	mov	r2, r5
   237ca:	462b      	mov	r3, r5
   237cc:	df03      	svc	3
   237ce:	2108      	movs	r1, #8
   237d0:	4620      	mov	r0, r4
   237d2:	462a      	mov	r2, r5
   237d4:	462b      	mov	r3, r5
   237d6:	df04      	svc	4
   237d8:	b017      	add	sp, #92	@ 0x5c
   237da:	bdf0      	pop	{r4, r5, r6, r7, pc}
   237dc:	480e      	ldr	r0, [pc, #56]	@ (23818 <_ZN18complex_no_dynamic3app17hdf11410fb776757fE+0xac>)
   237de:	2609      	movs	r6, #9
   237e0:	4631      	mov	r1, r6
   237e2:	462a      	mov	r2, r5
   237e4:	462b      	mov	r3, r5
   237e6:	df03      	svc	3
   237e8:	480b      	ldr	r0, [pc, #44]	@ (23818 <_ZN18complex_no_dynamic3app17hdf11410fb776757fE+0xac>)
   237ea:	4631      	mov	r1, r6
   237ec:	462a      	mov	r2, r5
   237ee:	462b      	mov	r3, r5
   237f0:	df03      	svc	3
   237f2:	1c60      	adds	r0, r4, #1
   237f4:	a913      	add	r1, sp, #76	@ 0x4c
   237f6:	220f      	movs	r2, #15
   237f8:	f003 fc07 	bl	2700a <__aeabi_memcpy>
   237fc:	7025      	strb	r5, [r4, #0]
   237fe:	4c06      	ldr	r4, [pc, #24]	@ (23818 <_ZN18complex_no_dynamic3app17hdf11410fb776757fE+0xac>)
   23800:	4620      	mov	r0, r4
   23802:	4631      	mov	r1, r6
   23804:	462a      	mov	r2, r5
   23806:	462b      	mov	r3, r5
   23808:	df03      	svc	3
   2380a:	2108      	movs	r1, #8
   2380c:	4620      	mov	r0, r4
   2380e:	462a      	mov	r2, r5
   23810:	462b      	mov	r3, r5
   23812:	df04      	svc	4
   23814:	b017      	add	sp, #92	@ 0x5c
   23816:	bdf0      	pop	{r4, r5, r6, r7, pc}
   23818:	0000111d 	.word	0x0000111d

0002381c <_ZN18complex_no_dynamic3app17he51e98b3c7aa5a67E>:
   2381c:	b5f0      	push	{r4, r5, r6, r7, lr}
   2381e:	af03      	add	r7, sp, #12
   23820:	b093      	sub	sp, #76	@ 0x4c
   23822:	4604      	mov	r4, r0
   23824:	ad01      	add	r5, sp, #4
   23826:	2629      	movs	r6, #41	@ 0x29
   23828:	4628      	mov	r0, r5
   2382a:	4632      	mov	r2, r6
   2382c:	f003 fbed 	bl	2700a <__aeabi_memcpy>
   23830:	a80c      	add	r0, sp, #48	@ 0x30
   23832:	2100      	movs	r1, #0
   23834:	8301      	strh	r1, [r0, #24]
   23836:	9111      	str	r1, [sp, #68]	@ 0x44
   23838:	9110      	str	r1, [sp, #64]	@ 0x40
   2383a:	910f      	str	r1, [sp, #60]	@ 0x3c
   2383c:	910e      	str	r1, [sp, #56]	@ 0x38
   2383e:	910d      	str	r1, [sp, #52]	@ 0x34
   23840:	910c      	str	r1, [sp, #48]	@ 0x30
   23842:	4822      	ldr	r0, [pc, #136]	@ (238cc <_ZN18complex_no_dynamic3app17he51e98b3c7aa5a67E+0xb0>)
   23844:	2105      	movs	r1, #5
   23846:	462a      	mov	r2, r5
   23848:	4633      	mov	r3, r6
   2384a:	df04      	svc	4
   2384c:	2802      	cmp	r0, #2
   2384e:	d00e      	beq.n	2386e <_ZN18complex_no_dynamic3app17he51e98b3c7aa5a67E+0x52>
   23850:	481e      	ldr	r0, [pc, #120]	@ (238cc <_ZN18complex_no_dynamic3app17he51e98b3c7aa5a67E+0xb0>)
   23852:	2103      	movs	r1, #3
   23854:	aa0c      	add	r2, sp, #48	@ 0x30
   23856:	231a      	movs	r3, #26
   23858:	df03      	svc	3
   2385a:	2802      	cmp	r0, #2
   2385c:	d007      	beq.n	2386e <_ZN18complex_no_dynamic3app17he51e98b3c7aa5a67E+0x52>
   2385e:	481b      	ldr	r0, [pc, #108]	@ (238cc <_ZN18complex_no_dynamic3app17he51e98b3c7aa5a67E+0xb0>)
   23860:	2105      	movs	r1, #5
   23862:	2203      	movs	r2, #3
   23864:	2500      	movs	r5, #0
   23866:	462b      	mov	r3, r5
   23868:	df02      	svc	2
   2386a:	287f      	cmp	r0, #127	@ 0x7f
   2386c:	d810      	bhi.n	23890 <_ZN18complex_no_dynamic3app17he51e98b3c7aa5a67E+0x74>
   2386e:	2001      	movs	r0, #1
   23870:	7020      	strb	r0, [r4, #0]
   23872:	6061      	str	r1, [r4, #4]
   23874:	4c15      	ldr	r4, [pc, #84]	@ (238cc <_ZN18complex_no_dynamic3app17he51e98b3c7aa5a67E+0xb0>)
   23876:	2103      	movs	r1, #3
   23878:	2500      	movs	r5, #0
   2387a:	4620      	mov	r0, r4
   2387c:	462a      	mov	r2, r5
   2387e:	462b      	mov	r3, r5
   23880:	df03      	svc	3
   23882:	2105      	movs	r1, #5
   23884:	4620      	mov	r0, r4
   23886:	462a      	mov	r2, r5
   23888:	462b      	mov	r3, r5
   2388a:	df04      	svc	4
   2388c:	b013      	add	sp, #76	@ 0x4c
   2388e:	bdf0      	pop	{r4, r5, r6, r7, pc}
   23890:	480e      	ldr	r0, [pc, #56]	@ (238cc <_ZN18complex_no_dynamic3app17he51e98b3c7aa5a67E+0xb0>)
   23892:	2603      	movs	r6, #3
   23894:	4631      	mov	r1, r6
   23896:	462a      	mov	r2, r5
   23898:	462b      	mov	r3, r5
   2389a:	df03      	svc	3
   2389c:	480b      	ldr	r0, [pc, #44]	@ (238cc <_ZN18complex_no_dynamic3app17he51e98b3c7aa5a67E+0xb0>)
   2389e:	4631      	mov	r1, r6
   238a0:	462a      	mov	r2, r5
   238a2:	462b      	mov	r3, r5
   238a4:	df03      	svc	3
   238a6:	1c60      	adds	r0, r4, #1
   238a8:	a90c      	add	r1, sp, #48	@ 0x30
   238aa:	221a      	movs	r2, #26
   238ac:	f003 fbad 	bl	2700a <__aeabi_memcpy>
   238b0:	7025      	strb	r5, [r4, #0]
   238b2:	4c06      	ldr	r4, [pc, #24]	@ (238cc <_ZN18complex_no_dynamic3app17he51e98b3c7aa5a67E+0xb0>)
   238b4:	4620      	mov	r0, r4
   238b6:	4631      	mov	r1, r6
   238b8:	462a      	mov	r2, r5
   238ba:	462b      	mov	r3, r5
   238bc:	df03      	svc	3
   238be:	2105      	movs	r1, #5
   238c0:	4620      	mov	r0, r4
   238c2:	462a      	mov	r2, r5
   238c4:	462b      	mov	r3, r5
   238c6:	df04      	svc	4
   238c8:	b013      	add	sp, #76	@ 0x4c
   238ca:	bdf0      	pop	{r4, r5, r6, r7, pc}
   238cc:	00002048 	.word	0x00002048

000238d0 <_ZN18complex_no_dynamic3app17he8201c4def020c00E>:
   238d0:	b5f0      	push	{r4, r5, r6, r7, lr}
   238d2:	af03      	add	r7, sp, #12
   238d4:	b0a5      	sub	sp, #148	@ 0x94
   238d6:	4604      	mov	r4, r0
   238d8:	ad01      	add	r5, sp, #4
   238da:	2663      	movs	r6, #99	@ 0x63
   238dc:	4628      	mov	r0, r5
   238de:	4632      	mov	r2, r6
   238e0:	f003 fb93 	bl	2700a <__aeabi_memcpy>
   238e4:	a81a      	add	r0, sp, #104	@ 0x68
   238e6:	212c      	movs	r1, #44	@ 0x2c
   238e8:	f003 f9e2 	bl	26cb0 <__aeabi_memclr4>
   238ec:	2018      	movs	r0, #24
   238ee:	2105      	movs	r1, #5
   238f0:	462a      	mov	r2, r5
   238f2:	4633      	mov	r3, r6
   238f4:	df04      	svc	4
   238f6:	2802      	cmp	r0, #2
   238f8:	d00e      	beq.n	23918 <_ZN18complex_no_dynamic3app17he8201c4def020c00E+0x48>
   238fa:	2018      	movs	r0, #24
   238fc:	2103      	movs	r1, #3
   238fe:	aa1a      	add	r2, sp, #104	@ 0x68
   23900:	232c      	movs	r3, #44	@ 0x2c
   23902:	df03      	svc	3
   23904:	2802      	cmp	r0, #2
   23906:	d007      	beq.n	23918 <_ZN18complex_no_dynamic3app17he8201c4def020c00E+0x48>
   23908:	2018      	movs	r0, #24
   2390a:	2105      	movs	r1, #5
   2390c:	2203      	movs	r2, #3
   2390e:	2500      	movs	r5, #0
   23910:	462b      	mov	r3, r5
   23912:	df02      	svc	2
   23914:	287f      	cmp	r0, #127	@ 0x7f
   23916:	d810      	bhi.n	2393a <_ZN18complex_no_dynamic3app17he8201c4def020c00E+0x6a>
   23918:	2001      	movs	r0, #1
   2391a:	7020      	strb	r0, [r4, #0]
   2391c:	6061      	str	r1, [r4, #4]
   2391e:	2418      	movs	r4, #24
   23920:	2103      	movs	r1, #3
   23922:	2500      	movs	r5, #0
   23924:	4620      	mov	r0, r4
   23926:	462a      	mov	r2, r5
   23928:	462b      	mov	r3, r5
   2392a:	df03      	svc	3
   2392c:	2105      	movs	r1, #5
   2392e:	4620      	mov	r0, r4
   23930:	462a      	mov	r2, r5
   23932:	462b      	mov	r3, r5
   23934:	df04      	svc	4
   23936:	b025      	add	sp, #148	@ 0x94
   23938:	bdf0      	pop	{r4, r5, r6, r7, pc}
   2393a:	2018      	movs	r0, #24
   2393c:	9000      	str	r0, [sp, #0]
   2393e:	2603      	movs	r6, #3
   23940:	4631      	mov	r1, r6
   23942:	462a      	mov	r2, r5
   23944:	462b      	mov	r3, r5
   23946:	df03      	svc	3
   23948:	9800      	ldr	r0, [sp, #0]
   2394a:	4631      	mov	r1, r6
   2394c:	462a      	mov	r2, r5
   2394e:	462b      	mov	r3, r5
   23950:	df03      	svc	3
   23952:	1c60      	adds	r0, r4, #1
   23954:	a91a      	add	r1, sp, #104	@ 0x68
   23956:	222c      	movs	r2, #44	@ 0x2c
   23958:	f003 fb57 	bl	2700a <__aeabi_memcpy>
   2395c:	7025      	strb	r5, [r4, #0]
   2395e:	9c00      	ldr	r4, [sp, #0]
   23960:	4620      	mov	r0, r4
   23962:	4631      	mov	r1, r6
   23964:	462a      	mov	r2, r5
   23966:	462b      	mov	r3, r5
   23968:	df03      	svc	3
   2396a:	2105      	movs	r1, #5
   2396c:	4620      	mov	r0, r4
   2396e:	462a      	mov	r2, r5
   23970:	462b      	mov	r3, r5
   23972:	df04      	svc	4
   23974:	b025      	add	sp, #148	@ 0x94
   23976:	bdf0      	pop	{r4, r5, r6, r7, pc}

00023978 <_ZN18complex_no_dynamic3app17he8e36515b515e6f8E>:
   23978:	b5f0      	push	{r4, r5, r6, r7, lr}
   2397a:	af03      	add	r7, sp, #12
   2397c:	b093      	sub	sp, #76	@ 0x4c
   2397e:	4604      	mov	r4, r0
   23980:	7b08      	ldrb	r0, [r1, #12]
   23982:	7b4a      	ldrb	r2, [r1, #13]
   23984:	0212      	lsls	r2, r2, #8
   23986:	1810      	adds	r0, r2, r0
   23988:	7b8a      	ldrb	r2, [r1, #14]
   2398a:	0412      	lsls	r2, r2, #16
   2398c:	7bcb      	ldrb	r3, [r1, #15]
   2398e:	061b      	lsls	r3, r3, #24
   23990:	189a      	adds	r2, r3, r2
   23992:	1810      	adds	r0, r2, r0
   23994:	9004      	str	r0, [sp, #16]
   23996:	7a08      	ldrb	r0, [r1, #8]
   23998:	7a4a      	ldrb	r2, [r1, #9]
   2399a:	0212      	lsls	r2, r2, #8
   2399c:	1810      	adds	r0, r2, r0
   2399e:	7a8a      	ldrb	r2, [r1, #10]
   239a0:	0412      	lsls	r2, r2, #16
   239a2:	7acb      	ldrb	r3, [r1, #11]
   239a4:	061b      	lsls	r3, r3, #24
   239a6:	189a      	adds	r2, r3, r2
   239a8:	1810      	adds	r0, r2, r0
   239aa:	9003      	str	r0, [sp, #12]
   239ac:	7908      	ldrb	r0, [r1, #4]
   239ae:	794a      	ldrb	r2, [r1, #5]
   239b0:	0212      	lsls	r2, r2, #8
   239b2:	1810      	adds	r0, r2, r0
   239b4:	798a      	ldrb	r2, [r1, #6]
   239b6:	0412      	lsls	r2, r2, #16
   239b8:	79cb      	ldrb	r3, [r1, #7]
   239ba:	061b      	lsls	r3, r3, #24
   239bc:	189a      	adds	r2, r3, r2
   239be:	1810      	adds	r0, r2, r0
   239c0:	9002      	str	r0, [sp, #8]
   239c2:	7808      	ldrb	r0, [r1, #0]
   239c4:	784a      	ldrb	r2, [r1, #1]
   239c6:	0212      	lsls	r2, r2, #8
   239c8:	1810      	adds	r0, r2, r0
   239ca:	788a      	ldrb	r2, [r1, #2]
   239cc:	0412      	lsls	r2, r2, #16
   239ce:	78c9      	ldrb	r1, [r1, #3]
   239d0:	0609      	lsls	r1, r1, #24
   239d2:	1889      	adds	r1, r1, r2
   239d4:	1808      	adds	r0, r1, r0
   239d6:	9001      	str	r0, [sp, #4]
   239d8:	a805      	add	r0, sp, #20
   239da:	2136      	movs	r1, #54	@ 0x36
   239dc:	f003 f968 	bl	26cb0 <__aeabi_memclr4>
   239e0:	4822      	ldr	r0, [pc, #136]	@ (23a6c <_ZN18complex_no_dynamic3app17he8e36515b515e6f8E+0xf4>)
   239e2:	2501      	movs	r5, #1
   239e4:	aa01      	add	r2, sp, #4
   239e6:	2310      	movs	r3, #16
   239e8:	4629      	mov	r1, r5
   239ea:	df04      	svc	4
   239ec:	2802      	cmp	r0, #2
   239ee:	d00e      	beq.n	23a0e <_ZN18complex_no_dynamic3app17he8e36515b515e6f8E+0x96>
   239f0:	481e      	ldr	r0, [pc, #120]	@ (23a6c <_ZN18complex_no_dynamic3app17he8e36515b515e6f8E+0xf4>)
   239f2:	2107      	movs	r1, #7
   239f4:	aa05      	add	r2, sp, #20
   239f6:	2336      	movs	r3, #54	@ 0x36
   239f8:	df03      	svc	3
   239fa:	2802      	cmp	r0, #2
   239fc:	d007      	beq.n	23a0e <_ZN18complex_no_dynamic3app17he8e36515b515e6f8E+0x96>
   239fe:	481b      	ldr	r0, [pc, #108]	@ (23a6c <_ZN18complex_no_dynamic3app17he8e36515b515e6f8E+0xf4>)
   23a00:	2101      	movs	r1, #1
   23a02:	2207      	movs	r2, #7
   23a04:	2600      	movs	r6, #0
   23a06:	4633      	mov	r3, r6
   23a08:	df02      	svc	2
   23a0a:	287f      	cmp	r0, #127	@ 0x7f
   23a0c:	d80f      	bhi.n	23a2e <_ZN18complex_no_dynamic3app17he8e36515b515e6f8E+0xb6>
   23a0e:	7025      	strb	r5, [r4, #0]
   23a10:	6061      	str	r1, [r4, #4]
   23a12:	4c16      	ldr	r4, [pc, #88]	@ (23a6c <_ZN18complex_no_dynamic3app17he8e36515b515e6f8E+0xf4>)
   23a14:	2107      	movs	r1, #7
   23a16:	2600      	movs	r6, #0
   23a18:	4620      	mov	r0, r4
   23a1a:	4632      	mov	r2, r6
   23a1c:	4633      	mov	r3, r6
   23a1e:	df03      	svc	3
   23a20:	4620      	mov	r0, r4
   23a22:	4629      	mov	r1, r5
   23a24:	4632      	mov	r2, r6
   23a26:	4633      	mov	r3, r6
   23a28:	df04      	svc	4
   23a2a:	b013      	add	sp, #76	@ 0x4c
   23a2c:	bdf0      	pop	{r4, r5, r6, r7, pc}
   23a2e:	480f      	ldr	r0, [pc, #60]	@ (23a6c <_ZN18complex_no_dynamic3app17he8e36515b515e6f8E+0xf4>)
   23a30:	2507      	movs	r5, #7
   23a32:	4629      	mov	r1, r5
   23a34:	4632      	mov	r2, r6
   23a36:	4633      	mov	r3, r6
   23a38:	df03      	svc	3
   23a3a:	480c      	ldr	r0, [pc, #48]	@ (23a6c <_ZN18complex_no_dynamic3app17he8e36515b515e6f8E+0xf4>)
   23a3c:	4629      	mov	r1, r5
   23a3e:	4632      	mov	r2, r6
   23a40:	4633      	mov	r3, r6
   23a42:	df03      	svc	3
   23a44:	1c60      	adds	r0, r4, #1
   23a46:	a905      	add	r1, sp, #20
   23a48:	2236      	movs	r2, #54	@ 0x36
   23a4a:	f003 fade 	bl	2700a <__aeabi_memcpy>
   23a4e:	7026      	strb	r6, [r4, #0]
   23a50:	4c06      	ldr	r4, [pc, #24]	@ (23a6c <_ZN18complex_no_dynamic3app17he8e36515b515e6f8E+0xf4>)
   23a52:	4620      	mov	r0, r4
   23a54:	4629      	mov	r1, r5
   23a56:	4632      	mov	r2, r6
   23a58:	4633      	mov	r3, r6
   23a5a:	df03      	svc	3
   23a5c:	2101      	movs	r1, #1
   23a5e:	4620      	mov	r0, r4
   23a60:	4632      	mov	r2, r6
   23a62:	4633      	mov	r3, r6
   23a64:	df04      	svc	4
   23a66:	b013      	add	sp, #76	@ 0x4c
   23a68:	bdf0      	pop	{r4, r5, r6, r7, pc}
   23a6a:	46c0      	nop			@ (mov r8, r8)
   23a6c:	00001989 	.word	0x00001989

00023a70 <_ZN18complex_no_dynamic3app17he9066ad616b12b40E>:
   23a70:	b5f0      	push	{r4, r5, r6, r7, lr}
   23a72:	af03      	add	r7, sp, #12
   23a74:	b08f      	sub	sp, #60	@ 0x3c
   23a76:	4604      	mov	r4, r0
   23a78:	ad01      	add	r5, sp, #4
   23a7a:	260f      	movs	r6, #15
   23a7c:	4628      	mov	r0, r5
   23a7e:	4632      	mov	r2, r6
   23a80:	f003 fac3 	bl	2700a <__aeabi_memcpy>
   23a84:	a805      	add	r0, sp, #20
   23a86:	2125      	movs	r1, #37	@ 0x25
   23a88:	f003 f912 	bl	26cb0 <__aeabi_memclr4>
   23a8c:	20a2      	movs	r0, #162	@ 0xa2
   23a8e:	2108      	movs	r1, #8
   23a90:	462a      	mov	r2, r5
   23a92:	4633      	mov	r3, r6
   23a94:	df04      	svc	4
   23a96:	2802      	cmp	r0, #2
   23a98:	d00e      	beq.n	23ab8 <_ZN18complex_no_dynamic3app17he9066ad616b12b40E+0x48>
   23a9a:	20a2      	movs	r0, #162	@ 0xa2
   23a9c:	2100      	movs	r1, #0
   23a9e:	aa05      	add	r2, sp, #20
   23aa0:	2325      	movs	r3, #37	@ 0x25
   23aa2:	df03      	svc	3
   23aa4:	2802      	cmp	r0, #2
   23aa6:	d007      	beq.n	23ab8 <_ZN18complex_no_dynamic3app17he9066ad616b12b40E+0x48>
   23aa8:	20a2      	movs	r0, #162	@ 0xa2
   23aaa:	2108      	movs	r1, #8
   23aac:	2500      	movs	r5, #0
   23aae:	462a      	mov	r2, r5
   23ab0:	462b      	mov	r3, r5
   23ab2:	df02      	svc	2
   23ab4:	287f      	cmp	r0, #127	@ 0x7f
   23ab6:	d810      	bhi.n	23ada <_ZN18complex_no_dynamic3app17he9066ad616b12b40E+0x6a>
   23ab8:	2001      	movs	r0, #1
   23aba:	7020      	strb	r0, [r4, #0]
   23abc:	6061      	str	r1, [r4, #4]
   23abe:	24a2      	movs	r4, #162	@ 0xa2
   23ac0:	2500      	movs	r5, #0
   23ac2:	4620      	mov	r0, r4
   23ac4:	4629      	mov	r1, r5
   23ac6:	462a      	mov	r2, r5
   23ac8:	462b      	mov	r3, r5
   23aca:	df03      	svc	3
   23acc:	2108      	movs	r1, #8
   23ace:	4620      	mov	r0, r4
   23ad0:	462a      	mov	r2, r5
   23ad2:	462b      	mov	r3, r5
   23ad4:	df04      	svc	4
   23ad6:	b00f      	add	sp, #60	@ 0x3c
   23ad8:	bdf0      	pop	{r4, r5, r6, r7, pc}
   23ada:	26a2      	movs	r6, #162	@ 0xa2
   23adc:	4630      	mov	r0, r6
   23ade:	4629      	mov	r1, r5
   23ae0:	462a      	mov	r2, r5
   23ae2:	462b      	mov	r3, r5
   23ae4:	df03      	svc	3
   23ae6:	4630      	mov	r0, r6
   23ae8:	4629      	mov	r1, r5
   23aea:	462a      	mov	r2, r5
   23aec:	462b      	mov	r3, r5
   23aee:	df03      	svc	3
   23af0:	1c60      	adds	r0, r4, #1
   23af2:	a905      	add	r1, sp, #20
   23af4:	2225      	movs	r2, #37	@ 0x25
   23af6:	f003 fa88 	bl	2700a <__aeabi_memcpy>
   23afa:	7025      	strb	r5, [r4, #0]
   23afc:	4630      	mov	r0, r6
   23afe:	4629      	mov	r1, r5
   23b00:	462a      	mov	r2, r5
   23b02:	462b      	mov	r3, r5
   23b04:	df03      	svc	3
   23b06:	2108      	movs	r1, #8
   23b08:	4630      	mov	r0, r6
   23b0a:	462a      	mov	r2, r5
   23b0c:	462b      	mov	r3, r5
   23b0e:	df04      	svc	4
   23b10:	b00f      	add	sp, #60	@ 0x3c
   23b12:	bdf0      	pop	{r4, r5, r6, r7, pc}

00023b14 <_ZN18complex_no_dynamic3app17heb4de6fcaf57a816E>:
   23b14:	b5f0      	push	{r4, r5, r6, r7, lr}
   23b16:	af03      	add	r7, sp, #12
   23b18:	b09f      	sub	sp, #124	@ 0x7c
   23b1a:	4604      	mov	r4, r0
   23b1c:	ad01      	add	r5, sp, #4
   23b1e:	2632      	movs	r6, #50	@ 0x32
   23b20:	4628      	mov	r0, r5
   23b22:	4632      	mov	r2, r6
   23b24:	f003 fa71 	bl	2700a <__aeabi_memcpy>
   23b28:	a80e      	add	r0, sp, #56	@ 0x38
   23b2a:	2141      	movs	r1, #65	@ 0x41
   23b2c:	f003 f8c0 	bl	26cb0 <__aeabi_memclr4>
   23b30:	4822      	ldr	r0, [pc, #136]	@ (23bbc <_ZN18complex_no_dynamic3app17heb4de6fcaf57a816E+0xa8>)
   23b32:	2107      	movs	r1, #7
   23b34:	462a      	mov	r2, r5
   23b36:	4633      	mov	r3, r6
   23b38:	df04      	svc	4
   23b3a:	2802      	cmp	r0, #2
   23b3c:	d00e      	beq.n	23b5c <_ZN18complex_no_dynamic3app17heb4de6fcaf57a816E+0x48>
   23b3e:	481f      	ldr	r0, [pc, #124]	@ (23bbc <_ZN18complex_no_dynamic3app17heb4de6fcaf57a816E+0xa8>)
   23b40:	2105      	movs	r1, #5
   23b42:	aa0e      	add	r2, sp, #56	@ 0x38
   23b44:	2341      	movs	r3, #65	@ 0x41
   23b46:	df03      	svc	3
   23b48:	2802      	cmp	r0, #2
   23b4a:	d007      	beq.n	23b5c <_ZN18complex_no_dynamic3app17heb4de6fcaf57a816E+0x48>
   23b4c:	481b      	ldr	r0, [pc, #108]	@ (23bbc <_ZN18complex_no_dynamic3app17heb4de6fcaf57a816E+0xa8>)
   23b4e:	2107      	movs	r1, #7
   23b50:	2205      	movs	r2, #5
   23b52:	2500      	movs	r5, #0
   23b54:	462b      	mov	r3, r5
   23b56:	df02      	svc	2
   23b58:	287f      	cmp	r0, #127	@ 0x7f
   23b5a:	d810      	bhi.n	23b7e <_ZN18complex_no_dynamic3app17heb4de6fcaf57a816E+0x6a>
   23b5c:	2001      	movs	r0, #1
   23b5e:	7020      	strb	r0, [r4, #0]
   23b60:	6061      	str	r1, [r4, #4]
   23b62:	4c16      	ldr	r4, [pc, #88]	@ (23bbc <_ZN18complex_no_dynamic3app17heb4de6fcaf57a816E+0xa8>)
   23b64:	2105      	movs	r1, #5
   23b66:	2500      	movs	r5, #0
   23b68:	4620      	mov	r0, r4
   23b6a:	462a      	mov	r2, r5
   23b6c:	462b      	mov	r3, r5
   23b6e:	df03      	svc	3
   23b70:	2107      	movs	r1, #7
   23b72:	4620      	mov	r0, r4
   23b74:	462a      	mov	r2, r5
   23b76:	462b      	mov	r3, r5
   23b78:	df04      	svc	4
   23b7a:	b01f      	add	sp, #124	@ 0x7c
   23b7c:	bdf0      	pop	{r4, r5, r6, r7, pc}
   23b7e:	480f      	ldr	r0, [pc, #60]	@ (23bbc <_ZN18complex_no_dynamic3app17heb4de6fcaf57a816E+0xa8>)
   23b80:	2605      	movs	r6, #5
   23b82:	4631      	mov	r1, r6
   23b84:	462a      	mov	r2, r5
   23b86:	462b      	mov	r3, r5
   23b88:	df03      	svc	3
   23b8a:	480c      	ldr	r0, [pc, #48]	@ (23bbc <_ZN18complex_no_dynamic3app17heb4de6fcaf57a816E+0xa8>)
   23b8c:	4631      	mov	r1, r6
   23b8e:	462a      	mov	r2, r5
   23b90:	462b      	mov	r3, r5
   23b92:	df03      	svc	3
   23b94:	1c60      	adds	r0, r4, #1
   23b96:	a90e      	add	r1, sp, #56	@ 0x38
   23b98:	2241      	movs	r2, #65	@ 0x41
   23b9a:	f003 fa36 	bl	2700a <__aeabi_memcpy>
   23b9e:	7025      	strb	r5, [r4, #0]
   23ba0:	4c06      	ldr	r4, [pc, #24]	@ (23bbc <_ZN18complex_no_dynamic3app17heb4de6fcaf57a816E+0xa8>)
   23ba2:	4620      	mov	r0, r4
   23ba4:	4631      	mov	r1, r6
   23ba6:	462a      	mov	r2, r5
   23ba8:	462b      	mov	r3, r5
   23baa:	df03      	svc	3
   23bac:	2107      	movs	r1, #7
   23bae:	4620      	mov	r0, r4
   23bb0:	462a      	mov	r2, r5
   23bb2:	462b      	mov	r3, r5
   23bb4:	df04      	svc	4
   23bb6:	b01f      	add	sp, #124	@ 0x7c
   23bb8:	bdf0      	pop	{r4, r5, r6, r7, pc}
   23bba:	46c0      	nop			@ (mov r8, r8)
   23bbc:	0000091d 	.word	0x0000091d

00023bc0 <_ZN18complex_no_dynamic3app17hed99df9a0b6a9066E>:
   23bc0:	b5f0      	push	{r4, r5, r6, r7, lr}
   23bc2:	af03      	add	r7, sp, #12
   23bc4:	b09f      	sub	sp, #124	@ 0x7c
   23bc6:	4604      	mov	r4, r0
   23bc8:	466d      	mov	r5, sp
   23bca:	2631      	movs	r6, #49	@ 0x31
   23bcc:	4628      	mov	r0, r5
   23bce:	4632      	mov	r2, r6
   23bd0:	f003 fa1b 	bl	2700a <__aeabi_memcpy>
   23bd4:	a80d      	add	r0, sp, #52	@ 0x34
   23bd6:	2148      	movs	r1, #72	@ 0x48
   23bd8:	f003 f86a 	bl	26cb0 <__aeabi_memclr4>
   23bdc:	4822      	ldr	r0, [pc, #136]	@ (23c68 <_ZN18complex_no_dynamic3app17hed99df9a0b6a9066E+0xa8>)
   23bde:	2104      	movs	r1, #4
   23be0:	462a      	mov	r2, r5
   23be2:	4633      	mov	r3, r6
   23be4:	df04      	svc	4
   23be6:	2802      	cmp	r0, #2
   23be8:	d00e      	beq.n	23c08 <_ZN18complex_no_dynamic3app17hed99df9a0b6a9066E+0x48>
   23bea:	481f      	ldr	r0, [pc, #124]	@ (23c68 <_ZN18complex_no_dynamic3app17hed99df9a0b6a9066E+0xa8>)
   23bec:	2103      	movs	r1, #3
   23bee:	aa0d      	add	r2, sp, #52	@ 0x34
   23bf0:	2348      	movs	r3, #72	@ 0x48
   23bf2:	df03      	svc	3
   23bf4:	2802      	cmp	r0, #2
   23bf6:	d007      	beq.n	23c08 <_ZN18complex_no_dynamic3app17hed99df9a0b6a9066E+0x48>
   23bf8:	481b      	ldr	r0, [pc, #108]	@ (23c68 <_ZN18complex_no_dynamic3app17hed99df9a0b6a9066E+0xa8>)
   23bfa:	2104      	movs	r1, #4
   23bfc:	2203      	movs	r2, #3
   23bfe:	2500      	movs	r5, #0
   23c00:	462b      	mov	r3, r5
   23c02:	df02      	svc	2
   23c04:	287f      	cmp	r0, #127	@ 0x7f
   23c06:	d810      	bhi.n	23c2a <_ZN18complex_no_dynamic3app17hed99df9a0b6a9066E+0x6a>
   23c08:	2001      	movs	r0, #1
   23c0a:	7020      	strb	r0, [r4, #0]
   23c0c:	6061      	str	r1, [r4, #4]
   23c0e:	4c16      	ldr	r4, [pc, #88]	@ (23c68 <_ZN18complex_no_dynamic3app17hed99df9a0b6a9066E+0xa8>)
   23c10:	2103      	movs	r1, #3
   23c12:	2500      	movs	r5, #0
   23c14:	4620      	mov	r0, r4
   23c16:	462a      	mov	r2, r5
   23c18:	462b      	mov	r3, r5
   23c1a:	df03      	svc	3
   23c1c:	2104      	movs	r1, #4
   23c1e:	4620      	mov	r0, r4
   23c20:	462a      	mov	r2, r5
   23c22:	462b      	mov	r3, r5
   23c24:	df04      	svc	4
   23c26:	b01f      	add	sp, #124	@ 0x7c
   23c28:	bdf0      	pop	{r4, r5, r6, r7, pc}
   23c2a:	480f      	ldr	r0, [pc, #60]	@ (23c68 <_ZN18complex_no_dynamic3app17hed99df9a0b6a9066E+0xa8>)
   23c2c:	2603      	movs	r6, #3
   23c2e:	4631      	mov	r1, r6
   23c30:	462a      	mov	r2, r5
   23c32:	462b      	mov	r3, r5
   23c34:	df03      	svc	3
   23c36:	480c      	ldr	r0, [pc, #48]	@ (23c68 <_ZN18complex_no_dynamic3app17hed99df9a0b6a9066E+0xa8>)
   23c38:	4631      	mov	r1, r6
   23c3a:	462a      	mov	r2, r5
   23c3c:	462b      	mov	r3, r5
   23c3e:	df03      	svc	3
   23c40:	1c60      	adds	r0, r4, #1
   23c42:	a90d      	add	r1, sp, #52	@ 0x34
   23c44:	2248      	movs	r2, #72	@ 0x48
   23c46:	f003 f9e0 	bl	2700a <__aeabi_memcpy>
   23c4a:	7025      	strb	r5, [r4, #0]
   23c4c:	4c06      	ldr	r4, [pc, #24]	@ (23c68 <_ZN18complex_no_dynamic3app17hed99df9a0b6a9066E+0xa8>)
   23c4e:	4620      	mov	r0, r4
   23c50:	4631      	mov	r1, r6
   23c52:	462a      	mov	r2, r5
   23c54:	462b      	mov	r3, r5
   23c56:	df03      	svc	3
   23c58:	2104      	movs	r1, #4
   23c5a:	4620      	mov	r0, r4
   23c5c:	462a      	mov	r2, r5
   23c5e:	462b      	mov	r3, r5
   23c60:	df04      	svc	4
   23c62:	b01f      	add	sp, #124	@ 0x7c
   23c64:	bdf0      	pop	{r4, r5, r6, r7, pc}
   23c66:	46c0      	nop			@ (mov r8, r8)
   23c68:	0000180e 	.word	0x0000180e

00023c6c <_ZN18complex_no_dynamic3app17hf2cfdc639d1012d8E>:
   23c6c:	b5f0      	push	{r4, r5, r6, r7, lr}
   23c6e:	af03      	add	r7, sp, #12
   23c70:	b095      	sub	sp, #84	@ 0x54
   23c72:	4604      	mov	r4, r0
   23c74:	466d      	mov	r5, sp
   23c76:	263f      	movs	r6, #63	@ 0x3f
   23c78:	4628      	mov	r0, r5
   23c7a:	4632      	mov	r2, r6
   23c7c:	f003 f9c5 	bl	2700a <__aeabi_memcpy>
   23c80:	a810      	add	r0, sp, #64	@ 0x40
   23c82:	2100      	movs	r1, #0
   23c84:	7401      	strb	r1, [r0, #16]
   23c86:	9113      	str	r1, [sp, #76]	@ 0x4c
   23c88:	9112      	str	r1, [sp, #72]	@ 0x48
   23c8a:	9111      	str	r1, [sp, #68]	@ 0x44
   23c8c:	9110      	str	r1, [sp, #64]	@ 0x40
   23c8e:	4822      	ldr	r0, [pc, #136]	@ (23d18 <_ZN18complex_no_dynamic3app17hf2cfdc639d1012d8E+0xac>)
   23c90:	2104      	movs	r1, #4
   23c92:	462a      	mov	r2, r5
   23c94:	4633      	mov	r3, r6
   23c96:	df04      	svc	4
   23c98:	2802      	cmp	r0, #2
   23c9a:	d00e      	beq.n	23cba <_ZN18complex_no_dynamic3app17hf2cfdc639d1012d8E+0x4e>
   23c9c:	481e      	ldr	r0, [pc, #120]	@ (23d18 <_ZN18complex_no_dynamic3app17hf2cfdc639d1012d8E+0xac>)
   23c9e:	2103      	movs	r1, #3
   23ca0:	aa10      	add	r2, sp, #64	@ 0x40
   23ca2:	2311      	movs	r3, #17
   23ca4:	df03      	svc	3
   23ca6:	2802      	cmp	r0, #2
   23ca8:	d007      	beq.n	23cba <_ZN18complex_no_dynamic3app17hf2cfdc639d1012d8E+0x4e>
   23caa:	481b      	ldr	r0, [pc, #108]	@ (23d18 <_ZN18complex_no_dynamic3app17hf2cfdc639d1012d8E+0xac>)
   23cac:	2104      	movs	r1, #4
   23cae:	2203      	movs	r2, #3
   23cb0:	2500      	movs	r5, #0
   23cb2:	462b      	mov	r3, r5
   23cb4:	df02      	svc	2
   23cb6:	287f      	cmp	r0, #127	@ 0x7f
   23cb8:	d810      	bhi.n	23cdc <_ZN18complex_no_dynamic3app17hf2cfdc639d1012d8E+0x70>
   23cba:	2001      	movs	r0, #1
   23cbc:	7020      	strb	r0, [r4, #0]
   23cbe:	6061      	str	r1, [r4, #4]
   23cc0:	4c15      	ldr	r4, [pc, #84]	@ (23d18 <_ZN18complex_no_dynamic3app17hf2cfdc639d1012d8E+0xac>)
   23cc2:	2103      	movs	r1, #3
   23cc4:	2500      	movs	r5, #0
   23cc6:	4620      	mov	r0, r4
   23cc8:	462a      	mov	r2, r5
   23cca:	462b      	mov	r3, r5
   23ccc:	df03      	svc	3
   23cce:	2104      	movs	r1, #4
   23cd0:	4620      	mov	r0, r4
   23cd2:	462a      	mov	r2, r5
   23cd4:	462b      	mov	r3, r5
   23cd6:	df04      	svc	4
   23cd8:	b015      	add	sp, #84	@ 0x54
   23cda:	bdf0      	pop	{r4, r5, r6, r7, pc}
   23cdc:	480e      	ldr	r0, [pc, #56]	@ (23d18 <_ZN18complex_no_dynamic3app17hf2cfdc639d1012d8E+0xac>)
   23cde:	2603      	movs	r6, #3
   23ce0:	4631      	mov	r1, r6
   23ce2:	462a      	mov	r2, r5
   23ce4:	462b      	mov	r3, r5
   23ce6:	df03      	svc	3
   23ce8:	480b      	ldr	r0, [pc, #44]	@ (23d18 <_ZN18complex_no_dynamic3app17hf2cfdc639d1012d8E+0xac>)
   23cea:	4631      	mov	r1, r6
   23cec:	462a      	mov	r2, r5
   23cee:	462b      	mov	r3, r5
   23cf0:	df03      	svc	3
   23cf2:	1c60      	adds	r0, r4, #1
   23cf4:	a910      	add	r1, sp, #64	@ 0x40
   23cf6:	2211      	movs	r2, #17
   23cf8:	f003 f987 	bl	2700a <__aeabi_memcpy>
   23cfc:	7025      	strb	r5, [r4, #0]
   23cfe:	4c06      	ldr	r4, [pc, #24]	@ (23d18 <_ZN18complex_no_dynamic3app17hf2cfdc639d1012d8E+0xac>)
   23d00:	4620      	mov	r0, r4
   23d02:	4631      	mov	r1, r6
   23d04:	462a      	mov	r2, r5
   23d06:	462b      	mov	r3, r5
   23d08:	df03      	svc	3
   23d0a:	2104      	movs	r1, #4
   23d0c:	4620      	mov	r0, r4
   23d0e:	462a      	mov	r2, r5
   23d10:	462b      	mov	r3, r5
   23d12:	df04      	svc	4
   23d14:	b015      	add	sp, #84	@ 0x54
   23d16:	bdf0      	pop	{r4, r5, r6, r7, pc}
   23d18:	000014d7 	.word	0x000014d7

00023d1c <_ZN18complex_no_dynamic3app17hf38543ecee9492f8E>:
   23d1c:	b5f0      	push	{r4, r5, r6, r7, lr}
   23d1e:	af03      	add	r7, sp, #12
   23d20:	b093      	sub	sp, #76	@ 0x4c
   23d22:	4604      	mov	r4, r0
   23d24:	ad01      	add	r5, sp, #4
   23d26:	2627      	movs	r6, #39	@ 0x27
   23d28:	4628      	mov	r0, r5
   23d2a:	4632      	mov	r2, r6
   23d2c:	f003 f96d 	bl	2700a <__aeabi_memcpy>
   23d30:	a80b      	add	r0, sp, #44	@ 0x2c
   23d32:	2100      	movs	r1, #0
   23d34:	8381      	strh	r1, [r0, #28]
   23d36:	9111      	str	r1, [sp, #68]	@ 0x44
   23d38:	9110      	str	r1, [sp, #64]	@ 0x40
   23d3a:	910f      	str	r1, [sp, #60]	@ 0x3c
   23d3c:	910e      	str	r1, [sp, #56]	@ 0x38
   23d3e:	910d      	str	r1, [sp, #52]	@ 0x34
   23d40:	910c      	str	r1, [sp, #48]	@ 0x30
   23d42:	910b      	str	r1, [sp, #44]	@ 0x2c
   23d44:	4822      	ldr	r0, [pc, #136]	@ (23dd0 <_ZN18complex_no_dynamic3app17hf38543ecee9492f8E+0xb4>)
   23d46:	2103      	movs	r1, #3
   23d48:	462a      	mov	r2, r5
   23d4a:	4633      	mov	r3, r6
   23d4c:	df04      	svc	4
   23d4e:	2802      	cmp	r0, #2
   23d50:	d00e      	beq.n	23d70 <_ZN18complex_no_dynamic3app17hf38543ecee9492f8E+0x54>
   23d52:	481f      	ldr	r0, [pc, #124]	@ (23dd0 <_ZN18complex_no_dynamic3app17hf38543ecee9492f8E+0xb4>)
   23d54:	2103      	movs	r1, #3
   23d56:	aa0b      	add	r2, sp, #44	@ 0x2c
   23d58:	231e      	movs	r3, #30
   23d5a:	df03      	svc	3
   23d5c:	2802      	cmp	r0, #2
   23d5e:	d007      	beq.n	23d70 <_ZN18complex_no_dynamic3app17hf38543ecee9492f8E+0x54>
   23d60:	481b      	ldr	r0, [pc, #108]	@ (23dd0 <_ZN18complex_no_dynamic3app17hf38543ecee9492f8E+0xb4>)
   23d62:	2103      	movs	r1, #3
   23d64:	2500      	movs	r5, #0
   23d66:	460a      	mov	r2, r1
   23d68:	462b      	mov	r3, r5
   23d6a:	df02      	svc	2
   23d6c:	287f      	cmp	r0, #127	@ 0x7f
   23d6e:	d811      	bhi.n	23d94 <_ZN18complex_no_dynamic3app17hf38543ecee9492f8E+0x78>
   23d70:	2001      	movs	r0, #1
   23d72:	7020      	strb	r0, [r4, #0]
   23d74:	6061      	str	r1, [r4, #4]
   23d76:	4c16      	ldr	r4, [pc, #88]	@ (23dd0 <_ZN18complex_no_dynamic3app17hf38543ecee9492f8E+0xb4>)
   23d78:	2503      	movs	r5, #3
   23d7a:	2600      	movs	r6, #0
   23d7c:	4620      	mov	r0, r4
   23d7e:	4629      	mov	r1, r5
   23d80:	4632      	mov	r2, r6
   23d82:	4633      	mov	r3, r6
   23d84:	df03      	svc	3
   23d86:	4620      	mov	r0, r4
   23d88:	4629      	mov	r1, r5
   23d8a:	4632      	mov	r2, r6
   23d8c:	4633      	mov	r3, r6
   23d8e:	df04      	svc	4
   23d90:	b013      	add	sp, #76	@ 0x4c
   23d92:	bdf0      	pop	{r4, r5, r6, r7, pc}
   23d94:	480e      	ldr	r0, [pc, #56]	@ (23dd0 <_ZN18complex_no_dynamic3app17hf38543ecee9492f8E+0xb4>)
   23d96:	2603      	movs	r6, #3
   23d98:	4631      	mov	r1, r6
   23d9a:	462a      	mov	r2, r5
   23d9c:	462b      	mov	r3, r5
   23d9e:	df03      	svc	3
   23da0:	480b      	ldr	r0, [pc, #44]	@ (23dd0 <_ZN18complex_no_dynamic3app17hf38543ecee9492f8E+0xb4>)
   23da2:	4631      	mov	r1, r6
   23da4:	462a      	mov	r2, r5
   23da6:	462b      	mov	r3, r5
   23da8:	df03      	svc	3
   23daa:	1c60      	adds	r0, r4, #1
   23dac:	a90b      	add	r1, sp, #44	@ 0x2c
   23dae:	221e      	movs	r2, #30
   23db0:	f003 f92b 	bl	2700a <__aeabi_memcpy>
   23db4:	7025      	strb	r5, [r4, #0]
   23db6:	4c06      	ldr	r4, [pc, #24]	@ (23dd0 <_ZN18complex_no_dynamic3app17hf38543ecee9492f8E+0xb4>)
   23db8:	4620      	mov	r0, r4
   23dba:	4631      	mov	r1, r6
   23dbc:	462a      	mov	r2, r5
   23dbe:	462b      	mov	r3, r5
   23dc0:	df03      	svc	3
   23dc2:	4620      	mov	r0, r4
   23dc4:	4631      	mov	r1, r6
   23dc6:	462a      	mov	r2, r5
   23dc8:	462b      	mov	r3, r5
   23dca:	df04      	svc	4
   23dcc:	b013      	add	sp, #76	@ 0x4c
   23dce:	bdf0      	pop	{r4, r5, r6, r7, pc}
   23dd0:	000010e2 	.word	0x000010e2

00023dd4 <_ZN18complex_no_dynamic3app17hf72f2dcdfc4a0a59E>:
   23dd4:	b5f0      	push	{r4, r5, r6, r7, lr}
   23dd6:	af03      	add	r7, sp, #12
   23dd8:	b089      	sub	sp, #36	@ 0x24
   23dda:	4604      	mov	r4, r0
   23ddc:	466d      	mov	r5, sp
   23dde:	260f      	movs	r6, #15
   23de0:	4628      	mov	r0, r5
   23de2:	4632      	mov	r2, r6
   23de4:	f003 f911 	bl	2700a <__aeabi_memcpy>
   23de8:	a804      	add	r0, sp, #16
   23dea:	2100      	movs	r1, #0
   23dec:	7481      	strb	r1, [r0, #18]
   23dee:	8201      	strh	r1, [r0, #16]
   23df0:	9107      	str	r1, [sp, #28]
   23df2:	9106      	str	r1, [sp, #24]
   23df4:	9105      	str	r1, [sp, #20]
   23df6:	9104      	str	r1, [sp, #16]
   23df8:	4821      	ldr	r0, [pc, #132]	@ (23e80 <_ZN18complex_no_dynamic3app17hf72f2dcdfc4a0a59E+0xac>)
   23dfa:	2103      	movs	r1, #3
   23dfc:	462a      	mov	r2, r5
   23dfe:	4633      	mov	r3, r6
   23e00:	df04      	svc	4
   23e02:	2802      	cmp	r0, #2
   23e04:	d00e      	beq.n	23e24 <_ZN18complex_no_dynamic3app17hf72f2dcdfc4a0a59E+0x50>
   23e06:	481e      	ldr	r0, [pc, #120]	@ (23e80 <_ZN18complex_no_dynamic3app17hf72f2dcdfc4a0a59E+0xac>)
   23e08:	2100      	movs	r1, #0
   23e0a:	aa04      	add	r2, sp, #16
   23e0c:	2313      	movs	r3, #19
   23e0e:	df03      	svc	3
   23e10:	2802      	cmp	r0, #2
   23e12:	d007      	beq.n	23e24 <_ZN18complex_no_dynamic3app17hf72f2dcdfc4a0a59E+0x50>
   23e14:	481a      	ldr	r0, [pc, #104]	@ (23e80 <_ZN18complex_no_dynamic3app17hf72f2dcdfc4a0a59E+0xac>)
   23e16:	2103      	movs	r1, #3
   23e18:	2500      	movs	r5, #0
   23e1a:	462a      	mov	r2, r5
   23e1c:	462b      	mov	r3, r5
   23e1e:	df02      	svc	2
   23e20:	287f      	cmp	r0, #127	@ 0x7f
   23e22:	d810      	bhi.n	23e46 <_ZN18complex_no_dynamic3app17hf72f2dcdfc4a0a59E+0x72>
   23e24:	2001      	movs	r0, #1
   23e26:	7020      	strb	r0, [r4, #0]
   23e28:	6061      	str	r1, [r4, #4]
   23e2a:	4c15      	ldr	r4, [pc, #84]	@ (23e80 <_ZN18complex_no_dynamic3app17hf72f2dcdfc4a0a59E+0xac>)
   23e2c:	2500      	movs	r5, #0
   23e2e:	4620      	mov	r0, r4
   23e30:	4629      	mov	r1, r5
   23e32:	462a      	mov	r2, r5
   23e34:	462b      	mov	r3, r5
   23e36:	df03      	svc	3
   23e38:	2103      	movs	r1, #3
   23e3a:	4620      	mov	r0, r4
   23e3c:	462a      	mov	r2, r5
   23e3e:	462b      	mov	r3, r5
   23e40:	df04      	svc	4
   23e42:	b009      	add	sp, #36	@ 0x24
   23e44:	bdf0      	pop	{r4, r5, r6, r7, pc}
   23e46:	4e0e      	ldr	r6, [pc, #56]	@ (23e80 <_ZN18complex_no_dynamic3app17hf72f2dcdfc4a0a59E+0xac>)
   23e48:	4630      	mov	r0, r6
   23e4a:	4629      	mov	r1, r5
   23e4c:	462a      	mov	r2, r5
   23e4e:	462b      	mov	r3, r5
   23e50:	df03      	svc	3
   23e52:	4630      	mov	r0, r6
   23e54:	4629      	mov	r1, r5
   23e56:	462a      	mov	r2, r5
   23e58:	462b      	mov	r3, r5
   23e5a:	df03      	svc	3
   23e5c:	1c60      	adds	r0, r4, #1
   23e5e:	a904      	add	r1, sp, #16
   23e60:	2213      	movs	r2, #19
   23e62:	f003 f8d2 	bl	2700a <__aeabi_memcpy>
   23e66:	7025      	strb	r5, [r4, #0]
   23e68:	4630      	mov	r0, r6
   23e6a:	4629      	mov	r1, r5
   23e6c:	462a      	mov	r2, r5
   23e6e:	462b      	mov	r3, r5
   23e70:	df03      	svc	3
   23e72:	2103      	movs	r1, #3
   23e74:	4630      	mov	r0, r6
   23e76:	462a      	mov	r2, r5
   23e78:	462b      	mov	r3, r5
   23e7a:	df04      	svc	4
   23e7c:	b009      	add	sp, #36	@ 0x24
   23e7e:	bdf0      	pop	{r4, r5, r6, r7, pc}
   23e80:	00001e4b 	.word	0x00001e4b

00023e84 <_ZN18complex_no_dynamic3app17hfa073c3bfa040654E>:
   23e84:	b5f0      	push	{r4, r5, r6, r7, lr}
   23e86:	af03      	add	r7, sp, #12
   23e88:	b0a9      	sub	sp, #164	@ 0xa4
   23e8a:	4604      	mov	r4, r0
   23e8c:	466d      	mov	r5, sp
   23e8e:	2653      	movs	r6, #83	@ 0x53
   23e90:	4628      	mov	r0, r5
   23e92:	4632      	mov	r2, r6
   23e94:	f003 f8b9 	bl	2700a <__aeabi_memcpy>
   23e98:	a815      	add	r0, sp, #84	@ 0x54
   23e9a:	214d      	movs	r1, #77	@ 0x4d
   23e9c:	f002 ff08 	bl	26cb0 <__aeabi_memclr4>
   23ea0:	4822      	ldr	r0, [pc, #136]	@ (23f2c <_ZN18complex_no_dynamic3app17hfa073c3bfa040654E+0xa8>)
   23ea2:	2109      	movs	r1, #9
   23ea4:	462a      	mov	r2, r5
   23ea6:	4633      	mov	r3, r6
   23ea8:	df04      	svc	4
   23eaa:	2802      	cmp	r0, #2
   23eac:	d00e      	beq.n	23ecc <_ZN18complex_no_dynamic3app17hfa073c3bfa040654E+0x48>
   23eae:	481f      	ldr	r0, [pc, #124]	@ (23f2c <_ZN18complex_no_dynamic3app17hfa073c3bfa040654E+0xa8>)
   23eb0:	2104      	movs	r1, #4
   23eb2:	aa15      	add	r2, sp, #84	@ 0x54
   23eb4:	234d      	movs	r3, #77	@ 0x4d
   23eb6:	df03      	svc	3
   23eb8:	2802      	cmp	r0, #2
   23eba:	d007      	beq.n	23ecc <_ZN18complex_no_dynamic3app17hfa073c3bfa040654E+0x48>
   23ebc:	481b      	ldr	r0, [pc, #108]	@ (23f2c <_ZN18complex_no_dynamic3app17hfa073c3bfa040654E+0xa8>)
   23ebe:	2109      	movs	r1, #9
   23ec0:	2204      	movs	r2, #4
   23ec2:	2500      	movs	r5, #0
   23ec4:	462b      	mov	r3, r5
   23ec6:	df02      	svc	2
   23ec8:	287f      	cmp	r0, #127	@ 0x7f
   23eca:	d810      	bhi.n	23eee <_ZN18complex_no_dynamic3app17hfa073c3bfa040654E+0x6a>
   23ecc:	2001      	movs	r0, #1
   23ece:	7020      	strb	r0, [r4, #0]
   23ed0:	6061      	str	r1, [r4, #4]
   23ed2:	4c16      	ldr	r4, [pc, #88]	@ (23f2c <_ZN18complex_no_dynamic3app17hfa073c3bfa040654E+0xa8>)
   23ed4:	2104      	movs	r1, #4
   23ed6:	2500      	movs	r5, #0
   23ed8:	4620      	mov	r0, r4
   23eda:	462a      	mov	r2, r5
   23edc:	462b      	mov	r3, r5
   23ede:	df03      	svc	3
   23ee0:	2109      	movs	r1, #9
   23ee2:	4620      	mov	r0, r4
   23ee4:	462a      	mov	r2, r5
   23ee6:	462b      	mov	r3, r5
   23ee8:	df04      	svc	4
   23eea:	b029      	add	sp, #164	@ 0xa4
   23eec:	bdf0      	pop	{r4, r5, r6, r7, pc}
   23eee:	480f      	ldr	r0, [pc, #60]	@ (23f2c <_ZN18complex_no_dynamic3app17hfa073c3bfa040654E+0xa8>)
   23ef0:	2604      	movs	r6, #4
   23ef2:	4631      	mov	r1, r6
   23ef4:	462a      	mov	r2, r5
   23ef6:	462b      	mov	r3, r5
   23ef8:	df03      	svc	3
   23efa:	480c      	ldr	r0, [pc, #48]	@ (23f2c <_ZN18complex_no_dynamic3app17hfa073c3bfa040654E+0xa8>)
   23efc:	4631      	mov	r1, r6
   23efe:	462a      	mov	r2, r5
   23f00:	462b      	mov	r3, r5
   23f02:	df03      	svc	3
   23f04:	1c60      	adds	r0, r4, #1
   23f06:	a915      	add	r1, sp, #84	@ 0x54
   23f08:	224d      	movs	r2, #77	@ 0x4d
   23f0a:	f003 f87e 	bl	2700a <__aeabi_memcpy>
   23f0e:	7025      	strb	r5, [r4, #0]
   23f10:	4c06      	ldr	r4, [pc, #24]	@ (23f2c <_ZN18complex_no_dynamic3app17hfa073c3bfa040654E+0xa8>)
   23f12:	4620      	mov	r0, r4
   23f14:	4631      	mov	r1, r6
   23f16:	462a      	mov	r2, r5
   23f18:	462b      	mov	r3, r5
   23f1a:	df03      	svc	3
   23f1c:	2109      	movs	r1, #9
   23f1e:	4620      	mov	r0, r4
   23f20:	462a      	mov	r2, r5
   23f22:	462b      	mov	r3, r5
   23f24:	df04      	svc	4
   23f26:	b029      	add	sp, #164	@ 0xa4
   23f28:	bdf0      	pop	{r4, r5, r6, r7, pc}
   23f2a:	46c0      	nop			@ (mov r8, r8)
   23f2c:	000016ba 	.word	0x000016ba

00023f30 <_ZN18complex_no_dynamic3app17hfd0a5147b767d587E>:
   23f30:	b5f0      	push	{r4, r5, r6, r7, lr}
   23f32:	af03      	add	r7, sp, #12
   23f34:	b0a1      	sub	sp, #132	@ 0x84
   23f36:	4604      	mov	r4, r0
   23f38:	ad01      	add	r5, sp, #4
   23f3a:	261b      	movs	r6, #27
   23f3c:	4628      	mov	r0, r5
   23f3e:	4632      	mov	r2, r6
   23f40:	f003 f863 	bl	2700a <__aeabi_memcpy>
   23f44:	a808      	add	r0, sp, #32
   23f46:	2163      	movs	r1, #99	@ 0x63
   23f48:	f002 feb2 	bl	26cb0 <__aeabi_memclr4>
   23f4c:	4822      	ldr	r0, [pc, #136]	@ (23fd8 <_ZN18complex_no_dynamic3app17hfd0a5147b767d587E+0xa8>)
   23f4e:	2103      	movs	r1, #3
   23f50:	462a      	mov	r2, r5
   23f52:	4633      	mov	r3, r6
   23f54:	df04      	svc	4
   23f56:	2802      	cmp	r0, #2
   23f58:	d00e      	beq.n	23f78 <_ZN18complex_no_dynamic3app17hfd0a5147b767d587E+0x48>
   23f5a:	481f      	ldr	r0, [pc, #124]	@ (23fd8 <_ZN18complex_no_dynamic3app17hfd0a5147b767d587E+0xa8>)
   23f5c:	2103      	movs	r1, #3
   23f5e:	aa08      	add	r2, sp, #32
   23f60:	2363      	movs	r3, #99	@ 0x63
   23f62:	df03      	svc	3
   23f64:	2802      	cmp	r0, #2
   23f66:	d007      	beq.n	23f78 <_ZN18complex_no_dynamic3app17hfd0a5147b767d587E+0x48>
   23f68:	481b      	ldr	r0, [pc, #108]	@ (23fd8 <_ZN18complex_no_dynamic3app17hfd0a5147b767d587E+0xa8>)
   23f6a:	2103      	movs	r1, #3
   23f6c:	2500      	movs	r5, #0
   23f6e:	460a      	mov	r2, r1
   23f70:	462b      	mov	r3, r5
   23f72:	df02      	svc	2
   23f74:	287f      	cmp	r0, #127	@ 0x7f
   23f76:	d811      	bhi.n	23f9c <_ZN18complex_no_dynamic3app17hfd0a5147b767d587E+0x6c>
   23f78:	2001      	movs	r0, #1
   23f7a:	7020      	strb	r0, [r4, #0]
   23f7c:	6061      	str	r1, [r4, #4]
   23f7e:	4c16      	ldr	r4, [pc, #88]	@ (23fd8 <_ZN18complex_no_dynamic3app17hfd0a5147b767d587E+0xa8>)
   23f80:	2503      	movs	r5, #3
   23f82:	2600      	movs	r6, #0
   23f84:	4620      	mov	r0, r4
   23f86:	4629      	mov	r1, r5
   23f88:	4632      	mov	r2, r6
   23f8a:	4633      	mov	r3, r6
   23f8c:	df03      	svc	3
   23f8e:	4620      	mov	r0, r4
   23f90:	4629      	mov	r1, r5
   23f92:	4632      	mov	r2, r6
   23f94:	4633      	mov	r3, r6
   23f96:	df04      	svc	4
   23f98:	b021      	add	sp, #132	@ 0x84
   23f9a:	bdf0      	pop	{r4, r5, r6, r7, pc}
   23f9c:	480e      	ldr	r0, [pc, #56]	@ (23fd8 <_ZN18complex_no_dynamic3app17hfd0a5147b767d587E+0xa8>)
   23f9e:	2603      	movs	r6, #3
   23fa0:	4631      	mov	r1, r6
   23fa2:	462a      	mov	r2, r5
   23fa4:	462b      	mov	r3, r5
   23fa6:	df03      	svc	3
   23fa8:	480b      	ldr	r0, [pc, #44]	@ (23fd8 <_ZN18complex_no_dynamic3app17hfd0a5147b767d587E+0xa8>)
   23faa:	4631      	mov	r1, r6
   23fac:	462a      	mov	r2, r5
   23fae:	462b      	mov	r3, r5
   23fb0:	df03      	svc	3
   23fb2:	1c60      	adds	r0, r4, #1
   23fb4:	a908      	add	r1, sp, #32
   23fb6:	2263      	movs	r2, #99	@ 0x63
   23fb8:	f003 f827 	bl	2700a <__aeabi_memcpy>
   23fbc:	7025      	strb	r5, [r4, #0]
   23fbe:	4c06      	ldr	r4, [pc, #24]	@ (23fd8 <_ZN18complex_no_dynamic3app17hfd0a5147b767d587E+0xa8>)
   23fc0:	4620      	mov	r0, r4
   23fc2:	4631      	mov	r1, r6
   23fc4:	462a      	mov	r2, r5
   23fc6:	462b      	mov	r3, r5
   23fc8:	df03      	svc	3
   23fca:	4620      	mov	r0, r4
   23fcc:	4631      	mov	r1, r6
   23fce:	462a      	mov	r2, r5
   23fd0:	462b      	mov	r3, r5
   23fd2:	df04      	svc	4
   23fd4:	b021      	add	sp, #132	@ 0x84
   23fd6:	bdf0      	pop	{r4, r5, r6, r7, pc}
   23fd8:	00002548 	.word	0x00002548

00023fdc <_ZN18complex_no_dynamic3app17hfe6077ccf68d2d88E>:
   23fdc:	b5f0      	push	{r4, r5, r6, r7, lr}
   23fde:	af03      	add	r7, sp, #12
   23fe0:	b09d      	sub	sp, #116	@ 0x74
   23fe2:	9001      	str	r0, [sp, #4]
   23fe4:	ae02      	add	r6, sp, #8
   23fe6:	2450      	movs	r4, #80	@ 0x50
   23fe8:	4630      	mov	r0, r6
   23fea:	4622      	mov	r2, r4
   23fec:	f003 f80d 	bl	2700a <__aeabi_memcpy>
   23ff0:	a816      	add	r0, sp, #88	@ 0x58
   23ff2:	2100      	movs	r1, #0
   23ff4:	7681      	strb	r1, [r0, #26]
   23ff6:	8301      	strh	r1, [r0, #24]
   23ff8:	911b      	str	r1, [sp, #108]	@ 0x6c
   23ffa:	911a      	str	r1, [sp, #104]	@ 0x68
   23ffc:	9119      	str	r1, [sp, #100]	@ 0x64
   23ffe:	9118      	str	r1, [sp, #96]	@ 0x60
   24000:	9117      	str	r1, [sp, #92]	@ 0x5c
   24002:	9116      	str	r1, [sp, #88]	@ 0x58
   24004:	4823      	ldr	r0, [pc, #140]	@ (24094 <_ZN18complex_no_dynamic3app17hfe6077ccf68d2d88E+0xb8>)
   24006:	2501      	movs	r5, #1
   24008:	4629      	mov	r1, r5
   2400a:	4632      	mov	r2, r6
   2400c:	4623      	mov	r3, r4
   2400e:	df04      	svc	4
   24010:	2802      	cmp	r0, #2
   24012:	d00e      	beq.n	24032 <_ZN18complex_no_dynamic3app17hfe6077ccf68d2d88E+0x56>
   24014:	481f      	ldr	r0, [pc, #124]	@ (24094 <_ZN18complex_no_dynamic3app17hfe6077ccf68d2d88E+0xb8>)
   24016:	2102      	movs	r1, #2
   24018:	aa16      	add	r2, sp, #88	@ 0x58
   2401a:	231b      	movs	r3, #27
   2401c:	df03      	svc	3
   2401e:	2802      	cmp	r0, #2
   24020:	d007      	beq.n	24032 <_ZN18complex_no_dynamic3app17hfe6077ccf68d2d88E+0x56>
   24022:	481c      	ldr	r0, [pc, #112]	@ (24094 <_ZN18complex_no_dynamic3app17hfe6077ccf68d2d88E+0xb8>)
   24024:	2101      	movs	r1, #1
   24026:	2202      	movs	r2, #2
   24028:	2600      	movs	r6, #0
   2402a:	4633      	mov	r3, r6
   2402c:	df02      	svc	2
   2402e:	287f      	cmp	r0, #127	@ 0x7f
   24030:	d810      	bhi.n	24054 <_ZN18complex_no_dynamic3app17hfe6077ccf68d2d88E+0x78>
   24032:	9801      	ldr	r0, [sp, #4]
   24034:	7005      	strb	r5, [r0, #0]
   24036:	6041      	str	r1, [r0, #4]
   24038:	4c16      	ldr	r4, [pc, #88]	@ (24094 <_ZN18complex_no_dynamic3app17hfe6077ccf68d2d88E+0xb8>)
   2403a:	2102      	movs	r1, #2
   2403c:	2600      	movs	r6, #0
   2403e:	4620      	mov	r0, r4
   24040:	4632      	mov	r2, r6
   24042:	4633      	mov	r3, r6
   24044:	df03      	svc	3
   24046:	4620      	mov	r0, r4
   24048:	4629      	mov	r1, r5
   2404a:	4632      	mov	r2, r6
   2404c:	4633      	mov	r3, r6
   2404e:	df04      	svc	4
   24050:	b01d      	add	sp, #116	@ 0x74
   24052:	bdf0      	pop	{r4, r5, r6, r7, pc}
   24054:	4c0f      	ldr	r4, [pc, #60]	@ (24094 <_ZN18complex_no_dynamic3app17hfe6077ccf68d2d88E+0xb8>)
   24056:	2502      	movs	r5, #2
   24058:	4620      	mov	r0, r4
   2405a:	4629      	mov	r1, r5
   2405c:	4632      	mov	r2, r6
   2405e:	4633      	mov	r3, r6
   24060:	df03      	svc	3
   24062:	4620      	mov	r0, r4
   24064:	4629      	mov	r1, r5
   24066:	4632      	mov	r2, r6
   24068:	4633      	mov	r3, r6
   2406a:	df03      	svc	3
   2406c:	9c01      	ldr	r4, [sp, #4]
   2406e:	1c60      	adds	r0, r4, #1
   24070:	a916      	add	r1, sp, #88	@ 0x58
   24072:	221b      	movs	r2, #27
   24074:	f002 ffc9 	bl	2700a <__aeabi_memcpy>
   24078:	7026      	strb	r6, [r4, #0]
   2407a:	4c06      	ldr	r4, [pc, #24]	@ (24094 <_ZN18complex_no_dynamic3app17hfe6077ccf68d2d88E+0xb8>)
   2407c:	4620      	mov	r0, r4
   2407e:	4629      	mov	r1, r5
   24080:	4632      	mov	r2, r6
   24082:	4633      	mov	r3, r6
   24084:	df03      	svc	3
   24086:	2101      	movs	r1, #1
   24088:	4620      	mov	r0, r4
   2408a:	4632      	mov	r2, r6
   2408c:	4633      	mov	r3, r6
   2408e:	df04      	svc	4
   24090:	b01d      	add	sp, #116	@ 0x74
   24092:	bdf0      	pop	{r4, r5, r6, r7, pc}
   24094:	000003d9 	.word	0x000003d9

00024098 <_ZN18complex_no_dynamic3app17hff82315662b42101E>:
   24098:	b5f0      	push	{r4, r5, r6, r7, lr}
   2409a:	af03      	add	r7, sp, #12
   2409c:	b09d      	sub	sp, #116	@ 0x74
   2409e:	9001      	str	r0, [sp, #4]
   240a0:	ae02      	add	r6, sp, #8
   240a2:	2438      	movs	r4, #56	@ 0x38
   240a4:	4630      	mov	r0, r6
   240a6:	4622      	mov	r2, r4
   240a8:	f002 ffaf 	bl	2700a <__aeabi_memcpy>
   240ac:	a810      	add	r0, sp, #64	@ 0x40
   240ae:	2134      	movs	r1, #52	@ 0x34
   240b0:	f002 fdfe 	bl	26cb0 <__aeabi_memclr4>
   240b4:	2097      	movs	r0, #151	@ 0x97
   240b6:	0045      	lsls	r5, r0, #1
   240b8:	2108      	movs	r1, #8
   240ba:	4628      	mov	r0, r5
   240bc:	4632      	mov	r2, r6
   240be:	4623      	mov	r3, r4
   240c0:	df04      	svc	4
   240c2:	2802      	cmp	r0, #2
   240c4:	d00e      	beq.n	240e4 <_ZN18complex_no_dynamic3app17hff82315662b42101E+0x4c>
   240c6:	2103      	movs	r1, #3
   240c8:	aa10      	add	r2, sp, #64	@ 0x40
   240ca:	2334      	movs	r3, #52	@ 0x34
   240cc:	4628      	mov	r0, r5
   240ce:	df03      	svc	3
   240d0:	2802      	cmp	r0, #2
   240d2:	d007      	beq.n	240e4 <_ZN18complex_no_dynamic3app17hff82315662b42101E+0x4c>
   240d4:	2108      	movs	r1, #8
   240d6:	2203      	movs	r2, #3
   240d8:	2600      	movs	r6, #0
   240da:	4628      	mov	r0, r5
   240dc:	4633      	mov	r3, r6
   240de:	df02      	svc	2
   240e0:	287f      	cmp	r0, #127	@ 0x7f
   240e2:	d810      	bhi.n	24106 <_ZN18complex_no_dynamic3app17hff82315662b42101E+0x6e>
   240e4:	2001      	movs	r0, #1
   240e6:	9a01      	ldr	r2, [sp, #4]
   240e8:	7010      	strb	r0, [r2, #0]
   240ea:	6051      	str	r1, [r2, #4]
   240ec:	2103      	movs	r1, #3
   240ee:	2400      	movs	r4, #0
   240f0:	4628      	mov	r0, r5
   240f2:	4622      	mov	r2, r4
   240f4:	4623      	mov	r3, r4
   240f6:	df03      	svc	3
   240f8:	2108      	movs	r1, #8
   240fa:	4628      	mov	r0, r5
   240fc:	4622      	mov	r2, r4
   240fe:	4623      	mov	r3, r4
   24100:	df04      	svc	4
   24102:	b01d      	add	sp, #116	@ 0x74
   24104:	bdf0      	pop	{r4, r5, r6, r7, pc}
   24106:	2403      	movs	r4, #3
   24108:	9400      	str	r4, [sp, #0]
   2410a:	4628      	mov	r0, r5
   2410c:	4621      	mov	r1, r4
   2410e:	4632      	mov	r2, r6
   24110:	4633      	mov	r3, r6
   24112:	df03      	svc	3
   24114:	4628      	mov	r0, r5
   24116:	4621      	mov	r1, r4
   24118:	4632      	mov	r2, r6
   2411a:	4633      	mov	r3, r6
   2411c:	df03      	svc	3
   2411e:	9c01      	ldr	r4, [sp, #4]
   24120:	1c60      	adds	r0, r4, #1
   24122:	a910      	add	r1, sp, #64	@ 0x40
   24124:	2234      	movs	r2, #52	@ 0x34
   24126:	f002 ff70 	bl	2700a <__aeabi_memcpy>
   2412a:	7026      	strb	r6, [r4, #0]
   2412c:	4628      	mov	r0, r5
   2412e:	9900      	ldr	r1, [sp, #0]
   24130:	4632      	mov	r2, r6
   24132:	4633      	mov	r3, r6
   24134:	df03      	svc	3
   24136:	2108      	movs	r1, #8
   24138:	4628      	mov	r0, r5
   2413a:	4632      	mov	r2, r6
   2413c:	4633      	mov	r3, r6
   2413e:	df04      	svc	4
   24140:	b01d      	add	sp, #116	@ 0x74
   24142:	bdf0      	pop	{r4, r5, r6, r7, pc}

00024144 <_start>:
   24144:	b5f0      	push	{r4, r5, r6, r7, lr}
   24146:	af03      	add	r7, sp, #12
   24148:	4ec2      	ldr	r6, [pc, #776]	@ (24454 <_start+0x310>)
   2414a:	44b5      	add	sp, r6
   2414c:	4ec2      	ldr	r6, [pc, #776]	@ (24458 <_start+0x314>)
   2414e:	446e      	add	r6, sp
   24150:	ac0e      	add	r4, sp, #56	@ 0x38
   24152:	2528      	movs	r5, #40	@ 0x28
   24154:	4620      	mov	r0, r4
   24156:	4629      	mov	r1, r5
   24158:	f002 fdaa 	bl	26cb0 <__aeabi_memclr4>
   2415c:	48bf      	ldr	r0, [pc, #764]	@ (2445c <_start+0x318>)
   2415e:	4468      	add	r0, sp
   24160:	2151      	movs	r1, #81	@ 0x51
   24162:	f002 fda5 	bl	26cb0 <__aeabi_memclr4>
   24166:	48be      	ldr	r0, [pc, #760]	@ (24460 <_start+0x31c>)
   24168:	2109      	movs	r1, #9
   2416a:	4622      	mov	r2, r4
   2416c:	462b      	mov	r3, r5
   2416e:	df04      	svc	4
   24170:	aa3d      	add	r2, sp, #244	@ 0xf4
   24172:	adff      	add	r5, sp, #1020	@ 0x3fc
   24174:	35d4      	adds	r5, #212	@ 0xd4
   24176:	4cbb      	ldr	r4, [pc, #748]	@ (24464 <_start+0x320>)
   24178:	446c      	add	r4, sp
   2417a:	2802      	cmp	r0, #2
   2417c:	d00f      	beq.n	2419e <_start+0x5a>
   2417e:	920b      	str	r2, [sp, #44]	@ 0x2c
   24180:	48b7      	ldr	r0, [pc, #732]	@ (24460 <_start+0x31c>)
   24182:	2109      	movs	r1, #9
   24184:	4ab5      	ldr	r2, [pc, #724]	@ (2445c <_start+0x318>)
   24186:	446a      	add	r2, sp
   24188:	2351      	movs	r3, #81	@ 0x51
   2418a:	df03      	svc	3
   2418c:	2802      	cmp	r0, #2
   2418e:	d006      	beq.n	2419e <_start+0x5a>
   24190:	48b3      	ldr	r0, [pc, #716]	@ (24460 <_start+0x31c>)
   24192:	2109      	movs	r1, #9
   24194:	2300      	movs	r3, #0
   24196:	460a      	mov	r2, r1
   24198:	df02      	svc	2
   2419a:	287f      	cmp	r0, #127	@ 0x7f
   2419c:	d813      	bhi.n	241c6 <_start+0x82>
   2419e:	910c      	str	r1, [sp, #48]	@ 0x30
   241a0:	4daf      	ldr	r5, [pc, #700]	@ (24460 <_start+0x31c>)
   241a2:	2609      	movs	r6, #9
   241a4:	2400      	movs	r4, #0
   241a6:	4628      	mov	r0, r5
   241a8:	4631      	mov	r1, r6
   241aa:	4622      	mov	r2, r4
   241ac:	4623      	mov	r3, r4
   241ae:	df03      	svc	3
   241b0:	4628      	mov	r0, r5
   241b2:	4631      	mov	r1, r6
   241b4:	4622      	mov	r2, r4
   241b6:	4623      	mov	r3, r4
   241b8:	df04      	svc	4
   241ba:	2001      	movs	r0, #1
   241bc:	990c      	ldr	r1, [sp, #48]	@ 0x30
   241be:	1ffe      	subs	r6, r7, #7
   241c0:	3e05      	subs	r6, #5
   241c2:	46b5      	mov	sp, r6
   241c4:	bdf0      	pop	{r4, r5, r6, r7, pc}
   241c6:	9503      	str	r5, [sp, #12]
   241c8:	9404      	str	r4, [sp, #16]
   241ca:	48a5      	ldr	r0, [pc, #660]	@ (24460 <_start+0x31c>)
   241cc:	4635      	mov	r5, r6
   241ce:	2609      	movs	r6, #9
   241d0:	2400      	movs	r4, #0
   241d2:	4631      	mov	r1, r6
   241d4:	4622      	mov	r2, r4
   241d6:	4623      	mov	r3, r4
   241d8:	df03      	svc	3
   241da:	48a1      	ldr	r0, [pc, #644]	@ (24460 <_start+0x31c>)
   241dc:	4631      	mov	r1, r6
   241de:	4622      	mov	r2, r4
   241e0:	4623      	mov	r3, r4
   241e2:	df03      	svc	3
   241e4:	aa0d      	add	r2, sp, #52	@ 0x34
   241e6:	920c      	str	r2, [sp, #48]	@ 0x30
   241e8:	9505      	str	r5, [sp, #20]
   241ea:	6de8      	ldr	r0, [r5, #92]	@ 0x5c
   241ec:	8010      	strh	r0, [r2, #0]
   241ee:	489b      	ldr	r0, [pc, #620]	@ (2445c <_start+0x318>)
   241f0:	4468      	add	r0, sp
   241f2:	7881      	ldrb	r1, [r0, #2]
   241f4:	7091      	strb	r1, [r2, #2]
   241f6:	78c1      	ldrb	r1, [r0, #3]
   241f8:	910a      	str	r1, [sp, #40]	@ 0x28
   241fa:	7901      	ldrb	r1, [r0, #4]
   241fc:	9109      	str	r1, [sp, #36]	@ 0x24
   241fe:	7941      	ldrb	r1, [r0, #5]
   24200:	9108      	str	r1, [sp, #32]
   24202:	7981      	ldrb	r1, [r0, #6]
   24204:	9107      	str	r1, [sp, #28]
   24206:	1dc1      	adds	r1, r0, #7
   24208:	4d93      	ldr	r5, [pc, #588]	@ (24458 <_start+0x314>)
   2420a:	446d      	add	r5, sp
   2420c:	224a      	movs	r2, #74	@ 0x4a
   2420e:	9206      	str	r2, [sp, #24]
   24210:	4628      	mov	r0, r5
   24212:	f002 fefa 	bl	2700a <__aeabi_memcpy>
   24216:	4892      	ldr	r0, [pc, #584]	@ (24460 <_start+0x31c>)
   24218:	4631      	mov	r1, r6
   2421a:	4622      	mov	r2, r4
   2421c:	4623      	mov	r3, r4
   2421e:	df03      	svc	3
   24220:	488f      	ldr	r0, [pc, #572]	@ (24460 <_start+0x31c>)
   24222:	4631      	mov	r1, r6
   24224:	4622      	mov	r2, r4
   24226:	4623      	mov	r3, r4
   24228:	df04      	svc	4
   2422a:	4c8c      	ldr	r4, [pc, #560]	@ (2445c <_start+0x318>)
   2422c:	446c      	add	r4, sp
   2422e:	1de0      	adds	r0, r4, #7
   24230:	4629      	mov	r1, r5
   24232:	9a06      	ldr	r2, [sp, #24]
   24234:	f002 fee9 	bl	2700a <__aeabi_memcpy>
   24238:	9807      	ldr	r0, [sp, #28]
   2423a:	71a0      	strb	r0, [r4, #6]
   2423c:	9808      	ldr	r0, [sp, #32]
   2423e:	7160      	strb	r0, [r4, #5]
   24240:	9809      	ldr	r0, [sp, #36]	@ 0x24
   24242:	7120      	strb	r0, [r4, #4]
   24244:	980a      	ldr	r0, [sp, #40]	@ 0x28
   24246:	70e0      	strb	r0, [r4, #3]
   24248:	980d      	ldr	r0, [sp, #52]	@ 0x34
   2424a:	8020      	strh	r0, [r4, #0]
   2424c:	980c      	ldr	r0, [sp, #48]	@ 0x30
   2424e:	7880      	ldrb	r0, [r0, #2]
   24250:	70a0      	strb	r0, [r4, #2]
   24252:	4881      	ldr	r0, [pc, #516]	@ (24458 <_start+0x314>)
   24254:	4468      	add	r0, sp
   24256:	2146      	movs	r1, #70	@ 0x46
   24258:	f002 fd2a 	bl	26cb0 <__aeabi_memclr4>
   2425c:	4882      	ldr	r0, [pc, #520]	@ (24468 <_start+0x324>)
   2425e:	2107      	movs	r1, #7
   24260:	2351      	movs	r3, #81	@ 0x51
   24262:	4622      	mov	r2, r4
   24264:	df04      	svc	4
   24266:	2802      	cmp	r0, #2
   24268:	d00f      	beq.n	2428a <_start+0x146>
   2426a:	487f      	ldr	r0, [pc, #508]	@ (24468 <_start+0x324>)
   2426c:	2100      	movs	r1, #0
   2426e:	4a7a      	ldr	r2, [pc, #488]	@ (24458 <_start+0x314>)
   24270:	446a      	add	r2, sp
   24272:	2346      	movs	r3, #70	@ 0x46
   24274:	df03      	svc	3
   24276:	2802      	cmp	r0, #2
   24278:	d007      	beq.n	2428a <_start+0x146>
   2427a:	487b      	ldr	r0, [pc, #492]	@ (24468 <_start+0x324>)
   2427c:	2107      	movs	r1, #7
   2427e:	2400      	movs	r4, #0
   24280:	4622      	mov	r2, r4
   24282:	4623      	mov	r3, r4
   24284:	df02      	svc	2
   24286:	287f      	cmp	r0, #127	@ 0x7f
   24288:	d80d      	bhi.n	242a6 <_start+0x162>
   2428a:	910c      	str	r1, [sp, #48]	@ 0x30
   2428c:	4c76      	ldr	r4, [pc, #472]	@ (24468 <_start+0x324>)
   2428e:	2500      	movs	r5, #0
   24290:	4620      	mov	r0, r4
   24292:	4629      	mov	r1, r5
   24294:	462a      	mov	r2, r5
   24296:	462b      	mov	r3, r5
   24298:	df03      	svc	3
   2429a:	2107      	movs	r1, #7
   2429c:	4620      	mov	r0, r4
   2429e:	462a      	mov	r2, r5
   242a0:	462b      	mov	r3, r5
   242a2:	df04      	svc	4
   242a4:	e789      	b.n	241ba <_start+0x76>
   242a6:	4d70      	ldr	r5, [pc, #448]	@ (24468 <_start+0x324>)
   242a8:	4628      	mov	r0, r5
   242aa:	4621      	mov	r1, r4
   242ac:	4622      	mov	r2, r4
   242ae:	4623      	mov	r3, r4
   242b0:	df03      	svc	3
   242b2:	4628      	mov	r0, r5
   242b4:	4621      	mov	r1, r4
   242b6:	4622      	mov	r2, r4
   242b8:	4623      	mov	r3, r4
   242ba:	df03      	svc	3
   242bc:	aa1e      	add	r2, sp, #120	@ 0x78
   242be:	920c      	str	r2, [sp, #48]	@ 0x30
   242c0:	9805      	ldr	r0, [sp, #20]
   242c2:	6800      	ldr	r0, [r0, #0]
   242c4:	8010      	strh	r0, [r2, #0]
   242c6:	4864      	ldr	r0, [pc, #400]	@ (24458 <_start+0x314>)
   242c8:	4468      	add	r0, sp
   242ca:	7881      	ldrb	r1, [r0, #2]
   242cc:	7091      	strb	r1, [r2, #2]
   242ce:	78c1      	ldrb	r1, [r0, #3]
   242d0:	910a      	str	r1, [sp, #40]	@ 0x28
   242d2:	7901      	ldrb	r1, [r0, #4]
   242d4:	9109      	str	r1, [sp, #36]	@ 0x24
   242d6:	7941      	ldrb	r1, [r0, #5]
   242d8:	9108      	str	r1, [sp, #32]
   242da:	7981      	ldrb	r1, [r0, #6]
   242dc:	9107      	str	r1, [sp, #28]
   242de:	1dc1      	adds	r1, r0, #7
   242e0:	ae0e      	add	r6, sp, #56	@ 0x38
   242e2:	223f      	movs	r2, #63	@ 0x3f
   242e4:	9206      	str	r2, [sp, #24]
   242e6:	4630      	mov	r0, r6
   242e8:	f002 fe8f 	bl	2700a <__aeabi_memcpy>
   242ec:	4628      	mov	r0, r5
   242ee:	4621      	mov	r1, r4
   242f0:	4622      	mov	r2, r4
   242f2:	4623      	mov	r3, r4
   242f4:	df03      	svc	3
   242f6:	2107      	movs	r1, #7
   242f8:	4628      	mov	r0, r5
   242fa:	4622      	mov	r2, r4
   242fc:	4623      	mov	r3, r4
   242fe:	df04      	svc	4
   24300:	4d56      	ldr	r5, [pc, #344]	@ (2445c <_start+0x318>)
   24302:	446d      	add	r5, sp
   24304:	1de8      	adds	r0, r5, #7
   24306:	4631      	mov	r1, r6
   24308:	9e05      	ldr	r6, [sp, #20]
   2430a:	9a06      	ldr	r2, [sp, #24]
   2430c:	f002 fe7d 	bl	2700a <__aeabi_memcpy>
   24310:	9807      	ldr	r0, [sp, #28]
   24312:	71a8      	strb	r0, [r5, #6]
   24314:	9808      	ldr	r0, [sp, #32]
   24316:	7168      	strb	r0, [r5, #5]
   24318:	9809      	ldr	r0, [sp, #36]	@ 0x24
   2431a:	7128      	strb	r0, [r5, #4]
   2431c:	980a      	ldr	r0, [sp, #40]	@ 0x28
   2431e:	70e8      	strb	r0, [r5, #3]
   24320:	981e      	ldr	r0, [sp, #120]	@ 0x78
   24322:	8028      	strh	r0, [r5, #0]
   24324:	980c      	ldr	r0, [sp, #48]	@ 0x30
   24326:	7880      	ldrb	r0, [r0, #2]
   24328:	70a8      	strb	r0, [r5, #2]
   2432a:	6034      	str	r4, [r6, #0]
   2432c:	6074      	str	r4, [r6, #4]
   2432e:	60b4      	str	r4, [r6, #8]
   24330:	60f4      	str	r4, [r6, #12]
   24332:	6134      	str	r4, [r6, #16]
   24334:	6174      	str	r4, [r6, #20]
   24336:	484d      	ldr	r0, [pc, #308]	@ (2446c <_start+0x328>)
   24338:	2103      	movs	r1, #3
   2433a:	2346      	movs	r3, #70	@ 0x46
   2433c:	462a      	mov	r2, r5
   2433e:	df04      	svc	4
   24340:	2802      	cmp	r0, #2
   24342:	d00e      	beq.n	24362 <_start+0x21e>
   24344:	4849      	ldr	r0, [pc, #292]	@ (2446c <_start+0x328>)
   24346:	2102      	movs	r1, #2
   24348:	4a43      	ldr	r2, [pc, #268]	@ (24458 <_start+0x314>)
   2434a:	446a      	add	r2, sp
   2434c:	2318      	movs	r3, #24
   2434e:	df03      	svc	3
   24350:	2802      	cmp	r0, #2
   24352:	d006      	beq.n	24362 <_start+0x21e>
   24354:	4845      	ldr	r0, [pc, #276]	@ (2446c <_start+0x328>)
   24356:	2103      	movs	r1, #3
   24358:	2202      	movs	r2, #2
   2435a:	2300      	movs	r3, #0
   2435c:	df02      	svc	2
   2435e:	287f      	cmp	r0, #127	@ 0x7f
   24360:	d80d      	bhi.n	2437e <_start+0x23a>
   24362:	910c      	str	r1, [sp, #48]	@ 0x30
   24364:	4c41      	ldr	r4, [pc, #260]	@ (2446c <_start+0x328>)
   24366:	2102      	movs	r1, #2
   24368:	2500      	movs	r5, #0
   2436a:	4620      	mov	r0, r4
   2436c:	462a      	mov	r2, r5
   2436e:	462b      	mov	r3, r5
   24370:	df03      	svc	3
   24372:	2103      	movs	r1, #3
   24374:	4620      	mov	r0, r4
   24376:	462a      	mov	r2, r5
   24378:	462b      	mov	r3, r5
   2437a:	df04      	svc	4
   2437c:	e71d      	b.n	241ba <_start+0x76>
   2437e:	483b      	ldr	r0, [pc, #236]	@ (2446c <_start+0x328>)
   24380:	4635      	mov	r5, r6
   24382:	2602      	movs	r6, #2
   24384:	2400      	movs	r4, #0
   24386:	4631      	mov	r1, r6
   24388:	4622      	mov	r2, r4
   2438a:	4623      	mov	r3, r4
   2438c:	df03      	svc	3
   2438e:	4837      	ldr	r0, [pc, #220]	@ (2446c <_start+0x328>)
   24390:	4631      	mov	r1, r6
   24392:	4622      	mov	r2, r4
   24394:	4623      	mov	r3, r4
   24396:	df03      	svc	3
   24398:	aa24      	add	r2, sp, #144	@ 0x90
   2439a:	920c      	str	r2, [sp, #48]	@ 0x30
   2439c:	6828      	ldr	r0, [r5, #0]
   2439e:	8010      	strh	r0, [r2, #0]
   243a0:	482d      	ldr	r0, [pc, #180]	@ (24458 <_start+0x314>)
   243a2:	4468      	add	r0, sp
   243a4:	7881      	ldrb	r1, [r0, #2]
   243a6:	7091      	strb	r1, [r2, #2]
   243a8:	78c1      	ldrb	r1, [r0, #3]
   243aa:	910a      	str	r1, [sp, #40]	@ 0x28
   243ac:	7901      	ldrb	r1, [r0, #4]
   243ae:	9109      	str	r1, [sp, #36]	@ 0x24
   243b0:	7941      	ldrb	r1, [r0, #5]
   243b2:	9108      	str	r1, [sp, #32]
   243b4:	7981      	ldrb	r1, [r0, #6]
   243b6:	9107      	str	r1, [sp, #28]
   243b8:	1dc1      	adds	r1, r0, #7
   243ba:	a81f      	add	r0, sp, #124	@ 0x7c
   243bc:	9006      	str	r0, [sp, #24]
   243be:	2211      	movs	r2, #17
   243c0:	9202      	str	r2, [sp, #8]
   243c2:	f002 fe22 	bl	2700a <__aeabi_memcpy>
   243c6:	4d29      	ldr	r5, [pc, #164]	@ (2446c <_start+0x328>)
   243c8:	4628      	mov	r0, r5
   243ca:	4631      	mov	r1, r6
   243cc:	4622      	mov	r2, r4
   243ce:	4623      	mov	r3, r4
   243d0:	df03      	svc	3
   243d2:	2103      	movs	r1, #3
   243d4:	4628      	mov	r0, r5
   243d6:	4622      	mov	r2, r4
   243d8:	4623      	mov	r3, r4
   243da:	df04      	svc	4
   243dc:	ad0e      	add	r5, sp, #56	@ 0x38
   243de:	1de8      	adds	r0, r5, #7
   243e0:	9906      	ldr	r1, [sp, #24]
   243e2:	9a02      	ldr	r2, [sp, #8]
   243e4:	f002 fe11 	bl	2700a <__aeabi_memcpy>
   243e8:	9807      	ldr	r0, [sp, #28]
   243ea:	71a8      	strb	r0, [r5, #6]
   243ec:	9808      	ldr	r0, [sp, #32]
   243ee:	7168      	strb	r0, [r5, #5]
   243f0:	9809      	ldr	r0, [sp, #36]	@ 0x24
   243f2:	7128      	strb	r0, [r5, #4]
   243f4:	980a      	ldr	r0, [sp, #40]	@ 0x28
   243f6:	70e8      	strb	r0, [r5, #3]
   243f8:	9824      	ldr	r0, [sp, #144]	@ 0x90
   243fa:	8028      	strh	r0, [r5, #0]
   243fc:	980c      	ldr	r0, [sp, #48]	@ 0x30
   243fe:	7880      	ldrb	r0, [r0, #2]
   24400:	70a8      	strb	r0, [r5, #2]
   24402:	4816      	ldr	r0, [pc, #88]	@ (2445c <_start+0x318>)
   24404:	4468      	add	r0, sp
   24406:	2136      	movs	r1, #54	@ 0x36
   24408:	f002 fc52 	bl	26cb0 <__aeabi_memclr4>
   2440c:	4818      	ldr	r0, [pc, #96]	@ (24470 <_start+0x32c>)
   2440e:	2318      	movs	r3, #24
   24410:	4621      	mov	r1, r4
   24412:	462a      	mov	r2, r5
   24414:	df04      	svc	4
   24416:	2802      	cmp	r0, #2
   24418:	d00e      	beq.n	24438 <_start+0x2f4>
   2441a:	4815      	ldr	r0, [pc, #84]	@ (24470 <_start+0x32c>)
   2441c:	2107      	movs	r1, #7
   2441e:	4a0f      	ldr	r2, [pc, #60]	@ (2445c <_start+0x318>)
   24420:	446a      	add	r2, sp
   24422:	2336      	movs	r3, #54	@ 0x36
   24424:	df03      	svc	3
   24426:	2802      	cmp	r0, #2
   24428:	d006      	beq.n	24438 <_start+0x2f4>
   2442a:	4811      	ldr	r0, [pc, #68]	@ (24470 <_start+0x32c>)
   2442c:	2207      	movs	r2, #7
   2442e:	2100      	movs	r1, #0
   24430:	460b      	mov	r3, r1
   24432:	df02      	svc	2
   24434:	287f      	cmp	r0, #127	@ 0x7f
   24436:	d81d      	bhi.n	24474 <_start+0x330>
   24438:	910c      	str	r1, [sp, #48]	@ 0x30
   2443a:	4c0d      	ldr	r4, [pc, #52]	@ (24470 <_start+0x32c>)
   2443c:	2107      	movs	r1, #7
   2443e:	2500      	movs	r5, #0
   24440:	4620      	mov	r0, r4
   24442:	462a      	mov	r2, r5
   24444:	462b      	mov	r3, r5
   24446:	df03      	svc	3
   24448:	4620      	mov	r0, r4
   2444a:	4629      	mov	r1, r5
   2444c:	462a      	mov	r2, r5
   2444e:	462b      	mov	r3, r5
   24450:	df04      	svc	4
   24452:	e6b2      	b.n	241ba <_start+0x76>
   24454:	ffffeb14 	.word	0xffffeb14
   24458:	00001370 	.word	0x00001370
   2445c:	000013cc 	.word	0x000013cc
   24460:	00002006 	.word	0x00002006
   24464:	000007a4 	.word	0x000007a4
   24468:	000020c4 	.word	0x000020c4
   2446c:	000023cf 	.word	0x000023cf
   24470:	0000021f 	.word	0x0000021f
   24474:	4e6e      	ldr	r6, [pc, #440]	@ (24630 <_start+0x4ec>)
   24476:	2407      	movs	r4, #7
   24478:	940c      	str	r4, [sp, #48]	@ 0x30
   2447a:	2500      	movs	r5, #0
   2447c:	4630      	mov	r0, r6
   2447e:	4621      	mov	r1, r4
   24480:	462a      	mov	r2, r5
   24482:	462b      	mov	r3, r5
   24484:	df03      	svc	3
   24486:	4630      	mov	r0, r6
   24488:	4621      	mov	r1, r4
   2448a:	462a      	mov	r2, r5
   2448c:	462b      	mov	r3, r5
   2448e:	df03      	svc	3
   24490:	aa25      	add	r2, sp, #148	@ 0x94
   24492:	920a      	str	r2, [sp, #40]	@ 0x28
   24494:	9805      	ldr	r0, [sp, #20]
   24496:	6dc0      	ldr	r0, [r0, #92]	@ 0x5c
   24498:	8010      	strh	r0, [r2, #0]
   2449a:	4866      	ldr	r0, [pc, #408]	@ (24634 <_start+0x4f0>)
   2449c:	4468      	add	r0, sp
   2449e:	7881      	ldrb	r1, [r0, #2]
   244a0:	7091      	strb	r1, [r2, #2]
   244a2:	78c1      	ldrb	r1, [r0, #3]
   244a4:	9109      	str	r1, [sp, #36]	@ 0x24
   244a6:	7901      	ldrb	r1, [r0, #4]
   244a8:	9108      	str	r1, [sp, #32]
   244aa:	7941      	ldrb	r1, [r0, #5]
   244ac:	9107      	str	r1, [sp, #28]
   244ae:	7981      	ldrb	r1, [r0, #6]
   244b0:	9106      	str	r1, [sp, #24]
   244b2:	1dc1      	adds	r1, r0, #7
   244b4:	4e60      	ldr	r6, [pc, #384]	@ (24638 <_start+0x4f4>)
   244b6:	446e      	add	r6, sp
   244b8:	242f      	movs	r4, #47	@ 0x2f
   244ba:	4630      	mov	r0, r6
   244bc:	4622      	mov	r2, r4
   244be:	f002 fda4 	bl	2700a <__aeabi_memcpy>
   244c2:	485b      	ldr	r0, [pc, #364]	@ (24630 <_start+0x4ec>)
   244c4:	990c      	ldr	r1, [sp, #48]	@ 0x30
   244c6:	462a      	mov	r2, r5
   244c8:	462b      	mov	r3, r5
   244ca:	df03      	svc	3
   244cc:	4858      	ldr	r0, [pc, #352]	@ (24630 <_start+0x4ec>)
   244ce:	4629      	mov	r1, r5
   244d0:	462a      	mov	r2, r5
   244d2:	462b      	mov	r3, r5
   244d4:	df04      	svc	4
   244d6:	4d57      	ldr	r5, [pc, #348]	@ (24634 <_start+0x4f0>)
   244d8:	446d      	add	r5, sp
   244da:	1de8      	adds	r0, r5, #7
   244dc:	4631      	mov	r1, r6
   244de:	4622      	mov	r2, r4
   244e0:	f002 fd93 	bl	2700a <__aeabi_memcpy>
   244e4:	9806      	ldr	r0, [sp, #24]
   244e6:	71a8      	strb	r0, [r5, #6]
   244e8:	9807      	ldr	r0, [sp, #28]
   244ea:	7168      	strb	r0, [r5, #5]
   244ec:	9808      	ldr	r0, [sp, #32]
   244ee:	7128      	strb	r0, [r5, #4]
   244f0:	9809      	ldr	r0, [sp, #36]	@ 0x24
   244f2:	70e8      	strb	r0, [r5, #3]
   244f4:	9825      	ldr	r0, [sp, #148]	@ 0x94
   244f6:	8028      	strh	r0, [r5, #0]
   244f8:	980a      	ldr	r0, [sp, #40]	@ 0x28
   244fa:	7880      	ldrb	r0, [r0, #2]
   244fc:	70a8      	strb	r0, [r5, #2]
   244fe:	484e      	ldr	r0, [pc, #312]	@ (24638 <_start+0x4f4>)
   24500:	4468      	add	r0, sp
   24502:	2125      	movs	r1, #37	@ 0x25
   24504:	f002 fbd4 	bl	26cb0 <__aeabi_memclr4>
   24508:	484c      	ldr	r0, [pc, #304]	@ (2463c <_start+0x4f8>)
   2450a:	2336      	movs	r3, #54	@ 0x36
   2450c:	990c      	ldr	r1, [sp, #48]	@ 0x30
   2450e:	462a      	mov	r2, r5
   24510:	df04      	svc	4
   24512:	2802      	cmp	r0, #2
   24514:	d007      	beq.n	24526 <_start+0x3e2>
   24516:	4849      	ldr	r0, [pc, #292]	@ (2463c <_start+0x4f8>)
   24518:	2100      	movs	r1, #0
   2451a:	4a47      	ldr	r2, [pc, #284]	@ (24638 <_start+0x4f4>)
   2451c:	446a      	add	r2, sp
   2451e:	2325      	movs	r3, #37	@ 0x25
   24520:	df03      	svc	3
   24522:	2802      	cmp	r0, #2
   24524:	d10d      	bne.n	24542 <_start+0x3fe>
   24526:	910c      	str	r1, [sp, #48]	@ 0x30
   24528:	4c44      	ldr	r4, [pc, #272]	@ (2463c <_start+0x4f8>)
   2452a:	2500      	movs	r5, #0
   2452c:	4620      	mov	r0, r4
   2452e:	4629      	mov	r1, r5
   24530:	462a      	mov	r2, r5
   24532:	462b      	mov	r3, r5
   24534:	df03      	svc	3
   24536:	2107      	movs	r1, #7
   24538:	4620      	mov	r0, r4
   2453a:	462a      	mov	r2, r5
   2453c:	462b      	mov	r3, r5
   2453e:	df04      	svc	4
   24540:	e63b      	b.n	241ba <_start+0x76>
   24542:	483e      	ldr	r0, [pc, #248]	@ (2463c <_start+0x4f8>)
   24544:	2107      	movs	r1, #7
   24546:	2500      	movs	r5, #0
   24548:	462a      	mov	r2, r5
   2454a:	462b      	mov	r3, r5
   2454c:	df02      	svc	2
   2454e:	910c      	str	r1, [sp, #48]	@ 0x30
   24550:	287f      	cmp	r0, #127	@ 0x7f
   24552:	d9e9      	bls.n	24528 <_start+0x3e4>
   24554:	4c39      	ldr	r4, [pc, #228]	@ (2463c <_start+0x4f8>)
   24556:	4620      	mov	r0, r4
   24558:	4629      	mov	r1, r5
   2455a:	462a      	mov	r2, r5
   2455c:	462b      	mov	r3, r5
   2455e:	df03      	svc	3
   24560:	4620      	mov	r0, r4
   24562:	4629      	mov	r1, r5
   24564:	462a      	mov	r2, r5
   24566:	462b      	mov	r3, r5
   24568:	df03      	svc	3
   2456a:	aa26      	add	r2, sp, #152	@ 0x98
   2456c:	920c      	str	r2, [sp, #48]	@ 0x30
   2456e:	9e05      	ldr	r6, [sp, #20]
   24570:	6830      	ldr	r0, [r6, #0]
   24572:	8010      	strh	r0, [r2, #0]
   24574:	4830      	ldr	r0, [pc, #192]	@ (24638 <_start+0x4f4>)
   24576:	4468      	add	r0, sp
   24578:	7881      	ldrb	r1, [r0, #2]
   2457a:	7091      	strb	r1, [r2, #2]
   2457c:	78c1      	ldrb	r1, [r0, #3]
   2457e:	910a      	str	r1, [sp, #40]	@ 0x28
   24580:	7901      	ldrb	r1, [r0, #4]
   24582:	9109      	str	r1, [sp, #36]	@ 0x24
   24584:	7941      	ldrb	r1, [r0, #5]
   24586:	9108      	str	r1, [sp, #32]
   24588:	7981      	ldrb	r1, [r0, #6]
   2458a:	9107      	str	r1, [sp, #28]
   2458c:	1dc1      	adds	r1, r0, #7
   2458e:	a80e      	add	r0, sp, #56	@ 0x38
   24590:	9006      	str	r0, [sp, #24]
   24592:	221e      	movs	r2, #30
   24594:	9202      	str	r2, [sp, #8]
   24596:	f002 fd38 	bl	2700a <__aeabi_memcpy>
   2459a:	4620      	mov	r0, r4
   2459c:	4629      	mov	r1, r5
   2459e:	462a      	mov	r2, r5
   245a0:	462b      	mov	r3, r5
   245a2:	df03      	svc	3
   245a4:	2107      	movs	r1, #7
   245a6:	4620      	mov	r0, r4
   245a8:	462a      	mov	r2, r5
   245aa:	462b      	mov	r3, r5
   245ac:	df04      	svc	4
   245ae:	4c21      	ldr	r4, [pc, #132]	@ (24634 <_start+0x4f0>)
   245b0:	446c      	add	r4, sp
   245b2:	1de0      	adds	r0, r4, #7
   245b4:	9906      	ldr	r1, [sp, #24]
   245b6:	9a02      	ldr	r2, [sp, #8]
   245b8:	f002 fd27 	bl	2700a <__aeabi_memcpy>
   245bc:	9807      	ldr	r0, [sp, #28]
   245be:	71a0      	strb	r0, [r4, #6]
   245c0:	9808      	ldr	r0, [sp, #32]
   245c2:	7160      	strb	r0, [r4, #5]
   245c4:	9809      	ldr	r0, [sp, #36]	@ 0x24
   245c6:	7120      	strb	r0, [r4, #4]
   245c8:	980a      	ldr	r0, [sp, #40]	@ 0x28
   245ca:	70e0      	strb	r0, [r4, #3]
   245cc:	9826      	ldr	r0, [sp, #152]	@ 0x98
   245ce:	8020      	strh	r0, [r4, #0]
   245d0:	980c      	ldr	r0, [sp, #48]	@ 0x30
   245d2:	7880      	ldrb	r0, [r0, #2]
   245d4:	70a0      	strb	r0, [r4, #2]
   245d6:	4818      	ldr	r0, [pc, #96]	@ (24638 <_start+0x4f4>)
   245d8:	4468      	add	r0, sp
   245da:	8185      	strh	r5, [r0, #12]
   245dc:	6035      	str	r5, [r6, #0]
   245de:	6075      	str	r5, [r6, #4]
   245e0:	60b5      	str	r5, [r6, #8]
   245e2:	4817      	ldr	r0, [pc, #92]	@ (24640 <_start+0x4fc>)
   245e4:	2102      	movs	r1, #2
   245e6:	2325      	movs	r3, #37	@ 0x25
   245e8:	4622      	mov	r2, r4
   245ea:	df04      	svc	4
   245ec:	910c      	str	r1, [sp, #48]	@ 0x30
   245ee:	2802      	cmp	r0, #2
   245f0:	d010      	beq.n	24614 <_start+0x4d0>
   245f2:	4813      	ldr	r0, [pc, #76]	@ (24640 <_start+0x4fc>)
   245f4:	2108      	movs	r1, #8
   245f6:	4a10      	ldr	r2, [pc, #64]	@ (24638 <_start+0x4f4>)
   245f8:	446a      	add	r2, sp
   245fa:	230e      	movs	r3, #14
   245fc:	df03      	svc	3
   245fe:	910c      	str	r1, [sp, #48]	@ 0x30
   24600:	2802      	cmp	r0, #2
   24602:	d007      	beq.n	24614 <_start+0x4d0>
   24604:	480e      	ldr	r0, [pc, #56]	@ (24640 <_start+0x4fc>)
   24606:	2102      	movs	r1, #2
   24608:	2208      	movs	r2, #8
   2460a:	2300      	movs	r3, #0
   2460c:	df02      	svc	2
   2460e:	910c      	str	r1, [sp, #48]	@ 0x30
   24610:	287f      	cmp	r0, #127	@ 0x7f
   24612:	d817      	bhi.n	24644 <_start+0x500>
   24614:	4c0a      	ldr	r4, [pc, #40]	@ (24640 <_start+0x4fc>)
   24616:	2108      	movs	r1, #8
   24618:	2500      	movs	r5, #0
   2461a:	4620      	mov	r0, r4
   2461c:	462a      	mov	r2, r5
   2461e:	462b      	mov	r3, r5
   24620:	df03      	svc	3
   24622:	2102      	movs	r1, #2
   24624:	4620      	mov	r0, r4
   24626:	462a      	mov	r2, r5
   24628:	462b      	mov	r3, r5
   2462a:	df04      	svc	4
   2462c:	e5c5      	b.n	241ba <_start+0x76>
   2462e:	46c0      	nop			@ (mov r8, r8)
   24630:	0000021f 	.word	0x0000021f
   24634:	000013cc 	.word	0x000013cc
   24638:	00001370 	.word	0x00001370
   2463c:	00001597 	.word	0x00001597
   24640:	00000667 	.word	0x00000667
   24644:	4c29      	ldr	r4, [pc, #164]	@ (246ec <_start+0x5a8>)
   24646:	2608      	movs	r6, #8
   24648:	960c      	str	r6, [sp, #48]	@ 0x30
   2464a:	2500      	movs	r5, #0
   2464c:	4620      	mov	r0, r4
   2464e:	4631      	mov	r1, r6
   24650:	462a      	mov	r2, r5
   24652:	462b      	mov	r3, r5
   24654:	df03      	svc	3
   24656:	4620      	mov	r0, r4
   24658:	4631      	mov	r1, r6
   2465a:	462a      	mov	r2, r5
   2465c:	462b      	mov	r3, r5
   2465e:	df03      	svc	3
   24660:	ac27      	add	r4, sp, #156	@ 0x9c
   24662:	9a05      	ldr	r2, [sp, #20]
   24664:	6810      	ldr	r0, [r2, #0]
   24666:	8020      	strh	r0, [r4, #0]
   24668:	4821      	ldr	r0, [pc, #132]	@ (246f0 <_start+0x5ac>)
   2466a:	4468      	add	r0, sp
   2466c:	7881      	ldrb	r1, [r0, #2]
   2466e:	70a1      	strb	r1, [r4, #2]
   24670:	7b41      	ldrb	r1, [r0, #13]
   24672:	ae0e      	add	r6, sp, #56	@ 0x38
   24674:	71b1      	strb	r1, [r6, #6]
   24676:	7ac1      	ldrb	r1, [r0, #11]
   24678:	68d2      	ldr	r2, [r2, #12]
   2467a:	0212      	lsls	r2, r2, #8
   2467c:	1851      	adds	r1, r2, r1
   2467e:	80b1      	strh	r1, [r6, #4]
   24680:	79c1      	ldrb	r1, [r0, #7]
   24682:	7a02      	ldrb	r2, [r0, #8]
   24684:	0212      	lsls	r2, r2, #8
   24686:	1851      	adds	r1, r2, r1
   24688:	7a42      	ldrb	r2, [r0, #9]
   2468a:	0412      	lsls	r2, r2, #16
   2468c:	7a83      	ldrb	r3, [r0, #10]
   2468e:	061b      	lsls	r3, r3, #24
   24690:	189a      	adds	r2, r3, r2
   24692:	1851      	adds	r1, r2, r1
   24694:	910e      	str	r1, [sp, #56]	@ 0x38
   24696:	78c1      	ldrb	r1, [r0, #3]
   24698:	910a      	str	r1, [sp, #40]	@ 0x28
   2469a:	7901      	ldrb	r1, [r0, #4]
   2469c:	9109      	str	r1, [sp, #36]	@ 0x24
   2469e:	7941      	ldrb	r1, [r0, #5]
   246a0:	9108      	str	r1, [sp, #32]
   246a2:	7980      	ldrb	r0, [r0, #6]
   246a4:	9007      	str	r0, [sp, #28]
   246a6:	4811      	ldr	r0, [pc, #68]	@ (246ec <_start+0x5a8>)
   246a8:	990c      	ldr	r1, [sp, #48]	@ 0x30
   246aa:	462a      	mov	r2, r5
   246ac:	462b      	mov	r3, r5
   246ae:	df03      	svc	3
   246b0:	2102      	movs	r1, #2
   246b2:	480e      	ldr	r0, [pc, #56]	@ (246ec <_start+0x5a8>)
   246b4:	462a      	mov	r2, r5
   246b6:	462b      	mov	r3, r5
   246b8:	df04      	svc	4
   246ba:	9807      	ldr	r0, [sp, #28]
   246bc:	71a0      	strb	r0, [r4, #6]
   246be:	9808      	ldr	r0, [sp, #32]
   246c0:	7160      	strb	r0, [r4, #5]
   246c2:	9809      	ldr	r0, [sp, #36]	@ 0x24
   246c4:	7120      	strb	r0, [r4, #4]
   246c6:	980a      	ldr	r0, [sp, #40]	@ 0x28
   246c8:	70e0      	strb	r0, [r4, #3]
   246ca:	1de0      	adds	r0, r4, #7
   246cc:	2207      	movs	r2, #7
   246ce:	4631      	mov	r1, r6
   246d0:	f002 fc9b 	bl	2700a <__aeabi_memcpy>
   246d4:	4d07      	ldr	r5, [pc, #28]	@ (246f4 <_start+0x5b0>)
   246d6:	446d      	add	r5, sp
   246d8:	4628      	mov	r0, r5
   246da:	4621      	mov	r1, r4
   246dc:	f7fc f8b8 	bl	20850 <_ZN18complex_no_dynamic3app17h193ffab009baf231E>
   246e0:	7828      	ldrb	r0, [r5, #0]
   246e2:	2801      	cmp	r0, #1
   246e4:	d108      	bne.n	246f8 <_start+0x5b4>
   246e6:	f002 fa89 	bl	26bfc <_start+0x2ab8>
   246ea:	46c0      	nop			@ (mov r8, r8)
   246ec:	00000667 	.word	0x00000667
   246f0:	00001370 	.word	0x00001370
   246f4:	000013cc 	.word	0x000013cc
   246f8:	4915      	ldr	r1, [pc, #84]	@ (24750 <_start+0x60c>)
   246fa:	4469      	add	r1, sp
   246fc:	78c8      	ldrb	r0, [r1, #3]
   246fe:	ac2b      	add	r4, sp, #172	@ 0xac
   24700:	70a0      	strb	r0, [r4, #2]
   24702:	7848      	ldrb	r0, [r1, #1]
   24704:	788a      	ldrb	r2, [r1, #2]
   24706:	0212      	lsls	r2, r2, #8
   24708:	1810      	adds	r0, r2, r0
   2470a:	8020      	strh	r0, [r4, #0]
   2470c:	9805      	ldr	r0, [sp, #20]
   2470e:	6e05      	ldr	r5, [r0, #96]	@ 0x60
   24710:	3108      	adds	r1, #8
   24712:	4810      	ldr	r0, [pc, #64]	@ (24754 <_start+0x610>)
   24714:	4468      	add	r0, sp
   24716:	900c      	str	r0, [sp, #48]	@ 0x30
   24718:	2641      	movs	r6, #65	@ 0x41
   2471a:	4632      	mov	r2, r6
   2471c:	f002 fb15 	bl	26d4a <__aeabi_memcpy4>
   24720:	0e28      	lsrs	r0, r5, #24
   24722:	71a0      	strb	r0, [r4, #6]
   24724:	0c28      	lsrs	r0, r5, #16
   24726:	7160      	strb	r0, [r4, #5]
   24728:	0a28      	lsrs	r0, r5, #8
   2472a:	7120      	strb	r0, [r4, #4]
   2472c:	70e5      	strb	r5, [r4, #3]
   2472e:	1de0      	adds	r0, r4, #7
   24730:	990c      	ldr	r1, [sp, #48]	@ 0x30
   24732:	4632      	mov	r2, r6
   24734:	f002 fc69 	bl	2700a <__aeabi_memcpy>
   24738:	4d05      	ldr	r5, [pc, #20]	@ (24750 <_start+0x60c>)
   2473a:	446d      	add	r5, sp
   2473c:	4628      	mov	r0, r5
   2473e:	4621      	mov	r1, r4
   24740:	f7ff f814 	bl	2376c <_ZN18complex_no_dynamic3app17hdf11410fb776757fE>
   24744:	7828      	ldrb	r0, [r5, #0]
   24746:	2801      	cmp	r0, #1
   24748:	d106      	bne.n	24758 <_start+0x614>
   2474a:	f002 fa57 	bl	26bfc <_start+0x2ab8>
   2474e:	46c0      	nop			@ (mov r8, r8)
   24750:	000013cc 	.word	0x000013cc
   24754:	00001370 	.word	0x00001370
   24758:	980b      	ldr	r0, [sp, #44]	@ 0x2c
   2475a:	1cc0      	adds	r0, r0, #3
   2475c:	4a15      	ldr	r2, [pc, #84]	@ (247b4 <_start+0x670>)
   2475e:	446a      	add	r2, sp
   24760:	78d3      	ldrb	r3, [r2, #3]
   24762:	a93d      	add	r1, sp, #244	@ 0xf4
   24764:	708b      	strb	r3, [r1, #2]
   24766:	7853      	ldrb	r3, [r2, #1]
   24768:	7892      	ldrb	r2, [r2, #2]
   2476a:	0212      	lsls	r2, r2, #8
   2476c:	18d2      	adds	r2, r2, r3
   2476e:	800a      	strh	r2, [r1, #0]
   24770:	9c05      	ldr	r4, [sp, #20]
   24772:	3460      	adds	r4, #96	@ 0x60
   24774:	cc1c      	ldmia	r4, {r2, r3, r4}
   24776:	0e25      	lsrs	r5, r4, #24
   24778:	72c5      	strb	r5, [r0, #11]
   2477a:	0c25      	lsrs	r5, r4, #16
   2477c:	7285      	strb	r5, [r0, #10]
   2477e:	0a25      	lsrs	r5, r4, #8
   24780:	7245      	strb	r5, [r0, #9]
   24782:	7204      	strb	r4, [r0, #8]
   24784:	0e1c      	lsrs	r4, r3, #24
   24786:	71c4      	strb	r4, [r0, #7]
   24788:	0c1c      	lsrs	r4, r3, #16
   2478a:	7184      	strb	r4, [r0, #6]
   2478c:	0a1c      	lsrs	r4, r3, #8
   2478e:	7144      	strb	r4, [r0, #5]
   24790:	7103      	strb	r3, [r0, #4]
   24792:	0e13      	lsrs	r3, r2, #24
   24794:	70c3      	strb	r3, [r0, #3]
   24796:	0c13      	lsrs	r3, r2, #16
   24798:	7083      	strb	r3, [r0, #2]
   2479a:	0a13      	lsrs	r3, r2, #8
   2479c:	7043      	strb	r3, [r0, #1]
   2479e:	7002      	strb	r2, [r0, #0]
   247a0:	4c04      	ldr	r4, [pc, #16]	@ (247b4 <_start+0x670>)
   247a2:	446c      	add	r4, sp
   247a4:	4620      	mov	r0, r4
   247a6:	f7ff f963 	bl	23a70 <_ZN18complex_no_dynamic3app17he9066ad616b12b40E>
   247aa:	7820      	ldrb	r0, [r4, #0]
   247ac:	2801      	cmp	r0, #1
   247ae:	d103      	bne.n	247b8 <_start+0x674>
   247b0:	f002 fa24 	bl	26bfc <_start+0x2ab8>
   247b4:	000013cc 	.word	0x000013cc
   247b8:	4817      	ldr	r0, [pc, #92]	@ (24818 <_start+0x6d4>)
   247ba:	4468      	add	r0, sp
   247bc:	78c1      	ldrb	r1, [r0, #3]
   247be:	ac41      	add	r4, sp, #260	@ 0x104
   247c0:	70a1      	strb	r1, [r4, #2]
   247c2:	7841      	ldrb	r1, [r0, #1]
   247c4:	7882      	ldrb	r2, [r0, #2]
   247c6:	0212      	lsls	r2, r2, #8
   247c8:	1851      	adds	r1, r2, r1
   247ca:	8021      	strh	r1, [r4, #0]
   247cc:	3008      	adds	r0, #8
   247ce:	9905      	ldr	r1, [sp, #20]
   247d0:	6e09      	ldr	r1, [r1, #96]	@ 0x60
   247d2:	910b      	str	r1, [sp, #44]	@ 0x2c
   247d4:	4b11      	ldr	r3, [pc, #68]	@ (2481c <_start+0x6d8>)
   247d6:	446b      	add	r3, sp
   247d8:	930c      	str	r3, [sp, #48]	@ 0x30
   247da:	c864      	ldmia	r0!, {r2, r5, r6}
   247dc:	c364      	stmia	r3!, {r2, r5, r6}
   247de:	c866      	ldmia	r0!, {r1, r2, r5, r6}
   247e0:	c366      	stmia	r3!, {r1, r2, r5, r6}
   247e2:	8800      	ldrh	r0, [r0, #0]
   247e4:	8018      	strh	r0, [r3, #0]
   247e6:	990b      	ldr	r1, [sp, #44]	@ 0x2c
   247e8:	0e08      	lsrs	r0, r1, #24
   247ea:	71a0      	strb	r0, [r4, #6]
   247ec:	0c08      	lsrs	r0, r1, #16
   247ee:	7160      	strb	r0, [r4, #5]
   247f0:	0a08      	lsrs	r0, r1, #8
   247f2:	7120      	strb	r0, [r4, #4]
   247f4:	70e1      	strb	r1, [r4, #3]
   247f6:	1de0      	adds	r0, r4, #7
   247f8:	221e      	movs	r2, #30
   247fa:	990c      	ldr	r1, [sp, #48]	@ 0x30
   247fc:	f002 fc05 	bl	2700a <__aeabi_memcpy>
   24800:	4d05      	ldr	r5, [pc, #20]	@ (24818 <_start+0x6d4>)
   24802:	446d      	add	r5, sp
   24804:	4628      	mov	r0, r5
   24806:	4621      	mov	r1, r4
   24808:	f7fc fd00 	bl	2120c <_ZN18complex_no_dynamic3app17h4a48a9710cd26a1fE>
   2480c:	7828      	ldrb	r0, [r5, #0]
   2480e:	2801      	cmp	r0, #1
   24810:	d106      	bne.n	24820 <_start+0x6dc>
   24812:	f002 f9f3 	bl	26bfc <_start+0x2ab8>
   24816:	46c0      	nop			@ (mov r8, r8)
   24818:	000013cc 	.word	0x000013cc
   2481c:	00001370 	.word	0x00001370
   24820:	4818      	ldr	r0, [pc, #96]	@ (24884 <_start+0x740>)
   24822:	4468      	add	r0, sp
   24824:	78c1      	ldrb	r1, [r0, #3]
   24826:	ac4b      	add	r4, sp, #300	@ 0x12c
   24828:	70a1      	strb	r1, [r4, #2]
   2482a:	7841      	ldrb	r1, [r0, #1]
   2482c:	7882      	ldrb	r2, [r0, #2]
   2482e:	0212      	lsls	r2, r2, #8
   24830:	1851      	adds	r1, r2, r1
   24832:	8021      	strh	r1, [r4, #0]
   24834:	3008      	adds	r0, #8
   24836:	9905      	ldr	r1, [sp, #20]
   24838:	6e09      	ldr	r1, [r1, #96]	@ 0x60
   2483a:	910b      	str	r1, [sp, #44]	@ 0x2c
   2483c:	4b12      	ldr	r3, [pc, #72]	@ (24888 <_start+0x744>)
   2483e:	446b      	add	r3, sp
   24840:	930c      	str	r3, [sp, #48]	@ 0x30
   24842:	c866      	ldmia	r0!, {r1, r2, r5, r6}
   24844:	c366      	stmia	r3!, {r1, r2, r5, r6}
   24846:	c866      	ldmia	r0!, {r1, r2, r5, r6}
   24848:	c366      	stmia	r3!, {r1, r2, r5, r6}
   2484a:	8801      	ldrh	r1, [r0, #0]
   2484c:	8019      	strh	r1, [r3, #0]
   2484e:	7880      	ldrb	r0, [r0, #2]
   24850:	7098      	strb	r0, [r3, #2]
   24852:	990b      	ldr	r1, [sp, #44]	@ 0x2c
   24854:	0e08      	lsrs	r0, r1, #24
   24856:	71a0      	strb	r0, [r4, #6]
   24858:	0c08      	lsrs	r0, r1, #16
   2485a:	7160      	strb	r0, [r4, #5]
   2485c:	0a08      	lsrs	r0, r1, #8
   2485e:	7120      	strb	r0, [r4, #4]
   24860:	70e1      	strb	r1, [r4, #3]
   24862:	1de0      	adds	r0, r4, #7
   24864:	2223      	movs	r2, #35	@ 0x23
   24866:	990c      	ldr	r1, [sp, #48]	@ 0x30
   24868:	f002 fbcf 	bl	2700a <__aeabi_memcpy>
   2486c:	4d05      	ldr	r5, [pc, #20]	@ (24884 <_start+0x740>)
   2486e:	446d      	add	r5, sp
   24870:	4628      	mov	r0, r5
   24872:	4621      	mov	r1, r4
   24874:	f7fd fd32 	bl	222dc <_ZN18complex_no_dynamic3app17h86058071c59e4ce8E>
   24878:	7828      	ldrb	r0, [r5, #0]
   2487a:	2801      	cmp	r0, #1
   2487c:	d106      	bne.n	2488c <_start+0x748>
   2487e:	f002 f9bd 	bl	26bfc <_start+0x2ab8>
   24882:	46c0      	nop			@ (mov r8, r8)
   24884:	000013cc 	.word	0x000013cc
   24888:	00001370 	.word	0x00001370
   2488c:	4915      	ldr	r1, [pc, #84]	@ (248e4 <_start+0x7a0>)
   2488e:	4469      	add	r1, sp
   24890:	78c8      	ldrb	r0, [r1, #3]
   24892:	ac56      	add	r4, sp, #344	@ 0x158
   24894:	70a0      	strb	r0, [r4, #2]
   24896:	7848      	ldrb	r0, [r1, #1]
   24898:	788a      	ldrb	r2, [r1, #2]
   2489a:	0212      	lsls	r2, r2, #8
   2489c:	1810      	adds	r0, r2, r0
   2489e:	8020      	strh	r0, [r4, #0]
   248a0:	9805      	ldr	r0, [sp, #20]
   248a2:	6e05      	ldr	r5, [r0, #96]	@ 0x60
   248a4:	3108      	adds	r1, #8
   248a6:	4810      	ldr	r0, [pc, #64]	@ (248e8 <_start+0x7a4>)
   248a8:	4468      	add	r0, sp
   248aa:	900c      	str	r0, [sp, #48]	@ 0x30
   248ac:	265c      	movs	r6, #92	@ 0x5c
   248ae:	4632      	mov	r2, r6
   248b0:	f002 fa4b 	bl	26d4a <__aeabi_memcpy4>
   248b4:	0e28      	lsrs	r0, r5, #24
   248b6:	71a0      	strb	r0, [r4, #6]
   248b8:	0c28      	lsrs	r0, r5, #16
   248ba:	7160      	strb	r0, [r4, #5]
   248bc:	0a28      	lsrs	r0, r5, #8
   248be:	7120      	strb	r0, [r4, #4]
   248c0:	70e5      	strb	r5, [r4, #3]
   248c2:	1de0      	adds	r0, r4, #7
   248c4:	990c      	ldr	r1, [sp, #48]	@ 0x30
   248c6:	4632      	mov	r2, r6
   248c8:	f002 fb9f 	bl	2700a <__aeabi_memcpy>
   248cc:	4d05      	ldr	r5, [pc, #20]	@ (248e4 <_start+0x7a0>)
   248ce:	446d      	add	r5, sp
   248d0:	4628      	mov	r0, r5
   248d2:	4621      	mov	r1, r4
   248d4:	f7fb fe14 	bl	20500 <_ZN18complex_no_dynamic3app17h0d3fe1b9a7dccfe7E>
   248d8:	7828      	ldrb	r0, [r5, #0]
   248da:	2801      	cmp	r0, #1
   248dc:	d106      	bne.n	248ec <_start+0x7a8>
   248de:	f002 f98d 	bl	26bfc <_start+0x2ab8>
   248e2:	46c0      	nop			@ (mov r8, r8)
   248e4:	000013cc 	.word	0x000013cc
   248e8:	00001370 	.word	0x00001370
   248ec:	4816      	ldr	r0, [pc, #88]	@ (24948 <_start+0x804>)
   248ee:	4468      	add	r0, sp
   248f0:	78c1      	ldrb	r1, [r0, #3]
   248f2:	ac6f      	add	r4, sp, #444	@ 0x1bc
   248f4:	70a1      	strb	r1, [r4, #2]
   248f6:	7841      	ldrb	r1, [r0, #1]
   248f8:	7882      	ldrb	r2, [r0, #2]
   248fa:	0212      	lsls	r2, r2, #8
   248fc:	1851      	adds	r1, r2, r1
   248fe:	8021      	strh	r1, [r4, #0]
   24900:	3008      	adds	r0, #8
   24902:	9905      	ldr	r1, [sp, #20]
   24904:	6e09      	ldr	r1, [r1, #96]	@ 0x60
   24906:	910b      	str	r1, [sp, #44]	@ 0x2c
   24908:	4b10      	ldr	r3, [pc, #64]	@ (2494c <_start+0x808>)
   2490a:	446b      	add	r3, sp
   2490c:	930c      	str	r3, [sp, #48]	@ 0x30
   2490e:	c866      	ldmia	r0!, {r1, r2, r5, r6}
   24910:	c366      	stmia	r3!, {r1, r2, r5, r6}
   24912:	c866      	ldmia	r0!, {r1, r2, r5, r6}
   24914:	c366      	stmia	r3!, {r1, r2, r5, r6}
   24916:	990b      	ldr	r1, [sp, #44]	@ 0x2c
   24918:	0e08      	lsrs	r0, r1, #24
   2491a:	71a0      	strb	r0, [r4, #6]
   2491c:	0c08      	lsrs	r0, r1, #16
   2491e:	7160      	strb	r0, [r4, #5]
   24920:	0a08      	lsrs	r0, r1, #8
   24922:	7120      	strb	r0, [r4, #4]
   24924:	70e1      	strb	r1, [r4, #3]
   24926:	1de0      	adds	r0, r4, #7
   24928:	2220      	movs	r2, #32
   2492a:	990c      	ldr	r1, [sp, #48]	@ 0x30
   2492c:	f002 fb6d 	bl	2700a <__aeabi_memcpy>
   24930:	4d05      	ldr	r5, [pc, #20]	@ (24948 <_start+0x804>)
   24932:	446d      	add	r5, sp
   24934:	4628      	mov	r0, r5
   24936:	4621      	mov	r1, r4
   24938:	f7ff f9f0 	bl	23d1c <_ZN18complex_no_dynamic3app17hf38543ecee9492f8E>
   2493c:	7828      	ldrb	r0, [r5, #0]
   2493e:	2801      	cmp	r0, #1
   24940:	d106      	bne.n	24950 <_start+0x80c>
   24942:	f002 f95b 	bl	26bfc <_start+0x2ab8>
   24946:	46c0      	nop			@ (mov r8, r8)
   24948:	000013cc 	.word	0x000013cc
   2494c:	00001370 	.word	0x00001370
   24950:	4817      	ldr	r0, [pc, #92]	@ (249b0 <_start+0x86c>)
   24952:	4468      	add	r0, sp
   24954:	78c1      	ldrb	r1, [r0, #3]
   24956:	ac79      	add	r4, sp, #484	@ 0x1e4
   24958:	70a1      	strb	r1, [r4, #2]
   2495a:	7841      	ldrb	r1, [r0, #1]
   2495c:	7882      	ldrb	r2, [r0, #2]
   2495e:	0212      	lsls	r2, r2, #8
   24960:	1851      	adds	r1, r2, r1
   24962:	8021      	strh	r1, [r4, #0]
   24964:	3008      	adds	r0, #8
   24966:	9905      	ldr	r1, [sp, #20]
   24968:	6e09      	ldr	r1, [r1, #96]	@ 0x60
   2496a:	4b12      	ldr	r3, [pc, #72]	@ (249b4 <_start+0x870>)
   2496c:	446b      	add	r3, sp
   2496e:	930c      	str	r3, [sp, #48]	@ 0x30
   24970:	c860      	ldmia	r0!, {r5, r6}
   24972:	c360      	stmia	r3!, {r5, r6}
   24974:	c864      	ldmia	r0!, {r2, r5, r6}
   24976:	c364      	stmia	r3!, {r2, r5, r6}
   24978:	8802      	ldrh	r2, [r0, #0]
   2497a:	801a      	strh	r2, [r3, #0]
   2497c:	7880      	ldrb	r0, [r0, #2]
   2497e:	7098      	strb	r0, [r3, #2]
   24980:	0e08      	lsrs	r0, r1, #24
   24982:	71a0      	strb	r0, [r4, #6]
   24984:	0c08      	lsrs	r0, r1, #16
   24986:	7160      	strb	r0, [r4, #5]
   24988:	0a08      	lsrs	r0, r1, #8
   2498a:	7120      	strb	r0, [r4, #4]
   2498c:	70e1      	strb	r1, [r4, #3]
   2498e:	1de0      	adds	r0, r4, #7
   24990:	2217      	movs	r2, #23
   24992:	990c      	ldr	r1, [sp, #48]	@ 0x30
   24994:	f002 fb39 	bl	2700a <__aeabi_memcpy>
   24998:	4d05      	ldr	r5, [pc, #20]	@ (249b0 <_start+0x86c>)
   2499a:	446d      	add	r5, sp
   2499c:	4628      	mov	r0, r5
   2499e:	4621      	mov	r1, r4
   249a0:	f7fc fad8 	bl	20f54 <_ZN18complex_no_dynamic3app17h33a786eaf011967eE>
   249a4:	7828      	ldrb	r0, [r5, #0]
   249a6:	2801      	cmp	r0, #1
   249a8:	d106      	bne.n	249b8 <_start+0x874>
   249aa:	f002 f927 	bl	26bfc <_start+0x2ab8>
   249ae:	46c0      	nop			@ (mov r8, r8)
   249b0:	000013cc 	.word	0x000013cc
   249b4:	00001370 	.word	0x00001370
   249b8:	4817      	ldr	r0, [pc, #92]	@ (24a18 <_start+0x8d4>)
   249ba:	4468      	add	r0, sp
   249bc:	78c1      	ldrb	r1, [r0, #3]
   249be:	ac81      	add	r4, sp, #516	@ 0x204
   249c0:	70a1      	strb	r1, [r4, #2]
   249c2:	7841      	ldrb	r1, [r0, #1]
   249c4:	7882      	ldrb	r2, [r0, #2]
   249c6:	0212      	lsls	r2, r2, #8
   249c8:	1851      	adds	r1, r2, r1
   249ca:	8021      	strh	r1, [r4, #0]
   249cc:	3008      	adds	r0, #8
   249ce:	9905      	ldr	r1, [sp, #20]
   249d0:	6e09      	ldr	r1, [r1, #96]	@ 0x60
   249d2:	4b12      	ldr	r3, [pc, #72]	@ (24a1c <_start+0x8d8>)
   249d4:	446b      	add	r3, sp
   249d6:	930c      	str	r3, [sp, #48]	@ 0x30
   249d8:	c864      	ldmia	r0!, {r2, r5, r6}
   249da:	c364      	stmia	r3!, {r2, r5, r6}
   249dc:	c864      	ldmia	r0!, {r2, r5, r6}
   249de:	c364      	stmia	r3!, {r2, r5, r6}
   249e0:	c864      	ldmia	r0!, {r2, r5, r6}
   249e2:	c364      	stmia	r3!, {r2, r5, r6}
   249e4:	7800      	ldrb	r0, [r0, #0]
   249e6:	7018      	strb	r0, [r3, #0]
   249e8:	0e08      	lsrs	r0, r1, #24
   249ea:	71a0      	strb	r0, [r4, #6]
   249ec:	0c08      	lsrs	r0, r1, #16
   249ee:	7160      	strb	r0, [r4, #5]
   249f0:	0a08      	lsrs	r0, r1, #8
   249f2:	7120      	strb	r0, [r4, #4]
   249f4:	70e1      	strb	r1, [r4, #3]
   249f6:	1de0      	adds	r0, r4, #7
   249f8:	2225      	movs	r2, #37	@ 0x25
   249fa:	990c      	ldr	r1, [sp, #48]	@ 0x30
   249fc:	f002 fb05 	bl	2700a <__aeabi_memcpy>
   24a00:	4d05      	ldr	r5, [pc, #20]	@ (24a18 <_start+0x8d4>)
   24a02:	446d      	add	r5, sp
   24a04:	4628      	mov	r0, r5
   24a06:	4621      	mov	r1, r4
   24a08:	f7fb fdce 	bl	205a8 <_ZN18complex_no_dynamic3app17h0e7a185c4cf74505E>
   24a0c:	7828      	ldrb	r0, [r5, #0]
   24a0e:	2801      	cmp	r0, #1
   24a10:	d106      	bne.n	24a20 <_start+0x8dc>
   24a12:	f002 f8f3 	bl	26bfc <_start+0x2ab8>
   24a16:	46c0      	nop			@ (mov r8, r8)
   24a18:	000013cc 	.word	0x000013cc
   24a1c:	00001370 	.word	0x00001370
   24a20:	4817      	ldr	r0, [pc, #92]	@ (24a80 <_start+0x93c>)
   24a22:	4468      	add	r0, sp
   24a24:	78c1      	ldrb	r1, [r0, #3]
   24a26:	ac8c      	add	r4, sp, #560	@ 0x230
   24a28:	70a1      	strb	r1, [r4, #2]
   24a2a:	7841      	ldrb	r1, [r0, #1]
   24a2c:	7882      	ldrb	r2, [r0, #2]
   24a2e:	0212      	lsls	r2, r2, #8
   24a30:	1851      	adds	r1, r2, r1
   24a32:	8021      	strh	r1, [r4, #0]
   24a34:	3008      	adds	r0, #8
   24a36:	9905      	ldr	r1, [sp, #20]
   24a38:	6e09      	ldr	r1, [r1, #96]	@ 0x60
   24a3a:	910b      	str	r1, [sp, #44]	@ 0x2c
   24a3c:	4b11      	ldr	r3, [pc, #68]	@ (24a84 <_start+0x940>)
   24a3e:	446b      	add	r3, sp
   24a40:	930c      	str	r3, [sp, #48]	@ 0x30
   24a42:	c864      	ldmia	r0!, {r2, r5, r6}
   24a44:	c364      	stmia	r3!, {r2, r5, r6}
   24a46:	c866      	ldmia	r0!, {r1, r2, r5, r6}
   24a48:	c366      	stmia	r3!, {r1, r2, r5, r6}
   24a4a:	8800      	ldrh	r0, [r0, #0]
   24a4c:	8018      	strh	r0, [r3, #0]
   24a4e:	990b      	ldr	r1, [sp, #44]	@ 0x2c
   24a50:	0e08      	lsrs	r0, r1, #24
   24a52:	71a0      	strb	r0, [r4, #6]
   24a54:	0c08      	lsrs	r0, r1, #16
   24a56:	7160      	strb	r0, [r4, #5]
   24a58:	0a08      	lsrs	r0, r1, #8
   24a5a:	7120      	strb	r0, [r4, #4]
   24a5c:	70e1      	strb	r1, [r4, #3]
   24a5e:	1de0      	adds	r0, r4, #7
   24a60:	221e      	movs	r2, #30
   24a62:	990c      	ldr	r1, [sp, #48]	@ 0x30
   24a64:	f002 fad1 	bl	2700a <__aeabi_memcpy>
   24a68:	4d05      	ldr	r5, [pc, #20]	@ (24a80 <_start+0x93c>)
   24a6a:	446d      	add	r5, sp
   24a6c:	4628      	mov	r0, r5
   24a6e:	4621      	mov	r1, r4
   24a70:	f7fd f92c 	bl	21ccc <_ZN18complex_no_dynamic3app17h671a94871d838e53E>
   24a74:	7828      	ldrb	r0, [r5, #0]
   24a76:	2801      	cmp	r0, #1
   24a78:	d106      	bne.n	24a88 <_start+0x944>
   24a7a:	f002 f8bf 	bl	26bfc <_start+0x2ab8>
   24a7e:	46c0      	nop			@ (mov r8, r8)
   24a80:	000013cc 	.word	0x000013cc
   24a84:	00001370 	.word	0x00001370
   24a88:	4816      	ldr	r0, [pc, #88]	@ (24ae4 <_start+0x9a0>)
   24a8a:	4468      	add	r0, sp
   24a8c:	78c1      	ldrb	r1, [r0, #3]
   24a8e:	ac96      	add	r4, sp, #600	@ 0x258
   24a90:	70a1      	strb	r1, [r4, #2]
   24a92:	7841      	ldrb	r1, [r0, #1]
   24a94:	7882      	ldrb	r2, [r0, #2]
   24a96:	0212      	lsls	r2, r2, #8
   24a98:	1851      	adds	r1, r2, r1
   24a9a:	8021      	strh	r1, [r4, #0]
   24a9c:	3008      	adds	r0, #8
   24a9e:	9905      	ldr	r1, [sp, #20]
   24aa0:	6e09      	ldr	r1, [r1, #96]	@ 0x60
   24aa2:	910b      	str	r1, [sp, #44]	@ 0x2c
   24aa4:	4b10      	ldr	r3, [pc, #64]	@ (24ae8 <_start+0x9a4>)
   24aa6:	446b      	add	r3, sp
   24aa8:	930c      	str	r3, [sp, #48]	@ 0x30
   24aaa:	c866      	ldmia	r0!, {r1, r2, r5, r6}
   24aac:	c366      	stmia	r3!, {r1, r2, r5, r6}
   24aae:	7800      	ldrb	r0, [r0, #0]
   24ab0:	7018      	strb	r0, [r3, #0]
   24ab2:	990b      	ldr	r1, [sp, #44]	@ 0x2c
   24ab4:	0e08      	lsrs	r0, r1, #24
   24ab6:	71a0      	strb	r0, [r4, #6]
   24ab8:	0c08      	lsrs	r0, r1, #16
   24aba:	7160      	strb	r0, [r4, #5]
   24abc:	0a08      	lsrs	r0, r1, #8
   24abe:	7120      	strb	r0, [r4, #4]
   24ac0:	70e1      	strb	r1, [r4, #3]
   24ac2:	1de0      	adds	r0, r4, #7
   24ac4:	2211      	movs	r2, #17
   24ac6:	990c      	ldr	r1, [sp, #48]	@ 0x30
   24ac8:	f002 fa9f 	bl	2700a <__aeabi_memcpy>
   24acc:	4d05      	ldr	r5, [pc, #20]	@ (24ae4 <_start+0x9a0>)
   24ace:	446d      	add	r5, sp
   24ad0:	4628      	mov	r0, r5
   24ad2:	4621      	mov	r1, r4
   24ad4:	f7fd fd02 	bl	224dc <_ZN18complex_no_dynamic3app17h8c47ef46e3072d50E>
   24ad8:	7828      	ldrb	r0, [r5, #0]
   24ada:	2801      	cmp	r0, #1
   24adc:	d106      	bne.n	24aec <_start+0x9a8>
   24ade:	f002 f88d 	bl	26bfc <_start+0x2ab8>
   24ae2:	46c0      	nop			@ (mov r8, r8)
   24ae4:	000013cc 	.word	0x000013cc
   24ae8:	00001370 	.word	0x00001370
   24aec:	4819      	ldr	r0, [pc, #100]	@ (24b54 <_start+0xa10>)
   24aee:	4468      	add	r0, sp
   24af0:	78c1      	ldrb	r1, [r0, #3]
   24af2:	ac9c      	add	r4, sp, #624	@ 0x270
   24af4:	70a1      	strb	r1, [r4, #2]
   24af6:	7841      	ldrb	r1, [r0, #1]
   24af8:	7882      	ldrb	r2, [r0, #2]
   24afa:	0212      	lsls	r2, r2, #8
   24afc:	1851      	adds	r1, r2, r1
   24afe:	8021      	strh	r1, [r4, #0]
   24b00:	3008      	adds	r0, #8
   24b02:	9905      	ldr	r1, [sp, #20]
   24b04:	6e09      	ldr	r1, [r1, #96]	@ 0x60
   24b06:	910b      	str	r1, [sp, #44]	@ 0x2c
   24b08:	4b13      	ldr	r3, [pc, #76]	@ (24b58 <_start+0xa14>)
   24b0a:	446b      	add	r3, sp
   24b0c:	930c      	str	r3, [sp, #48]	@ 0x30
   24b0e:	c864      	ldmia	r0!, {r2, r5, r6}
   24b10:	c364      	stmia	r3!, {r2, r5, r6}
   24b12:	c866      	ldmia	r0!, {r1, r2, r5, r6}
   24b14:	c366      	stmia	r3!, {r1, r2, r5, r6}
   24b16:	c866      	ldmia	r0!, {r1, r2, r5, r6}
   24b18:	c366      	stmia	r3!, {r1, r2, r5, r6}
   24b1a:	8801      	ldrh	r1, [r0, #0]
   24b1c:	8019      	strh	r1, [r3, #0]
   24b1e:	7880      	ldrb	r0, [r0, #2]
   24b20:	7098      	strb	r0, [r3, #2]
   24b22:	990b      	ldr	r1, [sp, #44]	@ 0x2c
   24b24:	0e08      	lsrs	r0, r1, #24
   24b26:	71a0      	strb	r0, [r4, #6]
   24b28:	0c08      	lsrs	r0, r1, #16
   24b2a:	7160      	strb	r0, [r4, #5]
   24b2c:	0a08      	lsrs	r0, r1, #8
   24b2e:	7120      	strb	r0, [r4, #4]
   24b30:	70e1      	strb	r1, [r4, #3]
   24b32:	1de0      	adds	r0, r4, #7
   24b34:	222f      	movs	r2, #47	@ 0x2f
   24b36:	990c      	ldr	r1, [sp, #48]	@ 0x30
   24b38:	f002 fa67 	bl	2700a <__aeabi_memcpy>
   24b3c:	4d05      	ldr	r5, [pc, #20]	@ (24b54 <_start+0xa10>)
   24b3e:	446d      	add	r5, sp
   24b40:	4628      	mov	r0, r5
   24b42:	4621      	mov	r1, r4
   24b44:	f7fd fd7a 	bl	2263c <_ZN18complex_no_dynamic3app17h94a7b0a1984498c3E>
   24b48:	7828      	ldrb	r0, [r5, #0]
   24b4a:	2801      	cmp	r0, #1
   24b4c:	d106      	bne.n	24b5c <_start+0xa18>
   24b4e:	f002 f855 	bl	26bfc <_start+0x2ab8>
   24b52:	46c0      	nop			@ (mov r8, r8)
   24b54:	000013cc 	.word	0x000013cc
   24b58:	00001370 	.word	0x00001370
   24b5c:	4818      	ldr	r0, [pc, #96]	@ (24bc0 <_start+0xa7c>)
   24b5e:	4468      	add	r0, sp
   24b60:	78c1      	ldrb	r1, [r0, #3]
   24b62:	acaa      	add	r4, sp, #680	@ 0x2a8
   24b64:	70a1      	strb	r1, [r4, #2]
   24b66:	7841      	ldrb	r1, [r0, #1]
   24b68:	7882      	ldrb	r2, [r0, #2]
   24b6a:	0212      	lsls	r2, r2, #8
   24b6c:	1851      	adds	r1, r2, r1
   24b6e:	8021      	strh	r1, [r4, #0]
   24b70:	3008      	adds	r0, #8
   24b72:	9905      	ldr	r1, [sp, #20]
   24b74:	6e09      	ldr	r1, [r1, #96]	@ 0x60
   24b76:	910b      	str	r1, [sp, #44]	@ 0x2c
   24b78:	4b12      	ldr	r3, [pc, #72]	@ (24bc4 <_start+0xa80>)
   24b7a:	446b      	add	r3, sp
   24b7c:	930c      	str	r3, [sp, #48]	@ 0x30
   24b7e:	c864      	ldmia	r0!, {r2, r5, r6}
   24b80:	c364      	stmia	r3!, {r2, r5, r6}
   24b82:	c866      	ldmia	r0!, {r1, r2, r5, r6}
   24b84:	c366      	stmia	r3!, {r1, r2, r5, r6}
   24b86:	c866      	ldmia	r0!, {r1, r2, r5, r6}
   24b88:	c366      	stmia	r3!, {r1, r2, r5, r6}
   24b8a:	7800      	ldrb	r0, [r0, #0]
   24b8c:	7018      	strb	r0, [r3, #0]
   24b8e:	990b      	ldr	r1, [sp, #44]	@ 0x2c
   24b90:	0e08      	lsrs	r0, r1, #24
   24b92:	71a0      	strb	r0, [r4, #6]
   24b94:	0c08      	lsrs	r0, r1, #16
   24b96:	7160      	strb	r0, [r4, #5]
   24b98:	0a08      	lsrs	r0, r1, #8
   24b9a:	7120      	strb	r0, [r4, #4]
   24b9c:	70e1      	strb	r1, [r4, #3]
   24b9e:	1de0      	adds	r0, r4, #7
   24ba0:	222d      	movs	r2, #45	@ 0x2d
   24ba2:	990c      	ldr	r1, [sp, #48]	@ 0x30
   24ba4:	f002 fa31 	bl	2700a <__aeabi_memcpy>
   24ba8:	4d05      	ldr	r5, [pc, #20]	@ (24bc0 <_start+0xa7c>)
   24baa:	446d      	add	r5, sp
   24bac:	4628      	mov	r0, r5
   24bae:	4621      	mov	r1, r4
   24bb0:	f7fe f86c 	bl	22c8c <_ZN18complex_no_dynamic3app17hb5a6f71c9681a3c3E>
   24bb4:	7828      	ldrb	r0, [r5, #0]
   24bb6:	2801      	cmp	r0, #1
   24bb8:	d106      	bne.n	24bc8 <_start+0xa84>
   24bba:	f002 f81f 	bl	26bfc <_start+0x2ab8>
   24bbe:	46c0      	nop			@ (mov r8, r8)
   24bc0:	000013cc 	.word	0x000013cc
   24bc4:	00001370 	.word	0x00001370
   24bc8:	4818      	ldr	r0, [pc, #96]	@ (24c2c <_start+0xae8>)
   24bca:	4468      	add	r0, sp
   24bcc:	78c1      	ldrb	r1, [r0, #3]
   24bce:	acb7      	add	r4, sp, #732	@ 0x2dc
   24bd0:	70a1      	strb	r1, [r4, #2]
   24bd2:	7841      	ldrb	r1, [r0, #1]
   24bd4:	7882      	ldrb	r2, [r0, #2]
   24bd6:	0212      	lsls	r2, r2, #8
   24bd8:	1851      	adds	r1, r2, r1
   24bda:	8021      	strh	r1, [r4, #0]
   24bdc:	3008      	adds	r0, #8
   24bde:	9905      	ldr	r1, [sp, #20]
   24be0:	6e09      	ldr	r1, [r1, #96]	@ 0x60
   24be2:	4b13      	ldr	r3, [pc, #76]	@ (24c30 <_start+0xaec>)
   24be4:	446b      	add	r3, sp
   24be6:	930c      	str	r3, [sp, #48]	@ 0x30
   24be8:	c864      	ldmia	r0!, {r2, r5, r6}
   24bea:	c364      	stmia	r3!, {r2, r5, r6}
   24bec:	c864      	ldmia	r0!, {r2, r5, r6}
   24bee:	c364      	stmia	r3!, {r2, r5, r6}
   24bf0:	c864      	ldmia	r0!, {r2, r5, r6}
   24bf2:	c364      	stmia	r3!, {r2, r5, r6}
   24bf4:	8802      	ldrh	r2, [r0, #0]
   24bf6:	801a      	strh	r2, [r3, #0]
   24bf8:	7880      	ldrb	r0, [r0, #2]
   24bfa:	7098      	strb	r0, [r3, #2]
   24bfc:	0e08      	lsrs	r0, r1, #24
   24bfe:	71a0      	strb	r0, [r4, #6]
   24c00:	0c08      	lsrs	r0, r1, #16
   24c02:	7160      	strb	r0, [r4, #5]
   24c04:	0a08      	lsrs	r0, r1, #8
   24c06:	7120      	strb	r0, [r4, #4]
   24c08:	70e1      	strb	r1, [r4, #3]
   24c0a:	1de0      	adds	r0, r4, #7
   24c0c:	2227      	movs	r2, #39	@ 0x27
   24c0e:	990c      	ldr	r1, [sp, #48]	@ 0x30
   24c10:	f002 f9fb 	bl	2700a <__aeabi_memcpy>
   24c14:	4d05      	ldr	r5, [pc, #20]	@ (24c2c <_start+0xae8>)
   24c16:	446d      	add	r5, sp
   24c18:	4628      	mov	r0, r5
   24c1a:	4621      	mov	r1, r4
   24c1c:	f7fc ffaa 	bl	21b74 <_ZN18complex_no_dynamic3app17h60bb35fd9706b8c3E>
   24c20:	7828      	ldrb	r0, [r5, #0]
   24c22:	2801      	cmp	r0, #1
   24c24:	d106      	bne.n	24c34 <_start+0xaf0>
   24c26:	f001 ffe9 	bl	26bfc <_start+0x2ab8>
   24c2a:	46c0      	nop			@ (mov r8, r8)
   24c2c:	000013cc 	.word	0x000013cc
   24c30:	00001370 	.word	0x00001370
   24c34:	4818      	ldr	r0, [pc, #96]	@ (24c98 <_start+0xb54>)
   24c36:	4468      	add	r0, sp
   24c38:	78c1      	ldrb	r1, [r0, #3]
   24c3a:	acc3      	add	r4, sp, #780	@ 0x30c
   24c3c:	70a1      	strb	r1, [r4, #2]
   24c3e:	7841      	ldrb	r1, [r0, #1]
   24c40:	7882      	ldrb	r2, [r0, #2]
   24c42:	0212      	lsls	r2, r2, #8
   24c44:	1851      	adds	r1, r2, r1
   24c46:	8021      	strh	r1, [r4, #0]
   24c48:	3008      	adds	r0, #8
   24c4a:	9905      	ldr	r1, [sp, #20]
   24c4c:	6e09      	ldr	r1, [r1, #96]	@ 0x60
   24c4e:	910b      	str	r1, [sp, #44]	@ 0x2c
   24c50:	4b12      	ldr	r3, [pc, #72]	@ (24c9c <_start+0xb58>)
   24c52:	446b      	add	r3, sp
   24c54:	930c      	str	r3, [sp, #48]	@ 0x30
   24c56:	c866      	ldmia	r0!, {r1, r2, r5, r6}
   24c58:	c366      	stmia	r3!, {r1, r2, r5, r6}
   24c5a:	c866      	ldmia	r0!, {r1, r2, r5, r6}
   24c5c:	c366      	stmia	r3!, {r1, r2, r5, r6}
   24c5e:	c866      	ldmia	r0!, {r1, r2, r5, r6}
   24c60:	c366      	stmia	r3!, {r1, r2, r5, r6}
   24c62:	7800      	ldrb	r0, [r0, #0]
   24c64:	7018      	strb	r0, [r3, #0]
   24c66:	990b      	ldr	r1, [sp, #44]	@ 0x2c
   24c68:	0e08      	lsrs	r0, r1, #24
   24c6a:	71a0      	strb	r0, [r4, #6]
   24c6c:	0c08      	lsrs	r0, r1, #16
   24c6e:	7160      	strb	r0, [r4, #5]
   24c70:	0a08      	lsrs	r0, r1, #8
   24c72:	7120      	strb	r0, [r4, #4]
   24c74:	70e1      	strb	r1, [r4, #3]
   24c76:	1de0      	adds	r0, r4, #7
   24c78:	2231      	movs	r2, #49	@ 0x31
   24c7a:	990c      	ldr	r1, [sp, #48]	@ 0x30
   24c7c:	f002 f9c5 	bl	2700a <__aeabi_memcpy>
   24c80:	4d05      	ldr	r5, [pc, #20]	@ (24c98 <_start+0xb54>)
   24c82:	446d      	add	r5, sp
   24c84:	4628      	mov	r0, r5
   24c86:	4621      	mov	r1, r4
   24c88:	f7ff fa06 	bl	24098 <_ZN18complex_no_dynamic3app17hff82315662b42101E>
   24c8c:	7828      	ldrb	r0, [r5, #0]
   24c8e:	2801      	cmp	r0, #1
   24c90:	d106      	bne.n	24ca0 <_start+0xb5c>
   24c92:	f001 ffb3 	bl	26bfc <_start+0x2ab8>
   24c96:	46c0      	nop			@ (mov r8, r8)
   24c98:	000013cc 	.word	0x000013cc
   24c9c:	00001370 	.word	0x00001370
   24ca0:	4818      	ldr	r0, [pc, #96]	@ (24d04 <_start+0xbc0>)
   24ca2:	4468      	add	r0, sp
   24ca4:	78c1      	ldrb	r1, [r0, #3]
   24ca6:	acd1      	add	r4, sp, #836	@ 0x344
   24ca8:	70a1      	strb	r1, [r4, #2]
   24caa:	7841      	ldrb	r1, [r0, #1]
   24cac:	7882      	ldrb	r2, [r0, #2]
   24cae:	0212      	lsls	r2, r2, #8
   24cb0:	1851      	adds	r1, r2, r1
   24cb2:	8021      	strh	r1, [r4, #0]
   24cb4:	3008      	adds	r0, #8
   24cb6:	9905      	ldr	r1, [sp, #20]
   24cb8:	6e09      	ldr	r1, [r1, #96]	@ 0x60
   24cba:	910b      	str	r1, [sp, #44]	@ 0x2c
   24cbc:	4b12      	ldr	r3, [pc, #72]	@ (24d08 <_start+0xbc4>)
   24cbe:	446b      	add	r3, sp
   24cc0:	930c      	str	r3, [sp, #48]	@ 0x30
   24cc2:	c864      	ldmia	r0!, {r2, r5, r6}
   24cc4:	c364      	stmia	r3!, {r2, r5, r6}
   24cc6:	c866      	ldmia	r0!, {r1, r2, r5, r6}
   24cc8:	c366      	stmia	r3!, {r1, r2, r5, r6}
   24cca:	c866      	ldmia	r0!, {r1, r2, r5, r6}
   24ccc:	c366      	stmia	r3!, {r1, r2, r5, r6}
   24cce:	7800      	ldrb	r0, [r0, #0]
   24cd0:	7018      	strb	r0, [r3, #0]
   24cd2:	990b      	ldr	r1, [sp, #44]	@ 0x2c
   24cd4:	0e08      	lsrs	r0, r1, #24
   24cd6:	71a0      	strb	r0, [r4, #6]
   24cd8:	0c08      	lsrs	r0, r1, #16
   24cda:	7160      	strb	r0, [r4, #5]
   24cdc:	0a08      	lsrs	r0, r1, #8
   24cde:	7120      	strb	r0, [r4, #4]
   24ce0:	70e1      	strb	r1, [r4, #3]
   24ce2:	1de0      	adds	r0, r4, #7
   24ce4:	222d      	movs	r2, #45	@ 0x2d
   24ce6:	990c      	ldr	r1, [sp, #48]	@ 0x30
   24ce8:	f002 f98f 	bl	2700a <__aeabi_memcpy>
   24cec:	4d05      	ldr	r5, [pc, #20]	@ (24d04 <_start+0xbc0>)
   24cee:	446d      	add	r5, sp
   24cf0:	4628      	mov	r0, r5
   24cf2:	4621      	mov	r1, r4
   24cf4:	f7fc f828 	bl	20d48 <_ZN18complex_no_dynamic3app17h2f9c7af30dcd7bf7E>
   24cf8:	7828      	ldrb	r0, [r5, #0]
   24cfa:	2801      	cmp	r0, #1
   24cfc:	d106      	bne.n	24d0c <_start+0xbc8>
   24cfe:	f001 ff7d 	bl	26bfc <_start+0x2ab8>
   24d02:	46c0      	nop			@ (mov r8, r8)
   24d04:	000013cc 	.word	0x000013cc
   24d08:	00001370 	.word	0x00001370
   24d0c:	4817      	ldr	r0, [pc, #92]	@ (24d6c <_start+0xc28>)
   24d0e:	4468      	add	r0, sp
   24d10:	78c1      	ldrb	r1, [r0, #3]
   24d12:	acde      	add	r4, sp, #888	@ 0x378
   24d14:	70a1      	strb	r1, [r4, #2]
   24d16:	7841      	ldrb	r1, [r0, #1]
   24d18:	7882      	ldrb	r2, [r0, #2]
   24d1a:	0212      	lsls	r2, r2, #8
   24d1c:	1851      	adds	r1, r2, r1
   24d1e:	8021      	strh	r1, [r4, #0]
   24d20:	3008      	adds	r0, #8
   24d22:	9905      	ldr	r1, [sp, #20]
   24d24:	6e09      	ldr	r1, [r1, #96]	@ 0x60
   24d26:	910b      	str	r1, [sp, #44]	@ 0x2c
   24d28:	4b11      	ldr	r3, [pc, #68]	@ (24d70 <_start+0xc2c>)
   24d2a:	446b      	add	r3, sp
   24d2c:	930c      	str	r3, [sp, #48]	@ 0x30
   24d2e:	c866      	ldmia	r0!, {r1, r2, r5, r6}
   24d30:	c366      	stmia	r3!, {r1, r2, r5, r6}
   24d32:	8801      	ldrh	r1, [r0, #0]
   24d34:	8019      	strh	r1, [r3, #0]
   24d36:	7880      	ldrb	r0, [r0, #2]
   24d38:	7098      	strb	r0, [r3, #2]
   24d3a:	990b      	ldr	r1, [sp, #44]	@ 0x2c
   24d3c:	0e08      	lsrs	r0, r1, #24
   24d3e:	71a0      	strb	r0, [r4, #6]
   24d40:	0c08      	lsrs	r0, r1, #16
   24d42:	7160      	strb	r0, [r4, #5]
   24d44:	0a08      	lsrs	r0, r1, #8
   24d46:	7120      	strb	r0, [r4, #4]
   24d48:	70e1      	strb	r1, [r4, #3]
   24d4a:	1de0      	adds	r0, r4, #7
   24d4c:	2213      	movs	r2, #19
   24d4e:	990c      	ldr	r1, [sp, #48]	@ 0x30
   24d50:	f002 f95b 	bl	2700a <__aeabi_memcpy>
   24d54:	4d05      	ldr	r5, [pc, #20]	@ (24d6c <_start+0xc28>)
   24d56:	446d      	add	r5, sp
   24d58:	4628      	mov	r0, r5
   24d5a:	4621      	mov	r1, r4
   24d5c:	f7fb ff48 	bl	20bf0 <_ZN18complex_no_dynamic3app17h27d458842a79c424E>
   24d60:	7828      	ldrb	r0, [r5, #0]
   24d62:	2801      	cmp	r0, #1
   24d64:	d106      	bne.n	24d74 <_start+0xc30>
   24d66:	f001 ff49 	bl	26bfc <_start+0x2ab8>
   24d6a:	46c0      	nop			@ (mov r8, r8)
   24d6c:	000013cc 	.word	0x000013cc
   24d70:	00001370 	.word	0x00001370
   24d74:	4915      	ldr	r1, [pc, #84]	@ (24dcc <_start+0xc88>)
   24d76:	4469      	add	r1, sp
   24d78:	78c8      	ldrb	r0, [r1, #3]
   24d7a:	ace5      	add	r4, sp, #916	@ 0x394
   24d7c:	70a0      	strb	r0, [r4, #2]
   24d7e:	7848      	ldrb	r0, [r1, #1]
   24d80:	788a      	ldrb	r2, [r1, #2]
   24d82:	0212      	lsls	r2, r2, #8
   24d84:	1810      	adds	r0, r2, r0
   24d86:	8020      	strh	r0, [r4, #0]
   24d88:	9805      	ldr	r0, [sp, #20]
   24d8a:	6e05      	ldr	r5, [r0, #96]	@ 0x60
   24d8c:	3108      	adds	r1, #8
   24d8e:	4810      	ldr	r0, [pc, #64]	@ (24dd0 <_start+0xc8c>)
   24d90:	4468      	add	r0, sp
   24d92:	900c      	str	r0, [sp, #48]	@ 0x30
   24d94:	2649      	movs	r6, #73	@ 0x49
   24d96:	4632      	mov	r2, r6
   24d98:	f001 ffd7 	bl	26d4a <__aeabi_memcpy4>
   24d9c:	0e28      	lsrs	r0, r5, #24
   24d9e:	71a0      	strb	r0, [r4, #6]
   24da0:	0c28      	lsrs	r0, r5, #16
   24da2:	7160      	strb	r0, [r4, #5]
   24da4:	0a28      	lsrs	r0, r5, #8
   24da6:	7120      	strb	r0, [r4, #4]
   24da8:	70e5      	strb	r5, [r4, #3]
   24daa:	1de0      	adds	r0, r4, #7
   24dac:	990c      	ldr	r1, [sp, #48]	@ 0x30
   24dae:	4632      	mov	r2, r6
   24db0:	f002 f92b 	bl	2700a <__aeabi_memcpy>
   24db4:	4d05      	ldr	r5, [pc, #20]	@ (24dcc <_start+0xc88>)
   24db6:	446d      	add	r5, sp
   24db8:	4628      	mov	r0, r5
   24dba:	4621      	mov	r1, r4
   24dbc:	f7fc ff30 	bl	21c20 <_ZN18complex_no_dynamic3app17h63553874f2dd810eE>
   24dc0:	7828      	ldrb	r0, [r5, #0]
   24dc2:	2801      	cmp	r0, #1
   24dc4:	d106      	bne.n	24dd4 <_start+0xc90>
   24dc6:	f001 ff19 	bl	26bfc <_start+0x2ab8>
   24dca:	46c0      	nop			@ (mov r8, r8)
   24dcc:	000013cc 	.word	0x000013cc
   24dd0:	00001370 	.word	0x00001370
   24dd4:	4819      	ldr	r0, [pc, #100]	@ (24e3c <_start+0xcf8>)
   24dd6:	4468      	add	r0, sp
   24dd8:	78c1      	ldrb	r1, [r0, #3]
   24dda:	acf9      	add	r4, sp, #996	@ 0x3e4
   24ddc:	70a1      	strb	r1, [r4, #2]
   24dde:	7841      	ldrb	r1, [r0, #1]
   24de0:	7882      	ldrb	r2, [r0, #2]
   24de2:	0212      	lsls	r2, r2, #8
   24de4:	1851      	adds	r1, r2, r1
   24de6:	8021      	strh	r1, [r4, #0]
   24de8:	3008      	adds	r0, #8
   24dea:	9905      	ldr	r1, [sp, #20]
   24dec:	6e09      	ldr	r1, [r1, #96]	@ 0x60
   24dee:	910b      	str	r1, [sp, #44]	@ 0x2c
   24df0:	4b13      	ldr	r3, [pc, #76]	@ (24e40 <_start+0xcfc>)
   24df2:	446b      	add	r3, sp
   24df4:	930c      	str	r3, [sp, #48]	@ 0x30
   24df6:	c864      	ldmia	r0!, {r2, r5, r6}
   24df8:	c364      	stmia	r3!, {r2, r5, r6}
   24dfa:	c864      	ldmia	r0!, {r2, r5, r6}
   24dfc:	c364      	stmia	r3!, {r2, r5, r6}
   24dfe:	c864      	ldmia	r0!, {r2, r5, r6}
   24e00:	c364      	stmia	r3!, {r2, r5, r6}
   24e02:	c866      	ldmia	r0!, {r1, r2, r5, r6}
   24e04:	c366      	stmia	r3!, {r1, r2, r5, r6}
   24e06:	7800      	ldrb	r0, [r0, #0]
   24e08:	7018      	strb	r0, [r3, #0]
   24e0a:	990b      	ldr	r1, [sp, #44]	@ 0x2c
   24e0c:	0e08      	lsrs	r0, r1, #24
   24e0e:	71a0      	strb	r0, [r4, #6]
   24e10:	0c08      	lsrs	r0, r1, #16
   24e12:	7160      	strb	r0, [r4, #5]
   24e14:	0a08      	lsrs	r0, r1, #8
   24e16:	7120      	strb	r0, [r4, #4]
   24e18:	70e1      	strb	r1, [r4, #3]
   24e1a:	1de0      	adds	r0, r4, #7
   24e1c:	2235      	movs	r2, #53	@ 0x35
   24e1e:	990c      	ldr	r1, [sp, #48]	@ 0x30
   24e20:	f002 f8f3 	bl	2700a <__aeabi_memcpy>
   24e24:	4d05      	ldr	r5, [pc, #20]	@ (24e3c <_start+0xcf8>)
   24e26:	446d      	add	r5, sp
   24e28:	4628      	mov	r0, r5
   24e2a:	4621      	mov	r1, r4
   24e2c:	f7fd ffda 	bl	22de4 <_ZN18complex_no_dynamic3app17hb969a03286c184edE>
   24e30:	7828      	ldrb	r0, [r5, #0]
   24e32:	2801      	cmp	r0, #1
   24e34:	d106      	bne.n	24e44 <_start+0xd00>
   24e36:	f001 fee1 	bl	26bfc <_start+0x2ab8>
   24e3a:	46c0      	nop			@ (mov r8, r8)
   24e3c:	000013cc 	.word	0x000013cc
   24e40:	00001370 	.word	0x00001370
   24e44:	4819      	ldr	r0, [pc, #100]	@ (24eac <_start+0xd68>)
   24e46:	4468      	add	r0, sp
   24e48:	78c1      	ldrb	r1, [r0, #3]
   24e4a:	acff      	add	r4, sp, #1020	@ 0x3fc
   24e4c:	3424      	adds	r4, #36	@ 0x24
   24e4e:	70a1      	strb	r1, [r4, #2]
   24e50:	7841      	ldrb	r1, [r0, #1]
   24e52:	7882      	ldrb	r2, [r0, #2]
   24e54:	0212      	lsls	r2, r2, #8
   24e56:	1851      	adds	r1, r2, r1
   24e58:	8021      	strh	r1, [r4, #0]
   24e5a:	3008      	adds	r0, #8
   24e5c:	9905      	ldr	r1, [sp, #20]
   24e5e:	6e09      	ldr	r1, [r1, #96]	@ 0x60
   24e60:	910b      	str	r1, [sp, #44]	@ 0x2c
   24e62:	4b13      	ldr	r3, [pc, #76]	@ (24eb0 <_start+0xd6c>)
   24e64:	446b      	add	r3, sp
   24e66:	930c      	str	r3, [sp, #48]	@ 0x30
   24e68:	c864      	ldmia	r0!, {r2, r5, r6}
   24e6a:	c364      	stmia	r3!, {r2, r5, r6}
   24e6c:	c864      	ldmia	r0!, {r2, r5, r6}
   24e6e:	c364      	stmia	r3!, {r2, r5, r6}
   24e70:	c866      	ldmia	r0!, {r1, r2, r5, r6}
   24e72:	c366      	stmia	r3!, {r1, r2, r5, r6}
   24e74:	8801      	ldrh	r1, [r0, #0]
   24e76:	8019      	strh	r1, [r3, #0]
   24e78:	7880      	ldrb	r0, [r0, #2]
   24e7a:	7098      	strb	r0, [r3, #2]
   24e7c:	990b      	ldr	r1, [sp, #44]	@ 0x2c
   24e7e:	0e08      	lsrs	r0, r1, #24
   24e80:	71a0      	strb	r0, [r4, #6]
   24e82:	0c08      	lsrs	r0, r1, #16
   24e84:	7160      	strb	r0, [r4, #5]
   24e86:	0a08      	lsrs	r0, r1, #8
   24e88:	7120      	strb	r0, [r4, #4]
   24e8a:	70e1      	strb	r1, [r4, #3]
   24e8c:	1de0      	adds	r0, r4, #7
   24e8e:	222b      	movs	r2, #43	@ 0x2b
   24e90:	990c      	ldr	r1, [sp, #48]	@ 0x30
   24e92:	f002 f8ba 	bl	2700a <__aeabi_memcpy>
   24e96:	4d05      	ldr	r5, [pc, #20]	@ (24eac <_start+0xd68>)
   24e98:	446d      	add	r5, sp
   24e9a:	4628      	mov	r0, r5
   24e9c:	4621      	mov	r1, r4
   24e9e:	f7fe fa57 	bl	23350 <_ZN18complex_no_dynamic3app17hcb1bc536c839db82E>
   24ea2:	7828      	ldrb	r0, [r5, #0]
   24ea4:	2801      	cmp	r0, #1
   24ea6:	d105      	bne.n	24eb4 <_start+0xd70>
   24ea8:	f001 fea8 	bl	26bfc <_start+0x2ab8>
   24eac:	000013cc 	.word	0x000013cc
   24eb0:	00001370 	.word	0x00001370
   24eb4:	4819      	ldr	r0, [pc, #100]	@ (24f1c <_start+0xdd8>)
   24eb6:	4468      	add	r0, sp
   24eb8:	78c1      	ldrb	r1, [r0, #3]
   24eba:	acff      	add	r4, sp, #1020	@ 0x3fc
   24ebc:	3458      	adds	r4, #88	@ 0x58
   24ebe:	70a1      	strb	r1, [r4, #2]
   24ec0:	7841      	ldrb	r1, [r0, #1]
   24ec2:	7882      	ldrb	r2, [r0, #2]
   24ec4:	0212      	lsls	r2, r2, #8
   24ec6:	1851      	adds	r1, r2, r1
   24ec8:	8021      	strh	r1, [r4, #0]
   24eca:	3008      	adds	r0, #8
   24ecc:	9905      	ldr	r1, [sp, #20]
   24ece:	6e09      	ldr	r1, [r1, #96]	@ 0x60
   24ed0:	910b      	str	r1, [sp, #44]	@ 0x2c
   24ed2:	4b13      	ldr	r3, [pc, #76]	@ (24f20 <_start+0xddc>)
   24ed4:	446b      	add	r3, sp
   24ed6:	930c      	str	r3, [sp, #48]	@ 0x30
   24ed8:	c864      	ldmia	r0!, {r2, r5, r6}
   24eda:	c364      	stmia	r3!, {r2, r5, r6}
   24edc:	c864      	ldmia	r0!, {r2, r5, r6}
   24ede:	c364      	stmia	r3!, {r2, r5, r6}
   24ee0:	c866      	ldmia	r0!, {r1, r2, r5, r6}
   24ee2:	c366      	stmia	r3!, {r1, r2, r5, r6}
   24ee4:	8801      	ldrh	r1, [r0, #0]
   24ee6:	8019      	strh	r1, [r3, #0]
   24ee8:	7880      	ldrb	r0, [r0, #2]
   24eea:	7098      	strb	r0, [r3, #2]
   24eec:	990b      	ldr	r1, [sp, #44]	@ 0x2c
   24eee:	0e08      	lsrs	r0, r1, #24
   24ef0:	71a0      	strb	r0, [r4, #6]
   24ef2:	0c08      	lsrs	r0, r1, #16
   24ef4:	7160      	strb	r0, [r4, #5]
   24ef6:	0a08      	lsrs	r0, r1, #8
   24ef8:	7120      	strb	r0, [r4, #4]
   24efa:	70e1      	strb	r1, [r4, #3]
   24efc:	1de0      	adds	r0, r4, #7
   24efe:	222b      	movs	r2, #43	@ 0x2b
   24f00:	990c      	ldr	r1, [sp, #48]	@ 0x30
   24f02:	f002 f882 	bl	2700a <__aeabi_memcpy>
   24f06:	4d05      	ldr	r5, [pc, #20]	@ (24f1c <_start+0xdd8>)
   24f08:	446d      	add	r5, sp
   24f0a:	4628      	mov	r0, r5
   24f0c:	4621      	mov	r1, r4
   24f0e:	f7fd fa39 	bl	22384 <_ZN18complex_no_dynamic3app17h86fc34b036371e27E>
   24f12:	7828      	ldrb	r0, [r5, #0]
   24f14:	2801      	cmp	r0, #1
   24f16:	d105      	bne.n	24f24 <_start+0xde0>
   24f18:	f001 fe70 	bl	26bfc <_start+0x2ab8>
   24f1c:	000013cc 	.word	0x000013cc
   24f20:	00001370 	.word	0x00001370
   24f24:	4914      	ldr	r1, [pc, #80]	@ (24f78 <_start+0xe34>)
   24f26:	4469      	add	r1, sp
   24f28:	9b05      	ldr	r3, [sp, #20]
   24f2a:	6ed8      	ldr	r0, [r3, #108]	@ 0x6c
   24f2c:	7208      	strb	r0, [r1, #8]
   24f2e:	4813      	ldr	r0, [pc, #76]	@ (24f7c <_start+0xe38>)
   24f30:	4468      	add	r0, sp
   24f32:	78c2      	ldrb	r2, [r0, #3]
   24f34:	acff      	add	r4, sp, #1020	@ 0x3fc
   24f36:	348c      	adds	r4, #140	@ 0x8c
   24f38:	70a2      	strb	r2, [r4, #2]
   24f3a:	7842      	ldrb	r2, [r0, #1]
   24f3c:	7880      	ldrb	r0, [r0, #2]
   24f3e:	0200      	lsls	r0, r0, #8
   24f40:	1880      	adds	r0, r0, r2
   24f42:	8020      	strh	r0, [r4, #0]
   24f44:	6e18      	ldr	r0, [r3, #96]	@ 0x60
   24f46:	70e0      	strb	r0, [r4, #3]
   24f48:	0e02      	lsrs	r2, r0, #24
   24f4a:	71a2      	strb	r2, [r4, #6]
   24f4c:	0c02      	lsrs	r2, r0, #16
   24f4e:	7162      	strb	r2, [r4, #5]
   24f50:	0a00      	lsrs	r0, r0, #8
   24f52:	7120      	strb	r0, [r4, #4]
   24f54:	6e58      	ldr	r0, [r3, #100]	@ 0x64
   24f56:	6e9a      	ldr	r2, [r3, #104]	@ 0x68
   24f58:	c305      	stmia	r3!, {r0, r2}
   24f5a:	1de0      	adds	r0, r4, #7
   24f5c:	2209      	movs	r2, #9
   24f5e:	f002 f854 	bl	2700a <__aeabi_memcpy>
   24f62:	4d06      	ldr	r5, [pc, #24]	@ (24f7c <_start+0xe38>)
   24f64:	446d      	add	r5, sp
   24f66:	4628      	mov	r0, r5
   24f68:	4621      	mov	r1, r4
   24f6a:	f7fe fd05 	bl	23978 <_ZN18complex_no_dynamic3app17he8e36515b515e6f8E>
   24f6e:	7828      	ldrb	r0, [r5, #0]
   24f70:	2801      	cmp	r0, #1
   24f72:	d105      	bne.n	24f80 <_start+0xe3c>
   24f74:	f001 fe42 	bl	26bfc <_start+0x2ab8>
   24f78:	00001370 	.word	0x00001370
   24f7c:	000013cc 	.word	0x000013cc
   24f80:	4819      	ldr	r0, [pc, #100]	@ (24fe8 <_start+0xea4>)
   24f82:	4468      	add	r0, sp
   24f84:	78c1      	ldrb	r1, [r0, #3]
   24f86:	acff      	add	r4, sp, #1020	@ 0x3fc
   24f88:	349c      	adds	r4, #156	@ 0x9c
   24f8a:	70a1      	strb	r1, [r4, #2]
   24f8c:	7841      	ldrb	r1, [r0, #1]
   24f8e:	7882      	ldrb	r2, [r0, #2]
   24f90:	0212      	lsls	r2, r2, #8
   24f92:	1851      	adds	r1, r2, r1
   24f94:	8021      	strh	r1, [r4, #0]
   24f96:	3008      	adds	r0, #8
   24f98:	9905      	ldr	r1, [sp, #20]
   24f9a:	6e09      	ldr	r1, [r1, #96]	@ 0x60
   24f9c:	910b      	str	r1, [sp, #44]	@ 0x2c
   24f9e:	4b13      	ldr	r3, [pc, #76]	@ (24fec <_start+0xea8>)
   24fa0:	446b      	add	r3, sp
   24fa2:	930c      	str	r3, [sp, #48]	@ 0x30
   24fa4:	c864      	ldmia	r0!, {r2, r5, r6}
   24fa6:	c364      	stmia	r3!, {r2, r5, r6}
   24fa8:	c866      	ldmia	r0!, {r1, r2, r5, r6}
   24faa:	c366      	stmia	r3!, {r1, r2, r5, r6}
   24fac:	c866      	ldmia	r0!, {r1, r2, r5, r6}
   24fae:	c366      	stmia	r3!, {r1, r2, r5, r6}
   24fb0:	8801      	ldrh	r1, [r0, #0]
   24fb2:	8019      	strh	r1, [r3, #0]
   24fb4:	7880      	ldrb	r0, [r0, #2]
   24fb6:	7098      	strb	r0, [r3, #2]
   24fb8:	990b      	ldr	r1, [sp, #44]	@ 0x2c
   24fba:	0e08      	lsrs	r0, r1, #24
   24fbc:	71a0      	strb	r0, [r4, #6]
   24fbe:	0c08      	lsrs	r0, r1, #16
   24fc0:	7160      	strb	r0, [r4, #5]
   24fc2:	0a08      	lsrs	r0, r1, #8
   24fc4:	7120      	strb	r0, [r4, #4]
   24fc6:	70e1      	strb	r1, [r4, #3]
   24fc8:	1de0      	adds	r0, r4, #7
   24fca:	222f      	movs	r2, #47	@ 0x2f
   24fcc:	990c      	ldr	r1, [sp, #48]	@ 0x30
   24fce:	f002 f81c 	bl	2700a <__aeabi_memcpy>
   24fd2:	4d05      	ldr	r5, [pc, #20]	@ (24fe8 <_start+0xea4>)
   24fd4:	446d      	add	r5, sp
   24fd6:	4628      	mov	r0, r5
   24fd8:	4621      	mov	r1, r4
   24fda:	f7fb fd5b 	bl	20a94 <_ZN18complex_no_dynamic3app17h1a3eb9cc767babd5E>
   24fde:	7828      	ldrb	r0, [r5, #0]
   24fe0:	2801      	cmp	r0, #1
   24fe2:	d105      	bne.n	24ff0 <_start+0xeac>
   24fe4:	f001 fe0a 	bl	26bfc <_start+0x2ab8>
   24fe8:	000013cc 	.word	0x000013cc
   24fec:	00001370 	.word	0x00001370
   24ff0:	9803      	ldr	r0, [sp, #12]
   24ff2:	1cc0      	adds	r0, r0, #3
   24ff4:	4a16      	ldr	r2, [pc, #88]	@ (25050 <_start+0xf0c>)
   24ff6:	446a      	add	r2, sp
   24ff8:	78d3      	ldrb	r3, [r2, #3]
   24ffa:	a9ff      	add	r1, sp, #1020	@ 0x3fc
   24ffc:	31d4      	adds	r1, #212	@ 0xd4
   24ffe:	708b      	strb	r3, [r1, #2]
   25000:	7853      	ldrb	r3, [r2, #1]
   25002:	7892      	ldrb	r2, [r2, #2]
   25004:	0212      	lsls	r2, r2, #8
   25006:	18d2      	adds	r2, r2, r3
   25008:	800a      	strh	r2, [r1, #0]
   2500a:	9c05      	ldr	r4, [sp, #20]
   2500c:	3460      	adds	r4, #96	@ 0x60
   2500e:	cc1c      	ldmia	r4, {r2, r3, r4}
   25010:	0e25      	lsrs	r5, r4, #24
   25012:	72c5      	strb	r5, [r0, #11]
   25014:	0c25      	lsrs	r5, r4, #16
   25016:	7285      	strb	r5, [r0, #10]
   25018:	0a25      	lsrs	r5, r4, #8
   2501a:	7245      	strb	r5, [r0, #9]
   2501c:	7204      	strb	r4, [r0, #8]
   2501e:	0e1c      	lsrs	r4, r3, #24
   25020:	71c4      	strb	r4, [r0, #7]
   25022:	0c1c      	lsrs	r4, r3, #16
   25024:	7184      	strb	r4, [r0, #6]
   25026:	0a1c      	lsrs	r4, r3, #8
   25028:	7144      	strb	r4, [r0, #5]
   2502a:	7103      	strb	r3, [r0, #4]
   2502c:	0e13      	lsrs	r3, r2, #24
   2502e:	70c3      	strb	r3, [r0, #3]
   25030:	0c13      	lsrs	r3, r2, #16
   25032:	7083      	strb	r3, [r0, #2]
   25034:	0a13      	lsrs	r3, r2, #8
   25036:	7043      	strb	r3, [r0, #1]
   25038:	7002      	strb	r2, [r0, #0]
   2503a:	4c05      	ldr	r4, [pc, #20]	@ (25050 <_start+0xf0c>)
   2503c:	446c      	add	r4, sp
   2503e:	4620      	mov	r0, r4
   25040:	f7fe fec8 	bl	23dd4 <_ZN18complex_no_dynamic3app17hf72f2dcdfc4a0a59E>
   25044:	7820      	ldrb	r0, [r4, #0]
   25046:	2801      	cmp	r0, #1
   25048:	d104      	bne.n	25054 <_start+0xf10>
   2504a:	f001 fdd7 	bl	26bfc <_start+0x2ab8>
   2504e:	46c0      	nop			@ (mov r8, r8)
   25050:	000013cc 	.word	0x000013cc
   25054:	4813      	ldr	r0, [pc, #76]	@ (250a4 <_start+0xf60>)
   25056:	4468      	add	r0, sp
   25058:	78c1      	ldrb	r1, [r0, #3]
   2505a:	acff      	add	r4, sp, #1020	@ 0x3fc
   2505c:	34e4      	adds	r4, #228	@ 0xe4
   2505e:	70a1      	strb	r1, [r4, #2]
   25060:	7841      	ldrb	r1, [r0, #1]
   25062:	7880      	ldrb	r0, [r0, #2]
   25064:	0200      	lsls	r0, r0, #8
   25066:	1840      	adds	r0, r0, r1
   25068:	8020      	strh	r0, [r4, #0]
   2506a:	9e05      	ldr	r6, [sp, #20]
   2506c:	4633      	mov	r3, r6
   2506e:	3360      	adds	r3, #96	@ 0x60
   25070:	cb0f      	ldmia	r3, {r0, r1, r2, r3}
   25072:	70e0      	strb	r0, [r4, #3]
   25074:	0e05      	lsrs	r5, r0, #24
   25076:	71a5      	strb	r5, [r4, #6]
   25078:	0c05      	lsrs	r5, r0, #16
   2507a:	7165      	strb	r5, [r4, #5]
   2507c:	0a00      	lsrs	r0, r0, #8
   2507e:	7120      	strb	r0, [r4, #4]
   25080:	c60e      	stmia	r6!, {r1, r2, r3}
   25082:	1de0      	adds	r0, r4, #7
   25084:	4908      	ldr	r1, [pc, #32]	@ (250a8 <_start+0xf64>)
   25086:	4469      	add	r1, sp
   25088:	220c      	movs	r2, #12
   2508a:	f001 ffbe 	bl	2700a <__aeabi_memcpy>
   2508e:	4d05      	ldr	r5, [pc, #20]	@ (250a4 <_start+0xf60>)
   25090:	446d      	add	r5, sp
   25092:	4628      	mov	r0, r5
   25094:	4621      	mov	r1, r4
   25096:	f7fb fe01 	bl	20c9c <_ZN18complex_no_dynamic3app17h2c189561b0fd8ccfE>
   2509a:	7828      	ldrb	r0, [r5, #0]
   2509c:	2801      	cmp	r0, #1
   2509e:	d105      	bne.n	250ac <_start+0xf68>
   250a0:	f001 fdac 	bl	26bfc <_start+0x2ab8>
   250a4:	000013cc 	.word	0x000013cc
   250a8:	00001370 	.word	0x00001370
   250ac:	4915      	ldr	r1, [pc, #84]	@ (25104 <_start+0xfc0>)
   250ae:	4469      	add	r1, sp
   250b0:	78c8      	ldrb	r0, [r1, #3]
   250b2:	acff      	add	r4, sp, #1020	@ 0x3fc
   250b4:	34f8      	adds	r4, #248	@ 0xf8
   250b6:	70a0      	strb	r0, [r4, #2]
   250b8:	7848      	ldrb	r0, [r1, #1]
   250ba:	788a      	ldrb	r2, [r1, #2]
   250bc:	0212      	lsls	r2, r2, #8
   250be:	1810      	adds	r0, r2, r0
   250c0:	8020      	strh	r0, [r4, #0]
   250c2:	9805      	ldr	r0, [sp, #20]
   250c4:	6e05      	ldr	r5, [r0, #96]	@ 0x60
   250c6:	3108      	adds	r1, #8
   250c8:	480f      	ldr	r0, [pc, #60]	@ (25108 <_start+0xfc4>)
   250ca:	4468      	add	r0, sp
   250cc:	900c      	str	r0, [sp, #48]	@ 0x30
   250ce:	264e      	movs	r6, #78	@ 0x4e
   250d0:	4632      	mov	r2, r6
   250d2:	f001 fe3a 	bl	26d4a <__aeabi_memcpy4>
   250d6:	0e28      	lsrs	r0, r5, #24
   250d8:	71a0      	strb	r0, [r4, #6]
   250da:	0c28      	lsrs	r0, r5, #16
   250dc:	7160      	strb	r0, [r4, #5]
   250de:	0a28      	lsrs	r0, r5, #8
   250e0:	7120      	strb	r0, [r4, #4]
   250e2:	70e5      	strb	r5, [r4, #3]
   250e4:	1de0      	adds	r0, r4, #7
   250e6:	990c      	ldr	r1, [sp, #48]	@ 0x30
   250e8:	4632      	mov	r2, r6
   250ea:	f001 ff8e 	bl	2700a <__aeabi_memcpy>
   250ee:	4d05      	ldr	r5, [pc, #20]	@ (25104 <_start+0xfc0>)
   250f0:	446d      	add	r5, sp
   250f2:	4628      	mov	r0, r5
   250f4:	4621      	mov	r1, r4
   250f6:	f7fc feef 	bl	21ed8 <_ZN18complex_no_dynamic3app17h7cda3ddc87da2a7eE>
   250fa:	7828      	ldrb	r0, [r5, #0]
   250fc:	2801      	cmp	r0, #1
   250fe:	d105      	bne.n	2510c <_start+0xfc8>
   25100:	f001 fd7c 	bl	26bfc <_start+0x2ab8>
   25104:	000013cc 	.word	0x000013cc
   25108:	00001370 	.word	0x00001370
   2510c:	4819      	ldr	r0, [pc, #100]	@ (25174 <_start+0x1030>)
   2510e:	4468      	add	r0, sp
   25110:	78c1      	ldrb	r1, [r0, #3]
   25112:	4c19      	ldr	r4, [pc, #100]	@ (25178 <_start+0x1034>)
   25114:	446c      	add	r4, sp
   25116:	70a1      	strb	r1, [r4, #2]
   25118:	7841      	ldrb	r1, [r0, #1]
   2511a:	7882      	ldrb	r2, [r0, #2]
   2511c:	0212      	lsls	r2, r2, #8
   2511e:	1851      	adds	r1, r2, r1
   25120:	8021      	strh	r1, [r4, #0]
   25122:	3008      	adds	r0, #8
   25124:	9905      	ldr	r1, [sp, #20]
   25126:	6e09      	ldr	r1, [r1, #96]	@ 0x60
   25128:	910b      	str	r1, [sp, #44]	@ 0x2c
   2512a:	4b14      	ldr	r3, [pc, #80]	@ (2517c <_start+0x1038>)
   2512c:	446b      	add	r3, sp
   2512e:	930c      	str	r3, [sp, #48]	@ 0x30
   25130:	c864      	ldmia	r0!, {r2, r5, r6}
   25132:	c364      	stmia	r3!, {r2, r5, r6}
   25134:	c864      	ldmia	r0!, {r2, r5, r6}
   25136:	c364      	stmia	r3!, {r2, r5, r6}
   25138:	c866      	ldmia	r0!, {r1, r2, r5, r6}
   2513a:	c366      	stmia	r3!, {r1, r2, r5, r6}
   2513c:	8801      	ldrh	r1, [r0, #0]
   2513e:	8019      	strh	r1, [r3, #0]
   25140:	7880      	ldrb	r0, [r0, #2]
   25142:	7098      	strb	r0, [r3, #2]
   25144:	990b      	ldr	r1, [sp, #44]	@ 0x2c
   25146:	0e08      	lsrs	r0, r1, #24
   25148:	71a0      	strb	r0, [r4, #6]
   2514a:	0c08      	lsrs	r0, r1, #16
   2514c:	7160      	strb	r0, [r4, #5]
   2514e:	0a08      	lsrs	r0, r1, #8
   25150:	7120      	strb	r0, [r4, #4]
   25152:	70e1      	strb	r1, [r4, #3]
   25154:	1de0      	adds	r0, r4, #7
   25156:	222b      	movs	r2, #43	@ 0x2b
   25158:	990c      	ldr	r1, [sp, #48]	@ 0x30
   2515a:	f001 ff56 	bl	2700a <__aeabi_memcpy>
   2515e:	4d05      	ldr	r5, [pc, #20]	@ (25174 <_start+0x1030>)
   25160:	446d      	add	r5, sp
   25162:	4628      	mov	r0, r5
   25164:	4621      	mov	r1, r4
   25166:	f7fe fcd5 	bl	23b14 <_ZN18complex_no_dynamic3app17heb4de6fcaf57a816E>
   2516a:	7828      	ldrb	r0, [r5, #0]
   2516c:	2801      	cmp	r0, #1
   2516e:	d107      	bne.n	25180 <_start+0x103c>
   25170:	f001 fd44 	bl	26bfc <_start+0x2ab8>
   25174:	000013cc 	.word	0x000013cc
   25178:	0000054c 	.word	0x0000054c
   2517c:	00001370 	.word	0x00001370
   25180:	4819      	ldr	r0, [pc, #100]	@ (251e8 <_start+0x10a4>)
   25182:	4468      	add	r0, sp
   25184:	78c1      	ldrb	r1, [r0, #3]
   25186:	4c19      	ldr	r4, [pc, #100]	@ (251ec <_start+0x10a8>)
   25188:	446c      	add	r4, sp
   2518a:	70a1      	strb	r1, [r4, #2]
   2518c:	7841      	ldrb	r1, [r0, #1]
   2518e:	7882      	ldrb	r2, [r0, #2]
   25190:	0212      	lsls	r2, r2, #8
   25192:	1851      	adds	r1, r2, r1
   25194:	8021      	strh	r1, [r4, #0]
   25196:	3008      	adds	r0, #8
   25198:	9905      	ldr	r1, [sp, #20]
   2519a:	6e09      	ldr	r1, [r1, #96]	@ 0x60
   2519c:	910b      	str	r1, [sp, #44]	@ 0x2c
   2519e:	4b14      	ldr	r3, [pc, #80]	@ (251f0 <_start+0x10ac>)
   251a0:	446b      	add	r3, sp
   251a2:	930c      	str	r3, [sp, #48]	@ 0x30
   251a4:	c864      	ldmia	r0!, {r2, r5, r6}
   251a6:	c364      	stmia	r3!, {r2, r5, r6}
   251a8:	c866      	ldmia	r0!, {r1, r2, r5, r6}
   251aa:	c366      	stmia	r3!, {r1, r2, r5, r6}
   251ac:	c826      	ldmia	r0!, {r1, r2, r5}
   251ae:	c326      	stmia	r3!, {r1, r2, r5}
   251b0:	c866      	ldmia	r0!, {r1, r2, r5, r6}
   251b2:	c366      	stmia	r3!, {r1, r2, r5, r6}
   251b4:	8800      	ldrh	r0, [r0, #0]
   251b6:	8018      	strh	r0, [r3, #0]
   251b8:	990b      	ldr	r1, [sp, #44]	@ 0x2c
   251ba:	0e08      	lsrs	r0, r1, #24
   251bc:	71a0      	strb	r0, [r4, #6]
   251be:	0c08      	lsrs	r0, r1, #16
   251c0:	7160      	strb	r0, [r4, #5]
   251c2:	0a08      	lsrs	r0, r1, #8
   251c4:	7120      	strb	r0, [r4, #4]
   251c6:	70e1      	strb	r1, [r4, #3]
   251c8:	1de0      	adds	r0, r4, #7
   251ca:	223a      	movs	r2, #58	@ 0x3a
   251cc:	990c      	ldr	r1, [sp, #48]	@ 0x30
   251ce:	f001 ff1c 	bl	2700a <__aeabi_memcpy>
   251d2:	4d05      	ldr	r5, [pc, #20]	@ (251e8 <_start+0x10a4>)
   251d4:	446d      	add	r5, sp
   251d6:	4628      	mov	r0, r5
   251d8:	4621      	mov	r1, r4
   251da:	f7fb fe65 	bl	20ea8 <_ZN18complex_no_dynamic3app17h337988e0bb4108a2E>
   251de:	7828      	ldrb	r0, [r5, #0]
   251e0:	2801      	cmp	r0, #1
   251e2:	d107      	bne.n	251f4 <_start+0x10b0>
   251e4:	f001 fd0a 	bl	26bfc <_start+0x2ab8>
   251e8:	000013cc 	.word	0x000013cc
   251ec:	00000580 	.word	0x00000580
   251f0:	00001370 	.word	0x00001370
   251f4:	4817      	ldr	r0, [pc, #92]	@ (25254 <_start+0x1110>)
   251f6:	4468      	add	r0, sp
   251f8:	78c1      	ldrb	r1, [r0, #3]
   251fa:	4c17      	ldr	r4, [pc, #92]	@ (25258 <_start+0x1114>)
   251fc:	446c      	add	r4, sp
   251fe:	70a1      	strb	r1, [r4, #2]
   25200:	7841      	ldrb	r1, [r0, #1]
   25202:	7882      	ldrb	r2, [r0, #2]
   25204:	0212      	lsls	r2, r2, #8
   25206:	1851      	adds	r1, r2, r1
   25208:	8021      	strh	r1, [r4, #0]
   2520a:	3008      	adds	r0, #8
   2520c:	9905      	ldr	r1, [sp, #20]
   2520e:	6e09      	ldr	r1, [r1, #96]	@ 0x60
   25210:	4b12      	ldr	r3, [pc, #72]	@ (2525c <_start+0x1118>)
   25212:	446b      	add	r3, sp
   25214:	930c      	str	r3, [sp, #48]	@ 0x30
   25216:	c864      	ldmia	r0!, {r2, r5, r6}
   25218:	c364      	stmia	r3!, {r2, r5, r6}
   2521a:	c864      	ldmia	r0!, {r2, r5, r6}
   2521c:	c364      	stmia	r3!, {r2, r5, r6}
   2521e:	8802      	ldrh	r2, [r0, #0]
   25220:	801a      	strh	r2, [r3, #0]
   25222:	7880      	ldrb	r0, [r0, #2]
   25224:	7098      	strb	r0, [r3, #2]
   25226:	0e08      	lsrs	r0, r1, #24
   25228:	71a0      	strb	r0, [r4, #6]
   2522a:	0c08      	lsrs	r0, r1, #16
   2522c:	7160      	strb	r0, [r4, #5]
   2522e:	0a08      	lsrs	r0, r1, #8
   25230:	7120      	strb	r0, [r4, #4]
   25232:	70e1      	strb	r1, [r4, #3]
   25234:	1de0      	adds	r0, r4, #7
   25236:	221b      	movs	r2, #27
   25238:	990c      	ldr	r1, [sp, #48]	@ 0x30
   2523a:	f001 fee6 	bl	2700a <__aeabi_memcpy>
   2523e:	4d05      	ldr	r5, [pc, #20]	@ (25254 <_start+0x1110>)
   25240:	446d      	add	r5, sp
   25242:	4628      	mov	r0, r5
   25244:	4621      	mov	r1, r4
   25246:	f7fc fd9b 	bl	21d80 <_ZN18complex_no_dynamic3app17h6ef73df589dff240E>
   2524a:	7828      	ldrb	r0, [r5, #0]
   2524c:	2801      	cmp	r0, #1
   2524e:	d107      	bne.n	25260 <_start+0x111c>
   25250:	f001 fcd4 	bl	26bfc <_start+0x2ab8>
   25254:	000013cc 	.word	0x000013cc
   25258:	000005c4 	.word	0x000005c4
   2525c:	00001370 	.word	0x00001370
   25260:	4915      	ldr	r1, [pc, #84]	@ (252b8 <_start+0x1174>)
   25262:	4469      	add	r1, sp
   25264:	78c8      	ldrb	r0, [r1, #3]
   25266:	4c15      	ldr	r4, [pc, #84]	@ (252bc <_start+0x1178>)
   25268:	446c      	add	r4, sp
   2526a:	70a0      	strb	r0, [r4, #2]
   2526c:	7848      	ldrb	r0, [r1, #1]
   2526e:	788a      	ldrb	r2, [r1, #2]
   25270:	0212      	lsls	r2, r2, #8
   25272:	1810      	adds	r0, r2, r0
   25274:	8020      	strh	r0, [r4, #0]
   25276:	9805      	ldr	r0, [sp, #20]
   25278:	6e05      	ldr	r5, [r0, #96]	@ 0x60
   2527a:	3108      	adds	r1, #8
   2527c:	4810      	ldr	r0, [pc, #64]	@ (252c0 <_start+0x117c>)
   2527e:	4468      	add	r0, sp
   25280:	900c      	str	r0, [sp, #48]	@ 0x30
   25282:	264a      	movs	r6, #74	@ 0x4a
   25284:	4632      	mov	r2, r6
   25286:	f001 fd60 	bl	26d4a <__aeabi_memcpy4>
   2528a:	0e28      	lsrs	r0, r5, #24
   2528c:	71a0      	strb	r0, [r4, #6]
   2528e:	0c28      	lsrs	r0, r5, #16
   25290:	7160      	strb	r0, [r4, #5]
   25292:	0a28      	lsrs	r0, r5, #8
   25294:	7120      	strb	r0, [r4, #4]
   25296:	70e5      	strb	r5, [r4, #3]
   25298:	1de0      	adds	r0, r4, #7
   2529a:	990c      	ldr	r1, [sp, #48]	@ 0x30
   2529c:	4632      	mov	r2, r6
   2529e:	f001 feb4 	bl	2700a <__aeabi_memcpy>
   252a2:	4d05      	ldr	r5, [pc, #20]	@ (252b8 <_start+0x1174>)
   252a4:	446d      	add	r5, sp
   252a6:	4628      	mov	r0, r5
   252a8:	4621      	mov	r1, r4
   252aa:	f7fd f8c1 	bl	22430 <_ZN18complex_no_dynamic3app17h882b458572fc0cc3E>
   252ae:	7828      	ldrb	r0, [r5, #0]
   252b0:	2801      	cmp	r0, #1
   252b2:	d107      	bne.n	252c4 <_start+0x1180>
   252b4:	f001 fca2 	bl	26bfc <_start+0x2ab8>
   252b8:	000013cc 	.word	0x000013cc
   252bc:	000005e8 	.word	0x000005e8
   252c0:	00001370 	.word	0x00001370
   252c4:	4915      	ldr	r1, [pc, #84]	@ (2531c <_start+0x11d8>)
   252c6:	4469      	add	r1, sp
   252c8:	78c8      	ldrb	r0, [r1, #3]
   252ca:	4c15      	ldr	r4, [pc, #84]	@ (25320 <_start+0x11dc>)
   252cc:	446c      	add	r4, sp
   252ce:	70a0      	strb	r0, [r4, #2]
   252d0:	7848      	ldrb	r0, [r1, #1]
   252d2:	788a      	ldrb	r2, [r1, #2]
   252d4:	0212      	lsls	r2, r2, #8
   252d6:	1810      	adds	r0, r2, r0
   252d8:	8020      	strh	r0, [r4, #0]
   252da:	9805      	ldr	r0, [sp, #20]
   252dc:	6e05      	ldr	r5, [r0, #96]	@ 0x60
   252de:	3108      	adds	r1, #8
   252e0:	4810      	ldr	r0, [pc, #64]	@ (25324 <_start+0x11e0>)
   252e2:	4468      	add	r0, sp
   252e4:	900c      	str	r0, [sp, #48]	@ 0x30
   252e6:	2648      	movs	r6, #72	@ 0x48
   252e8:	4632      	mov	r2, r6
   252ea:	f001 fd2e 	bl	26d4a <__aeabi_memcpy4>
   252ee:	0e28      	lsrs	r0, r5, #24
   252f0:	71a0      	strb	r0, [r4, #6]
   252f2:	0c28      	lsrs	r0, r5, #16
   252f4:	7160      	strb	r0, [r4, #5]
   252f6:	0a28      	lsrs	r0, r5, #8
   252f8:	7120      	strb	r0, [r4, #4]
   252fa:	70e5      	strb	r5, [r4, #3]
   252fc:	1de0      	adds	r0, r4, #7
   252fe:	990c      	ldr	r1, [sp, #48]	@ 0x30
   25300:	4632      	mov	r2, r6
   25302:	f001 fe82 	bl	2700a <__aeabi_memcpy>
   25306:	4d05      	ldr	r5, [pc, #20]	@ (2531c <_start+0x11d8>)
   25308:	446d      	add	r5, sp
   2530a:	4628      	mov	r0, r5
   2530c:	4621      	mov	r1, r4
   2530e:	f7fd ff1d 	bl	2314c <_ZN18complex_no_dynamic3app17hc49012bb0d6c9191E>
   25312:	7828      	ldrb	r0, [r5, #0]
   25314:	2801      	cmp	r0, #1
   25316:	d107      	bne.n	25328 <_start+0x11e4>
   25318:	f001 fc70 	bl	26bfc <_start+0x2ab8>
   2531c:	000013cc 	.word	0x000013cc
   25320:	0000063c 	.word	0x0000063c
   25324:	00001370 	.word	0x00001370
   25328:	4818      	ldr	r0, [pc, #96]	@ (2538c <_start+0x1248>)
   2532a:	4468      	add	r0, sp
   2532c:	78c1      	ldrb	r1, [r0, #3]
   2532e:	4c18      	ldr	r4, [pc, #96]	@ (25390 <_start+0x124c>)
   25330:	446c      	add	r4, sp
   25332:	70a1      	strb	r1, [r4, #2]
   25334:	7841      	ldrb	r1, [r0, #1]
   25336:	7882      	ldrb	r2, [r0, #2]
   25338:	0212      	lsls	r2, r2, #8
   2533a:	1851      	adds	r1, r2, r1
   2533c:	8021      	strh	r1, [r4, #0]
   2533e:	3008      	adds	r0, #8
   25340:	9905      	ldr	r1, [sp, #20]
   25342:	6e09      	ldr	r1, [r1, #96]	@ 0x60
   25344:	910b      	str	r1, [sp, #44]	@ 0x2c
   25346:	4b13      	ldr	r3, [pc, #76]	@ (25394 <_start+0x1250>)
   25348:	446b      	add	r3, sp
   2534a:	930c      	str	r3, [sp, #48]	@ 0x30
   2534c:	c864      	ldmia	r0!, {r2, r5, r6}
   2534e:	c364      	stmia	r3!, {r2, r5, r6}
   25350:	c864      	ldmia	r0!, {r2, r5, r6}
   25352:	c364      	stmia	r3!, {r2, r5, r6}
   25354:	c864      	ldmia	r0!, {r2, r5, r6}
   25356:	c364      	stmia	r3!, {r2, r5, r6}
   25358:	c866      	ldmia	r0!, {r1, r2, r5, r6}
   2535a:	c366      	stmia	r3!, {r1, r2, r5, r6}
   2535c:	990b      	ldr	r1, [sp, #44]	@ 0x2c
   2535e:	0e08      	lsrs	r0, r1, #24
   25360:	71a0      	strb	r0, [r4, #6]
   25362:	0c08      	lsrs	r0, r1, #16
   25364:	7160      	strb	r0, [r4, #5]
   25366:	0a08      	lsrs	r0, r1, #8
   25368:	7120      	strb	r0, [r4, #4]
   2536a:	70e1      	strb	r1, [r4, #3]
   2536c:	1de0      	adds	r0, r4, #7
   2536e:	2234      	movs	r2, #52	@ 0x34
   25370:	990c      	ldr	r1, [sp, #48]	@ 0x30
   25372:	f001 fe4a 	bl	2700a <__aeabi_memcpy>
   25376:	4d05      	ldr	r5, [pc, #20]	@ (2538c <_start+0x1248>)
   25378:	446d      	add	r5, sp
   2537a:	4628      	mov	r0, r5
   2537c:	4621      	mov	r1, r4
   2537e:	f7fb ff9b 	bl	212b8 <_ZN18complex_no_dynamic3app17h4b4e86ce909f9995E>
   25382:	7828      	ldrb	r0, [r5, #0]
   25384:	2801      	cmp	r0, #1
   25386:	d107      	bne.n	25398 <_start+0x1254>
   25388:	f001 fc38 	bl	26bfc <_start+0x2ab8>
   2538c:	000013cc 	.word	0x000013cc
   25390:	0000068c 	.word	0x0000068c
   25394:	00001370 	.word	0x00001370
   25398:	4816      	ldr	r0, [pc, #88]	@ (253f4 <_start+0x12b0>)
   2539a:	4468      	add	r0, sp
   2539c:	78c1      	ldrb	r1, [r0, #3]
   2539e:	4c16      	ldr	r4, [pc, #88]	@ (253f8 <_start+0x12b4>)
   253a0:	446c      	add	r4, sp
   253a2:	70a1      	strb	r1, [r4, #2]
   253a4:	7841      	ldrb	r1, [r0, #1]
   253a6:	7882      	ldrb	r2, [r0, #2]
   253a8:	0212      	lsls	r2, r2, #8
   253aa:	1851      	adds	r1, r2, r1
   253ac:	8021      	strh	r1, [r4, #0]
   253ae:	3008      	adds	r0, #8
   253b0:	9905      	ldr	r1, [sp, #20]
   253b2:	6e09      	ldr	r1, [r1, #96]	@ 0x60
   253b4:	910b      	str	r1, [sp, #44]	@ 0x2c
   253b6:	4b11      	ldr	r3, [pc, #68]	@ (253fc <_start+0x12b8>)
   253b8:	446b      	add	r3, sp
   253ba:	930c      	str	r3, [sp, #48]	@ 0x30
   253bc:	c866      	ldmia	r0!, {r1, r2, r5, r6}
   253be:	c366      	stmia	r3!, {r1, r2, r5, r6}
   253c0:	c866      	ldmia	r0!, {r1, r2, r5, r6}
   253c2:	c366      	stmia	r3!, {r1, r2, r5, r6}
   253c4:	990b      	ldr	r1, [sp, #44]	@ 0x2c
   253c6:	0e08      	lsrs	r0, r1, #24
   253c8:	71a0      	strb	r0, [r4, #6]
   253ca:	0c08      	lsrs	r0, r1, #16
   253cc:	7160      	strb	r0, [r4, #5]
   253ce:	0a08      	lsrs	r0, r1, #8
   253d0:	7120      	strb	r0, [r4, #4]
   253d2:	70e1      	strb	r1, [r4, #3]
   253d4:	1de0      	adds	r0, r4, #7
   253d6:	2220      	movs	r2, #32
   253d8:	990c      	ldr	r1, [sp, #48]	@ 0x30
   253da:	f001 fe16 	bl	2700a <__aeabi_memcpy>
   253de:	4d05      	ldr	r5, [pc, #20]	@ (253f4 <_start+0x12b0>)
   253e0:	446d      	add	r5, sp
   253e2:	4628      	mov	r0, r5
   253e4:	4621      	mov	r1, r4
   253e6:	f7fd f97f 	bl	226e8 <_ZN18complex_no_dynamic3app17h95368f00db1b7aabE>
   253ea:	7828      	ldrb	r0, [r5, #0]
   253ec:	2801      	cmp	r0, #1
   253ee:	d107      	bne.n	25400 <_start+0x12bc>
   253f0:	f001 fc04 	bl	26bfc <_start+0x2ab8>
   253f4:	000013cc 	.word	0x000013cc
   253f8:	000006c8 	.word	0x000006c8
   253fc:	00001370 	.word	0x00001370
   25400:	4915      	ldr	r1, [pc, #84]	@ (25458 <_start+0x1314>)
   25402:	4469      	add	r1, sp
   25404:	9d05      	ldr	r5, [sp, #20]
   25406:	6f28      	ldr	r0, [r5, #112]	@ 0x70
   25408:	7308      	strb	r0, [r1, #12]
   2540a:	4814      	ldr	r0, [pc, #80]	@ (2545c <_start+0x1318>)
   2540c:	4468      	add	r0, sp
   2540e:	78c2      	ldrb	r2, [r0, #3]
   25410:	4c13      	ldr	r4, [pc, #76]	@ (25460 <_start+0x131c>)
   25412:	446c      	add	r4, sp
   25414:	70a2      	strb	r2, [r4, #2]
   25416:	7842      	ldrb	r2, [r0, #1]
   25418:	7880      	ldrb	r0, [r0, #2]
   2541a:	0200      	lsls	r0, r0, #8
   2541c:	1880      	adds	r0, r0, r2
   2541e:	8020      	strh	r0, [r4, #0]
   25420:	6e28      	ldr	r0, [r5, #96]	@ 0x60
   25422:	70e0      	strb	r0, [r4, #3]
   25424:	0e02      	lsrs	r2, r0, #24
   25426:	71a2      	strb	r2, [r4, #6]
   25428:	0c02      	lsrs	r2, r0, #16
   2542a:	7162      	strb	r2, [r4, #5]
   2542c:	0a00      	lsrs	r0, r0, #8
   2542e:	7120      	strb	r0, [r4, #4]
   25430:	462b      	mov	r3, r5
   25432:	3364      	adds	r3, #100	@ 0x64
   25434:	cb0d      	ldmia	r3, {r0, r2, r3}
   25436:	c50d      	stmia	r5!, {r0, r2, r3}
   25438:	1de0      	adds	r0, r4, #7
   2543a:	220d      	movs	r2, #13
   2543c:	f001 fde5 	bl	2700a <__aeabi_memcpy>
   25440:	4d06      	ldr	r5, [pc, #24]	@ (2545c <_start+0x1318>)
   25442:	446d      	add	r5, sp
   25444:	4628      	mov	r0, r5
   25446:	4621      	mov	r1, r4
   25448:	f7fc f88c 	bl	21564 <_ZN18complex_no_dynamic3app17h50e7290864403dd5E>
   2544c:	7828      	ldrb	r0, [r5, #0]
   2544e:	2801      	cmp	r0, #1
   25450:	d108      	bne.n	25464 <_start+0x1320>
   25452:	f001 fbd3 	bl	26bfc <_start+0x2ab8>
   25456:	46c0      	nop			@ (mov r8, r8)
   25458:	00001370 	.word	0x00001370
   2545c:	000013cc 	.word	0x000013cc
   25460:	000006f0 	.word	0x000006f0
   25464:	4816      	ldr	r0, [pc, #88]	@ (254c0 <_start+0x137c>)
   25466:	4468      	add	r0, sp
   25468:	78c1      	ldrb	r1, [r0, #3]
   2546a:	4c16      	ldr	r4, [pc, #88]	@ (254c4 <_start+0x1380>)
   2546c:	446c      	add	r4, sp
   2546e:	70a1      	strb	r1, [r4, #2]
   25470:	7841      	ldrb	r1, [r0, #1]
   25472:	7882      	ldrb	r2, [r0, #2]
   25474:	0212      	lsls	r2, r2, #8
   25476:	1851      	adds	r1, r2, r1
   25478:	8021      	strh	r1, [r4, #0]
   2547a:	3008      	adds	r0, #8
   2547c:	9905      	ldr	r1, [sp, #20]
   2547e:	6e09      	ldr	r1, [r1, #96]	@ 0x60
   25480:	4b11      	ldr	r3, [pc, #68]	@ (254c8 <_start+0x1384>)
   25482:	446b      	add	r3, sp
   25484:	930c      	str	r3, [sp, #48]	@ 0x30
   25486:	c864      	ldmia	r0!, {r2, r5, r6}
   25488:	c364      	stmia	r3!, {r2, r5, r6}
   2548a:	c864      	ldmia	r0!, {r2, r5, r6}
   2548c:	c364      	stmia	r3!, {r2, r5, r6}
   2548e:	c864      	ldmia	r0!, {r2, r5, r6}
   25490:	c364      	stmia	r3!, {r2, r5, r6}
   25492:	0e08      	lsrs	r0, r1, #24
   25494:	71a0      	strb	r0, [r4, #6]
   25496:	0c08      	lsrs	r0, r1, #16
   25498:	7160      	strb	r0, [r4, #5]
   2549a:	0a08      	lsrs	r0, r1, #8
   2549c:	7120      	strb	r0, [r4, #4]
   2549e:	70e1      	strb	r1, [r4, #3]
   254a0:	1de0      	adds	r0, r4, #7
   254a2:	2224      	movs	r2, #36	@ 0x24
   254a4:	990c      	ldr	r1, [sp, #48]	@ 0x30
   254a6:	f001 fdb0 	bl	2700a <__aeabi_memcpy>
   254aa:	4d05      	ldr	r5, [pc, #20]	@ (254c0 <_start+0x137c>)
   254ac:	446d      	add	r5, sp
   254ae:	4628      	mov	r0, r5
   254b0:	4621      	mov	r1, r4
   254b2:	f7fd f867 	bl	22584 <_ZN18complex_no_dynamic3app17h92060fa8add62774E>
   254b6:	7828      	ldrb	r0, [r5, #0]
   254b8:	2801      	cmp	r0, #1
   254ba:	d107      	bne.n	254cc <_start+0x1388>
   254bc:	f001 fb9e 	bl	26bfc <_start+0x2ab8>
   254c0:	000013cc 	.word	0x000013cc
   254c4:	00000704 	.word	0x00000704
   254c8:	00001370 	.word	0x00001370
   254cc:	4817      	ldr	r0, [pc, #92]	@ (2552c <_start+0x13e8>)
   254ce:	4468      	add	r0, sp
   254d0:	78c1      	ldrb	r1, [r0, #3]
   254d2:	4c17      	ldr	r4, [pc, #92]	@ (25530 <_start+0x13ec>)
   254d4:	446c      	add	r4, sp
   254d6:	70a1      	strb	r1, [r4, #2]
   254d8:	7841      	ldrb	r1, [r0, #1]
   254da:	7882      	ldrb	r2, [r0, #2]
   254dc:	0212      	lsls	r2, r2, #8
   254de:	1851      	adds	r1, r2, r1
   254e0:	8021      	strh	r1, [r4, #0]
   254e2:	3008      	adds	r0, #8
   254e4:	9905      	ldr	r1, [sp, #20]
   254e6:	6e09      	ldr	r1, [r1, #96]	@ 0x60
   254e8:	4b12      	ldr	r3, [pc, #72]	@ (25534 <_start+0x13f0>)
   254ea:	446b      	add	r3, sp
   254ec:	930c      	str	r3, [sp, #48]	@ 0x30
   254ee:	c860      	ldmia	r0!, {r5, r6}
   254f0:	c360      	stmia	r3!, {r5, r6}
   254f2:	c864      	ldmia	r0!, {r2, r5, r6}
   254f4:	c364      	stmia	r3!, {r2, r5, r6}
   254f6:	8802      	ldrh	r2, [r0, #0]
   254f8:	801a      	strh	r2, [r3, #0]
   254fa:	7880      	ldrb	r0, [r0, #2]
   254fc:	7098      	strb	r0, [r3, #2]
   254fe:	0e08      	lsrs	r0, r1, #24
   25500:	71a0      	strb	r0, [r4, #6]
   25502:	0c08      	lsrs	r0, r1, #16
   25504:	7160      	strb	r0, [r4, #5]
   25506:	0a08      	lsrs	r0, r1, #8
   25508:	7120      	strb	r0, [r4, #4]
   2550a:	70e1      	strb	r1, [r4, #3]
   2550c:	1de0      	adds	r0, r4, #7
   2550e:	2217      	movs	r2, #23
   25510:	990c      	ldr	r1, [sp, #48]	@ 0x30
   25512:	f001 fd7a 	bl	2700a <__aeabi_memcpy>
   25516:	4d05      	ldr	r5, [pc, #20]	@ (2552c <_start+0x13e8>)
   25518:	446d      	add	r5, sp
   2551a:	4628      	mov	r0, r5
   2551c:	4621      	mov	r1, r4
   2551e:	f7fb ff77 	bl	21410 <_ZN18complex_no_dynamic3app17h4dc9963e6281a3a6E>
   25522:	7828      	ldrb	r0, [r5, #0]
   25524:	2801      	cmp	r0, #1
   25526:	d107      	bne.n	25538 <_start+0x13f4>
   25528:	f001 fb68 	bl	26bfc <_start+0x2ab8>
   2552c:	000013cc 	.word	0x000013cc
   25530:	00000730 	.word	0x00000730
   25534:	00001370 	.word	0x00001370
   25538:	4915      	ldr	r1, [pc, #84]	@ (25590 <_start+0x144c>)
   2553a:	4469      	add	r1, sp
   2553c:	78c8      	ldrb	r0, [r1, #3]
   2553e:	4c15      	ldr	r4, [pc, #84]	@ (25594 <_start+0x1450>)
   25540:	446c      	add	r4, sp
   25542:	70a0      	strb	r0, [r4, #2]
   25544:	7848      	ldrb	r0, [r1, #1]
   25546:	788a      	ldrb	r2, [r1, #2]
   25548:	0212      	lsls	r2, r2, #8
   2554a:	1810      	adds	r0, r2, r0
   2554c:	8020      	strh	r0, [r4, #0]
   2554e:	9805      	ldr	r0, [sp, #20]
   25550:	6e05      	ldr	r5, [r0, #96]	@ 0x60
   25552:	3108      	adds	r1, #8
   25554:	4810      	ldr	r0, [pc, #64]	@ (25598 <_start+0x1454>)
   25556:	4468      	add	r0, sp
   25558:	900c      	str	r0, [sp, #48]	@ 0x30
   2555a:	264a      	movs	r6, #74	@ 0x4a
   2555c:	4632      	mov	r2, r6
   2555e:	f001 fbf4 	bl	26d4a <__aeabi_memcpy4>
   25562:	0e28      	lsrs	r0, r5, #24
   25564:	71a0      	strb	r0, [r4, #6]
   25566:	0c28      	lsrs	r0, r5, #16
   25568:	7160      	strb	r0, [r4, #5]
   2556a:	0a28      	lsrs	r0, r5, #8
   2556c:	7120      	strb	r0, [r4, #4]
   2556e:	70e5      	strb	r5, [r4, #3]
   25570:	1de0      	adds	r0, r4, #7
   25572:	990c      	ldr	r1, [sp, #48]	@ 0x30
   25574:	4632      	mov	r2, r6
   25576:	f001 fd48 	bl	2700a <__aeabi_memcpy>
   2557a:	4d05      	ldr	r5, [pc, #20]	@ (25590 <_start+0x144c>)
   2557c:	446d      	add	r5, sp
   2557e:	4628      	mov	r0, r5
   25580:	4621      	mov	r1, r4
   25582:	f7fa fdaf 	bl	200e4 <_ZN18complex_no_dynamic3app17h0281a11321c16b3cE>
   25586:	7828      	ldrb	r0, [r5, #0]
   25588:	2801      	cmp	r0, #1
   2558a:	d107      	bne.n	2559c <_start+0x1458>
   2558c:	f001 fb36 	bl	26bfc <_start+0x2ab8>
   25590:	000013cc 	.word	0x000013cc
   25594:	00000750 	.word	0x00000750
   25598:	00001370 	.word	0x00001370
   2559c:	9804      	ldr	r0, [sp, #16]
   2559e:	1cc0      	adds	r0, r0, #3
   255a0:	4a16      	ldr	r2, [pc, #88]	@ (255fc <_start+0x14b8>)
   255a2:	446a      	add	r2, sp
   255a4:	78d3      	ldrb	r3, [r2, #3]
   255a6:	4916      	ldr	r1, [pc, #88]	@ (25600 <_start+0x14bc>)
   255a8:	4469      	add	r1, sp
   255aa:	708b      	strb	r3, [r1, #2]
   255ac:	7853      	ldrb	r3, [r2, #1]
   255ae:	7892      	ldrb	r2, [r2, #2]
   255b0:	0212      	lsls	r2, r2, #8
   255b2:	18d2      	adds	r2, r2, r3
   255b4:	800a      	strh	r2, [r1, #0]
   255b6:	9c05      	ldr	r4, [sp, #20]
   255b8:	3460      	adds	r4, #96	@ 0x60
   255ba:	cc1c      	ldmia	r4, {r2, r3, r4}
   255bc:	0e25      	lsrs	r5, r4, #24
   255be:	72c5      	strb	r5, [r0, #11]
   255c0:	0c25      	lsrs	r5, r4, #16
   255c2:	7285      	strb	r5, [r0, #10]
   255c4:	0a25      	lsrs	r5, r4, #8
   255c6:	7245      	strb	r5, [r0, #9]
   255c8:	7204      	strb	r4, [r0, #8]
   255ca:	0e1c      	lsrs	r4, r3, #24
   255cc:	71c4      	strb	r4, [r0, #7]
   255ce:	0c1c      	lsrs	r4, r3, #16
   255d0:	7184      	strb	r4, [r0, #6]
   255d2:	0a1c      	lsrs	r4, r3, #8
   255d4:	7144      	strb	r4, [r0, #5]
   255d6:	7103      	strb	r3, [r0, #4]
   255d8:	0e13      	lsrs	r3, r2, #24
   255da:	70c3      	strb	r3, [r0, #3]
   255dc:	0c13      	lsrs	r3, r2, #16
   255de:	7083      	strb	r3, [r0, #2]
   255e0:	0a13      	lsrs	r3, r2, #8
   255e2:	7043      	strb	r3, [r0, #1]
   255e4:	7002      	strb	r2, [r0, #0]
   255e6:	4c05      	ldr	r4, [pc, #20]	@ (255fc <_start+0x14b8>)
   255e8:	446c      	add	r4, sp
   255ea:	4620      	mov	r0, r4
   255ec:	f7fd fca6 	bl	22f3c <_ZN18complex_no_dynamic3app17hbc8d1b53733e91eeE>
   255f0:	7820      	ldrb	r0, [r4, #0]
   255f2:	2801      	cmp	r0, #1
   255f4:	d106      	bne.n	25604 <_start+0x14c0>
   255f6:	f001 fb01 	bl	26bfc <_start+0x2ab8>
   255fa:	46c0      	nop			@ (mov r8, r8)
   255fc:	000013cc 	.word	0x000013cc
   25600:	000007a4 	.word	0x000007a4
   25604:	481a      	ldr	r0, [pc, #104]	@ (25670 <_start+0x152c>)
   25606:	4468      	add	r0, sp
   25608:	78c1      	ldrb	r1, [r0, #3]
   2560a:	4c1a      	ldr	r4, [pc, #104]	@ (25674 <_start+0x1530>)
   2560c:	446c      	add	r4, sp
   2560e:	70a1      	strb	r1, [r4, #2]
   25610:	7841      	ldrb	r1, [r0, #1]
   25612:	7882      	ldrb	r2, [r0, #2]
   25614:	0212      	lsls	r2, r2, #8
   25616:	1851      	adds	r1, r2, r1
   25618:	8021      	strh	r1, [r4, #0]
   2561a:	3008      	adds	r0, #8
   2561c:	9905      	ldr	r1, [sp, #20]
   2561e:	6e09      	ldr	r1, [r1, #96]	@ 0x60
   25620:	910b      	str	r1, [sp, #44]	@ 0x2c
   25622:	4b15      	ldr	r3, [pc, #84]	@ (25678 <_start+0x1534>)
   25624:	446b      	add	r3, sp
   25626:	930c      	str	r3, [sp, #48]	@ 0x30
   25628:	c864      	ldmia	r0!, {r2, r5, r6}
   2562a:	c364      	stmia	r3!, {r2, r5, r6}
   2562c:	c866      	ldmia	r0!, {r1, r2, r5, r6}
   2562e:	c366      	stmia	r3!, {r1, r2, r5, r6}
   25630:	c866      	ldmia	r0!, {r1, r2, r5, r6}
   25632:	c366      	stmia	r3!, {r1, r2, r5, r6}
   25634:	c866      	ldmia	r0!, {r1, r2, r5, r6}
   25636:	c366      	stmia	r3!, {r1, r2, r5, r6}
   25638:	8801      	ldrh	r1, [r0, #0]
   2563a:	8019      	strh	r1, [r3, #0]
   2563c:	7880      	ldrb	r0, [r0, #2]
   2563e:	7098      	strb	r0, [r3, #2]
   25640:	990b      	ldr	r1, [sp, #44]	@ 0x2c
   25642:	0e08      	lsrs	r0, r1, #24
   25644:	71a0      	strb	r0, [r4, #6]
   25646:	0c08      	lsrs	r0, r1, #16
   25648:	7160      	strb	r0, [r4, #5]
   2564a:	0a08      	lsrs	r0, r1, #8
   2564c:	7120      	strb	r0, [r4, #4]
   2564e:	70e1      	strb	r1, [r4, #3]
   25650:	1de0      	adds	r0, r4, #7
   25652:	223f      	movs	r2, #63	@ 0x3f
   25654:	990c      	ldr	r1, [sp, #48]	@ 0x30
   25656:	f001 fcd8 	bl	2700a <__aeabi_memcpy>
   2565a:	4d05      	ldr	r5, [pc, #20]	@ (25670 <_start+0x152c>)
   2565c:	446d      	add	r5, sp
   2565e:	4628      	mov	r0, r5
   25660:	4621      	mov	r1, r4
   25662:	f7fb fccb 	bl	20ffc <_ZN18complex_no_dynamic3app17h36efd118741ae1ffE>
   25666:	7828      	ldrb	r0, [r5, #0]
   25668:	2801      	cmp	r0, #1
   2566a:	d107      	bne.n	2567c <_start+0x1538>
   2566c:	f001 fac6 	bl	26bfc <_start+0x2ab8>
   25670:	000013cc 	.word	0x000013cc
   25674:	000007b4 	.word	0x000007b4
   25678:	00001370 	.word	0x00001370
   2567c:	4915      	ldr	r1, [pc, #84]	@ (256d4 <_start+0x1590>)
   2567e:	4469      	add	r1, sp
   25680:	78c8      	ldrb	r0, [r1, #3]
   25682:	4c15      	ldr	r4, [pc, #84]	@ (256d8 <_start+0x1594>)
   25684:	446c      	add	r4, sp
   25686:	70a0      	strb	r0, [r4, #2]
   25688:	7848      	ldrb	r0, [r1, #1]
   2568a:	788a      	ldrb	r2, [r1, #2]
   2568c:	0212      	lsls	r2, r2, #8
   2568e:	1810      	adds	r0, r2, r0
   25690:	8020      	strh	r0, [r4, #0]
   25692:	9805      	ldr	r0, [sp, #20]
   25694:	6e05      	ldr	r5, [r0, #96]	@ 0x60
   25696:	3108      	adds	r1, #8
   25698:	4810      	ldr	r0, [pc, #64]	@ (256dc <_start+0x1598>)
   2569a:	4468      	add	r0, sp
   2569c:	900c      	str	r0, [sp, #48]	@ 0x30
   2569e:	264f      	movs	r6, #79	@ 0x4f
   256a0:	4632      	mov	r2, r6
   256a2:	f001 fb52 	bl	26d4a <__aeabi_memcpy4>
   256a6:	0e28      	lsrs	r0, r5, #24
   256a8:	71a0      	strb	r0, [r4, #6]
   256aa:	0c28      	lsrs	r0, r5, #16
   256ac:	7160      	strb	r0, [r4, #5]
   256ae:	0a28      	lsrs	r0, r5, #8
   256b0:	7120      	strb	r0, [r4, #4]
   256b2:	70e5      	strb	r5, [r4, #3]
   256b4:	1de0      	adds	r0, r4, #7
   256b6:	990c      	ldr	r1, [sp, #48]	@ 0x30
   256b8:	4632      	mov	r2, r6
   256ba:	f001 fca6 	bl	2700a <__aeabi_memcpy>
   256be:	4d05      	ldr	r5, [pc, #20]	@ (256d4 <_start+0x1590>)
   256c0:	446d      	add	r5, sp
   256c2:	4628      	mov	r0, r5
   256c4:	4621      	mov	r1, r4
   256c6:	f7fa ffc3 	bl	20650 <_ZN18complex_no_dynamic3app17h0fd0c8aad29661c9E>
   256ca:	7828      	ldrb	r0, [r5, #0]
   256cc:	2801      	cmp	r0, #1
   256ce:	d107      	bne.n	256e0 <_start+0x159c>
   256d0:	f001 fa94 	bl	26bfc <_start+0x2ab8>
   256d4:	000013cc 	.word	0x000013cc
   256d8:	000007fc 	.word	0x000007fc
   256dc:	00001370 	.word	0x00001370
   256e0:	4915      	ldr	r1, [pc, #84]	@ (25738 <_start+0x15f4>)
   256e2:	4469      	add	r1, sp
   256e4:	78c8      	ldrb	r0, [r1, #3]
   256e6:	4c15      	ldr	r4, [pc, #84]	@ (2573c <_start+0x15f8>)
   256e8:	446c      	add	r4, sp
   256ea:	70a0      	strb	r0, [r4, #2]
   256ec:	7848      	ldrb	r0, [r1, #1]
   256ee:	788a      	ldrb	r2, [r1, #2]
   256f0:	0212      	lsls	r2, r2, #8
   256f2:	1810      	adds	r0, r2, r0
   256f4:	8020      	strh	r0, [r4, #0]
   256f6:	9805      	ldr	r0, [sp, #20]
   256f8:	6e05      	ldr	r5, [r0, #96]	@ 0x60
   256fa:	3108      	adds	r1, #8
   256fc:	4810      	ldr	r0, [pc, #64]	@ (25740 <_start+0x15fc>)
   256fe:	4468      	add	r0, sp
   25700:	900c      	str	r0, [sp, #48]	@ 0x30
   25702:	2642      	movs	r6, #66	@ 0x42
   25704:	4632      	mov	r2, r6
   25706:	f001 fb20 	bl	26d4a <__aeabi_memcpy4>
   2570a:	0e28      	lsrs	r0, r5, #24
   2570c:	71a0      	strb	r0, [r4, #6]
   2570e:	0c28      	lsrs	r0, r5, #16
   25710:	7160      	strb	r0, [r4, #5]
   25712:	0a28      	lsrs	r0, r5, #8
   25714:	7120      	strb	r0, [r4, #4]
   25716:	70e5      	strb	r5, [r4, #3]
   25718:	1de0      	adds	r0, r4, #7
   2571a:	990c      	ldr	r1, [sp, #48]	@ 0x30
   2571c:	4632      	mov	r2, r6
   2571e:	f001 fc74 	bl	2700a <__aeabi_memcpy>
   25722:	4d05      	ldr	r5, [pc, #20]	@ (25738 <_start+0x15f4>)
   25724:	446d      	add	r5, sp
   25726:	4628      	mov	r0, r5
   25728:	4621      	mov	r1, r4
   2572a:	f7fa fe3b 	bl	203a4 <_ZN18complex_no_dynamic3app17h0c9b245c19d50031E>
   2572e:	7828      	ldrb	r0, [r5, #0]
   25730:	2801      	cmp	r0, #1
   25732:	d107      	bne.n	25744 <_start+0x1600>
   25734:	f001 fa62 	bl	26bfc <_start+0x2ab8>
   25738:	000013cc 	.word	0x000013cc
   2573c:	00000854 	.word	0x00000854
   25740:	00001370 	.word	0x00001370
   25744:	4816      	ldr	r0, [pc, #88]	@ (257a0 <_start+0x165c>)
   25746:	4468      	add	r0, sp
   25748:	78c1      	ldrb	r1, [r0, #3]
   2574a:	4c16      	ldr	r4, [pc, #88]	@ (257a4 <_start+0x1660>)
   2574c:	446c      	add	r4, sp
   2574e:	70a1      	strb	r1, [r4, #2]
   25750:	7841      	ldrb	r1, [r0, #1]
   25752:	7882      	ldrb	r2, [r0, #2]
   25754:	0212      	lsls	r2, r2, #8
   25756:	1851      	adds	r1, r2, r1
   25758:	8021      	strh	r1, [r4, #0]
   2575a:	3008      	adds	r0, #8
   2575c:	9905      	ldr	r1, [sp, #20]
   2575e:	6e09      	ldr	r1, [r1, #96]	@ 0x60
   25760:	910b      	str	r1, [sp, #44]	@ 0x2c
   25762:	4b11      	ldr	r3, [pc, #68]	@ (257a8 <_start+0x1664>)
   25764:	446b      	add	r3, sp
   25766:	930c      	str	r3, [sp, #48]	@ 0x30
   25768:	c864      	ldmia	r0!, {r2, r5, r6}
   2576a:	c364      	stmia	r3!, {r2, r5, r6}
   2576c:	c866      	ldmia	r0!, {r1, r2, r5, r6}
   2576e:	c366      	stmia	r3!, {r1, r2, r5, r6}
   25770:	990b      	ldr	r1, [sp, #44]	@ 0x2c
   25772:	0e08      	lsrs	r0, r1, #24
   25774:	71a0      	strb	r0, [r4, #6]
   25776:	0c08      	lsrs	r0, r1, #16
   25778:	7160      	strb	r0, [r4, #5]
   2577a:	0a08      	lsrs	r0, r1, #8
   2577c:	7120      	strb	r0, [r4, #4]
   2577e:	70e1      	strb	r1, [r4, #3]
   25780:	1de0      	adds	r0, r4, #7
   25782:	221c      	movs	r2, #28
   25784:	990c      	ldr	r1, [sp, #48]	@ 0x30
   25786:	f001 fc40 	bl	2700a <__aeabi_memcpy>
   2578a:	4d05      	ldr	r5, [pc, #20]	@ (257a0 <_start+0x165c>)
   2578c:	446d      	add	r5, sp
   2578e:	4628      	mov	r0, r5
   25790:	4621      	mov	r1, r4
   25792:	f7fc fca3 	bl	220dc <_ZN18complex_no_dynamic3app17h8305f47db233dca6E>
   25796:	7828      	ldrb	r0, [r5, #0]
   25798:	2801      	cmp	r0, #1
   2579a:	d107      	bne.n	257ac <_start+0x1668>
   2579c:	f001 fa2e 	bl	26bfc <_start+0x2ab8>
   257a0:	000013cc 	.word	0x000013cc
   257a4:	000008a0 	.word	0x000008a0
   257a8:	00001370 	.word	0x00001370
   257ac:	4816      	ldr	r0, [pc, #88]	@ (25808 <_start+0x16c4>)
   257ae:	4468      	add	r0, sp
   257b0:	78c1      	ldrb	r1, [r0, #3]
   257b2:	4c16      	ldr	r4, [pc, #88]	@ (2580c <_start+0x16c8>)
   257b4:	446c      	add	r4, sp
   257b6:	70a1      	strb	r1, [r4, #2]
   257b8:	7841      	ldrb	r1, [r0, #1]
   257ba:	7882      	ldrb	r2, [r0, #2]
   257bc:	0212      	lsls	r2, r2, #8
   257be:	1851      	adds	r1, r2, r1
   257c0:	8021      	strh	r1, [r4, #0]
   257c2:	3008      	adds	r0, #8
   257c4:	9905      	ldr	r1, [sp, #20]
   257c6:	6e09      	ldr	r1, [r1, #96]	@ 0x60
   257c8:	4b11      	ldr	r3, [pc, #68]	@ (25810 <_start+0x16cc>)
   257ca:	446b      	add	r3, sp
   257cc:	930c      	str	r3, [sp, #48]	@ 0x30
   257ce:	c864      	ldmia	r0!, {r2, r5, r6}
   257d0:	c364      	stmia	r3!, {r2, r5, r6}
   257d2:	c864      	ldmia	r0!, {r2, r5, r6}
   257d4:	c364      	stmia	r3!, {r2, r5, r6}
   257d6:	c864      	ldmia	r0!, {r2, r5, r6}
   257d8:	c364      	stmia	r3!, {r2, r5, r6}
   257da:	0e08      	lsrs	r0, r1, #24
   257dc:	71a0      	strb	r0, [r4, #6]
   257de:	0c08      	lsrs	r0, r1, #16
   257e0:	7160      	strb	r0, [r4, #5]
   257e2:	0a08      	lsrs	r0, r1, #8
   257e4:	7120      	strb	r0, [r4, #4]
   257e6:	70e1      	strb	r1, [r4, #3]
   257e8:	1de0      	adds	r0, r4, #7
   257ea:	2224      	movs	r2, #36	@ 0x24
   257ec:	990c      	ldr	r1, [sp, #48]	@ 0x30
   257ee:	f001 fc0c 	bl	2700a <__aeabi_memcpy>
   257f2:	4d05      	ldr	r5, [pc, #20]	@ (25808 <_start+0x16c4>)
   257f4:	446d      	add	r5, sp
   257f6:	4628      	mov	r0, r5
   257f8:	4621      	mov	r1, r4
   257fa:	f7fc ffcd 	bl	22798 <_ZN18complex_no_dynamic3app17h9a3108c89cce4579E>
   257fe:	7828      	ldrb	r0, [r5, #0]
   25800:	2801      	cmp	r0, #1
   25802:	d107      	bne.n	25814 <_start+0x16d0>
   25804:	f001 f9fa 	bl	26bfc <_start+0x2ab8>
   25808:	000013cc 	.word	0x000013cc
   2580c:	000008c4 	.word	0x000008c4
   25810:	00001370 	.word	0x00001370
   25814:	4914      	ldr	r1, [pc, #80]	@ (25868 <_start+0x1724>)
   25816:	4469      	add	r1, sp
   25818:	9b05      	ldr	r3, [sp, #20]
   2581a:	6e98      	ldr	r0, [r3, #104]	@ 0x68
   2581c:	8088      	strh	r0, [r1, #4]
   2581e:	4813      	ldr	r0, [pc, #76]	@ (2586c <_start+0x1728>)
   25820:	4468      	add	r0, sp
   25822:	78c2      	ldrb	r2, [r0, #3]
   25824:	4c12      	ldr	r4, [pc, #72]	@ (25870 <_start+0x172c>)
   25826:	446c      	add	r4, sp
   25828:	70a2      	strb	r2, [r4, #2]
   2582a:	7842      	ldrb	r2, [r0, #1]
   2582c:	7880      	ldrb	r0, [r0, #2]
   2582e:	0200      	lsls	r0, r0, #8
   25830:	1880      	adds	r0, r0, r2
   25832:	8020      	strh	r0, [r4, #0]
   25834:	6e18      	ldr	r0, [r3, #96]	@ 0x60
   25836:	70e0      	strb	r0, [r4, #3]
   25838:	0e02      	lsrs	r2, r0, #24
   2583a:	71a2      	strb	r2, [r4, #6]
   2583c:	0c02      	lsrs	r2, r0, #16
   2583e:	7162      	strb	r2, [r4, #5]
   25840:	0a00      	lsrs	r0, r0, #8
   25842:	7120      	strb	r0, [r4, #4]
   25844:	6e58      	ldr	r0, [r3, #100]	@ 0x64
   25846:	6018      	str	r0, [r3, #0]
   25848:	1de0      	adds	r0, r4, #7
   2584a:	2206      	movs	r2, #6
   2584c:	f001 fbdd 	bl	2700a <__aeabi_memcpy>
   25850:	4d06      	ldr	r5, [pc, #24]	@ (2586c <_start+0x1728>)
   25852:	446d      	add	r5, sp
   25854:	4628      	mov	r0, r5
   25856:	4621      	mov	r1, r4
   25858:	f7fc fff4 	bl	22844 <_ZN18complex_no_dynamic3app17h9d41358aae4cae91E>
   2585c:	7828      	ldrb	r0, [r5, #0]
   2585e:	2801      	cmp	r0, #1
   25860:	d108      	bne.n	25874 <_start+0x1730>
   25862:	f001 f9cb 	bl	26bfc <_start+0x2ab8>
   25866:	46c0      	nop			@ (mov r8, r8)
   25868:	00001370 	.word	0x00001370
   2586c:	000013cc 	.word	0x000013cc
   25870:	000008f0 	.word	0x000008f0
   25874:	4816      	ldr	r0, [pc, #88]	@ (258d0 <_start+0x178c>)
   25876:	4468      	add	r0, sp
   25878:	78c1      	ldrb	r1, [r0, #3]
   2587a:	4c16      	ldr	r4, [pc, #88]	@ (258d4 <_start+0x1790>)
   2587c:	446c      	add	r4, sp
   2587e:	70a1      	strb	r1, [r4, #2]
   25880:	7841      	ldrb	r1, [r0, #1]
   25882:	7882      	ldrb	r2, [r0, #2]
   25884:	0212      	lsls	r2, r2, #8
   25886:	1851      	adds	r1, r2, r1
   25888:	8021      	strh	r1, [r4, #0]
   2588a:	3008      	adds	r0, #8
   2588c:	9905      	ldr	r1, [sp, #20]
   2588e:	6e09      	ldr	r1, [r1, #96]	@ 0x60
   25890:	4b11      	ldr	r3, [pc, #68]	@ (258d8 <_start+0x1794>)
   25892:	446b      	add	r3, sp
   25894:	930c      	str	r3, [sp, #48]	@ 0x30
   25896:	c864      	ldmia	r0!, {r2, r5, r6}
   25898:	c364      	stmia	r3!, {r2, r5, r6}
   2589a:	c864      	ldmia	r0!, {r2, r5, r6}
   2589c:	c364      	stmia	r3!, {r2, r5, r6}
   2589e:	8800      	ldrh	r0, [r0, #0]
   258a0:	8018      	strh	r0, [r3, #0]
   258a2:	0e08      	lsrs	r0, r1, #24
   258a4:	71a0      	strb	r0, [r4, #6]
   258a6:	0c08      	lsrs	r0, r1, #16
   258a8:	7160      	strb	r0, [r4, #5]
   258aa:	0a08      	lsrs	r0, r1, #8
   258ac:	7120      	strb	r0, [r4, #4]
   258ae:	70e1      	strb	r1, [r4, #3]
   258b0:	1de0      	adds	r0, r4, #7
   258b2:	221a      	movs	r2, #26
   258b4:	990c      	ldr	r1, [sp, #48]	@ 0x30
   258b6:	f001 fba8 	bl	2700a <__aeabi_memcpy>
   258ba:	4d05      	ldr	r5, [pc, #20]	@ (258d0 <_start+0x178c>)
   258bc:	446d      	add	r5, sp
   258be:	4628      	mov	r0, r5
   258c0:	4621      	mov	r1, r4
   258c2:	f7fc f8a9 	bl	21a18 <_ZN18complex_no_dynamic3app17h5d37ca1bb5f2df44E>
   258c6:	7828      	ldrb	r0, [r5, #0]
   258c8:	2801      	cmp	r0, #1
   258ca:	d107      	bne.n	258dc <_start+0x1798>
   258cc:	f001 f996 	bl	26bfc <_start+0x2ab8>
   258d0:	000013cc 	.word	0x000013cc
   258d4:	00000900 	.word	0x00000900
   258d8:	00001370 	.word	0x00001370
   258dc:	4915      	ldr	r1, [pc, #84]	@ (25934 <_start+0x17f0>)
   258de:	4469      	add	r1, sp
   258e0:	78c8      	ldrb	r0, [r1, #3]
   258e2:	4c15      	ldr	r4, [pc, #84]	@ (25938 <_start+0x17f4>)
   258e4:	446c      	add	r4, sp
   258e6:	70a0      	strb	r0, [r4, #2]
   258e8:	7848      	ldrb	r0, [r1, #1]
   258ea:	788a      	ldrb	r2, [r1, #2]
   258ec:	0212      	lsls	r2, r2, #8
   258ee:	1810      	adds	r0, r2, r0
   258f0:	8020      	strh	r0, [r4, #0]
   258f2:	9805      	ldr	r0, [sp, #20]
   258f4:	6e05      	ldr	r5, [r0, #96]	@ 0x60
   258f6:	3108      	adds	r1, #8
   258f8:	4810      	ldr	r0, [pc, #64]	@ (2593c <_start+0x17f8>)
   258fa:	4468      	add	r0, sp
   258fc:	900c      	str	r0, [sp, #48]	@ 0x30
   258fe:	264c      	movs	r6, #76	@ 0x4c
   25900:	4632      	mov	r2, r6
   25902:	f001 fa22 	bl	26d4a <__aeabi_memcpy4>
   25906:	0e28      	lsrs	r0, r5, #24
   25908:	71a0      	strb	r0, [r4, #6]
   2590a:	0c28      	lsrs	r0, r5, #16
   2590c:	7160      	strb	r0, [r4, #5]
   2590e:	0a28      	lsrs	r0, r5, #8
   25910:	7120      	strb	r0, [r4, #4]
   25912:	70e5      	strb	r5, [r4, #3]
   25914:	1de0      	adds	r0, r4, #7
   25916:	990c      	ldr	r1, [sp, #48]	@ 0x30
   25918:	4632      	mov	r2, r6
   2591a:	f001 fb76 	bl	2700a <__aeabi_memcpy>
   2591e:	4d05      	ldr	r5, [pc, #20]	@ (25934 <_start+0x17f0>)
   25920:	446d      	add	r5, sp
   25922:	4628      	mov	r0, r5
   25924:	4621      	mov	r1, r4
   25926:	f7fe faad 	bl	23e84 <_ZN18complex_no_dynamic3app17hfa073c3bfa040654E>
   2592a:	7828      	ldrb	r0, [r5, #0]
   2592c:	2801      	cmp	r0, #1
   2592e:	d107      	bne.n	25940 <_start+0x17fc>
   25930:	f001 f964 	bl	26bfc <_start+0x2ab8>
   25934:	000013cc 	.word	0x000013cc
   25938:	00000924 	.word	0x00000924
   2593c:	00001370 	.word	0x00001370
   25940:	4915      	ldr	r1, [pc, #84]	@ (25998 <_start+0x1854>)
   25942:	4469      	add	r1, sp
   25944:	78c8      	ldrb	r0, [r1, #3]
   25946:	4c15      	ldr	r4, [pc, #84]	@ (2599c <_start+0x1858>)
   25948:	446c      	add	r4, sp
   2594a:	70a0      	strb	r0, [r4, #2]
   2594c:	7848      	ldrb	r0, [r1, #1]
   2594e:	788a      	ldrb	r2, [r1, #2]
   25950:	0212      	lsls	r2, r2, #8
   25952:	1810      	adds	r0, r2, r0
   25954:	8020      	strh	r0, [r4, #0]
   25956:	9805      	ldr	r0, [sp, #20]
   25958:	6e05      	ldr	r5, [r0, #96]	@ 0x60
   2595a:	3108      	adds	r1, #8
   2595c:	4810      	ldr	r0, [pc, #64]	@ (259a0 <_start+0x185c>)
   2595e:	4468      	add	r0, sp
   25960:	900c      	str	r0, [sp, #48]	@ 0x30
   25962:	2646      	movs	r6, #70	@ 0x46
   25964:	4632      	mov	r2, r6
   25966:	f001 f9f0 	bl	26d4a <__aeabi_memcpy4>
   2596a:	0e28      	lsrs	r0, r5, #24
   2596c:	71a0      	strb	r0, [r4, #6]
   2596e:	0c28      	lsrs	r0, r5, #16
   25970:	7160      	strb	r0, [r4, #5]
   25972:	0a28      	lsrs	r0, r5, #8
   25974:	7120      	strb	r0, [r4, #4]
   25976:	70e5      	strb	r5, [r4, #3]
   25978:	1de0      	adds	r0, r4, #7
   2597a:	990c      	ldr	r1, [sp, #48]	@ 0x30
   2597c:	4632      	mov	r2, r6
   2597e:	f001 fb44 	bl	2700a <__aeabi_memcpy>
   25982:	4d05      	ldr	r5, [pc, #20]	@ (25998 <_start+0x1854>)
   25984:	446d      	add	r5, sp
   25986:	4628      	mov	r0, r5
   25988:	4621      	mov	r1, r4
   2598a:	f7fd fe99 	bl	236c0 <_ZN18complex_no_dynamic3app17hddbe02a13b688855E>
   2598e:	7828      	ldrb	r0, [r5, #0]
   25990:	2801      	cmp	r0, #1
   25992:	d107      	bne.n	259a4 <_start+0x1860>
   25994:	f001 f932 	bl	26bfc <_start+0x2ab8>
   25998:	000013cc 	.word	0x000013cc
   2599c:	00000978 	.word	0x00000978
   259a0:	00001370 	.word	0x00001370
   259a4:	4819      	ldr	r0, [pc, #100]	@ (25a0c <_start+0x18c8>)
   259a6:	4468      	add	r0, sp
   259a8:	78c1      	ldrb	r1, [r0, #3]
   259aa:	4c19      	ldr	r4, [pc, #100]	@ (25a10 <_start+0x18cc>)
   259ac:	446c      	add	r4, sp
   259ae:	70a1      	strb	r1, [r4, #2]
   259b0:	7841      	ldrb	r1, [r0, #1]
   259b2:	7882      	ldrb	r2, [r0, #2]
   259b4:	0212      	lsls	r2, r2, #8
   259b6:	1851      	adds	r1, r2, r1
   259b8:	8021      	strh	r1, [r4, #0]
   259ba:	3008      	adds	r0, #8
   259bc:	9905      	ldr	r1, [sp, #20]
   259be:	6e09      	ldr	r1, [r1, #96]	@ 0x60
   259c0:	910b      	str	r1, [sp, #44]	@ 0x2c
   259c2:	4b14      	ldr	r3, [pc, #80]	@ (25a14 <_start+0x18d0>)
   259c4:	446b      	add	r3, sp
   259c6:	930c      	str	r3, [sp, #48]	@ 0x30
   259c8:	c864      	ldmia	r0!, {r2, r5, r6}
   259ca:	c364      	stmia	r3!, {r2, r5, r6}
   259cc:	c864      	ldmia	r0!, {r2, r5, r6}
   259ce:	c364      	stmia	r3!, {r2, r5, r6}
   259d0:	c864      	ldmia	r0!, {r2, r5, r6}
   259d2:	c364      	stmia	r3!, {r2, r5, r6}
   259d4:	c866      	ldmia	r0!, {r1, r2, r5, r6}
   259d6:	c366      	stmia	r3!, {r1, r2, r5, r6}
   259d8:	7800      	ldrb	r0, [r0, #0]
   259da:	7018      	strb	r0, [r3, #0]
   259dc:	990b      	ldr	r1, [sp, #44]	@ 0x2c
   259de:	0e08      	lsrs	r0, r1, #24
   259e0:	71a0      	strb	r0, [r4, #6]
   259e2:	0c08      	lsrs	r0, r1, #16
   259e4:	7160      	strb	r0, [r4, #5]
   259e6:	0a08      	lsrs	r0, r1, #8
   259e8:	7120      	strb	r0, [r4, #4]
   259ea:	70e1      	strb	r1, [r4, #3]
   259ec:	1de0      	adds	r0, r4, #7
   259ee:	2235      	movs	r2, #53	@ 0x35
   259f0:	990c      	ldr	r1, [sp, #48]	@ 0x30
   259f2:	f001 fb0a 	bl	2700a <__aeabi_memcpy>
   259f6:	4d05      	ldr	r5, [pc, #20]	@ (25a0c <_start+0x18c8>)
   259f8:	446d      	add	r5, sp
   259fa:	4628      	mov	r0, r5
   259fc:	4621      	mov	r1, r4
   259fe:	f7fb fe5d 	bl	216bc <_ZN18complex_no_dynamic3app17h5302259378c56e85E>
   25a02:	7828      	ldrb	r0, [r5, #0]
   25a04:	2801      	cmp	r0, #1
   25a06:	d107      	bne.n	25a18 <_start+0x18d4>
   25a08:	f001 f8f8 	bl	26bfc <_start+0x2ab8>
   25a0c:	000013cc 	.word	0x000013cc
   25a10:	000009c8 	.word	0x000009c8
   25a14:	00001370 	.word	0x00001370
   25a18:	4818      	ldr	r0, [pc, #96]	@ (25a7c <_start+0x1938>)
   25a1a:	4468      	add	r0, sp
   25a1c:	78c1      	ldrb	r1, [r0, #3]
   25a1e:	4c18      	ldr	r4, [pc, #96]	@ (25a80 <_start+0x193c>)
   25a20:	446c      	add	r4, sp
   25a22:	70a1      	strb	r1, [r4, #2]
   25a24:	7841      	ldrb	r1, [r0, #1]
   25a26:	7882      	ldrb	r2, [r0, #2]
   25a28:	0212      	lsls	r2, r2, #8
   25a2a:	1851      	adds	r1, r2, r1
   25a2c:	8021      	strh	r1, [r4, #0]
   25a2e:	3008      	adds	r0, #8
   25a30:	9905      	ldr	r1, [sp, #20]
   25a32:	6e09      	ldr	r1, [r1, #96]	@ 0x60
   25a34:	910b      	str	r1, [sp, #44]	@ 0x2c
   25a36:	4b13      	ldr	r3, [pc, #76]	@ (25a84 <_start+0x1940>)
   25a38:	446b      	add	r3, sp
   25a3a:	930c      	str	r3, [sp, #48]	@ 0x30
   25a3c:	c866      	ldmia	r0!, {r1, r2, r5, r6}
   25a3e:	c366      	stmia	r3!, {r1, r2, r5, r6}
   25a40:	c866      	ldmia	r0!, {r1, r2, r5, r6}
   25a42:	c366      	stmia	r3!, {r1, r2, r5, r6}
   25a44:	c866      	ldmia	r0!, {r1, r2, r5, r6}
   25a46:	c366      	stmia	r3!, {r1, r2, r5, r6}
   25a48:	7800      	ldrb	r0, [r0, #0]
   25a4a:	7018      	strb	r0, [r3, #0]
   25a4c:	990b      	ldr	r1, [sp, #44]	@ 0x2c
   25a4e:	0e08      	lsrs	r0, r1, #24
   25a50:	71a0      	strb	r0, [r4, #6]
   25a52:	0c08      	lsrs	r0, r1, #16
   25a54:	7160      	strb	r0, [r4, #5]
   25a56:	0a08      	lsrs	r0, r1, #8
   25a58:	7120      	strb	r0, [r4, #4]
   25a5a:	70e1      	strb	r1, [r4, #3]
   25a5c:	1de0      	adds	r0, r4, #7
   25a5e:	2231      	movs	r2, #49	@ 0x31
   25a60:	990c      	ldr	r1, [sp, #48]	@ 0x30
   25a62:	f001 fad2 	bl	2700a <__aeabi_memcpy>
   25a66:	4d05      	ldr	r5, [pc, #20]	@ (25a7c <_start+0x1938>)
   25a68:	446d      	add	r5, sp
   25a6a:	4628      	mov	r0, r5
   25a6c:	4621      	mov	r1, r4
   25a6e:	f7fd fc19 	bl	232a4 <_ZN18complex_no_dynamic3app17hc62607674f437f62E>
   25a72:	7828      	ldrb	r0, [r5, #0]
   25a74:	2801      	cmp	r0, #1
   25a76:	d107      	bne.n	25a88 <_start+0x1944>
   25a78:	f001 f8c0 	bl	26bfc <_start+0x2ab8>
   25a7c:	000013cc 	.word	0x000013cc
   25a80:	00000a04 	.word	0x00000a04
   25a84:	00001370 	.word	0x00001370
   25a88:	4816      	ldr	r0, [pc, #88]	@ (25ae4 <_start+0x19a0>)
   25a8a:	4468      	add	r0, sp
   25a8c:	78c1      	ldrb	r1, [r0, #3]
   25a8e:	4c16      	ldr	r4, [pc, #88]	@ (25ae8 <_start+0x19a4>)
   25a90:	446c      	add	r4, sp
   25a92:	70a1      	strb	r1, [r4, #2]
   25a94:	7841      	ldrb	r1, [r0, #1]
   25a96:	7882      	ldrb	r2, [r0, #2]
   25a98:	0212      	lsls	r2, r2, #8
   25a9a:	1851      	adds	r1, r2, r1
   25a9c:	8021      	strh	r1, [r4, #0]
   25a9e:	3008      	adds	r0, #8
   25aa0:	9905      	ldr	r1, [sp, #20]
   25aa2:	6e09      	ldr	r1, [r1, #96]	@ 0x60
   25aa4:	910b      	str	r1, [sp, #44]	@ 0x2c
   25aa6:	4b11      	ldr	r3, [pc, #68]	@ (25aec <_start+0x19a8>)
   25aa8:	446b      	add	r3, sp
   25aaa:	930c      	str	r3, [sp, #48]	@ 0x30
   25aac:	c866      	ldmia	r0!, {r1, r2, r5, r6}
   25aae:	c366      	stmia	r3!, {r1, r2, r5, r6}
   25ab0:	c866      	ldmia	r0!, {r1, r2, r5, r6}
   25ab2:	c366      	stmia	r3!, {r1, r2, r5, r6}
   25ab4:	990b      	ldr	r1, [sp, #44]	@ 0x2c
   25ab6:	0e08      	lsrs	r0, r1, #24
   25ab8:	71a0      	strb	r0, [r4, #6]
   25aba:	0c08      	lsrs	r0, r1, #16
   25abc:	7160      	strb	r0, [r4, #5]
   25abe:	0a08      	lsrs	r0, r1, #8
   25ac0:	7120      	strb	r0, [r4, #4]
   25ac2:	70e1      	strb	r1, [r4, #3]
   25ac4:	1de0      	adds	r0, r4, #7
   25ac6:	2220      	movs	r2, #32
   25ac8:	990c      	ldr	r1, [sp, #48]	@ 0x30
   25aca:	f001 fa9e 	bl	2700a <__aeabi_memcpy>
   25ace:	4d05      	ldr	r5, [pc, #20]	@ (25ae4 <_start+0x19a0>)
   25ad0:	446d      	add	r5, sp
   25ad2:	4628      	mov	r0, r5
   25ad4:	4621      	mov	r1, r4
   25ad6:	f7fc ff27 	bl	22928 <_ZN18complex_no_dynamic3app17ha83bdaa4e9a5c937E>
   25ada:	7828      	ldrb	r0, [r5, #0]
   25adc:	2801      	cmp	r0, #1
   25ade:	d107      	bne.n	25af0 <_start+0x19ac>
   25ae0:	f001 f88c 	bl	26bfc <_start+0x2ab8>
   25ae4:	000013cc 	.word	0x000013cc
   25ae8:	00000a3c 	.word	0x00000a3c
   25aec:	00001370 	.word	0x00001370
   25af0:	4915      	ldr	r1, [pc, #84]	@ (25b48 <_start+0x1a04>)
   25af2:	4469      	add	r1, sp
   25af4:	78c8      	ldrb	r0, [r1, #3]
   25af6:	4c15      	ldr	r4, [pc, #84]	@ (25b4c <_start+0x1a08>)
   25af8:	446c      	add	r4, sp
   25afa:	70a0      	strb	r0, [r4, #2]
   25afc:	7848      	ldrb	r0, [r1, #1]
   25afe:	788a      	ldrb	r2, [r1, #2]
   25b00:	0212      	lsls	r2, r2, #8
   25b02:	1810      	adds	r0, r2, r0
   25b04:	8020      	strh	r0, [r4, #0]
   25b06:	9805      	ldr	r0, [sp, #20]
   25b08:	6e05      	ldr	r5, [r0, #96]	@ 0x60
   25b0a:	3108      	adds	r1, #8
   25b0c:	4810      	ldr	r0, [pc, #64]	@ (25b50 <_start+0x1a0c>)
   25b0e:	4468      	add	r0, sp
   25b10:	900c      	str	r0, [sp, #48]	@ 0x30
   25b12:	264a      	movs	r6, #74	@ 0x4a
   25b14:	4632      	mov	r2, r6
   25b16:	f001 f918 	bl	26d4a <__aeabi_memcpy4>
   25b1a:	0e28      	lsrs	r0, r5, #24
   25b1c:	71a0      	strb	r0, [r4, #6]
   25b1e:	0c28      	lsrs	r0, r5, #16
   25b20:	7160      	strb	r0, [r4, #5]
   25b22:	0a28      	lsrs	r0, r5, #8
   25b24:	7120      	strb	r0, [r4, #4]
   25b26:	70e5      	strb	r5, [r4, #3]
   25b28:	1de0      	adds	r0, r4, #7
   25b2a:	990c      	ldr	r1, [sp, #48]	@ 0x30
   25b2c:	4632      	mov	r2, r6
   25b2e:	f001 fa6c 	bl	2700a <__aeabi_memcpy>
   25b32:	4d05      	ldr	r5, [pc, #20]	@ (25b48 <_start+0x1a04>)
   25b34:	446d      	add	r5, sp
   25b36:	4628      	mov	r0, r5
   25b38:	4621      	mov	r1, r4
   25b3a:	f7fb fec1 	bl	218c0 <_ZN18complex_no_dynamic3app17h56067bfefb86ca1fE>
   25b3e:	7828      	ldrb	r0, [r5, #0]
   25b40:	2801      	cmp	r0, #1
   25b42:	d107      	bne.n	25b54 <_start+0x1a10>
   25b44:	f001 f85a 	bl	26bfc <_start+0x2ab8>
   25b48:	000013cc 	.word	0x000013cc
   25b4c:	00000a64 	.word	0x00000a64
   25b50:	00001370 	.word	0x00001370
   25b54:	4915      	ldr	r1, [pc, #84]	@ (25bac <_start+0x1a68>)
   25b56:	4469      	add	r1, sp
   25b58:	78c8      	ldrb	r0, [r1, #3]
   25b5a:	4c15      	ldr	r4, [pc, #84]	@ (25bb0 <_start+0x1a6c>)
   25b5c:	446c      	add	r4, sp
   25b5e:	70a0      	strb	r0, [r4, #2]
   25b60:	7848      	ldrb	r0, [r1, #1]
   25b62:	788a      	ldrb	r2, [r1, #2]
   25b64:	0212      	lsls	r2, r2, #8
   25b66:	1810      	adds	r0, r2, r0
   25b68:	8020      	strh	r0, [r4, #0]
   25b6a:	9805      	ldr	r0, [sp, #20]
   25b6c:	6e05      	ldr	r5, [r0, #96]	@ 0x60
   25b6e:	3108      	adds	r1, #8
   25b70:	4810      	ldr	r0, [pc, #64]	@ (25bb4 <_start+0x1a70>)
   25b72:	4468      	add	r0, sp
   25b74:	900c      	str	r0, [sp, #48]	@ 0x30
   25b76:	2648      	movs	r6, #72	@ 0x48
   25b78:	4632      	mov	r2, r6
   25b7a:	f001 f8e6 	bl	26d4a <__aeabi_memcpy4>
   25b7e:	0e28      	lsrs	r0, r5, #24
   25b80:	71a0      	strb	r0, [r4, #6]
   25b82:	0c28      	lsrs	r0, r5, #16
   25b84:	7160      	strb	r0, [r4, #5]
   25b86:	0a28      	lsrs	r0, r5, #8
   25b88:	7120      	strb	r0, [r4, #4]
   25b8a:	70e5      	strb	r5, [r4, #3]
   25b8c:	1de0      	adds	r0, r4, #7
   25b8e:	990c      	ldr	r1, [sp, #48]	@ 0x30
   25b90:	4632      	mov	r2, r6
   25b92:	f001 fa3a 	bl	2700a <__aeabi_memcpy>
   25b96:	4d05      	ldr	r5, [pc, #20]	@ (25bac <_start+0x1a68>)
   25b98:	446d      	add	r5, sp
   25b9a:	4628      	mov	r0, r5
   25b9c:	4621      	mov	r1, r4
   25b9e:	f7fc faf1 	bl	22184 <_ZN18complex_no_dynamic3app17h84b48780df2c65e1E>
   25ba2:	7828      	ldrb	r0, [r5, #0]
   25ba4:	2801      	cmp	r0, #1
   25ba6:	d107      	bne.n	25bb8 <_start+0x1a74>
   25ba8:	f001 f828 	bl	26bfc <_start+0x2ab8>
   25bac:	000013cc 	.word	0x000013cc
   25bb0:	00000ab8 	.word	0x00000ab8
   25bb4:	00001370 	.word	0x00001370
   25bb8:	4915      	ldr	r1, [pc, #84]	@ (25c10 <_start+0x1acc>)
   25bba:	4469      	add	r1, sp
   25bbc:	78c8      	ldrb	r0, [r1, #3]
   25bbe:	4c15      	ldr	r4, [pc, #84]	@ (25c14 <_start+0x1ad0>)
   25bc0:	446c      	add	r4, sp
   25bc2:	70a0      	strb	r0, [r4, #2]
   25bc4:	7848      	ldrb	r0, [r1, #1]
   25bc6:	788a      	ldrb	r2, [r1, #2]
   25bc8:	0212      	lsls	r2, r2, #8
   25bca:	1810      	adds	r0, r2, r0
   25bcc:	8020      	strh	r0, [r4, #0]
   25bce:	9805      	ldr	r0, [sp, #20]
   25bd0:	6e05      	ldr	r5, [r0, #96]	@ 0x60
   25bd2:	3108      	adds	r1, #8
   25bd4:	4810      	ldr	r0, [pc, #64]	@ (25c18 <_start+0x1ad4>)
   25bd6:	4468      	add	r0, sp
   25bd8:	900c      	str	r0, [sp, #48]	@ 0x30
   25bda:	265a      	movs	r6, #90	@ 0x5a
   25bdc:	4632      	mov	r2, r6
   25bde:	f001 f8b4 	bl	26d4a <__aeabi_memcpy4>
   25be2:	0e28      	lsrs	r0, r5, #24
   25be4:	71a0      	strb	r0, [r4, #6]
   25be6:	0c28      	lsrs	r0, r5, #16
   25be8:	7160      	strb	r0, [r4, #5]
   25bea:	0a28      	lsrs	r0, r5, #8
   25bec:	7120      	strb	r0, [r4, #4]
   25bee:	70e5      	strb	r5, [r4, #3]
   25bf0:	1de0      	adds	r0, r4, #7
   25bf2:	990c      	ldr	r1, [sp, #48]	@ 0x30
   25bf4:	4632      	mov	r2, r6
   25bf6:	f001 fa08 	bl	2700a <__aeabi_memcpy>
   25bfa:	4d05      	ldr	r5, [pc, #20]	@ (25c10 <_start+0x1acc>)
   25bfc:	446d      	add	r5, sp
   25bfe:	4628      	mov	r0, r5
   25c00:	4621      	mov	r1, r4
   25c02:	f7fd fa47 	bl	23094 <_ZN18complex_no_dynamic3app17hbedf91ccdfc41f6eE>
   25c06:	7828      	ldrb	r0, [r5, #0]
   25c08:	2801      	cmp	r0, #1
   25c0a:	d107      	bne.n	25c1c <_start+0x1ad8>
   25c0c:	f000 fff6 	bl	26bfc <_start+0x2ab8>
   25c10:	000013cc 	.word	0x000013cc
   25c14:	00000b08 	.word	0x00000b08
   25c18:	00001370 	.word	0x00001370
   25c1c:	4817      	ldr	r0, [pc, #92]	@ (25c7c <_start+0x1b38>)
   25c1e:	4468      	add	r0, sp
   25c20:	78c1      	ldrb	r1, [r0, #3]
   25c22:	4c17      	ldr	r4, [pc, #92]	@ (25c80 <_start+0x1b3c>)
   25c24:	446c      	add	r4, sp
   25c26:	70a1      	strb	r1, [r4, #2]
   25c28:	7841      	ldrb	r1, [r0, #1]
   25c2a:	7882      	ldrb	r2, [r0, #2]
   25c2c:	0212      	lsls	r2, r2, #8
   25c2e:	1851      	adds	r1, r2, r1
   25c30:	8021      	strh	r1, [r4, #0]
   25c32:	3008      	adds	r0, #8
   25c34:	9905      	ldr	r1, [sp, #20]
   25c36:	6e09      	ldr	r1, [r1, #96]	@ 0x60
   25c38:	4b12      	ldr	r3, [pc, #72]	@ (25c84 <_start+0x1b40>)
   25c3a:	446b      	add	r3, sp
   25c3c:	930c      	str	r3, [sp, #48]	@ 0x30
   25c3e:	c860      	ldmia	r0!, {r5, r6}
   25c40:	c360      	stmia	r3!, {r5, r6}
   25c42:	c864      	ldmia	r0!, {r2, r5, r6}
   25c44:	c364      	stmia	r3!, {r2, r5, r6}
   25c46:	8802      	ldrh	r2, [r0, #0]
   25c48:	801a      	strh	r2, [r3, #0]
   25c4a:	7880      	ldrb	r0, [r0, #2]
   25c4c:	7098      	strb	r0, [r3, #2]
   25c4e:	0e08      	lsrs	r0, r1, #24
   25c50:	71a0      	strb	r0, [r4, #6]
   25c52:	0c08      	lsrs	r0, r1, #16
   25c54:	7160      	strb	r0, [r4, #5]
   25c56:	0a08      	lsrs	r0, r1, #8
   25c58:	7120      	strb	r0, [r4, #4]
   25c5a:	70e1      	strb	r1, [r4, #3]
   25c5c:	1de0      	adds	r0, r4, #7
   25c5e:	2217      	movs	r2, #23
   25c60:	990c      	ldr	r1, [sp, #48]	@ 0x30
   25c62:	f001 f9d2 	bl	2700a <__aeabi_memcpy>
   25c66:	4d05      	ldr	r5, [pc, #20]	@ (25c7c <_start+0x1b38>)
   25c68:	446d      	add	r5, sp
   25c6a:	4628      	mov	r0, r5
   25c6c:	4621      	mov	r1, r4
   25c6e:	f7fc feb1 	bl	229d4 <_ZN18complex_no_dynamic3app17ha8842e87b17738a8E>
   25c72:	7828      	ldrb	r0, [r5, #0]
   25c74:	2801      	cmp	r0, #1
   25c76:	d107      	bne.n	25c88 <_start+0x1b44>
   25c78:	f000 ffc0 	bl	26bfc <_start+0x2ab8>
   25c7c:	000013cc 	.word	0x000013cc
   25c80:	00000b6c 	.word	0x00000b6c
   25c84:	00001370 	.word	0x00001370
   25c88:	4816      	ldr	r0, [pc, #88]	@ (25ce4 <_start+0x1ba0>)
   25c8a:	4468      	add	r0, sp
   25c8c:	78c1      	ldrb	r1, [r0, #3]
   25c8e:	4c16      	ldr	r4, [pc, #88]	@ (25ce8 <_start+0x1ba4>)
   25c90:	446c      	add	r4, sp
   25c92:	70a1      	strb	r1, [r4, #2]
   25c94:	7841      	ldrb	r1, [r0, #1]
   25c96:	7882      	ldrb	r2, [r0, #2]
   25c98:	0212      	lsls	r2, r2, #8
   25c9a:	1851      	adds	r1, r2, r1
   25c9c:	8021      	strh	r1, [r4, #0]
   25c9e:	3008      	adds	r0, #8
   25ca0:	9905      	ldr	r1, [sp, #20]
   25ca2:	6e09      	ldr	r1, [r1, #96]	@ 0x60
   25ca4:	4b11      	ldr	r3, [pc, #68]	@ (25cec <_start+0x1ba8>)
   25ca6:	446b      	add	r3, sp
   25ca8:	930c      	str	r3, [sp, #48]	@ 0x30
   25caa:	c864      	ldmia	r0!, {r2, r5, r6}
   25cac:	c364      	stmia	r3!, {r2, r5, r6}
   25cae:	c864      	ldmia	r0!, {r2, r5, r6}
   25cb0:	c364      	stmia	r3!, {r2, r5, r6}
   25cb2:	8800      	ldrh	r0, [r0, #0]
   25cb4:	8018      	strh	r0, [r3, #0]
   25cb6:	0e08      	lsrs	r0, r1, #24
   25cb8:	71a0      	strb	r0, [r4, #6]
   25cba:	0c08      	lsrs	r0, r1, #16
   25cbc:	7160      	strb	r0, [r4, #5]
   25cbe:	0a08      	lsrs	r0, r1, #8
   25cc0:	7120      	strb	r0, [r4, #4]
   25cc2:	70e1      	strb	r1, [r4, #3]
   25cc4:	1de0      	adds	r0, r4, #7
   25cc6:	221a      	movs	r2, #26
   25cc8:	990c      	ldr	r1, [sp, #48]	@ 0x30
   25cca:	f001 f99e 	bl	2700a <__aeabi_memcpy>
   25cce:	4d05      	ldr	r5, [pc, #20]	@ (25ce4 <_start+0x1ba0>)
   25cd0:	446d      	add	r5, sp
   25cd2:	4628      	mov	r0, r5
   25cd4:	4621      	mov	r1, r4
   25cd6:	f7fd fb91 	bl	233fc <_ZN18complex_no_dynamic3app17hd04180a90b46026fE>
   25cda:	7828      	ldrb	r0, [r5, #0]
   25cdc:	2801      	cmp	r0, #1
   25cde:	d107      	bne.n	25cf0 <_start+0x1bac>
   25ce0:	f000 ff8c 	bl	26bfc <_start+0x2ab8>
   25ce4:	000013cc 	.word	0x000013cc
   25ce8:	00000b8c 	.word	0x00000b8c
   25cec:	00001370 	.word	0x00001370
   25cf0:	4818      	ldr	r0, [pc, #96]	@ (25d54 <_start+0x1c10>)
   25cf2:	4468      	add	r0, sp
   25cf4:	78c1      	ldrb	r1, [r0, #3]
   25cf6:	4c18      	ldr	r4, [pc, #96]	@ (25d58 <_start+0x1c14>)
   25cf8:	446c      	add	r4, sp
   25cfa:	70a1      	strb	r1, [r4, #2]
   25cfc:	7841      	ldrb	r1, [r0, #1]
   25cfe:	7882      	ldrb	r2, [r0, #2]
   25d00:	0212      	lsls	r2, r2, #8
   25d02:	1851      	adds	r1, r2, r1
   25d04:	8021      	strh	r1, [r4, #0]
   25d06:	3008      	adds	r0, #8
   25d08:	9905      	ldr	r1, [sp, #20]
   25d0a:	6e09      	ldr	r1, [r1, #96]	@ 0x60
   25d0c:	910b      	str	r1, [sp, #44]	@ 0x2c
   25d0e:	4b13      	ldr	r3, [pc, #76]	@ (25d5c <_start+0x1c18>)
   25d10:	446b      	add	r3, sp
   25d12:	930c      	str	r3, [sp, #48]	@ 0x30
   25d14:	c866      	ldmia	r0!, {r1, r2, r5, r6}
   25d16:	c366      	stmia	r3!, {r1, r2, r5, r6}
   25d18:	c866      	ldmia	r0!, {r1, r2, r5, r6}
   25d1a:	c366      	stmia	r3!, {r1, r2, r5, r6}
   25d1c:	8801      	ldrh	r1, [r0, #0]
   25d1e:	8019      	strh	r1, [r3, #0]
   25d20:	7880      	ldrb	r0, [r0, #2]
   25d22:	7098      	strb	r0, [r3, #2]
   25d24:	990b      	ldr	r1, [sp, #44]	@ 0x2c
   25d26:	0e08      	lsrs	r0, r1, #24
   25d28:	71a0      	strb	r0, [r4, #6]
   25d2a:	0c08      	lsrs	r0, r1, #16
   25d2c:	7160      	strb	r0, [r4, #5]
   25d2e:	0a08      	lsrs	r0, r1, #8
   25d30:	7120      	strb	r0, [r4, #4]
   25d32:	70e1      	strb	r1, [r4, #3]
   25d34:	1de0      	adds	r0, r4, #7
   25d36:	2223      	movs	r2, #35	@ 0x23
   25d38:	990c      	ldr	r1, [sp, #48]	@ 0x30
   25d3a:	f001 f966 	bl	2700a <__aeabi_memcpy>
   25d3e:	4d05      	ldr	r5, [pc, #20]	@ (25d54 <_start+0x1c10>)
   25d40:	446d      	add	r5, sp
   25d42:	4628      	mov	r0, r5
   25d44:	4621      	mov	r1, r4
   25d46:	f7fb febd 	bl	21ac4 <_ZN18complex_no_dynamic3app17h5f4965ced58acf24E>
   25d4a:	7828      	ldrb	r0, [r5, #0]
   25d4c:	2801      	cmp	r0, #1
   25d4e:	d107      	bne.n	25d60 <_start+0x1c1c>
   25d50:	f000 ff54 	bl	26bfc <_start+0x2ab8>
   25d54:	000013cc 	.word	0x000013cc
   25d58:	00000bb0 	.word	0x00000bb0
   25d5c:	00001370 	.word	0x00001370
   25d60:	4915      	ldr	r1, [pc, #84]	@ (25db8 <_start+0x1c74>)
   25d62:	4469      	add	r1, sp
   25d64:	78c8      	ldrb	r0, [r1, #3]
   25d66:	4c15      	ldr	r4, [pc, #84]	@ (25dbc <_start+0x1c78>)
   25d68:	446c      	add	r4, sp
   25d6a:	70a0      	strb	r0, [r4, #2]
   25d6c:	7848      	ldrb	r0, [r1, #1]
   25d6e:	788a      	ldrb	r2, [r1, #2]
   25d70:	0212      	lsls	r2, r2, #8
   25d72:	1810      	adds	r0, r2, r0
   25d74:	8020      	strh	r0, [r4, #0]
   25d76:	9805      	ldr	r0, [sp, #20]
   25d78:	6e05      	ldr	r5, [r0, #96]	@ 0x60
   25d7a:	3108      	adds	r1, #8
   25d7c:	4810      	ldr	r0, [pc, #64]	@ (25dc0 <_start+0x1c7c>)
   25d7e:	4468      	add	r0, sp
   25d80:	900c      	str	r0, [sp, #48]	@ 0x30
   25d82:	2652      	movs	r6, #82	@ 0x52
   25d84:	4632      	mov	r2, r6
   25d86:	f000 ffe0 	bl	26d4a <__aeabi_memcpy4>
   25d8a:	0e28      	lsrs	r0, r5, #24
   25d8c:	71a0      	strb	r0, [r4, #6]
   25d8e:	0c28      	lsrs	r0, r5, #16
   25d90:	7160      	strb	r0, [r4, #5]
   25d92:	0a28      	lsrs	r0, r5, #8
   25d94:	7120      	strb	r0, [r4, #4]
   25d96:	70e5      	strb	r5, [r4, #3]
   25d98:	1de0      	adds	r0, r4, #7
   25d9a:	990c      	ldr	r1, [sp, #48]	@ 0x30
   25d9c:	4632      	mov	r2, r6
   25d9e:	f001 f934 	bl	2700a <__aeabi_memcpy>
   25da2:	4d05      	ldr	r5, [pc, #20]	@ (25db8 <_start+0x1c74>)
   25da4:	446d      	add	r5, sp
   25da6:	4628      	mov	r0, r5
   25da8:	4621      	mov	r1, r4
   25daa:	f7fa f9f3 	bl	20194 <_ZN18complex_no_dynamic3app17h067f02d8e1587dfeE>
   25dae:	7828      	ldrb	r0, [r5, #0]
   25db0:	2801      	cmp	r0, #1
   25db2:	d107      	bne.n	25dc4 <_start+0x1c80>
   25db4:	f000 ff22 	bl	26bfc <_start+0x2ab8>
   25db8:	000013cc 	.word	0x000013cc
   25dbc:	00000bdc 	.word	0x00000bdc
   25dc0:	00001370 	.word	0x00001370
   25dc4:	4915      	ldr	r1, [pc, #84]	@ (25e1c <_start+0x1cd8>)
   25dc6:	4469      	add	r1, sp
   25dc8:	78c8      	ldrb	r0, [r1, #3]
   25dca:	4c15      	ldr	r4, [pc, #84]	@ (25e20 <_start+0x1cdc>)
   25dcc:	446c      	add	r4, sp
   25dce:	70a0      	strb	r0, [r4, #2]
   25dd0:	7848      	ldrb	r0, [r1, #1]
   25dd2:	788a      	ldrb	r2, [r1, #2]
   25dd4:	0212      	lsls	r2, r2, #8
   25dd6:	1810      	adds	r0, r2, r0
   25dd8:	8020      	strh	r0, [r4, #0]
   25dda:	9805      	ldr	r0, [sp, #20]
   25ddc:	6e05      	ldr	r5, [r0, #96]	@ 0x60
   25dde:	3108      	adds	r1, #8
   25de0:	4810      	ldr	r0, [pc, #64]	@ (25e24 <_start+0x1ce0>)
   25de2:	4468      	add	r0, sp
   25de4:	900c      	str	r0, [sp, #48]	@ 0x30
   25de6:	2643      	movs	r6, #67	@ 0x43
   25de8:	4632      	mov	r2, r6
   25dea:	f000 ffae 	bl	26d4a <__aeabi_memcpy4>
   25dee:	0e28      	lsrs	r0, r5, #24
   25df0:	71a0      	strb	r0, [r4, #6]
   25df2:	0c28      	lsrs	r0, r5, #16
   25df4:	7160      	strb	r0, [r4, #5]
   25df6:	0a28      	lsrs	r0, r5, #8
   25df8:	7120      	strb	r0, [r4, #4]
   25dfa:	70e5      	strb	r5, [r4, #3]
   25dfc:	1de0      	adds	r0, r4, #7
   25dfe:	990c      	ldr	r1, [sp, #48]	@ 0x30
   25e00:	4632      	mov	r2, r6
   25e02:	f001 f902 	bl	2700a <__aeabi_memcpy>
   25e06:	4d05      	ldr	r5, [pc, #20]	@ (25e1c <_start+0x1cd8>)
   25e08:	446d      	add	r5, sp
   25e0a:	4628      	mov	r0, r5
   25e0c:	4621      	mov	r1, r4
   25e0e:	f7fb fcab 	bl	21768 <_ZN18complex_no_dynamic3app17h5305e2d25e8255b6E>
   25e12:	7828      	ldrb	r0, [r5, #0]
   25e14:	2801      	cmp	r0, #1
   25e16:	d107      	bne.n	25e28 <_start+0x1ce4>
   25e18:	f000 fef0 	bl	26bfc <_start+0x2ab8>
   25e1c:	000013cc 	.word	0x000013cc
   25e20:	00000c38 	.word	0x00000c38
   25e24:	00001370 	.word	0x00001370
   25e28:	4817      	ldr	r0, [pc, #92]	@ (25e88 <_start+0x1d44>)
   25e2a:	4468      	add	r0, sp
   25e2c:	78c1      	ldrb	r1, [r0, #3]
   25e2e:	4c17      	ldr	r4, [pc, #92]	@ (25e8c <_start+0x1d48>)
   25e30:	446c      	add	r4, sp
   25e32:	70a1      	strb	r1, [r4, #2]
   25e34:	7841      	ldrb	r1, [r0, #1]
   25e36:	7882      	ldrb	r2, [r0, #2]
   25e38:	0212      	lsls	r2, r2, #8
   25e3a:	1851      	adds	r1, r2, r1
   25e3c:	8021      	strh	r1, [r4, #0]
   25e3e:	3008      	adds	r0, #8
   25e40:	9905      	ldr	r1, [sp, #20]
   25e42:	6e09      	ldr	r1, [r1, #96]	@ 0x60
   25e44:	4b12      	ldr	r3, [pc, #72]	@ (25e90 <_start+0x1d4c>)
   25e46:	446b      	add	r3, sp
   25e48:	930c      	str	r3, [sp, #48]	@ 0x30
   25e4a:	c864      	ldmia	r0!, {r2, r5, r6}
   25e4c:	c364      	stmia	r3!, {r2, r5, r6}
   25e4e:	c864      	ldmia	r0!, {r2, r5, r6}
   25e50:	c364      	stmia	r3!, {r2, r5, r6}
   25e52:	c864      	ldmia	r0!, {r2, r5, r6}
   25e54:	c364      	stmia	r3!, {r2, r5, r6}
   25e56:	8800      	ldrh	r0, [r0, #0]
   25e58:	8018      	strh	r0, [r3, #0]
   25e5a:	0e08      	lsrs	r0, r1, #24
   25e5c:	71a0      	strb	r0, [r4, #6]
   25e5e:	0c08      	lsrs	r0, r1, #16
   25e60:	7160      	strb	r0, [r4, #5]
   25e62:	0a08      	lsrs	r0, r1, #8
   25e64:	7120      	strb	r0, [r4, #4]
   25e66:	70e1      	strb	r1, [r4, #3]
   25e68:	1de0      	adds	r0, r4, #7
   25e6a:	2226      	movs	r2, #38	@ 0x26
   25e6c:	990c      	ldr	r1, [sp, #48]	@ 0x30
   25e6e:	f001 f8cc 	bl	2700a <__aeabi_memcpy>
   25e72:	4d05      	ldr	r5, [pc, #20]	@ (25e88 <_start+0x1d44>)
   25e74:	446d      	add	r5, sp
   25e76:	4628      	mov	r0, r5
   25e78:	4621      	mov	r1, r4
   25e7a:	f7fc fe5b 	bl	22b34 <_ZN18complex_no_dynamic3app17haa7b214dbb224f27E>
   25e7e:	7828      	ldrb	r0, [r5, #0]
   25e80:	2801      	cmp	r0, #1
   25e82:	d107      	bne.n	25e94 <_start+0x1d50>
   25e84:	f000 feba 	bl	26bfc <_start+0x2ab8>
   25e88:	000013cc 	.word	0x000013cc
   25e8c:	00000c84 	.word	0x00000c84
   25e90:	00001370 	.word	0x00001370
   25e94:	4915      	ldr	r1, [pc, #84]	@ (25eec <_start+0x1da8>)
   25e96:	4469      	add	r1, sp
   25e98:	78c8      	ldrb	r0, [r1, #3]
   25e9a:	4c15      	ldr	r4, [pc, #84]	@ (25ef0 <_start+0x1dac>)
   25e9c:	446c      	add	r4, sp
   25e9e:	70a0      	strb	r0, [r4, #2]
   25ea0:	7848      	ldrb	r0, [r1, #1]
   25ea2:	788a      	ldrb	r2, [r1, #2]
   25ea4:	0212      	lsls	r2, r2, #8
   25ea6:	1810      	adds	r0, r2, r0
   25ea8:	8020      	strh	r0, [r4, #0]
   25eaa:	9805      	ldr	r0, [sp, #20]
   25eac:	6e05      	ldr	r5, [r0, #96]	@ 0x60
   25eae:	3108      	adds	r1, #8
   25eb0:	4810      	ldr	r0, [pc, #64]	@ (25ef4 <_start+0x1db0>)
   25eb2:	4468      	add	r0, sp
   25eb4:	900c      	str	r0, [sp, #48]	@ 0x30
   25eb6:	264c      	movs	r6, #76	@ 0x4c
   25eb8:	4632      	mov	r2, r6
   25eba:	f000 ff46 	bl	26d4a <__aeabi_memcpy4>
   25ebe:	0e28      	lsrs	r0, r5, #24
   25ec0:	71a0      	strb	r0, [r4, #6]
   25ec2:	0c28      	lsrs	r0, r5, #16
   25ec4:	7160      	strb	r0, [r4, #5]
   25ec6:	0a28      	lsrs	r0, r5, #8
   25ec8:	7120      	strb	r0, [r4, #4]
   25eca:	70e5      	strb	r5, [r4, #3]
   25ecc:	1de0      	adds	r0, r4, #7
   25ece:	990c      	ldr	r1, [sp, #48]	@ 0x30
   25ed0:	4632      	mov	r2, r6
   25ed2:	f001 f89a 	bl	2700a <__aeabi_memcpy>
   25ed6:	4d05      	ldr	r5, [pc, #20]	@ (25eec <_start+0x1da8>)
   25ed8:	446d      	add	r5, sp
   25eda:	4628      	mov	r0, r5
   25edc:	4621      	mov	r1, r4
   25ede:	f7fb fa41 	bl	21364 <_ZN18complex_no_dynamic3app17h4d8a4c3b231ec2eeE>
   25ee2:	7828      	ldrb	r0, [r5, #0]
   25ee4:	2801      	cmp	r0, #1
   25ee6:	d107      	bne.n	25ef8 <_start+0x1db4>
   25ee8:	f000 fe88 	bl	26bfc <_start+0x2ab8>
   25eec:	000013cc 	.word	0x000013cc
   25ef0:	00000cb4 	.word	0x00000cb4
   25ef4:	00001370 	.word	0x00001370
   25ef8:	4819      	ldr	r0, [pc, #100]	@ (25f60 <_start+0x1e1c>)
   25efa:	4468      	add	r0, sp
   25efc:	78c1      	ldrb	r1, [r0, #3]
   25efe:	4c19      	ldr	r4, [pc, #100]	@ (25f64 <_start+0x1e20>)
   25f00:	446c      	add	r4, sp
   25f02:	70a1      	strb	r1, [r4, #2]
   25f04:	7841      	ldrb	r1, [r0, #1]
   25f06:	7882      	ldrb	r2, [r0, #2]
   25f08:	0212      	lsls	r2, r2, #8
   25f0a:	1851      	adds	r1, r2, r1
   25f0c:	8021      	strh	r1, [r4, #0]
   25f0e:	3008      	adds	r0, #8
   25f10:	9905      	ldr	r1, [sp, #20]
   25f12:	6e09      	ldr	r1, [r1, #96]	@ 0x60
   25f14:	910b      	str	r1, [sp, #44]	@ 0x2c
   25f16:	4b14      	ldr	r3, [pc, #80]	@ (25f68 <_start+0x1e24>)
   25f18:	446b      	add	r3, sp
   25f1a:	930c      	str	r3, [sp, #48]	@ 0x30
   25f1c:	c866      	ldmia	r0!, {r1, r2, r5, r6}
   25f1e:	c366      	stmia	r3!, {r1, r2, r5, r6}
   25f20:	c866      	ldmia	r0!, {r1, r2, r5, r6}
   25f22:	c366      	stmia	r3!, {r1, r2, r5, r6}
   25f24:	c866      	ldmia	r0!, {r1, r2, r5, r6}
   25f26:	c366      	stmia	r3!, {r1, r2, r5, r6}
   25f28:	8801      	ldrh	r1, [r0, #0]
   25f2a:	8019      	strh	r1, [r3, #0]
   25f2c:	7880      	ldrb	r0, [r0, #2]
   25f2e:	7098      	strb	r0, [r3, #2]
   25f30:	990b      	ldr	r1, [sp, #44]	@ 0x2c
   25f32:	0e08      	lsrs	r0, r1, #24
   25f34:	71a0      	strb	r0, [r4, #6]
   25f36:	0c08      	lsrs	r0, r1, #16
   25f38:	7160      	strb	r0, [r4, #5]
   25f3a:	0a08      	lsrs	r0, r1, #8
   25f3c:	7120      	strb	r0, [r4, #4]
   25f3e:	70e1      	strb	r1, [r4, #3]
   25f40:	1de0      	adds	r0, r4, #7
   25f42:	2233      	movs	r2, #51	@ 0x33
   25f44:	990c      	ldr	r1, [sp, #48]	@ 0x30
   25f46:	f001 f860 	bl	2700a <__aeabi_memcpy>
   25f4a:	4d05      	ldr	r5, [pc, #20]	@ (25f60 <_start+0x1e1c>)
   25f4c:	446d      	add	r5, sp
   25f4e:	4628      	mov	r0, r5
   25f50:	4621      	mov	r1, r4
   25f52:	f7fc f817 	bl	21f84 <_ZN18complex_no_dynamic3app17h7d37c6f97bf6bcc9E>
   25f56:	7828      	ldrb	r0, [r5, #0]
   25f58:	2801      	cmp	r0, #1
   25f5a:	d107      	bne.n	25f6c <_start+0x1e28>
   25f5c:	f000 fe4e 	bl	26bfc <_start+0x2ab8>
   25f60:	000013cc 	.word	0x000013cc
   25f64:	00000d08 	.word	0x00000d08
   25f68:	00001370 	.word	0x00001370
   25f6c:	4915      	ldr	r1, [pc, #84]	@ (25fc4 <_start+0x1e80>)
   25f6e:	4469      	add	r1, sp
   25f70:	78c8      	ldrb	r0, [r1, #3]
   25f72:	4c15      	ldr	r4, [pc, #84]	@ (25fc8 <_start+0x1e84>)
   25f74:	446c      	add	r4, sp
   25f76:	70a0      	strb	r0, [r4, #2]
   25f78:	7848      	ldrb	r0, [r1, #1]
   25f7a:	788a      	ldrb	r2, [r1, #2]
   25f7c:	0212      	lsls	r2, r2, #8
   25f7e:	1810      	adds	r0, r2, r0
   25f80:	8020      	strh	r0, [r4, #0]
   25f82:	9805      	ldr	r0, [sp, #20]
   25f84:	6e05      	ldr	r5, [r0, #96]	@ 0x60
   25f86:	3108      	adds	r1, #8
   25f88:	4810      	ldr	r0, [pc, #64]	@ (25fcc <_start+0x1e88>)
   25f8a:	4468      	add	r0, sp
   25f8c:	900c      	str	r0, [sp, #48]	@ 0x30
   25f8e:	2656      	movs	r6, #86	@ 0x56
   25f90:	4632      	mov	r2, r6
   25f92:	f000 feda 	bl	26d4a <__aeabi_memcpy4>
   25f96:	0e28      	lsrs	r0, r5, #24
   25f98:	71a0      	strb	r0, [r4, #6]
   25f9a:	0c28      	lsrs	r0, r5, #16
   25f9c:	7160      	strb	r0, [r4, #5]
   25f9e:	0a28      	lsrs	r0, r5, #8
   25fa0:	7120      	strb	r0, [r4, #4]
   25fa2:	70e5      	strb	r5, [r4, #3]
   25fa4:	1de0      	adds	r0, r4, #7
   25fa6:	990c      	ldr	r1, [sp, #48]	@ 0x30
   25fa8:	4632      	mov	r2, r6
   25faa:	f001 f82e 	bl	2700a <__aeabi_memcpy>
   25fae:	4d05      	ldr	r5, [pc, #20]	@ (25fc4 <_start+0x1e80>)
   25fb0:	446d      	add	r5, sp
   25fb2:	4628      	mov	r0, r5
   25fb4:	4621      	mov	r1, r4
   25fb6:	f7fc fe13 	bl	22be0 <_ZN18complex_no_dynamic3app17hab1f17957bca2439E>
   25fba:	7828      	ldrb	r0, [r5, #0]
   25fbc:	2801      	cmp	r0, #1
   25fbe:	d107      	bne.n	25fd0 <_start+0x1e8c>
   25fc0:	f000 fe1c 	bl	26bfc <_start+0x2ab8>
   25fc4:	000013cc 	.word	0x000013cc
   25fc8:	00000d44 	.word	0x00000d44
   25fcc:	00001370 	.word	0x00001370
   25fd0:	4819      	ldr	r0, [pc, #100]	@ (26038 <_start+0x1ef4>)
   25fd2:	4468      	add	r0, sp
   25fd4:	78c1      	ldrb	r1, [r0, #3]
   25fd6:	4c19      	ldr	r4, [pc, #100]	@ (2603c <_start+0x1ef8>)
   25fd8:	446c      	add	r4, sp
   25fda:	70a1      	strb	r1, [r4, #2]
   25fdc:	7841      	ldrb	r1, [r0, #1]
   25fde:	7882      	ldrb	r2, [r0, #2]
   25fe0:	0212      	lsls	r2, r2, #8
   25fe2:	1851      	adds	r1, r2, r1
   25fe4:	8021      	strh	r1, [r4, #0]
   25fe6:	3008      	adds	r0, #8
   25fe8:	9905      	ldr	r1, [sp, #20]
   25fea:	6e09      	ldr	r1, [r1, #96]	@ 0x60
   25fec:	910b      	str	r1, [sp, #44]	@ 0x2c
   25fee:	4b14      	ldr	r3, [pc, #80]	@ (26040 <_start+0x1efc>)
   25ff0:	446b      	add	r3, sp
   25ff2:	930c      	str	r3, [sp, #48]	@ 0x30
   25ff4:	c864      	ldmia	r0!, {r2, r5, r6}
   25ff6:	c364      	stmia	r3!, {r2, r5, r6}
   25ff8:	c866      	ldmia	r0!, {r1, r2, r5, r6}
   25ffa:	c366      	stmia	r3!, {r1, r2, r5, r6}
   25ffc:	c826      	ldmia	r0!, {r1, r2, r5}
   25ffe:	c326      	stmia	r3!, {r1, r2, r5}
   26000:	c866      	ldmia	r0!, {r1, r2, r5, r6}
   26002:	c366      	stmia	r3!, {r1, r2, r5, r6}
   26004:	7800      	ldrb	r0, [r0, #0]
   26006:	7018      	strb	r0, [r3, #0]
   26008:	990b      	ldr	r1, [sp, #44]	@ 0x2c
   2600a:	0e08      	lsrs	r0, r1, #24
   2600c:	71a0      	strb	r0, [r4, #6]
   2600e:	0c08      	lsrs	r0, r1, #16
   26010:	7160      	strb	r0, [r4, #5]
   26012:	0a08      	lsrs	r0, r1, #8
   26014:	7120      	strb	r0, [r4, #4]
   26016:	70e1      	strb	r1, [r4, #3]
   26018:	1de0      	adds	r0, r4, #7
   2601a:	2239      	movs	r2, #57	@ 0x39
   2601c:	990c      	ldr	r1, [sp, #48]	@ 0x30
   2601e:	f000 fff4 	bl	2700a <__aeabi_memcpy>
   26022:	4d05      	ldr	r5, [pc, #20]	@ (26038 <_start+0x1ef4>)
   26024:	446d      	add	r5, sp
   26026:	4628      	mov	r0, r5
   26028:	4621      	mov	r1, r4
   2602a:	f7fc ff31 	bl	22e90 <_ZN18complex_no_dynamic3app17hb9aa78dfe115763dE>
   2602e:	7828      	ldrb	r0, [r5, #0]
   26030:	2801      	cmp	r0, #1
   26032:	d107      	bne.n	26044 <_start+0x1f00>
   26034:	f000 fde2 	bl	26bfc <_start+0x2ab8>
   26038:	000013cc 	.word	0x000013cc
   2603c:	00000da4 	.word	0x00000da4
   26040:	00001370 	.word	0x00001370
   26044:	4818      	ldr	r0, [pc, #96]	@ (260a8 <_start+0x1f64>)
   26046:	4468      	add	r0, sp
   26048:	78c1      	ldrb	r1, [r0, #3]
   2604a:	4c18      	ldr	r4, [pc, #96]	@ (260ac <_start+0x1f68>)
   2604c:	446c      	add	r4, sp
   2604e:	70a1      	strb	r1, [r4, #2]
   26050:	7841      	ldrb	r1, [r0, #1]
   26052:	7882      	ldrb	r2, [r0, #2]
   26054:	0212      	lsls	r2, r2, #8
   26056:	1851      	adds	r1, r2, r1
   26058:	8021      	strh	r1, [r4, #0]
   2605a:	3008      	adds	r0, #8
   2605c:	9905      	ldr	r1, [sp, #20]
   2605e:	6e09      	ldr	r1, [r1, #96]	@ 0x60
   26060:	910b      	str	r1, [sp, #44]	@ 0x2c
   26062:	4b13      	ldr	r3, [pc, #76]	@ (260b0 <_start+0x1f6c>)
   26064:	446b      	add	r3, sp
   26066:	930c      	str	r3, [sp, #48]	@ 0x30
   26068:	c864      	ldmia	r0!, {r2, r5, r6}
   2606a:	c364      	stmia	r3!, {r2, r5, r6}
   2606c:	c864      	ldmia	r0!, {r2, r5, r6}
   2606e:	c364      	stmia	r3!, {r2, r5, r6}
   26070:	c866      	ldmia	r0!, {r1, r2, r5, r6}
   26072:	c366      	stmia	r3!, {r1, r2, r5, r6}
   26074:	8800      	ldrh	r0, [r0, #0]
   26076:	8018      	strh	r0, [r3, #0]
   26078:	990b      	ldr	r1, [sp, #44]	@ 0x2c
   2607a:	0e08      	lsrs	r0, r1, #24
   2607c:	71a0      	strb	r0, [r4, #6]
   2607e:	0c08      	lsrs	r0, r1, #16
   26080:	7160      	strb	r0, [r4, #5]
   26082:	0a08      	lsrs	r0, r1, #8
   26084:	7120      	strb	r0, [r4, #4]
   26086:	70e1      	strb	r1, [r4, #3]
   26088:	1de0      	adds	r0, r4, #7
   2608a:	222a      	movs	r2, #42	@ 0x2a
   2608c:	990c      	ldr	r1, [sp, #48]	@ 0x30
   2608e:	f000 ffbc 	bl	2700a <__aeabi_memcpy>
   26092:	4d05      	ldr	r5, [pc, #20]	@ (260a8 <_start+0x1f64>)
   26094:	446d      	add	r5, sp
   26096:	4628      	mov	r0, r5
   26098:	4621      	mov	r1, r4
   2609a:	f7fd fd91 	bl	23bc0 <_ZN18complex_no_dynamic3app17hed99df9a0b6a9066E>
   2609e:	7828      	ldrb	r0, [r5, #0]
   260a0:	2801      	cmp	r0, #1
   260a2:	d107      	bne.n	260b4 <_start+0x1f70>
   260a4:	f000 fdaa 	bl	26bfc <_start+0x2ab8>
   260a8:	000013cc 	.word	0x000013cc
   260ac:	00000de4 	.word	0x00000de4
   260b0:	00001370 	.word	0x00001370
   260b4:	4915      	ldr	r1, [pc, #84]	@ (2610c <_start+0x1fc8>)
   260b6:	4469      	add	r1, sp
   260b8:	78c8      	ldrb	r0, [r1, #3]
   260ba:	4c15      	ldr	r4, [pc, #84]	@ (26110 <_start+0x1fcc>)
   260bc:	446c      	add	r4, sp
   260be:	70a0      	strb	r0, [r4, #2]
   260c0:	7848      	ldrb	r0, [r1, #1]
   260c2:	788a      	ldrb	r2, [r1, #2]
   260c4:	0212      	lsls	r2, r2, #8
   260c6:	1810      	adds	r0, r2, r0
   260c8:	8020      	strh	r0, [r4, #0]
   260ca:	9805      	ldr	r0, [sp, #20]
   260cc:	6e05      	ldr	r5, [r0, #96]	@ 0x60
   260ce:	3108      	adds	r1, #8
   260d0:	4810      	ldr	r0, [pc, #64]	@ (26114 <_start+0x1fd0>)
   260d2:	4468      	add	r0, sp
   260d4:	900c      	str	r0, [sp, #48]	@ 0x30
   260d6:	2641      	movs	r6, #65	@ 0x41
   260d8:	4632      	mov	r2, r6
   260da:	f000 fe36 	bl	26d4a <__aeabi_memcpy4>
   260de:	0e28      	lsrs	r0, r5, #24
   260e0:	71a0      	strb	r0, [r4, #6]
   260e2:	0c28      	lsrs	r0, r5, #16
   260e4:	7160      	strb	r0, [r4, #5]
   260e6:	0a28      	lsrs	r0, r5, #8
   260e8:	7120      	strb	r0, [r4, #4]
   260ea:	70e5      	strb	r5, [r4, #3]
   260ec:	1de0      	adds	r0, r4, #7
   260ee:	990c      	ldr	r1, [sp, #48]	@ 0x30
   260f0:	4632      	mov	r2, r6
   260f2:	f000 ff8a 	bl	2700a <__aeabi_memcpy>
   260f6:	4d05      	ldr	r5, [pc, #20]	@ (2610c <_start+0x1fc8>)
   260f8:	446d      	add	r5, sp
   260fa:	4628      	mov	r0, r5
   260fc:	4621      	mov	r1, r4
   260fe:	f7fb f9db 	bl	214b8 <_ZN18complex_no_dynamic3app17h4ddb4dbd4afda2b5E>
   26102:	7828      	ldrb	r0, [r5, #0]
   26104:	2801      	cmp	r0, #1
   26106:	d107      	bne.n	26118 <_start+0x1fd4>
   26108:	f000 fd78 	bl	26bfc <_start+0x2ab8>
   2610c:	000013cc 	.word	0x000013cc
   26110:	00000e18 	.word	0x00000e18
   26114:	00001370 	.word	0x00001370
   26118:	4817      	ldr	r0, [pc, #92]	@ (26178 <_start+0x2034>)
   2611a:	4468      	add	r0, sp
   2611c:	78c1      	ldrb	r1, [r0, #3]
   2611e:	4c17      	ldr	r4, [pc, #92]	@ (2617c <_start+0x2038>)
   26120:	446c      	add	r4, sp
   26122:	70a1      	strb	r1, [r4, #2]
   26124:	7841      	ldrb	r1, [r0, #1]
   26126:	7882      	ldrb	r2, [r0, #2]
   26128:	0212      	lsls	r2, r2, #8
   2612a:	1851      	adds	r1, r2, r1
   2612c:	8021      	strh	r1, [r4, #0]
   2612e:	3008      	adds	r0, #8
   26130:	9905      	ldr	r1, [sp, #20]
   26132:	6e09      	ldr	r1, [r1, #96]	@ 0x60
   26134:	910b      	str	r1, [sp, #44]	@ 0x2c
   26136:	4b12      	ldr	r3, [pc, #72]	@ (26180 <_start+0x203c>)
   26138:	446b      	add	r3, sp
   2613a:	930c      	str	r3, [sp, #48]	@ 0x30
   2613c:	c866      	ldmia	r0!, {r1, r2, r5, r6}
   2613e:	c366      	stmia	r3!, {r1, r2, r5, r6}
   26140:	c866      	ldmia	r0!, {r1, r2, r5, r6}
   26142:	c366      	stmia	r3!, {r1, r2, r5, r6}
   26144:	8800      	ldrh	r0, [r0, #0]
   26146:	8018      	strh	r0, [r3, #0]
   26148:	990b      	ldr	r1, [sp, #44]	@ 0x2c
   2614a:	0e08      	lsrs	r0, r1, #24
   2614c:	71a0      	strb	r0, [r4, #6]
   2614e:	0c08      	lsrs	r0, r1, #16
   26150:	7160      	strb	r0, [r4, #5]
   26152:	0a08      	lsrs	r0, r1, #8
   26154:	7120      	strb	r0, [r4, #4]
   26156:	70e1      	strb	r1, [r4, #3]
   26158:	1de0      	adds	r0, r4, #7
   2615a:	2222      	movs	r2, #34	@ 0x22
   2615c:	990c      	ldr	r1, [sp, #48]	@ 0x30
   2615e:	f000 ff54 	bl	2700a <__aeabi_memcpy>
   26162:	4d05      	ldr	r5, [pc, #20]	@ (26178 <_start+0x2034>)
   26164:	446d      	add	r5, sp
   26166:	4628      	mov	r0, r5
   26168:	4621      	mov	r1, r4
   2616a:	f7fd fb57 	bl	2381c <_ZN18complex_no_dynamic3app17he51e98b3c7aa5a67E>
   2616e:	7828      	ldrb	r0, [r5, #0]
   26170:	2801      	cmp	r0, #1
   26172:	d107      	bne.n	26184 <_start+0x2040>
   26174:	f000 fd42 	bl	26bfc <_start+0x2ab8>
   26178:	000013cc 	.word	0x000013cc
   2617c:	00000e60 	.word	0x00000e60
   26180:	00001370 	.word	0x00001370
   26184:	4817      	ldr	r0, [pc, #92]	@ (261e4 <_start+0x20a0>)
   26186:	4468      	add	r0, sp
   26188:	78c1      	ldrb	r1, [r0, #3]
   2618a:	4c17      	ldr	r4, [pc, #92]	@ (261e8 <_start+0x20a4>)
   2618c:	446c      	add	r4, sp
   2618e:	70a1      	strb	r1, [r4, #2]
   26190:	7841      	ldrb	r1, [r0, #1]
   26192:	7882      	ldrb	r2, [r0, #2]
   26194:	0212      	lsls	r2, r2, #8
   26196:	1851      	adds	r1, r2, r1
   26198:	8021      	strh	r1, [r4, #0]
   2619a:	3008      	adds	r0, #8
   2619c:	9905      	ldr	r1, [sp, #20]
   2619e:	6e09      	ldr	r1, [r1, #96]	@ 0x60
   261a0:	910b      	str	r1, [sp, #44]	@ 0x2c
   261a2:	4b12      	ldr	r3, [pc, #72]	@ (261ec <_start+0x20a8>)
   261a4:	446b      	add	r3, sp
   261a6:	930c      	str	r3, [sp, #48]	@ 0x30
   261a8:	c866      	ldmia	r0!, {r1, r2, r5, r6}
   261aa:	c366      	stmia	r3!, {r1, r2, r5, r6}
   261ac:	8801      	ldrh	r1, [r0, #0]
   261ae:	8019      	strh	r1, [r3, #0]
   261b0:	7880      	ldrb	r0, [r0, #2]
   261b2:	7098      	strb	r0, [r3, #2]
   261b4:	990b      	ldr	r1, [sp, #44]	@ 0x2c
   261b6:	0e08      	lsrs	r0, r1, #24
   261b8:	71a0      	strb	r0, [r4, #6]
   261ba:	0c08      	lsrs	r0, r1, #16
   261bc:	7160      	strb	r0, [r4, #5]
   261be:	0a08      	lsrs	r0, r1, #8
   261c0:	7120      	strb	r0, [r4, #4]
   261c2:	70e1      	strb	r1, [r4, #3]
   261c4:	1de0      	adds	r0, r4, #7
   261c6:	2213      	movs	r2, #19
   261c8:	990c      	ldr	r1, [sp, #48]	@ 0x30
   261ca:	f000 ff1e 	bl	2700a <__aeabi_memcpy>
   261ce:	4d05      	ldr	r5, [pc, #20]	@ (261e4 <_start+0x20a0>)
   261d0:	446d      	add	r5, sp
   261d2:	4628      	mov	r0, r5
   261d4:	4621      	mov	r1, r4
   261d6:	f7fa f833 	bl	20240 <_ZN18complex_no_dynamic3app17h0849a7e01312f08bE>
   261da:	7828      	ldrb	r0, [r5, #0]
   261dc:	2801      	cmp	r0, #1
   261de:	d107      	bne.n	261f0 <_start+0x20ac>
   261e0:	f000 fd0c 	bl	26bfc <_start+0x2ab8>
   261e4:	000013cc 	.word	0x000013cc
   261e8:	00000e8c 	.word	0x00000e8c
   261ec:	00001370 	.word	0x00001370
   261f0:	4815      	ldr	r0, [pc, #84]	@ (26248 <_start+0x2104>)
   261f2:	4468      	add	r0, sp
   261f4:	78c1      	ldrb	r1, [r0, #3]
   261f6:	4c15      	ldr	r4, [pc, #84]	@ (2624c <_start+0x2108>)
   261f8:	446c      	add	r4, sp
   261fa:	70a1      	strb	r1, [r4, #2]
   261fc:	7841      	ldrb	r1, [r0, #1]
   261fe:	7882      	ldrb	r2, [r0, #2]
   26200:	0212      	lsls	r2, r2, #8
   26202:	1851      	adds	r1, r2, r1
   26204:	8021      	strh	r1, [r4, #0]
   26206:	3008      	adds	r0, #8
   26208:	9905      	ldr	r1, [sp, #20]
   2620a:	6e09      	ldr	r1, [r1, #96]	@ 0x60
   2620c:	4b10      	ldr	r3, [pc, #64]	@ (26250 <_start+0x210c>)
   2620e:	446b      	add	r3, sp
   26210:	930c      	str	r3, [sp, #48]	@ 0x30
   26212:	c860      	ldmia	r0!, {r5, r6}
   26214:	c360      	stmia	r3!, {r5, r6}
   26216:	c864      	ldmia	r0!, {r2, r5, r6}
   26218:	c364      	stmia	r3!, {r2, r5, r6}
   2621a:	0e08      	lsrs	r0, r1, #24
   2621c:	71a0      	strb	r0, [r4, #6]
   2621e:	0c08      	lsrs	r0, r1, #16
   26220:	7160      	strb	r0, [r4, #5]
   26222:	0a08      	lsrs	r0, r1, #8
   26224:	7120      	strb	r0, [r4, #4]
   26226:	70e1      	strb	r1, [r4, #3]
   26228:	1de0      	adds	r0, r4, #7
   2622a:	2214      	movs	r2, #20
   2622c:	990c      	ldr	r1, [sp, #48]	@ 0x30
   2622e:	f000 feec 	bl	2700a <__aeabi_memcpy>
   26232:	4d05      	ldr	r5, [pc, #20]	@ (26248 <_start+0x2104>)
   26234:	446d      	add	r5, sp
   26236:	4628      	mov	r0, r5
   26238:	4621      	mov	r1, r4
   2623a:	f7fc ffdd 	bl	231f8 <_ZN18complex_no_dynamic3app17hc4d574f32add8096E>
   2623e:	7828      	ldrb	r0, [r5, #0]
   26240:	2801      	cmp	r0, #1
   26242:	d107      	bne.n	26254 <_start+0x2110>
   26244:	f000 fcda 	bl	26bfc <_start+0x2ab8>
   26248:	000013cc 	.word	0x000013cc
   2624c:	00000ea8 	.word	0x00000ea8
   26250:	00001370 	.word	0x00001370
   26254:	4819      	ldr	r0, [pc, #100]	@ (262bc <_start+0x2178>)
   26256:	4468      	add	r0, sp
   26258:	78c1      	ldrb	r1, [r0, #3]
   2625a:	4c19      	ldr	r4, [pc, #100]	@ (262c0 <_start+0x217c>)
   2625c:	446c      	add	r4, sp
   2625e:	70a1      	strb	r1, [r4, #2]
   26260:	7841      	ldrb	r1, [r0, #1]
   26262:	7882      	ldrb	r2, [r0, #2]
   26264:	0212      	lsls	r2, r2, #8
   26266:	1851      	adds	r1, r2, r1
   26268:	8021      	strh	r1, [r4, #0]
   2626a:	3008      	adds	r0, #8
   2626c:	9905      	ldr	r1, [sp, #20]
   2626e:	6e09      	ldr	r1, [r1, #96]	@ 0x60
   26270:	910b      	str	r1, [sp, #44]	@ 0x2c
   26272:	4b14      	ldr	r3, [pc, #80]	@ (262c4 <_start+0x2180>)
   26274:	446b      	add	r3, sp
   26276:	930c      	str	r3, [sp, #48]	@ 0x30
   26278:	c864      	ldmia	r0!, {r2, r5, r6}
   2627a:	c364      	stmia	r3!, {r2, r5, r6}
   2627c:	c866      	ldmia	r0!, {r1, r2, r5, r6}
   2627e:	c366      	stmia	r3!, {r1, r2, r5, r6}
   26280:	c826      	ldmia	r0!, {r1, r2, r5}
   26282:	c326      	stmia	r3!, {r1, r2, r5}
   26284:	c866      	ldmia	r0!, {r1, r2, r5, r6}
   26286:	c366      	stmia	r3!, {r1, r2, r5, r6}
   26288:	8800      	ldrh	r0, [r0, #0]
   2628a:	8018      	strh	r0, [r3, #0]
   2628c:	990b      	ldr	r1, [sp, #44]	@ 0x2c
   2628e:	0e08      	lsrs	r0, r1, #24
   26290:	71a0      	strb	r0, [r4, #6]
   26292:	0c08      	lsrs	r0, r1, #16
   26294:	7160      	strb	r0, [r4, #5]
   26296:	0a08      	lsrs	r0, r1, #8
   26298:	7120      	strb	r0, [r4, #4]
   2629a:	70e1      	strb	r1, [r4, #3]
   2629c:	1de0      	adds	r0, r4, #7
   2629e:	223a      	movs	r2, #58	@ 0x3a
   262a0:	990c      	ldr	r1, [sp, #48]	@ 0x30
   262a2:	f000 feb2 	bl	2700a <__aeabi_memcpy>
   262a6:	4d05      	ldr	r5, [pc, #20]	@ (262bc <_start+0x2178>)
   262a8:	446d      	add	r5, sp
   262aa:	4628      	mov	r0, r5
   262ac:	4621      	mov	r1, r4
   262ae:	f7fd f957 	bl	23560 <_ZN18complex_no_dynamic3app17hd337f1104f1b0f10E>
   262b2:	7828      	ldrb	r0, [r5, #0]
   262b4:	2801      	cmp	r0, #1
   262b6:	d107      	bne.n	262c8 <_start+0x2184>
   262b8:	f000 fca0 	bl	26bfc <_start+0x2ab8>
   262bc:	000013cc 	.word	0x000013cc
   262c0:	00000ec4 	.word	0x00000ec4
   262c4:	00001370 	.word	0x00001370
   262c8:	4816      	ldr	r0, [pc, #88]	@ (26324 <_start+0x21e0>)
   262ca:	4468      	add	r0, sp
   262cc:	78c1      	ldrb	r1, [r0, #3]
   262ce:	4c16      	ldr	r4, [pc, #88]	@ (26328 <_start+0x21e4>)
   262d0:	446c      	add	r4, sp
   262d2:	70a1      	strb	r1, [r4, #2]
   262d4:	7841      	ldrb	r1, [r0, #1]
   262d6:	7882      	ldrb	r2, [r0, #2]
   262d8:	0212      	lsls	r2, r2, #8
   262da:	1851      	adds	r1, r2, r1
   262dc:	8021      	strh	r1, [r4, #0]
   262de:	3008      	adds	r0, #8
   262e0:	9905      	ldr	r1, [sp, #20]
   262e2:	6e09      	ldr	r1, [r1, #96]	@ 0x60
   262e4:	910b      	str	r1, [sp, #44]	@ 0x2c
   262e6:	4b11      	ldr	r3, [pc, #68]	@ (2632c <_start+0x21e8>)
   262e8:	446b      	add	r3, sp
   262ea:	930c      	str	r3, [sp, #48]	@ 0x30
   262ec:	c866      	ldmia	r0!, {r1, r2, r5, r6}
   262ee:	c366      	stmia	r3!, {r1, r2, r5, r6}
   262f0:	7800      	ldrb	r0, [r0, #0]
   262f2:	7018      	strb	r0, [r3, #0]
   262f4:	990b      	ldr	r1, [sp, #44]	@ 0x2c
   262f6:	0e08      	lsrs	r0, r1, #24
   262f8:	71a0      	strb	r0, [r4, #6]
   262fa:	0c08      	lsrs	r0, r1, #16
   262fc:	7160      	strb	r0, [r4, #5]
   262fe:	0a08      	lsrs	r0, r1, #8
   26300:	7120      	strb	r0, [r4, #4]
   26302:	70e1      	strb	r1, [r4, #3]
   26304:	1de0      	adds	r0, r4, #7
   26306:	2211      	movs	r2, #17
   26308:	990c      	ldr	r1, [sp, #48]	@ 0x30
   2630a:	f000 fe7e 	bl	2700a <__aeabi_memcpy>
   2630e:	4d05      	ldr	r5, [pc, #20]	@ (26324 <_start+0x21e0>)
   26310:	446d      	add	r5, sp
   26312:	4628      	mov	r0, r5
   26314:	4621      	mov	r1, r4
   26316:	f7fa fec7 	bl	210a8 <_ZN18complex_no_dynamic3app17h3fe32e38ab8d7a78E>
   2631a:	7828      	ldrb	r0, [r5, #0]
   2631c:	2801      	cmp	r0, #1
   2631e:	d107      	bne.n	26330 <_start+0x21ec>
   26320:	f000 fc6c 	bl	26bfc <_start+0x2ab8>
   26324:	000013cc 	.word	0x000013cc
   26328:	00000f08 	.word	0x00000f08
   2632c:	00001370 	.word	0x00001370
   26330:	4817      	ldr	r0, [pc, #92]	@ (26390 <_start+0x224c>)
   26332:	4468      	add	r0, sp
   26334:	78c1      	ldrb	r1, [r0, #3]
   26336:	4c17      	ldr	r4, [pc, #92]	@ (26394 <_start+0x2250>)
   26338:	446c      	add	r4, sp
   2633a:	70a1      	strb	r1, [r4, #2]
   2633c:	7841      	ldrb	r1, [r0, #1]
   2633e:	7882      	ldrb	r2, [r0, #2]
   26340:	0212      	lsls	r2, r2, #8
   26342:	1851      	adds	r1, r2, r1
   26344:	8021      	strh	r1, [r4, #0]
   26346:	3008      	adds	r0, #8
   26348:	9905      	ldr	r1, [sp, #20]
   2634a:	6e09      	ldr	r1, [r1, #96]	@ 0x60
   2634c:	4b12      	ldr	r3, [pc, #72]	@ (26398 <_start+0x2254>)
   2634e:	446b      	add	r3, sp
   26350:	930c      	str	r3, [sp, #48]	@ 0x30
   26352:	c860      	ldmia	r0!, {r5, r6}
   26354:	c360      	stmia	r3!, {r5, r6}
   26356:	c864      	ldmia	r0!, {r2, r5, r6}
   26358:	c364      	stmia	r3!, {r2, r5, r6}
   2635a:	8802      	ldrh	r2, [r0, #0]
   2635c:	801a      	strh	r2, [r3, #0]
   2635e:	7880      	ldrb	r0, [r0, #2]
   26360:	7098      	strb	r0, [r3, #2]
   26362:	0e08      	lsrs	r0, r1, #24
   26364:	71a0      	strb	r0, [r4, #6]
   26366:	0c08      	lsrs	r0, r1, #16
   26368:	7160      	strb	r0, [r4, #5]
   2636a:	0a08      	lsrs	r0, r1, #8
   2636c:	7120      	strb	r0, [r4, #4]
   2636e:	70e1      	strb	r1, [r4, #3]
   26370:	1de0      	adds	r0, r4, #7
   26372:	2217      	movs	r2, #23
   26374:	990c      	ldr	r1, [sp, #48]	@ 0x30
   26376:	f000 fe48 	bl	2700a <__aeabi_memcpy>
   2637a:	4d05      	ldr	r5, [pc, #20]	@ (26390 <_start+0x224c>)
   2637c:	446d      	add	r5, sp
   2637e:	4628      	mov	r0, r5
   26380:	4621      	mov	r1, r4
   26382:	f7fa fa0f 	bl	207a4 <_ZN18complex_no_dynamic3app17h12117e9db5f3e57cE>
   26386:	7828      	ldrb	r0, [r5, #0]
   26388:	2801      	cmp	r0, #1
   2638a:	d107      	bne.n	2639c <_start+0x2258>
   2638c:	f000 fc36 	bl	26bfc <_start+0x2ab8>
   26390:	000013cc 	.word	0x000013cc
   26394:	00000f20 	.word	0x00000f20
   26398:	00001370 	.word	0x00001370
   2639c:	4819      	ldr	r0, [pc, #100]	@ (26404 <_start+0x22c0>)
   2639e:	4468      	add	r0, sp
   263a0:	78c1      	ldrb	r1, [r0, #3]
   263a2:	4c19      	ldr	r4, [pc, #100]	@ (26408 <_start+0x22c4>)
   263a4:	446c      	add	r4, sp
   263a6:	70a1      	strb	r1, [r4, #2]
   263a8:	7841      	ldrb	r1, [r0, #1]
   263aa:	7882      	ldrb	r2, [r0, #2]
   263ac:	0212      	lsls	r2, r2, #8
   263ae:	1851      	adds	r1, r2, r1
   263b0:	8021      	strh	r1, [r4, #0]
   263b2:	3008      	adds	r0, #8
   263b4:	9905      	ldr	r1, [sp, #20]
   263b6:	6e09      	ldr	r1, [r1, #96]	@ 0x60
   263b8:	910b      	str	r1, [sp, #44]	@ 0x2c
   263ba:	4b14      	ldr	r3, [pc, #80]	@ (2640c <_start+0x22c8>)
   263bc:	446b      	add	r3, sp
   263be:	930c      	str	r3, [sp, #48]	@ 0x30
   263c0:	c864      	ldmia	r0!, {r2, r5, r6}
   263c2:	c364      	stmia	r3!, {r2, r5, r6}
   263c4:	c864      	ldmia	r0!, {r2, r5, r6}
   263c6:	c364      	stmia	r3!, {r2, r5, r6}
   263c8:	c864      	ldmia	r0!, {r2, r5, r6}
   263ca:	c364      	stmia	r3!, {r2, r5, r6}
   263cc:	c866      	ldmia	r0!, {r1, r2, r5, r6}
   263ce:	c366      	stmia	r3!, {r1, r2, r5, r6}
   263d0:	7800      	ldrb	r0, [r0, #0]
   263d2:	7018      	strb	r0, [r3, #0]
   263d4:	990b      	ldr	r1, [sp, #44]	@ 0x2c
   263d6:	0e08      	lsrs	r0, r1, #24
   263d8:	71a0      	strb	r0, [r4, #6]
   263da:	0c08      	lsrs	r0, r1, #16
   263dc:	7160      	strb	r0, [r4, #5]
   263de:	0a08      	lsrs	r0, r1, #8
   263e0:	7120      	strb	r0, [r4, #4]
   263e2:	70e1      	strb	r1, [r4, #3]
   263e4:	1de0      	adds	r0, r4, #7
   263e6:	2235      	movs	r2, #53	@ 0x35
   263e8:	990c      	ldr	r1, [sp, #48]	@ 0x30
   263ea:	f000 fe0e 	bl	2700a <__aeabi_memcpy>
   263ee:	4d05      	ldr	r5, [pc, #20]	@ (26404 <_start+0x22c0>)
   263f0:	446d      	add	r5, sp
   263f2:	4628      	mov	r0, r5
   263f4:	4621      	mov	r1, r4
   263f6:	f7f9 ff7f 	bl	202f8 <_ZN18complex_no_dynamic3app17h0bc2c3b1d4a81dafE>
   263fa:	7828      	ldrb	r0, [r5, #0]
   263fc:	2801      	cmp	r0, #1
   263fe:	d107      	bne.n	26410 <_start+0x22cc>
   26400:	e3fc      	b.n	26bfc <_start+0x2ab8>
   26402:	46c0      	nop			@ (mov r8, r8)
   26404:	000013cc 	.word	0x000013cc
   26408:	00000f40 	.word	0x00000f40
   2640c:	00001370 	.word	0x00001370
   26410:	4817      	ldr	r0, [pc, #92]	@ (26470 <_start+0x232c>)
   26412:	4468      	add	r0, sp
   26414:	78c1      	ldrb	r1, [r0, #3]
   26416:	4c17      	ldr	r4, [pc, #92]	@ (26474 <_start+0x2330>)
   26418:	446c      	add	r4, sp
   2641a:	70a1      	strb	r1, [r4, #2]
   2641c:	7841      	ldrb	r1, [r0, #1]
   2641e:	7882      	ldrb	r2, [r0, #2]
   26420:	0212      	lsls	r2, r2, #8
   26422:	1851      	adds	r1, r2, r1
   26424:	8021      	strh	r1, [r4, #0]
   26426:	3008      	adds	r0, #8
   26428:	9905      	ldr	r1, [sp, #20]
   2642a:	6e09      	ldr	r1, [r1, #96]	@ 0x60
   2642c:	4b12      	ldr	r3, [pc, #72]	@ (26478 <_start+0x2334>)
   2642e:	446b      	add	r3, sp
   26430:	930c      	str	r3, [sp, #48]	@ 0x30
   26432:	c864      	ldmia	r0!, {r2, r5, r6}
   26434:	c364      	stmia	r3!, {r2, r5, r6}
   26436:	c864      	ldmia	r0!, {r2, r5, r6}
   26438:	c364      	stmia	r3!, {r2, r5, r6}
   2643a:	c864      	ldmia	r0!, {r2, r5, r6}
   2643c:	c364      	stmia	r3!, {r2, r5, r6}
   2643e:	7800      	ldrb	r0, [r0, #0]
   26440:	7018      	strb	r0, [r3, #0]
   26442:	0e08      	lsrs	r0, r1, #24
   26444:	71a0      	strb	r0, [r4, #6]
   26446:	0c08      	lsrs	r0, r1, #16
   26448:	7160      	strb	r0, [r4, #5]
   2644a:	0a08      	lsrs	r0, r1, #8
   2644c:	7120      	strb	r0, [r4, #4]
   2644e:	70e1      	strb	r1, [r4, #3]
   26450:	1de0      	adds	r0, r4, #7
   26452:	2225      	movs	r2, #37	@ 0x25
   26454:	990c      	ldr	r1, [sp, #48]	@ 0x30
   26456:	f000 fdd8 	bl	2700a <__aeabi_memcpy>
   2645a:	4d05      	ldr	r5, [pc, #20]	@ (26470 <_start+0x232c>)
   2645c:	446d      	add	r5, sp
   2645e:	4628      	mov	r0, r5
   26460:	4621      	mov	r1, r4
   26462:	f7fb fde5 	bl	22030 <_ZN18complex_no_dynamic3app17h8271d6b405b254eeE>
   26466:	7828      	ldrb	r0, [r5, #0]
   26468:	2801      	cmp	r0, #1
   2646a:	d107      	bne.n	2647c <_start+0x2338>
   2646c:	e3c6      	b.n	26bfc <_start+0x2ab8>
   2646e:	46c0      	nop			@ (mov r8, r8)
   26470:	000013cc 	.word	0x000013cc
   26474:	00000f7c 	.word	0x00000f7c
   26478:	00001370 	.word	0x00001370
   2647c:	4816      	ldr	r0, [pc, #88]	@ (264d8 <_start+0x2394>)
   2647e:	4468      	add	r0, sp
   26480:	78c1      	ldrb	r1, [r0, #3]
   26482:	4c16      	ldr	r4, [pc, #88]	@ (264dc <_start+0x2398>)
   26484:	446c      	add	r4, sp
   26486:	70a1      	strb	r1, [r4, #2]
   26488:	7841      	ldrb	r1, [r0, #1]
   2648a:	7882      	ldrb	r2, [r0, #2]
   2648c:	0212      	lsls	r2, r2, #8
   2648e:	1851      	adds	r1, r2, r1
   26490:	8021      	strh	r1, [r4, #0]
   26492:	3008      	adds	r0, #8
   26494:	9905      	ldr	r1, [sp, #20]
   26496:	6e09      	ldr	r1, [r1, #96]	@ 0x60
   26498:	910b      	str	r1, [sp, #44]	@ 0x2c
   2649a:	4b11      	ldr	r3, [pc, #68]	@ (264e0 <_start+0x239c>)
   2649c:	446b      	add	r3, sp
   2649e:	930c      	str	r3, [sp, #48]	@ 0x30
   264a0:	c866      	ldmia	r0!, {r1, r2, r5, r6}
   264a2:	c366      	stmia	r3!, {r1, r2, r5, r6}
   264a4:	c866      	ldmia	r0!, {r1, r2, r5, r6}
   264a6:	c366      	stmia	r3!, {r1, r2, r5, r6}
   264a8:	990b      	ldr	r1, [sp, #44]	@ 0x2c
   264aa:	0e08      	lsrs	r0, r1, #24
   264ac:	71a0      	strb	r0, [r4, #6]
   264ae:	0c08      	lsrs	r0, r1, #16
   264b0:	7160      	strb	r0, [r4, #5]
   264b2:	0a08      	lsrs	r0, r1, #8
   264b4:	7120      	strb	r0, [r4, #4]
   264b6:	70e1      	strb	r1, [r4, #3]
   264b8:	1de0      	adds	r0, r4, #7
   264ba:	2220      	movs	r2, #32
   264bc:	990c      	ldr	r1, [sp, #48]	@ 0x30
   264be:	f000 fda4 	bl	2700a <__aeabi_memcpy>
   264c2:	4d05      	ldr	r5, [pc, #20]	@ (264d8 <_start+0x2394>)
   264c4:	446d      	add	r5, sp
   264c6:	4628      	mov	r0, r5
   264c8:	4621      	mov	r1, r4
   264ca:	f7fd f8a5 	bl	23618 <_ZN18complex_no_dynamic3app17hd9c1ac55b58afb35E>
   264ce:	7828      	ldrb	r0, [r5, #0]
   264d0:	2801      	cmp	r0, #1
   264d2:	d107      	bne.n	264e4 <_start+0x23a0>
   264d4:	e392      	b.n	26bfc <_start+0x2ab8>
   264d6:	46c0      	nop			@ (mov r8, r8)
   264d8:	000013cc 	.word	0x000013cc
   264dc:	00000fa8 	.word	0x00000fa8
   264e0:	00001370 	.word	0x00001370
   264e4:	4915      	ldr	r1, [pc, #84]	@ (2653c <_start+0x23f8>)
   264e6:	4469      	add	r1, sp
   264e8:	78c8      	ldrb	r0, [r1, #3]
   264ea:	4c15      	ldr	r4, [pc, #84]	@ (26540 <_start+0x23fc>)
   264ec:	446c      	add	r4, sp
   264ee:	70a0      	strb	r0, [r4, #2]
   264f0:	7848      	ldrb	r0, [r1, #1]
   264f2:	788a      	ldrb	r2, [r1, #2]
   264f4:	0212      	lsls	r2, r2, #8
   264f6:	1810      	adds	r0, r2, r0
   264f8:	8020      	strh	r0, [r4, #0]
   264fa:	9805      	ldr	r0, [sp, #20]
   264fc:	6e05      	ldr	r5, [r0, #96]	@ 0x60
   264fe:	3108      	adds	r1, #8
   26500:	4810      	ldr	r0, [pc, #64]	@ (26544 <_start+0x2400>)
   26502:	4468      	add	r0, sp
   26504:	900c      	str	r0, [sp, #48]	@ 0x30
   26506:	2648      	movs	r6, #72	@ 0x48
   26508:	4632      	mov	r2, r6
   2650a:	f000 fc1e 	bl	26d4a <__aeabi_memcpy4>
   2650e:	0e28      	lsrs	r0, r5, #24
   26510:	71a0      	strb	r0, [r4, #6]
   26512:	0c28      	lsrs	r0, r5, #16
   26514:	7160      	strb	r0, [r4, #5]
   26516:	0a28      	lsrs	r0, r5, #8
   26518:	7120      	strb	r0, [r4, #4]
   2651a:	70e5      	strb	r5, [r4, #3]
   2651c:	1de0      	adds	r0, r4, #7
   2651e:	990c      	ldr	r1, [sp, #48]	@ 0x30
   26520:	4632      	mov	r2, r6
   26522:	f000 fd72 	bl	2700a <__aeabi_memcpy>
   26526:	4d05      	ldr	r5, [pc, #20]	@ (2653c <_start+0x23f8>)
   26528:	446d      	add	r5, sp
   2652a:	4628      	mov	r0, r5
   2652c:	4621      	mov	r1, r4
   2652e:	f7fa fe17 	bl	21160 <_ZN18complex_no_dynamic3app17h43bab9c444db90ddE>
   26532:	7828      	ldrb	r0, [r5, #0]
   26534:	2801      	cmp	r0, #1
   26536:	d107      	bne.n	26548 <_start+0x2404>
   26538:	e360      	b.n	26bfc <_start+0x2ab8>
   2653a:	46c0      	nop			@ (mov r8, r8)
   2653c:	000013cc 	.word	0x000013cc
   26540:	00000fd0 	.word	0x00000fd0
   26544:	00001370 	.word	0x00001370
   26548:	4818      	ldr	r0, [pc, #96]	@ (265ac <_start+0x2468>)
   2654a:	4468      	add	r0, sp
   2654c:	78c1      	ldrb	r1, [r0, #3]
   2654e:	4c18      	ldr	r4, [pc, #96]	@ (265b0 <_start+0x246c>)
   26550:	446c      	add	r4, sp
   26552:	70a1      	strb	r1, [r4, #2]
   26554:	7841      	ldrb	r1, [r0, #1]
   26556:	7882      	ldrb	r2, [r0, #2]
   26558:	0212      	lsls	r2, r2, #8
   2655a:	1851      	adds	r1, r2, r1
   2655c:	8021      	strh	r1, [r4, #0]
   2655e:	3008      	adds	r0, #8
   26560:	9905      	ldr	r1, [sp, #20]
   26562:	6e09      	ldr	r1, [r1, #96]	@ 0x60
   26564:	910b      	str	r1, [sp, #44]	@ 0x2c
   26566:	4b13      	ldr	r3, [pc, #76]	@ (265b4 <_start+0x2470>)
   26568:	446b      	add	r3, sp
   2656a:	930c      	str	r3, [sp, #48]	@ 0x30
   2656c:	c864      	ldmia	r0!, {r2, r5, r6}
   2656e:	c364      	stmia	r3!, {r2, r5, r6}
   26570:	c866      	ldmia	r0!, {r1, r2, r5, r6}
   26572:	c366      	stmia	r3!, {r1, r2, r5, r6}
   26574:	c866      	ldmia	r0!, {r1, r2, r5, r6}
   26576:	c366      	stmia	r3!, {r1, r2, r5, r6}
   26578:	8800      	ldrh	r0, [r0, #0]
   2657a:	8018      	strh	r0, [r3, #0]
   2657c:	990b      	ldr	r1, [sp, #44]	@ 0x2c
   2657e:	0e08      	lsrs	r0, r1, #24
   26580:	71a0      	strb	r0, [r4, #6]
   26582:	0c08      	lsrs	r0, r1, #16
   26584:	7160      	strb	r0, [r4, #5]
   26586:	0a08      	lsrs	r0, r1, #8
   26588:	7120      	strb	r0, [r4, #4]
   2658a:	70e1      	strb	r1, [r4, #3]
   2658c:	1de0      	adds	r0, r4, #7
   2658e:	222e      	movs	r2, #46	@ 0x2e
   26590:	990c      	ldr	r1, [sp, #48]	@ 0x30
   26592:	f000 fd3a 	bl	2700a <__aeabi_memcpy>
   26596:	4d05      	ldr	r5, [pc, #20]	@ (265ac <_start+0x2468>)
   26598:	446d      	add	r5, sp
   2659a:	4628      	mov	r0, r5
   2659c:	4621      	mov	r1, r4
   2659e:	f7fa f9cd 	bl	2093c <_ZN18complex_no_dynamic3app17h1963f44e14d33619E>
   265a2:	7828      	ldrb	r0, [r5, #0]
   265a4:	2801      	cmp	r0, #1
   265a6:	d107      	bne.n	265b8 <_start+0x2474>
   265a8:	e328      	b.n	26bfc <_start+0x2ab8>
   265aa:	46c0      	nop			@ (mov r8, r8)
   265ac:	000013cc 	.word	0x000013cc
   265b0:	00001020 	.word	0x00001020
   265b4:	00001370 	.word	0x00001370
   265b8:	4818      	ldr	r0, [pc, #96]	@ (2661c <_start+0x24d8>)
   265ba:	4468      	add	r0, sp
   265bc:	78c1      	ldrb	r1, [r0, #3]
   265be:	4c18      	ldr	r4, [pc, #96]	@ (26620 <_start+0x24dc>)
   265c0:	446c      	add	r4, sp
   265c2:	70a1      	strb	r1, [r4, #2]
   265c4:	7841      	ldrb	r1, [r0, #1]
   265c6:	7882      	ldrb	r2, [r0, #2]
   265c8:	0212      	lsls	r2, r2, #8
   265ca:	1851      	adds	r1, r2, r1
   265cc:	8021      	strh	r1, [r4, #0]
   265ce:	3008      	adds	r0, #8
   265d0:	9905      	ldr	r1, [sp, #20]
   265d2:	6e09      	ldr	r1, [r1, #96]	@ 0x60
   265d4:	910b      	str	r1, [sp, #44]	@ 0x2c
   265d6:	4b13      	ldr	r3, [pc, #76]	@ (26624 <_start+0x24e0>)
   265d8:	446b      	add	r3, sp
   265da:	930c      	str	r3, [sp, #48]	@ 0x30
   265dc:	c864      	ldmia	r0!, {r2, r5, r6}
   265de:	c364      	stmia	r3!, {r2, r5, r6}
   265e0:	c866      	ldmia	r0!, {r1, r2, r5, r6}
   265e2:	c366      	stmia	r3!, {r1, r2, r5, r6}
   265e4:	c826      	ldmia	r0!, {r1, r2, r5}
   265e6:	c326      	stmia	r3!, {r1, r2, r5}
   265e8:	c866      	ldmia	r0!, {r1, r2, r5, r6}
   265ea:	c366      	stmia	r3!, {r1, r2, r5, r6}
   265ec:	990b      	ldr	r1, [sp, #44]	@ 0x2c
   265ee:	0e08      	lsrs	r0, r1, #24
   265f0:	71a0      	strb	r0, [r4, #6]
   265f2:	0c08      	lsrs	r0, r1, #16
   265f4:	7160      	strb	r0, [r4, #5]
   265f6:	0a08      	lsrs	r0, r1, #8
   265f8:	7120      	strb	r0, [r4, #4]
   265fa:	70e1      	strb	r1, [r4, #3]
   265fc:	1de0      	adds	r0, r4, #7
   265fe:	2238      	movs	r2, #56	@ 0x38
   26600:	990c      	ldr	r1, [sp, #48]	@ 0x30
   26602:	f000 fd02 	bl	2700a <__aeabi_memcpy>
   26606:	4d05      	ldr	r5, [pc, #20]	@ (2661c <_start+0x24d8>)
   26608:	446d      	add	r5, sp
   2660a:	4628      	mov	r0, r5
   2660c:	4621      	mov	r1, r4
   2660e:	f7fd fb2d 	bl	23c6c <_ZN18complex_no_dynamic3app17hf2cfdc639d1012d8E>
   26612:	7828      	ldrb	r0, [r5, #0]
   26614:	2801      	cmp	r0, #1
   26616:	d107      	bne.n	26628 <_start+0x24e4>
   26618:	e2f0      	b.n	26bfc <_start+0x2ab8>
   2661a:	46c0      	nop			@ (mov r8, r8)
   2661c:	000013cc 	.word	0x000013cc
   26620:	00001058 	.word	0x00001058
   26624:	00001370 	.word	0x00001370
   26628:	4914      	ldr	r1, [pc, #80]	@ (2667c <_start+0x2538>)
   2662a:	4469      	add	r1, sp
   2662c:	9b05      	ldr	r3, [sp, #20]
   2662e:	6ed8      	ldr	r0, [r3, #108]	@ 0x6c
   26630:	8108      	strh	r0, [r1, #8]
   26632:	4813      	ldr	r0, [pc, #76]	@ (26680 <_start+0x253c>)
   26634:	4468      	add	r0, sp
   26636:	78c2      	ldrb	r2, [r0, #3]
   26638:	4c12      	ldr	r4, [pc, #72]	@ (26684 <_start+0x2540>)
   2663a:	446c      	add	r4, sp
   2663c:	70a2      	strb	r2, [r4, #2]
   2663e:	7842      	ldrb	r2, [r0, #1]
   26640:	7880      	ldrb	r0, [r0, #2]
   26642:	0200      	lsls	r0, r0, #8
   26644:	1880      	adds	r0, r0, r2
   26646:	8020      	strh	r0, [r4, #0]
   26648:	6e18      	ldr	r0, [r3, #96]	@ 0x60
   2664a:	70e0      	strb	r0, [r4, #3]
   2664c:	0e02      	lsrs	r2, r0, #24
   2664e:	71a2      	strb	r2, [r4, #6]
   26650:	0c02      	lsrs	r2, r0, #16
   26652:	7162      	strb	r2, [r4, #5]
   26654:	0a00      	lsrs	r0, r0, #8
   26656:	7120      	strb	r0, [r4, #4]
   26658:	6e58      	ldr	r0, [r3, #100]	@ 0x64
   2665a:	6e9a      	ldr	r2, [r3, #104]	@ 0x68
   2665c:	c305      	stmia	r3!, {r0, r2}
   2665e:	1de0      	adds	r0, r4, #7
   26660:	220a      	movs	r2, #10
   26662:	f000 fcd2 	bl	2700a <__aeabi_memcpy>
   26666:	4d06      	ldr	r5, [pc, #24]	@ (26680 <_start+0x253c>)
   26668:	446d      	add	r5, sp
   2666a:	4628      	mov	r0, r5
   2666c:	4621      	mov	r1, r4
   2666e:	f7fa f9bb 	bl	209e8 <_ZN18complex_no_dynamic3app17h19671c4bf5dfc925E>
   26672:	7828      	ldrb	r0, [r5, #0]
   26674:	2801      	cmp	r0, #1
   26676:	d107      	bne.n	26688 <_start+0x2544>
   26678:	e2c0      	b.n	26bfc <_start+0x2ab8>
   2667a:	46c0      	nop			@ (mov r8, r8)
   2667c:	00001370 	.word	0x00001370
   26680:	000013cc 	.word	0x000013cc
   26684:	00001098 	.word	0x00001098
   26688:	4818      	ldr	r0, [pc, #96]	@ (266ec <_start+0x25a8>)
   2668a:	4468      	add	r0, sp
   2668c:	78c1      	ldrb	r1, [r0, #3]
   2668e:	4c18      	ldr	r4, [pc, #96]	@ (266f0 <_start+0x25ac>)
   26690:	446c      	add	r4, sp
   26692:	70a1      	strb	r1, [r4, #2]
   26694:	7841      	ldrb	r1, [r0, #1]
   26696:	7882      	ldrb	r2, [r0, #2]
   26698:	0212      	lsls	r2, r2, #8
   2669a:	1851      	adds	r1, r2, r1
   2669c:	8021      	strh	r1, [r4, #0]
   2669e:	3008      	adds	r0, #8
   266a0:	9905      	ldr	r1, [sp, #20]
   266a2:	6e09      	ldr	r1, [r1, #96]	@ 0x60
   266a4:	910b      	str	r1, [sp, #44]	@ 0x2c
   266a6:	4b13      	ldr	r3, [pc, #76]	@ (266f4 <_start+0x25b0>)
   266a8:	446b      	add	r3, sp
   266aa:	930c      	str	r3, [sp, #48]	@ 0x30
   266ac:	c864      	ldmia	r0!, {r2, r5, r6}
   266ae:	c364      	stmia	r3!, {r2, r5, r6}
   266b0:	c866      	ldmia	r0!, {r1, r2, r5, r6}
   266b2:	c366      	stmia	r3!, {r1, r2, r5, r6}
   266b4:	c826      	ldmia	r0!, {r1, r2, r5}
   266b6:	c326      	stmia	r3!, {r1, r2, r5}
   266b8:	c866      	ldmia	r0!, {r1, r2, r5, r6}
   266ba:	c366      	stmia	r3!, {r1, r2, r5, r6}
   266bc:	990b      	ldr	r1, [sp, #44]	@ 0x2c
   266be:	0e08      	lsrs	r0, r1, #24
   266c0:	71a0      	strb	r0, [r4, #6]
   266c2:	0c08      	lsrs	r0, r1, #16
   266c4:	7160      	strb	r0, [r4, #5]
   266c6:	0a08      	lsrs	r0, r1, #8
   266c8:	7120      	strb	r0, [r4, #4]
   266ca:	70e1      	strb	r1, [r4, #3]
   266cc:	1de0      	adds	r0, r4, #7
   266ce:	2238      	movs	r2, #56	@ 0x38
   266d0:	990c      	ldr	r1, [sp, #48]	@ 0x30
   266d2:	f000 fc9a 	bl	2700a <__aeabi_memcpy>
   266d6:	4d05      	ldr	r5, [pc, #20]	@ (266ec <_start+0x25a8>)
   266d8:	446d      	add	r5, sp
   266da:	4628      	mov	r0, r5
   266dc:	4621      	mov	r1, r4
   266de:	f7fc f9cf 	bl	22a80 <_ZN18complex_no_dynamic3app17ha88d2b092ef53f99E>
   266e2:	7828      	ldrb	r0, [r5, #0]
   266e4:	2801      	cmp	r0, #1
   266e6:	d107      	bne.n	266f8 <_start+0x25b4>
   266e8:	e288      	b.n	26bfc <_start+0x2ab8>
   266ea:	46c0      	nop			@ (mov r8, r8)
   266ec:	000013cc 	.word	0x000013cc
   266f0:	000010ac 	.word	0x000010ac
   266f4:	00001370 	.word	0x00001370
   266f8:	4816      	ldr	r0, [pc, #88]	@ (26754 <_start+0x2610>)
   266fa:	4468      	add	r0, sp
   266fc:	78c1      	ldrb	r1, [r0, #3]
   266fe:	4c16      	ldr	r4, [pc, #88]	@ (26758 <_start+0x2614>)
   26700:	446c      	add	r4, sp
   26702:	70a1      	strb	r1, [r4, #2]
   26704:	7841      	ldrb	r1, [r0, #1]
   26706:	7882      	ldrb	r2, [r0, #2]
   26708:	0212      	lsls	r2, r2, #8
   2670a:	1851      	adds	r1, r2, r1
   2670c:	8021      	strh	r1, [r4, #0]
   2670e:	3008      	adds	r0, #8
   26710:	9905      	ldr	r1, [sp, #20]
   26712:	6e09      	ldr	r1, [r1, #96]	@ 0x60
   26714:	4b11      	ldr	r3, [pc, #68]	@ (2675c <_start+0x2618>)
   26716:	446b      	add	r3, sp
   26718:	930c      	str	r3, [sp, #48]	@ 0x30
   2671a:	c860      	ldmia	r0!, {r5, r6}
   2671c:	c360      	stmia	r3!, {r5, r6}
   2671e:	c864      	ldmia	r0!, {r2, r5, r6}
   26720:	c364      	stmia	r3!, {r2, r5, r6}
   26722:	7800      	ldrb	r0, [r0, #0]
   26724:	7018      	strb	r0, [r3, #0]
   26726:	0e08      	lsrs	r0, r1, #24
   26728:	71a0      	strb	r0, [r4, #6]
   2672a:	0c08      	lsrs	r0, r1, #16
   2672c:	7160      	strb	r0, [r4, #5]
   2672e:	0a08      	lsrs	r0, r1, #8
   26730:	7120      	strb	r0, [r4, #4]
   26732:	70e1      	strb	r1, [r4, #3]
   26734:	1de0      	adds	r0, r4, #7
   26736:	2215      	movs	r2, #21
   26738:	990c      	ldr	r1, [sp, #48]	@ 0x30
   2673a:	f000 fc66 	bl	2700a <__aeabi_memcpy>
   2673e:	4d05      	ldr	r5, [pc, #20]	@ (26754 <_start+0x2610>)
   26740:	446d      	add	r5, sp
   26742:	4628      	mov	r0, r5
   26744:	4621      	mov	r1, r4
   26746:	f7fb fd73 	bl	22230 <_ZN18complex_no_dynamic3app17h85bc942de68c5f51E>
   2674a:	7828      	ldrb	r0, [r5, #0]
   2674c:	2801      	cmp	r0, #1
   2674e:	d107      	bne.n	26760 <_start+0x261c>
   26750:	e254      	b.n	26bfc <_start+0x2ab8>
   26752:	46c0      	nop			@ (mov r8, r8)
   26754:	000013cc 	.word	0x000013cc
   26758:	000010ec 	.word	0x000010ec
   2675c:	00001370 	.word	0x00001370
   26760:	4915      	ldr	r1, [pc, #84]	@ (267b8 <_start+0x2674>)
   26762:	4469      	add	r1, sp
   26764:	78c8      	ldrb	r0, [r1, #3]
   26766:	4c15      	ldr	r4, [pc, #84]	@ (267bc <_start+0x2678>)
   26768:	446c      	add	r4, sp
   2676a:	70a0      	strb	r0, [r4, #2]
   2676c:	7848      	ldrb	r0, [r1, #1]
   2676e:	788a      	ldrb	r2, [r1, #2]
   26770:	0212      	lsls	r2, r2, #8
   26772:	1810      	adds	r0, r2, r0
   26774:	8020      	strh	r0, [r4, #0]
   26776:	9805      	ldr	r0, [sp, #20]
   26778:	6e05      	ldr	r5, [r0, #96]	@ 0x60
   2677a:	3108      	adds	r1, #8
   2677c:	4810      	ldr	r0, [pc, #64]	@ (267c0 <_start+0x267c>)
   2677e:	4468      	add	r0, sp
   26780:	900c      	str	r0, [sp, #48]	@ 0x30
   26782:	2656      	movs	r6, #86	@ 0x56
   26784:	4632      	mov	r2, r6
   26786:	f000 fae0 	bl	26d4a <__aeabi_memcpy4>
   2678a:	0e28      	lsrs	r0, r5, #24
   2678c:	71a0      	strb	r0, [r4, #6]
   2678e:	0c28      	lsrs	r0, r5, #16
   26790:	7160      	strb	r0, [r4, #5]
   26792:	0a28      	lsrs	r0, r5, #8
   26794:	7120      	strb	r0, [r4, #4]
   26796:	70e5      	strb	r5, [r4, #3]
   26798:	1de0      	adds	r0, r4, #7
   2679a:	990c      	ldr	r1, [sp, #48]	@ 0x30
   2679c:	4632      	mov	r2, r6
   2679e:	f000 fc34 	bl	2700a <__aeabi_memcpy>
   267a2:	4d05      	ldr	r5, [pc, #20]	@ (267b8 <_start+0x2674>)
   267a4:	446d      	add	r5, sp
   267a6:	4628      	mov	r0, r5
   267a8:	4621      	mov	r1, r4
   267aa:	f7f9 fe51 	bl	20450 <_ZN18complex_no_dynamic3app17h0d28ba1d081ee700E>
   267ae:	7828      	ldrb	r0, [r5, #0]
   267b0:	2801      	cmp	r0, #1
   267b2:	d107      	bne.n	267c4 <_start+0x2680>
   267b4:	e222      	b.n	26bfc <_start+0x2ab8>
   267b6:	46c0      	nop			@ (mov r8, r8)
   267b8:	000013cc 	.word	0x000013cc
   267bc:	00001108 	.word	0x00001108
   267c0:	00001370 	.word	0x00001370
   267c4:	4915      	ldr	r1, [pc, #84]	@ (2681c <_start+0x26d8>)
   267c6:	4469      	add	r1, sp
   267c8:	9b05      	ldr	r3, [sp, #20]
   267ca:	6ed8      	ldr	r0, [r3, #108]	@ 0x6c
   267cc:	8108      	strh	r0, [r1, #8]
   267ce:	4814      	ldr	r0, [pc, #80]	@ (26820 <_start+0x26dc>)
   267d0:	4468      	add	r0, sp
   267d2:	78c2      	ldrb	r2, [r0, #3]
   267d4:	4c13      	ldr	r4, [pc, #76]	@ (26824 <_start+0x26e0>)
   267d6:	446c      	add	r4, sp
   267d8:	70a2      	strb	r2, [r4, #2]
   267da:	7c82      	ldrb	r2, [r0, #18]
   267dc:	728a      	strb	r2, [r1, #10]
   267de:	7842      	ldrb	r2, [r0, #1]
   267e0:	7880      	ldrb	r0, [r0, #2]
   267e2:	0200      	lsls	r0, r0, #8
   267e4:	1880      	adds	r0, r0, r2
   267e6:	8020      	strh	r0, [r4, #0]
   267e8:	6e18      	ldr	r0, [r3, #96]	@ 0x60
   267ea:	70e0      	strb	r0, [r4, #3]
   267ec:	0e02      	lsrs	r2, r0, #24
   267ee:	71a2      	strb	r2, [r4, #6]
   267f0:	0c02      	lsrs	r2, r0, #16
   267f2:	7162      	strb	r2, [r4, #5]
   267f4:	0a00      	lsrs	r0, r0, #8
   267f6:	7120      	strb	r0, [r4, #4]
   267f8:	6e58      	ldr	r0, [r3, #100]	@ 0x64
   267fa:	6e9a      	ldr	r2, [r3, #104]	@ 0x68
   267fc:	c305      	stmia	r3!, {r0, r2}
   267fe:	1de0      	adds	r0, r4, #7
   26800:	220b      	movs	r2, #11
   26802:	f000 fc02 	bl	2700a <__aeabi_memcpy>
   26806:	4d06      	ldr	r5, [pc, #24]	@ (26820 <_start+0x26dc>)
   26808:	446d      	add	r5, sp
   2680a:	4628      	mov	r0, r5
   2680c:	4621      	mov	r1, r4
   2680e:	f7fa f999 	bl	20b44 <_ZN18complex_no_dynamic3app17h21af1c329fdc5fb9E>
   26812:	7828      	ldrb	r0, [r5, #0]
   26814:	2801      	cmp	r0, #1
   26816:	d107      	bne.n	26828 <_start+0x26e4>
   26818:	e1f0      	b.n	26bfc <_start+0x2ab8>
   2681a:	46c0      	nop			@ (mov r8, r8)
   2681c:	00001370 	.word	0x00001370
   26820:	000013cc 	.word	0x000013cc
   26824:	00001168 	.word	0x00001168
   26828:	48f7      	ldr	r0, [pc, #988]	@ (26c08 <_start+0x2ac4>)
   2682a:	4468      	add	r0, sp
   2682c:	78c1      	ldrb	r1, [r0, #3]
   2682e:	4cf7      	ldr	r4, [pc, #988]	@ (26c0c <_start+0x2ac8>)
   26830:	446c      	add	r4, sp
   26832:	70a1      	strb	r1, [r4, #2]
   26834:	7841      	ldrb	r1, [r0, #1]
   26836:	7882      	ldrb	r2, [r0, #2]
   26838:	0212      	lsls	r2, r2, #8
   2683a:	1851      	adds	r1, r2, r1
   2683c:	8021      	strh	r1, [r4, #0]
   2683e:	3008      	adds	r0, #8
   26840:	9905      	ldr	r1, [sp, #20]
   26842:	6e09      	ldr	r1, [r1, #96]	@ 0x60
   26844:	910b      	str	r1, [sp, #44]	@ 0x2c
   26846:	4bf2      	ldr	r3, [pc, #968]	@ (26c10 <_start+0x2acc>)
   26848:	446b      	add	r3, sp
   2684a:	930c      	str	r3, [sp, #48]	@ 0x30
   2684c:	c864      	ldmia	r0!, {r2, r5, r6}
   2684e:	c364      	stmia	r3!, {r2, r5, r6}
   26850:	c866      	ldmia	r0!, {r1, r2, r5, r6}
   26852:	c366      	stmia	r3!, {r1, r2, r5, r6}
   26854:	c866      	ldmia	r0!, {r1, r2, r5, r6}
   26856:	c366      	stmia	r3!, {r1, r2, r5, r6}
   26858:	c866      	ldmia	r0!, {r1, r2, r5, r6}
   2685a:	c366      	stmia	r3!, {r1, r2, r5, r6}
   2685c:	7800      	ldrb	r0, [r0, #0]
   2685e:	7018      	strb	r0, [r3, #0]
   26860:	990b      	ldr	r1, [sp, #44]	@ 0x2c
   26862:	0e08      	lsrs	r0, r1, #24
   26864:	71a0      	strb	r0, [r4, #6]
   26866:	0c08      	lsrs	r0, r1, #16
   26868:	7160      	strb	r0, [r4, #5]
   2686a:	0a08      	lsrs	r0, r1, #8
   2686c:	7120      	strb	r0, [r4, #4]
   2686e:	70e1      	strb	r1, [r4, #3]
   26870:	1de0      	adds	r0, r4, #7
   26872:	223d      	movs	r2, #61	@ 0x3d
   26874:	990c      	ldr	r1, [sp, #48]	@ 0x30
   26876:	f000 fbc8 	bl	2700a <__aeabi_memcpy>
   2687a:	4de3      	ldr	r5, [pc, #908]	@ (26c08 <_start+0x2ac4>)
   2687c:	446d      	add	r5, sp
   2687e:	4628      	mov	r0, r5
   26880:	4621      	mov	r1, r4
   26882:	f7fa fabb 	bl	20dfc <_ZN18complex_no_dynamic3app17h2fc5ac383cd6e47eE>
   26886:	7828      	ldrb	r0, [r5, #0]
   26888:	2801      	cmp	r0, #1
   2688a:	d100      	bne.n	2688e <_start+0x274a>
   2688c:	e1b6      	b.n	26bfc <_start+0x2ab8>
   2688e:	48fb      	ldr	r0, [pc, #1004]	@ (26c7c <_start+0x2b38>)
   26890:	4468      	add	r0, sp
   26892:	78c1      	ldrb	r1, [r0, #3]
   26894:	4cfb      	ldr	r4, [pc, #1004]	@ (26c84 <_start+0x2b40>)
   26896:	446c      	add	r4, sp
   26898:	70a1      	strb	r1, [r4, #2]
   2689a:	7841      	ldrb	r1, [r0, #1]
   2689c:	7882      	ldrb	r2, [r0, #2]
   2689e:	0212      	lsls	r2, r2, #8
   268a0:	1851      	adds	r1, r2, r1
   268a2:	8021      	strh	r1, [r4, #0]
   268a4:	3008      	adds	r0, #8
   268a6:	9905      	ldr	r1, [sp, #20]
   268a8:	6e09      	ldr	r1, [r1, #96]	@ 0x60
   268aa:	910b      	str	r1, [sp, #44]	@ 0x2c
   268ac:	4bf4      	ldr	r3, [pc, #976]	@ (26c80 <_start+0x2b3c>)
   268ae:	446b      	add	r3, sp
   268b0:	930c      	str	r3, [sp, #48]	@ 0x30
   268b2:	c864      	ldmia	r0!, {r2, r5, r6}
   268b4:	c364      	stmia	r3!, {r2, r5, r6}
   268b6:	c866      	ldmia	r0!, {r1, r2, r5, r6}
   268b8:	c366      	stmia	r3!, {r1, r2, r5, r6}
   268ba:	990b      	ldr	r1, [sp, #44]	@ 0x2c
   268bc:	0e08      	lsrs	r0, r1, #24
   268be:	71a0      	strb	r0, [r4, #6]
   268c0:	0c08      	lsrs	r0, r1, #16
   268c2:	7160      	strb	r0, [r4, #5]
   268c4:	0a08      	lsrs	r0, r1, #8
   268c6:	7120      	strb	r0, [r4, #4]
   268c8:	70e1      	strb	r1, [r4, #3]
   268ca:	1de0      	adds	r0, r4, #7
   268cc:	221c      	movs	r2, #28
   268ce:	990c      	ldr	r1, [sp, #48]	@ 0x30
   268d0:	f000 fb9b 	bl	2700a <__aeabi_memcpy>
   268d4:	4de9      	ldr	r5, [pc, #932]	@ (26c7c <_start+0x2b38>)
   268d6:	446d      	add	r5, sp
   268d8:	4628      	mov	r0, r5
   268da:	4621      	mov	r1, r4
   268dc:	f7fa ff9a 	bl	21814 <_ZN18complex_no_dynamic3app17h53435a79727c9325E>
   268e0:	7828      	ldrb	r0, [r5, #0]
   268e2:	2801      	cmp	r0, #1
   268e4:	d100      	bne.n	268e8 <_start+0x27a4>
   268e6:	e189      	b.n	26bfc <_start+0x2ab8>
   268e8:	48e4      	ldr	r0, [pc, #912]	@ (26c7c <_start+0x2b38>)
   268ea:	4468      	add	r0, sp
   268ec:	78c1      	ldrb	r1, [r0, #3]
   268ee:	4ce6      	ldr	r4, [pc, #920]	@ (26c88 <_start+0x2b44>)
   268f0:	446c      	add	r4, sp
   268f2:	70a1      	strb	r1, [r4, #2]
   268f4:	7841      	ldrb	r1, [r0, #1]
   268f6:	7882      	ldrb	r2, [r0, #2]
   268f8:	0212      	lsls	r2, r2, #8
   268fa:	1851      	adds	r1, r2, r1
   268fc:	8021      	strh	r1, [r4, #0]
   268fe:	3008      	adds	r0, #8
   26900:	9905      	ldr	r1, [sp, #20]
   26902:	6e09      	ldr	r1, [r1, #96]	@ 0x60
   26904:	910b      	str	r1, [sp, #44]	@ 0x2c
   26906:	4bde      	ldr	r3, [pc, #888]	@ (26c80 <_start+0x2b3c>)
   26908:	446b      	add	r3, sp
   2690a:	930c      	str	r3, [sp, #48]	@ 0x30
   2690c:	c864      	ldmia	r0!, {r2, r5, r6}
   2690e:	c364      	stmia	r3!, {r2, r5, r6}
   26910:	c866      	ldmia	r0!, {r1, r2, r5, r6}
   26912:	c366      	stmia	r3!, {r1, r2, r5, r6}
   26914:	7800      	ldrb	r0, [r0, #0]
   26916:	7018      	strb	r0, [r3, #0]
   26918:	990b      	ldr	r1, [sp, #44]	@ 0x2c
   2691a:	0e08      	lsrs	r0, r1, #24
   2691c:	71a0      	strb	r0, [r4, #6]
   2691e:	0c08      	lsrs	r0, r1, #16
   26920:	7160      	strb	r0, [r4, #5]
   26922:	0a08      	lsrs	r0, r1, #8
   26924:	7120      	strb	r0, [r4, #4]
   26926:	70e1      	strb	r1, [r4, #3]
   26928:	1de0      	adds	r0, r4, #7
   2692a:	221d      	movs	r2, #29
   2692c:	990c      	ldr	r1, [sp, #48]	@ 0x30
   2692e:	f000 fb6c 	bl	2700a <__aeabi_memcpy>
   26932:	4dd2      	ldr	r5, [pc, #840]	@ (26c7c <_start+0x2b38>)
   26934:	446d      	add	r5, sp
   26936:	4628      	mov	r0, r5
   26938:	4621      	mov	r1, r4
   2693a:	f7fc fb55 	bl	22fe8 <_ZN18complex_no_dynamic3app17hbc9c8abcf1cda53eE>
   2693e:	7828      	ldrb	r0, [r5, #0]
   26940:	2801      	cmp	r0, #1
   26942:	d100      	bne.n	26946 <_start+0x2802>
   26944:	e15a      	b.n	26bfc <_start+0x2ab8>
   26946:	48cd      	ldr	r0, [pc, #820]	@ (26c7c <_start+0x2b38>)
   26948:	4468      	add	r0, sp
   2694a:	78c1      	ldrb	r1, [r0, #3]
   2694c:	4ccf      	ldr	r4, [pc, #828]	@ (26c8c <_start+0x2b48>)
   2694e:	446c      	add	r4, sp
   26950:	70a1      	strb	r1, [r4, #2]
   26952:	7841      	ldrb	r1, [r0, #1]
   26954:	7882      	ldrb	r2, [r0, #2]
   26956:	0212      	lsls	r2, r2, #8
   26958:	1851      	adds	r1, r2, r1
   2695a:	8021      	strh	r1, [r4, #0]
   2695c:	3008      	adds	r0, #8
   2695e:	9905      	ldr	r1, [sp, #20]
   26960:	6e09      	ldr	r1, [r1, #96]	@ 0x60
   26962:	910b      	str	r1, [sp, #44]	@ 0x2c
   26964:	4bc6      	ldr	r3, [pc, #792]	@ (26c80 <_start+0x2b3c>)
   26966:	446b      	add	r3, sp
   26968:	930c      	str	r3, [sp, #48]	@ 0x30
   2696a:	c864      	ldmia	r0!, {r2, r5, r6}
   2696c:	c364      	stmia	r3!, {r2, r5, r6}
   2696e:	c864      	ldmia	r0!, {r2, r5, r6}
   26970:	c364      	stmia	r3!, {r2, r5, r6}
   26972:	c866      	ldmia	r0!, {r1, r2, r5, r6}
   26974:	c366      	stmia	r3!, {r1, r2, r5, r6}
   26976:	990b      	ldr	r1, [sp, #44]	@ 0x2c
   26978:	0e08      	lsrs	r0, r1, #24
   2697a:	71a0      	strb	r0, [r4, #6]
   2697c:	0c08      	lsrs	r0, r1, #16
   2697e:	7160      	strb	r0, [r4, #5]
   26980:	0a08      	lsrs	r0, r1, #8
   26982:	7120      	strb	r0, [r4, #4]
   26984:	70e1      	strb	r1, [r4, #3]
   26986:	1de0      	adds	r0, r4, #7
   26988:	2228      	movs	r2, #40	@ 0x28
   2698a:	990c      	ldr	r1, [sp, #48]	@ 0x30
   2698c:	f000 fb3d 	bl	2700a <__aeabi_memcpy>
   26990:	4dba      	ldr	r5, [pc, #744]	@ (26c7c <_start+0x2b38>)
   26992:	446d      	add	r5, sp
   26994:	4628      	mov	r0, r5
   26996:	4621      	mov	r1, r4
   26998:	f7fa fe3a 	bl	21610 <_ZN18complex_no_dynamic3app17h52ba18524848a7faE>
   2699c:	7828      	ldrb	r0, [r5, #0]
   2699e:	2801      	cmp	r0, #1
   269a0:	d100      	bne.n	269a4 <_start+0x2860>
   269a2:	e12b      	b.n	26bfc <_start+0x2ab8>
   269a4:	49b5      	ldr	r1, [pc, #724]	@ (26c7c <_start+0x2b38>)
   269a6:	4469      	add	r1, sp
   269a8:	78c8      	ldrb	r0, [r1, #3]
   269aa:	4cb9      	ldr	r4, [pc, #740]	@ (26c90 <_start+0x2b4c>)
   269ac:	446c      	add	r4, sp
   269ae:	70a0      	strb	r0, [r4, #2]
   269b0:	7848      	ldrb	r0, [r1, #1]
   269b2:	788a      	ldrb	r2, [r1, #2]
   269b4:	0212      	lsls	r2, r2, #8
   269b6:	1810      	adds	r0, r2, r0
   269b8:	8020      	strh	r0, [r4, #0]
   269ba:	9805      	ldr	r0, [sp, #20]
   269bc:	6e05      	ldr	r5, [r0, #96]	@ 0x60
   269be:	3108      	adds	r1, #8
   269c0:	48af      	ldr	r0, [pc, #700]	@ (26c80 <_start+0x2b3c>)
   269c2:	4468      	add	r0, sp
   269c4:	900c      	str	r0, [sp, #48]	@ 0x30
   269c6:	2657      	movs	r6, #87	@ 0x57
   269c8:	4632      	mov	r2, r6
   269ca:	f000 f9be 	bl	26d4a <__aeabi_memcpy4>
   269ce:	0e28      	lsrs	r0, r5, #24
   269d0:	71a0      	strb	r0, [r4, #6]
   269d2:	0c28      	lsrs	r0, r5, #16
   269d4:	7160      	strb	r0, [r4, #5]
   269d6:	0a28      	lsrs	r0, r5, #8
   269d8:	7120      	strb	r0, [r4, #4]
   269da:	70e5      	strb	r5, [r4, #3]
   269dc:	1de0      	adds	r0, r4, #7
   269de:	990c      	ldr	r1, [sp, #48]	@ 0x30
   269e0:	4632      	mov	r2, r6
   269e2:	f000 fb12 	bl	2700a <__aeabi_memcpy>
   269e6:	4da5      	ldr	r5, [pc, #660]	@ (26c7c <_start+0x2b38>)
   269e8:	446d      	add	r5, sp
   269ea:	4628      	mov	r0, r5
   269ec:	4621      	mov	r1, r4
   269ee:	f7fb fa1d 	bl	21e2c <_ZN18complex_no_dynamic3app17h7804bfcfafed93b8E>
   269f2:	7828      	ldrb	r0, [r5, #0]
   269f4:	2801      	cmp	r0, #1
   269f6:	d100      	bne.n	269fa <_start+0x28b6>
   269f8:	e100      	b.n	26bfc <_start+0x2ab8>
   269fa:	49a0      	ldr	r1, [pc, #640]	@ (26c7c <_start+0x2b38>)
   269fc:	4469      	add	r1, sp
   269fe:	78c8      	ldrb	r0, [r1, #3]
   26a00:	4ca4      	ldr	r4, [pc, #656]	@ (26c94 <_start+0x2b50>)
   26a02:	446c      	add	r4, sp
   26a04:	70a0      	strb	r0, [r4, #2]
   26a06:	7848      	ldrb	r0, [r1, #1]
   26a08:	788a      	ldrb	r2, [r1, #2]
   26a0a:	0212      	lsls	r2, r2, #8
   26a0c:	1810      	adds	r0, r2, r0
   26a0e:	8020      	strh	r0, [r4, #0]
   26a10:	9805      	ldr	r0, [sp, #20]
   26a12:	6e05      	ldr	r5, [r0, #96]	@ 0x60
   26a14:	3108      	adds	r1, #8
   26a16:	489a      	ldr	r0, [pc, #616]	@ (26c80 <_start+0x2b3c>)
   26a18:	4468      	add	r0, sp
   26a1a:	900c      	str	r0, [sp, #48]	@ 0x30
   26a1c:	264e      	movs	r6, #78	@ 0x4e
   26a1e:	4632      	mov	r2, r6
   26a20:	f000 f993 	bl	26d4a <__aeabi_memcpy4>
   26a24:	0e28      	lsrs	r0, r5, #24
   26a26:	71a0      	strb	r0, [r4, #6]
   26a28:	0c28      	lsrs	r0, r5, #16
   26a2a:	7160      	strb	r0, [r4, #5]
   26a2c:	0a28      	lsrs	r0, r5, #8
   26a2e:	7120      	strb	r0, [r4, #4]
   26a30:	70e5      	strb	r5, [r4, #3]
   26a32:	1de0      	adds	r0, r4, #7
   26a34:	990c      	ldr	r1, [sp, #48]	@ 0x30
   26a36:	4632      	mov	r2, r6
   26a38:	f000 fae7 	bl	2700a <__aeabi_memcpy>
   26a3c:	4d8f      	ldr	r5, [pc, #572]	@ (26c7c <_start+0x2b38>)
   26a3e:	446d      	add	r5, sp
   26a40:	4628      	mov	r0, r5
   26a42:	4621      	mov	r1, r4
   26a44:	f7fc fd32 	bl	234ac <_ZN18complex_no_dynamic3app17hd0b00fcd24289745E>
   26a48:	7828      	ldrb	r0, [r5, #0]
   26a4a:	2801      	cmp	r0, #1
   26a4c:	d100      	bne.n	26a50 <_start+0x290c>
   26a4e:	e0d5      	b.n	26bfc <_start+0x2ab8>
   26a50:	498b      	ldr	r1, [pc, #556]	@ (26c80 <_start+0x2b3c>)
   26a52:	4469      	add	r1, sp
   26a54:	9b05      	ldr	r3, [sp, #20]
   26a56:	6ed8      	ldr	r0, [r3, #108]	@ 0x6c
   26a58:	8108      	strh	r0, [r1, #8]
   26a5a:	4888      	ldr	r0, [pc, #544]	@ (26c7c <_start+0x2b38>)
   26a5c:	4468      	add	r0, sp
   26a5e:	78c2      	ldrb	r2, [r0, #3]
   26a60:	4c8d      	ldr	r4, [pc, #564]	@ (26c98 <_start+0x2b54>)
   26a62:	446c      	add	r4, sp
   26a64:	70a2      	strb	r2, [r4, #2]
   26a66:	7842      	ldrb	r2, [r0, #1]
   26a68:	7880      	ldrb	r0, [r0, #2]
   26a6a:	0200      	lsls	r0, r0, #8
   26a6c:	1880      	adds	r0, r0, r2
   26a6e:	8020      	strh	r0, [r4, #0]
   26a70:	6e18      	ldr	r0, [r3, #96]	@ 0x60
   26a72:	70e0      	strb	r0, [r4, #3]
   26a74:	0e02      	lsrs	r2, r0, #24
   26a76:	71a2      	strb	r2, [r4, #6]
   26a78:	0c02      	lsrs	r2, r0, #16
   26a7a:	7162      	strb	r2, [r4, #5]
   26a7c:	0a00      	lsrs	r0, r0, #8
   26a7e:	7120      	strb	r0, [r4, #4]
   26a80:	6e58      	ldr	r0, [r3, #100]	@ 0x64
   26a82:	6e9a      	ldr	r2, [r3, #104]	@ 0x68
   26a84:	c305      	stmia	r3!, {r0, r2}
   26a86:	1de0      	adds	r0, r4, #7
   26a88:	220a      	movs	r2, #10
   26a8a:	f000 fabe 	bl	2700a <__aeabi_memcpy>
   26a8e:	4d7b      	ldr	r5, [pc, #492]	@ (26c7c <_start+0x2b38>)
   26a90:	446d      	add	r5, sp
   26a92:	4628      	mov	r0, r5
   26a94:	4621      	mov	r1, r4
   26a96:	f7fc f94f 	bl	22d38 <_ZN18complex_no_dynamic3app17hb89bffa5dcb40668E>
   26a9a:	7828      	ldrb	r0, [r5, #0]
   26a9c:	2801      	cmp	r0, #1
   26a9e:	d100      	bne.n	26aa2 <_start+0x295e>
   26aa0:	e0ac      	b.n	26bfc <_start+0x2ab8>
   26aa2:	4976      	ldr	r1, [pc, #472]	@ (26c7c <_start+0x2b38>)
   26aa4:	4469      	add	r1, sp
   26aa6:	78c8      	ldrb	r0, [r1, #3]
   26aa8:	4c7c      	ldr	r4, [pc, #496]	@ (26c9c <_start+0x2b58>)
   26aaa:	446c      	add	r4, sp
   26aac:	70a0      	strb	r0, [r4, #2]
   26aae:	7848      	ldrb	r0, [r1, #1]
   26ab0:	788a      	ldrb	r2, [r1, #2]
   26ab2:	0212      	lsls	r2, r2, #8
   26ab4:	1810      	adds	r0, r2, r0
   26ab6:	8020      	strh	r0, [r4, #0]
   26ab8:	9805      	ldr	r0, [sp, #20]
   26aba:	6e05      	ldr	r5, [r0, #96]	@ 0x60
   26abc:	3108      	adds	r1, #8
   26abe:	4870      	ldr	r0, [pc, #448]	@ (26c80 <_start+0x2b3c>)
   26ac0:	4468      	add	r0, sp
   26ac2:	900c      	str	r0, [sp, #48]	@ 0x30
   26ac4:	2649      	movs	r6, #73	@ 0x49
   26ac6:	4632      	mov	r2, r6
   26ac8:	f000 f93f 	bl	26d4a <__aeabi_memcpy4>
   26acc:	0e28      	lsrs	r0, r5, #24
   26ace:	71a0      	strb	r0, [r4, #6]
   26ad0:	0c28      	lsrs	r0, r5, #16
   26ad2:	7160      	strb	r0, [r4, #5]
   26ad4:	0a28      	lsrs	r0, r5, #8
   26ad6:	7120      	strb	r0, [r4, #4]
   26ad8:	70e5      	strb	r5, [r4, #3]
   26ada:	1de0      	adds	r0, r4, #7
   26adc:	990c      	ldr	r1, [sp, #48]	@ 0x30
   26ade:	4632      	mov	r2, r6
   26ae0:	f000 fa93 	bl	2700a <__aeabi_memcpy>
   26ae4:	4d65      	ldr	r5, [pc, #404]	@ (26c7c <_start+0x2b38>)
   26ae6:	446d      	add	r5, sp
   26ae8:	4628      	mov	r0, r5
   26aea:	4621      	mov	r1, r4
   26aec:	f7fd fa76 	bl	23fdc <_ZN18complex_no_dynamic3app17hfe6077ccf68d2d88E>
   26af0:	7828      	ldrb	r0, [r5, #0]
   26af2:	2801      	cmp	r0, #1
   26af4:	d100      	bne.n	26af8 <_start+0x29b4>
   26af6:	e081      	b.n	26bfc <_start+0x2ab8>
   26af8:	4860      	ldr	r0, [pc, #384]	@ (26c7c <_start+0x2b38>)
   26afa:	4468      	add	r0, sp
   26afc:	78c1      	ldrb	r1, [r0, #3]
   26afe:	4c68      	ldr	r4, [pc, #416]	@ (26ca0 <_start+0x2b5c>)
   26b00:	446c      	add	r4, sp
   26b02:	70a1      	strb	r1, [r4, #2]
   26b04:	7841      	ldrb	r1, [r0, #1]
   26b06:	7882      	ldrb	r2, [r0, #2]
   26b08:	0212      	lsls	r2, r2, #8
   26b0a:	1851      	adds	r1, r2, r1
   26b0c:	8021      	strh	r1, [r4, #0]
   26b0e:	3008      	adds	r0, #8
   26b10:	9905      	ldr	r1, [sp, #20]
   26b12:	6e09      	ldr	r1, [r1, #96]	@ 0x60
   26b14:	4b5a      	ldr	r3, [pc, #360]	@ (26c80 <_start+0x2b3c>)
   26b16:	446b      	add	r3, sp
   26b18:	930c      	str	r3, [sp, #48]	@ 0x30
   26b1a:	c860      	ldmia	r0!, {r5, r6}
   26b1c:	c360      	stmia	r3!, {r5, r6}
   26b1e:	c864      	ldmia	r0!, {r2, r5, r6}
   26b20:	c364      	stmia	r3!, {r2, r5, r6}
   26b22:	0e08      	lsrs	r0, r1, #24
   26b24:	71a0      	strb	r0, [r4, #6]
   26b26:	0c08      	lsrs	r0, r1, #16
   26b28:	7160      	strb	r0, [r4, #5]
   26b2a:	0a08      	lsrs	r0, r1, #8
   26b2c:	7120      	strb	r0, [r4, #4]
   26b2e:	70e1      	strb	r1, [r4, #3]
   26b30:	1de0      	adds	r0, r4, #7
   26b32:	2214      	movs	r2, #20
   26b34:	990c      	ldr	r1, [sp, #48]	@ 0x30
   26b36:	f000 fa68 	bl	2700a <__aeabi_memcpy>
   26b3a:	4d50      	ldr	r5, [pc, #320]	@ (26c7c <_start+0x2b38>)
   26b3c:	446d      	add	r5, sp
   26b3e:	4628      	mov	r0, r5
   26b40:	4621      	mov	r1, r4
   26b42:	f7fd f9f5 	bl	23f30 <_ZN18complex_no_dynamic3app17hfd0a5147b767d587E>
   26b46:	7828      	ldrb	r0, [r5, #0]
   26b48:	2801      	cmp	r0, #1
   26b4a:	d057      	beq.n	26bfc <_start+0x2ab8>
   26b4c:	494b      	ldr	r1, [pc, #300]	@ (26c7c <_start+0x2b38>)
   26b4e:	4469      	add	r1, sp
   26b50:	78c8      	ldrb	r0, [r1, #3]
   26b52:	4c54      	ldr	r4, [pc, #336]	@ (26ca4 <_start+0x2b60>)
   26b54:	446c      	add	r4, sp
   26b56:	70a0      	strb	r0, [r4, #2]
   26b58:	7848      	ldrb	r0, [r1, #1]
   26b5a:	788a      	ldrb	r2, [r1, #2]
   26b5c:	0212      	lsls	r2, r2, #8
   26b5e:	1810      	adds	r0, r2, r0
   26b60:	8020      	strh	r0, [r4, #0]
   26b62:	9805      	ldr	r0, [sp, #20]
   26b64:	6e05      	ldr	r5, [r0, #96]	@ 0x60
   26b66:	3108      	adds	r1, #8
   26b68:	4845      	ldr	r0, [pc, #276]	@ (26c80 <_start+0x2b3c>)
   26b6a:	4468      	add	r0, sp
   26b6c:	900c      	str	r0, [sp, #48]	@ 0x30
   26b6e:	265c      	movs	r6, #92	@ 0x5c
   26b70:	4632      	mov	r2, r6
   26b72:	f000 f8ea 	bl	26d4a <__aeabi_memcpy4>
   26b76:	0e28      	lsrs	r0, r5, #24
   26b78:	71a0      	strb	r0, [r4, #6]
   26b7a:	0c28      	lsrs	r0, r5, #16
   26b7c:	7160      	strb	r0, [r4, #5]
   26b7e:	0a28      	lsrs	r0, r5, #8
   26b80:	7120      	strb	r0, [r4, #4]
   26b82:	70e5      	strb	r5, [r4, #3]
   26b84:	1de0      	adds	r0, r4, #7
   26b86:	990c      	ldr	r1, [sp, #48]	@ 0x30
   26b88:	4632      	mov	r2, r6
   26b8a:	f000 fa3e 	bl	2700a <__aeabi_memcpy>
   26b8e:	4d3b      	ldr	r5, [pc, #236]	@ (26c7c <_start+0x2b38>)
   26b90:	446d      	add	r5, sp
   26b92:	4628      	mov	r0, r5
   26b94:	4621      	mov	r1, r4
   26b96:	f7fc fe9b 	bl	238d0 <_ZN18complex_no_dynamic3app17he8201c4def020c00E>
   26b9a:	7828      	ldrb	r0, [r5, #0]
   26b9c:	2801      	cmp	r0, #1
   26b9e:	d02d      	beq.n	26bfc <_start+0x2ab8>
   26ba0:	4836      	ldr	r0, [pc, #216]	@ (26c7c <_start+0x2b38>)
   26ba2:	4468      	add	r0, sp
   26ba4:	78c1      	ldrb	r1, [r0, #3]
   26ba6:	4c40      	ldr	r4, [pc, #256]	@ (26ca8 <_start+0x2b64>)
   26ba8:	446c      	add	r4, sp
   26baa:	70a1      	strb	r1, [r4, #2]
   26bac:	7841      	ldrb	r1, [r0, #1]
   26bae:	7882      	ldrb	r2, [r0, #2]
   26bb0:	0212      	lsls	r2, r2, #8
   26bb2:	1851      	adds	r1, r2, r1
   26bb4:	8021      	strh	r1, [r4, #0]
   26bb6:	3008      	adds	r0, #8
   26bb8:	9905      	ldr	r1, [sp, #20]
   26bba:	6e09      	ldr	r1, [r1, #96]	@ 0x60
   26bbc:	4b30      	ldr	r3, [pc, #192]	@ (26c80 <_start+0x2b3c>)
   26bbe:	446b      	add	r3, sp
   26bc0:	930c      	str	r3, [sp, #48]	@ 0x30
   26bc2:	c864      	ldmia	r0!, {r2, r5, r6}
   26bc4:	c364      	stmia	r3!, {r2, r5, r6}
   26bc6:	c864      	ldmia	r0!, {r2, r5, r6}
   26bc8:	c364      	stmia	r3!, {r2, r5, r6}
   26bca:	c864      	ldmia	r0!, {r2, r5, r6}
   26bcc:	c364      	stmia	r3!, {r2, r5, r6}
   26bce:	7800      	ldrb	r0, [r0, #0]
   26bd0:	7018      	strb	r0, [r3, #0]
   26bd2:	0e08      	lsrs	r0, r1, #24
   26bd4:	71a0      	strb	r0, [r4, #6]
   26bd6:	0c08      	lsrs	r0, r1, #16
   26bd8:	7160      	strb	r0, [r4, #5]
   26bda:	0a08      	lsrs	r0, r1, #8
   26bdc:	7120      	strb	r0, [r4, #4]
   26bde:	70e1      	strb	r1, [r4, #3]
   26be0:	1de0      	adds	r0, r4, #7
   26be2:	2225      	movs	r2, #37	@ 0x25
   26be4:	990c      	ldr	r1, [sp, #48]	@ 0x30
   26be6:	f000 fa10 	bl	2700a <__aeabi_memcpy>
   26bea:	4d24      	ldr	r5, [pc, #144]	@ (26c7c <_start+0x2b38>)
   26bec:	446d      	add	r5, sp
   26bee:	4628      	mov	r0, r5
   26bf0:	4621      	mov	r1, r4
   26bf2:	f7f9 fd83 	bl	206fc <_ZN18complex_no_dynamic3app17h10b27212ae94cf86E>
   26bf6:	7828      	ldrb	r0, [r5, #0]
   26bf8:	2801      	cmp	r0, #1
   26bfa:	d10b      	bne.n	26c14 <_start+0x2ad0>
   26bfc:	9805      	ldr	r0, [sp, #20]
   26bfe:	6e00      	ldr	r0, [r0, #96]	@ 0x60
   26c00:	900c      	str	r0, [sp, #48]	@ 0x30
   26c02:	f7fd fada 	bl	241ba <_start+0x76>
   26c06:	46c0      	nop			@ (mov r8, r8)
   26c08:	000013cc 	.word	0x000013cc
   26c0c:	0000117c 	.word	0x0000117c
   26c10:	00001370 	.word	0x00001370
   26c14:	4819      	ldr	r0, [pc, #100]	@ (26c7c <_start+0x2b38>)
   26c16:	4468      	add	r0, sp
   26c18:	78c1      	ldrb	r1, [r0, #3]
   26c1a:	4c24      	ldr	r4, [pc, #144]	@ (26cac <_start+0x2b68>)
   26c1c:	446c      	add	r4, sp
   26c1e:	70a1      	strb	r1, [r4, #2]
   26c20:	7841      	ldrb	r1, [r0, #1]
   26c22:	7882      	ldrb	r2, [r0, #2]
   26c24:	0212      	lsls	r2, r2, #8
   26c26:	1851      	adds	r1, r2, r1
   26c28:	8021      	strh	r1, [r4, #0]
   26c2a:	3008      	adds	r0, #8
   26c2c:	9905      	ldr	r1, [sp, #20]
   26c2e:	6e09      	ldr	r1, [r1, #96]	@ 0x60
   26c30:	910b      	str	r1, [sp, #44]	@ 0x2c
   26c32:	4b13      	ldr	r3, [pc, #76]	@ (26c80 <_start+0x2b3c>)
   26c34:	446b      	add	r3, sp
   26c36:	930c      	str	r3, [sp, #48]	@ 0x30
   26c38:	c866      	ldmia	r0!, {r1, r2, r5, r6}
   26c3a:	c366      	stmia	r3!, {r1, r2, r5, r6}
   26c3c:	c866      	ldmia	r0!, {r1, r2, r5, r6}
   26c3e:	c366      	stmia	r3!, {r1, r2, r5, r6}
   26c40:	8801      	ldrh	r1, [r0, #0]
   26c42:	8019      	strh	r1, [r3, #0]
   26c44:	7880      	ldrb	r0, [r0, #2]
   26c46:	7098      	strb	r0, [r3, #2]
   26c48:	990b      	ldr	r1, [sp, #44]	@ 0x2c
   26c4a:	0e08      	lsrs	r0, r1, #24
   26c4c:	71a0      	strb	r0, [r4, #6]
   26c4e:	0c08      	lsrs	r0, r1, #16
   26c50:	7160      	strb	r0, [r4, #5]
   26c52:	0a08      	lsrs	r0, r1, #8
   26c54:	7120      	strb	r0, [r4, #4]
   26c56:	70e1      	strb	r1, [r4, #3]
   26c58:	1de0      	adds	r0, r4, #7
   26c5a:	2223      	movs	r2, #35	@ 0x23
   26c5c:	990c      	ldr	r1, [sp, #48]	@ 0x30
   26c5e:	f000 f9d4 	bl	2700a <__aeabi_memcpy>
   26c62:	4d06      	ldr	r5, [pc, #24]	@ (26c7c <_start+0x2b38>)
   26c64:	446d      	add	r5, sp
   26c66:	4628      	mov	r0, r5
   26c68:	4621      	mov	r1, r4
   26c6a:	f7fa fe7f 	bl	2196c <_ZN18complex_no_dynamic3app17h5b37b2fa29fa0db0E>
   26c6e:	7828      	ldrb	r0, [r5, #0]
   26c70:	9905      	ldr	r1, [sp, #20]
   26c72:	6e09      	ldr	r1, [r1, #96]	@ 0x60
   26c74:	910c      	str	r1, [sp, #48]	@ 0x30
   26c76:	f7fd faa1 	bl	241bc <_start+0x78>
   26c7a:	46c0      	nop			@ (mov r8, r8)
   26c7c:	000013cc 	.word	0x000013cc
   26c80:	00001370 	.word	0x00001370
   26c84:	000011c0 	.word	0x000011c0
   26c88:	000011e4 	.word	0x000011e4
   26c8c:	00001208 	.word	0x00001208
   26c90:	00001238 	.word	0x00001238
   26c94:	00001298 	.word	0x00001298
   26c98:	000012f0 	.word	0x000012f0
   26c9c:	00001304 	.word	0x00001304
   26ca0:	00001354 	.word	0x00001354
   26ca4:	00001430 	.word	0x00001430
   26ca8:	00001494 	.word	0x00001494
   26cac:	000014c0 	.word	0x000014c0

00026cb0 <__aeabi_memclr4>:
   26cb0:	b5f0      	push	{r4, r5, r6, r7, lr}
   26cb2:	af03      	add	r7, sp, #12
   26cb4:	2904      	cmp	r1, #4
   26cb6:	d311      	bcc.n	26cdc <__aeabi_memclr4+0x2c>
   26cb8:	1f0c      	subs	r4, r1, #4
   26cba:	250c      	movs	r5, #12
   26cbc:	4025      	ands	r5, r4
   26cbe:	2d0c      	cmp	r5, #12
   26cc0:	d012      	beq.n	26ce8 <__aeabi_memclr4+0x38>
   26cc2:	2600      	movs	r6, #0
   26cc4:	4602      	mov	r2, r0
   26cc6:	c240      	stmia	r2!, {r6}
   26cc8:	0723      	lsls	r3, r4, #28
   26cca:	0f9b      	lsrs	r3, r3, #30
   26ccc:	4623      	mov	r3, r4
   26cce:	d00d      	beq.n	26cec <__aeabi_memclr4+0x3c>
   26cd0:	6046      	str	r6, [r0, #4]
   26cd2:	2d04      	cmp	r5, #4
   26cd4:	d105      	bne.n	26ce2 <__aeabi_memclr4+0x32>
   26cd6:	3908      	subs	r1, #8
   26cd8:	3008      	adds	r0, #8
   26cda:	e005      	b.n	26ce8 <__aeabi_memclr4+0x38>
   26cdc:	460b      	mov	r3, r1
   26cde:	4602      	mov	r2, r0
   26ce0:	e00f      	b.n	26d02 <__aeabi_memclr4+0x52>
   26ce2:	6086      	str	r6, [r0, #8]
   26ce4:	390c      	subs	r1, #12
   26ce6:	300c      	adds	r0, #12
   26ce8:	4602      	mov	r2, r0
   26cea:	460b      	mov	r3, r1
   26cec:	2c0c      	cmp	r4, #12
   26cee:	d308      	bcc.n	26d02 <__aeabi_memclr4+0x52>
   26cf0:	2000      	movs	r0, #0
   26cf2:	6010      	str	r0, [r2, #0]
   26cf4:	6050      	str	r0, [r2, #4]
   26cf6:	6090      	str	r0, [r2, #8]
   26cf8:	60d0      	str	r0, [r2, #12]
   26cfa:	3210      	adds	r2, #16
   26cfc:	3b10      	subs	r3, #16
   26cfe:	2b03      	cmp	r3, #3
   26d00:	d8f6      	bhi.n	26cf0 <__aeabi_memclr4+0x40>
   26d02:	18d0      	adds	r0, r2, r3
   26d04:	4282      	cmp	r2, r0
   26d06:	d21a      	bcs.n	26d3e <__aeabi_memclr4+0x8e>
   26d08:	2403      	movs	r4, #3
   26d0a:	401c      	ands	r4, r3
   26d0c:	1e59      	subs	r1, r3, #1
   26d0e:	2c00      	cmp	r4, #0
   26d10:	d00b      	beq.n	26d2a <__aeabi_memclr4+0x7a>
   26d12:	2300      	movs	r3, #0
   26d14:	7013      	strb	r3, [r2, #0]
   26d16:	2c01      	cmp	r4, #1
   26d18:	d103      	bne.n	26d22 <__aeabi_memclr4+0x72>
   26d1a:	1c52      	adds	r2, r2, #1
   26d1c:	2903      	cmp	r1, #3
   26d1e:	d206      	bcs.n	26d2e <__aeabi_memclr4+0x7e>
   26d20:	e00d      	b.n	26d3e <__aeabi_memclr4+0x8e>
   26d22:	7053      	strb	r3, [r2, #1]
   26d24:	2c02      	cmp	r4, #2
   26d26:	d10b      	bne.n	26d40 <__aeabi_memclr4+0x90>
   26d28:	1c92      	adds	r2, r2, #2
   26d2a:	2903      	cmp	r1, #3
   26d2c:	d307      	bcc.n	26d3e <__aeabi_memclr4+0x8e>
   26d2e:	2100      	movs	r1, #0
   26d30:	70d1      	strb	r1, [r2, #3]
   26d32:	7091      	strb	r1, [r2, #2]
   26d34:	7051      	strb	r1, [r2, #1]
   26d36:	7011      	strb	r1, [r2, #0]
   26d38:	1d12      	adds	r2, r2, #4
   26d3a:	4282      	cmp	r2, r0
   26d3c:	d1f7      	bne.n	26d2e <__aeabi_memclr4+0x7e>
   26d3e:	bdf0      	pop	{r4, r5, r6, r7, pc}
   26d40:	7093      	strb	r3, [r2, #2]
   26d42:	1cd2      	adds	r2, r2, #3
   26d44:	2903      	cmp	r1, #3
   26d46:	d2f2      	bcs.n	26d2e <__aeabi_memclr4+0x7e>
   26d48:	e7f9      	b.n	26d3e <__aeabi_memclr4+0x8e>

00026d4a <__aeabi_memcpy4>:
   26d4a:	b5f0      	push	{r4, r5, r6, r7, lr}
   26d4c:	af03      	add	r7, sp, #12
   26d4e:	b081      	sub	sp, #4
   26d50:	2a04      	cmp	r2, #4
   26d52:	d32d      	bcc.n	26db0 <__aeabi_memcpy4+0x66>
   26d54:	1f13      	subs	r3, r2, #4
   26d56:	250c      	movs	r5, #12
   26d58:	401d      	ands	r5, r3
   26d5a:	2d0c      	cmp	r5, #12
   26d5c:	d019      	beq.n	26d92 <__aeabi_memcpy4+0x48>
   26d5e:	9200      	str	r2, [sp, #0]
   26d60:	460e      	mov	r6, r1
   26d62:	c904      	ldmia	r1!, {r2}
   26d64:	4604      	mov	r4, r0
   26d66:	c004      	stmia	r0!, {r2}
   26d68:	071a      	lsls	r2, r3, #28
   26d6a:	0f92      	lsrs	r2, r2, #30
   26d6c:	461a      	mov	r2, r3
   26d6e:	d010      	beq.n	26d92 <__aeabi_memcpy4+0x48>
   26d70:	4631      	mov	r1, r6
   26d72:	6872      	ldr	r2, [r6, #4]
   26d74:	6062      	str	r2, [r4, #4]
   26d76:	2d04      	cmp	r5, #4
   26d78:	d104      	bne.n	26d84 <__aeabi_memcpy4+0x3a>
   26d7a:	9a00      	ldr	r2, [sp, #0]
   26d7c:	3a08      	subs	r2, #8
   26d7e:	3108      	adds	r1, #8
   26d80:	3408      	adds	r4, #8
   26d82:	e005      	b.n	26d90 <__aeabi_memcpy4+0x46>
   26d84:	688a      	ldr	r2, [r1, #8]
   26d86:	60a2      	str	r2, [r4, #8]
   26d88:	9a00      	ldr	r2, [sp, #0]
   26d8a:	3a0c      	subs	r2, #12
   26d8c:	310c      	adds	r1, #12
   26d8e:	340c      	adds	r4, #12
   26d90:	4620      	mov	r0, r4
   26d92:	2b0c      	cmp	r3, #12
   26d94:	d30c      	bcc.n	26db0 <__aeabi_memcpy4+0x66>
   26d96:	680b      	ldr	r3, [r1, #0]
   26d98:	6003      	str	r3, [r0, #0]
   26d9a:	684b      	ldr	r3, [r1, #4]
   26d9c:	6043      	str	r3, [r0, #4]
   26d9e:	688b      	ldr	r3, [r1, #8]
   26da0:	6083      	str	r3, [r0, #8]
   26da2:	68cb      	ldr	r3, [r1, #12]
   26da4:	60c3      	str	r3, [r0, #12]
   26da6:	3110      	adds	r1, #16
   26da8:	3010      	adds	r0, #16
   26daa:	3a10      	subs	r2, #16
   26dac:	2a03      	cmp	r2, #3
   26dae:	d8f2      	bhi.n	26d96 <__aeabi_memcpy4+0x4c>
   26db0:	f000 f802 	bl	26db8 <_ZN17compiler_builtins3mem6memcpy17h1f9dbb1c3fd18e2fE>
   26db4:	b001      	add	sp, #4
   26db6:	bdf0      	pop	{r4, r5, r6, r7, pc}

00026db8 <_ZN17compiler_builtins3mem6memcpy17h1f9dbb1c3fd18e2fE>:
   26db8:	b5f0      	push	{r4, r5, r6, r7, lr}
   26dba:	af03      	add	r7, sp, #12
   26dbc:	b08f      	sub	sp, #60	@ 0x3c
   26dbe:	2a10      	cmp	r2, #16
   26dc0:	d315      	bcc.n	26dee <_ZN17compiler_builtins3mem6memcpy17h1f9dbb1c3fd18e2fE+0x36>
   26dc2:	920b      	str	r2, [sp, #44]	@ 0x2c
   26dc4:	4242      	negs	r2, r0
   26dc6:	2303      	movs	r3, #3
   26dc8:	9308      	str	r3, [sp, #32]
   26dca:	401a      	ands	r2, r3
   26dcc:	1885      	adds	r5, r0, r2
   26dce:	900a      	str	r0, [sp, #40]	@ 0x28
   26dd0:	42a8      	cmp	r0, r5
   26dd2:	d22a      	bcs.n	26e2a <_ZN17compiler_builtins3mem6memcpy17h1f9dbb1c3fd18e2fE+0x72>
   26dd4:	1e54      	subs	r4, r2, #1
   26dd6:	2a00      	cmp	r2, #0
   26dd8:	980a      	ldr	r0, [sp, #40]	@ 0x28
   26dda:	4606      	mov	r6, r0
   26ddc:	460b      	mov	r3, r1
   26dde:	d016      	beq.n	26e0e <_ZN17compiler_builtins3mem6memcpy17h1f9dbb1c3fd18e2fE+0x56>
   26de0:	780b      	ldrb	r3, [r1, #0]
   26de2:	7003      	strb	r3, [r0, #0]
   26de4:	2a01      	cmp	r2, #1
   26de6:	d107      	bne.n	26df8 <_ZN17compiler_builtins3mem6memcpy17h1f9dbb1c3fd18e2fE+0x40>
   26de8:	1c4b      	adds	r3, r1, #1
   26dea:	1c46      	adds	r6, r0, #1
   26dec:	e00f      	b.n	26e0e <_ZN17compiler_builtins3mem6memcpy17h1f9dbb1c3fd18e2fE+0x56>
   26dee:	4603      	mov	r3, r0
   26df0:	189c      	adds	r4, r3, r2
   26df2:	42a3      	cmp	r3, r4
   26df4:	d341      	bcc.n	26e7a <_ZN17compiler_builtins3mem6memcpy17h1f9dbb1c3fd18e2fE+0xc2>
   26df6:	e062      	b.n	26ebe <_ZN17compiler_builtins3mem6memcpy17h1f9dbb1c3fd18e2fE+0x106>
   26df8:	784b      	ldrb	r3, [r1, #1]
   26dfa:	7043      	strb	r3, [r0, #1]
   26dfc:	2a02      	cmp	r2, #2
   26dfe:	d102      	bne.n	26e06 <_ZN17compiler_builtins3mem6memcpy17h1f9dbb1c3fd18e2fE+0x4e>
   26e00:	1c8b      	adds	r3, r1, #2
   26e02:	1c86      	adds	r6, r0, #2
   26e04:	e003      	b.n	26e0e <_ZN17compiler_builtins3mem6memcpy17h1f9dbb1c3fd18e2fE+0x56>
   26e06:	788b      	ldrb	r3, [r1, #2]
   26e08:	7083      	strb	r3, [r0, #2]
   26e0a:	1ccb      	adds	r3, r1, #3
   26e0c:	1cc6      	adds	r6, r0, #3
   26e0e:	2c03      	cmp	r4, #3
   26e10:	d30b      	bcc.n	26e2a <_ZN17compiler_builtins3mem6memcpy17h1f9dbb1c3fd18e2fE+0x72>
   26e12:	781c      	ldrb	r4, [r3, #0]
   26e14:	7034      	strb	r4, [r6, #0]
   26e16:	785c      	ldrb	r4, [r3, #1]
   26e18:	7074      	strb	r4, [r6, #1]
   26e1a:	789c      	ldrb	r4, [r3, #2]
   26e1c:	70b4      	strb	r4, [r6, #2]
   26e1e:	78dc      	ldrb	r4, [r3, #3]
   26e20:	70f4      	strb	r4, [r6, #3]
   26e22:	1d1b      	adds	r3, r3, #4
   26e24:	1d36      	adds	r6, r6, #4
   26e26:	42ae      	cmp	r6, r5
   26e28:	d1f3      	bne.n	26e12 <_ZN17compiler_builtins3mem6memcpy17h1f9dbb1c3fd18e2fE+0x5a>
   26e2a:	980b      	ldr	r0, [sp, #44]	@ 0x2c
   26e2c:	1a80      	subs	r0, r0, r2
   26e2e:	900b      	str	r0, [sp, #44]	@ 0x2c
   26e30:	9c08      	ldr	r4, [sp, #32]
   26e32:	43a0      	bics	r0, r4
   26e34:	182b      	adds	r3, r5, r0
   26e36:	188e      	adds	r6, r1, r2
   26e38:	9609      	str	r6, [sp, #36]	@ 0x24
   26e3a:	4026      	ands	r6, r4
   26e3c:	9007      	str	r0, [sp, #28]
   26e3e:	d147      	bne.n	26ed0 <_ZN17compiler_builtins3mem6memcpy17h1f9dbb1c3fd18e2fE+0x118>
   26e40:	429d      	cmp	r5, r3
   26e42:	9a0b      	ldr	r2, [sp, #44]	@ 0x2c
   26e44:	9e09      	ldr	r6, [sp, #36]	@ 0x24
   26e46:	d211      	bcs.n	26e6c <_ZN17compiler_builtins3mem6memcpy17h1f9dbb1c3fd18e2fE+0xb4>
   26e48:	4631      	mov	r1, r6
   26e4a:	6808      	ldr	r0, [r1, #0]
   26e4c:	c501      	stmia	r5!, {r0}
   26e4e:	429d      	cmp	r5, r3
   26e50:	d20c      	bcs.n	26e6c <_ZN17compiler_builtins3mem6memcpy17h1f9dbb1c3fd18e2fE+0xb4>
   26e52:	6848      	ldr	r0, [r1, #4]
   26e54:	c501      	stmia	r5!, {r0}
   26e56:	429d      	cmp	r5, r3
   26e58:	d208      	bcs.n	26e6c <_ZN17compiler_builtins3mem6memcpy17h1f9dbb1c3fd18e2fE+0xb4>
   26e5a:	6888      	ldr	r0, [r1, #8]
   26e5c:	c501      	stmia	r5!, {r0}
   26e5e:	429d      	cmp	r5, r3
   26e60:	d204      	bcs.n	26e6c <_ZN17compiler_builtins3mem6memcpy17h1f9dbb1c3fd18e2fE+0xb4>
   26e62:	68c8      	ldr	r0, [r1, #12]
   26e64:	c501      	stmia	r5!, {r0}
   26e66:	3110      	adds	r1, #16
   26e68:	429d      	cmp	r5, r3
   26e6a:	d3ee      	bcc.n	26e4a <_ZN17compiler_builtins3mem6memcpy17h1f9dbb1c3fd18e2fE+0x92>
   26e6c:	4022      	ands	r2, r4
   26e6e:	9807      	ldr	r0, [sp, #28]
   26e70:	1831      	adds	r1, r6, r0
   26e72:	980a      	ldr	r0, [sp, #40]	@ 0x28
   26e74:	189c      	adds	r4, r3, r2
   26e76:	42a3      	cmp	r3, r4
   26e78:	d221      	bcs.n	26ebe <_ZN17compiler_builtins3mem6memcpy17h1f9dbb1c3fd18e2fE+0x106>
   26e7a:	2503      	movs	r5, #3
   26e7c:	4015      	ands	r5, r2
   26e7e:	1e52      	subs	r2, r2, #1
   26e80:	2d00      	cmp	r5, #0
   26e82:	d00e      	beq.n	26ea2 <_ZN17compiler_builtins3mem6memcpy17h1f9dbb1c3fd18e2fE+0xea>
   26e84:	780e      	ldrb	r6, [r1, #0]
   26e86:	701e      	strb	r6, [r3, #0]
   26e88:	2d01      	cmp	r5, #1
   26e8a:	d104      	bne.n	26e96 <_ZN17compiler_builtins3mem6memcpy17h1f9dbb1c3fd18e2fE+0xde>
   26e8c:	1c49      	adds	r1, r1, #1
   26e8e:	1c5b      	adds	r3, r3, #1
   26e90:	2a03      	cmp	r2, #3
   26e92:	d208      	bcs.n	26ea6 <_ZN17compiler_builtins3mem6memcpy17h1f9dbb1c3fd18e2fE+0xee>
   26e94:	e013      	b.n	26ebe <_ZN17compiler_builtins3mem6memcpy17h1f9dbb1c3fd18e2fE+0x106>
   26e96:	784e      	ldrb	r6, [r1, #1]
   26e98:	705e      	strb	r6, [r3, #1]
   26e9a:	2d02      	cmp	r5, #2
   26e9c:	d111      	bne.n	26ec2 <_ZN17compiler_builtins3mem6memcpy17h1f9dbb1c3fd18e2fE+0x10a>
   26e9e:	1c89      	adds	r1, r1, #2
   26ea0:	1c9b      	adds	r3, r3, #2
   26ea2:	2a03      	cmp	r2, #3
   26ea4:	d30b      	bcc.n	26ebe <_ZN17compiler_builtins3mem6memcpy17h1f9dbb1c3fd18e2fE+0x106>
   26ea6:	780a      	ldrb	r2, [r1, #0]
   26ea8:	701a      	strb	r2, [r3, #0]
   26eaa:	784a      	ldrb	r2, [r1, #1]
   26eac:	705a      	strb	r2, [r3, #1]
   26eae:	788a      	ldrb	r2, [r1, #2]
   26eb0:	709a      	strb	r2, [r3, #2]
   26eb2:	78ca      	ldrb	r2, [r1, #3]
   26eb4:	70da      	strb	r2, [r3, #3]
   26eb6:	1d09      	adds	r1, r1, #4
   26eb8:	1d1b      	adds	r3, r3, #4
   26eba:	42a3      	cmp	r3, r4
   26ebc:	d1f3      	bne.n	26ea6 <_ZN17compiler_builtins3mem6memcpy17h1f9dbb1c3fd18e2fE+0xee>
   26ebe:	b00f      	add	sp, #60	@ 0x3c
   26ec0:	bdf0      	pop	{r4, r5, r6, r7, pc}
   26ec2:	788d      	ldrb	r5, [r1, #2]
   26ec4:	709d      	strb	r5, [r3, #2]
   26ec6:	1cc9      	adds	r1, r1, #3
   26ec8:	1cdb      	adds	r3, r3, #3
   26eca:	2a03      	cmp	r2, #3
   26ecc:	d2eb      	bcs.n	26ea6 <_ZN17compiler_builtins3mem6memcpy17h1f9dbb1c3fd18e2fE+0xee>
   26ece:	e7f6      	b.n	26ebe <_ZN17compiler_builtins3mem6memcpy17h1f9dbb1c3fd18e2fE+0x106>
   26ed0:	2400      	movs	r4, #0
   26ed2:	9406      	str	r4, [sp, #24]
   26ed4:	940e      	str	r4, [sp, #56]	@ 0x38
   26ed6:	ac0e      	add	r4, sp, #56	@ 0x38
   26ed8:	19a4      	adds	r4, r4, r6
   26eda:	9405      	str	r4, [sp, #20]
   26edc:	2404      	movs	r4, #4
   26ede:	1ba4      	subs	r4, r4, r6
   26ee0:	9404      	str	r4, [sp, #16]
   26ee2:	07e4      	lsls	r4, r4, #31
   26ee4:	9600      	str	r6, [sp, #0]
   26ee6:	d006      	beq.n	26ef6 <_ZN17compiler_builtins3mem6memcpy17h1f9dbb1c3fd18e2fE+0x13e>
   26ee8:	9c09      	ldr	r4, [sp, #36]	@ 0x24
   26eea:	7824      	ldrb	r4, [r4, #0]
   26eec:	9e05      	ldr	r6, [sp, #20]
   26eee:	7034      	strb	r4, [r6, #0]
   26ef0:	9e00      	ldr	r6, [sp, #0]
   26ef2:	2401      	movs	r4, #1
   26ef4:	9406      	str	r4, [sp, #24]
   26ef6:	9c04      	ldr	r4, [sp, #16]
   26ef8:	07a4      	lsls	r4, r4, #30
   26efa:	d508      	bpl.n	26f0e <_ZN17compiler_builtins3mem6memcpy17h1f9dbb1c3fd18e2fE+0x156>
   26efc:	9c09      	ldr	r4, [sp, #36]	@ 0x24
   26efe:	9204      	str	r2, [sp, #16]
   26f00:	9a06      	ldr	r2, [sp, #24]
   26f02:	5aa4      	ldrh	r4, [r4, r2]
   26f04:	9e05      	ldr	r6, [sp, #20]
   26f06:	9a06      	ldr	r2, [sp, #24]
   26f08:	52b4      	strh	r4, [r6, r2]
   26f0a:	9a04      	ldr	r2, [sp, #16]
   26f0c:	9e00      	ldr	r6, [sp, #0]
   26f0e:	00f4      	lsls	r4, r6, #3
   26f10:	9403      	str	r4, [sp, #12]
   26f12:	9c0e      	ldr	r4, [sp, #56]	@ 0x38
   26f14:	9406      	str	r4, [sp, #24]
   26f16:	1d2c      	adds	r4, r5, #4
   26f18:	429c      	cmp	r4, r3
   26f1a:	d236      	bcs.n	26f8a <_ZN17compiler_builtins3mem6memcpy17h1f9dbb1c3fd18e2fE+0x1d2>
   26f1c:	4274      	negs	r4, r6
   26f1e:	1909      	adds	r1, r1, r4
   26f20:	9105      	str	r1, [sp, #20]
   26f22:	9d03      	ldr	r5, [sp, #12]
   26f24:	4269      	negs	r1, r5
   26f26:	2418      	movs	r4, #24
   26f28:	400c      	ands	r4, r1
   26f2a:	9402      	str	r4, [sp, #8]
   26f2c:	990a      	ldr	r1, [sp, #40]	@ 0x28
   26f2e:	9104      	str	r1, [sp, #16]
   26f30:	4629      	mov	r1, r5
   26f32:	9c06      	ldr	r4, [sp, #24]
   26f34:	40cc      	lsrs	r4, r1
   26f36:	9406      	str	r4, [sp, #24]
   26f38:	9905      	ldr	r1, [sp, #20]
   26f3a:	1889      	adds	r1, r1, r2
   26f3c:	9101      	str	r1, [sp, #4]
   26f3e:	6849      	ldr	r1, [r1, #4]
   26f40:	460c      	mov	r4, r1
   26f42:	9d02      	ldr	r5, [sp, #8]
   26f44:	40ac      	lsls	r4, r5
   26f46:	9d06      	ldr	r5, [sp, #24]
   26f48:	432c      	orrs	r4, r5
   26f4a:	9d04      	ldr	r5, [sp, #16]
   26f4c:	50ac      	str	r4, [r5, r2]
   26f4e:	18ad      	adds	r5, r5, r2
   26f50:	462c      	mov	r4, r5
   26f52:	3408      	adds	r4, #8
   26f54:	429c      	cmp	r4, r3
   26f56:	d21c      	bcs.n	26f92 <_ZN17compiler_builtins3mem6memcpy17h1f9dbb1c3fd18e2fE+0x1da>
   26f58:	9c03      	ldr	r4, [sp, #12]
   26f5a:	40e1      	lsrs	r1, r4
   26f5c:	9c01      	ldr	r4, [sp, #4]
   26f5e:	68a4      	ldr	r4, [r4, #8]
   26f60:	9406      	str	r4, [sp, #24]
   26f62:	9501      	str	r5, [sp, #4]
   26f64:	9d02      	ldr	r5, [sp, #8]
   26f66:	40ac      	lsls	r4, r5
   26f68:	430c      	orrs	r4, r1
   26f6a:	9901      	ldr	r1, [sp, #4]
   26f6c:	604c      	str	r4, [r1, #4]
   26f6e:	9904      	ldr	r1, [sp, #16]
   26f70:	3108      	adds	r1, #8
   26f72:	9104      	str	r1, [sp, #16]
   26f74:	188d      	adds	r5, r1, r2
   26f76:	1d29      	adds	r1, r5, #4
   26f78:	9c05      	ldr	r4, [sp, #20]
   26f7a:	3408      	adds	r4, #8
   26f7c:	9405      	str	r4, [sp, #20]
   26f7e:	4299      	cmp	r1, r3
   26f80:	9903      	ldr	r1, [sp, #12]
   26f82:	d3d6      	bcc.n	26f32 <_ZN17compiler_builtins3mem6memcpy17h1f9dbb1c3fd18e2fE+0x17a>
   26f84:	9805      	ldr	r0, [sp, #20]
   26f86:	1880      	adds	r0, r0, r2
   26f88:	e001      	b.n	26f8e <_ZN17compiler_builtins3mem6memcpy17h1f9dbb1c3fd18e2fE+0x1d6>
   26f8a:	9809      	ldr	r0, [sp, #36]	@ 0x24
   26f8c:	1b80      	subs	r0, r0, r6
   26f8e:	9005      	str	r0, [sp, #20]
   26f90:	e004      	b.n	26f9c <_ZN17compiler_builtins3mem6memcpy17h1f9dbb1c3fd18e2fE+0x1e4>
   26f92:	9801      	ldr	r0, [sp, #4]
   26f94:	1d00      	adds	r0, r0, #4
   26f96:	9005      	str	r0, [sp, #20]
   26f98:	1d2d      	adds	r5, r5, #4
   26f9a:	9106      	str	r1, [sp, #24]
   26f9c:	a80d      	add	r0, sp, #52	@ 0x34
   26f9e:	2100      	movs	r1, #0
   26fa0:	9004      	str	r0, [sp, #16]
   26fa2:	7001      	strb	r1, [r0, #0]
   26fa4:	a80c      	add	r0, sp, #48	@ 0x30
   26fa6:	7001      	strb	r1, [r0, #0]
   26fa8:	2e01      	cmp	r6, #1
   26faa:	460e      	mov	r6, r1
   26fac:	460c      	mov	r4, r1
   26fae:	9102      	str	r1, [sp, #8]
   26fb0:	9a0b      	ldr	r2, [sp, #44]	@ 0x2c
   26fb2:	d009      	beq.n	26fc8 <_ZN17compiler_builtins3mem6memcpy17h1f9dbb1c3fd18e2fE+0x210>
   26fb4:	9c05      	ldr	r4, [sp, #20]
   26fb6:	7960      	ldrb	r0, [r4, #5]
   26fb8:	7926      	ldrb	r6, [r4, #4]
   26fba:	ac0d      	add	r4, sp, #52	@ 0x34
   26fbc:	7026      	strb	r6, [r4, #0]
   26fbe:	0204      	lsls	r4, r0, #8
   26fc0:	2002      	movs	r0, #2
   26fc2:	9002      	str	r0, [sp, #8]
   26fc4:	a80c      	add	r0, sp, #48	@ 0x30
   26fc6:	9004      	str	r0, [sp, #16]
   26fc8:	9809      	ldr	r0, [sp, #36]	@ 0x24
   26fca:	07c0      	lsls	r0, r0, #31
   26fcc:	d00a      	beq.n	26fe4 <_ZN17compiler_builtins3mem6memcpy17h1f9dbb1c3fd18e2fE+0x22c>
   26fce:	9805      	ldr	r0, [sp, #20]
   26fd0:	1d00      	adds	r0, r0, #4
   26fd2:	9902      	ldr	r1, [sp, #8]
   26fd4:	5c40      	ldrb	r0, [r0, r1]
   26fd6:	9904      	ldr	r1, [sp, #16]
   26fd8:	7008      	strb	r0, [r1, #0]
   26fda:	a80d      	add	r0, sp, #52	@ 0x34
   26fdc:	7806      	ldrb	r6, [r0, #0]
   26fde:	a80c      	add	r0, sp, #48	@ 0x30
   26fe0:	7800      	ldrb	r0, [r0, #0]
   26fe2:	0401      	lsls	r1, r0, #16
   26fe4:	9605      	str	r6, [sp, #20]
   26fe6:	9803      	ldr	r0, [sp, #12]
   26fe8:	4240      	negs	r0, r0
   26fea:	9004      	str	r0, [sp, #16]
   26fec:	2618      	movs	r6, #24
   26fee:	9804      	ldr	r0, [sp, #16]
   26ff0:	4006      	ands	r6, r0
   26ff2:	430c      	orrs	r4, r1
   26ff4:	9905      	ldr	r1, [sp, #20]
   26ff6:	430c      	orrs	r4, r1
   26ff8:	40b4      	lsls	r4, r6
   26ffa:	9906      	ldr	r1, [sp, #24]
   26ffc:	9803      	ldr	r0, [sp, #12]
   26ffe:	40c1      	lsrs	r1, r0
   27000:	4321      	orrs	r1, r4
   27002:	6029      	str	r1, [r5, #0]
   27004:	9c08      	ldr	r4, [sp, #32]
   27006:	9e09      	ldr	r6, [sp, #36]	@ 0x24
   27008:	e730      	b.n	26e6c <_ZN17compiler_builtins3mem6memcpy17h1f9dbb1c3fd18e2fE+0xb4>

0002700a <__aeabi_memcpy>:
   2700a:	b580      	push	{r7, lr}
   2700c:	af00      	add	r7, sp, #0
   2700e:	f7ff fed3 	bl	26db8 <_ZN17compiler_builtins3mem6memcpy17h1f9dbb1c3fd18e2fE>
   27012:	bd80      	pop	{r7, pc}
